ARM GAS  G:\Users\Jaxb\AppData\Local\Temp\ccQSqEme.s 			page 1


   1              		.cpu cortex-m3
   2              		.eabi_attribute 20, 1
   3              		.eabi_attribute 21, 1
   4              		.eabi_attribute 23, 3
   5              		.eabi_attribute 24, 1
   6              		.eabi_attribute 25, 1
   7              		.eabi_attribute 26, 1
   8              		.eabi_attribute 30, 2
   9              		.eabi_attribute 34, 1
  10              		.eabi_attribute 18, 4
  11              		.file	"bsp.c"
  12              		.text
  13              	.Ltext0:
  14              		.cfi_sections	.debug_frame
  15              		.align	1
  16              		.p2align 2,,3
  17              		.global	ka_putchar
  18              		.syntax unified
  19              		.thumb
  20              		.thumb_func
  21              		.fpu softvfp
  22              		.type	ka_putchar, %function
  23              	ka_putchar:
  24              	.LFB33:
  25              		.file 1 "../../source/src/user/OS_CPU/bsp/bsp.c"
   1:../../source/src/user/OS_CPU/bsp/bsp.c **** #include <bsp.h>
   2:../../source/src/user/OS_CPU/bsp/bsp.c **** #include <buddy.h>
   3:../../source/src/user/OS_CPU/bsp/bsp.c **** #include <bsp_usart.h>
   4:../../source/src/user/OS_CPU/bsp/bsp.c **** #include <sram.h>
   5:../../source/src/user/OS_CPU/bsp/bsp.c **** #include <myMicroLIB.h>
   6:../../source/src/user/OS_CPU/bsp/bsp.c **** 
   7:../../source/src/user/OS_CPU/bsp/bsp.c **** static const struct dev_mem_para para1 = {
   8:../../source/src/user/OS_CPU/bsp/bsp.c **** 	.start = (void *)0x20000000,
   9:../../source/src/user/OS_CPU/bsp/bsp.c **** 	.size = 64, // KB
  10:../../source/src/user/OS_CPU/bsp/bsp.c **** 	.prio = 1,
  11:../../source/src/user/OS_CPU/bsp/bsp.c **** };
  12:../../source/src/user/OS_CPU/bsp/bsp.c **** 
  13:../../source/src/user/OS_CPU/bsp/bsp.c **** static const struct dev_mem_para para2 = {
  14:../../source/src/user/OS_CPU/bsp/bsp.c **** 	.start = (void *)0x68000000,
  15:../../source/src/user/OS_CPU/bsp/bsp.c **** 	.size = 1024, //KB
  16:../../source/src/user/OS_CPU/bsp/bsp.c **** 	.prio = 2,
  17:../../source/src/user/OS_CPU/bsp/bsp.c **** };
  18:../../source/src/user/OS_CPU/bsp/bsp.c **** 
  19:../../source/src/user/OS_CPU/bsp/bsp.c **** static const struct device device_array[] = {
  20:../../source/src/user/OS_CPU/bsp/bsp.c **** 
  21:../../source/src/user/OS_CPU/bsp/bsp.c **** 	{
  22:../../source/src/user/OS_CPU/bsp/bsp.c **** 		.head.dev_name = "USART1",
  23:../../source/src/user/OS_CPU/bsp/bsp.c **** 		.head.dev_info = NULL,
  24:../../source/src/user/OS_CPU/bsp/bsp.c **** 		.head.type = DEV_NORMAL,
  25:../../source/src/user/OS_CPU/bsp/bsp.c **** 		.u.normal.init_fun = USART_Config,
  26:../../source/src/user/OS_CPU/bsp/bsp.c **** 	},
  27:../../source/src/user/OS_CPU/bsp/bsp.c **** 
  28:../../source/src/user/OS_CPU/bsp/bsp.c **** 	{
  29:../../source/src/user/OS_CPU/bsp/bsp.c **** 		.head.dev_name = "SRAM",
  30:../../source/src/user/OS_CPU/bsp/bsp.c **** 		.head.dev_info = NULL,
  31:../../source/src/user/OS_CPU/bsp/bsp.c **** 		.head.type = DEV_NORMAL,
  32:../../source/src/user/OS_CPU/bsp/bsp.c **** 		.u.normal.init_fun = FSMC_SRAM_Init,
ARM GAS  G:\Users\Jaxb\AppData\Local\Temp\ccQSqEme.s 			page 2


  33:../../source/src/user/OS_CPU/bsp/bsp.c **** 	},
  34:../../source/src/user/OS_CPU/bsp/bsp.c **** 
  35:../../source/src/user/OS_CPU/bsp/bsp.c **** 	{	
  36:../../source/src/user/OS_CPU/bsp/bsp.c **** 		.head.dev_name = "first mem",
  37:../../source/src/user/OS_CPU/bsp/bsp.c **** 		.head.dev_info = NULL,
  38:../../source/src/user/OS_CPU/bsp/bsp.c **** 		.head.type = DEV_MEM,
  39:../../source/src/user/OS_CPU/bsp/bsp.c **** 		.u.mem.init_fun = buddy_init,
  40:../../source/src/user/OS_CPU/bsp/bsp.c **** 		.u.mem.para = &para1,
  41:../../source/src/user/OS_CPU/bsp/bsp.c **** 	},
  42:../../source/src/user/OS_CPU/bsp/bsp.c **** 
  43:../../source/src/user/OS_CPU/bsp/bsp.c **** 	{	
  44:../../source/src/user/OS_CPU/bsp/bsp.c **** 		.head.dev_name = "second mem",
  45:../../source/src/user/OS_CPU/bsp/bsp.c **** 		.head.dev_info = NULL,
  46:../../source/src/user/OS_CPU/bsp/bsp.c **** 		.head.type = DEV_MEM,
  47:../../source/src/user/OS_CPU/bsp/bsp.c **** 		.u.mem.init_fun = buddy_init,
  48:../../source/src/user/OS_CPU/bsp/bsp.c **** 		.u.mem.para = &para2,
  49:../../source/src/user/OS_CPU/bsp/bsp.c **** 	}
  50:../../source/src/user/OS_CPU/bsp/bsp.c **** 	
  51:../../source/src/user/OS_CPU/bsp/bsp.c **** };
  52:../../source/src/user/OS_CPU/bsp/bsp.c **** 
  53:../../source/src/user/OS_CPU/bsp/bsp.c **** void ka_putchar(const char ch)  
  54:../../source/src/user/OS_CPU/bsp/bsp.c **** {
  26              		.loc 1 54 0
  27              		.cfi_startproc
  28              		@ args = 0, pretend = 0, frame = 0
  29              		@ frame_needed = 0, uses_anonymous_args = 0
  30              	.LVL0:
  31 0000 10B5     		push	{r4, lr}
  32              	.LCFI0:
  33              		.cfi_def_cfa_offset 8
  34              		.cfi_offset 4, -8
  35              		.cfi_offset 14, -4
  55:../../source/src/user/OS_CPU/bsp/bsp.c **** 	USART_SendData(DEBUG_USARTx,ch);
  36              		.loc 1 55 0
  37 0002 0146     		mov	r1, r0
  38 0004 0548     		ldr	r0, .L6
  39              	.LVL1:
  40 0006 FFF7FEFF 		bl	USART_SendData
  41              	.LVL2:
  56:../../source/src/user/OS_CPU/bsp/bsp.c **** 	while (USART_GetFlagStatus(DEBUG_USARTx, USART_FLAG_TXE) == RESET);
  42              		.loc 1 56 0
  43 000a 044C     		ldr	r4, .L6
  44              	.L2:
  45              		.loc 1 56 0 is_stmt 0 discriminator 1
  46 000c 8021     		movs	r1, #128
  47 000e 2046     		mov	r0, r4
  48 0010 FFF7FEFF 		bl	USART_GetFlagStatus
  49              	.LVL3:
  50 0014 0028     		cmp	r0, #0
  51 0016 F9D0     		beq	.L2
  57:../../source/src/user/OS_CPU/bsp/bsp.c **** }
  52              		.loc 1 57 0 is_stmt 1
  53 0018 10BD     		pop	{r4, pc}
  54              	.L7:
  55 001a 00BF     		.align	2
  56              	.L6:
  57 001c 00380140 		.word	1073821696
ARM GAS  G:\Users\Jaxb\AppData\Local\Temp\ccQSqEme.s 			page 3


  58              		.cfi_endproc
  59              	.LFE33:
  60              		.size	ka_putchar, .-ka_putchar
  61              		.align	1
  62              		.p2align 2,,3
  63              		.global	bsp_init
  64              		.syntax unified
  65              		.thumb
  66              		.thumb_func
  67              		.fpu softvfp
  68              		.type	bsp_init, %function
  69              	bsp_init:
  70              	.LFB34:
  58:../../source/src/user/OS_CPU/bsp/bsp.c **** 
  59:../../source/src/user/OS_CPU/bsp/bsp.c **** void bsp_init(void)
  60:../../source/src/user/OS_CPU/bsp/bsp.c **** {
  71              		.loc 1 60 0
  72              		.cfi_startproc
  73              		@ args = 0, pretend = 0, frame = 0
  74              		@ frame_needed = 0, uses_anonymous_args = 0
  75 0020 2DE9F041 		push	{r4, r5, r6, r7, r8, lr}
  76              	.LCFI1:
  77              		.cfi_def_cfa_offset 24
  78              		.cfi_offset 4, -24
  79              		.cfi_offset 5, -20
  80              		.cfi_offset 6, -16
  81              		.cfi_offset 7, -12
  82              		.cfi_offset 8, -8
  83              		.cfi_offset 14, -4
  61:../../source/src/user/OS_CPU/bsp/bsp.c **** 	unsigned int i;
  62:../../source/src/user/OS_CPU/bsp/bsp.c **** 	USART_Config();
  84              		.loc 1 62 0
  85 0024 FFF7FEFF 		bl	USART_Config
  86              	.LVL4:
  87 0028 0023     		movs	r3, #0
  88 002a 184C     		ldr	r4, .L22
  63:../../source/src/user/OS_CPU/bsp/bsp.c **** 	for(i=0;i<sizeof(device_array)/sizeof(struct device);++i)
  64:../../source/src/user/OS_CPU/bsp/bsp.c **** 	{
  65:../../source/src/user/OS_CPU/bsp/bsp.c **** 		switch(device_array[i].head.type)
  66:../../source/src/user/OS_CPU/bsp/bsp.c **** 		{
  67:../../source/src/user/OS_CPU/bsp/bsp.c **** 			case DEV_NORMAL:
  68:../../source/src/user/OS_CPU/bsp/bsp.c **** 				device_array[i].u.normal.init_fun();
  69:../../source/src/user/OS_CPU/bsp/bsp.c **** 				ka_printf("type is ");
  89              		.loc 1 69 0
  90 002c 184E     		ldr	r6, .L22+4
  70:../../source/src/user/OS_CPU/bsp/bsp.c **** 				ka_printf("DEV_NORMAL\n");
  91              		.loc 1 70 0
  92 002e DFF87480 		ldr	r8, .L22+24
  71:../../source/src/user/OS_CPU/bsp/bsp.c **** 				break;
  72:../../source/src/user/OS_CPU/bsp/bsp.c **** 			case DEV_MEM:
  73:../../source/src/user/OS_CPU/bsp/bsp.c **** 				device_array[i].u.mem.init_fun(device_array[i].u.mem.para);
  74:../../source/src/user/OS_CPU/bsp/bsp.c **** 				ka_printf("type is ");
  75:../../source/src/user/OS_CPU/bsp/bsp.c **** 				ka_printf("DEV_MEM\n");
  76:../../source/src/user/OS_CPU/bsp/bsp.c **** 				break;
  77:../../source/src/user/OS_CPU/bsp/bsp.c **** 			default :
  78:../../source/src/user/OS_CPU/bsp/bsp.c **** 				ka_printf("error!!!\n");break;
  93              		.loc 1 78 0
ARM GAS  G:\Users\Jaxb\AppData\Local\Temp\ccQSqEme.s 			page 4


  94 0032 184F     		ldr	r7, .L22+8
  95 0034 04F15005 		add	r5, r4, #80
  65:../../source/src/user/OS_CPU/bsp/bsp.c **** 		{
  96              		.loc 1 65 0
  97 0038 CBB1     		cbz	r3, .L10
  98              	.L21:
  99 003a 012B     		cmp	r3, #1
 100 003c 20D1     		bne	.L20
  73:../../source/src/user/OS_CPU/bsp/bsp.c **** 				ka_printf("type is ");
 101              		.loc 1 73 0
 102 003e D4E90330 		ldrd	r3, r0, [r4, #12]
 103 0042 9847     		blx	r3
 104              	.LVL5:
  74:../../source/src/user/OS_CPU/bsp/bsp.c **** 				ka_printf("DEV_MEM\n");
 105              		.loc 1 74 0
 106 0044 3046     		mov	r0, r6
 107 0046 FFF7FEFF 		bl	ka_printf
 108              	.LVL6:
  75:../../source/src/user/OS_CPU/bsp/bsp.c **** 				break;
 109              		.loc 1 75 0
 110 004a 1348     		ldr	r0, .L22+12
 111 004c FFF7FEFF 		bl	ka_printf
 112              	.LVL7:
 113              	.L12:
  79:../../source/src/user/OS_CPU/bsp/bsp.c **** 		}
  80:../../source/src/user/OS_CPU/bsp/bsp.c **** 		ka_printf("dev_name is %s\n",device_array[i].head.dev_name);
 114              		.loc 1 80 0
 115 0050 2168     		ldr	r1, [r4]
 116 0052 1248     		ldr	r0, .L22+16
 117 0054 FFF7FEFF 		bl	ka_printf
 118              	.LVL8:
  81:../../source/src/user/OS_CPU/bsp/bsp.c **** 		if(NULL != device_array[i].head.dev_info)
 119              		.loc 1 81 0
 120 0058 6168     		ldr	r1, [r4, #4]
  82:../../source/src/user/OS_CPU/bsp/bsp.c **** 		{
  83:../../source/src/user/OS_CPU/bsp/bsp.c **** 			ka_printf("dev_info is %s\n",device_array[i].head.dev_info);
 121              		.loc 1 83 0
 122 005a 1148     		ldr	r0, .L22+20
 123 005c 1434     		adds	r4, r4, #20
  81:../../source/src/user/OS_CPU/bsp/bsp.c **** 		if(NULL != device_array[i].head.dev_info)
 124              		.loc 1 81 0
 125 005e 09B1     		cbz	r1, .L13
 126              		.loc 1 83 0
 127 0060 FFF7FEFF 		bl	ka_printf
 128              	.LVL9:
 129              	.L13:
  63:../../source/src/user/OS_CPU/bsp/bsp.c **** 	{
 130              		.loc 1 63 0 discriminator 2
 131 0064 AC42     		cmp	r4, r5
 132 0066 0FD0     		beq	.L8
 133 0068 237A     		ldrb	r3, [r4, #8]	@ zero_extendqisi2
  65:../../source/src/user/OS_CPU/bsp/bsp.c **** 		{
 134              		.loc 1 65 0
 135 006a 002B     		cmp	r3, #0
 136 006c E5D1     		bne	.L21
 137              	.L10:
  68:../../source/src/user/OS_CPU/bsp/bsp.c **** 				ka_printf("type is ");
ARM GAS  G:\Users\Jaxb\AppData\Local\Temp\ccQSqEme.s 			page 5


 138              		.loc 1 68 0
 139 006e E368     		ldr	r3, [r4, #12]
 140 0070 9847     		blx	r3
 141              	.LVL10:
  69:../../source/src/user/OS_CPU/bsp/bsp.c **** 				ka_printf("DEV_NORMAL\n");
 142              		.loc 1 69 0
 143 0072 3046     		mov	r0, r6
 144 0074 FFF7FEFF 		bl	ka_printf
 145              	.LVL11:
  70:../../source/src/user/OS_CPU/bsp/bsp.c **** 				break;
 146              		.loc 1 70 0
 147 0078 4046     		mov	r0, r8
 148 007a FFF7FEFF 		bl	ka_printf
 149              	.LVL12:
  71:../../source/src/user/OS_CPU/bsp/bsp.c **** 			case DEV_MEM:
 150              		.loc 1 71 0
 151 007e E7E7     		b	.L12
 152              	.L20:
  78:../../source/src/user/OS_CPU/bsp/bsp.c **** 		}
 153              		.loc 1 78 0
 154 0080 3846     		mov	r0, r7
 155 0082 FFF7FEFF 		bl	ka_printf
 156              	.LVL13:
 157 0086 E3E7     		b	.L12
 158              	.L8:
  84:../../source/src/user/OS_CPU/bsp/bsp.c **** 		}
  85:../../source/src/user/OS_CPU/bsp/bsp.c **** 	}
  86:../../source/src/user/OS_CPU/bsp/bsp.c **** }
 159              		.loc 1 86 0
 160 0088 BDE8F081 		pop	{r4, r5, r6, r7, r8, pc}
 161              	.L23:
 162              		.align	2
 163              	.L22:
 164 008c 00000000 		.word	.LANCHOR0
 165 0090 00000000 		.word	.LC0
 166 0094 24000000 		.word	.LC3
 167 0098 18000000 		.word	.LC2
 168 009c 30000000 		.word	.LC4
 169 00a0 40000000 		.word	.LC5
 170 00a4 0C000000 		.word	.LC1
 171              		.cfi_endproc
 172              	.LFE34:
 173              		.size	bsp_init, .-bsp_init
 174              		.section	.rodata
 175              		.align	2
 176              		.set	.LANCHOR0,. + 0
 177              		.type	device_array, %object
 178              		.size	device_array, 80
 179              	device_array:
 180 0000 50000000 		.word	.LC6
 181 0004 00000000 		.word	0
 182 0008 00       		.byte	0
 183 0009 000000   		.space	3
 184 000c 00000000 		.word	USART_Config
 185 0010 00000000 		.space	4
 186 0014 58000000 		.word	.LC7
 187 0018 00000000 		.word	0
ARM GAS  G:\Users\Jaxb\AppData\Local\Temp\ccQSqEme.s 			page 6


 188 001c 00       		.byte	0
 189 001d 000000   		.space	3
 190 0020 00000000 		.word	FSMC_SRAM_Init
 191 0024 00000000 		.space	4
 192 0028 60000000 		.word	.LC8
 193 002c 00000000 		.word	0
 194 0030 01       		.byte	1
 195 0031 000000   		.space	3
 196 0034 00000000 		.word	buddy_init
 197 0038 5C000000 		.word	para1
 198 003c 6C000000 		.word	.LC9
 199 0040 00000000 		.word	0
 200 0044 01       		.byte	1
 201 0045 000000   		.space	3
 202 0048 00000000 		.word	buddy_init
 203 004c 50000000 		.word	para2
 204              		.type	para2, %object
 205              		.size	para2, 12
 206              	para2:
 207 0050 02000000 		.word	2
 208 0054 00000068 		.word	1744830464
 209 0058 00040000 		.word	1024
 210              		.type	para1, %object
 211              		.size	para1, 12
 212              	para1:
 213 005c 01000000 		.word	1
 214 0060 00000020 		.word	536870912
 215 0064 40000000 		.word	64
 216              		.section	.rodata.str1.4,"aMS",%progbits,1
 217              		.align	2
 218              	.LC0:
 219 0000 74797065 		.ascii	"type is \000"
 219      20697320 
 219      00
 220 0009 000000   		.space	3
 221              	.LC1:
 222 000c 4445565F 		.ascii	"DEV_NORMAL\012\000"
 222      4E4F524D 
 222      414C0A00 
 223              	.LC2:
 224 0018 4445565F 		.ascii	"DEV_MEM\012\000"
 224      4D454D0A 
 224      00
 225 0021 000000   		.space	3
 226              	.LC3:
 227 0024 6572726F 		.ascii	"error!!!\012\000"
 227      72212121 
 227      0A00
 228 002e 0000     		.space	2
 229              	.LC4:
 230 0030 6465765F 		.ascii	"dev_name is %s\012\000"
 230      6E616D65 
 230      20697320 
 230      25730A00 
 231              	.LC5:
 232 0040 6465765F 		.ascii	"dev_info is %s\012\000"
 232      696E666F 
ARM GAS  G:\Users\Jaxb\AppData\Local\Temp\ccQSqEme.s 			page 7


 232      20697320 
 232      25730A00 
 233              	.LC6:
 234 0050 55534152 		.ascii	"USART1\000"
 234      543100
 235 0057 00       		.space	1
 236              	.LC7:
 237 0058 5352414D 		.ascii	"SRAM\000"
 237      00
 238 005d 000000   		.space	3
 239              	.LC8:
 240 0060 66697273 		.ascii	"first mem\000"
 240      74206D65 
 240      6D00
 241 006a 0000     		.space	2
 242              	.LC9:
 243 006c 7365636F 		.ascii	"second mem\000"
 243      6E64206D 
 243      656D00
 244              		.text
 245              	.Letext0:
 246              		.file 2 "../../source/include/os_cpu/bsp/bsp.h"
 247              		.file 3 "../../source/include/os_cpu/kakaosstdint.h"
 248              		.file 4 "f:\\arm\\gcc2018\\arm-none-eabi\\include\\machine\\_default_types.h"
 249              		.file 5 "f:\\arm\\gcc2018\\arm-none-eabi\\include\\sys\\_stdint.h"
 250              		.file 6 "../../source/include/core_cm3.h"
 251              		.file 7 "../../source/include/system_stm32f10x.h"
 252              		.file 8 "../../source/include/stm32f10x.h"
 253              		.file 9 "../../source/include/os_cpu/bsp/bsp_usart.h"
 254              		.file 10 "../../source/include/os_lib/myMicroLIB.h"
 255              		.file 11 "../../source/src/FWlib/inc/stm32f10x_usart.h"