ARM GAS  G:\Users\Jaxb\AppData\Local\Temp\cc0pP7TY.s 			page 1


   1              		.cpu cortex-m3
   2              		.eabi_attribute 20, 1
   3              		.eabi_attribute 21, 1
   4              		.eabi_attribute 23, 3
   5              		.eabi_attribute 24, 1
   6              		.eabi_attribute 25, 1
   7              		.eabi_attribute 26, 1
   8              		.eabi_attribute 30, 6
   9              		.eabi_attribute 34, 1
  10              		.eabi_attribute 18, 4
  11              		.file	"bsp.c"
  12              		.text
  13              	.Ltext0:
  14              		.cfi_sections	.debug_frame
  15              		.section	.rodata
  16              		.align	2
  17              	.LC0:
  18 0000 74797065 		.ascii	"type is \000"
  18      20697320 
  18      00
  19 0009 000000   		.align	2
  20              	.LC1:
  21 000c 4445565F 		.ascii	"DEV_NORMAL\012\000"
  21      4E4F524D 
  21      414C0A00 
  22              		.align	2
  23              	.LC2:
  24 0018 4445565F 		.ascii	"DEV_MEM\012\000"
  24      4D454D0A 
  24      00
  25 0021 000000   		.align	2
  26              	.LC3:
  27 0024 6572726F 		.ascii	"error!!!\012\000"
  27      72212121 
  27      0A00
  28 002e 0000     		.align	2
  29              	.LC4:
  30 0030 6465765F 		.ascii	"dev_name is %s\012\000"
  30      6E616D65 
  30      20697320 
  30      25730A00 
  31              		.align	2
  32              	.LC5:
  33 0040 6465765F 		.ascii	"dev_info is %s\012\000"
  33      696E666F 
  33      20697320 
  33      25730A00 
  34              		.text
  35              		.align	1
  36              		.global	_bsp_init
  37              		.syntax unified
  38              		.thumb
  39              		.thumb_func
  40              		.fpu softvfp
  41              		.type	_bsp_init, %function
  42              	_bsp_init:
  43              	.LFB0:
ARM GAS  G:\Users\Jaxb\AppData\Local\Temp\cc0pP7TY.s 			page 2


  44              		.file 1 "../../source/src/kernel/OS_CORE/bsp.c"
   1:../../source/src/kernel/OS_CORE/bsp.c **** #include <bsp.h>
   2:../../source/src/kernel/OS_CORE/bsp.c **** #include <myMicroLIB.h>
   3:../../source/src/kernel/OS_CORE/bsp.c **** 
   4:../../source/src/kernel/OS_CORE/bsp.c **** 
   5:../../source/src/kernel/OS_CORE/bsp.c **** void _bsp_init(const struct device *device_array,unsigned int num)
   6:../../source/src/kernel/OS_CORE/bsp.c **** {
  45              		.loc 1 6 0
  46              		.cfi_startproc
  47              		@ args = 0, pretend = 0, frame = 16
  48              		@ frame_needed = 1, uses_anonymous_args = 0
  49 0000 80B5     		push	{r7, lr}
  50              	.LCFI0:
  51              		.cfi_def_cfa_offset 8
  52              		.cfi_offset 7, -8
  53              		.cfi_offset 14, -4
  54 0002 84B0     		sub	sp, sp, #16
  55              	.LCFI1:
  56              		.cfi_def_cfa_offset 24
  57 0004 00AF     		add	r7, sp, #0
  58              	.LCFI2:
  59              		.cfi_def_cfa_register 7
  60 0006 7860     		str	r0, [r7, #4]
  61 0008 3960     		str	r1, [r7]
   7:../../source/src/kernel/OS_CORE/bsp.c **** 	unsigned int i;
   8:../../source/src/kernel/OS_CORE/bsp.c **** 	for(i=0;i<num;++i)
  62              		.loc 1 8 0
  63 000a 0023     		movs	r3, #0
  64 000c FB60     		str	r3, [r7, #12]
  65 000e 65E0     		b	.L2
  66              	.L8:
   9:../../source/src/kernel/OS_CORE/bsp.c **** 	{
  10:../../source/src/kernel/OS_CORE/bsp.c **** 		switch(device_array[i].head.type)
  67              		.loc 1 10 0
  68 0010 FA68     		ldr	r2, [r7, #12]
  69 0012 1346     		mov	r3, r2
  70 0014 9B00     		lsls	r3, r3, #2
  71 0016 1344     		add	r3, r3, r2
  72 0018 9B00     		lsls	r3, r3, #2
  73 001a 1A46     		mov	r2, r3
  74 001c 7B68     		ldr	r3, [r7, #4]
  75 001e 1344     		add	r3, r3, r2
  76 0020 1B7A     		ldrb	r3, [r3, #8]	@ zero_extendqisi2
  77 0022 002B     		cmp	r3, #0
  78 0024 02D0     		beq	.L4
  79 0026 012B     		cmp	r3, #1
  80 0028 11D0     		beq	.L5
  81 002a 2BE0     		b	.L9
  82              	.L4:
  11:../../source/src/kernel/OS_CORE/bsp.c **** 		{
  12:../../source/src/kernel/OS_CORE/bsp.c **** 			case DEV_NORMAL:
  13:../../source/src/kernel/OS_CORE/bsp.c **** 				device_array[i].u.normal.init_fun();
  83              		.loc 1 13 0
  84 002c FA68     		ldr	r2, [r7, #12]
  85 002e 1346     		mov	r3, r2
  86 0030 9B00     		lsls	r3, r3, #2
  87 0032 1344     		add	r3, r3, r2
ARM GAS  G:\Users\Jaxb\AppData\Local\Temp\cc0pP7TY.s 			page 3


  88 0034 9B00     		lsls	r3, r3, #2
  89 0036 1A46     		mov	r2, r3
  90 0038 7B68     		ldr	r3, [r7, #4]
  91 003a 1344     		add	r3, r3, r2
  92 003c DB68     		ldr	r3, [r3, #12]
  93 003e 9847     		blx	r3
  94              	.LVL0:
  14:../../source/src/kernel/OS_CORE/bsp.c **** 				ka_printf("type is ");
  95              		.loc 1 14 0
  96 0040 2A48     		ldr	r0, .L10
  97 0042 FFF7FEFF 		bl	ka_printf
  15:../../source/src/kernel/OS_CORE/bsp.c **** 				ka_printf("DEV_NORMAL\n");
  98              		.loc 1 15 0
  99 0046 2A48     		ldr	r0, .L10+4
 100 0048 FFF7FEFF 		bl	ka_printf
  16:../../source/src/kernel/OS_CORE/bsp.c **** 				break;
 101              		.loc 1 16 0
 102 004c 1EE0     		b	.L6
 103              	.L5:
  17:../../source/src/kernel/OS_CORE/bsp.c **** 			case DEV_MEM:
  18:../../source/src/kernel/OS_CORE/bsp.c **** 				device_array[i].u.mem.init_fun(device_array[i].u.mem.para);
 104              		.loc 1 18 0
 105 004e FA68     		ldr	r2, [r7, #12]
 106 0050 1346     		mov	r3, r2
 107 0052 9B00     		lsls	r3, r3, #2
 108 0054 1344     		add	r3, r3, r2
 109 0056 9B00     		lsls	r3, r3, #2
 110 0058 1A46     		mov	r2, r3
 111 005a 7B68     		ldr	r3, [r7, #4]
 112 005c 1344     		add	r3, r3, r2
 113 005e D968     		ldr	r1, [r3, #12]
 114 0060 FA68     		ldr	r2, [r7, #12]
 115 0062 1346     		mov	r3, r2
 116 0064 9B00     		lsls	r3, r3, #2
 117 0066 1344     		add	r3, r3, r2
 118 0068 9B00     		lsls	r3, r3, #2
 119 006a 1A46     		mov	r2, r3
 120 006c 7B68     		ldr	r3, [r7, #4]
 121 006e 1344     		add	r3, r3, r2
 122 0070 1B69     		ldr	r3, [r3, #16]
 123 0072 1846     		mov	r0, r3
 124 0074 8847     		blx	r1
 125              	.LVL1:
  19:../../source/src/kernel/OS_CORE/bsp.c **** 				ka_printf("type is ");
 126              		.loc 1 19 0
 127 0076 1D48     		ldr	r0, .L10
 128 0078 FFF7FEFF 		bl	ka_printf
  20:../../source/src/kernel/OS_CORE/bsp.c **** 				ka_printf("DEV_MEM\n");
 129              		.loc 1 20 0
 130 007c 1D48     		ldr	r0, .L10+8
 131 007e FFF7FEFF 		bl	ka_printf
  21:../../source/src/kernel/OS_CORE/bsp.c **** 				break;
 132              		.loc 1 21 0
 133 0082 03E0     		b	.L6
 134              	.L9:
  22:../../source/src/kernel/OS_CORE/bsp.c **** 			default :
  23:../../source/src/kernel/OS_CORE/bsp.c **** 				ka_printf("error!!!\n");break;
ARM GAS  G:\Users\Jaxb\AppData\Local\Temp\cc0pP7TY.s 			page 4


 135              		.loc 1 23 0
 136 0084 1C48     		ldr	r0, .L10+12
 137 0086 FFF7FEFF 		bl	ka_printf
 138 008a 00BF     		nop
 139              	.L6:
  24:../../source/src/kernel/OS_CORE/bsp.c **** 		}
  25:../../source/src/kernel/OS_CORE/bsp.c **** 		ka_printf("dev_name is %s\n",device_array[i].head.dev_name);
 140              		.loc 1 25 0
 141 008c FA68     		ldr	r2, [r7, #12]
 142 008e 1346     		mov	r3, r2
 143 0090 9B00     		lsls	r3, r3, #2
 144 0092 1344     		add	r3, r3, r2
 145 0094 9B00     		lsls	r3, r3, #2
 146 0096 1A46     		mov	r2, r3
 147 0098 7B68     		ldr	r3, [r7, #4]
 148 009a 1344     		add	r3, r3, r2
 149 009c 1B68     		ldr	r3, [r3]
 150 009e 1946     		mov	r1, r3
 151 00a0 1648     		ldr	r0, .L10+16
 152 00a2 FFF7FEFF 		bl	ka_printf
  26:../../source/src/kernel/OS_CORE/bsp.c **** 		if(NULL != device_array[i].head.dev_info)
 153              		.loc 1 26 0
 154 00a6 FA68     		ldr	r2, [r7, #12]
 155 00a8 1346     		mov	r3, r2
 156 00aa 9B00     		lsls	r3, r3, #2
 157 00ac 1344     		add	r3, r3, r2
 158 00ae 9B00     		lsls	r3, r3, #2
 159 00b0 1A46     		mov	r2, r3
 160 00b2 7B68     		ldr	r3, [r7, #4]
 161 00b4 1344     		add	r3, r3, r2
 162 00b6 5B68     		ldr	r3, [r3, #4]
 163 00b8 002B     		cmp	r3, #0
 164 00ba 0CD0     		beq	.L7
  27:../../source/src/kernel/OS_CORE/bsp.c **** 		{
  28:../../source/src/kernel/OS_CORE/bsp.c **** 			ka_printf("dev_info is %s\n",device_array[i].head.dev_info);
 165              		.loc 1 28 0
 166 00bc FA68     		ldr	r2, [r7, #12]
 167 00be 1346     		mov	r3, r2
 168 00c0 9B00     		lsls	r3, r3, #2
 169 00c2 1344     		add	r3, r3, r2
 170 00c4 9B00     		lsls	r3, r3, #2
 171 00c6 1A46     		mov	r2, r3
 172 00c8 7B68     		ldr	r3, [r7, #4]
 173 00ca 1344     		add	r3, r3, r2
 174 00cc 5B68     		ldr	r3, [r3, #4]
 175 00ce 1946     		mov	r1, r3
 176 00d0 0B48     		ldr	r0, .L10+20
 177 00d2 FFF7FEFF 		bl	ka_printf
 178              	.L7:
   8:../../source/src/kernel/OS_CORE/bsp.c **** 	{
 179              		.loc 1 8 0 discriminator 2
 180 00d6 FB68     		ldr	r3, [r7, #12]
 181 00d8 0133     		adds	r3, r3, #1
 182 00da FB60     		str	r3, [r7, #12]
 183              	.L2:
   8:../../source/src/kernel/OS_CORE/bsp.c **** 	{
 184              		.loc 1 8 0 is_stmt 0 discriminator 1
ARM GAS  G:\Users\Jaxb\AppData\Local\Temp\cc0pP7TY.s 			page 5


 185 00dc FA68     		ldr	r2, [r7, #12]
 186 00de 3B68     		ldr	r3, [r7]
 187 00e0 9A42     		cmp	r2, r3
 188 00e2 95D3     		bcc	.L8
  29:../../source/src/kernel/OS_CORE/bsp.c **** 		}
  30:../../source/src/kernel/OS_CORE/bsp.c **** 	}
  31:../../source/src/kernel/OS_CORE/bsp.c **** }
 189              		.loc 1 31 0 is_stmt 1
 190 00e4 00BF     		nop
 191 00e6 1037     		adds	r7, r7, #16
 192              	.LCFI3:
 193              		.cfi_def_cfa_offset 8
 194 00e8 BD46     		mov	sp, r7
 195              	.LCFI4:
 196              		.cfi_def_cfa_register 13
 197              		@ sp needed
 198 00ea 80BD     		pop	{r7, pc}
 199              	.L11:
 200              		.align	2
 201              	.L10:
 202 00ec 00000000 		.word	.LC0
 203 00f0 0C000000 		.word	.LC1
 204 00f4 18000000 		.word	.LC2
 205 00f8 24000000 		.word	.LC3
 206 00fc 30000000 		.word	.LC4
 207 0100 40000000 		.word	.LC5
 208              		.cfi_endproc
 209              	.LFE0:
 210              		.size	_bsp_init, .-_bsp_init
 211              	.Letext0:
 212              		.file 2 "../../source/include/os_core/bsp.h"
 213              		.file 3 "../../source/include/os_cpu/kakaosstdint.h"
 214              		.section	.debug_info,"",%progbits
 215              	.Ldebug_info0:
 216 0000 FD010000 		.4byte	0x1fd
 217 0004 0200     		.2byte	0x2
 218 0006 00000000 		.4byte	.Ldebug_abbrev0
 219 000a 04       		.byte	0x4
 220 000b 01       		.uleb128 0x1
 221 000c 1D010000 		.4byte	.LASF26
 222 0010 0C       		.byte	0xc
 223 0011 3E000000 		.4byte	.LASF27
 224 0015 EB010000 		.4byte	.LASF28
 225 0019 00000000 		.4byte	.Ltext0
 226 001d 04010000 		.4byte	.Letext0
 227 0021 00000000 		.4byte	.Ldebug_line0
 228 0025 02       		.uleb128 0x2
 229 0026 01       		.byte	0x1
 230 0027 06       		.byte	0x6
 231 0028 CA010000 		.4byte	.LASF0
 232 002c 02       		.uleb128 0x2
 233 002d 02       		.byte	0x2
 234 002e 05       		.byte	0x5
 235 002f 08010000 		.4byte	.LASF1
 236 0033 03       		.uleb128 0x3
 237 0034 04       		.byte	0x4
 238 0035 05       		.byte	0x5
ARM GAS  G:\Users\Jaxb\AppData\Local\Temp\cc0pP7TY.s 			page 6


 239 0036 696E7400 		.ascii	"int\000"
 240 003a 02       		.uleb128 0x2
 241 003b 08       		.byte	0x8
 242 003c 05       		.byte	0x5
 243 003d E4000000 		.4byte	.LASF2
 244 0041 02       		.uleb128 0x2
 245 0042 01       		.byte	0x1
 246 0043 08       		.byte	0x8
 247 0044 64000000 		.4byte	.LASF3
 248 0048 02       		.uleb128 0x2
 249 0049 02       		.byte	0x2
 250 004a 07       		.byte	0x7
 251 004b 72000000 		.4byte	.LASF4
 252 004f 04       		.uleb128 0x4
 253 0050 F7000000 		.4byte	.LASF29
 254 0054 03       		.byte	0x3
 255 0055 0C       		.byte	0xc
 256 0056 5A000000 		.4byte	0x5a
 257 005a 02       		.uleb128 0x2
 258 005b 04       		.byte	0x4
 259 005c 07       		.byte	0x7
 260 005d AD000000 		.4byte	.LASF5
 261 0061 02       		.uleb128 0x2
 262 0062 08       		.byte	0x8
 263 0063 07       		.byte	0x7
 264 0064 BA000000 		.4byte	.LASF6
 265 0068 05       		.uleb128 0x5
 266 0069 A1000000 		.4byte	.LASF30
 267 006d 07       		.byte	0x7
 268 006e 01       		.byte	0x1
 269 006f 41000000 		.4byte	0x41
 270 0073 02       		.byte	0x2
 271 0074 05       		.byte	0x5
 272 0075 86000000 		.4byte	0x86
 273 0079 06       		.uleb128 0x6
 274 007a 12010000 		.4byte	.LASF7
 275 007e 00       		.byte	0
 276 007f 06       		.uleb128 0x6
 277 0080 DC000000 		.4byte	.LASF8
 278 0084 01       		.byte	0x1
 279 0085 00       		.byte	0
 280 0086 07       		.uleb128 0x7
 281 0087 D1000000 		.4byte	.LASF9
 282 008b 04       		.byte	0x4
 283 008c 02       		.byte	0x2
 284 008d 0A       		.byte	0xa
 285 008e A1000000 		.4byte	0xa1
 286 0092 08       		.uleb128 0x8
 287 0093 E2010000 		.4byte	.LASF11
 288 0097 02       		.byte	0x2
 289 0098 0B       		.byte	0xb
 290 0099 A3000000 		.4byte	0xa3
 291 009d 02       		.byte	0x2
 292 009e 23       		.byte	0x23
 293 009f 00       		.uleb128 0
 294 00a0 00       		.byte	0
 295 00a1 09       		.uleb128 0x9
ARM GAS  G:\Users\Jaxb\AppData\Local\Temp\cc0pP7TY.s 			page 7


 296 00a2 01       		.byte	0x1
 297 00a3 0A       		.uleb128 0xa
 298 00a4 04       		.byte	0x4
 299 00a5 A1000000 		.4byte	0xa1
 300 00a9 07       		.uleb128 0x7
 301 00aa 16000000 		.4byte	.LASF10
 302 00ae 0C       		.byte	0xc
 303 00af 02       		.byte	0x2
 304 00b0 0E       		.byte	0xe
 305 00b1 E0000000 		.4byte	0xe0
 306 00b5 08       		.uleb128 0x8
 307 00b6 00000000 		.4byte	.LASF12
 308 00ba 02       		.byte	0x2
 309 00bb 0F       		.byte	0xf
 310 00bc 5A000000 		.4byte	0x5a
 311 00c0 02       		.byte	0x2
 312 00c1 23       		.byte	0x23
 313 00c2 00       		.uleb128 0
 314 00c3 08       		.uleb128 0x8
 315 00c4 23000000 		.4byte	.LASF13
 316 00c8 02       		.byte	0x2
 317 00c9 10       		.byte	0x10
 318 00ca E5000000 		.4byte	0xe5
 319 00ce 02       		.byte	0x2
 320 00cf 23       		.byte	0x23
 321 00d0 04       		.uleb128 0x4
 322 00d1 08       		.uleb128 0x8
 323 00d2 DD010000 		.4byte	.LASF14
 324 00d6 02       		.byte	0x2
 325 00d7 11       		.byte	0x11
 326 00d8 4F000000 		.4byte	0x4f
 327 00dc 02       		.byte	0x2
 328 00dd 23       		.byte	0x23
 329 00de 08       		.uleb128 0x8
 330 00df 00       		.byte	0
 331 00e0 0B       		.uleb128 0xb
 332 00e1 A9000000 		.4byte	0xa9
 333 00e5 0C       		.uleb128 0xc
 334 00e6 04       		.byte	0x4
 335 00e7 07       		.uleb128 0x7
 336 00e8 0E000000 		.4byte	.LASF15
 337 00ec 08       		.byte	0x8
 338 00ed 02       		.byte	0x2
 339 00ee 14       		.byte	0x14
 340 00ef 10010000 		.4byte	0x110
 341 00f3 08       		.uleb128 0x8
 342 00f4 E2010000 		.4byte	.LASF11
 343 00f8 02       		.byte	0x2
 344 00f9 15       		.byte	0x15
 345 00fa 22010000 		.4byte	0x122
 346 00fe 02       		.byte	0x2
 347 00ff 23       		.byte	0x23
 348 0100 00       		.uleb128 0
 349 0101 08       		.uleb128 0x8
 350 0102 FE000000 		.4byte	.LASF16
 351 0106 02       		.byte	0x2
 352 0107 16       		.byte	0x16
ARM GAS  G:\Users\Jaxb\AppData\Local\Temp\cc0pP7TY.s 			page 8


 353 0108 1C010000 		.4byte	0x11c
 354 010c 02       		.byte	0x2
 355 010d 23       		.byte	0x23
 356 010e 04       		.uleb128 0x4
 357 010f 00       		.byte	0
 358 0110 0D       		.uleb128 0xd
 359 0111 01       		.byte	0x1
 360 0112 1C010000 		.4byte	0x11c
 361 0116 0E       		.uleb128 0xe
 362 0117 1C010000 		.4byte	0x11c
 363 011b 00       		.byte	0
 364 011c 0A       		.uleb128 0xa
 365 011d 04       		.byte	0x4
 366 011e E0000000 		.4byte	0xe0
 367 0122 0A       		.uleb128 0xa
 368 0123 04       		.byte	0x4
 369 0124 10010000 		.4byte	0x110
 370 0128 07       		.uleb128 0x7
 371 0129 29000000 		.4byte	.LASF17
 372 012d 0C       		.byte	0xc
 373 012e 02       		.byte	0x2
 374 012f 19       		.byte	0x19
 375 0130 5F010000 		.4byte	0x15f
 376 0134 08       		.uleb128 0x8
 377 0135 35000000 		.4byte	.LASF18
 378 0139 02       		.byte	0x2
 379 013a 1A       		.byte	0x1a
 380 013b 5F010000 		.4byte	0x15f
 381 013f 02       		.byte	0x2
 382 0140 23       		.byte	0x23
 383 0141 00       		.uleb128 0
 384 0142 08       		.uleb128 0x8
 385 0143 05000000 		.4byte	.LASF19
 386 0147 02       		.byte	0x2
 387 0148 1B       		.byte	0x1b
 388 0149 5F010000 		.4byte	0x15f
 389 014d 02       		.byte	0x2
 390 014e 23       		.byte	0x23
 391 014f 04       		.uleb128 0x4
 392 0150 08       		.uleb128 0x8
 393 0151 03010000 		.4byte	.LASF20
 394 0155 02       		.byte	0x2
 395 0156 1C       		.byte	0x1c
 396 0157 68000000 		.4byte	0x68
 397 015b 02       		.byte	0x2
 398 015c 23       		.byte	0x23
 399 015d 08       		.uleb128 0x8
 400 015e 00       		.byte	0
 401 015f 0A       		.uleb128 0xa
 402 0160 04       		.byte	0x4
 403 0161 65010000 		.4byte	0x165
 404 0165 02       		.uleb128 0x2
 405 0166 01       		.byte	0x1
 406 0167 08       		.byte	0x8
 407 0168 F2000000 		.4byte	.LASF21
 408 016c 0F       		.uleb128 0xf
 409 016d 08       		.byte	0x8
ARM GAS  G:\Users\Jaxb\AppData\Local\Temp\cc0pP7TY.s 			page 9


 410 016e 02       		.byte	0x2
 411 016f 22       		.byte	0x22
 412 0170 8B010000 		.4byte	0x18b
 413 0174 10       		.uleb128 0x10
 414 0175 D6010000 		.4byte	.LASF22
 415 0179 02       		.byte	0x2
 416 017a 23       		.byte	0x23
 417 017b 86000000 		.4byte	0x86
 418 017f 11       		.uleb128 0x11
 419 0180 6D656D00 		.ascii	"mem\000"
 420 0184 02       		.byte	0x2
 421 0185 24       		.byte	0x24
 422 0186 E7000000 		.4byte	0xe7
 423 018a 00       		.byte	0
 424 018b 07       		.uleb128 0x7
 425 018c C3010000 		.4byte	.LASF23
 426 0190 14       		.byte	0x14
 427 0191 02       		.byte	0x2
 428 0192 1F       		.byte	0x1f
 429 0193 B2010000 		.4byte	0x1b2
 430 0197 08       		.uleb128 0x8
 431 0198 92000000 		.4byte	.LASF24
 432 019c 02       		.byte	0x2
 433 019d 21       		.byte	0x21
 434 019e 28010000 		.4byte	0x128
 435 01a2 02       		.byte	0x2
 436 01a3 23       		.byte	0x23
 437 01a4 00       		.uleb128 0
 438 01a5 12       		.uleb128 0x12
 439 01a6 7500     		.ascii	"u\000"
 440 01a8 02       		.byte	0x2
 441 01a9 25       		.byte	0x25
 442 01aa 6C010000 		.4byte	0x16c
 443 01ae 02       		.byte	0x2
 444 01af 23       		.byte	0x23
 445 01b0 0C       		.uleb128 0xc
 446 01b1 00       		.byte	0
 447 01b2 0B       		.uleb128 0xb
 448 01b3 8B010000 		.4byte	0x18b
 449 01b7 13       		.uleb128 0x13
 450 01b8 01       		.byte	0x1
 451 01b9 97000000 		.4byte	.LASF31
 452 01bd 01       		.byte	0x1
 453 01be 05       		.byte	0x5
 454 01bf 01       		.byte	0x1
 455 01c0 00000000 		.4byte	.LFB0
 456 01c4 04010000 		.4byte	.LFE0
 457 01c8 00000000 		.4byte	.LLST0
 458 01cc 01       		.byte	0x1
 459 01cd FA010000 		.4byte	0x1fa
 460 01d1 14       		.uleb128 0x14
 461 01d2 85000000 		.4byte	.LASF25
 462 01d6 01       		.byte	0x1
 463 01d7 05       		.byte	0x5
 464 01d8 FA010000 		.4byte	0x1fa
 465 01dc 02       		.byte	0x2
 466 01dd 91       		.byte	0x91
ARM GAS  G:\Users\Jaxb\AppData\Local\Temp\cc0pP7TY.s 			page 10


 467 01de 6C       		.sleb128 -20
 468 01df 15       		.uleb128 0x15
 469 01e0 6E756D00 		.ascii	"num\000"
 470 01e4 01       		.byte	0x1
 471 01e5 05       		.byte	0x5
 472 01e6 5A000000 		.4byte	0x5a
 473 01ea 02       		.byte	0x2
 474 01eb 91       		.byte	0x91
 475 01ec 68       		.sleb128 -24
 476 01ed 16       		.uleb128 0x16
 477 01ee 6900     		.ascii	"i\000"
 478 01f0 01       		.byte	0x1
 479 01f1 07       		.byte	0x7
 480 01f2 5A000000 		.4byte	0x5a
 481 01f6 02       		.byte	0x2
 482 01f7 91       		.byte	0x91
 483 01f8 74       		.sleb128 -12
 484 01f9 00       		.byte	0
 485 01fa 0A       		.uleb128 0xa
 486 01fb 04       		.byte	0x4
 487 01fc B2010000 		.4byte	0x1b2
 488 0200 00       		.byte	0
 489              		.section	.debug_abbrev,"",%progbits
 490              	.Ldebug_abbrev0:
 491 0000 01       		.uleb128 0x1
 492 0001 11       		.uleb128 0x11
 493 0002 01       		.byte	0x1
 494 0003 25       		.uleb128 0x25
 495 0004 0E       		.uleb128 0xe
 496 0005 13       		.uleb128 0x13
 497 0006 0B       		.uleb128 0xb
 498 0007 03       		.uleb128 0x3
 499 0008 0E       		.uleb128 0xe
 500 0009 1B       		.uleb128 0x1b
 501 000a 0E       		.uleb128 0xe
 502 000b 11       		.uleb128 0x11
 503 000c 01       		.uleb128 0x1
 504 000d 12       		.uleb128 0x12
 505 000e 01       		.uleb128 0x1
 506 000f 10       		.uleb128 0x10
 507 0010 06       		.uleb128 0x6
 508 0011 00       		.byte	0
 509 0012 00       		.byte	0
 510 0013 02       		.uleb128 0x2
 511 0014 24       		.uleb128 0x24
 512 0015 00       		.byte	0
 513 0016 0B       		.uleb128 0xb
 514 0017 0B       		.uleb128 0xb
 515 0018 3E       		.uleb128 0x3e
 516 0019 0B       		.uleb128 0xb
 517 001a 03       		.uleb128 0x3
 518 001b 0E       		.uleb128 0xe
 519 001c 00       		.byte	0
 520 001d 00       		.byte	0
 521 001e 03       		.uleb128 0x3
 522 001f 24       		.uleb128 0x24
 523 0020 00       		.byte	0
ARM GAS  G:\Users\Jaxb\AppData\Local\Temp\cc0pP7TY.s 			page 11


 524 0021 0B       		.uleb128 0xb
 525 0022 0B       		.uleb128 0xb
 526 0023 3E       		.uleb128 0x3e
 527 0024 0B       		.uleb128 0xb
 528 0025 03       		.uleb128 0x3
 529 0026 08       		.uleb128 0x8
 530 0027 00       		.byte	0
 531 0028 00       		.byte	0
 532 0029 04       		.uleb128 0x4
 533 002a 16       		.uleb128 0x16
 534 002b 00       		.byte	0
 535 002c 03       		.uleb128 0x3
 536 002d 0E       		.uleb128 0xe
 537 002e 3A       		.uleb128 0x3a
 538 002f 0B       		.uleb128 0xb
 539 0030 3B       		.uleb128 0x3b
 540 0031 0B       		.uleb128 0xb
 541 0032 49       		.uleb128 0x49
 542 0033 13       		.uleb128 0x13
 543 0034 00       		.byte	0
 544 0035 00       		.byte	0
 545 0036 05       		.uleb128 0x5
 546 0037 04       		.uleb128 0x4
 547 0038 01       		.byte	0x1
 548 0039 03       		.uleb128 0x3
 549 003a 0E       		.uleb128 0xe
 550 003b 3E       		.uleb128 0x3e
 551 003c 0B       		.uleb128 0xb
 552 003d 0B       		.uleb128 0xb
 553 003e 0B       		.uleb128 0xb
 554 003f 49       		.uleb128 0x49
 555 0040 13       		.uleb128 0x13
 556 0041 3A       		.uleb128 0x3a
 557 0042 0B       		.uleb128 0xb
 558 0043 3B       		.uleb128 0x3b
 559 0044 0B       		.uleb128 0xb
 560 0045 01       		.uleb128 0x1
 561 0046 13       		.uleb128 0x13
 562 0047 00       		.byte	0
 563 0048 00       		.byte	0
 564 0049 06       		.uleb128 0x6
 565 004a 28       		.uleb128 0x28
 566 004b 00       		.byte	0
 567 004c 03       		.uleb128 0x3
 568 004d 0E       		.uleb128 0xe
 569 004e 1C       		.uleb128 0x1c
 570 004f 0B       		.uleb128 0xb
 571 0050 00       		.byte	0
 572 0051 00       		.byte	0
 573 0052 07       		.uleb128 0x7
 574 0053 13       		.uleb128 0x13
 575 0054 01       		.byte	0x1
 576 0055 03       		.uleb128 0x3
 577 0056 0E       		.uleb128 0xe
 578 0057 0B       		.uleb128 0xb
 579 0058 0B       		.uleb128 0xb
 580 0059 3A       		.uleb128 0x3a
ARM GAS  G:\Users\Jaxb\AppData\Local\Temp\cc0pP7TY.s 			page 12


 581 005a 0B       		.uleb128 0xb
 582 005b 3B       		.uleb128 0x3b
 583 005c 0B       		.uleb128 0xb
 584 005d 01       		.uleb128 0x1
 585 005e 13       		.uleb128 0x13
 586 005f 00       		.byte	0
 587 0060 00       		.byte	0
 588 0061 08       		.uleb128 0x8
 589 0062 0D       		.uleb128 0xd
 590 0063 00       		.byte	0
 591 0064 03       		.uleb128 0x3
 592 0065 0E       		.uleb128 0xe
 593 0066 3A       		.uleb128 0x3a
 594 0067 0B       		.uleb128 0xb
 595 0068 3B       		.uleb128 0x3b
 596 0069 0B       		.uleb128 0xb
 597 006a 49       		.uleb128 0x49
 598 006b 13       		.uleb128 0x13
 599 006c 38       		.uleb128 0x38
 600 006d 0A       		.uleb128 0xa
 601 006e 00       		.byte	0
 602 006f 00       		.byte	0
 603 0070 09       		.uleb128 0x9
 604 0071 15       		.uleb128 0x15
 605 0072 00       		.byte	0
 606 0073 27       		.uleb128 0x27
 607 0074 0C       		.uleb128 0xc
 608 0075 00       		.byte	0
 609 0076 00       		.byte	0
 610 0077 0A       		.uleb128 0xa
 611 0078 0F       		.uleb128 0xf
 612 0079 00       		.byte	0
 613 007a 0B       		.uleb128 0xb
 614 007b 0B       		.uleb128 0xb
 615 007c 49       		.uleb128 0x49
 616 007d 13       		.uleb128 0x13
 617 007e 00       		.byte	0
 618 007f 00       		.byte	0
 619 0080 0B       		.uleb128 0xb
 620 0081 26       		.uleb128 0x26
 621 0082 00       		.byte	0
 622 0083 49       		.uleb128 0x49
 623 0084 13       		.uleb128 0x13
 624 0085 00       		.byte	0
 625 0086 00       		.byte	0
 626 0087 0C       		.uleb128 0xc
 627 0088 0F       		.uleb128 0xf
 628 0089 00       		.byte	0
 629 008a 0B       		.uleb128 0xb
 630 008b 0B       		.uleb128 0xb
 631 008c 00       		.byte	0
 632 008d 00       		.byte	0
 633 008e 0D       		.uleb128 0xd
 634 008f 15       		.uleb128 0x15
 635 0090 01       		.byte	0x1
 636 0091 27       		.uleb128 0x27
 637 0092 0C       		.uleb128 0xc
ARM GAS  G:\Users\Jaxb\AppData\Local\Temp\cc0pP7TY.s 			page 13


 638 0093 01       		.uleb128 0x1
 639 0094 13       		.uleb128 0x13
 640 0095 00       		.byte	0
 641 0096 00       		.byte	0
 642 0097 0E       		.uleb128 0xe
 643 0098 05       		.uleb128 0x5
 644 0099 00       		.byte	0
 645 009a 49       		.uleb128 0x49
 646 009b 13       		.uleb128 0x13
 647 009c 00       		.byte	0
 648 009d 00       		.byte	0
 649 009e 0F       		.uleb128 0xf
 650 009f 17       		.uleb128 0x17
 651 00a0 01       		.byte	0x1
 652 00a1 0B       		.uleb128 0xb
 653 00a2 0B       		.uleb128 0xb
 654 00a3 3A       		.uleb128 0x3a
 655 00a4 0B       		.uleb128 0xb
 656 00a5 3B       		.uleb128 0x3b
 657 00a6 0B       		.uleb128 0xb
 658 00a7 01       		.uleb128 0x1
 659 00a8 13       		.uleb128 0x13
 660 00a9 00       		.byte	0
 661 00aa 00       		.byte	0
 662 00ab 10       		.uleb128 0x10
 663 00ac 0D       		.uleb128 0xd
 664 00ad 00       		.byte	0
 665 00ae 03       		.uleb128 0x3
 666 00af 0E       		.uleb128 0xe
 667 00b0 3A       		.uleb128 0x3a
 668 00b1 0B       		.uleb128 0xb
 669 00b2 3B       		.uleb128 0x3b
 670 00b3 0B       		.uleb128 0xb
 671 00b4 49       		.uleb128 0x49
 672 00b5 13       		.uleb128 0x13
 673 00b6 00       		.byte	0
 674 00b7 00       		.byte	0
 675 00b8 11       		.uleb128 0x11
 676 00b9 0D       		.uleb128 0xd
 677 00ba 00       		.byte	0
 678 00bb 03       		.uleb128 0x3
 679 00bc 08       		.uleb128 0x8
 680 00bd 3A       		.uleb128 0x3a
 681 00be 0B       		.uleb128 0xb
 682 00bf 3B       		.uleb128 0x3b
 683 00c0 0B       		.uleb128 0xb
 684 00c1 49       		.uleb128 0x49
 685 00c2 13       		.uleb128 0x13
 686 00c3 00       		.byte	0
 687 00c4 00       		.byte	0
 688 00c5 12       		.uleb128 0x12
 689 00c6 0D       		.uleb128 0xd
 690 00c7 00       		.byte	0
 691 00c8 03       		.uleb128 0x3
 692 00c9 08       		.uleb128 0x8
 693 00ca 3A       		.uleb128 0x3a
 694 00cb 0B       		.uleb128 0xb
ARM GAS  G:\Users\Jaxb\AppData\Local\Temp\cc0pP7TY.s 			page 14


 695 00cc 3B       		.uleb128 0x3b
 696 00cd 0B       		.uleb128 0xb
 697 00ce 49       		.uleb128 0x49
 698 00cf 13       		.uleb128 0x13
 699 00d0 38       		.uleb128 0x38
 700 00d1 0A       		.uleb128 0xa
 701 00d2 00       		.byte	0
 702 00d3 00       		.byte	0
 703 00d4 13       		.uleb128 0x13
 704 00d5 2E       		.uleb128 0x2e
 705 00d6 01       		.byte	0x1
 706 00d7 3F       		.uleb128 0x3f
 707 00d8 0C       		.uleb128 0xc
 708 00d9 03       		.uleb128 0x3
 709 00da 0E       		.uleb128 0xe
 710 00db 3A       		.uleb128 0x3a
 711 00dc 0B       		.uleb128 0xb
 712 00dd 3B       		.uleb128 0x3b
 713 00de 0B       		.uleb128 0xb
 714 00df 27       		.uleb128 0x27
 715 00e0 0C       		.uleb128 0xc
 716 00e1 11       		.uleb128 0x11
 717 00e2 01       		.uleb128 0x1
 718 00e3 12       		.uleb128 0x12
 719 00e4 01       		.uleb128 0x1
 720 00e5 40       		.uleb128 0x40
 721 00e6 06       		.uleb128 0x6
 722 00e7 9642     		.uleb128 0x2116
 723 00e9 0C       		.uleb128 0xc
 724 00ea 01       		.uleb128 0x1
 725 00eb 13       		.uleb128 0x13
 726 00ec 00       		.byte	0
 727 00ed 00       		.byte	0
 728 00ee 14       		.uleb128 0x14
 729 00ef 05       		.uleb128 0x5
 730 00f0 00       		.byte	0
 731 00f1 03       		.uleb128 0x3
 732 00f2 0E       		.uleb128 0xe
 733 00f3 3A       		.uleb128 0x3a
 734 00f4 0B       		.uleb128 0xb
 735 00f5 3B       		.uleb128 0x3b
 736 00f6 0B       		.uleb128 0xb
 737 00f7 49       		.uleb128 0x49
 738 00f8 13       		.uleb128 0x13
 739 00f9 02       		.uleb128 0x2
 740 00fa 0A       		.uleb128 0xa
 741 00fb 00       		.byte	0
 742 00fc 00       		.byte	0
 743 00fd 15       		.uleb128 0x15
 744 00fe 05       		.uleb128 0x5
 745 00ff 00       		.byte	0
 746 0100 03       		.uleb128 0x3
 747 0101 08       		.uleb128 0x8
 748 0102 3A       		.uleb128 0x3a
 749 0103 0B       		.uleb128 0xb
 750 0104 3B       		.uleb128 0x3b
 751 0105 0B       		.uleb128 0xb
ARM GAS  G:\Users\Jaxb\AppData\Local\Temp\cc0pP7TY.s 			page 15


 752 0106 49       		.uleb128 0x49
 753 0107 13       		.uleb128 0x13
 754 0108 02       		.uleb128 0x2
 755 0109 0A       		.uleb128 0xa
 756 010a 00       		.byte	0
 757 010b 00       		.byte	0
 758 010c 16       		.uleb128 0x16
 759 010d 34       		.uleb128 0x34
 760 010e 00       		.byte	0
 761 010f 03       		.uleb128 0x3
 762 0110 08       		.uleb128 0x8
 763 0111 3A       		.uleb128 0x3a
 764 0112 0B       		.uleb128 0xb
 765 0113 3B       		.uleb128 0x3b
 766 0114 0B       		.uleb128 0xb
 767 0115 49       		.uleb128 0x49
 768 0116 13       		.uleb128 0x13
 769 0117 02       		.uleb128 0x2
 770 0118 0A       		.uleb128 0xa
 771 0119 00       		.byte	0
 772 011a 00       		.byte	0
 773 011b 00       		.byte	0
 774              		.section	.debug_loc,"",%progbits
 775              	.Ldebug_loc0:
 776              	.LLST0:
 777 0000 00000000 		.4byte	.LFB0-.Ltext0
 778 0004 02000000 		.4byte	.LCFI0-.Ltext0
 779 0008 0200     		.2byte	0x2
 780 000a 7D       		.byte	0x7d
 781 000b 00       		.sleb128 0
 782 000c 02000000 		.4byte	.LCFI0-.Ltext0
 783 0010 04000000 		.4byte	.LCFI1-.Ltext0
 784 0014 0200     		.2byte	0x2
 785 0016 7D       		.byte	0x7d
 786 0017 08       		.sleb128 8
 787 0018 04000000 		.4byte	.LCFI1-.Ltext0
 788 001c 06000000 		.4byte	.LCFI2-.Ltext0
 789 0020 0200     		.2byte	0x2
 790 0022 7D       		.byte	0x7d
 791 0023 18       		.sleb128 24
 792 0024 06000000 		.4byte	.LCFI2-.Ltext0
 793 0028 E8000000 		.4byte	.LCFI3-.Ltext0
 794 002c 0200     		.2byte	0x2
 795 002e 77       		.byte	0x77
 796 002f 18       		.sleb128 24
 797 0030 E8000000 		.4byte	.LCFI3-.Ltext0
 798 0034 EA000000 		.4byte	.LCFI4-.Ltext0
 799 0038 0200     		.2byte	0x2
 800 003a 77       		.byte	0x77
 801 003b 08       		.sleb128 8
 802 003c EA000000 		.4byte	.LCFI4-.Ltext0
 803 0040 04010000 		.4byte	.LFE0-.Ltext0
 804 0044 0200     		.2byte	0x2
 805 0046 7D       		.byte	0x7d
 806 0047 08       		.sleb128 8
 807 0048 00000000 		.4byte	0
 808 004c 00000000 		.4byte	0
ARM GAS  G:\Users\Jaxb\AppData\Local\Temp\cc0pP7TY.s 			page 16


 809              		.section	.debug_aranges,"",%progbits
 810 0000 1C000000 		.4byte	0x1c
 811 0004 0200     		.2byte	0x2
 812 0006 00000000 		.4byte	.Ldebug_info0
 813 000a 04       		.byte	0x4
 814 000b 00       		.byte	0
 815 000c 0000     		.2byte	0
 816 000e 0000     		.2byte	0
 817 0010 00000000 		.4byte	.Ltext0
 818 0014 04010000 		.4byte	.Letext0-.Ltext0
 819 0018 00000000 		.4byte	0
 820 001c 00000000 		.4byte	0
 821              		.section	.debug_line,"",%progbits
 822              	.Ldebug_line0:
 823 0000 C3000000 		.section	.debug_str,"MS",%progbits,1
 823      02009000 
 823      00000201 
 823      FB0E0D00 
 823      01010101 
 824              	.LASF12:
 825 0000 7072696F 		.ascii	"prio\000"
 825      00
 826              	.LASF19:
 827 0005 6465765F 		.ascii	"dev_info\000"
 827      696E666F 
 827      00
 828              	.LASF15:
 829 000e 6465765F 		.ascii	"dev_mem\000"
 829      6D656D00 
 830              	.LASF10:
 831 0016 6465765F 		.ascii	"dev_mem_para\000"
 831      6D656D5F 
 831      70617261 
 831      00
 832              	.LASF13:
 833 0023 73746172 		.ascii	"start\000"
 833      7400
 834              	.LASF17:
 835 0029 64657669 		.ascii	"device_head\000"
 835      63655F68 
 835      65616400 
 836              	.LASF18:
 837 0035 6465765F 		.ascii	"dev_name\000"
 837      6E616D65 
 837      00
 838              	.LASF27:
 839 003e 2E2E2F2E 		.ascii	"../../source/src/kernel/OS_CORE/bsp.c\000"
 839      2E2F736F 
 839      75726365 
 839      2F737263 
 839      2F6B6572 
 840              	.LASF3:
 841 0064 756E7369 		.ascii	"unsigned char\000"
 841      676E6564 
 841      20636861 
 841      7200
 842              	.LASF4:
ARM GAS  G:\Users\Jaxb\AppData\Local\Temp\cc0pP7TY.s 			page 17


 843 0072 73686F72 		.ascii	"short unsigned int\000"
 843      7420756E 
 843      7369676E 
 843      65642069 
 843      6E7400
 844              	.LASF25:
 845 0085 64657669 		.ascii	"device_array\000"
 845      63655F61 
 845      72726179 
 845      00
 846              	.LASF24:
 847 0092 68656164 		.ascii	"head\000"
 847      00
 848              	.LASF31:
 849 0097 5F627370 		.ascii	"_bsp_init\000"
 849      5F696E69 
 849      7400
 850              	.LASF30:
 851 00a1 64657669 		.ascii	"device_type\000"
 851      63655F74 
 851      79706500 
 852              	.LASF5:
 853 00ad 756E7369 		.ascii	"unsigned int\000"
 853      676E6564 
 853      20696E74 
 853      00
 854              	.LASF6:
 855 00ba 6C6F6E67 		.ascii	"long long unsigned int\000"
 855      206C6F6E 
 855      6720756E 
 855      7369676E 
 855      65642069 
 856              	.LASF9:
 857 00d1 6465765F 		.ascii	"dev_normal\000"
 857      6E6F726D 
 857      616C00
 858              	.LASF8:
 859 00dc 4445565F 		.ascii	"DEV_MEM\000"
 859      4D454D00 
 860              	.LASF2:
 861 00e4 6C6F6E67 		.ascii	"long long int\000"
 861      206C6F6E 
 861      6720696E 
 861      7400
 862              	.LASF21:
 863 00f2 63686172 		.ascii	"char\000"
 863      00
 864              	.LASF29:
 865 00f7 55494E54 		.ascii	"UINT32\000"
 865      333200
 866              	.LASF16:
 867 00fe 70617261 		.ascii	"para\000"
 867      00
 868              	.LASF20:
 869 0103 74797065 		.ascii	"type\000"
 869      00
 870              	.LASF1:
ARM GAS  G:\Users\Jaxb\AppData\Local\Temp\cc0pP7TY.s 			page 18


 871 0108 73686F72 		.ascii	"short int\000"
 871      7420696E 
 871      7400
 872              	.LASF7:
 873 0112 4445565F 		.ascii	"DEV_NORMAL\000"
 873      4E4F524D 
 873      414C00
 874              	.LASF26:
 875 011d 474E5520 		.ascii	"GNU C11 7.3.1 20180622 (release) [ARM/embedded-7-br"
 875      43313120 
 875      372E332E 
 875      31203230 
 875      31383036 
 876 0150 616E6368 		.ascii	"anch revision 261907] -mcpu=cortex-m3 -mthumb -mapc"
 876      20726576 
 876      6973696F 
 876      6E203236 
 876      31393037 
 877 0183 732D6672 		.ascii	"s-frame -mthumb-interwork -mcpu=cortex-m3 -mthumb -"
 877      616D6520 
 877      2D6D7468 
 877      756D622D 
 877      696E7465 
 878 01b6 67647761 		.ascii	"gdwarf-2 -O0\000"
 878      72662D32 
 878      202D4F30 
 878      00
 879              	.LASF23:
 880 01c3 64657669 		.ascii	"device\000"
 880      636500
 881              	.LASF0:
 882 01ca 7369676E 		.ascii	"signed char\000"
 882      65642063 
 882      68617200 
 883              	.LASF22:
 884 01d6 6E6F726D 		.ascii	"normal\000"
 884      616C00
 885              	.LASF14:
 886 01dd 73697A65 		.ascii	"size\000"
 886      00
 887              	.LASF11:
 888 01e2 696E6974 		.ascii	"init_fun\000"
 888      5F66756E 
 888      00
 889              	.LASF28:
 890 01eb 463A5C6B 		.ascii	"F:\\kaka\\KAKAOS\\C\\windows\\Project\\RVMDK\243\250"
 890      616B615C 
 890      4B414B41 
 890      4F535C43 
 890      5C77696E 
 891 0213 757635A3 		.ascii	"uv5\243\251\000"
 891      A900
 892              		.ident	"GCC: (GNU Tools for Arm Embedded Processors 7-2018-q2-update) 7.3.1 20180622 (release) [AR
ARM GAS  G:\Users\Jaxb\AppData\Local\Temp\cc0pP7TY.s 			page 19


DEFINED SYMBOLS
                            *ABS*:00000000 bsp.c
G:\Users\Jaxb\AppData\Local\Temp\cc0pP7TY.s:16     .rodata:00000000 $d
G:\Users\Jaxb\AppData\Local\Temp\cc0pP7TY.s:35     .text:00000000 $t
G:\Users\Jaxb\AppData\Local\Temp\cc0pP7TY.s:42     .text:00000000 _bsp_init
G:\Users\Jaxb\AppData\Local\Temp\cc0pP7TY.s:202    .text:000000ec $d

UNDEFINED SYMBOLS
ka_printf
