ARM GAS  G:\Users\Jaxb\AppData\Local\Temp\ccQNyavp.s 			page 1


   1              		.cpu cortex-m3
   2              		.eabi_attribute 20, 1
   3              		.eabi_attribute 21, 1
   4              		.eabi_attribute 23, 3
   5              		.eabi_attribute 24, 1
   6              		.eabi_attribute 25, 1
   7              		.eabi_attribute 26, 1
   8              		.eabi_attribute 30, 2
   9              		.eabi_attribute 34, 1
  10              		.eabi_attribute 18, 4
  11              		.file	"bsp_usart.c"
  12              		.text
  13              	.Ltext0:
  14              		.cfi_sections	.debug_frame
  15              		.align	1
  16              		.p2align 2,,3
  17              		.global	USART_Config
  18              		.syntax unified
  19              		.thumb
  20              		.thumb_func
  21              		.fpu softvfp
  22              		.type	USART_Config, %function
  23              	USART_Config:
  24              	.LFB30:
  25              		.file 1 "../../source/src/kernel/OS_CPU/bsp/bsp_usart.c"
   1:../../source/src/kernel/OS_CPU/bsp/bsp_usart.c **** /**
   2:../../source/src/kernel/OS_CPU/bsp/bsp_usart.c ****   ******************************************************************************
   3:../../source/src/kernel/OS_CPU/bsp/bsp_usart.c ****   * @file    bsp_usart.c
   4:../../source/src/kernel/OS_CPU/bsp/bsp_usart.c ****   * @author  fire
   5:../../source/src/kernel/OS_CPU/bsp/bsp_usart.c ****   * @version V1.0
   6:../../source/src/kernel/OS_CPU/bsp/bsp_usart.c ****   * @date    2013-xx-xx
   7:../../source/src/kernel/OS_CPU/bsp/bsp_usart.c ****   * @brief   重定向c库printf函数到usart端口
   8:../../source/src/kernel/OS_CPU/bsp/bsp_usart.c ****   ******************************************************************************
   9:../../source/src/kernel/OS_CPU/bsp/bsp_usart.c ****   * @attention
  10:../../source/src/kernel/OS_CPU/bsp/bsp_usart.c ****   *
  11:../../source/src/kernel/OS_CPU/bsp/bsp_usart.c ****   * 实验平台:秉火STM32 F103-霸道 开发板  
  12:../../source/src/kernel/OS_CPU/bsp/bsp_usart.c ****   * 论坛    :http://www.firebbs.cn
  13:../../source/src/kernel/OS_CPU/bsp/bsp_usart.c ****   * 淘宝    :https://fire-stm32.taobao.com
  14:../../source/src/kernel/OS_CPU/bsp/bsp_usart.c ****   *
  15:../../source/src/kernel/OS_CPU/bsp/bsp_usart.c ****   ******************************************************************************
  16:../../source/src/kernel/OS_CPU/bsp/bsp_usart.c ****   */ 
  17:../../source/src/kernel/OS_CPU/bsp/bsp_usart.c **** 	
  18:../../source/src/kernel/OS_CPU/bsp/bsp_usart.c **** #include "bsp_usart.h"
  19:../../source/src/kernel/OS_CPU/bsp/bsp_usart.c **** 
  20:../../source/src/kernel/OS_CPU/bsp/bsp_usart.c ****  /**
  21:../../source/src/kernel/OS_CPU/bsp/bsp_usart.c ****   * @brief  配置嵌套向量中断控制器NVIC
  22:../../source/src/kernel/OS_CPU/bsp/bsp_usart.c ****   * @param  无
  23:../../source/src/kernel/OS_CPU/bsp/bsp_usart.c ****   * @retval 无
  24:../../source/src/kernel/OS_CPU/bsp/bsp_usart.c ****   */
  25:../../source/src/kernel/OS_CPU/bsp/bsp_usart.c **** static void NVIC_Configuration(void)
  26:../../source/src/kernel/OS_CPU/bsp/bsp_usart.c **** {
  27:../../source/src/kernel/OS_CPU/bsp/bsp_usart.c ****   NVIC_InitTypeDef NVIC_InitStructure;
  28:../../source/src/kernel/OS_CPU/bsp/bsp_usart.c ****   
  29:../../source/src/kernel/OS_CPU/bsp/bsp_usart.c ****   /* 嵌套向量中断控制器组选择 */
  30:../../source/src/kernel/OS_CPU/bsp/bsp_usart.c ****   NVIC_PriorityGroupConfig(NVIC_PriorityGroup_2);
  31:../../source/src/kernel/OS_CPU/bsp/bsp_usart.c ****   
  32:../../source/src/kernel/OS_CPU/bsp/bsp_usart.c ****   /* 配置USART为中断源 */
ARM GAS  G:\Users\Jaxb\AppData\Local\Temp\ccQNyavp.s 			page 2


  33:../../source/src/kernel/OS_CPU/bsp/bsp_usart.c ****   NVIC_InitStructure.NVIC_IRQChannel = DEBUG_USART_IRQ;
  34:../../source/src/kernel/OS_CPU/bsp/bsp_usart.c ****   /* 抢断优先级*/
  35:../../source/src/kernel/OS_CPU/bsp/bsp_usart.c ****   NVIC_InitStructure.NVIC_IRQChannelPreemptionPriority = 1;
  36:../../source/src/kernel/OS_CPU/bsp/bsp_usart.c ****   /* 子优先级 */
  37:../../source/src/kernel/OS_CPU/bsp/bsp_usart.c ****   NVIC_InitStructure.NVIC_IRQChannelSubPriority = 1;
  38:../../source/src/kernel/OS_CPU/bsp/bsp_usart.c ****   /* 使能中断 */
  39:../../source/src/kernel/OS_CPU/bsp/bsp_usart.c ****   NVIC_InitStructure.NVIC_IRQChannelCmd = ENABLE;
  40:../../source/src/kernel/OS_CPU/bsp/bsp_usart.c ****   /* 初始化配置NVIC */
  41:../../source/src/kernel/OS_CPU/bsp/bsp_usart.c ****   NVIC_Init(&NVIC_InitStructure);
  42:../../source/src/kernel/OS_CPU/bsp/bsp_usart.c **** }
  43:../../source/src/kernel/OS_CPU/bsp/bsp_usart.c **** 
  44:../../source/src/kernel/OS_CPU/bsp/bsp_usart.c ****  /**
  45:../../source/src/kernel/OS_CPU/bsp/bsp_usart.c ****   * @brief  USART GPIO 配置,工作参数配置
  46:../../source/src/kernel/OS_CPU/bsp/bsp_usart.c ****   * @param  无
  47:../../source/src/kernel/OS_CPU/bsp/bsp_usart.c ****   * @retval 无
  48:../../source/src/kernel/OS_CPU/bsp/bsp_usart.c ****   */
  49:../../source/src/kernel/OS_CPU/bsp/bsp_usart.c **** void USART_Config(void)
  50:../../source/src/kernel/OS_CPU/bsp/bsp_usart.c **** {
  26              		.loc 1 50 0
  27              		.cfi_startproc
  28              		@ args = 0, pretend = 0, frame = 24
  29              		@ frame_needed = 0, uses_anonymous_args = 0
  30 0000 30B5     		push	{r4, r5, lr}
  31              	.LCFI0:
  32              		.cfi_def_cfa_offset 12
  33              		.cfi_offset 4, -12
  34              		.cfi_offset 5, -8
  35              		.cfi_offset 14, -4
  51:../../source/src/kernel/OS_CPU/bsp/bsp_usart.c **** 	GPIO_InitTypeDef GPIO_InitStructure;
  52:../../source/src/kernel/OS_CPU/bsp/bsp_usart.c **** 	USART_InitTypeDef USART_InitStructure;
  53:../../source/src/kernel/OS_CPU/bsp/bsp_usart.c **** 
  54:../../source/src/kernel/OS_CPU/bsp/bsp_usart.c **** 	// 打开串口GPIO的时钟
  55:../../source/src/kernel/OS_CPU/bsp/bsp_usart.c **** 	DEBUG_USART_GPIO_APBxClkCmd(DEBUG_USART_GPIO_CLK, ENABLE);
  36              		.loc 1 55 0
  37 0002 0121     		movs	r1, #1
  50:../../source/src/kernel/OS_CPU/bsp/bsp_usart.c **** 	GPIO_InitTypeDef GPIO_InitStructure;
  38              		.loc 1 50 0
  39 0004 87B0     		sub	sp, sp, #28
  40              	.LCFI1:
  41              		.cfi_def_cfa_offset 40
  42              		.loc 1 55 0
  43 0006 0420     		movs	r0, #4
  44 0008 FFF7FEFF 		bl	RCC_APB2PeriphClockCmd
  45              	.LVL0:
  56:../../source/src/kernel/OS_CPU/bsp/bsp_usart.c **** 	
  57:../../source/src/kernel/OS_CPU/bsp/bsp_usart.c **** 	// 打开串口外设的时钟
  58:../../source/src/kernel/OS_CPU/bsp/bsp_usart.c **** 	DEBUG_USART_APBxClkCmd(DEBUG_USART_CLK, ENABLE);
  46              		.loc 1 58 0
  47 000c 0121     		movs	r1, #1
  48 000e 4FF48040 		mov	r0, #16384
  49 0012 FFF7FEFF 		bl	RCC_APB2PeriphClockCmd
  50              	.LVL1:
  59:../../source/src/kernel/OS_CPU/bsp/bsp_usart.c **** 
  60:../../source/src/kernel/OS_CPU/bsp/bsp_usart.c **** 	// 将USART Tx的GPIO配置为推挽复用模式
  61:../../source/src/kernel/OS_CPU/bsp/bsp_usart.c **** 	GPIO_InitStructure.GPIO_Pin = DEBUG_USART_TX_GPIO_PIN;
  51              		.loc 1 61 0
  52 0016 4FF40071 		mov	r1, #512
ARM GAS  G:\Users\Jaxb\AppData\Local\Temp\ccQNyavp.s 			page 3


  62:../../source/src/kernel/OS_CPU/bsp/bsp_usart.c **** 	GPIO_InitStructure.GPIO_Mode = GPIO_Mode_AF_PP;
  53              		.loc 1 62 0
  54 001a 1822     		movs	r2, #24
  63:../../source/src/kernel/OS_CPU/bsp/bsp_usart.c **** 	GPIO_InitStructure.GPIO_Speed = GPIO_Speed_50MHz;
  55              		.loc 1 63 0
  56 001c 0323     		movs	r3, #3
  64:../../source/src/kernel/OS_CPU/bsp/bsp_usart.c **** 	GPIO_Init(DEBUG_USART_TX_GPIO_PORT, &GPIO_InitStructure);
  57              		.loc 1 64 0
  58 001e 204C     		ldr	r4, .L3
  61:../../source/src/kernel/OS_CPU/bsp/bsp_usart.c **** 	GPIO_InitStructure.GPIO_Mode = GPIO_Mode_AF_PP;
  59              		.loc 1 61 0
  60 0020 ADF80010 		strh	r1, [sp]	@ movhi
  61              		.loc 1 64 0
  62 0024 2046     		mov	r0, r4
  63 0026 6946     		mov	r1, sp
  62:../../source/src/kernel/OS_CPU/bsp/bsp_usart.c **** 	GPIO_InitStructure.GPIO_Speed = GPIO_Speed_50MHz;
  64              		.loc 1 62 0
  65 0028 8DF80320 		strb	r2, [sp, #3]
  63:../../source/src/kernel/OS_CPU/bsp/bsp_usart.c **** 	GPIO_Init(DEBUG_USART_TX_GPIO_PORT, &GPIO_InitStructure);
  66              		.loc 1 63 0
  67 002c 8DF80230 		strb	r3, [sp, #2]
  68              		.loc 1 64 0
  69 0030 FFF7FEFF 		bl	GPIO_Init
  70              	.LVL2:
  65:../../source/src/kernel/OS_CPU/bsp/bsp_usart.c **** 
  66:../../source/src/kernel/OS_CPU/bsp/bsp_usart.c ****   // 将USART Rx的GPIO配置为浮空输入模式
  67:../../source/src/kernel/OS_CPU/bsp/bsp_usart.c **** 	GPIO_InitStructure.GPIO_Pin = DEBUG_USART_RX_GPIO_PIN;
  71              		.loc 1 67 0
  72 0034 4FF48062 		mov	r2, #1024
  68:../../source/src/kernel/OS_CPU/bsp/bsp_usart.c **** 	GPIO_InitStructure.GPIO_Mode = GPIO_Mode_IN_FLOATING;
  73              		.loc 1 68 0
  74 0038 0423     		movs	r3, #4
  69:../../source/src/kernel/OS_CPU/bsp/bsp_usart.c **** 	GPIO_Init(DEBUG_USART_RX_GPIO_PORT, &GPIO_InitStructure);
  75              		.loc 1 69 0
  76 003a 6946     		mov	r1, sp
  77 003c 2046     		mov	r0, r4
  67:../../source/src/kernel/OS_CPU/bsp/bsp_usart.c **** 	GPIO_InitStructure.GPIO_Mode = GPIO_Mode_IN_FLOATING;
  78              		.loc 1 67 0
  79 003e ADF80020 		strh	r2, [sp]	@ movhi
  68:../../source/src/kernel/OS_CPU/bsp/bsp_usart.c **** 	GPIO_InitStructure.GPIO_Mode = GPIO_Mode_IN_FLOATING;
  80              		.loc 1 68 0
  81 0042 8DF80330 		strb	r3, [sp, #3]
  70:../../source/src/kernel/OS_CPU/bsp/bsp_usart.c **** 	
  71:../../source/src/kernel/OS_CPU/bsp/bsp_usart.c **** 	// 配置串口的工作参数
  72:../../source/src/kernel/OS_CPU/bsp/bsp_usart.c **** 	// 配置波特率
  73:../../source/src/kernel/OS_CPU/bsp/bsp_usart.c **** 	USART_InitStructure.USART_BaudRate = DEBUG_USART_BAUDRATE;
  82              		.loc 1 73 0
  83 0046 4FF4E134 		mov	r4, #115200
  69:../../source/src/kernel/OS_CPU/bsp/bsp_usart.c **** 	
  84              		.loc 1 69 0
  85 004a FFF7FEFF 		bl	GPIO_Init
  86              	.LVL3:
  87              		.loc 1 73 0
  88 004e 0023     		movs	r3, #0
  74:../../source/src/kernel/OS_CPU/bsp/bsp_usart.c **** 	// 配置 针数据字长
  75:../../source/src/kernel/OS_CPU/bsp/bsp_usart.c **** 	USART_InitStructure.USART_WordLength = USART_WordLength_8b;
  76:../../source/src/kernel/OS_CPU/bsp/bsp_usart.c **** 	// 配置停止位
ARM GAS  G:\Users\Jaxb\AppData\Local\Temp\ccQNyavp.s 			page 4


  77:../../source/src/kernel/OS_CPU/bsp/bsp_usart.c **** 	USART_InitStructure.USART_StopBits = USART_StopBits_1;
  89              		.loc 1 77 0
  90 0050 4FF44022 		mov	r2, #786432
  78:../../source/src/kernel/OS_CPU/bsp/bsp_usart.c **** 	// 配置校验位
  79:../../source/src/kernel/OS_CPU/bsp/bsp_usart.c **** 	USART_InitStructure.USART_Parity = USART_Parity_No ;
  80:../../source/src/kernel/OS_CPU/bsp/bsp_usart.c **** 	// 配置硬件流控制
  81:../../source/src/kernel/OS_CPU/bsp/bsp_usart.c **** 	USART_InitStructure.USART_HardwareFlowControl = 
  82:../../source/src/kernel/OS_CPU/bsp/bsp_usart.c **** 	USART_HardwareFlowControl_None;
  83:../../source/src/kernel/OS_CPU/bsp/bsp_usart.c **** 	// 配置工作模式，收发一起
  84:../../source/src/kernel/OS_CPU/bsp/bsp_usart.c **** 	USART_InitStructure.USART_Mode = USART_Mode_Rx | USART_Mode_Tx;
  85:../../source/src/kernel/OS_CPU/bsp/bsp_usart.c **** 	// 完成串口的初始化配置
  86:../../source/src/kernel/OS_CPU/bsp/bsp_usart.c **** 	USART_Init(DEBUG_USARTx, &USART_InitStructure);
  91              		.loc 1 86 0
  92 0054 134D     		ldr	r5, .L3+4
  93 0056 02A9     		add	r1, sp, #8
  94 0058 2846     		mov	r0, r5
  73:../../source/src/kernel/OS_CPU/bsp/bsp_usart.c **** 	// 配置 针数据字长
  95              		.loc 1 73 0
  96 005a CDE90243 		strd	r4, r3, [sp, #8]
  77:../../source/src/kernel/OS_CPU/bsp/bsp_usart.c **** 	// 配置校验位
  97              		.loc 1 77 0
  98 005e 0492     		str	r2, [sp, #16]
  84:../../source/src/kernel/OS_CPU/bsp/bsp_usart.c **** 	// 完成串口的初始化配置
  99              		.loc 1 84 0
 100 0060 ADF81430 		strh	r3, [sp, #20]	@ movhi
 101              		.loc 1 86 0
 102 0064 FFF7FEFF 		bl	USART_Init
 103              	.LVL4:
 104              	.LBB4:
 105              	.LBB5:
  30:../../source/src/kernel/OS_CPU/bsp/bsp_usart.c ****   
 106              		.loc 1 30 0
 107 0068 4FF4A060 		mov	r0, #1280
 108 006c FFF7FEFF 		bl	NVIC_PriorityGroupConfig
 109              	.LVL5:
  35:../../source/src/kernel/OS_CPU/bsp/bsp_usart.c ****   /* 子优先级 */
 110              		.loc 1 35 0
 111 0070 0124     		movs	r4, #1
  33:../../source/src/kernel/OS_CPU/bsp/bsp_usart.c ****   /* 抢断优先级*/
 112              		.loc 1 33 0
 113 0072 40F22513 		movw	r3, #293
  41:../../source/src/kernel/OS_CPU/bsp/bsp_usart.c **** }
 114              		.loc 1 41 0
 115 0076 01A8     		add	r0, sp, #4
  33:../../source/src/kernel/OS_CPU/bsp/bsp_usart.c ****   /* 抢断优先级*/
 116              		.loc 1 33 0
 117 0078 ADF80430 		strh	r3, [sp, #4]	@ movhi
  35:../../source/src/kernel/OS_CPU/bsp/bsp_usart.c ****   /* 子优先级 */
 118              		.loc 1 35 0
 119 007c 8DF80640 		strb	r4, [sp, #6]
  39:../../source/src/kernel/OS_CPU/bsp/bsp_usart.c ****   /* 初始化配置NVIC */
 120              		.loc 1 39 0
 121 0080 8DF80740 		strb	r4, [sp, #7]
  41:../../source/src/kernel/OS_CPU/bsp/bsp_usart.c **** }
 122              		.loc 1 41 0
 123 0084 FFF7FEFF 		bl	NVIC_Init
 124              	.LVL6:
ARM GAS  G:\Users\Jaxb\AppData\Local\Temp\ccQNyavp.s 			page 5


 125              	.LBE5:
 126              	.LBE4:
  87:../../source/src/kernel/OS_CPU/bsp/bsp_usart.c **** 	
  88:../../source/src/kernel/OS_CPU/bsp/bsp_usart.c **** 	// 串口中断优先级配置
  89:../../source/src/kernel/OS_CPU/bsp/bsp_usart.c **** 	NVIC_Configuration();
  90:../../source/src/kernel/OS_CPU/bsp/bsp_usart.c **** 	
  91:../../source/src/kernel/OS_CPU/bsp/bsp_usart.c **** 	// 使能串口接收中断
  92:../../source/src/kernel/OS_CPU/bsp/bsp_usart.c **** 	USART_ITConfig(DEBUG_USARTx, USART_IT_RXNE, ENABLE);	
 127              		.loc 1 92 0
 128 0088 2246     		mov	r2, r4
 129 008a 2846     		mov	r0, r5
 130 008c 40F22551 		movw	r1, #1317
 131 0090 FFF7FEFF 		bl	USART_ITConfig
 132              	.LVL7:
  93:../../source/src/kernel/OS_CPU/bsp/bsp_usart.c **** 	
  94:../../source/src/kernel/OS_CPU/bsp/bsp_usart.c **** 	// 使能串口
  95:../../source/src/kernel/OS_CPU/bsp/bsp_usart.c **** 	USART_Cmd(DEBUG_USARTx, ENABLE);	    
 133              		.loc 1 95 0
 134 0094 2146     		mov	r1, r4
 135 0096 2846     		mov	r0, r5
 136 0098 FFF7FEFF 		bl	USART_Cmd
 137              	.LVL8:
  96:../../source/src/kernel/OS_CPU/bsp/bsp_usart.c **** }
 138              		.loc 1 96 0
 139 009c 07B0     		add	sp, sp, #28
 140              	.LCFI2:
 141              		.cfi_def_cfa_offset 12
 142              		@ sp needed
 143 009e 30BD     		pop	{r4, r5, pc}
 144              	.L4:
 145              		.align	2
 146              	.L3:
 147 00a0 00080140 		.word	1073809408
 148 00a4 00380140 		.word	1073821696
 149              		.cfi_endproc
 150              	.LFE30:
 151              		.size	USART_Config, .-USART_Config
 152              		.align	1
 153              		.p2align 2,,3
 154              		.global	USART2_Config
 155              		.syntax unified
 156              		.thumb
 157              		.thumb_func
 158              		.fpu softvfp
 159              		.type	USART2_Config, %function
 160              	USART2_Config:
 161              	.LFB32:
  97:../../source/src/kernel/OS_CPU/bsp/bsp_usart.c **** 
  98:../../source/src/kernel/OS_CPU/bsp/bsp_usart.c **** static void NVIC2_Configuration(void)
  99:../../source/src/kernel/OS_CPU/bsp/bsp_usart.c **** {
 100:../../source/src/kernel/OS_CPU/bsp/bsp_usart.c ****   NVIC_InitTypeDef NVIC_InitStructure;
 101:../../source/src/kernel/OS_CPU/bsp/bsp_usart.c ****   
 102:../../source/src/kernel/OS_CPU/bsp/bsp_usart.c ****   /* 嵌套向量中断控制器组选择 */
 103:../../source/src/kernel/OS_CPU/bsp/bsp_usart.c ****   NVIC_PriorityGroupConfig(NVIC_PriorityGroup_2);
 104:../../source/src/kernel/OS_CPU/bsp/bsp_usart.c ****   
 105:../../source/src/kernel/OS_CPU/bsp/bsp_usart.c ****   /* 配置USART为中断源 */
 106:../../source/src/kernel/OS_CPU/bsp/bsp_usart.c ****   NVIC_InitStructure.NVIC_IRQChannel = USART2_IRQn;
ARM GAS  G:\Users\Jaxb\AppData\Local\Temp\ccQNyavp.s 			page 6


 107:../../source/src/kernel/OS_CPU/bsp/bsp_usart.c ****   /* 抢断优先级*/
 108:../../source/src/kernel/OS_CPU/bsp/bsp_usart.c ****   NVIC_InitStructure.NVIC_IRQChannelPreemptionPriority = 1;
 109:../../source/src/kernel/OS_CPU/bsp/bsp_usart.c ****   /* 子优先级 */
 110:../../source/src/kernel/OS_CPU/bsp/bsp_usart.c ****   NVIC_InitStructure.NVIC_IRQChannelSubPriority = 1;
 111:../../source/src/kernel/OS_CPU/bsp/bsp_usart.c ****   /* 使能中断 */
 112:../../source/src/kernel/OS_CPU/bsp/bsp_usart.c ****   NVIC_InitStructure.NVIC_IRQChannelCmd = ENABLE;
 113:../../source/src/kernel/OS_CPU/bsp/bsp_usart.c ****   /* 初始化配置NVIC */
 114:../../source/src/kernel/OS_CPU/bsp/bsp_usart.c ****   NVIC_Init(&NVIC_InitStructure);
 115:../../source/src/kernel/OS_CPU/bsp/bsp_usart.c **** }
 116:../../source/src/kernel/OS_CPU/bsp/bsp_usart.c **** 
 117:../../source/src/kernel/OS_CPU/bsp/bsp_usart.c **** void USART2_Config(void)
 118:../../source/src/kernel/OS_CPU/bsp/bsp_usart.c **** {
 162              		.loc 1 118 0
 163              		.cfi_startproc
 164              		@ args = 0, pretend = 0, frame = 24
 165              		@ frame_needed = 0, uses_anonymous_args = 0
 166 00a8 30B5     		push	{r4, r5, lr}
 167              	.LCFI3:
 168              		.cfi_def_cfa_offset 12
 169              		.cfi_offset 4, -12
 170              		.cfi_offset 5, -8
 171              		.cfi_offset 14, -4
 119:../../source/src/kernel/OS_CPU/bsp/bsp_usart.c **** 	GPIO_InitTypeDef GPIO_InitStructure;
 120:../../source/src/kernel/OS_CPU/bsp/bsp_usart.c **** 	USART_InitTypeDef USART_InitStructure;
 121:../../source/src/kernel/OS_CPU/bsp/bsp_usart.c **** 
 122:../../source/src/kernel/OS_CPU/bsp/bsp_usart.c **** 	// 打开串口GPIO的时钟
 123:../../source/src/kernel/OS_CPU/bsp/bsp_usart.c **** 	RCC_APB2PeriphClockCmd(RCC_APB2Periph_GPIOA, ENABLE);
 172              		.loc 1 123 0
 173 00aa 0121     		movs	r1, #1
 118:../../source/src/kernel/OS_CPU/bsp/bsp_usart.c **** 	GPIO_InitTypeDef GPIO_InitStructure;
 174              		.loc 1 118 0
 175 00ac 87B0     		sub	sp, sp, #28
 176              	.LCFI4:
 177              		.cfi_def_cfa_offset 40
 178              		.loc 1 123 0
 179 00ae 0420     		movs	r0, #4
 180 00b0 FFF7FEFF 		bl	RCC_APB2PeriphClockCmd
 181              	.LVL9:
 124:../../source/src/kernel/OS_CPU/bsp/bsp_usart.c **** 	
 125:../../source/src/kernel/OS_CPU/bsp/bsp_usart.c **** 	// 打开串口外设的时钟
 126:../../source/src/kernel/OS_CPU/bsp/bsp_usart.c **** 	RCC_APB1PeriphClockCmd(RCC_APB1Periph_USART2, ENABLE);
 182              		.loc 1 126 0
 183 00b4 0121     		movs	r1, #1
 184 00b6 4FF40030 		mov	r0, #131072
 185 00ba FFF7FEFF 		bl	RCC_APB1PeriphClockCmd
 186              	.LVL10:
 127:../../source/src/kernel/OS_CPU/bsp/bsp_usart.c **** 
 128:../../source/src/kernel/OS_CPU/bsp/bsp_usart.c **** 
 129:../../source/src/kernel/OS_CPU/bsp/bsp_usart.c **** 	GPIO_InitStructure.GPIO_Pin = GPIO_Pin_2;
 187              		.loc 1 129 0
 188 00be 0424     		movs	r4, #4
 130:../../source/src/kernel/OS_CPU/bsp/bsp_usart.c **** 	GPIO_InitStructure.GPIO_Mode = GPIO_Mode_AF_PP;
 189              		.loc 1 130 0
 190 00c0 1822     		movs	r2, #24
 131:../../source/src/kernel/OS_CPU/bsp/bsp_usart.c **** 	GPIO_InitStructure.GPIO_Speed = GPIO_Speed_50MHz;
 191              		.loc 1 131 0
 192 00c2 0323     		movs	r3, #3
ARM GAS  G:\Users\Jaxb\AppData\Local\Temp\ccQNyavp.s 			page 7


 132:../../source/src/kernel/OS_CPU/bsp/bsp_usart.c **** 	GPIO_Init(GPIOA, &GPIO_InitStructure);
 193              		.loc 1 132 0
 194 00c4 1F4D     		ldr	r5, .L6
 195 00c6 6946     		mov	r1, sp
 196 00c8 2846     		mov	r0, r5
 130:../../source/src/kernel/OS_CPU/bsp/bsp_usart.c **** 	GPIO_InitStructure.GPIO_Mode = GPIO_Mode_AF_PP;
 197              		.loc 1 130 0
 198 00ca 8DF80320 		strb	r2, [sp, #3]
 129:../../source/src/kernel/OS_CPU/bsp/bsp_usart.c **** 	GPIO_InitStructure.GPIO_Mode = GPIO_Mode_AF_PP;
 199              		.loc 1 129 0
 200 00ce ADF80040 		strh	r4, [sp]	@ movhi
 131:../../source/src/kernel/OS_CPU/bsp/bsp_usart.c **** 	GPIO_InitStructure.GPIO_Speed = GPIO_Speed_50MHz;
 201              		.loc 1 131 0
 202 00d2 8DF80230 		strb	r3, [sp, #2]
 203              		.loc 1 132 0
 204 00d6 FFF7FEFF 		bl	GPIO_Init
 205              	.LVL11:
 133:../../source/src/kernel/OS_CPU/bsp/bsp_usart.c **** 
 134:../../source/src/kernel/OS_CPU/bsp/bsp_usart.c **** 
 135:../../source/src/kernel/OS_CPU/bsp/bsp_usart.c **** 	GPIO_InitStructure.GPIO_Pin = GPIO_Pin_3;
 206              		.loc 1 135 0
 207 00da 0823     		movs	r3, #8
 136:../../source/src/kernel/OS_CPU/bsp/bsp_usart.c **** 	GPIO_InitStructure.GPIO_Mode = GPIO_Mode_IN_FLOATING;
 137:../../source/src/kernel/OS_CPU/bsp/bsp_usart.c **** 	GPIO_Init(GPIOA, &GPIO_InitStructure);
 208              		.loc 1 137 0
 209 00dc 6946     		mov	r1, sp
 210 00de 2846     		mov	r0, r5
 136:../../source/src/kernel/OS_CPU/bsp/bsp_usart.c **** 	GPIO_InitStructure.GPIO_Mode = GPIO_Mode_IN_FLOATING;
 211              		.loc 1 136 0
 212 00e0 8DF80340 		strb	r4, [sp, #3]
 135:../../source/src/kernel/OS_CPU/bsp/bsp_usart.c **** 	GPIO_InitStructure.GPIO_Mode = GPIO_Mode_IN_FLOATING;
 213              		.loc 1 135 0
 214 00e4 ADF80030 		strh	r3, [sp]	@ movhi
 138:../../source/src/kernel/OS_CPU/bsp/bsp_usart.c **** 	
 139:../../source/src/kernel/OS_CPU/bsp/bsp_usart.c **** 	USART_InitStructure.USART_BaudRate = DEBUG_USART_BAUDRATE;
 215              		.loc 1 139 0
 216 00e8 4FF4E134 		mov	r4, #115200
 137:../../source/src/kernel/OS_CPU/bsp/bsp_usart.c **** 	
 217              		.loc 1 137 0
 218 00ec FFF7FEFF 		bl	GPIO_Init
 219              	.LVL12:
 220              		.loc 1 139 0
 221 00f0 0023     		movs	r3, #0
 140:../../source/src/kernel/OS_CPU/bsp/bsp_usart.c **** 
 141:../../source/src/kernel/OS_CPU/bsp/bsp_usart.c **** 	USART_InitStructure.USART_WordLength = USART_WordLength_8b;
 142:../../source/src/kernel/OS_CPU/bsp/bsp_usart.c **** 
 143:../../source/src/kernel/OS_CPU/bsp/bsp_usart.c **** 	USART_InitStructure.USART_StopBits = USART_StopBits_1;
 222              		.loc 1 143 0
 223 00f2 4FF44022 		mov	r2, #786432
 144:../../source/src/kernel/OS_CPU/bsp/bsp_usart.c **** 
 145:../../source/src/kernel/OS_CPU/bsp/bsp_usart.c **** 	USART_InitStructure.USART_Parity = USART_Parity_No ;
 146:../../source/src/kernel/OS_CPU/bsp/bsp_usart.c **** 
 147:../../source/src/kernel/OS_CPU/bsp/bsp_usart.c **** 	USART_InitStructure.USART_HardwareFlowControl = 
 148:../../source/src/kernel/OS_CPU/bsp/bsp_usart.c **** 	USART_HardwareFlowControl_None;
 149:../../source/src/kernel/OS_CPU/bsp/bsp_usart.c **** 
 150:../../source/src/kernel/OS_CPU/bsp/bsp_usart.c **** 	USART_InitStructure.USART_Mode = USART_Mode_Rx | USART_Mode_Tx;
 151:../../source/src/kernel/OS_CPU/bsp/bsp_usart.c **** 
ARM GAS  G:\Users\Jaxb\AppData\Local\Temp\ccQNyavp.s 			page 8


 152:../../source/src/kernel/OS_CPU/bsp/bsp_usart.c **** 	USART_Init(USART2, &USART_InitStructure);
 224              		.loc 1 152 0
 225 00f6 A5F54445 		sub	r5, r5, #50176
 226 00fa 02A9     		add	r1, sp, #8
 227 00fc 2846     		mov	r0, r5
 139:../../source/src/kernel/OS_CPU/bsp/bsp_usart.c **** 
 228              		.loc 1 139 0
 229 00fe CDE90243 		strd	r4, r3, [sp, #8]
 143:../../source/src/kernel/OS_CPU/bsp/bsp_usart.c **** 
 230              		.loc 1 143 0
 231 0102 0492     		str	r2, [sp, #16]
 150:../../source/src/kernel/OS_CPU/bsp/bsp_usart.c **** 
 232              		.loc 1 150 0
 233 0104 ADF81430 		strh	r3, [sp, #20]	@ movhi
 234              		.loc 1 152 0
 235 0108 FFF7FEFF 		bl	USART_Init
 236              	.LVL13:
 237              	.LBB8:
 238              	.LBB9:
 103:../../source/src/kernel/OS_CPU/bsp/bsp_usart.c ****   
 239              		.loc 1 103 0
 240 010c 4FF4A060 		mov	r0, #1280
 241 0110 FFF7FEFF 		bl	NVIC_PriorityGroupConfig
 242              	.LVL14:
 108:../../source/src/kernel/OS_CPU/bsp/bsp_usart.c ****   /* 子优先级 */
 243              		.loc 1 108 0
 244 0114 0124     		movs	r4, #1
 106:../../source/src/kernel/OS_CPU/bsp/bsp_usart.c ****   /* 抢断优先级*/
 245              		.loc 1 106 0
 246 0116 4FF49373 		mov	r3, #294
 114:../../source/src/kernel/OS_CPU/bsp/bsp_usart.c **** }
 247              		.loc 1 114 0
 248 011a 01A8     		add	r0, sp, #4
 106:../../source/src/kernel/OS_CPU/bsp/bsp_usart.c ****   /* 抢断优先级*/
 249              		.loc 1 106 0
 250 011c ADF80430 		strh	r3, [sp, #4]	@ movhi
 108:../../source/src/kernel/OS_CPU/bsp/bsp_usart.c ****   /* 子优先级 */
 251              		.loc 1 108 0
 252 0120 8DF80640 		strb	r4, [sp, #6]
 112:../../source/src/kernel/OS_CPU/bsp/bsp_usart.c ****   /* 初始化配置NVIC */
 253              		.loc 1 112 0
 254 0124 8DF80740 		strb	r4, [sp, #7]
 114:../../source/src/kernel/OS_CPU/bsp/bsp_usart.c **** }
 255              		.loc 1 114 0
 256 0128 FFF7FEFF 		bl	NVIC_Init
 257              	.LVL15:
 258              	.LBE9:
 259              	.LBE8:
 153:../../source/src/kernel/OS_CPU/bsp/bsp_usart.c **** 	
 154:../../source/src/kernel/OS_CPU/bsp/bsp_usart.c **** 
 155:../../source/src/kernel/OS_CPU/bsp/bsp_usart.c **** 	NVIC2_Configuration();
 156:../../source/src/kernel/OS_CPU/bsp/bsp_usart.c **** 	
 157:../../source/src/kernel/OS_CPU/bsp/bsp_usart.c **** 
 158:../../source/src/kernel/OS_CPU/bsp/bsp_usart.c **** 	USART_ITConfig(USART2, USART_IT_RXNE, ENABLE);	
 260              		.loc 1 158 0
 261 012c 2246     		mov	r2, r4
 262 012e 2846     		mov	r0, r5
ARM GAS  G:\Users\Jaxb\AppData\Local\Temp\ccQNyavp.s 			page 9


 263 0130 40F22551 		movw	r1, #1317
 264 0134 FFF7FEFF 		bl	USART_ITConfig
 265              	.LVL16:
 159:../../source/src/kernel/OS_CPU/bsp/bsp_usart.c **** 	
 160:../../source/src/kernel/OS_CPU/bsp/bsp_usart.c **** 
 161:../../source/src/kernel/OS_CPU/bsp/bsp_usart.c **** 	USART_Cmd(USART2, ENABLE);	    
 266              		.loc 1 161 0
 267 0138 2146     		mov	r1, r4
 268 013a 2846     		mov	r0, r5
 269 013c FFF7FEFF 		bl	USART_Cmd
 270              	.LVL17:
 162:../../source/src/kernel/OS_CPU/bsp/bsp_usart.c **** }
 271              		.loc 1 162 0
 272 0140 07B0     		add	sp, sp, #28
 273              	.LCFI5:
 274              		.cfi_def_cfa_offset 12
 275              		@ sp needed
 276 0142 30BD     		pop	{r4, r5, pc}
 277              	.L7:
 278              		.align	2
 279              	.L6:
 280 0144 00080140 		.word	1073809408
 281              		.cfi_endproc
 282              	.LFE32:
 283              		.size	USART2_Config, .-USART2_Config
 284              		.align	1
 285              		.p2align 2,,3
 286              		.global	Usart_SendByte
 287              		.syntax unified
 288              		.thumb
 289              		.thumb_func
 290              		.fpu softvfp
 291              		.type	Usart_SendByte, %function
 292              	Usart_SendByte:
 293              	.LFB33:
 163:../../source/src/kernel/OS_CPU/bsp/bsp_usart.c **** 
 164:../../source/src/kernel/OS_CPU/bsp/bsp_usart.c **** 
 165:../../source/src/kernel/OS_CPU/bsp/bsp_usart.c **** /*****************  发送一个字节 **********************/
 166:../../source/src/kernel/OS_CPU/bsp/bsp_usart.c **** void Usart_SendByte( USART_TypeDef * pUSARTx, uint8_t ch)
 167:../../source/src/kernel/OS_CPU/bsp/bsp_usart.c **** {
 294              		.loc 1 167 0
 295              		.cfi_startproc
 296              		@ args = 0, pretend = 0, frame = 0
 297              		@ frame_needed = 0, uses_anonymous_args = 0
 298              	.LVL18:
 299 0148 10B5     		push	{r4, lr}
 300              	.LCFI6:
 301              		.cfi_def_cfa_offset 8
 302              		.cfi_offset 4, -8
 303              		.cfi_offset 14, -4
 304              		.loc 1 167 0
 305 014a 0446     		mov	r4, r0
 168:../../source/src/kernel/OS_CPU/bsp/bsp_usart.c **** 	/* 发送一个字节数据到USART */
 169:../../source/src/kernel/OS_CPU/bsp/bsp_usart.c **** 	USART_SendData(pUSARTx,ch);
 306              		.loc 1 169 0
 307 014c FFF7FEFF 		bl	USART_SendData
 308              	.LVL19:
ARM GAS  G:\Users\Jaxb\AppData\Local\Temp\ccQNyavp.s 			page 10


 309              	.L9:
 170:../../source/src/kernel/OS_CPU/bsp/bsp_usart.c **** 		
 171:../../source/src/kernel/OS_CPU/bsp/bsp_usart.c **** 	/* 等待发送数据寄存器为空 */
 172:../../source/src/kernel/OS_CPU/bsp/bsp_usart.c **** 	while (USART_GetFlagStatus(pUSARTx, USART_FLAG_TXE) == RESET);	
 310              		.loc 1 172 0 discriminator 1
 311 0150 8021     		movs	r1, #128
 312 0152 2046     		mov	r0, r4
 313 0154 FFF7FEFF 		bl	USART_GetFlagStatus
 314              	.LVL20:
 315 0158 0028     		cmp	r0, #0
 316 015a F9D0     		beq	.L9
 173:../../source/src/kernel/OS_CPU/bsp/bsp_usart.c **** }
 317              		.loc 1 173 0
 318 015c 10BD     		pop	{r4, pc}
 319              		.cfi_endproc
 320              	.LFE33:
 321              		.size	Usart_SendByte, .-Usart_SendByte
 322              		.align	1
 323 015e 00BF     		.p2align 2,,3
 324              		.global	Usart_SendArray
 325              		.syntax unified
 326              		.thumb
 327              		.thumb_func
 328              		.fpu softvfp
 329              		.type	Usart_SendArray, %function
 330              	Usart_SendArray:
 331              	.LFB34:
 174:../../source/src/kernel/OS_CPU/bsp/bsp_usart.c **** 
 175:../../source/src/kernel/OS_CPU/bsp/bsp_usart.c **** /****************** 发送8位的数组 ************************/
 176:../../source/src/kernel/OS_CPU/bsp/bsp_usart.c **** void Usart_SendArray( USART_TypeDef * pUSARTx, uint8_t *array, uint16_t num)
 177:../../source/src/kernel/OS_CPU/bsp/bsp_usart.c **** {
 332              		.loc 1 177 0
 333              		.cfi_startproc
 334              		@ args = 0, pretend = 0, frame = 0
 335              		@ frame_needed = 0, uses_anonymous_args = 0
 336              	.LVL21:
 337 0160 F8B5     		push	{r3, r4, r5, r6, r7, lr}
 338              	.LCFI7:
 339              		.cfi_def_cfa_offset 24
 340              		.cfi_offset 3, -24
 341              		.cfi_offset 4, -20
 342              		.cfi_offset 5, -16
 343              		.cfi_offset 6, -12
 344              		.cfi_offset 7, -8
 345              		.cfi_offset 14, -4
 346              		.loc 1 177 0
 347 0162 0546     		mov	r5, r0
 348 0164 0F46     		mov	r7, r1
 178:../../source/src/kernel/OS_CPU/bsp/bsp_usart.c ****   uint8_t i;
 179:../../source/src/kernel/OS_CPU/bsp/bsp_usart.c **** 	
 180:../../source/src/kernel/OS_CPU/bsp/bsp_usart.c **** 	for(i=0; i<num; i++)
 349              		.loc 1 180 0
 350 0166 1646     		mov	r6, r2
 351 0168 42B1     		cbz	r2, .L15
 352 016a 0024     		movs	r4, #0
 353              	.LVL22:
 354              	.L14:
ARM GAS  G:\Users\Jaxb\AppData\Local\Temp\ccQNyavp.s 			page 11


 181:../../source/src/kernel/OS_CPU/bsp/bsp_usart.c ****   {
 182:../../source/src/kernel/OS_CPU/bsp/bsp_usart.c **** 	    /* 发送一个字节数据到USART */
 183:../../source/src/kernel/OS_CPU/bsp/bsp_usart.c **** 	    Usart_SendByte(pUSARTx,array[i]);	
 355              		.loc 1 183 0 discriminator 3
 356 016c 395D     		ldrb	r1, [r7, r4]	@ zero_extendqisi2
 180:../../source/src/kernel/OS_CPU/bsp/bsp_usart.c ****   {
 357              		.loc 1 180 0 discriminator 3
 358 016e 0134     		adds	r4, r4, #1
 359              	.LVL23:
 360              		.loc 1 183 0 discriminator 3
 361 0170 2846     		mov	r0, r5
 180:../../source/src/kernel/OS_CPU/bsp/bsp_usart.c ****   {
 362              		.loc 1 180 0 discriminator 3
 363 0172 E4B2     		uxtb	r4, r4
 364              		.loc 1 183 0 discriminator 3
 365 0174 FFF7FEFF 		bl	Usart_SendByte
 366              	.LVL24:
 180:../../source/src/kernel/OS_CPU/bsp/bsp_usart.c ****   {
 367              		.loc 1 180 0 discriminator 3
 368 0178 B442     		cmp	r4, r6
 369 017a F7D3     		bcc	.L14
 370              	.LVL25:
 371              	.L15:
 184:../../source/src/kernel/OS_CPU/bsp/bsp_usart.c ****   
 185:../../source/src/kernel/OS_CPU/bsp/bsp_usart.c ****   }
 186:../../source/src/kernel/OS_CPU/bsp/bsp_usart.c **** 	/* 等待发送完成 */
 187:../../source/src/kernel/OS_CPU/bsp/bsp_usart.c **** 	while(USART_GetFlagStatus(pUSARTx,USART_FLAG_TC)==RESET);
 372              		.loc 1 187 0 discriminator 1
 373 017c 4021     		movs	r1, #64
 374 017e 2846     		mov	r0, r5
 375 0180 FFF7FEFF 		bl	USART_GetFlagStatus
 376              	.LVL26:
 377 0184 0028     		cmp	r0, #0
 378 0186 F9D0     		beq	.L15
 188:../../source/src/kernel/OS_CPU/bsp/bsp_usart.c **** }
 379              		.loc 1 188 0
 380 0188 F8BD     		pop	{r3, r4, r5, r6, r7, pc}
 381              		.cfi_endproc
 382              	.LFE34:
 383              		.size	Usart_SendArray, .-Usart_SendArray
 384              		.align	1
 385 018a 00BF     		.p2align 2,,3
 386              		.global	Usart_SendString
 387              		.syntax unified
 388              		.thumb
 389              		.thumb_func
 390              		.fpu softvfp
 391              		.type	Usart_SendString, %function
 392              	Usart_SendString:
 393              	.LFB35:
 189:../../source/src/kernel/OS_CPU/bsp/bsp_usart.c **** 
 190:../../source/src/kernel/OS_CPU/bsp/bsp_usart.c **** /*****************  发送字符串 **********************/
 191:../../source/src/kernel/OS_CPU/bsp/bsp_usart.c **** void Usart_SendString( USART_TypeDef * pUSARTx, char *str)
 192:../../source/src/kernel/OS_CPU/bsp/bsp_usart.c **** {
 394              		.loc 1 192 0
 395              		.cfi_startproc
 396              		@ args = 0, pretend = 0, frame = 0
ARM GAS  G:\Users\Jaxb\AppData\Local\Temp\ccQNyavp.s 			page 12


 397              		@ frame_needed = 0, uses_anonymous_args = 0
 398              	.LVL27:
 399 018c 38B5     		push	{r3, r4, r5, lr}
 400              	.LCFI8:
 401              		.cfi_def_cfa_offset 16
 402              		.cfi_offset 3, -16
 403              		.cfi_offset 4, -12
 404              		.cfi_offset 5, -8
 405              		.cfi_offset 14, -4
 406              		.loc 1 192 0
 407 018e 0546     		mov	r5, r0
 408              	.LVL28:
 409 0190 0C46     		mov	r4, r1
 410 0192 0978     		ldrb	r1, [r1]	@ zero_extendqisi2
 411              	.LVL29:
 412              	.L23:
 193:../../source/src/kernel/OS_CPU/bsp/bsp_usart.c **** 	unsigned int k=0;
 194:../../source/src/kernel/OS_CPU/bsp/bsp_usart.c ****   do 
 195:../../source/src/kernel/OS_CPU/bsp/bsp_usart.c ****   {
 196:../../source/src/kernel/OS_CPU/bsp/bsp_usart.c ****       Usart_SendByte( pUSARTx, *(str + k) );
 413              		.loc 1 196 0 discriminator 1
 414 0194 2846     		mov	r0, r5
 415 0196 FFF7FEFF 		bl	Usart_SendByte
 416              	.LVL30:
 197:../../source/src/kernel/OS_CPU/bsp/bsp_usart.c ****       k++;
 198:../../source/src/kernel/OS_CPU/bsp/bsp_usart.c ****   } while(*(str + k)!='\0');
 417              		.loc 1 198 0 discriminator 1
 418 019a 14F8011F 		ldrb	r1, [r4, #1]!	@ zero_extendqisi2
 419              	.LVL31:
 420 019e 0029     		cmp	r1, #0
 421 01a0 F8D1     		bne	.L23
 422              	.L24:
 199:../../source/src/kernel/OS_CPU/bsp/bsp_usart.c ****   
 200:../../source/src/kernel/OS_CPU/bsp/bsp_usart.c ****   /* 等待发送完成 */
 201:../../source/src/kernel/OS_CPU/bsp/bsp_usart.c ****   while(USART_GetFlagStatus(pUSARTx,USART_FLAG_TC)==RESET)
 423              		.loc 1 201 0 discriminator 1
 424 01a2 4021     		movs	r1, #64
 425 01a4 2846     		mov	r0, r5
 426 01a6 FFF7FEFF 		bl	USART_GetFlagStatus
 427              	.LVL32:
 428 01aa 0028     		cmp	r0, #0
 429 01ac F9D0     		beq	.L24
 202:../../source/src/kernel/OS_CPU/bsp/bsp_usart.c ****   {}
 203:../../source/src/kernel/OS_CPU/bsp/bsp_usart.c **** }
 430              		.loc 1 203 0
 431 01ae 38BD     		pop	{r3, r4, r5, pc}
 432              		.cfi_endproc
 433              	.LFE35:
 434              		.size	Usart_SendString, .-Usart_SendString
 435              		.align	1
 436              		.p2align 2,,3
 437              		.global	Usart_SendHalfWord
 438              		.syntax unified
 439              		.thumb
 440              		.thumb_func
 441              		.fpu softvfp
 442              		.type	Usart_SendHalfWord, %function
ARM GAS  G:\Users\Jaxb\AppData\Local\Temp\ccQNyavp.s 			page 13


 443              	Usart_SendHalfWord:
 444              	.LFB36:
 204:../../source/src/kernel/OS_CPU/bsp/bsp_usart.c **** 
 205:../../source/src/kernel/OS_CPU/bsp/bsp_usart.c **** /*****************  发送一个16位数 **********************/
 206:../../source/src/kernel/OS_CPU/bsp/bsp_usart.c **** void Usart_SendHalfWord( USART_TypeDef * pUSARTx, uint16_t ch)
 207:../../source/src/kernel/OS_CPU/bsp/bsp_usart.c **** {
 445              		.loc 1 207 0
 446              		.cfi_startproc
 447              		@ args = 0, pretend = 0, frame = 0
 448              		@ frame_needed = 0, uses_anonymous_args = 0
 449              	.LVL33:
 450 01b0 38B5     		push	{r3, r4, r5, lr}
 451              	.LCFI9:
 452              		.cfi_def_cfa_offset 16
 453              		.cfi_offset 3, -16
 454              		.cfi_offset 4, -12
 455              		.cfi_offset 5, -8
 456              		.cfi_offset 14, -4
 457              		.loc 1 207 0
 458 01b2 0D46     		mov	r5, r1
 459              	.LVL34:
 208:../../source/src/kernel/OS_CPU/bsp/bsp_usart.c **** 	uint8_t temp_h, temp_l;
 209:../../source/src/kernel/OS_CPU/bsp/bsp_usart.c **** 	
 210:../../source/src/kernel/OS_CPU/bsp/bsp_usart.c **** 	/* 取出高八位 */
 211:../../source/src/kernel/OS_CPU/bsp/bsp_usart.c **** 	temp_h = (ch&0XFF00)>>8;
 212:../../source/src/kernel/OS_CPU/bsp/bsp_usart.c **** 	/* 取出低八位 */
 213:../../source/src/kernel/OS_CPU/bsp/bsp_usart.c **** 	temp_l = ch&0XFF;
 214:../../source/src/kernel/OS_CPU/bsp/bsp_usart.c **** 	
 215:../../source/src/kernel/OS_CPU/bsp/bsp_usart.c **** 	/* 发送高八位 */
 216:../../source/src/kernel/OS_CPU/bsp/bsp_usart.c **** 	USART_SendData(pUSARTx,temp_h);	
 460              		.loc 1 216 0
 461 01b4 090A     		lsrs	r1, r1, #8
 462              	.LVL35:
 207:../../source/src/kernel/OS_CPU/bsp/bsp_usart.c **** 	uint8_t temp_h, temp_l;
 463              		.loc 1 207 0
 464 01b6 0446     		mov	r4, r0
 465              		.loc 1 216 0
 466 01b8 FFF7FEFF 		bl	USART_SendData
 467              	.LVL36:
 468              	.L29:
 217:../../source/src/kernel/OS_CPU/bsp/bsp_usart.c **** 	while (USART_GetFlagStatus(pUSARTx, USART_FLAG_TXE) == RESET);
 469              		.loc 1 217 0 discriminator 1
 470 01bc 8021     		movs	r1, #128
 471 01be 2046     		mov	r0, r4
 472 01c0 FFF7FEFF 		bl	USART_GetFlagStatus
 473              	.LVL37:
 474 01c4 0028     		cmp	r0, #0
 475 01c6 F9D0     		beq	.L29
 218:../../source/src/kernel/OS_CPU/bsp/bsp_usart.c **** 	
 219:../../source/src/kernel/OS_CPU/bsp/bsp_usart.c **** 	/* 发送低八位 */
 220:../../source/src/kernel/OS_CPU/bsp/bsp_usart.c **** 	USART_SendData(pUSARTx,temp_l);	
 476              		.loc 1 220 0
 477 01c8 E9B2     		uxtb	r1, r5
 478 01ca 2046     		mov	r0, r4
 479 01cc FFF7FEFF 		bl	USART_SendData
 480              	.LVL38:
 481              	.L30:
ARM GAS  G:\Users\Jaxb\AppData\Local\Temp\ccQNyavp.s 			page 14


 221:../../source/src/kernel/OS_CPU/bsp/bsp_usart.c **** 	while (USART_GetFlagStatus(pUSARTx, USART_FLAG_TXE) == RESET);	
 482              		.loc 1 221 0 discriminator 1
 483 01d0 8021     		movs	r1, #128
 484 01d2 2046     		mov	r0, r4
 485 01d4 FFF7FEFF 		bl	USART_GetFlagStatus
 486              	.LVL39:
 487 01d8 0028     		cmp	r0, #0
 488 01da F9D0     		beq	.L30
 222:../../source/src/kernel/OS_CPU/bsp/bsp_usart.c **** }
 489              		.loc 1 222 0
 490 01dc 38BD     		pop	{r3, r4, r5, pc}
 491              		.cfi_endproc
 492              	.LFE36:
 493              		.size	Usart_SendHalfWord, .-Usart_SendHalfWord
 494              	.Letext0:
 495              		.file 2 "f:\\arm\\gcc2018\\arm-none-eabi\\include\\machine\\_default_types.h"
 496              		.file 3 "f:\\arm\\gcc2018\\arm-none-eabi\\include\\sys\\_stdint.h"
 497              		.file 4 "../../source/include/core_cm3.h"
 498              		.file 5 "../../source/include/system_stm32f10x.h"
 499              		.file 6 "../../source/include/stm32f10x.h"
 500              		.file 7 "../../source/src/FWlib/inc/stm32f10x_gpio.h"
 501              		.file 8 "../../source/src/FWlib/inc/stm32f10x_usart.h"
 502              		.file 9 "../../source/src/FWlib/inc/misc.h"
 503              		.file 10 "../../source/src/FWlib/inc/stm32f10x_rcc.h"
 504 01de 00BF     		.section	.debug_info,"",%progbits
 505              	.Ldebug_info0:
 506 0000 E50A0000 		.4byte	0xae5
 507 0004 0200     		.2byte	0x2
 508 0006 00000000 		.4byte	.Ldebug_abbrev0
 509 000a 04       		.byte	0x4
 510 000b 01       		.uleb128 0x1
 511 000c D7030000 		.4byte	.LASF156
 512 0010 0C       		.byte	0xc
 513 0011 E4070000 		.4byte	.LASF157
 514 0015 4C000000 		.4byte	.LASF158
 515 0019 00000000 		.4byte	.Ltext0
 516 001d DE010000 		.4byte	.Letext0
 517 0021 00000000 		.4byte	.Ldebug_line0
 518 0025 02       		.uleb128 0x2
 519 0026 96050000 		.4byte	.LASF159
 520 002a 05       		.byte	0x5
 521 002b 01       		.byte	0x1
 522 002c CF010000 		.4byte	0x1cf
 523 0030 06       		.byte	0x6
 524 0031 A7       		.byte	0xa7
 525 0032 CF010000 		.4byte	0x1cf
 526 0036 03       		.uleb128 0x3
 527 0037 81060000 		.4byte	.LASF0
 528 003b 72       		.sleb128 -14
 529 003c 03       		.uleb128 0x3
 530 003d 53010000 		.4byte	.LASF1
 531 0041 74       		.sleb128 -12
 532 0042 03       		.uleb128 0x3
 533 0043 7D040000 		.4byte	.LASF2
 534 0047 75       		.sleb128 -11
 535 0048 03       		.uleb128 0x3
 536 0049 3B070000 		.4byte	.LASF3
ARM GAS  G:\Users\Jaxb\AppData\Local\Temp\ccQNyavp.s 			page 15


 537 004d 76       		.sleb128 -10
 538 004e 03       		.uleb128 0x3
 539 004f C8070000 		.4byte	.LASF4
 540 0053 7B       		.sleb128 -5
 541 0054 03       		.uleb128 0x3
 542 0055 29070000 		.4byte	.LASF5
 543 0059 7C       		.sleb128 -4
 544 005a 03       		.uleb128 0x3
 545 005b 24010000 		.4byte	.LASF6
 546 005f 7E       		.sleb128 -2
 547 0060 03       		.uleb128 0x3
 548 0061 F9060000 		.4byte	.LASF7
 549 0065 7F       		.sleb128 -1
 550 0066 04       		.uleb128 0x4
 551 0067 BD030000 		.4byte	.LASF8
 552 006b 00       		.byte	0
 553 006c 04       		.uleb128 0x4
 554 006d E2040000 		.4byte	.LASF9
 555 0071 01       		.byte	0x1
 556 0072 04       		.uleb128 0x4
 557 0073 6E090000 		.4byte	.LASF10
 558 0077 02       		.byte	0x2
 559 0078 04       		.uleb128 0x4
 560 0079 D8050000 		.4byte	.LASF11
 561 007d 03       		.byte	0x3
 562 007e 04       		.uleb128 0x4
 563 007f DF000000 		.4byte	.LASF12
 564 0083 04       		.byte	0x4
 565 0084 04       		.uleb128 0x4
 566 0085 45010000 		.4byte	.LASF13
 567 0089 05       		.byte	0x5
 568 008a 04       		.uleb128 0x4
 569 008b EA000000 		.4byte	.LASF14
 570 008f 06       		.byte	0x6
 571 0090 04       		.uleb128 0x4
 572 0091 C2060000 		.4byte	.LASF15
 573 0095 07       		.byte	0x7
 574 0096 04       		.uleb128 0x4
 575 0097 CC020000 		.4byte	.LASF16
 576 009b 08       		.byte	0x8
 577 009c 04       		.uleb128 0x4
 578 009d EB080000 		.4byte	.LASF17
 579 00a1 09       		.byte	0x9
 580 00a2 04       		.uleb128 0x4
 581 00a3 A6040000 		.4byte	.LASF18
 582 00a7 0A       		.byte	0xa
 583 00a8 04       		.uleb128 0x4
 584 00a9 7A030000 		.4byte	.LASF19
 585 00ad 0B       		.byte	0xb
 586 00ae 04       		.uleb128 0x4
 587 00af A4000000 		.4byte	.LASF20
 588 00b3 0C       		.byte	0xc
 589 00b4 04       		.uleb128 0x4
 590 00b5 36050000 		.4byte	.LASF21
 591 00b9 0D       		.byte	0xd
 592 00ba 04       		.uleb128 0x4
 593 00bb DB010000 		.4byte	.LASF22
ARM GAS  G:\Users\Jaxb\AppData\Local\Temp\ccQNyavp.s 			page 16


 594 00bf 0E       		.byte	0xe
 595 00c0 04       		.uleb128 0x4
 596 00c1 4C080000 		.4byte	.LASF23
 597 00c5 0F       		.byte	0xf
 598 00c6 04       		.uleb128 0x4
 599 00c7 20030000 		.4byte	.LASF24
 600 00cb 10       		.byte	0x10
 601 00cc 04       		.uleb128 0x4
 602 00cd 7A000000 		.4byte	.LASF25
 603 00d1 11       		.byte	0x11
 604 00d2 04       		.uleb128 0x4
 605 00d3 2D090000 		.4byte	.LASF26
 606 00d7 12       		.byte	0x12
 607 00d8 04       		.uleb128 0x4
 608 00d9 60020000 		.4byte	.LASF27
 609 00dd 13       		.byte	0x13
 610 00de 04       		.uleb128 0x4
 611 00df 00000000 		.4byte	.LASF28
 612 00e3 14       		.byte	0x14
 613 00e4 04       		.uleb128 0x4
 614 00e5 25020000 		.4byte	.LASF29
 615 00e9 15       		.byte	0x15
 616 00ea 04       		.uleb128 0x4
 617 00eb 3E000000 		.4byte	.LASF30
 618 00ef 16       		.byte	0x16
 619 00f0 04       		.uleb128 0x4
 620 00f1 BB070000 		.4byte	.LASF31
 621 00f5 17       		.byte	0x17
 622 00f6 04       		.uleb128 0x4
 623 00f7 A8010000 		.4byte	.LASF32
 624 00fb 18       		.byte	0x18
 625 00fc 04       		.uleb128 0x4
 626 00fd 9B050000 		.4byte	.LASF33
 627 0101 19       		.byte	0x19
 628 0102 04       		.uleb128 0x4
 629 0103 CD060000 		.4byte	.LASF34
 630 0107 1A       		.byte	0x1a
 631 0108 04       		.uleb128 0x4
 632 0109 9E060000 		.4byte	.LASF35
 633 010d 1B       		.byte	0x1b
 634 010e 04       		.uleb128 0x4
 635 010f 1F070000 		.4byte	.LASF36
 636 0113 1C       		.byte	0x1c
 637 0114 04       		.uleb128 0x4
 638 0115 70030000 		.4byte	.LASF37
 639 0119 1D       		.byte	0x1d
 640 011a 04       		.uleb128 0x4
 641 011b 9A000000 		.4byte	.LASF38
 642 011f 1E       		.byte	0x1e
 643 0120 04       		.uleb128 0x4
 644 0121 6B050000 		.4byte	.LASF39
 645 0125 1F       		.byte	0x1f
 646 0126 04       		.uleb128 0x4
 647 0127 EC060000 		.4byte	.LASF40
 648 012b 20       		.byte	0x20
 649 012c 04       		.uleb128 0x4
 650 012d D7020000 		.4byte	.LASF41
ARM GAS  G:\Users\Jaxb\AppData\Local\Temp\ccQNyavp.s 			page 17


 651 0131 21       		.byte	0x21
 652 0132 04       		.uleb128 0x4
 653 0133 8D000000 		.4byte	.LASF42
 654 0137 22       		.byte	0x22
 655 0138 04       		.uleb128 0x4
 656 0139 C7010000 		.4byte	.LASF43
 657 013d 23       		.byte	0x23
 658 013e 04       		.uleb128 0x4
 659 013f 38080000 		.4byte	.LASF44
 660 0143 24       		.byte	0x24
 661 0144 04       		.uleb128 0x4
 662 0145 5D060000 		.4byte	.LASF45
 663 0149 25       		.byte	0x25
 664 014a 04       		.uleb128 0x4
 665 014b 74020000 		.4byte	.LASF46
 666 014f 26       		.byte	0x26
 667 0150 04       		.uleb128 0x4
 668 0151 62090000 		.4byte	.LASF47
 669 0155 27       		.byte	0x27
 670 0156 04       		.uleb128 0x4
 671 0157 06010000 		.4byte	.LASF48
 672 015b 28       		.byte	0x28
 673 015c 04       		.uleb128 0x4
 674 015d 7F090000 		.4byte	.LASF49
 675 0161 29       		.byte	0x29
 676 0162 04       		.uleb128 0x4
 677 0163 A0030000 		.4byte	.LASF50
 678 0167 2A       		.byte	0x2a
 679 0168 04       		.uleb128 0x4
 680 0169 CA080000 		.4byte	.LASF51
 681 016d 2B       		.byte	0x2b
 682 016e 04       		.uleb128 0x4
 683 016f B9050000 		.4byte	.LASF52
 684 0173 2C       		.byte	0x2c
 685 0174 04       		.uleb128 0x4
 686 0175 49050000 		.4byte	.LASF53
 687 0179 2D       		.byte	0x2d
 688 017a 04       		.uleb128 0x4
 689 017b AB060000 		.4byte	.LASF54
 690 017f 2E       		.byte	0x2e
 691 0180 04       		.uleb128 0x4
 692 0181 D8040000 		.4byte	.LASF55
 693 0185 2F       		.byte	0x2f
 694 0186 04       		.uleb128 0x4
 695 0187 B8060000 		.4byte	.LASF56
 696 018b 30       		.byte	0x30
 697 018c 04       		.uleb128 0x4
 698 018d 2A000000 		.4byte	.LASF57
 699 0191 31       		.byte	0x31
 700 0192 04       		.uleb128 0x4
 701 0193 2C050000 		.4byte	.LASF58
 702 0197 32       		.byte	0x32
 703 0198 04       		.uleb128 0x4
 704 0199 F8020000 		.4byte	.LASF59
 705 019d 33       		.byte	0x33
 706 019e 04       		.uleb128 0x4
 707 019f 3A010000 		.4byte	.LASF60
ARM GAS  G:\Users\Jaxb\AppData\Local\Temp\ccQNyavp.s 			page 18


 708 01a3 34       		.byte	0x34
 709 01a4 04       		.uleb128 0x4
 710 01a5 69060000 		.4byte	.LASF61
 711 01a9 35       		.byte	0x35
 712 01aa 04       		.uleb128 0x4
 713 01ab D1010000 		.4byte	.LASF62
 714 01af 36       		.byte	0x36
 715 01b0 04       		.uleb128 0x4
 716 01b1 42080000 		.4byte	.LASF63
 717 01b5 37       		.byte	0x37
 718 01b6 04       		.uleb128 0x4
 719 01b7 46030000 		.4byte	.LASF64
 720 01bb 38       		.byte	0x38
 721 01bc 04       		.uleb128 0x4
 722 01bd 39090000 		.4byte	.LASF65
 723 01c1 39       		.byte	0x39
 724 01c2 04       		.uleb128 0x4
 725 01c3 FB040000 		.4byte	.LASF66
 726 01c7 3A       		.byte	0x3a
 727 01c8 04       		.uleb128 0x4
 728 01c9 18090000 		.4byte	.LASF67
 729 01cd 3B       		.byte	0x3b
 730 01ce 00       		.byte	0
 731 01cf 05       		.uleb128 0x5
 732 01d0 01       		.byte	0x1
 733 01d1 06       		.byte	0x6
 734 01d2 BE080000 		.4byte	.LASF68
 735 01d6 06       		.uleb128 0x6
 736 01d7 90080000 		.4byte	.LASF71
 737 01db 02       		.byte	0x2
 738 01dc 2B       		.byte	0x2b
 739 01dd E1010000 		.4byte	0x1e1
 740 01e1 05       		.uleb128 0x5
 741 01e2 01       		.byte	0x1
 742 01e3 08       		.byte	0x8
 743 01e4 5C070000 		.4byte	.LASF69
 744 01e8 05       		.uleb128 0x5
 745 01e9 02       		.byte	0x2
 746 01ea 05       		.byte	0x5
 747 01eb 3A060000 		.4byte	.LASF70
 748 01ef 06       		.uleb128 0x6
 749 01f0 1A020000 		.4byte	.LASF72
 750 01f4 02       		.byte	0x2
 751 01f5 39       		.byte	0x39
 752 01f6 FA010000 		.4byte	0x1fa
 753 01fa 05       		.uleb128 0x5
 754 01fb 02       		.byte	0x2
 755 01fc 07       		.byte	0x7
 756 01fd D8080000 		.4byte	.LASF73
 757 0201 05       		.uleb128 0x5
 758 0202 04       		.byte	0x4
 759 0203 05       		.byte	0x5
 760 0204 54060000 		.4byte	.LASF74
 761 0208 06       		.uleb128 0x6
 762 0209 87070000 		.4byte	.LASF75
 763 020d 02       		.byte	0x2
 764 020e 4F       		.byte	0x4f
ARM GAS  G:\Users\Jaxb\AppData\Local\Temp\ccQNyavp.s 			page 19


 765 020f 13020000 		.4byte	0x213
 766 0213 05       		.uleb128 0x5
 767 0214 04       		.byte	0x4
 768 0215 07       		.byte	0x7
 769 0216 0D070000 		.4byte	.LASF76
 770 021a 05       		.uleb128 0x5
 771 021b 08       		.byte	0x8
 772 021c 05       		.byte	0x5
 773 021d AF030000 		.4byte	.LASF77
 774 0221 05       		.uleb128 0x5
 775 0222 08       		.byte	0x8
 776 0223 07       		.byte	0x7
 777 0224 FD010000 		.4byte	.LASF78
 778 0228 07       		.uleb128 0x7
 779 0229 04       		.byte	0x4
 780 022a 05       		.byte	0x5
 781 022b 696E7400 		.ascii	"int\000"
 782 022f 08       		.uleb128 0x8
 783 0230 28020000 		.4byte	0x228
 784 0234 05       		.uleb128 0x5
 785 0235 04       		.byte	0x4
 786 0236 07       		.byte	0x7
 787 0237 B7000000 		.4byte	.LASF79
 788 023b 06       		.uleb128 0x6
 789 023c 98030000 		.4byte	.LASF80
 790 0240 03       		.byte	0x3
 791 0241 18       		.byte	0x18
 792 0242 D6010000 		.4byte	0x1d6
 793 0246 06       		.uleb128 0x6
 794 0247 8D050000 		.4byte	.LASF81
 795 024b 03       		.byte	0x3
 796 024c 24       		.byte	0x24
 797 024d EF010000 		.4byte	0x1ef
 798 0251 08       		.uleb128 0x8
 799 0252 46020000 		.4byte	0x246
 800 0256 06       		.uleb128 0x6
 801 0257 82010000 		.4byte	.LASF82
 802 025b 03       		.byte	0x3
 803 025c 30       		.byte	0x30
 804 025d 08020000 		.4byte	0x208
 805 0261 08       		.uleb128 0x8
 806 0262 56020000 		.4byte	0x256
 807 0266 09       		.uleb128 0x9
 808 0267 74060000 		.4byte	.LASF83
 809 026b 04       		.byte	0x4
 810 026c CE06     		.2byte	0x6ce
 811 026e 2F020000 		.4byte	0x22f
 812 0272 01       		.byte	0x1
 813 0273 01       		.byte	0x1
 814 0274 0A       		.uleb128 0xa
 815 0275 15000000 		.4byte	.LASF84
 816 0279 05       		.byte	0x5
 817 027a 35       		.byte	0x35
 818 027b 56020000 		.4byte	0x256
 819 027f 01       		.byte	0x1
 820 0280 01       		.byte	0x1
 821 0281 0B       		.uleb128 0xb
ARM GAS  G:\Users\Jaxb\AppData\Local\Temp\ccQNyavp.s 			page 20


 822 0282 07       		.byte	0x7
 823 0283 01       		.byte	0x1
 824 0284 E1010000 		.4byte	0x1e1
 825 0288 06       		.byte	0x6
 826 0289 0702     		.2byte	0x207
 827 028b 9C020000 		.4byte	0x29c
 828 028f 04       		.uleb128 0x4
 829 0290 14020000 		.4byte	.LASF85
 830 0294 00       		.byte	0
 831 0295 0C       		.uleb128 0xc
 832 0296 53455400 		.ascii	"SET\000"
 833 029a 01       		.byte	0x1
 834 029b 00       		.byte	0
 835 029c 0B       		.uleb128 0xb
 836 029d 07       		.byte	0x7
 837 029e 01       		.byte	0x1
 838 029f E1010000 		.4byte	0x1e1
 839 02a3 06       		.byte	0x6
 840 02a4 0902     		.2byte	0x209
 841 02a6 B7020000 		.4byte	0x2b7
 842 02aa 04       		.uleb128 0x4
 843 02ab 02030000 		.4byte	.LASF86
 844 02af 00       		.byte	0
 845 02b0 04       		.uleb128 0x4
 846 02b1 06070000 		.4byte	.LASF87
 847 02b5 01       		.byte	0x1
 848 02b6 00       		.byte	0
 849 02b7 0D       		.uleb128 0xd
 850 02b8 C4000000 		.4byte	.LASF88
 851 02bc 06       		.byte	0x6
 852 02bd 0902     		.2byte	0x209
 853 02bf 9C020000 		.4byte	0x29c
 854 02c3 0E       		.uleb128 0xe
 855 02c4 1C       		.byte	0x1c
 856 02c5 06       		.byte	0x6
 857 02c6 E903     		.2byte	0x3e9
 858 02c8 36030000 		.4byte	0x336
 859 02cc 0F       		.uleb128 0xf
 860 02cd 43524C00 		.ascii	"CRL\000"
 861 02d1 06       		.byte	0x6
 862 02d2 EB03     		.2byte	0x3eb
 863 02d4 61020000 		.4byte	0x261
 864 02d8 02       		.byte	0x2
 865 02d9 23       		.byte	0x23
 866 02da 00       		.uleb128 0
 867 02db 0F       		.uleb128 0xf
 868 02dc 43524800 		.ascii	"CRH\000"
 869 02e0 06       		.byte	0x6
 870 02e1 EC03     		.2byte	0x3ec
 871 02e3 61020000 		.4byte	0x261
 872 02e7 02       		.byte	0x2
 873 02e8 23       		.byte	0x23
 874 02e9 04       		.uleb128 0x4
 875 02ea 0F       		.uleb128 0xf
 876 02eb 49445200 		.ascii	"IDR\000"
 877 02ef 06       		.byte	0x6
 878 02f0 ED03     		.2byte	0x3ed
ARM GAS  G:\Users\Jaxb\AppData\Local\Temp\ccQNyavp.s 			page 21


 879 02f2 61020000 		.4byte	0x261
 880 02f6 02       		.byte	0x2
 881 02f7 23       		.byte	0x23
 882 02f8 08       		.uleb128 0x8
 883 02f9 0F       		.uleb128 0xf
 884 02fa 4F445200 		.ascii	"ODR\000"
 885 02fe 06       		.byte	0x6
 886 02ff EE03     		.2byte	0x3ee
 887 0301 61020000 		.4byte	0x261
 888 0305 02       		.byte	0x2
 889 0306 23       		.byte	0x23
 890 0307 0C       		.uleb128 0xc
 891 0308 10       		.uleb128 0x10
 892 0309 25000000 		.4byte	.LASF89
 893 030d 06       		.byte	0x6
 894 030e EF03     		.2byte	0x3ef
 895 0310 61020000 		.4byte	0x261
 896 0314 02       		.byte	0x2
 897 0315 23       		.byte	0x23
 898 0316 10       		.uleb128 0x10
 899 0317 0F       		.uleb128 0xf
 900 0318 42525200 		.ascii	"BRR\000"
 901 031c 06       		.byte	0x6
 902 031d F003     		.2byte	0x3f0
 903 031f 61020000 		.4byte	0x261
 904 0323 02       		.byte	0x2
 905 0324 23       		.byte	0x23
 906 0325 14       		.uleb128 0x14
 907 0326 10       		.uleb128 0x10
 908 0327 7A090000 		.4byte	.LASF90
 909 032b 06       		.byte	0x6
 910 032c F103     		.2byte	0x3f1
 911 032e 61020000 		.4byte	0x261
 912 0332 02       		.byte	0x2
 913 0333 23       		.byte	0x23
 914 0334 18       		.uleb128 0x18
 915 0335 00       		.byte	0
 916 0336 0D       		.uleb128 0xd
 917 0337 DF060000 		.4byte	.LASF91
 918 033b 06       		.byte	0x6
 919 033c F203     		.2byte	0x3f2
 920 033e C3020000 		.4byte	0x2c3
 921 0342 0E       		.uleb128 0xe
 922 0343 1C       		.byte	0x1c
 923 0344 06       		.byte	0x6
 924 0345 D204     		.2byte	0x4d2
 925 0347 1C040000 		.4byte	0x41c
 926 034b 0F       		.uleb128 0xf
 927 034c 535200   		.ascii	"SR\000"
 928 034f 06       		.byte	0x6
 929 0350 D404     		.2byte	0x4d4
 930 0352 51020000 		.4byte	0x251
 931 0356 02       		.byte	0x2
 932 0357 23       		.byte	0x23
 933 0358 00       		.uleb128 0
 934 0359 10       		.uleb128 0x10
 935 035a F4050000 		.4byte	.LASF92
ARM GAS  G:\Users\Jaxb\AppData\Local\Temp\ccQNyavp.s 			page 22


 936 035e 06       		.byte	0x6
 937 035f D504     		.2byte	0x4d5
 938 0361 46020000 		.4byte	0x246
 939 0365 02       		.byte	0x2
 940 0366 23       		.byte	0x23
 941 0367 02       		.uleb128 0x2
 942 0368 0F       		.uleb128 0xf
 943 0369 445200   		.ascii	"DR\000"
 944 036c 06       		.byte	0x6
 945 036d D604     		.2byte	0x4d6
 946 036f 51020000 		.4byte	0x251
 947 0373 02       		.byte	0x2
 948 0374 23       		.byte	0x23
 949 0375 04       		.uleb128 0x4
 950 0376 10       		.uleb128 0x10
 951 0377 FE050000 		.4byte	.LASF93
 952 037b 06       		.byte	0x6
 953 037c D704     		.2byte	0x4d7
 954 037e 46020000 		.4byte	0x246
 955 0382 02       		.byte	0x2
 956 0383 23       		.byte	0x23
 957 0384 06       		.uleb128 0x6
 958 0385 0F       		.uleb128 0xf
 959 0386 42525200 		.ascii	"BRR\000"
 960 038a 06       		.byte	0x6
 961 038b D804     		.2byte	0x4d8
 962 038d 51020000 		.4byte	0x251
 963 0391 02       		.byte	0x2
 964 0392 23       		.byte	0x23
 965 0393 08       		.uleb128 0x8
 966 0394 10       		.uleb128 0x10
 967 0395 08060000 		.4byte	.LASF94
 968 0399 06       		.byte	0x6
 969 039a D904     		.2byte	0x4d9
 970 039c 46020000 		.4byte	0x246
 971 03a0 02       		.byte	0x2
 972 03a1 23       		.byte	0x23
 973 03a2 0A       		.uleb128 0xa
 974 03a3 0F       		.uleb128 0xf
 975 03a4 43523100 		.ascii	"CR1\000"
 976 03a8 06       		.byte	0x6
 977 03a9 DA04     		.2byte	0x4da
 978 03ab 51020000 		.4byte	0x251
 979 03af 02       		.byte	0x2
 980 03b0 23       		.byte	0x23
 981 03b1 0C       		.uleb128 0xc
 982 03b2 10       		.uleb128 0x10
 983 03b3 12060000 		.4byte	.LASF95
 984 03b7 06       		.byte	0x6
 985 03b8 DB04     		.2byte	0x4db
 986 03ba 46020000 		.4byte	0x246
 987 03be 02       		.byte	0x2
 988 03bf 23       		.byte	0x23
 989 03c0 0E       		.uleb128 0xe
 990 03c1 0F       		.uleb128 0xf
 991 03c2 43523200 		.ascii	"CR2\000"
 992 03c6 06       		.byte	0x6
ARM GAS  G:\Users\Jaxb\AppData\Local\Temp\ccQNyavp.s 			page 23


 993 03c7 DC04     		.2byte	0x4dc
 994 03c9 51020000 		.4byte	0x251
 995 03cd 02       		.byte	0x2
 996 03ce 23       		.byte	0x23
 997 03cf 10       		.uleb128 0x10
 998 03d0 10       		.uleb128 0x10
 999 03d1 1C060000 		.4byte	.LASF96
 1000 03d5 06       		.byte	0x6
 1001 03d6 DD04     		.2byte	0x4dd
 1002 03d8 46020000 		.4byte	0x246
 1003 03dc 02       		.byte	0x2
 1004 03dd 23       		.byte	0x23
 1005 03de 12       		.uleb128 0x12
 1006 03df 0F       		.uleb128 0xf
 1007 03e0 43523300 		.ascii	"CR3\000"
 1008 03e4 06       		.byte	0x6
 1009 03e5 DE04     		.2byte	0x4de
 1010 03e7 51020000 		.4byte	0x251
 1011 03eb 02       		.byte	0x2
 1012 03ec 23       		.byte	0x23
 1013 03ed 14       		.uleb128 0x14
 1014 03ee 10       		.uleb128 0x10
 1015 03ef 26060000 		.4byte	.LASF97
 1016 03f3 06       		.byte	0x6
 1017 03f4 DF04     		.2byte	0x4df
 1018 03f6 46020000 		.4byte	0x246
 1019 03fa 02       		.byte	0x2
 1020 03fb 23       		.byte	0x23
 1021 03fc 16       		.uleb128 0x16
 1022 03fd 10       		.uleb128 0x10
 1023 03fe 4E010000 		.4byte	.LASF98
 1024 0402 06       		.byte	0x6
 1025 0403 E004     		.2byte	0x4e0
 1026 0405 51020000 		.4byte	0x251
 1027 0409 02       		.byte	0x2
 1028 040a 23       		.byte	0x23
 1029 040b 18       		.uleb128 0x18
 1030 040c 10       		.uleb128 0x10
 1031 040d 30060000 		.4byte	.LASF99
 1032 0411 06       		.byte	0x6
 1033 0412 E104     		.2byte	0x4e1
 1034 0414 46020000 		.4byte	0x246
 1035 0418 02       		.byte	0x2
 1036 0419 23       		.byte	0x23
 1037 041a 1A       		.uleb128 0x1a
 1038 041b 00       		.byte	0
 1039 041c 0D       		.uleb128 0xd
 1040 041d BE020000 		.4byte	.LASF100
 1041 0421 06       		.byte	0x6
 1042 0422 E204     		.2byte	0x4e2
 1043 0424 42030000 		.4byte	0x342
 1044 0428 11       		.uleb128 0x11
 1045 0429 07       		.byte	0x7
 1046 042a 01       		.byte	0x1
 1047 042b E1010000 		.4byte	0x1e1
 1048 042f 07       		.byte	0x7
 1049 0430 3B       		.byte	0x3b
ARM GAS  G:\Users\Jaxb\AppData\Local\Temp\ccQNyavp.s 			page 24


 1050 0431 48040000 		.4byte	0x448
 1051 0435 04       		.uleb128 0x4
 1052 0436 A8050000 		.4byte	.LASF101
 1053 043a 01       		.byte	0x1
 1054 043b 04       		.uleb128 0x4
 1055 043c D4070000 		.4byte	.LASF102
 1056 0440 02       		.byte	0x2
 1057 0441 04       		.uleb128 0x4
 1058 0442 A0070000 		.4byte	.LASF103
 1059 0446 03       		.byte	0x3
 1060 0447 00       		.byte	0
 1061 0448 06       		.uleb128 0x6
 1062 0449 C6050000 		.4byte	.LASF104
 1063 044d 07       		.byte	0x7
 1064 044e 3F       		.byte	0x3f
 1065 044f 28040000 		.4byte	0x428
 1066 0453 11       		.uleb128 0x11
 1067 0454 07       		.byte	0x7
 1068 0455 01       		.byte	0x1
 1069 0456 E1010000 		.4byte	0x1e1
 1070 045a 07       		.byte	0x7
 1071 045b 48       		.byte	0x48
 1072 045c 91040000 		.4byte	0x491
 1073 0460 04       		.uleb128 0x4
 1074 0461 92070000 		.4byte	.LASF105
 1075 0465 00       		.byte	0
 1076 0466 04       		.uleb128 0x4
 1077 0467 4C090000 		.4byte	.LASF106
 1078 046b 04       		.byte	0x4
 1079 046c 04       		.uleb128 0x4
 1080 046d 44020000 		.4byte	.LASF107
 1081 0471 28       		.byte	0x28
 1082 0472 04       		.uleb128 0x4
 1083 0473 52020000 		.4byte	.LASF108
 1084 0477 48       		.byte	0x48
 1085 0478 04       		.uleb128 0x4
 1086 0479 9A020000 		.4byte	.LASF109
 1087 047d 14       		.byte	0x14
 1088 047e 04       		.uleb128 0x4
 1089 047f 0A030000 		.4byte	.LASF110
 1090 0483 10       		.byte	0x10
 1091 0484 04       		.uleb128 0x4
 1092 0485 5B050000 		.4byte	.LASF111
 1093 0489 1C       		.byte	0x1c
 1094 048a 04       		.uleb128 0x4
 1095 048b 44060000 		.4byte	.LASF112
 1096 048f 18       		.byte	0x18
 1097 0490 00       		.byte	0
 1098 0491 06       		.uleb128 0x6
 1099 0492 F5000000 		.4byte	.LASF113
 1100 0496 07       		.byte	0x7
 1101 0497 50       		.byte	0x50
 1102 0498 53040000 		.4byte	0x453
 1103 049c 12       		.uleb128 0x12
 1104 049d 04       		.byte	0x4
 1105 049e 07       		.byte	0x7
 1106 049f 5B       		.byte	0x5b
ARM GAS  G:\Users\Jaxb\AppData\Local\Temp\ccQNyavp.s 			page 25


 1107 04a0 CF040000 		.4byte	0x4cf
 1108 04a4 13       		.uleb128 0x13
 1109 04a5 95060000 		.4byte	.LASF114
 1110 04a9 07       		.byte	0x7
 1111 04aa 5D       		.byte	0x5d
 1112 04ab 46020000 		.4byte	0x246
 1113 04af 02       		.byte	0x2
 1114 04b0 23       		.byte	0x23
 1115 04b1 00       		.uleb128 0
 1116 04b2 13       		.uleb128 0x13
 1117 04b3 B3080000 		.4byte	.LASF115
 1118 04b7 07       		.byte	0x7
 1119 04b8 60       		.byte	0x60
 1120 04b9 48040000 		.4byte	0x448
 1121 04bd 02       		.byte	0x2
 1122 04be 23       		.byte	0x23
 1123 04bf 02       		.uleb128 0x2
 1124 04c0 13       		.uleb128 0x13
 1125 04c1 34000000 		.4byte	.LASF116
 1126 04c5 07       		.byte	0x7
 1127 04c6 63       		.byte	0x63
 1128 04c7 91040000 		.4byte	0x491
 1129 04cb 02       		.byte	0x2
 1130 04cc 23       		.byte	0x23
 1131 04cd 03       		.uleb128 0x3
 1132 04ce 00       		.byte	0
 1133 04cf 06       		.uleb128 0x6
 1134 04d0 4B070000 		.4byte	.LASF117
 1135 04d4 07       		.byte	0x7
 1136 04d5 65       		.byte	0x65
 1137 04d6 9C040000 		.4byte	0x49c
 1138 04da 12       		.uleb128 0x12
 1139 04db 10       		.byte	0x10
 1140 04dc 08       		.byte	0x8
 1141 04dd 32       		.byte	0x32
 1142 04de 37050000 		.4byte	0x537
 1143 04e2 13       		.uleb128 0x13
 1144 04e3 8B010000 		.4byte	.LASF118
 1145 04e7 08       		.byte	0x8
 1146 04e8 34       		.byte	0x34
 1147 04e9 56020000 		.4byte	0x256
 1148 04ed 02       		.byte	0x2
 1149 04ee 23       		.byte	0x23
 1150 04ef 00       		.uleb128 0
 1151 04f0 13       		.uleb128 0x13
 1152 04f1 33020000 		.4byte	.LASF119
 1153 04f5 08       		.byte	0x8
 1154 04f6 39       		.byte	0x39
 1155 04f7 46020000 		.4byte	0x246
 1156 04fb 02       		.byte	0x2
 1157 04fc 23       		.byte	0x23
 1158 04fd 04       		.uleb128 0x4
 1159 04fe 13       		.uleb128 0x13
 1160 04ff 15010000 		.4byte	.LASF120
 1161 0503 08       		.byte	0x8
 1162 0504 3C       		.byte	0x3c
 1163 0505 46020000 		.4byte	0x246
ARM GAS  G:\Users\Jaxb\AppData\Local\Temp\ccQNyavp.s 			page 26


 1164 0509 02       		.byte	0x2
 1165 050a 23       		.byte	0x23
 1166 050b 06       		.uleb128 0x6
 1167 050c 13       		.uleb128 0x13
 1168 050d 5F080000 		.4byte	.LASF121
 1169 0511 08       		.byte	0x8
 1170 0512 3F       		.byte	0x3f
 1171 0513 46020000 		.4byte	0x246
 1172 0517 02       		.byte	0x2
 1173 0518 23       		.byte	0x23
 1174 0519 08       		.uleb128 0x8
 1175 051a 13       		.uleb128 0x13
 1176 051b 8D030000 		.4byte	.LASF122
 1177 051f 08       		.byte	0x8
 1178 0520 46       		.byte	0x46
 1179 0521 46020000 		.4byte	0x246
 1180 0525 02       		.byte	0x2
 1181 0526 23       		.byte	0x23
 1182 0527 0A       		.uleb128 0xa
 1183 0528 13       		.uleb128 0x13
 1184 0529 80020000 		.4byte	.LASF123
 1185 052d 08       		.byte	0x8
 1186 052e 49       		.byte	0x49
 1187 052f 46020000 		.4byte	0x246
 1188 0533 02       		.byte	0x2
 1189 0534 23       		.byte	0x23
 1190 0535 0C       		.uleb128 0xc
 1191 0536 00       		.byte	0
 1192 0537 06       		.uleb128 0x6
 1193 0538 26080000 		.4byte	.LASF124
 1194 053c 08       		.byte	0x8
 1195 053d 4C       		.byte	0x4c
 1196 053e DA040000 		.4byte	0x4da
 1197 0542 12       		.uleb128 0x12
 1198 0543 04       		.byte	0x4
 1199 0544 09       		.byte	0x9
 1200 0545 32       		.byte	0x32
 1201 0546 83050000 		.4byte	0x583
 1202 054a 13       		.uleb128 0x13
 1203 054b EB040000 		.4byte	.LASF125
 1204 054f 09       		.byte	0x9
 1205 0550 34       		.byte	0x34
 1206 0551 3B020000 		.4byte	0x23b
 1207 0555 02       		.byte	0x2
 1208 0556 23       		.byte	0x23
 1209 0557 00       		.uleb128 0
 1210 0558 13       		.uleb128 0x13
 1211 0559 F6080000 		.4byte	.LASF126
 1212 055d 09       		.byte	0x9
 1213 055e 39       		.byte	0x39
 1214 055f 3B020000 		.4byte	0x23b
 1215 0563 02       		.byte	0x2
 1216 0564 23       		.byte	0x23
 1217 0565 01       		.uleb128 0x1
 1218 0566 13       		.uleb128 0x13
 1219 0567 8B040000 		.4byte	.LASF127
 1220 056b 09       		.byte	0x9
ARM GAS  G:\Users\Jaxb\AppData\Local\Temp\ccQNyavp.s 			page 27


 1221 056c 3D       		.byte	0x3d
 1222 056d 3B020000 		.4byte	0x23b
 1223 0571 02       		.byte	0x2
 1224 0572 23       		.byte	0x23
 1225 0573 02       		.uleb128 0x2
 1226 0574 13       		.uleb128 0x13
 1227 0575 AB020000 		.4byte	.LASF128
 1228 0579 09       		.byte	0x9
 1229 057a 41       		.byte	0x41
 1230 057b B7020000 		.4byte	0x2b7
 1231 057f 02       		.byte	0x2
 1232 0580 23       		.byte	0x23
 1233 0581 03       		.uleb128 0x3
 1234 0582 00       		.byte	0
 1235 0583 06       		.uleb128 0x6
 1236 0584 B6010000 		.4byte	.LASF129
 1237 0588 09       		.byte	0x9
 1238 0589 44       		.byte	0x44
 1239 058a 42050000 		.4byte	0x542
 1240 058e 14       		.uleb128 0x14
 1241 058f 01       		.byte	0x1
 1242 0590 E1050000 		.4byte	.LASF133
 1243 0594 01       		.byte	0x1
 1244 0595 CE       		.byte	0xce
 1245 0596 01       		.byte	0x1
 1246 0597 B0010000 		.4byte	.LFB36
 1247 059b DE010000 		.4byte	.LFE36
 1248 059f 00000000 		.4byte	.LLST14
 1249 05a3 01       		.byte	0x1
 1250 05a4 4D060000 		.4byte	0x64d
 1251 05a8 15       		.uleb128 0x15
 1252 05a9 7A010000 		.4byte	.LASF130
 1253 05ad 01       		.byte	0x1
 1254 05ae CE       		.byte	0xce
 1255 05af 4D060000 		.4byte	0x64d
 1256 05b3 20000000 		.4byte	.LLST15
 1257 05b7 16       		.uleb128 0x16
 1258 05b8 636800   		.ascii	"ch\000"
 1259 05bb 01       		.byte	0x1
 1260 05bc CE       		.byte	0xce
 1261 05bd 46020000 		.4byte	0x246
 1262 05c1 3E000000 		.4byte	.LLST16
 1263 05c5 17       		.uleb128 0x17
 1264 05c6 9A010000 		.4byte	.LASF131
 1265 05ca 01       		.byte	0x1
 1266 05cb D0       		.byte	0xd0
 1267 05cc 3B020000 		.4byte	0x23b
 1268 05d0 5F000000 		.4byte	.LLST17
 1269 05d4 17       		.uleb128 0x17
 1270 05d5 A1010000 		.4byte	.LASF132
 1271 05d9 01       		.byte	0x1
 1272 05da D0       		.byte	0xd0
 1273 05db 3B020000 		.4byte	0x23b
 1274 05df 86000000 		.4byte	.LLST18
 1275 05e3 18       		.uleb128 0x18
 1276 05e4 BC010000 		.4byte	.LVL36
 1277 05e8 5E0A0000 		.4byte	0xa5e
ARM GAS  G:\Users\Jaxb\AppData\Local\Temp\ccQNyavp.s 			page 28


 1278 05ec FF050000 		.4byte	0x5ff
 1279 05f0 19       		.uleb128 0x19
 1280 05f1 01       		.byte	0x1
 1281 05f2 50       		.byte	0x50
 1282 05f3 02       		.byte	0x2
 1283 05f4 74       		.byte	0x74
 1284 05f5 00       		.sleb128 0
 1285 05f6 19       		.uleb128 0x19
 1286 05f7 01       		.byte	0x1
 1287 05f8 51       		.byte	0x51
 1288 05f9 04       		.byte	0x4
 1289 05fa 75       		.byte	0x75
 1290 05fb 00       		.sleb128 0
 1291 05fc 38       		.byte	0x38
 1292 05fd 25       		.byte	0x25
 1293 05fe 00       		.byte	0
 1294 05ff 18       		.uleb128 0x18
 1295 0600 C4010000 		.4byte	.LVL37
 1296 0604 6C0A0000 		.4byte	0xa6c
 1297 0608 19060000 		.4byte	0x619
 1298 060c 19       		.uleb128 0x19
 1299 060d 01       		.byte	0x1
 1300 060e 50       		.byte	0x50
 1301 060f 02       		.byte	0x2
 1302 0610 74       		.byte	0x74
 1303 0611 00       		.sleb128 0
 1304 0612 19       		.uleb128 0x19
 1305 0613 01       		.byte	0x1
 1306 0614 51       		.byte	0x51
 1307 0615 02       		.byte	0x2
 1308 0616 08       		.byte	0x8
 1309 0617 80       		.byte	0x80
 1310 0618 00       		.byte	0
 1311 0619 18       		.uleb128 0x18
 1312 061a D0010000 		.4byte	.LVL38
 1313 061e 5E0A0000 		.4byte	0xa5e
 1314 0622 36060000 		.4byte	0x636
 1315 0626 19       		.uleb128 0x19
 1316 0627 01       		.byte	0x1
 1317 0628 50       		.byte	0x50
 1318 0629 02       		.byte	0x2
 1319 062a 74       		.byte	0x74
 1320 062b 00       		.sleb128 0
 1321 062c 19       		.uleb128 0x19
 1322 062d 01       		.byte	0x1
 1323 062e 51       		.byte	0x51
 1324 062f 05       		.byte	0x5
 1325 0630 75       		.byte	0x75
 1326 0631 00       		.sleb128 0
 1327 0632 08       		.byte	0x8
 1328 0633 FF       		.byte	0xff
 1329 0634 1A       		.byte	0x1a
 1330 0635 00       		.byte	0
 1331 0636 1A       		.uleb128 0x1a
 1332 0637 D8010000 		.4byte	.LVL39
 1333 063b 6C0A0000 		.4byte	0xa6c
 1334 063f 19       		.uleb128 0x19
ARM GAS  G:\Users\Jaxb\AppData\Local\Temp\ccQNyavp.s 			page 29


 1335 0640 01       		.byte	0x1
 1336 0641 50       		.byte	0x50
 1337 0642 02       		.byte	0x2
 1338 0643 74       		.byte	0x74
 1339 0644 00       		.sleb128 0
 1340 0645 19       		.uleb128 0x19
 1341 0646 01       		.byte	0x1
 1342 0647 51       		.byte	0x51
 1343 0648 02       		.byte	0x2
 1344 0649 08       		.byte	0x8
 1345 064a 80       		.byte	0x80
 1346 064b 00       		.byte	0
 1347 064c 00       		.byte	0
 1348 064d 1B       		.uleb128 0x1b
 1349 064e 04       		.byte	0x4
 1350 064f 1C040000 		.4byte	0x41c
 1351 0653 14       		.uleb128 0x14
 1352 0654 01       		.byte	0x1
 1353 0655 69010000 		.4byte	.LASF134
 1354 0659 01       		.byte	0x1
 1355 065a BF       		.byte	0xbf
 1356 065b 01       		.byte	0x1
 1357 065c 8C010000 		.4byte	.LFB35
 1358 0660 B0010000 		.4byte	.LFE35
 1359 0664 A7000000 		.4byte	.LLST10
 1360 0668 01       		.byte	0x1
 1361 0669 C3060000 		.4byte	0x6c3
 1362 066d 15       		.uleb128 0x15
 1363 066e 7A010000 		.4byte	.LASF130
 1364 0672 01       		.byte	0x1
 1365 0673 BF       		.byte	0xbf
 1366 0674 4D060000 		.4byte	0x64d
 1367 0678 C7000000 		.4byte	.LLST11
 1368 067c 16       		.uleb128 0x16
 1369 067d 73747200 		.ascii	"str\000"
 1370 0681 01       		.byte	0x1
 1371 0682 BF       		.byte	0xbf
 1372 0683 C3060000 		.4byte	0x6c3
 1373 0687 E5000000 		.4byte	.LLST12
 1374 068b 1C       		.uleb128 0x1c
 1375 068c 6B00     		.ascii	"k\000"
 1376 068e 01       		.byte	0x1
 1377 068f C1       		.byte	0xc1
 1378 0690 34020000 		.4byte	0x234
 1379 0694 06010000 		.4byte	.LLST13
 1380 0698 18       		.uleb128 0x18
 1381 0699 9A010000 		.4byte	.LVL30
 1382 069d 55070000 		.4byte	0x755
 1383 06a1 AC060000 		.4byte	0x6ac
 1384 06a5 19       		.uleb128 0x19
 1385 06a6 01       		.byte	0x1
 1386 06a7 50       		.byte	0x50
 1387 06a8 02       		.byte	0x2
 1388 06a9 75       		.byte	0x75
 1389 06aa 00       		.sleb128 0
 1390 06ab 00       		.byte	0
 1391 06ac 1A       		.uleb128 0x1a
ARM GAS  G:\Users\Jaxb\AppData\Local\Temp\ccQNyavp.s 			page 30


 1392 06ad AA010000 		.4byte	.LVL32
 1393 06b1 6C0A0000 		.4byte	0xa6c
 1394 06b5 19       		.uleb128 0x19
 1395 06b6 01       		.byte	0x1
 1396 06b7 50       		.byte	0x50
 1397 06b8 02       		.byte	0x2
 1398 06b9 75       		.byte	0x75
 1399 06ba 00       		.sleb128 0
 1400 06bb 19       		.uleb128 0x19
 1401 06bc 01       		.byte	0x1
 1402 06bd 51       		.byte	0x51
 1403 06be 02       		.byte	0x2
 1404 06bf 08       		.byte	0x8
 1405 06c0 40       		.byte	0x40
 1406 06c1 00       		.byte	0
 1407 06c2 00       		.byte	0
 1408 06c3 1B       		.uleb128 0x1b
 1409 06c4 04       		.byte	0x4
 1410 06c5 C9060000 		.4byte	0x6c9
 1411 06c9 05       		.uleb128 0x5
 1412 06ca 01       		.byte	0x1
 1413 06cb 08       		.byte	0x8
 1414 06cc 1B030000 		.4byte	.LASF135
 1415 06d0 14       		.uleb128 0x14
 1416 06d1 01       		.byte	0x1
 1417 06d2 C7030000 		.4byte	.LASF136
 1418 06d6 01       		.byte	0x1
 1419 06d7 B0       		.byte	0xb0
 1420 06d8 01       		.byte	0x1
 1421 06d9 60010000 		.4byte	.LFB34
 1422 06dd 8A010000 		.4byte	.LFE34
 1423 06e1 4F010000 		.4byte	.LLST5
 1424 06e5 01       		.byte	0x1
 1425 06e6 4F070000 		.4byte	0x74f
 1426 06ea 15       		.uleb128 0x15
 1427 06eb 7A010000 		.4byte	.LASF130
 1428 06ef 01       		.byte	0x1
 1429 06f0 B0       		.byte	0xb0
 1430 06f1 4D060000 		.4byte	0x64d
 1431 06f5 6F010000 		.4byte	.LLST6
 1432 06f9 15       		.uleb128 0x15
 1433 06fa 78050000 		.4byte	.LASF137
 1434 06fe 01       		.byte	0x1
 1435 06ff B0       		.byte	0xb0
 1436 0700 4F070000 		.4byte	0x74f
 1437 0704 8D010000 		.4byte	.LLST7
 1438 0708 16       		.uleb128 0x16
 1439 0709 6E756D00 		.ascii	"num\000"
 1440 070d 01       		.byte	0x1
 1441 070e B0       		.byte	0xb0
 1442 070f 46020000 		.4byte	0x246
 1443 0713 AB010000 		.4byte	.LLST8
 1444 0717 1C       		.uleb128 0x1c
 1445 0718 6900     		.ascii	"i\000"
 1446 071a 01       		.byte	0x1
 1447 071b B2       		.byte	0xb2
 1448 071c 3B020000 		.4byte	0x23b
ARM GAS  G:\Users\Jaxb\AppData\Local\Temp\ccQNyavp.s 			page 31


 1449 0720 CC010000 		.4byte	.LLST9
 1450 0724 18       		.uleb128 0x18
 1451 0725 78010000 		.4byte	.LVL24
 1452 0729 55070000 		.4byte	0x755
 1453 072d 38070000 		.4byte	0x738
 1454 0731 19       		.uleb128 0x19
 1455 0732 01       		.byte	0x1
 1456 0733 50       		.byte	0x50
 1457 0734 02       		.byte	0x2
 1458 0735 75       		.byte	0x75
 1459 0736 00       		.sleb128 0
 1460 0737 00       		.byte	0
 1461 0738 1A       		.uleb128 0x1a
 1462 0739 84010000 		.4byte	.LVL26
 1463 073d 6C0A0000 		.4byte	0xa6c
 1464 0741 19       		.uleb128 0x19
 1465 0742 01       		.byte	0x1
 1466 0743 50       		.byte	0x50
 1467 0744 02       		.byte	0x2
 1468 0745 75       		.byte	0x75
 1469 0746 00       		.sleb128 0
 1470 0747 19       		.uleb128 0x19
 1471 0748 01       		.byte	0x1
 1472 0749 51       		.byte	0x51
 1473 074a 02       		.byte	0x2
 1474 074b 08       		.byte	0x8
 1475 074c 40       		.byte	0x40
 1476 074d 00       		.byte	0
 1477 074e 00       		.byte	0
 1478 074f 1B       		.uleb128 0x1b
 1479 0750 04       		.byte	0x4
 1480 0751 3B020000 		.4byte	0x23b
 1481 0755 14       		.uleb128 0x14
 1482 0756 01       		.byte	0x1
 1483 0757 7E050000 		.4byte	.LASF138
 1484 075b 01       		.byte	0x1
 1485 075c A6       		.byte	0xa6
 1486 075d 01       		.byte	0x1
 1487 075e 48010000 		.4byte	.LFB33
 1488 0762 5E010000 		.4byte	.LFE33
 1489 0766 F6010000 		.4byte	.LLST2
 1490 076a 01       		.byte	0x1
 1491 076b B7070000 		.4byte	0x7b7
 1492 076f 15       		.uleb128 0x15
 1493 0770 7A010000 		.4byte	.LASF130
 1494 0774 01       		.byte	0x1
 1495 0775 A6       		.byte	0xa6
 1496 0776 4D060000 		.4byte	0x64d
 1497 077a 16020000 		.4byte	.LLST3
 1498 077e 16       		.uleb128 0x16
 1499 077f 636800   		.ascii	"ch\000"
 1500 0782 01       		.byte	0x1
 1501 0783 A6       		.byte	0xa6
 1502 0784 3B020000 		.4byte	0x23b
 1503 0788 34020000 		.4byte	.LLST4
 1504 078c 18       		.uleb128 0x18
 1505 078d 50010000 		.4byte	.LVL19
ARM GAS  G:\Users\Jaxb\AppData\Local\Temp\ccQNyavp.s 			page 32


 1506 0791 5E0A0000 		.4byte	0xa5e
 1507 0795 A0070000 		.4byte	0x7a0
 1508 0799 19       		.uleb128 0x19
 1509 079a 01       		.byte	0x1
 1510 079b 50       		.byte	0x50
 1511 079c 02       		.byte	0x2
 1512 079d 74       		.byte	0x74
 1513 079e 00       		.sleb128 0
 1514 079f 00       		.byte	0
 1515 07a0 1A       		.uleb128 0x1a
 1516 07a1 58010000 		.4byte	.LVL20
 1517 07a5 6C0A0000 		.4byte	0xa6c
 1518 07a9 19       		.uleb128 0x19
 1519 07aa 01       		.byte	0x1
 1520 07ab 50       		.byte	0x50
 1521 07ac 02       		.byte	0x2
 1522 07ad 74       		.byte	0x74
 1523 07ae 00       		.sleb128 0
 1524 07af 19       		.uleb128 0x19
 1525 07b0 01       		.byte	0x1
 1526 07b1 51       		.byte	0x51
 1527 07b2 02       		.byte	0x2
 1528 07b3 08       		.byte	0x8
 1529 07b4 80       		.byte	0x80
 1530 07b5 00       		.byte	0
 1531 07b6 00       		.byte	0
 1532 07b7 14       		.uleb128 0x14
 1533 07b8 01       		.byte	0x1
 1534 07b9 6A070000 		.4byte	.LASF139
 1535 07bd 01       		.byte	0x1
 1536 07be 75       		.byte	0x75
 1537 07bf 01       		.byte	0x1
 1538 07c0 A8000000 		.4byte	.LFB32
 1539 07c4 48010000 		.4byte	.LFE32
 1540 07c8 55020000 		.4byte	.LLST1
 1541 07cc 01       		.byte	0x1
 1542 07cd F0080000 		.4byte	0x8f0
 1543 07d1 1D       		.uleb128 0x1d
 1544 07d2 C5040000 		.4byte	.LASF140
 1545 07d6 01       		.byte	0x1
 1546 07d7 77       		.byte	0x77
 1547 07d8 CF040000 		.4byte	0x4cf
 1548 07dc 02       		.byte	0x2
 1549 07dd 91       		.byte	0x91
 1550 07de 58       		.sleb128 -40
 1551 07df 1D       		.uleb128 0x1d
 1552 07e0 E4020000 		.4byte	.LASF141
 1553 07e4 01       		.byte	0x1
 1554 07e5 78       		.byte	0x78
 1555 07e6 37050000 		.4byte	0x537
 1556 07ea 02       		.byte	0x2
 1557 07eb 91       		.byte	0x91
 1558 07ec 60       		.sleb128 -32
 1559 07ed 1E       		.uleb128 0x1e
 1560 07ee F0080000 		.4byte	0x8f0
 1561 07f2 0C010000 		.4byte	.LBB8
 1562 07f6 2C010000 		.4byte	.LBE8
ARM GAS  G:\Users\Jaxb\AppData\Local\Temp\ccQNyavp.s 			page 33


 1563 07fa 01       		.byte	0x1
 1564 07fb 9B       		.byte	0x9b
 1565 07fc 38080000 		.4byte	0x838
 1566 0800 1F       		.uleb128 0x1f
 1567 0801 0C010000 		.4byte	.LBB9
 1568 0805 2C010000 		.4byte	.LBE9
 1569 0809 20       		.uleb128 0x20
 1570 080a FD080000 		.4byte	0x8fd
 1571 080e 02       		.byte	0x2
 1572 080f 91       		.byte	0x91
 1573 0810 5C       		.sleb128 -36
 1574 0811 18       		.uleb128 0x18
 1575 0812 14010000 		.4byte	.LVL14
 1576 0816 7A0A0000 		.4byte	0xa7a
 1577 081a 26080000 		.4byte	0x826
 1578 081e 19       		.uleb128 0x19
 1579 081f 01       		.byte	0x1
 1580 0820 50       		.byte	0x50
 1581 0821 03       		.byte	0x3
 1582 0822 0A       		.byte	0xa
 1583 0823 0005     		.2byte	0x500
 1584 0825 00       		.byte	0
 1585 0826 1A       		.uleb128 0x1a
 1586 0827 2C010000 		.4byte	.LVL15
 1587 082b 870A0000 		.4byte	0xa87
 1588 082f 19       		.uleb128 0x19
 1589 0830 01       		.byte	0x1
 1590 0831 50       		.byte	0x50
 1591 0832 02       		.byte	0x2
 1592 0833 91       		.byte	0x91
 1593 0834 5C       		.sleb128 -36
 1594 0835 00       		.byte	0
 1595 0836 00       		.byte	0
 1596 0837 00       		.byte	0
 1597 0838 18       		.uleb128 0x18
 1598 0839 B4000000 		.4byte	.LVL9
 1599 083d 940A0000 		.4byte	0xa94
 1600 0841 50080000 		.4byte	0x850
 1601 0845 19       		.uleb128 0x19
 1602 0846 01       		.byte	0x1
 1603 0847 50       		.byte	0x50
 1604 0848 01       		.byte	0x1
 1605 0849 34       		.byte	0x34
 1606 084a 19       		.uleb128 0x19
 1607 084b 01       		.byte	0x1
 1608 084c 51       		.byte	0x51
 1609 084d 01       		.byte	0x1
 1610 084e 31       		.byte	0x31
 1611 084f 00       		.byte	0
 1612 0850 18       		.uleb128 0x18
 1613 0851 BE000000 		.4byte	.LVL10
 1614 0855 A20A0000 		.4byte	0xaa2
 1615 0859 6A080000 		.4byte	0x86a
 1616 085d 19       		.uleb128 0x19
 1617 085e 01       		.byte	0x1
 1618 085f 50       		.byte	0x50
 1619 0860 03       		.byte	0x3
ARM GAS  G:\Users\Jaxb\AppData\Local\Temp\ccQNyavp.s 			page 34


 1620 0861 40       		.byte	0x40
 1621 0862 3D       		.byte	0x3d
 1622 0863 24       		.byte	0x24
 1623 0864 19       		.uleb128 0x19
 1624 0865 01       		.byte	0x1
 1625 0866 51       		.byte	0x51
 1626 0867 01       		.byte	0x1
 1627 0868 31       		.byte	0x31
 1628 0869 00       		.byte	0
 1629 086a 18       		.uleb128 0x18
 1630 086b DA000000 		.4byte	.LVL11
 1631 086f B00A0000 		.4byte	0xab0
 1632 0873 84080000 		.4byte	0x884
 1633 0877 19       		.uleb128 0x19
 1634 0878 01       		.byte	0x1
 1635 0879 50       		.byte	0x50
 1636 087a 02       		.byte	0x2
 1637 087b 75       		.byte	0x75
 1638 087c 00       		.sleb128 0
 1639 087d 19       		.uleb128 0x19
 1640 087e 01       		.byte	0x1
 1641 087f 51       		.byte	0x51
 1642 0880 02       		.byte	0x2
 1643 0881 7D       		.byte	0x7d
 1644 0882 00       		.sleb128 0
 1645 0883 00       		.byte	0
 1646 0884 18       		.uleb128 0x18
 1647 0885 F0000000 		.4byte	.LVL12
 1648 0889 B00A0000 		.4byte	0xab0
 1649 088d 9E080000 		.4byte	0x89e
 1650 0891 19       		.uleb128 0x19
 1651 0892 01       		.byte	0x1
 1652 0893 50       		.byte	0x50
 1653 0894 02       		.byte	0x2
 1654 0895 75       		.byte	0x75
 1655 0896 00       		.sleb128 0
 1656 0897 19       		.uleb128 0x19
 1657 0898 01       		.byte	0x1
 1658 0899 51       		.byte	0x51
 1659 089a 02       		.byte	0x2
 1660 089b 7D       		.byte	0x7d
 1661 089c 00       		.sleb128 0
 1662 089d 00       		.byte	0
 1663 089e 18       		.uleb128 0x18
 1664 089f 0C010000 		.4byte	.LVL13
 1665 08a3 BE0A0000 		.4byte	0xabe
 1666 08a7 B8080000 		.4byte	0x8b8
 1667 08ab 19       		.uleb128 0x19
 1668 08ac 01       		.byte	0x1
 1669 08ad 50       		.byte	0x50
 1670 08ae 02       		.byte	0x2
 1671 08af 75       		.byte	0x75
 1672 08b0 00       		.sleb128 0
 1673 08b1 19       		.uleb128 0x19
 1674 08b2 01       		.byte	0x1
 1675 08b3 51       		.byte	0x51
 1676 08b4 02       		.byte	0x2
ARM GAS  G:\Users\Jaxb\AppData\Local\Temp\ccQNyavp.s 			page 35


 1677 08b5 91       		.byte	0x91
 1678 08b6 60       		.sleb128 -32
 1679 08b7 00       		.byte	0
 1680 08b8 18       		.uleb128 0x18
 1681 08b9 38010000 		.4byte	.LVL16
 1682 08bd CC0A0000 		.4byte	0xacc
 1683 08c1 D9080000 		.4byte	0x8d9
 1684 08c5 19       		.uleb128 0x19
 1685 08c6 01       		.byte	0x1
 1686 08c7 50       		.byte	0x50
 1687 08c8 02       		.byte	0x2
 1688 08c9 75       		.byte	0x75
 1689 08ca 00       		.sleb128 0
 1690 08cb 19       		.uleb128 0x19
 1691 08cc 01       		.byte	0x1
 1692 08cd 51       		.byte	0x51
 1693 08ce 03       		.byte	0x3
 1694 08cf 0A       		.byte	0xa
 1695 08d0 2505     		.2byte	0x525
 1696 08d2 19       		.uleb128 0x19
 1697 08d3 01       		.byte	0x1
 1698 08d4 52       		.byte	0x52
 1699 08d5 02       		.byte	0x2
 1700 08d6 74       		.byte	0x74
 1701 08d7 00       		.sleb128 0
 1702 08d8 00       		.byte	0
 1703 08d9 1A       		.uleb128 0x1a
 1704 08da 40010000 		.4byte	.LVL17
 1705 08de DA0A0000 		.4byte	0xada
 1706 08e2 19       		.uleb128 0x19
 1707 08e3 01       		.byte	0x1
 1708 08e4 50       		.byte	0x50
 1709 08e5 02       		.byte	0x2
 1710 08e6 75       		.byte	0x75
 1711 08e7 00       		.sleb128 0
 1712 08e8 19       		.uleb128 0x19
 1713 08e9 01       		.byte	0x1
 1714 08ea 51       		.byte	0x51
 1715 08eb 02       		.byte	0x2
 1716 08ec 74       		.byte	0x74
 1717 08ed 00       		.sleb128 0
 1718 08ee 00       		.byte	0
 1719 08ef 00       		.byte	0
 1720 08f0 21       		.uleb128 0x21
 1721 08f1 B1040000 		.4byte	.LASF143
 1722 08f5 01       		.byte	0x1
 1723 08f6 62       		.byte	0x62
 1724 08f7 01       		.byte	0x1
 1725 08f8 01       		.byte	0x1
 1726 08f9 09090000 		.4byte	0x909
 1727 08fd 22       		.uleb128 0x22
 1728 08fe 33030000 		.4byte	.LASF145
 1729 0902 01       		.byte	0x1
 1730 0903 64       		.byte	0x64
 1731 0904 83050000 		.4byte	0x583
 1732 0908 00       		.byte	0
 1733 0909 14       		.uleb128 0x14
ARM GAS  G:\Users\Jaxb\AppData\Local\Temp\ccQNyavp.s 			page 36


 1734 090a 01       		.byte	0x1
 1735 090b 83080000 		.4byte	.LASF142
 1736 090f 01       		.byte	0x1
 1737 0910 31       		.byte	0x31
 1738 0911 01       		.byte	0x1
 1739 0912 00000000 		.4byte	.LFB30
 1740 0916 A8000000 		.4byte	.LFE30
 1741 091a 8D020000 		.4byte	.LLST0
 1742 091e 01       		.byte	0x1
 1743 091f 450A0000 		.4byte	0xa45
 1744 0923 1D       		.uleb128 0x1d
 1745 0924 C5040000 		.4byte	.LASF140
 1746 0928 01       		.byte	0x1
 1747 0929 33       		.byte	0x33
 1748 092a CF040000 		.4byte	0x4cf
 1749 092e 02       		.byte	0x2
 1750 092f 91       		.byte	0x91
 1751 0930 58       		.sleb128 -40
 1752 0931 1D       		.uleb128 0x1d
 1753 0932 E4020000 		.4byte	.LASF141
 1754 0936 01       		.byte	0x1
 1755 0937 34       		.byte	0x34
 1756 0938 37050000 		.4byte	0x537
 1757 093c 02       		.byte	0x2
 1758 093d 91       		.byte	0x91
 1759 093e 60       		.sleb128 -32
 1760 093f 1E       		.uleb128 0x1e
 1761 0940 450A0000 		.4byte	0xa45
 1762 0944 68000000 		.4byte	.LBB4
 1763 0948 88000000 		.4byte	.LBE4
 1764 094c 01       		.byte	0x1
 1765 094d 59       		.byte	0x59
 1766 094e 8A090000 		.4byte	0x98a
 1767 0952 1F       		.uleb128 0x1f
 1768 0953 68000000 		.4byte	.LBB5
 1769 0957 88000000 		.4byte	.LBE5
 1770 095b 20       		.uleb128 0x20
 1771 095c 520A0000 		.4byte	0xa52
 1772 0960 02       		.byte	0x2
 1773 0961 91       		.byte	0x91
 1774 0962 5C       		.sleb128 -36
 1775 0963 18       		.uleb128 0x18
 1776 0964 70000000 		.4byte	.LVL5
 1777 0968 7A0A0000 		.4byte	0xa7a
 1778 096c 78090000 		.4byte	0x978
 1779 0970 19       		.uleb128 0x19
 1780 0971 01       		.byte	0x1
 1781 0972 50       		.byte	0x50
 1782 0973 03       		.byte	0x3
 1783 0974 0A       		.byte	0xa
 1784 0975 0005     		.2byte	0x500
 1785 0977 00       		.byte	0
 1786 0978 1A       		.uleb128 0x1a
 1787 0979 88000000 		.4byte	.LVL6
 1788 097d 870A0000 		.4byte	0xa87
 1789 0981 19       		.uleb128 0x19
 1790 0982 01       		.byte	0x1
ARM GAS  G:\Users\Jaxb\AppData\Local\Temp\ccQNyavp.s 			page 37


 1791 0983 50       		.byte	0x50
 1792 0984 02       		.byte	0x2
 1793 0985 91       		.byte	0x91
 1794 0986 5C       		.sleb128 -36
 1795 0987 00       		.byte	0
 1796 0988 00       		.byte	0
 1797 0989 00       		.byte	0
 1798 098a 18       		.uleb128 0x18
 1799 098b 0C000000 		.4byte	.LVL0
 1800 098f 940A0000 		.4byte	0xa94
 1801 0993 A2090000 		.4byte	0x9a2
 1802 0997 19       		.uleb128 0x19
 1803 0998 01       		.byte	0x1
 1804 0999 50       		.byte	0x50
 1805 099a 01       		.byte	0x1
 1806 099b 34       		.byte	0x34
 1807 099c 19       		.uleb128 0x19
 1808 099d 01       		.byte	0x1
 1809 099e 51       		.byte	0x51
 1810 099f 01       		.byte	0x1
 1811 09a0 31       		.byte	0x31
 1812 09a1 00       		.byte	0
 1813 09a2 18       		.uleb128 0x18
 1814 09a3 16000000 		.4byte	.LVL1
 1815 09a7 940A0000 		.4byte	0xa94
 1816 09ab BC090000 		.4byte	0x9bc
 1817 09af 19       		.uleb128 0x19
 1818 09b0 01       		.byte	0x1
 1819 09b1 50       		.byte	0x50
 1820 09b2 03       		.byte	0x3
 1821 09b3 0A       		.byte	0xa
 1822 09b4 0040     		.2byte	0x4000
 1823 09b6 19       		.uleb128 0x19
 1824 09b7 01       		.byte	0x1
 1825 09b8 51       		.byte	0x51
 1826 09b9 01       		.byte	0x1
 1827 09ba 31       		.byte	0x31
 1828 09bb 00       		.byte	0
 1829 09bc 18       		.uleb128 0x18
 1830 09bd 34000000 		.4byte	.LVL2
 1831 09c1 B00A0000 		.4byte	0xab0
 1832 09c5 D6090000 		.4byte	0x9d6
 1833 09c9 19       		.uleb128 0x19
 1834 09ca 01       		.byte	0x1
 1835 09cb 50       		.byte	0x50
 1836 09cc 02       		.byte	0x2
 1837 09cd 74       		.byte	0x74
 1838 09ce 00       		.sleb128 0
 1839 09cf 19       		.uleb128 0x19
 1840 09d0 01       		.byte	0x1
 1841 09d1 51       		.byte	0x51
 1842 09d2 02       		.byte	0x2
 1843 09d3 7D       		.byte	0x7d
 1844 09d4 00       		.sleb128 0
 1845 09d5 00       		.byte	0
 1846 09d6 18       		.uleb128 0x18
 1847 09d7 4E000000 		.4byte	.LVL3
ARM GAS  G:\Users\Jaxb\AppData\Local\Temp\ccQNyavp.s 			page 38


 1848 09db B00A0000 		.4byte	0xab0
 1849 09df F3090000 		.4byte	0x9f3
 1850 09e3 19       		.uleb128 0x19
 1851 09e4 01       		.byte	0x1
 1852 09e5 50       		.byte	0x50
 1853 09e6 05       		.byte	0x5
 1854 09e7 0C       		.byte	0xc
 1855 09e8 00080140 		.4byte	0x40010800
 1856 09ec 19       		.uleb128 0x19
 1857 09ed 01       		.byte	0x1
 1858 09ee 51       		.byte	0x51
 1859 09ef 02       		.byte	0x2
 1860 09f0 7D       		.byte	0x7d
 1861 09f1 00       		.sleb128 0
 1862 09f2 00       		.byte	0
 1863 09f3 18       		.uleb128 0x18
 1864 09f4 68000000 		.4byte	.LVL4
 1865 09f8 BE0A0000 		.4byte	0xabe
 1866 09fc 0D0A0000 		.4byte	0xa0d
 1867 0a00 19       		.uleb128 0x19
 1868 0a01 01       		.byte	0x1
 1869 0a02 50       		.byte	0x50
 1870 0a03 02       		.byte	0x2
 1871 0a04 75       		.byte	0x75
 1872 0a05 00       		.sleb128 0
 1873 0a06 19       		.uleb128 0x19
 1874 0a07 01       		.byte	0x1
 1875 0a08 51       		.byte	0x51
 1876 0a09 02       		.byte	0x2
 1877 0a0a 91       		.byte	0x91
 1878 0a0b 60       		.sleb128 -32
 1879 0a0c 00       		.byte	0
 1880 0a0d 18       		.uleb128 0x18
 1881 0a0e 94000000 		.4byte	.LVL7
 1882 0a12 CC0A0000 		.4byte	0xacc
 1883 0a16 2E0A0000 		.4byte	0xa2e
 1884 0a1a 19       		.uleb128 0x19
 1885 0a1b 01       		.byte	0x1
 1886 0a1c 50       		.byte	0x50
 1887 0a1d 02       		.byte	0x2
 1888 0a1e 75       		.byte	0x75
 1889 0a1f 00       		.sleb128 0
 1890 0a20 19       		.uleb128 0x19
 1891 0a21 01       		.byte	0x1
 1892 0a22 51       		.byte	0x51
 1893 0a23 03       		.byte	0x3
 1894 0a24 0A       		.byte	0xa
 1895 0a25 2505     		.2byte	0x525
 1896 0a27 19       		.uleb128 0x19
 1897 0a28 01       		.byte	0x1
 1898 0a29 52       		.byte	0x52
 1899 0a2a 02       		.byte	0x2
 1900 0a2b 74       		.byte	0x74
 1901 0a2c 00       		.sleb128 0
 1902 0a2d 00       		.byte	0
 1903 0a2e 1A       		.uleb128 0x1a
 1904 0a2f 9C000000 		.4byte	.LVL8
ARM GAS  G:\Users\Jaxb\AppData\Local\Temp\ccQNyavp.s 			page 39


 1905 0a33 DA0A0000 		.4byte	0xada
 1906 0a37 19       		.uleb128 0x19
 1907 0a38 01       		.byte	0x1
 1908 0a39 50       		.byte	0x50
 1909 0a3a 02       		.byte	0x2
 1910 0a3b 75       		.byte	0x75
 1911 0a3c 00       		.sleb128 0
 1912 0a3d 19       		.uleb128 0x19
 1913 0a3e 01       		.byte	0x1
 1914 0a3f 51       		.byte	0x51
 1915 0a40 02       		.byte	0x2
 1916 0a41 74       		.byte	0x74
 1917 0a42 00       		.sleb128 0
 1918 0a43 00       		.byte	0
 1919 0a44 00       		.byte	0
 1920 0a45 21       		.uleb128 0x21
 1921 0a46 13080000 		.4byte	.LASF144
 1922 0a4a 01       		.byte	0x1
 1923 0a4b 19       		.byte	0x19
 1924 0a4c 01       		.byte	0x1
 1925 0a4d 01       		.byte	0x1
 1926 0a4e 5E0A0000 		.4byte	0xa5e
 1927 0a52 22       		.uleb128 0x22
 1928 0a53 33030000 		.4byte	.LASF145
 1929 0a57 01       		.byte	0x1
 1930 0a58 1B       		.byte	0x1b
 1931 0a59 83050000 		.4byte	0x583
 1932 0a5d 00       		.byte	0
 1933 0a5e 23       		.uleb128 0x23
 1934 0a5f 01       		.byte	0x1
 1935 0a60 01       		.byte	0x1
 1936 0a61 EE010000 		.4byte	.LASF146
 1937 0a65 EE010000 		.4byte	.LASF146
 1938 0a69 08       		.byte	0x8
 1939 0a6a 7A01     		.2byte	0x17a
 1940 0a6c 23       		.uleb128 0x23
 1941 0a6d 01       		.byte	0x1
 1942 0a6e 01       		.byte	0x1
 1943 0a6f 0E050000 		.4byte	.LASF147
 1944 0a73 0E050000 		.4byte	.LASF147
 1945 0a77 08       		.byte	0x8
 1946 0a78 8601     		.2byte	0x186
 1947 0a7a 24       		.uleb128 0x24
 1948 0a7b 01       		.byte	0x1
 1949 0a7c 01       		.byte	0x1
 1950 0a7d 9A080000 		.4byte	.LASF148
 1951 0a81 9A080000 		.4byte	.LASF148
 1952 0a85 09       		.byte	0x9
 1953 0a86 C4       		.byte	0xc4
 1954 0a87 24       		.uleb128 0x24
 1955 0a88 01       		.byte	0x1
 1956 0a89 01       		.byte	0x1
 1957 0a8a 22050000 		.4byte	.LASF149
 1958 0a8e 22050000 		.4byte	.LASF149
 1959 0a92 09       		.byte	0x9
 1960 0a93 C5       		.byte	0xc5
 1961 0a94 23       		.uleb128 0x23
ARM GAS  G:\Users\Jaxb\AppData\Local\Temp\ccQNyavp.s 			page 40


 1962 0a95 01       		.byte	0x1
 1963 0a96 01       		.byte	0x1
 1964 0a97 6C080000 		.4byte	.LASF150
 1965 0a9b 6C080000 		.4byte	.LASF150
 1966 0a9f 0A       		.byte	0xa
 1967 0aa0 B502     		.2byte	0x2b5
 1968 0aa2 23       		.uleb128 0x23
 1969 0aa3 01       		.byte	0x1
 1970 0aa4 01       		.byte	0x1
 1971 0aa5 59030000 		.4byte	.LASF151
 1972 0aa9 59030000 		.4byte	.LASF151
 1973 0aad 0A       		.byte	0xa
 1974 0aae B602     		.2byte	0x2b6
 1975 0ab0 23       		.uleb128 0x23
 1976 0ab1 01       		.byte	0x1
 1977 0ab2 01       		.byte	0x1
 1978 0ab3 30010000 		.4byte	.LASF152
 1979 0ab7 30010000 		.4byte	.LASF152
 1980 0abb 07       		.byte	0x7
 1981 0abc 5F01     		.2byte	0x15f
 1982 0abe 23       		.uleb128 0x23
 1983 0abf 01       		.byte	0x1
 1984 0ac0 01       		.byte	0x1
 1985 0ac1 D4000000 		.4byte	.LASF153
 1986 0ac5 D4000000 		.4byte	.LASF153
 1987 0ac9 08       		.byte	0x8
 1988 0aca 6E01     		.2byte	0x16e
 1989 0acc 23       		.uleb128 0x23
 1990 0acd 01       		.byte	0x1
 1991 0ace 01       		.byte	0x1
 1992 0acf 78070000 		.4byte	.LASF154
 1993 0ad3 78070000 		.4byte	.LASF154
 1994 0ad7 08       		.byte	0x8
 1995 0ad8 7301     		.2byte	0x173
 1996 0ada 23       		.uleb128 0x23
 1997 0adb 01       		.byte	0x1
 1998 0adc 01       		.byte	0x1
 1999 0add B1070000 		.4byte	.LASF155
 2000 0ae1 B1070000 		.4byte	.LASF155
 2001 0ae5 08       		.byte	0x8
 2002 0ae6 7201     		.2byte	0x172
 2003 0ae8 00       		.byte	0
 2004              		.section	.debug_abbrev,"",%progbits
 2005              	.Ldebug_abbrev0:
 2006 0000 01       		.uleb128 0x1
 2007 0001 11       		.uleb128 0x11
 2008 0002 01       		.byte	0x1
 2009 0003 25       		.uleb128 0x25
 2010 0004 0E       		.uleb128 0xe
 2011 0005 13       		.uleb128 0x13
 2012 0006 0B       		.uleb128 0xb
 2013 0007 03       		.uleb128 0x3
 2014 0008 0E       		.uleb128 0xe
 2015 0009 1B       		.uleb128 0x1b
 2016 000a 0E       		.uleb128 0xe
 2017 000b 11       		.uleb128 0x11
 2018 000c 01       		.uleb128 0x1
ARM GAS  G:\Users\Jaxb\AppData\Local\Temp\ccQNyavp.s 			page 41


 2019 000d 12       		.uleb128 0x12
 2020 000e 01       		.uleb128 0x1
 2021 000f 10       		.uleb128 0x10
 2022 0010 06       		.uleb128 0x6
 2023 0011 00       		.byte	0
 2024 0012 00       		.byte	0
 2025 0013 02       		.uleb128 0x2
 2026 0014 04       		.uleb128 0x4
 2027 0015 01       		.byte	0x1
 2028 0016 03       		.uleb128 0x3
 2029 0017 0E       		.uleb128 0xe
 2030 0018 3E       		.uleb128 0x3e
 2031 0019 0B       		.uleb128 0xb
 2032 001a 0B       		.uleb128 0xb
 2033 001b 0B       		.uleb128 0xb
 2034 001c 49       		.uleb128 0x49
 2035 001d 13       		.uleb128 0x13
 2036 001e 3A       		.uleb128 0x3a
 2037 001f 0B       		.uleb128 0xb
 2038 0020 3B       		.uleb128 0x3b
 2039 0021 0B       		.uleb128 0xb
 2040 0022 01       		.uleb128 0x1
 2041 0023 13       		.uleb128 0x13
 2042 0024 00       		.byte	0
 2043 0025 00       		.byte	0
 2044 0026 03       		.uleb128 0x3
 2045 0027 28       		.uleb128 0x28
 2046 0028 00       		.byte	0
 2047 0029 03       		.uleb128 0x3
 2048 002a 0E       		.uleb128 0xe
 2049 002b 1C       		.uleb128 0x1c
 2050 002c 0D       		.uleb128 0xd
 2051 002d 00       		.byte	0
 2052 002e 00       		.byte	0
 2053 002f 04       		.uleb128 0x4
 2054 0030 28       		.uleb128 0x28
 2055 0031 00       		.byte	0
 2056 0032 03       		.uleb128 0x3
 2057 0033 0E       		.uleb128 0xe
 2058 0034 1C       		.uleb128 0x1c
 2059 0035 0B       		.uleb128 0xb
 2060 0036 00       		.byte	0
 2061 0037 00       		.byte	0
 2062 0038 05       		.uleb128 0x5
 2063 0039 24       		.uleb128 0x24
 2064 003a 00       		.byte	0
 2065 003b 0B       		.uleb128 0xb
 2066 003c 0B       		.uleb128 0xb
 2067 003d 3E       		.uleb128 0x3e
 2068 003e 0B       		.uleb128 0xb
 2069 003f 03       		.uleb128 0x3
 2070 0040 0E       		.uleb128 0xe
 2071 0041 00       		.byte	0
 2072 0042 00       		.byte	0
 2073 0043 06       		.uleb128 0x6
 2074 0044 16       		.uleb128 0x16
 2075 0045 00       		.byte	0
ARM GAS  G:\Users\Jaxb\AppData\Local\Temp\ccQNyavp.s 			page 42


 2076 0046 03       		.uleb128 0x3
 2077 0047 0E       		.uleb128 0xe
 2078 0048 3A       		.uleb128 0x3a
 2079 0049 0B       		.uleb128 0xb
 2080 004a 3B       		.uleb128 0x3b
 2081 004b 0B       		.uleb128 0xb
 2082 004c 49       		.uleb128 0x49
 2083 004d 13       		.uleb128 0x13
 2084 004e 00       		.byte	0
 2085 004f 00       		.byte	0
 2086 0050 07       		.uleb128 0x7
 2087 0051 24       		.uleb128 0x24
 2088 0052 00       		.byte	0
 2089 0053 0B       		.uleb128 0xb
 2090 0054 0B       		.uleb128 0xb
 2091 0055 3E       		.uleb128 0x3e
 2092 0056 0B       		.uleb128 0xb
 2093 0057 03       		.uleb128 0x3
 2094 0058 08       		.uleb128 0x8
 2095 0059 00       		.byte	0
 2096 005a 00       		.byte	0
 2097 005b 08       		.uleb128 0x8
 2098 005c 35       		.uleb128 0x35
 2099 005d 00       		.byte	0
 2100 005e 49       		.uleb128 0x49
 2101 005f 13       		.uleb128 0x13
 2102 0060 00       		.byte	0
 2103 0061 00       		.byte	0
 2104 0062 09       		.uleb128 0x9
 2105 0063 34       		.uleb128 0x34
 2106 0064 00       		.byte	0
 2107 0065 03       		.uleb128 0x3
 2108 0066 0E       		.uleb128 0xe
 2109 0067 3A       		.uleb128 0x3a
 2110 0068 0B       		.uleb128 0xb
 2111 0069 3B       		.uleb128 0x3b
 2112 006a 05       		.uleb128 0x5
 2113 006b 49       		.uleb128 0x49
 2114 006c 13       		.uleb128 0x13
 2115 006d 3F       		.uleb128 0x3f
 2116 006e 0C       		.uleb128 0xc
 2117 006f 3C       		.uleb128 0x3c
 2118 0070 0C       		.uleb128 0xc
 2119 0071 00       		.byte	0
 2120 0072 00       		.byte	0
 2121 0073 0A       		.uleb128 0xa
 2122 0074 34       		.uleb128 0x34
 2123 0075 00       		.byte	0
 2124 0076 03       		.uleb128 0x3
 2125 0077 0E       		.uleb128 0xe
 2126 0078 3A       		.uleb128 0x3a
 2127 0079 0B       		.uleb128 0xb
 2128 007a 3B       		.uleb128 0x3b
 2129 007b 0B       		.uleb128 0xb
 2130 007c 49       		.uleb128 0x49
 2131 007d 13       		.uleb128 0x13
 2132 007e 3F       		.uleb128 0x3f
ARM GAS  G:\Users\Jaxb\AppData\Local\Temp\ccQNyavp.s 			page 43


 2133 007f 0C       		.uleb128 0xc
 2134 0080 3C       		.uleb128 0x3c
 2135 0081 0C       		.uleb128 0xc
 2136 0082 00       		.byte	0
 2137 0083 00       		.byte	0
 2138 0084 0B       		.uleb128 0xb
 2139 0085 04       		.uleb128 0x4
 2140 0086 01       		.byte	0x1
 2141 0087 3E       		.uleb128 0x3e
 2142 0088 0B       		.uleb128 0xb
 2143 0089 0B       		.uleb128 0xb
 2144 008a 0B       		.uleb128 0xb
 2145 008b 49       		.uleb128 0x49
 2146 008c 13       		.uleb128 0x13
 2147 008d 3A       		.uleb128 0x3a
 2148 008e 0B       		.uleb128 0xb
 2149 008f 3B       		.uleb128 0x3b
 2150 0090 05       		.uleb128 0x5
 2151 0091 01       		.uleb128 0x1
 2152 0092 13       		.uleb128 0x13
 2153 0093 00       		.byte	0
 2154 0094 00       		.byte	0
 2155 0095 0C       		.uleb128 0xc
 2156 0096 28       		.uleb128 0x28
 2157 0097 00       		.byte	0
 2158 0098 03       		.uleb128 0x3
 2159 0099 08       		.uleb128 0x8
 2160 009a 1C       		.uleb128 0x1c
 2161 009b 0B       		.uleb128 0xb
 2162 009c 00       		.byte	0
 2163 009d 00       		.byte	0
 2164 009e 0D       		.uleb128 0xd
 2165 009f 16       		.uleb128 0x16
 2166 00a0 00       		.byte	0
 2167 00a1 03       		.uleb128 0x3
 2168 00a2 0E       		.uleb128 0xe
 2169 00a3 3A       		.uleb128 0x3a
 2170 00a4 0B       		.uleb128 0xb
 2171 00a5 3B       		.uleb128 0x3b
 2172 00a6 05       		.uleb128 0x5
 2173 00a7 49       		.uleb128 0x49
 2174 00a8 13       		.uleb128 0x13
 2175 00a9 00       		.byte	0
 2176 00aa 00       		.byte	0
 2177 00ab 0E       		.uleb128 0xe
 2178 00ac 13       		.uleb128 0x13
 2179 00ad 01       		.byte	0x1
 2180 00ae 0B       		.uleb128 0xb
 2181 00af 0B       		.uleb128 0xb
 2182 00b0 3A       		.uleb128 0x3a
 2183 00b1 0B       		.uleb128 0xb
 2184 00b2 3B       		.uleb128 0x3b
 2185 00b3 05       		.uleb128 0x5
 2186 00b4 01       		.uleb128 0x1
 2187 00b5 13       		.uleb128 0x13
 2188 00b6 00       		.byte	0
 2189 00b7 00       		.byte	0
ARM GAS  G:\Users\Jaxb\AppData\Local\Temp\ccQNyavp.s 			page 44


 2190 00b8 0F       		.uleb128 0xf
 2191 00b9 0D       		.uleb128 0xd
 2192 00ba 00       		.byte	0
 2193 00bb 03       		.uleb128 0x3
 2194 00bc 08       		.uleb128 0x8
 2195 00bd 3A       		.uleb128 0x3a
 2196 00be 0B       		.uleb128 0xb
 2197 00bf 3B       		.uleb128 0x3b
 2198 00c0 05       		.uleb128 0x5
 2199 00c1 49       		.uleb128 0x49
 2200 00c2 13       		.uleb128 0x13
 2201 00c3 38       		.uleb128 0x38
 2202 00c4 0A       		.uleb128 0xa
 2203 00c5 00       		.byte	0
 2204 00c6 00       		.byte	0
 2205 00c7 10       		.uleb128 0x10
 2206 00c8 0D       		.uleb128 0xd
 2207 00c9 00       		.byte	0
 2208 00ca 03       		.uleb128 0x3
 2209 00cb 0E       		.uleb128 0xe
 2210 00cc 3A       		.uleb128 0x3a
 2211 00cd 0B       		.uleb128 0xb
 2212 00ce 3B       		.uleb128 0x3b
 2213 00cf 05       		.uleb128 0x5
 2214 00d0 49       		.uleb128 0x49
 2215 00d1 13       		.uleb128 0x13
 2216 00d2 38       		.uleb128 0x38
 2217 00d3 0A       		.uleb128 0xa
 2218 00d4 00       		.byte	0
 2219 00d5 00       		.byte	0
 2220 00d6 11       		.uleb128 0x11
 2221 00d7 04       		.uleb128 0x4
 2222 00d8 01       		.byte	0x1
 2223 00d9 3E       		.uleb128 0x3e
 2224 00da 0B       		.uleb128 0xb
 2225 00db 0B       		.uleb128 0xb
 2226 00dc 0B       		.uleb128 0xb
 2227 00dd 49       		.uleb128 0x49
 2228 00de 13       		.uleb128 0x13
 2229 00df 3A       		.uleb128 0x3a
 2230 00e0 0B       		.uleb128 0xb
 2231 00e1 3B       		.uleb128 0x3b
 2232 00e2 0B       		.uleb128 0xb
 2233 00e3 01       		.uleb128 0x1
 2234 00e4 13       		.uleb128 0x13
 2235 00e5 00       		.byte	0
 2236 00e6 00       		.byte	0
 2237 00e7 12       		.uleb128 0x12
 2238 00e8 13       		.uleb128 0x13
 2239 00e9 01       		.byte	0x1
 2240 00ea 0B       		.uleb128 0xb
 2241 00eb 0B       		.uleb128 0xb
 2242 00ec 3A       		.uleb128 0x3a
 2243 00ed 0B       		.uleb128 0xb
 2244 00ee 3B       		.uleb128 0x3b
 2245 00ef 0B       		.uleb128 0xb
 2246 00f0 01       		.uleb128 0x1
ARM GAS  G:\Users\Jaxb\AppData\Local\Temp\ccQNyavp.s 			page 45


 2247 00f1 13       		.uleb128 0x13
 2248 00f2 00       		.byte	0
 2249 00f3 00       		.byte	0
 2250 00f4 13       		.uleb128 0x13
 2251 00f5 0D       		.uleb128 0xd
 2252 00f6 00       		.byte	0
 2253 00f7 03       		.uleb128 0x3
 2254 00f8 0E       		.uleb128 0xe
 2255 00f9 3A       		.uleb128 0x3a
 2256 00fa 0B       		.uleb128 0xb
 2257 00fb 3B       		.uleb128 0x3b
 2258 00fc 0B       		.uleb128 0xb
 2259 00fd 49       		.uleb128 0x49
 2260 00fe 13       		.uleb128 0x13
 2261 00ff 38       		.uleb128 0x38
 2262 0100 0A       		.uleb128 0xa
 2263 0101 00       		.byte	0
 2264 0102 00       		.byte	0
 2265 0103 14       		.uleb128 0x14
 2266 0104 2E       		.uleb128 0x2e
 2267 0105 01       		.byte	0x1
 2268 0106 3F       		.uleb128 0x3f
 2269 0107 0C       		.uleb128 0xc
 2270 0108 03       		.uleb128 0x3
 2271 0109 0E       		.uleb128 0xe
 2272 010a 3A       		.uleb128 0x3a
 2273 010b 0B       		.uleb128 0xb
 2274 010c 3B       		.uleb128 0x3b
 2275 010d 0B       		.uleb128 0xb
 2276 010e 27       		.uleb128 0x27
 2277 010f 0C       		.uleb128 0xc
 2278 0110 11       		.uleb128 0x11
 2279 0111 01       		.uleb128 0x1
 2280 0112 12       		.uleb128 0x12
 2281 0113 01       		.uleb128 0x1
 2282 0114 40       		.uleb128 0x40
 2283 0115 06       		.uleb128 0x6
 2284 0116 9742     		.uleb128 0x2117
 2285 0118 0C       		.uleb128 0xc
 2286 0119 01       		.uleb128 0x1
 2287 011a 13       		.uleb128 0x13
 2288 011b 00       		.byte	0
 2289 011c 00       		.byte	0
 2290 011d 15       		.uleb128 0x15
 2291 011e 05       		.uleb128 0x5
 2292 011f 00       		.byte	0
 2293 0120 03       		.uleb128 0x3
 2294 0121 0E       		.uleb128 0xe
 2295 0122 3A       		.uleb128 0x3a
 2296 0123 0B       		.uleb128 0xb
 2297 0124 3B       		.uleb128 0x3b
 2298 0125 0B       		.uleb128 0xb
 2299 0126 49       		.uleb128 0x49
 2300 0127 13       		.uleb128 0x13
 2301 0128 02       		.uleb128 0x2
 2302 0129 06       		.uleb128 0x6
 2303 012a 00       		.byte	0
ARM GAS  G:\Users\Jaxb\AppData\Local\Temp\ccQNyavp.s 			page 46


 2304 012b 00       		.byte	0
 2305 012c 16       		.uleb128 0x16
 2306 012d 05       		.uleb128 0x5
 2307 012e 00       		.byte	0
 2308 012f 03       		.uleb128 0x3
 2309 0130 08       		.uleb128 0x8
 2310 0131 3A       		.uleb128 0x3a
 2311 0132 0B       		.uleb128 0xb
 2312 0133 3B       		.uleb128 0x3b
 2313 0134 0B       		.uleb128 0xb
 2314 0135 49       		.uleb128 0x49
 2315 0136 13       		.uleb128 0x13
 2316 0137 02       		.uleb128 0x2
 2317 0138 06       		.uleb128 0x6
 2318 0139 00       		.byte	0
 2319 013a 00       		.byte	0
 2320 013b 17       		.uleb128 0x17
 2321 013c 34       		.uleb128 0x34
 2322 013d 00       		.byte	0
 2323 013e 03       		.uleb128 0x3
 2324 013f 0E       		.uleb128 0xe
 2325 0140 3A       		.uleb128 0x3a
 2326 0141 0B       		.uleb128 0xb
 2327 0142 3B       		.uleb128 0x3b
 2328 0143 0B       		.uleb128 0xb
 2329 0144 49       		.uleb128 0x49
 2330 0145 13       		.uleb128 0x13
 2331 0146 02       		.uleb128 0x2
 2332 0147 06       		.uleb128 0x6
 2333 0148 00       		.byte	0
 2334 0149 00       		.byte	0
 2335 014a 18       		.uleb128 0x18
 2336 014b 898201   		.uleb128 0x4109
 2337 014e 01       		.byte	0x1
 2338 014f 11       		.uleb128 0x11
 2339 0150 01       		.uleb128 0x1
 2340 0151 31       		.uleb128 0x31
 2341 0152 13       		.uleb128 0x13
 2342 0153 01       		.uleb128 0x1
 2343 0154 13       		.uleb128 0x13
 2344 0155 00       		.byte	0
 2345 0156 00       		.byte	0
 2346 0157 19       		.uleb128 0x19
 2347 0158 8A8201   		.uleb128 0x410a
 2348 015b 00       		.byte	0
 2349 015c 02       		.uleb128 0x2
 2350 015d 0A       		.uleb128 0xa
 2351 015e 9142     		.uleb128 0x2111
 2352 0160 0A       		.uleb128 0xa
 2353 0161 00       		.byte	0
 2354 0162 00       		.byte	0
 2355 0163 1A       		.uleb128 0x1a
 2356 0164 898201   		.uleb128 0x4109
 2357 0167 01       		.byte	0x1
 2358 0168 11       		.uleb128 0x11
 2359 0169 01       		.uleb128 0x1
 2360 016a 31       		.uleb128 0x31
ARM GAS  G:\Users\Jaxb\AppData\Local\Temp\ccQNyavp.s 			page 47


 2361 016b 13       		.uleb128 0x13
 2362 016c 00       		.byte	0
 2363 016d 00       		.byte	0
 2364 016e 1B       		.uleb128 0x1b
 2365 016f 0F       		.uleb128 0xf
 2366 0170 00       		.byte	0
 2367 0171 0B       		.uleb128 0xb
 2368 0172 0B       		.uleb128 0xb
 2369 0173 49       		.uleb128 0x49
 2370 0174 13       		.uleb128 0x13
 2371 0175 00       		.byte	0
 2372 0176 00       		.byte	0
 2373 0177 1C       		.uleb128 0x1c
 2374 0178 34       		.uleb128 0x34
 2375 0179 00       		.byte	0
 2376 017a 03       		.uleb128 0x3
 2377 017b 08       		.uleb128 0x8
 2378 017c 3A       		.uleb128 0x3a
 2379 017d 0B       		.uleb128 0xb
 2380 017e 3B       		.uleb128 0x3b
 2381 017f 0B       		.uleb128 0xb
 2382 0180 49       		.uleb128 0x49
 2383 0181 13       		.uleb128 0x13
 2384 0182 02       		.uleb128 0x2
 2385 0183 06       		.uleb128 0x6
 2386 0184 00       		.byte	0
 2387 0185 00       		.byte	0
 2388 0186 1D       		.uleb128 0x1d
 2389 0187 34       		.uleb128 0x34
 2390 0188 00       		.byte	0
 2391 0189 03       		.uleb128 0x3
 2392 018a 0E       		.uleb128 0xe
 2393 018b 3A       		.uleb128 0x3a
 2394 018c 0B       		.uleb128 0xb
 2395 018d 3B       		.uleb128 0x3b
 2396 018e 0B       		.uleb128 0xb
 2397 018f 49       		.uleb128 0x49
 2398 0190 13       		.uleb128 0x13
 2399 0191 02       		.uleb128 0x2
 2400 0192 0A       		.uleb128 0xa
 2401 0193 00       		.byte	0
 2402 0194 00       		.byte	0
 2403 0195 1E       		.uleb128 0x1e
 2404 0196 1D       		.uleb128 0x1d
 2405 0197 01       		.byte	0x1
 2406 0198 31       		.uleb128 0x31
 2407 0199 13       		.uleb128 0x13
 2408 019a 11       		.uleb128 0x11
 2409 019b 01       		.uleb128 0x1
 2410 019c 12       		.uleb128 0x12
 2411 019d 01       		.uleb128 0x1
 2412 019e 58       		.uleb128 0x58
 2413 019f 0B       		.uleb128 0xb
 2414 01a0 59       		.uleb128 0x59
 2415 01a1 0B       		.uleb128 0xb
 2416 01a2 01       		.uleb128 0x1
 2417 01a3 13       		.uleb128 0x13
ARM GAS  G:\Users\Jaxb\AppData\Local\Temp\ccQNyavp.s 			page 48


 2418 01a4 00       		.byte	0
 2419 01a5 00       		.byte	0
 2420 01a6 1F       		.uleb128 0x1f
 2421 01a7 0B       		.uleb128 0xb
 2422 01a8 01       		.byte	0x1
 2423 01a9 11       		.uleb128 0x11
 2424 01aa 01       		.uleb128 0x1
 2425 01ab 12       		.uleb128 0x12
 2426 01ac 01       		.uleb128 0x1
 2427 01ad 00       		.byte	0
 2428 01ae 00       		.byte	0
 2429 01af 20       		.uleb128 0x20
 2430 01b0 34       		.uleb128 0x34
 2431 01b1 00       		.byte	0
 2432 01b2 31       		.uleb128 0x31
 2433 01b3 13       		.uleb128 0x13
 2434 01b4 02       		.uleb128 0x2
 2435 01b5 0A       		.uleb128 0xa
 2436 01b6 00       		.byte	0
 2437 01b7 00       		.byte	0
 2438 01b8 21       		.uleb128 0x21
 2439 01b9 2E       		.uleb128 0x2e
 2440 01ba 01       		.byte	0x1
 2441 01bb 03       		.uleb128 0x3
 2442 01bc 0E       		.uleb128 0xe
 2443 01bd 3A       		.uleb128 0x3a
 2444 01be 0B       		.uleb128 0xb
 2445 01bf 3B       		.uleb128 0x3b
 2446 01c0 0B       		.uleb128 0xb
 2447 01c1 27       		.uleb128 0x27
 2448 01c2 0C       		.uleb128 0xc
 2449 01c3 20       		.uleb128 0x20
 2450 01c4 0B       		.uleb128 0xb
 2451 01c5 01       		.uleb128 0x1
 2452 01c6 13       		.uleb128 0x13
 2453 01c7 00       		.byte	0
 2454 01c8 00       		.byte	0
 2455 01c9 22       		.uleb128 0x22
 2456 01ca 34       		.uleb128 0x34
 2457 01cb 00       		.byte	0
 2458 01cc 03       		.uleb128 0x3
 2459 01cd 0E       		.uleb128 0xe
 2460 01ce 3A       		.uleb128 0x3a
 2461 01cf 0B       		.uleb128 0xb
 2462 01d0 3B       		.uleb128 0x3b
 2463 01d1 0B       		.uleb128 0xb
 2464 01d2 49       		.uleb128 0x49
 2465 01d3 13       		.uleb128 0x13
 2466 01d4 00       		.byte	0
 2467 01d5 00       		.byte	0
 2468 01d6 23       		.uleb128 0x23
 2469 01d7 2E       		.uleb128 0x2e
 2470 01d8 00       		.byte	0
 2471 01d9 3F       		.uleb128 0x3f
 2472 01da 0C       		.uleb128 0xc
 2473 01db 3C       		.uleb128 0x3c
 2474 01dc 0C       		.uleb128 0xc
ARM GAS  G:\Users\Jaxb\AppData\Local\Temp\ccQNyavp.s 			page 49


 2475 01dd 8740     		.uleb128 0x2007
 2476 01df 0E       		.uleb128 0xe
 2477 01e0 03       		.uleb128 0x3
 2478 01e1 0E       		.uleb128 0xe
 2479 01e2 3A       		.uleb128 0x3a
 2480 01e3 0B       		.uleb128 0xb
 2481 01e4 3B       		.uleb128 0x3b
 2482 01e5 05       		.uleb128 0x5
 2483 01e6 00       		.byte	0
 2484 01e7 00       		.byte	0
 2485 01e8 24       		.uleb128 0x24
 2486 01e9 2E       		.uleb128 0x2e
 2487 01ea 00       		.byte	0
 2488 01eb 3F       		.uleb128 0x3f
 2489 01ec 0C       		.uleb128 0xc
 2490 01ed 3C       		.uleb128 0x3c
 2491 01ee 0C       		.uleb128 0xc
 2492 01ef 8740     		.uleb128 0x2007
 2493 01f1 0E       		.uleb128 0xe
 2494 01f2 03       		.uleb128 0x3
 2495 01f3 0E       		.uleb128 0xe
 2496 01f4 3A       		.uleb128 0x3a
 2497 01f5 0B       		.uleb128 0xb
 2498 01f6 3B       		.uleb128 0x3b
 2499 01f7 0B       		.uleb128 0xb
 2500 01f8 00       		.byte	0
 2501 01f9 00       		.byte	0
 2502 01fa 00       		.byte	0
 2503              		.section	.debug_loc,"",%progbits
 2504              	.Ldebug_loc0:
 2505              	.LLST14:
 2506 0000 B0010000 		.4byte	.LFB36-.Ltext0
 2507 0004 B2010000 		.4byte	.LCFI9-.Ltext0
 2508 0008 0200     		.2byte	0x2
 2509 000a 7D       		.byte	0x7d
 2510 000b 00       		.sleb128 0
 2511 000c B2010000 		.4byte	.LCFI9-.Ltext0
 2512 0010 DE010000 		.4byte	.LFE36-.Ltext0
 2513 0014 0200     		.2byte	0x2
 2514 0016 7D       		.byte	0x7d
 2515 0017 10       		.sleb128 16
 2516 0018 00000000 		.4byte	0
 2517 001c 00000000 		.4byte	0
 2518              	.LLST15:
 2519 0020 B0010000 		.4byte	.LVL33-.Ltext0
 2520 0024 BB010000 		.4byte	.LVL36-1-.Ltext0
 2521 0028 0100     		.2byte	0x1
 2522 002a 50       		.byte	0x50
 2523 002b BB010000 		.4byte	.LVL36-1-.Ltext0
 2524 002f DE010000 		.4byte	.LFE36-.Ltext0
 2525 0033 0100     		.2byte	0x1
 2526 0035 54       		.byte	0x54
 2527 0036 00000000 		.4byte	0
 2528 003a 00000000 		.4byte	0
 2529              	.LLST16:
 2530 003e B0010000 		.4byte	.LVL33-.Ltext0
 2531 0042 B6010000 		.4byte	.LVL35-.Ltext0
ARM GAS  G:\Users\Jaxb\AppData\Local\Temp\ccQNyavp.s 			page 50


 2532 0046 0100     		.2byte	0x1
 2533 0048 51       		.byte	0x51
 2534 0049 B6010000 		.4byte	.LVL35-.Ltext0
 2535 004d DE010000 		.4byte	.LFE36-.Ltext0
 2536 0051 0400     		.2byte	0x4
 2537 0053 F3       		.byte	0xf3
 2538 0054 01       		.uleb128 0x1
 2539 0055 51       		.byte	0x51
 2540 0056 9F       		.byte	0x9f
 2541 0057 00000000 		.4byte	0
 2542 005b 00000000 		.4byte	0
 2543              	.LLST17:
 2544 005f B4010000 		.4byte	.LVL34-.Ltext0
 2545 0063 B6010000 		.4byte	.LVL35-.Ltext0
 2546 0067 0500     		.2byte	0x5
 2547 0069 71       		.byte	0x71
 2548 006a 00       		.sleb128 0
 2549 006b 38       		.byte	0x38
 2550 006c 25       		.byte	0x25
 2551 006d 9F       		.byte	0x9f
 2552 006e B6010000 		.4byte	.LVL35-.Ltext0
 2553 0072 DE010000 		.4byte	.LFE36-.Ltext0
 2554 0076 0600     		.2byte	0x6
 2555 0078 F3       		.byte	0xf3
 2556 0079 01       		.uleb128 0x1
 2557 007a 51       		.byte	0x51
 2558 007b 38       		.byte	0x38
 2559 007c 25       		.byte	0x25
 2560 007d 9F       		.byte	0x9f
 2561 007e 00000000 		.4byte	0
 2562 0082 00000000 		.4byte	0
 2563              	.LLST18:
 2564 0086 B4010000 		.4byte	.LVL34-.Ltext0
 2565 008a B6010000 		.4byte	.LVL35-.Ltext0
 2566 008e 0100     		.2byte	0x1
 2567 0090 51       		.byte	0x51
 2568 0091 B6010000 		.4byte	.LVL35-.Ltext0
 2569 0095 DE010000 		.4byte	.LFE36-.Ltext0
 2570 0099 0400     		.2byte	0x4
 2571 009b F3       		.byte	0xf3
 2572 009c 01       		.uleb128 0x1
 2573 009d 51       		.byte	0x51
 2574 009e 9F       		.byte	0x9f
 2575 009f 00000000 		.4byte	0
 2576 00a3 00000000 		.4byte	0
 2577              	.LLST10:
 2578 00a7 8C010000 		.4byte	.LFB35-.Ltext0
 2579 00ab 8E010000 		.4byte	.LCFI8-.Ltext0
 2580 00af 0200     		.2byte	0x2
 2581 00b1 7D       		.byte	0x7d
 2582 00b2 00       		.sleb128 0
 2583 00b3 8E010000 		.4byte	.LCFI8-.Ltext0
 2584 00b7 B0010000 		.4byte	.LFE35-.Ltext0
 2585 00bb 0200     		.2byte	0x2
 2586 00bd 7D       		.byte	0x7d
 2587 00be 10       		.sleb128 16
 2588 00bf 00000000 		.4byte	0
ARM GAS  G:\Users\Jaxb\AppData\Local\Temp\ccQNyavp.s 			page 51


 2589 00c3 00000000 		.4byte	0
 2590              	.LLST11:
 2591 00c7 8C010000 		.4byte	.LVL27-.Ltext0
 2592 00cb 94010000 		.4byte	.LVL29-.Ltext0
 2593 00cf 0100     		.2byte	0x1
 2594 00d1 50       		.byte	0x50
 2595 00d2 94010000 		.4byte	.LVL29-.Ltext0
 2596 00d6 B0010000 		.4byte	.LFE35-.Ltext0
 2597 00da 0100     		.2byte	0x1
 2598 00dc 55       		.byte	0x55
 2599 00dd 00000000 		.4byte	0
 2600 00e1 00000000 		.4byte	0
 2601              	.LLST12:
 2602 00e5 8C010000 		.4byte	.LVL27-.Ltext0
 2603 00e9 94010000 		.4byte	.LVL29-.Ltext0
 2604 00ed 0100     		.2byte	0x1
 2605 00ef 51       		.byte	0x51
 2606 00f0 94010000 		.4byte	.LVL29-.Ltext0
 2607 00f4 B0010000 		.4byte	.LFE35-.Ltext0
 2608 00f8 0400     		.2byte	0x4
 2609 00fa F3       		.byte	0xf3
 2610 00fb 01       		.uleb128 0x1
 2611 00fc 51       		.byte	0x51
 2612 00fd 9F       		.byte	0x9f
 2613 00fe 00000000 		.4byte	0
 2614 0102 00000000 		.4byte	0
 2615              	.LLST13:
 2616 0106 90010000 		.4byte	.LVL28-.Ltext0
 2617 010a 94010000 		.4byte	.LVL29-.Ltext0
 2618 010e 0200     		.2byte	0x2
 2619 0110 30       		.byte	0x30
 2620 0111 9F       		.byte	0x9f
 2621 0112 94010000 		.4byte	.LVL29-.Ltext0
 2622 0116 9A010000 		.4byte	.LVL30-.Ltext0
 2623 011a 0700     		.2byte	0x7
 2624 011c 74       		.byte	0x74
 2625 011d 00       		.sleb128 0
 2626 011e F3       		.byte	0xf3
 2627 011f 01       		.uleb128 0x1
 2628 0120 51       		.byte	0x51
 2629 0121 1C       		.byte	0x1c
 2630 0122 9F       		.byte	0x9f
 2631 0123 9A010000 		.4byte	.LVL30-.Ltext0
 2632 0127 9E010000 		.4byte	.LVL31-.Ltext0
 2633 012b 0900     		.2byte	0x9
 2634 012d 74       		.byte	0x74
 2635 012e 00       		.sleb128 0
 2636 012f F3       		.byte	0xf3
 2637 0130 01       		.uleb128 0x1
 2638 0131 51       		.byte	0x51
 2639 0132 1C       		.byte	0x1c
 2640 0133 23       		.byte	0x23
 2641 0134 01       		.uleb128 0x1
 2642 0135 9F       		.byte	0x9f
 2643 0136 9E010000 		.4byte	.LVL31-.Ltext0
 2644 013a B0010000 		.4byte	.LFE35-.Ltext0
 2645 013e 0700     		.2byte	0x7
ARM GAS  G:\Users\Jaxb\AppData\Local\Temp\ccQNyavp.s 			page 52


 2646 0140 74       		.byte	0x74
 2647 0141 00       		.sleb128 0
 2648 0142 F3       		.byte	0xf3
 2649 0143 01       		.uleb128 0x1
 2650 0144 51       		.byte	0x51
 2651 0145 1C       		.byte	0x1c
 2652 0146 9F       		.byte	0x9f
 2653 0147 00000000 		.4byte	0
 2654 014b 00000000 		.4byte	0
 2655              	.LLST5:
 2656 014f 60010000 		.4byte	.LFB34-.Ltext0
 2657 0153 62010000 		.4byte	.LCFI7-.Ltext0
 2658 0157 0200     		.2byte	0x2
 2659 0159 7D       		.byte	0x7d
 2660 015a 00       		.sleb128 0
 2661 015b 62010000 		.4byte	.LCFI7-.Ltext0
 2662 015f 8A010000 		.4byte	.LFE34-.Ltext0
 2663 0163 0200     		.2byte	0x2
 2664 0165 7D       		.byte	0x7d
 2665 0166 18       		.sleb128 24
 2666 0167 00000000 		.4byte	0
 2667 016b 00000000 		.4byte	0
 2668              	.LLST6:
 2669 016f 60010000 		.4byte	.LVL21-.Ltext0
 2670 0173 6C010000 		.4byte	.LVL22-.Ltext0
 2671 0177 0100     		.2byte	0x1
 2672 0179 50       		.byte	0x50
 2673 017a 6C010000 		.4byte	.LVL22-.Ltext0
 2674 017e 8A010000 		.4byte	.LFE34-.Ltext0
 2675 0182 0100     		.2byte	0x1
 2676 0184 55       		.byte	0x55
 2677 0185 00000000 		.4byte	0
 2678 0189 00000000 		.4byte	0
 2679              	.LLST7:
 2680 018d 60010000 		.4byte	.LVL21-.Ltext0
 2681 0191 6C010000 		.4byte	.LVL22-.Ltext0
 2682 0195 0100     		.2byte	0x1
 2683 0197 51       		.byte	0x51
 2684 0198 6C010000 		.4byte	.LVL22-.Ltext0
 2685 019c 8A010000 		.4byte	.LFE34-.Ltext0
 2686 01a0 0100     		.2byte	0x1
 2687 01a2 57       		.byte	0x57
 2688 01a3 00000000 		.4byte	0
 2689 01a7 00000000 		.4byte	0
 2690              	.LLST8:
 2691 01ab 60010000 		.4byte	.LVL21-.Ltext0
 2692 01af 6C010000 		.4byte	.LVL22-.Ltext0
 2693 01b3 0100     		.2byte	0x1
 2694 01b5 52       		.byte	0x52
 2695 01b6 6C010000 		.4byte	.LVL22-.Ltext0
 2696 01ba 8A010000 		.4byte	.LFE34-.Ltext0
 2697 01be 0400     		.2byte	0x4
 2698 01c0 F3       		.byte	0xf3
 2699 01c1 01       		.uleb128 0x1
 2700 01c2 52       		.byte	0x52
 2701 01c3 9F       		.byte	0x9f
 2702 01c4 00000000 		.4byte	0
ARM GAS  G:\Users\Jaxb\AppData\Local\Temp\ccQNyavp.s 			page 53


 2703 01c8 00000000 		.4byte	0
 2704              	.LLST9:
 2705 01cc 60010000 		.4byte	.LVL21-.Ltext0
 2706 01d0 6C010000 		.4byte	.LVL22-.Ltext0
 2707 01d4 0200     		.2byte	0x2
 2708 01d6 30       		.byte	0x30
 2709 01d7 9F       		.byte	0x9f
 2710 01d8 6C010000 		.4byte	.LVL22-.Ltext0
 2711 01dc 70010000 		.4byte	.LVL23-.Ltext0
 2712 01e0 0100     		.2byte	0x1
 2713 01e2 54       		.byte	0x54
 2714 01e3 78010000 		.4byte	.LVL24-.Ltext0
 2715 01e7 7C010000 		.4byte	.LVL25-.Ltext0
 2716 01eb 0100     		.2byte	0x1
 2717 01ed 54       		.byte	0x54
 2718 01ee 00000000 		.4byte	0
 2719 01f2 00000000 		.4byte	0
 2720              	.LLST2:
 2721 01f6 48010000 		.4byte	.LFB33-.Ltext0
 2722 01fa 4A010000 		.4byte	.LCFI6-.Ltext0
 2723 01fe 0200     		.2byte	0x2
 2724 0200 7D       		.byte	0x7d
 2725 0201 00       		.sleb128 0
 2726 0202 4A010000 		.4byte	.LCFI6-.Ltext0
 2727 0206 5E010000 		.4byte	.LFE33-.Ltext0
 2728 020a 0200     		.2byte	0x2
 2729 020c 7D       		.byte	0x7d
 2730 020d 08       		.sleb128 8
 2731 020e 00000000 		.4byte	0
 2732 0212 00000000 		.4byte	0
 2733              	.LLST3:
 2734 0216 48010000 		.4byte	.LVL18-.Ltext0
 2735 021a 4F010000 		.4byte	.LVL19-1-.Ltext0
 2736 021e 0100     		.2byte	0x1
 2737 0220 50       		.byte	0x50
 2738 0221 4F010000 		.4byte	.LVL19-1-.Ltext0
 2739 0225 5E010000 		.4byte	.LFE33-.Ltext0
 2740 0229 0100     		.2byte	0x1
 2741 022b 54       		.byte	0x54
 2742 022c 00000000 		.4byte	0
 2743 0230 00000000 		.4byte	0
 2744              	.LLST4:
 2745 0234 48010000 		.4byte	.LVL18-.Ltext0
 2746 0238 4F010000 		.4byte	.LVL19-1-.Ltext0
 2747 023c 0100     		.2byte	0x1
 2748 023e 51       		.byte	0x51
 2749 023f 4F010000 		.4byte	.LVL19-1-.Ltext0
 2750 0243 5E010000 		.4byte	.LFE33-.Ltext0
 2751 0247 0400     		.2byte	0x4
 2752 0249 F3       		.byte	0xf3
 2753 024a 01       		.uleb128 0x1
 2754 024b 51       		.byte	0x51
 2755 024c 9F       		.byte	0x9f
 2756 024d 00000000 		.4byte	0
 2757 0251 00000000 		.4byte	0
 2758              	.LLST1:
 2759 0255 A8000000 		.4byte	.LFB32-.Ltext0
ARM GAS  G:\Users\Jaxb\AppData\Local\Temp\ccQNyavp.s 			page 54


 2760 0259 AA000000 		.4byte	.LCFI3-.Ltext0
 2761 025d 0200     		.2byte	0x2
 2762 025f 7D       		.byte	0x7d
 2763 0260 00       		.sleb128 0
 2764 0261 AA000000 		.4byte	.LCFI3-.Ltext0
 2765 0265 AE000000 		.4byte	.LCFI4-.Ltext0
 2766 0269 0200     		.2byte	0x2
 2767 026b 7D       		.byte	0x7d
 2768 026c 0C       		.sleb128 12
 2769 026d AE000000 		.4byte	.LCFI4-.Ltext0
 2770 0271 42010000 		.4byte	.LCFI5-.Ltext0
 2771 0275 0200     		.2byte	0x2
 2772 0277 7D       		.byte	0x7d
 2773 0278 28       		.sleb128 40
 2774 0279 42010000 		.4byte	.LCFI5-.Ltext0
 2775 027d 48010000 		.4byte	.LFE32-.Ltext0
 2776 0281 0200     		.2byte	0x2
 2777 0283 7D       		.byte	0x7d
 2778 0284 0C       		.sleb128 12
 2779 0285 00000000 		.4byte	0
 2780 0289 00000000 		.4byte	0
 2781              	.LLST0:
 2782 028d 00000000 		.4byte	.LFB30-.Ltext0
 2783 0291 02000000 		.4byte	.LCFI0-.Ltext0
 2784 0295 0200     		.2byte	0x2
 2785 0297 7D       		.byte	0x7d
 2786 0298 00       		.sleb128 0
 2787 0299 02000000 		.4byte	.LCFI0-.Ltext0
 2788 029d 06000000 		.4byte	.LCFI1-.Ltext0
 2789 02a1 0200     		.2byte	0x2
 2790 02a3 7D       		.byte	0x7d
 2791 02a4 0C       		.sleb128 12
 2792 02a5 06000000 		.4byte	.LCFI1-.Ltext0
 2793 02a9 9E000000 		.4byte	.LCFI2-.Ltext0
 2794 02ad 0200     		.2byte	0x2
 2795 02af 7D       		.byte	0x7d
 2796 02b0 28       		.sleb128 40
 2797 02b1 9E000000 		.4byte	.LCFI2-.Ltext0
 2798 02b5 A8000000 		.4byte	.LFE30-.Ltext0
 2799 02b9 0200     		.2byte	0x2
 2800 02bb 7D       		.byte	0x7d
 2801 02bc 0C       		.sleb128 12
 2802 02bd 00000000 		.4byte	0
 2803 02c1 00000000 		.4byte	0
 2804              		.section	.debug_aranges,"",%progbits
 2805 0000 1C000000 		.4byte	0x1c
 2806 0004 0200     		.2byte	0x2
 2807 0006 00000000 		.4byte	.Ldebug_info0
 2808 000a 04       		.byte	0x4
 2809 000b 00       		.byte	0
 2810 000c 0000     		.2byte	0
 2811 000e 0000     		.2byte	0
 2812 0010 00000000 		.4byte	.Ltext0
 2813 0014 DE010000 		.4byte	.Letext0-.Ltext0
 2814 0018 00000000 		.4byte	0
 2815 001c 00000000 		.4byte	0
 2816              		.section	.debug_line,"",%progbits
ARM GAS  G:\Users\Jaxb\AppData\Local\Temp\ccQNyavp.s 			page 55


 2817              	.Ldebug_line0:
 2818 0000 34020000 		.section	.debug_str,"MS",%progbits,1
 2818      02006501 
 2818      00000201 
 2818      FB0E0D00 
 2818      01010101 
 2819              	.LASF28:
 2820 0000 5553425F 		.ascii	"USB_LP_CAN1_RX0_IRQn\000"
 2820      4C505F43 
 2820      414E315F 
 2820      5258305F 
 2820      4952516E 
 2821              	.LASF84:
 2822 0015 53797374 		.ascii	"SystemCoreClock\000"
 2822      656D436F 
 2822      7265436C 
 2822      6F636B00 
 2823              	.LASF89:
 2824 0025 42535252 		.ascii	"BSRR\000"
 2824      00
 2825              	.LASF57:
 2826 002a 5344494F 		.ascii	"SDIO_IRQn\000"
 2826      5F495251 
 2826      6E00
 2827              	.LASF116:
 2828 0034 4750494F 		.ascii	"GPIO_Mode\000"
 2828      5F4D6F64 
 2828      6500
 2829              	.LASF30:
 2830 003e 43414E31 		.ascii	"CAN1_SCE_IRQn\000"
 2830      5F534345 
 2830      5F495251 
 2830      6E00
 2831              	.LASF158:
 2832 004c 463A5C6B 		.ascii	"F:\\kaka\\KAKAOS\\C\\windows\\Project\\RVMDK\243\250"
 2832      616B615C 
 2832      4B414B41 
 2832      4F535C43 
 2832      5C77696E 
 2833 0074 757635A3 		.ascii	"uv5\243\251\000"
 2833      A900
 2834              	.LASF25:
 2835 007a 444D4131 		.ascii	"DMA1_Channel7_IRQn\000"
 2835      5F436861 
 2835      6E6E656C 
 2835      375F4952 
 2835      516E00
 2836              	.LASF42:
 2837 008d 49324332 		.ascii	"I2C2_ER_IRQn\000"
 2837      5F45525F 
 2837      4952516E 
 2837      00
 2838              	.LASF38:
 2839 009a 54494D34 		.ascii	"TIM4_IRQn\000"
 2839      5F495251 
 2839      6E00
 2840              	.LASF20:
ARM GAS  G:\Users\Jaxb\AppData\Local\Temp\ccQNyavp.s 			page 56


 2841 00a4 444D4131 		.ascii	"DMA1_Channel2_IRQn\000"
 2841      5F436861 
 2841      6E6E656C 
 2841      325F4952 
 2841      516E00
 2842              	.LASF79:
 2843 00b7 756E7369 		.ascii	"unsigned int\000"
 2843      676E6564 
 2843      20696E74 
 2843      00
 2844              	.LASF88:
 2845 00c4 46756E63 		.ascii	"FunctionalState\000"
 2845      74696F6E 
 2845      616C5374 
 2845      61746500 
 2846              	.LASF153:
 2847 00d4 55534152 		.ascii	"USART_Init\000"
 2847      545F496E 
 2847      697400
 2848              	.LASF12:
 2849 00df 464C4153 		.ascii	"FLASH_IRQn\000"
 2849      485F4952 
 2849      516E00
 2850              	.LASF14:
 2851 00ea 45585449 		.ascii	"EXTI0_IRQn\000"
 2851      305F4952 
 2851      516E00
 2852              	.LASF113:
 2853 00f5 4750494F 		.ascii	"GPIOMode_TypeDef\000"
 2853      4D6F6465 
 2853      5F547970 
 2853      65446566 
 2853      00
 2854              	.LASF48:
 2855 0106 45585449 		.ascii	"EXTI15_10_IRQn\000"
 2855      31355F31 
 2855      305F4952 
 2855      516E00
 2856              	.LASF120:
 2857 0115 55534152 		.ascii	"USART_StopBits\000"
 2857      545F5374 
 2857      6F704269 
 2857      747300
 2858              	.LASF6:
 2859 0124 50656E64 		.ascii	"PendSV_IRQn\000"
 2859      53565F49 
 2859      52516E00 
 2860              	.LASF152:
 2861 0130 4750494F 		.ascii	"GPIO_Init\000"
 2861      5F496E69 
 2861      7400
 2862              	.LASF60:
 2863 013a 55415254 		.ascii	"UART4_IRQn\000"
 2863      345F4952 
 2863      516E00
 2864              	.LASF13:
 2865 0145 5243435F 		.ascii	"RCC_IRQn\000"
ARM GAS  G:\Users\Jaxb\AppData\Local\Temp\ccQNyavp.s 			page 57


 2865      4952516E 
 2865      00
 2866              	.LASF98:
 2867 014e 47545052 		.ascii	"GTPR\000"
 2867      00
 2868              	.LASF1:
 2869 0153 4D656D6F 		.ascii	"MemoryManagement_IRQn\000"
 2869      72794D61 
 2869      6E616765 
 2869      6D656E74 
 2869      5F495251 
 2870              	.LASF134:
 2871 0169 55736172 		.ascii	"Usart_SendString\000"
 2871      745F5365 
 2871      6E645374 
 2871      72696E67 
 2871      00
 2872              	.LASF130:
 2873 017a 70555341 		.ascii	"pUSARTx\000"
 2873      52547800 
 2874              	.LASF82:
 2875 0182 75696E74 		.ascii	"uint32_t\000"
 2875      33325F74 
 2875      00
 2876              	.LASF118:
 2877 018b 55534152 		.ascii	"USART_BaudRate\000"
 2877      545F4261 
 2877      75645261 
 2877      746500
 2878              	.LASF131:
 2879 019a 74656D70 		.ascii	"temp_h\000"
 2879      5F6800
 2880              	.LASF132:
 2881 01a1 74656D70 		.ascii	"temp_l\000"
 2881      5F6C00
 2882              	.LASF32:
 2883 01a8 54494D31 		.ascii	"TIM1_BRK_IRQn\000"
 2883      5F42524B 
 2883      5F495251 
 2883      6E00
 2884              	.LASF129:
 2885 01b6 4E564943 		.ascii	"NVIC_InitTypeDef\000"
 2885      5F496E69 
 2885      74547970 
 2885      65446566 
 2885      00
 2886              	.LASF43:
 2887 01c7 53504931 		.ascii	"SPI1_IRQn\000"
 2887      5F495251 
 2887      6E00
 2888              	.LASF62:
 2889 01d1 54494D36 		.ascii	"TIM6_IRQn\000"
 2889      5F495251 
 2889      6E00
 2890              	.LASF22:
 2891 01db 444D4131 		.ascii	"DMA1_Channel4_IRQn\000"
 2891      5F436861 
ARM GAS  G:\Users\Jaxb\AppData\Local\Temp\ccQNyavp.s 			page 58


 2891      6E6E656C 
 2891      345F4952 
 2891      516E00
 2892              	.LASF146:
 2893 01ee 55534152 		.ascii	"USART_SendData\000"
 2893      545F5365 
 2893      6E644461 
 2893      746100
 2894              	.LASF78:
 2895 01fd 6C6F6E67 		.ascii	"long long unsigned int\000"
 2895      206C6F6E 
 2895      6720756E 
 2895      7369676E 
 2895      65642069 
 2896              	.LASF85:
 2897 0214 52455345 		.ascii	"RESET\000"
 2897      5400
 2898              	.LASF72:
 2899 021a 5F5F7569 		.ascii	"__uint16_t\000"
 2899      6E743136 
 2899      5F7400
 2900              	.LASF29:
 2901 0225 43414E31 		.ascii	"CAN1_RX1_IRQn\000"
 2901      5F525831 
 2901      5F495251 
 2901      6E00
 2902              	.LASF119:
 2903 0233 55534152 		.ascii	"USART_WordLength\000"
 2903      545F576F 
 2903      72644C65 
 2903      6E677468 
 2903      00
 2904              	.LASF107:
 2905 0244 4750494F 		.ascii	"GPIO_Mode_IPD\000"
 2905      5F4D6F64 
 2905      655F4950 
 2905      4400
 2906              	.LASF108:
 2907 0252 4750494F 		.ascii	"GPIO_Mode_IPU\000"
 2907      5F4D6F64 
 2907      655F4950 
 2907      5500
 2908              	.LASF27:
 2909 0260 5553425F 		.ascii	"USB_HP_CAN1_TX_IRQn\000"
 2909      48505F43 
 2909      414E315F 
 2909      54585F49 
 2909      52516E00 
 2910              	.LASF46:
 2911 0274 55534152 		.ascii	"USART2_IRQn\000"
 2911      54325F49 
 2911      52516E00 
 2912              	.LASF123:
 2913 0280 55534152 		.ascii	"USART_HardwareFlowControl\000"
 2913      545F4861 
 2913      72647761 
 2913      7265466C 
ARM GAS  G:\Users\Jaxb\AppData\Local\Temp\ccQNyavp.s 			page 59


 2913      6F77436F 
 2914              	.LASF109:
 2915 029a 4750494F 		.ascii	"GPIO_Mode_Out_OD\000"
 2915      5F4D6F64 
 2915      655F4F75 
 2915      745F4F44 
 2915      00
 2916              	.LASF128:
 2917 02ab 4E564943 		.ascii	"NVIC_IRQChannelCmd\000"
 2917      5F495251 
 2917      4368616E 
 2917      6E656C43 
 2917      6D6400
 2918              	.LASF100:
 2919 02be 55534152 		.ascii	"USART_TypeDef\000"
 2919      545F5479 
 2919      70654465 
 2919      6600
 2920              	.LASF16:
 2921 02cc 45585449 		.ascii	"EXTI2_IRQn\000"
 2921      325F4952 
 2921      516E00
 2922              	.LASF41:
 2923 02d7 49324332 		.ascii	"I2C2_EV_IRQn\000"
 2923      5F45565F 
 2923      4952516E 
 2923      00
 2924              	.LASF141:
 2925 02e4 55534152 		.ascii	"USART_InitStructure\000"
 2925      545F496E 
 2925      69745374 
 2925      72756374 
 2925      75726500 
 2926              	.LASF59:
 2927 02f8 53504933 		.ascii	"SPI3_IRQn\000"
 2927      5F495251 
 2927      6E00
 2928              	.LASF86:
 2929 0302 44495341 		.ascii	"DISABLE\000"
 2929      424C4500 
 2930              	.LASF110:
 2931 030a 4750494F 		.ascii	"GPIO_Mode_Out_PP\000"
 2931      5F4D6F64 
 2931      655F4F75 
 2931      745F5050 
 2931      00
 2932              	.LASF135:
 2933 031b 63686172 		.ascii	"char\000"
 2933      00
 2934              	.LASF24:
 2935 0320 444D4131 		.ascii	"DMA1_Channel6_IRQn\000"
 2935      5F436861 
 2935      6E6E656C 
 2935      365F4952 
 2935      516E00
 2936              	.LASF145:
 2937 0333 4E564943 		.ascii	"NVIC_InitStructure\000"
ARM GAS  G:\Users\Jaxb\AppData\Local\Temp\ccQNyavp.s 			page 60


 2937      5F496E69 
 2937      74537472 
 2937      75637475 
 2937      726500
 2938              	.LASF64:
 2939 0346 444D4132 		.ascii	"DMA2_Channel1_IRQn\000"
 2939      5F436861 
 2939      6E6E656C 
 2939      315F4952 
 2939      516E00
 2940              	.LASF151:
 2941 0359 5243435F 		.ascii	"RCC_APB1PeriphClockCmd\000"
 2941      41504231 
 2941      50657269 
 2941      7068436C 
 2941      6F636B43 
 2942              	.LASF37:
 2943 0370 54494D33 		.ascii	"TIM3_IRQn\000"
 2943      5F495251 
 2943      6E00
 2944              	.LASF19:
 2945 037a 444D4131 		.ascii	"DMA1_Channel1_IRQn\000"
 2945      5F436861 
 2945      6E6E656C 
 2945      315F4952 
 2945      516E00
 2946              	.LASF122:
 2947 038d 55534152 		.ascii	"USART_Mode\000"
 2947      545F4D6F 
 2947      646500
 2948              	.LASF80:
 2949 0398 75696E74 		.ascii	"uint8_t\000"
 2949      385F7400 
 2950              	.LASF50:
 2951 03a0 55534257 		.ascii	"USBWakeUp_IRQn\000"
 2951      616B6555 
 2951      705F4952 
 2951      516E00
 2952              	.LASF77:
 2953 03af 6C6F6E67 		.ascii	"long long int\000"
 2953      206C6F6E 
 2953      6720696E 
 2953      7400
 2954              	.LASF8:
 2955 03bd 57574447 		.ascii	"WWDG_IRQn\000"
 2955      5F495251 
 2955      6E00
 2956              	.LASF136:
 2957 03c7 55736172 		.ascii	"Usart_SendArray\000"
 2957      745F5365 
 2957      6E644172 
 2957      72617900 
 2958              	.LASF156:
 2959 03d7 474E5520 		.ascii	"GNU C11 7.3.1 20180622 (release) [ARM/embedded-7-br"
 2959      43313120 
 2959      372E332E 
 2959      31203230 
ARM GAS  G:\Users\Jaxb\AppData\Local\Temp\ccQNyavp.s 			page 61


 2959      31383036 
 2960 040a 616E6368 		.ascii	"anch revision 261907] -mcpu=cortex-m3 -mthumb -mapc"
 2960      20726576 
 2960      6973696F 
 2960      6E203236 
 2960      31393037 
 2961 043d 732D6672 		.ascii	"s-frame -mthumb-interwork -mcpu=cortex-m3 -mthumb -"
 2961      616D6520 
 2961      2D6D7468 
 2961      756D622D 
 2961      696E7465 
 2962 0470 67647761 		.ascii	"gdwarf-2 -O2\000"
 2962      72662D32 
 2962      202D4F32 
 2962      00
 2963              	.LASF2:
 2964 047d 42757346 		.ascii	"BusFault_IRQn\000"
 2964      61756C74 
 2964      5F495251 
 2964      6E00
 2965              	.LASF127:
 2966 048b 4E564943 		.ascii	"NVIC_IRQChannelSubPriority\000"
 2966      5F495251 
 2966      4368616E 
 2966      6E656C53 
 2966      75625072 
 2967              	.LASF18:
 2968 04a6 45585449 		.ascii	"EXTI4_IRQn\000"
 2968      345F4952 
 2968      516E00
 2969              	.LASF143:
 2970 04b1 4E564943 		.ascii	"NVIC2_Configuration\000"
 2970      325F436F 
 2970      6E666967 
 2970      75726174 
 2970      696F6E00 
 2971              	.LASF140:
 2972 04c5 4750494F 		.ascii	"GPIO_InitStructure\000"
 2972      5F496E69 
 2972      74537472 
 2972      75637475 
 2972      726500
 2973              	.LASF55:
 2974 04d8 41444333 		.ascii	"ADC3_IRQn\000"
 2974      5F495251 
 2974      6E00
 2975              	.LASF9:
 2976 04e2 5056445F 		.ascii	"PVD_IRQn\000"
 2976      4952516E 
 2976      00
 2977              	.LASF125:
 2978 04eb 4E564943 		.ascii	"NVIC_IRQChannel\000"
 2978      5F495251 
 2978      4368616E 
 2978      6E656C00 
 2979              	.LASF66:
 2980 04fb 444D4132 		.ascii	"DMA2_Channel3_IRQn\000"
ARM GAS  G:\Users\Jaxb\AppData\Local\Temp\ccQNyavp.s 			page 62


 2980      5F436861 
 2980      6E6E656C 
 2980      335F4952 
 2980      516E00
 2981              	.LASF147:
 2982 050e 55534152 		.ascii	"USART_GetFlagStatus\000"
 2982      545F4765 
 2982      74466C61 
 2982      67537461 
 2982      74757300 
 2983              	.LASF149:
 2984 0522 4E564943 		.ascii	"NVIC_Init\000"
 2984      5F496E69 
 2984      7400
 2985              	.LASF58:
 2986 052c 54494D35 		.ascii	"TIM5_IRQn\000"
 2986      5F495251 
 2986      6E00
 2987              	.LASF21:
 2988 0536 444D4131 		.ascii	"DMA1_Channel3_IRQn\000"
 2988      5F436861 
 2988      6E6E656C 
 2988      335F4952 
 2988      516E00
 2989              	.LASF53:
 2990 0549 54494D38 		.ascii	"TIM8_TRG_COM_IRQn\000"
 2990      5F545247 
 2990      5F434F4D 
 2990      5F495251 
 2990      6E00
 2991              	.LASF111:
 2992 055b 4750494F 		.ascii	"GPIO_Mode_AF_OD\000"
 2992      5F4D6F64 
 2992      655F4146 
 2992      5F4F4400 
 2993              	.LASF39:
 2994 056b 49324331 		.ascii	"I2C1_EV_IRQn\000"
 2994      5F45565F 
 2994      4952516E 
 2994      00
 2995              	.LASF137:
 2996 0578 61727261 		.ascii	"array\000"
 2996      7900
 2997              	.LASF138:
 2998 057e 55736172 		.ascii	"Usart_SendByte\000"
 2998      745F5365 
 2998      6E644279 
 2998      746500
 2999              	.LASF81:
 3000 058d 75696E74 		.ascii	"uint16_t\000"
 3000      31365F74 
 3000      00
 3001              	.LASF159:
 3002 0596 4952516E 		.ascii	"IRQn\000"
 3002      00
 3003              	.LASF33:
 3004 059b 54494D31 		.ascii	"TIM1_UP_IRQn\000"
ARM GAS  G:\Users\Jaxb\AppData\Local\Temp\ccQNyavp.s 			page 63


 3004      5F55505F 
 3004      4952516E 
 3004      00
 3005              	.LASF101:
 3006 05a8 4750494F 		.ascii	"GPIO_Speed_10MHz\000"
 3006      5F537065 
 3006      65645F31 
 3006      304D487A 
 3006      00
 3007              	.LASF52:
 3008 05b9 54494D38 		.ascii	"TIM8_UP_IRQn\000"
 3008      5F55505F 
 3008      4952516E 
 3008      00
 3009              	.LASF104:
 3010 05c6 4750494F 		.ascii	"GPIOSpeed_TypeDef\000"
 3010      53706565 
 3010      645F5479 
 3010      70654465 
 3010      6600
 3011              	.LASF11:
 3012 05d8 5254435F 		.ascii	"RTC_IRQn\000"
 3012      4952516E 
 3012      00
 3013              	.LASF133:
 3014 05e1 55736172 		.ascii	"Usart_SendHalfWord\000"
 3014      745F5365 
 3014      6E644861 
 3014      6C66576F 
 3014      726400
 3015              	.LASF92:
 3016 05f4 52455345 		.ascii	"RESERVED0\000"
 3016      52564544 
 3016      3000
 3017              	.LASF93:
 3018 05fe 52455345 		.ascii	"RESERVED1\000"
 3018      52564544 
 3018      3100
 3019              	.LASF94:
 3020 0608 52455345 		.ascii	"RESERVED2\000"
 3020      52564544 
 3020      3200
 3021              	.LASF95:
 3022 0612 52455345 		.ascii	"RESERVED3\000"
 3022      52564544 
 3022      3300
 3023              	.LASF96:
 3024 061c 52455345 		.ascii	"RESERVED4\000"
 3024      52564544 
 3024      3400
 3025              	.LASF97:
 3026 0626 52455345 		.ascii	"RESERVED5\000"
 3026      52564544 
 3026      3500
 3027              	.LASF99:
 3028 0630 52455345 		.ascii	"RESERVED6\000"
 3028      52564544 
ARM GAS  G:\Users\Jaxb\AppData\Local\Temp\ccQNyavp.s 			page 64


 3028      3600
 3029              	.LASF70:
 3030 063a 73686F72 		.ascii	"short int\000"
 3030      7420696E 
 3030      7400
 3031              	.LASF112:
 3032 0644 4750494F 		.ascii	"GPIO_Mode_AF_PP\000"
 3032      5F4D6F64 
 3032      655F4146 
 3032      5F505000 
 3033              	.LASF74:
 3034 0654 6C6F6E67 		.ascii	"long int\000"
 3034      20696E74 
 3034      00
 3035              	.LASF45:
 3036 065d 55534152 		.ascii	"USART1_IRQn\000"
 3036      54315F49 
 3036      52516E00 
 3037              	.LASF61:
 3038 0669 55415254 		.ascii	"UART5_IRQn\000"
 3038      355F4952 
 3038      516E00
 3039              	.LASF83:
 3040 0674 49544D5F 		.ascii	"ITM_RxBuffer\000"
 3040      52784275 
 3040      66666572 
 3040      00
 3041              	.LASF0:
 3042 0681 4E6F6E4D 		.ascii	"NonMaskableInt_IRQn\000"
 3042      61736B61 
 3042      626C6549 
 3042      6E745F49 
 3042      52516E00 
 3043              	.LASF114:
 3044 0695 4750494F 		.ascii	"GPIO_Pin\000"
 3044      5F50696E 
 3044      00
 3045              	.LASF35:
 3046 069e 54494D31 		.ascii	"TIM1_CC_IRQn\000"
 3046      5F43435F 
 3046      4952516E 
 3046      00
 3047              	.LASF54:
 3048 06ab 54494D38 		.ascii	"TIM8_CC_IRQn\000"
 3048      5F43435F 
 3048      4952516E 
 3048      00
 3049              	.LASF56:
 3050 06b8 46534D43 		.ascii	"FSMC_IRQn\000"
 3050      5F495251 
 3050      6E00
 3051              	.LASF15:
 3052 06c2 45585449 		.ascii	"EXTI1_IRQn\000"
 3052      315F4952 
 3052      516E00
 3053              	.LASF34:
 3054 06cd 54494D31 		.ascii	"TIM1_TRG_COM_IRQn\000"
ARM GAS  G:\Users\Jaxb\AppData\Local\Temp\ccQNyavp.s 			page 65


 3054      5F545247 
 3054      5F434F4D 
 3054      5F495251 
 3054      6E00
 3055              	.LASF91:
 3056 06df 4750494F 		.ascii	"GPIO_TypeDef\000"
 3056      5F547970 
 3056      65446566 
 3056      00
 3057              	.LASF40:
 3058 06ec 49324331 		.ascii	"I2C1_ER_IRQn\000"
 3058      5F45525F 
 3058      4952516E 
 3058      00
 3059              	.LASF7:
 3060 06f9 53797354 		.ascii	"SysTick_IRQn\000"
 3060      69636B5F 
 3060      4952516E 
 3060      00
 3061              	.LASF87:
 3062 0706 454E4142 		.ascii	"ENABLE\000"
 3062      4C4500
 3063              	.LASF76:
 3064 070d 6C6F6E67 		.ascii	"long unsigned int\000"
 3064      20756E73 
 3064      69676E65 
 3064      6420696E 
 3064      7400
 3065              	.LASF36:
 3066 071f 54494D32 		.ascii	"TIM2_IRQn\000"
 3066      5F495251 
 3066      6E00
 3067              	.LASF5:
 3068 0729 44656275 		.ascii	"DebugMonitor_IRQn\000"
 3068      674D6F6E 
 3068      69746F72 
 3068      5F495251 
 3068      6E00
 3069              	.LASF3:
 3070 073b 55736167 		.ascii	"UsageFault_IRQn\000"
 3070      65466175 
 3070      6C745F49 
 3070      52516E00 
 3071              	.LASF117:
 3072 074b 4750494F 		.ascii	"GPIO_InitTypeDef\000"
 3072      5F496E69 
 3072      74547970 
 3072      65446566 
 3072      00
 3073              	.LASF69:
 3074 075c 756E7369 		.ascii	"unsigned char\000"
 3074      676E6564 
 3074      20636861 
 3074      7200
 3075              	.LASF139:
 3076 076a 55534152 		.ascii	"USART2_Config\000"
 3076      54325F43 
ARM GAS  G:\Users\Jaxb\AppData\Local\Temp\ccQNyavp.s 			page 66


 3076      6F6E6669 
 3076      6700
 3077              	.LASF154:
 3078 0778 55534152 		.ascii	"USART_ITConfig\000"
 3078      545F4954 
 3078      436F6E66 
 3078      696700
 3079              	.LASF75:
 3080 0787 5F5F7569 		.ascii	"__uint32_t\000"
 3080      6E743332 
 3080      5F7400
 3081              	.LASF105:
 3082 0792 4750494F 		.ascii	"GPIO_Mode_AIN\000"
 3082      5F4D6F64 
 3082      655F4149 
 3082      4E00
 3083              	.LASF103:
 3084 07a0 4750494F 		.ascii	"GPIO_Speed_50MHz\000"
 3084      5F537065 
 3084      65645F35 
 3084      304D487A 
 3084      00
 3085              	.LASF155:
 3086 07b1 55534152 		.ascii	"USART_Cmd\000"
 3086      545F436D 
 3086      6400
 3087              	.LASF31:
 3088 07bb 45585449 		.ascii	"EXTI9_5_IRQn\000"
 3088      395F355F 
 3088      4952516E 
 3088      00
 3089              	.LASF4:
 3090 07c8 53564361 		.ascii	"SVCall_IRQn\000"
 3090      6C6C5F49 
 3090      52516E00 
 3091              	.LASF102:
 3092 07d4 4750494F 		.ascii	"GPIO_Speed_2MHz\000"
 3092      5F537065 
 3092      65645F32 
 3092      4D487A00 
 3093              	.LASF157:
 3094 07e4 2E2E2F2E 		.ascii	"../../source/src/kernel/OS_CPU/bsp/bsp_usart.c\000"
 3094      2E2F736F 
 3094      75726365 
 3094      2F737263 
 3094      2F6B6572 
 3095              	.LASF144:
 3096 0813 4E564943 		.ascii	"NVIC_Configuration\000"
 3096      5F436F6E 
 3096      66696775 
 3096      72617469 
 3096      6F6E00
 3097              	.LASF124:
 3098 0826 55534152 		.ascii	"USART_InitTypeDef\000"
 3098      545F496E 
 3098      69745479 
 3098      70654465 
ARM GAS  G:\Users\Jaxb\AppData\Local\Temp\ccQNyavp.s 			page 67


 3098      6600
 3099              	.LASF44:
 3100 0838 53504932 		.ascii	"SPI2_IRQn\000"
 3100      5F495251 
 3100      6E00
 3101              	.LASF63:
 3102 0842 54494D37 		.ascii	"TIM7_IRQn\000"
 3102      5F495251 
 3102      6E00
 3103              	.LASF23:
 3104 084c 444D4131 		.ascii	"DMA1_Channel5_IRQn\000"
 3104      5F436861 
 3104      6E6E656C 
 3104      355F4952 
 3104      516E00
 3105              	.LASF121:
 3106 085f 55534152 		.ascii	"USART_Parity\000"
 3106      545F5061 
 3106      72697479 
 3106      00
 3107              	.LASF150:
 3108 086c 5243435F 		.ascii	"RCC_APB2PeriphClockCmd\000"
 3108      41504232 
 3108      50657269 
 3108      7068436C 
 3108      6F636B43 
 3109              	.LASF142:
 3110 0883 55534152 		.ascii	"USART_Config\000"
 3110      545F436F 
 3110      6E666967 
 3110      00
 3111              	.LASF71:
 3112 0890 5F5F7569 		.ascii	"__uint8_t\000"
 3112      6E74385F 
 3112      7400
 3113              	.LASF148:
 3114 089a 4E564943 		.ascii	"NVIC_PriorityGroupConfig\000"
 3114      5F507269 
 3114      6F726974 
 3114      7947726F 
 3114      7570436F 
 3115              	.LASF115:
 3116 08b3 4750494F 		.ascii	"GPIO_Speed\000"
 3116      5F537065 
 3116      656400
 3117              	.LASF68:
 3118 08be 7369676E 		.ascii	"signed char\000"
 3118      65642063 
 3118      68617200 
 3119              	.LASF51:
 3120 08ca 54494D38 		.ascii	"TIM8_BRK_IRQn\000"
 3120      5F42524B 
 3120      5F495251 
 3120      6E00
 3121              	.LASF73:
 3122 08d8 73686F72 		.ascii	"short unsigned int\000"
 3122      7420756E 
ARM GAS  G:\Users\Jaxb\AppData\Local\Temp\ccQNyavp.s 			page 68


 3122      7369676E 
 3122      65642069 
 3122      6E7400
 3123              	.LASF17:
 3124 08eb 45585449 		.ascii	"EXTI3_IRQn\000"
 3124      335F4952 
 3124      516E00
 3125              	.LASF126:
 3126 08f6 4E564943 		.ascii	"NVIC_IRQChannelPreemptionPriority\000"
 3126      5F495251 
 3126      4368616E 
 3126      6E656C50 
 3126      7265656D 
 3127              	.LASF67:
 3128 0918 444D4132 		.ascii	"DMA2_Channel4_5_IRQn\000"
 3128      5F436861 
 3128      6E6E656C 
 3128      345F355F 
 3128      4952516E 
 3129              	.LASF26:
 3130 092d 41444331 		.ascii	"ADC1_2_IRQn\000"
 3130      5F325F49 
 3130      52516E00 
 3131              	.LASF65:
 3132 0939 444D4132 		.ascii	"DMA2_Channel2_IRQn\000"
 3132      5F436861 
 3132      6E6E656C 
 3132      325F4952 
 3132      516E00
 3133              	.LASF106:
 3134 094c 4750494F 		.ascii	"GPIO_Mode_IN_FLOATING\000"
 3134      5F4D6F64 
 3134      655F494E 
 3134      5F464C4F 
 3134      4154494E 
 3135              	.LASF47:
 3136 0962 55534152 		.ascii	"USART3_IRQn\000"
 3136      54335F49 
 3136      52516E00 
 3137              	.LASF10:
 3138 096e 54414D50 		.ascii	"TAMPER_IRQn\000"
 3138      45525F49 
 3138      52516E00 
 3139              	.LASF90:
 3140 097a 4C434B52 		.ascii	"LCKR\000"
 3140      00
 3141              	.LASF49:
 3142 097f 52544341 		.ascii	"RTCAlarm_IRQn\000"
 3142      6C61726D 
 3142      5F495251 
 3142      6E00
 3143              		.ident	"GCC: (GNU Tools for Arm Embedded Processors 7-2018-q2-update) 7.3.1 20180622 (release) [AR
ARM GAS  G:\Users\Jaxb\AppData\Local\Temp\ccQNyavp.s 			page 69


DEFINED SYMBOLS
                            *ABS*:00000000 bsp_usart.c
G:\Users\Jaxb\AppData\Local\Temp\ccQNyavp.s:15     .text:00000000 $t
G:\Users\Jaxb\AppData\Local\Temp\ccQNyavp.s:23     .text:00000000 USART_Config
G:\Users\Jaxb\AppData\Local\Temp\ccQNyavp.s:147    .text:000000a0 $d
G:\Users\Jaxb\AppData\Local\Temp\ccQNyavp.s:152    .text:000000a8 $t
G:\Users\Jaxb\AppData\Local\Temp\ccQNyavp.s:160    .text:000000a8 USART2_Config
G:\Users\Jaxb\AppData\Local\Temp\ccQNyavp.s:280    .text:00000144 $d
G:\Users\Jaxb\AppData\Local\Temp\ccQNyavp.s:284    .text:00000148 $t
G:\Users\Jaxb\AppData\Local\Temp\ccQNyavp.s:292    .text:00000148 Usart_SendByte
G:\Users\Jaxb\AppData\Local\Temp\ccQNyavp.s:330    .text:00000160 Usart_SendArray
G:\Users\Jaxb\AppData\Local\Temp\ccQNyavp.s:392    .text:0000018c Usart_SendString
G:\Users\Jaxb\AppData\Local\Temp\ccQNyavp.s:443    .text:000001b0 Usart_SendHalfWord

UNDEFINED SYMBOLS
RCC_APB2PeriphClockCmd
GPIO_Init
USART_Init
NVIC_PriorityGroupConfig
NVIC_Init
USART_ITConfig
USART_Cmd
RCC_APB1PeriphClockCmd
USART_SendData
USART_GetFlagStatus
