ARM GAS  G:\Users\Jaxb\AppData\Local\Temp\ccHarggN.s 			page 1


   1              		.cpu cortex-m3
   2              		.eabi_attribute 20, 1
   3              		.eabi_attribute 21, 1
   4              		.eabi_attribute 23, 3
   5              		.eabi_attribute 24, 1
   6              		.eabi_attribute 25, 1
   7              		.eabi_attribute 26, 1
   8              		.eabi_attribute 30, 6
   9              		.eabi_attribute 34, 1
  10              		.eabi_attribute 18, 4
  11              		.file	"bsp_led.c"
  12              		.text
  13              	.Ltext0:
  14              		.cfi_sections	.debug_frame
  15              		.align	1
  16              		.global	LED_GPIO_Config
  17              		.syntax unified
  18              		.thumb
  19              		.thumb_func
  20              		.fpu softvfp
  21              		.type	LED_GPIO_Config, %function
  22              	LED_GPIO_Config:
  23              	.LFB29:
  24              		.file 1 "../../source/user/bsp_led.c"
   1:../../source/user/bsp_led.c **** /**
   2:../../source/user/bsp_led.c ****   ******************************************************************************
   3:../../source/user/bsp_led.c ****   * @file    bsp_led.c
   4:../../source/user/bsp_led.c ****   * @author  fire
   5:../../source/user/bsp_led.c ****   * @version V1.0
   6:../../source/user/bsp_led.c ****   * @date    2013-xx-xx
   7:../../source/user/bsp_led.c ****   * @brief   led应用函数接口
   8:../../source/user/bsp_led.c ****   ******************************************************************************
   9:../../source/user/bsp_led.c ****   * @attention
  10:../../source/user/bsp_led.c ****   *
  11:../../source/user/bsp_led.c ****   * 实验平台:秉火 F103-霸道 STM32 开发板 
  12:../../source/user/bsp_led.c ****   * 论坛    :http://www.firebbs.cn
  13:../../source/user/bsp_led.c ****   * 淘宝    :https://fire-stm32.taobao.com
  14:../../source/user/bsp_led.c ****   *
  15:../../source/user/bsp_led.c ****   ******************************************************************************
  16:../../source/user/bsp_led.c ****   */
  17:../../source/user/bsp_led.c ****   
  18:../../source/user/bsp_led.c **** #include "bsp_led.h"   
  19:../../source/user/bsp_led.c **** 
  20:../../source/user/bsp_led.c ****  /**
  21:../../source/user/bsp_led.c ****   * @brief  初始化控制LED的IO
  22:../../source/user/bsp_led.c ****   * @param  无
  23:../../source/user/bsp_led.c ****   * @retval 无
  24:../../source/user/bsp_led.c ****   */
  25:../../source/user/bsp_led.c **** void LED_GPIO_Config(void)
  26:../../source/user/bsp_led.c **** {		
  25              		.loc 1 26 0
  26              		.cfi_startproc
  27              		@ args = 0, pretend = 0, frame = 8
  28              		@ frame_needed = 1, uses_anonymous_args = 0
  29 0000 80B5     		push	{r7, lr}
  30              	.LCFI0:
  31              		.cfi_def_cfa_offset 8
ARM GAS  G:\Users\Jaxb\AppData\Local\Temp\ccHarggN.s 			page 2


  32              		.cfi_offset 7, -8
  33              		.cfi_offset 14, -4
  34 0002 82B0     		sub	sp, sp, #8
  35              	.LCFI1:
  36              		.cfi_def_cfa_offset 16
  37 0004 00AF     		add	r7, sp, #0
  38              	.LCFI2:
  39              		.cfi_def_cfa_register 7
  27:../../source/user/bsp_led.c **** 		/*定义一个GPIO_InitTypeDef类型的结构体*/
  28:../../source/user/bsp_led.c **** 		GPIO_InitTypeDef GPIO_InitStructure;
  29:../../source/user/bsp_led.c **** 
  30:../../source/user/bsp_led.c **** 		/*开启LED相关的GPIO外设时钟*/
  31:../../source/user/bsp_led.c **** 		RCC_APB2PeriphClockCmd( LED1_GPIO_CLK | LED2_GPIO_CLK | LED3_GPIO_CLK, ENABLE);
  40              		.loc 1 31 0
  41 0006 0121     		movs	r1, #1
  42 0008 0820     		movs	r0, #8
  43 000a FFF7FEFF 		bl	RCC_APB2PeriphClockCmd
  32:../../source/user/bsp_led.c **** 		/*选择要控制的GPIO引脚*/
  33:../../source/user/bsp_led.c **** 		GPIO_InitStructure.GPIO_Pin = LED1_GPIO_PIN;	
  44              		.loc 1 33 0
  45 000e 2023     		movs	r3, #32
  46 0010 BB80     		strh	r3, [r7, #4]	@ movhi
  34:../../source/user/bsp_led.c **** 
  35:../../source/user/bsp_led.c **** 		/*设置引脚模式为通用推挽输出*/
  36:../../source/user/bsp_led.c **** 		GPIO_InitStructure.GPIO_Mode = GPIO_Mode_Out_PP;   
  47              		.loc 1 36 0
  48 0012 1023     		movs	r3, #16
  49 0014 FB71     		strb	r3, [r7, #7]
  37:../../source/user/bsp_led.c **** 
  38:../../source/user/bsp_led.c **** 		/*设置引脚速率为50MHz */   
  39:../../source/user/bsp_led.c **** 		GPIO_InitStructure.GPIO_Speed = GPIO_Speed_50MHz; 
  50              		.loc 1 39 0
  51 0016 0323     		movs	r3, #3
  52 0018 BB71     		strb	r3, [r7, #6]
  40:../../source/user/bsp_led.c **** 
  41:../../source/user/bsp_led.c **** 		/*调用库函数，初始化GPIO*/
  42:../../source/user/bsp_led.c **** 		GPIO_Init(LED1_GPIO_PORT, &GPIO_InitStructure);	
  53              		.loc 1 42 0
  54 001a 3B1D     		adds	r3, r7, #4
  55 001c 1946     		mov	r1, r3
  56 001e 1048     		ldr	r0, .L2
  57 0020 FFF7FEFF 		bl	GPIO_Init
  43:../../source/user/bsp_led.c **** 		
  44:../../source/user/bsp_led.c **** 		/*选择要控制的GPIO引脚*/
  45:../../source/user/bsp_led.c **** 		GPIO_InitStructure.GPIO_Pin = LED2_GPIO_PIN;
  58              		.loc 1 45 0
  59 0024 0123     		movs	r3, #1
  60 0026 BB80     		strh	r3, [r7, #4]	@ movhi
  46:../../source/user/bsp_led.c **** 
  47:../../source/user/bsp_led.c **** 		/*调用库函数，初始化GPIO*/
  48:../../source/user/bsp_led.c **** 		GPIO_Init(LED2_GPIO_PORT, &GPIO_InitStructure);
  61              		.loc 1 48 0
  62 0028 3B1D     		adds	r3, r7, #4
  63 002a 1946     		mov	r1, r3
  64 002c 0C48     		ldr	r0, .L2
  65 002e FFF7FEFF 		bl	GPIO_Init
  49:../../source/user/bsp_led.c **** 		
ARM GAS  G:\Users\Jaxb\AppData\Local\Temp\ccHarggN.s 			page 3


  50:../../source/user/bsp_led.c **** 		/*选择要控制的GPIO引脚*/
  51:../../source/user/bsp_led.c **** 		GPIO_InitStructure.GPIO_Pin = LED3_GPIO_PIN;
  66              		.loc 1 51 0
  67 0032 0223     		movs	r3, #2
  68 0034 BB80     		strh	r3, [r7, #4]	@ movhi
  52:../../source/user/bsp_led.c **** 
  53:../../source/user/bsp_led.c **** 		/*调用库函数，初始化GPIOF*/
  54:../../source/user/bsp_led.c **** 		GPIO_Init(LED3_GPIO_PORT, &GPIO_InitStructure);
  69              		.loc 1 54 0
  70 0036 3B1D     		adds	r3, r7, #4
  71 0038 1946     		mov	r1, r3
  72 003a 0948     		ldr	r0, .L2
  73 003c FFF7FEFF 		bl	GPIO_Init
  55:../../source/user/bsp_led.c **** 
  56:../../source/user/bsp_led.c **** 		/* 关闭所有led灯	*/
  57:../../source/user/bsp_led.c **** 		GPIO_ResetBits(LED1_GPIO_PORT, LED1_GPIO_PIN);
  74              		.loc 1 57 0
  75 0040 2021     		movs	r1, #32
  76 0042 0748     		ldr	r0, .L2
  77 0044 FFF7FEFF 		bl	GPIO_ResetBits
  58:../../source/user/bsp_led.c **** 		
  59:../../source/user/bsp_led.c **** 		/* 关闭所有led灯	*/
  60:../../source/user/bsp_led.c **** 		GPIO_SetBits(LED2_GPIO_PORT, LED2_GPIO_PIN);	 
  78              		.loc 1 60 0
  79 0048 0121     		movs	r1, #1
  80 004a 0548     		ldr	r0, .L2
  81 004c FFF7FEFF 		bl	GPIO_SetBits
  61:../../source/user/bsp_led.c ****     
  62:../../source/user/bsp_led.c ****     /* 关闭所有led灯	*/
  63:../../source/user/bsp_led.c **** 		GPIO_SetBits(LED3_GPIO_PORT, LED3_GPIO_PIN);
  82              		.loc 1 63 0
  83 0050 0221     		movs	r1, #2
  84 0052 0348     		ldr	r0, .L2
  85 0054 FFF7FEFF 		bl	GPIO_SetBits
  64:../../source/user/bsp_led.c **** }
  86              		.loc 1 64 0
  87 0058 00BF     		nop
  88 005a 0837     		adds	r7, r7, #8
  89              	.LCFI3:
  90              		.cfi_def_cfa_offset 8
  91 005c BD46     		mov	sp, r7
  92              	.LCFI4:
  93              		.cfi_def_cfa_register 13
  94              		@ sp needed
  95 005e 80BD     		pop	{r7, pc}
  96              	.L3:
  97              		.align	2
  98              	.L2:
  99 0060 000C0140 		.word	1073810432
 100              		.cfi_endproc
 101              	.LFE29:
 102              		.size	LED_GPIO_Config, .-LED_GPIO_Config
 103              	.Letext0:
 104              		.file 2 "f:\\arm\\gcc2018\\arm-none-eabi\\include\\machine\\_default_types.h"
 105              		.file 3 "f:\\arm\\gcc2018\\arm-none-eabi\\include\\sys\\_stdint.h"
 106              		.file 4 "../../source/include/core_cm3.h"
 107              		.file 5 "../../source/include/system_stm32f10x.h"
ARM GAS  G:\Users\Jaxb\AppData\Local\Temp\ccHarggN.s 			page 4


 108              		.file 6 "../../source/include/stm32f10x.h"
 109              		.file 7 "../../source/src/FWlib/inc/stm32f10x_gpio.h"
 110              		.section	.debug_info,"",%progbits
 111              	.Ldebug_info0:
 112 0000 2A020000 		.4byte	0x22a
 113 0004 0200     		.2byte	0x2
 114 0006 00000000 		.4byte	.Ldebug_abbrev0
 115 000a 04       		.byte	0x4
 116 000b 01       		.uleb128 0x1
 117 000c DA010000 		.4byte	.LASF37
 118 0010 0C       		.byte	0xc
 119 0011 8B010000 		.4byte	.LASF38
 120 0015 C9020000 		.4byte	.LASF39
 121 0019 00000000 		.4byte	.Ltext0
 122 001d 64000000 		.4byte	.Letext0
 123 0021 00000000 		.4byte	.Ldebug_line0
 124 0025 02       		.uleb128 0x2
 125 0026 01       		.byte	0x1
 126 0027 06       		.byte	0x6
 127 0028 34010000 		.4byte	.LASF0
 128 002c 02       		.uleb128 0x2
 129 002d 01       		.byte	0x1
 130 002e 08       		.byte	0x8
 131 002f E0000000 		.4byte	.LASF1
 132 0033 02       		.uleb128 0x2
 133 0034 02       		.byte	0x2
 134 0035 05       		.byte	0x5
 135 0036 52000000 		.4byte	.LASF2
 136 003a 03       		.uleb128 0x3
 137 003b EE000000 		.4byte	.LASF5
 138 003f 02       		.byte	0x2
 139 0040 39       		.byte	0x39
 140 0041 45000000 		.4byte	0x45
 141 0045 02       		.uleb128 0x2
 142 0046 02       		.byte	0x2
 143 0047 07       		.byte	0x7
 144 0048 C0000000 		.4byte	.LASF3
 145 004c 02       		.uleb128 0x2
 146 004d 04       		.byte	0x4
 147 004e 05       		.byte	0x5
 148 004f 44000000 		.4byte	.LASF4
 149 0053 03       		.uleb128 0x3
 150 0054 A3000000 		.4byte	.LASF6
 151 0058 02       		.byte	0x2
 152 0059 4F       		.byte	0x4f
 153 005a 5E000000 		.4byte	0x5e
 154 005e 02       		.uleb128 0x2
 155 005f 04       		.byte	0x4
 156 0060 07       		.byte	0x7
 157 0061 AE000000 		.4byte	.LASF7
 158 0065 02       		.uleb128 0x2
 159 0066 08       		.byte	0x8
 160 0067 05       		.byte	0x5
 161 0068 6A010000 		.4byte	.LASF8
 162 006c 02       		.uleb128 0x2
 163 006d 08       		.byte	0x8
 164 006e 07       		.byte	0x7
ARM GAS  G:\Users\Jaxb\AppData\Local\Temp\ccHarggN.s 			page 5


 165 006f 7B000000 		.4byte	.LASF9
 166 0073 04       		.uleb128 0x4
 167 0074 04       		.byte	0x4
 168 0075 05       		.byte	0x5
 169 0076 696E7400 		.ascii	"int\000"
 170 007a 05       		.uleb128 0x5
 171 007b 73000000 		.4byte	0x73
 172 007f 02       		.uleb128 0x2
 173 0080 04       		.byte	0x4
 174 0081 07       		.byte	0x7
 175 0082 0A010000 		.4byte	.LASF10
 176 0086 03       		.uleb128 0x3
 177 0087 B7010000 		.4byte	.LASF11
 178 008b 03       		.byte	0x3
 179 008c 24       		.byte	0x24
 180 008d 3A000000 		.4byte	0x3a
 181 0091 03       		.uleb128 0x3
 182 0092 D1010000 		.4byte	.LASF12
 183 0096 03       		.byte	0x3
 184 0097 30       		.byte	0x30
 185 0098 53000000 		.4byte	0x53
 186 009c 05       		.uleb128 0x5
 187 009d 91000000 		.4byte	0x91
 188 00a1 06       		.uleb128 0x6
 189 00a2 D3000000 		.4byte	.LASF13
 190 00a6 04       		.byte	0x4
 191 00a7 CE06     		.2byte	0x6ce
 192 00a9 7A000000 		.4byte	0x7a
 193 00ad 01       		.byte	0x1
 194 00ae 01       		.byte	0x1
 195 00af 07       		.uleb128 0x7
 196 00b0 A7010000 		.4byte	.LASF14
 197 00b4 05       		.byte	0x5
 198 00b5 35       		.byte	0x35
 199 00b6 91000000 		.4byte	0x91
 200 00ba 01       		.byte	0x1
 201 00bb 01       		.byte	0x1
 202 00bc 08       		.uleb128 0x8
 203 00bd 07       		.byte	0x7
 204 00be 01       		.byte	0x1
 205 00bf 2C000000 		.4byte	0x2c
 206 00c3 06       		.byte	0x6
 207 00c4 0902     		.2byte	0x209
 208 00c6 D7000000 		.4byte	0xd7
 209 00ca 09       		.uleb128 0x9
 210 00cb C1020000 		.4byte	.LASF15
 211 00cf 00       		.byte	0
 212 00d0 09       		.uleb128 0x9
 213 00d1 74000000 		.4byte	.LASF16
 214 00d5 01       		.byte	0x1
 215 00d6 00       		.byte	0
 216 00d7 0A       		.uleb128 0xa
 217 00d8 1C       		.byte	0x1c
 218 00d9 06       		.byte	0x6
 219 00da E903     		.2byte	0x3e9
 220 00dc 4A010000 		.4byte	0x14a
 221 00e0 0B       		.uleb128 0xb
ARM GAS  G:\Users\Jaxb\AppData\Local\Temp\ccHarggN.s 			page 6


 222 00e1 43524C00 		.ascii	"CRL\000"
 223 00e5 06       		.byte	0x6
 224 00e6 EB03     		.2byte	0x3eb
 225 00e8 9C000000 		.4byte	0x9c
 226 00ec 02       		.byte	0x2
 227 00ed 23       		.byte	0x23
 228 00ee 00       		.uleb128 0
 229 00ef 0B       		.uleb128 0xb
 230 00f0 43524800 		.ascii	"CRH\000"
 231 00f4 06       		.byte	0x6
 232 00f5 EC03     		.2byte	0x3ec
 233 00f7 9C000000 		.4byte	0x9c
 234 00fb 02       		.byte	0x2
 235 00fc 23       		.byte	0x23
 236 00fd 04       		.uleb128 0x4
 237 00fe 0B       		.uleb128 0xb
 238 00ff 49445200 		.ascii	"IDR\000"
 239 0103 06       		.byte	0x6
 240 0104 ED03     		.2byte	0x3ed
 241 0106 9C000000 		.4byte	0x9c
 242 010a 02       		.byte	0x2
 243 010b 23       		.byte	0x23
 244 010c 08       		.uleb128 0x8
 245 010d 0B       		.uleb128 0xb
 246 010e 4F445200 		.ascii	"ODR\000"
 247 0112 06       		.byte	0x6
 248 0113 EE03     		.2byte	0x3ee
 249 0115 9C000000 		.4byte	0x9c
 250 0119 02       		.byte	0x2
 251 011a 23       		.byte	0x23
 252 011b 0C       		.uleb128 0xc
 253 011c 0C       		.uleb128 0xc
 254 011d 4D000000 		.4byte	.LASF17
 255 0121 06       		.byte	0x6
 256 0122 EF03     		.2byte	0x3ef
 257 0124 9C000000 		.4byte	0x9c
 258 0128 02       		.byte	0x2
 259 0129 23       		.byte	0x23
 260 012a 10       		.uleb128 0x10
 261 012b 0B       		.uleb128 0xb
 262 012c 42525200 		.ascii	"BRR\000"
 263 0130 06       		.byte	0x6
 264 0131 F003     		.2byte	0x3f0
 265 0133 9C000000 		.4byte	0x9c
 266 0137 02       		.byte	0x2
 267 0138 23       		.byte	0x23
 268 0139 14       		.uleb128 0x14
 269 013a 0C       		.uleb128 0xc
 270 013b 0B000000 		.4byte	.LASF18
 271 013f 06       		.byte	0x6
 272 0140 F103     		.2byte	0x3f1
 273 0142 9C000000 		.4byte	0x9c
 274 0146 02       		.byte	0x2
 275 0147 23       		.byte	0x23
 276 0148 18       		.uleb128 0x18
 277 0149 00       		.byte	0
 278 014a 0D       		.uleb128 0xd
ARM GAS  G:\Users\Jaxb\AppData\Local\Temp\ccHarggN.s 			page 7


 279 014b 17010000 		.4byte	.LASF19
 280 014f 06       		.byte	0x6
 281 0150 F203     		.2byte	0x3f2
 282 0152 D7000000 		.4byte	0xd7
 283 0156 0E       		.uleb128 0xe
 284 0157 07       		.byte	0x7
 285 0158 01       		.byte	0x1
 286 0159 2C000000 		.4byte	0x2c
 287 015d 07       		.byte	0x7
 288 015e 3B       		.byte	0x3b
 289 015f 76010000 		.4byte	0x176
 290 0163 09       		.uleb128 0x9
 291 0164 92000000 		.4byte	.LASF20
 292 0168 01       		.byte	0x1
 293 0169 09       		.uleb128 0x9
 294 016a 24010000 		.4byte	.LASF21
 295 016e 02       		.byte	0x2
 296 016f 09       		.uleb128 0x9
 297 0170 40010000 		.4byte	.LASF22
 298 0174 03       		.byte	0x3
 299 0175 00       		.byte	0
 300 0176 03       		.uleb128 0x3
 301 0177 8E020000 		.4byte	.LASF23
 302 017b 07       		.byte	0x7
 303 017c 3F       		.byte	0x3f
 304 017d 56010000 		.4byte	0x156
 305 0181 0E       		.uleb128 0xe
 306 0182 07       		.byte	0x7
 307 0183 01       		.byte	0x1
 308 0184 2C000000 		.4byte	0x2c
 309 0188 07       		.byte	0x7
 310 0189 48       		.byte	0x48
 311 018a BF010000 		.4byte	0x1bf
 312 018e 09       		.uleb128 0x9
 313 018f 80020000 		.4byte	.LASF24
 314 0193 00       		.byte	0
 315 0194 09       		.uleb128 0x9
 316 0195 10000000 		.4byte	.LASF25
 317 0199 04       		.byte	0x4
 318 019a 09       		.uleb128 0x9
 319 019b 36000000 		.4byte	.LASF26
 320 019f 28       		.byte	0x28
 321 01a0 09       		.uleb128 0x9
 322 01a1 5C000000 		.4byte	.LASF27
 323 01a5 48       		.byte	0x48
 324 01a6 09       		.uleb128 0x9
 325 01a7 F9000000 		.4byte	.LASF28
 326 01ab 14       		.byte	0x14
 327 01ac 09       		.uleb128 0x9
 328 01ad A0020000 		.4byte	.LASF29
 329 01b1 10       		.byte	0x10
 330 01b2 09       		.uleb128 0x9
 331 01b3 26000000 		.4byte	.LASF30
 332 01b7 1C       		.byte	0x1c
 333 01b8 09       		.uleb128 0x9
 334 01b9 51010000 		.4byte	.LASF31
 335 01bd 18       		.byte	0x18
ARM GAS  G:\Users\Jaxb\AppData\Local\Temp\ccHarggN.s 			page 8


 336 01be 00       		.byte	0
 337 01bf 03       		.uleb128 0x3
 338 01c0 F7020000 		.4byte	.LASF32
 339 01c4 07       		.byte	0x7
 340 01c5 50       		.byte	0x50
 341 01c6 81010000 		.4byte	0x181
 342 01ca 0F       		.uleb128 0xf
 343 01cb 04       		.byte	0x4
 344 01cc 07       		.byte	0x7
 345 01cd 5B       		.byte	0x5b
 346 01ce FD010000 		.4byte	0x1fd
 347 01d2 10       		.uleb128 0x10
 348 01d3 61010000 		.4byte	.LASF33
 349 01d7 07       		.byte	0x7
 350 01d8 5D       		.byte	0x5d
 351 01d9 86000000 		.4byte	0x86
 352 01dd 02       		.byte	0x2
 353 01de 23       		.byte	0x23
 354 01df 00       		.uleb128 0
 355 01e0 10       		.uleb128 0x10
 356 01e1 00000000 		.4byte	.LASF34
 357 01e5 07       		.byte	0x7
 358 01e6 60       		.byte	0x60
 359 01e7 76010000 		.4byte	0x176
 360 01eb 02       		.byte	0x2
 361 01ec 23       		.byte	0x23
 362 01ed 02       		.uleb128 0x2
 363 01ee 10       		.uleb128 0x10
 364 01ef 6A000000 		.4byte	.LASF35
 365 01f3 07       		.byte	0x7
 366 01f4 63       		.byte	0x63
 367 01f5 BF010000 		.4byte	0x1bf
 368 01f9 02       		.byte	0x2
 369 01fa 23       		.byte	0x23
 370 01fb 03       		.uleb128 0x3
 371 01fc 00       		.byte	0
 372 01fd 03       		.uleb128 0x3
 373 01fe C0010000 		.4byte	.LASF36
 374 0202 07       		.byte	0x7
 375 0203 65       		.byte	0x65
 376 0204 CA010000 		.4byte	0x1ca
 377 0208 11       		.uleb128 0x11
 378 0209 01       		.byte	0x1
 379 020a B1020000 		.4byte	.LASF40
 380 020e 01       		.byte	0x1
 381 020f 19       		.byte	0x19
 382 0210 01       		.byte	0x1
 383 0211 00000000 		.4byte	.LFB29
 384 0215 64000000 		.4byte	.LFE29
 385 0219 00000000 		.4byte	.LLST0
 386 021d 01       		.byte	0x1
 387 021e 12       		.uleb128 0x12
 388 021f 78010000 		.4byte	.LASF41
 389 0223 01       		.byte	0x1
 390 0224 1C       		.byte	0x1c
 391 0225 FD010000 		.4byte	0x1fd
 392 0229 02       		.byte	0x2
ARM GAS  G:\Users\Jaxb\AppData\Local\Temp\ccHarggN.s 			page 9


 393 022a 91       		.byte	0x91
 394 022b 74       		.sleb128 -12
 395 022c 00       		.byte	0
 396 022d 00       		.byte	0
 397              		.section	.debug_abbrev,"",%progbits
 398              	.Ldebug_abbrev0:
 399 0000 01       		.uleb128 0x1
 400 0001 11       		.uleb128 0x11
 401 0002 01       		.byte	0x1
 402 0003 25       		.uleb128 0x25
 403 0004 0E       		.uleb128 0xe
 404 0005 13       		.uleb128 0x13
 405 0006 0B       		.uleb128 0xb
 406 0007 03       		.uleb128 0x3
 407 0008 0E       		.uleb128 0xe
 408 0009 1B       		.uleb128 0x1b
 409 000a 0E       		.uleb128 0xe
 410 000b 11       		.uleb128 0x11
 411 000c 01       		.uleb128 0x1
 412 000d 12       		.uleb128 0x12
 413 000e 01       		.uleb128 0x1
 414 000f 10       		.uleb128 0x10
 415 0010 06       		.uleb128 0x6
 416 0011 00       		.byte	0
 417 0012 00       		.byte	0
 418 0013 02       		.uleb128 0x2
 419 0014 24       		.uleb128 0x24
 420 0015 00       		.byte	0
 421 0016 0B       		.uleb128 0xb
 422 0017 0B       		.uleb128 0xb
 423 0018 3E       		.uleb128 0x3e
 424 0019 0B       		.uleb128 0xb
 425 001a 03       		.uleb128 0x3
 426 001b 0E       		.uleb128 0xe
 427 001c 00       		.byte	0
 428 001d 00       		.byte	0
 429 001e 03       		.uleb128 0x3
 430 001f 16       		.uleb128 0x16
 431 0020 00       		.byte	0
 432 0021 03       		.uleb128 0x3
 433 0022 0E       		.uleb128 0xe
 434 0023 3A       		.uleb128 0x3a
 435 0024 0B       		.uleb128 0xb
 436 0025 3B       		.uleb128 0x3b
 437 0026 0B       		.uleb128 0xb
 438 0027 49       		.uleb128 0x49
 439 0028 13       		.uleb128 0x13
 440 0029 00       		.byte	0
 441 002a 00       		.byte	0
 442 002b 04       		.uleb128 0x4
 443 002c 24       		.uleb128 0x24
 444 002d 00       		.byte	0
 445 002e 0B       		.uleb128 0xb
 446 002f 0B       		.uleb128 0xb
 447 0030 3E       		.uleb128 0x3e
 448 0031 0B       		.uleb128 0xb
 449 0032 03       		.uleb128 0x3
ARM GAS  G:\Users\Jaxb\AppData\Local\Temp\ccHarggN.s 			page 10


 450 0033 08       		.uleb128 0x8
 451 0034 00       		.byte	0
 452 0035 00       		.byte	0
 453 0036 05       		.uleb128 0x5
 454 0037 35       		.uleb128 0x35
 455 0038 00       		.byte	0
 456 0039 49       		.uleb128 0x49
 457 003a 13       		.uleb128 0x13
 458 003b 00       		.byte	0
 459 003c 00       		.byte	0
 460 003d 06       		.uleb128 0x6
 461 003e 34       		.uleb128 0x34
 462 003f 00       		.byte	0
 463 0040 03       		.uleb128 0x3
 464 0041 0E       		.uleb128 0xe
 465 0042 3A       		.uleb128 0x3a
 466 0043 0B       		.uleb128 0xb
 467 0044 3B       		.uleb128 0x3b
 468 0045 05       		.uleb128 0x5
 469 0046 49       		.uleb128 0x49
 470 0047 13       		.uleb128 0x13
 471 0048 3F       		.uleb128 0x3f
 472 0049 0C       		.uleb128 0xc
 473 004a 3C       		.uleb128 0x3c
 474 004b 0C       		.uleb128 0xc
 475 004c 00       		.byte	0
 476 004d 00       		.byte	0
 477 004e 07       		.uleb128 0x7
 478 004f 34       		.uleb128 0x34
 479 0050 00       		.byte	0
 480 0051 03       		.uleb128 0x3
 481 0052 0E       		.uleb128 0xe
 482 0053 3A       		.uleb128 0x3a
 483 0054 0B       		.uleb128 0xb
 484 0055 3B       		.uleb128 0x3b
 485 0056 0B       		.uleb128 0xb
 486 0057 49       		.uleb128 0x49
 487 0058 13       		.uleb128 0x13
 488 0059 3F       		.uleb128 0x3f
 489 005a 0C       		.uleb128 0xc
 490 005b 3C       		.uleb128 0x3c
 491 005c 0C       		.uleb128 0xc
 492 005d 00       		.byte	0
 493 005e 00       		.byte	0
 494 005f 08       		.uleb128 0x8
 495 0060 04       		.uleb128 0x4
 496 0061 01       		.byte	0x1
 497 0062 3E       		.uleb128 0x3e
 498 0063 0B       		.uleb128 0xb
 499 0064 0B       		.uleb128 0xb
 500 0065 0B       		.uleb128 0xb
 501 0066 49       		.uleb128 0x49
 502 0067 13       		.uleb128 0x13
 503 0068 3A       		.uleb128 0x3a
 504 0069 0B       		.uleb128 0xb
 505 006a 3B       		.uleb128 0x3b
 506 006b 05       		.uleb128 0x5
ARM GAS  G:\Users\Jaxb\AppData\Local\Temp\ccHarggN.s 			page 11


 507 006c 01       		.uleb128 0x1
 508 006d 13       		.uleb128 0x13
 509 006e 00       		.byte	0
 510 006f 00       		.byte	0
 511 0070 09       		.uleb128 0x9
 512 0071 28       		.uleb128 0x28
 513 0072 00       		.byte	0
 514 0073 03       		.uleb128 0x3
 515 0074 0E       		.uleb128 0xe
 516 0075 1C       		.uleb128 0x1c
 517 0076 0B       		.uleb128 0xb
 518 0077 00       		.byte	0
 519 0078 00       		.byte	0
 520 0079 0A       		.uleb128 0xa
 521 007a 13       		.uleb128 0x13
 522 007b 01       		.byte	0x1
 523 007c 0B       		.uleb128 0xb
 524 007d 0B       		.uleb128 0xb
 525 007e 3A       		.uleb128 0x3a
 526 007f 0B       		.uleb128 0xb
 527 0080 3B       		.uleb128 0x3b
 528 0081 05       		.uleb128 0x5
 529 0082 01       		.uleb128 0x1
 530 0083 13       		.uleb128 0x13
 531 0084 00       		.byte	0
 532 0085 00       		.byte	0
 533 0086 0B       		.uleb128 0xb
 534 0087 0D       		.uleb128 0xd
 535 0088 00       		.byte	0
 536 0089 03       		.uleb128 0x3
 537 008a 08       		.uleb128 0x8
 538 008b 3A       		.uleb128 0x3a
 539 008c 0B       		.uleb128 0xb
 540 008d 3B       		.uleb128 0x3b
 541 008e 05       		.uleb128 0x5
 542 008f 49       		.uleb128 0x49
 543 0090 13       		.uleb128 0x13
 544 0091 38       		.uleb128 0x38
 545 0092 0A       		.uleb128 0xa
 546 0093 00       		.byte	0
 547 0094 00       		.byte	0
 548 0095 0C       		.uleb128 0xc
 549 0096 0D       		.uleb128 0xd
 550 0097 00       		.byte	0
 551 0098 03       		.uleb128 0x3
 552 0099 0E       		.uleb128 0xe
 553 009a 3A       		.uleb128 0x3a
 554 009b 0B       		.uleb128 0xb
 555 009c 3B       		.uleb128 0x3b
 556 009d 05       		.uleb128 0x5
 557 009e 49       		.uleb128 0x49
 558 009f 13       		.uleb128 0x13
 559 00a0 38       		.uleb128 0x38
 560 00a1 0A       		.uleb128 0xa
 561 00a2 00       		.byte	0
 562 00a3 00       		.byte	0
 563 00a4 0D       		.uleb128 0xd
ARM GAS  G:\Users\Jaxb\AppData\Local\Temp\ccHarggN.s 			page 12


 564 00a5 16       		.uleb128 0x16
 565 00a6 00       		.byte	0
 566 00a7 03       		.uleb128 0x3
 567 00a8 0E       		.uleb128 0xe
 568 00a9 3A       		.uleb128 0x3a
 569 00aa 0B       		.uleb128 0xb
 570 00ab 3B       		.uleb128 0x3b
 571 00ac 05       		.uleb128 0x5
 572 00ad 49       		.uleb128 0x49
 573 00ae 13       		.uleb128 0x13
 574 00af 00       		.byte	0
 575 00b0 00       		.byte	0
 576 00b1 0E       		.uleb128 0xe
 577 00b2 04       		.uleb128 0x4
 578 00b3 01       		.byte	0x1
 579 00b4 3E       		.uleb128 0x3e
 580 00b5 0B       		.uleb128 0xb
 581 00b6 0B       		.uleb128 0xb
 582 00b7 0B       		.uleb128 0xb
 583 00b8 49       		.uleb128 0x49
 584 00b9 13       		.uleb128 0x13
 585 00ba 3A       		.uleb128 0x3a
 586 00bb 0B       		.uleb128 0xb
 587 00bc 3B       		.uleb128 0x3b
 588 00bd 0B       		.uleb128 0xb
 589 00be 01       		.uleb128 0x1
 590 00bf 13       		.uleb128 0x13
 591 00c0 00       		.byte	0
 592 00c1 00       		.byte	0
 593 00c2 0F       		.uleb128 0xf
 594 00c3 13       		.uleb128 0x13
 595 00c4 01       		.byte	0x1
 596 00c5 0B       		.uleb128 0xb
 597 00c6 0B       		.uleb128 0xb
 598 00c7 3A       		.uleb128 0x3a
 599 00c8 0B       		.uleb128 0xb
 600 00c9 3B       		.uleb128 0x3b
 601 00ca 0B       		.uleb128 0xb
 602 00cb 01       		.uleb128 0x1
 603 00cc 13       		.uleb128 0x13
 604 00cd 00       		.byte	0
 605 00ce 00       		.byte	0
 606 00cf 10       		.uleb128 0x10
 607 00d0 0D       		.uleb128 0xd
 608 00d1 00       		.byte	0
 609 00d2 03       		.uleb128 0x3
 610 00d3 0E       		.uleb128 0xe
 611 00d4 3A       		.uleb128 0x3a
 612 00d5 0B       		.uleb128 0xb
 613 00d6 3B       		.uleb128 0x3b
 614 00d7 0B       		.uleb128 0xb
 615 00d8 49       		.uleb128 0x49
 616 00d9 13       		.uleb128 0x13
 617 00da 38       		.uleb128 0x38
 618 00db 0A       		.uleb128 0xa
 619 00dc 00       		.byte	0
 620 00dd 00       		.byte	0
ARM GAS  G:\Users\Jaxb\AppData\Local\Temp\ccHarggN.s 			page 13


 621 00de 11       		.uleb128 0x11
 622 00df 2E       		.uleb128 0x2e
 623 00e0 01       		.byte	0x1
 624 00e1 3F       		.uleb128 0x3f
 625 00e2 0C       		.uleb128 0xc
 626 00e3 03       		.uleb128 0x3
 627 00e4 0E       		.uleb128 0xe
 628 00e5 3A       		.uleb128 0x3a
 629 00e6 0B       		.uleb128 0xb
 630 00e7 3B       		.uleb128 0x3b
 631 00e8 0B       		.uleb128 0xb
 632 00e9 27       		.uleb128 0x27
 633 00ea 0C       		.uleb128 0xc
 634 00eb 11       		.uleb128 0x11
 635 00ec 01       		.uleb128 0x1
 636 00ed 12       		.uleb128 0x12
 637 00ee 01       		.uleb128 0x1
 638 00ef 40       		.uleb128 0x40
 639 00f0 06       		.uleb128 0x6
 640 00f1 9642     		.uleb128 0x2116
 641 00f3 0C       		.uleb128 0xc
 642 00f4 00       		.byte	0
 643 00f5 00       		.byte	0
 644 00f6 12       		.uleb128 0x12
 645 00f7 34       		.uleb128 0x34
 646 00f8 00       		.byte	0
 647 00f9 03       		.uleb128 0x3
 648 00fa 0E       		.uleb128 0xe
 649 00fb 3A       		.uleb128 0x3a
 650 00fc 0B       		.uleb128 0xb
 651 00fd 3B       		.uleb128 0x3b
 652 00fe 0B       		.uleb128 0xb
 653 00ff 49       		.uleb128 0x49
 654 0100 13       		.uleb128 0x13
 655 0101 02       		.uleb128 0x2
 656 0102 0A       		.uleb128 0xa
 657 0103 00       		.byte	0
 658 0104 00       		.byte	0
 659 0105 00       		.byte	0
 660              		.section	.debug_loc,"",%progbits
 661              	.Ldebug_loc0:
 662              	.LLST0:
 663 0000 00000000 		.4byte	.LFB29-.Ltext0
 664 0004 02000000 		.4byte	.LCFI0-.Ltext0
 665 0008 0200     		.2byte	0x2
 666 000a 7D       		.byte	0x7d
 667 000b 00       		.sleb128 0
 668 000c 02000000 		.4byte	.LCFI0-.Ltext0
 669 0010 04000000 		.4byte	.LCFI1-.Ltext0
 670 0014 0200     		.2byte	0x2
 671 0016 7D       		.byte	0x7d
 672 0017 08       		.sleb128 8
 673 0018 04000000 		.4byte	.LCFI1-.Ltext0
 674 001c 06000000 		.4byte	.LCFI2-.Ltext0
 675 0020 0200     		.2byte	0x2
 676 0022 7D       		.byte	0x7d
 677 0023 10       		.sleb128 16
ARM GAS  G:\Users\Jaxb\AppData\Local\Temp\ccHarggN.s 			page 14


 678 0024 06000000 		.4byte	.LCFI2-.Ltext0
 679 0028 5C000000 		.4byte	.LCFI3-.Ltext0
 680 002c 0200     		.2byte	0x2
 681 002e 77       		.byte	0x77
 682 002f 10       		.sleb128 16
 683 0030 5C000000 		.4byte	.LCFI3-.Ltext0
 684 0034 5E000000 		.4byte	.LCFI4-.Ltext0
 685 0038 0200     		.2byte	0x2
 686 003a 77       		.byte	0x77
 687 003b 08       		.sleb128 8
 688 003c 5E000000 		.4byte	.LCFI4-.Ltext0
 689 0040 64000000 		.4byte	.LFE29-.Ltext0
 690 0044 0200     		.2byte	0x2
 691 0046 7D       		.byte	0x7d
 692 0047 08       		.sleb128 8
 693 0048 00000000 		.4byte	0
 694 004c 00000000 		.4byte	0
 695              		.section	.debug_aranges,"",%progbits
 696 0000 1C000000 		.4byte	0x1c
 697 0004 0200     		.2byte	0x2
 698 0006 00000000 		.4byte	.Ldebug_info0
 699 000a 04       		.byte	0x4
 700 000b 00       		.byte	0
 701 000c 0000     		.2byte	0
 702 000e 0000     		.2byte	0
 703 0010 00000000 		.4byte	.Ltext0
 704 0014 64000000 		.4byte	.Letext0-.Ltext0
 705 0018 00000000 		.4byte	0
 706 001c 00000000 		.4byte	0
 707              		.section	.debug_line,"",%progbits
 708              	.Ldebug_line0:
 709 0000 42010000 		.section	.debug_str,"MS",%progbits,1
 709      02002001 
 709      00000201 
 709      FB0E0D00 
 709      01010101 
 710              	.LASF34:
 711 0000 4750494F 		.ascii	"GPIO_Speed\000"
 711      5F537065 
 711      656400
 712              	.LASF18:
 713 000b 4C434B52 		.ascii	"LCKR\000"
 713      00
 714              	.LASF25:
 715 0010 4750494F 		.ascii	"GPIO_Mode_IN_FLOATING\000"
 715      5F4D6F64 
 715      655F494E 
 715      5F464C4F 
 715      4154494E 
 716              	.LASF30:
 717 0026 4750494F 		.ascii	"GPIO_Mode_AF_OD\000"
 717      5F4D6F64 
 717      655F4146 
 717      5F4F4400 
 718              	.LASF26:
 719 0036 4750494F 		.ascii	"GPIO_Mode_IPD\000"
 719      5F4D6F64 
ARM GAS  G:\Users\Jaxb\AppData\Local\Temp\ccHarggN.s 			page 15


 719      655F4950 
 719      4400
 720              	.LASF4:
 721 0044 6C6F6E67 		.ascii	"long int\000"
 721      20696E74 
 721      00
 722              	.LASF17:
 723 004d 42535252 		.ascii	"BSRR\000"
 723      00
 724              	.LASF2:
 725 0052 73686F72 		.ascii	"short int\000"
 725      7420696E 
 725      7400
 726              	.LASF27:
 727 005c 4750494F 		.ascii	"GPIO_Mode_IPU\000"
 727      5F4D6F64 
 727      655F4950 
 727      5500
 728              	.LASF35:
 729 006a 4750494F 		.ascii	"GPIO_Mode\000"
 729      5F4D6F64 
 729      6500
 730              	.LASF16:
 731 0074 454E4142 		.ascii	"ENABLE\000"
 731      4C4500
 732              	.LASF9:
 733 007b 6C6F6E67 		.ascii	"long long unsigned int\000"
 733      206C6F6E 
 733      6720756E 
 733      7369676E 
 733      65642069 
 734              	.LASF20:
 735 0092 4750494F 		.ascii	"GPIO_Speed_10MHz\000"
 735      5F537065 
 735      65645F31 
 735      304D487A 
 735      00
 736              	.LASF6:
 737 00a3 5F5F7569 		.ascii	"__uint32_t\000"
 737      6E743332 
 737      5F7400
 738              	.LASF7:
 739 00ae 6C6F6E67 		.ascii	"long unsigned int\000"
 739      20756E73 
 739      69676E65 
 739      6420696E 
 739      7400
 740              	.LASF3:
 741 00c0 73686F72 		.ascii	"short unsigned int\000"
 741      7420756E 
 741      7369676E 
 741      65642069 
 741      6E7400
 742              	.LASF13:
 743 00d3 49544D5F 		.ascii	"ITM_RxBuffer\000"
 743      52784275 
 743      66666572 
ARM GAS  G:\Users\Jaxb\AppData\Local\Temp\ccHarggN.s 			page 16


 743      00
 744              	.LASF1:
 745 00e0 756E7369 		.ascii	"unsigned char\000"
 745      676E6564 
 745      20636861 
 745      7200
 746              	.LASF5:
 747 00ee 5F5F7569 		.ascii	"__uint16_t\000"
 747      6E743136 
 747      5F7400
 748              	.LASF28:
 749 00f9 4750494F 		.ascii	"GPIO_Mode_Out_OD\000"
 749      5F4D6F64 
 749      655F4F75 
 749      745F4F44 
 749      00
 750              	.LASF10:
 751 010a 756E7369 		.ascii	"unsigned int\000"
 751      676E6564 
 751      20696E74 
 751      00
 752              	.LASF19:
 753 0117 4750494F 		.ascii	"GPIO_TypeDef\000"
 753      5F547970 
 753      65446566 
 753      00
 754              	.LASF21:
 755 0124 4750494F 		.ascii	"GPIO_Speed_2MHz\000"
 755      5F537065 
 755      65645F32 
 755      4D487A00 
 756              	.LASF0:
 757 0134 7369676E 		.ascii	"signed char\000"
 757      65642063 
 757      68617200 
 758              	.LASF22:
 759 0140 4750494F 		.ascii	"GPIO_Speed_50MHz\000"
 759      5F537065 
 759      65645F35 
 759      304D487A 
 759      00
 760              	.LASF31:
 761 0151 4750494F 		.ascii	"GPIO_Mode_AF_PP\000"
 761      5F4D6F64 
 761      655F4146 
 761      5F505000 
 762              	.LASF33:
 763 0161 4750494F 		.ascii	"GPIO_Pin\000"
 763      5F50696E 
 763      00
 764              	.LASF8:
 765 016a 6C6F6E67 		.ascii	"long long int\000"
 765      206C6F6E 
 765      6720696E 
 765      7400
 766              	.LASF41:
 767 0178 4750494F 		.ascii	"GPIO_InitStructure\000"
ARM GAS  G:\Users\Jaxb\AppData\Local\Temp\ccHarggN.s 			page 17


 767      5F496E69 
 767      74537472 
 767      75637475 
 767      726500
 768              	.LASF38:
 769 018b 2E2E2F2E 		.ascii	"../../source/user/bsp_led.c\000"
 769      2E2F736F 
 769      75726365 
 769      2F757365 
 769      722F6273 
 770              	.LASF14:
 771 01a7 53797374 		.ascii	"SystemCoreClock\000"
 771      656D436F 
 771      7265436C 
 771      6F636B00 
 772              	.LASF11:
 773 01b7 75696E74 		.ascii	"uint16_t\000"
 773      31365F74 
 773      00
 774              	.LASF36:
 775 01c0 4750494F 		.ascii	"GPIO_InitTypeDef\000"
 775      5F496E69 
 775      74547970 
 775      65446566 
 775      00
 776              	.LASF12:
 777 01d1 75696E74 		.ascii	"uint32_t\000"
 777      33325F74 
 777      00
 778              	.LASF37:
 779 01da 474E5520 		.ascii	"GNU C11 7.3.1 20180622 (release) [ARM/embedded-7-br"
 779      43313120 
 779      372E332E 
 779      31203230 
 779      31383036 
 780 020d 616E6368 		.ascii	"anch revision 261907] -mcpu=cortex-m3 -mthumb -mapc"
 780      20726576 
 780      6973696F 
 780      6E203236 
 780      31393037 
 781 0240 732D6672 		.ascii	"s-frame -mthumb-interwork -mcpu=cortex-m3 -mthumb -"
 781      616D6520 
 781      2D6D7468 
 781      756D622D 
 781      696E7465 
 782 0273 67647761 		.ascii	"gdwarf-2 -O0\000"
 782      72662D32 
 782      202D4F30 
 782      00
 783              	.LASF24:
 784 0280 4750494F 		.ascii	"GPIO_Mode_AIN\000"
 784      5F4D6F64 
 784      655F4149 
 784      4E00
 785              	.LASF23:
 786 028e 4750494F 		.ascii	"GPIOSpeed_TypeDef\000"
 786      53706565 
ARM GAS  G:\Users\Jaxb\AppData\Local\Temp\ccHarggN.s 			page 18


 786      645F5479 
 786      70654465 
 786      6600
 787              	.LASF29:
 788 02a0 4750494F 		.ascii	"GPIO_Mode_Out_PP\000"
 788      5F4D6F64 
 788      655F4F75 
 788      745F5050 
 788      00
 789              	.LASF40:
 790 02b1 4C45445F 		.ascii	"LED_GPIO_Config\000"
 790      4750494F 
 790      5F436F6E 
 790      66696700 
 791              	.LASF15:
 792 02c1 44495341 		.ascii	"DISABLE\000"
 792      424C4500 
 793              	.LASF39:
 794 02c9 463A5C6B 		.ascii	"F:\\kaka\\KAKAOS\\C\\windows\\Project\\RVMDK\243\250"
 794      616B615C 
 794      4B414B41 
 794      4F535C43 
 794      5C77696E 
 795 02f1 757635A3 		.ascii	"uv5\243\251\000"
 795      A900
 796              	.LASF32:
 797 02f7 4750494F 		.ascii	"GPIOMode_TypeDef\000"
 797      4D6F6465 
 797      5F547970 
 797      65446566 
 797      00
 798              		.ident	"GCC: (GNU Tools for Arm Embedded Processors 7-2018-q2-update) 7.3.1 20180622 (release) [AR
ARM GAS  G:\Users\Jaxb\AppData\Local\Temp\ccHarggN.s 			page 19


DEFINED SYMBOLS
                            *ABS*:00000000 bsp_led.c
G:\Users\Jaxb\AppData\Local\Temp\ccHarggN.s:15     .text:00000000 $t
G:\Users\Jaxb\AppData\Local\Temp\ccHarggN.s:22     .text:00000000 LED_GPIO_Config
G:\Users\Jaxb\AppData\Local\Temp\ccHarggN.s:99     .text:00000060 $d

UNDEFINED SYMBOLS
RCC_APB2PeriphClockCmd
GPIO_Init
GPIO_ResetBits
GPIO_SetBits
