ARM GAS  G:\Users\Jaxb\AppData\Local\Temp\cckkjhcO.s 			page 1


   1              		.cpu cortex-m3
   2              		.eabi_attribute 20, 1
   3              		.eabi_attribute 21, 1
   4              		.eabi_attribute 23, 3
   5              		.eabi_attribute 24, 1
   6              		.eabi_attribute 25, 1
   7              		.eabi_attribute 26, 1
   8              		.eabi_attribute 30, 2
   9              		.eabi_attribute 34, 1
  10              		.eabi_attribute 18, 4
  11              		.file	"bsp_led.c"
  12              		.text
  13              	.Ltext0:
  14              		.cfi_sections	.debug_frame
  15              		.align	1
  16              		.p2align 2,,3
  17              		.global	LED_GPIO_Config
  18              		.syntax unified
  19              		.thumb
  20              		.thumb_func
  21              		.fpu softvfp
  22              		.type	LED_GPIO_Config, %function
  23              	LED_GPIO_Config:
  24              	.LFB29:
  25              		.file 1 "../../source/main/bsp_led.c"
   1:../../source/main/bsp_led.c **** /**
   2:../../source/main/bsp_led.c ****   ******************************************************************************
   3:../../source/main/bsp_led.c ****   * @file    bsp_led.c
   4:../../source/main/bsp_led.c ****   * @author  fire
   5:../../source/main/bsp_led.c ****   * @version V1.0
   6:../../source/main/bsp_led.c ****   * @date    2013-xx-xx
   7:../../source/main/bsp_led.c ****   * @brief   led应用函数接口
   8:../../source/main/bsp_led.c ****   ******************************************************************************
   9:../../source/main/bsp_led.c ****   * @attention
  10:../../source/main/bsp_led.c ****   *
  11:../../source/main/bsp_led.c ****   * 实验平台:秉火 F103-霸道 STM32 开发板 
  12:../../source/main/bsp_led.c ****   * 论坛    :http://www.firebbs.cn
  13:../../source/main/bsp_led.c ****   * 淘宝    :https://fire-stm32.taobao.com
  14:../../source/main/bsp_led.c ****   *
  15:../../source/main/bsp_led.c ****   ******************************************************************************
  16:../../source/main/bsp_led.c ****   */
  17:../../source/main/bsp_led.c ****   
  18:../../source/main/bsp_led.c **** #include "bsp_led.h"   
  19:../../source/main/bsp_led.c **** 
  20:../../source/main/bsp_led.c ****  /**
  21:../../source/main/bsp_led.c ****   * @brief  初始化控制LED的IO
  22:../../source/main/bsp_led.c ****   * @param  无
  23:../../source/main/bsp_led.c ****   * @retval 无
  24:../../source/main/bsp_led.c ****   */
  25:../../source/main/bsp_led.c **** void LED_GPIO_Config(void)
  26:../../source/main/bsp_led.c **** {		
  26              		.loc 1 26 0
  27              		.cfi_startproc
  28              		@ args = 0, pretend = 0, frame = 8
  29              		@ frame_needed = 0, uses_anonymous_args = 0
  30 0000 F0B5     		push	{r4, r5, r6, r7, lr}
  31              	.LCFI0:
ARM GAS  G:\Users\Jaxb\AppData\Local\Temp\cckkjhcO.s 			page 2


  32              		.cfi_def_cfa_offset 20
  33              		.cfi_offset 4, -20
  34              		.cfi_offset 5, -16
  35              		.cfi_offset 6, -12
  36              		.cfi_offset 7, -8
  37              		.cfi_offset 14, -4
  27:../../source/main/bsp_led.c **** 		/*定义一个GPIO_InitTypeDef类型的结构体*/
  28:../../source/main/bsp_led.c **** 		GPIO_InitTypeDef GPIO_InitStructure;
  29:../../source/main/bsp_led.c **** 
  30:../../source/main/bsp_led.c **** 		/*开启LED相关的GPIO外设时钟*/
  31:../../source/main/bsp_led.c **** 		RCC_APB2PeriphClockCmd( LED1_GPIO_CLK | LED2_GPIO_CLK | LED3_GPIO_CLK, ENABLE);
  38              		.loc 1 31 0
  39 0002 0121     		movs	r1, #1
  26:../../source/main/bsp_led.c **** 		/*定义一个GPIO_InitTypeDef类型的结构体*/
  40              		.loc 1 26 0
  41 0004 83B0     		sub	sp, sp, #12
  42              	.LCFI1:
  43              		.cfi_def_cfa_offset 32
  44              		.loc 1 31 0
  45 0006 0820     		movs	r0, #8
  46 0008 FFF7FEFF 		bl	RCC_APB2PeriphClockCmd
  47              	.LVL0:
  32:../../source/main/bsp_led.c **** 		/*选择要控制的GPIO引脚*/
  33:../../source/main/bsp_led.c **** 		GPIO_InitStructure.GPIO_Pin = LED1_GPIO_PIN;	
  48              		.loc 1 33 0
  49 000c 2027     		movs	r7, #32
  34:../../source/main/bsp_led.c **** 
  35:../../source/main/bsp_led.c **** 		/*设置引脚模式为通用推挽输出*/
  36:../../source/main/bsp_led.c **** 		GPIO_InitStructure.GPIO_Mode = GPIO_Mode_Out_PP;   
  50              		.loc 1 36 0
  51 000e 1022     		movs	r2, #16
  37:../../source/main/bsp_led.c **** 
  38:../../source/main/bsp_led.c **** 		/*设置引脚速率为50MHz */   
  39:../../source/main/bsp_led.c **** 		GPIO_InitStructure.GPIO_Speed = GPIO_Speed_50MHz; 
  52              		.loc 1 39 0
  53 0010 0323     		movs	r3, #3
  40:../../source/main/bsp_led.c **** 
  41:../../source/main/bsp_led.c **** 		/*调用库函数，初始化GPIO*/
  42:../../source/main/bsp_led.c **** 		GPIO_Init(LED1_GPIO_PORT, &GPIO_InitStructure);	
  43:../../source/main/bsp_led.c **** 		
  44:../../source/main/bsp_led.c **** 		/*选择要控制的GPIO引脚*/
  45:../../source/main/bsp_led.c **** 		GPIO_InitStructure.GPIO_Pin = LED2_GPIO_PIN;
  54              		.loc 1 45 0
  55 0012 0126     		movs	r6, #1
  46:../../source/main/bsp_led.c **** 
  47:../../source/main/bsp_led.c **** 		/*调用库函数，初始化GPIO*/
  48:../../source/main/bsp_led.c **** 		GPIO_Init(LED2_GPIO_PORT, &GPIO_InitStructure);
  49:../../source/main/bsp_led.c **** 		
  50:../../source/main/bsp_led.c **** 		/*选择要控制的GPIO引脚*/
  51:../../source/main/bsp_led.c **** 		GPIO_InitStructure.GPIO_Pin = LED3_GPIO_PIN;
  56              		.loc 1 51 0
  57 0014 0225     		movs	r5, #2
  42:../../source/main/bsp_led.c **** 		
  58              		.loc 1 42 0
  59 0016 124C     		ldr	r4, .L3
  60 0018 01A9     		add	r1, sp, #4
  61 001a 2046     		mov	r0, r4
ARM GAS  G:\Users\Jaxb\AppData\Local\Temp\cckkjhcO.s 			page 3


  36:../../source/main/bsp_led.c **** 
  62              		.loc 1 36 0
  63 001c 8DF80720 		strb	r2, [sp, #7]
  39:../../source/main/bsp_led.c **** 
  64              		.loc 1 39 0
  65 0020 8DF80630 		strb	r3, [sp, #6]
  33:../../source/main/bsp_led.c **** 
  66              		.loc 1 33 0
  67 0024 ADF80470 		strh	r7, [sp, #4]	@ movhi
  42:../../source/main/bsp_led.c **** 		
  68              		.loc 1 42 0
  69 0028 FFF7FEFF 		bl	GPIO_Init
  70              	.LVL1:
  48:../../source/main/bsp_led.c **** 		
  71              		.loc 1 48 0
  72 002c 01A9     		add	r1, sp, #4
  73 002e 2046     		mov	r0, r4
  45:../../source/main/bsp_led.c **** 
  74              		.loc 1 45 0
  75 0030 ADF80460 		strh	r6, [sp, #4]	@ movhi
  48:../../source/main/bsp_led.c **** 		
  76              		.loc 1 48 0
  77 0034 FFF7FEFF 		bl	GPIO_Init
  78              	.LVL2:
  52:../../source/main/bsp_led.c **** 
  53:../../source/main/bsp_led.c **** 		/*调用库函数，初始化GPIOF*/
  54:../../source/main/bsp_led.c **** 		GPIO_Init(LED3_GPIO_PORT, &GPIO_InitStructure);
  79              		.loc 1 54 0
  80 0038 01A9     		add	r1, sp, #4
  81 003a 2046     		mov	r0, r4
  51:../../source/main/bsp_led.c **** 
  82              		.loc 1 51 0
  83 003c ADF80450 		strh	r5, [sp, #4]	@ movhi
  84              		.loc 1 54 0
  85 0040 FFF7FEFF 		bl	GPIO_Init
  86              	.LVL3:
  55:../../source/main/bsp_led.c **** 
  56:../../source/main/bsp_led.c **** 		/* 关闭所有led灯	*/
  57:../../source/main/bsp_led.c **** 		GPIO_ResetBits(LED1_GPIO_PORT, LED1_GPIO_PIN);
  87              		.loc 1 57 0
  88 0044 3946     		mov	r1, r7
  89 0046 2046     		mov	r0, r4
  90 0048 FFF7FEFF 		bl	GPIO_ResetBits
  91              	.LVL4:
  58:../../source/main/bsp_led.c **** 		
  59:../../source/main/bsp_led.c **** 		/* 关闭所有led灯	*/
  60:../../source/main/bsp_led.c **** 		GPIO_SetBits(LED2_GPIO_PORT, LED2_GPIO_PIN);	 
  92              		.loc 1 60 0
  93 004c 3146     		mov	r1, r6
  94 004e 2046     		mov	r0, r4
  95 0050 FFF7FEFF 		bl	GPIO_SetBits
  96              	.LVL5:
  61:../../source/main/bsp_led.c ****     
  62:../../source/main/bsp_led.c ****     /* 关闭所有led灯	*/
  63:../../source/main/bsp_led.c **** 		GPIO_SetBits(LED3_GPIO_PORT, LED3_GPIO_PIN);
  97              		.loc 1 63 0
  98 0054 2946     		mov	r1, r5
ARM GAS  G:\Users\Jaxb\AppData\Local\Temp\cckkjhcO.s 			page 4


  99 0056 2046     		mov	r0, r4
 100 0058 FFF7FEFF 		bl	GPIO_SetBits
 101              	.LVL6:
  64:../../source/main/bsp_led.c **** }
 102              		.loc 1 64 0
 103 005c 03B0     		add	sp, sp, #12
 104              	.LCFI2:
 105              		.cfi_def_cfa_offset 20
 106              		@ sp needed
 107 005e F0BD     		pop	{r4, r5, r6, r7, pc}
 108              	.L4:
 109              		.align	2
 110              	.L3:
 111 0060 000C0140 		.word	1073810432
 112              		.cfi_endproc
 113              	.LFE29:
 114              		.size	LED_GPIO_Config, .-LED_GPIO_Config
 115              	.Letext0:
 116              		.file 2 "f:\\arm\\gcc2018\\arm-none-eabi\\include\\machine\\_default_types.h"
 117              		.file 3 "f:\\arm\\gcc2018\\arm-none-eabi\\include\\sys\\_stdint.h"
 118              		.file 4 "../../source/include/core_cm3.h"
 119              		.file 5 "../../source/include/system_stm32f10x.h"
 120              		.file 6 "../../source/include/stm32f10x.h"
 121              		.file 7 "../../source/src/FWlib/inc/stm32f10x_gpio.h"
 122              		.file 8 "../../source/src/FWlib/inc/stm32f10x_rcc.h"
 123              		.section	.debug_info,"",%progbits
 124              	.Ldebug_info0:
 125 0000 16030000 		.4byte	0x316
 126 0004 0200     		.2byte	0x2
 127 0006 00000000 		.4byte	.Ldebug_abbrev0
 128 000a 04       		.byte	0x4
 129 000b 01       		.uleb128 0x1
 130 000c 37020000 		.4byte	.LASF41
 131 0010 0C       		.byte	0xc
 132 0011 60000000 		.4byte	.LASF42
 133 0015 17030000 		.4byte	.LASF43
 134 0019 00000000 		.4byte	.Ltext0
 135 001d 64000000 		.4byte	.Letext0
 136 0021 00000000 		.4byte	.Ldebug_line0
 137 0025 02       		.uleb128 0x2
 138 0026 01       		.byte	0x1
 139 0027 06       		.byte	0x6
 140 0028 00010000 		.4byte	.LASF0
 141 002c 02       		.uleb128 0x2
 142 002d 01       		.byte	0x1
 143 002e 08       		.byte	0x8
 144 002f 19010000 		.4byte	.LASF1
 145 0033 02       		.uleb128 0x2
 146 0034 02       		.byte	0x2
 147 0035 05       		.byte	0x5
 148 0036 32010000 		.4byte	.LASF2
 149 003a 03       		.uleb128 0x3
 150 003b 27010000 		.4byte	.LASF5
 151 003f 02       		.byte	0x2
 152 0040 39       		.byte	0x39
 153 0041 45000000 		.4byte	0x45
 154 0045 02       		.uleb128 0x2
ARM GAS  G:\Users\Jaxb\AppData\Local\Temp\cckkjhcO.s 			page 5


 155 0046 02       		.byte	0x2
 156 0047 07       		.byte	0x7
 157 0048 ED000000 		.4byte	.LASF3
 158 004c 02       		.uleb128 0x2
 159 004d 04       		.byte	0x4
 160 004e 05       		.byte	0x5
 161 004f 20020000 		.4byte	.LASF4
 162 0053 03       		.uleb128 0x3
 163 0054 D0000000 		.4byte	.LASF6
 164 0058 02       		.byte	0x2
 165 0059 4F       		.byte	0x4f
 166 005a 5E000000 		.4byte	0x5e
 167 005e 02       		.uleb128 0x2
 168 005f 04       		.byte	0x4
 169 0060 07       		.byte	0x7
 170 0061 DB000000 		.4byte	.LASF7
 171 0065 02       		.uleb128 0x2
 172 0066 08       		.byte	0x8
 173 0067 05       		.byte	0x5
 174 0068 C2010000 		.4byte	.LASF8
 175 006c 02       		.uleb128 0x2
 176 006d 08       		.byte	0x8
 177 006e 07       		.byte	0x7
 178 006f A8000000 		.4byte	.LASF9
 179 0073 04       		.uleb128 0x4
 180 0074 04       		.byte	0x4
 181 0075 05       		.byte	0x5
 182 0076 696E7400 		.ascii	"int\000"
 183 007a 05       		.uleb128 0x5
 184 007b 73000000 		.4byte	0x73
 185 007f 02       		.uleb128 0x2
 186 0080 04       		.byte	0x4
 187 0081 07       		.byte	0x7
 188 0082 4E010000 		.4byte	.LASF10
 189 0086 03       		.uleb128 0x3
 190 0087 FD010000 		.4byte	.LASF11
 191 008b 03       		.byte	0x3
 192 008c 24       		.byte	0x24
 193 008d 3A000000 		.4byte	0x3a
 194 0091 03       		.uleb128 0x3
 195 0092 17020000 		.4byte	.LASF12
 196 0096 03       		.byte	0x3
 197 0097 30       		.byte	0x30
 198 0098 53000000 		.4byte	0x53
 199 009c 05       		.uleb128 0x5
 200 009d 91000000 		.4byte	0x91
 201 00a1 06       		.uleb128 0x6
 202 00a2 0C010000 		.4byte	.LASF13
 203 00a6 04       		.byte	0x4
 204 00a7 CE06     		.2byte	0x6ce
 205 00a9 7A000000 		.4byte	0x7a
 206 00ad 01       		.byte	0x1
 207 00ae 01       		.byte	0x1
 208 00af 07       		.uleb128 0x7
 209 00b0 E3010000 		.4byte	.LASF14
 210 00b4 05       		.byte	0x5
 211 00b5 35       		.byte	0x35
ARM GAS  G:\Users\Jaxb\AppData\Local\Temp\cckkjhcO.s 			page 6


 212 00b6 91000000 		.4byte	0x91
 213 00ba 01       		.byte	0x1
 214 00bb 01       		.byte	0x1
 215 00bc 08       		.uleb128 0x8
 216 00bd 07       		.byte	0x7
 217 00be 01       		.byte	0x1
 218 00bf 2C000000 		.4byte	0x2c
 219 00c3 06       		.byte	0x6
 220 00c4 0902     		.2byte	0x209
 221 00c6 D7000000 		.4byte	0xd7
 222 00ca 09       		.uleb128 0x9
 223 00cb FE020000 		.4byte	.LASF15
 224 00cf 00       		.byte	0
 225 00d0 09       		.uleb128 0x9
 226 00d1 A1000000 		.4byte	.LASF16
 227 00d5 01       		.byte	0x1
 228 00d6 00       		.byte	0
 229 00d7 0A       		.uleb128 0xa
 230 00d8 1C       		.byte	0x1c
 231 00d9 06       		.byte	0x6
 232 00da E903     		.2byte	0x3e9
 233 00dc 4A010000 		.4byte	0x14a
 234 00e0 0B       		.uleb128 0xb
 235 00e1 43524C00 		.ascii	"CRL\000"
 236 00e5 06       		.byte	0x6
 237 00e6 EB03     		.2byte	0x3eb
 238 00e8 9C000000 		.4byte	0x9c
 239 00ec 02       		.byte	0x2
 240 00ed 23       		.byte	0x23
 241 00ee 00       		.uleb128 0
 242 00ef 0B       		.uleb128 0xb
 243 00f0 43524800 		.ascii	"CRH\000"
 244 00f4 06       		.byte	0x6
 245 00f5 EC03     		.2byte	0x3ec
 246 00f7 9C000000 		.4byte	0x9c
 247 00fb 02       		.byte	0x2
 248 00fc 23       		.byte	0x23
 249 00fd 04       		.uleb128 0x4
 250 00fe 0B       		.uleb128 0xb
 251 00ff 49445200 		.ascii	"IDR\000"
 252 0103 06       		.byte	0x6
 253 0104 ED03     		.2byte	0x3ed
 254 0106 9C000000 		.4byte	0x9c
 255 010a 02       		.byte	0x2
 256 010b 23       		.byte	0x23
 257 010c 08       		.uleb128 0x8
 258 010d 0B       		.uleb128 0xb
 259 010e 4F445200 		.ascii	"ODR\000"
 260 0112 06       		.byte	0x6
 261 0113 EE03     		.2byte	0x3ee
 262 0115 9C000000 		.4byte	0x9c
 263 0119 02       		.byte	0x2
 264 011a 23       		.byte	0x23
 265 011b 0C       		.uleb128 0xc
 266 011c 0C       		.uleb128 0xc
 267 011d 44000000 		.4byte	.LASF17
 268 0121 06       		.byte	0x6
ARM GAS  G:\Users\Jaxb\AppData\Local\Temp\cckkjhcO.s 			page 7


 269 0122 EF03     		.2byte	0x3ef
 270 0124 9C000000 		.4byte	0x9c
 271 0128 02       		.byte	0x2
 272 0129 23       		.byte	0x23
 273 012a 10       		.uleb128 0x10
 274 012b 0B       		.uleb128 0xb
 275 012c 42525200 		.ascii	"BRR\000"
 276 0130 06       		.byte	0x6
 277 0131 F003     		.2byte	0x3f0
 278 0133 9C000000 		.4byte	0x9c
 279 0137 02       		.byte	0x2
 280 0138 23       		.byte	0x23
 281 0139 14       		.uleb128 0x14
 282 013a 0C       		.uleb128 0xc
 283 013b 0B000000 		.4byte	.LASF18
 284 013f 06       		.byte	0x6
 285 0140 F103     		.2byte	0x3f1
 286 0142 9C000000 		.4byte	0x9c
 287 0146 02       		.byte	0x2
 288 0147 23       		.byte	0x23
 289 0148 18       		.uleb128 0x18
 290 0149 00       		.byte	0
 291 014a 0D       		.uleb128 0xd
 292 014b 7C000000 		.4byte	.LASF19
 293 014f 06       		.byte	0x6
 294 0150 F203     		.2byte	0x3f2
 295 0152 D7000000 		.4byte	0xd7
 296 0156 0E       		.uleb128 0xe
 297 0157 07       		.byte	0x7
 298 0158 01       		.byte	0x1
 299 0159 2C000000 		.4byte	0x2c
 300 015d 07       		.byte	0x7
 301 015e 3B       		.byte	0x3b
 302 015f 76010000 		.4byte	0x176
 303 0163 09       		.uleb128 0x9
 304 0164 BF000000 		.4byte	.LASF20
 305 0168 01       		.byte	0x1
 306 0169 09       		.uleb128 0x9
 307 016a 6A010000 		.4byte	.LASF21
 308 016e 02       		.byte	0x2
 309 016f 09       		.uleb128 0x9
 310 0170 98010000 		.4byte	.LASF22
 311 0174 03       		.byte	0x3
 312 0175 00       		.byte	0
 313 0176 03       		.uleb128 0x3
 314 0177 3C010000 		.4byte	.LASF23
 315 017b 07       		.byte	0x7
 316 017c 3F       		.byte	0x3f
 317 017d 56010000 		.4byte	0x156
 318 0181 0E       		.uleb128 0xe
 319 0182 07       		.byte	0x7
 320 0183 01       		.byte	0x1
 321 0184 2C000000 		.4byte	0x2c
 322 0188 07       		.byte	0x7
 323 0189 48       		.byte	0x48
 324 018a BF010000 		.4byte	0x1bf
 325 018e 09       		.uleb128 0x9
ARM GAS  G:\Users\Jaxb\AppData\Local\Temp\cckkjhcO.s 			page 8


 326 018f 29020000 		.4byte	.LASF24
 327 0193 00       		.byte	0
 328 0194 09       		.uleb128 0x9
 329 0195 10000000 		.4byte	.LASF25
 330 0199 04       		.byte	0x4
 331 019a 09       		.uleb128 0x9
 332 019b 36000000 		.4byte	.LASF26
 333 019f 28       		.byte	0x28
 334 01a0 09       		.uleb128 0x9
 335 01a1 89000000 		.4byte	.LASF27
 336 01a5 48       		.byte	0x48
 337 01a6 09       		.uleb128 0x9
 338 01a7 06030000 		.4byte	.LASF28
 339 01ab 14       		.byte	0x14
 340 01ac 09       		.uleb128 0x9
 341 01ad DD020000 		.4byte	.LASF29
 342 01b1 10       		.byte	0x10
 343 01b2 09       		.uleb128 0x9
 344 01b3 26000000 		.4byte	.LASF30
 345 01b7 1C       		.byte	0x1c
 346 01b8 09       		.uleb128 0x9
 347 01b9 A9010000 		.4byte	.LASF31
 348 01bd 18       		.byte	0x18
 349 01be 00       		.byte	0
 350 01bf 03       		.uleb128 0x3
 351 01c0 7A010000 		.4byte	.LASF32
 352 01c4 07       		.byte	0x7
 353 01c5 50       		.byte	0x50
 354 01c6 81010000 		.4byte	0x181
 355 01ca 0F       		.uleb128 0xf
 356 01cb 04       		.byte	0x4
 357 01cc 07       		.byte	0x7
 358 01cd 5B       		.byte	0x5b
 359 01ce FD010000 		.4byte	0x1fd
 360 01d2 10       		.uleb128 0x10
 361 01d3 B9010000 		.4byte	.LASF33
 362 01d7 07       		.byte	0x7
 363 01d8 5D       		.byte	0x5d
 364 01d9 86000000 		.4byte	0x86
 365 01dd 02       		.byte	0x2
 366 01de 23       		.byte	0x23
 367 01df 00       		.uleb128 0
 368 01e0 10       		.uleb128 0x10
 369 01e1 00000000 		.4byte	.LASF34
 370 01e5 07       		.byte	0x7
 371 01e6 60       		.byte	0x60
 372 01e7 76010000 		.4byte	0x176
 373 01eb 02       		.byte	0x2
 374 01ec 23       		.byte	0x23
 375 01ed 02       		.uleb128 0x2
 376 01ee 10       		.uleb128 0x10
 377 01ef 97000000 		.4byte	.LASF35
 378 01f3 07       		.byte	0x7
 379 01f4 63       		.byte	0x63
 380 01f5 BF010000 		.4byte	0x1bf
 381 01f9 02       		.byte	0x2
 382 01fa 23       		.byte	0x23
ARM GAS  G:\Users\Jaxb\AppData\Local\Temp\cckkjhcO.s 			page 9


 383 01fb 03       		.uleb128 0x3
 384 01fc 00       		.byte	0
 385 01fd 03       		.uleb128 0x3
 386 01fe 06020000 		.4byte	.LASF36
 387 0202 07       		.byte	0x7
 388 0203 65       		.byte	0x65
 389 0204 CA010000 		.4byte	0x1ca
 390 0208 11       		.uleb128 0x11
 391 0209 01       		.byte	0x1
 392 020a EE020000 		.4byte	.LASF44
 393 020e 01       		.byte	0x1
 394 020f 19       		.byte	0x19
 395 0210 01       		.byte	0x1
 396 0211 00000000 		.4byte	.LFB29
 397 0215 64000000 		.4byte	.LFE29
 398 0219 00000000 		.4byte	.LLST0
 399 021d 01       		.byte	0x1
 400 021e E1020000 		.4byte	0x2e1
 401 0222 12       		.uleb128 0x12
 402 0223 D0010000 		.4byte	.LASF45
 403 0227 01       		.byte	0x1
 404 0228 1C       		.byte	0x1c
 405 0229 FD010000 		.4byte	0x1fd
 406 022d 02       		.byte	0x2
 407 022e 91       		.byte	0x91
 408 022f 64       		.sleb128 -28
 409 0230 13       		.uleb128 0x13
 410 0231 0C000000 		.4byte	.LVL0
 411 0235 E1020000 		.4byte	0x2e1
 412 0239 48020000 		.4byte	0x248
 413 023d 14       		.uleb128 0x14
 414 023e 01       		.byte	0x1
 415 023f 50       		.byte	0x50
 416 0240 01       		.byte	0x1
 417 0241 38       		.byte	0x38
 418 0242 14       		.uleb128 0x14
 419 0243 01       		.byte	0x1
 420 0244 51       		.byte	0x51
 421 0245 01       		.byte	0x1
 422 0246 31       		.byte	0x31
 423 0247 00       		.byte	0
 424 0248 13       		.uleb128 0x13
 425 0249 2C000000 		.4byte	.LVL1
 426 024d EF020000 		.4byte	0x2ef
 427 0251 62020000 		.4byte	0x262
 428 0255 14       		.uleb128 0x14
 429 0256 01       		.byte	0x1
 430 0257 50       		.byte	0x50
 431 0258 02       		.byte	0x2
 432 0259 74       		.byte	0x74
 433 025a 00       		.sleb128 0
 434 025b 14       		.uleb128 0x14
 435 025c 01       		.byte	0x1
 436 025d 51       		.byte	0x51
 437 025e 02       		.byte	0x2
 438 025f 91       		.byte	0x91
 439 0260 64       		.sleb128 -28
ARM GAS  G:\Users\Jaxb\AppData\Local\Temp\cckkjhcO.s 			page 10


 440 0261 00       		.byte	0
 441 0262 13       		.uleb128 0x13
 442 0263 38000000 		.4byte	.LVL2
 443 0267 EF020000 		.4byte	0x2ef
 444 026b 7C020000 		.4byte	0x27c
 445 026f 14       		.uleb128 0x14
 446 0270 01       		.byte	0x1
 447 0271 50       		.byte	0x50
 448 0272 02       		.byte	0x2
 449 0273 74       		.byte	0x74
 450 0274 00       		.sleb128 0
 451 0275 14       		.uleb128 0x14
 452 0276 01       		.byte	0x1
 453 0277 51       		.byte	0x51
 454 0278 02       		.byte	0x2
 455 0279 91       		.byte	0x91
 456 027a 64       		.sleb128 -28
 457 027b 00       		.byte	0
 458 027c 13       		.uleb128 0x13
 459 027d 44000000 		.4byte	.LVL3
 460 0281 EF020000 		.4byte	0x2ef
 461 0285 96020000 		.4byte	0x296
 462 0289 14       		.uleb128 0x14
 463 028a 01       		.byte	0x1
 464 028b 50       		.byte	0x50
 465 028c 02       		.byte	0x2
 466 028d 74       		.byte	0x74
 467 028e 00       		.sleb128 0
 468 028f 14       		.uleb128 0x14
 469 0290 01       		.byte	0x1
 470 0291 51       		.byte	0x51
 471 0292 02       		.byte	0x2
 472 0293 91       		.byte	0x91
 473 0294 64       		.sleb128 -28
 474 0295 00       		.byte	0
 475 0296 13       		.uleb128 0x13
 476 0297 4C000000 		.4byte	.LVL4
 477 029b FD020000 		.4byte	0x2fd
 478 029f B0020000 		.4byte	0x2b0
 479 02a3 14       		.uleb128 0x14
 480 02a4 01       		.byte	0x1
 481 02a5 50       		.byte	0x50
 482 02a6 02       		.byte	0x2
 483 02a7 74       		.byte	0x74
 484 02a8 00       		.sleb128 0
 485 02a9 14       		.uleb128 0x14
 486 02aa 01       		.byte	0x1
 487 02ab 51       		.byte	0x51
 488 02ac 02       		.byte	0x2
 489 02ad 77       		.byte	0x77
 490 02ae 00       		.sleb128 0
 491 02af 00       		.byte	0
 492 02b0 13       		.uleb128 0x13
 493 02b1 54000000 		.4byte	.LVL5
 494 02b5 0B030000 		.4byte	0x30b
 495 02b9 CA020000 		.4byte	0x2ca
 496 02bd 14       		.uleb128 0x14
ARM GAS  G:\Users\Jaxb\AppData\Local\Temp\cckkjhcO.s 			page 11


 497 02be 01       		.byte	0x1
 498 02bf 50       		.byte	0x50
 499 02c0 02       		.byte	0x2
 500 02c1 74       		.byte	0x74
 501 02c2 00       		.sleb128 0
 502 02c3 14       		.uleb128 0x14
 503 02c4 01       		.byte	0x1
 504 02c5 51       		.byte	0x51
 505 02c6 02       		.byte	0x2
 506 02c7 76       		.byte	0x76
 507 02c8 00       		.sleb128 0
 508 02c9 00       		.byte	0
 509 02ca 15       		.uleb128 0x15
 510 02cb 5C000000 		.4byte	.LVL6
 511 02cf 0B030000 		.4byte	0x30b
 512 02d3 14       		.uleb128 0x14
 513 02d4 01       		.byte	0x1
 514 02d5 50       		.byte	0x50
 515 02d6 02       		.byte	0x2
 516 02d7 74       		.byte	0x74
 517 02d8 00       		.sleb128 0
 518 02d9 14       		.uleb128 0x14
 519 02da 01       		.byte	0x1
 520 02db 51       		.byte	0x51
 521 02dc 02       		.byte	0x2
 522 02dd 75       		.byte	0x75
 523 02de 00       		.sleb128 0
 524 02df 00       		.byte	0
 525 02e0 00       		.byte	0
 526 02e1 16       		.uleb128 0x16
 527 02e2 01       		.byte	0x1
 528 02e3 01       		.byte	0x1
 529 02e4 49000000 		.4byte	.LASF37
 530 02e8 49000000 		.4byte	.LASF37
 531 02ec 08       		.byte	0x8
 532 02ed B502     		.2byte	0x2b5
 533 02ef 16       		.uleb128 0x16
 534 02f0 01       		.byte	0x1
 535 02f1 01       		.byte	0x1
 536 02f2 F3010000 		.4byte	.LASF38
 537 02f6 F3010000 		.4byte	.LASF38
 538 02fa 07       		.byte	0x7
 539 02fb 5F01     		.2byte	0x15f
 540 02fd 16       		.uleb128 0x16
 541 02fe 01       		.byte	0x1
 542 02ff 01       		.byte	0x1
 543 0300 5B010000 		.4byte	.LASF39
 544 0304 5B010000 		.4byte	.LASF39
 545 0308 07       		.byte	0x7
 546 0309 6601     		.2byte	0x166
 547 030b 16       		.uleb128 0x16
 548 030c 01       		.byte	0x1
 549 030d 01       		.byte	0x1
 550 030e 8B010000 		.4byte	.LASF40
 551 0312 8B010000 		.4byte	.LASF40
 552 0316 07       		.byte	0x7
 553 0317 6501     		.2byte	0x165
ARM GAS  G:\Users\Jaxb\AppData\Local\Temp\cckkjhcO.s 			page 12


 554 0319 00       		.byte	0
 555              		.section	.debug_abbrev,"",%progbits
 556              	.Ldebug_abbrev0:
 557 0000 01       		.uleb128 0x1
 558 0001 11       		.uleb128 0x11
 559 0002 01       		.byte	0x1
 560 0003 25       		.uleb128 0x25
 561 0004 0E       		.uleb128 0xe
 562 0005 13       		.uleb128 0x13
 563 0006 0B       		.uleb128 0xb
 564 0007 03       		.uleb128 0x3
 565 0008 0E       		.uleb128 0xe
 566 0009 1B       		.uleb128 0x1b
 567 000a 0E       		.uleb128 0xe
 568 000b 11       		.uleb128 0x11
 569 000c 01       		.uleb128 0x1
 570 000d 12       		.uleb128 0x12
 571 000e 01       		.uleb128 0x1
 572 000f 10       		.uleb128 0x10
 573 0010 06       		.uleb128 0x6
 574 0011 00       		.byte	0
 575 0012 00       		.byte	0
 576 0013 02       		.uleb128 0x2
 577 0014 24       		.uleb128 0x24
 578 0015 00       		.byte	0
 579 0016 0B       		.uleb128 0xb
 580 0017 0B       		.uleb128 0xb
 581 0018 3E       		.uleb128 0x3e
 582 0019 0B       		.uleb128 0xb
 583 001a 03       		.uleb128 0x3
 584 001b 0E       		.uleb128 0xe
 585 001c 00       		.byte	0
 586 001d 00       		.byte	0
 587 001e 03       		.uleb128 0x3
 588 001f 16       		.uleb128 0x16
 589 0020 00       		.byte	0
 590 0021 03       		.uleb128 0x3
 591 0022 0E       		.uleb128 0xe
 592 0023 3A       		.uleb128 0x3a
 593 0024 0B       		.uleb128 0xb
 594 0025 3B       		.uleb128 0x3b
 595 0026 0B       		.uleb128 0xb
 596 0027 49       		.uleb128 0x49
 597 0028 13       		.uleb128 0x13
 598 0029 00       		.byte	0
 599 002a 00       		.byte	0
 600 002b 04       		.uleb128 0x4
 601 002c 24       		.uleb128 0x24
 602 002d 00       		.byte	0
 603 002e 0B       		.uleb128 0xb
 604 002f 0B       		.uleb128 0xb
 605 0030 3E       		.uleb128 0x3e
 606 0031 0B       		.uleb128 0xb
 607 0032 03       		.uleb128 0x3
 608 0033 08       		.uleb128 0x8
 609 0034 00       		.byte	0
 610 0035 00       		.byte	0
ARM GAS  G:\Users\Jaxb\AppData\Local\Temp\cckkjhcO.s 			page 13


 611 0036 05       		.uleb128 0x5
 612 0037 35       		.uleb128 0x35
 613 0038 00       		.byte	0
 614 0039 49       		.uleb128 0x49
 615 003a 13       		.uleb128 0x13
 616 003b 00       		.byte	0
 617 003c 00       		.byte	0
 618 003d 06       		.uleb128 0x6
 619 003e 34       		.uleb128 0x34
 620 003f 00       		.byte	0
 621 0040 03       		.uleb128 0x3
 622 0041 0E       		.uleb128 0xe
 623 0042 3A       		.uleb128 0x3a
 624 0043 0B       		.uleb128 0xb
 625 0044 3B       		.uleb128 0x3b
 626 0045 05       		.uleb128 0x5
 627 0046 49       		.uleb128 0x49
 628 0047 13       		.uleb128 0x13
 629 0048 3F       		.uleb128 0x3f
 630 0049 0C       		.uleb128 0xc
 631 004a 3C       		.uleb128 0x3c
 632 004b 0C       		.uleb128 0xc
 633 004c 00       		.byte	0
 634 004d 00       		.byte	0
 635 004e 07       		.uleb128 0x7
 636 004f 34       		.uleb128 0x34
 637 0050 00       		.byte	0
 638 0051 03       		.uleb128 0x3
 639 0052 0E       		.uleb128 0xe
 640 0053 3A       		.uleb128 0x3a
 641 0054 0B       		.uleb128 0xb
 642 0055 3B       		.uleb128 0x3b
 643 0056 0B       		.uleb128 0xb
 644 0057 49       		.uleb128 0x49
 645 0058 13       		.uleb128 0x13
 646 0059 3F       		.uleb128 0x3f
 647 005a 0C       		.uleb128 0xc
 648 005b 3C       		.uleb128 0x3c
 649 005c 0C       		.uleb128 0xc
 650 005d 00       		.byte	0
 651 005e 00       		.byte	0
 652 005f 08       		.uleb128 0x8
 653 0060 04       		.uleb128 0x4
 654 0061 01       		.byte	0x1
 655 0062 3E       		.uleb128 0x3e
 656 0063 0B       		.uleb128 0xb
 657 0064 0B       		.uleb128 0xb
 658 0065 0B       		.uleb128 0xb
 659 0066 49       		.uleb128 0x49
 660 0067 13       		.uleb128 0x13
 661 0068 3A       		.uleb128 0x3a
 662 0069 0B       		.uleb128 0xb
 663 006a 3B       		.uleb128 0x3b
 664 006b 05       		.uleb128 0x5
 665 006c 01       		.uleb128 0x1
 666 006d 13       		.uleb128 0x13
 667 006e 00       		.byte	0
ARM GAS  G:\Users\Jaxb\AppData\Local\Temp\cckkjhcO.s 			page 14


 668 006f 00       		.byte	0
 669 0070 09       		.uleb128 0x9
 670 0071 28       		.uleb128 0x28
 671 0072 00       		.byte	0
 672 0073 03       		.uleb128 0x3
 673 0074 0E       		.uleb128 0xe
 674 0075 1C       		.uleb128 0x1c
 675 0076 0B       		.uleb128 0xb
 676 0077 00       		.byte	0
 677 0078 00       		.byte	0
 678 0079 0A       		.uleb128 0xa
 679 007a 13       		.uleb128 0x13
 680 007b 01       		.byte	0x1
 681 007c 0B       		.uleb128 0xb
 682 007d 0B       		.uleb128 0xb
 683 007e 3A       		.uleb128 0x3a
 684 007f 0B       		.uleb128 0xb
 685 0080 3B       		.uleb128 0x3b
 686 0081 05       		.uleb128 0x5
 687 0082 01       		.uleb128 0x1
 688 0083 13       		.uleb128 0x13
 689 0084 00       		.byte	0
 690 0085 00       		.byte	0
 691 0086 0B       		.uleb128 0xb
 692 0087 0D       		.uleb128 0xd
 693 0088 00       		.byte	0
 694 0089 03       		.uleb128 0x3
 695 008a 08       		.uleb128 0x8
 696 008b 3A       		.uleb128 0x3a
 697 008c 0B       		.uleb128 0xb
 698 008d 3B       		.uleb128 0x3b
 699 008e 05       		.uleb128 0x5
 700 008f 49       		.uleb128 0x49
 701 0090 13       		.uleb128 0x13
 702 0091 38       		.uleb128 0x38
 703 0092 0A       		.uleb128 0xa
 704 0093 00       		.byte	0
 705 0094 00       		.byte	0
 706 0095 0C       		.uleb128 0xc
 707 0096 0D       		.uleb128 0xd
 708 0097 00       		.byte	0
 709 0098 03       		.uleb128 0x3
 710 0099 0E       		.uleb128 0xe
 711 009a 3A       		.uleb128 0x3a
 712 009b 0B       		.uleb128 0xb
 713 009c 3B       		.uleb128 0x3b
 714 009d 05       		.uleb128 0x5
 715 009e 49       		.uleb128 0x49
 716 009f 13       		.uleb128 0x13
 717 00a0 38       		.uleb128 0x38
 718 00a1 0A       		.uleb128 0xa
 719 00a2 00       		.byte	0
 720 00a3 00       		.byte	0
 721 00a4 0D       		.uleb128 0xd
 722 00a5 16       		.uleb128 0x16
 723 00a6 00       		.byte	0
 724 00a7 03       		.uleb128 0x3
ARM GAS  G:\Users\Jaxb\AppData\Local\Temp\cckkjhcO.s 			page 15


 725 00a8 0E       		.uleb128 0xe
 726 00a9 3A       		.uleb128 0x3a
 727 00aa 0B       		.uleb128 0xb
 728 00ab 3B       		.uleb128 0x3b
 729 00ac 05       		.uleb128 0x5
 730 00ad 49       		.uleb128 0x49
 731 00ae 13       		.uleb128 0x13
 732 00af 00       		.byte	0
 733 00b0 00       		.byte	0
 734 00b1 0E       		.uleb128 0xe
 735 00b2 04       		.uleb128 0x4
 736 00b3 01       		.byte	0x1
 737 00b4 3E       		.uleb128 0x3e
 738 00b5 0B       		.uleb128 0xb
 739 00b6 0B       		.uleb128 0xb
 740 00b7 0B       		.uleb128 0xb
 741 00b8 49       		.uleb128 0x49
 742 00b9 13       		.uleb128 0x13
 743 00ba 3A       		.uleb128 0x3a
 744 00bb 0B       		.uleb128 0xb
 745 00bc 3B       		.uleb128 0x3b
 746 00bd 0B       		.uleb128 0xb
 747 00be 01       		.uleb128 0x1
 748 00bf 13       		.uleb128 0x13
 749 00c0 00       		.byte	0
 750 00c1 00       		.byte	0
 751 00c2 0F       		.uleb128 0xf
 752 00c3 13       		.uleb128 0x13
 753 00c4 01       		.byte	0x1
 754 00c5 0B       		.uleb128 0xb
 755 00c6 0B       		.uleb128 0xb
 756 00c7 3A       		.uleb128 0x3a
 757 00c8 0B       		.uleb128 0xb
 758 00c9 3B       		.uleb128 0x3b
 759 00ca 0B       		.uleb128 0xb
 760 00cb 01       		.uleb128 0x1
 761 00cc 13       		.uleb128 0x13
 762 00cd 00       		.byte	0
 763 00ce 00       		.byte	0
 764 00cf 10       		.uleb128 0x10
 765 00d0 0D       		.uleb128 0xd
 766 00d1 00       		.byte	0
 767 00d2 03       		.uleb128 0x3
 768 00d3 0E       		.uleb128 0xe
 769 00d4 3A       		.uleb128 0x3a
 770 00d5 0B       		.uleb128 0xb
 771 00d6 3B       		.uleb128 0x3b
 772 00d7 0B       		.uleb128 0xb
 773 00d8 49       		.uleb128 0x49
 774 00d9 13       		.uleb128 0x13
 775 00da 38       		.uleb128 0x38
 776 00db 0A       		.uleb128 0xa
 777 00dc 00       		.byte	0
 778 00dd 00       		.byte	0
 779 00de 11       		.uleb128 0x11
 780 00df 2E       		.uleb128 0x2e
 781 00e0 01       		.byte	0x1
ARM GAS  G:\Users\Jaxb\AppData\Local\Temp\cckkjhcO.s 			page 16


 782 00e1 3F       		.uleb128 0x3f
 783 00e2 0C       		.uleb128 0xc
 784 00e3 03       		.uleb128 0x3
 785 00e4 0E       		.uleb128 0xe
 786 00e5 3A       		.uleb128 0x3a
 787 00e6 0B       		.uleb128 0xb
 788 00e7 3B       		.uleb128 0x3b
 789 00e8 0B       		.uleb128 0xb
 790 00e9 27       		.uleb128 0x27
 791 00ea 0C       		.uleb128 0xc
 792 00eb 11       		.uleb128 0x11
 793 00ec 01       		.uleb128 0x1
 794 00ed 12       		.uleb128 0x12
 795 00ee 01       		.uleb128 0x1
 796 00ef 40       		.uleb128 0x40
 797 00f0 06       		.uleb128 0x6
 798 00f1 9742     		.uleb128 0x2117
 799 00f3 0C       		.uleb128 0xc
 800 00f4 01       		.uleb128 0x1
 801 00f5 13       		.uleb128 0x13
 802 00f6 00       		.byte	0
 803 00f7 00       		.byte	0
 804 00f8 12       		.uleb128 0x12
 805 00f9 34       		.uleb128 0x34
 806 00fa 00       		.byte	0
 807 00fb 03       		.uleb128 0x3
 808 00fc 0E       		.uleb128 0xe
 809 00fd 3A       		.uleb128 0x3a
 810 00fe 0B       		.uleb128 0xb
 811 00ff 3B       		.uleb128 0x3b
 812 0100 0B       		.uleb128 0xb
 813 0101 49       		.uleb128 0x49
 814 0102 13       		.uleb128 0x13
 815 0103 02       		.uleb128 0x2
 816 0104 0A       		.uleb128 0xa
 817 0105 00       		.byte	0
 818 0106 00       		.byte	0
 819 0107 13       		.uleb128 0x13
 820 0108 898201   		.uleb128 0x4109
 821 010b 01       		.byte	0x1
 822 010c 11       		.uleb128 0x11
 823 010d 01       		.uleb128 0x1
 824 010e 31       		.uleb128 0x31
 825 010f 13       		.uleb128 0x13
 826 0110 01       		.uleb128 0x1
 827 0111 13       		.uleb128 0x13
 828 0112 00       		.byte	0
 829 0113 00       		.byte	0
 830 0114 14       		.uleb128 0x14
 831 0115 8A8201   		.uleb128 0x410a
 832 0118 00       		.byte	0
 833 0119 02       		.uleb128 0x2
 834 011a 0A       		.uleb128 0xa
 835 011b 9142     		.uleb128 0x2111
 836 011d 0A       		.uleb128 0xa
 837 011e 00       		.byte	0
 838 011f 00       		.byte	0
ARM GAS  G:\Users\Jaxb\AppData\Local\Temp\cckkjhcO.s 			page 17


 839 0120 15       		.uleb128 0x15
 840 0121 898201   		.uleb128 0x4109
 841 0124 01       		.byte	0x1
 842 0125 11       		.uleb128 0x11
 843 0126 01       		.uleb128 0x1
 844 0127 31       		.uleb128 0x31
 845 0128 13       		.uleb128 0x13
 846 0129 00       		.byte	0
 847 012a 00       		.byte	0
 848 012b 16       		.uleb128 0x16
 849 012c 2E       		.uleb128 0x2e
 850 012d 00       		.byte	0
 851 012e 3F       		.uleb128 0x3f
 852 012f 0C       		.uleb128 0xc
 853 0130 3C       		.uleb128 0x3c
 854 0131 0C       		.uleb128 0xc
 855 0132 8740     		.uleb128 0x2007
 856 0134 0E       		.uleb128 0xe
 857 0135 03       		.uleb128 0x3
 858 0136 0E       		.uleb128 0xe
 859 0137 3A       		.uleb128 0x3a
 860 0138 0B       		.uleb128 0xb
 861 0139 3B       		.uleb128 0x3b
 862 013a 05       		.uleb128 0x5
 863 013b 00       		.byte	0
 864 013c 00       		.byte	0
 865 013d 00       		.byte	0
 866              		.section	.debug_loc,"",%progbits
 867              	.Ldebug_loc0:
 868              	.LLST0:
 869 0000 00000000 		.4byte	.LFB29-.Ltext0
 870 0004 02000000 		.4byte	.LCFI0-.Ltext0
 871 0008 0200     		.2byte	0x2
 872 000a 7D       		.byte	0x7d
 873 000b 00       		.sleb128 0
 874 000c 02000000 		.4byte	.LCFI0-.Ltext0
 875 0010 06000000 		.4byte	.LCFI1-.Ltext0
 876 0014 0200     		.2byte	0x2
 877 0016 7D       		.byte	0x7d
 878 0017 14       		.sleb128 20
 879 0018 06000000 		.4byte	.LCFI1-.Ltext0
 880 001c 5E000000 		.4byte	.LCFI2-.Ltext0
 881 0020 0200     		.2byte	0x2
 882 0022 7D       		.byte	0x7d
 883 0023 20       		.sleb128 32
 884 0024 5E000000 		.4byte	.LCFI2-.Ltext0
 885 0028 64000000 		.4byte	.LFE29-.Ltext0
 886 002c 0200     		.2byte	0x2
 887 002e 7D       		.byte	0x7d
 888 002f 14       		.sleb128 20
 889 0030 00000000 		.4byte	0
 890 0034 00000000 		.4byte	0
 891              		.section	.debug_aranges,"",%progbits
 892 0000 1C000000 		.4byte	0x1c
 893 0004 0200     		.2byte	0x2
 894 0006 00000000 		.4byte	.Ldebug_info0
 895 000a 04       		.byte	0x4
ARM GAS  G:\Users\Jaxb\AppData\Local\Temp\cckkjhcO.s 			page 18


 896 000b 00       		.byte	0
 897 000c 0000     		.2byte	0
 898 000e 0000     		.2byte	0
 899 0010 00000000 		.4byte	.Ltext0
 900 0014 64000000 		.4byte	.Letext0-.Ltext0
 901 0018 00000000 		.4byte	0
 902 001c 00000000 		.4byte	0
 903              		.section	.debug_line,"",%progbits
 904              	.Ldebug_line0:
 905 0000 67010000 		.section	.debug_str,"MS",%progbits,1
 905      02003301 
 905      00000201 
 905      FB0E0D00 
 905      01010101 
 906              	.LASF34:
 907 0000 4750494F 		.ascii	"GPIO_Speed\000"
 907      5F537065 
 907      656400
 908              	.LASF18:
 909 000b 4C434B52 		.ascii	"LCKR\000"
 909      00
 910              	.LASF25:
 911 0010 4750494F 		.ascii	"GPIO_Mode_IN_FLOATING\000"
 911      5F4D6F64 
 911      655F494E 
 911      5F464C4F 
 911      4154494E 
 912              	.LASF30:
 913 0026 4750494F 		.ascii	"GPIO_Mode_AF_OD\000"
 913      5F4D6F64 
 913      655F4146 
 913      5F4F4400 
 914              	.LASF26:
 915 0036 4750494F 		.ascii	"GPIO_Mode_IPD\000"
 915      5F4D6F64 
 915      655F4950 
 915      4400
 916              	.LASF17:
 917 0044 42535252 		.ascii	"BSRR\000"
 917      00
 918              	.LASF37:
 919 0049 5243435F 		.ascii	"RCC_APB2PeriphClockCmd\000"
 919      41504232 
 919      50657269 
 919      7068436C 
 919      6F636B43 
 920              	.LASF42:
 921 0060 2E2E2F2E 		.ascii	"../../source/main/bsp_led.c\000"
 921      2E2F736F 
 921      75726365 
 921      2F6D6169 
 921      6E2F6273 
 922              	.LASF19:
 923 007c 4750494F 		.ascii	"GPIO_TypeDef\000"
 923      5F547970 
 923      65446566 
 923      00
ARM GAS  G:\Users\Jaxb\AppData\Local\Temp\cckkjhcO.s 			page 19


 924              	.LASF27:
 925 0089 4750494F 		.ascii	"GPIO_Mode_IPU\000"
 925      5F4D6F64 
 925      655F4950 
 925      5500
 926              	.LASF35:
 927 0097 4750494F 		.ascii	"GPIO_Mode\000"
 927      5F4D6F64 
 927      6500
 928              	.LASF16:
 929 00a1 454E4142 		.ascii	"ENABLE\000"
 929      4C4500
 930              	.LASF9:
 931 00a8 6C6F6E67 		.ascii	"long long unsigned int\000"
 931      206C6F6E 
 931      6720756E 
 931      7369676E 
 931      65642069 
 932              	.LASF20:
 933 00bf 4750494F 		.ascii	"GPIO_Speed_10MHz\000"
 933      5F537065 
 933      65645F31 
 933      304D487A 
 933      00
 934              	.LASF6:
 935 00d0 5F5F7569 		.ascii	"__uint32_t\000"
 935      6E743332 
 935      5F7400
 936              	.LASF7:
 937 00db 6C6F6E67 		.ascii	"long unsigned int\000"
 937      20756E73 
 937      69676E65 
 937      6420696E 
 937      7400
 938              	.LASF3:
 939 00ed 73686F72 		.ascii	"short unsigned int\000"
 939      7420756E 
 939      7369676E 
 939      65642069 
 939      6E7400
 940              	.LASF0:
 941 0100 7369676E 		.ascii	"signed char\000"
 941      65642063 
 941      68617200 
 942              	.LASF13:
 943 010c 49544D5F 		.ascii	"ITM_RxBuffer\000"
 943      52784275 
 943      66666572 
 943      00
 944              	.LASF1:
 945 0119 756E7369 		.ascii	"unsigned char\000"
 945      676E6564 
 945      20636861 
 945      7200
 946              	.LASF5:
 947 0127 5F5F7569 		.ascii	"__uint16_t\000"
 947      6E743136 
ARM GAS  G:\Users\Jaxb\AppData\Local\Temp\cckkjhcO.s 			page 20


 947      5F7400
 948              	.LASF2:
 949 0132 73686F72 		.ascii	"short int\000"
 949      7420696E 
 949      7400
 950              	.LASF23:
 951 013c 4750494F 		.ascii	"GPIOSpeed_TypeDef\000"
 951      53706565 
 951      645F5479 
 951      70654465 
 951      6600
 952              	.LASF10:
 953 014e 756E7369 		.ascii	"unsigned int\000"
 953      676E6564 
 953      20696E74 
 953      00
 954              	.LASF39:
 955 015b 4750494F 		.ascii	"GPIO_ResetBits\000"
 955      5F526573 
 955      65744269 
 955      747300
 956              	.LASF21:
 957 016a 4750494F 		.ascii	"GPIO_Speed_2MHz\000"
 957      5F537065 
 957      65645F32 
 957      4D487A00 
 958              	.LASF32:
 959 017a 4750494F 		.ascii	"GPIOMode_TypeDef\000"
 959      4D6F6465 
 959      5F547970 
 959      65446566 
 959      00
 960              	.LASF40:
 961 018b 4750494F 		.ascii	"GPIO_SetBits\000"
 961      5F536574 
 961      42697473 
 961      00
 962              	.LASF22:
 963 0198 4750494F 		.ascii	"GPIO_Speed_50MHz\000"
 963      5F537065 
 963      65645F35 
 963      304D487A 
 963      00
 964              	.LASF31:
 965 01a9 4750494F 		.ascii	"GPIO_Mode_AF_PP\000"
 965      5F4D6F64 
 965      655F4146 
 965      5F505000 
 966              	.LASF33:
 967 01b9 4750494F 		.ascii	"GPIO_Pin\000"
 967      5F50696E 
 967      00
 968              	.LASF8:
 969 01c2 6C6F6E67 		.ascii	"long long int\000"
 969      206C6F6E 
 969      6720696E 
 969      7400
ARM GAS  G:\Users\Jaxb\AppData\Local\Temp\cckkjhcO.s 			page 21


 970              	.LASF45:
 971 01d0 4750494F 		.ascii	"GPIO_InitStructure\000"
 971      5F496E69 
 971      74537472 
 971      75637475 
 971      726500
 972              	.LASF14:
 973 01e3 53797374 		.ascii	"SystemCoreClock\000"
 973      656D436F 
 973      7265436C 
 973      6F636B00 
 974              	.LASF38:
 975 01f3 4750494F 		.ascii	"GPIO_Init\000"
 975      5F496E69 
 975      7400
 976              	.LASF11:
 977 01fd 75696E74 		.ascii	"uint16_t\000"
 977      31365F74 
 977      00
 978              	.LASF36:
 979 0206 4750494F 		.ascii	"GPIO_InitTypeDef\000"
 979      5F496E69 
 979      74547970 
 979      65446566 
 979      00
 980              	.LASF12:
 981 0217 75696E74 		.ascii	"uint32_t\000"
 981      33325F74 
 981      00
 982              	.LASF4:
 983 0220 6C6F6E67 		.ascii	"long int\000"
 983      20696E74 
 983      00
 984              	.LASF24:
 985 0229 4750494F 		.ascii	"GPIO_Mode_AIN\000"
 985      5F4D6F64 
 985      655F4149 
 985      4E00
 986              	.LASF41:
 987 0237 474E5520 		.ascii	"GNU C11 7.3.1 20180622 (release) [ARM/embedded-7-br"
 987      43313120 
 987      372E332E 
 987      31203230 
 987      31383036 
 988 026a 616E6368 		.ascii	"anch revision 261907] -mcpu=cortex-m3 -mthumb -mapc"
 988      20726576 
 988      6973696F 
 988      6E203236 
 988      31393037 
 989 029d 732D6672 		.ascii	"s-frame -mthumb-interwork -mcpu=cortex-m3 -mthumb -"
 989      616D6520 
 989      2D6D7468 
 989      756D622D 
 989      696E7465 
 990 02d0 67647761 		.ascii	"gdwarf-2 -O2\000"
 990      72662D32 
 990      202D4F32 
ARM GAS  G:\Users\Jaxb\AppData\Local\Temp\cckkjhcO.s 			page 22


 990      00
 991              	.LASF29:
 992 02dd 4750494F 		.ascii	"GPIO_Mode_Out_PP\000"
 992      5F4D6F64 
 992      655F4F75 
 992      745F5050 
 992      00
 993              	.LASF44:
 994 02ee 4C45445F 		.ascii	"LED_GPIO_Config\000"
 994      4750494F 
 994      5F436F6E 
 994      66696700 
 995              	.LASF15:
 996 02fe 44495341 		.ascii	"DISABLE\000"
 996      424C4500 
 997              	.LASF28:
 998 0306 4750494F 		.ascii	"GPIO_Mode_Out_OD\000"
 998      5F4D6F64 
 998      655F4F75 
 998      745F4F44 
 998      00
 999              	.LASF43:
 1000 0317 473A5C55 		.ascii	"G:\\Users\\Jaxb\\Desktop\\KAKAOS-0.07  2019.2.21  f"
 1000      73657273 
 1000      5C4A6178 
 1000      625C4465 
 1000      736B746F 
 1001 0346 6F722067 		.ascii	"or gcc\\Project\\RVMDK\243\250uv5\243\251\000"
 1001      63635C50 
 1001      726F6A65 
 1001      63745C52 
 1001      564D444B 
 1002              		.ident	"GCC: (GNU Tools for Arm Embedded Processors 7-2018-q2-update) 7.3.1 20180622 (release) [AR
ARM GAS  G:\Users\Jaxb\AppData\Local\Temp\cckkjhcO.s 			page 23


DEFINED SYMBOLS
                            *ABS*:00000000 bsp_led.c
G:\Users\Jaxb\AppData\Local\Temp\cckkjhcO.s:15     .text:00000000 $t
G:\Users\Jaxb\AppData\Local\Temp\cckkjhcO.s:23     .text:00000000 LED_GPIO_Config
G:\Users\Jaxb\AppData\Local\Temp\cckkjhcO.s:111    .text:00000060 $d

UNDEFINED SYMBOLS
RCC_APB2PeriphClockCmd
GPIO_Init
GPIO_ResetBits
GPIO_SetBits
