ARM GAS  G:\Users\Jaxb\AppData\Local\Temp\ccYqEobM.s 			page 1


   1              		.cpu cortex-m3
   2              		.eabi_attribute 20, 1
   3              		.eabi_attribute 21, 1
   4              		.eabi_attribute 23, 3
   5              		.eabi_attribute 24, 1
   6              		.eabi_attribute 25, 1
   7              		.eabi_attribute 26, 1
   8              		.eabi_attribute 30, 2
   9              		.eabi_attribute 34, 1
  10              		.eabi_attribute 18, 4
  11              		.file	"bsp_usart.c"
  12              		.text
  13              	.Ltext0:
  14              		.cfi_sections	.debug_frame
  15              		.align	1
  16              		.p2align 2,,3
  17              		.global	USART_Config
  18              		.syntax unified
  19              		.thumb
  20              		.thumb_func
  21              		.fpu softvfp
  22              		.type	USART_Config, %function
  23              	USART_Config:
  24              	.LFB30:
  25              		.file 1 "../../source/src/user/OS_CPU/bsp/bsp_usart.c"
   1:../../source/src/user/OS_CPU/bsp/bsp_usart.c **** /**
   2:../../source/src/user/OS_CPU/bsp/bsp_usart.c ****   ******************************************************************************
   3:../../source/src/user/OS_CPU/bsp/bsp_usart.c ****   * @file    bsp_usart.c
   4:../../source/src/user/OS_CPU/bsp/bsp_usart.c ****   * @author  fire
   5:../../source/src/user/OS_CPU/bsp/bsp_usart.c ****   * @version V1.0
   6:../../source/src/user/OS_CPU/bsp/bsp_usart.c ****   * @date    2013-xx-xx
   7:../../source/src/user/OS_CPU/bsp/bsp_usart.c ****   * @brief   重定向c库printf函数到usart端口
   8:../../source/src/user/OS_CPU/bsp/bsp_usart.c ****   ******************************************************************************
   9:../../source/src/user/OS_CPU/bsp/bsp_usart.c ****   * @attention
  10:../../source/src/user/OS_CPU/bsp/bsp_usart.c ****   *
  11:../../source/src/user/OS_CPU/bsp/bsp_usart.c ****   * 实验平台:秉火STM32 F103-霸道 开发板  
  12:../../source/src/user/OS_CPU/bsp/bsp_usart.c ****   * 论坛    :http://www.firebbs.cn
  13:../../source/src/user/OS_CPU/bsp/bsp_usart.c ****   * 淘宝    :https://fire-stm32.taobao.com
  14:../../source/src/user/OS_CPU/bsp/bsp_usart.c ****   *
  15:../../source/src/user/OS_CPU/bsp/bsp_usart.c ****   ******************************************************************************
  16:../../source/src/user/OS_CPU/bsp/bsp_usart.c ****   */ 
  17:../../source/src/user/OS_CPU/bsp/bsp_usart.c **** 	
  18:../../source/src/user/OS_CPU/bsp/bsp_usart.c **** #include "bsp_usart.h"
  19:../../source/src/user/OS_CPU/bsp/bsp_usart.c **** 
  20:../../source/src/user/OS_CPU/bsp/bsp_usart.c ****  /**
  21:../../source/src/user/OS_CPU/bsp/bsp_usart.c ****   * @brief  配置嵌套向量中断控制器NVIC
  22:../../source/src/user/OS_CPU/bsp/bsp_usart.c ****   * @param  无
  23:../../source/src/user/OS_CPU/bsp/bsp_usart.c ****   * @retval 无
  24:../../source/src/user/OS_CPU/bsp/bsp_usart.c ****   */
  25:../../source/src/user/OS_CPU/bsp/bsp_usart.c **** static void NVIC_Configuration(void)
  26:../../source/src/user/OS_CPU/bsp/bsp_usart.c **** {
  27:../../source/src/user/OS_CPU/bsp/bsp_usart.c ****   NVIC_InitTypeDef NVIC_InitStructure;
  28:../../source/src/user/OS_CPU/bsp/bsp_usart.c ****   
  29:../../source/src/user/OS_CPU/bsp/bsp_usart.c ****   /* 嵌套向量中断控制器组选择 */
  30:../../source/src/user/OS_CPU/bsp/bsp_usart.c ****   NVIC_PriorityGroupConfig(NVIC_PriorityGroup_2);
  31:../../source/src/user/OS_CPU/bsp/bsp_usart.c ****   
  32:../../source/src/user/OS_CPU/bsp/bsp_usart.c ****   /* 配置USART为中断源 */
ARM GAS  G:\Users\Jaxb\AppData\Local\Temp\ccYqEobM.s 			page 2


  33:../../source/src/user/OS_CPU/bsp/bsp_usart.c ****   NVIC_InitStructure.NVIC_IRQChannel = DEBUG_USART_IRQ;
  34:../../source/src/user/OS_CPU/bsp/bsp_usart.c ****   /* 抢断优先级*/
  35:../../source/src/user/OS_CPU/bsp/bsp_usart.c ****   NVIC_InitStructure.NVIC_IRQChannelPreemptionPriority = 1;
  36:../../source/src/user/OS_CPU/bsp/bsp_usart.c ****   /* 子优先级 */
  37:../../source/src/user/OS_CPU/bsp/bsp_usart.c ****   NVIC_InitStructure.NVIC_IRQChannelSubPriority = 1;
  38:../../source/src/user/OS_CPU/bsp/bsp_usart.c ****   /* 使能中断 */
  39:../../source/src/user/OS_CPU/bsp/bsp_usart.c ****   NVIC_InitStructure.NVIC_IRQChannelCmd = ENABLE;
  40:../../source/src/user/OS_CPU/bsp/bsp_usart.c ****   /* 初始化配置NVIC */
  41:../../source/src/user/OS_CPU/bsp/bsp_usart.c ****   NVIC_Init(&NVIC_InitStructure);
  42:../../source/src/user/OS_CPU/bsp/bsp_usart.c **** }
  43:../../source/src/user/OS_CPU/bsp/bsp_usart.c **** 
  44:../../source/src/user/OS_CPU/bsp/bsp_usart.c ****  /**
  45:../../source/src/user/OS_CPU/bsp/bsp_usart.c ****   * @brief  USART GPIO 配置,工作参数配置
  46:../../source/src/user/OS_CPU/bsp/bsp_usart.c ****   * @param  无
  47:../../source/src/user/OS_CPU/bsp/bsp_usart.c ****   * @retval 无
  48:../../source/src/user/OS_CPU/bsp/bsp_usart.c ****   */
  49:../../source/src/user/OS_CPU/bsp/bsp_usart.c **** void USART_Config(void)
  50:../../source/src/user/OS_CPU/bsp/bsp_usart.c **** {
  26              		.loc 1 50 0
  27              		.cfi_startproc
  28              		@ args = 0, pretend = 0, frame = 24
  29              		@ frame_needed = 0, uses_anonymous_args = 0
  30 0000 30B5     		push	{r4, r5, lr}
  31              	.LCFI0:
  32              		.cfi_def_cfa_offset 12
  33              		.cfi_offset 4, -12
  34              		.cfi_offset 5, -8
  35              		.cfi_offset 14, -4
  51:../../source/src/user/OS_CPU/bsp/bsp_usart.c **** 	GPIO_InitTypeDef GPIO_InitStructure;
  52:../../source/src/user/OS_CPU/bsp/bsp_usart.c **** 	USART_InitTypeDef USART_InitStructure;
  53:../../source/src/user/OS_CPU/bsp/bsp_usart.c **** 
  54:../../source/src/user/OS_CPU/bsp/bsp_usart.c **** 	// 打开串口GPIO的时钟
  55:../../source/src/user/OS_CPU/bsp/bsp_usart.c **** 	DEBUG_USART_GPIO_APBxClkCmd(DEBUG_USART_GPIO_CLK, ENABLE);
  36              		.loc 1 55 0
  37 0002 0121     		movs	r1, #1
  50:../../source/src/user/OS_CPU/bsp/bsp_usart.c **** 	GPIO_InitTypeDef GPIO_InitStructure;
  38              		.loc 1 50 0
  39 0004 87B0     		sub	sp, sp, #28
  40              	.LCFI1:
  41              		.cfi_def_cfa_offset 40
  42              		.loc 1 55 0
  43 0006 0420     		movs	r0, #4
  44 0008 FFF7FEFF 		bl	RCC_APB2PeriphClockCmd
  45              	.LVL0:
  56:../../source/src/user/OS_CPU/bsp/bsp_usart.c **** 	
  57:../../source/src/user/OS_CPU/bsp/bsp_usart.c **** 	// 打开串口外设的时钟
  58:../../source/src/user/OS_CPU/bsp/bsp_usart.c **** 	DEBUG_USART_APBxClkCmd(DEBUG_USART_CLK, ENABLE);
  46              		.loc 1 58 0
  47 000c 0121     		movs	r1, #1
  48 000e 4FF48040 		mov	r0, #16384
  49 0012 FFF7FEFF 		bl	RCC_APB2PeriphClockCmd
  50              	.LVL1:
  59:../../source/src/user/OS_CPU/bsp/bsp_usart.c **** 
  60:../../source/src/user/OS_CPU/bsp/bsp_usart.c **** 	// 将USART Tx的GPIO配置为推挽复用模式
  61:../../source/src/user/OS_CPU/bsp/bsp_usart.c **** 	GPIO_InitStructure.GPIO_Pin = DEBUG_USART_TX_GPIO_PIN;
  51              		.loc 1 61 0
  52 0016 4FF40071 		mov	r1, #512
ARM GAS  G:\Users\Jaxb\AppData\Local\Temp\ccYqEobM.s 			page 3


  62:../../source/src/user/OS_CPU/bsp/bsp_usart.c **** 	GPIO_InitStructure.GPIO_Mode = GPIO_Mode_AF_PP;
  53              		.loc 1 62 0
  54 001a 1822     		movs	r2, #24
  63:../../source/src/user/OS_CPU/bsp/bsp_usart.c **** 	GPIO_InitStructure.GPIO_Speed = GPIO_Speed_50MHz;
  55              		.loc 1 63 0
  56 001c 0323     		movs	r3, #3
  64:../../source/src/user/OS_CPU/bsp/bsp_usart.c **** 	GPIO_Init(DEBUG_USART_TX_GPIO_PORT, &GPIO_InitStructure);
  57              		.loc 1 64 0
  58 001e 204C     		ldr	r4, .L3
  61:../../source/src/user/OS_CPU/bsp/bsp_usart.c **** 	GPIO_InitStructure.GPIO_Mode = GPIO_Mode_AF_PP;
  59              		.loc 1 61 0
  60 0020 ADF80010 		strh	r1, [sp]	@ movhi
  61              		.loc 1 64 0
  62 0024 2046     		mov	r0, r4
  63 0026 6946     		mov	r1, sp
  62:../../source/src/user/OS_CPU/bsp/bsp_usart.c **** 	GPIO_InitStructure.GPIO_Speed = GPIO_Speed_50MHz;
  64              		.loc 1 62 0
  65 0028 8DF80320 		strb	r2, [sp, #3]
  63:../../source/src/user/OS_CPU/bsp/bsp_usart.c **** 	GPIO_Init(DEBUG_USART_TX_GPIO_PORT, &GPIO_InitStructure);
  66              		.loc 1 63 0
  67 002c 8DF80230 		strb	r3, [sp, #2]
  68              		.loc 1 64 0
  69 0030 FFF7FEFF 		bl	GPIO_Init
  70              	.LVL2:
  65:../../source/src/user/OS_CPU/bsp/bsp_usart.c **** 
  66:../../source/src/user/OS_CPU/bsp/bsp_usart.c ****   // 将USART Rx的GPIO配置为浮空输入模式
  67:../../source/src/user/OS_CPU/bsp/bsp_usart.c **** 	GPIO_InitStructure.GPIO_Pin = DEBUG_USART_RX_GPIO_PIN;
  71              		.loc 1 67 0
  72 0034 4FF48062 		mov	r2, #1024
  68:../../source/src/user/OS_CPU/bsp/bsp_usart.c **** 	GPIO_InitStructure.GPIO_Mode = GPIO_Mode_IN_FLOATING;
  73              		.loc 1 68 0
  74 0038 0423     		movs	r3, #4
  69:../../source/src/user/OS_CPU/bsp/bsp_usart.c **** 	GPIO_Init(DEBUG_USART_RX_GPIO_PORT, &GPIO_InitStructure);
  75              		.loc 1 69 0
  76 003a 6946     		mov	r1, sp
  77 003c 2046     		mov	r0, r4
  67:../../source/src/user/OS_CPU/bsp/bsp_usart.c **** 	GPIO_InitStructure.GPIO_Mode = GPIO_Mode_IN_FLOATING;
  78              		.loc 1 67 0
  79 003e ADF80020 		strh	r2, [sp]	@ movhi
  68:../../source/src/user/OS_CPU/bsp/bsp_usart.c **** 	GPIO_InitStructure.GPIO_Mode = GPIO_Mode_IN_FLOATING;
  80              		.loc 1 68 0
  81 0042 8DF80330 		strb	r3, [sp, #3]
  70:../../source/src/user/OS_CPU/bsp/bsp_usart.c **** 	
  71:../../source/src/user/OS_CPU/bsp/bsp_usart.c **** 	// 配置串口的工作参数
  72:../../source/src/user/OS_CPU/bsp/bsp_usart.c **** 	// 配置波特率
  73:../../source/src/user/OS_CPU/bsp/bsp_usart.c **** 	USART_InitStructure.USART_BaudRate = DEBUG_USART_BAUDRATE;
  82              		.loc 1 73 0
  83 0046 4FF4E134 		mov	r4, #115200
  69:../../source/src/user/OS_CPU/bsp/bsp_usart.c **** 	
  84              		.loc 1 69 0
  85 004a FFF7FEFF 		bl	GPIO_Init
  86              	.LVL3:
  87              		.loc 1 73 0
  88 004e 0023     		movs	r3, #0
  74:../../source/src/user/OS_CPU/bsp/bsp_usart.c **** 	// 配置 针数据字长
  75:../../source/src/user/OS_CPU/bsp/bsp_usart.c **** 	USART_InitStructure.USART_WordLength = USART_WordLength_8b;
  76:../../source/src/user/OS_CPU/bsp/bsp_usart.c **** 	// 配置停止位
ARM GAS  G:\Users\Jaxb\AppData\Local\Temp\ccYqEobM.s 			page 4


  77:../../source/src/user/OS_CPU/bsp/bsp_usart.c **** 	USART_InitStructure.USART_StopBits = USART_StopBits_1;
  89              		.loc 1 77 0
  90 0050 4FF44022 		mov	r2, #786432
  78:../../source/src/user/OS_CPU/bsp/bsp_usart.c **** 	// 配置校验位
  79:../../source/src/user/OS_CPU/bsp/bsp_usart.c **** 	USART_InitStructure.USART_Parity = USART_Parity_No ;
  80:../../source/src/user/OS_CPU/bsp/bsp_usart.c **** 	// 配置硬件流控制
  81:../../source/src/user/OS_CPU/bsp/bsp_usart.c **** 	USART_InitStructure.USART_HardwareFlowControl = 
  82:../../source/src/user/OS_CPU/bsp/bsp_usart.c **** 	USART_HardwareFlowControl_None;
  83:../../source/src/user/OS_CPU/bsp/bsp_usart.c **** 	// 配置工作模式，收发一起
  84:../../source/src/user/OS_CPU/bsp/bsp_usart.c **** 	USART_InitStructure.USART_Mode = USART_Mode_Rx | USART_Mode_Tx;
  85:../../source/src/user/OS_CPU/bsp/bsp_usart.c **** 	// 完成串口的初始化配置
  86:../../source/src/user/OS_CPU/bsp/bsp_usart.c **** 	USART_Init(DEBUG_USARTx, &USART_InitStructure);
  91              		.loc 1 86 0
  92 0054 134D     		ldr	r5, .L3+4
  93 0056 02A9     		add	r1, sp, #8
  94 0058 2846     		mov	r0, r5
  73:../../source/src/user/OS_CPU/bsp/bsp_usart.c **** 	// 配置 针数据字长
  95              		.loc 1 73 0
  96 005a CDE90243 		strd	r4, r3, [sp, #8]
  77:../../source/src/user/OS_CPU/bsp/bsp_usart.c **** 	// 配置校验位
  97              		.loc 1 77 0
  98 005e 0492     		str	r2, [sp, #16]
  84:../../source/src/user/OS_CPU/bsp/bsp_usart.c **** 	// 完成串口的初始化配置
  99              		.loc 1 84 0
 100 0060 ADF81430 		strh	r3, [sp, #20]	@ movhi
 101              		.loc 1 86 0
 102 0064 FFF7FEFF 		bl	USART_Init
 103              	.LVL4:
 104              	.LBB4:
 105              	.LBB5:
  30:../../source/src/user/OS_CPU/bsp/bsp_usart.c ****   
 106              		.loc 1 30 0
 107 0068 4FF4A060 		mov	r0, #1280
 108 006c FFF7FEFF 		bl	NVIC_PriorityGroupConfig
 109              	.LVL5:
  35:../../source/src/user/OS_CPU/bsp/bsp_usart.c ****   /* 子优先级 */
 110              		.loc 1 35 0
 111 0070 0124     		movs	r4, #1
  33:../../source/src/user/OS_CPU/bsp/bsp_usart.c ****   /* 抢断优先级*/
 112              		.loc 1 33 0
 113 0072 40F22513 		movw	r3, #293
  41:../../source/src/user/OS_CPU/bsp/bsp_usart.c **** }
 114              		.loc 1 41 0
 115 0076 01A8     		add	r0, sp, #4
  33:../../source/src/user/OS_CPU/bsp/bsp_usart.c ****   /* 抢断优先级*/
 116              		.loc 1 33 0
 117 0078 ADF80430 		strh	r3, [sp, #4]	@ movhi
  35:../../source/src/user/OS_CPU/bsp/bsp_usart.c ****   /* 子优先级 */
 118              		.loc 1 35 0
 119 007c 8DF80640 		strb	r4, [sp, #6]
  39:../../source/src/user/OS_CPU/bsp/bsp_usart.c ****   /* 初始化配置NVIC */
 120              		.loc 1 39 0
 121 0080 8DF80740 		strb	r4, [sp, #7]
  41:../../source/src/user/OS_CPU/bsp/bsp_usart.c **** }
 122              		.loc 1 41 0
 123 0084 FFF7FEFF 		bl	NVIC_Init
 124              	.LVL6:
ARM GAS  G:\Users\Jaxb\AppData\Local\Temp\ccYqEobM.s 			page 5


 125              	.LBE5:
 126              	.LBE4:
  87:../../source/src/user/OS_CPU/bsp/bsp_usart.c **** 	
  88:../../source/src/user/OS_CPU/bsp/bsp_usart.c **** 	// 串口中断优先级配置
  89:../../source/src/user/OS_CPU/bsp/bsp_usart.c **** 	NVIC_Configuration();
  90:../../source/src/user/OS_CPU/bsp/bsp_usart.c **** 	
  91:../../source/src/user/OS_CPU/bsp/bsp_usart.c **** 	// 使能串口接收中断
  92:../../source/src/user/OS_CPU/bsp/bsp_usart.c **** 	USART_ITConfig(DEBUG_USARTx, USART_IT_RXNE, ENABLE);	
 127              		.loc 1 92 0
 128 0088 2246     		mov	r2, r4
 129 008a 2846     		mov	r0, r5
 130 008c 40F22551 		movw	r1, #1317
 131 0090 FFF7FEFF 		bl	USART_ITConfig
 132              	.LVL7:
  93:../../source/src/user/OS_CPU/bsp/bsp_usart.c **** 	
  94:../../source/src/user/OS_CPU/bsp/bsp_usart.c **** 	// 使能串口
  95:../../source/src/user/OS_CPU/bsp/bsp_usart.c **** 	USART_Cmd(DEBUG_USARTx, ENABLE);	    
 133              		.loc 1 95 0
 134 0094 2146     		mov	r1, r4
 135 0096 2846     		mov	r0, r5
 136 0098 FFF7FEFF 		bl	USART_Cmd
 137              	.LVL8:
  96:../../source/src/user/OS_CPU/bsp/bsp_usart.c **** }
 138              		.loc 1 96 0
 139 009c 07B0     		add	sp, sp, #28
 140              	.LCFI2:
 141              		.cfi_def_cfa_offset 12
 142              		@ sp needed
 143 009e 30BD     		pop	{r4, r5, pc}
 144              	.L4:
 145              		.align	2
 146              	.L3:
 147 00a0 00080140 		.word	1073809408
 148 00a4 00380140 		.word	1073821696
 149              		.cfi_endproc
 150              	.LFE30:
 151              		.size	USART_Config, .-USART_Config
 152              		.align	1
 153              		.p2align 2,,3
 154              		.global	Usart_SendByte
 155              		.syntax unified
 156              		.thumb
 157              		.thumb_func
 158              		.fpu softvfp
 159              		.type	Usart_SendByte, %function
 160              	Usart_SendByte:
 161              	.LFB31:
  97:../../source/src/user/OS_CPU/bsp/bsp_usart.c **** 
  98:../../source/src/user/OS_CPU/bsp/bsp_usart.c **** 
  99:../../source/src/user/OS_CPU/bsp/bsp_usart.c **** /*****************  发送一个字节 **********************/
 100:../../source/src/user/OS_CPU/bsp/bsp_usart.c **** void Usart_SendByte( USART_TypeDef * pUSARTx, uint8_t ch)
 101:../../source/src/user/OS_CPU/bsp/bsp_usart.c **** {
 162              		.loc 1 101 0
 163              		.cfi_startproc
 164              		@ args = 0, pretend = 0, frame = 0
 165              		@ frame_needed = 0, uses_anonymous_args = 0
 166              	.LVL9:
ARM GAS  G:\Users\Jaxb\AppData\Local\Temp\ccYqEobM.s 			page 6


 167 00a8 10B5     		push	{r4, lr}
 168              	.LCFI3:
 169              		.cfi_def_cfa_offset 8
 170              		.cfi_offset 4, -8
 171              		.cfi_offset 14, -4
 172              		.loc 1 101 0
 173 00aa 0446     		mov	r4, r0
 102:../../source/src/user/OS_CPU/bsp/bsp_usart.c **** 	/* 发送一个字节数据到USART */
 103:../../source/src/user/OS_CPU/bsp/bsp_usart.c **** 	USART_SendData(pUSARTx,ch);
 174              		.loc 1 103 0
 175 00ac FFF7FEFF 		bl	USART_SendData
 176              	.LVL10:
 177              	.L6:
 104:../../source/src/user/OS_CPU/bsp/bsp_usart.c **** 		
 105:../../source/src/user/OS_CPU/bsp/bsp_usart.c **** 	/* 等待发送数据寄存器为空 */
 106:../../source/src/user/OS_CPU/bsp/bsp_usart.c **** 	while (USART_GetFlagStatus(pUSARTx, USART_FLAG_TXE) == RESET);	
 178              		.loc 1 106 0 discriminator 1
 179 00b0 8021     		movs	r1, #128
 180 00b2 2046     		mov	r0, r4
 181 00b4 FFF7FEFF 		bl	USART_GetFlagStatus
 182              	.LVL11:
 183 00b8 0028     		cmp	r0, #0
 184 00ba F9D0     		beq	.L6
 107:../../source/src/user/OS_CPU/bsp/bsp_usart.c **** }
 185              		.loc 1 107 0
 186 00bc 10BD     		pop	{r4, pc}
 187              		.cfi_endproc
 188              	.LFE31:
 189              		.size	Usart_SendByte, .-Usart_SendByte
 190              		.align	1
 191 00be 00BF     		.p2align 2,,3
 192              		.global	Usart_SendArray
 193              		.syntax unified
 194              		.thumb
 195              		.thumb_func
 196              		.fpu softvfp
 197              		.type	Usart_SendArray, %function
 198              	Usart_SendArray:
 199              	.LFB32:
 108:../../source/src/user/OS_CPU/bsp/bsp_usart.c **** 
 109:../../source/src/user/OS_CPU/bsp/bsp_usart.c **** /****************** 发送8位的数组 ************************/
 110:../../source/src/user/OS_CPU/bsp/bsp_usart.c **** void Usart_SendArray( USART_TypeDef * pUSARTx, uint8_t *array, uint16_t num)
 111:../../source/src/user/OS_CPU/bsp/bsp_usart.c **** {
 200              		.loc 1 111 0
 201              		.cfi_startproc
 202              		@ args = 0, pretend = 0, frame = 0
 203              		@ frame_needed = 0, uses_anonymous_args = 0
 204              	.LVL12:
 205 00c0 F8B5     		push	{r3, r4, r5, r6, r7, lr}
 206              	.LCFI4:
 207              		.cfi_def_cfa_offset 24
 208              		.cfi_offset 3, -24
 209              		.cfi_offset 4, -20
 210              		.cfi_offset 5, -16
 211              		.cfi_offset 6, -12
 212              		.cfi_offset 7, -8
 213              		.cfi_offset 14, -4
ARM GAS  G:\Users\Jaxb\AppData\Local\Temp\ccYqEobM.s 			page 7


 214              		.loc 1 111 0
 215 00c2 0546     		mov	r5, r0
 216 00c4 0F46     		mov	r7, r1
 112:../../source/src/user/OS_CPU/bsp/bsp_usart.c ****   uint8_t i;
 113:../../source/src/user/OS_CPU/bsp/bsp_usart.c **** 	
 114:../../source/src/user/OS_CPU/bsp/bsp_usart.c **** 	for(i=0; i<num; i++)
 217              		.loc 1 114 0
 218 00c6 1646     		mov	r6, r2
 219 00c8 42B1     		cbz	r2, .L12
 220 00ca 0024     		movs	r4, #0
 221              	.LVL13:
 222              	.L11:
 115:../../source/src/user/OS_CPU/bsp/bsp_usart.c ****   {
 116:../../source/src/user/OS_CPU/bsp/bsp_usart.c **** 	    /* 发送一个字节数据到USART */
 117:../../source/src/user/OS_CPU/bsp/bsp_usart.c **** 	    Usart_SendByte(pUSARTx,array[i]);	
 223              		.loc 1 117 0 discriminator 3
 224 00cc 395D     		ldrb	r1, [r7, r4]	@ zero_extendqisi2
 114:../../source/src/user/OS_CPU/bsp/bsp_usart.c ****   {
 225              		.loc 1 114 0 discriminator 3
 226 00ce 0134     		adds	r4, r4, #1
 227              	.LVL14:
 228              		.loc 1 117 0 discriminator 3
 229 00d0 2846     		mov	r0, r5
 114:../../source/src/user/OS_CPU/bsp/bsp_usart.c ****   {
 230              		.loc 1 114 0 discriminator 3
 231 00d2 E4B2     		uxtb	r4, r4
 232              		.loc 1 117 0 discriminator 3
 233 00d4 FFF7FEFF 		bl	Usart_SendByte
 234              	.LVL15:
 114:../../source/src/user/OS_CPU/bsp/bsp_usart.c ****   {
 235              		.loc 1 114 0 discriminator 3
 236 00d8 B442     		cmp	r4, r6
 237 00da F7D3     		bcc	.L11
 238              	.LVL16:
 239              	.L12:
 118:../../source/src/user/OS_CPU/bsp/bsp_usart.c ****   
 119:../../source/src/user/OS_CPU/bsp/bsp_usart.c ****   }
 120:../../source/src/user/OS_CPU/bsp/bsp_usart.c **** 	/* 等待发送完成 */
 121:../../source/src/user/OS_CPU/bsp/bsp_usart.c **** 	while(USART_GetFlagStatus(pUSARTx,USART_FLAG_TC)==RESET);
 240              		.loc 1 121 0 discriminator 1
 241 00dc 4021     		movs	r1, #64
 242 00de 2846     		mov	r0, r5
 243 00e0 FFF7FEFF 		bl	USART_GetFlagStatus
 244              	.LVL17:
 245 00e4 0028     		cmp	r0, #0
 246 00e6 F9D0     		beq	.L12
 122:../../source/src/user/OS_CPU/bsp/bsp_usart.c **** }
 247              		.loc 1 122 0
 248 00e8 F8BD     		pop	{r3, r4, r5, r6, r7, pc}
 249              		.cfi_endproc
 250              	.LFE32:
 251              		.size	Usart_SendArray, .-Usart_SendArray
 252              		.align	1
 253 00ea 00BF     		.p2align 2,,3
 254              		.global	Usart_SendString
 255              		.syntax unified
 256              		.thumb
ARM GAS  G:\Users\Jaxb\AppData\Local\Temp\ccYqEobM.s 			page 8


 257              		.thumb_func
 258              		.fpu softvfp
 259              		.type	Usart_SendString, %function
 260              	Usart_SendString:
 261              	.LFB33:
 123:../../source/src/user/OS_CPU/bsp/bsp_usart.c **** 
 124:../../source/src/user/OS_CPU/bsp/bsp_usart.c **** /*****************  发送字符串 **********************/
 125:../../source/src/user/OS_CPU/bsp/bsp_usart.c **** void Usart_SendString( USART_TypeDef * pUSARTx, char *str)
 126:../../source/src/user/OS_CPU/bsp/bsp_usart.c **** {
 262              		.loc 1 126 0
 263              		.cfi_startproc
 264              		@ args = 0, pretend = 0, frame = 0
 265              		@ frame_needed = 0, uses_anonymous_args = 0
 266              	.LVL18:
 267 00ec 38B5     		push	{r3, r4, r5, lr}
 268              	.LCFI5:
 269              		.cfi_def_cfa_offset 16
 270              		.cfi_offset 3, -16
 271              		.cfi_offset 4, -12
 272              		.cfi_offset 5, -8
 273              		.cfi_offset 14, -4
 274              		.loc 1 126 0
 275 00ee 0546     		mov	r5, r0
 276              	.LVL19:
 277 00f0 0C46     		mov	r4, r1
 278 00f2 0978     		ldrb	r1, [r1]	@ zero_extendqisi2
 279              	.LVL20:
 280              	.L20:
 127:../../source/src/user/OS_CPU/bsp/bsp_usart.c **** 	unsigned int k=0;
 128:../../source/src/user/OS_CPU/bsp/bsp_usart.c ****   do 
 129:../../source/src/user/OS_CPU/bsp/bsp_usart.c ****   {
 130:../../source/src/user/OS_CPU/bsp/bsp_usart.c ****       Usart_SendByte( pUSARTx, *(str + k) );
 281              		.loc 1 130 0 discriminator 1
 282 00f4 2846     		mov	r0, r5
 283 00f6 FFF7FEFF 		bl	Usart_SendByte
 284              	.LVL21:
 131:../../source/src/user/OS_CPU/bsp/bsp_usart.c ****       k++;
 132:../../source/src/user/OS_CPU/bsp/bsp_usart.c ****   } while(*(str + k)!='\0');
 285              		.loc 1 132 0 discriminator 1
 286 00fa 14F8011F 		ldrb	r1, [r4, #1]!	@ zero_extendqisi2
 287              	.LVL22:
 288 00fe 0029     		cmp	r1, #0
 289 0100 F8D1     		bne	.L20
 290              	.L21:
 133:../../source/src/user/OS_CPU/bsp/bsp_usart.c ****   
 134:../../source/src/user/OS_CPU/bsp/bsp_usart.c ****   /* 等待发送完成 */
 135:../../source/src/user/OS_CPU/bsp/bsp_usart.c ****   while(USART_GetFlagStatus(pUSARTx,USART_FLAG_TC)==RESET)
 291              		.loc 1 135 0 discriminator 1
 292 0102 4021     		movs	r1, #64
 293 0104 2846     		mov	r0, r5
 294 0106 FFF7FEFF 		bl	USART_GetFlagStatus
 295              	.LVL23:
 296 010a 0028     		cmp	r0, #0
 297 010c F9D0     		beq	.L21
 136:../../source/src/user/OS_CPU/bsp/bsp_usart.c ****   {}
 137:../../source/src/user/OS_CPU/bsp/bsp_usart.c **** }
 298              		.loc 1 137 0
ARM GAS  G:\Users\Jaxb\AppData\Local\Temp\ccYqEobM.s 			page 9


 299 010e 38BD     		pop	{r3, r4, r5, pc}
 300              		.cfi_endproc
 301              	.LFE33:
 302              		.size	Usart_SendString, .-Usart_SendString
 303              		.align	1
 304              		.p2align 2,,3
 305              		.global	Usart_SendHalfWord
 306              		.syntax unified
 307              		.thumb
 308              		.thumb_func
 309              		.fpu softvfp
 310              		.type	Usart_SendHalfWord, %function
 311              	Usart_SendHalfWord:
 312              	.LFB34:
 138:../../source/src/user/OS_CPU/bsp/bsp_usart.c **** 
 139:../../source/src/user/OS_CPU/bsp/bsp_usart.c **** /*****************  发送一个16位数 **********************/
 140:../../source/src/user/OS_CPU/bsp/bsp_usart.c **** void Usart_SendHalfWord( USART_TypeDef * pUSARTx, uint16_t ch)
 141:../../source/src/user/OS_CPU/bsp/bsp_usart.c **** {
 313              		.loc 1 141 0
 314              		.cfi_startproc
 315              		@ args = 0, pretend = 0, frame = 0
 316              		@ frame_needed = 0, uses_anonymous_args = 0
 317              	.LVL24:
 318 0110 38B5     		push	{r3, r4, r5, lr}
 319              	.LCFI6:
 320              		.cfi_def_cfa_offset 16
 321              		.cfi_offset 3, -16
 322              		.cfi_offset 4, -12
 323              		.cfi_offset 5, -8
 324              		.cfi_offset 14, -4
 325              		.loc 1 141 0
 326 0112 0D46     		mov	r5, r1
 327              	.LVL25:
 142:../../source/src/user/OS_CPU/bsp/bsp_usart.c **** 	uint8_t temp_h, temp_l;
 143:../../source/src/user/OS_CPU/bsp/bsp_usart.c **** 	
 144:../../source/src/user/OS_CPU/bsp/bsp_usart.c **** 	/* 取出高八位 */
 145:../../source/src/user/OS_CPU/bsp/bsp_usart.c **** 	temp_h = (ch&0XFF00)>>8;
 146:../../source/src/user/OS_CPU/bsp/bsp_usart.c **** 	/* 取出低八位 */
 147:../../source/src/user/OS_CPU/bsp/bsp_usart.c **** 	temp_l = ch&0XFF;
 148:../../source/src/user/OS_CPU/bsp/bsp_usart.c **** 	
 149:../../source/src/user/OS_CPU/bsp/bsp_usart.c **** 	/* 发送高八位 */
 150:../../source/src/user/OS_CPU/bsp/bsp_usart.c **** 	USART_SendData(pUSARTx,temp_h);	
 328              		.loc 1 150 0
 329 0114 090A     		lsrs	r1, r1, #8
 330              	.LVL26:
 141:../../source/src/user/OS_CPU/bsp/bsp_usart.c **** 	uint8_t temp_h, temp_l;
 331              		.loc 1 141 0
 332 0116 0446     		mov	r4, r0
 333              		.loc 1 150 0
 334 0118 FFF7FEFF 		bl	USART_SendData
 335              	.LVL27:
 336              	.L26:
 151:../../source/src/user/OS_CPU/bsp/bsp_usart.c **** 	while (USART_GetFlagStatus(pUSARTx, USART_FLAG_TXE) == RESET);
 337              		.loc 1 151 0 discriminator 1
 338 011c 8021     		movs	r1, #128
 339 011e 2046     		mov	r0, r4
 340 0120 FFF7FEFF 		bl	USART_GetFlagStatus
ARM GAS  G:\Users\Jaxb\AppData\Local\Temp\ccYqEobM.s 			page 10


 341              	.LVL28:
 342 0124 0028     		cmp	r0, #0
 343 0126 F9D0     		beq	.L26
 152:../../source/src/user/OS_CPU/bsp/bsp_usart.c **** 	
 153:../../source/src/user/OS_CPU/bsp/bsp_usart.c **** 	/* 发送低八位 */
 154:../../source/src/user/OS_CPU/bsp/bsp_usart.c **** 	USART_SendData(pUSARTx,temp_l);	
 344              		.loc 1 154 0
 345 0128 E9B2     		uxtb	r1, r5
 346 012a 2046     		mov	r0, r4
 347 012c FFF7FEFF 		bl	USART_SendData
 348              	.LVL29:
 349              	.L27:
 155:../../source/src/user/OS_CPU/bsp/bsp_usart.c **** 	while (USART_GetFlagStatus(pUSARTx, USART_FLAG_TXE) == RESET);	
 350              		.loc 1 155 0 discriminator 1
 351 0130 8021     		movs	r1, #128
 352 0132 2046     		mov	r0, r4
 353 0134 FFF7FEFF 		bl	USART_GetFlagStatus
 354              	.LVL30:
 355 0138 0028     		cmp	r0, #0
 356 013a F9D0     		beq	.L27
 156:../../source/src/user/OS_CPU/bsp/bsp_usart.c **** }
 357              		.loc 1 156 0
 358 013c 38BD     		pop	{r3, r4, r5, pc}
 359              		.cfi_endproc
 360              	.LFE34:
 361              		.size	Usart_SendHalfWord, .-Usart_SendHalfWord
 362              	.Letext0:
 363              		.file 2 "f:\\arm\\gcc2018\\arm-none-eabi\\include\\machine\\_default_types.h"
 364              		.file 3 "f:\\arm\\gcc2018\\arm-none-eabi\\include\\sys\\_stdint.h"
 365              		.file 4 "../../source/include/core_cm3.h"
 366              		.file 5 "../../source/include/system_stm32f10x.h"
 367              		.file 6 "../../source/include/stm32f10x.h"
 368              		.file 7 "../../source/src/FWlib/inc/stm32f10x_gpio.h"
 369              		.file 8 "../../source/src/FWlib/inc/stm32f10x_usart.h"
 370              		.file 9 "../../source/src/FWlib/inc/misc.h"
 371              		.file 10 "../../source/src/FWlib/inc/stm32f10x_rcc.h"
 372 013e 00BF     		.section	.debug_info,"",%progbits
 373              	.Ldebug_info0:
 374 0000 85090000 		.4byte	0x985
 375 0004 0200     		.2byte	0x2
 376 0006 00000000 		.4byte	.Ldebug_abbrev0
 377 000a 04       		.byte	0x4
 378 000b 01       		.uleb128 0x1
 379 000c DD030000 		.4byte	.LASF151
 380 0010 0C       		.byte	0xc
 381 0011 42090000 		.4byte	.LASF152
 382 0015 99010000 		.4byte	.LASF153
 383 0019 00000000 		.4byte	.Ltext0
 384 001d 3E010000 		.4byte	.Letext0
 385 0021 00000000 		.4byte	.Ldebug_line0
 386 0025 02       		.uleb128 0x2
 387 0026 88050000 		.4byte	.LASF154
 388 002a 05       		.byte	0x5
 389 002b 01       		.byte	0x1
 390 002c CF010000 		.4byte	0x1cf
 391 0030 06       		.byte	0x6
 392 0031 A7       		.byte	0xa7
ARM GAS  G:\Users\Jaxb\AppData\Local\Temp\ccYqEobM.s 			page 11


 393 0032 CF010000 		.4byte	0x1cf
 394 0036 03       		.uleb128 0x3
 395 0037 73060000 		.4byte	.LASF0
 396 003b 72       		.sleb128 -14
 397 003c 03       		.uleb128 0x3
 398 003d 25010000 		.4byte	.LASF1
 399 0041 74       		.sleb128 -12
 400 0042 03       		.uleb128 0x3
 401 0043 83040000 		.4byte	.LASF2
 402 0047 75       		.sleb128 -11
 403 0048 03       		.uleb128 0x3
 404 0049 2D070000 		.4byte	.LASF3
 405 004d 76       		.sleb128 -10
 406 004e 03       		.uleb128 0x3
 407 004f AC070000 		.4byte	.LASF4
 408 0053 7B       		.sleb128 -5
 409 0054 03       		.uleb128 0x3
 410 0055 1B070000 		.4byte	.LASF5
 411 0059 7C       		.sleb128 -4
 412 005a 03       		.uleb128 0x3
 413 005b F6000000 		.4byte	.LASF6
 414 005f 7E       		.sleb128 -2
 415 0060 03       		.uleb128 0x3
 416 0061 EB060000 		.4byte	.LASF7
 417 0065 7F       		.sleb128 -1
 418 0066 04       		.uleb128 0x4
 419 0067 C3030000 		.4byte	.LASF8
 420 006b 00       		.byte	0
 421 006c 04       		.uleb128 0x4
 422 006d D4040000 		.4byte	.LASF9
 423 0071 01       		.byte	0x1
 424 0072 04       		.uleb128 0x4
 425 0073 23090000 		.4byte	.LASF10
 426 0077 02       		.byte	0x2
 427 0078 04       		.uleb128 0x4
 428 0079 CA050000 		.4byte	.LASF11
 429 007d 03       		.byte	0x3
 430 007e 04       		.uleb128 0x4
 431 007f B1000000 		.4byte	.LASF12
 432 0083 04       		.byte	0x4
 433 0084 04       		.uleb128 0x4
 434 0085 17010000 		.4byte	.LASF13
 435 0089 05       		.byte	0x5
 436 008a 04       		.uleb128 0x4
 437 008b BC000000 		.4byte	.LASF14
 438 008f 06       		.byte	0x6
 439 0090 04       		.uleb128 0x4
 440 0091 B4060000 		.4byte	.LASF15
 441 0095 07       		.byte	0x7
 442 0096 04       		.uleb128 0x4
 443 0097 E9020000 		.4byte	.LASF16
 444 009b 08       		.byte	0x8
 445 009c 04       		.uleb128 0x4
 446 009d A0080000 		.4byte	.LASF17
 447 00a1 09       		.byte	0x9
 448 00a2 04       		.uleb128 0x4
 449 00a3 AC040000 		.4byte	.LASF18
ARM GAS  G:\Users\Jaxb\AppData\Local\Temp\ccYqEobM.s 			page 12


 450 00a7 0A       		.byte	0xa
 451 00a8 04       		.uleb128 0x4
 452 00a9 80030000 		.4byte	.LASF19
 453 00ad 0B       		.byte	0xb
 454 00ae 04       		.uleb128 0x4
 455 00af 76000000 		.4byte	.LASF20
 456 00b3 0C       		.byte	0xc
 457 00b4 04       		.uleb128 0x4
 458 00b5 28050000 		.4byte	.LASF21
 459 00b9 0D       		.byte	0xd
 460 00ba 04       		.uleb128 0x4
 461 00bb F8010000 		.4byte	.LASF22
 462 00bf 0E       		.byte	0xe
 463 00c0 04       		.uleb128 0x4
 464 00c1 01080000 		.4byte	.LASF23
 465 00c5 0F       		.byte	0xf
 466 00c6 04       		.uleb128 0x4
 467 00c7 3D030000 		.4byte	.LASF24
 468 00cb 10       		.byte	0x10
 469 00cc 04       		.uleb128 0x4
 470 00cd 4C000000 		.4byte	.LASF25
 471 00d1 11       		.byte	0x11
 472 00d2 04       		.uleb128 0x4
 473 00d3 E2080000 		.4byte	.LASF26
 474 00d7 12       		.byte	0x12
 475 00d8 04       		.uleb128 0x4
 476 00d9 7D020000 		.4byte	.LASF27
 477 00dd 13       		.byte	0x13
 478 00de 04       		.uleb128 0x4
 479 00df 00000000 		.4byte	.LASF28
 480 00e3 14       		.byte	0x14
 481 00e4 04       		.uleb128 0x4
 482 00e5 42020000 		.4byte	.LASF29
 483 00e9 15       		.byte	0x15
 484 00ea 04       		.uleb128 0x4
 485 00eb 3E000000 		.4byte	.LASF30
 486 00ef 16       		.byte	0x16
 487 00f0 04       		.uleb128 0x4
 488 00f1 9F070000 		.4byte	.LASF31
 489 00f5 17       		.byte	0x17
 490 00f6 04       		.uleb128 0x4
 491 00f7 7A010000 		.4byte	.LASF32
 492 00fb 18       		.byte	0x18
 493 00fc 04       		.uleb128 0x4
 494 00fd 8D050000 		.4byte	.LASF33
 495 0101 19       		.byte	0x19
 496 0102 04       		.uleb128 0x4
 497 0103 BF060000 		.4byte	.LASF34
 498 0107 1A       		.byte	0x1a
 499 0108 04       		.uleb128 0x4
 500 0109 90060000 		.4byte	.LASF35
 501 010d 1B       		.byte	0x1b
 502 010e 04       		.uleb128 0x4
 503 010f 11070000 		.4byte	.LASF36
 504 0113 1C       		.byte	0x1c
 505 0114 04       		.uleb128 0x4
 506 0115 76030000 		.4byte	.LASF37
ARM GAS  G:\Users\Jaxb\AppData\Local\Temp\ccYqEobM.s 			page 13


 507 0119 1D       		.byte	0x1d
 508 011a 04       		.uleb128 0x4
 509 011b 6C000000 		.4byte	.LASF38
 510 011f 1E       		.byte	0x1e
 511 0120 04       		.uleb128 0x4
 512 0121 5D050000 		.4byte	.LASF39
 513 0125 1F       		.byte	0x1f
 514 0126 04       		.uleb128 0x4
 515 0127 DE060000 		.4byte	.LASF40
 516 012b 20       		.byte	0x20
 517 012c 04       		.uleb128 0x4
 518 012d F4020000 		.4byte	.LASF41
 519 0131 21       		.byte	0x21
 520 0132 04       		.uleb128 0x4
 521 0133 5F000000 		.4byte	.LASF42
 522 0137 22       		.byte	0x22
 523 0138 04       		.uleb128 0x4
 524 0139 E4010000 		.4byte	.LASF43
 525 013d 23       		.byte	0x23
 526 013e 04       		.uleb128 0x4
 527 013f ED070000 		.4byte	.LASF44
 528 0143 24       		.byte	0x24
 529 0144 04       		.uleb128 0x4
 530 0145 4F060000 		.4byte	.LASF45
 531 0149 25       		.byte	0x25
 532 014a 04       		.uleb128 0x4
 533 014b 91020000 		.4byte	.LASF46
 534 014f 26       		.byte	0x26
 535 0150 04       		.uleb128 0x4
 536 0151 17090000 		.4byte	.LASF47
 537 0155 27       		.byte	0x27
 538 0156 04       		.uleb128 0x4
 539 0157 D8000000 		.4byte	.LASF48
 540 015b 28       		.byte	0x28
 541 015c 04       		.uleb128 0x4
 542 015d 34090000 		.4byte	.LASF49
 543 0161 29       		.byte	0x29
 544 0162 04       		.uleb128 0x4
 545 0163 A6030000 		.4byte	.LASF50
 546 0167 2A       		.byte	0x2a
 547 0168 04       		.uleb128 0x4
 548 0169 7F080000 		.4byte	.LASF51
 549 016d 2B       		.byte	0x2b
 550 016e 04       		.uleb128 0x4
 551 016f AB050000 		.4byte	.LASF52
 552 0173 2C       		.byte	0x2c
 553 0174 04       		.uleb128 0x4
 554 0175 3B050000 		.4byte	.LASF53
 555 0179 2D       		.byte	0x2d
 556 017a 04       		.uleb128 0x4
 557 017b 9D060000 		.4byte	.LASF54
 558 017f 2E       		.byte	0x2e
 559 0180 04       		.uleb128 0x4
 560 0181 CA040000 		.4byte	.LASF55
 561 0185 2F       		.byte	0x2f
 562 0186 04       		.uleb128 0x4
 563 0187 AA060000 		.4byte	.LASF56
ARM GAS  G:\Users\Jaxb\AppData\Local\Temp\ccYqEobM.s 			page 14


 564 018b 30       		.byte	0x30
 565 018c 04       		.uleb128 0x4
 566 018d 2A000000 		.4byte	.LASF57
 567 0191 31       		.byte	0x31
 568 0192 04       		.uleb128 0x4
 569 0193 1E050000 		.4byte	.LASF58
 570 0197 32       		.byte	0x32
 571 0198 04       		.uleb128 0x4
 572 0199 15030000 		.4byte	.LASF59
 573 019d 33       		.byte	0x33
 574 019e 04       		.uleb128 0x4
 575 019f 0C010000 		.4byte	.LASF60
 576 01a3 34       		.byte	0x34
 577 01a4 04       		.uleb128 0x4
 578 01a5 5B060000 		.4byte	.LASF61
 579 01a9 35       		.byte	0x35
 580 01aa 04       		.uleb128 0x4
 581 01ab EE010000 		.4byte	.LASF62
 582 01af 36       		.byte	0x36
 583 01b0 04       		.uleb128 0x4
 584 01b1 F7070000 		.4byte	.LASF63
 585 01b5 37       		.byte	0x37
 586 01b6 04       		.uleb128 0x4
 587 01b7 63030000 		.4byte	.LASF64
 588 01bb 38       		.byte	0x38
 589 01bc 04       		.uleb128 0x4
 590 01bd EE080000 		.4byte	.LASF65
 591 01c1 39       		.byte	0x39
 592 01c2 04       		.uleb128 0x4
 593 01c3 ED040000 		.4byte	.LASF66
 594 01c7 3A       		.byte	0x3a
 595 01c8 04       		.uleb128 0x4
 596 01c9 CD080000 		.4byte	.LASF67
 597 01cd 3B       		.byte	0x3b
 598 01ce 00       		.byte	0
 599 01cf 05       		.uleb128 0x5
 600 01d0 01       		.byte	0x1
 601 01d1 06       		.byte	0x6
 602 01d2 73080000 		.4byte	.LASF68
 603 01d6 06       		.uleb128 0x6
 604 01d7 45080000 		.4byte	.LASF71
 605 01db 02       		.byte	0x2
 606 01dc 2B       		.byte	0x2b
 607 01dd E1010000 		.4byte	0x1e1
 608 01e1 05       		.uleb128 0x5
 609 01e2 01       		.byte	0x1
 610 01e3 08       		.byte	0x8
 611 01e4 4E070000 		.4byte	.LASF69
 612 01e8 05       		.uleb128 0x5
 613 01e9 02       		.byte	0x2
 614 01ea 05       		.byte	0x5
 615 01eb 2C060000 		.4byte	.LASF70
 616 01ef 06       		.uleb128 0x6
 617 01f0 37020000 		.4byte	.LASF72
 618 01f4 02       		.byte	0x2
 619 01f5 39       		.byte	0x39
 620 01f6 FA010000 		.4byte	0x1fa
ARM GAS  G:\Users\Jaxb\AppData\Local\Temp\ccYqEobM.s 			page 15


 621 01fa 05       		.uleb128 0x5
 622 01fb 02       		.byte	0x2
 623 01fc 07       		.byte	0x7
 624 01fd 8D080000 		.4byte	.LASF73
 625 0201 05       		.uleb128 0x5
 626 0202 04       		.byte	0x4
 627 0203 05       		.byte	0x5
 628 0204 46060000 		.4byte	.LASF74
 629 0208 06       		.uleb128 0x6
 630 0209 6B070000 		.4byte	.LASF75
 631 020d 02       		.byte	0x2
 632 020e 4F       		.byte	0x4f
 633 020f 13020000 		.4byte	0x213
 634 0213 05       		.uleb128 0x5
 635 0214 04       		.byte	0x4
 636 0215 07       		.byte	0x7
 637 0216 FF060000 		.4byte	.LASF76
 638 021a 05       		.uleb128 0x5
 639 021b 08       		.byte	0x8
 640 021c 05       		.byte	0x5
 641 021d B5030000 		.4byte	.LASF77
 642 0221 05       		.uleb128 0x5
 643 0222 08       		.byte	0x8
 644 0223 07       		.byte	0x7
 645 0224 1A020000 		.4byte	.LASF78
 646 0228 07       		.uleb128 0x7
 647 0229 04       		.byte	0x4
 648 022a 05       		.byte	0x5
 649 022b 696E7400 		.ascii	"int\000"
 650 022f 08       		.uleb128 0x8
 651 0230 28020000 		.4byte	0x228
 652 0234 05       		.uleb128 0x5
 653 0235 04       		.byte	0x4
 654 0236 07       		.byte	0x7
 655 0237 89000000 		.4byte	.LASF79
 656 023b 06       		.uleb128 0x6
 657 023c 9E030000 		.4byte	.LASF80
 658 0240 03       		.byte	0x3
 659 0241 18       		.byte	0x18
 660 0242 D6010000 		.4byte	0x1d6
 661 0246 06       		.uleb128 0x6
 662 0247 7F050000 		.4byte	.LASF81
 663 024b 03       		.byte	0x3
 664 024c 24       		.byte	0x24
 665 024d EF010000 		.4byte	0x1ef
 666 0251 08       		.uleb128 0x8
 667 0252 46020000 		.4byte	0x246
 668 0256 06       		.uleb128 0x6
 669 0257 54010000 		.4byte	.LASF82
 670 025b 03       		.byte	0x3
 671 025c 30       		.byte	0x30
 672 025d 08020000 		.4byte	0x208
 673 0261 08       		.uleb128 0x8
 674 0262 56020000 		.4byte	0x256
 675 0266 09       		.uleb128 0x9
 676 0267 66060000 		.4byte	.LASF83
 677 026b 04       		.byte	0x4
ARM GAS  G:\Users\Jaxb\AppData\Local\Temp\ccYqEobM.s 			page 16


 678 026c CE06     		.2byte	0x6ce
 679 026e 2F020000 		.4byte	0x22f
 680 0272 01       		.byte	0x1
 681 0273 01       		.byte	0x1
 682 0274 0A       		.uleb128 0xa
 683 0275 15000000 		.4byte	.LASF84
 684 0279 05       		.byte	0x5
 685 027a 35       		.byte	0x35
 686 027b 56020000 		.4byte	0x256
 687 027f 01       		.byte	0x1
 688 0280 01       		.byte	0x1
 689 0281 0B       		.uleb128 0xb
 690 0282 07       		.byte	0x7
 691 0283 01       		.byte	0x1
 692 0284 E1010000 		.4byte	0x1e1
 693 0288 06       		.byte	0x6
 694 0289 0702     		.2byte	0x207
 695 028b 9C020000 		.4byte	0x29c
 696 028f 04       		.uleb128 0x4
 697 0290 31020000 		.4byte	.LASF85
 698 0294 00       		.byte	0
 699 0295 0C       		.uleb128 0xc
 700 0296 53455400 		.ascii	"SET\000"
 701 029a 01       		.byte	0x1
 702 029b 00       		.byte	0
 703 029c 0B       		.uleb128 0xb
 704 029d 07       		.byte	0x7
 705 029e 01       		.byte	0x1
 706 029f E1010000 		.4byte	0x1e1
 707 02a3 06       		.byte	0x6
 708 02a4 0902     		.2byte	0x209
 709 02a6 B7020000 		.4byte	0x2b7
 710 02aa 04       		.uleb128 0x4
 711 02ab 1F030000 		.4byte	.LASF86
 712 02af 00       		.byte	0
 713 02b0 04       		.uleb128 0x4
 714 02b1 F8060000 		.4byte	.LASF87
 715 02b5 01       		.byte	0x1
 716 02b6 00       		.byte	0
 717 02b7 0D       		.uleb128 0xd
 718 02b8 96000000 		.4byte	.LASF88
 719 02bc 06       		.byte	0x6
 720 02bd 0902     		.2byte	0x209
 721 02bf 9C020000 		.4byte	0x29c
 722 02c3 0E       		.uleb128 0xe
 723 02c4 1C       		.byte	0x1c
 724 02c5 06       		.byte	0x6
 725 02c6 E903     		.2byte	0x3e9
 726 02c8 36030000 		.4byte	0x336
 727 02cc 0F       		.uleb128 0xf
 728 02cd 43524C00 		.ascii	"CRL\000"
 729 02d1 06       		.byte	0x6
 730 02d2 EB03     		.2byte	0x3eb
 731 02d4 61020000 		.4byte	0x261
 732 02d8 02       		.byte	0x2
 733 02d9 23       		.byte	0x23
 734 02da 00       		.uleb128 0
ARM GAS  G:\Users\Jaxb\AppData\Local\Temp\ccYqEobM.s 			page 17


 735 02db 0F       		.uleb128 0xf
 736 02dc 43524800 		.ascii	"CRH\000"
 737 02e0 06       		.byte	0x6
 738 02e1 EC03     		.2byte	0x3ec
 739 02e3 61020000 		.4byte	0x261
 740 02e7 02       		.byte	0x2
 741 02e8 23       		.byte	0x23
 742 02e9 04       		.uleb128 0x4
 743 02ea 0F       		.uleb128 0xf
 744 02eb 49445200 		.ascii	"IDR\000"
 745 02ef 06       		.byte	0x6
 746 02f0 ED03     		.2byte	0x3ed
 747 02f2 61020000 		.4byte	0x261
 748 02f6 02       		.byte	0x2
 749 02f7 23       		.byte	0x23
 750 02f8 08       		.uleb128 0x8
 751 02f9 0F       		.uleb128 0xf
 752 02fa 4F445200 		.ascii	"ODR\000"
 753 02fe 06       		.byte	0x6
 754 02ff EE03     		.2byte	0x3ee
 755 0301 61020000 		.4byte	0x261
 756 0305 02       		.byte	0x2
 757 0306 23       		.byte	0x23
 758 0307 0C       		.uleb128 0xc
 759 0308 10       		.uleb128 0x10
 760 0309 25000000 		.4byte	.LASF89
 761 030d 06       		.byte	0x6
 762 030e EF03     		.2byte	0x3ef
 763 0310 61020000 		.4byte	0x261
 764 0314 02       		.byte	0x2
 765 0315 23       		.byte	0x23
 766 0316 10       		.uleb128 0x10
 767 0317 0F       		.uleb128 0xf
 768 0318 42525200 		.ascii	"BRR\000"
 769 031c 06       		.byte	0x6
 770 031d F003     		.2byte	0x3f0
 771 031f 61020000 		.4byte	0x261
 772 0323 02       		.byte	0x2
 773 0324 23       		.byte	0x23
 774 0325 14       		.uleb128 0x14
 775 0326 10       		.uleb128 0x10
 776 0327 2F090000 		.4byte	.LASF90
 777 032b 06       		.byte	0x6
 778 032c F103     		.2byte	0x3f1
 779 032e 61020000 		.4byte	0x261
 780 0332 02       		.byte	0x2
 781 0333 23       		.byte	0x23
 782 0334 18       		.uleb128 0x18
 783 0335 00       		.byte	0
 784 0336 0D       		.uleb128 0xd
 785 0337 D1060000 		.4byte	.LASF91
 786 033b 06       		.byte	0x6
 787 033c F203     		.2byte	0x3f2
 788 033e C3020000 		.4byte	0x2c3
 789 0342 0E       		.uleb128 0xe
 790 0343 1C       		.byte	0x1c
 791 0344 06       		.byte	0x6
ARM GAS  G:\Users\Jaxb\AppData\Local\Temp\ccYqEobM.s 			page 18


 792 0345 D204     		.2byte	0x4d2
 793 0347 1C040000 		.4byte	0x41c
 794 034b 0F       		.uleb128 0xf
 795 034c 535200   		.ascii	"SR\000"
 796 034f 06       		.byte	0x6
 797 0350 D404     		.2byte	0x4d4
 798 0352 51020000 		.4byte	0x251
 799 0356 02       		.byte	0x2
 800 0357 23       		.byte	0x23
 801 0358 00       		.uleb128 0
 802 0359 10       		.uleb128 0x10
 803 035a E6050000 		.4byte	.LASF92
 804 035e 06       		.byte	0x6
 805 035f D504     		.2byte	0x4d5
 806 0361 46020000 		.4byte	0x246
 807 0365 02       		.byte	0x2
 808 0366 23       		.byte	0x23
 809 0367 02       		.uleb128 0x2
 810 0368 0F       		.uleb128 0xf
 811 0369 445200   		.ascii	"DR\000"
 812 036c 06       		.byte	0x6
 813 036d D604     		.2byte	0x4d6
 814 036f 51020000 		.4byte	0x251
 815 0373 02       		.byte	0x2
 816 0374 23       		.byte	0x23
 817 0375 04       		.uleb128 0x4
 818 0376 10       		.uleb128 0x10
 819 0377 F0050000 		.4byte	.LASF93
 820 037b 06       		.byte	0x6
 821 037c D704     		.2byte	0x4d7
 822 037e 46020000 		.4byte	0x246
 823 0382 02       		.byte	0x2
 824 0383 23       		.byte	0x23
 825 0384 06       		.uleb128 0x6
 826 0385 0F       		.uleb128 0xf
 827 0386 42525200 		.ascii	"BRR\000"
 828 038a 06       		.byte	0x6
 829 038b D804     		.2byte	0x4d8
 830 038d 51020000 		.4byte	0x251
 831 0391 02       		.byte	0x2
 832 0392 23       		.byte	0x23
 833 0393 08       		.uleb128 0x8
 834 0394 10       		.uleb128 0x10
 835 0395 FA050000 		.4byte	.LASF94
 836 0399 06       		.byte	0x6
 837 039a D904     		.2byte	0x4d9
 838 039c 46020000 		.4byte	0x246
 839 03a0 02       		.byte	0x2
 840 03a1 23       		.byte	0x23
 841 03a2 0A       		.uleb128 0xa
 842 03a3 0F       		.uleb128 0xf
 843 03a4 43523100 		.ascii	"CR1\000"
 844 03a8 06       		.byte	0x6
 845 03a9 DA04     		.2byte	0x4da
 846 03ab 51020000 		.4byte	0x251
 847 03af 02       		.byte	0x2
 848 03b0 23       		.byte	0x23
ARM GAS  G:\Users\Jaxb\AppData\Local\Temp\ccYqEobM.s 			page 19


 849 03b1 0C       		.uleb128 0xc
 850 03b2 10       		.uleb128 0x10
 851 03b3 04060000 		.4byte	.LASF95
 852 03b7 06       		.byte	0x6
 853 03b8 DB04     		.2byte	0x4db
 854 03ba 46020000 		.4byte	0x246
 855 03be 02       		.byte	0x2
 856 03bf 23       		.byte	0x23
 857 03c0 0E       		.uleb128 0xe
 858 03c1 0F       		.uleb128 0xf
 859 03c2 43523200 		.ascii	"CR2\000"
 860 03c6 06       		.byte	0x6
 861 03c7 DC04     		.2byte	0x4dc
 862 03c9 51020000 		.4byte	0x251
 863 03cd 02       		.byte	0x2
 864 03ce 23       		.byte	0x23
 865 03cf 10       		.uleb128 0x10
 866 03d0 10       		.uleb128 0x10
 867 03d1 0E060000 		.4byte	.LASF96
 868 03d5 06       		.byte	0x6
 869 03d6 DD04     		.2byte	0x4dd
 870 03d8 46020000 		.4byte	0x246
 871 03dc 02       		.byte	0x2
 872 03dd 23       		.byte	0x23
 873 03de 12       		.uleb128 0x12
 874 03df 0F       		.uleb128 0xf
 875 03e0 43523300 		.ascii	"CR3\000"
 876 03e4 06       		.byte	0x6
 877 03e5 DE04     		.2byte	0x4de
 878 03e7 51020000 		.4byte	0x251
 879 03eb 02       		.byte	0x2
 880 03ec 23       		.byte	0x23
 881 03ed 14       		.uleb128 0x14
 882 03ee 10       		.uleb128 0x10
 883 03ef 18060000 		.4byte	.LASF97
 884 03f3 06       		.byte	0x6
 885 03f4 DF04     		.2byte	0x4df
 886 03f6 46020000 		.4byte	0x246
 887 03fa 02       		.byte	0x2
 888 03fb 23       		.byte	0x23
 889 03fc 16       		.uleb128 0x16
 890 03fd 10       		.uleb128 0x10
 891 03fe 20010000 		.4byte	.LASF98
 892 0402 06       		.byte	0x6
 893 0403 E004     		.2byte	0x4e0
 894 0405 51020000 		.4byte	0x251
 895 0409 02       		.byte	0x2
 896 040a 23       		.byte	0x23
 897 040b 18       		.uleb128 0x18
 898 040c 10       		.uleb128 0x10
 899 040d 22060000 		.4byte	.LASF99
 900 0411 06       		.byte	0x6
 901 0412 E104     		.2byte	0x4e1
 902 0414 46020000 		.4byte	0x246
 903 0418 02       		.byte	0x2
 904 0419 23       		.byte	0x23
 905 041a 1A       		.uleb128 0x1a
ARM GAS  G:\Users\Jaxb\AppData\Local\Temp\ccYqEobM.s 			page 20


 906 041b 00       		.byte	0
 907 041c 0D       		.uleb128 0xd
 908 041d DB020000 		.4byte	.LASF100
 909 0421 06       		.byte	0x6
 910 0422 E204     		.2byte	0x4e2
 911 0424 42030000 		.4byte	0x342
 912 0428 11       		.uleb128 0x11
 913 0429 07       		.byte	0x7
 914 042a 01       		.byte	0x1
 915 042b E1010000 		.4byte	0x1e1
 916 042f 07       		.byte	0x7
 917 0430 3B       		.byte	0x3b
 918 0431 48040000 		.4byte	0x448
 919 0435 04       		.uleb128 0x4
 920 0436 9A050000 		.4byte	.LASF101
 921 043a 01       		.byte	0x1
 922 043b 04       		.uleb128 0x4
 923 043c B8070000 		.4byte	.LASF102
 924 0440 02       		.byte	0x2
 925 0441 04       		.uleb128 0x4
 926 0442 84070000 		.4byte	.LASF103
 927 0446 03       		.byte	0x3
 928 0447 00       		.byte	0
 929 0448 06       		.uleb128 0x6
 930 0449 B8050000 		.4byte	.LASF104
 931 044d 07       		.byte	0x7
 932 044e 3F       		.byte	0x3f
 933 044f 28040000 		.4byte	0x428
 934 0453 11       		.uleb128 0x11
 935 0454 07       		.byte	0x7
 936 0455 01       		.byte	0x1
 937 0456 E1010000 		.4byte	0x1e1
 938 045a 07       		.byte	0x7
 939 045b 48       		.byte	0x48
 940 045c 91040000 		.4byte	0x491
 941 0460 04       		.uleb128 0x4
 942 0461 76070000 		.4byte	.LASF105
 943 0465 00       		.byte	0
 944 0466 04       		.uleb128 0x4
 945 0467 01090000 		.4byte	.LASF106
 946 046b 04       		.byte	0x4
 947 046c 04       		.uleb128 0x4
 948 046d 61020000 		.4byte	.LASF107
 949 0471 28       		.byte	0x28
 950 0472 04       		.uleb128 0x4
 951 0473 6F020000 		.4byte	.LASF108
 952 0477 48       		.byte	0x48
 953 0478 04       		.uleb128 0x4
 954 0479 B7020000 		.4byte	.LASF109
 955 047d 14       		.byte	0x14
 956 047e 04       		.uleb128 0x4
 957 047f 27030000 		.4byte	.LASF110
 958 0483 10       		.byte	0x10
 959 0484 04       		.uleb128 0x4
 960 0485 4D050000 		.4byte	.LASF111
 961 0489 1C       		.byte	0x1c
 962 048a 04       		.uleb128 0x4
ARM GAS  G:\Users\Jaxb\AppData\Local\Temp\ccYqEobM.s 			page 21


 963 048b 36060000 		.4byte	.LASF112
 964 048f 18       		.byte	0x18
 965 0490 00       		.byte	0
 966 0491 06       		.uleb128 0x6
 967 0492 C7000000 		.4byte	.LASF113
 968 0496 07       		.byte	0x7
 969 0497 50       		.byte	0x50
 970 0498 53040000 		.4byte	0x453
 971 049c 12       		.uleb128 0x12
 972 049d 04       		.byte	0x4
 973 049e 07       		.byte	0x7
 974 049f 5B       		.byte	0x5b
 975 04a0 CF040000 		.4byte	0x4cf
 976 04a4 13       		.uleb128 0x13
 977 04a5 87060000 		.4byte	.LASF114
 978 04a9 07       		.byte	0x7
 979 04aa 5D       		.byte	0x5d
 980 04ab 46020000 		.4byte	0x246
 981 04af 02       		.byte	0x2
 982 04b0 23       		.byte	0x23
 983 04b1 00       		.uleb128 0
 984 04b2 13       		.uleb128 0x13
 985 04b3 68080000 		.4byte	.LASF115
 986 04b7 07       		.byte	0x7
 987 04b8 60       		.byte	0x60
 988 04b9 48040000 		.4byte	0x448
 989 04bd 02       		.byte	0x2
 990 04be 23       		.byte	0x23
 991 04bf 02       		.uleb128 0x2
 992 04c0 13       		.uleb128 0x13
 993 04c1 34000000 		.4byte	.LASF116
 994 04c5 07       		.byte	0x7
 995 04c6 63       		.byte	0x63
 996 04c7 91040000 		.4byte	0x491
 997 04cb 02       		.byte	0x2
 998 04cc 23       		.byte	0x23
 999 04cd 03       		.uleb128 0x3
 1000 04ce 00       		.byte	0
 1001 04cf 06       		.uleb128 0x6
 1002 04d0 3D070000 		.4byte	.LASF117
 1003 04d4 07       		.byte	0x7
 1004 04d5 65       		.byte	0x65
 1005 04d6 9C040000 		.4byte	0x49c
 1006 04da 12       		.uleb128 0x12
 1007 04db 10       		.byte	0x10
 1008 04dc 08       		.byte	0x8
 1009 04dd 32       		.byte	0x32
 1010 04de 37050000 		.4byte	0x537
 1011 04e2 13       		.uleb128 0x13
 1012 04e3 5D010000 		.4byte	.LASF118
 1013 04e7 08       		.byte	0x8
 1014 04e8 34       		.byte	0x34
 1015 04e9 56020000 		.4byte	0x256
 1016 04ed 02       		.byte	0x2
 1017 04ee 23       		.byte	0x23
 1018 04ef 00       		.uleb128 0
 1019 04f0 13       		.uleb128 0x13
ARM GAS  G:\Users\Jaxb\AppData\Local\Temp\ccYqEobM.s 			page 22


 1020 04f1 50020000 		.4byte	.LASF119
 1021 04f5 08       		.byte	0x8
 1022 04f6 39       		.byte	0x39
 1023 04f7 46020000 		.4byte	0x246
 1024 04fb 02       		.byte	0x2
 1025 04fc 23       		.byte	0x23
 1026 04fd 04       		.uleb128 0x4
 1027 04fe 13       		.uleb128 0x13
 1028 04ff E7000000 		.4byte	.LASF120
 1029 0503 08       		.byte	0x8
 1030 0504 3C       		.byte	0x3c
 1031 0505 46020000 		.4byte	0x246
 1032 0509 02       		.byte	0x2
 1033 050a 23       		.byte	0x23
 1034 050b 06       		.uleb128 0x6
 1035 050c 13       		.uleb128 0x13
 1036 050d 14080000 		.4byte	.LASF121
 1037 0511 08       		.byte	0x8
 1038 0512 3F       		.byte	0x3f
 1039 0513 46020000 		.4byte	0x246
 1040 0517 02       		.byte	0x2
 1041 0518 23       		.byte	0x23
 1042 0519 08       		.uleb128 0x8
 1043 051a 13       		.uleb128 0x13
 1044 051b 93030000 		.4byte	.LASF122
 1045 051f 08       		.byte	0x8
 1046 0520 46       		.byte	0x46
 1047 0521 46020000 		.4byte	0x246
 1048 0525 02       		.byte	0x2
 1049 0526 23       		.byte	0x23
 1050 0527 0A       		.uleb128 0xa
 1051 0528 13       		.uleb128 0x13
 1052 0529 9D020000 		.4byte	.LASF123
 1053 052d 08       		.byte	0x8
 1054 052e 49       		.byte	0x49
 1055 052f 46020000 		.4byte	0x246
 1056 0533 02       		.byte	0x2
 1057 0534 23       		.byte	0x23
 1058 0535 0C       		.uleb128 0xc
 1059 0536 00       		.byte	0
 1060 0537 06       		.uleb128 0x6
 1061 0538 DB070000 		.4byte	.LASF124
 1062 053c 08       		.byte	0x8
 1063 053d 4C       		.byte	0x4c
 1064 053e DA040000 		.4byte	0x4da
 1065 0542 12       		.uleb128 0x12
 1066 0543 04       		.byte	0x4
 1067 0544 09       		.byte	0x9
 1068 0545 32       		.byte	0x32
 1069 0546 83050000 		.4byte	0x583
 1070 054a 13       		.uleb128 0x13
 1071 054b DD040000 		.4byte	.LASF125
 1072 054f 09       		.byte	0x9
 1073 0550 34       		.byte	0x34
 1074 0551 3B020000 		.4byte	0x23b
 1075 0555 02       		.byte	0x2
 1076 0556 23       		.byte	0x23
ARM GAS  G:\Users\Jaxb\AppData\Local\Temp\ccYqEobM.s 			page 23


 1077 0557 00       		.uleb128 0
 1078 0558 13       		.uleb128 0x13
 1079 0559 AB080000 		.4byte	.LASF126
 1080 055d 09       		.byte	0x9
 1081 055e 39       		.byte	0x39
 1082 055f 3B020000 		.4byte	0x23b
 1083 0563 02       		.byte	0x2
 1084 0564 23       		.byte	0x23
 1085 0565 01       		.uleb128 0x1
 1086 0566 13       		.uleb128 0x13
 1087 0567 91040000 		.4byte	.LASF127
 1088 056b 09       		.byte	0x9
 1089 056c 3D       		.byte	0x3d
 1090 056d 3B020000 		.4byte	0x23b
 1091 0571 02       		.byte	0x2
 1092 0572 23       		.byte	0x23
 1093 0573 02       		.uleb128 0x2
 1094 0574 13       		.uleb128 0x13
 1095 0575 C8020000 		.4byte	.LASF128
 1096 0579 09       		.byte	0x9
 1097 057a 41       		.byte	0x41
 1098 057b B7020000 		.4byte	0x2b7
 1099 057f 02       		.byte	0x2
 1100 0580 23       		.byte	0x23
 1101 0581 03       		.uleb128 0x3
 1102 0582 00       		.byte	0
 1103 0583 06       		.uleb128 0x6
 1104 0584 88010000 		.4byte	.LASF129
 1105 0588 09       		.byte	0x9
 1106 0589 44       		.byte	0x44
 1107 058a 42050000 		.4byte	0x542
 1108 058e 14       		.uleb128 0x14
 1109 058f 01       		.byte	0x1
 1110 0590 D3050000 		.4byte	.LASF133
 1111 0594 01       		.byte	0x1
 1112 0595 8C       		.byte	0x8c
 1113 0596 01       		.byte	0x1
 1114 0597 10010000 		.4byte	.LFB34
 1115 059b 3E010000 		.4byte	.LFE34
 1116 059f 00000000 		.4byte	.LLST13
 1117 05a3 01       		.byte	0x1
 1118 05a4 4D060000 		.4byte	0x64d
 1119 05a8 15       		.uleb128 0x15
 1120 05a9 4C010000 		.4byte	.LASF130
 1121 05ad 01       		.byte	0x1
 1122 05ae 8C       		.byte	0x8c
 1123 05af 4D060000 		.4byte	0x64d
 1124 05b3 20000000 		.4byte	.LLST14
 1125 05b7 16       		.uleb128 0x16
 1126 05b8 636800   		.ascii	"ch\000"
 1127 05bb 01       		.byte	0x1
 1128 05bc 8C       		.byte	0x8c
 1129 05bd 46020000 		.4byte	0x246
 1130 05c1 3E000000 		.4byte	.LLST15
 1131 05c5 17       		.uleb128 0x17
 1132 05c6 6C010000 		.4byte	.LASF131
 1133 05ca 01       		.byte	0x1
ARM GAS  G:\Users\Jaxb\AppData\Local\Temp\ccYqEobM.s 			page 24


 1134 05cb 8E       		.byte	0x8e
 1135 05cc 3B020000 		.4byte	0x23b
 1136 05d0 5F000000 		.4byte	.LLST16
 1137 05d4 17       		.uleb128 0x17
 1138 05d5 73010000 		.4byte	.LASF132
 1139 05d9 01       		.byte	0x1
 1140 05da 8E       		.byte	0x8e
 1141 05db 3B020000 		.4byte	0x23b
 1142 05df 86000000 		.4byte	.LLST17
 1143 05e3 18       		.uleb128 0x18
 1144 05e4 1C010000 		.4byte	.LVL27
 1145 05e8 0C090000 		.4byte	0x90c
 1146 05ec FF050000 		.4byte	0x5ff
 1147 05f0 19       		.uleb128 0x19
 1148 05f1 01       		.byte	0x1
 1149 05f2 50       		.byte	0x50
 1150 05f3 02       		.byte	0x2
 1151 05f4 74       		.byte	0x74
 1152 05f5 00       		.sleb128 0
 1153 05f6 19       		.uleb128 0x19
 1154 05f7 01       		.byte	0x1
 1155 05f8 51       		.byte	0x51
 1156 05f9 04       		.byte	0x4
 1157 05fa 75       		.byte	0x75
 1158 05fb 00       		.sleb128 0
 1159 05fc 38       		.byte	0x38
 1160 05fd 25       		.byte	0x25
 1161 05fe 00       		.byte	0
 1162 05ff 18       		.uleb128 0x18
 1163 0600 24010000 		.4byte	.LVL28
 1164 0604 1A090000 		.4byte	0x91a
 1165 0608 19060000 		.4byte	0x619
 1166 060c 19       		.uleb128 0x19
 1167 060d 01       		.byte	0x1
 1168 060e 50       		.byte	0x50
 1169 060f 02       		.byte	0x2
 1170 0610 74       		.byte	0x74
 1171 0611 00       		.sleb128 0
 1172 0612 19       		.uleb128 0x19
 1173 0613 01       		.byte	0x1
 1174 0614 51       		.byte	0x51
 1175 0615 02       		.byte	0x2
 1176 0616 08       		.byte	0x8
 1177 0617 80       		.byte	0x80
 1178 0618 00       		.byte	0
 1179 0619 18       		.uleb128 0x18
 1180 061a 30010000 		.4byte	.LVL29
 1181 061e 0C090000 		.4byte	0x90c
 1182 0622 36060000 		.4byte	0x636
 1183 0626 19       		.uleb128 0x19
 1184 0627 01       		.byte	0x1
 1185 0628 50       		.byte	0x50
 1186 0629 02       		.byte	0x2
 1187 062a 74       		.byte	0x74
 1188 062b 00       		.sleb128 0
 1189 062c 19       		.uleb128 0x19
 1190 062d 01       		.byte	0x1
ARM GAS  G:\Users\Jaxb\AppData\Local\Temp\ccYqEobM.s 			page 25


 1191 062e 51       		.byte	0x51
 1192 062f 05       		.byte	0x5
 1193 0630 75       		.byte	0x75
 1194 0631 00       		.sleb128 0
 1195 0632 08       		.byte	0x8
 1196 0633 FF       		.byte	0xff
 1197 0634 1A       		.byte	0x1a
 1198 0635 00       		.byte	0
 1199 0636 1A       		.uleb128 0x1a
 1200 0637 38010000 		.4byte	.LVL30
 1201 063b 1A090000 		.4byte	0x91a
 1202 063f 19       		.uleb128 0x19
 1203 0640 01       		.byte	0x1
 1204 0641 50       		.byte	0x50
 1205 0642 02       		.byte	0x2
 1206 0643 74       		.byte	0x74
 1207 0644 00       		.sleb128 0
 1208 0645 19       		.uleb128 0x19
 1209 0646 01       		.byte	0x1
 1210 0647 51       		.byte	0x51
 1211 0648 02       		.byte	0x2
 1212 0649 08       		.byte	0x8
 1213 064a 80       		.byte	0x80
 1214 064b 00       		.byte	0
 1215 064c 00       		.byte	0
 1216 064d 1B       		.uleb128 0x1b
 1217 064e 04       		.byte	0x4
 1218 064f 1C040000 		.4byte	0x41c
 1219 0653 14       		.uleb128 0x14
 1220 0654 01       		.byte	0x1
 1221 0655 3B010000 		.4byte	.LASF134
 1222 0659 01       		.byte	0x1
 1223 065a 7D       		.byte	0x7d
 1224 065b 01       		.byte	0x1
 1225 065c EC000000 		.4byte	.LFB33
 1226 0660 10010000 		.4byte	.LFE33
 1227 0664 A7000000 		.4byte	.LLST9
 1228 0668 01       		.byte	0x1
 1229 0669 C3060000 		.4byte	0x6c3
 1230 066d 15       		.uleb128 0x15
 1231 066e 4C010000 		.4byte	.LASF130
 1232 0672 01       		.byte	0x1
 1233 0673 7D       		.byte	0x7d
 1234 0674 4D060000 		.4byte	0x64d
 1235 0678 C7000000 		.4byte	.LLST10
 1236 067c 16       		.uleb128 0x16
 1237 067d 73747200 		.ascii	"str\000"
 1238 0681 01       		.byte	0x1
 1239 0682 7D       		.byte	0x7d
 1240 0683 C3060000 		.4byte	0x6c3
 1241 0687 E5000000 		.4byte	.LLST11
 1242 068b 1C       		.uleb128 0x1c
 1243 068c 6B00     		.ascii	"k\000"
 1244 068e 01       		.byte	0x1
 1245 068f 7F       		.byte	0x7f
 1246 0690 34020000 		.4byte	0x234
 1247 0694 06010000 		.4byte	.LLST12
ARM GAS  G:\Users\Jaxb\AppData\Local\Temp\ccYqEobM.s 			page 26


 1248 0698 18       		.uleb128 0x18
 1249 0699 FA000000 		.4byte	.LVL21
 1250 069d 55070000 		.4byte	0x755
 1251 06a1 AC060000 		.4byte	0x6ac
 1252 06a5 19       		.uleb128 0x19
 1253 06a6 01       		.byte	0x1
 1254 06a7 50       		.byte	0x50
 1255 06a8 02       		.byte	0x2
 1256 06a9 75       		.byte	0x75
 1257 06aa 00       		.sleb128 0
 1258 06ab 00       		.byte	0
 1259 06ac 1A       		.uleb128 0x1a
 1260 06ad 0A010000 		.4byte	.LVL23
 1261 06b1 1A090000 		.4byte	0x91a
 1262 06b5 19       		.uleb128 0x19
 1263 06b6 01       		.byte	0x1
 1264 06b7 50       		.byte	0x50
 1265 06b8 02       		.byte	0x2
 1266 06b9 75       		.byte	0x75
 1267 06ba 00       		.sleb128 0
 1268 06bb 19       		.uleb128 0x19
 1269 06bc 01       		.byte	0x1
 1270 06bd 51       		.byte	0x51
 1271 06be 02       		.byte	0x2
 1272 06bf 08       		.byte	0x8
 1273 06c0 40       		.byte	0x40
 1274 06c1 00       		.byte	0
 1275 06c2 00       		.byte	0
 1276 06c3 1B       		.uleb128 0x1b
 1277 06c4 04       		.byte	0x4
 1278 06c5 C9060000 		.4byte	0x6c9
 1279 06c9 05       		.uleb128 0x5
 1280 06ca 01       		.byte	0x1
 1281 06cb 08       		.byte	0x8
 1282 06cc 38030000 		.4byte	.LASF135
 1283 06d0 14       		.uleb128 0x14
 1284 06d1 01       		.byte	0x1
 1285 06d2 CD030000 		.4byte	.LASF136
 1286 06d6 01       		.byte	0x1
 1287 06d7 6E       		.byte	0x6e
 1288 06d8 01       		.byte	0x1
 1289 06d9 C0000000 		.4byte	.LFB32
 1290 06dd EA000000 		.4byte	.LFE32
 1291 06e1 4F010000 		.4byte	.LLST4
 1292 06e5 01       		.byte	0x1
 1293 06e6 4F070000 		.4byte	0x74f
 1294 06ea 15       		.uleb128 0x15
 1295 06eb 4C010000 		.4byte	.LASF130
 1296 06ef 01       		.byte	0x1
 1297 06f0 6E       		.byte	0x6e
 1298 06f1 4D060000 		.4byte	0x64d
 1299 06f5 6F010000 		.4byte	.LLST5
 1300 06f9 15       		.uleb128 0x15
 1301 06fa 6A050000 		.4byte	.LASF137
 1302 06fe 01       		.byte	0x1
 1303 06ff 6E       		.byte	0x6e
 1304 0700 4F070000 		.4byte	0x74f
ARM GAS  G:\Users\Jaxb\AppData\Local\Temp\ccYqEobM.s 			page 27


 1305 0704 8D010000 		.4byte	.LLST6
 1306 0708 16       		.uleb128 0x16
 1307 0709 6E756D00 		.ascii	"num\000"
 1308 070d 01       		.byte	0x1
 1309 070e 6E       		.byte	0x6e
 1310 070f 46020000 		.4byte	0x246
 1311 0713 AB010000 		.4byte	.LLST7
 1312 0717 1C       		.uleb128 0x1c
 1313 0718 6900     		.ascii	"i\000"
 1314 071a 01       		.byte	0x1
 1315 071b 70       		.byte	0x70
 1316 071c 3B020000 		.4byte	0x23b
 1317 0720 CC010000 		.4byte	.LLST8
 1318 0724 18       		.uleb128 0x18
 1319 0725 D8000000 		.4byte	.LVL15
 1320 0729 55070000 		.4byte	0x755
 1321 072d 38070000 		.4byte	0x738
 1322 0731 19       		.uleb128 0x19
 1323 0732 01       		.byte	0x1
 1324 0733 50       		.byte	0x50
 1325 0734 02       		.byte	0x2
 1326 0735 75       		.byte	0x75
 1327 0736 00       		.sleb128 0
 1328 0737 00       		.byte	0
 1329 0738 1A       		.uleb128 0x1a
 1330 0739 E4000000 		.4byte	.LVL17
 1331 073d 1A090000 		.4byte	0x91a
 1332 0741 19       		.uleb128 0x19
 1333 0742 01       		.byte	0x1
 1334 0743 50       		.byte	0x50
 1335 0744 02       		.byte	0x2
 1336 0745 75       		.byte	0x75
 1337 0746 00       		.sleb128 0
 1338 0747 19       		.uleb128 0x19
 1339 0748 01       		.byte	0x1
 1340 0749 51       		.byte	0x51
 1341 074a 02       		.byte	0x2
 1342 074b 08       		.byte	0x8
 1343 074c 40       		.byte	0x40
 1344 074d 00       		.byte	0
 1345 074e 00       		.byte	0
 1346 074f 1B       		.uleb128 0x1b
 1347 0750 04       		.byte	0x4
 1348 0751 3B020000 		.4byte	0x23b
 1349 0755 14       		.uleb128 0x14
 1350 0756 01       		.byte	0x1
 1351 0757 70050000 		.4byte	.LASF138
 1352 075b 01       		.byte	0x1
 1353 075c 64       		.byte	0x64
 1354 075d 01       		.byte	0x1
 1355 075e A8000000 		.4byte	.LFB31
 1356 0762 BE000000 		.4byte	.LFE31
 1357 0766 F6010000 		.4byte	.LLST1
 1358 076a 01       		.byte	0x1
 1359 076b B7070000 		.4byte	0x7b7
 1360 076f 15       		.uleb128 0x15
 1361 0770 4C010000 		.4byte	.LASF130
ARM GAS  G:\Users\Jaxb\AppData\Local\Temp\ccYqEobM.s 			page 28


 1362 0774 01       		.byte	0x1
 1363 0775 64       		.byte	0x64
 1364 0776 4D060000 		.4byte	0x64d
 1365 077a 16020000 		.4byte	.LLST2
 1366 077e 16       		.uleb128 0x16
 1367 077f 636800   		.ascii	"ch\000"
 1368 0782 01       		.byte	0x1
 1369 0783 64       		.byte	0x64
 1370 0784 3B020000 		.4byte	0x23b
 1371 0788 34020000 		.4byte	.LLST3
 1372 078c 18       		.uleb128 0x18
 1373 078d B0000000 		.4byte	.LVL10
 1374 0791 0C090000 		.4byte	0x90c
 1375 0795 A0070000 		.4byte	0x7a0
 1376 0799 19       		.uleb128 0x19
 1377 079a 01       		.byte	0x1
 1378 079b 50       		.byte	0x50
 1379 079c 02       		.byte	0x2
 1380 079d 74       		.byte	0x74
 1381 079e 00       		.sleb128 0
 1382 079f 00       		.byte	0
 1383 07a0 1A       		.uleb128 0x1a
 1384 07a1 B8000000 		.4byte	.LVL11
 1385 07a5 1A090000 		.4byte	0x91a
 1386 07a9 19       		.uleb128 0x19
 1387 07aa 01       		.byte	0x1
 1388 07ab 50       		.byte	0x50
 1389 07ac 02       		.byte	0x2
 1390 07ad 74       		.byte	0x74
 1391 07ae 00       		.sleb128 0
 1392 07af 19       		.uleb128 0x19
 1393 07b0 01       		.byte	0x1
 1394 07b1 51       		.byte	0x51
 1395 07b2 02       		.byte	0x2
 1396 07b3 08       		.byte	0x8
 1397 07b4 80       		.byte	0x80
 1398 07b5 00       		.byte	0
 1399 07b6 00       		.byte	0
 1400 07b7 14       		.uleb128 0x14
 1401 07b8 01       		.byte	0x1
 1402 07b9 38080000 		.4byte	.LASF139
 1403 07bd 01       		.byte	0x1
 1404 07be 31       		.byte	0x31
 1405 07bf 01       		.byte	0x1
 1406 07c0 00000000 		.4byte	.LFB30
 1407 07c4 A8000000 		.4byte	.LFE30
 1408 07c8 55020000 		.4byte	.LLST0
 1409 07cc 01       		.byte	0x1
 1410 07cd F3080000 		.4byte	0x8f3
 1411 07d1 1D       		.uleb128 0x1d
 1412 07d2 B7040000 		.4byte	.LASF140
 1413 07d6 01       		.byte	0x1
 1414 07d7 33       		.byte	0x33
 1415 07d8 CF040000 		.4byte	0x4cf
 1416 07dc 02       		.byte	0x2
 1417 07dd 91       		.byte	0x91
 1418 07de 58       		.sleb128 -40
ARM GAS  G:\Users\Jaxb\AppData\Local\Temp\ccYqEobM.s 			page 29


 1419 07df 1D       		.uleb128 0x1d
 1420 07e0 01030000 		.4byte	.LASF141
 1421 07e4 01       		.byte	0x1
 1422 07e5 34       		.byte	0x34
 1423 07e6 37050000 		.4byte	0x537
 1424 07ea 02       		.byte	0x2
 1425 07eb 91       		.byte	0x91
 1426 07ec 60       		.sleb128 -32
 1427 07ed 1E       		.uleb128 0x1e
 1428 07ee F3080000 		.4byte	0x8f3
 1429 07f2 68000000 		.4byte	.LBB4
 1430 07f6 88000000 		.4byte	.LBE4
 1431 07fa 01       		.byte	0x1
 1432 07fb 59       		.byte	0x59
 1433 07fc 38080000 		.4byte	0x838
 1434 0800 1F       		.uleb128 0x1f
 1435 0801 68000000 		.4byte	.LBB5
 1436 0805 88000000 		.4byte	.LBE5
 1437 0809 20       		.uleb128 0x20
 1438 080a 00090000 		.4byte	0x900
 1439 080e 02       		.byte	0x2
 1440 080f 91       		.byte	0x91
 1441 0810 5C       		.sleb128 -36
 1442 0811 18       		.uleb128 0x18
 1443 0812 70000000 		.4byte	.LVL5
 1444 0816 28090000 		.4byte	0x928
 1445 081a 26080000 		.4byte	0x826
 1446 081e 19       		.uleb128 0x19
 1447 081f 01       		.byte	0x1
 1448 0820 50       		.byte	0x50
 1449 0821 03       		.byte	0x3
 1450 0822 0A       		.byte	0xa
 1451 0823 0005     		.2byte	0x500
 1452 0825 00       		.byte	0
 1453 0826 1A       		.uleb128 0x1a
 1454 0827 88000000 		.4byte	.LVL6
 1455 082b 35090000 		.4byte	0x935
 1456 082f 19       		.uleb128 0x19
 1457 0830 01       		.byte	0x1
 1458 0831 50       		.byte	0x50
 1459 0832 02       		.byte	0x2
 1460 0833 91       		.byte	0x91
 1461 0834 5C       		.sleb128 -36
 1462 0835 00       		.byte	0
 1463 0836 00       		.byte	0
 1464 0837 00       		.byte	0
 1465 0838 18       		.uleb128 0x18
 1466 0839 0C000000 		.4byte	.LVL0
 1467 083d 42090000 		.4byte	0x942
 1468 0841 50080000 		.4byte	0x850
 1469 0845 19       		.uleb128 0x19
 1470 0846 01       		.byte	0x1
 1471 0847 50       		.byte	0x50
 1472 0848 01       		.byte	0x1
 1473 0849 34       		.byte	0x34
 1474 084a 19       		.uleb128 0x19
 1475 084b 01       		.byte	0x1
ARM GAS  G:\Users\Jaxb\AppData\Local\Temp\ccYqEobM.s 			page 30


 1476 084c 51       		.byte	0x51
 1477 084d 01       		.byte	0x1
 1478 084e 31       		.byte	0x31
 1479 084f 00       		.byte	0
 1480 0850 18       		.uleb128 0x18
 1481 0851 16000000 		.4byte	.LVL1
 1482 0855 42090000 		.4byte	0x942
 1483 0859 6A080000 		.4byte	0x86a
 1484 085d 19       		.uleb128 0x19
 1485 085e 01       		.byte	0x1
 1486 085f 50       		.byte	0x50
 1487 0860 03       		.byte	0x3
 1488 0861 0A       		.byte	0xa
 1489 0862 0040     		.2byte	0x4000
 1490 0864 19       		.uleb128 0x19
 1491 0865 01       		.byte	0x1
 1492 0866 51       		.byte	0x51
 1493 0867 01       		.byte	0x1
 1494 0868 31       		.byte	0x31
 1495 0869 00       		.byte	0
 1496 086a 18       		.uleb128 0x18
 1497 086b 34000000 		.4byte	.LVL2
 1498 086f 50090000 		.4byte	0x950
 1499 0873 84080000 		.4byte	0x884
 1500 0877 19       		.uleb128 0x19
 1501 0878 01       		.byte	0x1
 1502 0879 50       		.byte	0x50
 1503 087a 02       		.byte	0x2
 1504 087b 74       		.byte	0x74
 1505 087c 00       		.sleb128 0
 1506 087d 19       		.uleb128 0x19
 1507 087e 01       		.byte	0x1
 1508 087f 51       		.byte	0x51
 1509 0880 02       		.byte	0x2
 1510 0881 7D       		.byte	0x7d
 1511 0882 00       		.sleb128 0
 1512 0883 00       		.byte	0
 1513 0884 18       		.uleb128 0x18
 1514 0885 4E000000 		.4byte	.LVL3
 1515 0889 50090000 		.4byte	0x950
 1516 088d A1080000 		.4byte	0x8a1
 1517 0891 19       		.uleb128 0x19
 1518 0892 01       		.byte	0x1
 1519 0893 50       		.byte	0x50
 1520 0894 05       		.byte	0x5
 1521 0895 0C       		.byte	0xc
 1522 0896 00080140 		.4byte	0x40010800
 1523 089a 19       		.uleb128 0x19
 1524 089b 01       		.byte	0x1
 1525 089c 51       		.byte	0x51
 1526 089d 02       		.byte	0x2
 1527 089e 7D       		.byte	0x7d
 1528 089f 00       		.sleb128 0
 1529 08a0 00       		.byte	0
 1530 08a1 18       		.uleb128 0x18
 1531 08a2 68000000 		.4byte	.LVL4
 1532 08a6 5E090000 		.4byte	0x95e
ARM GAS  G:\Users\Jaxb\AppData\Local\Temp\ccYqEobM.s 			page 31


 1533 08aa BB080000 		.4byte	0x8bb
 1534 08ae 19       		.uleb128 0x19
 1535 08af 01       		.byte	0x1
 1536 08b0 50       		.byte	0x50
 1537 08b1 02       		.byte	0x2
 1538 08b2 75       		.byte	0x75
 1539 08b3 00       		.sleb128 0
 1540 08b4 19       		.uleb128 0x19
 1541 08b5 01       		.byte	0x1
 1542 08b6 51       		.byte	0x51
 1543 08b7 02       		.byte	0x2
 1544 08b8 91       		.byte	0x91
 1545 08b9 60       		.sleb128 -32
 1546 08ba 00       		.byte	0
 1547 08bb 18       		.uleb128 0x18
 1548 08bc 94000000 		.4byte	.LVL7
 1549 08c0 6C090000 		.4byte	0x96c
 1550 08c4 DC080000 		.4byte	0x8dc
 1551 08c8 19       		.uleb128 0x19
 1552 08c9 01       		.byte	0x1
 1553 08ca 50       		.byte	0x50
 1554 08cb 02       		.byte	0x2
 1555 08cc 75       		.byte	0x75
 1556 08cd 00       		.sleb128 0
 1557 08ce 19       		.uleb128 0x19
 1558 08cf 01       		.byte	0x1
 1559 08d0 51       		.byte	0x51
 1560 08d1 03       		.byte	0x3
 1561 08d2 0A       		.byte	0xa
 1562 08d3 2505     		.2byte	0x525
 1563 08d5 19       		.uleb128 0x19
 1564 08d6 01       		.byte	0x1
 1565 08d7 52       		.byte	0x52
 1566 08d8 02       		.byte	0x2
 1567 08d9 74       		.byte	0x74
 1568 08da 00       		.sleb128 0
 1569 08db 00       		.byte	0
 1570 08dc 1A       		.uleb128 0x1a
 1571 08dd 9C000000 		.4byte	.LVL8
 1572 08e1 7A090000 		.4byte	0x97a
 1573 08e5 19       		.uleb128 0x19
 1574 08e6 01       		.byte	0x1
 1575 08e7 50       		.byte	0x50
 1576 08e8 02       		.byte	0x2
 1577 08e9 75       		.byte	0x75
 1578 08ea 00       		.sleb128 0
 1579 08eb 19       		.uleb128 0x19
 1580 08ec 01       		.byte	0x1
 1581 08ed 51       		.byte	0x51
 1582 08ee 02       		.byte	0x2
 1583 08ef 74       		.byte	0x74
 1584 08f0 00       		.sleb128 0
 1585 08f1 00       		.byte	0
 1586 08f2 00       		.byte	0
 1587 08f3 21       		.uleb128 0x21
 1588 08f4 C8070000 		.4byte	.LASF155
 1589 08f8 01       		.byte	0x1
ARM GAS  G:\Users\Jaxb\AppData\Local\Temp\ccYqEobM.s 			page 32


 1590 08f9 19       		.byte	0x19
 1591 08fa 01       		.byte	0x1
 1592 08fb 01       		.byte	0x1
 1593 08fc 0C090000 		.4byte	0x90c
 1594 0900 22       		.uleb128 0x22
 1595 0901 50030000 		.4byte	.LASF156
 1596 0905 01       		.byte	0x1
 1597 0906 1B       		.byte	0x1b
 1598 0907 83050000 		.4byte	0x583
 1599 090b 00       		.byte	0
 1600 090c 23       		.uleb128 0x23
 1601 090d 01       		.byte	0x1
 1602 090e 01       		.byte	0x1
 1603 090f 0B020000 		.4byte	.LASF142
 1604 0913 0B020000 		.4byte	.LASF142
 1605 0917 08       		.byte	0x8
 1606 0918 7A01     		.2byte	0x17a
 1607 091a 23       		.uleb128 0x23
 1608 091b 01       		.byte	0x1
 1609 091c 01       		.byte	0x1
 1610 091d 00050000 		.4byte	.LASF143
 1611 0921 00050000 		.4byte	.LASF143
 1612 0925 08       		.byte	0x8
 1613 0926 8601     		.2byte	0x186
 1614 0928 24       		.uleb128 0x24
 1615 0929 01       		.byte	0x1
 1616 092a 01       		.byte	0x1
 1617 092b 4F080000 		.4byte	.LASF144
 1618 092f 4F080000 		.4byte	.LASF144
 1619 0933 09       		.byte	0x9
 1620 0934 C4       		.byte	0xc4
 1621 0935 24       		.uleb128 0x24
 1622 0936 01       		.byte	0x1
 1623 0937 01       		.byte	0x1
 1624 0938 14050000 		.4byte	.LASF145
 1625 093c 14050000 		.4byte	.LASF145
 1626 0940 09       		.byte	0x9
 1627 0941 C5       		.byte	0xc5
 1628 0942 23       		.uleb128 0x23
 1629 0943 01       		.byte	0x1
 1630 0944 01       		.byte	0x1
 1631 0945 21080000 		.4byte	.LASF146
 1632 0949 21080000 		.4byte	.LASF146
 1633 094d 0A       		.byte	0xa
 1634 094e B502     		.2byte	0x2b5
 1635 0950 23       		.uleb128 0x23
 1636 0951 01       		.byte	0x1
 1637 0952 01       		.byte	0x1
 1638 0953 02010000 		.4byte	.LASF147
 1639 0957 02010000 		.4byte	.LASF147
 1640 095b 07       		.byte	0x7
 1641 095c 5F01     		.2byte	0x15f
 1642 095e 23       		.uleb128 0x23
 1643 095f 01       		.byte	0x1
 1644 0960 01       		.byte	0x1
 1645 0961 A6000000 		.4byte	.LASF148
 1646 0965 A6000000 		.4byte	.LASF148
ARM GAS  G:\Users\Jaxb\AppData\Local\Temp\ccYqEobM.s 			page 33


 1647 0969 08       		.byte	0x8
 1648 096a 6E01     		.2byte	0x16e
 1649 096c 23       		.uleb128 0x23
 1650 096d 01       		.byte	0x1
 1651 096e 01       		.byte	0x1
 1652 096f 5C070000 		.4byte	.LASF149
 1653 0973 5C070000 		.4byte	.LASF149
 1654 0977 08       		.byte	0x8
 1655 0978 7301     		.2byte	0x173
 1656 097a 23       		.uleb128 0x23
 1657 097b 01       		.byte	0x1
 1658 097c 01       		.byte	0x1
 1659 097d 95070000 		.4byte	.LASF150
 1660 0981 95070000 		.4byte	.LASF150
 1661 0985 08       		.byte	0x8
 1662 0986 7201     		.2byte	0x172
 1663 0988 00       		.byte	0
 1664              		.section	.debug_abbrev,"",%progbits
 1665              	.Ldebug_abbrev0:
 1666 0000 01       		.uleb128 0x1
 1667 0001 11       		.uleb128 0x11
 1668 0002 01       		.byte	0x1
 1669 0003 25       		.uleb128 0x25
 1670 0004 0E       		.uleb128 0xe
 1671 0005 13       		.uleb128 0x13
 1672 0006 0B       		.uleb128 0xb
 1673 0007 03       		.uleb128 0x3
 1674 0008 0E       		.uleb128 0xe
 1675 0009 1B       		.uleb128 0x1b
 1676 000a 0E       		.uleb128 0xe
 1677 000b 11       		.uleb128 0x11
 1678 000c 01       		.uleb128 0x1
 1679 000d 12       		.uleb128 0x12
 1680 000e 01       		.uleb128 0x1
 1681 000f 10       		.uleb128 0x10
 1682 0010 06       		.uleb128 0x6
 1683 0011 00       		.byte	0
 1684 0012 00       		.byte	0
 1685 0013 02       		.uleb128 0x2
 1686 0014 04       		.uleb128 0x4
 1687 0015 01       		.byte	0x1
 1688 0016 03       		.uleb128 0x3
 1689 0017 0E       		.uleb128 0xe
 1690 0018 3E       		.uleb128 0x3e
 1691 0019 0B       		.uleb128 0xb
 1692 001a 0B       		.uleb128 0xb
 1693 001b 0B       		.uleb128 0xb
 1694 001c 49       		.uleb128 0x49
 1695 001d 13       		.uleb128 0x13
 1696 001e 3A       		.uleb128 0x3a
 1697 001f 0B       		.uleb128 0xb
 1698 0020 3B       		.uleb128 0x3b
 1699 0021 0B       		.uleb128 0xb
 1700 0022 01       		.uleb128 0x1
 1701 0023 13       		.uleb128 0x13
 1702 0024 00       		.byte	0
 1703 0025 00       		.byte	0
ARM GAS  G:\Users\Jaxb\AppData\Local\Temp\ccYqEobM.s 			page 34


 1704 0026 03       		.uleb128 0x3
 1705 0027 28       		.uleb128 0x28
 1706 0028 00       		.byte	0
 1707 0029 03       		.uleb128 0x3
 1708 002a 0E       		.uleb128 0xe
 1709 002b 1C       		.uleb128 0x1c
 1710 002c 0D       		.uleb128 0xd
 1711 002d 00       		.byte	0
 1712 002e 00       		.byte	0
 1713 002f 04       		.uleb128 0x4
 1714 0030 28       		.uleb128 0x28
 1715 0031 00       		.byte	0
 1716 0032 03       		.uleb128 0x3
 1717 0033 0E       		.uleb128 0xe
 1718 0034 1C       		.uleb128 0x1c
 1719 0035 0B       		.uleb128 0xb
 1720 0036 00       		.byte	0
 1721 0037 00       		.byte	0
 1722 0038 05       		.uleb128 0x5
 1723 0039 24       		.uleb128 0x24
 1724 003a 00       		.byte	0
 1725 003b 0B       		.uleb128 0xb
 1726 003c 0B       		.uleb128 0xb
 1727 003d 3E       		.uleb128 0x3e
 1728 003e 0B       		.uleb128 0xb
 1729 003f 03       		.uleb128 0x3
 1730 0040 0E       		.uleb128 0xe
 1731 0041 00       		.byte	0
 1732 0042 00       		.byte	0
 1733 0043 06       		.uleb128 0x6
 1734 0044 16       		.uleb128 0x16
 1735 0045 00       		.byte	0
 1736 0046 03       		.uleb128 0x3
 1737 0047 0E       		.uleb128 0xe
 1738 0048 3A       		.uleb128 0x3a
 1739 0049 0B       		.uleb128 0xb
 1740 004a 3B       		.uleb128 0x3b
 1741 004b 0B       		.uleb128 0xb
 1742 004c 49       		.uleb128 0x49
 1743 004d 13       		.uleb128 0x13
 1744 004e 00       		.byte	0
 1745 004f 00       		.byte	0
 1746 0050 07       		.uleb128 0x7
 1747 0051 24       		.uleb128 0x24
 1748 0052 00       		.byte	0
 1749 0053 0B       		.uleb128 0xb
 1750 0054 0B       		.uleb128 0xb
 1751 0055 3E       		.uleb128 0x3e
 1752 0056 0B       		.uleb128 0xb
 1753 0057 03       		.uleb128 0x3
 1754 0058 08       		.uleb128 0x8
 1755 0059 00       		.byte	0
 1756 005a 00       		.byte	0
 1757 005b 08       		.uleb128 0x8
 1758 005c 35       		.uleb128 0x35
 1759 005d 00       		.byte	0
 1760 005e 49       		.uleb128 0x49
ARM GAS  G:\Users\Jaxb\AppData\Local\Temp\ccYqEobM.s 			page 35


 1761 005f 13       		.uleb128 0x13
 1762 0060 00       		.byte	0
 1763 0061 00       		.byte	0
 1764 0062 09       		.uleb128 0x9
 1765 0063 34       		.uleb128 0x34
 1766 0064 00       		.byte	0
 1767 0065 03       		.uleb128 0x3
 1768 0066 0E       		.uleb128 0xe
 1769 0067 3A       		.uleb128 0x3a
 1770 0068 0B       		.uleb128 0xb
 1771 0069 3B       		.uleb128 0x3b
 1772 006a 05       		.uleb128 0x5
 1773 006b 49       		.uleb128 0x49
 1774 006c 13       		.uleb128 0x13
 1775 006d 3F       		.uleb128 0x3f
 1776 006e 0C       		.uleb128 0xc
 1777 006f 3C       		.uleb128 0x3c
 1778 0070 0C       		.uleb128 0xc
 1779 0071 00       		.byte	0
 1780 0072 00       		.byte	0
 1781 0073 0A       		.uleb128 0xa
 1782 0074 34       		.uleb128 0x34
 1783 0075 00       		.byte	0
 1784 0076 03       		.uleb128 0x3
 1785 0077 0E       		.uleb128 0xe
 1786 0078 3A       		.uleb128 0x3a
 1787 0079 0B       		.uleb128 0xb
 1788 007a 3B       		.uleb128 0x3b
 1789 007b 0B       		.uleb128 0xb
 1790 007c 49       		.uleb128 0x49
 1791 007d 13       		.uleb128 0x13
 1792 007e 3F       		.uleb128 0x3f
 1793 007f 0C       		.uleb128 0xc
 1794 0080 3C       		.uleb128 0x3c
 1795 0081 0C       		.uleb128 0xc
 1796 0082 00       		.byte	0
 1797 0083 00       		.byte	0
 1798 0084 0B       		.uleb128 0xb
 1799 0085 04       		.uleb128 0x4
 1800 0086 01       		.byte	0x1
 1801 0087 3E       		.uleb128 0x3e
 1802 0088 0B       		.uleb128 0xb
 1803 0089 0B       		.uleb128 0xb
 1804 008a 0B       		.uleb128 0xb
 1805 008b 49       		.uleb128 0x49
 1806 008c 13       		.uleb128 0x13
 1807 008d 3A       		.uleb128 0x3a
 1808 008e 0B       		.uleb128 0xb
 1809 008f 3B       		.uleb128 0x3b
 1810 0090 05       		.uleb128 0x5
 1811 0091 01       		.uleb128 0x1
 1812 0092 13       		.uleb128 0x13
 1813 0093 00       		.byte	0
 1814 0094 00       		.byte	0
 1815 0095 0C       		.uleb128 0xc
 1816 0096 28       		.uleb128 0x28
 1817 0097 00       		.byte	0
ARM GAS  G:\Users\Jaxb\AppData\Local\Temp\ccYqEobM.s 			page 36


 1818 0098 03       		.uleb128 0x3
 1819 0099 08       		.uleb128 0x8
 1820 009a 1C       		.uleb128 0x1c
 1821 009b 0B       		.uleb128 0xb
 1822 009c 00       		.byte	0
 1823 009d 00       		.byte	0
 1824 009e 0D       		.uleb128 0xd
 1825 009f 16       		.uleb128 0x16
 1826 00a0 00       		.byte	0
 1827 00a1 03       		.uleb128 0x3
 1828 00a2 0E       		.uleb128 0xe
 1829 00a3 3A       		.uleb128 0x3a
 1830 00a4 0B       		.uleb128 0xb
 1831 00a5 3B       		.uleb128 0x3b
 1832 00a6 05       		.uleb128 0x5
 1833 00a7 49       		.uleb128 0x49
 1834 00a8 13       		.uleb128 0x13
 1835 00a9 00       		.byte	0
 1836 00aa 00       		.byte	0
 1837 00ab 0E       		.uleb128 0xe
 1838 00ac 13       		.uleb128 0x13
 1839 00ad 01       		.byte	0x1
 1840 00ae 0B       		.uleb128 0xb
 1841 00af 0B       		.uleb128 0xb
 1842 00b0 3A       		.uleb128 0x3a
 1843 00b1 0B       		.uleb128 0xb
 1844 00b2 3B       		.uleb128 0x3b
 1845 00b3 05       		.uleb128 0x5
 1846 00b4 01       		.uleb128 0x1
 1847 00b5 13       		.uleb128 0x13
 1848 00b6 00       		.byte	0
 1849 00b7 00       		.byte	0
 1850 00b8 0F       		.uleb128 0xf
 1851 00b9 0D       		.uleb128 0xd
 1852 00ba 00       		.byte	0
 1853 00bb 03       		.uleb128 0x3
 1854 00bc 08       		.uleb128 0x8
 1855 00bd 3A       		.uleb128 0x3a
 1856 00be 0B       		.uleb128 0xb
 1857 00bf 3B       		.uleb128 0x3b
 1858 00c0 05       		.uleb128 0x5
 1859 00c1 49       		.uleb128 0x49
 1860 00c2 13       		.uleb128 0x13
 1861 00c3 38       		.uleb128 0x38
 1862 00c4 0A       		.uleb128 0xa
 1863 00c5 00       		.byte	0
 1864 00c6 00       		.byte	0
 1865 00c7 10       		.uleb128 0x10
 1866 00c8 0D       		.uleb128 0xd
 1867 00c9 00       		.byte	0
 1868 00ca 03       		.uleb128 0x3
 1869 00cb 0E       		.uleb128 0xe
 1870 00cc 3A       		.uleb128 0x3a
 1871 00cd 0B       		.uleb128 0xb
 1872 00ce 3B       		.uleb128 0x3b
 1873 00cf 05       		.uleb128 0x5
 1874 00d0 49       		.uleb128 0x49
ARM GAS  G:\Users\Jaxb\AppData\Local\Temp\ccYqEobM.s 			page 37


 1875 00d1 13       		.uleb128 0x13
 1876 00d2 38       		.uleb128 0x38
 1877 00d3 0A       		.uleb128 0xa
 1878 00d4 00       		.byte	0
 1879 00d5 00       		.byte	0
 1880 00d6 11       		.uleb128 0x11
 1881 00d7 04       		.uleb128 0x4
 1882 00d8 01       		.byte	0x1
 1883 00d9 3E       		.uleb128 0x3e
 1884 00da 0B       		.uleb128 0xb
 1885 00db 0B       		.uleb128 0xb
 1886 00dc 0B       		.uleb128 0xb
 1887 00dd 49       		.uleb128 0x49
 1888 00de 13       		.uleb128 0x13
 1889 00df 3A       		.uleb128 0x3a
 1890 00e0 0B       		.uleb128 0xb
 1891 00e1 3B       		.uleb128 0x3b
 1892 00e2 0B       		.uleb128 0xb
 1893 00e3 01       		.uleb128 0x1
 1894 00e4 13       		.uleb128 0x13
 1895 00e5 00       		.byte	0
 1896 00e6 00       		.byte	0
 1897 00e7 12       		.uleb128 0x12
 1898 00e8 13       		.uleb128 0x13
 1899 00e9 01       		.byte	0x1
 1900 00ea 0B       		.uleb128 0xb
 1901 00eb 0B       		.uleb128 0xb
 1902 00ec 3A       		.uleb128 0x3a
 1903 00ed 0B       		.uleb128 0xb
 1904 00ee 3B       		.uleb128 0x3b
 1905 00ef 0B       		.uleb128 0xb
 1906 00f0 01       		.uleb128 0x1
 1907 00f1 13       		.uleb128 0x13
 1908 00f2 00       		.byte	0
 1909 00f3 00       		.byte	0
 1910 00f4 13       		.uleb128 0x13
 1911 00f5 0D       		.uleb128 0xd
 1912 00f6 00       		.byte	0
 1913 00f7 03       		.uleb128 0x3
 1914 00f8 0E       		.uleb128 0xe
 1915 00f9 3A       		.uleb128 0x3a
 1916 00fa 0B       		.uleb128 0xb
 1917 00fb 3B       		.uleb128 0x3b
 1918 00fc 0B       		.uleb128 0xb
 1919 00fd 49       		.uleb128 0x49
 1920 00fe 13       		.uleb128 0x13
 1921 00ff 38       		.uleb128 0x38
 1922 0100 0A       		.uleb128 0xa
 1923 0101 00       		.byte	0
 1924 0102 00       		.byte	0
 1925 0103 14       		.uleb128 0x14
 1926 0104 2E       		.uleb128 0x2e
 1927 0105 01       		.byte	0x1
 1928 0106 3F       		.uleb128 0x3f
 1929 0107 0C       		.uleb128 0xc
 1930 0108 03       		.uleb128 0x3
 1931 0109 0E       		.uleb128 0xe
ARM GAS  G:\Users\Jaxb\AppData\Local\Temp\ccYqEobM.s 			page 38


 1932 010a 3A       		.uleb128 0x3a
 1933 010b 0B       		.uleb128 0xb
 1934 010c 3B       		.uleb128 0x3b
 1935 010d 0B       		.uleb128 0xb
 1936 010e 27       		.uleb128 0x27
 1937 010f 0C       		.uleb128 0xc
 1938 0110 11       		.uleb128 0x11
 1939 0111 01       		.uleb128 0x1
 1940 0112 12       		.uleb128 0x12
 1941 0113 01       		.uleb128 0x1
 1942 0114 40       		.uleb128 0x40
 1943 0115 06       		.uleb128 0x6
 1944 0116 9742     		.uleb128 0x2117
 1945 0118 0C       		.uleb128 0xc
 1946 0119 01       		.uleb128 0x1
 1947 011a 13       		.uleb128 0x13
 1948 011b 00       		.byte	0
 1949 011c 00       		.byte	0
 1950 011d 15       		.uleb128 0x15
 1951 011e 05       		.uleb128 0x5
 1952 011f 00       		.byte	0
 1953 0120 03       		.uleb128 0x3
 1954 0121 0E       		.uleb128 0xe
 1955 0122 3A       		.uleb128 0x3a
 1956 0123 0B       		.uleb128 0xb
 1957 0124 3B       		.uleb128 0x3b
 1958 0125 0B       		.uleb128 0xb
 1959 0126 49       		.uleb128 0x49
 1960 0127 13       		.uleb128 0x13
 1961 0128 02       		.uleb128 0x2
 1962 0129 06       		.uleb128 0x6
 1963 012a 00       		.byte	0
 1964 012b 00       		.byte	0
 1965 012c 16       		.uleb128 0x16
 1966 012d 05       		.uleb128 0x5
 1967 012e 00       		.byte	0
 1968 012f 03       		.uleb128 0x3
 1969 0130 08       		.uleb128 0x8
 1970 0131 3A       		.uleb128 0x3a
 1971 0132 0B       		.uleb128 0xb
 1972 0133 3B       		.uleb128 0x3b
 1973 0134 0B       		.uleb128 0xb
 1974 0135 49       		.uleb128 0x49
 1975 0136 13       		.uleb128 0x13
 1976 0137 02       		.uleb128 0x2
 1977 0138 06       		.uleb128 0x6
 1978 0139 00       		.byte	0
 1979 013a 00       		.byte	0
 1980 013b 17       		.uleb128 0x17
 1981 013c 34       		.uleb128 0x34
 1982 013d 00       		.byte	0
 1983 013e 03       		.uleb128 0x3
 1984 013f 0E       		.uleb128 0xe
 1985 0140 3A       		.uleb128 0x3a
 1986 0141 0B       		.uleb128 0xb
 1987 0142 3B       		.uleb128 0x3b
 1988 0143 0B       		.uleb128 0xb
ARM GAS  G:\Users\Jaxb\AppData\Local\Temp\ccYqEobM.s 			page 39


 1989 0144 49       		.uleb128 0x49
 1990 0145 13       		.uleb128 0x13
 1991 0146 02       		.uleb128 0x2
 1992 0147 06       		.uleb128 0x6
 1993 0148 00       		.byte	0
 1994 0149 00       		.byte	0
 1995 014a 18       		.uleb128 0x18
 1996 014b 898201   		.uleb128 0x4109
 1997 014e 01       		.byte	0x1
 1998 014f 11       		.uleb128 0x11
 1999 0150 01       		.uleb128 0x1
 2000 0151 31       		.uleb128 0x31
 2001 0152 13       		.uleb128 0x13
 2002 0153 01       		.uleb128 0x1
 2003 0154 13       		.uleb128 0x13
 2004 0155 00       		.byte	0
 2005 0156 00       		.byte	0
 2006 0157 19       		.uleb128 0x19
 2007 0158 8A8201   		.uleb128 0x410a
 2008 015b 00       		.byte	0
 2009 015c 02       		.uleb128 0x2
 2010 015d 0A       		.uleb128 0xa
 2011 015e 9142     		.uleb128 0x2111
 2012 0160 0A       		.uleb128 0xa
 2013 0161 00       		.byte	0
 2014 0162 00       		.byte	0
 2015 0163 1A       		.uleb128 0x1a
 2016 0164 898201   		.uleb128 0x4109
 2017 0167 01       		.byte	0x1
 2018 0168 11       		.uleb128 0x11
 2019 0169 01       		.uleb128 0x1
 2020 016a 31       		.uleb128 0x31
 2021 016b 13       		.uleb128 0x13
 2022 016c 00       		.byte	0
 2023 016d 00       		.byte	0
 2024 016e 1B       		.uleb128 0x1b
 2025 016f 0F       		.uleb128 0xf
 2026 0170 00       		.byte	0
 2027 0171 0B       		.uleb128 0xb
 2028 0172 0B       		.uleb128 0xb
 2029 0173 49       		.uleb128 0x49
 2030 0174 13       		.uleb128 0x13
 2031 0175 00       		.byte	0
 2032 0176 00       		.byte	0
 2033 0177 1C       		.uleb128 0x1c
 2034 0178 34       		.uleb128 0x34
 2035 0179 00       		.byte	0
 2036 017a 03       		.uleb128 0x3
 2037 017b 08       		.uleb128 0x8
 2038 017c 3A       		.uleb128 0x3a
 2039 017d 0B       		.uleb128 0xb
 2040 017e 3B       		.uleb128 0x3b
 2041 017f 0B       		.uleb128 0xb
 2042 0180 49       		.uleb128 0x49
 2043 0181 13       		.uleb128 0x13
 2044 0182 02       		.uleb128 0x2
 2045 0183 06       		.uleb128 0x6
ARM GAS  G:\Users\Jaxb\AppData\Local\Temp\ccYqEobM.s 			page 40


 2046 0184 00       		.byte	0
 2047 0185 00       		.byte	0
 2048 0186 1D       		.uleb128 0x1d
 2049 0187 34       		.uleb128 0x34
 2050 0188 00       		.byte	0
 2051 0189 03       		.uleb128 0x3
 2052 018a 0E       		.uleb128 0xe
 2053 018b 3A       		.uleb128 0x3a
 2054 018c 0B       		.uleb128 0xb
 2055 018d 3B       		.uleb128 0x3b
 2056 018e 0B       		.uleb128 0xb
 2057 018f 49       		.uleb128 0x49
 2058 0190 13       		.uleb128 0x13
 2059 0191 02       		.uleb128 0x2
 2060 0192 0A       		.uleb128 0xa
 2061 0193 00       		.byte	0
 2062 0194 00       		.byte	0
 2063 0195 1E       		.uleb128 0x1e
 2064 0196 1D       		.uleb128 0x1d
 2065 0197 01       		.byte	0x1
 2066 0198 31       		.uleb128 0x31
 2067 0199 13       		.uleb128 0x13
 2068 019a 11       		.uleb128 0x11
 2069 019b 01       		.uleb128 0x1
 2070 019c 12       		.uleb128 0x12
 2071 019d 01       		.uleb128 0x1
 2072 019e 58       		.uleb128 0x58
 2073 019f 0B       		.uleb128 0xb
 2074 01a0 59       		.uleb128 0x59
 2075 01a1 0B       		.uleb128 0xb
 2076 01a2 01       		.uleb128 0x1
 2077 01a3 13       		.uleb128 0x13
 2078 01a4 00       		.byte	0
 2079 01a5 00       		.byte	0
 2080 01a6 1F       		.uleb128 0x1f
 2081 01a7 0B       		.uleb128 0xb
 2082 01a8 01       		.byte	0x1
 2083 01a9 11       		.uleb128 0x11
 2084 01aa 01       		.uleb128 0x1
 2085 01ab 12       		.uleb128 0x12
 2086 01ac 01       		.uleb128 0x1
 2087 01ad 00       		.byte	0
 2088 01ae 00       		.byte	0
 2089 01af 20       		.uleb128 0x20
 2090 01b0 34       		.uleb128 0x34
 2091 01b1 00       		.byte	0
 2092 01b2 31       		.uleb128 0x31
 2093 01b3 13       		.uleb128 0x13
 2094 01b4 02       		.uleb128 0x2
 2095 01b5 0A       		.uleb128 0xa
 2096 01b6 00       		.byte	0
 2097 01b7 00       		.byte	0
 2098 01b8 21       		.uleb128 0x21
 2099 01b9 2E       		.uleb128 0x2e
 2100 01ba 01       		.byte	0x1
 2101 01bb 03       		.uleb128 0x3
 2102 01bc 0E       		.uleb128 0xe
ARM GAS  G:\Users\Jaxb\AppData\Local\Temp\ccYqEobM.s 			page 41


 2103 01bd 3A       		.uleb128 0x3a
 2104 01be 0B       		.uleb128 0xb
 2105 01bf 3B       		.uleb128 0x3b
 2106 01c0 0B       		.uleb128 0xb
 2107 01c1 27       		.uleb128 0x27
 2108 01c2 0C       		.uleb128 0xc
 2109 01c3 20       		.uleb128 0x20
 2110 01c4 0B       		.uleb128 0xb
 2111 01c5 01       		.uleb128 0x1
 2112 01c6 13       		.uleb128 0x13
 2113 01c7 00       		.byte	0
 2114 01c8 00       		.byte	0
 2115 01c9 22       		.uleb128 0x22
 2116 01ca 34       		.uleb128 0x34
 2117 01cb 00       		.byte	0
 2118 01cc 03       		.uleb128 0x3
 2119 01cd 0E       		.uleb128 0xe
 2120 01ce 3A       		.uleb128 0x3a
 2121 01cf 0B       		.uleb128 0xb
 2122 01d0 3B       		.uleb128 0x3b
 2123 01d1 0B       		.uleb128 0xb
 2124 01d2 49       		.uleb128 0x49
 2125 01d3 13       		.uleb128 0x13
 2126 01d4 00       		.byte	0
 2127 01d5 00       		.byte	0
 2128 01d6 23       		.uleb128 0x23
 2129 01d7 2E       		.uleb128 0x2e
 2130 01d8 00       		.byte	0
 2131 01d9 3F       		.uleb128 0x3f
 2132 01da 0C       		.uleb128 0xc
 2133 01db 3C       		.uleb128 0x3c
 2134 01dc 0C       		.uleb128 0xc
 2135 01dd 8740     		.uleb128 0x2007
 2136 01df 0E       		.uleb128 0xe
 2137 01e0 03       		.uleb128 0x3
 2138 01e1 0E       		.uleb128 0xe
 2139 01e2 3A       		.uleb128 0x3a
 2140 01e3 0B       		.uleb128 0xb
 2141 01e4 3B       		.uleb128 0x3b
 2142 01e5 05       		.uleb128 0x5
 2143 01e6 00       		.byte	0
 2144 01e7 00       		.byte	0
 2145 01e8 24       		.uleb128 0x24
 2146 01e9 2E       		.uleb128 0x2e
 2147 01ea 00       		.byte	0
 2148 01eb 3F       		.uleb128 0x3f
 2149 01ec 0C       		.uleb128 0xc
 2150 01ed 3C       		.uleb128 0x3c
 2151 01ee 0C       		.uleb128 0xc
 2152 01ef 8740     		.uleb128 0x2007
 2153 01f1 0E       		.uleb128 0xe
 2154 01f2 03       		.uleb128 0x3
 2155 01f3 0E       		.uleb128 0xe
 2156 01f4 3A       		.uleb128 0x3a
 2157 01f5 0B       		.uleb128 0xb
 2158 01f6 3B       		.uleb128 0x3b
 2159 01f7 0B       		.uleb128 0xb
ARM GAS  G:\Users\Jaxb\AppData\Local\Temp\ccYqEobM.s 			page 42


 2160 01f8 00       		.byte	0
 2161 01f9 00       		.byte	0
 2162 01fa 00       		.byte	0
 2163              		.section	.debug_loc,"",%progbits
 2164              	.Ldebug_loc0:
 2165              	.LLST13:
 2166 0000 10010000 		.4byte	.LFB34-.Ltext0
 2167 0004 12010000 		.4byte	.LCFI6-.Ltext0
 2168 0008 0200     		.2byte	0x2
 2169 000a 7D       		.byte	0x7d
 2170 000b 00       		.sleb128 0
 2171 000c 12010000 		.4byte	.LCFI6-.Ltext0
 2172 0010 3E010000 		.4byte	.LFE34-.Ltext0
 2173 0014 0200     		.2byte	0x2
 2174 0016 7D       		.byte	0x7d
 2175 0017 10       		.sleb128 16
 2176 0018 00000000 		.4byte	0
 2177 001c 00000000 		.4byte	0
 2178              	.LLST14:
 2179 0020 10010000 		.4byte	.LVL24-.Ltext0
 2180 0024 1B010000 		.4byte	.LVL27-1-.Ltext0
 2181 0028 0100     		.2byte	0x1
 2182 002a 50       		.byte	0x50
 2183 002b 1B010000 		.4byte	.LVL27-1-.Ltext0
 2184 002f 3E010000 		.4byte	.LFE34-.Ltext0
 2185 0033 0100     		.2byte	0x1
 2186 0035 54       		.byte	0x54
 2187 0036 00000000 		.4byte	0
 2188 003a 00000000 		.4byte	0
 2189              	.LLST15:
 2190 003e 10010000 		.4byte	.LVL24-.Ltext0
 2191 0042 16010000 		.4byte	.LVL26-.Ltext0
 2192 0046 0100     		.2byte	0x1
 2193 0048 51       		.byte	0x51
 2194 0049 16010000 		.4byte	.LVL26-.Ltext0
 2195 004d 3E010000 		.4byte	.LFE34-.Ltext0
 2196 0051 0400     		.2byte	0x4
 2197 0053 F3       		.byte	0xf3
 2198 0054 01       		.uleb128 0x1
 2199 0055 51       		.byte	0x51
 2200 0056 9F       		.byte	0x9f
 2201 0057 00000000 		.4byte	0
 2202 005b 00000000 		.4byte	0
 2203              	.LLST16:
 2204 005f 14010000 		.4byte	.LVL25-.Ltext0
 2205 0063 16010000 		.4byte	.LVL26-.Ltext0
 2206 0067 0500     		.2byte	0x5
 2207 0069 71       		.byte	0x71
 2208 006a 00       		.sleb128 0
 2209 006b 38       		.byte	0x38
 2210 006c 25       		.byte	0x25
 2211 006d 9F       		.byte	0x9f
 2212 006e 16010000 		.4byte	.LVL26-.Ltext0
 2213 0072 3E010000 		.4byte	.LFE34-.Ltext0
 2214 0076 0600     		.2byte	0x6
 2215 0078 F3       		.byte	0xf3
 2216 0079 01       		.uleb128 0x1
ARM GAS  G:\Users\Jaxb\AppData\Local\Temp\ccYqEobM.s 			page 43


 2217 007a 51       		.byte	0x51
 2218 007b 38       		.byte	0x38
 2219 007c 25       		.byte	0x25
 2220 007d 9F       		.byte	0x9f
 2221 007e 00000000 		.4byte	0
 2222 0082 00000000 		.4byte	0
 2223              	.LLST17:
 2224 0086 14010000 		.4byte	.LVL25-.Ltext0
 2225 008a 16010000 		.4byte	.LVL26-.Ltext0
 2226 008e 0100     		.2byte	0x1
 2227 0090 51       		.byte	0x51
 2228 0091 16010000 		.4byte	.LVL26-.Ltext0
 2229 0095 3E010000 		.4byte	.LFE34-.Ltext0
 2230 0099 0400     		.2byte	0x4
 2231 009b F3       		.byte	0xf3
 2232 009c 01       		.uleb128 0x1
 2233 009d 51       		.byte	0x51
 2234 009e 9F       		.byte	0x9f
 2235 009f 00000000 		.4byte	0
 2236 00a3 00000000 		.4byte	0
 2237              	.LLST9:
 2238 00a7 EC000000 		.4byte	.LFB33-.Ltext0
 2239 00ab EE000000 		.4byte	.LCFI5-.Ltext0
 2240 00af 0200     		.2byte	0x2
 2241 00b1 7D       		.byte	0x7d
 2242 00b2 00       		.sleb128 0
 2243 00b3 EE000000 		.4byte	.LCFI5-.Ltext0
 2244 00b7 10010000 		.4byte	.LFE33-.Ltext0
 2245 00bb 0200     		.2byte	0x2
 2246 00bd 7D       		.byte	0x7d
 2247 00be 10       		.sleb128 16
 2248 00bf 00000000 		.4byte	0
 2249 00c3 00000000 		.4byte	0
 2250              	.LLST10:
 2251 00c7 EC000000 		.4byte	.LVL18-.Ltext0
 2252 00cb F4000000 		.4byte	.LVL20-.Ltext0
 2253 00cf 0100     		.2byte	0x1
 2254 00d1 50       		.byte	0x50
 2255 00d2 F4000000 		.4byte	.LVL20-.Ltext0
 2256 00d6 10010000 		.4byte	.LFE33-.Ltext0
 2257 00da 0100     		.2byte	0x1
 2258 00dc 55       		.byte	0x55
 2259 00dd 00000000 		.4byte	0
 2260 00e1 00000000 		.4byte	0
 2261              	.LLST11:
 2262 00e5 EC000000 		.4byte	.LVL18-.Ltext0
 2263 00e9 F4000000 		.4byte	.LVL20-.Ltext0
 2264 00ed 0100     		.2byte	0x1
 2265 00ef 51       		.byte	0x51
 2266 00f0 F4000000 		.4byte	.LVL20-.Ltext0
 2267 00f4 10010000 		.4byte	.LFE33-.Ltext0
 2268 00f8 0400     		.2byte	0x4
 2269 00fa F3       		.byte	0xf3
 2270 00fb 01       		.uleb128 0x1
 2271 00fc 51       		.byte	0x51
 2272 00fd 9F       		.byte	0x9f
 2273 00fe 00000000 		.4byte	0
ARM GAS  G:\Users\Jaxb\AppData\Local\Temp\ccYqEobM.s 			page 44


 2274 0102 00000000 		.4byte	0
 2275              	.LLST12:
 2276 0106 F0000000 		.4byte	.LVL19-.Ltext0
 2277 010a F4000000 		.4byte	.LVL20-.Ltext0
 2278 010e 0200     		.2byte	0x2
 2279 0110 30       		.byte	0x30
 2280 0111 9F       		.byte	0x9f
 2281 0112 F4000000 		.4byte	.LVL20-.Ltext0
 2282 0116 FA000000 		.4byte	.LVL21-.Ltext0
 2283 011a 0700     		.2byte	0x7
 2284 011c 74       		.byte	0x74
 2285 011d 00       		.sleb128 0
 2286 011e F3       		.byte	0xf3
 2287 011f 01       		.uleb128 0x1
 2288 0120 51       		.byte	0x51
 2289 0121 1C       		.byte	0x1c
 2290 0122 9F       		.byte	0x9f
 2291 0123 FA000000 		.4byte	.LVL21-.Ltext0
 2292 0127 FE000000 		.4byte	.LVL22-.Ltext0
 2293 012b 0900     		.2byte	0x9
 2294 012d 74       		.byte	0x74
 2295 012e 00       		.sleb128 0
 2296 012f F3       		.byte	0xf3
 2297 0130 01       		.uleb128 0x1
 2298 0131 51       		.byte	0x51
 2299 0132 1C       		.byte	0x1c
 2300 0133 23       		.byte	0x23
 2301 0134 01       		.uleb128 0x1
 2302 0135 9F       		.byte	0x9f
 2303 0136 FE000000 		.4byte	.LVL22-.Ltext0
 2304 013a 10010000 		.4byte	.LFE33-.Ltext0
 2305 013e 0700     		.2byte	0x7
 2306 0140 74       		.byte	0x74
 2307 0141 00       		.sleb128 0
 2308 0142 F3       		.byte	0xf3
 2309 0143 01       		.uleb128 0x1
 2310 0144 51       		.byte	0x51
 2311 0145 1C       		.byte	0x1c
 2312 0146 9F       		.byte	0x9f
 2313 0147 00000000 		.4byte	0
 2314 014b 00000000 		.4byte	0
 2315              	.LLST4:
 2316 014f C0000000 		.4byte	.LFB32-.Ltext0
 2317 0153 C2000000 		.4byte	.LCFI4-.Ltext0
 2318 0157 0200     		.2byte	0x2
 2319 0159 7D       		.byte	0x7d
 2320 015a 00       		.sleb128 0
 2321 015b C2000000 		.4byte	.LCFI4-.Ltext0
 2322 015f EA000000 		.4byte	.LFE32-.Ltext0
 2323 0163 0200     		.2byte	0x2
 2324 0165 7D       		.byte	0x7d
 2325 0166 18       		.sleb128 24
 2326 0167 00000000 		.4byte	0
 2327 016b 00000000 		.4byte	0
 2328              	.LLST5:
 2329 016f C0000000 		.4byte	.LVL12-.Ltext0
 2330 0173 CC000000 		.4byte	.LVL13-.Ltext0
ARM GAS  G:\Users\Jaxb\AppData\Local\Temp\ccYqEobM.s 			page 45


 2331 0177 0100     		.2byte	0x1
 2332 0179 50       		.byte	0x50
 2333 017a CC000000 		.4byte	.LVL13-.Ltext0
 2334 017e EA000000 		.4byte	.LFE32-.Ltext0
 2335 0182 0100     		.2byte	0x1
 2336 0184 55       		.byte	0x55
 2337 0185 00000000 		.4byte	0
 2338 0189 00000000 		.4byte	0
 2339              	.LLST6:
 2340 018d C0000000 		.4byte	.LVL12-.Ltext0
 2341 0191 CC000000 		.4byte	.LVL13-.Ltext0
 2342 0195 0100     		.2byte	0x1
 2343 0197 51       		.byte	0x51
 2344 0198 CC000000 		.4byte	.LVL13-.Ltext0
 2345 019c EA000000 		.4byte	.LFE32-.Ltext0
 2346 01a0 0100     		.2byte	0x1
 2347 01a2 57       		.byte	0x57
 2348 01a3 00000000 		.4byte	0
 2349 01a7 00000000 		.4byte	0
 2350              	.LLST7:
 2351 01ab C0000000 		.4byte	.LVL12-.Ltext0
 2352 01af CC000000 		.4byte	.LVL13-.Ltext0
 2353 01b3 0100     		.2byte	0x1
 2354 01b5 52       		.byte	0x52
 2355 01b6 CC000000 		.4byte	.LVL13-.Ltext0
 2356 01ba EA000000 		.4byte	.LFE32-.Ltext0
 2357 01be 0400     		.2byte	0x4
 2358 01c0 F3       		.byte	0xf3
 2359 01c1 01       		.uleb128 0x1
 2360 01c2 52       		.byte	0x52
 2361 01c3 9F       		.byte	0x9f
 2362 01c4 00000000 		.4byte	0
 2363 01c8 00000000 		.4byte	0
 2364              	.LLST8:
 2365 01cc C0000000 		.4byte	.LVL12-.Ltext0
 2366 01d0 CC000000 		.4byte	.LVL13-.Ltext0
 2367 01d4 0200     		.2byte	0x2
 2368 01d6 30       		.byte	0x30
 2369 01d7 9F       		.byte	0x9f
 2370 01d8 CC000000 		.4byte	.LVL13-.Ltext0
 2371 01dc D0000000 		.4byte	.LVL14-.Ltext0
 2372 01e0 0100     		.2byte	0x1
 2373 01e2 54       		.byte	0x54
 2374 01e3 D8000000 		.4byte	.LVL15-.Ltext0
 2375 01e7 DC000000 		.4byte	.LVL16-.Ltext0
 2376 01eb 0100     		.2byte	0x1
 2377 01ed 54       		.byte	0x54
 2378 01ee 00000000 		.4byte	0
 2379 01f2 00000000 		.4byte	0
 2380              	.LLST1:
 2381 01f6 A8000000 		.4byte	.LFB31-.Ltext0
 2382 01fa AA000000 		.4byte	.LCFI3-.Ltext0
 2383 01fe 0200     		.2byte	0x2
 2384 0200 7D       		.byte	0x7d
 2385 0201 00       		.sleb128 0
 2386 0202 AA000000 		.4byte	.LCFI3-.Ltext0
 2387 0206 BE000000 		.4byte	.LFE31-.Ltext0
ARM GAS  G:\Users\Jaxb\AppData\Local\Temp\ccYqEobM.s 			page 46


 2388 020a 0200     		.2byte	0x2
 2389 020c 7D       		.byte	0x7d
 2390 020d 08       		.sleb128 8
 2391 020e 00000000 		.4byte	0
 2392 0212 00000000 		.4byte	0
 2393              	.LLST2:
 2394 0216 A8000000 		.4byte	.LVL9-.Ltext0
 2395 021a AF000000 		.4byte	.LVL10-1-.Ltext0
 2396 021e 0100     		.2byte	0x1
 2397 0220 50       		.byte	0x50
 2398 0221 AF000000 		.4byte	.LVL10-1-.Ltext0
 2399 0225 BE000000 		.4byte	.LFE31-.Ltext0
 2400 0229 0100     		.2byte	0x1
 2401 022b 54       		.byte	0x54
 2402 022c 00000000 		.4byte	0
 2403 0230 00000000 		.4byte	0
 2404              	.LLST3:
 2405 0234 A8000000 		.4byte	.LVL9-.Ltext0
 2406 0238 AF000000 		.4byte	.LVL10-1-.Ltext0
 2407 023c 0100     		.2byte	0x1
 2408 023e 51       		.byte	0x51
 2409 023f AF000000 		.4byte	.LVL10-1-.Ltext0
 2410 0243 BE000000 		.4byte	.LFE31-.Ltext0
 2411 0247 0400     		.2byte	0x4
 2412 0249 F3       		.byte	0xf3
 2413 024a 01       		.uleb128 0x1
 2414 024b 51       		.byte	0x51
 2415 024c 9F       		.byte	0x9f
 2416 024d 00000000 		.4byte	0
 2417 0251 00000000 		.4byte	0
 2418              	.LLST0:
 2419 0255 00000000 		.4byte	.LFB30-.Ltext0
 2420 0259 02000000 		.4byte	.LCFI0-.Ltext0
 2421 025d 0200     		.2byte	0x2
 2422 025f 7D       		.byte	0x7d
 2423 0260 00       		.sleb128 0
 2424 0261 02000000 		.4byte	.LCFI0-.Ltext0
 2425 0265 06000000 		.4byte	.LCFI1-.Ltext0
 2426 0269 0200     		.2byte	0x2
 2427 026b 7D       		.byte	0x7d
 2428 026c 0C       		.sleb128 12
 2429 026d 06000000 		.4byte	.LCFI1-.Ltext0
 2430 0271 9E000000 		.4byte	.LCFI2-.Ltext0
 2431 0275 0200     		.2byte	0x2
 2432 0277 7D       		.byte	0x7d
 2433 0278 28       		.sleb128 40
 2434 0279 9E000000 		.4byte	.LCFI2-.Ltext0
 2435 027d A8000000 		.4byte	.LFE30-.Ltext0
 2436 0281 0200     		.2byte	0x2
 2437 0283 7D       		.byte	0x7d
 2438 0284 0C       		.sleb128 12
 2439 0285 00000000 		.4byte	0
 2440 0289 00000000 		.4byte	0
 2441              		.section	.debug_aranges,"",%progbits
 2442 0000 1C000000 		.4byte	0x1c
 2443 0004 0200     		.2byte	0x2
 2444 0006 00000000 		.4byte	.Ldebug_info0
ARM GAS  G:\Users\Jaxb\AppData\Local\Temp\ccYqEobM.s 			page 47


 2445 000a 04       		.byte	0x4
 2446 000b 00       		.byte	0
 2447 000c 0000     		.2byte	0
 2448 000e 0000     		.2byte	0
 2449 0010 00000000 		.4byte	.Ltext0
 2450 0014 3E010000 		.4byte	.Letext0-.Ltext0
 2451 0018 00000000 		.4byte	0
 2452 001c 00000000 		.4byte	0
 2453              		.section	.debug_line,"",%progbits
 2454              	.Ldebug_line0:
 2455 0000 01020000 		.section	.debug_str,"MS",%progbits,1
 2455      02006301 
 2455      00000201 
 2455      FB0E0D00 
 2455      01010101 
 2456              	.LASF28:
 2457 0000 5553425F 		.ascii	"USB_LP_CAN1_RX0_IRQn\000"
 2457      4C505F43 
 2457      414E315F 
 2457      5258305F 
 2457      4952516E 
 2458              	.LASF84:
 2459 0015 53797374 		.ascii	"SystemCoreClock\000"
 2459      656D436F 
 2459      7265436C 
 2459      6F636B00 
 2460              	.LASF89:
 2461 0025 42535252 		.ascii	"BSRR\000"
 2461      00
 2462              	.LASF57:
 2463 002a 5344494F 		.ascii	"SDIO_IRQn\000"
 2463      5F495251 
 2463      6E00
 2464              	.LASF116:
 2465 0034 4750494F 		.ascii	"GPIO_Mode\000"
 2465      5F4D6F64 
 2465      6500
 2466              	.LASF30:
 2467 003e 43414E31 		.ascii	"CAN1_SCE_IRQn\000"
 2467      5F534345 
 2467      5F495251 
 2467      6E00
 2468              	.LASF25:
 2469 004c 444D4131 		.ascii	"DMA1_Channel7_IRQn\000"
 2469      5F436861 
 2469      6E6E656C 
 2469      375F4952 
 2469      516E00
 2470              	.LASF42:
 2471 005f 49324332 		.ascii	"I2C2_ER_IRQn\000"
 2471      5F45525F 
 2471      4952516E 
 2471      00
 2472              	.LASF38:
 2473 006c 54494D34 		.ascii	"TIM4_IRQn\000"
 2473      5F495251 
 2473      6E00
ARM GAS  G:\Users\Jaxb\AppData\Local\Temp\ccYqEobM.s 			page 48


 2474              	.LASF20:
 2475 0076 444D4131 		.ascii	"DMA1_Channel2_IRQn\000"
 2475      5F436861 
 2475      6E6E656C 
 2475      325F4952 
 2475      516E00
 2476              	.LASF79:
 2477 0089 756E7369 		.ascii	"unsigned int\000"
 2477      676E6564 
 2477      20696E74 
 2477      00
 2478              	.LASF88:
 2479 0096 46756E63 		.ascii	"FunctionalState\000"
 2479      74696F6E 
 2479      616C5374 
 2479      61746500 
 2480              	.LASF148:
 2481 00a6 55534152 		.ascii	"USART_Init\000"
 2481      545F496E 
 2481      697400
 2482              	.LASF12:
 2483 00b1 464C4153 		.ascii	"FLASH_IRQn\000"
 2483      485F4952 
 2483      516E00
 2484              	.LASF14:
 2485 00bc 45585449 		.ascii	"EXTI0_IRQn\000"
 2485      305F4952 
 2485      516E00
 2486              	.LASF113:
 2487 00c7 4750494F 		.ascii	"GPIOMode_TypeDef\000"
 2487      4D6F6465 
 2487      5F547970 
 2487      65446566 
 2487      00
 2488              	.LASF48:
 2489 00d8 45585449 		.ascii	"EXTI15_10_IRQn\000"
 2489      31355F31 
 2489      305F4952 
 2489      516E00
 2490              	.LASF120:
 2491 00e7 55534152 		.ascii	"USART_StopBits\000"
 2491      545F5374 
 2491      6F704269 
 2491      747300
 2492              	.LASF6:
 2493 00f6 50656E64 		.ascii	"PendSV_IRQn\000"
 2493      53565F49 
 2493      52516E00 
 2494              	.LASF147:
 2495 0102 4750494F 		.ascii	"GPIO_Init\000"
 2495      5F496E69 
 2495      7400
 2496              	.LASF60:
 2497 010c 55415254 		.ascii	"UART4_IRQn\000"
 2497      345F4952 
 2497      516E00
 2498              	.LASF13:
ARM GAS  G:\Users\Jaxb\AppData\Local\Temp\ccYqEobM.s 			page 49


 2499 0117 5243435F 		.ascii	"RCC_IRQn\000"
 2499      4952516E 
 2499      00
 2500              	.LASF98:
 2501 0120 47545052 		.ascii	"GTPR\000"
 2501      00
 2502              	.LASF1:
 2503 0125 4D656D6F 		.ascii	"MemoryManagement_IRQn\000"
 2503      72794D61 
 2503      6E616765 
 2503      6D656E74 
 2503      5F495251 
 2504              	.LASF134:
 2505 013b 55736172 		.ascii	"Usart_SendString\000"
 2505      745F5365 
 2505      6E645374 
 2505      72696E67 
 2505      00
 2506              	.LASF130:
 2507 014c 70555341 		.ascii	"pUSARTx\000"
 2507      52547800 
 2508              	.LASF82:
 2509 0154 75696E74 		.ascii	"uint32_t\000"
 2509      33325F74 
 2509      00
 2510              	.LASF118:
 2511 015d 55534152 		.ascii	"USART_BaudRate\000"
 2511      545F4261 
 2511      75645261 
 2511      746500
 2512              	.LASF131:
 2513 016c 74656D70 		.ascii	"temp_h\000"
 2513      5F6800
 2514              	.LASF132:
 2515 0173 74656D70 		.ascii	"temp_l\000"
 2515      5F6C00
 2516              	.LASF32:
 2517 017a 54494D31 		.ascii	"TIM1_BRK_IRQn\000"
 2517      5F42524B 
 2517      5F495251 
 2517      6E00
 2518              	.LASF129:
 2519 0188 4E564943 		.ascii	"NVIC_InitTypeDef\000"
 2519      5F496E69 
 2519      74547970 
 2519      65446566 
 2519      00
 2520              	.LASF153:
 2521 0199 473A5C55 		.ascii	"G:\\Users\\Jaxb\\Desktop\\KAKAOS-0.07  2019.2.21  f"
 2521      73657273 
 2521      5C4A6178 
 2521      625C4465 
 2521      736B746F 
 2522 01c8 6F722067 		.ascii	"or gcc\\Project\\RVMDK\243\250uv5\243\251\000"
 2522      63635C50 
 2522      726F6A65 
 2522      63745C52 
ARM GAS  G:\Users\Jaxb\AppData\Local\Temp\ccYqEobM.s 			page 50


 2522      564D444B 
 2523              	.LASF43:
 2524 01e4 53504931 		.ascii	"SPI1_IRQn\000"
 2524      5F495251 
 2524      6E00
 2525              	.LASF62:
 2526 01ee 54494D36 		.ascii	"TIM6_IRQn\000"
 2526      5F495251 
 2526      6E00
 2527              	.LASF22:
 2528 01f8 444D4131 		.ascii	"DMA1_Channel4_IRQn\000"
 2528      5F436861 
 2528      6E6E656C 
 2528      345F4952 
 2528      516E00
 2529              	.LASF142:
 2530 020b 55534152 		.ascii	"USART_SendData\000"
 2530      545F5365 
 2530      6E644461 
 2530      746100
 2531              	.LASF78:
 2532 021a 6C6F6E67 		.ascii	"long long unsigned int\000"
 2532      206C6F6E 
 2532      6720756E 
 2532      7369676E 
 2532      65642069 
 2533              	.LASF85:
 2534 0231 52455345 		.ascii	"RESET\000"
 2534      5400
 2535              	.LASF72:
 2536 0237 5F5F7569 		.ascii	"__uint16_t\000"
 2536      6E743136 
 2536      5F7400
 2537              	.LASF29:
 2538 0242 43414E31 		.ascii	"CAN1_RX1_IRQn\000"
 2538      5F525831 
 2538      5F495251 
 2538      6E00
 2539              	.LASF119:
 2540 0250 55534152 		.ascii	"USART_WordLength\000"
 2540      545F576F 
 2540      72644C65 
 2540      6E677468 
 2540      00
 2541              	.LASF107:
 2542 0261 4750494F 		.ascii	"GPIO_Mode_IPD\000"
 2542      5F4D6F64 
 2542      655F4950 
 2542      4400
 2543              	.LASF108:
 2544 026f 4750494F 		.ascii	"GPIO_Mode_IPU\000"
 2544      5F4D6F64 
 2544      655F4950 
 2544      5500
 2545              	.LASF27:
 2546 027d 5553425F 		.ascii	"USB_HP_CAN1_TX_IRQn\000"
 2546      48505F43 
ARM GAS  G:\Users\Jaxb\AppData\Local\Temp\ccYqEobM.s 			page 51


 2546      414E315F 
 2546      54585F49 
 2546      52516E00 
 2547              	.LASF46:
 2548 0291 55534152 		.ascii	"USART2_IRQn\000"
 2548      54325F49 
 2548      52516E00 
 2549              	.LASF123:
 2550 029d 55534152 		.ascii	"USART_HardwareFlowControl\000"
 2550      545F4861 
 2550      72647761 
 2550      7265466C 
 2550      6F77436F 
 2551              	.LASF109:
 2552 02b7 4750494F 		.ascii	"GPIO_Mode_Out_OD\000"
 2552      5F4D6F64 
 2552      655F4F75 
 2552      745F4F44 
 2552      00
 2553              	.LASF128:
 2554 02c8 4E564943 		.ascii	"NVIC_IRQChannelCmd\000"
 2554      5F495251 
 2554      4368616E 
 2554      6E656C43 
 2554      6D6400
 2555              	.LASF100:
 2556 02db 55534152 		.ascii	"USART_TypeDef\000"
 2556      545F5479 
 2556      70654465 
 2556      6600
 2557              	.LASF16:
 2558 02e9 45585449 		.ascii	"EXTI2_IRQn\000"
 2558      325F4952 
 2558      516E00
 2559              	.LASF41:
 2560 02f4 49324332 		.ascii	"I2C2_EV_IRQn\000"
 2560      5F45565F 
 2560      4952516E 
 2560      00
 2561              	.LASF141:
 2562 0301 55534152 		.ascii	"USART_InitStructure\000"
 2562      545F496E 
 2562      69745374 
 2562      72756374 
 2562      75726500 
 2563              	.LASF59:
 2564 0315 53504933 		.ascii	"SPI3_IRQn\000"
 2564      5F495251 
 2564      6E00
 2565              	.LASF86:
 2566 031f 44495341 		.ascii	"DISABLE\000"
 2566      424C4500 
 2567              	.LASF110:
 2568 0327 4750494F 		.ascii	"GPIO_Mode_Out_PP\000"
 2568      5F4D6F64 
 2568      655F4F75 
 2568      745F5050 
ARM GAS  G:\Users\Jaxb\AppData\Local\Temp\ccYqEobM.s 			page 52


 2568      00
 2569              	.LASF135:
 2570 0338 63686172 		.ascii	"char\000"
 2570      00
 2571              	.LASF24:
 2572 033d 444D4131 		.ascii	"DMA1_Channel6_IRQn\000"
 2572      5F436861 
 2572      6E6E656C 
 2572      365F4952 
 2572      516E00
 2573              	.LASF156:
 2574 0350 4E564943 		.ascii	"NVIC_InitStructure\000"
 2574      5F496E69 
 2574      74537472 
 2574      75637475 
 2574      726500
 2575              	.LASF64:
 2576 0363 444D4132 		.ascii	"DMA2_Channel1_IRQn\000"
 2576      5F436861 
 2576      6E6E656C 
 2576      315F4952 
 2576      516E00
 2577              	.LASF37:
 2578 0376 54494D33 		.ascii	"TIM3_IRQn\000"
 2578      5F495251 
 2578      6E00
 2579              	.LASF19:
 2580 0380 444D4131 		.ascii	"DMA1_Channel1_IRQn\000"
 2580      5F436861 
 2580      6E6E656C 
 2580      315F4952 
 2580      516E00
 2581              	.LASF122:
 2582 0393 55534152 		.ascii	"USART_Mode\000"
 2582      545F4D6F 
 2582      646500
 2583              	.LASF80:
 2584 039e 75696E74 		.ascii	"uint8_t\000"
 2584      385F7400 
 2585              	.LASF50:
 2586 03a6 55534257 		.ascii	"USBWakeUp_IRQn\000"
 2586      616B6555 
 2586      705F4952 
 2586      516E00
 2587              	.LASF77:
 2588 03b5 6C6F6E67 		.ascii	"long long int\000"
 2588      206C6F6E 
 2588      6720696E 
 2588      7400
 2589              	.LASF8:
 2590 03c3 57574447 		.ascii	"WWDG_IRQn\000"
 2590      5F495251 
 2590      6E00
 2591              	.LASF136:
 2592 03cd 55736172 		.ascii	"Usart_SendArray\000"
 2592      745F5365 
 2592      6E644172 
ARM GAS  G:\Users\Jaxb\AppData\Local\Temp\ccYqEobM.s 			page 53


 2592      72617900 
 2593              	.LASF151:
 2594 03dd 474E5520 		.ascii	"GNU C11 7.3.1 20180622 (release) [ARM/embedded-7-br"
 2594      43313120 
 2594      372E332E 
 2594      31203230 
 2594      31383036 
 2595 0410 616E6368 		.ascii	"anch revision 261907] -mcpu=cortex-m3 -mthumb -mapc"
 2595      20726576 
 2595      6973696F 
 2595      6E203236 
 2595      31393037 
 2596 0443 732D6672 		.ascii	"s-frame -mthumb-interwork -mcpu=cortex-m3 -mthumb -"
 2596      616D6520 
 2596      2D6D7468 
 2596      756D622D 
 2596      696E7465 
 2597 0476 67647761 		.ascii	"gdwarf-2 -O2\000"
 2597      72662D32 
 2597      202D4F32 
 2597      00
 2598              	.LASF2:
 2599 0483 42757346 		.ascii	"BusFault_IRQn\000"
 2599      61756C74 
 2599      5F495251 
 2599      6E00
 2600              	.LASF127:
 2601 0491 4E564943 		.ascii	"NVIC_IRQChannelSubPriority\000"
 2601      5F495251 
 2601      4368616E 
 2601      6E656C53 
 2601      75625072 
 2602              	.LASF18:
 2603 04ac 45585449 		.ascii	"EXTI4_IRQn\000"
 2603      345F4952 
 2603      516E00
 2604              	.LASF140:
 2605 04b7 4750494F 		.ascii	"GPIO_InitStructure\000"
 2605      5F496E69 
 2605      74537472 
 2605      75637475 
 2605      726500
 2606              	.LASF55:
 2607 04ca 41444333 		.ascii	"ADC3_IRQn\000"
 2607      5F495251 
 2607      6E00
 2608              	.LASF9:
 2609 04d4 5056445F 		.ascii	"PVD_IRQn\000"
 2609      4952516E 
 2609      00
 2610              	.LASF125:
 2611 04dd 4E564943 		.ascii	"NVIC_IRQChannel\000"
 2611      5F495251 
 2611      4368616E 
 2611      6E656C00 
 2612              	.LASF66:
 2613 04ed 444D4132 		.ascii	"DMA2_Channel3_IRQn\000"
ARM GAS  G:\Users\Jaxb\AppData\Local\Temp\ccYqEobM.s 			page 54


 2613      5F436861 
 2613      6E6E656C 
 2613      335F4952 
 2613      516E00
 2614              	.LASF143:
 2615 0500 55534152 		.ascii	"USART_GetFlagStatus\000"
 2615      545F4765 
 2615      74466C61 
 2615      67537461 
 2615      74757300 
 2616              	.LASF145:
 2617 0514 4E564943 		.ascii	"NVIC_Init\000"
 2617      5F496E69 
 2617      7400
 2618              	.LASF58:
 2619 051e 54494D35 		.ascii	"TIM5_IRQn\000"
 2619      5F495251 
 2619      6E00
 2620              	.LASF21:
 2621 0528 444D4131 		.ascii	"DMA1_Channel3_IRQn\000"
 2621      5F436861 
 2621      6E6E656C 
 2621      335F4952 
 2621      516E00
 2622              	.LASF53:
 2623 053b 54494D38 		.ascii	"TIM8_TRG_COM_IRQn\000"
 2623      5F545247 
 2623      5F434F4D 
 2623      5F495251 
 2623      6E00
 2624              	.LASF111:
 2625 054d 4750494F 		.ascii	"GPIO_Mode_AF_OD\000"
 2625      5F4D6F64 
 2625      655F4146 
 2625      5F4F4400 
 2626              	.LASF39:
 2627 055d 49324331 		.ascii	"I2C1_EV_IRQn\000"
 2627      5F45565F 
 2627      4952516E 
 2627      00
 2628              	.LASF137:
 2629 056a 61727261 		.ascii	"array\000"
 2629      7900
 2630              	.LASF138:
 2631 0570 55736172 		.ascii	"Usart_SendByte\000"
 2631      745F5365 
 2631      6E644279 
 2631      746500
 2632              	.LASF81:
 2633 057f 75696E74 		.ascii	"uint16_t\000"
 2633      31365F74 
 2633      00
 2634              	.LASF154:
 2635 0588 4952516E 		.ascii	"IRQn\000"
 2635      00
 2636              	.LASF33:
 2637 058d 54494D31 		.ascii	"TIM1_UP_IRQn\000"
ARM GAS  G:\Users\Jaxb\AppData\Local\Temp\ccYqEobM.s 			page 55


 2637      5F55505F 
 2637      4952516E 
 2637      00
 2638              	.LASF101:
 2639 059a 4750494F 		.ascii	"GPIO_Speed_10MHz\000"
 2639      5F537065 
 2639      65645F31 
 2639      304D487A 
 2639      00
 2640              	.LASF52:
 2641 05ab 54494D38 		.ascii	"TIM8_UP_IRQn\000"
 2641      5F55505F 
 2641      4952516E 
 2641      00
 2642              	.LASF104:
 2643 05b8 4750494F 		.ascii	"GPIOSpeed_TypeDef\000"
 2643      53706565 
 2643      645F5479 
 2643      70654465 
 2643      6600
 2644              	.LASF11:
 2645 05ca 5254435F 		.ascii	"RTC_IRQn\000"
 2645      4952516E 
 2645      00
 2646              	.LASF133:
 2647 05d3 55736172 		.ascii	"Usart_SendHalfWord\000"
 2647      745F5365 
 2647      6E644861 
 2647      6C66576F 
 2647      726400
 2648              	.LASF92:
 2649 05e6 52455345 		.ascii	"RESERVED0\000"
 2649      52564544 
 2649      3000
 2650              	.LASF93:
 2651 05f0 52455345 		.ascii	"RESERVED1\000"
 2651      52564544 
 2651      3100
 2652              	.LASF94:
 2653 05fa 52455345 		.ascii	"RESERVED2\000"
 2653      52564544 
 2653      3200
 2654              	.LASF95:
 2655 0604 52455345 		.ascii	"RESERVED3\000"
 2655      52564544 
 2655      3300
 2656              	.LASF96:
 2657 060e 52455345 		.ascii	"RESERVED4\000"
 2657      52564544 
 2657      3400
 2658              	.LASF97:
 2659 0618 52455345 		.ascii	"RESERVED5\000"
 2659      52564544 
 2659      3500
 2660              	.LASF99:
 2661 0622 52455345 		.ascii	"RESERVED6\000"
 2661      52564544 
ARM GAS  G:\Users\Jaxb\AppData\Local\Temp\ccYqEobM.s 			page 56


 2661      3600
 2662              	.LASF70:
 2663 062c 73686F72 		.ascii	"short int\000"
 2663      7420696E 
 2663      7400
 2664              	.LASF112:
 2665 0636 4750494F 		.ascii	"GPIO_Mode_AF_PP\000"
 2665      5F4D6F64 
 2665      655F4146 
 2665      5F505000 
 2666              	.LASF74:
 2667 0646 6C6F6E67 		.ascii	"long int\000"
 2667      20696E74 
 2667      00
 2668              	.LASF45:
 2669 064f 55534152 		.ascii	"USART1_IRQn\000"
 2669      54315F49 
 2669      52516E00 
 2670              	.LASF61:
 2671 065b 55415254 		.ascii	"UART5_IRQn\000"
 2671      355F4952 
 2671      516E00
 2672              	.LASF83:
 2673 0666 49544D5F 		.ascii	"ITM_RxBuffer\000"
 2673      52784275 
 2673      66666572 
 2673      00
 2674              	.LASF0:
 2675 0673 4E6F6E4D 		.ascii	"NonMaskableInt_IRQn\000"
 2675      61736B61 
 2675      626C6549 
 2675      6E745F49 
 2675      52516E00 
 2676              	.LASF114:
 2677 0687 4750494F 		.ascii	"GPIO_Pin\000"
 2677      5F50696E 
 2677      00
 2678              	.LASF35:
 2679 0690 54494D31 		.ascii	"TIM1_CC_IRQn\000"
 2679      5F43435F 
 2679      4952516E 
 2679      00
 2680              	.LASF54:
 2681 069d 54494D38 		.ascii	"TIM8_CC_IRQn\000"
 2681      5F43435F 
 2681      4952516E 
 2681      00
 2682              	.LASF56:
 2683 06aa 46534D43 		.ascii	"FSMC_IRQn\000"
 2683      5F495251 
 2683      6E00
 2684              	.LASF15:
 2685 06b4 45585449 		.ascii	"EXTI1_IRQn\000"
 2685      315F4952 
 2685      516E00
 2686              	.LASF34:
 2687 06bf 54494D31 		.ascii	"TIM1_TRG_COM_IRQn\000"
ARM GAS  G:\Users\Jaxb\AppData\Local\Temp\ccYqEobM.s 			page 57


 2687      5F545247 
 2687      5F434F4D 
 2687      5F495251 
 2687      6E00
 2688              	.LASF91:
 2689 06d1 4750494F 		.ascii	"GPIO_TypeDef\000"
 2689      5F547970 
 2689      65446566 
 2689      00
 2690              	.LASF40:
 2691 06de 49324331 		.ascii	"I2C1_ER_IRQn\000"
 2691      5F45525F 
 2691      4952516E 
 2691      00
 2692              	.LASF7:
 2693 06eb 53797354 		.ascii	"SysTick_IRQn\000"
 2693      69636B5F 
 2693      4952516E 
 2693      00
 2694              	.LASF87:
 2695 06f8 454E4142 		.ascii	"ENABLE\000"
 2695      4C4500
 2696              	.LASF76:
 2697 06ff 6C6F6E67 		.ascii	"long unsigned int\000"
 2697      20756E73 
 2697      69676E65 
 2697      6420696E 
 2697      7400
 2698              	.LASF36:
 2699 0711 54494D32 		.ascii	"TIM2_IRQn\000"
 2699      5F495251 
 2699      6E00
 2700              	.LASF5:
 2701 071b 44656275 		.ascii	"DebugMonitor_IRQn\000"
 2701      674D6F6E 
 2701      69746F72 
 2701      5F495251 
 2701      6E00
 2702              	.LASF3:
 2703 072d 55736167 		.ascii	"UsageFault_IRQn\000"
 2703      65466175 
 2703      6C745F49 
 2703      52516E00 
 2704              	.LASF117:
 2705 073d 4750494F 		.ascii	"GPIO_InitTypeDef\000"
 2705      5F496E69 
 2705      74547970 
 2705      65446566 
 2705      00
 2706              	.LASF69:
 2707 074e 756E7369 		.ascii	"unsigned char\000"
 2707      676E6564 
 2707      20636861 
 2707      7200
 2708              	.LASF149:
 2709 075c 55534152 		.ascii	"USART_ITConfig\000"
 2709      545F4954 
ARM GAS  G:\Users\Jaxb\AppData\Local\Temp\ccYqEobM.s 			page 58


 2709      436F6E66 
 2709      696700
 2710              	.LASF75:
 2711 076b 5F5F7569 		.ascii	"__uint32_t\000"
 2711      6E743332 
 2711      5F7400
 2712              	.LASF105:
 2713 0776 4750494F 		.ascii	"GPIO_Mode_AIN\000"
 2713      5F4D6F64 
 2713      655F4149 
 2713      4E00
 2714              	.LASF103:
 2715 0784 4750494F 		.ascii	"GPIO_Speed_50MHz\000"
 2715      5F537065 
 2715      65645F35 
 2715      304D487A 
 2715      00
 2716              	.LASF150:
 2717 0795 55534152 		.ascii	"USART_Cmd\000"
 2717      545F436D 
 2717      6400
 2718              	.LASF31:
 2719 079f 45585449 		.ascii	"EXTI9_5_IRQn\000"
 2719      395F355F 
 2719      4952516E 
 2719      00
 2720              	.LASF4:
 2721 07ac 53564361 		.ascii	"SVCall_IRQn\000"
 2721      6C6C5F49 
 2721      52516E00 
 2722              	.LASF102:
 2723 07b8 4750494F 		.ascii	"GPIO_Speed_2MHz\000"
 2723      5F537065 
 2723      65645F32 
 2723      4D487A00 
 2724              	.LASF155:
 2725 07c8 4E564943 		.ascii	"NVIC_Configuration\000"
 2725      5F436F6E 
 2725      66696775 
 2725      72617469 
 2725      6F6E00
 2726              	.LASF124:
 2727 07db 55534152 		.ascii	"USART_InitTypeDef\000"
 2727      545F496E 
 2727      69745479 
 2727      70654465 
 2727      6600
 2728              	.LASF44:
 2729 07ed 53504932 		.ascii	"SPI2_IRQn\000"
 2729      5F495251 
 2729      6E00
 2730              	.LASF63:
 2731 07f7 54494D37 		.ascii	"TIM7_IRQn\000"
 2731      5F495251 
 2731      6E00
 2732              	.LASF23:
 2733 0801 444D4131 		.ascii	"DMA1_Channel5_IRQn\000"
ARM GAS  G:\Users\Jaxb\AppData\Local\Temp\ccYqEobM.s 			page 59


 2733      5F436861 
 2733      6E6E656C 
 2733      355F4952 
 2733      516E00
 2734              	.LASF121:
 2735 0814 55534152 		.ascii	"USART_Parity\000"
 2735      545F5061 
 2735      72697479 
 2735      00
 2736              	.LASF146:
 2737 0821 5243435F 		.ascii	"RCC_APB2PeriphClockCmd\000"
 2737      41504232 
 2737      50657269 
 2737      7068436C 
 2737      6F636B43 
 2738              	.LASF139:
 2739 0838 55534152 		.ascii	"USART_Config\000"
 2739      545F436F 
 2739      6E666967 
 2739      00
 2740              	.LASF71:
 2741 0845 5F5F7569 		.ascii	"__uint8_t\000"
 2741      6E74385F 
 2741      7400
 2742              	.LASF144:
 2743 084f 4E564943 		.ascii	"NVIC_PriorityGroupConfig\000"
 2743      5F507269 
 2743      6F726974 
 2743      7947726F 
 2743      7570436F 
 2744              	.LASF115:
 2745 0868 4750494F 		.ascii	"GPIO_Speed\000"
 2745      5F537065 
 2745      656400
 2746              	.LASF68:
 2747 0873 7369676E 		.ascii	"signed char\000"
 2747      65642063 
 2747      68617200 
 2748              	.LASF51:
 2749 087f 54494D38 		.ascii	"TIM8_BRK_IRQn\000"
 2749      5F42524B 
 2749      5F495251 
 2749      6E00
 2750              	.LASF73:
 2751 088d 73686F72 		.ascii	"short unsigned int\000"
 2751      7420756E 
 2751      7369676E 
 2751      65642069 
 2751      6E7400
 2752              	.LASF17:
 2753 08a0 45585449 		.ascii	"EXTI3_IRQn\000"
 2753      335F4952 
 2753      516E00
 2754              	.LASF126:
 2755 08ab 4E564943 		.ascii	"NVIC_IRQChannelPreemptionPriority\000"
 2755      5F495251 
 2755      4368616E 
ARM GAS  G:\Users\Jaxb\AppData\Local\Temp\ccYqEobM.s 			page 60


 2755      6E656C50 
 2755      7265656D 
 2756              	.LASF67:
 2757 08cd 444D4132 		.ascii	"DMA2_Channel4_5_IRQn\000"
 2757      5F436861 
 2757      6E6E656C 
 2757      345F355F 
 2757      4952516E 
 2758              	.LASF26:
 2759 08e2 41444331 		.ascii	"ADC1_2_IRQn\000"
 2759      5F325F49 
 2759      52516E00 
 2760              	.LASF65:
 2761 08ee 444D4132 		.ascii	"DMA2_Channel2_IRQn\000"
 2761      5F436861 
 2761      6E6E656C 
 2761      325F4952 
 2761      516E00
 2762              	.LASF106:
 2763 0901 4750494F 		.ascii	"GPIO_Mode_IN_FLOATING\000"
 2763      5F4D6F64 
 2763      655F494E 
 2763      5F464C4F 
 2763      4154494E 
 2764              	.LASF47:
 2765 0917 55534152 		.ascii	"USART3_IRQn\000"
 2765      54335F49 
 2765      52516E00 
 2766              	.LASF10:
 2767 0923 54414D50 		.ascii	"TAMPER_IRQn\000"
 2767      45525F49 
 2767      52516E00 
 2768              	.LASF90:
 2769 092f 4C434B52 		.ascii	"LCKR\000"
 2769      00
 2770              	.LASF49:
 2771 0934 52544341 		.ascii	"RTCAlarm_IRQn\000"
 2771      6C61726D 
 2771      5F495251 
 2771      6E00
 2772              	.LASF152:
 2773 0942 2E2E2F2E 		.ascii	"../../source/src/user/OS_CPU/bsp/bsp_usart.c\000"
 2773      2E2F736F 
 2773      75726365 
 2773      2F737263 
 2773      2F757365 
 2774              		.ident	"GCC: (GNU Tools for Arm Embedded Processors 7-2018-q2-update) 7.3.1 20180622 (release) [AR
ARM GAS  G:\Users\Jaxb\AppData\Local\Temp\ccYqEobM.s 			page 61


DEFINED SYMBOLS
                            *ABS*:00000000 bsp_usart.c
G:\Users\Jaxb\AppData\Local\Temp\ccYqEobM.s:15     .text:00000000 $t
G:\Users\Jaxb\AppData\Local\Temp\ccYqEobM.s:23     .text:00000000 USART_Config
G:\Users\Jaxb\AppData\Local\Temp\ccYqEobM.s:147    .text:000000a0 $d
G:\Users\Jaxb\AppData\Local\Temp\ccYqEobM.s:152    .text:000000a8 $t
G:\Users\Jaxb\AppData\Local\Temp\ccYqEobM.s:160    .text:000000a8 Usart_SendByte
G:\Users\Jaxb\AppData\Local\Temp\ccYqEobM.s:198    .text:000000c0 Usart_SendArray
G:\Users\Jaxb\AppData\Local\Temp\ccYqEobM.s:260    .text:000000ec Usart_SendString
G:\Users\Jaxb\AppData\Local\Temp\ccYqEobM.s:311    .text:00000110 Usart_SendHalfWord

UNDEFINED SYMBOLS
RCC_APB2PeriphClockCmd
GPIO_Init
USART_Init
NVIC_PriorityGroupConfig
NVIC_Init
USART_ITConfig
USART_Cmd
USART_SendData
USART_GetFlagStatus
