ARM GAS  G:\Users\Jaxb\AppData\Local\Temp\ccfTfaEf.s 			page 1


   1              		.cpu cortex-m3
   2              		.eabi_attribute 20, 1
   3              		.eabi_attribute 21, 1
   4              		.eabi_attribute 23, 3
   5              		.eabi_attribute 24, 1
   6              		.eabi_attribute 25, 1
   7              		.eabi_attribute 26, 1
   8              		.eabi_attribute 30, 6
   9              		.eabi_attribute 34, 1
  10              		.eabi_attribute 18, 4
  11              		.file	"bsp_usart.c"
  12              		.text
  13              	.Ltext0:
  14              		.cfi_sections	.debug_frame
  15              		.align	1
  16              		.syntax unified
  17              		.thumb
  18              		.thumb_func
  19              		.fpu softvfp
  20              		.type	NVIC_Configuration, %function
  21              	NVIC_Configuration:
  22              	.LFB29:
  23              		.file 1 "../../source/src/kernel/OS_CPU/bsp/bsp_usart.c"
   1:../../source/src/kernel/OS_CPU/bsp/bsp_usart.c **** /**
   2:../../source/src/kernel/OS_CPU/bsp/bsp_usart.c ****   ******************************************************************************
   3:../../source/src/kernel/OS_CPU/bsp/bsp_usart.c ****   * @file    bsp_usart.c
   4:../../source/src/kernel/OS_CPU/bsp/bsp_usart.c ****   * @author  fire
   5:../../source/src/kernel/OS_CPU/bsp/bsp_usart.c ****   * @version V1.0
   6:../../source/src/kernel/OS_CPU/bsp/bsp_usart.c ****   * @date    2013-xx-xx
   7:../../source/src/kernel/OS_CPU/bsp/bsp_usart.c ****   * @brief   重定向c库printf函数到usart端口
   8:../../source/src/kernel/OS_CPU/bsp/bsp_usart.c ****   ******************************************************************************
   9:../../source/src/kernel/OS_CPU/bsp/bsp_usart.c ****   * @attention
  10:../../source/src/kernel/OS_CPU/bsp/bsp_usart.c ****   *
  11:../../source/src/kernel/OS_CPU/bsp/bsp_usart.c ****   * 实验平台:秉火STM32 F103-霸道 开发板  
  12:../../source/src/kernel/OS_CPU/bsp/bsp_usart.c ****   * 论坛    :http://www.firebbs.cn
  13:../../source/src/kernel/OS_CPU/bsp/bsp_usart.c ****   * 淘宝    :https://fire-stm32.taobao.com
  14:../../source/src/kernel/OS_CPU/bsp/bsp_usart.c ****   *
  15:../../source/src/kernel/OS_CPU/bsp/bsp_usart.c ****   ******************************************************************************
  16:../../source/src/kernel/OS_CPU/bsp/bsp_usart.c ****   */ 
  17:../../source/src/kernel/OS_CPU/bsp/bsp_usart.c **** 	
  18:../../source/src/kernel/OS_CPU/bsp/bsp_usart.c **** #include "bsp_usart.h"
  19:../../source/src/kernel/OS_CPU/bsp/bsp_usart.c **** 
  20:../../source/src/kernel/OS_CPU/bsp/bsp_usart.c ****  /**
  21:../../source/src/kernel/OS_CPU/bsp/bsp_usart.c ****   * @brief  配置嵌套向量中断控制器NVIC
  22:../../source/src/kernel/OS_CPU/bsp/bsp_usart.c ****   * @param  无
  23:../../source/src/kernel/OS_CPU/bsp/bsp_usart.c ****   * @retval 无
  24:../../source/src/kernel/OS_CPU/bsp/bsp_usart.c ****   */
  25:../../source/src/kernel/OS_CPU/bsp/bsp_usart.c **** static void NVIC_Configuration(void)
  26:../../source/src/kernel/OS_CPU/bsp/bsp_usart.c **** {
  24              		.loc 1 26 0
  25              		.cfi_startproc
  26              		@ args = 0, pretend = 0, frame = 8
  27              		@ frame_needed = 1, uses_anonymous_args = 0
  28 0000 80B5     		push	{r7, lr}
  29              	.LCFI0:
  30              		.cfi_def_cfa_offset 8
  31              		.cfi_offset 7, -8
ARM GAS  G:\Users\Jaxb\AppData\Local\Temp\ccfTfaEf.s 			page 2


  32              		.cfi_offset 14, -4
  33 0002 82B0     		sub	sp, sp, #8
  34              	.LCFI1:
  35              		.cfi_def_cfa_offset 16
  36 0004 00AF     		add	r7, sp, #0
  37              	.LCFI2:
  38              		.cfi_def_cfa_register 7
  27:../../source/src/kernel/OS_CPU/bsp/bsp_usart.c ****   NVIC_InitTypeDef NVIC_InitStructure;
  28:../../source/src/kernel/OS_CPU/bsp/bsp_usart.c ****   
  29:../../source/src/kernel/OS_CPU/bsp/bsp_usart.c ****   /* 嵌套向量中断控制器组选择 */
  30:../../source/src/kernel/OS_CPU/bsp/bsp_usart.c ****   NVIC_PriorityGroupConfig(NVIC_PriorityGroup_2);
  39              		.loc 1 30 0
  40 0006 4FF4A060 		mov	r0, #1280
  41 000a FFF7FEFF 		bl	NVIC_PriorityGroupConfig
  31:../../source/src/kernel/OS_CPU/bsp/bsp_usart.c ****   
  32:../../source/src/kernel/OS_CPU/bsp/bsp_usart.c ****   /* 配置USART为中断源 */
  33:../../source/src/kernel/OS_CPU/bsp/bsp_usart.c ****   NVIC_InitStructure.NVIC_IRQChannel = DEBUG_USART_IRQ;
  42              		.loc 1 33 0
  43 000e 2523     		movs	r3, #37
  44 0010 3B71     		strb	r3, [r7, #4]
  34:../../source/src/kernel/OS_CPU/bsp/bsp_usart.c ****   /* 抢断优先级*/
  35:../../source/src/kernel/OS_CPU/bsp/bsp_usart.c ****   NVIC_InitStructure.NVIC_IRQChannelPreemptionPriority = 1;
  45              		.loc 1 35 0
  46 0012 0123     		movs	r3, #1
  47 0014 7B71     		strb	r3, [r7, #5]
  36:../../source/src/kernel/OS_CPU/bsp/bsp_usart.c ****   /* 子优先级 */
  37:../../source/src/kernel/OS_CPU/bsp/bsp_usart.c ****   NVIC_InitStructure.NVIC_IRQChannelSubPriority = 1;
  48              		.loc 1 37 0
  49 0016 0123     		movs	r3, #1
  50 0018 BB71     		strb	r3, [r7, #6]
  38:../../source/src/kernel/OS_CPU/bsp/bsp_usart.c ****   /* 使能中断 */
  39:../../source/src/kernel/OS_CPU/bsp/bsp_usart.c ****   NVIC_InitStructure.NVIC_IRQChannelCmd = ENABLE;
  51              		.loc 1 39 0
  52 001a 0123     		movs	r3, #1
  53 001c FB71     		strb	r3, [r7, #7]
  40:../../source/src/kernel/OS_CPU/bsp/bsp_usart.c ****   /* 初始化配置NVIC */
  41:../../source/src/kernel/OS_CPU/bsp/bsp_usart.c ****   NVIC_Init(&NVIC_InitStructure);
  54              		.loc 1 41 0
  55 001e 3B1D     		adds	r3, r7, #4
  56 0020 1846     		mov	r0, r3
  57 0022 FFF7FEFF 		bl	NVIC_Init
  42:../../source/src/kernel/OS_CPU/bsp/bsp_usart.c **** }
  58              		.loc 1 42 0
  59 0026 00BF     		nop
  60 0028 0837     		adds	r7, r7, #8
  61              	.LCFI3:
  62              		.cfi_def_cfa_offset 8
  63 002a BD46     		mov	sp, r7
  64              	.LCFI4:
  65              		.cfi_def_cfa_register 13
  66              		@ sp needed
  67 002c 80BD     		pop	{r7, pc}
  68              		.cfi_endproc
  69              	.LFE29:
  70              		.size	NVIC_Configuration, .-NVIC_Configuration
  71              		.align	1
  72              		.global	USART_Config
ARM GAS  G:\Users\Jaxb\AppData\Local\Temp\ccfTfaEf.s 			page 3


  73              		.syntax unified
  74              		.thumb
  75              		.thumb_func
  76              		.fpu softvfp
  77              		.type	USART_Config, %function
  78              	USART_Config:
  79              	.LFB30:
  43:../../source/src/kernel/OS_CPU/bsp/bsp_usart.c **** 
  44:../../source/src/kernel/OS_CPU/bsp/bsp_usart.c ****  /**
  45:../../source/src/kernel/OS_CPU/bsp/bsp_usart.c ****   * @brief  USART GPIO 配置,工作参数配置
  46:../../source/src/kernel/OS_CPU/bsp/bsp_usart.c ****   * @param  无
  47:../../source/src/kernel/OS_CPU/bsp/bsp_usart.c ****   * @retval 无
  48:../../source/src/kernel/OS_CPU/bsp/bsp_usart.c ****   */
  49:../../source/src/kernel/OS_CPU/bsp/bsp_usart.c **** void USART_Config(void)
  50:../../source/src/kernel/OS_CPU/bsp/bsp_usart.c **** {
  80              		.loc 1 50 0
  81              		.cfi_startproc
  82              		@ args = 0, pretend = 0, frame = 24
  83              		@ frame_needed = 1, uses_anonymous_args = 0
  84 002e 80B5     		push	{r7, lr}
  85              	.LCFI5:
  86              		.cfi_def_cfa_offset 8
  87              		.cfi_offset 7, -8
  88              		.cfi_offset 14, -4
  89 0030 86B0     		sub	sp, sp, #24
  90              	.LCFI6:
  91              		.cfi_def_cfa_offset 32
  92 0032 00AF     		add	r7, sp, #0
  93              	.LCFI7:
  94              		.cfi_def_cfa_register 7
  51:../../source/src/kernel/OS_CPU/bsp/bsp_usart.c **** 	GPIO_InitTypeDef GPIO_InitStructure;
  52:../../source/src/kernel/OS_CPU/bsp/bsp_usart.c **** 	USART_InitTypeDef USART_InitStructure;
  53:../../source/src/kernel/OS_CPU/bsp/bsp_usart.c **** 
  54:../../source/src/kernel/OS_CPU/bsp/bsp_usart.c **** 	// 打开串口GPIO的时钟
  55:../../source/src/kernel/OS_CPU/bsp/bsp_usart.c **** 	DEBUG_USART_GPIO_APBxClkCmd(DEBUG_USART_GPIO_CLK, ENABLE);
  95              		.loc 1 55 0
  96 0034 0121     		movs	r1, #1
  97 0036 0420     		movs	r0, #4
  98 0038 FFF7FEFF 		bl	RCC_APB2PeriphClockCmd
  56:../../source/src/kernel/OS_CPU/bsp/bsp_usart.c **** 	
  57:../../source/src/kernel/OS_CPU/bsp/bsp_usart.c **** 	// 打开串口外设的时钟
  58:../../source/src/kernel/OS_CPU/bsp/bsp_usart.c **** 	DEBUG_USART_APBxClkCmd(DEBUG_USART_CLK, ENABLE);
  99              		.loc 1 58 0
 100 003c 0121     		movs	r1, #1
 101 003e 4FF48040 		mov	r0, #16384
 102 0042 FFF7FEFF 		bl	RCC_APB2PeriphClockCmd
  59:../../source/src/kernel/OS_CPU/bsp/bsp_usart.c **** 
  60:../../source/src/kernel/OS_CPU/bsp/bsp_usart.c **** 	// 将USART Tx的GPIO配置为推挽复用模式
  61:../../source/src/kernel/OS_CPU/bsp/bsp_usart.c **** 	GPIO_InitStructure.GPIO_Pin = DEBUG_USART_TX_GPIO_PIN;
 103              		.loc 1 61 0
 104 0046 4FF40073 		mov	r3, #512
 105 004a BB82     		strh	r3, [r7, #20]	@ movhi
  62:../../source/src/kernel/OS_CPU/bsp/bsp_usart.c **** 	GPIO_InitStructure.GPIO_Mode = GPIO_Mode_AF_PP;
 106              		.loc 1 62 0
 107 004c 1823     		movs	r3, #24
 108 004e FB75     		strb	r3, [r7, #23]
  63:../../source/src/kernel/OS_CPU/bsp/bsp_usart.c **** 	GPIO_InitStructure.GPIO_Speed = GPIO_Speed_50MHz;
ARM GAS  G:\Users\Jaxb\AppData\Local\Temp\ccfTfaEf.s 			page 4


 109              		.loc 1 63 0
 110 0050 0323     		movs	r3, #3
 111 0052 BB75     		strb	r3, [r7, #22]
  64:../../source/src/kernel/OS_CPU/bsp/bsp_usart.c **** 	GPIO_Init(DEBUG_USART_TX_GPIO_PORT, &GPIO_InitStructure);
 112              		.loc 1 64 0
 113 0054 07F11403 		add	r3, r7, #20
 114 0058 1946     		mov	r1, r3
 115 005a 1848     		ldr	r0, .L3
 116 005c FFF7FEFF 		bl	GPIO_Init
  65:../../source/src/kernel/OS_CPU/bsp/bsp_usart.c **** 
  66:../../source/src/kernel/OS_CPU/bsp/bsp_usart.c ****   // 将USART Rx的GPIO配置为浮空输入模式
  67:../../source/src/kernel/OS_CPU/bsp/bsp_usart.c **** 	GPIO_InitStructure.GPIO_Pin = DEBUG_USART_RX_GPIO_PIN;
 117              		.loc 1 67 0
 118 0060 4FF48063 		mov	r3, #1024
 119 0064 BB82     		strh	r3, [r7, #20]	@ movhi
  68:../../source/src/kernel/OS_CPU/bsp/bsp_usart.c **** 	GPIO_InitStructure.GPIO_Mode = GPIO_Mode_IN_FLOATING;
 120              		.loc 1 68 0
 121 0066 0423     		movs	r3, #4
 122 0068 FB75     		strb	r3, [r7, #23]
  69:../../source/src/kernel/OS_CPU/bsp/bsp_usart.c **** 	GPIO_Init(DEBUG_USART_RX_GPIO_PORT, &GPIO_InitStructure);
 123              		.loc 1 69 0
 124 006a 07F11403 		add	r3, r7, #20
 125 006e 1946     		mov	r1, r3
 126 0070 1248     		ldr	r0, .L3
 127 0072 FFF7FEFF 		bl	GPIO_Init
  70:../../source/src/kernel/OS_CPU/bsp/bsp_usart.c **** 	
  71:../../source/src/kernel/OS_CPU/bsp/bsp_usart.c **** 	// 配置串口的工作参数
  72:../../source/src/kernel/OS_CPU/bsp/bsp_usart.c **** 	// 配置波特率
  73:../../source/src/kernel/OS_CPU/bsp/bsp_usart.c **** 	USART_InitStructure.USART_BaudRate = DEBUG_USART_BAUDRATE;
 128              		.loc 1 73 0
 129 0076 4FF4E133 		mov	r3, #115200
 130 007a 7B60     		str	r3, [r7, #4]
  74:../../source/src/kernel/OS_CPU/bsp/bsp_usart.c **** 	// 配置 针数据字长
  75:../../source/src/kernel/OS_CPU/bsp/bsp_usart.c **** 	USART_InitStructure.USART_WordLength = USART_WordLength_8b;
 131              		.loc 1 75 0
 132 007c 0023     		movs	r3, #0
 133 007e 3B81     		strh	r3, [r7, #8]	@ movhi
  76:../../source/src/kernel/OS_CPU/bsp/bsp_usart.c **** 	// 配置停止位
  77:../../source/src/kernel/OS_CPU/bsp/bsp_usart.c **** 	USART_InitStructure.USART_StopBits = USART_StopBits_1;
 134              		.loc 1 77 0
 135 0080 0023     		movs	r3, #0
 136 0082 7B81     		strh	r3, [r7, #10]	@ movhi
  78:../../source/src/kernel/OS_CPU/bsp/bsp_usart.c **** 	// 配置校验位
  79:../../source/src/kernel/OS_CPU/bsp/bsp_usart.c **** 	USART_InitStructure.USART_Parity = USART_Parity_No ;
 137              		.loc 1 79 0
 138 0084 0023     		movs	r3, #0
 139 0086 BB81     		strh	r3, [r7, #12]	@ movhi
  80:../../source/src/kernel/OS_CPU/bsp/bsp_usart.c **** 	// 配置硬件流控制
  81:../../source/src/kernel/OS_CPU/bsp/bsp_usart.c **** 	USART_InitStructure.USART_HardwareFlowControl = 
 140              		.loc 1 81 0
 141 0088 0023     		movs	r3, #0
 142 008a 3B82     		strh	r3, [r7, #16]	@ movhi
  82:../../source/src/kernel/OS_CPU/bsp/bsp_usart.c **** 	USART_HardwareFlowControl_None;
  83:../../source/src/kernel/OS_CPU/bsp/bsp_usart.c **** 	// 配置工作模式，收发一起
  84:../../source/src/kernel/OS_CPU/bsp/bsp_usart.c **** 	USART_InitStructure.USART_Mode = USART_Mode_Rx | USART_Mode_Tx;
 143              		.loc 1 84 0
 144 008c 0C23     		movs	r3, #12
ARM GAS  G:\Users\Jaxb\AppData\Local\Temp\ccfTfaEf.s 			page 5


 145 008e FB81     		strh	r3, [r7, #14]	@ movhi
  85:../../source/src/kernel/OS_CPU/bsp/bsp_usart.c **** 	// 完成串口的初始化配置
  86:../../source/src/kernel/OS_CPU/bsp/bsp_usart.c **** 	USART_Init(DEBUG_USARTx, &USART_InitStructure);
 146              		.loc 1 86 0
 147 0090 3B1D     		adds	r3, r7, #4
 148 0092 1946     		mov	r1, r3
 149 0094 0A48     		ldr	r0, .L3+4
 150 0096 FFF7FEFF 		bl	USART_Init
  87:../../source/src/kernel/OS_CPU/bsp/bsp_usart.c **** 	
  88:../../source/src/kernel/OS_CPU/bsp/bsp_usart.c **** 	// 串口中断优先级配置
  89:../../source/src/kernel/OS_CPU/bsp/bsp_usart.c **** 	NVIC_Configuration();
 151              		.loc 1 89 0
 152 009a FFF7B1FF 		bl	NVIC_Configuration
  90:../../source/src/kernel/OS_CPU/bsp/bsp_usart.c **** 	
  91:../../source/src/kernel/OS_CPU/bsp/bsp_usart.c **** 	// 使能串口接收中断
  92:../../source/src/kernel/OS_CPU/bsp/bsp_usart.c **** 	USART_ITConfig(DEBUG_USARTx, USART_IT_RXNE, ENABLE);	
 153              		.loc 1 92 0
 154 009e 0122     		movs	r2, #1
 155 00a0 40F22551 		movw	r1, #1317
 156 00a4 0648     		ldr	r0, .L3+4
 157 00a6 FFF7FEFF 		bl	USART_ITConfig
  93:../../source/src/kernel/OS_CPU/bsp/bsp_usart.c **** 	
  94:../../source/src/kernel/OS_CPU/bsp/bsp_usart.c **** 	// 使能串口
  95:../../source/src/kernel/OS_CPU/bsp/bsp_usart.c **** 	USART_Cmd(DEBUG_USARTx, ENABLE);	    
 158              		.loc 1 95 0
 159 00aa 0121     		movs	r1, #1
 160 00ac 0448     		ldr	r0, .L3+4
 161 00ae FFF7FEFF 		bl	USART_Cmd
  96:../../source/src/kernel/OS_CPU/bsp/bsp_usart.c **** }
 162              		.loc 1 96 0
 163 00b2 00BF     		nop
 164 00b4 1837     		adds	r7, r7, #24
 165              	.LCFI8:
 166              		.cfi_def_cfa_offset 8
 167 00b6 BD46     		mov	sp, r7
 168              	.LCFI9:
 169              		.cfi_def_cfa_register 13
 170              		@ sp needed
 171 00b8 80BD     		pop	{r7, pc}
 172              	.L4:
 173 00ba 00BF     		.align	2
 174              	.L3:
 175 00bc 00080140 		.word	1073809408
 176 00c0 00380140 		.word	1073821696
 177              		.cfi_endproc
 178              	.LFE30:
 179              		.size	USART_Config, .-USART_Config
 180              		.align	1
 181              		.syntax unified
 182              		.thumb
 183              		.thumb_func
 184              		.fpu softvfp
 185              		.type	NVIC2_Configuration, %function
 186              	NVIC2_Configuration:
 187              	.LFB31:
  97:../../source/src/kernel/OS_CPU/bsp/bsp_usart.c **** 
  98:../../source/src/kernel/OS_CPU/bsp/bsp_usart.c **** static void NVIC2_Configuration(void)
ARM GAS  G:\Users\Jaxb\AppData\Local\Temp\ccfTfaEf.s 			page 6


  99:../../source/src/kernel/OS_CPU/bsp/bsp_usart.c **** {
 188              		.loc 1 99 0
 189              		.cfi_startproc
 190              		@ args = 0, pretend = 0, frame = 8
 191              		@ frame_needed = 1, uses_anonymous_args = 0
 192 00c4 80B5     		push	{r7, lr}
 193              	.LCFI10:
 194              		.cfi_def_cfa_offset 8
 195              		.cfi_offset 7, -8
 196              		.cfi_offset 14, -4
 197 00c6 82B0     		sub	sp, sp, #8
 198              	.LCFI11:
 199              		.cfi_def_cfa_offset 16
 200 00c8 00AF     		add	r7, sp, #0
 201              	.LCFI12:
 202              		.cfi_def_cfa_register 7
 100:../../source/src/kernel/OS_CPU/bsp/bsp_usart.c ****   NVIC_InitTypeDef NVIC_InitStructure;
 101:../../source/src/kernel/OS_CPU/bsp/bsp_usart.c ****   
 102:../../source/src/kernel/OS_CPU/bsp/bsp_usart.c ****   /* 嵌套向量中断控制器组选择 */
 103:../../source/src/kernel/OS_CPU/bsp/bsp_usart.c ****   NVIC_PriorityGroupConfig(NVIC_PriorityGroup_2);
 203              		.loc 1 103 0
 204 00ca 4FF4A060 		mov	r0, #1280
 205 00ce FFF7FEFF 		bl	NVIC_PriorityGroupConfig
 104:../../source/src/kernel/OS_CPU/bsp/bsp_usart.c ****   
 105:../../source/src/kernel/OS_CPU/bsp/bsp_usart.c ****   /* 配置USART为中断源 */
 106:../../source/src/kernel/OS_CPU/bsp/bsp_usart.c ****   NVIC_InitStructure.NVIC_IRQChannel = USART2_IRQn;
 206              		.loc 1 106 0
 207 00d2 2623     		movs	r3, #38
 208 00d4 3B71     		strb	r3, [r7, #4]
 107:../../source/src/kernel/OS_CPU/bsp/bsp_usart.c ****   /* 抢断优先级*/
 108:../../source/src/kernel/OS_CPU/bsp/bsp_usart.c ****   NVIC_InitStructure.NVIC_IRQChannelPreemptionPriority = 1;
 209              		.loc 1 108 0
 210 00d6 0123     		movs	r3, #1
 211 00d8 7B71     		strb	r3, [r7, #5]
 109:../../source/src/kernel/OS_CPU/bsp/bsp_usart.c ****   /* 子优先级 */
 110:../../source/src/kernel/OS_CPU/bsp/bsp_usart.c ****   NVIC_InitStructure.NVIC_IRQChannelSubPriority = 1;
 212              		.loc 1 110 0
 213 00da 0123     		movs	r3, #1
 214 00dc BB71     		strb	r3, [r7, #6]
 111:../../source/src/kernel/OS_CPU/bsp/bsp_usart.c ****   /* 使能中断 */
 112:../../source/src/kernel/OS_CPU/bsp/bsp_usart.c ****   NVIC_InitStructure.NVIC_IRQChannelCmd = ENABLE;
 215              		.loc 1 112 0
 216 00de 0123     		movs	r3, #1
 217 00e0 FB71     		strb	r3, [r7, #7]
 113:../../source/src/kernel/OS_CPU/bsp/bsp_usart.c ****   /* 初始化配置NVIC */
 114:../../source/src/kernel/OS_CPU/bsp/bsp_usart.c ****   NVIC_Init(&NVIC_InitStructure);
 218              		.loc 1 114 0
 219 00e2 3B1D     		adds	r3, r7, #4
 220 00e4 1846     		mov	r0, r3
 221 00e6 FFF7FEFF 		bl	NVIC_Init
 115:../../source/src/kernel/OS_CPU/bsp/bsp_usart.c **** }
 222              		.loc 1 115 0
 223 00ea 00BF     		nop
 224 00ec 0837     		adds	r7, r7, #8
 225              	.LCFI13:
 226              		.cfi_def_cfa_offset 8
 227 00ee BD46     		mov	sp, r7
ARM GAS  G:\Users\Jaxb\AppData\Local\Temp\ccfTfaEf.s 			page 7


 228              	.LCFI14:
 229              		.cfi_def_cfa_register 13
 230              		@ sp needed
 231 00f0 80BD     		pop	{r7, pc}
 232              		.cfi_endproc
 233              	.LFE31:
 234              		.size	NVIC2_Configuration, .-NVIC2_Configuration
 235              		.align	1
 236              		.global	USART2_Config
 237              		.syntax unified
 238              		.thumb
 239              		.thumb_func
 240              		.fpu softvfp
 241              		.type	USART2_Config, %function
 242              	USART2_Config:
 243              	.LFB32:
 116:../../source/src/kernel/OS_CPU/bsp/bsp_usart.c **** 
 117:../../source/src/kernel/OS_CPU/bsp/bsp_usart.c **** void USART2_Config(void)
 118:../../source/src/kernel/OS_CPU/bsp/bsp_usart.c **** {
 244              		.loc 1 118 0
 245              		.cfi_startproc
 246              		@ args = 0, pretend = 0, frame = 24
 247              		@ frame_needed = 1, uses_anonymous_args = 0
 248 00f2 80B5     		push	{r7, lr}
 249              	.LCFI15:
 250              		.cfi_def_cfa_offset 8
 251              		.cfi_offset 7, -8
 252              		.cfi_offset 14, -4
 253 00f4 86B0     		sub	sp, sp, #24
 254              	.LCFI16:
 255              		.cfi_def_cfa_offset 32
 256 00f6 00AF     		add	r7, sp, #0
 257              	.LCFI17:
 258              		.cfi_def_cfa_register 7
 119:../../source/src/kernel/OS_CPU/bsp/bsp_usart.c **** 	GPIO_InitTypeDef GPIO_InitStructure;
 120:../../source/src/kernel/OS_CPU/bsp/bsp_usart.c **** 	USART_InitTypeDef USART_InitStructure;
 121:../../source/src/kernel/OS_CPU/bsp/bsp_usart.c **** 
 122:../../source/src/kernel/OS_CPU/bsp/bsp_usart.c **** 	// 打开串口GPIO的时钟
 123:../../source/src/kernel/OS_CPU/bsp/bsp_usart.c **** 	RCC_APB2PeriphClockCmd(RCC_APB2Periph_GPIOA, ENABLE);
 259              		.loc 1 123 0
 260 00f8 0121     		movs	r1, #1
 261 00fa 0420     		movs	r0, #4
 262 00fc FFF7FEFF 		bl	RCC_APB2PeriphClockCmd
 124:../../source/src/kernel/OS_CPU/bsp/bsp_usart.c **** 	
 125:../../source/src/kernel/OS_CPU/bsp/bsp_usart.c **** 	// 打开串口外设的时钟
 126:../../source/src/kernel/OS_CPU/bsp/bsp_usart.c **** 	RCC_APB1PeriphClockCmd(RCC_APB1Periph_USART2, ENABLE);
 263              		.loc 1 126 0
 264 0100 0121     		movs	r1, #1
 265 0102 4FF40030 		mov	r0, #131072
 266 0106 FFF7FEFF 		bl	RCC_APB1PeriphClockCmd
 127:../../source/src/kernel/OS_CPU/bsp/bsp_usart.c **** 
 128:../../source/src/kernel/OS_CPU/bsp/bsp_usart.c **** 
 129:../../source/src/kernel/OS_CPU/bsp/bsp_usart.c **** 	GPIO_InitStructure.GPIO_Pin = GPIO_Pin_2;
 267              		.loc 1 129 0
 268 010a 0423     		movs	r3, #4
 269 010c BB82     		strh	r3, [r7, #20]	@ movhi
 130:../../source/src/kernel/OS_CPU/bsp/bsp_usart.c **** 	GPIO_InitStructure.GPIO_Mode = GPIO_Mode_AF_PP;
ARM GAS  G:\Users\Jaxb\AppData\Local\Temp\ccfTfaEf.s 			page 8


 270              		.loc 1 130 0
 271 010e 1823     		movs	r3, #24
 272 0110 FB75     		strb	r3, [r7, #23]
 131:../../source/src/kernel/OS_CPU/bsp/bsp_usart.c **** 	GPIO_InitStructure.GPIO_Speed = GPIO_Speed_50MHz;
 273              		.loc 1 131 0
 274 0112 0323     		movs	r3, #3
 275 0114 BB75     		strb	r3, [r7, #22]
 132:../../source/src/kernel/OS_CPU/bsp/bsp_usart.c **** 	GPIO_Init(GPIOA, &GPIO_InitStructure);
 276              		.loc 1 132 0
 277 0116 07F11403 		add	r3, r7, #20
 278 011a 1946     		mov	r1, r3
 279 011c 1748     		ldr	r0, .L7
 280 011e FFF7FEFF 		bl	GPIO_Init
 133:../../source/src/kernel/OS_CPU/bsp/bsp_usart.c **** 
 134:../../source/src/kernel/OS_CPU/bsp/bsp_usart.c **** 
 135:../../source/src/kernel/OS_CPU/bsp/bsp_usart.c **** 	GPIO_InitStructure.GPIO_Pin = GPIO_Pin_3;
 281              		.loc 1 135 0
 282 0122 0823     		movs	r3, #8
 283 0124 BB82     		strh	r3, [r7, #20]	@ movhi
 136:../../source/src/kernel/OS_CPU/bsp/bsp_usart.c **** 	GPIO_InitStructure.GPIO_Mode = GPIO_Mode_IN_FLOATING;
 284              		.loc 1 136 0
 285 0126 0423     		movs	r3, #4
 286 0128 FB75     		strb	r3, [r7, #23]
 137:../../source/src/kernel/OS_CPU/bsp/bsp_usart.c **** 	GPIO_Init(GPIOA, &GPIO_InitStructure);
 287              		.loc 1 137 0
 288 012a 07F11403 		add	r3, r7, #20
 289 012e 1946     		mov	r1, r3
 290 0130 1248     		ldr	r0, .L7
 291 0132 FFF7FEFF 		bl	GPIO_Init
 138:../../source/src/kernel/OS_CPU/bsp/bsp_usart.c **** 	
 139:../../source/src/kernel/OS_CPU/bsp/bsp_usart.c **** 	USART_InitStructure.USART_BaudRate = DEBUG_USART_BAUDRATE;
 292              		.loc 1 139 0
 293 0136 4FF4E133 		mov	r3, #115200
 294 013a 7B60     		str	r3, [r7, #4]
 140:../../source/src/kernel/OS_CPU/bsp/bsp_usart.c **** 
 141:../../source/src/kernel/OS_CPU/bsp/bsp_usart.c **** 	USART_InitStructure.USART_WordLength = USART_WordLength_8b;
 295              		.loc 1 141 0
 296 013c 0023     		movs	r3, #0
 297 013e 3B81     		strh	r3, [r7, #8]	@ movhi
 142:../../source/src/kernel/OS_CPU/bsp/bsp_usart.c **** 
 143:../../source/src/kernel/OS_CPU/bsp/bsp_usart.c **** 	USART_InitStructure.USART_StopBits = USART_StopBits_1;
 298              		.loc 1 143 0
 299 0140 0023     		movs	r3, #0
 300 0142 7B81     		strh	r3, [r7, #10]	@ movhi
 144:../../source/src/kernel/OS_CPU/bsp/bsp_usart.c **** 
 145:../../source/src/kernel/OS_CPU/bsp/bsp_usart.c **** 	USART_InitStructure.USART_Parity = USART_Parity_No ;
 301              		.loc 1 145 0
 302 0144 0023     		movs	r3, #0
 303 0146 BB81     		strh	r3, [r7, #12]	@ movhi
 146:../../source/src/kernel/OS_CPU/bsp/bsp_usart.c **** 
 147:../../source/src/kernel/OS_CPU/bsp/bsp_usart.c **** 	USART_InitStructure.USART_HardwareFlowControl = 
 304              		.loc 1 147 0
 305 0148 0023     		movs	r3, #0
 306 014a 3B82     		strh	r3, [r7, #16]	@ movhi
 148:../../source/src/kernel/OS_CPU/bsp/bsp_usart.c **** 	USART_HardwareFlowControl_None;
 149:../../source/src/kernel/OS_CPU/bsp/bsp_usart.c **** 
 150:../../source/src/kernel/OS_CPU/bsp/bsp_usart.c **** 	USART_InitStructure.USART_Mode = USART_Mode_Rx | USART_Mode_Tx;
ARM GAS  G:\Users\Jaxb\AppData\Local\Temp\ccfTfaEf.s 			page 9


 307              		.loc 1 150 0
 308 014c 0C23     		movs	r3, #12
 309 014e FB81     		strh	r3, [r7, #14]	@ movhi
 151:../../source/src/kernel/OS_CPU/bsp/bsp_usart.c **** 
 152:../../source/src/kernel/OS_CPU/bsp/bsp_usart.c **** 	USART_Init(USART2, &USART_InitStructure);
 310              		.loc 1 152 0
 311 0150 3B1D     		adds	r3, r7, #4
 312 0152 1946     		mov	r1, r3
 313 0154 0A48     		ldr	r0, .L7+4
 314 0156 FFF7FEFF 		bl	USART_Init
 153:../../source/src/kernel/OS_CPU/bsp/bsp_usart.c **** 	
 154:../../source/src/kernel/OS_CPU/bsp/bsp_usart.c **** 
 155:../../source/src/kernel/OS_CPU/bsp/bsp_usart.c **** 	NVIC2_Configuration();
 315              		.loc 1 155 0
 316 015a FFF7B3FF 		bl	NVIC2_Configuration
 156:../../source/src/kernel/OS_CPU/bsp/bsp_usart.c **** 	
 157:../../source/src/kernel/OS_CPU/bsp/bsp_usart.c **** 
 158:../../source/src/kernel/OS_CPU/bsp/bsp_usart.c **** 	USART_ITConfig(USART2, USART_IT_RXNE, ENABLE);	
 317              		.loc 1 158 0
 318 015e 0122     		movs	r2, #1
 319 0160 40F22551 		movw	r1, #1317
 320 0164 0648     		ldr	r0, .L7+4
 321 0166 FFF7FEFF 		bl	USART_ITConfig
 159:../../source/src/kernel/OS_CPU/bsp/bsp_usart.c **** 	
 160:../../source/src/kernel/OS_CPU/bsp/bsp_usart.c **** 
 161:../../source/src/kernel/OS_CPU/bsp/bsp_usart.c **** 	USART_Cmd(USART2, ENABLE);	    
 322              		.loc 1 161 0
 323 016a 0121     		movs	r1, #1
 324 016c 0448     		ldr	r0, .L7+4
 325 016e FFF7FEFF 		bl	USART_Cmd
 162:../../source/src/kernel/OS_CPU/bsp/bsp_usart.c **** }
 326              		.loc 1 162 0
 327 0172 00BF     		nop
 328 0174 1837     		adds	r7, r7, #24
 329              	.LCFI18:
 330              		.cfi_def_cfa_offset 8
 331 0176 BD46     		mov	sp, r7
 332              	.LCFI19:
 333              		.cfi_def_cfa_register 13
 334              		@ sp needed
 335 0178 80BD     		pop	{r7, pc}
 336              	.L8:
 337 017a 00BF     		.align	2
 338              	.L7:
 339 017c 00080140 		.word	1073809408
 340 0180 00440040 		.word	1073759232
 341              		.cfi_endproc
 342              	.LFE32:
 343              		.size	USART2_Config, .-USART2_Config
 344              		.align	1
 345              		.global	Usart_SendByte
 346              		.syntax unified
 347              		.thumb
 348              		.thumb_func
 349              		.fpu softvfp
 350              		.type	Usart_SendByte, %function
 351              	Usart_SendByte:
ARM GAS  G:\Users\Jaxb\AppData\Local\Temp\ccfTfaEf.s 			page 10


 352              	.LFB33:
 163:../../source/src/kernel/OS_CPU/bsp/bsp_usart.c **** 
 164:../../source/src/kernel/OS_CPU/bsp/bsp_usart.c **** 
 165:../../source/src/kernel/OS_CPU/bsp/bsp_usart.c **** /*****************  发送一个字节 **********************/
 166:../../source/src/kernel/OS_CPU/bsp/bsp_usart.c **** void Usart_SendByte( USART_TypeDef * pUSARTx, uint8_t ch)
 167:../../source/src/kernel/OS_CPU/bsp/bsp_usart.c **** {
 353              		.loc 1 167 0
 354              		.cfi_startproc
 355              		@ args = 0, pretend = 0, frame = 8
 356              		@ frame_needed = 1, uses_anonymous_args = 0
 357 0184 80B5     		push	{r7, lr}
 358              	.LCFI20:
 359              		.cfi_def_cfa_offset 8
 360              		.cfi_offset 7, -8
 361              		.cfi_offset 14, -4
 362 0186 82B0     		sub	sp, sp, #8
 363              	.LCFI21:
 364              		.cfi_def_cfa_offset 16
 365 0188 00AF     		add	r7, sp, #0
 366              	.LCFI22:
 367              		.cfi_def_cfa_register 7
 368 018a 7860     		str	r0, [r7, #4]
 369 018c 0B46     		mov	r3, r1
 370 018e FB70     		strb	r3, [r7, #3]
 168:../../source/src/kernel/OS_CPU/bsp/bsp_usart.c **** 	/* 发送一个字节数据到USART */
 169:../../source/src/kernel/OS_CPU/bsp/bsp_usart.c **** 	USART_SendData(pUSARTx,ch);
 371              		.loc 1 169 0
 372 0190 FB78     		ldrb	r3, [r7, #3]	@ zero_extendqisi2
 373 0192 9BB2     		uxth	r3, r3
 374 0194 1946     		mov	r1, r3
 375 0196 7868     		ldr	r0, [r7, #4]
 376 0198 FFF7FEFF 		bl	USART_SendData
 170:../../source/src/kernel/OS_CPU/bsp/bsp_usart.c **** 		
 171:../../source/src/kernel/OS_CPU/bsp/bsp_usart.c **** 	/* 等待发送数据寄存器为空 */
 172:../../source/src/kernel/OS_CPU/bsp/bsp_usart.c **** 	while (USART_GetFlagStatus(pUSARTx, USART_FLAG_TXE) == RESET);	
 377              		.loc 1 172 0
 378 019c 00BF     		nop
 379              	.L10:
 380              		.loc 1 172 0 is_stmt 0 discriminator 1
 381 019e 8021     		movs	r1, #128
 382 01a0 7868     		ldr	r0, [r7, #4]
 383 01a2 FFF7FEFF 		bl	USART_GetFlagStatus
 384 01a6 0346     		mov	r3, r0
 385 01a8 002B     		cmp	r3, #0
 386 01aa F8D0     		beq	.L10
 173:../../source/src/kernel/OS_CPU/bsp/bsp_usart.c **** }
 387              		.loc 1 173 0 is_stmt 1
 388 01ac 00BF     		nop
 389 01ae 0837     		adds	r7, r7, #8
 390              	.LCFI23:
 391              		.cfi_def_cfa_offset 8
 392 01b0 BD46     		mov	sp, r7
 393              	.LCFI24:
 394              		.cfi_def_cfa_register 13
 395              		@ sp needed
 396 01b2 80BD     		pop	{r7, pc}
 397              		.cfi_endproc
ARM GAS  G:\Users\Jaxb\AppData\Local\Temp\ccfTfaEf.s 			page 11


 398              	.LFE33:
 399              		.size	Usart_SendByte, .-Usart_SendByte
 400              		.align	1
 401              		.global	Usart_SendArray
 402              		.syntax unified
 403              		.thumb
 404              		.thumb_func
 405              		.fpu softvfp
 406              		.type	Usart_SendArray, %function
 407              	Usart_SendArray:
 408              	.LFB34:
 174:../../source/src/kernel/OS_CPU/bsp/bsp_usart.c **** 
 175:../../source/src/kernel/OS_CPU/bsp/bsp_usart.c **** /****************** 发送8位的数组 ************************/
 176:../../source/src/kernel/OS_CPU/bsp/bsp_usart.c **** void Usart_SendArray( USART_TypeDef * pUSARTx, uint8_t *array, uint16_t num)
 177:../../source/src/kernel/OS_CPU/bsp/bsp_usart.c **** {
 409              		.loc 1 177 0
 410              		.cfi_startproc
 411              		@ args = 0, pretend = 0, frame = 24
 412              		@ frame_needed = 1, uses_anonymous_args = 0
 413 01b4 80B5     		push	{r7, lr}
 414              	.LCFI25:
 415              		.cfi_def_cfa_offset 8
 416              		.cfi_offset 7, -8
 417              		.cfi_offset 14, -4
 418 01b6 86B0     		sub	sp, sp, #24
 419              	.LCFI26:
 420              		.cfi_def_cfa_offset 32
 421 01b8 00AF     		add	r7, sp, #0
 422              	.LCFI27:
 423              		.cfi_def_cfa_register 7
 424 01ba F860     		str	r0, [r7, #12]
 425 01bc B960     		str	r1, [r7, #8]
 426 01be 1346     		mov	r3, r2
 427 01c0 FB80     		strh	r3, [r7, #6]	@ movhi
 178:../../source/src/kernel/OS_CPU/bsp/bsp_usart.c ****   uint8_t i;
 179:../../source/src/kernel/OS_CPU/bsp/bsp_usart.c **** 	
 180:../../source/src/kernel/OS_CPU/bsp/bsp_usart.c **** 	for(i=0; i<num; i++)
 428              		.loc 1 180 0
 429 01c2 0023     		movs	r3, #0
 430 01c4 FB75     		strb	r3, [r7, #23]
 431 01c6 0AE0     		b	.L12
 432              	.L13:
 181:../../source/src/kernel/OS_CPU/bsp/bsp_usart.c ****   {
 182:../../source/src/kernel/OS_CPU/bsp/bsp_usart.c **** 	    /* 发送一个字节数据到USART */
 183:../../source/src/kernel/OS_CPU/bsp/bsp_usart.c **** 	    Usart_SendByte(pUSARTx,array[i]);	
 433              		.loc 1 183 0 discriminator 3
 434 01c8 FB7D     		ldrb	r3, [r7, #23]	@ zero_extendqisi2
 435 01ca BA68     		ldr	r2, [r7, #8]
 436 01cc 1344     		add	r3, r3, r2
 437 01ce 1B78     		ldrb	r3, [r3]	@ zero_extendqisi2
 438 01d0 1946     		mov	r1, r3
 439 01d2 F868     		ldr	r0, [r7, #12]
 440 01d4 FFF7FEFF 		bl	Usart_SendByte
 180:../../source/src/kernel/OS_CPU/bsp/bsp_usart.c ****   {
 441              		.loc 1 180 0 discriminator 3
 442 01d8 FB7D     		ldrb	r3, [r7, #23]	@ zero_extendqisi2
 443 01da 0133     		adds	r3, r3, #1
ARM GAS  G:\Users\Jaxb\AppData\Local\Temp\ccfTfaEf.s 			page 12


 444 01dc FB75     		strb	r3, [r7, #23]
 445              	.L12:
 180:../../source/src/kernel/OS_CPU/bsp/bsp_usart.c ****   {
 446              		.loc 1 180 0 is_stmt 0 discriminator 1
 447 01de FB7D     		ldrb	r3, [r7, #23]	@ zero_extendqisi2
 448 01e0 9BB2     		uxth	r3, r3
 449 01e2 FA88     		ldrh	r2, [r7, #6]
 450 01e4 9A42     		cmp	r2, r3
 451 01e6 EFD8     		bhi	.L13
 184:../../source/src/kernel/OS_CPU/bsp/bsp_usart.c ****   
 185:../../source/src/kernel/OS_CPU/bsp/bsp_usart.c ****   }
 186:../../source/src/kernel/OS_CPU/bsp/bsp_usart.c **** 	/* 等待发送完成 */
 187:../../source/src/kernel/OS_CPU/bsp/bsp_usart.c **** 	while(USART_GetFlagStatus(pUSARTx,USART_FLAG_TC)==RESET);
 452              		.loc 1 187 0 is_stmt 1
 453 01e8 00BF     		nop
 454              	.L14:
 455              		.loc 1 187 0 is_stmt 0 discriminator 1
 456 01ea 4021     		movs	r1, #64
 457 01ec F868     		ldr	r0, [r7, #12]
 458 01ee FFF7FEFF 		bl	USART_GetFlagStatus
 459 01f2 0346     		mov	r3, r0
 460 01f4 002B     		cmp	r3, #0
 461 01f6 F8D0     		beq	.L14
 188:../../source/src/kernel/OS_CPU/bsp/bsp_usart.c **** }
 462              		.loc 1 188 0 is_stmt 1
 463 01f8 00BF     		nop
 464 01fa 1837     		adds	r7, r7, #24
 465              	.LCFI28:
 466              		.cfi_def_cfa_offset 8
 467 01fc BD46     		mov	sp, r7
 468              	.LCFI29:
 469              		.cfi_def_cfa_register 13
 470              		@ sp needed
 471 01fe 80BD     		pop	{r7, pc}
 472              		.cfi_endproc
 473              	.LFE34:
 474              		.size	Usart_SendArray, .-Usart_SendArray
 475              		.align	1
 476              		.global	Usart_SendString
 477              		.syntax unified
 478              		.thumb
 479              		.thumb_func
 480              		.fpu softvfp
 481              		.type	Usart_SendString, %function
 482              	Usart_SendString:
 483              	.LFB35:
 189:../../source/src/kernel/OS_CPU/bsp/bsp_usart.c **** 
 190:../../source/src/kernel/OS_CPU/bsp/bsp_usart.c **** /*****************  发送字符串 **********************/
 191:../../source/src/kernel/OS_CPU/bsp/bsp_usart.c **** void Usart_SendString( USART_TypeDef * pUSARTx, char *str)
 192:../../source/src/kernel/OS_CPU/bsp/bsp_usart.c **** {
 484              		.loc 1 192 0
 485              		.cfi_startproc
 486              		@ args = 0, pretend = 0, frame = 16
 487              		@ frame_needed = 1, uses_anonymous_args = 0
 488 0200 80B5     		push	{r7, lr}
 489              	.LCFI30:
 490              		.cfi_def_cfa_offset 8
ARM GAS  G:\Users\Jaxb\AppData\Local\Temp\ccfTfaEf.s 			page 13


 491              		.cfi_offset 7, -8
 492              		.cfi_offset 14, -4
 493 0202 84B0     		sub	sp, sp, #16
 494              	.LCFI31:
 495              		.cfi_def_cfa_offset 24
 496 0204 00AF     		add	r7, sp, #0
 497              	.LCFI32:
 498              		.cfi_def_cfa_register 7
 499 0206 7860     		str	r0, [r7, #4]
 500 0208 3960     		str	r1, [r7]
 193:../../source/src/kernel/OS_CPU/bsp/bsp_usart.c **** 	unsigned int k=0;
 501              		.loc 1 193 0
 502 020a 0023     		movs	r3, #0
 503 020c FB60     		str	r3, [r7, #12]
 504              	.L16:
 194:../../source/src/kernel/OS_CPU/bsp/bsp_usart.c ****   do 
 195:../../source/src/kernel/OS_CPU/bsp/bsp_usart.c ****   {
 196:../../source/src/kernel/OS_CPU/bsp/bsp_usart.c ****       Usart_SendByte( pUSARTx, *(str + k) );
 505              		.loc 1 196 0 discriminator 1
 506 020e 3A68     		ldr	r2, [r7]
 507 0210 FB68     		ldr	r3, [r7, #12]
 508 0212 1344     		add	r3, r3, r2
 509 0214 1B78     		ldrb	r3, [r3]	@ zero_extendqisi2
 510 0216 1946     		mov	r1, r3
 511 0218 7868     		ldr	r0, [r7, #4]
 512 021a FFF7FEFF 		bl	Usart_SendByte
 197:../../source/src/kernel/OS_CPU/bsp/bsp_usart.c ****       k++;
 513              		.loc 1 197 0 discriminator 1
 514 021e FB68     		ldr	r3, [r7, #12]
 515 0220 0133     		adds	r3, r3, #1
 516 0222 FB60     		str	r3, [r7, #12]
 198:../../source/src/kernel/OS_CPU/bsp/bsp_usart.c ****   } while(*(str + k)!='\0');
 517              		.loc 1 198 0 discriminator 1
 518 0224 3A68     		ldr	r2, [r7]
 519 0226 FB68     		ldr	r3, [r7, #12]
 520 0228 1344     		add	r3, r3, r2
 521 022a 1B78     		ldrb	r3, [r3]	@ zero_extendqisi2
 522 022c 002B     		cmp	r3, #0
 523 022e EED1     		bne	.L16
 199:../../source/src/kernel/OS_CPU/bsp/bsp_usart.c ****   
 200:../../source/src/kernel/OS_CPU/bsp/bsp_usart.c ****   /* 等待发送完成 */
 201:../../source/src/kernel/OS_CPU/bsp/bsp_usart.c ****   while(USART_GetFlagStatus(pUSARTx,USART_FLAG_TC)==RESET)
 524              		.loc 1 201 0
 525 0230 00BF     		nop
 526              	.L17:
 527              		.loc 1 201 0 is_stmt 0 discriminator 1
 528 0232 4021     		movs	r1, #64
 529 0234 7868     		ldr	r0, [r7, #4]
 530 0236 FFF7FEFF 		bl	USART_GetFlagStatus
 531 023a 0346     		mov	r3, r0
 532 023c 002B     		cmp	r3, #0
 533 023e F8D0     		beq	.L17
 202:../../source/src/kernel/OS_CPU/bsp/bsp_usart.c ****   {}
 203:../../source/src/kernel/OS_CPU/bsp/bsp_usart.c **** }
 534              		.loc 1 203 0 is_stmt 1
 535 0240 00BF     		nop
 536 0242 1037     		adds	r7, r7, #16
ARM GAS  G:\Users\Jaxb\AppData\Local\Temp\ccfTfaEf.s 			page 14


 537              	.LCFI33:
 538              		.cfi_def_cfa_offset 8
 539 0244 BD46     		mov	sp, r7
 540              	.LCFI34:
 541              		.cfi_def_cfa_register 13
 542              		@ sp needed
 543 0246 80BD     		pop	{r7, pc}
 544              		.cfi_endproc
 545              	.LFE35:
 546              		.size	Usart_SendString, .-Usart_SendString
 547              		.align	1
 548              		.global	Usart_SendHalfWord
 549              		.syntax unified
 550              		.thumb
 551              		.thumb_func
 552              		.fpu softvfp
 553              		.type	Usart_SendHalfWord, %function
 554              	Usart_SendHalfWord:
 555              	.LFB36:
 204:../../source/src/kernel/OS_CPU/bsp/bsp_usart.c **** 
 205:../../source/src/kernel/OS_CPU/bsp/bsp_usart.c **** /*****************  发送一个16位数 **********************/
 206:../../source/src/kernel/OS_CPU/bsp/bsp_usart.c **** void Usart_SendHalfWord( USART_TypeDef * pUSARTx, uint16_t ch)
 207:../../source/src/kernel/OS_CPU/bsp/bsp_usart.c **** {
 556              		.loc 1 207 0
 557              		.cfi_startproc
 558              		@ args = 0, pretend = 0, frame = 16
 559              		@ frame_needed = 1, uses_anonymous_args = 0
 560 0248 80B5     		push	{r7, lr}
 561              	.LCFI35:
 562              		.cfi_def_cfa_offset 8
 563              		.cfi_offset 7, -8
 564              		.cfi_offset 14, -4
 565 024a 84B0     		sub	sp, sp, #16
 566              	.LCFI36:
 567              		.cfi_def_cfa_offset 24
 568 024c 00AF     		add	r7, sp, #0
 569              	.LCFI37:
 570              		.cfi_def_cfa_register 7
 571 024e 7860     		str	r0, [r7, #4]
 572 0250 0B46     		mov	r3, r1
 573 0252 7B80     		strh	r3, [r7, #2]	@ movhi
 208:../../source/src/kernel/OS_CPU/bsp/bsp_usart.c **** 	uint8_t temp_h, temp_l;
 209:../../source/src/kernel/OS_CPU/bsp/bsp_usart.c **** 	
 210:../../source/src/kernel/OS_CPU/bsp/bsp_usart.c **** 	/* 取出高八位 */
 211:../../source/src/kernel/OS_CPU/bsp/bsp_usart.c **** 	temp_h = (ch&0XFF00)>>8;
 574              		.loc 1 211 0
 575 0254 7B88     		ldrh	r3, [r7, #2]
 576 0256 1B0A     		lsrs	r3, r3, #8
 577 0258 9BB2     		uxth	r3, r3
 578 025a FB73     		strb	r3, [r7, #15]
 212:../../source/src/kernel/OS_CPU/bsp/bsp_usart.c **** 	/* 取出低八位 */
 213:../../source/src/kernel/OS_CPU/bsp/bsp_usart.c **** 	temp_l = ch&0XFF;
 579              		.loc 1 213 0
 580 025c 7B88     		ldrh	r3, [r7, #2]	@ movhi
 581 025e BB73     		strb	r3, [r7, #14]
 214:../../source/src/kernel/OS_CPU/bsp/bsp_usart.c **** 	
 215:../../source/src/kernel/OS_CPU/bsp/bsp_usart.c **** 	/* 发送高八位 */
ARM GAS  G:\Users\Jaxb\AppData\Local\Temp\ccfTfaEf.s 			page 15


 216:../../source/src/kernel/OS_CPU/bsp/bsp_usart.c **** 	USART_SendData(pUSARTx,temp_h);	
 582              		.loc 1 216 0
 583 0260 FB7B     		ldrb	r3, [r7, #15]	@ zero_extendqisi2
 584 0262 9BB2     		uxth	r3, r3
 585 0264 1946     		mov	r1, r3
 586 0266 7868     		ldr	r0, [r7, #4]
 587 0268 FFF7FEFF 		bl	USART_SendData
 217:../../source/src/kernel/OS_CPU/bsp/bsp_usart.c **** 	while (USART_GetFlagStatus(pUSARTx, USART_FLAG_TXE) == RESET);
 588              		.loc 1 217 0
 589 026c 00BF     		nop
 590              	.L19:
 591              		.loc 1 217 0 is_stmt 0 discriminator 1
 592 026e 8021     		movs	r1, #128
 593 0270 7868     		ldr	r0, [r7, #4]
 594 0272 FFF7FEFF 		bl	USART_GetFlagStatus
 595 0276 0346     		mov	r3, r0
 596 0278 002B     		cmp	r3, #0
 597 027a F8D0     		beq	.L19
 218:../../source/src/kernel/OS_CPU/bsp/bsp_usart.c **** 	
 219:../../source/src/kernel/OS_CPU/bsp/bsp_usart.c **** 	/* 发送低八位 */
 220:../../source/src/kernel/OS_CPU/bsp/bsp_usart.c **** 	USART_SendData(pUSARTx,temp_l);	
 598              		.loc 1 220 0 is_stmt 1
 599 027c BB7B     		ldrb	r3, [r7, #14]	@ zero_extendqisi2
 600 027e 9BB2     		uxth	r3, r3
 601 0280 1946     		mov	r1, r3
 602 0282 7868     		ldr	r0, [r7, #4]
 603 0284 FFF7FEFF 		bl	USART_SendData
 221:../../source/src/kernel/OS_CPU/bsp/bsp_usart.c **** 	while (USART_GetFlagStatus(pUSARTx, USART_FLAG_TXE) == RESET);	
 604              		.loc 1 221 0
 605 0288 00BF     		nop
 606              	.L20:
 607              		.loc 1 221 0 is_stmt 0 discriminator 1
 608 028a 8021     		movs	r1, #128
 609 028c 7868     		ldr	r0, [r7, #4]
 610 028e FFF7FEFF 		bl	USART_GetFlagStatus
 611 0292 0346     		mov	r3, r0
 612 0294 002B     		cmp	r3, #0
 613 0296 F8D0     		beq	.L20
 222:../../source/src/kernel/OS_CPU/bsp/bsp_usart.c **** }
 614              		.loc 1 222 0 is_stmt 1
 615 0298 00BF     		nop
 616 029a 1037     		adds	r7, r7, #16
 617              	.LCFI38:
 618              		.cfi_def_cfa_offset 8
 619 029c BD46     		mov	sp, r7
 620              	.LCFI39:
 621              		.cfi_def_cfa_register 13
 622              		@ sp needed
 623 029e 80BD     		pop	{r7, pc}
 624              		.cfi_endproc
 625              	.LFE36:
 626              		.size	Usart_SendHalfWord, .-Usart_SendHalfWord
 627              	.Letext0:
 628              		.file 2 "f:\\arm\\gcc2018\\arm-none-eabi\\include\\machine\\_default_types.h"
 629              		.file 3 "f:\\arm\\gcc2018\\arm-none-eabi\\include\\sys\\_stdint.h"
 630              		.file 4 "../../source/include/core_cm3.h"
 631              		.file 5 "../../source/include/system_stm32f10x.h"
ARM GAS  G:\Users\Jaxb\AppData\Local\Temp\ccfTfaEf.s 			page 16


 632              		.file 6 "../../source/include/stm32f10x.h"
 633              		.file 7 "../../source/src/FWlib/inc/stm32f10x_gpio.h"
 634              		.file 8 "../../source/src/FWlib/inc/stm32f10x_usart.h"
 635              		.file 9 "../../source/src/FWlib/inc/misc.h"
 636              		.section	.debug_info,"",%progbits
 637              	.Ldebug_info0:
 638 0000 7A070000 		.4byte	0x77a
 639 0004 0200     		.2byte	0x2
 640 0006 00000000 		.4byte	.Ldebug_abbrev0
 641 000a 04       		.byte	0x4
 642 000b 01       		.uleb128 0x1
 643 000c 9C030000 		.4byte	.LASF144
 644 0010 0C       		.byte	0xc
 645 0011 72070000 		.4byte	.LASF145
 646 0015 4C000000 		.4byte	.LASF146
 647 0019 00000000 		.4byte	.Ltext0
 648 001d A0020000 		.4byte	.Letext0
 649 0021 00000000 		.4byte	.Ldebug_line0
 650 0025 02       		.uleb128 0x2
 651 0026 3D050000 		.4byte	.LASF147
 652 002a 05       		.byte	0x5
 653 002b 01       		.byte	0x1
 654 002c CF010000 		.4byte	0x1cf
 655 0030 06       		.byte	0x6
 656 0031 A7       		.byte	0xa7
 657 0032 CF010000 		.4byte	0x1cf
 658 0036 03       		.uleb128 0x3
 659 0037 28060000 		.4byte	.LASF0
 660 003b 72       		.sleb128 -14
 661 003c 03       		.uleb128 0x3
 662 003d 3E010000 		.4byte	.LASF1
 663 0041 74       		.sleb128 -12
 664 0042 03       		.uleb128 0x3
 665 0043 42040000 		.4byte	.LASF2
 666 0047 75       		.sleb128 -11
 667 0048 03       		.uleb128 0x3
 668 0049 E2060000 		.4byte	.LASF3
 669 004d 76       		.sleb128 -10
 670 004e 03       		.uleb128 0x3
 671 004f 56070000 		.4byte	.LASF4
 672 0053 7B       		.sleb128 -5
 673 0054 03       		.uleb128 0x3
 674 0055 D0060000 		.4byte	.LASF5
 675 0059 7C       		.sleb128 -4
 676 005a 03       		.uleb128 0x3
 677 005b 19010000 		.4byte	.LASF6
 678 005f 7E       		.sleb128 -2
 679 0060 03       		.uleb128 0x3
 680 0061 A0060000 		.4byte	.LASF7
 681 0065 7F       		.sleb128 -1
 682 0066 04       		.uleb128 0x4
 683 0067 82030000 		.4byte	.LASF8
 684 006b 00       		.byte	0
 685 006c 04       		.uleb128 0x4
 686 006d A7040000 		.4byte	.LASF9
 687 0071 01       		.byte	0x1
 688 0072 04       		.uleb128 0x4
ARM GAS  G:\Users\Jaxb\AppData\Local\Temp\ccfTfaEf.s 			page 17


 689 0073 CC080000 		.4byte	.LASF10
 690 0077 02       		.byte	0x2
 691 0078 04       		.uleb128 0x4
 692 0079 7F050000 		.4byte	.LASF11
 693 007d 03       		.byte	0x3
 694 007e 04       		.uleb128 0x4
 695 007f D4000000 		.4byte	.LASF12
 696 0083 04       		.byte	0x4
 697 0084 04       		.uleb128 0x4
 698 0085 30010000 		.4byte	.LASF13
 699 0089 05       		.byte	0x5
 700 008a 04       		.uleb128 0x4
 701 008b DF000000 		.4byte	.LASF14
 702 008f 06       		.byte	0x6
 703 0090 04       		.uleb128 0x4
 704 0091 69060000 		.4byte	.LASF15
 705 0095 07       		.byte	0x7
 706 0096 04       		.uleb128 0x4
 707 0097 A8020000 		.4byte	.LASF16
 708 009b 08       		.byte	0x8
 709 009c 04       		.uleb128 0x4
 710 009d 49080000 		.4byte	.LASF17
 711 00a1 09       		.byte	0x9
 712 00a2 04       		.uleb128 0x4
 713 00a3 6B040000 		.4byte	.LASF18
 714 00a7 0A       		.byte	0xa
 715 00a8 04       		.uleb128 0x4
 716 00a9 3F030000 		.4byte	.LASF19
 717 00ad 0B       		.byte	0xb
 718 00ae 04       		.uleb128 0x4
 719 00af A4000000 		.4byte	.LASF20
 720 00b3 0C       		.byte	0xc
 721 00b4 04       		.uleb128 0x4
 722 00b5 DD040000 		.4byte	.LASF21
 723 00b9 0D       		.byte	0xd
 724 00ba 04       		.uleb128 0x4
 725 00bb C6010000 		.4byte	.LASF22
 726 00bf 0E       		.byte	0xe
 727 00c0 04       		.uleb128 0x4
 728 00c1 DA070000 		.4byte	.LASF23
 729 00c5 0F       		.byte	0xf
 730 00c6 04       		.uleb128 0x4
 731 00c7 FC020000 		.4byte	.LASF24
 732 00cb 10       		.byte	0x10
 733 00cc 04       		.uleb128 0x4
 734 00cd 7A000000 		.4byte	.LASF25
 735 00d1 11       		.byte	0x11
 736 00d2 04       		.uleb128 0x4
 737 00d3 8B080000 		.4byte	.LASF26
 738 00d7 12       		.byte	0x12
 739 00d8 04       		.uleb128 0x4
 740 00d9 3C020000 		.4byte	.LASF27
 741 00dd 13       		.byte	0x13
 742 00de 04       		.uleb128 0x4
 743 00df 00000000 		.4byte	.LASF28
 744 00e3 14       		.byte	0x14
 745 00e4 04       		.uleb128 0x4
ARM GAS  G:\Users\Jaxb\AppData\Local\Temp\ccfTfaEf.s 			page 18


 746 00e5 01020000 		.4byte	.LASF29
 747 00e9 15       		.byte	0x15
 748 00ea 04       		.uleb128 0x4
 749 00eb 3E000000 		.4byte	.LASF30
 750 00ef 16       		.byte	0x16
 751 00f0 04       		.uleb128 0x4
 752 00f1 49070000 		.4byte	.LASF31
 753 00f5 17       		.byte	0x17
 754 00f6 04       		.uleb128 0x4
 755 00f7 93010000 		.4byte	.LASF32
 756 00fb 18       		.byte	0x18
 757 00fc 04       		.uleb128 0x4
 758 00fd 42050000 		.4byte	.LASF33
 759 0101 19       		.byte	0x19
 760 0102 04       		.uleb128 0x4
 761 0103 74060000 		.4byte	.LASF34
 762 0107 1A       		.byte	0x1a
 763 0108 04       		.uleb128 0x4
 764 0109 45060000 		.4byte	.LASF35
 765 010d 1B       		.byte	0x1b
 766 010e 04       		.uleb128 0x4
 767 010f C6060000 		.4byte	.LASF36
 768 0113 1C       		.byte	0x1c
 769 0114 04       		.uleb128 0x4
 770 0115 35030000 		.4byte	.LASF37
 771 0119 1D       		.byte	0x1d
 772 011a 04       		.uleb128 0x4
 773 011b 9A000000 		.4byte	.LASF38
 774 011f 1E       		.byte	0x1e
 775 0120 04       		.uleb128 0x4
 776 0121 12050000 		.4byte	.LASF39
 777 0125 1F       		.byte	0x1f
 778 0126 04       		.uleb128 0x4
 779 0127 93060000 		.4byte	.LASF40
 780 012b 20       		.byte	0x20
 781 012c 04       		.uleb128 0x4
 782 012d B3020000 		.4byte	.LASF41
 783 0131 21       		.byte	0x21
 784 0132 04       		.uleb128 0x4
 785 0133 8D000000 		.4byte	.LASF42
 786 0137 22       		.byte	0x22
 787 0138 04       		.uleb128 0x4
 788 0139 B2010000 		.4byte	.LASF43
 789 013d 23       		.byte	0x23
 790 013e 04       		.uleb128 0x4
 791 013f C6070000 		.4byte	.LASF44
 792 0143 24       		.byte	0x24
 793 0144 04       		.uleb128 0x4
 794 0145 04060000 		.4byte	.LASF45
 795 0149 25       		.byte	0x25
 796 014a 04       		.uleb128 0x4
 797 014b 50020000 		.4byte	.LASF46
 798 014f 26       		.byte	0x26
 799 0150 04       		.uleb128 0x4
 800 0151 C0080000 		.4byte	.LASF47
 801 0155 27       		.byte	0x27
 802 0156 04       		.uleb128 0x4
ARM GAS  G:\Users\Jaxb\AppData\Local\Temp\ccfTfaEf.s 			page 19


 803 0157 FB000000 		.4byte	.LASF48
 804 015b 28       		.byte	0x28
 805 015c 04       		.uleb128 0x4
 806 015d DD080000 		.4byte	.LASF49
 807 0161 29       		.byte	0x29
 808 0162 04       		.uleb128 0x4
 809 0163 65030000 		.4byte	.LASF50
 810 0167 2A       		.byte	0x2a
 811 0168 04       		.uleb128 0x4
 812 0169 28080000 		.4byte	.LASF51
 813 016d 2B       		.byte	0x2b
 814 016e 04       		.uleb128 0x4
 815 016f 60050000 		.4byte	.LASF52
 816 0173 2C       		.byte	0x2c
 817 0174 04       		.uleb128 0x4
 818 0175 F0040000 		.4byte	.LASF53
 819 0179 2D       		.byte	0x2d
 820 017a 04       		.uleb128 0x4
 821 017b 52060000 		.4byte	.LASF54
 822 017f 2E       		.byte	0x2e
 823 0180 04       		.uleb128 0x4
 824 0181 9D040000 		.4byte	.LASF55
 825 0185 2F       		.byte	0x2f
 826 0186 04       		.uleb128 0x4
 827 0187 5F060000 		.4byte	.LASF56
 828 018b 30       		.byte	0x30
 829 018c 04       		.uleb128 0x4
 830 018d 2A000000 		.4byte	.LASF57
 831 0191 31       		.byte	0x31
 832 0192 04       		.uleb128 0x4
 833 0193 D3040000 		.4byte	.LASF58
 834 0197 32       		.byte	0x32
 835 0198 04       		.uleb128 0x4
 836 0199 D4020000 		.4byte	.LASF59
 837 019d 33       		.byte	0x33
 838 019e 04       		.uleb128 0x4
 839 019f 25010000 		.4byte	.LASF60
 840 01a3 34       		.byte	0x34
 841 01a4 04       		.uleb128 0x4
 842 01a5 10060000 		.4byte	.LASF61
 843 01a9 35       		.byte	0x35
 844 01aa 04       		.uleb128 0x4
 845 01ab BC010000 		.4byte	.LASF62
 846 01af 36       		.byte	0x36
 847 01b0 04       		.uleb128 0x4
 848 01b1 D0070000 		.4byte	.LASF63
 849 01b5 37       		.byte	0x37
 850 01b6 04       		.uleb128 0x4
 851 01b7 22030000 		.4byte	.LASF64
 852 01bb 38       		.byte	0x38
 853 01bc 04       		.uleb128 0x4
 854 01bd 97080000 		.4byte	.LASF65
 855 01c1 39       		.byte	0x39
 856 01c2 04       		.uleb128 0x4
 857 01c3 C0040000 		.4byte	.LASF66
 858 01c7 3A       		.byte	0x3a
 859 01c8 04       		.uleb128 0x4
ARM GAS  G:\Users\Jaxb\AppData\Local\Temp\ccfTfaEf.s 			page 20


 860 01c9 76080000 		.4byte	.LASF67
 861 01cd 3B       		.byte	0x3b
 862 01ce 00       		.byte	0
 863 01cf 05       		.uleb128 0x5
 864 01d0 01       		.byte	0x1
 865 01d1 06       		.byte	0x6
 866 01d2 1C080000 		.4byte	.LASF68
 867 01d6 06       		.uleb128 0x6
 868 01d7 07080000 		.4byte	.LASF71
 869 01db 02       		.byte	0x2
 870 01dc 2B       		.byte	0x2b
 871 01dd E1010000 		.4byte	0x1e1
 872 01e1 05       		.uleb128 0x5
 873 01e2 01       		.byte	0x1
 874 01e3 08       		.byte	0x8
 875 01e4 03070000 		.4byte	.LASF69
 876 01e8 05       		.uleb128 0x5
 877 01e9 02       		.byte	0x2
 878 01ea 05       		.byte	0x5
 879 01eb E1050000 		.4byte	.LASF70
 880 01ef 06       		.uleb128 0x6
 881 01f0 F6010000 		.4byte	.LASF72
 882 01f4 02       		.byte	0x2
 883 01f5 39       		.byte	0x39
 884 01f6 FA010000 		.4byte	0x1fa
 885 01fa 05       		.uleb128 0x5
 886 01fb 02       		.byte	0x2
 887 01fc 07       		.byte	0x7
 888 01fd 36080000 		.4byte	.LASF73
 889 0201 05       		.uleb128 0x5
 890 0202 04       		.byte	0x4
 891 0203 05       		.byte	0x5
 892 0204 FB050000 		.4byte	.LASF74
 893 0208 06       		.uleb128 0x6
 894 0209 1F070000 		.4byte	.LASF75
 895 020d 02       		.byte	0x2
 896 020e 4F       		.byte	0x4f
 897 020f 13020000 		.4byte	0x213
 898 0213 05       		.uleb128 0x5
 899 0214 04       		.byte	0x4
 900 0215 07       		.byte	0x7
 901 0216 B4060000 		.4byte	.LASF76
 902 021a 05       		.uleb128 0x5
 903 021b 08       		.byte	0x8
 904 021c 05       		.byte	0x5
 905 021d 74030000 		.4byte	.LASF77
 906 0221 05       		.uleb128 0x5
 907 0222 08       		.byte	0x8
 908 0223 07       		.byte	0x7
 909 0224 D9010000 		.4byte	.LASF78
 910 0228 07       		.uleb128 0x7
 911 0229 04       		.byte	0x4
 912 022a 05       		.byte	0x5
 913 022b 696E7400 		.ascii	"int\000"
 914 022f 08       		.uleb128 0x8
 915 0230 28020000 		.4byte	0x228
 916 0234 05       		.uleb128 0x5
ARM GAS  G:\Users\Jaxb\AppData\Local\Temp\ccfTfaEf.s 			page 21


 917 0235 04       		.byte	0x4
 918 0236 07       		.byte	0x7
 919 0237 B7000000 		.4byte	.LASF79
 920 023b 06       		.uleb128 0x6
 921 023c 5D030000 		.4byte	.LASF80
 922 0240 03       		.byte	0x3
 923 0241 18       		.byte	0x18
 924 0242 D6010000 		.4byte	0x1d6
 925 0246 06       		.uleb128 0x6
 926 0247 34050000 		.4byte	.LASF81
 927 024b 03       		.byte	0x3
 928 024c 24       		.byte	0x24
 929 024d EF010000 		.4byte	0x1ef
 930 0251 08       		.uleb128 0x8
 931 0252 46020000 		.4byte	0x246
 932 0256 06       		.uleb128 0x6
 933 0257 6D010000 		.4byte	.LASF82
 934 025b 03       		.byte	0x3
 935 025c 30       		.byte	0x30
 936 025d 08020000 		.4byte	0x208
 937 0261 08       		.uleb128 0x8
 938 0262 56020000 		.4byte	0x256
 939 0266 09       		.uleb128 0x9
 940 0267 1B060000 		.4byte	.LASF83
 941 026b 04       		.byte	0x4
 942 026c CE06     		.2byte	0x6ce
 943 026e 2F020000 		.4byte	0x22f
 944 0272 01       		.byte	0x1
 945 0273 01       		.byte	0x1
 946 0274 0A       		.uleb128 0xa
 947 0275 15000000 		.4byte	.LASF84
 948 0279 05       		.byte	0x5
 949 027a 35       		.byte	0x35
 950 027b 56020000 		.4byte	0x256
 951 027f 01       		.byte	0x1
 952 0280 01       		.byte	0x1
 953 0281 0B       		.uleb128 0xb
 954 0282 07       		.byte	0x7
 955 0283 01       		.byte	0x1
 956 0284 E1010000 		.4byte	0x1e1
 957 0288 06       		.byte	0x6
 958 0289 0702     		.2byte	0x207
 959 028b 9C020000 		.4byte	0x29c
 960 028f 04       		.uleb128 0x4
 961 0290 F0010000 		.4byte	.LASF85
 962 0294 00       		.byte	0
 963 0295 0C       		.uleb128 0xc
 964 0296 53455400 		.ascii	"SET\000"
 965 029a 01       		.byte	0x1
 966 029b 00       		.byte	0
 967 029c 0B       		.uleb128 0xb
 968 029d 07       		.byte	0x7
 969 029e 01       		.byte	0x1
 970 029f E1010000 		.4byte	0x1e1
 971 02a3 06       		.byte	0x6
 972 02a4 0902     		.2byte	0x209
 973 02a6 B7020000 		.4byte	0x2b7
ARM GAS  G:\Users\Jaxb\AppData\Local\Temp\ccfTfaEf.s 			page 22


 974 02aa 04       		.uleb128 0x4
 975 02ab DE020000 		.4byte	.LASF86
 976 02af 00       		.byte	0
 977 02b0 04       		.uleb128 0x4
 978 02b1 AD060000 		.4byte	.LASF87
 979 02b5 01       		.byte	0x1
 980 02b6 00       		.byte	0
 981 02b7 0D       		.uleb128 0xd
 982 02b8 C4000000 		.4byte	.LASF88
 983 02bc 06       		.byte	0x6
 984 02bd 0902     		.2byte	0x209
 985 02bf 9C020000 		.4byte	0x29c
 986 02c3 0E       		.uleb128 0xe
 987 02c4 1C       		.byte	0x1c
 988 02c5 06       		.byte	0x6
 989 02c6 E903     		.2byte	0x3e9
 990 02c8 36030000 		.4byte	0x336
 991 02cc 0F       		.uleb128 0xf
 992 02cd 43524C00 		.ascii	"CRL\000"
 993 02d1 06       		.byte	0x6
 994 02d2 EB03     		.2byte	0x3eb
 995 02d4 61020000 		.4byte	0x261
 996 02d8 02       		.byte	0x2
 997 02d9 23       		.byte	0x23
 998 02da 00       		.uleb128 0
 999 02db 0F       		.uleb128 0xf
 1000 02dc 43524800 		.ascii	"CRH\000"
 1001 02e0 06       		.byte	0x6
 1002 02e1 EC03     		.2byte	0x3ec
 1003 02e3 61020000 		.4byte	0x261
 1004 02e7 02       		.byte	0x2
 1005 02e8 23       		.byte	0x23
 1006 02e9 04       		.uleb128 0x4
 1007 02ea 0F       		.uleb128 0xf
 1008 02eb 49445200 		.ascii	"IDR\000"
 1009 02ef 06       		.byte	0x6
 1010 02f0 ED03     		.2byte	0x3ed
 1011 02f2 61020000 		.4byte	0x261
 1012 02f6 02       		.byte	0x2
 1013 02f7 23       		.byte	0x23
 1014 02f8 08       		.uleb128 0x8
 1015 02f9 0F       		.uleb128 0xf
 1016 02fa 4F445200 		.ascii	"ODR\000"
 1017 02fe 06       		.byte	0x6
 1018 02ff EE03     		.2byte	0x3ee
 1019 0301 61020000 		.4byte	0x261
 1020 0305 02       		.byte	0x2
 1021 0306 23       		.byte	0x23
 1022 0307 0C       		.uleb128 0xc
 1023 0308 10       		.uleb128 0x10
 1024 0309 25000000 		.4byte	.LASF89
 1025 030d 06       		.byte	0x6
 1026 030e EF03     		.2byte	0x3ef
 1027 0310 61020000 		.4byte	0x261
 1028 0314 02       		.byte	0x2
 1029 0315 23       		.byte	0x23
 1030 0316 10       		.uleb128 0x10
ARM GAS  G:\Users\Jaxb\AppData\Local\Temp\ccfTfaEf.s 			page 23


 1031 0317 0F       		.uleb128 0xf
 1032 0318 42525200 		.ascii	"BRR\000"
 1033 031c 06       		.byte	0x6
 1034 031d F003     		.2byte	0x3f0
 1035 031f 61020000 		.4byte	0x261
 1036 0323 02       		.byte	0x2
 1037 0324 23       		.byte	0x23
 1038 0325 14       		.uleb128 0x14
 1039 0326 10       		.uleb128 0x10
 1040 0327 D8080000 		.4byte	.LASF90
 1041 032b 06       		.byte	0x6
 1042 032c F103     		.2byte	0x3f1
 1043 032e 61020000 		.4byte	0x261
 1044 0332 02       		.byte	0x2
 1045 0333 23       		.byte	0x23
 1046 0334 18       		.uleb128 0x18
 1047 0335 00       		.byte	0
 1048 0336 0D       		.uleb128 0xd
 1049 0337 86060000 		.4byte	.LASF91
 1050 033b 06       		.byte	0x6
 1051 033c F203     		.2byte	0x3f2
 1052 033e C3020000 		.4byte	0x2c3
 1053 0342 0E       		.uleb128 0xe
 1054 0343 1C       		.byte	0x1c
 1055 0344 06       		.byte	0x6
 1056 0345 D204     		.2byte	0x4d2
 1057 0347 1C040000 		.4byte	0x41c
 1058 034b 0F       		.uleb128 0xf
 1059 034c 535200   		.ascii	"SR\000"
 1060 034f 06       		.byte	0x6
 1061 0350 D404     		.2byte	0x4d4
 1062 0352 51020000 		.4byte	0x251
 1063 0356 02       		.byte	0x2
 1064 0357 23       		.byte	0x23
 1065 0358 00       		.uleb128 0
 1066 0359 10       		.uleb128 0x10
 1067 035a 9B050000 		.4byte	.LASF92
 1068 035e 06       		.byte	0x6
 1069 035f D504     		.2byte	0x4d5
 1070 0361 46020000 		.4byte	0x246
 1071 0365 02       		.byte	0x2
 1072 0366 23       		.byte	0x23
 1073 0367 02       		.uleb128 0x2
 1074 0368 0F       		.uleb128 0xf
 1075 0369 445200   		.ascii	"DR\000"
 1076 036c 06       		.byte	0x6
 1077 036d D604     		.2byte	0x4d6
 1078 036f 51020000 		.4byte	0x251
 1079 0373 02       		.byte	0x2
 1080 0374 23       		.byte	0x23
 1081 0375 04       		.uleb128 0x4
 1082 0376 10       		.uleb128 0x10
 1083 0377 A5050000 		.4byte	.LASF93
 1084 037b 06       		.byte	0x6
 1085 037c D704     		.2byte	0x4d7
 1086 037e 46020000 		.4byte	0x246
 1087 0382 02       		.byte	0x2
ARM GAS  G:\Users\Jaxb\AppData\Local\Temp\ccfTfaEf.s 			page 24


 1088 0383 23       		.byte	0x23
 1089 0384 06       		.uleb128 0x6
 1090 0385 0F       		.uleb128 0xf
 1091 0386 42525200 		.ascii	"BRR\000"
 1092 038a 06       		.byte	0x6
 1093 038b D804     		.2byte	0x4d8
 1094 038d 51020000 		.4byte	0x251
 1095 0391 02       		.byte	0x2
 1096 0392 23       		.byte	0x23
 1097 0393 08       		.uleb128 0x8
 1098 0394 10       		.uleb128 0x10
 1099 0395 AF050000 		.4byte	.LASF94
 1100 0399 06       		.byte	0x6
 1101 039a D904     		.2byte	0x4d9
 1102 039c 46020000 		.4byte	0x246
 1103 03a0 02       		.byte	0x2
 1104 03a1 23       		.byte	0x23
 1105 03a2 0A       		.uleb128 0xa
 1106 03a3 0F       		.uleb128 0xf
 1107 03a4 43523100 		.ascii	"CR1\000"
 1108 03a8 06       		.byte	0x6
 1109 03a9 DA04     		.2byte	0x4da
 1110 03ab 51020000 		.4byte	0x251
 1111 03af 02       		.byte	0x2
 1112 03b0 23       		.byte	0x23
 1113 03b1 0C       		.uleb128 0xc
 1114 03b2 10       		.uleb128 0x10
 1115 03b3 B9050000 		.4byte	.LASF95
 1116 03b7 06       		.byte	0x6
 1117 03b8 DB04     		.2byte	0x4db
 1118 03ba 46020000 		.4byte	0x246
 1119 03be 02       		.byte	0x2
 1120 03bf 23       		.byte	0x23
 1121 03c0 0E       		.uleb128 0xe
 1122 03c1 0F       		.uleb128 0xf
 1123 03c2 43523200 		.ascii	"CR2\000"
 1124 03c6 06       		.byte	0x6
 1125 03c7 DC04     		.2byte	0x4dc
 1126 03c9 51020000 		.4byte	0x251
 1127 03cd 02       		.byte	0x2
 1128 03ce 23       		.byte	0x23
 1129 03cf 10       		.uleb128 0x10
 1130 03d0 10       		.uleb128 0x10
 1131 03d1 C3050000 		.4byte	.LASF96
 1132 03d5 06       		.byte	0x6
 1133 03d6 DD04     		.2byte	0x4dd
 1134 03d8 46020000 		.4byte	0x246
 1135 03dc 02       		.byte	0x2
 1136 03dd 23       		.byte	0x23
 1137 03de 12       		.uleb128 0x12
 1138 03df 0F       		.uleb128 0xf
 1139 03e0 43523300 		.ascii	"CR3\000"
 1140 03e4 06       		.byte	0x6
 1141 03e5 DE04     		.2byte	0x4de
 1142 03e7 51020000 		.4byte	0x251
 1143 03eb 02       		.byte	0x2
 1144 03ec 23       		.byte	0x23
ARM GAS  G:\Users\Jaxb\AppData\Local\Temp\ccfTfaEf.s 			page 25


 1145 03ed 14       		.uleb128 0x14
 1146 03ee 10       		.uleb128 0x10
 1147 03ef CD050000 		.4byte	.LASF97
 1148 03f3 06       		.byte	0x6
 1149 03f4 DF04     		.2byte	0x4df
 1150 03f6 46020000 		.4byte	0x246
 1151 03fa 02       		.byte	0x2
 1152 03fb 23       		.byte	0x23
 1153 03fc 16       		.uleb128 0x16
 1154 03fd 10       		.uleb128 0x10
 1155 03fe 39010000 		.4byte	.LASF98
 1156 0402 06       		.byte	0x6
 1157 0403 E004     		.2byte	0x4e0
 1158 0405 51020000 		.4byte	0x251
 1159 0409 02       		.byte	0x2
 1160 040a 23       		.byte	0x23
 1161 040b 18       		.uleb128 0x18
 1162 040c 10       		.uleb128 0x10
 1163 040d D7050000 		.4byte	.LASF99
 1164 0411 06       		.byte	0x6
 1165 0412 E104     		.2byte	0x4e1
 1166 0414 46020000 		.4byte	0x246
 1167 0418 02       		.byte	0x2
 1168 0419 23       		.byte	0x23
 1169 041a 1A       		.uleb128 0x1a
 1170 041b 00       		.byte	0
 1171 041c 0D       		.uleb128 0xd
 1172 041d 9A020000 		.4byte	.LASF100
 1173 0421 06       		.byte	0x6
 1174 0422 E204     		.2byte	0x4e2
 1175 0424 42030000 		.4byte	0x342
 1176 0428 11       		.uleb128 0x11
 1177 0429 07       		.byte	0x7
 1178 042a 01       		.byte	0x1
 1179 042b E1010000 		.4byte	0x1e1
 1180 042f 07       		.byte	0x7
 1181 0430 3B       		.byte	0x3b
 1182 0431 48040000 		.4byte	0x448
 1183 0435 04       		.uleb128 0x4
 1184 0436 4F050000 		.4byte	.LASF101
 1185 043a 01       		.byte	0x1
 1186 043b 04       		.uleb128 0x4
 1187 043c 62070000 		.4byte	.LASF102
 1188 0440 02       		.byte	0x2
 1189 0441 04       		.uleb128 0x4
 1190 0442 38070000 		.4byte	.LASF103
 1191 0446 03       		.byte	0x3
 1192 0447 00       		.byte	0
 1193 0448 06       		.uleb128 0x6
 1194 0449 6D050000 		.4byte	.LASF104
 1195 044d 07       		.byte	0x7
 1196 044e 3F       		.byte	0x3f
 1197 044f 28040000 		.4byte	0x428
 1198 0453 11       		.uleb128 0x11
 1199 0454 07       		.byte	0x7
 1200 0455 01       		.byte	0x1
 1201 0456 E1010000 		.4byte	0x1e1
ARM GAS  G:\Users\Jaxb\AppData\Local\Temp\ccfTfaEf.s 			page 26


 1202 045a 07       		.byte	0x7
 1203 045b 48       		.byte	0x48
 1204 045c 91040000 		.4byte	0x491
 1205 0460 04       		.uleb128 0x4
 1206 0461 2A070000 		.4byte	.LASF105
 1207 0465 00       		.byte	0
 1208 0466 04       		.uleb128 0x4
 1209 0467 AA080000 		.4byte	.LASF106
 1210 046b 04       		.byte	0x4
 1211 046c 04       		.uleb128 0x4
 1212 046d 20020000 		.4byte	.LASF107
 1213 0471 28       		.byte	0x28
 1214 0472 04       		.uleb128 0x4
 1215 0473 2E020000 		.4byte	.LASF108
 1216 0477 48       		.byte	0x48
 1217 0478 04       		.uleb128 0x4
 1218 0479 76020000 		.4byte	.LASF109
 1219 047d 14       		.byte	0x14
 1220 047e 04       		.uleb128 0x4
 1221 047f E6020000 		.4byte	.LASF110
 1222 0483 10       		.byte	0x10
 1223 0484 04       		.uleb128 0x4
 1224 0485 02050000 		.4byte	.LASF111
 1225 0489 1C       		.byte	0x1c
 1226 048a 04       		.uleb128 0x4
 1227 048b EB050000 		.4byte	.LASF112
 1228 048f 18       		.byte	0x18
 1229 0490 00       		.byte	0
 1230 0491 06       		.uleb128 0x6
 1231 0492 EA000000 		.4byte	.LASF113
 1232 0496 07       		.byte	0x7
 1233 0497 50       		.byte	0x50
 1234 0498 53040000 		.4byte	0x453
 1235 049c 12       		.uleb128 0x12
 1236 049d 04       		.byte	0x4
 1237 049e 07       		.byte	0x7
 1238 049f 5B       		.byte	0x5b
 1239 04a0 CF040000 		.4byte	0x4cf
 1240 04a4 13       		.uleb128 0x13
 1241 04a5 3C060000 		.4byte	.LASF114
 1242 04a9 07       		.byte	0x7
 1243 04aa 5D       		.byte	0x5d
 1244 04ab 46020000 		.4byte	0x246
 1245 04af 02       		.byte	0x2
 1246 04b0 23       		.byte	0x23
 1247 04b1 00       		.uleb128 0
 1248 04b2 13       		.uleb128 0x13
 1249 04b3 11080000 		.4byte	.LASF115
 1250 04b7 07       		.byte	0x7
 1251 04b8 60       		.byte	0x60
 1252 04b9 48040000 		.4byte	0x448
 1253 04bd 02       		.byte	0x2
 1254 04be 23       		.byte	0x23
 1255 04bf 02       		.uleb128 0x2
 1256 04c0 13       		.uleb128 0x13
 1257 04c1 34000000 		.4byte	.LASF116
 1258 04c5 07       		.byte	0x7
ARM GAS  G:\Users\Jaxb\AppData\Local\Temp\ccfTfaEf.s 			page 27


 1259 04c6 63       		.byte	0x63
 1260 04c7 91040000 		.4byte	0x491
 1261 04cb 02       		.byte	0x2
 1262 04cc 23       		.byte	0x23
 1263 04cd 03       		.uleb128 0x3
 1264 04ce 00       		.byte	0
 1265 04cf 06       		.uleb128 0x6
 1266 04d0 F2060000 		.4byte	.LASF117
 1267 04d4 07       		.byte	0x7
 1268 04d5 65       		.byte	0x65
 1269 04d6 9C040000 		.4byte	0x49c
 1270 04da 12       		.uleb128 0x12
 1271 04db 10       		.byte	0x10
 1272 04dc 08       		.byte	0x8
 1273 04dd 32       		.byte	0x32
 1274 04de 37050000 		.4byte	0x537
 1275 04e2 13       		.uleb128 0x13
 1276 04e3 76010000 		.4byte	.LASF118
 1277 04e7 08       		.byte	0x8
 1278 04e8 34       		.byte	0x34
 1279 04e9 56020000 		.4byte	0x256
 1280 04ed 02       		.byte	0x2
 1281 04ee 23       		.byte	0x23
 1282 04ef 00       		.uleb128 0
 1283 04f0 13       		.uleb128 0x13
 1284 04f1 0F020000 		.4byte	.LASF119
 1285 04f5 08       		.byte	0x8
 1286 04f6 39       		.byte	0x39
 1287 04f7 46020000 		.4byte	0x246
 1288 04fb 02       		.byte	0x2
 1289 04fc 23       		.byte	0x23
 1290 04fd 04       		.uleb128 0x4
 1291 04fe 13       		.uleb128 0x13
 1292 04ff 0A010000 		.4byte	.LASF120
 1293 0503 08       		.byte	0x8
 1294 0504 3C       		.byte	0x3c
 1295 0505 46020000 		.4byte	0x246
 1296 0509 02       		.byte	0x2
 1297 050a 23       		.byte	0x23
 1298 050b 06       		.uleb128 0x6
 1299 050c 13       		.uleb128 0x13
 1300 050d ED070000 		.4byte	.LASF121
 1301 0511 08       		.byte	0x8
 1302 0512 3F       		.byte	0x3f
 1303 0513 46020000 		.4byte	0x246
 1304 0517 02       		.byte	0x2
 1305 0518 23       		.byte	0x23
 1306 0519 08       		.uleb128 0x8
 1307 051a 13       		.uleb128 0x13
 1308 051b 52030000 		.4byte	.LASF122
 1309 051f 08       		.byte	0x8
 1310 0520 46       		.byte	0x46
 1311 0521 46020000 		.4byte	0x246
 1312 0525 02       		.byte	0x2
 1313 0526 23       		.byte	0x23
 1314 0527 0A       		.uleb128 0xa
 1315 0528 13       		.uleb128 0x13
ARM GAS  G:\Users\Jaxb\AppData\Local\Temp\ccfTfaEf.s 			page 28


 1316 0529 5C020000 		.4byte	.LASF123
 1317 052d 08       		.byte	0x8
 1318 052e 49       		.byte	0x49
 1319 052f 46020000 		.4byte	0x246
 1320 0533 02       		.byte	0x2
 1321 0534 23       		.byte	0x23
 1322 0535 0C       		.uleb128 0xc
 1323 0536 00       		.byte	0
 1324 0537 06       		.uleb128 0x6
 1325 0538 B4070000 		.4byte	.LASF124
 1326 053c 08       		.byte	0x8
 1327 053d 4C       		.byte	0x4c
 1328 053e DA040000 		.4byte	0x4da
 1329 0542 12       		.uleb128 0x12
 1330 0543 04       		.byte	0x4
 1331 0544 09       		.byte	0x9
 1332 0545 32       		.byte	0x32
 1333 0546 83050000 		.4byte	0x583
 1334 054a 13       		.uleb128 0x13
 1335 054b B0040000 		.4byte	.LASF125
 1336 054f 09       		.byte	0x9
 1337 0550 34       		.byte	0x34
 1338 0551 3B020000 		.4byte	0x23b
 1339 0555 02       		.byte	0x2
 1340 0556 23       		.byte	0x23
 1341 0557 00       		.uleb128 0
 1342 0558 13       		.uleb128 0x13
 1343 0559 54080000 		.4byte	.LASF126
 1344 055d 09       		.byte	0x9
 1345 055e 39       		.byte	0x39
 1346 055f 3B020000 		.4byte	0x23b
 1347 0563 02       		.byte	0x2
 1348 0564 23       		.byte	0x23
 1349 0565 01       		.uleb128 0x1
 1350 0566 13       		.uleb128 0x13
 1351 0567 50040000 		.4byte	.LASF127
 1352 056b 09       		.byte	0x9
 1353 056c 3D       		.byte	0x3d
 1354 056d 3B020000 		.4byte	0x23b
 1355 0571 02       		.byte	0x2
 1356 0572 23       		.byte	0x23
 1357 0573 02       		.uleb128 0x2
 1358 0574 13       		.uleb128 0x13
 1359 0575 87020000 		.4byte	.LASF128
 1360 0579 09       		.byte	0x9
 1361 057a 41       		.byte	0x41
 1362 057b B7020000 		.4byte	0x2b7
 1363 057f 02       		.byte	0x2
 1364 0580 23       		.byte	0x23
 1365 0581 03       		.uleb128 0x3
 1366 0582 00       		.byte	0
 1367 0583 06       		.uleb128 0x6
 1368 0584 A1010000 		.4byte	.LASF129
 1369 0588 09       		.byte	0x9
 1370 0589 44       		.byte	0x44
 1371 058a 42050000 		.4byte	0x542
 1372 058e 14       		.uleb128 0x14
ARM GAS  G:\Users\Jaxb\AppData\Local\Temp\ccfTfaEf.s 			page 29


 1373 058f 01       		.byte	0x1
 1374 0590 88050000 		.4byte	.LASF133
 1375 0594 01       		.byte	0x1
 1376 0595 CE       		.byte	0xce
 1377 0596 01       		.byte	0x1
 1378 0597 48020000 		.4byte	.LFB36
 1379 059b A0020000 		.4byte	.LFE36
 1380 059f 00000000 		.4byte	.LLST7
 1381 05a3 01       		.byte	0x1
 1382 05a4 E0050000 		.4byte	0x5e0
 1383 05a8 15       		.uleb128 0x15
 1384 05a9 65010000 		.4byte	.LASF130
 1385 05ad 01       		.byte	0x1
 1386 05ae CE       		.byte	0xce
 1387 05af E0050000 		.4byte	0x5e0
 1388 05b3 02       		.byte	0x2
 1389 05b4 91       		.byte	0x91
 1390 05b5 6C       		.sleb128 -20
 1391 05b6 16       		.uleb128 0x16
 1392 05b7 636800   		.ascii	"ch\000"
 1393 05ba 01       		.byte	0x1
 1394 05bb CE       		.byte	0xce
 1395 05bc 46020000 		.4byte	0x246
 1396 05c0 02       		.byte	0x2
 1397 05c1 91       		.byte	0x91
 1398 05c2 6A       		.sleb128 -22
 1399 05c3 17       		.uleb128 0x17
 1400 05c4 85010000 		.4byte	.LASF131
 1401 05c8 01       		.byte	0x1
 1402 05c9 D0       		.byte	0xd0
 1403 05ca 3B020000 		.4byte	0x23b
 1404 05ce 02       		.byte	0x2
 1405 05cf 91       		.byte	0x91
 1406 05d0 77       		.sleb128 -9
 1407 05d1 17       		.uleb128 0x17
 1408 05d2 8C010000 		.4byte	.LASF132
 1409 05d6 01       		.byte	0x1
 1410 05d7 D0       		.byte	0xd0
 1411 05d8 3B020000 		.4byte	0x23b
 1412 05dc 02       		.byte	0x2
 1413 05dd 91       		.byte	0x91
 1414 05de 76       		.sleb128 -10
 1415 05df 00       		.byte	0
 1416 05e0 18       		.uleb128 0x18
 1417 05e1 04       		.byte	0x4
 1418 05e2 1C040000 		.4byte	0x41c
 1419 05e6 14       		.uleb128 0x14
 1420 05e7 01       		.byte	0x1
 1421 05e8 54010000 		.4byte	.LASF134
 1422 05ec 01       		.byte	0x1
 1423 05ed BF       		.byte	0xbf
 1424 05ee 01       		.byte	0x1
 1425 05ef 00020000 		.4byte	.LFB35
 1426 05f3 48020000 		.4byte	.LFE35
 1427 05f7 50000000 		.4byte	.LLST6
 1428 05fb 01       		.byte	0x1
 1429 05fc 29060000 		.4byte	0x629
ARM GAS  G:\Users\Jaxb\AppData\Local\Temp\ccfTfaEf.s 			page 30


 1430 0600 15       		.uleb128 0x15
 1431 0601 65010000 		.4byte	.LASF130
 1432 0605 01       		.byte	0x1
 1433 0606 BF       		.byte	0xbf
 1434 0607 E0050000 		.4byte	0x5e0
 1435 060b 02       		.byte	0x2
 1436 060c 91       		.byte	0x91
 1437 060d 6C       		.sleb128 -20
 1438 060e 16       		.uleb128 0x16
 1439 060f 73747200 		.ascii	"str\000"
 1440 0613 01       		.byte	0x1
 1441 0614 BF       		.byte	0xbf
 1442 0615 29060000 		.4byte	0x629
 1443 0619 02       		.byte	0x2
 1444 061a 91       		.byte	0x91
 1445 061b 68       		.sleb128 -24
 1446 061c 19       		.uleb128 0x19
 1447 061d 6B00     		.ascii	"k\000"
 1448 061f 01       		.byte	0x1
 1449 0620 C1       		.byte	0xc1
 1450 0621 34020000 		.4byte	0x234
 1451 0625 02       		.byte	0x2
 1452 0626 91       		.byte	0x91
 1453 0627 74       		.sleb128 -12
 1454 0628 00       		.byte	0
 1455 0629 18       		.uleb128 0x18
 1456 062a 04       		.byte	0x4
 1457 062b 2F060000 		.4byte	0x62f
 1458 062f 05       		.uleb128 0x5
 1459 0630 01       		.byte	0x1
 1460 0631 08       		.byte	0x8
 1461 0632 F7020000 		.4byte	.LASF135
 1462 0636 14       		.uleb128 0x14
 1463 0637 01       		.byte	0x1
 1464 0638 8C030000 		.4byte	.LASF136
 1465 063c 01       		.byte	0x1
 1466 063d B0       		.byte	0xb0
 1467 063e 01       		.byte	0x1
 1468 063f B4010000 		.4byte	.LFB34
 1469 0643 00020000 		.4byte	.LFE34
 1470 0647 A0000000 		.4byte	.LLST5
 1471 064b 01       		.byte	0x1
 1472 064c 87060000 		.4byte	0x687
 1473 0650 15       		.uleb128 0x15
 1474 0651 65010000 		.4byte	.LASF130
 1475 0655 01       		.byte	0x1
 1476 0656 B0       		.byte	0xb0
 1477 0657 E0050000 		.4byte	0x5e0
 1478 065b 02       		.byte	0x2
 1479 065c 91       		.byte	0x91
 1480 065d 6C       		.sleb128 -20
 1481 065e 15       		.uleb128 0x15
 1482 065f 1F050000 		.4byte	.LASF137
 1483 0663 01       		.byte	0x1
 1484 0664 B0       		.byte	0xb0
 1485 0665 87060000 		.4byte	0x687
 1486 0669 02       		.byte	0x2
ARM GAS  G:\Users\Jaxb\AppData\Local\Temp\ccfTfaEf.s 			page 31


 1487 066a 91       		.byte	0x91
 1488 066b 68       		.sleb128 -24
 1489 066c 16       		.uleb128 0x16
 1490 066d 6E756D00 		.ascii	"num\000"
 1491 0671 01       		.byte	0x1
 1492 0672 B0       		.byte	0xb0
 1493 0673 46020000 		.4byte	0x246
 1494 0677 02       		.byte	0x2
 1495 0678 91       		.byte	0x91
 1496 0679 66       		.sleb128 -26
 1497 067a 19       		.uleb128 0x19
 1498 067b 6900     		.ascii	"i\000"
 1499 067d 01       		.byte	0x1
 1500 067e B2       		.byte	0xb2
 1501 067f 3B020000 		.4byte	0x23b
 1502 0683 02       		.byte	0x2
 1503 0684 91       		.byte	0x91
 1504 0685 77       		.sleb128 -9
 1505 0686 00       		.byte	0
 1506 0687 18       		.uleb128 0x18
 1507 0688 04       		.byte	0x4
 1508 0689 3B020000 		.4byte	0x23b
 1509 068d 14       		.uleb128 0x14
 1510 068e 01       		.byte	0x1
 1511 068f 25050000 		.4byte	.LASF138
 1512 0693 01       		.byte	0x1
 1513 0694 A6       		.byte	0xa6
 1514 0695 01       		.byte	0x1
 1515 0696 84010000 		.4byte	.LFB33
 1516 069a B4010000 		.4byte	.LFE33
 1517 069e F0000000 		.4byte	.LLST4
 1518 06a2 01       		.byte	0x1
 1519 06a3 C3060000 		.4byte	0x6c3
 1520 06a7 15       		.uleb128 0x15
 1521 06a8 65010000 		.4byte	.LASF130
 1522 06ac 01       		.byte	0x1
 1523 06ad A6       		.byte	0xa6
 1524 06ae E0050000 		.4byte	0x5e0
 1525 06b2 02       		.byte	0x2
 1526 06b3 91       		.byte	0x91
 1527 06b4 74       		.sleb128 -12
 1528 06b5 16       		.uleb128 0x16
 1529 06b6 636800   		.ascii	"ch\000"
 1530 06b9 01       		.byte	0x1
 1531 06ba A6       		.byte	0xa6
 1532 06bb 3B020000 		.4byte	0x23b
 1533 06bf 02       		.byte	0x2
 1534 06c0 91       		.byte	0x91
 1535 06c1 73       		.sleb128 -13
 1536 06c2 00       		.byte	0
 1537 06c3 14       		.uleb128 0x14
 1538 06c4 01       		.byte	0x1
 1539 06c5 11070000 		.4byte	.LASF139
 1540 06c9 01       		.byte	0x1
 1541 06ca 75       		.byte	0x75
 1542 06cb 01       		.byte	0x1
 1543 06cc F2000000 		.4byte	.LFB32
ARM GAS  G:\Users\Jaxb\AppData\Local\Temp\ccfTfaEf.s 			page 32


 1544 06d0 84010000 		.4byte	.LFE32
 1545 06d4 40010000 		.4byte	.LLST3
 1546 06d8 01       		.byte	0x1
 1547 06d9 FA060000 		.4byte	0x6fa
 1548 06dd 17       		.uleb128 0x17
 1549 06de 8A040000 		.4byte	.LASF140
 1550 06e2 01       		.byte	0x1
 1551 06e3 77       		.byte	0x77
 1552 06e4 CF040000 		.4byte	0x4cf
 1553 06e8 02       		.byte	0x2
 1554 06e9 91       		.byte	0x91
 1555 06ea 74       		.sleb128 -12
 1556 06eb 17       		.uleb128 0x17
 1557 06ec C0020000 		.4byte	.LASF141
 1558 06f0 01       		.byte	0x1
 1559 06f1 78       		.byte	0x78
 1560 06f2 37050000 		.4byte	0x537
 1561 06f6 02       		.byte	0x2
 1562 06f7 91       		.byte	0x91
 1563 06f8 64       		.sleb128 -28
 1564 06f9 00       		.byte	0
 1565 06fa 1A       		.uleb128 0x1a
 1566 06fb 76040000 		.4byte	.LASF148
 1567 06ff 01       		.byte	0x1
 1568 0700 62       		.byte	0x62
 1569 0701 01       		.byte	0x1
 1570 0702 C4000000 		.4byte	.LFB31
 1571 0706 F2000000 		.4byte	.LFE31
 1572 070a 90010000 		.4byte	.LLST2
 1573 070e 01       		.byte	0x1
 1574 070f 22070000 		.4byte	0x722
 1575 0713 17       		.uleb128 0x17
 1576 0714 0F030000 		.4byte	.LASF142
 1577 0718 01       		.byte	0x1
 1578 0719 64       		.byte	0x64
 1579 071a 83050000 		.4byte	0x583
 1580 071e 02       		.byte	0x2
 1581 071f 91       		.byte	0x91
 1582 0720 74       		.sleb128 -12
 1583 0721 00       		.byte	0
 1584 0722 14       		.uleb128 0x14
 1585 0723 01       		.byte	0x1
 1586 0724 FA070000 		.4byte	.LASF143
 1587 0728 01       		.byte	0x1
 1588 0729 31       		.byte	0x31
 1589 072a 01       		.byte	0x1
 1590 072b 2E000000 		.4byte	.LFB30
 1591 072f C4000000 		.4byte	.LFE30
 1592 0733 E0010000 		.4byte	.LLST1
 1593 0737 01       		.byte	0x1
 1594 0738 59070000 		.4byte	0x759
 1595 073c 17       		.uleb128 0x17
 1596 073d 8A040000 		.4byte	.LASF140
 1597 0741 01       		.byte	0x1
 1598 0742 33       		.byte	0x33
 1599 0743 CF040000 		.4byte	0x4cf
 1600 0747 02       		.byte	0x2
ARM GAS  G:\Users\Jaxb\AppData\Local\Temp\ccfTfaEf.s 			page 33


 1601 0748 91       		.byte	0x91
 1602 0749 74       		.sleb128 -12
 1603 074a 17       		.uleb128 0x17
 1604 074b C0020000 		.4byte	.LASF141
 1605 074f 01       		.byte	0x1
 1606 0750 34       		.byte	0x34
 1607 0751 37050000 		.4byte	0x537
 1608 0755 02       		.byte	0x2
 1609 0756 91       		.byte	0x91
 1610 0757 64       		.sleb128 -28
 1611 0758 00       		.byte	0
 1612 0759 1B       		.uleb128 0x1b
 1613 075a A1070000 		.4byte	.LASF149
 1614 075e 01       		.byte	0x1
 1615 075f 19       		.byte	0x19
 1616 0760 01       		.byte	0x1
 1617 0761 00000000 		.4byte	.LFB29
 1618 0765 2E000000 		.4byte	.LFE29
 1619 0769 30020000 		.4byte	.LLST0
 1620 076d 01       		.byte	0x1
 1621 076e 17       		.uleb128 0x17
 1622 076f 0F030000 		.4byte	.LASF142
 1623 0773 01       		.byte	0x1
 1624 0774 1B       		.byte	0x1b
 1625 0775 83050000 		.4byte	0x583
 1626 0779 02       		.byte	0x2
 1627 077a 91       		.byte	0x91
 1628 077b 74       		.sleb128 -12
 1629 077c 00       		.byte	0
 1630 077d 00       		.byte	0
 1631              		.section	.debug_abbrev,"",%progbits
 1632              	.Ldebug_abbrev0:
 1633 0000 01       		.uleb128 0x1
 1634 0001 11       		.uleb128 0x11
 1635 0002 01       		.byte	0x1
 1636 0003 25       		.uleb128 0x25
 1637 0004 0E       		.uleb128 0xe
 1638 0005 13       		.uleb128 0x13
 1639 0006 0B       		.uleb128 0xb
 1640 0007 03       		.uleb128 0x3
 1641 0008 0E       		.uleb128 0xe
 1642 0009 1B       		.uleb128 0x1b
 1643 000a 0E       		.uleb128 0xe
 1644 000b 11       		.uleb128 0x11
 1645 000c 01       		.uleb128 0x1
 1646 000d 12       		.uleb128 0x12
 1647 000e 01       		.uleb128 0x1
 1648 000f 10       		.uleb128 0x10
 1649 0010 06       		.uleb128 0x6
 1650 0011 00       		.byte	0
 1651 0012 00       		.byte	0
 1652 0013 02       		.uleb128 0x2
 1653 0014 04       		.uleb128 0x4
 1654 0015 01       		.byte	0x1
 1655 0016 03       		.uleb128 0x3
 1656 0017 0E       		.uleb128 0xe
 1657 0018 3E       		.uleb128 0x3e
ARM GAS  G:\Users\Jaxb\AppData\Local\Temp\ccfTfaEf.s 			page 34


 1658 0019 0B       		.uleb128 0xb
 1659 001a 0B       		.uleb128 0xb
 1660 001b 0B       		.uleb128 0xb
 1661 001c 49       		.uleb128 0x49
 1662 001d 13       		.uleb128 0x13
 1663 001e 3A       		.uleb128 0x3a
 1664 001f 0B       		.uleb128 0xb
 1665 0020 3B       		.uleb128 0x3b
 1666 0021 0B       		.uleb128 0xb
 1667 0022 01       		.uleb128 0x1
 1668 0023 13       		.uleb128 0x13
 1669 0024 00       		.byte	0
 1670 0025 00       		.byte	0
 1671 0026 03       		.uleb128 0x3
 1672 0027 28       		.uleb128 0x28
 1673 0028 00       		.byte	0
 1674 0029 03       		.uleb128 0x3
 1675 002a 0E       		.uleb128 0xe
 1676 002b 1C       		.uleb128 0x1c
 1677 002c 0D       		.uleb128 0xd
 1678 002d 00       		.byte	0
 1679 002e 00       		.byte	0
 1680 002f 04       		.uleb128 0x4
 1681 0030 28       		.uleb128 0x28
 1682 0031 00       		.byte	0
 1683 0032 03       		.uleb128 0x3
 1684 0033 0E       		.uleb128 0xe
 1685 0034 1C       		.uleb128 0x1c
 1686 0035 0B       		.uleb128 0xb
 1687 0036 00       		.byte	0
 1688 0037 00       		.byte	0
 1689 0038 05       		.uleb128 0x5
 1690 0039 24       		.uleb128 0x24
 1691 003a 00       		.byte	0
 1692 003b 0B       		.uleb128 0xb
 1693 003c 0B       		.uleb128 0xb
 1694 003d 3E       		.uleb128 0x3e
 1695 003e 0B       		.uleb128 0xb
 1696 003f 03       		.uleb128 0x3
 1697 0040 0E       		.uleb128 0xe
 1698 0041 00       		.byte	0
 1699 0042 00       		.byte	0
 1700 0043 06       		.uleb128 0x6
 1701 0044 16       		.uleb128 0x16
 1702 0045 00       		.byte	0
 1703 0046 03       		.uleb128 0x3
 1704 0047 0E       		.uleb128 0xe
 1705 0048 3A       		.uleb128 0x3a
 1706 0049 0B       		.uleb128 0xb
 1707 004a 3B       		.uleb128 0x3b
 1708 004b 0B       		.uleb128 0xb
 1709 004c 49       		.uleb128 0x49
 1710 004d 13       		.uleb128 0x13
 1711 004e 00       		.byte	0
 1712 004f 00       		.byte	0
 1713 0050 07       		.uleb128 0x7
 1714 0051 24       		.uleb128 0x24
ARM GAS  G:\Users\Jaxb\AppData\Local\Temp\ccfTfaEf.s 			page 35


 1715 0052 00       		.byte	0
 1716 0053 0B       		.uleb128 0xb
 1717 0054 0B       		.uleb128 0xb
 1718 0055 3E       		.uleb128 0x3e
 1719 0056 0B       		.uleb128 0xb
 1720 0057 03       		.uleb128 0x3
 1721 0058 08       		.uleb128 0x8
 1722 0059 00       		.byte	0
 1723 005a 00       		.byte	0
 1724 005b 08       		.uleb128 0x8
 1725 005c 35       		.uleb128 0x35
 1726 005d 00       		.byte	0
 1727 005e 49       		.uleb128 0x49
 1728 005f 13       		.uleb128 0x13
 1729 0060 00       		.byte	0
 1730 0061 00       		.byte	0
 1731 0062 09       		.uleb128 0x9
 1732 0063 34       		.uleb128 0x34
 1733 0064 00       		.byte	0
 1734 0065 03       		.uleb128 0x3
 1735 0066 0E       		.uleb128 0xe
 1736 0067 3A       		.uleb128 0x3a
 1737 0068 0B       		.uleb128 0xb
 1738 0069 3B       		.uleb128 0x3b
 1739 006a 05       		.uleb128 0x5
 1740 006b 49       		.uleb128 0x49
 1741 006c 13       		.uleb128 0x13
 1742 006d 3F       		.uleb128 0x3f
 1743 006e 0C       		.uleb128 0xc
 1744 006f 3C       		.uleb128 0x3c
 1745 0070 0C       		.uleb128 0xc
 1746 0071 00       		.byte	0
 1747 0072 00       		.byte	0
 1748 0073 0A       		.uleb128 0xa
 1749 0074 34       		.uleb128 0x34
 1750 0075 00       		.byte	0
 1751 0076 03       		.uleb128 0x3
 1752 0077 0E       		.uleb128 0xe
 1753 0078 3A       		.uleb128 0x3a
 1754 0079 0B       		.uleb128 0xb
 1755 007a 3B       		.uleb128 0x3b
 1756 007b 0B       		.uleb128 0xb
 1757 007c 49       		.uleb128 0x49
 1758 007d 13       		.uleb128 0x13
 1759 007e 3F       		.uleb128 0x3f
 1760 007f 0C       		.uleb128 0xc
 1761 0080 3C       		.uleb128 0x3c
 1762 0081 0C       		.uleb128 0xc
 1763 0082 00       		.byte	0
 1764 0083 00       		.byte	0
 1765 0084 0B       		.uleb128 0xb
 1766 0085 04       		.uleb128 0x4
 1767 0086 01       		.byte	0x1
 1768 0087 3E       		.uleb128 0x3e
 1769 0088 0B       		.uleb128 0xb
 1770 0089 0B       		.uleb128 0xb
 1771 008a 0B       		.uleb128 0xb
ARM GAS  G:\Users\Jaxb\AppData\Local\Temp\ccfTfaEf.s 			page 36


 1772 008b 49       		.uleb128 0x49
 1773 008c 13       		.uleb128 0x13
 1774 008d 3A       		.uleb128 0x3a
 1775 008e 0B       		.uleb128 0xb
 1776 008f 3B       		.uleb128 0x3b
 1777 0090 05       		.uleb128 0x5
 1778 0091 01       		.uleb128 0x1
 1779 0092 13       		.uleb128 0x13
 1780 0093 00       		.byte	0
 1781 0094 00       		.byte	0
 1782 0095 0C       		.uleb128 0xc
 1783 0096 28       		.uleb128 0x28
 1784 0097 00       		.byte	0
 1785 0098 03       		.uleb128 0x3
 1786 0099 08       		.uleb128 0x8
 1787 009a 1C       		.uleb128 0x1c
 1788 009b 0B       		.uleb128 0xb
 1789 009c 00       		.byte	0
 1790 009d 00       		.byte	0
 1791 009e 0D       		.uleb128 0xd
 1792 009f 16       		.uleb128 0x16
 1793 00a0 00       		.byte	0
 1794 00a1 03       		.uleb128 0x3
 1795 00a2 0E       		.uleb128 0xe
 1796 00a3 3A       		.uleb128 0x3a
 1797 00a4 0B       		.uleb128 0xb
 1798 00a5 3B       		.uleb128 0x3b
 1799 00a6 05       		.uleb128 0x5
 1800 00a7 49       		.uleb128 0x49
 1801 00a8 13       		.uleb128 0x13
 1802 00a9 00       		.byte	0
 1803 00aa 00       		.byte	0
 1804 00ab 0E       		.uleb128 0xe
 1805 00ac 13       		.uleb128 0x13
 1806 00ad 01       		.byte	0x1
 1807 00ae 0B       		.uleb128 0xb
 1808 00af 0B       		.uleb128 0xb
 1809 00b0 3A       		.uleb128 0x3a
 1810 00b1 0B       		.uleb128 0xb
 1811 00b2 3B       		.uleb128 0x3b
 1812 00b3 05       		.uleb128 0x5
 1813 00b4 01       		.uleb128 0x1
 1814 00b5 13       		.uleb128 0x13
 1815 00b6 00       		.byte	0
 1816 00b7 00       		.byte	0
 1817 00b8 0F       		.uleb128 0xf
 1818 00b9 0D       		.uleb128 0xd
 1819 00ba 00       		.byte	0
 1820 00bb 03       		.uleb128 0x3
 1821 00bc 08       		.uleb128 0x8
 1822 00bd 3A       		.uleb128 0x3a
 1823 00be 0B       		.uleb128 0xb
 1824 00bf 3B       		.uleb128 0x3b
 1825 00c0 05       		.uleb128 0x5
 1826 00c1 49       		.uleb128 0x49
 1827 00c2 13       		.uleb128 0x13
 1828 00c3 38       		.uleb128 0x38
ARM GAS  G:\Users\Jaxb\AppData\Local\Temp\ccfTfaEf.s 			page 37


 1829 00c4 0A       		.uleb128 0xa
 1830 00c5 00       		.byte	0
 1831 00c6 00       		.byte	0
 1832 00c7 10       		.uleb128 0x10
 1833 00c8 0D       		.uleb128 0xd
 1834 00c9 00       		.byte	0
 1835 00ca 03       		.uleb128 0x3
 1836 00cb 0E       		.uleb128 0xe
 1837 00cc 3A       		.uleb128 0x3a
 1838 00cd 0B       		.uleb128 0xb
 1839 00ce 3B       		.uleb128 0x3b
 1840 00cf 05       		.uleb128 0x5
 1841 00d0 49       		.uleb128 0x49
 1842 00d1 13       		.uleb128 0x13
 1843 00d2 38       		.uleb128 0x38
 1844 00d3 0A       		.uleb128 0xa
 1845 00d4 00       		.byte	0
 1846 00d5 00       		.byte	0
 1847 00d6 11       		.uleb128 0x11
 1848 00d7 04       		.uleb128 0x4
 1849 00d8 01       		.byte	0x1
 1850 00d9 3E       		.uleb128 0x3e
 1851 00da 0B       		.uleb128 0xb
 1852 00db 0B       		.uleb128 0xb
 1853 00dc 0B       		.uleb128 0xb
 1854 00dd 49       		.uleb128 0x49
 1855 00de 13       		.uleb128 0x13
 1856 00df 3A       		.uleb128 0x3a
 1857 00e0 0B       		.uleb128 0xb
 1858 00e1 3B       		.uleb128 0x3b
 1859 00e2 0B       		.uleb128 0xb
 1860 00e3 01       		.uleb128 0x1
 1861 00e4 13       		.uleb128 0x13
 1862 00e5 00       		.byte	0
 1863 00e6 00       		.byte	0
 1864 00e7 12       		.uleb128 0x12
 1865 00e8 13       		.uleb128 0x13
 1866 00e9 01       		.byte	0x1
 1867 00ea 0B       		.uleb128 0xb
 1868 00eb 0B       		.uleb128 0xb
 1869 00ec 3A       		.uleb128 0x3a
 1870 00ed 0B       		.uleb128 0xb
 1871 00ee 3B       		.uleb128 0x3b
 1872 00ef 0B       		.uleb128 0xb
 1873 00f0 01       		.uleb128 0x1
 1874 00f1 13       		.uleb128 0x13
 1875 00f2 00       		.byte	0
 1876 00f3 00       		.byte	0
 1877 00f4 13       		.uleb128 0x13
 1878 00f5 0D       		.uleb128 0xd
 1879 00f6 00       		.byte	0
 1880 00f7 03       		.uleb128 0x3
 1881 00f8 0E       		.uleb128 0xe
 1882 00f9 3A       		.uleb128 0x3a
 1883 00fa 0B       		.uleb128 0xb
 1884 00fb 3B       		.uleb128 0x3b
 1885 00fc 0B       		.uleb128 0xb
ARM GAS  G:\Users\Jaxb\AppData\Local\Temp\ccfTfaEf.s 			page 38


 1886 00fd 49       		.uleb128 0x49
 1887 00fe 13       		.uleb128 0x13
 1888 00ff 38       		.uleb128 0x38
 1889 0100 0A       		.uleb128 0xa
 1890 0101 00       		.byte	0
 1891 0102 00       		.byte	0
 1892 0103 14       		.uleb128 0x14
 1893 0104 2E       		.uleb128 0x2e
 1894 0105 01       		.byte	0x1
 1895 0106 3F       		.uleb128 0x3f
 1896 0107 0C       		.uleb128 0xc
 1897 0108 03       		.uleb128 0x3
 1898 0109 0E       		.uleb128 0xe
 1899 010a 3A       		.uleb128 0x3a
 1900 010b 0B       		.uleb128 0xb
 1901 010c 3B       		.uleb128 0x3b
 1902 010d 0B       		.uleb128 0xb
 1903 010e 27       		.uleb128 0x27
 1904 010f 0C       		.uleb128 0xc
 1905 0110 11       		.uleb128 0x11
 1906 0111 01       		.uleb128 0x1
 1907 0112 12       		.uleb128 0x12
 1908 0113 01       		.uleb128 0x1
 1909 0114 40       		.uleb128 0x40
 1910 0115 06       		.uleb128 0x6
 1911 0116 9642     		.uleb128 0x2116
 1912 0118 0C       		.uleb128 0xc
 1913 0119 01       		.uleb128 0x1
 1914 011a 13       		.uleb128 0x13
 1915 011b 00       		.byte	0
 1916 011c 00       		.byte	0
 1917 011d 15       		.uleb128 0x15
 1918 011e 05       		.uleb128 0x5
 1919 011f 00       		.byte	0
 1920 0120 03       		.uleb128 0x3
 1921 0121 0E       		.uleb128 0xe
 1922 0122 3A       		.uleb128 0x3a
 1923 0123 0B       		.uleb128 0xb
 1924 0124 3B       		.uleb128 0x3b
 1925 0125 0B       		.uleb128 0xb
 1926 0126 49       		.uleb128 0x49
 1927 0127 13       		.uleb128 0x13
 1928 0128 02       		.uleb128 0x2
 1929 0129 0A       		.uleb128 0xa
 1930 012a 00       		.byte	0
 1931 012b 00       		.byte	0
 1932 012c 16       		.uleb128 0x16
 1933 012d 05       		.uleb128 0x5
 1934 012e 00       		.byte	0
 1935 012f 03       		.uleb128 0x3
 1936 0130 08       		.uleb128 0x8
 1937 0131 3A       		.uleb128 0x3a
 1938 0132 0B       		.uleb128 0xb
 1939 0133 3B       		.uleb128 0x3b
 1940 0134 0B       		.uleb128 0xb
 1941 0135 49       		.uleb128 0x49
 1942 0136 13       		.uleb128 0x13
ARM GAS  G:\Users\Jaxb\AppData\Local\Temp\ccfTfaEf.s 			page 39


 1943 0137 02       		.uleb128 0x2
 1944 0138 0A       		.uleb128 0xa
 1945 0139 00       		.byte	0
 1946 013a 00       		.byte	0
 1947 013b 17       		.uleb128 0x17
 1948 013c 34       		.uleb128 0x34
 1949 013d 00       		.byte	0
 1950 013e 03       		.uleb128 0x3
 1951 013f 0E       		.uleb128 0xe
 1952 0140 3A       		.uleb128 0x3a
 1953 0141 0B       		.uleb128 0xb
 1954 0142 3B       		.uleb128 0x3b
 1955 0143 0B       		.uleb128 0xb
 1956 0144 49       		.uleb128 0x49
 1957 0145 13       		.uleb128 0x13
 1958 0146 02       		.uleb128 0x2
 1959 0147 0A       		.uleb128 0xa
 1960 0148 00       		.byte	0
 1961 0149 00       		.byte	0
 1962 014a 18       		.uleb128 0x18
 1963 014b 0F       		.uleb128 0xf
 1964 014c 00       		.byte	0
 1965 014d 0B       		.uleb128 0xb
 1966 014e 0B       		.uleb128 0xb
 1967 014f 49       		.uleb128 0x49
 1968 0150 13       		.uleb128 0x13
 1969 0151 00       		.byte	0
 1970 0152 00       		.byte	0
 1971 0153 19       		.uleb128 0x19
 1972 0154 34       		.uleb128 0x34
 1973 0155 00       		.byte	0
 1974 0156 03       		.uleb128 0x3
 1975 0157 08       		.uleb128 0x8
 1976 0158 3A       		.uleb128 0x3a
 1977 0159 0B       		.uleb128 0xb
 1978 015a 3B       		.uleb128 0x3b
 1979 015b 0B       		.uleb128 0xb
 1980 015c 49       		.uleb128 0x49
 1981 015d 13       		.uleb128 0x13
 1982 015e 02       		.uleb128 0x2
 1983 015f 0A       		.uleb128 0xa
 1984 0160 00       		.byte	0
 1985 0161 00       		.byte	0
 1986 0162 1A       		.uleb128 0x1a
 1987 0163 2E       		.uleb128 0x2e
 1988 0164 01       		.byte	0x1
 1989 0165 03       		.uleb128 0x3
 1990 0166 0E       		.uleb128 0xe
 1991 0167 3A       		.uleb128 0x3a
 1992 0168 0B       		.uleb128 0xb
 1993 0169 3B       		.uleb128 0x3b
 1994 016a 0B       		.uleb128 0xb
 1995 016b 27       		.uleb128 0x27
 1996 016c 0C       		.uleb128 0xc
 1997 016d 11       		.uleb128 0x11
 1998 016e 01       		.uleb128 0x1
 1999 016f 12       		.uleb128 0x12
ARM GAS  G:\Users\Jaxb\AppData\Local\Temp\ccfTfaEf.s 			page 40


 2000 0170 01       		.uleb128 0x1
 2001 0171 40       		.uleb128 0x40
 2002 0172 06       		.uleb128 0x6
 2003 0173 9642     		.uleb128 0x2116
 2004 0175 0C       		.uleb128 0xc
 2005 0176 01       		.uleb128 0x1
 2006 0177 13       		.uleb128 0x13
 2007 0178 00       		.byte	0
 2008 0179 00       		.byte	0
 2009 017a 1B       		.uleb128 0x1b
 2010 017b 2E       		.uleb128 0x2e
 2011 017c 01       		.byte	0x1
 2012 017d 03       		.uleb128 0x3
 2013 017e 0E       		.uleb128 0xe
 2014 017f 3A       		.uleb128 0x3a
 2015 0180 0B       		.uleb128 0xb
 2016 0181 3B       		.uleb128 0x3b
 2017 0182 0B       		.uleb128 0xb
 2018 0183 27       		.uleb128 0x27
 2019 0184 0C       		.uleb128 0xc
 2020 0185 11       		.uleb128 0x11
 2021 0186 01       		.uleb128 0x1
 2022 0187 12       		.uleb128 0x12
 2023 0188 01       		.uleb128 0x1
 2024 0189 40       		.uleb128 0x40
 2025 018a 06       		.uleb128 0x6
 2026 018b 9642     		.uleb128 0x2116
 2027 018d 0C       		.uleb128 0xc
 2028 018e 00       		.byte	0
 2029 018f 00       		.byte	0
 2030 0190 00       		.byte	0
 2031              		.section	.debug_loc,"",%progbits
 2032              	.Ldebug_loc0:
 2033              	.LLST7:
 2034 0000 48020000 		.4byte	.LFB36-.Ltext0
 2035 0004 4A020000 		.4byte	.LCFI35-.Ltext0
 2036 0008 0200     		.2byte	0x2
 2037 000a 7D       		.byte	0x7d
 2038 000b 00       		.sleb128 0
 2039 000c 4A020000 		.4byte	.LCFI35-.Ltext0
 2040 0010 4C020000 		.4byte	.LCFI36-.Ltext0
 2041 0014 0200     		.2byte	0x2
 2042 0016 7D       		.byte	0x7d
 2043 0017 08       		.sleb128 8
 2044 0018 4C020000 		.4byte	.LCFI36-.Ltext0
 2045 001c 4E020000 		.4byte	.LCFI37-.Ltext0
 2046 0020 0200     		.2byte	0x2
 2047 0022 7D       		.byte	0x7d
 2048 0023 18       		.sleb128 24
 2049 0024 4E020000 		.4byte	.LCFI37-.Ltext0
 2050 0028 9C020000 		.4byte	.LCFI38-.Ltext0
 2051 002c 0200     		.2byte	0x2
 2052 002e 77       		.byte	0x77
 2053 002f 18       		.sleb128 24
 2054 0030 9C020000 		.4byte	.LCFI38-.Ltext0
 2055 0034 9E020000 		.4byte	.LCFI39-.Ltext0
 2056 0038 0200     		.2byte	0x2
ARM GAS  G:\Users\Jaxb\AppData\Local\Temp\ccfTfaEf.s 			page 41


 2057 003a 77       		.byte	0x77
 2058 003b 08       		.sleb128 8
 2059 003c 9E020000 		.4byte	.LCFI39-.Ltext0
 2060 0040 A0020000 		.4byte	.LFE36-.Ltext0
 2061 0044 0200     		.2byte	0x2
 2062 0046 7D       		.byte	0x7d
 2063 0047 08       		.sleb128 8
 2064 0048 00000000 		.4byte	0
 2065 004c 00000000 		.4byte	0
 2066              	.LLST6:
 2067 0050 00020000 		.4byte	.LFB35-.Ltext0
 2068 0054 02020000 		.4byte	.LCFI30-.Ltext0
 2069 0058 0200     		.2byte	0x2
 2070 005a 7D       		.byte	0x7d
 2071 005b 00       		.sleb128 0
 2072 005c 02020000 		.4byte	.LCFI30-.Ltext0
 2073 0060 04020000 		.4byte	.LCFI31-.Ltext0
 2074 0064 0200     		.2byte	0x2
 2075 0066 7D       		.byte	0x7d
 2076 0067 08       		.sleb128 8
 2077 0068 04020000 		.4byte	.LCFI31-.Ltext0
 2078 006c 06020000 		.4byte	.LCFI32-.Ltext0
 2079 0070 0200     		.2byte	0x2
 2080 0072 7D       		.byte	0x7d
 2081 0073 18       		.sleb128 24
 2082 0074 06020000 		.4byte	.LCFI32-.Ltext0
 2083 0078 44020000 		.4byte	.LCFI33-.Ltext0
 2084 007c 0200     		.2byte	0x2
 2085 007e 77       		.byte	0x77
 2086 007f 18       		.sleb128 24
 2087 0080 44020000 		.4byte	.LCFI33-.Ltext0
 2088 0084 46020000 		.4byte	.LCFI34-.Ltext0
 2089 0088 0200     		.2byte	0x2
 2090 008a 77       		.byte	0x77
 2091 008b 08       		.sleb128 8
 2092 008c 46020000 		.4byte	.LCFI34-.Ltext0
 2093 0090 48020000 		.4byte	.LFE35-.Ltext0
 2094 0094 0200     		.2byte	0x2
 2095 0096 7D       		.byte	0x7d
 2096 0097 08       		.sleb128 8
 2097 0098 00000000 		.4byte	0
 2098 009c 00000000 		.4byte	0
 2099              	.LLST5:
 2100 00a0 B4010000 		.4byte	.LFB34-.Ltext0
 2101 00a4 B6010000 		.4byte	.LCFI25-.Ltext0
 2102 00a8 0200     		.2byte	0x2
 2103 00aa 7D       		.byte	0x7d
 2104 00ab 00       		.sleb128 0
 2105 00ac B6010000 		.4byte	.LCFI25-.Ltext0
 2106 00b0 B8010000 		.4byte	.LCFI26-.Ltext0
 2107 00b4 0200     		.2byte	0x2
 2108 00b6 7D       		.byte	0x7d
 2109 00b7 08       		.sleb128 8
 2110 00b8 B8010000 		.4byte	.LCFI26-.Ltext0
 2111 00bc BA010000 		.4byte	.LCFI27-.Ltext0
 2112 00c0 0200     		.2byte	0x2
 2113 00c2 7D       		.byte	0x7d
ARM GAS  G:\Users\Jaxb\AppData\Local\Temp\ccfTfaEf.s 			page 42


 2114 00c3 20       		.sleb128 32
 2115 00c4 BA010000 		.4byte	.LCFI27-.Ltext0
 2116 00c8 FC010000 		.4byte	.LCFI28-.Ltext0
 2117 00cc 0200     		.2byte	0x2
 2118 00ce 77       		.byte	0x77
 2119 00cf 20       		.sleb128 32
 2120 00d0 FC010000 		.4byte	.LCFI28-.Ltext0
 2121 00d4 FE010000 		.4byte	.LCFI29-.Ltext0
 2122 00d8 0200     		.2byte	0x2
 2123 00da 77       		.byte	0x77
 2124 00db 08       		.sleb128 8
 2125 00dc FE010000 		.4byte	.LCFI29-.Ltext0
 2126 00e0 00020000 		.4byte	.LFE34-.Ltext0
 2127 00e4 0200     		.2byte	0x2
 2128 00e6 7D       		.byte	0x7d
 2129 00e7 08       		.sleb128 8
 2130 00e8 00000000 		.4byte	0
 2131 00ec 00000000 		.4byte	0
 2132              	.LLST4:
 2133 00f0 84010000 		.4byte	.LFB33-.Ltext0
 2134 00f4 86010000 		.4byte	.LCFI20-.Ltext0
 2135 00f8 0200     		.2byte	0x2
 2136 00fa 7D       		.byte	0x7d
 2137 00fb 00       		.sleb128 0
 2138 00fc 86010000 		.4byte	.LCFI20-.Ltext0
 2139 0100 88010000 		.4byte	.LCFI21-.Ltext0
 2140 0104 0200     		.2byte	0x2
 2141 0106 7D       		.byte	0x7d
 2142 0107 08       		.sleb128 8
 2143 0108 88010000 		.4byte	.LCFI21-.Ltext0
 2144 010c 8A010000 		.4byte	.LCFI22-.Ltext0
 2145 0110 0200     		.2byte	0x2
 2146 0112 7D       		.byte	0x7d
 2147 0113 10       		.sleb128 16
 2148 0114 8A010000 		.4byte	.LCFI22-.Ltext0
 2149 0118 B0010000 		.4byte	.LCFI23-.Ltext0
 2150 011c 0200     		.2byte	0x2
 2151 011e 77       		.byte	0x77
 2152 011f 10       		.sleb128 16
 2153 0120 B0010000 		.4byte	.LCFI23-.Ltext0
 2154 0124 B2010000 		.4byte	.LCFI24-.Ltext0
 2155 0128 0200     		.2byte	0x2
 2156 012a 77       		.byte	0x77
 2157 012b 08       		.sleb128 8
 2158 012c B2010000 		.4byte	.LCFI24-.Ltext0
 2159 0130 B4010000 		.4byte	.LFE33-.Ltext0
 2160 0134 0200     		.2byte	0x2
 2161 0136 7D       		.byte	0x7d
 2162 0137 08       		.sleb128 8
 2163 0138 00000000 		.4byte	0
 2164 013c 00000000 		.4byte	0
 2165              	.LLST3:
 2166 0140 F2000000 		.4byte	.LFB32-.Ltext0
 2167 0144 F4000000 		.4byte	.LCFI15-.Ltext0
 2168 0148 0200     		.2byte	0x2
 2169 014a 7D       		.byte	0x7d
 2170 014b 00       		.sleb128 0
ARM GAS  G:\Users\Jaxb\AppData\Local\Temp\ccfTfaEf.s 			page 43


 2171 014c F4000000 		.4byte	.LCFI15-.Ltext0
 2172 0150 F6000000 		.4byte	.LCFI16-.Ltext0
 2173 0154 0200     		.2byte	0x2
 2174 0156 7D       		.byte	0x7d
 2175 0157 08       		.sleb128 8
 2176 0158 F6000000 		.4byte	.LCFI16-.Ltext0
 2177 015c F8000000 		.4byte	.LCFI17-.Ltext0
 2178 0160 0200     		.2byte	0x2
 2179 0162 7D       		.byte	0x7d
 2180 0163 20       		.sleb128 32
 2181 0164 F8000000 		.4byte	.LCFI17-.Ltext0
 2182 0168 76010000 		.4byte	.LCFI18-.Ltext0
 2183 016c 0200     		.2byte	0x2
 2184 016e 77       		.byte	0x77
 2185 016f 20       		.sleb128 32
 2186 0170 76010000 		.4byte	.LCFI18-.Ltext0
 2187 0174 78010000 		.4byte	.LCFI19-.Ltext0
 2188 0178 0200     		.2byte	0x2
 2189 017a 77       		.byte	0x77
 2190 017b 08       		.sleb128 8
 2191 017c 78010000 		.4byte	.LCFI19-.Ltext0
 2192 0180 84010000 		.4byte	.LFE32-.Ltext0
 2193 0184 0200     		.2byte	0x2
 2194 0186 7D       		.byte	0x7d
 2195 0187 08       		.sleb128 8
 2196 0188 00000000 		.4byte	0
 2197 018c 00000000 		.4byte	0
 2198              	.LLST2:
 2199 0190 C4000000 		.4byte	.LFB31-.Ltext0
 2200 0194 C6000000 		.4byte	.LCFI10-.Ltext0
 2201 0198 0200     		.2byte	0x2
 2202 019a 7D       		.byte	0x7d
 2203 019b 00       		.sleb128 0
 2204 019c C6000000 		.4byte	.LCFI10-.Ltext0
 2205 01a0 C8000000 		.4byte	.LCFI11-.Ltext0
 2206 01a4 0200     		.2byte	0x2
 2207 01a6 7D       		.byte	0x7d
 2208 01a7 08       		.sleb128 8
 2209 01a8 C8000000 		.4byte	.LCFI11-.Ltext0
 2210 01ac CA000000 		.4byte	.LCFI12-.Ltext0
 2211 01b0 0200     		.2byte	0x2
 2212 01b2 7D       		.byte	0x7d
 2213 01b3 10       		.sleb128 16
 2214 01b4 CA000000 		.4byte	.LCFI12-.Ltext0
 2215 01b8 EE000000 		.4byte	.LCFI13-.Ltext0
 2216 01bc 0200     		.2byte	0x2
 2217 01be 77       		.byte	0x77
 2218 01bf 10       		.sleb128 16
 2219 01c0 EE000000 		.4byte	.LCFI13-.Ltext0
 2220 01c4 F0000000 		.4byte	.LCFI14-.Ltext0
 2221 01c8 0200     		.2byte	0x2
 2222 01ca 77       		.byte	0x77
 2223 01cb 08       		.sleb128 8
 2224 01cc F0000000 		.4byte	.LCFI14-.Ltext0
 2225 01d0 F2000000 		.4byte	.LFE31-.Ltext0
 2226 01d4 0200     		.2byte	0x2
 2227 01d6 7D       		.byte	0x7d
ARM GAS  G:\Users\Jaxb\AppData\Local\Temp\ccfTfaEf.s 			page 44


 2228 01d7 08       		.sleb128 8
 2229 01d8 00000000 		.4byte	0
 2230 01dc 00000000 		.4byte	0
 2231              	.LLST1:
 2232 01e0 2E000000 		.4byte	.LFB30-.Ltext0
 2233 01e4 30000000 		.4byte	.LCFI5-.Ltext0
 2234 01e8 0200     		.2byte	0x2
 2235 01ea 7D       		.byte	0x7d
 2236 01eb 00       		.sleb128 0
 2237 01ec 30000000 		.4byte	.LCFI5-.Ltext0
 2238 01f0 32000000 		.4byte	.LCFI6-.Ltext0
 2239 01f4 0200     		.2byte	0x2
 2240 01f6 7D       		.byte	0x7d
 2241 01f7 08       		.sleb128 8
 2242 01f8 32000000 		.4byte	.LCFI6-.Ltext0
 2243 01fc 34000000 		.4byte	.LCFI7-.Ltext0
 2244 0200 0200     		.2byte	0x2
 2245 0202 7D       		.byte	0x7d
 2246 0203 20       		.sleb128 32
 2247 0204 34000000 		.4byte	.LCFI7-.Ltext0
 2248 0208 B6000000 		.4byte	.LCFI8-.Ltext0
 2249 020c 0200     		.2byte	0x2
 2250 020e 77       		.byte	0x77
 2251 020f 20       		.sleb128 32
 2252 0210 B6000000 		.4byte	.LCFI8-.Ltext0
 2253 0214 B8000000 		.4byte	.LCFI9-.Ltext0
 2254 0218 0200     		.2byte	0x2
 2255 021a 77       		.byte	0x77
 2256 021b 08       		.sleb128 8
 2257 021c B8000000 		.4byte	.LCFI9-.Ltext0
 2258 0220 C4000000 		.4byte	.LFE30-.Ltext0
 2259 0224 0200     		.2byte	0x2
 2260 0226 7D       		.byte	0x7d
 2261 0227 08       		.sleb128 8
 2262 0228 00000000 		.4byte	0
 2263 022c 00000000 		.4byte	0
 2264              	.LLST0:
 2265 0230 00000000 		.4byte	.LFB29-.Ltext0
 2266 0234 02000000 		.4byte	.LCFI0-.Ltext0
 2267 0238 0200     		.2byte	0x2
 2268 023a 7D       		.byte	0x7d
 2269 023b 00       		.sleb128 0
 2270 023c 02000000 		.4byte	.LCFI0-.Ltext0
 2271 0240 04000000 		.4byte	.LCFI1-.Ltext0
 2272 0244 0200     		.2byte	0x2
 2273 0246 7D       		.byte	0x7d
 2274 0247 08       		.sleb128 8
 2275 0248 04000000 		.4byte	.LCFI1-.Ltext0
 2276 024c 06000000 		.4byte	.LCFI2-.Ltext0
 2277 0250 0200     		.2byte	0x2
 2278 0252 7D       		.byte	0x7d
 2279 0253 10       		.sleb128 16
 2280 0254 06000000 		.4byte	.LCFI2-.Ltext0
 2281 0258 2A000000 		.4byte	.LCFI3-.Ltext0
 2282 025c 0200     		.2byte	0x2
 2283 025e 77       		.byte	0x77
 2284 025f 10       		.sleb128 16
ARM GAS  G:\Users\Jaxb\AppData\Local\Temp\ccfTfaEf.s 			page 45


 2285 0260 2A000000 		.4byte	.LCFI3-.Ltext0
 2286 0264 2C000000 		.4byte	.LCFI4-.Ltext0
 2287 0268 0200     		.2byte	0x2
 2288 026a 77       		.byte	0x77
 2289 026b 08       		.sleb128 8
 2290 026c 2C000000 		.4byte	.LCFI4-.Ltext0
 2291 0270 2E000000 		.4byte	.LFE29-.Ltext0
 2292 0274 0200     		.2byte	0x2
 2293 0276 7D       		.byte	0x7d
 2294 0277 08       		.sleb128 8
 2295 0278 00000000 		.4byte	0
 2296 027c 00000000 		.4byte	0
 2297              		.section	.debug_aranges,"",%progbits
 2298 0000 1C000000 		.4byte	0x1c
 2299 0004 0200     		.2byte	0x2
 2300 0006 00000000 		.4byte	.Ldebug_info0
 2301 000a 04       		.byte	0x4
 2302 000b 00       		.byte	0
 2303 000c 0000     		.2byte	0
 2304 000e 0000     		.2byte	0
 2305 0010 00000000 		.4byte	.Ltext0
 2306 0014 A0020000 		.4byte	.Letext0-.Ltext0
 2307 0018 00000000 		.4byte	0
 2308 001c 00000000 		.4byte	0
 2309              		.section	.debug_line,"",%progbits
 2310              	.Ldebug_line0:
 2311 0000 F7010000 		.section	.debug_str,"MS",%progbits,1
 2311      02005201 
 2311      00000201 
 2311      FB0E0D00 
 2311      01010101 
 2312              	.LASF28:
 2313 0000 5553425F 		.ascii	"USB_LP_CAN1_RX0_IRQn\000"
 2313      4C505F43 
 2313      414E315F 
 2313      5258305F 
 2313      4952516E 
 2314              	.LASF84:
 2315 0015 53797374 		.ascii	"SystemCoreClock\000"
 2315      656D436F 
 2315      7265436C 
 2315      6F636B00 
 2316              	.LASF89:
 2317 0025 42535252 		.ascii	"BSRR\000"
 2317      00
 2318              	.LASF57:
 2319 002a 5344494F 		.ascii	"SDIO_IRQn\000"
 2319      5F495251 
 2319      6E00
 2320              	.LASF116:
 2321 0034 4750494F 		.ascii	"GPIO_Mode\000"
 2321      5F4D6F64 
 2321      6500
 2322              	.LASF30:
 2323 003e 43414E31 		.ascii	"CAN1_SCE_IRQn\000"
 2323      5F534345 
 2323      5F495251 
ARM GAS  G:\Users\Jaxb\AppData\Local\Temp\ccfTfaEf.s 			page 46


 2323      6E00
 2324              	.LASF146:
 2325 004c 463A5C6B 		.ascii	"F:\\kaka\\KAKAOS\\C\\windows\\Project\\RVMDK\243\250"
 2325      616B615C 
 2325      4B414B41 
 2325      4F535C43 
 2325      5C77696E 
 2326 0074 757635A3 		.ascii	"uv5\243\251\000"
 2326      A900
 2327              	.LASF25:
 2328 007a 444D4131 		.ascii	"DMA1_Channel7_IRQn\000"
 2328      5F436861 
 2328      6E6E656C 
 2328      375F4952 
 2328      516E00
 2329              	.LASF42:
 2330 008d 49324332 		.ascii	"I2C2_ER_IRQn\000"
 2330      5F45525F 
 2330      4952516E 
 2330      00
 2331              	.LASF38:
 2332 009a 54494D34 		.ascii	"TIM4_IRQn\000"
 2332      5F495251 
 2332      6E00
 2333              	.LASF20:
 2334 00a4 444D4131 		.ascii	"DMA1_Channel2_IRQn\000"
 2334      5F436861 
 2334      6E6E656C 
 2334      325F4952 
 2334      516E00
 2335              	.LASF79:
 2336 00b7 756E7369 		.ascii	"unsigned int\000"
 2336      676E6564 
 2336      20696E74 
 2336      00
 2337              	.LASF88:
 2338 00c4 46756E63 		.ascii	"FunctionalState\000"
 2338      74696F6E 
 2338      616C5374 
 2338      61746500 
 2339              	.LASF12:
 2340 00d4 464C4153 		.ascii	"FLASH_IRQn\000"
 2340      485F4952 
 2340      516E00
 2341              	.LASF14:
 2342 00df 45585449 		.ascii	"EXTI0_IRQn\000"
 2342      305F4952 
 2342      516E00
 2343              	.LASF113:
 2344 00ea 4750494F 		.ascii	"GPIOMode_TypeDef\000"
 2344      4D6F6465 
 2344      5F547970 
 2344      65446566 
 2344      00
 2345              	.LASF48:
 2346 00fb 45585449 		.ascii	"EXTI15_10_IRQn\000"
 2346      31355F31 
ARM GAS  G:\Users\Jaxb\AppData\Local\Temp\ccfTfaEf.s 			page 47


 2346      305F4952 
 2346      516E00
 2347              	.LASF120:
 2348 010a 55534152 		.ascii	"USART_StopBits\000"
 2348      545F5374 
 2348      6F704269 
 2348      747300
 2349              	.LASF6:
 2350 0119 50656E64 		.ascii	"PendSV_IRQn\000"
 2350      53565F49 
 2350      52516E00 
 2351              	.LASF60:
 2352 0125 55415254 		.ascii	"UART4_IRQn\000"
 2352      345F4952 
 2352      516E00
 2353              	.LASF13:
 2354 0130 5243435F 		.ascii	"RCC_IRQn\000"
 2354      4952516E 
 2354      00
 2355              	.LASF98:
 2356 0139 47545052 		.ascii	"GTPR\000"
 2356      00
 2357              	.LASF1:
 2358 013e 4D656D6F 		.ascii	"MemoryManagement_IRQn\000"
 2358      72794D61 
 2358      6E616765 
 2358      6D656E74 
 2358      5F495251 
 2359              	.LASF134:
 2360 0154 55736172 		.ascii	"Usart_SendString\000"
 2360      745F5365 
 2360      6E645374 
 2360      72696E67 
 2360      00
 2361              	.LASF130:
 2362 0165 70555341 		.ascii	"pUSARTx\000"
 2362      52547800 
 2363              	.LASF82:
 2364 016d 75696E74 		.ascii	"uint32_t\000"
 2364      33325F74 
 2364      00
 2365              	.LASF118:
 2366 0176 55534152 		.ascii	"USART_BaudRate\000"
 2366      545F4261 
 2366      75645261 
 2366      746500
 2367              	.LASF131:
 2368 0185 74656D70 		.ascii	"temp_h\000"
 2368      5F6800
 2369              	.LASF132:
 2370 018c 74656D70 		.ascii	"temp_l\000"
 2370      5F6C00
 2371              	.LASF32:
 2372 0193 54494D31 		.ascii	"TIM1_BRK_IRQn\000"
 2372      5F42524B 
 2372      5F495251 
 2372      6E00
ARM GAS  G:\Users\Jaxb\AppData\Local\Temp\ccfTfaEf.s 			page 48


 2373              	.LASF129:
 2374 01a1 4E564943 		.ascii	"NVIC_InitTypeDef\000"
 2374      5F496E69 
 2374      74547970 
 2374      65446566 
 2374      00
 2375              	.LASF43:
 2376 01b2 53504931 		.ascii	"SPI1_IRQn\000"
 2376      5F495251 
 2376      6E00
 2377              	.LASF62:
 2378 01bc 54494D36 		.ascii	"TIM6_IRQn\000"
 2378      5F495251 
 2378      6E00
 2379              	.LASF22:
 2380 01c6 444D4131 		.ascii	"DMA1_Channel4_IRQn\000"
 2380      5F436861 
 2380      6E6E656C 
 2380      345F4952 
 2380      516E00
 2381              	.LASF78:
 2382 01d9 6C6F6E67 		.ascii	"long long unsigned int\000"
 2382      206C6F6E 
 2382      6720756E 
 2382      7369676E 
 2382      65642069 
 2383              	.LASF85:
 2384 01f0 52455345 		.ascii	"RESET\000"
 2384      5400
 2385              	.LASF72:
 2386 01f6 5F5F7569 		.ascii	"__uint16_t\000"
 2386      6E743136 
 2386      5F7400
 2387              	.LASF29:
 2388 0201 43414E31 		.ascii	"CAN1_RX1_IRQn\000"
 2388      5F525831 
 2388      5F495251 
 2388      6E00
 2389              	.LASF119:
 2390 020f 55534152 		.ascii	"USART_WordLength\000"
 2390      545F576F 
 2390      72644C65 
 2390      6E677468 
 2390      00
 2391              	.LASF107:
 2392 0220 4750494F 		.ascii	"GPIO_Mode_IPD\000"
 2392      5F4D6F64 
 2392      655F4950 
 2392      4400
 2393              	.LASF108:
 2394 022e 4750494F 		.ascii	"GPIO_Mode_IPU\000"
 2394      5F4D6F64 
 2394      655F4950 
 2394      5500
 2395              	.LASF27:
 2396 023c 5553425F 		.ascii	"USB_HP_CAN1_TX_IRQn\000"
 2396      48505F43 
ARM GAS  G:\Users\Jaxb\AppData\Local\Temp\ccfTfaEf.s 			page 49


 2396      414E315F 
 2396      54585F49 
 2396      52516E00 
 2397              	.LASF46:
 2398 0250 55534152 		.ascii	"USART2_IRQn\000"
 2398      54325F49 
 2398      52516E00 
 2399              	.LASF123:
 2400 025c 55534152 		.ascii	"USART_HardwareFlowControl\000"
 2400      545F4861 
 2400      72647761 
 2400      7265466C 
 2400      6F77436F 
 2401              	.LASF109:
 2402 0276 4750494F 		.ascii	"GPIO_Mode_Out_OD\000"
 2402      5F4D6F64 
 2402      655F4F75 
 2402      745F4F44 
 2402      00
 2403              	.LASF128:
 2404 0287 4E564943 		.ascii	"NVIC_IRQChannelCmd\000"
 2404      5F495251 
 2404      4368616E 
 2404      6E656C43 
 2404      6D6400
 2405              	.LASF100:
 2406 029a 55534152 		.ascii	"USART_TypeDef\000"
 2406      545F5479 
 2406      70654465 
 2406      6600
 2407              	.LASF16:
 2408 02a8 45585449 		.ascii	"EXTI2_IRQn\000"
 2408      325F4952 
 2408      516E00
 2409              	.LASF41:
 2410 02b3 49324332 		.ascii	"I2C2_EV_IRQn\000"
 2410      5F45565F 
 2410      4952516E 
 2410      00
 2411              	.LASF141:
 2412 02c0 55534152 		.ascii	"USART_InitStructure\000"
 2412      545F496E 
 2412      69745374 
 2412      72756374 
 2412      75726500 
 2413              	.LASF59:
 2414 02d4 53504933 		.ascii	"SPI3_IRQn\000"
 2414      5F495251 
 2414      6E00
 2415              	.LASF86:
 2416 02de 44495341 		.ascii	"DISABLE\000"
 2416      424C4500 
 2417              	.LASF110:
 2418 02e6 4750494F 		.ascii	"GPIO_Mode_Out_PP\000"
 2418      5F4D6F64 
 2418      655F4F75 
 2418      745F5050 
ARM GAS  G:\Users\Jaxb\AppData\Local\Temp\ccfTfaEf.s 			page 50


 2418      00
 2419              	.LASF135:
 2420 02f7 63686172 		.ascii	"char\000"
 2420      00
 2421              	.LASF24:
 2422 02fc 444D4131 		.ascii	"DMA1_Channel6_IRQn\000"
 2422      5F436861 
 2422      6E6E656C 
 2422      365F4952 
 2422      516E00
 2423              	.LASF142:
 2424 030f 4E564943 		.ascii	"NVIC_InitStructure\000"
 2424      5F496E69 
 2424      74537472 
 2424      75637475 
 2424      726500
 2425              	.LASF64:
 2426 0322 444D4132 		.ascii	"DMA2_Channel1_IRQn\000"
 2426      5F436861 
 2426      6E6E656C 
 2426      315F4952 
 2426      516E00
 2427              	.LASF37:
 2428 0335 54494D33 		.ascii	"TIM3_IRQn\000"
 2428      5F495251 
 2428      6E00
 2429              	.LASF19:
 2430 033f 444D4131 		.ascii	"DMA1_Channel1_IRQn\000"
 2430      5F436861 
 2430      6E6E656C 
 2430      315F4952 
 2430      516E00
 2431              	.LASF122:
 2432 0352 55534152 		.ascii	"USART_Mode\000"
 2432      545F4D6F 
 2432      646500
 2433              	.LASF80:
 2434 035d 75696E74 		.ascii	"uint8_t\000"
 2434      385F7400 
 2435              	.LASF50:
 2436 0365 55534257 		.ascii	"USBWakeUp_IRQn\000"
 2436      616B6555 
 2436      705F4952 
 2436      516E00
 2437              	.LASF77:
 2438 0374 6C6F6E67 		.ascii	"long long int\000"
 2438      206C6F6E 
 2438      6720696E 
 2438      7400
 2439              	.LASF8:
 2440 0382 57574447 		.ascii	"WWDG_IRQn\000"
 2440      5F495251 
 2440      6E00
 2441              	.LASF136:
 2442 038c 55736172 		.ascii	"Usart_SendArray\000"
 2442      745F5365 
 2442      6E644172 
ARM GAS  G:\Users\Jaxb\AppData\Local\Temp\ccfTfaEf.s 			page 51


 2442      72617900 
 2443              	.LASF144:
 2444 039c 474E5520 		.ascii	"GNU C11 7.3.1 20180622 (release) [ARM/embedded-7-br"
 2444      43313120 
 2444      372E332E 
 2444      31203230 
 2444      31383036 
 2445 03cf 616E6368 		.ascii	"anch revision 261907] -mcpu=cortex-m3 -mthumb -mapc"
 2445      20726576 
 2445      6973696F 
 2445      6E203236 
 2445      31393037 
 2446 0402 732D6672 		.ascii	"s-frame -mthumb-interwork -mcpu=cortex-m3 -mthumb -"
 2446      616D6520 
 2446      2D6D7468 
 2446      756D622D 
 2446      696E7465 
 2447 0435 67647761 		.ascii	"gdwarf-2 -O0\000"
 2447      72662D32 
 2447      202D4F30 
 2447      00
 2448              	.LASF2:
 2449 0442 42757346 		.ascii	"BusFault_IRQn\000"
 2449      61756C74 
 2449      5F495251 
 2449      6E00
 2450              	.LASF127:
 2451 0450 4E564943 		.ascii	"NVIC_IRQChannelSubPriority\000"
 2451      5F495251 
 2451      4368616E 
 2451      6E656C53 
 2451      75625072 
 2452              	.LASF18:
 2453 046b 45585449 		.ascii	"EXTI4_IRQn\000"
 2453      345F4952 
 2453      516E00
 2454              	.LASF148:
 2455 0476 4E564943 		.ascii	"NVIC2_Configuration\000"
 2455      325F436F 
 2455      6E666967 
 2455      75726174 
 2455      696F6E00 
 2456              	.LASF140:
 2457 048a 4750494F 		.ascii	"GPIO_InitStructure\000"
 2457      5F496E69 
 2457      74537472 
 2457      75637475 
 2457      726500
 2458              	.LASF55:
 2459 049d 41444333 		.ascii	"ADC3_IRQn\000"
 2459      5F495251 
 2459      6E00
 2460              	.LASF9:
 2461 04a7 5056445F 		.ascii	"PVD_IRQn\000"
 2461      4952516E 
 2461      00
 2462              	.LASF125:
ARM GAS  G:\Users\Jaxb\AppData\Local\Temp\ccfTfaEf.s 			page 52


 2463 04b0 4E564943 		.ascii	"NVIC_IRQChannel\000"
 2463      5F495251 
 2463      4368616E 
 2463      6E656C00 
 2464              	.LASF66:
 2465 04c0 444D4132 		.ascii	"DMA2_Channel3_IRQn\000"
 2465      5F436861 
 2465      6E6E656C 
 2465      335F4952 
 2465      516E00
 2466              	.LASF58:
 2467 04d3 54494D35 		.ascii	"TIM5_IRQn\000"
 2467      5F495251 
 2467      6E00
 2468              	.LASF21:
 2469 04dd 444D4131 		.ascii	"DMA1_Channel3_IRQn\000"
 2469      5F436861 
 2469      6E6E656C 
 2469      335F4952 
 2469      516E00
 2470              	.LASF53:
 2471 04f0 54494D38 		.ascii	"TIM8_TRG_COM_IRQn\000"
 2471      5F545247 
 2471      5F434F4D 
 2471      5F495251 
 2471      6E00
 2472              	.LASF111:
 2473 0502 4750494F 		.ascii	"GPIO_Mode_AF_OD\000"
 2473      5F4D6F64 
 2473      655F4146 
 2473      5F4F4400 
 2474              	.LASF39:
 2475 0512 49324331 		.ascii	"I2C1_EV_IRQn\000"
 2475      5F45565F 
 2475      4952516E 
 2475      00
 2476              	.LASF137:
 2477 051f 61727261 		.ascii	"array\000"
 2477      7900
 2478              	.LASF138:
 2479 0525 55736172 		.ascii	"Usart_SendByte\000"
 2479      745F5365 
 2479      6E644279 
 2479      746500
 2480              	.LASF81:
 2481 0534 75696E74 		.ascii	"uint16_t\000"
 2481      31365F74 
 2481      00
 2482              	.LASF147:
 2483 053d 4952516E 		.ascii	"IRQn\000"
 2483      00
 2484              	.LASF33:
 2485 0542 54494D31 		.ascii	"TIM1_UP_IRQn\000"
 2485      5F55505F 
 2485      4952516E 
 2485      00
 2486              	.LASF101:
ARM GAS  G:\Users\Jaxb\AppData\Local\Temp\ccfTfaEf.s 			page 53


 2487 054f 4750494F 		.ascii	"GPIO_Speed_10MHz\000"
 2487      5F537065 
 2487      65645F31 
 2487      304D487A 
 2487      00
 2488              	.LASF52:
 2489 0560 54494D38 		.ascii	"TIM8_UP_IRQn\000"
 2489      5F55505F 
 2489      4952516E 
 2489      00
 2490              	.LASF104:
 2491 056d 4750494F 		.ascii	"GPIOSpeed_TypeDef\000"
 2491      53706565 
 2491      645F5479 
 2491      70654465 
 2491      6600
 2492              	.LASF11:
 2493 057f 5254435F 		.ascii	"RTC_IRQn\000"
 2493      4952516E 
 2493      00
 2494              	.LASF133:
 2495 0588 55736172 		.ascii	"Usart_SendHalfWord\000"
 2495      745F5365 
 2495      6E644861 
 2495      6C66576F 
 2495      726400
 2496              	.LASF92:
 2497 059b 52455345 		.ascii	"RESERVED0\000"
 2497      52564544 
 2497      3000
 2498              	.LASF93:
 2499 05a5 52455345 		.ascii	"RESERVED1\000"
 2499      52564544 
 2499      3100
 2500              	.LASF94:
 2501 05af 52455345 		.ascii	"RESERVED2\000"
 2501      52564544 
 2501      3200
 2502              	.LASF95:
 2503 05b9 52455345 		.ascii	"RESERVED3\000"
 2503      52564544 
 2503      3300
 2504              	.LASF96:
 2505 05c3 52455345 		.ascii	"RESERVED4\000"
 2505      52564544 
 2505      3400
 2506              	.LASF97:
 2507 05cd 52455345 		.ascii	"RESERVED5\000"
 2507      52564544 
 2507      3500
 2508              	.LASF99:
 2509 05d7 52455345 		.ascii	"RESERVED6\000"
 2509      52564544 
 2509      3600
 2510              	.LASF70:
 2511 05e1 73686F72 		.ascii	"short int\000"
 2511      7420696E 
ARM GAS  G:\Users\Jaxb\AppData\Local\Temp\ccfTfaEf.s 			page 54


 2511      7400
 2512              	.LASF112:
 2513 05eb 4750494F 		.ascii	"GPIO_Mode_AF_PP\000"
 2513      5F4D6F64 
 2513      655F4146 
 2513      5F505000 
 2514              	.LASF74:
 2515 05fb 6C6F6E67 		.ascii	"long int\000"
 2515      20696E74 
 2515      00
 2516              	.LASF45:
 2517 0604 55534152 		.ascii	"USART1_IRQn\000"
 2517      54315F49 
 2517      52516E00 
 2518              	.LASF61:
 2519 0610 55415254 		.ascii	"UART5_IRQn\000"
 2519      355F4952 
 2519      516E00
 2520              	.LASF83:
 2521 061b 49544D5F 		.ascii	"ITM_RxBuffer\000"
 2521      52784275 
 2521      66666572 
 2521      00
 2522              	.LASF0:
 2523 0628 4E6F6E4D 		.ascii	"NonMaskableInt_IRQn\000"
 2523      61736B61 
 2523      626C6549 
 2523      6E745F49 
 2523      52516E00 
 2524              	.LASF114:
 2525 063c 4750494F 		.ascii	"GPIO_Pin\000"
 2525      5F50696E 
 2525      00
 2526              	.LASF35:
 2527 0645 54494D31 		.ascii	"TIM1_CC_IRQn\000"
 2527      5F43435F 
 2527      4952516E 
 2527      00
 2528              	.LASF54:
 2529 0652 54494D38 		.ascii	"TIM8_CC_IRQn\000"
 2529      5F43435F 
 2529      4952516E 
 2529      00
 2530              	.LASF56:
 2531 065f 46534D43 		.ascii	"FSMC_IRQn\000"
 2531      5F495251 
 2531      6E00
 2532              	.LASF15:
 2533 0669 45585449 		.ascii	"EXTI1_IRQn\000"
 2533      315F4952 
 2533      516E00
 2534              	.LASF34:
 2535 0674 54494D31 		.ascii	"TIM1_TRG_COM_IRQn\000"
 2535      5F545247 
 2535      5F434F4D 
 2535      5F495251 
 2535      6E00
ARM GAS  G:\Users\Jaxb\AppData\Local\Temp\ccfTfaEf.s 			page 55


 2536              	.LASF91:
 2537 0686 4750494F 		.ascii	"GPIO_TypeDef\000"
 2537      5F547970 
 2537      65446566 
 2537      00
 2538              	.LASF40:
 2539 0693 49324331 		.ascii	"I2C1_ER_IRQn\000"
 2539      5F45525F 
 2539      4952516E 
 2539      00
 2540              	.LASF7:
 2541 06a0 53797354 		.ascii	"SysTick_IRQn\000"
 2541      69636B5F 
 2541      4952516E 
 2541      00
 2542              	.LASF87:
 2543 06ad 454E4142 		.ascii	"ENABLE\000"
 2543      4C4500
 2544              	.LASF76:
 2545 06b4 6C6F6E67 		.ascii	"long unsigned int\000"
 2545      20756E73 
 2545      69676E65 
 2545      6420696E 
 2545      7400
 2546              	.LASF36:
 2547 06c6 54494D32 		.ascii	"TIM2_IRQn\000"
 2547      5F495251 
 2547      6E00
 2548              	.LASF5:
 2549 06d0 44656275 		.ascii	"DebugMonitor_IRQn\000"
 2549      674D6F6E 
 2549      69746F72 
 2549      5F495251 
 2549      6E00
 2550              	.LASF3:
 2551 06e2 55736167 		.ascii	"UsageFault_IRQn\000"
 2551      65466175 
 2551      6C745F49 
 2551      52516E00 
 2552              	.LASF117:
 2553 06f2 4750494F 		.ascii	"GPIO_InitTypeDef\000"
 2553      5F496E69 
 2553      74547970 
 2553      65446566 
 2553      00
 2554              	.LASF69:
 2555 0703 756E7369 		.ascii	"unsigned char\000"
 2555      676E6564 
 2555      20636861 
 2555      7200
 2556              	.LASF139:
 2557 0711 55534152 		.ascii	"USART2_Config\000"
 2557      54325F43 
 2557      6F6E6669 
 2557      6700
 2558              	.LASF75:
 2559 071f 5F5F7569 		.ascii	"__uint32_t\000"
ARM GAS  G:\Users\Jaxb\AppData\Local\Temp\ccfTfaEf.s 			page 56


 2559      6E743332 
 2559      5F7400
 2560              	.LASF105:
 2561 072a 4750494F 		.ascii	"GPIO_Mode_AIN\000"
 2561      5F4D6F64 
 2561      655F4149 
 2561      4E00
 2562              	.LASF103:
 2563 0738 4750494F 		.ascii	"GPIO_Speed_50MHz\000"
 2563      5F537065 
 2563      65645F35 
 2563      304D487A 
 2563      00
 2564              	.LASF31:
 2565 0749 45585449 		.ascii	"EXTI9_5_IRQn\000"
 2565      395F355F 
 2565      4952516E 
 2565      00
 2566              	.LASF4:
 2567 0756 53564361 		.ascii	"SVCall_IRQn\000"
 2567      6C6C5F49 
 2567      52516E00 
 2568              	.LASF102:
 2569 0762 4750494F 		.ascii	"GPIO_Speed_2MHz\000"
 2569      5F537065 
 2569      65645F32 
 2569      4D487A00 
 2570              	.LASF145:
 2571 0772 2E2E2F2E 		.ascii	"../../source/src/kernel/OS_CPU/bsp/bsp_usart.c\000"
 2571      2E2F736F 
 2571      75726365 
 2571      2F737263 
 2571      2F6B6572 
 2572              	.LASF149:
 2573 07a1 4E564943 		.ascii	"NVIC_Configuration\000"
 2573      5F436F6E 
 2573      66696775 
 2573      72617469 
 2573      6F6E00
 2574              	.LASF124:
 2575 07b4 55534152 		.ascii	"USART_InitTypeDef\000"
 2575      545F496E 
 2575      69745479 
 2575      70654465 
 2575      6600
 2576              	.LASF44:
 2577 07c6 53504932 		.ascii	"SPI2_IRQn\000"
 2577      5F495251 
 2577      6E00
 2578              	.LASF63:
 2579 07d0 54494D37 		.ascii	"TIM7_IRQn\000"
 2579      5F495251 
 2579      6E00
 2580              	.LASF23:
 2581 07da 444D4131 		.ascii	"DMA1_Channel5_IRQn\000"
 2581      5F436861 
 2581      6E6E656C 
ARM GAS  G:\Users\Jaxb\AppData\Local\Temp\ccfTfaEf.s 			page 57


 2581      355F4952 
 2581      516E00
 2582              	.LASF121:
 2583 07ed 55534152 		.ascii	"USART_Parity\000"
 2583      545F5061 
 2583      72697479 
 2583      00
 2584              	.LASF143:
 2585 07fa 55534152 		.ascii	"USART_Config\000"
 2585      545F436F 
 2585      6E666967 
 2585      00
 2586              	.LASF71:
 2587 0807 5F5F7569 		.ascii	"__uint8_t\000"
 2587      6E74385F 
 2587      7400
 2588              	.LASF115:
 2589 0811 4750494F 		.ascii	"GPIO_Speed\000"
 2589      5F537065 
 2589      656400
 2590              	.LASF68:
 2591 081c 7369676E 		.ascii	"signed char\000"
 2591      65642063 
 2591      68617200 
 2592              	.LASF51:
 2593 0828 54494D38 		.ascii	"TIM8_BRK_IRQn\000"
 2593      5F42524B 
 2593      5F495251 
 2593      6E00
 2594              	.LASF73:
 2595 0836 73686F72 		.ascii	"short unsigned int\000"
 2595      7420756E 
 2595      7369676E 
 2595      65642069 
 2595      6E7400
 2596              	.LASF17:
 2597 0849 45585449 		.ascii	"EXTI3_IRQn\000"
 2597      335F4952 
 2597      516E00
 2598              	.LASF126:
 2599 0854 4E564943 		.ascii	"NVIC_IRQChannelPreemptionPriority\000"
 2599      5F495251 
 2599      4368616E 
 2599      6E656C50 
 2599      7265656D 
 2600              	.LASF67:
 2601 0876 444D4132 		.ascii	"DMA2_Channel4_5_IRQn\000"
 2601      5F436861 
 2601      6E6E656C 
 2601      345F355F 
 2601      4952516E 
 2602              	.LASF26:
 2603 088b 41444331 		.ascii	"ADC1_2_IRQn\000"
 2603      5F325F49 
 2603      52516E00 
 2604              	.LASF65:
 2605 0897 444D4132 		.ascii	"DMA2_Channel2_IRQn\000"
ARM GAS  G:\Users\Jaxb\AppData\Local\Temp\ccfTfaEf.s 			page 58


 2605      5F436861 
 2605      6E6E656C 
 2605      325F4952 
 2605      516E00
 2606              	.LASF106:
 2607 08aa 4750494F 		.ascii	"GPIO_Mode_IN_FLOATING\000"
 2607      5F4D6F64 
 2607      655F494E 
 2607      5F464C4F 
 2607      4154494E 
 2608              	.LASF47:
 2609 08c0 55534152 		.ascii	"USART3_IRQn\000"
 2609      54335F49 
 2609      52516E00 
 2610              	.LASF10:
 2611 08cc 54414D50 		.ascii	"TAMPER_IRQn\000"
 2611      45525F49 
 2611      52516E00 
 2612              	.LASF90:
 2613 08d8 4C434B52 		.ascii	"LCKR\000"
 2613      00
 2614              	.LASF49:
 2615 08dd 52544341 		.ascii	"RTCAlarm_IRQn\000"
 2615      6C61726D 
 2615      5F495251 
 2615      6E00
 2616              		.ident	"GCC: (GNU Tools for Arm Embedded Processors 7-2018-q2-update) 7.3.1 20180622 (release) [AR
ARM GAS  G:\Users\Jaxb\AppData\Local\Temp\ccfTfaEf.s 			page 59


DEFINED SYMBOLS
                            *ABS*:00000000 bsp_usart.c
G:\Users\Jaxb\AppData\Local\Temp\ccfTfaEf.s:15     .text:00000000 $t
G:\Users\Jaxb\AppData\Local\Temp\ccfTfaEf.s:21     .text:00000000 NVIC_Configuration
G:\Users\Jaxb\AppData\Local\Temp\ccfTfaEf.s:78     .text:0000002e USART_Config
G:\Users\Jaxb\AppData\Local\Temp\ccfTfaEf.s:175    .text:000000bc $d
G:\Users\Jaxb\AppData\Local\Temp\ccfTfaEf.s:180    .text:000000c4 $t
G:\Users\Jaxb\AppData\Local\Temp\ccfTfaEf.s:186    .text:000000c4 NVIC2_Configuration
G:\Users\Jaxb\AppData\Local\Temp\ccfTfaEf.s:242    .text:000000f2 USART2_Config
G:\Users\Jaxb\AppData\Local\Temp\ccfTfaEf.s:339    .text:0000017c $d
G:\Users\Jaxb\AppData\Local\Temp\ccfTfaEf.s:344    .text:00000184 $t
G:\Users\Jaxb\AppData\Local\Temp\ccfTfaEf.s:351    .text:00000184 Usart_SendByte
G:\Users\Jaxb\AppData\Local\Temp\ccfTfaEf.s:407    .text:000001b4 Usart_SendArray
G:\Users\Jaxb\AppData\Local\Temp\ccfTfaEf.s:482    .text:00000200 Usart_SendString
G:\Users\Jaxb\AppData\Local\Temp\ccfTfaEf.s:554    .text:00000248 Usart_SendHalfWord

UNDEFINED SYMBOLS
NVIC_PriorityGroupConfig
NVIC_Init
RCC_APB2PeriphClockCmd
GPIO_Init
USART_Init
USART_ITConfig
USART_Cmd
RCC_APB1PeriphClockCmd
USART_SendData
USART_GetFlagStatus
