ARM GAS  G:\Users\Jaxb\AppData\Local\Temp\ccHarggN.s 			page 1


   1              		.cpu cortex-m3
   2              		.eabi_attribute 20, 1
   3              		.eabi_attribute 21, 1
   4              		.eabi_attribute 23, 3
   5              		.eabi_attribute 24, 1
   6              		.eabi_attribute 25, 1
   7              		.eabi_attribute 26, 1
   8              		.eabi_attribute 30, 6
   9              		.eabi_attribute 34, 1
  10              		.eabi_attribute 18, 4
  11              		.file	"bsp_led.c"
  12              		.text
  13              	.Ltext0:
  14              		.cfi_sections	.debug_frame
  15              		.align	1
  16              		.global	LED_GPIO_Config
  17              		.syntax unified
  18              		.thumb
  19              		.thumb_func
  20              		.fpu softvfp
  21              		.type	LED_GPIO_Config, %function
  22              	LED_GPIO_Config:
  23              	.LFB29:
  24              		.file 1 "../../source/user/bsp_led.c"
   1:../../source/user/bsp_led.c **** /**
   2:../../source/user/bsp_led.c ****   ******************************************************************************
   3:../../source/user/bsp_led.c ****   * @file    bsp_led.c
   4:../../source/user/bsp_led.c ****   * @author  fire
   5:../../source/user/bsp_led.c ****   * @version V1.0
   6:../../source/user/bsp_led.c ****   * @date    2013-xx-xx
   7:../../source/user/bsp_led.c ****   * @brief   led应用函数接口
   8:../../source/user/bsp_led.c ****   ******************************************************************************
   9:../../source/user/bsp_led.c ****   * @attention
  10:../../source/user/bsp_led.c ****   *
  11:../../source/user/bsp_led.c ****   * 实验平台:秉火 F103-霸道 STM32 开发板 
  12:../../source/user/bsp_led.c ****   * 论坛    :http://www.firebbs.cn
  13:../../source/user/bsp_led.c ****   * 淘宝    :https://fire-stm32.taobao.com
  14:../../source/user/bsp_led.c ****   *
  15:../../source/user/bsp_led.c ****   ******************************************************************************
  16:../../source/user/bsp_led.c ****   */
  17:../../source/user/bsp_led.c ****   
  18:../../source/user/bsp_led.c **** #include "bsp_led.h"   
  19:../../source/user/bsp_led.c **** 
  20:../../source/user/bsp_led.c ****  /**
  21:../../source/user/bsp_led.c ****   * @brief  初始化控制LED的IO
  22:../../source/user/bsp_led.c ****   * @param  无
  23:../../source/user/bsp_led.c ****   * @retval 无
  24:../../source/user/bsp_led.c ****   */
  25:../../source/user/bsp_led.c **** void LED_GPIO_Config(void)
  26:../../source/user/bsp_led.c **** {		
  25              		.loc 1 26 0
  26              		.cfi_startproc
  27              		@ args = 0, pretend = 0, frame = 8
  28              		@ frame_needed = 1, uses_anonymous_args = 0
  29 0000 80B5     		push	{r7, lr}
  30              	.LCFI0:
  31              		.cfi_def_cfa_offset 8
ARM GAS  G:\Users\Jaxb\AppData\Local\Temp\ccHarggN.s 			page 2


  32              		.cfi_offset 7, -8
  33              		.cfi_offset 14, -4
  34 0002 82B0     		sub	sp, sp, #8
  35              	.LCFI1:
  36              		.cfi_def_cfa_offset 16
  37 0004 00AF     		add	r7, sp, #0
  38              	.LCFI2:
  39              		.cfi_def_cfa_register 7
  27:../../source/user/bsp_led.c **** 		/*定义一个GPIO_InitTypeDef类型的结构体*/
  28:../../source/user/bsp_led.c **** 		GPIO_InitTypeDef GPIO_InitStructure;
  29:../../source/user/bsp_led.c **** 
  30:../../source/user/bsp_led.c **** 		/*开启LED相关的GPIO外设时钟*/
  31:../../source/user/bsp_led.c **** 		RCC_APB2PeriphClockCmd( LED1_GPIO_CLK | LED2_GPIO_CLK | LED3_GPIO_CLK, ENABLE);
  40              		.loc 1 31 0
  41 0006 0121     		movs	r1, #1
  42 0008 0820     		movs	r0, #8
  43 000a FFF7FEFF 		bl	RCC_APB2PeriphClockCmd
  32:../../source/user/bsp_led.c **** 		/*选择要控制的GPIO引脚*/
  33:../../source/user/bsp_led.c **** 		GPIO_InitStructure.GPIO_Pin = LED1_GPIO_PIN;	
  44              		.loc 1 33 0
  45 000e 2023     		movs	r3, #32
  46 0010 BB80     		strh	r3, [r7, #4]	@ movhi
  34:../../source/user/bsp_led.c **** 
  35:../../source/user/bsp_led.c **** 		/*设置引脚模式为通用推挽输出*/
  36:../../source/user/bsp_led.c **** 		GPIO_InitStructure.GPIO_Mode = GPIO_Mode_Out_PP;   
  47              		.loc 1 36 0
  48 0012 1023     		movs	r3, #16
  49 0014 FB71     		strb	r3, [r7, #7]
  37:../../source/user/bsp_led.c **** 
  38:../../source/user/bsp_led.c **** 		/*设置引脚速率为50MHz */   
  39:../../source/user/bsp_led.c **** 		GPIO_InitStructure.GPIO_Speed = GPIO_Speed_50MHz; 
  50              		.loc 1 39 0
  51 0016 0323     		movs	r3, #3
  52 0018 BB71     		strb	r3, [r7, #6]
  40:../../source/user/bsp_led.c **** 
  41:../../source/user/bsp_led.c **** 		/*调用库函数，初始化GPIO*/
  42:../../source/user/bsp_led.c **** 		GPIO_Init(LED1_GPIO_PORT, &GPIO_InitStructure);	
  53              		.loc 1 42 0
  54 001a 3B1D     		adds	r3, r7, #4
  55 001c 1946     		mov	r1, r3
  56 001e 1048     		ldr	r0, .L2
  57 0020 FFF7FEFF 		bl	GPIO_Init
  43:../../source/user/bsp_led.c **** 		
  44:../../source/user/bsp_led.c **** 		/*选择要控制的GPIO引脚*/
  45:../../source/user/bsp_led.c **** 		GPIO_InitStructure.GPIO_Pin = LED2_GPIO_PIN;
  58              		.loc 1 45 0
  59 0024 0123     		movs	r3, #1
  60 0026 BB80     		strh	r3, [r7, #4]	@ movhi
  46:../../source/user/bsp_led.c **** 
  47:../../source/user/bsp_led.c **** 		/*调用库函数，初始化GPIO*/
  48:../../source/user/bsp_led.c **** 		GPIO_Init(LED2_GPIO_PORT, &GPIO_InitStructure);
  61              		.loc 1 48 0
  62 0028 3B1D     		adds	r3, r7, #4
  63 002a 1946     		mov	r1, r3
  64 002c 0C48     		ldr	r0, .L2
  65 002e FFF7FEFF 		bl	GPIO_Init
  49:../../source/user/bsp_led.c **** 		
ARM GAS  G:\Users\Jaxb\AppData\Local\Temp\ccHarggN.s 			page 3


  50:../../source/user/bsp_led.c **** 		/*选择要控制的GPIO引脚*/
  51:../../source/user/bsp_led.c **** 		GPIO_InitStructure.GPIO_Pin = LED3_GPIO_PIN;
  66              		.loc 1 51 0
  67 0032 0223     		movs	r3, #2
  68 0034 BB80     		strh	r3, [r7, #4]	@ movhi
  52:../../source/user/bsp_led.c **** 
  53:../../source/user/bsp_led.c **** 		/*调用库函数，初始化GPIOF*/
  54:../../source/user/bsp_led.c **** 		GPIO_Init(LED3_GPIO_PORT, &GPIO_InitStructure);
  69              		.loc 1 54 0
  70 0036 3B1D     		adds	r3, r7, #4
  71 0038 1946     		mov	r1, r3
  72 003a 0948     		ldr	r0, .L2
  73 003c FFF7FEFF 		bl	GPIO_Init
  55:../../source/user/bsp_led.c **** 
  56:../../source/user/bsp_led.c **** 		/* 关闭所有led灯	*/
  57:../../source/user/bsp_led.c **** 		GPIO_ResetBits(LED1_GPIO_PORT, LED1_GPIO_PIN);
  74              		.loc 1 57 0
  75 0040 2021     		movs	r1, #32
  76 0042 0748     		ldr	r0, .L2
  77 0044 FFF7FEFF 		bl	GPIO_ResetBits
  58:../../source/user/bsp_led.c **** 		
  59:../../source/user/bsp_led.c **** 		/* 关闭所有led灯	*/
  60:../../source/user/bsp_led.c **** 		GPIO_SetBits(LED2_GPIO_PORT, LED2_GPIO_PIN);	 
  78              		.loc 1 60 0
  79 0048 0121     		movs	r1, #1
  80 004a 0548     		ldr	r0, .L2
  81 004c FFF7FEFF 		bl	GPIO_SetBits
  61:../../source/user/bsp_led.c ****     
  62:../../source/user/bsp_led.c ****     /* 关闭所有led灯	*/
  63:../../source/user/bsp_led.c **** 		GPIO_SetBits(LED3_GPIO_PORT, LED3_GPIO_PIN);
  82              		.loc 1 63 0
  83 0050 0221     		movs	r1, #2
  84 0052 0348     		ldr	r0, .L2
  85 0054 FFF7FEFF 		bl	GPIO_SetBits
  64:../../source/user/bsp_led.c **** }
  86              		.loc 1 64 0
  87 0058 00BF     		nop
  88 005a 0837     		adds	r7, r7, #8
  89              	.LCFI3:
  90              		.cfi_def_cfa_offset 8
  91 005c BD46     		mov	sp, r7
  92              	.LCFI4:
  93              		.cfi_def_cfa_register 13
  94              		@ sp needed
  95 005e 80BD     		pop	{r7, pc}
  96              	.L3:
  97              		.align	2
  98              	.L2:
  99 0060 000C0140 		.word	1073810432
 100              		.cfi_endproc
 101              	.LFE29:
 102              		.size	LED_GPIO_Config, .-LED_GPIO_Config
 103              	.Letext0:
 104              		.file 2 "f:\\arm\\gcc2018\\arm-none-eabi\\include\\machine\\_default_types.h"
 105              		.file 3 "f:\\arm\\gcc2018\\arm-none-eabi\\include\\sys\\_stdint.h"
 106              		.file 4 "../../source/include/core_cm3.h"
 107              		.file 5 "../../source/include/system_stm32f10x.h"
ARM GAS  G:\Users\Jaxb\AppData\Local\Temp\ccHarggN.s 			page 4


 108              		.file 6 "../../source/include/stm32f10x.h"
 109              		.file 7 "../../source/src/FWlib/inc/stm32f10x_gpio.h"