ARM GAS  G:\Users\Jaxb\AppData\Local\Temp\ccYqEobM.s 			page 1


   1              		.cpu cortex-m3
   2              		.eabi_attribute 20, 1
   3              		.eabi_attribute 21, 1
   4              		.eabi_attribute 23, 3
   5              		.eabi_attribute 24, 1
   6              		.eabi_attribute 25, 1
   7              		.eabi_attribute 26, 1
   8              		.eabi_attribute 30, 2
   9              		.eabi_attribute 34, 1
  10              		.eabi_attribute 18, 4
  11              		.file	"bsp_usart.c"
  12              		.text
  13              	.Ltext0:
  14              		.cfi_sections	.debug_frame
  15              		.align	1
  16              		.p2align 2,,3
  17              		.global	USART_Config
  18              		.syntax unified
  19              		.thumb
  20              		.thumb_func
  21              		.fpu softvfp
  22              		.type	USART_Config, %function
  23              	USART_Config:
  24              	.LFB30:
  25              		.file 1 "../../source/src/user/OS_CPU/bsp/bsp_usart.c"
   1:../../source/src/user/OS_CPU/bsp/bsp_usart.c **** /**
   2:../../source/src/user/OS_CPU/bsp/bsp_usart.c ****   ******************************************************************************
   3:../../source/src/user/OS_CPU/bsp/bsp_usart.c ****   * @file    bsp_usart.c
   4:../../source/src/user/OS_CPU/bsp/bsp_usart.c ****   * @author  fire
   5:../../source/src/user/OS_CPU/bsp/bsp_usart.c ****   * @version V1.0
   6:../../source/src/user/OS_CPU/bsp/bsp_usart.c ****   * @date    2013-xx-xx
   7:../../source/src/user/OS_CPU/bsp/bsp_usart.c ****   * @brief   重定向c库printf函数到usart端口
   8:../../source/src/user/OS_CPU/bsp/bsp_usart.c ****   ******************************************************************************
   9:../../source/src/user/OS_CPU/bsp/bsp_usart.c ****   * @attention
  10:../../source/src/user/OS_CPU/bsp/bsp_usart.c ****   *
  11:../../source/src/user/OS_CPU/bsp/bsp_usart.c ****   * 实验平台:秉火STM32 F103-霸道 开发板  
  12:../../source/src/user/OS_CPU/bsp/bsp_usart.c ****   * 论坛    :http://www.firebbs.cn
  13:../../source/src/user/OS_CPU/bsp/bsp_usart.c ****   * 淘宝    :https://fire-stm32.taobao.com
  14:../../source/src/user/OS_CPU/bsp/bsp_usart.c ****   *
  15:../../source/src/user/OS_CPU/bsp/bsp_usart.c ****   ******************************************************************************
  16:../../source/src/user/OS_CPU/bsp/bsp_usart.c ****   */ 
  17:../../source/src/user/OS_CPU/bsp/bsp_usart.c **** 	
  18:../../source/src/user/OS_CPU/bsp/bsp_usart.c **** #include "bsp_usart.h"
  19:../../source/src/user/OS_CPU/bsp/bsp_usart.c **** 
  20:../../source/src/user/OS_CPU/bsp/bsp_usart.c ****  /**
  21:../../source/src/user/OS_CPU/bsp/bsp_usart.c ****   * @brief  配置嵌套向量中断控制器NVIC
  22:../../source/src/user/OS_CPU/bsp/bsp_usart.c ****   * @param  无
  23:../../source/src/user/OS_CPU/bsp/bsp_usart.c ****   * @retval 无
  24:../../source/src/user/OS_CPU/bsp/bsp_usart.c ****   */
  25:../../source/src/user/OS_CPU/bsp/bsp_usart.c **** static void NVIC_Configuration(void)
  26:../../source/src/user/OS_CPU/bsp/bsp_usart.c **** {
  27:../../source/src/user/OS_CPU/bsp/bsp_usart.c ****   NVIC_InitTypeDef NVIC_InitStructure;
  28:../../source/src/user/OS_CPU/bsp/bsp_usart.c ****   
  29:../../source/src/user/OS_CPU/bsp/bsp_usart.c ****   /* 嵌套向量中断控制器组选择 */
  30:../../source/src/user/OS_CPU/bsp/bsp_usart.c ****   NVIC_PriorityGroupConfig(NVIC_PriorityGroup_2);
  31:../../source/src/user/OS_CPU/bsp/bsp_usart.c ****   
  32:../../source/src/user/OS_CPU/bsp/bsp_usart.c ****   /* 配置USART为中断源 */
ARM GAS  G:\Users\Jaxb\AppData\Local\Temp\ccYqEobM.s 			page 2


  33:../../source/src/user/OS_CPU/bsp/bsp_usart.c ****   NVIC_InitStructure.NVIC_IRQChannel = DEBUG_USART_IRQ;
  34:../../source/src/user/OS_CPU/bsp/bsp_usart.c ****   /* 抢断优先级*/
  35:../../source/src/user/OS_CPU/bsp/bsp_usart.c ****   NVIC_InitStructure.NVIC_IRQChannelPreemptionPriority = 1;
  36:../../source/src/user/OS_CPU/bsp/bsp_usart.c ****   /* 子优先级 */
  37:../../source/src/user/OS_CPU/bsp/bsp_usart.c ****   NVIC_InitStructure.NVIC_IRQChannelSubPriority = 1;
  38:../../source/src/user/OS_CPU/bsp/bsp_usart.c ****   /* 使能中断 */
  39:../../source/src/user/OS_CPU/bsp/bsp_usart.c ****   NVIC_InitStructure.NVIC_IRQChannelCmd = ENABLE;
  40:../../source/src/user/OS_CPU/bsp/bsp_usart.c ****   /* 初始化配置NVIC */
  41:../../source/src/user/OS_CPU/bsp/bsp_usart.c ****   NVIC_Init(&NVIC_InitStructure);
  42:../../source/src/user/OS_CPU/bsp/bsp_usart.c **** }
  43:../../source/src/user/OS_CPU/bsp/bsp_usart.c **** 
  44:../../source/src/user/OS_CPU/bsp/bsp_usart.c ****  /**
  45:../../source/src/user/OS_CPU/bsp/bsp_usart.c ****   * @brief  USART GPIO 配置,工作参数配置
  46:../../source/src/user/OS_CPU/bsp/bsp_usart.c ****   * @param  无
  47:../../source/src/user/OS_CPU/bsp/bsp_usart.c ****   * @retval 无
  48:../../source/src/user/OS_CPU/bsp/bsp_usart.c ****   */
  49:../../source/src/user/OS_CPU/bsp/bsp_usart.c **** void USART_Config(void)
  50:../../source/src/user/OS_CPU/bsp/bsp_usart.c **** {
  26              		.loc 1 50 0
  27              		.cfi_startproc
  28              		@ args = 0, pretend = 0, frame = 24
  29              		@ frame_needed = 0, uses_anonymous_args = 0
  30 0000 30B5     		push	{r4, r5, lr}
  31              	.LCFI0:
  32              		.cfi_def_cfa_offset 12
  33              		.cfi_offset 4, -12
  34              		.cfi_offset 5, -8
  35              		.cfi_offset 14, -4
  51:../../source/src/user/OS_CPU/bsp/bsp_usart.c **** 	GPIO_InitTypeDef GPIO_InitStructure;
  52:../../source/src/user/OS_CPU/bsp/bsp_usart.c **** 	USART_InitTypeDef USART_InitStructure;
  53:../../source/src/user/OS_CPU/bsp/bsp_usart.c **** 
  54:../../source/src/user/OS_CPU/bsp/bsp_usart.c **** 	// 打开串口GPIO的时钟
  55:../../source/src/user/OS_CPU/bsp/bsp_usart.c **** 	DEBUG_USART_GPIO_APBxClkCmd(DEBUG_USART_GPIO_CLK, ENABLE);
  36              		.loc 1 55 0
  37 0002 0121     		movs	r1, #1
  50:../../source/src/user/OS_CPU/bsp/bsp_usart.c **** 	GPIO_InitTypeDef GPIO_InitStructure;
  38              		.loc 1 50 0
  39 0004 87B0     		sub	sp, sp, #28
  40              	.LCFI1:
  41              		.cfi_def_cfa_offset 40
  42              		.loc 1 55 0
  43 0006 0420     		movs	r0, #4
  44 0008 FFF7FEFF 		bl	RCC_APB2PeriphClockCmd
  45              	.LVL0:
  56:../../source/src/user/OS_CPU/bsp/bsp_usart.c **** 	
  57:../../source/src/user/OS_CPU/bsp/bsp_usart.c **** 	// 打开串口外设的时钟
  58:../../source/src/user/OS_CPU/bsp/bsp_usart.c **** 	DEBUG_USART_APBxClkCmd(DEBUG_USART_CLK, ENABLE);
  46              		.loc 1 58 0
  47 000c 0121     		movs	r1, #1
  48 000e 4FF48040 		mov	r0, #16384
  49 0012 FFF7FEFF 		bl	RCC_APB2PeriphClockCmd
  50              	.LVL1:
  59:../../source/src/user/OS_CPU/bsp/bsp_usart.c **** 
  60:../../source/src/user/OS_CPU/bsp/bsp_usart.c **** 	// 将USART Tx的GPIO配置为推挽复用模式
  61:../../source/src/user/OS_CPU/bsp/bsp_usart.c **** 	GPIO_InitStructure.GPIO_Pin = DEBUG_USART_TX_GPIO_PIN;
  51              		.loc 1 61 0
  52 0016 4FF40071 		mov	r1, #512
ARM GAS  G:\Users\Jaxb\AppData\Local\Temp\ccYqEobM.s 			page 3


  62:../../source/src/user/OS_CPU/bsp/bsp_usart.c **** 	GPIO_InitStructure.GPIO_Mode = GPIO_Mode_AF_PP;
  53              		.loc 1 62 0
  54 001a 1822     		movs	r2, #24
  63:../../source/src/user/OS_CPU/bsp/bsp_usart.c **** 	GPIO_InitStructure.GPIO_Speed = GPIO_Speed_50MHz;
  55              		.loc 1 63 0
  56 001c 0323     		movs	r3, #3
  64:../../source/src/user/OS_CPU/bsp/bsp_usart.c **** 	GPIO_Init(DEBUG_USART_TX_GPIO_PORT, &GPIO_InitStructure);
  57              		.loc 1 64 0
  58 001e 204C     		ldr	r4, .L3
  61:../../source/src/user/OS_CPU/bsp/bsp_usart.c **** 	GPIO_InitStructure.GPIO_Mode = GPIO_Mode_AF_PP;
  59              		.loc 1 61 0
  60 0020 ADF80010 		strh	r1, [sp]	@ movhi
  61              		.loc 1 64 0
  62 0024 2046     		mov	r0, r4
  63 0026 6946     		mov	r1, sp
  62:../../source/src/user/OS_CPU/bsp/bsp_usart.c **** 	GPIO_InitStructure.GPIO_Speed = GPIO_Speed_50MHz;
  64              		.loc 1 62 0
  65 0028 8DF80320 		strb	r2, [sp, #3]
  63:../../source/src/user/OS_CPU/bsp/bsp_usart.c **** 	GPIO_Init(DEBUG_USART_TX_GPIO_PORT, &GPIO_InitStructure);
  66              		.loc 1 63 0
  67 002c 8DF80230 		strb	r3, [sp, #2]
  68              		.loc 1 64 0
  69 0030 FFF7FEFF 		bl	GPIO_Init
  70              	.LVL2:
  65:../../source/src/user/OS_CPU/bsp/bsp_usart.c **** 
  66:../../source/src/user/OS_CPU/bsp/bsp_usart.c ****   // 将USART Rx的GPIO配置为浮空输入模式
  67:../../source/src/user/OS_CPU/bsp/bsp_usart.c **** 	GPIO_InitStructure.GPIO_Pin = DEBUG_USART_RX_GPIO_PIN;
  71              		.loc 1 67 0
  72 0034 4FF48062 		mov	r2, #1024
  68:../../source/src/user/OS_CPU/bsp/bsp_usart.c **** 	GPIO_InitStructure.GPIO_Mode = GPIO_Mode_IN_FLOATING;
  73              		.loc 1 68 0
  74 0038 0423     		movs	r3, #4
  69:../../source/src/user/OS_CPU/bsp/bsp_usart.c **** 	GPIO_Init(DEBUG_USART_RX_GPIO_PORT, &GPIO_InitStructure);
  75              		.loc 1 69 0
  76 003a 6946     		mov	r1, sp
  77 003c 2046     		mov	r0, r4
  67:../../source/src/user/OS_CPU/bsp/bsp_usart.c **** 	GPIO_InitStructure.GPIO_Mode = GPIO_Mode_IN_FLOATING;
  78              		.loc 1 67 0
  79 003e ADF80020 		strh	r2, [sp]	@ movhi
  68:../../source/src/user/OS_CPU/bsp/bsp_usart.c **** 	GPIO_InitStructure.GPIO_Mode = GPIO_Mode_IN_FLOATING;
  80              		.loc 1 68 0
  81 0042 8DF80330 		strb	r3, [sp, #3]
  70:../../source/src/user/OS_CPU/bsp/bsp_usart.c **** 	
  71:../../source/src/user/OS_CPU/bsp/bsp_usart.c **** 	// 配置串口的工作参数
  72:../../source/src/user/OS_CPU/bsp/bsp_usart.c **** 	// 配置波特率
  73:../../source/src/user/OS_CPU/bsp/bsp_usart.c **** 	USART_InitStructure.USART_BaudRate = DEBUG_USART_BAUDRATE;
  82              		.loc 1 73 0
  83 0046 4FF4E134 		mov	r4, #115200
  69:../../source/src/user/OS_CPU/bsp/bsp_usart.c **** 	
  84              		.loc 1 69 0
  85 004a FFF7FEFF 		bl	GPIO_Init
  86              	.LVL3:
  87              		.loc 1 73 0
  88 004e 0023     		movs	r3, #0
  74:../../source/src/user/OS_CPU/bsp/bsp_usart.c **** 	// 配置 针数据字长
  75:../../source/src/user/OS_CPU/bsp/bsp_usart.c **** 	USART_InitStructure.USART_WordLength = USART_WordLength_8b;
  76:../../source/src/user/OS_CPU/bsp/bsp_usart.c **** 	// 配置停止位
ARM GAS  G:\Users\Jaxb\AppData\Local\Temp\ccYqEobM.s 			page 4


  77:../../source/src/user/OS_CPU/bsp/bsp_usart.c **** 	USART_InitStructure.USART_StopBits = USART_StopBits_1;
  89              		.loc 1 77 0
  90 0050 4FF44022 		mov	r2, #786432
  78:../../source/src/user/OS_CPU/bsp/bsp_usart.c **** 	// 配置校验位
  79:../../source/src/user/OS_CPU/bsp/bsp_usart.c **** 	USART_InitStructure.USART_Parity = USART_Parity_No ;
  80:../../source/src/user/OS_CPU/bsp/bsp_usart.c **** 	// 配置硬件流控制
  81:../../source/src/user/OS_CPU/bsp/bsp_usart.c **** 	USART_InitStructure.USART_HardwareFlowControl = 
  82:../../source/src/user/OS_CPU/bsp/bsp_usart.c **** 	USART_HardwareFlowControl_None;
  83:../../source/src/user/OS_CPU/bsp/bsp_usart.c **** 	// 配置工作模式，收发一起
  84:../../source/src/user/OS_CPU/bsp/bsp_usart.c **** 	USART_InitStructure.USART_Mode = USART_Mode_Rx | USART_Mode_Tx;
  85:../../source/src/user/OS_CPU/bsp/bsp_usart.c **** 	// 完成串口的初始化配置
  86:../../source/src/user/OS_CPU/bsp/bsp_usart.c **** 	USART_Init(DEBUG_USARTx, &USART_InitStructure);
  91              		.loc 1 86 0
  92 0054 134D     		ldr	r5, .L3+4
  93 0056 02A9     		add	r1, sp, #8
  94 0058 2846     		mov	r0, r5
  73:../../source/src/user/OS_CPU/bsp/bsp_usart.c **** 	// 配置 针数据字长
  95              		.loc 1 73 0
  96 005a CDE90243 		strd	r4, r3, [sp, #8]
  77:../../source/src/user/OS_CPU/bsp/bsp_usart.c **** 	// 配置校验位
  97              		.loc 1 77 0
  98 005e 0492     		str	r2, [sp, #16]
  84:../../source/src/user/OS_CPU/bsp/bsp_usart.c **** 	// 完成串口的初始化配置
  99              		.loc 1 84 0
 100 0060 ADF81430 		strh	r3, [sp, #20]	@ movhi
 101              		.loc 1 86 0
 102 0064 FFF7FEFF 		bl	USART_Init
 103              	.LVL4:
 104              	.LBB4:
 105              	.LBB5:
  30:../../source/src/user/OS_CPU/bsp/bsp_usart.c ****   
 106              		.loc 1 30 0
 107 0068 4FF4A060 		mov	r0, #1280
 108 006c FFF7FEFF 		bl	NVIC_PriorityGroupConfig
 109              	.LVL5:
  35:../../source/src/user/OS_CPU/bsp/bsp_usart.c ****   /* 子优先级 */
 110              		.loc 1 35 0
 111 0070 0124     		movs	r4, #1
  33:../../source/src/user/OS_CPU/bsp/bsp_usart.c ****   /* 抢断优先级*/
 112              		.loc 1 33 0
 113 0072 40F22513 		movw	r3, #293
  41:../../source/src/user/OS_CPU/bsp/bsp_usart.c **** }
 114              		.loc 1 41 0
 115 0076 01A8     		add	r0, sp, #4
  33:../../source/src/user/OS_CPU/bsp/bsp_usart.c ****   /* 抢断优先级*/
 116              		.loc 1 33 0
 117 0078 ADF80430 		strh	r3, [sp, #4]	@ movhi
  35:../../source/src/user/OS_CPU/bsp/bsp_usart.c ****   /* 子优先级 */
 118              		.loc 1 35 0
 119 007c 8DF80640 		strb	r4, [sp, #6]
  39:../../source/src/user/OS_CPU/bsp/bsp_usart.c ****   /* 初始化配置NVIC */
 120              		.loc 1 39 0
 121 0080 8DF80740 		strb	r4, [sp, #7]
  41:../../source/src/user/OS_CPU/bsp/bsp_usart.c **** }
 122              		.loc 1 41 0
 123 0084 FFF7FEFF 		bl	NVIC_Init
 124              	.LVL6:
ARM GAS  G:\Users\Jaxb\AppData\Local\Temp\ccYqEobM.s 			page 5


 125              	.LBE5:
 126              	.LBE4:
  87:../../source/src/user/OS_CPU/bsp/bsp_usart.c **** 	
  88:../../source/src/user/OS_CPU/bsp/bsp_usart.c **** 	// 串口中断优先级配置
  89:../../source/src/user/OS_CPU/bsp/bsp_usart.c **** 	NVIC_Configuration();
  90:../../source/src/user/OS_CPU/bsp/bsp_usart.c **** 	
  91:../../source/src/user/OS_CPU/bsp/bsp_usart.c **** 	// 使能串口接收中断
  92:../../source/src/user/OS_CPU/bsp/bsp_usart.c **** 	USART_ITConfig(DEBUG_USARTx, USART_IT_RXNE, ENABLE);	
 127              		.loc 1 92 0
 128 0088 2246     		mov	r2, r4
 129 008a 2846     		mov	r0, r5
 130 008c 40F22551 		movw	r1, #1317
 131 0090 FFF7FEFF 		bl	USART_ITConfig
 132              	.LVL7:
  93:../../source/src/user/OS_CPU/bsp/bsp_usart.c **** 	
  94:../../source/src/user/OS_CPU/bsp/bsp_usart.c **** 	// 使能串口
  95:../../source/src/user/OS_CPU/bsp/bsp_usart.c **** 	USART_Cmd(DEBUG_USARTx, ENABLE);	    
 133              		.loc 1 95 0
 134 0094 2146     		mov	r1, r4
 135 0096 2846     		mov	r0, r5
 136 0098 FFF7FEFF 		bl	USART_Cmd
 137              	.LVL8:
  96:../../source/src/user/OS_CPU/bsp/bsp_usart.c **** }
 138              		.loc 1 96 0
 139 009c 07B0     		add	sp, sp, #28
 140              	.LCFI2:
 141              		.cfi_def_cfa_offset 12
 142              		@ sp needed
 143 009e 30BD     		pop	{r4, r5, pc}
 144              	.L4:
 145              		.align	2
 146              	.L3:
 147 00a0 00080140 		.word	1073809408
 148 00a4 00380140 		.word	1073821696
 149              		.cfi_endproc
 150              	.LFE30:
 151              		.size	USART_Config, .-USART_Config
 152              		.align	1
 153              		.p2align 2,,3
 154              		.global	Usart_SendByte
 155              		.syntax unified
 156              		.thumb
 157              		.thumb_func
 158              		.fpu softvfp
 159              		.type	Usart_SendByte, %function
 160              	Usart_SendByte:
 161              	.LFB31:
  97:../../source/src/user/OS_CPU/bsp/bsp_usart.c **** 
  98:../../source/src/user/OS_CPU/bsp/bsp_usart.c **** 
  99:../../source/src/user/OS_CPU/bsp/bsp_usart.c **** /*****************  发送一个字节 **********************/
 100:../../source/src/user/OS_CPU/bsp/bsp_usart.c **** void Usart_SendByte( USART_TypeDef * pUSARTx, uint8_t ch)
 101:../../source/src/user/OS_CPU/bsp/bsp_usart.c **** {
 162              		.loc 1 101 0
 163              		.cfi_startproc
 164              		@ args = 0, pretend = 0, frame = 0
 165              		@ frame_needed = 0, uses_anonymous_args = 0
 166              	.LVL9:
ARM GAS  G:\Users\Jaxb\AppData\Local\Temp\ccYqEobM.s 			page 6


 167 00a8 10B5     		push	{r4, lr}
 168              	.LCFI3:
 169              		.cfi_def_cfa_offset 8
 170              		.cfi_offset 4, -8
 171              		.cfi_offset 14, -4
 172              		.loc 1 101 0
 173 00aa 0446     		mov	r4, r0
 102:../../source/src/user/OS_CPU/bsp/bsp_usart.c **** 	/* 发送一个字节数据到USART */
 103:../../source/src/user/OS_CPU/bsp/bsp_usart.c **** 	USART_SendData(pUSARTx,ch);
 174              		.loc 1 103 0
 175 00ac FFF7FEFF 		bl	USART_SendData
 176              	.LVL10:
 177              	.L6:
 104:../../source/src/user/OS_CPU/bsp/bsp_usart.c **** 		
 105:../../source/src/user/OS_CPU/bsp/bsp_usart.c **** 	/* 等待发送数据寄存器为空 */
 106:../../source/src/user/OS_CPU/bsp/bsp_usart.c **** 	while (USART_GetFlagStatus(pUSARTx, USART_FLAG_TXE) == RESET);	
 178              		.loc 1 106 0 discriminator 1
 179 00b0 8021     		movs	r1, #128
 180 00b2 2046     		mov	r0, r4
 181 00b4 FFF7FEFF 		bl	USART_GetFlagStatus
 182              	.LVL11:
 183 00b8 0028     		cmp	r0, #0
 184 00ba F9D0     		beq	.L6
 107:../../source/src/user/OS_CPU/bsp/bsp_usart.c **** }
 185              		.loc 1 107 0
 186 00bc 10BD     		pop	{r4, pc}
 187              		.cfi_endproc
 188              	.LFE31:
 189              		.size	Usart_SendByte, .-Usart_SendByte
 190              		.align	1
 191 00be 00BF     		.p2align 2,,3
 192              		.global	Usart_SendArray
 193              		.syntax unified
 194              		.thumb
 195              		.thumb_func
 196              		.fpu softvfp
 197              		.type	Usart_SendArray, %function
 198              	Usart_SendArray:
 199              	.LFB32:
 108:../../source/src/user/OS_CPU/bsp/bsp_usart.c **** 
 109:../../source/src/user/OS_CPU/bsp/bsp_usart.c **** /****************** 发送8位的数组 ************************/
 110:../../source/src/user/OS_CPU/bsp/bsp_usart.c **** void Usart_SendArray( USART_TypeDef * pUSARTx, uint8_t *array, uint16_t num)
 111:../../source/src/user/OS_CPU/bsp/bsp_usart.c **** {
 200              		.loc 1 111 0
 201              		.cfi_startproc
 202              		@ args = 0, pretend = 0, frame = 0
 203              		@ frame_needed = 0, uses_anonymous_args = 0
 204              	.LVL12:
 205 00c0 F8B5     		push	{r3, r4, r5, r6, r7, lr}
 206              	.LCFI4:
 207              		.cfi_def_cfa_offset 24
 208              		.cfi_offset 3, -24
 209              		.cfi_offset 4, -20
 210              		.cfi_offset 5, -16
 211              		.cfi_offset 6, -12
 212              		.cfi_offset 7, -8
 213              		.cfi_offset 14, -4
ARM GAS  G:\Users\Jaxb\AppData\Local\Temp\ccYqEobM.s 			page 7


 214              		.loc 1 111 0
 215 00c2 0546     		mov	r5, r0
 216 00c4 0F46     		mov	r7, r1
 112:../../source/src/user/OS_CPU/bsp/bsp_usart.c ****   uint8_t i;
 113:../../source/src/user/OS_CPU/bsp/bsp_usart.c **** 	
 114:../../source/src/user/OS_CPU/bsp/bsp_usart.c **** 	for(i=0; i<num; i++)
 217              		.loc 1 114 0
 218 00c6 1646     		mov	r6, r2
 219 00c8 42B1     		cbz	r2, .L12
 220 00ca 0024     		movs	r4, #0
 221              	.LVL13:
 222              	.L11:
 115:../../source/src/user/OS_CPU/bsp/bsp_usart.c ****   {
 116:../../source/src/user/OS_CPU/bsp/bsp_usart.c **** 	    /* 发送一个字节数据到USART */
 117:../../source/src/user/OS_CPU/bsp/bsp_usart.c **** 	    Usart_SendByte(pUSARTx,array[i]);	
 223              		.loc 1 117 0 discriminator 3
 224 00cc 395D     		ldrb	r1, [r7, r4]	@ zero_extendqisi2
 114:../../source/src/user/OS_CPU/bsp/bsp_usart.c ****   {
 225              		.loc 1 114 0 discriminator 3
 226 00ce 0134     		adds	r4, r4, #1
 227              	.LVL14:
 228              		.loc 1 117 0 discriminator 3
 229 00d0 2846     		mov	r0, r5
 114:../../source/src/user/OS_CPU/bsp/bsp_usart.c ****   {
 230              		.loc 1 114 0 discriminator 3
 231 00d2 E4B2     		uxtb	r4, r4
 232              		.loc 1 117 0 discriminator 3
 233 00d4 FFF7FEFF 		bl	Usart_SendByte
 234              	.LVL15:
 114:../../source/src/user/OS_CPU/bsp/bsp_usart.c ****   {
 235              		.loc 1 114 0 discriminator 3
 236 00d8 B442     		cmp	r4, r6
 237 00da F7D3     		bcc	.L11
 238              	.LVL16:
 239              	.L12:
 118:../../source/src/user/OS_CPU/bsp/bsp_usart.c ****   
 119:../../source/src/user/OS_CPU/bsp/bsp_usart.c ****   }
 120:../../source/src/user/OS_CPU/bsp/bsp_usart.c **** 	/* 等待发送完成 */
 121:../../source/src/user/OS_CPU/bsp/bsp_usart.c **** 	while(USART_GetFlagStatus(pUSARTx,USART_FLAG_TC)==RESET);
 240              		.loc 1 121 0 discriminator 1
 241 00dc 4021     		movs	r1, #64
 242 00de 2846     		mov	r0, r5
 243 00e0 FFF7FEFF 		bl	USART_GetFlagStatus
 244              	.LVL17:
 245 00e4 0028     		cmp	r0, #0
 246 00e6 F9D0     		beq	.L12
 122:../../source/src/user/OS_CPU/bsp/bsp_usart.c **** }
 247              		.loc 1 122 0
 248 00e8 F8BD     		pop	{r3, r4, r5, r6, r7, pc}
 249              		.cfi_endproc
 250              	.LFE32:
 251              		.size	Usart_SendArray, .-Usart_SendArray
 252              		.align	1
 253 00ea 00BF     		.p2align 2,,3
 254              		.global	Usart_SendString
 255              		.syntax unified
 256              		.thumb
ARM GAS  G:\Users\Jaxb\AppData\Local\Temp\ccYqEobM.s 			page 8


 257              		.thumb_func
 258              		.fpu softvfp
 259              		.type	Usart_SendString, %function
 260              	Usart_SendString:
 261              	.LFB33:
 123:../../source/src/user/OS_CPU/bsp/bsp_usart.c **** 
 124:../../source/src/user/OS_CPU/bsp/bsp_usart.c **** /*****************  发送字符串 **********************/
 125:../../source/src/user/OS_CPU/bsp/bsp_usart.c **** void Usart_SendString( USART_TypeDef * pUSARTx, char *str)
 126:../../source/src/user/OS_CPU/bsp/bsp_usart.c **** {
 262              		.loc 1 126 0
 263              		.cfi_startproc
 264              		@ args = 0, pretend = 0, frame = 0
 265              		@ frame_needed = 0, uses_anonymous_args = 0
 266              	.LVL18:
 267 00ec 38B5     		push	{r3, r4, r5, lr}
 268              	.LCFI5:
 269              		.cfi_def_cfa_offset 16
 270              		.cfi_offset 3, -16
 271              		.cfi_offset 4, -12
 272              		.cfi_offset 5, -8
 273              		.cfi_offset 14, -4
 274              		.loc 1 126 0
 275 00ee 0546     		mov	r5, r0
 276              	.LVL19:
 277 00f0 0C46     		mov	r4, r1
 278 00f2 0978     		ldrb	r1, [r1]	@ zero_extendqisi2
 279              	.LVL20:
 280              	.L20:
 127:../../source/src/user/OS_CPU/bsp/bsp_usart.c **** 	unsigned int k=0;
 128:../../source/src/user/OS_CPU/bsp/bsp_usart.c ****   do 
 129:../../source/src/user/OS_CPU/bsp/bsp_usart.c ****   {
 130:../../source/src/user/OS_CPU/bsp/bsp_usart.c ****       Usart_SendByte( pUSARTx, *(str + k) );
 281              		.loc 1 130 0 discriminator 1
 282 00f4 2846     		mov	r0, r5
 283 00f6 FFF7FEFF 		bl	Usart_SendByte
 284              	.LVL21:
 131:../../source/src/user/OS_CPU/bsp/bsp_usart.c ****       k++;
 132:../../source/src/user/OS_CPU/bsp/bsp_usart.c ****   } while(*(str + k)!='\0');
 285              		.loc 1 132 0 discriminator 1
 286 00fa 14F8011F 		ldrb	r1, [r4, #1]!	@ zero_extendqisi2
 287              	.LVL22:
 288 00fe 0029     		cmp	r1, #0
 289 0100 F8D1     		bne	.L20
 290              	.L21:
 133:../../source/src/user/OS_CPU/bsp/bsp_usart.c ****   
 134:../../source/src/user/OS_CPU/bsp/bsp_usart.c ****   /* 等待发送完成 */
 135:../../source/src/user/OS_CPU/bsp/bsp_usart.c ****   while(USART_GetFlagStatus(pUSARTx,USART_FLAG_TC)==RESET)
 291              		.loc 1 135 0 discriminator 1
 292 0102 4021     		movs	r1, #64
 293 0104 2846     		mov	r0, r5
 294 0106 FFF7FEFF 		bl	USART_GetFlagStatus
 295              	.LVL23:
 296 010a 0028     		cmp	r0, #0
 297 010c F9D0     		beq	.L21
 136:../../source/src/user/OS_CPU/bsp/bsp_usart.c ****   {}
 137:../../source/src/user/OS_CPU/bsp/bsp_usart.c **** }
 298              		.loc 1 137 0
ARM GAS  G:\Users\Jaxb\AppData\Local\Temp\ccYqEobM.s 			page 9


 299 010e 38BD     		pop	{r3, r4, r5, pc}
 300              		.cfi_endproc
 301              	.LFE33:
 302              		.size	Usart_SendString, .-Usart_SendString
 303              		.align	1
 304              		.p2align 2,,3
 305              		.global	Usart_SendHalfWord
 306              		.syntax unified
 307              		.thumb
 308              		.thumb_func
 309              		.fpu softvfp
 310              		.type	Usart_SendHalfWord, %function
 311              	Usart_SendHalfWord:
 312              	.LFB34:
 138:../../source/src/user/OS_CPU/bsp/bsp_usart.c **** 
 139:../../source/src/user/OS_CPU/bsp/bsp_usart.c **** /*****************  发送一个16位数 **********************/
 140:../../source/src/user/OS_CPU/bsp/bsp_usart.c **** void Usart_SendHalfWord( USART_TypeDef * pUSARTx, uint16_t ch)
 141:../../source/src/user/OS_CPU/bsp/bsp_usart.c **** {
 313              		.loc 1 141 0
 314              		.cfi_startproc
 315              		@ args = 0, pretend = 0, frame = 0
 316              		@ frame_needed = 0, uses_anonymous_args = 0
 317              	.LVL24:
 318 0110 38B5     		push	{r3, r4, r5, lr}
 319              	.LCFI6:
 320              		.cfi_def_cfa_offset 16
 321              		.cfi_offset 3, -16
 322              		.cfi_offset 4, -12
 323              		.cfi_offset 5, -8
 324              		.cfi_offset 14, -4
 325              		.loc 1 141 0
 326 0112 0D46     		mov	r5, r1
 327              	.LVL25:
 142:../../source/src/user/OS_CPU/bsp/bsp_usart.c **** 	uint8_t temp_h, temp_l;
 143:../../source/src/user/OS_CPU/bsp/bsp_usart.c **** 	
 144:../../source/src/user/OS_CPU/bsp/bsp_usart.c **** 	/* 取出高八位 */
 145:../../source/src/user/OS_CPU/bsp/bsp_usart.c **** 	temp_h = (ch&0XFF00)>>8;
 146:../../source/src/user/OS_CPU/bsp/bsp_usart.c **** 	/* 取出低八位 */
 147:../../source/src/user/OS_CPU/bsp/bsp_usart.c **** 	temp_l = ch&0XFF;
 148:../../source/src/user/OS_CPU/bsp/bsp_usart.c **** 	
 149:../../source/src/user/OS_CPU/bsp/bsp_usart.c **** 	/* 发送高八位 */
 150:../../source/src/user/OS_CPU/bsp/bsp_usart.c **** 	USART_SendData(pUSARTx,temp_h);	
 328              		.loc 1 150 0
 329 0114 090A     		lsrs	r1, r1, #8
 330              	.LVL26:
 141:../../source/src/user/OS_CPU/bsp/bsp_usart.c **** 	uint8_t temp_h, temp_l;
 331              		.loc 1 141 0
 332 0116 0446     		mov	r4, r0
 333              		.loc 1 150 0
 334 0118 FFF7FEFF 		bl	USART_SendData
 335              	.LVL27:
 336              	.L26:
 151:../../source/src/user/OS_CPU/bsp/bsp_usart.c **** 	while (USART_GetFlagStatus(pUSARTx, USART_FLAG_TXE) == RESET);
 337              		.loc 1 151 0 discriminator 1
 338 011c 8021     		movs	r1, #128
 339 011e 2046     		mov	r0, r4
 340 0120 FFF7FEFF 		bl	USART_GetFlagStatus
ARM GAS  G:\Users\Jaxb\AppData\Local\Temp\ccYqEobM.s 			page 10


 341              	.LVL28:
 342 0124 0028     		cmp	r0, #0
 343 0126 F9D0     		beq	.L26
 152:../../source/src/user/OS_CPU/bsp/bsp_usart.c **** 	
 153:../../source/src/user/OS_CPU/bsp/bsp_usart.c **** 	/* 发送低八位 */
 154:../../source/src/user/OS_CPU/bsp/bsp_usart.c **** 	USART_SendData(pUSARTx,temp_l);	
 344              		.loc 1 154 0
 345 0128 E9B2     		uxtb	r1, r5
 346 012a 2046     		mov	r0, r4
 347 012c FFF7FEFF 		bl	USART_SendData
 348              	.LVL29:
 349              	.L27:
 155:../../source/src/user/OS_CPU/bsp/bsp_usart.c **** 	while (USART_GetFlagStatus(pUSARTx, USART_FLAG_TXE) == RESET);	
 350              		.loc 1 155 0 discriminator 1
 351 0130 8021     		movs	r1, #128
 352 0132 2046     		mov	r0, r4
 353 0134 FFF7FEFF 		bl	USART_GetFlagStatus
 354              	.LVL30:
 355 0138 0028     		cmp	r0, #0
 356 013a F9D0     		beq	.L27
 156:../../source/src/user/OS_CPU/bsp/bsp_usart.c **** }
 357              		.loc 1 156 0
 358 013c 38BD     		pop	{r3, r4, r5, pc}
 359              		.cfi_endproc
 360              	.LFE34:
 361              		.size	Usart_SendHalfWord, .-Usart_SendHalfWord
 362              	.Letext0:
 363              		.file 2 "f:\\arm\\gcc2018\\arm-none-eabi\\include\\machine\\_default_types.h"
 364              		.file 3 "f:\\arm\\gcc2018\\arm-none-eabi\\include\\sys\\_stdint.h"
 365              		.file 4 "../../source/include/core_cm3.h"
 366              		.file 5 "../../source/include/system_stm32f10x.h"
 367              		.file 6 "../../source/include/stm32f10x.h"
 368              		.file 7 "../../source/src/FWlib/inc/stm32f10x_gpio.h"
 369              		.file 8 "../../source/src/FWlib/inc/stm32f10x_usart.h"
 370              		.file 9 "../../source/src/FWlib/inc/misc.h"
 371              		.file 10 "../../source/src/FWlib/inc/stm32f10x_rcc.h"