ARM GAS  G:\Users\Jaxb\AppData\Local\Temp\ccbV8Tbs.s 			page 1


   1              		.cpu cortex-m3
   2              		.eabi_attribute 20, 1
   3              		.eabi_attribute 21, 1
   4              		.eabi_attribute 23, 3
   5              		.eabi_attribute 24, 1
   6              		.eabi_attribute 25, 1
   7              		.eabi_attribute 26, 1
   8              		.eabi_attribute 30, 2
   9              		.eabi_attribute 34, 1
  10              		.eabi_attribute 18, 4
  11              		.file	"buddy.c"
  12              		.text
  13              	.Ltext0:
  14              		.cfi_sections	.debug_frame
  15              		.align	1
  16              		.p2align 2,,3
  17              		.syntax unified
  18              		.thumb
  19              		.thumb_func
  20              		.fpu softvfp
  21              		.type	_add_to_order_array, %function
  22              	_add_to_order_array:
  23              	.LFB9:
  24              		.file 1 "../../source/src/user/OS_LIB/buddy.c"
   1:../../source/src/user/OS_LIB/buddy.c **** #include <buddy.h>
   2:../../source/src/user/OS_LIB/buddy.c **** #include <myassert.h>
   3:../../source/src/user/OS_LIB/buddy.c **** #include <os_cpu.h>
   4:../../source/src/user/OS_LIB/buddy.c **** #include <myMicroLIB.h>
   5:../../source/src/user/OS_LIB/buddy.c **** #include <printf_debug.h>
   6:../../source/src/user/OS_LIB/buddy.c **** 
   7:../../source/src/user/OS_LIB/buddy.c **** static struct buddy *os_buddy_ptr_head = NULL;
   8:../../source/src/user/OS_LIB/buddy.c **** static struct buddy *current_used_buddy_ptr;
   9:../../source/src/user/OS_LIB/buddy.c **** 
  10:../../source/src/user/OS_LIB/buddy.c **** extern int _ebss;
  11:../../source/src/user/OS_LIB/buddy.c **** 
  12:../../source/src/user/OS_LIB/buddy.c **** extern int get_set_bit_place(unsigned int num);
  13:../../source/src/user/OS_LIB/buddy.c **** extern unsigned long ka_pow(int x,unsigned int y);
  14:../../source/src/user/OS_LIB/buddy.c **** extern void dis_page_alloc_record(void);
  15:../../source/src/user/OS_LIB/buddy.c **** 
  16:../../source/src/user/OS_LIB/buddy.c **** static void _delete_from_chain(unsigned int level,Page_Num_Type page_num);
  17:../../source/src/user/OS_LIB/buddy.c **** #define __debug 
  18:../../source/src/user/OS_LIB/buddy.c **** #if CONFIG_ASSERT_DEBUG
  19:../../source/src/user/OS_LIB/buddy.c **** static __debug int assert_in_chain(unsigned int level,Page_Num_Type num);
  20:../../source/src/user/OS_LIB/buddy.c **** #endif
  21:../../source/src/user/OS_LIB/buddy.c **** static inline int _check_flag(unsigned int level,Page_Num_Type page_num);
  22:../../source/src/user/OS_LIB/buddy.c **** static void _deal_with_flag_alloc(unsigned int level,Page_Num_Type page_num);
  23:../../source/src/user/OS_LIB/buddy.c **** static Page_Num_Type _alloc_page(unsigned int level);
  24:../../source/src/user/OS_LIB/buddy.c **** 
  25:../../source/src/user/OS_LIB/buddy.c **** inline static unsigned int get_max_level(unsigned int page_num)
  26:../../source/src/user/OS_LIB/buddy.c **** {
  27:../../source/src/user/OS_LIB/buddy.c **** 	return get_set_bit_place(page_num);
  28:../../source/src/user/OS_LIB/buddy.c **** }
  29:../../source/src/user/OS_LIB/buddy.c **** 
  30:../../source/src/user/OS_LIB/buddy.c **** const struct buddy *get_os_buddy_ptr_head(void)
  31:../../source/src/user/OS_LIB/buddy.c **** {
  32:../../source/src/user/OS_LIB/buddy.c **** 	current_used_buddy_ptr = os_buddy_ptr_head;
  33:../../source/src/user/OS_LIB/buddy.c **** 	return (const struct buddy *)os_buddy_ptr_head;
ARM GAS  G:\Users\Jaxb\AppData\Local\Temp\ccbV8Tbs.s 			page 2


  34:../../source/src/user/OS_LIB/buddy.c **** }
  35:../../source/src/user/OS_LIB/buddy.c **** 
  36:../../source/src/user/OS_LIB/buddy.c **** const struct buddy *get_next_buddy_ptr_head(const struct buddy *buddy_ptr)
  37:../../source/src/user/OS_LIB/buddy.c **** {
  38:../../source/src/user/OS_LIB/buddy.c **** 	if(NULL == buddy_ptr->next)
  39:../../source/src/user/OS_LIB/buddy.c **** 	{
  40:../../source/src/user/OS_LIB/buddy.c **** 		current_used_buddy_ptr = os_buddy_ptr_head;
  41:../../source/src/user/OS_LIB/buddy.c **** 		return NULL;
  42:../../source/src/user/OS_LIB/buddy.c **** 	}
  43:../../source/src/user/OS_LIB/buddy.c **** 	current_used_buddy_ptr = buddy_ptr->next;
  44:../../source/src/user/OS_LIB/buddy.c **** 	return (const struct buddy *)current_used_buddy_ptr;
  45:../../source/src/user/OS_LIB/buddy.c **** }
  46:../../source/src/user/OS_LIB/buddy.c **** 
  47:../../source/src/user/OS_LIB/buddy.c **** unsigned int get_current_buddy_space(void)
  48:../../source/src/user/OS_LIB/buddy.c **** {
  49:../../source/src/user/OS_LIB/buddy.c **** 	CPU_SR_ALLOC();
  50:../../source/src/user/OS_LIB/buddy.c **** 	CPU_CRITICAL_ENTER();
  51:../../source/src/user/OS_LIB/buddy.c **** 	unsigned int buffer = current_used_buddy_ptr->current_page_num;
  52:../../source/src/user/OS_LIB/buddy.c **** 	CPU_CRITICAL_EXIT();
  53:../../source/src/user/OS_LIB/buddy.c **** 	return buffer;
  54:../../source/src/user/OS_LIB/buddy.c **** }
  55:../../source/src/user/OS_LIB/buddy.c **** 
  56:../../source/src/user/OS_LIB/buddy.c **** static struct order_link *_alloc_order_link(void) //allocate a struct order_link entity
  57:../../source/src/user/OS_LIB/buddy.c **** {
  58:../../source/src/user/OS_LIB/buddy.c **** 	UINT16 buffer = current_used_buddy_ptr->order_link_first;
  59:../../source/src/user/OS_LIB/buddy.c **** 	if(NOTHING == buffer)
  60:../../source/src/user/OS_LIB/buddy.c **** 	{
  61:../../source/src/user/OS_LIB/buddy.c **** 		return NULL;
  62:../../source/src/user/OS_LIB/buddy.c **** 	}
  63:../../source/src/user/OS_LIB/buddy.c **** 	current_used_buddy_ptr->order_link_first = current_used_buddy_ptr->order_link_flag[buffer];
  64:../../source/src/user/OS_LIB/buddy.c **** 	current_used_buddy_ptr->order_link_flag[buffer] = NOTHING;
  65:../../source/src/user/OS_LIB/buddy.c **** 	return &current_used_buddy_ptr->link_body[buffer];
  66:../../source/src/user/OS_LIB/buddy.c **** }
  67:../../source/src/user/OS_LIB/buddy.c **** 
  68:../../source/src/user/OS_LIB/buddy.c **** //		this function allocate a struct order_link to store the page_num;
  69:../../source/src/user/OS_LIB/buddy.c **** // then, insert the struct order_link into corresponding level's order_array
  70:../../source/src/user/OS_LIB/buddy.c **** static void _add_to_order_array(unsigned int level,Page_Num_Type page_num)
  71:../../source/src/user/OS_LIB/buddy.c **** {
  25              		.loc 1 71 0
  26              		.cfi_startproc
  27              		@ args = 0, pretend = 0, frame = 0
  28              		@ frame_needed = 0, uses_anonymous_args = 0
  29              	.LVL0:
  30 0000 2DE9F041 		push	{r4, r5, r6, r7, r8, lr}
  31              	.LCFI0:
  32              		.cfi_def_cfa_offset 24
  33              		.cfi_offset 4, -24
  34              		.cfi_offset 5, -20
  35              		.cfi_offset 6, -16
  36              		.cfi_offset 7, -12
  37              		.cfi_offset 8, -8
  38              		.cfi_offset 14, -4
  39              		.loc 1 71 0
  40 0004 0E46     		mov	r6, r1
  72:../../source/src/user/OS_LIB/buddy.c **** 	ASSERT((level>=1)&&(level<=current_used_buddy_ptr->info.max_level));
  41              		.loc 1 72 0
  42 0006 0446     		mov	r4, r0
ARM GAS  G:\Users\Jaxb\AppData\Local\Temp\ccbV8Tbs.s 			page 3


  43 0008 2B4D     		ldr	r5, .L21
  44 000a 0028     		cmp	r0, #0
  45 000c 38D0     		beq	.L2
  46              		.loc 1 72 0 is_stmt 0 discriminator 1
  47 000e 2B68     		ldr	r3, [r5]
  48 0010 9B6A     		ldr	r3, [r3, #40]
  49 0012 8342     		cmp	r3, r0
  50 0014 34D3     		bcc	.L2
  51              	.LVL1:
  52              	.L3:
  73:../../source/src/user/OS_LIB/buddy.c **** 	ASSERT(0 == (((0x0001<<(level-1))-1) & page_num));
  53              		.loc 1 73 0 is_stmt 1
  54 0016 0123     		movs	r3, #1
  55 0018 621E     		subs	r2, r4, #1
  56 001a 9340     		lsls	r3, r3, r2
  57 001c 013B     		subs	r3, r3, #1
  58 001e 3342     		tst	r3, r6
  59 0020 44D1     		bne	.L19
  60              	.L4:
  61              	.LBB42:
  62              	.LBB43:
  59:../../source/src/user/OS_LIB/buddy.c **** 	{
  63              		.loc 1 59 0
  64 0022 4FF6FF71 		movw	r1, #65535
  65              	.LBE43:
  66              	.LBE42:
  74:../../source/src/user/OS_LIB/buddy.c **** 	UINT16 first = current_used_buddy_ptr->order_link_first;
  67              		.loc 1 74 0
  68 0026 2B68     		ldr	r3, [r5]
  69 0028 1F89     		ldrh	r7, [r3, #8]
  70              	.LVL2:
  71              	.LBB46:
  72              	.LBB44:
  59:../../source/src/user/OS_LIB/buddy.c **** 	{
  73              		.loc 1 59 0
  74 002a 8F42     		cmp	r7, r1
  75 002c 2DD0     		beq	.L6
  76              	.LVL3:
  63:../../source/src/user/OS_LIB/buddy.c **** 	current_used_buddy_ptr->order_link_flag[buffer] = NOTHING;
  77              		.loc 1 63 0
  78 002e D868     		ldr	r0, [r3, #12]
  65:../../source/src/user/OS_LIB/buddy.c **** }
  79              		.loc 1 65 0
  80 0030 5A68     		ldr	r2, [r3, #4]
  63:../../source/src/user/OS_LIB/buddy.c **** 	current_used_buddy_ptr->order_link_flag[buffer] = NOTHING;
  81              		.loc 1 63 0
  82 0032 30F817C0 		ldrh	ip, [r0, r7, lsl #1]
  83              	.LBE44:
  84              	.LBE46:
  75:../../source/src/user/OS_LIB/buddy.c **** 	struct order_link *order_link_ptr = _alloc_order_link();
  76:../../source/src/user/OS_LIB/buddy.c **** 	ASSERT(NULL != order_link_ptr);
  85              		.loc 1 76 0
  86 0036 12EB8708 		adds	r8, r2, r7, lsl #2
  87              	.LBB47:
  88              	.LBB45:
  63:../../source/src/user/OS_LIB/buddy.c **** 	current_used_buddy_ptr->order_link_flag[buffer] = NOTHING;
  89              		.loc 1 63 0
ARM GAS  G:\Users\Jaxb\AppData\Local\Temp\ccbV8Tbs.s 			page 4


  90 003a A3F808C0 		strh	ip, [r3, #8]	@ movhi
  64:../../source/src/user/OS_LIB/buddy.c **** 	return &current_used_buddy_ptr->link_body[buffer];
  91              		.loc 1 64 0
  92 003e 20F81710 		strh	r1, [r0, r7, lsl #1]	@ movhi
  93              	.LBE45:
  94              	.LBE47:
  95              		.loc 1 76 0
  96 0042 22D0     		beq	.L6
  77:../../source/src/user/OS_LIB/buddy.c **** 	order_link_ptr->num  = page_num;
  78:../../source/src/user/OS_LIB/buddy.c **** 	order_link_ptr->next = current_used_buddy_ptr->order_array[level-1];
  97              		.loc 1 78 0
  98 0044 1969     		ldr	r1, [r3, #16]
  99 0046 04F10044 		add	r4, r4, #-2147483648
 100              	.LVL4:
  77:../../source/src/user/OS_LIB/buddy.c **** 	order_link_ptr->num  = page_num;
 101              		.loc 1 77 0
 102 004a 22F82760 		strh	r6, [r2, r7, lsl #2]	@ movhi
  79:../../source/src/user/OS_LIB/buddy.c **** 	ASSERT(order_link_ptr->num <= current_used_buddy_ptr->info.page_num-1);
 103              		.loc 1 79 0
 104 004e 5A6A     		ldr	r2, [r3, #36]
  78:../../source/src/user/OS_LIB/buddy.c **** 	ASSERT(order_link_ptr->num <= current_used_buddy_ptr->info.page_num-1);
 105              		.loc 1 78 0
 106 0050 013C     		subs	r4, r4, #1
 107              	.LVL5:
 108 0052 31F81410 		ldrh	r1, [r1, r4, lsl #1]
 109              		.loc 1 79 0
 110 0056 013A     		subs	r2, r2, #1
 111 0058 9642     		cmp	r6, r2
  78:../../source/src/user/OS_LIB/buddy.c **** 	ASSERT(order_link_ptr->num <= current_used_buddy_ptr->info.page_num-1);
 112              		.loc 1 78 0
 113 005a A8F80210 		strh	r1, [r8, #2]	@ movhi
 114              		.loc 1 79 0
 115 005e 1BD8     		bhi	.L20
 116              	.L7:
  80:../../source/src/user/OS_LIB/buddy.c **** 	ASSERT((order_link_ptr->next <= current_used_buddy_ptr->info.page_num-1) || (NOTHING == order_link
 117              		.loc 1 80 0
 118 0060 9142     		cmp	r1, r2
 119 0062 08D9     		bls	.L8
 120              		.loc 1 80 0 is_stmt 0 discriminator 1
 121 0064 4FF6FF72 		movw	r2, #65535
 122 0068 9142     		cmp	r1, r2
 123 006a 04D0     		beq	.L8
 124              		.loc 1 80 0 discriminator 2
 125 006c 5021     		movs	r1, #80
 126 006e 1348     		ldr	r0, .L21+4
 127 0070 FFF7FEFF 		bl	_ASSERT
 128              	.LVL6:
 129 0074 2B68     		ldr	r3, [r5]
 130              	.L8:
  81:../../source/src/user/OS_LIB/buddy.c **** 	current_used_buddy_ptr->order_array[level-1] = first;
 131              		.loc 1 81 0 is_stmt 1
 132 0076 1B69     		ldr	r3, [r3, #16]
 133 0078 23F81470 		strh	r7, [r3, r4, lsl #1]	@ movhi
  82:../../source/src/user/OS_LIB/buddy.c **** }
 134              		.loc 1 82 0
 135 007c BDE8F081 		pop	{r4, r5, r6, r7, r8, pc}
 136              	.LVL7:
ARM GAS  G:\Users\Jaxb\AppData\Local\Temp\ccbV8Tbs.s 			page 5


 137              	.L2:
  72:../../source/src/user/OS_LIB/buddy.c **** 	ASSERT(0 == (((0x0001<<(level-1))-1) & page_num));
 138              		.loc 1 72 0 discriminator 3
 139 0080 4821     		movs	r1, #72
 140              	.LVL8:
 141 0082 0E48     		ldr	r0, .L21+4
 142              	.LVL9:
 143 0084 FFF7FEFF 		bl	_ASSERT
 144              	.LVL10:
 145 0088 C5E7     		b	.L3
 146              	.LVL11:
 147              	.L6:
  76:../../source/src/user/OS_LIB/buddy.c **** 	order_link_ptr->num  = page_num;
 148              		.loc 1 76 0
 149 008a 4C21     		movs	r1, #76
 150 008c 0B48     		ldr	r0, .L21+4
 151 008e FFF7FEFF 		bl	_ASSERT
 152              	.LVL12:
  77:../../source/src/user/OS_LIB/buddy.c **** 	order_link_ptr->next = current_used_buddy_ptr->order_array[level-1];
 153              		.loc 1 77 0
 154 0092 0023     		movs	r3, #0
 155 0094 1B80     		strh	r3, [r3]	@ movhi
 156 0096 FFDE     		.inst	0xdeff
 157              	.LVL13:
 158              	.L20:
  79:../../source/src/user/OS_LIB/buddy.c **** 	ASSERT((order_link_ptr->next <= current_used_buddy_ptr->info.page_num-1) || (NOTHING == order_link
 159              		.loc 1 79 0 discriminator 1
 160 0098 4F21     		movs	r1, #79
 161 009a 0848     		ldr	r0, .L21+4
 162 009c FFF7FEFF 		bl	_ASSERT
 163              	.LVL14:
 164 00a0 2B68     		ldr	r3, [r5]
 165 00a2 B8F80210 		ldrh	r1, [r8, #2]
 166 00a6 5A6A     		ldr	r2, [r3, #36]
 167 00a8 013A     		subs	r2, r2, #1
 168 00aa D9E7     		b	.L7
 169              	.LVL15:
 170              	.L19:
  73:../../source/src/user/OS_LIB/buddy.c **** 	UINT16 first = current_used_buddy_ptr->order_link_first;
 171              		.loc 1 73 0 discriminator 1
 172 00ac 4921     		movs	r1, #73
 173 00ae 0348     		ldr	r0, .L21+4
 174 00b0 FFF7FEFF 		bl	_ASSERT
 175              	.LVL16:
 176 00b4 B5E7     		b	.L4
 177              	.L22:
 178 00b6 00BF     		.align	2
 179              	.L21:
 180 00b8 00000000 		.word	.LANCHOR0
 181 00bc 00000000 		.word	.LC0
 182              		.cfi_endproc
 183              	.LFE9:
 184              		.size	_add_to_order_array, .-_add_to_order_array
 185              		.align	1
 186              		.p2align 2,,3
 187              		.syntax unified
 188              		.thumb
ARM GAS  G:\Users\Jaxb\AppData\Local\Temp\ccbV8Tbs.s 			page 6


 189              		.thumb_func
 190              		.fpu softvfp
 191              		.type	_deal_with_flag_alloc, %function
 192              	_deal_with_flag_alloc:
 193              	.LFB13:
  83:../../source/src/user/OS_LIB/buddy.c **** 
  84:../../source/src/user/OS_LIB/buddy.c **** static Page_Num_Type _buddy_page_num(unsigned int level,Page_Num_Type page_num)
  85:../../source/src/user/OS_LIB/buddy.c **** {
  86:../../source/src/user/OS_LIB/buddy.c **** 	ASSERT((level>=1)&&(level<=current_used_buddy_ptr->info.max_level));
  87:../../source/src/user/OS_LIB/buddy.c **** 	ASSERT(0 == (((0x0001<<(level-1))-1) & page_num));
  88:../../source/src/user/OS_LIB/buddy.c **** 	if(page_num & (0x0001<<(level-1))) //it's buddy is ahead of it
  89:../../source/src/user/OS_LIB/buddy.c **** 		return (page_num - sizeof_level(level));
  90:../../source/src/user/OS_LIB/buddy.c **** 	else 
  91:../../source/src/user/OS_LIB/buddy.c **** 		return (page_num + sizeof_level(level)); //it's buddy fall behind it
  92:../../source/src/user/OS_LIB/buddy.c **** }
  93:../../source/src/user/OS_LIB/buddy.c **** 
  94:../../source/src/user/OS_LIB/buddy.c **** static void _add_to_order_array_loop(unsigned int level,Page_Num_Type page_num)
  95:../../source/src/user/OS_LIB/buddy.c **** {
  96:../../source/src/user/OS_LIB/buddy.c **** 	//non - recursion
  97:../../source/src/user/OS_LIB/buddy.c **** 	unsigned int i;
  98:../../source/src/user/OS_LIB/buddy.c **** 	Page_Num_Type buddy_page_num;
  99:../../source/src/user/OS_LIB/buddy.c **** 	ASSERT((level>=1)&&(level<=current_used_buddy_ptr->info.max_level));
 100:../../source/src/user/OS_LIB/buddy.c **** 	ASSERT(0 == (((0x0001<<(level-1))-1) & page_num));
 101:../../source/src/user/OS_LIB/buddy.c **** 	for(i=level;i<=current_used_buddy_ptr->info.max_level;++i)
 102:../../source/src/user/OS_LIB/buddy.c **** 	{
 103:../../source/src/user/OS_LIB/buddy.c **** 		ASSERT((i<=current_used_buddy_ptr->info.max_level)&&(i>=1));
 104:../../source/src/user/OS_LIB/buddy.c **** 		ASSERT(0 == (page_num & ((0x0001<<(i-1))-1)));
 105:../../source/src/user/OS_LIB/buddy.c **** 		if(current_used_buddy_ptr->info.max_level == i) // if it is the max level, just insert it into ch
 106:../../source/src/user/OS_LIB/buddy.c **** 		{
 107:../../source/src/user/OS_LIB/buddy.c **** 			_add_to_order_array(i,page_num);
 108:../../source/src/user/OS_LIB/buddy.c **** 			break ;
 109:../../source/src/user/OS_LIB/buddy.c **** 		}
 110:../../source/src/user/OS_LIB/buddy.c **** 		else 
 111:../../source/src/user/OS_LIB/buddy.c **** 		{
 112:../../source/src/user/OS_LIB/buddy.c **** 			buddy_page_num = _buddy_page_num(i,page_num); // get it's buddy page's num
 113:../../source/src/user/OS_LIB/buddy.c **** 			if(0 == _check_flag(i,page_num)) // if flag is 0 , means it's buddy is in chain order_array[leve
 114:../../source/src/user/OS_LIB/buddy.c **** 			{
 115:../../source/src/user/OS_LIB/buddy.c **** 				ASSERT(0 == assert_in_chain(i,buddy_page_num)); //assert it's buddy is in chain "order_array"
 116:../../source/src/user/OS_LIB/buddy.c **** 				_delete_from_chain(i,buddy_page_num); // delete it's buddy from chain order_array[level] so tha
 117:../../source/src/user/OS_LIB/buddy.c **** 				if(page_num < buddy_page_num)
 118:../../source/src/user/OS_LIB/buddy.c **** 				{
 119:../../source/src/user/OS_LIB/buddy.c **** 					_deal_with_flag_alloc(i+1,page_num); // XOR the corresponding bit
 120:../../source/src/user/OS_LIB/buddy.c **** 					continue ;
 121:../../source/src/user/OS_LIB/buddy.c **** 				}
 122:../../source/src/user/OS_LIB/buddy.c **** 				else //if(page_num > buddy_page_num) 
 123:../../source/src/user/OS_LIB/buddy.c **** 				{
 124:../../source/src/user/OS_LIB/buddy.c **** 					_deal_with_flag_alloc(i+1,buddy_page_num); // XOR the corresponding bit
 125:../../source/src/user/OS_LIB/buddy.c **** 					page_num = buddy_page_num;
 126:../../source/src/user/OS_LIB/buddy.c **** 					continue ;
 127:../../source/src/user/OS_LIB/buddy.c **** 				}
 128:../../source/src/user/OS_LIB/buddy.c **** 			}
 129:../../source/src/user/OS_LIB/buddy.c **** 			else /*if(1 == _check_flag(i,page_num))*/  // if flag is not 0 , means it's buddy is in chain or
 130:../../source/src/user/OS_LIB/buddy.c **** 			{
 131:../../source/src/user/OS_LIB/buddy.c **** 				ASSERT(-1 == assert_in_chain(i,buddy_page_num));
 132:../../source/src/user/OS_LIB/buddy.c **** 				_add_to_order_array(i,page_num); // insert into chain order_array[level]
 133:../../source/src/user/OS_LIB/buddy.c **** 				break ;
 134:../../source/src/user/OS_LIB/buddy.c **** 			}
ARM GAS  G:\Users\Jaxb\AppData\Local\Temp\ccbV8Tbs.s 			page 7


 135:../../source/src/user/OS_LIB/buddy.c **** 		}
 136:../../source/src/user/OS_LIB/buddy.c **** 		
 137:../../source/src/user/OS_LIB/buddy.c **** 	}
 138:../../source/src/user/OS_LIB/buddy.c **** }
 139:../../source/src/user/OS_LIB/buddy.c **** 
 140:../../source/src/user/OS_LIB/buddy.c **** static inline void *_add_of_num(UINT16 page_num)
 141:../../source/src/user/OS_LIB/buddy.c **** {
 142:../../source/src/user/OS_LIB/buddy.c **** 	return (void *)(&current_used_buddy_ptr->buddy_space_start_ptr[page_num]);
 143:../../source/src/user/OS_LIB/buddy.c **** }
 144:../../source/src/user/OS_LIB/buddy.c **** 
 145:../../source/src/user/OS_LIB/buddy.c **** // XOR the corresponding bit
 146:../../source/src/user/OS_LIB/buddy.c **** static void _deal_with_flag_alloc(unsigned int level,Page_Num_Type page_num)
 147:../../source/src/user/OS_LIB/buddy.c **** {
 194              		.loc 1 147 0
 195              		.cfi_startproc
 196              		@ args = 0, pretend = 0, frame = 0
 197              		@ frame_needed = 0, uses_anonymous_args = 0
 198              	.LVL17:
 199 00c0 70B5     		push	{r4, r5, r6, lr}
 200              	.LCFI1:
 201              		.cfi_def_cfa_offset 16
 202              		.cfi_offset 4, -16
 203              		.cfi_offset 5, -12
 204              		.cfi_offset 6, -8
 205              		.cfi_offset 14, -4
 206              		.loc 1 147 0
 207 00c2 0D46     		mov	r5, r1
 148:../../source/src/user/OS_LIB/buddy.c **** 	ASSERT((level>=1)&&(level<=current_used_buddy_ptr->info.max_level));
 208              		.loc 1 148 0
 209 00c4 0446     		mov	r4, r0
 210 00c6 164E     		ldr	r6, .L33
 211 00c8 20B3     		cbz	r0, .L24
 212              		.loc 1 148 0 is_stmt 0 discriminator 1
 213 00ca 3368     		ldr	r3, [r6]
 214 00cc 9B6A     		ldr	r3, [r3, #40]
 215 00ce 8342     		cmp	r3, r0
 216 00d0 20D3     		bcc	.L24
 217              	.LVL18:
 218              	.L25:
 149:../../source/src/user/OS_LIB/buddy.c **** 	ASSERT(0 == (((0x0001<<(level-1))-1) & page_num));
 219              		.loc 1 149 0 is_stmt 1
 220 00d2 0123     		movs	r3, #1
 221 00d4 621E     		subs	r2, r4, #1
 222 00d6 9340     		lsls	r3, r3, r2
 223 00d8 013B     		subs	r3, r3, #1
 224 00da 2B42     		tst	r3, r5
 225 00dc 03D0     		beq	.L26
 226              		.loc 1 149 0 is_stmt 0 discriminator 1
 227 00de 9521     		movs	r1, #149
 228 00e0 1048     		ldr	r0, .L33+4
 229 00e2 FFF7FEFF 		bl	_ASSERT
 230              	.LVL19:
 231              	.L26:
 150:../../source/src/user/OS_LIB/buddy.c **** 	unsigned int index = page_num>>level;
 151:../../source/src/user/OS_LIB/buddy.c **** 	current_used_buddy_ptr->flag[(current_used_buddy_ptr->level_flag_base[level-1]+index)/(sizeof(Flag
 232              		.loc 1 151 0 is_stmt 1
 233 00e6 4FF00042 		mov	r2, #-2147483648
ARM GAS  G:\Users\Jaxb\AppData\Local\Temp\ccbV8Tbs.s 			page 8


 234 00ea 3068     		ldr	r0, [r6]
 235 00ec A318     		adds	r3, r4, r2
 236 00ee 4169     		ldr	r1, [r0, #20]
 237 00f0 013B     		subs	r3, r3, #1
 238 00f2 31F81310 		ldrh	r1, [r1, r3, lsl #1]
 150:../../source/src/user/OS_LIB/buddy.c **** 	unsigned int index = page_num>>level;
 239              		.loc 1 150 0
 240 00f6 45FA04F4 		asr	r4, r5, r4
 241              	.LVL20:
 242              		.loc 1 151 0
 243 00fa 2144     		add	r1, r1, r4
 244 00fc 0068     		ldr	r0, [r0]
 245 00fe 4C09     		lsrs	r4, r1, #5
 246              	.LVL21:
 247 0100 50F82430 		ldr	r3, [r0, r4, lsl #2]
 248              	.LVL22:
 249 0104 01F01F01 		and	r1, r1, #31
 250 0108 22FA01F1 		lsr	r1, r2, r1
 251 010c 4B40     		eors	r3, r3, r1
 252 010e 40F82430 		str	r3, [r0, r4, lsl #2]
 152:../../source/src/user/OS_LIB/buddy.c **** }
 253              		.loc 1 152 0
 254 0112 70BD     		pop	{r4, r5, r6, pc}
 255              	.LVL23:
 256              	.L24:
 148:../../source/src/user/OS_LIB/buddy.c **** 	ASSERT(0 == (((0x0001<<(level-1))-1) & page_num));
 257              		.loc 1 148 0 discriminator 3
 258 0114 9421     		movs	r1, #148
 259              	.LVL24:
 260 0116 0348     		ldr	r0, .L33+4
 261              	.LVL25:
 262 0118 FFF7FEFF 		bl	_ASSERT
 263              	.LVL26:
 264 011c D9E7     		b	.L25
 265              	.L34:
 266 011e 00BF     		.align	2
 267              	.L33:
 268 0120 00000000 		.word	.LANCHOR0
 269 0124 00000000 		.word	.LC0
 270              		.cfi_endproc
 271              	.LFE13:
 272              		.size	_deal_with_flag_alloc, .-_deal_with_flag_alloc
 273              		.align	1
 274              		.p2align 2,,3
 275              		.syntax unified
 276              		.thumb
 277              		.thumb_func
 278              		.fpu softvfp
 279              		.type	_alloc_page, %function
 280              	_alloc_page:
 281              	.LFB18:
 153:../../source/src/user/OS_LIB/buddy.c **** 
 154:../../source/src/user/OS_LIB/buddy.c **** static inline void _return_link_body(Page_Num_Type buffer) //return struct order_link "link_body[bu
 155:../../source/src/user/OS_LIB/buddy.c **** {
 156:../../source/src/user/OS_LIB/buddy.c **** 	ASSERT(buffer<=current_used_buddy_ptr->info.page_num-1);
 157:../../source/src/user/OS_LIB/buddy.c **** 	ASSERT(NOTHING == current_used_buddy_ptr->order_link_flag[buffer]);
 158:../../source/src/user/OS_LIB/buddy.c **** 	current_used_buddy_ptr->order_link_flag[buffer] = current_used_buddy_ptr->order_link_first;
ARM GAS  G:\Users\Jaxb\AppData\Local\Temp\ccbV8Tbs.s 			page 9


 159:../../source/src/user/OS_LIB/buddy.c **** 	current_used_buddy_ptr->order_link_first = buffer; //change list's head
 160:../../source/src/user/OS_LIB/buddy.c **** }
 161:../../source/src/user/OS_LIB/buddy.c **** 
 162:../../source/src/user/OS_LIB/buddy.c **** int in_buddy_range(void *ptr)
 163:../../source/src/user/OS_LIB/buddy.c **** {
 164:../../source/src/user/OS_LIB/buddy.c **** 	if(((unsigned int)ptr >= (unsigned int)current_used_buddy_ptr->buddy_space_start_ptr) 
 165:../../source/src/user/OS_LIB/buddy.c **** 			&& ((unsigned int)ptr < (unsigned int)current_used_buddy_ptr + current_used_buddy_ptr->info.page
 166:../../source/src/user/OS_LIB/buddy.c **** 	{
 167:../../source/src/user/OS_LIB/buddy.c **** 		return 0;
 168:../../source/src/user/OS_LIB/buddy.c **** 	}
 169:../../source/src/user/OS_LIB/buddy.c **** 	return -1;
 170:../../source/src/user/OS_LIB/buddy.c **** } 
 171:../../source/src/user/OS_LIB/buddy.c **** 
 172:../../source/src/user/OS_LIB/buddy.c **** static void add_to_os(struct buddy *buddy_ptr)
 173:../../source/src/user/OS_LIB/buddy.c **** {
 174:../../source/src/user/OS_LIB/buddy.c **** 	if(NULL == os_buddy_ptr_head)
 175:../../source/src/user/OS_LIB/buddy.c **** 	{
 176:../../source/src/user/OS_LIB/buddy.c **** 		os_buddy_ptr_head = buddy_ptr;
 177:../../source/src/user/OS_LIB/buddy.c **** 	}
 178:../../source/src/user/OS_LIB/buddy.c **** 	else if(os_buddy_ptr_head->info.prio > buddy_ptr->info.prio)
 179:../../source/src/user/OS_LIB/buddy.c **** 	{
 180:../../source/src/user/OS_LIB/buddy.c **** 		buddy_ptr->next = os_buddy_ptr_head;
 181:../../source/src/user/OS_LIB/buddy.c **** 		os_buddy_ptr_head = buddy_ptr;
 182:../../source/src/user/OS_LIB/buddy.c **** 	}
 183:../../source/src/user/OS_LIB/buddy.c **** 	else
 184:../../source/src/user/OS_LIB/buddy.c **** 	{
 185:../../source/src/user/OS_LIB/buddy.c **** 		struct buddy *buffer_ptr = os_buddy_ptr_head;
 186:../../source/src/user/OS_LIB/buddy.c **** 		while(NULL != buffer_ptr->next)
 187:../../source/src/user/OS_LIB/buddy.c **** 		{
 188:../../source/src/user/OS_LIB/buddy.c **** 			if(buffer_ptr->next->info.prio > buddy_ptr->info.prio)
 189:../../source/src/user/OS_LIB/buddy.c **** 			{
 190:../../source/src/user/OS_LIB/buddy.c **** 				buddy_ptr->next = buffer_ptr->next;
 191:../../source/src/user/OS_LIB/buddy.c **** 				buffer_ptr->next = buddy_ptr;
 192:../../source/src/user/OS_LIB/buddy.c **** 				return ;
 193:../../source/src/user/OS_LIB/buddy.c **** 			}
 194:../../source/src/user/OS_LIB/buddy.c **** 			buffer_ptr = buffer_ptr->next;
 195:../../source/src/user/OS_LIB/buddy.c **** 		}
 196:../../source/src/user/OS_LIB/buddy.c **** 		buffer_ptr->next = buddy_ptr;
 197:../../source/src/user/OS_LIB/buddy.c **** 	}
 198:../../source/src/user/OS_LIB/buddy.c **** }
 199:../../source/src/user/OS_LIB/buddy.c **** 
 200:../../source/src/user/OS_LIB/buddy.c **** /*
 201:../../source/src/user/OS_LIB/buddy.c **** *************************************
 202:../../source/src/user/OS_LIB/buddy.c **** *			memory map :
 203:../../source/src/user/OS_LIB/buddy.c **** *
 204:../../source/src/user/OS_LIB/buddy.c **** |-------------------------------|  low  <--memory start address
 205:../../source/src/user/OS_LIB/buddy.c **** |	struct buddy  				|	|
 206:../../source/src/user/OS_LIB/buddy.c **** |-------------------------------|	|
 207:../../source/src/user/OS_LIB/buddy.c **** |	flag[FLAG_ARRAY_NUM]		|	|
 208:../../source/src/user/OS_LIB/buddy.c **** |-------------------------------|	|
 209:../../source/src/user/OS_LIB/buddy.c **** |	link_body[PAGE_NUM]			|	|
 210:../../source/src/user/OS_LIB/buddy.c **** |-------------------------------|	|
 211:../../source/src/user/OS_LIB/buddy.c **** |	order_link_flag[PAGE_NUM]	|	|
 212:../../source/src/user/OS_LIB/buddy.c **** |-------------------------------|	|
 213:../../source/src/user/OS_LIB/buddy.c **** |	order_array[MAX_LEVEL]		|	|
 214:../../source/src/user/OS_LIB/buddy.c **** |-------------------------------|	|
 215:../../source/src/user/OS_LIB/buddy.c **** |		room					|	|
ARM GAS  G:\Users\Jaxb\AppData\Local\Temp\ccbV8Tbs.s 			page 10


 216:../../source/src/user/OS_LIB/buddy.c **** |		for 					|	|
 217:../../source/src/user/OS_LIB/buddy.c **** |	 allocation 				|	|
 218:../../source/src/user/OS_LIB/buddy.c **** |		 . 						|	|
 219:../../source/src/user/OS_LIB/buddy.c **** |		 .						|	|
 220:../../source/src/user/OS_LIB/buddy.c **** |		 .						|	V
 221:../../source/src/user/OS_LIB/buddy.c **** |-------------------------------|  high
 222:../../source/src/user/OS_LIB/buddy.c ****  */
 223:../../source/src/user/OS_LIB/buddy.c **** void buddy_init(const struct dev_mem_para *dev_mem_para_ptr)
 224:../../source/src/user/OS_LIB/buddy.c **** {
 225:../../source/src/user/OS_LIB/buddy.c **** 	unsigned int size;
 226:../../source/src/user/OS_LIB/buddy.c **** 	unsigned int i;
 227:../../source/src/user/OS_LIB/buddy.c **** 	unsigned int buffer;
 228:../../source/src/user/OS_LIB/buddy.c **** 	UINT32 size_sum = 0;
 229:../../source/src/user/OS_LIB/buddy.c **** 	struct buddy *buddy_ptr;
 230:../../source/src/user/OS_LIB/buddy.c **** 	if(1 != dev_mem_para_ptr->prio)
 231:../../source/src/user/OS_LIB/buddy.c **** 	{
 232:../../source/src/user/OS_LIB/buddy.c **** 	 	buddy_ptr = (struct buddy *)(dev_mem_para_ptr->start);
 233:../../source/src/user/OS_LIB/buddy.c **** 	}
 234:../../source/src/user/OS_LIB/buddy.c **** 	else
 235:../../source/src/user/OS_LIB/buddy.c **** 	{
 236:../../source/src/user/OS_LIB/buddy.c **** 		buddy_ptr = (struct buddy *)(&_ebss + 1);
 237:../../source/src/user/OS_LIB/buddy.c **** 	}
 238:../../source/src/user/OS_LIB/buddy.c **** 	current_used_buddy_ptr = buddy_ptr;
 239:../../source/src/user/OS_LIB/buddy.c **** //1.allocate room for flag[current_used_buddy_ptr->info.flag_array_num]
 240:../../source/src/user/OS_LIB/buddy.c **** 	buddy_ptr->flag = (Flag_Type *)((char *)buddy_ptr + sizeof(struct buddy));
 241:../../source/src/user/OS_LIB/buddy.c **** 	size = dev_mem_para_ptr->size / (PAGE_SIZE_KB * 8 * sizeof(Flag_Type));
 242:../../source/src/user/OS_LIB/buddy.c **** 	if(dev_mem_para_ptr->size % (PAGE_SIZE_KB * 8 * sizeof(Flag_Type)))
 243:../../source/src/user/OS_LIB/buddy.c **** 	{
 244:../../source/src/user/OS_LIB/buddy.c **** 		++size;
 245:../../source/src/user/OS_LIB/buddy.c **** 	}
 246:../../source/src/user/OS_LIB/buddy.c **** 	buddy_ptr->info.flag_array_num = size;
 247:../../source/src/user/OS_LIB/buddy.c **** 	size_sum += size*sizeof(Flag_Type);
 248:../../source/src/user/OS_LIB/buddy.c **** 	buddy_ptr->link_body = (struct order_link *)((char *)buddy_ptr->flag + size*sizeof(Flag_Type));
 249:../../source/src/user/OS_LIB/buddy.c **** //allocate room for link_body[current_used_buddy_ptr->info.page_num]
 250:../../source/src/user/OS_LIB/buddy.c **** 	size = dev_mem_para_ptr->size / PAGE_SIZE_KB;
 251:../../source/src/user/OS_LIB/buddy.c **** 	buddy_ptr->info.page_num = size;
 252:../../source/src/user/OS_LIB/buddy.c **** 	size_sum += size * sizeof(struct order_link);
 253:../../source/src/user/OS_LIB/buddy.c **** 	buddy_ptr->order_link_flag = (Page_Num_Type *)((char *)buddy_ptr->link_body + size * sizeof(struct
 254:../../source/src/user/OS_LIB/buddy.c **** //allocate room for order_link_flag[current_used_buddy_ptr->info.page_num]	
 255:../../source/src/user/OS_LIB/buddy.c **** 	size_sum += size * sizeof(Page_Num_Type);
 256:../../source/src/user/OS_LIB/buddy.c **** 	buddy_ptr->order_array = (Page_Num_Type *)((char *)buddy_ptr->order_link_flag + size * sizeof(Page
 257:../../source/src/user/OS_LIB/buddy.c **** //allocate room for order_array[current_used_buddy_ptr->info.max_level]	
 258:../../source/src/user/OS_LIB/buddy.c **** 	size = get_max_level(buddy_ptr->info.page_num);
 259:../../source/src/user/OS_LIB/buddy.c **** 	buddy_ptr->info.max_level = size;
 260:../../source/src/user/OS_LIB/buddy.c **** 	size_sum += size * sizeof(Page_Num_Type);
 261:../../source/src/user/OS_LIB/buddy.c **** 	buddy_ptr->level_flag_base = (UINT16 *)((char *)buddy_ptr->order_array + size * sizeof(Page_Num_Ty
 262:../../source/src/user/OS_LIB/buddy.c **** //allocate room for level_flag_base[buddy_ptr->info.level_flag_base_size]
 263:../../source/src/user/OS_LIB/buddy.c **** 	size = buddy_ptr->info.max_level;
 264:../../source/src/user/OS_LIB/buddy.c **** 
 265:../../source/src/user/OS_LIB/buddy.c **** 	buddy_ptr->info.level_flag_base_size = size;
 266:../../source/src/user/OS_LIB/buddy.c **** 	size_sum += size * sizeof(UINT16);
 267:../../source/src/user/OS_LIB/buddy.c **** 	buddy_ptr->buddy_struct_size = size_sum;
 268:../../source/src/user/OS_LIB/buddy.c **** 	buddy_ptr->current_page_num = dev_mem_para_ptr->size / PAGE_SIZE_KB;
 269:../../source/src/user/OS_LIB/buddy.c **** 	buddy_ptr->buddy_space_start_ptr = (Buddy_Space_Type *)(dev_mem_para_ptr->start);
 270:../../source/src/user/OS_LIB/buddy.c **** 	buddy_ptr->next = NULL;
 271:../../source/src/user/OS_LIB/buddy.c **** 	buddy_ptr->info.prio = dev_mem_para_ptr->prio;
 272:../../source/src/user/OS_LIB/buddy.c **** //init the data
ARM GAS  G:\Users\Jaxb\AppData\Local\Temp\ccbV8Tbs.s 			page 11


 273:../../source/src/user/OS_LIB/buddy.c **** 	for(i=0;i<buddy_ptr->info.flag_array_num;++i)
 274:../../source/src/user/OS_LIB/buddy.c **** 		buddy_ptr->flag[i] = 0;
 275:../../source/src/user/OS_LIB/buddy.c **** 
 276:../../source/src/user/OS_LIB/buddy.c **** 	buddy_ptr->order_link_first = 0;
 277:../../source/src/user/OS_LIB/buddy.c **** 
 278:../../source/src/user/OS_LIB/buddy.c **** 	for(i=0;i<buddy_ptr->info.page_num-1;++i)
 279:../../source/src/user/OS_LIB/buddy.c **** 		buddy_ptr->order_link_flag[i] = i+1;
 280:../../source/src/user/OS_LIB/buddy.c **** 	buddy_ptr->order_link_flag[i] = NOTHING;
 281:../../source/src/user/OS_LIB/buddy.c **** 
 282:../../source/src/user/OS_LIB/buddy.c **** 	for(i=0;i<buddy_ptr->info.max_level;++i)
 283:../../source/src/user/OS_LIB/buddy.c **** 		buddy_ptr->order_array[i] = NOTHING;
 284:../../source/src/user/OS_LIB/buddy.c **** 
 285:../../source/src/user/OS_LIB/buddy.c **** 	buffer = ka_pow(2,buddy_ptr->info.max_level - 1);
 286:../../source/src/user/OS_LIB/buddy.c **** 	buddy_ptr->level_flag_base[0] = 0;
 287:../../source/src/user/OS_LIB/buddy.c **** 	for(i=1;i<buddy_ptr->info.level_flag_base_size;++i,buffer/=2)
 288:../../source/src/user/OS_LIB/buddy.c **** 		buddy_ptr->level_flag_base[i] = buddy_ptr->level_flag_base[i-1] + buffer;
 289:../../source/src/user/OS_LIB/buddy.c **** //set the order_array[current_used_buddy_ptr->info.max_level],and then allocate a room for struct b
 290:../../source/src/user/OS_LIB/buddy.c **** //first deal with the max level
 291:../../source/src/user/OS_LIB/buddy.c **** 	_add_to_order_array(buddy_ptr->info.max_level,sizeof_level(buddy_ptr->info.max_level));
 292:../../source/src/user/OS_LIB/buddy.c **** 	_add_to_order_array(buddy_ptr->info.max_level,0);
 293:../../source/src/user/OS_LIB/buddy.c **** //mark the space used by struct buddy
 294:../../source/src/user/OS_LIB/buddy.c **** 	size = (unsigned int)buddy_ptr - (unsigned int)dev_mem_para_ptr->start + buddy_ptr->buddy_struct_s
 295:../../source/src/user/OS_LIB/buddy.c **** 	PRINTF("space used by os is %d\n",size);
 296:../../source/src/user/OS_LIB/buddy.c **** 	if(size % PAGE_SIZE_BYTE)
 297:../../source/src/user/OS_LIB/buddy.c **** 	{
 298:../../source/src/user/OS_LIB/buddy.c **** 		size = size/PAGE_SIZE_BYTE + 1;
 299:../../source/src/user/OS_LIB/buddy.c **** 	}
 300:../../source/src/user/OS_LIB/buddy.c **** 	else
 301:../../source/src/user/OS_LIB/buddy.c **** 	{
 302:../../source/src/user/OS_LIB/buddy.c **** 		size /= PAGE_SIZE_BYTE;
 303:../../source/src/user/OS_LIB/buddy.c **** 	}
 304:../../source/src/user/OS_LIB/buddy.c **** 	for(i=0;i<current_used_buddy_ptr->info.max_level;++i)
 305:../../source/src/user/OS_LIB/buddy.c **** 	{
 306:../../source/src/user/OS_LIB/buddy.c **** 		if(((0x01u)<<i) >= size)
 307:../../source/src/user/OS_LIB/buddy.c **** 		{
 308:../../source/src/user/OS_LIB/buddy.c **** 			PRINTF("allocate level %d\n",i+1);
 309:../../source/src/user/OS_LIB/buddy.c **** 			_alloc_page(i+1);
 310:../../source/src/user/OS_LIB/buddy.c **** 			current_used_buddy_ptr->current_page_num -= 0x01<<i;
 311:../../source/src/user/OS_LIB/buddy.c **** 			goto final_step;
 312:../../source/src/user/OS_LIB/buddy.c **** 		}
 313:../../source/src/user/OS_LIB/buddy.c **** 	}
 314:../../source/src/user/OS_LIB/buddy.c **** 	ASSERT(0);//allocation fail
 315:../../source/src/user/OS_LIB/buddy.c **** final_step:
 316:../../source/src/user/OS_LIB/buddy.c **** //add the struct buddy to OS
 317:../../source/src/user/OS_LIB/buddy.c **** 	add_to_os(buddy_ptr);
 318:../../source/src/user/OS_LIB/buddy.c **** }
 319:../../source/src/user/OS_LIB/buddy.c **** 
 320:../../source/src/user/OS_LIB/buddy.c **** //  if allocation success,get a page num,which scope is 0 to 1023
 321:../../source/src/user/OS_LIB/buddy.c **** //  else, get NOTHING
 322:../../source/src/user/OS_LIB/buddy.c **** static Page_Num_Type _alloc_page(unsigned int level)
 323:../../source/src/user/OS_LIB/buddy.c **** {
 282              		.loc 1 323 0
 283              		.cfi_startproc
 284              		@ args = 0, pretend = 0, frame = 0
 285              		@ frame_needed = 0, uses_anonymous_args = 0
 286              	.LVL27:
 287 0128 2DE9F041 		push	{r4, r5, r6, r7, r8, lr}
ARM GAS  G:\Users\Jaxb\AppData\Local\Temp\ccbV8Tbs.s 			page 12


 288              	.LCFI2:
 289              		.cfi_def_cfa_offset 24
 290              		.cfi_offset 4, -24
 291              		.cfi_offset 5, -20
 292              		.cfi_offset 6, -16
 293              		.cfi_offset 7, -12
 294              		.cfi_offset 8, -8
 295              		.cfi_offset 14, -4
 324:../../source/src/user/OS_LIB/buddy.c **** 	ASSERT((level>=1)&&(level<=current_used_buddy_ptr->info.max_level));
 296              		.loc 1 324 0
 297 012c 0546     		mov	r5, r0
 298 012e 2D4F     		ldr	r7, .L50
 299 0130 A0B1     		cbz	r0, .L36
 300              		.loc 1 324 0 is_stmt 0 discriminator 1
 301 0132 3B68     		ldr	r3, [r7]
 302 0134 9A6A     		ldr	r2, [r3, #40]
 303 0136 8242     		cmp	r2, r0
 304 0138 10D3     		bcc	.L36
 305              	.LVL28:
 306              	.L37:
 325:../../source/src/user/OS_LIB/buddy.c **** 	Page_Num_Type buffer;
 326:../../source/src/user/OS_LIB/buddy.c **** 	if(NOTHING != current_used_buddy_ptr->order_array[level-1]) //if this level has free page
 307              		.loc 1 326 0 is_stmt 1
 308 013a 4FF6FF70 		movw	r0, #65535
 309 013e 05F10042 		add	r2, r5, #-2147483648
 310 0142 1969     		ldr	r1, [r3, #16]
 311 0144 013A     		subs	r2, r2, #1
 312 0146 31F81240 		ldrh	r4, [r1, r2, lsl #1]
 313 014a 8442     		cmp	r4, r0
 314 014c 1CD1     		bne	.L48
 327:../../source/src/user/OS_LIB/buddy.c **** 	{
 328:../../source/src/user/OS_LIB/buddy.c **** 		Page_Num_Type index = current_used_buddy_ptr->order_array[level-1];
 329:../../source/src/user/OS_LIB/buddy.c **** 		buffer = current_used_buddy_ptr->link_body[index].num;
 330:../../source/src/user/OS_LIB/buddy.c **** 		current_used_buddy_ptr->order_array[level-1] = current_used_buddy_ptr->link_body[index].next;
 331:../../source/src/user/OS_LIB/buddy.c **** 		_return_link_body(index);
 332:../../source/src/user/OS_LIB/buddy.c **** 	}
 333:../../source/src/user/OS_LIB/buddy.c **** 	else //if this level doesn't have free page
 334:../../source/src/user/OS_LIB/buddy.c **** 	{
 335:../../source/src/user/OS_LIB/buddy.c **** 		if(current_used_buddy_ptr->info.max_level == level)
 315              		.loc 1 335 0
 316 014e 9B6A     		ldr	r3, [r3, #40]
 317 0150 AB42     		cmp	r3, r5
 318 0152 0AD1     		bne	.L42
 319              	.L44:
 336:../../source/src/user/OS_LIB/buddy.c **** 		{
 337:../../source/src/user/OS_LIB/buddy.c **** 			return NOTHING;
 320              		.loc 1 337 0
 321 0154 2646     		mov	r6, r4
 338:../../source/src/user/OS_LIB/buddy.c **** 		}
 339:../../source/src/user/OS_LIB/buddy.c **** 		buffer = _alloc_page(level+1); //get a free page from the higher level 
 340:../../source/src/user/OS_LIB/buddy.c **** 		if(NOTHING == buffer)
 341:../../source/src/user/OS_LIB/buddy.c **** 		{
 342:../../source/src/user/OS_LIB/buddy.c **** 			return NOTHING;
 343:../../source/src/user/OS_LIB/buddy.c **** 		}
 344:../../source/src/user/OS_LIB/buddy.c **** 		_add_to_order_array(level,buffer+sizeof_level(level)); // add the second half of the block to pre
 345:../../source/src/user/OS_LIB/buddy.c **** 	}
 346:../../source/src/user/OS_LIB/buddy.c **** 	_deal_with_flag_alloc(level,buffer); // XOR the corresponding bit
ARM GAS  G:\Users\Jaxb\AppData\Local\Temp\ccbV8Tbs.s 			page 13


 347:../../source/src/user/OS_LIB/buddy.c **** 	return buffer;
 348:../../source/src/user/OS_LIB/buddy.c **** }
 322              		.loc 1 348 0
 323 0156 3046     		mov	r0, r6
 324 0158 BDE8F081 		pop	{r4, r5, r6, r7, r8, pc}
 325              	.LVL29:
 326              	.L36:
 324:../../source/src/user/OS_LIB/buddy.c **** 	Page_Num_Type buffer;
 327              		.loc 1 324 0 discriminator 3
 328 015c 4FF4A271 		mov	r1, #324
 329 0160 2148     		ldr	r0, .L50+4
 330              	.LVL30:
 331 0162 FFF7FEFF 		bl	_ASSERT
 332              	.LVL31:
 333 0166 3B68     		ldr	r3, [r7]
 334 0168 E7E7     		b	.L37
 335              	.L42:
 339:../../source/src/user/OS_LIB/buddy.c **** 		if(NOTHING == buffer)
 336              		.loc 1 339 0
 337 016a 681C     		adds	r0, r5, #1
 338 016c FFF7DCFF 		bl	_alloc_page
 339              	.LVL32:
 340:../../source/src/user/OS_LIB/buddy.c **** 		{
 340              		.loc 1 340 0
 341 0170 A042     		cmp	r0, r4
 339:../../source/src/user/OS_LIB/buddy.c **** 		if(NOTHING == buffer)
 342              		.loc 1 339 0
 343 0172 0646     		mov	r6, r0
 344              	.LVL33:
 340:../../source/src/user/OS_LIB/buddy.c **** 		{
 345              		.loc 1 340 0
 346 0174 EED0     		beq	.L44
 344:../../source/src/user/OS_LIB/buddy.c **** 	}
 347              		.loc 1 344 0
 348 0176 0121     		movs	r1, #1
 349 0178 6B1E     		subs	r3, r5, #1
 350 017a 9940     		lsls	r1, r1, r3
 351 017c 0144     		add	r1, r1, r0
 352 017e 89B2     		uxth	r1, r1
 353 0180 2846     		mov	r0, r5
 354              	.LVL34:
 355 0182 FFF73DFF 		bl	_add_to_order_array
 356              	.LVL35:
 357 0186 20E0     		b	.L41
 358              	.L48:
 359              	.LVL36:
 360              	.LBB51:
 329:../../source/src/user/OS_LIB/buddy.c **** 		current_used_buddy_ptr->order_array[level-1] = current_used_buddy_ptr->link_body[index].next;
 361              		.loc 1 329 0
 362 0188 5E68     		ldr	r6, [r3, #4]
 363              	.LBB52:
 364              	.LBB53:
 156:../../source/src/user/OS_LIB/buddy.c **** 	ASSERT(NOTHING == current_used_buddy_ptr->order_link_flag[buffer]);
 365              		.loc 1 156 0
 366 018a 586A     		ldr	r0, [r3, #36]
 367              	.LBE53:
 368              	.LBE52:
ARM GAS  G:\Users\Jaxb\AppData\Local\Temp\ccbV8Tbs.s 			page 14


 329:../../source/src/user/OS_LIB/buddy.c **** 		current_used_buddy_ptr->order_array[level-1] = current_used_buddy_ptr->link_body[index].next;
 369              		.loc 1 329 0
 370 018c 06EB840C 		add	ip, r6, r4, lsl #2
 330:../../source/src/user/OS_LIB/buddy.c **** 		_return_link_body(index);
 371              		.loc 1 330 0
 372 0190 BCF802C0 		ldrh	ip, [ip, #2]
 373              	.LBB57:
 374              	.LBB54:
 156:../../source/src/user/OS_LIB/buddy.c **** 	ASSERT(NOTHING == current_used_buddy_ptr->order_link_flag[buffer]);
 375              		.loc 1 156 0
 376 0194 0138     		subs	r0, r0, #1
 377 0196 8442     		cmp	r4, r0
 378              	.LBE54:
 379              	.LBE57:
 329:../../source/src/user/OS_LIB/buddy.c **** 		current_used_buddy_ptr->order_array[level-1] = current_used_buddy_ptr->link_body[index].next;
 380              		.loc 1 329 0
 381 0198 36F82460 		ldrh	r6, [r6, r4, lsl #2]
 382              	.LVL37:
 330:../../source/src/user/OS_LIB/buddy.c **** 		_return_link_body(index);
 383              		.loc 1 330 0
 384 019c 21F812C0 		strh	ip, [r1, r2, lsl #1]	@ movhi
 385              	.LVL38:
 386              	.LBB58:
 387              	.LBB55:
 156:../../source/src/user/OS_LIB/buddy.c **** 	ASSERT(NOTHING == current_used_buddy_ptr->order_link_flag[buffer]);
 388              		.loc 1 156 0
 389 01a0 1AD8     		bhi	.L49
 390              	.L39:
 157:../../source/src/user/OS_LIB/buddy.c **** 	current_used_buddy_ptr->order_link_flag[buffer] = current_used_buddy_ptr->order_link_first;
 391              		.loc 1 157 0
 392 01a2 4FF6FF71 		movw	r1, #65535
 393 01a6 DA68     		ldr	r2, [r3, #12]
 394 01a8 4FEA4408 		lsl	r8, r4, #1
 395 01ac 32F81400 		ldrh	r0, [r2, r4, lsl #1]
 396 01b0 4244     		add	r2, r2, r8
 397 01b2 8842     		cmp	r0, r1
 398 01b4 06D0     		beq	.L40
 399 01b6 9D21     		movs	r1, #157
 400 01b8 0B48     		ldr	r0, .L50+4
 401 01ba FFF7FEFF 		bl	_ASSERT
 402              	.LVL39:
 403 01be 3B68     		ldr	r3, [r7]
 404 01c0 DA68     		ldr	r2, [r3, #12]
 405 01c2 4244     		add	r2, r2, r8
 406              	.L40:
 158:../../source/src/user/OS_LIB/buddy.c **** 	current_used_buddy_ptr->order_link_first = buffer; //change list's head
 407              		.loc 1 158 0
 408 01c4 1989     		ldrh	r1, [r3, #8]
 409 01c6 1180     		strh	r1, [r2]	@ movhi
 159:../../source/src/user/OS_LIB/buddy.c **** }
 410              		.loc 1 159 0
 411 01c8 1C81     		strh	r4, [r3, #8]	@ movhi
 412              	.LVL40:
 413              	.L41:
 414              	.LBE55:
 415              	.LBE58:
 416              	.LBE51:
ARM GAS  G:\Users\Jaxb\AppData\Local\Temp\ccbV8Tbs.s 			page 15


 346:../../source/src/user/OS_LIB/buddy.c **** 	return buffer;
 417              		.loc 1 346 0
 418 01ca 2846     		mov	r0, r5
 419 01cc 3146     		mov	r1, r6
 420 01ce FFF777FF 		bl	_deal_with_flag_alloc
 421              	.LVL41:
 422              		.loc 1 348 0
 423 01d2 3046     		mov	r0, r6
 424 01d4 BDE8F081 		pop	{r4, r5, r6, r7, r8, pc}
 425              	.LVL42:
 426              	.L49:
 427              	.LBB60:
 428              	.LBB59:
 429              	.LBB56:
 156:../../source/src/user/OS_LIB/buddy.c **** 	ASSERT(NOTHING == current_used_buddy_ptr->order_link_flag[buffer]);
 430              		.loc 1 156 0
 431 01d8 9C21     		movs	r1, #156
 432 01da 0348     		ldr	r0, .L50+4
 433 01dc FFF7FEFF 		bl	_ASSERT
 434              	.LVL43:
 435 01e0 3B68     		ldr	r3, [r7]
 436 01e2 DEE7     		b	.L39
 437              	.L51:
 438              		.align	2
 439              	.L50:
 440 01e4 00000000 		.word	.LANCHOR0
 441 01e8 00000000 		.word	.LC0
 442              	.LBE56:
 443              	.LBE59:
 444              	.LBE60:
 445              		.cfi_endproc
 446              	.LFE18:
 447              		.size	_alloc_page, .-_alloc_page
 448              		.align	1
 449              		.p2align 2,,3
 450              		.syntax unified
 451              		.thumb
 452              		.thumb_func
 453              		.fpu softvfp
 454              		.type	_return_page, %function
 455              	_return_page:
 456              	.LFB33:
 349:../../source/src/user/OS_LIB/buddy.c **** 
 350:../../source/src/user/OS_LIB/buddy.c **** //get 1 page
 351:../../source/src/user/OS_LIB/buddy.c **** void *alloc_power1_page(void)
 352:../../source/src/user/OS_LIB/buddy.c **** {
 353:../../source/src/user/OS_LIB/buddy.c **** 	CPU_SR_ALLOC();
 354:../../source/src/user/OS_LIB/buddy.c **** 	CPU_CRITICAL_ENTER();
 355:../../source/src/user/OS_LIB/buddy.c **** 	Page_Num_Type num = _alloc_page(1);
 356:../../source/src/user/OS_LIB/buddy.c **** 	if(NOTHING != num)
 357:../../source/src/user/OS_LIB/buddy.c **** 	{
 358:../../source/src/user/OS_LIB/buddy.c **** 		// decrease the space of this buddy
 359:../../source/src/user/OS_LIB/buddy.c **** 		current_used_buddy_ptr->current_page_num -= PAGE_SIZE_KB;
 360:../../source/src/user/OS_LIB/buddy.c **** 		CPU_CRITICAL_EXIT();
 361:../../source/src/user/OS_LIB/buddy.c **** 		return _add_of_num(num);
 362:../../source/src/user/OS_LIB/buddy.c **** 	}
 363:../../source/src/user/OS_LIB/buddy.c **** 	CPU_CRITICAL_EXIT();
ARM GAS  G:\Users\Jaxb\AppData\Local\Temp\ccbV8Tbs.s 			page 16


 364:../../source/src/user/OS_LIB/buddy.c **** 	return NULL;
 365:../../source/src/user/OS_LIB/buddy.c **** }
 366:../../source/src/user/OS_LIB/buddy.c **** 
 367:../../source/src/user/OS_LIB/buddy.c **** void *alloc_power2_page(void)
 368:../../source/src/user/OS_LIB/buddy.c **** {
 369:../../source/src/user/OS_LIB/buddy.c **** 	CPU_SR_ALLOC();
 370:../../source/src/user/OS_LIB/buddy.c **** 	CPU_CRITICAL_ENTER();
 371:../../source/src/user/OS_LIB/buddy.c **** 	Page_Num_Type num = _alloc_page(2);
 372:../../source/src/user/OS_LIB/buddy.c **** 	if(NOTHING != num)
 373:../../source/src/user/OS_LIB/buddy.c **** 	{
 374:../../source/src/user/OS_LIB/buddy.c **** 		// decrease the space of this buddy
 375:../../source/src/user/OS_LIB/buddy.c **** 		current_used_buddy_ptr->current_page_num -= 2 * PAGE_SIZE_KB;
 376:../../source/src/user/OS_LIB/buddy.c **** 		CPU_CRITICAL_EXIT();
 377:../../source/src/user/OS_LIB/buddy.c **** 		return _add_of_num(num);
 378:../../source/src/user/OS_LIB/buddy.c **** 	}
 379:../../source/src/user/OS_LIB/buddy.c **** 	CPU_CRITICAL_EXIT();
 380:../../source/src/user/OS_LIB/buddy.c **** 	return NULL;
 381:../../source/src/user/OS_LIB/buddy.c **** }
 382:../../source/src/user/OS_LIB/buddy.c **** 
 383:../../source/src/user/OS_LIB/buddy.c **** void *alloc_power3_page(void)
 384:../../source/src/user/OS_LIB/buddy.c **** {
 385:../../source/src/user/OS_LIB/buddy.c **** 	CPU_SR_ALLOC();
 386:../../source/src/user/OS_LIB/buddy.c **** 	CPU_CRITICAL_ENTER();
 387:../../source/src/user/OS_LIB/buddy.c **** 	Page_Num_Type num = _alloc_page(3);
 388:../../source/src/user/OS_LIB/buddy.c **** 	if(NOTHING != num)
 389:../../source/src/user/OS_LIB/buddy.c **** 	{
 390:../../source/src/user/OS_LIB/buddy.c **** 		// decrease the space of this buddy
 391:../../source/src/user/OS_LIB/buddy.c **** 		current_used_buddy_ptr->current_page_num -= 4 * PAGE_SIZE_KB;
 392:../../source/src/user/OS_LIB/buddy.c **** 		CPU_CRITICAL_EXIT();
 393:../../source/src/user/OS_LIB/buddy.c **** 		return _add_of_num(num);
 394:../../source/src/user/OS_LIB/buddy.c **** 	}
 395:../../source/src/user/OS_LIB/buddy.c **** 	CPU_CRITICAL_EXIT();
 396:../../source/src/user/OS_LIB/buddy.c **** 	return NULL;
 397:../../source/src/user/OS_LIB/buddy.c **** }
 398:../../source/src/user/OS_LIB/buddy.c **** 
 399:../../source/src/user/OS_LIB/buddy.c **** void *alloc_power4_page(void)
 400:../../source/src/user/OS_LIB/buddy.c **** {
 401:../../source/src/user/OS_LIB/buddy.c **** 	CPU_SR_ALLOC();
 402:../../source/src/user/OS_LIB/buddy.c **** 	CPU_CRITICAL_ENTER();
 403:../../source/src/user/OS_LIB/buddy.c **** 	Page_Num_Type num = _alloc_page(4);
 404:../../source/src/user/OS_LIB/buddy.c **** 	if(NOTHING != num)
 405:../../source/src/user/OS_LIB/buddy.c **** 	{
 406:../../source/src/user/OS_LIB/buddy.c **** 		// decrease the space of this buddy
 407:../../source/src/user/OS_LIB/buddy.c **** 		current_used_buddy_ptr->current_page_num -= 8 * PAGE_SIZE_KB;
 408:../../source/src/user/OS_LIB/buddy.c **** 		CPU_CRITICAL_EXIT();
 409:../../source/src/user/OS_LIB/buddy.c **** 		return _add_of_num(num);
 410:../../source/src/user/OS_LIB/buddy.c **** 	}
 411:../../source/src/user/OS_LIB/buddy.c **** 	CPU_CRITICAL_EXIT();
 412:../../source/src/user/OS_LIB/buddy.c **** 	return NULL;
 413:../../source/src/user/OS_LIB/buddy.c **** }
 414:../../source/src/user/OS_LIB/buddy.c **** 
 415:../../source/src/user/OS_LIB/buddy.c **** void *alloc_power5_page(void)
 416:../../source/src/user/OS_LIB/buddy.c **** {
 417:../../source/src/user/OS_LIB/buddy.c **** 	CPU_SR_ALLOC();
 418:../../source/src/user/OS_LIB/buddy.c **** 	CPU_CRITICAL_ENTER();
 419:../../source/src/user/OS_LIB/buddy.c **** 	Page_Num_Type num = _alloc_page(5);
 420:../../source/src/user/OS_LIB/buddy.c **** 	if(NOTHING != num)
ARM GAS  G:\Users\Jaxb\AppData\Local\Temp\ccbV8Tbs.s 			page 17


 421:../../source/src/user/OS_LIB/buddy.c **** 	{
 422:../../source/src/user/OS_LIB/buddy.c **** 		// decrease the space of this buddy
 423:../../source/src/user/OS_LIB/buddy.c **** 		current_used_buddy_ptr->current_page_num -= 16 * PAGE_SIZE_KB;
 424:../../source/src/user/OS_LIB/buddy.c **** 		CPU_CRITICAL_EXIT();
 425:../../source/src/user/OS_LIB/buddy.c **** 		return _add_of_num(num);
 426:../../source/src/user/OS_LIB/buddy.c **** 	}
 427:../../source/src/user/OS_LIB/buddy.c **** 	CPU_CRITICAL_EXIT();
 428:../../source/src/user/OS_LIB/buddy.c **** 	return NULL;
 429:../../source/src/user/OS_LIB/buddy.c **** }
 430:../../source/src/user/OS_LIB/buddy.c **** 
 431:../../source/src/user/OS_LIB/buddy.c **** void *alloc_power6_page(void)
 432:../../source/src/user/OS_LIB/buddy.c **** {
 433:../../source/src/user/OS_LIB/buddy.c **** 	CPU_SR_ALLOC();
 434:../../source/src/user/OS_LIB/buddy.c **** 	CPU_CRITICAL_ENTER();
 435:../../source/src/user/OS_LIB/buddy.c **** 	Page_Num_Type num = _alloc_page(6);
 436:../../source/src/user/OS_LIB/buddy.c **** 	if(NOTHING != num)
 437:../../source/src/user/OS_LIB/buddy.c **** 	{
 438:../../source/src/user/OS_LIB/buddy.c **** 		// decrease the space of this buddy
 439:../../source/src/user/OS_LIB/buddy.c **** 		current_used_buddy_ptr->current_page_num -= 32 * PAGE_SIZE_KB;
 440:../../source/src/user/OS_LIB/buddy.c **** 		CPU_CRITICAL_EXIT();
 441:../../source/src/user/OS_LIB/buddy.c **** 		return _add_of_num(num);
 442:../../source/src/user/OS_LIB/buddy.c **** 	}
 443:../../source/src/user/OS_LIB/buddy.c **** 	CPU_CRITICAL_EXIT();
 444:../../source/src/user/OS_LIB/buddy.c **** 	return NULL;
 445:../../source/src/user/OS_LIB/buddy.c **** }
 446:../../source/src/user/OS_LIB/buddy.c **** 
 447:../../source/src/user/OS_LIB/buddy.c **** void *alloc_power7_page(void)
 448:../../source/src/user/OS_LIB/buddy.c **** {
 449:../../source/src/user/OS_LIB/buddy.c **** 	CPU_SR_ALLOC();
 450:../../source/src/user/OS_LIB/buddy.c **** 	CPU_CRITICAL_ENTER();
 451:../../source/src/user/OS_LIB/buddy.c **** 	Page_Num_Type num = _alloc_page(7);
 452:../../source/src/user/OS_LIB/buddy.c **** 	if(NOTHING != num)
 453:../../source/src/user/OS_LIB/buddy.c **** 	{
 454:../../source/src/user/OS_LIB/buddy.c **** 		// decrease the space of this buddy
 455:../../source/src/user/OS_LIB/buddy.c **** 		current_used_buddy_ptr->current_page_num -= 64 * PAGE_SIZE_KB;
 456:../../source/src/user/OS_LIB/buddy.c **** 		CPU_CRITICAL_EXIT();
 457:../../source/src/user/OS_LIB/buddy.c **** 		return _add_of_num(num);
 458:../../source/src/user/OS_LIB/buddy.c **** 	}
 459:../../source/src/user/OS_LIB/buddy.c **** 	CPU_CRITICAL_EXIT();
 460:../../source/src/user/OS_LIB/buddy.c **** 	return NULL;
 461:../../source/src/user/OS_LIB/buddy.c **** }
 462:../../source/src/user/OS_LIB/buddy.c **** 
 463:../../source/src/user/OS_LIB/buddy.c **** void *alloc_power8_page(void)
 464:../../source/src/user/OS_LIB/buddy.c **** {
 465:../../source/src/user/OS_LIB/buddy.c **** 	CPU_SR_ALLOC();
 466:../../source/src/user/OS_LIB/buddy.c **** 	CPU_CRITICAL_ENTER();
 467:../../source/src/user/OS_LIB/buddy.c **** 	Page_Num_Type num = _alloc_page(8);
 468:../../source/src/user/OS_LIB/buddy.c **** 	if(NOTHING != num)
 469:../../source/src/user/OS_LIB/buddy.c **** 	{
 470:../../source/src/user/OS_LIB/buddy.c **** 		// decrease the space of this buddy
 471:../../source/src/user/OS_LIB/buddy.c **** 		current_used_buddy_ptr->current_page_num -= 128 * PAGE_SIZE_KB;
 472:../../source/src/user/OS_LIB/buddy.c **** 		CPU_CRITICAL_EXIT();
 473:../../source/src/user/OS_LIB/buddy.c **** 		return _add_of_num(num);
 474:../../source/src/user/OS_LIB/buddy.c **** 	}
 475:../../source/src/user/OS_LIB/buddy.c **** 	CPU_CRITICAL_EXIT();
 476:../../source/src/user/OS_LIB/buddy.c **** 	return NULL;
 477:../../source/src/user/OS_LIB/buddy.c **** }
ARM GAS  G:\Users\Jaxb\AppData\Local\Temp\ccbV8Tbs.s 			page 18


 478:../../source/src/user/OS_LIB/buddy.c **** 
 479:../../source/src/user/OS_LIB/buddy.c **** void *alloc_power9_page(void)
 480:../../source/src/user/OS_LIB/buddy.c **** {
 481:../../source/src/user/OS_LIB/buddy.c **** 	CPU_SR_ALLOC();
 482:../../source/src/user/OS_LIB/buddy.c **** 	CPU_CRITICAL_ENTER();
 483:../../source/src/user/OS_LIB/buddy.c **** 	Page_Num_Type num = _alloc_page(9);
 484:../../source/src/user/OS_LIB/buddy.c **** 	if(NOTHING != num)
 485:../../source/src/user/OS_LIB/buddy.c **** 	{
 486:../../source/src/user/OS_LIB/buddy.c **** 		// decrease the space of this buddy
 487:../../source/src/user/OS_LIB/buddy.c **** 		current_used_buddy_ptr->current_page_num -= 256 * PAGE_SIZE_KB;
 488:../../source/src/user/OS_LIB/buddy.c **** 		CPU_CRITICAL_EXIT();
 489:../../source/src/user/OS_LIB/buddy.c **** 		return _add_of_num(num);
 490:../../source/src/user/OS_LIB/buddy.c **** 	}
 491:../../source/src/user/OS_LIB/buddy.c **** 	CPU_CRITICAL_EXIT();
 492:../../source/src/user/OS_LIB/buddy.c **** 	return NULL;
 493:../../source/src/user/OS_LIB/buddy.c **** }
 494:../../source/src/user/OS_LIB/buddy.c **** 
 495:../../source/src/user/OS_LIB/buddy.c **** void *alloc_power10_page(void)
 496:../../source/src/user/OS_LIB/buddy.c **** {
 497:../../source/src/user/OS_LIB/buddy.c **** 	CPU_SR_ALLOC();
 498:../../source/src/user/OS_LIB/buddy.c **** 	CPU_CRITICAL_ENTER();
 499:../../source/src/user/OS_LIB/buddy.c **** 	Page_Num_Type num = _alloc_page(10);
 500:../../source/src/user/OS_LIB/buddy.c **** 	if(NOTHING != num)
 501:../../source/src/user/OS_LIB/buddy.c **** 	{
 502:../../source/src/user/OS_LIB/buddy.c **** 		// decrease the space of this buddy
 503:../../source/src/user/OS_LIB/buddy.c **** 		current_used_buddy_ptr->current_page_num -= 512 * PAGE_SIZE_KB;
 504:../../source/src/user/OS_LIB/buddy.c **** 		CPU_CRITICAL_EXIT();
 505:../../source/src/user/OS_LIB/buddy.c **** 		return _add_of_num(num);
 506:../../source/src/user/OS_LIB/buddy.c **** 	}
 507:../../source/src/user/OS_LIB/buddy.c **** 	CPU_CRITICAL_EXIT();
 508:../../source/src/user/OS_LIB/buddy.c **** 	return NULL;
 509:../../source/src/user/OS_LIB/buddy.c **** }
 510:../../source/src/user/OS_LIB/buddy.c **** 
 511:../../source/src/user/OS_LIB/buddy.c **** #if CONFIG_ASSERT_DEBUG
 512:../../source/src/user/OS_LIB/buddy.c **** //if in chain,return 0;else, return -1
 513:../../source/src/user/OS_LIB/buddy.c **** static __debug int assert_in_chain(unsigned int level,Page_Num_Type page_num)
 514:../../source/src/user/OS_LIB/buddy.c **** {
 515:../../source/src/user/OS_LIB/buddy.c **** 	if(NOTHING == current_used_buddy_ptr->order_array[level-1])
 516:../../source/src/user/OS_LIB/buddy.c **** 		return -1;
 517:../../source/src/user/OS_LIB/buddy.c **** 	UINT16 buffer;
 518:../../source/src/user/OS_LIB/buddy.c **** 	buffer = current_used_buddy_ptr->order_array[level-1];
 519:../../source/src/user/OS_LIB/buddy.c **** 	while(buffer != NOTHING)
 520:../../source/src/user/OS_LIB/buddy.c **** 	{
 521:../../source/src/user/OS_LIB/buddy.c **** 		if(page_num == current_used_buddy_ptr->link_body[buffer].num)
 522:../../source/src/user/OS_LIB/buddy.c **** 			return 0;
 523:../../source/src/user/OS_LIB/buddy.c **** 		buffer = current_used_buddy_ptr->link_body[buffer].next;
 524:../../source/src/user/OS_LIB/buddy.c **** 	}
 525:../../source/src/user/OS_LIB/buddy.c **** 	return -1;
 526:../../source/src/user/OS_LIB/buddy.c **** }
 527:../../source/src/user/OS_LIB/buddy.c **** #endif
 528:../../source/src/user/OS_LIB/buddy.c **** 
 529:../../source/src/user/OS_LIB/buddy.c **** static inline Page_Num_Type _get_page_num(void *ptr) //according to adress
 530:../../source/src/user/OS_LIB/buddy.c **** {
 531:../../source/src/user/OS_LIB/buddy.c **** 	return (Page_Num_Type)(((UINT32)ptr - (UINT32)current_used_buddy_ptr->buddy_space_start_ptr)/PAGE_
 532:../../source/src/user/OS_LIB/buddy.c **** }
 533:../../source/src/user/OS_LIB/buddy.c **** 
 534:../../source/src/user/OS_LIB/buddy.c **** static inline int _check_flag(unsigned int level,Page_Num_Type page_num) 
ARM GAS  G:\Users\Jaxb\AppData\Local\Temp\ccbV8Tbs.s 			page 19


 535:../../source/src/user/OS_LIB/buddy.c **** {
 536:../../source/src/user/OS_LIB/buddy.c **** 	ASSERT((level>=1)&&(level<=current_used_buddy_ptr->info.max_level));
 537:../../source/src/user/OS_LIB/buddy.c **** 	ASSERT(0 == (((0x0001<<(level-1))-1) & page_num));
 538:../../source/src/user/OS_LIB/buddy.c **** 	int index = page_num>>level;
 539:../../source/src/user/OS_LIB/buddy.c **** 	return (current_used_buddy_ptr->flag[(current_used_buddy_ptr->level_flag_base[level-1]+index)/(siz
 540:../../source/src/user/OS_LIB/buddy.c **** 		&(0x80000000>>((current_used_buddy_ptr->level_flag_base[level-1]+index)%(sizeof(Flag_Type)*8))));
 541:../../source/src/user/OS_LIB/buddy.c **** }
 542:../../source/src/user/OS_LIB/buddy.c **** 
 543:../../source/src/user/OS_LIB/buddy.c **** static void _delete_from_chain(unsigned int level,Page_Num_Type page_num)
 544:../../source/src/user/OS_LIB/buddy.c **** {
 545:../../source/src/user/OS_LIB/buddy.c **** 	Page_Num_Type buffer1,buffer2;
 546:../../source/src/user/OS_LIB/buddy.c **** 	ASSERT((level>=1)&&(level<=current_used_buddy_ptr->info.max_level));
 547:../../source/src/user/OS_LIB/buddy.c **** 	ASSERT(0 == (((0x0001<<(level-1))-1) & page_num));
 548:../../source/src/user/OS_LIB/buddy.c **** 	ASSERT(NOTHING != current_used_buddy_ptr->order_array[level-1]);
 549:../../source/src/user/OS_LIB/buddy.c **** 	buffer1 = current_used_buddy_ptr->order_array[level-1];
 550:../../source/src/user/OS_LIB/buddy.c **** 	if(page_num == current_used_buddy_ptr->link_body[buffer1].num) //delete from linked-list
 551:../../source/src/user/OS_LIB/buddy.c **** 	{
 552:../../source/src/user/OS_LIB/buddy.c **** 		current_used_buddy_ptr->order_array[level-1] = current_used_buddy_ptr->link_body[buffer1].next;
 553:../../source/src/user/OS_LIB/buddy.c **** 		_return_link_body(buffer1);
 554:../../source/src/user/OS_LIB/buddy.c **** 		return ;
 555:../../source/src/user/OS_LIB/buddy.c **** 	}
 556:../../source/src/user/OS_LIB/buddy.c **** 	else
 557:../../source/src/user/OS_LIB/buddy.c **** 	{
 558:../../source/src/user/OS_LIB/buddy.c **** 		buffer2 = current_used_buddy_ptr->link_body[buffer1].next;
 559:../../source/src/user/OS_LIB/buddy.c **** 		while(NOTHING != buffer2)
 560:../../source/src/user/OS_LIB/buddy.c **** 		{
 561:../../source/src/user/OS_LIB/buddy.c **** 			if(page_num == current_used_buddy_ptr->link_body[buffer2].num)
 562:../../source/src/user/OS_LIB/buddy.c **** 			{
 563:../../source/src/user/OS_LIB/buddy.c **** 				current_used_buddy_ptr->link_body[buffer1].next = current_used_buddy_ptr->link_body[buffer2].ne
 564:../../source/src/user/OS_LIB/buddy.c **** 				_return_link_body(buffer2);
 565:../../source/src/user/OS_LIB/buddy.c **** 				return ;
 566:../../source/src/user/OS_LIB/buddy.c **** 			}
 567:../../source/src/user/OS_LIB/buddy.c **** 			buffer1 = buffer2;
 568:../../source/src/user/OS_LIB/buddy.c **** 			buffer2 = current_used_buddy_ptr->link_body[buffer2].next;
 569:../../source/src/user/OS_LIB/buddy.c **** 		}
 570:../../source/src/user/OS_LIB/buddy.c **** 		ASSERT(0);
 571:../../source/src/user/OS_LIB/buddy.c **** 	}
 572:../../source/src/user/OS_LIB/buddy.c **** }
 573:../../source/src/user/OS_LIB/buddy.c **** 
 574:../../source/src/user/OS_LIB/buddy.c **** static void _return_page(void *ptr,unsigned int level) //return page to system
 575:../../source/src/user/OS_LIB/buddy.c **** {
 457              		.loc 1 575 0
 458              		.cfi_startproc
 459              		@ args = 0, pretend = 0, frame = 8
 460              		@ frame_needed = 0, uses_anonymous_args = 0
 461              	.LVL44:
 462 01ec 2DE9F04F 		push	{r4, r5, r6, r7, r8, r9, r10, fp, lr}
 463              	.LCFI3:
 464              		.cfi_def_cfa_offset 36
 465              		.cfi_offset 4, -36
 466              		.cfi_offset 5, -32
 467              		.cfi_offset 6, -28
 468              		.cfi_offset 7, -24
 469              		.cfi_offset 8, -20
 470              		.cfi_offset 9, -16
 471              		.cfi_offset 10, -12
 472              		.cfi_offset 11, -8
ARM GAS  G:\Users\Jaxb\AppData\Local\Temp\ccbV8Tbs.s 			page 20


 473              		.cfi_offset 14, -4
 474 01f0 8946     		mov	r9, r1
 475 01f2 83B0     		sub	sp, sp, #12
 476              	.LCFI4:
 477              		.cfi_def_cfa_offset 48
 576:../../source/src/user/OS_LIB/buddy.c **** 	if(NULL == ptr)
 478              		.loc 1 576 0
 479 01f4 0546     		mov	r5, r0
 480 01f6 0028     		cmp	r0, #0
 481 01f8 00F01281 		beq	.L52
 577:../../source/src/user/OS_LIB/buddy.c **** 	{
 578:../../source/src/user/OS_LIB/buddy.c **** 		return ;
 579:../../source/src/user/OS_LIB/buddy.c **** 	}
 580:../../source/src/user/OS_LIB/buddy.c **** 	ASSERT(NULL != ptr);
 581:../../source/src/user/OS_LIB/buddy.c **** 	ASSERT((level>=1)&&(level<=current_used_buddy_ptr->info.max_level));
 482              		.loc 1 581 0 discriminator 1
 483 01fc DFF83083 		ldr	r8, .L149+4
 484 0200 D8F80020 		ldr	r2, [r8]
 485 0204 916A     		ldr	r1, [r2, #40]
 486              	.LVL45:
 487 0206 4945     		cmp	r1, r9
 488 0208 C0F00D81 		bcc	.L136
 582:../../source/src/user/OS_LIB/buddy.c **** 	ASSERT(((UINT32)current_used_buddy_ptr->buddy_space_start_ptr <= (UINT32)ptr)
 489              		.loc 1 582 0
 490 020c 906B     		ldr	r0, [r2, #56]
 491              	.LVL46:
 492 020e A842     		cmp	r0, r5
 493 0210 04D8     		bhi	.L55
 494              	.L146:
 495              		.loc 1 582 0 is_stmt 0 discriminator 1
 496 0212 516A     		ldr	r1, [r2, #36]
 497 0214 8902     		lsls	r1, r1, #10
 498 0216 0844     		add	r0, r0, r1
 499 0218 8542     		cmp	r5, r0
 500 021a 0BD9     		bls	.L56
 501              	.L55:
 502              		.loc 1 582 0 discriminator 3
 503 021c 4FF41271 		mov	r1, #584
 504 0220 C248     		ldr	r0, .L149
 505 0222 FFF7FEFF 		bl	_ASSERT
 506              	.LVL47:
 507              	.LBB81:
 508              	.LBB82:
 164:../../source/src/user/OS_LIB/buddy.c **** 			&& ((unsigned int)ptr < (unsigned int)current_used_buddy_ptr + current_used_buddy_ptr->info.page
 509              		.loc 1 164 0 is_stmt 1 discriminator 3
 510 0226 D8F80020 		ldr	r2, [r8]
 511 022a 916B     		ldr	r1, [r2, #56]
 512 022c A942     		cmp	r1, r5
 513 022e 04D8     		bhi	.L59
 514 0230 516A     		ldr	r1, [r2, #36]
 515 0232 8902     		lsls	r1, r1, #10
 516              	.LVL48:
 517              	.L56:
 165:../../source/src/user/OS_LIB/buddy.c **** 	{
 518              		.loc 1 165 0
 519 0234 0A44     		add	r2, r2, r1
 520 0236 9542     		cmp	r5, r2
ARM GAS  G:\Users\Jaxb\AppData\Local\Temp\ccbV8Tbs.s 			page 21


 521 0238 04D3     		bcc	.L58
 522              	.L59:
 523              	.LVL49:
 524              	.LBE82:
 525              	.LBE81:
 583:../../source/src/user/OS_LIB/buddy.c **** 		&&
 584:../../source/src/user/OS_LIB/buddy.c **** 		((UINT32)&current_used_buddy_ptr->buddy_space_start_ptr[BUDDY_SPACE_SIZE] >= (UINT32)ptr));
 585:../../source/src/user/OS_LIB/buddy.c **** 	ASSERT(0 == in_buddy_range(ptr));
 526              		.loc 1 585 0
 527 023a 40F24921 		movw	r1, #585
 528 023e BB48     		ldr	r0, .L149
 529 0240 FFF7FEFF 		bl	_ASSERT
 530              	.LVL50:
 531              	.L58:
 532              	.LBB83:
 533              	.LBB84:
 531:../../source/src/user/OS_LIB/buddy.c **** }
 534              		.loc 1 531 0
 535 0244 D8F80020 		ldr	r2, [r8]
 536              	.LBE84:
 537              	.LBE83:
 586:../../source/src/user/OS_LIB/buddy.c **** 	Page_Num_Type page_num = _get_page_num(ptr);
 587:../../source/src/user/OS_LIB/buddy.c **** 	_deal_with_flag_alloc(level,page_num);  //XOR the flag bit
 538              		.loc 1 587 0
 539 0248 4846     		mov	r0, r9
 540              	.LBB86:
 541              	.LBB85:
 531:../../source/src/user/OS_LIB/buddy.c **** }
 542              		.loc 1 531 0
 543 024a 926B     		ldr	r2, [r2, #56]
 544 024c 09F1FF34 		add	r4, r9, #-1
 545 0250 AD1A     		subs	r5, r5, r2
 546              	.LVL51:
 547 0252 AD0A     		lsrs	r5, r5, #10
 548 0254 AEB2     		uxth	r6, r5
 549              	.LVL52:
 550              	.LBE85:
 551              	.LBE86:
 552              		.loc 1 587 0
 553 0256 3146     		mov	r1, r6
 554 0258 FFF732FF 		bl	_deal_with_flag_alloc
 555              	.LVL53:
 556 025c 0122     		movs	r2, #1
 557 025e 3546     		mov	r5, r6
 558              	.LBB87:
 559              	.LBB88:
  99:../../source/src/user/OS_LIB/buddy.c **** 	ASSERT(0 == (((0x0001<<(level-1))-1) & page_num));
 560              		.loc 1 99 0
 561 0260 D8F80010 		ldr	r1, [r8]
 562 0264 A240     		lsls	r2, r2, r4
 563 0266 896A     		ldr	r1, [r1, #40]
 564 0268 013A     		subs	r2, r2, #1
 565 026a 8945     		cmp	r9, r1
 566 026c 05EA0205 		and	r5, r5, r2
 567 0270 00F2CA80 		bhi	.L137
 100:../../source/src/user/OS_LIB/buddy.c **** 	for(i=level;i<=current_used_buddy_ptr->info.max_level;++i)
 568              		.loc 1 100 0
ARM GAS  G:\Users\Jaxb\AppData\Local\Temp\ccbV8Tbs.s 			page 22


 569 0274 002D     		cmp	r5, #0
 570 0276 40F04A81 		bne	.L99
 571              	.L98:
 572              	.LVL54:
 573 027a 09F10047 		add	r7, r9, #-2147483648
 574 027e 013F     		subs	r7, r7, #1
 575 0280 7B00     		lsls	r3, r7, #1
 576              	.LBB89:
 577              	.LBB90:
 515:../../source/src/user/OS_LIB/buddy.c **** 		return -1;
 578              		.loc 1 515 0
 579 0282 4FF6FF75 		movw	r5, #65535
 580 0286 0093     		str	r3, [sp]
 581              	.LBE90:
 582              	.LBE89:
 103:../../source/src/user/OS_LIB/buddy.c **** 		ASSERT(0 == (page_num & ((0x0001<<(i-1))-1)));
 583              		.loc 1 103 0
 584 0288 B9F1000F 		cmp	r9, #0
 585 028c 00F0B780 		beq	.L138
 586              	.LVL55:
 587              	.L61:
 104:../../source/src/user/OS_LIB/buddy.c **** 		if(current_used_buddy_ptr->info.max_level == i) // if it is the max level, just insert it into ch
 588              		.loc 1 104 0
 589 0290 0122     		movs	r2, #1
 590 0292 02FA04F7 		lsl	r7, r2, r4
 591 0296 07F1FF3A 		add	r10, r7, #-1
 592 029a 16EA0A0B 		ands	fp, r6, r10
 593 029e 40F0D480 		bne	.L139
 105:../../source/src/user/OS_LIB/buddy.c **** 		{
 594              		.loc 1 105 0
 595 02a2 D8F80010 		ldr	r1, [r8]
 596 02a6 896A     		ldr	r1, [r1, #40]
 597 02a8 4945     		cmp	r1, r9
 598 02aa 00F0D880 		beq	.L92
 599              	.L63:
 600              	.LVL56:
 601              	.LBB92:
 602              	.LBB93:
  86:../../source/src/user/OS_LIB/buddy.c **** 	ASSERT(0 == (((0x0001<<(level-1))-1) & page_num));
 603              		.loc 1 86 0
 604 02ae B9F1000F 		cmp	r9, #0
 605 02b2 01D0     		beq	.L64
 606 02b4 4945     		cmp	r1, r9
 607 02b6 03D2     		bcs	.L65
 608              	.L64:
 609 02b8 5621     		movs	r1, #86
 610 02ba 9C48     		ldr	r0, .L149
 611 02bc FFF7FEFF 		bl	_ASSERT
 612              	.LVL57:
 613              	.L65:
  87:../../source/src/user/OS_LIB/buddy.c **** 	if(page_num & (0x0001<<(level-1))) //it's buddy is ahead of it
 614              		.loc 1 87 0
 615 02c0 BBF1000F 		cmp	fp, #0
 616 02c4 40F0D180 		bne	.L140
 617              	.L66:
 618              	.LVL58:
  88:../../source/src/user/OS_LIB/buddy.c **** 		return (page_num - sizeof_level(level));
ARM GAS  G:\Users\Jaxb\AppData\Local\Temp\ccbV8Tbs.s 			page 23


 619              		.loc 1 88 0
 620 02c8 46FA04F4 		asr	r4, r6, r4
 621 02cc BAB2     		uxth	r2, r7
 622 02ce E307     		lsls	r3, r4, #31
  89:../../source/src/user/OS_LIB/buddy.c **** 	else 
 623              		.loc 1 89 0
 624 02d0 4CBF     		ite	mi
 625 02d2 B21A     		submi	r2, r6, r2
  91:../../source/src/user/OS_LIB/buddy.c **** }
 626              		.loc 1 91 0
 627 02d4 9219     		addpl	r2, r2, r6
 628 02d6 97B2     		uxth	r7, r2
 629              	.LBE93:
 630              	.LBE92:
 631              	.LBB95:
 632              	.LBB96:
 536:../../source/src/user/OS_LIB/buddy.c **** 	ASSERT(0 == (((0x0001<<(level-1))-1) & page_num));
 633              		.loc 1 536 0
 634 02d8 B9F1000F 		cmp	r9, #0
 635 02dc 04D0     		beq	.L69
 636 02de D8F80010 		ldr	r1, [r8]
 637 02e2 896A     		ldr	r1, [r1, #40]
 638 02e4 4945     		cmp	r1, r9
 639 02e6 04D2     		bcs	.L70
 640              	.L69:
 641 02e8 4FF40671 		mov	r1, #536
 642 02ec 8F48     		ldr	r0, .L149
 643 02ee FFF7FEFF 		bl	_ASSERT
 644              	.LVL59:
 645              	.L70:
 537:../../source/src/user/OS_LIB/buddy.c **** 	int index = page_num>>level;
 646              		.loc 1 537 0
 647 02f2 BBF1000F 		cmp	fp, #0
 648 02f6 04D0     		beq	.L71
 649 02f8 40F21921 		movw	r1, #537
 650 02fc 8B48     		ldr	r0, .L149
 651 02fe FFF7FEFF 		bl	_ASSERT
 652              	.LVL60:
 653              	.L71:
 540:../../source/src/user/OS_LIB/buddy.c **** }
 654              		.loc 1 540 0
 655 0302 4FF0004E 		mov	lr, #-2147483648
 539:../../source/src/user/OS_LIB/buddy.c **** 		&(0x80000000>>((current_used_buddy_ptr->level_flag_base[level-1]+index)%(sizeof(Flag_Type)*8))));
 656              		.loc 1 539 0
 657 0306 D8F80030 		ldr	r3, [r8]
 658 030a 009A     		ldr	r2, [sp]
 659 030c 5C69     		ldr	r4, [r3, #20]
 660 030e 1868     		ldr	r0, [r3]
 661 0310 A45A     		ldrh	r4, [r4, r2]
 538:../../source/src/user/OS_LIB/buddy.c **** 	return (current_used_buddy_ptr->flag[(current_used_buddy_ptr->level_flag_base[level-1]+index)/(siz
 662              		.loc 1 538 0
 663 0312 46FA09F1 		asr	r1, r6, r9
 664              	.LVL61:
 539:../../source/src/user/OS_LIB/buddy.c **** 		&(0x80000000>>((current_used_buddy_ptr->level_flag_base[level-1]+index)%(sizeof(Flag_Type)*8))));
 665              		.loc 1 539 0
 666 0316 0190     		str	r0, [sp, #4]
 667 0318 2144     		add	r1, r1, r4
ARM GAS  G:\Users\Jaxb\AppData\Local\Temp\ccbV8Tbs.s 			page 24


 668              	.LVL62:
 540:../../source/src/user/OS_LIB/buddy.c **** }
 669              		.loc 1 540 0
 670 031a 0198     		ldr	r0, [sp, #4]
 539:../../source/src/user/OS_LIB/buddy.c **** 		&(0x80000000>>((current_used_buddy_ptr->level_flag_base[level-1]+index)%(sizeof(Flag_Type)*8))));
 671              		.loc 1 539 0
 672 031c 4C09     		lsrs	r4, r1, #5
 540:../../source/src/user/OS_LIB/buddy.c **** }
 673              		.loc 1 540 0
 674 031e 50F82440 		ldr	r4, [r0, r4, lsl #2]
 675 0322 01F01F01 		and	r1, r1, #31
 676 0326 2EFA01FE 		lsr	lr, lr, r1
 677 032a 1869     		ldr	r0, [r3, #16]
 678              	.LBE96:
 679              	.LBE95:
 113:../../source/src/user/OS_LIB/buddy.c **** 			{
 680              		.loc 1 113 0
 681 032c 1EEA040F 		tst	lr, r4
 682 0330 815A     		ldrh	r1, [r0, r2]
 683 0332 40F0FF80 		bne	.L72
 684              	.LVL63:
 685              	.LBB97:
 686              	.LBB91:
 515:../../source/src/user/OS_LIB/buddy.c **** 		return -1;
 687              		.loc 1 515 0
 688 0336 A942     		cmp	r1, r5
 689 0338 09D0     		beq	.L73
 521:../../source/src/user/OS_LIB/buddy.c **** 			return 0;
 690              		.loc 1 521 0
 691 033a 5868     		ldr	r0, [r3, #4]
 692              	.L75:
 693              	.LVL64:
 694 033c 30F82140 		ldrh	r4, [r0, r1, lsl #2]
 695 0340 00EB8101 		add	r1, r0, r1, lsl #2
 696              	.LVL65:
 697 0344 BC42     		cmp	r4, r7
 698 0346 06D0     		beq	.L74
 523:../../source/src/user/OS_LIB/buddy.c **** 	}
 699              		.loc 1 523 0
 700 0348 4988     		ldrh	r1, [r1, #2]
 701              	.LVL66:
 519:../../source/src/user/OS_LIB/buddy.c **** 	{
 702              		.loc 1 519 0
 703 034a A942     		cmp	r1, r5
 704 034c F6D1     		bne	.L75
 705              	.LVL67:
 706              	.L73:
 707              	.LBE91:
 708              	.LBE97:
 115:../../source/src/user/OS_LIB/buddy.c **** 				_delete_from_chain(i,buddy_page_num); // delete it's buddy from chain order_array[level] so tha
 709              		.loc 1 115 0
 710 034e 7321     		movs	r1, #115
 711 0350 7648     		ldr	r0, .L149
 712 0352 FFF7FEFF 		bl	_ASSERT
 713              	.LVL68:
 714              	.L74:
 715              	.LBB98:
ARM GAS  G:\Users\Jaxb\AppData\Local\Temp\ccbV8Tbs.s 			page 25


 716              	.LBB99:
 546:../../source/src/user/OS_LIB/buddy.c **** 	ASSERT(0 == (((0x0001<<(level-1))-1) & page_num));
 717              		.loc 1 546 0
 718 0356 B9F1000F 		cmp	r9, #0
 719 035a 04D0     		beq	.L76
 720 035c D8F80010 		ldr	r1, [r8]
 721 0360 896A     		ldr	r1, [r1, #40]
 722 0362 8945     		cmp	r9, r1
 723 0364 04D9     		bls	.L77
 724              	.L76:
 725 0366 40F22221 		movw	r1, #546
 726 036a 7048     		ldr	r0, .L149
 727 036c FFF7FEFF 		bl	_ASSERT
 728              	.LVL69:
 729              	.L77:
 547:../../source/src/user/OS_LIB/buddy.c **** 	ASSERT(NOTHING != current_used_buddy_ptr->order_array[level-1]);
 730              		.loc 1 547 0
 731 0370 17EA0A0F 		tst	r7, r10
 732 0374 40F09B80 		bne	.L141
 733              	.L78:
 548:../../source/src/user/OS_LIB/buddy.c **** 	buffer1 = current_used_buddy_ptr->order_array[level-1];
 734              		.loc 1 548 0
 735 0378 D8F80030 		ldr	r3, [r8]
 736 037c 009A     		ldr	r2, [sp]
 737 037e 1869     		ldr	r0, [r3, #16]
 738 0380 845A     		ldrh	r4, [r0, r2]
 739 0382 1044     		add	r0, r0, r2
 740 0384 AC42     		cmp	r4, r5
 741 0386 00F09880 		beq	.L142
 742              	.L79:
 743              	.LVL70:
 550:../../source/src/user/OS_LIB/buddy.c **** 	{
 744              		.loc 1 550 0
 745 038a 5968     		ldr	r1, [r3, #4]
 746 038c 31F824A0 		ldrh	r10, [r1, r4, lsl #2]
 747 0390 01EB840B 		add	fp, r1, r4, lsl #2
 748 0394 BA45     		cmp	r10, r7
 749 0396 BBF802E0 		ldrh	lr, [fp, #2]
 750 039a 00F09A80 		beq	.L143
 751              	.LVL71:
 559:../../source/src/user/OS_LIB/buddy.c **** 		{
 752              		.loc 1 559 0
 753 039e AE45     		cmp	lr, r5
 754 03a0 12D0     		beq	.L84
 561:../../source/src/user/OS_LIB/buddy.c **** 			{
 755              		.loc 1 561 0
 756 03a2 31F82E40 		ldrh	r4, [r1, lr, lsl #2]
 757 03a6 F246     		mov	r10, lr
 758 03a8 BC42     		cmp	r4, r7
 759 03aa 01EB8E00 		add	r0, r1, lr, lsl #2
 760 03ae 06D1     		bne	.L86
 761 03b0 B9E0     		b	.L144
 762              	.LVL72:
 763              	.L89:
 764 03b2 31F824B0 		ldrh	fp, [r1, r4, lsl #2]
 765 03b6 A246     		mov	r10, r4
 766 03b8 BB45     		cmp	fp, r7
ARM GAS  G:\Users\Jaxb\AppData\Local\Temp\ccbV8Tbs.s 			page 26


 767 03ba 5BD0     		beq	.L145
 768 03bc A646     		mov	lr, r4
 769              	.LVL73:
 770              	.L86:
 568:../../source/src/user/OS_LIB/buddy.c **** 		}
 771              		.loc 1 568 0
 772 03be 4488     		ldrh	r4, [r0, #2]
 773              	.LVL74:
 559:../../source/src/user/OS_LIB/buddy.c **** 		{
 774              		.loc 1 559 0
 775 03c0 AC42     		cmp	r4, r5
 561:../../source/src/user/OS_LIB/buddy.c **** 			{
 776              		.loc 1 561 0
 777 03c2 01EB8400 		add	r0, r1, r4, lsl #2
 559:../../source/src/user/OS_LIB/buddy.c **** 		{
 778              		.loc 1 559 0
 779 03c6 F4D1     		bne	.L89
 780              	.LVL75:
 781              	.L84:
 570:../../source/src/user/OS_LIB/buddy.c **** 	}
 782              		.loc 1 570 0
 783 03c8 40F23A21 		movw	r1, #570
 784 03cc 5748     		ldr	r0, .L149
 785 03ce FFF7FEFF 		bl	_ASSERT
 786              	.LVL76:
 787              	.L83:
 788              	.LBE99:
 789              	.LBE98:
 117:../../source/src/user/OS_LIB/buddy.c **** 				{
 790              		.loc 1 117 0
 791 03d2 BE42     		cmp	r6, r7
 792 03d4 09F10109 		add	r9, r9, #1
 793              	.LVL77:
 794 03d8 31D2     		bcs	.L90
 119:../../source/src/user/OS_LIB/buddy.c **** 					continue ;
 795              		.loc 1 119 0
 796 03da 3146     		mov	r1, r6
 797 03dc 4846     		mov	r0, r9
 798 03de FFF76FFE 		bl	_deal_with_flag_alloc
 799              	.LVL78:
 800              	.L91:
 101:../../source/src/user/OS_LIB/buddy.c **** 	{
 801              		.loc 1 101 0
 802 03e2 D8F80020 		ldr	r2, [r8]
 803 03e6 009B     		ldr	r3, [sp]
 804 03e8 926A     		ldr	r2, [r2, #40]
 805 03ea 0233     		adds	r3, r3, #2
 806 03ec 4A45     		cmp	r2, r9
 807 03ee 0093     		str	r3, [sp]
 808 03f0 16D3     		bcc	.L52
 809 03f2 09F1FF34 		add	r4, r9, #-1
 810              	.LVL79:
 103:../../source/src/user/OS_LIB/buddy.c **** 		ASSERT(0 == (page_num & ((0x0001<<(i-1))-1)));
 811              		.loc 1 103 0
 812 03f6 B9F1000F 		cmp	r9, #0
 813 03fa 7FF449AF 		bne	.L61
 814              	.LVL80:
ARM GAS  G:\Users\Jaxb\AppData\Local\Temp\ccbV8Tbs.s 			page 27


 815              	.L138:
 816 03fe 6721     		movs	r1, #103
 817 0400 4A48     		ldr	r0, .L149
 818 0402 FFF7FEFF 		bl	_ASSERT
 819              	.LVL81:
 820 0406 43E7     		b	.L61
 821              	.LVL82:
 822              	.L137:
  99:../../source/src/user/OS_LIB/buddy.c **** 	ASSERT(0 == (((0x0001<<(level-1))-1) & page_num));
 823              		.loc 1 99 0
 824 0408 6321     		movs	r1, #99
 825 040a 4848     		ldr	r0, .L149
 826 040c FFF7FEFF 		bl	_ASSERT
 827              	.LVL83:
 100:../../source/src/user/OS_LIB/buddy.c **** 	for(i=level;i<=current_used_buddy_ptr->info.max_level;++i)
 828              		.loc 1 100 0
 829 0410 002D     		cmp	r5, #0
 830 0412 7CD1     		bne	.L99
 831              	.L60:
 832              	.LVL84:
 101:../../source/src/user/OS_LIB/buddy.c **** 	{
 833              		.loc 1 101 0
 834 0414 D8F80020 		ldr	r2, [r8]
 835 0418 926A     		ldr	r2, [r2, #40]
 836 041a 9145     		cmp	r9, r2
 837 041c 7FF62DAF 		bls	.L98
 838              	.LVL85:
 839              	.L52:
 840              	.LBE88:
 841              	.LBE87:
 588:../../source/src/user/OS_LIB/buddy.c **** 	_add_to_order_array_loop(level,page_num); // then going to loop to finish the return
 589:../../source/src/user/OS_LIB/buddy.c **** }
 842              		.loc 1 589 0
 843 0420 03B0     		add	sp, sp, #12
 844              	.LCFI5:
 845              		.cfi_remember_state
 846              		.cfi_def_cfa_offset 36
 847              		@ sp needed
 848 0422 BDE8F08F 		pop	{r4, r5, r6, r7, r8, r9, r10, fp, pc}
 849              	.LVL86:
 850              	.L136:
 851              	.LCFI6:
 852              		.cfi_restore_state
 581:../../source/src/user/OS_LIB/buddy.c **** 	ASSERT(((UINT32)current_used_buddy_ptr->buddy_space_start_ptr <= (UINT32)ptr)
 853              		.loc 1 581 0 discriminator 3
 854 0426 4148     		ldr	r0, .L149
 855              	.LVL87:
 856 0428 40F24521 		movw	r1, #581
 857 042c FFF7FEFF 		bl	_ASSERT
 858              	.LVL88:
 859 0430 D8F80020 		ldr	r2, [r8]
 582:../../source/src/user/OS_LIB/buddy.c **** 		&&
 860              		.loc 1 582 0 discriminator 3
 861 0434 906B     		ldr	r0, [r2, #56]
 862 0436 A842     		cmp	r0, r5
 863 0438 7FF6EBAE 		bls	.L146
 864 043c EEE6     		b	.L55
ARM GAS  G:\Users\Jaxb\AppData\Local\Temp\ccbV8Tbs.s 			page 28


 865              	.LVL89:
 866              	.L90:
 867              	.LBB123:
 868              	.LBB121:
 124:../../source/src/user/OS_LIB/buddy.c **** 					page_num = buddy_page_num;
 869              		.loc 1 124 0
 870 043e 3946     		mov	r1, r7
 871 0440 4846     		mov	r0, r9
 872 0442 3E46     		mov	r6, r7
 873              	.LVL90:
 874 0444 FFF73CFE 		bl	_deal_with_flag_alloc
 875              	.LVL91:
 876 0448 CBE7     		b	.L91
 877              	.LVL92:
 878              	.L139:
 104:../../source/src/user/OS_LIB/buddy.c **** 		if(current_used_buddy_ptr->info.max_level == i) // if it is the max level, just insert it into ch
 879              		.loc 1 104 0
 880 044a 6821     		movs	r1, #104
 881 044c 3748     		ldr	r0, .L149
 882 044e FFF7FEFF 		bl	_ASSERT
 883              	.LVL93:
 105:../../source/src/user/OS_LIB/buddy.c **** 		{
 884              		.loc 1 105 0
 885 0452 D8F80010 		ldr	r1, [r8]
 886 0456 896A     		ldr	r1, [r1, #40]
 887 0458 4945     		cmp	r1, r9
 888 045a 7FF428AF 		bne	.L63
 889              	.L92:
 132:../../source/src/user/OS_LIB/buddy.c **** 				break ;
 890              		.loc 1 132 0
 891 045e 3146     		mov	r1, r6
 892 0460 4846     		mov	r0, r9
 893              	.LBE121:
 894              	.LBE123:
 895              		.loc 1 589 0
 896 0462 03B0     		add	sp, sp, #12
 897              	.LCFI7:
 898              		.cfi_remember_state
 899              		.cfi_def_cfa_offset 36
 900              		@ sp needed
 901 0464 BDE8F04F 		pop	{r4, r5, r6, r7, r8, r9, r10, fp, lr}
 902              	.LCFI8:
 903              		.cfi_restore 14
 904              		.cfi_restore 11
 905              		.cfi_restore 10
 906              		.cfi_restore 9
 907              		.cfi_restore 8
 908              		.cfi_restore 7
 909              		.cfi_restore 6
 910              		.cfi_restore 5
 911              		.cfi_restore 4
 912              		.cfi_def_cfa_offset 0
 913              	.LVL94:
 914              	.LBB124:
 915              	.LBB122:
 132:../../source/src/user/OS_LIB/buddy.c **** 				break ;
 916              		.loc 1 132 0
ARM GAS  G:\Users\Jaxb\AppData\Local\Temp\ccbV8Tbs.s 			page 29


 917 0468 CAE5     		b	_add_to_order_array
 918              	.LVL95:
 919              	.L140:
 920              	.LCFI9:
 921              		.cfi_restore_state
 922              	.LBB116:
 923              	.LBB94:
  87:../../source/src/user/OS_LIB/buddy.c **** 	if(page_num & (0x0001<<(level-1))) //it's buddy is ahead of it
 924              		.loc 1 87 0
 925 046a 5721     		movs	r1, #87
 926 046c 2F48     		ldr	r0, .L149
 927 046e FFF7FEFF 		bl	_ASSERT
 928              	.LVL96:
 929 0472 29E7     		b	.L66
 930              	.LVL97:
 931              	.L145:
 932 0474 01EB8E0B 		add	fp, r1, lr, lsl #2
 933              	.LVL98:
 934              	.L85:
 935              	.LBE94:
 936              	.LBE116:
 937              	.LBB117:
 938              	.LBB114:
 939              	.LBB100:
 940              	.LBB101:
 156:../../source/src/user/OS_LIB/buddy.c **** 	ASSERT(NOTHING == current_used_buddy_ptr->order_link_flag[buffer]);
 941              		.loc 1 156 0
 942 0478 596A     		ldr	r1, [r3, #36]
 943              	.LBE101:
 944              	.LBE100:
 563:../../source/src/user/OS_LIB/buddy.c **** 				_return_link_body(buffer2);
 945              		.loc 1 563 0
 946 047a 4088     		ldrh	r0, [r0, #2]
 947              	.LBB105:
 948              	.LBB102:
 156:../../source/src/user/OS_LIB/buddy.c **** 	ASSERT(NOTHING == current_used_buddy_ptr->order_link_flag[buffer]);
 949              		.loc 1 156 0
 950 047c 0139     		subs	r1, r1, #1
 951 047e 5145     		cmp	r1, r10
 952              	.LBE102:
 953              	.LBE105:
 563:../../source/src/user/OS_LIB/buddy.c **** 				_return_link_body(buffer2);
 954              		.loc 1 563 0
 955 0480 ABF80200 		strh	r0, [fp, #2]	@ movhi
 956              	.LVL99:
 957              	.LBB106:
 958              	.LBB103:
 156:../../source/src/user/OS_LIB/buddy.c **** 	ASSERT(NOTHING == current_used_buddy_ptr->order_link_flag[buffer]);
 959              		.loc 1 156 0
 960 0484 3CD3     		bcc	.L147
 961              	.L87:
 157:../../source/src/user/OS_LIB/buddy.c **** 	current_used_buddy_ptr->order_link_flag[buffer] = current_used_buddy_ptr->order_link_first;
 962              		.loc 1 157 0
 963 0486 D968     		ldr	r1, [r3, #12]
 964 0488 4FEA4A0B 		lsl	fp, r10, #1
 965 048c 31F81A00 		ldrh	r0, [r1, r10, lsl #1]
 966 0490 5944     		add	r1, r1, fp
ARM GAS  G:\Users\Jaxb\AppData\Local\Temp\ccbV8Tbs.s 			page 30


 967 0492 A842     		cmp	r0, r5
 968 0494 07D0     		beq	.L88
 969 0496 9D21     		movs	r1, #157
 970 0498 2448     		ldr	r0, .L149
 971 049a FFF7FEFF 		bl	_ASSERT
 972              	.LVL100:
 973 049e D8F80030 		ldr	r3, [r8]
 974 04a2 D968     		ldr	r1, [r3, #12]
 975 04a4 5944     		add	r1, r1, fp
 976              	.LVL101:
 977              	.L88:
 158:../../source/src/user/OS_LIB/buddy.c **** 	current_used_buddy_ptr->order_link_first = buffer; //change list's head
 978              		.loc 1 158 0
 979 04a6 1889     		ldrh	r0, [r3, #8]
 980 04a8 0880     		strh	r0, [r1]	@ movhi
 159:../../source/src/user/OS_LIB/buddy.c **** }
 981              		.loc 1 159 0
 982 04aa 1C81     		strh	r4, [r3, #8]	@ movhi
 983 04ac 91E7     		b	.L83
 984              	.L141:
 985              	.LBE103:
 986              	.LBE106:
 547:../../source/src/user/OS_LIB/buddy.c **** 	ASSERT(NOTHING != current_used_buddy_ptr->order_array[level-1]);
 987              		.loc 1 547 0
 988 04ae 40F22321 		movw	r1, #547
 989 04b2 1E48     		ldr	r0, .L149
 990 04b4 FFF7FEFF 		bl	_ASSERT
 991              	.LVL102:
 992 04b8 5EE7     		b	.L78
 993              	.L142:
 548:../../source/src/user/OS_LIB/buddy.c **** 	buffer1 = current_used_buddy_ptr->order_array[level-1];
 994              		.loc 1 548 0
 995 04ba 1C48     		ldr	r0, .L149
 996 04bc 4FF40971 		mov	r1, #548
 997 04c0 FFF7FEFF 		bl	_ASSERT
 998              	.LVL103:
 999 04c4 D8F80030 		ldr	r3, [r8]
 1000 04c8 009A     		ldr	r2, [sp]
 1001 04ca 1869     		ldr	r0, [r3, #16]
 1002 04cc 845A     		ldrh	r4, [r0, r2]
 1003 04ce 1044     		add	r0, r0, r2
 1004 04d0 5BE7     		b	.L79
 1005              	.LVL104:
 1006              	.L143:
 1007              	.LBB107:
 1008              	.LBB108:
 156:../../source/src/user/OS_LIB/buddy.c **** 	ASSERT(NOTHING == current_used_buddy_ptr->order_link_flag[buffer]);
 1009              		.loc 1 156 0
 1010 04d2 596A     		ldr	r1, [r3, #36]
 1011              	.LBE108:
 1012              	.LBE107:
 552:../../source/src/user/OS_LIB/buddy.c **** 		_return_link_body(buffer1);
 1013              		.loc 1 552 0
 1014 04d4 A0F800E0 		strh	lr, [r0]	@ movhi
 1015              	.LVL105:
 1016              	.LBB111:
 1017              	.LBB109:
ARM GAS  G:\Users\Jaxb\AppData\Local\Temp\ccbV8Tbs.s 			page 31


 156:../../source/src/user/OS_LIB/buddy.c **** 	ASSERT(NOTHING == current_used_buddy_ptr->order_link_flag[buffer]);
 1018              		.loc 1 156 0
 1019 04d8 0139     		subs	r1, r1, #1
 1020 04da 8C42     		cmp	r4, r1
 1021 04dc 1CD8     		bhi	.L148
 1022              	.L81:
 157:../../source/src/user/OS_LIB/buddy.c **** 	current_used_buddy_ptr->order_link_flag[buffer] = current_used_buddy_ptr->order_link_first;
 1023              		.loc 1 157 0
 1024 04de D968     		ldr	r1, [r3, #12]
 1025 04e0 4FEA440A 		lsl	r10, r4, #1
 1026 04e4 31F81400 		ldrh	r0, [r1, r4, lsl #1]
 1027 04e8 5144     		add	r1, r1, r10
 1028 04ea A842     		cmp	r0, r5
 1029 04ec DBD0     		beq	.L88
 1030 04ee 9D21     		movs	r1, #157
 1031 04f0 0E48     		ldr	r0, .L149
 1032 04f2 FFF7FEFF 		bl	_ASSERT
 1033              	.LVL106:
 1034 04f6 D8F80030 		ldr	r3, [r8]
 1035 04fa D968     		ldr	r1, [r3, #12]
 1036 04fc 5144     		add	r1, r1, r10
 1037 04fe D2E7     		b	.L88
 1038              	.LVL107:
 1039              	.L147:
 1040              	.LBE109:
 1041              	.LBE111:
 1042              	.LBB112:
 1043              	.LBB104:
 156:../../source/src/user/OS_LIB/buddy.c **** 	ASSERT(NOTHING == current_used_buddy_ptr->order_link_flag[buffer]);
 1044              		.loc 1 156 0
 1045 0500 9C21     		movs	r1, #156
 1046 0502 0A48     		ldr	r0, .L149
 1047 0504 FFF7FEFF 		bl	_ASSERT
 1048              	.LVL108:
 1049 0508 D8F80030 		ldr	r3, [r8]
 1050 050c BBE7     		b	.L87
 1051              	.LVL109:
 1052              	.L99:
 1053              	.LBE104:
 1054              	.LBE112:
 1055              	.LBE114:
 1056              	.LBE117:
 100:../../source/src/user/OS_LIB/buddy.c **** 	for(i=level;i<=current_used_buddy_ptr->info.max_level;++i)
 1057              		.loc 1 100 0
 1058 050e 6421     		movs	r1, #100
 1059 0510 0648     		ldr	r0, .L149
 1060 0512 FFF7FEFF 		bl	_ASSERT
 1061              	.LVL110:
 1062 0516 7DE7     		b	.L60
 1063              	.LVL111:
 1064              	.L148:
 1065              	.LBB118:
 1066              	.LBB115:
 1067              	.LBB113:
 1068              	.LBB110:
 156:../../source/src/user/OS_LIB/buddy.c **** 	ASSERT(NOTHING == current_used_buddy_ptr->order_link_flag[buffer]);
 1069              		.loc 1 156 0
ARM GAS  G:\Users\Jaxb\AppData\Local\Temp\ccbV8Tbs.s 			page 32


 1070 0518 9C21     		movs	r1, #156
 1071 051a 0448     		ldr	r0, .L149
 1072 051c FFF7FEFF 		bl	_ASSERT
 1073              	.LVL112:
 1074 0520 D8F80030 		ldr	r3, [r8]
 1075 0524 DBE7     		b	.L81
 1076              	.LVL113:
 1077              	.L144:
 1078              	.LBE110:
 1079              	.LBE113:
 561:../../source/src/user/OS_LIB/buddy.c **** 			{
 1080              		.loc 1 561 0
 1081 0526 7446     		mov	r4, lr
 1082 0528 A6E7     		b	.L85
 1083              	.L150:
 1084 052a 00BF     		.align	2
 1085              	.L149:
 1086 052c 00000000 		.word	.LC0
 1087 0530 00000000 		.word	.LANCHOR0
 1088              	.LVL114:
 1089              	.L72:
 1090              	.LBE115:
 1091              	.LBE118:
 1092              	.LBB119:
 1093              	.LBB120:
 515:../../source/src/user/OS_LIB/buddy.c **** 		return -1;
 1094              		.loc 1 515 0
 1095 0534 4FF6FF75 		movw	r5, #65535
 1096 0538 A942     		cmp	r1, r5
 1097 053a 90D0     		beq	.L92
 521:../../source/src/user/OS_LIB/buddy.c **** 			return 0;
 1098              		.loc 1 521 0
 1099 053c 5868     		ldr	r0, [r3, #4]
 1100              	.L94:
 1101              	.LVL115:
 1102 053e 30F82140 		ldrh	r4, [r0, r1, lsl #2]
 1103 0542 00EB8101 		add	r1, r0, r1, lsl #2
 1104              	.LVL116:
 1105 0546 BC42     		cmp	r4, r7
 1106 0548 03D0     		beq	.L93
 523:../../source/src/user/OS_LIB/buddy.c **** 	}
 1107              		.loc 1 523 0
 1108 054a 4988     		ldrh	r1, [r1, #2]
 1109              	.LVL117:
 519:../../source/src/user/OS_LIB/buddy.c **** 	{
 1110              		.loc 1 519 0
 1111 054c A942     		cmp	r1, r5
 1112 054e F6D1     		bne	.L94
 1113 0550 85E7     		b	.L92
 1114              	.LVL118:
 1115              	.L93:
 1116              	.LBE120:
 1117              	.LBE119:
 131:../../source/src/user/OS_LIB/buddy.c **** 				_add_to_order_array(i,page_num); // insert into chain order_array[level]
 1118              		.loc 1 131 0
 1119 0552 8321     		movs	r1, #131
 1120 0554 0148     		ldr	r0, .L151
ARM GAS  G:\Users\Jaxb\AppData\Local\Temp\ccbV8Tbs.s 			page 33


 1121 0556 FFF7FEFF 		bl	_ASSERT
 1122              	.LVL119:
 1123 055a 80E7     		b	.L92
 1124              	.L152:
 1125              		.align	2
 1126              	.L151:
 1127 055c 00000000 		.word	.LC0
 1128              	.LBE122:
 1129              	.LBE124:
 1130              		.cfi_endproc
 1131              	.LFE33:
 1132              		.size	_return_page, .-_return_page
 1133              		.align	1
 1134              		.p2align 2,,3
 1135              		.global	get_os_buddy_ptr_head
 1136              		.syntax unified
 1137              		.thumb
 1138              		.thumb_func
 1139              		.fpu softvfp
 1140              		.type	get_os_buddy_ptr_head, %function
 1141              	get_os_buddy_ptr_head:
 1142              	.LFB5:
  31:../../source/src/user/OS_LIB/buddy.c **** 	current_used_buddy_ptr = os_buddy_ptr_head;
 1143              		.loc 1 31 0
 1144              		.cfi_startproc
 1145              		@ args = 0, pretend = 0, frame = 0
 1146              		@ frame_needed = 0, uses_anonymous_args = 0
 1147              		@ link register save eliminated.
  32:../../source/src/user/OS_LIB/buddy.c **** 	return (const struct buddy *)os_buddy_ptr_head;
 1148              		.loc 1 32 0
 1149 0560 014B     		ldr	r3, .L154
 1150 0562 5868     		ldr	r0, [r3, #4]
 1151 0564 1860     		str	r0, [r3]
  34:../../source/src/user/OS_LIB/buddy.c **** 
 1152              		.loc 1 34 0
 1153 0566 7047     		bx	lr
 1154              	.L155:
 1155              		.align	2
 1156              	.L154:
 1157 0568 00000000 		.word	.LANCHOR0
 1158              		.cfi_endproc
 1159              	.LFE5:
 1160              		.size	get_os_buddy_ptr_head, .-get_os_buddy_ptr_head
 1161              		.align	1
 1162              		.p2align 2,,3
 1163              		.global	get_next_buddy_ptr_head
 1164              		.syntax unified
 1165              		.thumb
 1166              		.thumb_func
 1167              		.fpu softvfp
 1168              		.type	get_next_buddy_ptr_head, %function
 1169              	get_next_buddy_ptr_head:
 1170              	.LFB6:
  37:../../source/src/user/OS_LIB/buddy.c **** 	if(NULL == buddy_ptr->next)
 1171              		.loc 1 37 0
 1172              		.cfi_startproc
 1173              		@ args = 0, pretend = 0, frame = 0
ARM GAS  G:\Users\Jaxb\AppData\Local\Temp\ccbV8Tbs.s 			page 34


 1174              		@ frame_needed = 0, uses_anonymous_args = 0
 1175              		@ link register save eliminated.
 1176              	.LVL120:
  38:../../source/src/user/OS_LIB/buddy.c **** 	{
 1177              		.loc 1 38 0
 1178 056c 406B     		ldr	r0, [r0, #52]
 1179              	.LVL121:
  40:../../source/src/user/OS_LIB/buddy.c **** 		return NULL;
 1180              		.loc 1 40 0
 1181 056e 034B     		ldr	r3, .L160
  38:../../source/src/user/OS_LIB/buddy.c **** 	{
 1182              		.loc 1 38 0
 1183 0570 08B1     		cbz	r0, .L159
  43:../../source/src/user/OS_LIB/buddy.c **** 	return (const struct buddy *)current_used_buddy_ptr;
 1184              		.loc 1 43 0
 1185 0572 1860     		str	r0, [r3]
  45:../../source/src/user/OS_LIB/buddy.c **** 
 1186              		.loc 1 45 0
 1187 0574 7047     		bx	lr
 1188              	.L159:
  40:../../source/src/user/OS_LIB/buddy.c **** 		return NULL;
 1189              		.loc 1 40 0
 1190 0576 5A68     		ldr	r2, [r3, #4]
 1191 0578 1A60     		str	r2, [r3]
  41:../../source/src/user/OS_LIB/buddy.c **** 	}
 1192              		.loc 1 41 0
 1193 057a 7047     		bx	lr
 1194              	.L161:
 1195              		.align	2
 1196              	.L160:
 1197 057c 00000000 		.word	.LANCHOR0
 1198              		.cfi_endproc
 1199              	.LFE6:
 1200              		.size	get_next_buddy_ptr_head, .-get_next_buddy_ptr_head
 1201              		.align	1
 1202              		.p2align 2,,3
 1203              		.global	get_current_buddy_space
 1204              		.syntax unified
 1205              		.thumb
 1206              		.thumb_func
 1207              		.fpu softvfp
 1208              		.type	get_current_buddy_space, %function
 1209              	get_current_buddy_space:
 1210              	.LFB7:
  48:../../source/src/user/OS_LIB/buddy.c **** 	CPU_SR_ALLOC();
 1211              		.loc 1 48 0
 1212              		.cfi_startproc
 1213              		@ args = 0, pretend = 0, frame = 0
 1214              		@ frame_needed = 0, uses_anonymous_args = 0
 1215              	.LVL122:
 1216 0580 10B5     		push	{r4, lr}
 1217              	.LCFI10:
 1218              		.cfi_def_cfa_offset 8
 1219              		.cfi_offset 4, -8
 1220              		.cfi_offset 14, -4
  50:../../source/src/user/OS_LIB/buddy.c **** 	unsigned int buffer = current_used_buddy_ptr->current_page_num;
 1221              		.loc 1 50 0
ARM GAS  G:\Users\Jaxb\AppData\Local\Temp\ccbV8Tbs.s 			page 35


 1222 0582 FFF7FEFF 		bl	CPU_SR_Save
 1223              	.LVL123:
  51:../../source/src/user/OS_LIB/buddy.c **** 	CPU_CRITICAL_EXIT();
 1224              		.loc 1 51 0
 1225 0586 034B     		ldr	r3, .L163
 1226 0588 1B68     		ldr	r3, [r3]
 1227 058a DC69     		ldr	r4, [r3, #28]
 1228              	.LVL124:
  52:../../source/src/user/OS_LIB/buddy.c **** 	return buffer;
 1229              		.loc 1 52 0
 1230 058c FFF7FEFF 		bl	CPU_SR_Restore
 1231              	.LVL125:
  54:../../source/src/user/OS_LIB/buddy.c **** 
 1232              		.loc 1 54 0
 1233 0590 2046     		mov	r0, r4
 1234 0592 10BD     		pop	{r4, pc}
 1235              	.LVL126:
 1236              	.L164:
 1237              		.align	2
 1238              	.L163:
 1239 0594 00000000 		.word	.LANCHOR0
 1240              		.cfi_endproc
 1241              	.LFE7:
 1242              		.size	get_current_buddy_space, .-get_current_buddy_space
 1243              		.align	1
 1244              		.p2align 2,,3
 1245              		.global	in_buddy_range
 1246              		.syntax unified
 1247              		.thumb
 1248              		.thumb_func
 1249              		.fpu softvfp
 1250              		.type	in_buddy_range, %function
 1251              	in_buddy_range:
 1252              	.LFB15:
 163:../../source/src/user/OS_LIB/buddy.c **** 	if(((unsigned int)ptr >= (unsigned int)current_used_buddy_ptr->buddy_space_start_ptr) 
 1253              		.loc 1 163 0
 1254              		.cfi_startproc
 1255              		@ args = 0, pretend = 0, frame = 0
 1256              		@ frame_needed = 0, uses_anonymous_args = 0
 1257              		@ link register save eliminated.
 1258              	.LVL127:
 164:../../source/src/user/OS_LIB/buddy.c **** 			&& ((unsigned int)ptr < (unsigned int)current_used_buddy_ptr + current_used_buddy_ptr->info.page
 1259              		.loc 1 164 0
 1260 0598 084B     		ldr	r3, .L168
 1261 059a 1B68     		ldr	r3, [r3]
 1262 059c 9A6B     		ldr	r2, [r3, #56]
 1263 059e 8242     		cmp	r2, r0
 1264 05a0 08D8     		bhi	.L167
 165:../../source/src/user/OS_LIB/buddy.c **** 	{
 1265              		.loc 1 165 0
 1266 05a2 5A6A     		ldr	r2, [r3, #36]
 1267 05a4 03EB8223 		add	r3, r3, r2, lsl #10
 1268 05a8 9842     		cmp	r0, r3
 1269 05aa 4FF0FF30 		mov	r0, #-1
 1270              	.LVL128:
 1271 05ae 38BF     		it	cc
 1272 05b0 0020     		movcc	r0, #0
ARM GAS  G:\Users\Jaxb\AppData\Local\Temp\ccbV8Tbs.s 			page 36


 1273 05b2 7047     		bx	lr
 1274              	.LVL129:
 1275              	.L167:
 169:../../source/src/user/OS_LIB/buddy.c **** } 
 1276              		.loc 1 169 0
 1277 05b4 4FF0FF30 		mov	r0, #-1
 1278              	.LVL130:
 170:../../source/src/user/OS_LIB/buddy.c **** 
 1279              		.loc 1 170 0
 1280 05b8 7047     		bx	lr
 1281              	.L169:
 1282 05ba 00BF     		.align	2
 1283              	.L168:
 1284 05bc 00000000 		.word	.LANCHOR0
 1285              		.cfi_endproc
 1286              	.LFE15:
 1287              		.size	in_buddy_range, .-in_buddy_range
 1288              		.align	1
 1289              		.p2align 2,,3
 1290              		.global	buddy_init
 1291              		.syntax unified
 1292              		.thumb
 1293              		.thumb_func
 1294              		.fpu softvfp
 1295              		.type	buddy_init, %function
 1296              	buddy_init:
 1297              	.LFB17:
 224:../../source/src/user/OS_LIB/buddy.c **** 	unsigned int size;
 1298              		.loc 1 224 0
 1299              		.cfi_startproc
 1300              		@ args = 0, pretend = 0, frame = 8
 1301              		@ frame_needed = 0, uses_anonymous_args = 0
 1302              	.LVL131:
 230:../../source/src/user/OS_LIB/buddy.c **** 	{
 1303              		.loc 1 230 0
 1304 05c0 0368     		ldr	r3, [r0]
 224:../../source/src/user/OS_LIB/buddy.c **** 	unsigned int size;
 1305              		.loc 1 224 0
 1306 05c2 2DE9F041 		push	{r4, r5, r6, r7, r8, lr}
 1307              	.LCFI11:
 1308              		.cfi_def_cfa_offset 24
 1309              		.cfi_offset 4, -24
 1310              		.cfi_offset 5, -20
 1311              		.cfi_offset 6, -16
 1312              		.cfi_offset 7, -12
 1313              		.cfi_offset 8, -8
 1314              		.cfi_offset 14, -4
 230:../../source/src/user/OS_LIB/buddy.c **** 	{
 1315              		.loc 1 230 0
 1316 05c6 012B     		cmp	r3, #1
 232:../../source/src/user/OS_LIB/buddy.c **** 	}
 1317              		.loc 1 232 0
 1318 05c8 18BF     		it	ne
 1319 05ca 4468     		ldrne	r4, [r0, #4]
 1320              	.LVL132:
 224:../../source/src/user/OS_LIB/buddy.c **** 	unsigned int size;
 1321              		.loc 1 224 0
ARM GAS  G:\Users\Jaxb\AppData\Local\Temp\ccbV8Tbs.s 			page 37


 1322 05cc 0646     		mov	r6, r0
 241:../../source/src/user/OS_LIB/buddy.c **** 	if(dev_mem_para_ptr->size % (PAGE_SIZE_KB * 8 * sizeof(Flag_Type)))
 1323              		.loc 1 241 0
 1324 05ce 8068     		ldr	r0, [r0, #8]
 1325              	.LVL133:
 236:../../source/src/user/OS_LIB/buddy.c **** 	}
 1326              		.loc 1 236 0
 1327 05d0 08BF     		it	eq
 1328 05d2 684C     		ldreq	r4, .L217
 1329              	.LVL134:
 241:../../source/src/user/OS_LIB/buddy.c **** 	if(dev_mem_para_ptr->size % (PAGE_SIZE_KB * 8 * sizeof(Flag_Type)))
 1330              		.loc 1 241 0
 1331 05d4 4209     		lsrs	r2, r0, #5
 1332              	.LVL135:
 242:../../source/src/user/OS_LIB/buddy.c **** 	{
 1333              		.loc 1 242 0
 1334 05d6 C106     		lsls	r1, r0, #27
 244:../../source/src/user/OS_LIB/buddy.c **** 	}
 1335              		.loc 1 244 0
 1336 05d8 18BF     		it	ne
 1337 05da 0132     		addne	r2, r2, #1
 1338              	.LVL136:
 247:../../source/src/user/OS_LIB/buddy.c **** 	buddy_ptr->link_body = (struct order_link *)((char *)buddy_ptr->flag + size*sizeof(Flag_Type));
 1339              		.loc 1 247 0
 1340 05dc 9700     		lsls	r7, r2, #2
 1341              	.LVL137:
 240:../../source/src/user/OS_LIB/buddy.c **** 	size = dev_mem_para_ptr->size / (PAGE_SIZE_KB * 8 * sizeof(Flag_Type));
 1342              		.loc 1 240 0
 1343 05de 04F13C03 		add	r3, r4, #60
 252:../../source/src/user/OS_LIB/buddy.c **** 	buddy_ptr->order_link_flag = (Page_Num_Type *)((char *)buddy_ptr->link_body + size * sizeof(struct
 1344              		.loc 1 252 0
 1345 05e2 8100     		lsls	r1, r0, #2
 240:../../source/src/user/OS_LIB/buddy.c **** 	size = dev_mem_para_ptr->size / (PAGE_SIZE_KB * 8 * sizeof(Flag_Type));
 1346              		.loc 1 240 0
 1347 05e4 2360     		str	r3, [r4]
 248:../../source/src/user/OS_LIB/buddy.c **** //allocate room for link_body[current_used_buddy_ptr->info.page_num]
 1348              		.loc 1 248 0
 1349 05e6 3B44     		add	r3, r3, r7
 253:../../source/src/user/OS_LIB/buddy.c **** //allocate room for order_link_flag[current_used_buddy_ptr->info.page_num]	
 1350              		.loc 1 253 0
 1351 05e8 03EB010C 		add	ip, r3, r1
 255:../../source/src/user/OS_LIB/buddy.c **** 	buddy_ptr->order_array = (Page_Num_Type *)((char *)buddy_ptr->order_link_flag + size * sizeof(Page
 1352              		.loc 1 255 0
 1353 05ec 4FEA4008 		lsl	r8, r0, #1
 248:../../source/src/user/OS_LIB/buddy.c **** //allocate room for link_body[current_used_buddy_ptr->info.page_num]
 1354              		.loc 1 248 0
 1355 05f0 6360     		str	r3, [r4, #4]
 1356              	.LVL138:
 238:../../source/src/user/OS_LIB/buddy.c **** //1.allocate room for flag[current_used_buddy_ptr->info.flag_array_num]
 1357              		.loc 1 238 0
 1358 05f2 614D     		ldr	r5, .L217+4
 256:../../source/src/user/OS_LIB/buddy.c **** //allocate room for order_array[current_used_buddy_ptr->info.max_level]	
 1359              		.loc 1 256 0
 1360 05f4 0CEB0803 		add	r3, ip, r8
 224:../../source/src/user/OS_LIB/buddy.c **** 	unsigned int size;
 1361              		.loc 1 224 0
 1362 05f8 82B0     		sub	sp, sp, #8
ARM GAS  G:\Users\Jaxb\AppData\Local\Temp\ccbV8Tbs.s 			page 38


 1363              	.LCFI12:
 1364              		.cfi_def_cfa_offset 32
 246:../../source/src/user/OS_LIB/buddy.c **** 	size_sum += size*sizeof(Flag_Type);
 1365              		.loc 1 246 0
 1366 05fa 2262     		str	r2, [r4, #32]
 256:../../source/src/user/OS_LIB/buddy.c **** //allocate room for order_array[current_used_buddy_ptr->info.max_level]	
 1367              		.loc 1 256 0
 1368 05fc C4E903C3 		strd	ip, r3, [r4, #12]
 251:../../source/src/user/OS_LIB/buddy.c **** 	size_sum += size * sizeof(struct order_link);
 1369              		.loc 1 251 0
 1370 0600 6062     		str	r0, [r4, #36]
 1371 0602 8844     		add	r8, r8, r1
 1372              	.LVL139:
 238:../../source/src/user/OS_LIB/buddy.c **** //1.allocate room for flag[current_used_buddy_ptr->info.flag_array_num]
 1373              		.loc 1 238 0
 1374 0604 2C60     		str	r4, [r5]
 1375              	.LBB130:
 1376              	.LBB131:
  27:../../source/src/user/OS_LIB/buddy.c **** }
 1377              		.loc 1 27 0
 1378 0606 FFF7FEFF 		bl	get_set_bit_place
 1379              	.LVL140:
 1380              	.LBE131:
 1381              	.LBE130:
 270:../../source/src/user/OS_LIB/buddy.c **** 	buddy_ptr->info.prio = dev_mem_para_ptr->prio;
 1382              		.loc 1 270 0
 1383 060a 0022     		movs	r2, #0
 266:../../source/src/user/OS_LIB/buddy.c **** 	buddy_ptr->buddy_struct_size = size_sum;
 1384              		.loc 1 266 0
 1385 060c 07EB0801 		add	r1, r7, r8
 261:../../source/src/user/OS_LIB/buddy.c **** //allocate room for level_flag_base[buddy_ptr->info.level_flag_base_size]
 1386              		.loc 1 261 0
 1387 0610 2369     		ldr	r3, [r4, #16]
 268:../../source/src/user/OS_LIB/buddy.c **** 	buddy_ptr->buddy_space_start_ptr = (Buddy_Space_Type *)(dev_mem_para_ptr->start);
 1388              		.loc 1 268 0
 1389 0612 B768     		ldr	r7, [r6, #8]
 266:../../source/src/user/OS_LIB/buddy.c **** 	buddy_ptr->buddy_struct_size = size_sum;
 1390              		.loc 1 266 0
 1391 0614 01EB8001 		add	r1, r1, r0, lsl #2
 268:../../source/src/user/OS_LIB/buddy.c **** 	buddy_ptr->buddy_space_start_ptr = (Buddy_Space_Type *)(dev_mem_para_ptr->start);
 1392              		.loc 1 268 0
 1393 0618 0197     		str	r7, [sp, #4]
 269:../../source/src/user/OS_LIB/buddy.c **** 	buddy_ptr->next = NULL;
 1394              		.loc 1 269 0
 1395 061a 7768     		ldr	r7, [r6, #4]
 267:../../source/src/user/OS_LIB/buddy.c **** 	buddy_ptr->current_page_num = dev_mem_para_ptr->size / PAGE_SIZE_KB;
 1396              		.loc 1 267 0
 1397 061c A161     		str	r1, [r4, #24]
 261:../../source/src/user/OS_LIB/buddy.c **** //allocate room for level_flag_base[buddy_ptr->info.level_flag_base_size]
 1398              		.loc 1 261 0
 1399 061e 03EB4001 		add	r1, r3, r0, lsl #1
 1400 0622 6161     		str	r1, [r4, #20]
 1401              	.LVL141:
 271:../../source/src/user/OS_LIB/buddy.c **** //init the data
 1402              		.loc 1 271 0
 1403 0624 3168     		ldr	r1, [r6]
 269:../../source/src/user/OS_LIB/buddy.c **** 	buddy_ptr->next = NULL;
ARM GAS  G:\Users\Jaxb\AppData\Local\Temp\ccbV8Tbs.s 			page 39


 1404              		.loc 1 269 0
 1405 0626 A763     		str	r7, [r4, #56]
 271:../../source/src/user/OS_LIB/buddy.c **** //init the data
 1406              		.loc 1 271 0
 1407 0628 E162     		str	r1, [r4, #44]
 273:../../source/src/user/OS_LIB/buddy.c **** 		buddy_ptr->flag[i] = 0;
 1408              		.loc 1 273 0
 1409 062a 276A     		ldr	r7, [r4, #32]
 268:../../source/src/user/OS_LIB/buddy.c **** 	buddy_ptr->buddy_space_start_ptr = (Buddy_Space_Type *)(dev_mem_para_ptr->start);
 1410              		.loc 1 268 0
 1411 062c 0199     		ldr	r1, [sp, #4]
 259:../../source/src/user/OS_LIB/buddy.c **** 	size_sum += size * sizeof(Page_Num_Type);
 1412              		.loc 1 259 0
 1413 062e A062     		str	r0, [r4, #40]
 265:../../source/src/user/OS_LIB/buddy.c **** 	size_sum += size * sizeof(UINT16);
 1414              		.loc 1 265 0
 1415 0630 2063     		str	r0, [r4, #48]
 268:../../source/src/user/OS_LIB/buddy.c **** 	buddy_ptr->buddy_space_start_ptr = (Buddy_Space_Type *)(dev_mem_para_ptr->start);
 1416              		.loc 1 268 0
 1417 0632 E161     		str	r1, [r4, #28]
 270:../../source/src/user/OS_LIB/buddy.c **** 	buddy_ptr->info.prio = dev_mem_para_ptr->prio;
 1418              		.loc 1 270 0
 1419 0634 6263     		str	r2, [r4, #52]
 273:../../source/src/user/OS_LIB/buddy.c **** 		buddy_ptr->flag[i] = 0;
 1420              		.loc 1 273 0
 1421 0636 4FB1     		cbz	r7, .L173
 274:../../source/src/user/OS_LIB/buddy.c **** 
 1422              		.loc 1 274 0
 1423 0638 1746     		mov	r7, r2
 1424 063a 2168     		ldr	r1, [r4]
 1425 063c 0439     		subs	r1, r1, #4
 1426              	.LVL142:
 1427              	.L174:
 274:../../source/src/user/OS_LIB/buddy.c **** 
 1428              		.loc 1 274 0 is_stmt 0 discriminator 3
 1429 063e 41F8047F 		str	r7, [r1, #4]!
 273:../../source/src/user/OS_LIB/buddy.c **** 		buddy_ptr->flag[i] = 0;
 1430              		.loc 1 273 0 is_stmt 1 discriminator 3
 1431 0642 206A     		ldr	r0, [r4, #32]
 1432 0644 0132     		adds	r2, r2, #1
 1433              	.LVL143:
 1434 0646 9042     		cmp	r0, r2
 1435 0648 F9D8     		bhi	.L174
 1436 064a A06A     		ldr	r0, [r4, #40]
 1437              	.LVL144:
 1438              	.L173:
 276:../../source/src/user/OS_LIB/buddy.c **** 
 1439              		.loc 1 276 0
 1440 064c 0022     		movs	r2, #0
 278:../../source/src/user/OS_LIB/buddy.c **** 		buddy_ptr->order_link_flag[i] = i+1;
 1441              		.loc 1 278 0
 1442 064e 616A     		ldr	r1, [r4, #36]
 276:../../source/src/user/OS_LIB/buddy.c **** 
 1443              		.loc 1 276 0
 1444 0650 2281     		strh	r2, [r4, #8]	@ movhi
 1445              	.LVL145:
 278:../../source/src/user/OS_LIB/buddy.c **** 		buddy_ptr->order_link_flag[i] = i+1;
ARM GAS  G:\Users\Jaxb\AppData\Local\Temp\ccbV8Tbs.s 			page 40


 1446              		.loc 1 278 0
 1447 0652 0129     		cmp	r1, #1
 1448 0654 D4F80CE0 		ldr	lr, [r4, #12]
 1449 0658 0BD0     		beq	.L175
 1450 065a AEF1020C 		sub	ip, lr, #2
 1451 065e 0122     		movs	r2, #1
 1452 0660 00E0     		b	.L176
 1453              	.LVL146:
 1454              	.L193:
 1455 0662 3A46     		mov	r2, r7
 1456              	.LVL147:
 1457              	.L176:
 1458 0664 571C     		adds	r7, r2, #1
 278:../../source/src/user/OS_LIB/buddy.c **** 		buddy_ptr->order_link_flag[i] = i+1;
 1459              		.loc 1 278 0 is_stmt 0 discriminator 3
 1460 0666 8F42     		cmp	r7, r1
 279:../../source/src/user/OS_LIB/buddy.c **** 	buddy_ptr->order_link_flag[i] = NOTHING;
 1461              		.loc 1 279 0 is_stmt 1 discriminator 3
 1462 0668 2CF8022F 		strh	r2, [ip, #2]!	@ movhi
 1463              	.LVL148:
 278:../../source/src/user/OS_LIB/buddy.c **** 		buddy_ptr->order_link_flag[i] = i+1;
 1464              		.loc 1 278 0 discriminator 3
 1465 066c F9D1     		bne	.L193
 1466 066e 0EEB420E 		add	lr, lr, r2, lsl #1
 1467              	.LVL149:
 1468              	.L175:
 280:../../source/src/user/OS_LIB/buddy.c **** 
 1469              		.loc 1 280 0
 1470 0672 4FF6FF72 		movw	r2, #65535
 1471 0676 AEF80020 		strh	r2, [lr]	@ movhi
 1472              	.LVL150:
 282:../../source/src/user/OS_LIB/buddy.c **** 		buddy_ptr->order_array[i] = NOTHING;
 1473              		.loc 1 282 0
 1474 067a 0028     		cmp	r0, #0
 1475 067c 73D0     		beq	.L194
 1476 067e 023B     		subs	r3, r3, #2
 1477 0680 03EB4001 		add	r1, r3, r0, lsl #1
 1478              	.LVL151:
 1479              	.L178:
 283:../../source/src/user/OS_LIB/buddy.c **** 
 1480              		.loc 1 283 0 discriminator 3
 1481 0684 23F8022F 		strh	r2, [r3, #2]!	@ movhi
 282:../../source/src/user/OS_LIB/buddy.c **** 		buddy_ptr->order_array[i] = NOTHING;
 1482              		.loc 1 282 0 discriminator 3
 1483 0688 9942     		cmp	r1, r3
 1484 068a FBD1     		bne	.L178
 1485 068c 411E     		subs	r1, r0, #1
 1486              	.L177:
 285:../../source/src/user/OS_LIB/buddy.c **** 	buddy_ptr->level_flag_base[0] = 0;
 1487              		.loc 1 285 0
 1488 068e 0220     		movs	r0, #2
 1489 0690 FFF7FEFF 		bl	ka_pow
 1490              	.LVL152:
 286:../../source/src/user/OS_LIB/buddy.c **** 	for(i=1;i<buddy_ptr->info.level_flag_base_size;++i,buffer/=2)
 1491              		.loc 1 286 0
 1492 0694 0023     		movs	r3, #0
 287:../../source/src/user/OS_LIB/buddy.c **** 		buddy_ptr->level_flag_base[i] = buddy_ptr->level_flag_base[i-1] + buffer;
ARM GAS  G:\Users\Jaxb\AppData\Local\Temp\ccbV8Tbs.s 			page 41


 1493              		.loc 1 287 0
 1494 0696 216B     		ldr	r1, [r4, #48]
 286:../../source/src/user/OS_LIB/buddy.c **** 	for(i=1;i<buddy_ptr->info.level_flag_base_size;++i,buffer/=2)
 1495              		.loc 1 286 0
 1496 0698 6269     		ldr	r2, [r4, #20]
 287:../../source/src/user/OS_LIB/buddy.c **** 		buddy_ptr->level_flag_base[i] = buddy_ptr->level_flag_base[i-1] + buffer;
 1497              		.loc 1 287 0
 1498 069a 0129     		cmp	r1, #1
 286:../../source/src/user/OS_LIB/buddy.c **** 	for(i=1;i<buddy_ptr->info.level_flag_base_size;++i,buffer/=2)
 1499              		.loc 1 286 0
 1500 069c 1380     		strh	r3, [r2]	@ movhi
 1501              	.LVL153:
 287:../../source/src/user/OS_LIB/buddy.c **** 		buddy_ptr->level_flag_base[i] = buddy_ptr->level_flag_base[i-1] + buffer;
 1502              		.loc 1 287 0
 1503 069e 0AD9     		bls	.L179
 1504 06a0 02EB4101 		add	r1, r2, r1, lsl #1
 1505 06a4 0239     		subs	r1, r1, #2
 1506              	.LVL154:
 1507              	.L180:
 288:../../source/src/user/OS_LIB/buddy.c **** //set the order_array[current_used_buddy_ptr->info.max_level],and then allocate a room for struct b
 1508              		.loc 1 288 0 discriminator 3
 1509 06a6 0344     		add	r3, r3, r0
 1510 06a8 9BB2     		uxth	r3, r3
 1511 06aa 22F8023F 		strh	r3, [r2, #2]!	@ movhi
 287:../../source/src/user/OS_LIB/buddy.c **** 		buddy_ptr->level_flag_base[i] = buddy_ptr->level_flag_base[i-1] + buffer;
 1512              		.loc 1 287 0 discriminator 3
 1513 06ae 9142     		cmp	r1, r2
 1514 06b0 4FEA5000 		lsr	r0, r0, #1
 1515              	.LVL155:
 1516 06b4 F7D1     		bne	.L180
 1517              	.L179:
 291:../../source/src/user/OS_LIB/buddy.c **** 	_add_to_order_array(buddy_ptr->info.max_level,0);
 1518              		.loc 1 291 0
 1519 06b6 0121     		movs	r1, #1
 1520 06b8 A06A     		ldr	r0, [r4, #40]
 1521              	.LVL156:
 1522 06ba 431E     		subs	r3, r0, #1
 1523 06bc 9940     		lsls	r1, r1, r3
 1524 06be 89B2     		uxth	r1, r1
 1525 06c0 FFF79EFC 		bl	_add_to_order_array
 1526              	.LVL157:
 292:../../source/src/user/OS_LIB/buddy.c **** //mark the space used by struct buddy
 1527              		.loc 1 292 0
 1528 06c4 0021     		movs	r1, #0
 1529 06c6 A06A     		ldr	r0, [r4, #40]
 1530 06c8 FFF79AFC 		bl	_add_to_order_array
 1531              	.LVL158:
 294:../../source/src/user/OS_LIB/buddy.c **** 	PRINTF("space used by os is %d\n",size);
 1532              		.loc 1 294 0
 1533 06cc 7268     		ldr	r2, [r6, #4]
 1534 06ce A669     		ldr	r6, [r4, #24]
 1535              	.LVL159:
 1536 06d0 C2F13C02 		rsb	r2, r2, #60
 1537 06d4 2244     		add	r2, r2, r4
 1538 06d6 1644     		add	r6, r6, r2
 1539              	.LVL160:
 295:../../source/src/user/OS_LIB/buddy.c **** 	if(size % PAGE_SIZE_BYTE)
ARM GAS  G:\Users\Jaxb\AppData\Local\Temp\ccbV8Tbs.s 			page 42


 1540              		.loc 1 295 0
 1541 06d8 3146     		mov	r1, r6
 1542 06da 2848     		ldr	r0, .L217+8
 1543 06dc FFF7FEFF 		bl	ka_printf
 1544              	.LVL161:
 296:../../source/src/user/OS_LIB/buddy.c **** 	{
 1545              		.loc 1 296 0
 1546 06e0 C6F30903 		ubfx	r3, r6, #0, #10
 298:../../source/src/user/OS_LIB/buddy.c **** 	}
 1547              		.loc 1 298 0
 1548 06e4 B20A     		lsrs	r2, r6, #10
 296:../../source/src/user/OS_LIB/buddy.c **** 	{
 1549              		.loc 1 296 0
 1550 06e6 03B1     		cbz	r3, .L182
 298:../../source/src/user/OS_LIB/buddy.c **** 	}
 1551              		.loc 1 298 0
 1552 06e8 0132     		adds	r2, r2, #1
 1553              	.LVL162:
 1554              	.L182:
 304:../../source/src/user/OS_LIB/buddy.c **** 	{
 1555              		.loc 1 304 0
 1556 06ea 2B68     		ldr	r3, [r5]
 1557 06ec 9E6A     		ldr	r6, [r3, #40]
 1558 06ee 66B1     		cbz	r6, .L183
 306:../../source/src/user/OS_LIB/buddy.c **** 		{
 1559              		.loc 1 306 0
 1560 06f0 012A     		cmp	r2, #1
 1561 06f2 3BD9     		bls	.L195
 304:../../source/src/user/OS_LIB/buddy.c **** 	{
 1562              		.loc 1 304 0
 1563 06f4 0020     		movs	r0, #0
 306:../../source/src/user/OS_LIB/buddy.c **** 		{
 1564              		.loc 1 306 0
 1565 06f6 0127     		movs	r7, #1
 1566 06f8 02E0     		b	.L185
 1567              	.LVL163:
 1568              	.L187:
 1569 06fa 9142     		cmp	r1, r2
 1570 06fc 20D2     		bcs	.L215
 1571 06fe 1846     		mov	r0, r3
 1572              	.LVL164:
 1573              	.L185:
 304:../../source/src/user/OS_LIB/buddy.c **** 	{
 1574              		.loc 1 304 0 discriminator 2
 1575 0700 431C     		adds	r3, r0, #1
 1576              	.LVL165:
 1577 0702 B342     		cmp	r3, r6
 306:../../source/src/user/OS_LIB/buddy.c **** 		{
 1578              		.loc 1 306 0 discriminator 2
 1579 0704 07FA03F1 		lsl	r1, r7, r3
 304:../../source/src/user/OS_LIB/buddy.c **** 	{
 1580              		.loc 1 304 0 discriminator 2
 1581 0708 F7D1     		bne	.L187
 1582              	.LVL166:
 1583              	.L183:
 314:../../source/src/user/OS_LIB/buddy.c **** final_step:
 1584              		.loc 1 314 0 discriminator 1
ARM GAS  G:\Users\Jaxb\AppData\Local\Temp\ccbV8Tbs.s 			page 43


 1585 070a 4FF49D71 		mov	r1, #314
 1586 070e 1C48     		ldr	r0, .L217+12
 1587 0710 FFF7FEFF 		bl	_ASSERT
 1588              	.LVL167:
 1589              	.L186:
 1590              	.LBB132:
 1591              	.LBB133:
 174:../../source/src/user/OS_LIB/buddy.c **** 	{
 1592              		.loc 1 174 0
 1593 0714 6A68     		ldr	r2, [r5, #4]
 1594 0716 22B1     		cbz	r2, .L214
 178:../../source/src/user/OS_LIB/buddy.c **** 	{
 1595              		.loc 1 178 0
 1596 0718 E06A     		ldr	r0, [r4, #44]
 1597 071a D36A     		ldr	r3, [r2, #44]
 1598 071c 8342     		cmp	r3, r0
 1599 071e 08D9     		bls	.L190
 180:../../source/src/user/OS_LIB/buddy.c **** 		os_buddy_ptr_head = buddy_ptr;
 1600              		.loc 1 180 0
 1601 0720 6263     		str	r2, [r4, #52]
 1602              	.L214:
 181:../../source/src/user/OS_LIB/buddy.c **** 	}
 1603              		.loc 1 181 0
 1604 0722 6C60     		str	r4, [r5, #4]
 1605              	.LBE133:
 1606              	.LBE132:
 318:../../source/src/user/OS_LIB/buddy.c **** 
 1607              		.loc 1 318 0
 1608 0724 02B0     		add	sp, sp, #8
 1609              	.LCFI13:
 1610              		.cfi_remember_state
 1611              		.cfi_def_cfa_offset 24
 1612              		@ sp needed
 1613 0726 BDE8F081 		pop	{r4, r5, r6, r7, r8, pc}
 1614              	.LVL168:
 1615              	.L191:
 1616              	.LCFI14:
 1617              		.cfi_restore_state
 1618              	.LBB138:
 1619              	.LBB136:
 1620              	.LBB134:
 188:../../source/src/user/OS_LIB/buddy.c **** 			{
 1621              		.loc 1 188 0
 1622 072a D96A     		ldr	r1, [r3, #44]
 1623 072c 8842     		cmp	r0, r1
 1624 072e 15D3     		bcc	.L216
 1625 0730 1A46     		mov	r2, r3
 1626              	.LVL169:
 1627              	.L190:
 186:../../source/src/user/OS_LIB/buddy.c **** 		{
 1628              		.loc 1 186 0
 1629 0732 536B     		ldr	r3, [r2, #52]
 1630 0734 002B     		cmp	r3, #0
 1631 0736 F8D1     		bne	.L191
 196:../../source/src/user/OS_LIB/buddy.c **** 	}
 1632              		.loc 1 196 0
 1633 0738 5463     		str	r4, [r2, #52]
ARM GAS  G:\Users\Jaxb\AppData\Local\Temp\ccbV8Tbs.s 			page 44


 1634              	.LVL170:
 1635              	.LBE134:
 1636              	.LBE136:
 1637              	.LBE138:
 318:../../source/src/user/OS_LIB/buddy.c **** 
 1638              		.loc 1 318 0
 1639 073a 02B0     		add	sp, sp, #8
 1640              	.LCFI15:
 1641              		.cfi_remember_state
 1642              		.cfi_def_cfa_offset 24
 1643              		@ sp needed
 1644 073c BDE8F081 		pop	{r4, r5, r6, r7, r8, pc}
 1645              	.LVL171:
 1646              	.L215:
 1647              	.LCFI16:
 1648              		.cfi_restore_state
 1649 0740 0F46     		mov	r7, r1
 1650 0742 861C     		adds	r6, r0, #2
 1651              	.LVL172:
 1652              	.L184:
 308:../../source/src/user/OS_LIB/buddy.c **** 			_alloc_page(i+1);
 1653              		.loc 1 308 0
 1654 0744 3146     		mov	r1, r6
 1655 0746 0F48     		ldr	r0, .L217+16
 1656 0748 FFF7FEFF 		bl	ka_printf
 1657              	.LVL173:
 309:../../source/src/user/OS_LIB/buddy.c **** 			current_used_buddy_ptr->current_page_num -= 0x01<<i;
 1658              		.loc 1 309 0
 1659 074c 3046     		mov	r0, r6
 1660 074e FFF7EBFC 		bl	_alloc_page
 1661              	.LVL174:
 310:../../source/src/user/OS_LIB/buddy.c **** 			goto final_step;
 1662              		.loc 1 310 0
 1663 0752 2B68     		ldr	r3, [r5]
 1664 0754 D969     		ldr	r1, [r3, #28]
 1665 0756 C91B     		subs	r1, r1, r7
 1666 0758 D961     		str	r1, [r3, #28]
 311:../../source/src/user/OS_LIB/buddy.c **** 		}
 1667              		.loc 1 311 0
 1668 075a DBE7     		b	.L186
 1669              	.LVL175:
 1670              	.L216:
 1671              	.LBB139:
 1672              	.LBB137:
 1673              	.LBB135:
 190:../../source/src/user/OS_LIB/buddy.c **** 				buffer_ptr->next = buddy_ptr;
 1674              		.loc 1 190 0
 1675 075c 6363     		str	r3, [r4, #52]
 191:../../source/src/user/OS_LIB/buddy.c **** 				return ;
 1676              		.loc 1 191 0
 1677 075e 5463     		str	r4, [r2, #52]
 1678              	.LBE135:
 1679              	.LBE137:
 1680              	.LBE139:
 318:../../source/src/user/OS_LIB/buddy.c **** 
 1681              		.loc 1 318 0
 1682 0760 02B0     		add	sp, sp, #8
ARM GAS  G:\Users\Jaxb\AppData\Local\Temp\ccbV8Tbs.s 			page 45


 1683              	.LCFI17:
 1684              		.cfi_remember_state
 1685              		.cfi_def_cfa_offset 24
 1686              		@ sp needed
 1687 0762 BDE8F081 		pop	{r4, r5, r6, r7, r8, pc}
 1688              	.LVL176:
 1689              	.L194:
 1690              	.LCFI18:
 1691              		.cfi_restore_state
 282:../../source/src/user/OS_LIB/buddy.c **** 		buddy_ptr->order_array[i] = NOTHING;
 1692              		.loc 1 282 0
 1693 0766 4FF0FF31 		mov	r1, #-1
 1694 076a 90E7     		b	.L177
 1695              	.LVL177:
 1696              	.L195:
 306:../../source/src/user/OS_LIB/buddy.c **** 		{
 1697              		.loc 1 306 0
 1698 076c 0127     		movs	r7, #1
 1699 076e 3E46     		mov	r6, r7
 1700 0770 E8E7     		b	.L184
 1701              	.L218:
 1702 0772 00BF     		.align	2
 1703              	.L217:
 1704 0774 04000000 		.word	_ebss+4
 1705 0778 00000000 		.word	.LANCHOR0
 1706 077c 28000000 		.word	.LC1
 1707 0780 00000000 		.word	.LC0
 1708 0784 40000000 		.word	.LC2
 1709              		.cfi_endproc
 1710              	.LFE17:
 1711              		.size	buddy_init, .-buddy_init
 1712              		.align	1
 1713              		.p2align 2,,3
 1714              		.global	alloc_power1_page
 1715              		.syntax unified
 1716              		.thumb
 1717              		.thumb_func
 1718              		.fpu softvfp
 1719              		.type	alloc_power1_page, %function
 1720              	alloc_power1_page:
 1721              	.LFB19:
 352:../../source/src/user/OS_LIB/buddy.c **** 	CPU_SR_ALLOC();
 1722              		.loc 1 352 0
 1723              		.cfi_startproc
 1724              		@ args = 0, pretend = 0, frame = 0
 1725              		@ frame_needed = 0, uses_anonymous_args = 0
 1726              	.LVL178:
 1727 0788 70B5     		push	{r4, r5, r6, lr}
 1728              	.LCFI19:
 1729              		.cfi_def_cfa_offset 16
 1730              		.cfi_offset 4, -16
 1731              		.cfi_offset 5, -12
 1732              		.cfi_offset 6, -8
 1733              		.cfi_offset 14, -4
 354:../../source/src/user/OS_LIB/buddy.c **** 	Page_Num_Type num = _alloc_page(1);
 1734              		.loc 1 354 0
 1735 078a FFF7FEFF 		bl	CPU_SR_Save
ARM GAS  G:\Users\Jaxb\AppData\Local\Temp\ccbV8Tbs.s 			page 46


 1736              	.LVL179:
 1737 078e 0646     		mov	r6, r0
 1738              	.LVL180:
 355:../../source/src/user/OS_LIB/buddy.c **** 	if(NOTHING != num)
 1739              		.loc 1 355 0
 1740 0790 0120     		movs	r0, #1
 1741              	.LVL181:
 1742 0792 FFF7C9FC 		bl	_alloc_page
 1743              	.LVL182:
 356:../../source/src/user/OS_LIB/buddy.c **** 	{
 1744              		.loc 1 356 0
 1745 0796 4FF6FF73 		movw	r3, #65535
 1746 079a 9842     		cmp	r0, r3
 355:../../source/src/user/OS_LIB/buddy.c **** 	if(NOTHING != num)
 1747              		.loc 1 355 0
 1748 079c 0446     		mov	r4, r0
 1749              	.LVL183:
 356:../../source/src/user/OS_LIB/buddy.c **** 	{
 1750              		.loc 1 356 0
 1751 079e 0CD0     		beq	.L220
 359:../../source/src/user/OS_LIB/buddy.c **** 		CPU_CRITICAL_EXIT();
 1752              		.loc 1 359 0
 1753 07a0 084D     		ldr	r5, .L222
 360:../../source/src/user/OS_LIB/buddy.c **** 		return _add_of_num(num);
 1754              		.loc 1 360 0
 1755 07a2 3046     		mov	r0, r6
 1756              	.LVL184:
 359:../../source/src/user/OS_LIB/buddy.c **** 		CPU_CRITICAL_EXIT();
 1757              		.loc 1 359 0
 1758 07a4 2A68     		ldr	r2, [r5]
 1759 07a6 D369     		ldr	r3, [r2, #28]
 1760 07a8 013B     		subs	r3, r3, #1
 1761 07aa D361     		str	r3, [r2, #28]
 360:../../source/src/user/OS_LIB/buddy.c **** 		return _add_of_num(num);
 1762              		.loc 1 360 0
 1763 07ac FFF7FEFF 		bl	CPU_SR_Restore
 1764              	.LVL185:
 1765              	.LBB140:
 1766              	.LBB141:
 142:../../source/src/user/OS_LIB/buddy.c **** }
 1767              		.loc 1 142 0
 1768 07b0 2B68     		ldr	r3, [r5]
 1769 07b2 986B     		ldr	r0, [r3, #56]
 1770 07b4 00EB8420 		add	r0, r0, r4, lsl #10
 1771              	.LVL186:
 1772              	.LBE141:
 1773              	.LBE140:
 365:../../source/src/user/OS_LIB/buddy.c **** 
 1774              		.loc 1 365 0
 1775 07b8 70BD     		pop	{r4, r5, r6, pc}
 1776              	.LVL187:
 1777              	.L220:
 363:../../source/src/user/OS_LIB/buddy.c **** 	return NULL;
 1778              		.loc 1 363 0
 1779 07ba 3046     		mov	r0, r6
 1780              	.LVL188:
 1781 07bc FFF7FEFF 		bl	CPU_SR_Restore
ARM GAS  G:\Users\Jaxb\AppData\Local\Temp\ccbV8Tbs.s 			page 47


 1782              	.LVL189:
 364:../../source/src/user/OS_LIB/buddy.c **** }
 1783              		.loc 1 364 0
 1784 07c0 0020     		movs	r0, #0
 365:../../source/src/user/OS_LIB/buddy.c **** 
 1785              		.loc 1 365 0
 1786 07c2 70BD     		pop	{r4, r5, r6, pc}
 1787              	.LVL190:
 1788              	.L223:
 1789              		.align	2
 1790              	.L222:
 1791 07c4 00000000 		.word	.LANCHOR0
 1792              		.cfi_endproc
 1793              	.LFE19:
 1794              		.size	alloc_power1_page, .-alloc_power1_page
 1795              		.align	1
 1796              		.p2align 2,,3
 1797              		.global	alloc_power2_page
 1798              		.syntax unified
 1799              		.thumb
 1800              		.thumb_func
 1801              		.fpu softvfp
 1802              		.type	alloc_power2_page, %function
 1803              	alloc_power2_page:
 1804              	.LFB20:
 368:../../source/src/user/OS_LIB/buddy.c **** 	CPU_SR_ALLOC();
 1805              		.loc 1 368 0
 1806              		.cfi_startproc
 1807              		@ args = 0, pretend = 0, frame = 0
 1808              		@ frame_needed = 0, uses_anonymous_args = 0
 1809              	.LVL191:
 1810 07c8 70B5     		push	{r4, r5, r6, lr}
 1811              	.LCFI20:
 1812              		.cfi_def_cfa_offset 16
 1813              		.cfi_offset 4, -16
 1814              		.cfi_offset 5, -12
 1815              		.cfi_offset 6, -8
 1816              		.cfi_offset 14, -4
 370:../../source/src/user/OS_LIB/buddy.c **** 	Page_Num_Type num = _alloc_page(2);
 1817              		.loc 1 370 0
 1818 07ca FFF7FEFF 		bl	CPU_SR_Save
 1819              	.LVL192:
 1820 07ce 0646     		mov	r6, r0
 1821              	.LVL193:
 371:../../source/src/user/OS_LIB/buddy.c **** 	if(NOTHING != num)
 1822              		.loc 1 371 0
 1823 07d0 0220     		movs	r0, #2
 1824              	.LVL194:
 1825 07d2 FFF7A9FC 		bl	_alloc_page
 1826              	.LVL195:
 372:../../source/src/user/OS_LIB/buddy.c **** 	{
 1827              		.loc 1 372 0
 1828 07d6 4FF6FF73 		movw	r3, #65535
 1829 07da 9842     		cmp	r0, r3
 371:../../source/src/user/OS_LIB/buddy.c **** 	if(NOTHING != num)
 1830              		.loc 1 371 0
 1831 07dc 0446     		mov	r4, r0
ARM GAS  G:\Users\Jaxb\AppData\Local\Temp\ccbV8Tbs.s 			page 48


 1832              	.LVL196:
 372:../../source/src/user/OS_LIB/buddy.c **** 	{
 1833              		.loc 1 372 0
 1834 07de 0CD0     		beq	.L225
 375:../../source/src/user/OS_LIB/buddy.c **** 		CPU_CRITICAL_EXIT();
 1835              		.loc 1 375 0
 1836 07e0 084D     		ldr	r5, .L227
 376:../../source/src/user/OS_LIB/buddy.c **** 		return _add_of_num(num);
 1837              		.loc 1 376 0
 1838 07e2 3046     		mov	r0, r6
 1839              	.LVL197:
 375:../../source/src/user/OS_LIB/buddy.c **** 		CPU_CRITICAL_EXIT();
 1840              		.loc 1 375 0
 1841 07e4 2A68     		ldr	r2, [r5]
 1842 07e6 D369     		ldr	r3, [r2, #28]
 1843 07e8 023B     		subs	r3, r3, #2
 1844 07ea D361     		str	r3, [r2, #28]
 376:../../source/src/user/OS_LIB/buddy.c **** 		return _add_of_num(num);
 1845              		.loc 1 376 0
 1846 07ec FFF7FEFF 		bl	CPU_SR_Restore
 1847              	.LVL198:
 1848              	.LBB142:
 1849              	.LBB143:
 142:../../source/src/user/OS_LIB/buddy.c **** }
 1850              		.loc 1 142 0
 1851 07f0 2B68     		ldr	r3, [r5]
 1852 07f2 986B     		ldr	r0, [r3, #56]
 1853 07f4 00EB8420 		add	r0, r0, r4, lsl #10
 1854              	.LVL199:
 1855              	.LBE143:
 1856              	.LBE142:
 381:../../source/src/user/OS_LIB/buddy.c **** 
 1857              		.loc 1 381 0
 1858 07f8 70BD     		pop	{r4, r5, r6, pc}
 1859              	.LVL200:
 1860              	.L225:
 379:../../source/src/user/OS_LIB/buddy.c **** 	return NULL;
 1861              		.loc 1 379 0
 1862 07fa 3046     		mov	r0, r6
 1863              	.LVL201:
 1864 07fc FFF7FEFF 		bl	CPU_SR_Restore
 1865              	.LVL202:
 380:../../source/src/user/OS_LIB/buddy.c **** }
 1866              		.loc 1 380 0
 1867 0800 0020     		movs	r0, #0
 381:../../source/src/user/OS_LIB/buddy.c **** 
 1868              		.loc 1 381 0
 1869 0802 70BD     		pop	{r4, r5, r6, pc}
 1870              	.LVL203:
 1871              	.L228:
 1872              		.align	2
 1873              	.L227:
 1874 0804 00000000 		.word	.LANCHOR0
 1875              		.cfi_endproc
 1876              	.LFE20:
 1877              		.size	alloc_power2_page, .-alloc_power2_page
 1878              		.align	1
ARM GAS  G:\Users\Jaxb\AppData\Local\Temp\ccbV8Tbs.s 			page 49


 1879              		.p2align 2,,3
 1880              		.global	alloc_power3_page
 1881              		.syntax unified
 1882              		.thumb
 1883              		.thumb_func
 1884              		.fpu softvfp
 1885              		.type	alloc_power3_page, %function
 1886              	alloc_power3_page:
 1887              	.LFB21:
 384:../../source/src/user/OS_LIB/buddy.c **** 	CPU_SR_ALLOC();
 1888              		.loc 1 384 0
 1889              		.cfi_startproc
 1890              		@ args = 0, pretend = 0, frame = 0
 1891              		@ frame_needed = 0, uses_anonymous_args = 0
 1892              	.LVL204:
 1893 0808 70B5     		push	{r4, r5, r6, lr}
 1894              	.LCFI21:
 1895              		.cfi_def_cfa_offset 16
 1896              		.cfi_offset 4, -16
 1897              		.cfi_offset 5, -12
 1898              		.cfi_offset 6, -8
 1899              		.cfi_offset 14, -4
 386:../../source/src/user/OS_LIB/buddy.c **** 	Page_Num_Type num = _alloc_page(3);
 1900              		.loc 1 386 0
 1901 080a FFF7FEFF 		bl	CPU_SR_Save
 1902              	.LVL205:
 1903 080e 0646     		mov	r6, r0
 1904              	.LVL206:
 387:../../source/src/user/OS_LIB/buddy.c **** 	if(NOTHING != num)
 1905              		.loc 1 387 0
 1906 0810 0320     		movs	r0, #3
 1907              	.LVL207:
 1908 0812 FFF789FC 		bl	_alloc_page
 1909              	.LVL208:
 388:../../source/src/user/OS_LIB/buddy.c **** 	{
 1910              		.loc 1 388 0
 1911 0816 4FF6FF73 		movw	r3, #65535
 1912 081a 9842     		cmp	r0, r3
 387:../../source/src/user/OS_LIB/buddy.c **** 	if(NOTHING != num)
 1913              		.loc 1 387 0
 1914 081c 0446     		mov	r4, r0
 1915              	.LVL209:
 388:../../source/src/user/OS_LIB/buddy.c **** 	{
 1916              		.loc 1 388 0
 1917 081e 0CD0     		beq	.L230
 391:../../source/src/user/OS_LIB/buddy.c **** 		CPU_CRITICAL_EXIT();
 1918              		.loc 1 391 0
 1919 0820 084D     		ldr	r5, .L232
 392:../../source/src/user/OS_LIB/buddy.c **** 		return _add_of_num(num);
 1920              		.loc 1 392 0
 1921 0822 3046     		mov	r0, r6
 1922              	.LVL210:
 391:../../source/src/user/OS_LIB/buddy.c **** 		CPU_CRITICAL_EXIT();
 1923              		.loc 1 391 0
 1924 0824 2A68     		ldr	r2, [r5]
 1925 0826 D369     		ldr	r3, [r2, #28]
 1926 0828 043B     		subs	r3, r3, #4
ARM GAS  G:\Users\Jaxb\AppData\Local\Temp\ccbV8Tbs.s 			page 50


 1927 082a D361     		str	r3, [r2, #28]
 392:../../source/src/user/OS_LIB/buddy.c **** 		return _add_of_num(num);
 1928              		.loc 1 392 0
 1929 082c FFF7FEFF 		bl	CPU_SR_Restore
 1930              	.LVL211:
 1931              	.LBB144:
 1932              	.LBB145:
 142:../../source/src/user/OS_LIB/buddy.c **** }
 1933              		.loc 1 142 0
 1934 0830 2B68     		ldr	r3, [r5]
 1935 0832 986B     		ldr	r0, [r3, #56]
 1936 0834 00EB8420 		add	r0, r0, r4, lsl #10
 1937              	.LVL212:
 1938              	.LBE145:
 1939              	.LBE144:
 397:../../source/src/user/OS_LIB/buddy.c **** 
 1940              		.loc 1 397 0
 1941 0838 70BD     		pop	{r4, r5, r6, pc}
 1942              	.LVL213:
 1943              	.L230:
 395:../../source/src/user/OS_LIB/buddy.c **** 	return NULL;
 1944              		.loc 1 395 0
 1945 083a 3046     		mov	r0, r6
 1946              	.LVL214:
 1947 083c FFF7FEFF 		bl	CPU_SR_Restore
 1948              	.LVL215:
 396:../../source/src/user/OS_LIB/buddy.c **** }
 1949              		.loc 1 396 0
 1950 0840 0020     		movs	r0, #0
 397:../../source/src/user/OS_LIB/buddy.c **** 
 1951              		.loc 1 397 0
 1952 0842 70BD     		pop	{r4, r5, r6, pc}
 1953              	.LVL216:
 1954              	.L233:
 1955              		.align	2
 1956              	.L232:
 1957 0844 00000000 		.word	.LANCHOR0
 1958              		.cfi_endproc
 1959              	.LFE21:
 1960              		.size	alloc_power3_page, .-alloc_power3_page
 1961              		.align	1
 1962              		.p2align 2,,3
 1963              		.global	alloc_power4_page
 1964              		.syntax unified
 1965              		.thumb
 1966              		.thumb_func
 1967              		.fpu softvfp
 1968              		.type	alloc_power4_page, %function
 1969              	alloc_power4_page:
 1970              	.LFB22:
 400:../../source/src/user/OS_LIB/buddy.c **** 	CPU_SR_ALLOC();
 1971              		.loc 1 400 0
 1972              		.cfi_startproc
 1973              		@ args = 0, pretend = 0, frame = 0
 1974              		@ frame_needed = 0, uses_anonymous_args = 0
 1975              	.LVL217:
 1976 0848 70B5     		push	{r4, r5, r6, lr}
ARM GAS  G:\Users\Jaxb\AppData\Local\Temp\ccbV8Tbs.s 			page 51


 1977              	.LCFI22:
 1978              		.cfi_def_cfa_offset 16
 1979              		.cfi_offset 4, -16
 1980              		.cfi_offset 5, -12
 1981              		.cfi_offset 6, -8
 1982              		.cfi_offset 14, -4
 402:../../source/src/user/OS_LIB/buddy.c **** 	Page_Num_Type num = _alloc_page(4);
 1983              		.loc 1 402 0
 1984 084a FFF7FEFF 		bl	CPU_SR_Save
 1985              	.LVL218:
 1986 084e 0646     		mov	r6, r0
 1987              	.LVL219:
 403:../../source/src/user/OS_LIB/buddy.c **** 	if(NOTHING != num)
 1988              		.loc 1 403 0
 1989 0850 0420     		movs	r0, #4
 1990              	.LVL220:
 1991 0852 FFF769FC 		bl	_alloc_page
 1992              	.LVL221:
 404:../../source/src/user/OS_LIB/buddy.c **** 	{
 1993              		.loc 1 404 0
 1994 0856 4FF6FF73 		movw	r3, #65535
 1995 085a 9842     		cmp	r0, r3
 403:../../source/src/user/OS_LIB/buddy.c **** 	if(NOTHING != num)
 1996              		.loc 1 403 0
 1997 085c 0446     		mov	r4, r0
 1998              	.LVL222:
 404:../../source/src/user/OS_LIB/buddy.c **** 	{
 1999              		.loc 1 404 0
 2000 085e 0CD0     		beq	.L235
 407:../../source/src/user/OS_LIB/buddy.c **** 		CPU_CRITICAL_EXIT();
 2001              		.loc 1 407 0
 2002 0860 084D     		ldr	r5, .L237
 408:../../source/src/user/OS_LIB/buddy.c **** 		return _add_of_num(num);
 2003              		.loc 1 408 0
 2004 0862 3046     		mov	r0, r6
 2005              	.LVL223:
 407:../../source/src/user/OS_LIB/buddy.c **** 		CPU_CRITICAL_EXIT();
 2006              		.loc 1 407 0
 2007 0864 2A68     		ldr	r2, [r5]
 2008 0866 D369     		ldr	r3, [r2, #28]
 2009 0868 083B     		subs	r3, r3, #8
 2010 086a D361     		str	r3, [r2, #28]
 408:../../source/src/user/OS_LIB/buddy.c **** 		return _add_of_num(num);
 2011              		.loc 1 408 0
 2012 086c FFF7FEFF 		bl	CPU_SR_Restore
 2013              	.LVL224:
 2014              	.LBB146:
 2015              	.LBB147:
 142:../../source/src/user/OS_LIB/buddy.c **** }
 2016              		.loc 1 142 0
 2017 0870 2B68     		ldr	r3, [r5]
 2018 0872 986B     		ldr	r0, [r3, #56]
 2019 0874 00EB8420 		add	r0, r0, r4, lsl #10
 2020              	.LVL225:
 2021              	.LBE147:
 2022              	.LBE146:
 413:../../source/src/user/OS_LIB/buddy.c **** 
ARM GAS  G:\Users\Jaxb\AppData\Local\Temp\ccbV8Tbs.s 			page 52


 2023              		.loc 1 413 0
 2024 0878 70BD     		pop	{r4, r5, r6, pc}
 2025              	.LVL226:
 2026              	.L235:
 411:../../source/src/user/OS_LIB/buddy.c **** 	return NULL;
 2027              		.loc 1 411 0
 2028 087a 3046     		mov	r0, r6
 2029              	.LVL227:
 2030 087c FFF7FEFF 		bl	CPU_SR_Restore
 2031              	.LVL228:
 412:../../source/src/user/OS_LIB/buddy.c **** }
 2032              		.loc 1 412 0
 2033 0880 0020     		movs	r0, #0
 413:../../source/src/user/OS_LIB/buddy.c **** 
 2034              		.loc 1 413 0
 2035 0882 70BD     		pop	{r4, r5, r6, pc}
 2036              	.LVL229:
 2037              	.L238:
 2038              		.align	2
 2039              	.L237:
 2040 0884 00000000 		.word	.LANCHOR0
 2041              		.cfi_endproc
 2042              	.LFE22:
 2043              		.size	alloc_power4_page, .-alloc_power4_page
 2044              		.align	1
 2045              		.p2align 2,,3
 2046              		.global	alloc_power5_page
 2047              		.syntax unified
 2048              		.thumb
 2049              		.thumb_func
 2050              		.fpu softvfp
 2051              		.type	alloc_power5_page, %function
 2052              	alloc_power5_page:
 2053              	.LFB23:
 416:../../source/src/user/OS_LIB/buddy.c **** 	CPU_SR_ALLOC();
 2054              		.loc 1 416 0
 2055              		.cfi_startproc
 2056              		@ args = 0, pretend = 0, frame = 0
 2057              		@ frame_needed = 0, uses_anonymous_args = 0
 2058              	.LVL230:
 2059 0888 70B5     		push	{r4, r5, r6, lr}
 2060              	.LCFI23:
 2061              		.cfi_def_cfa_offset 16
 2062              		.cfi_offset 4, -16
 2063              		.cfi_offset 5, -12
 2064              		.cfi_offset 6, -8
 2065              		.cfi_offset 14, -4
 418:../../source/src/user/OS_LIB/buddy.c **** 	Page_Num_Type num = _alloc_page(5);
 2066              		.loc 1 418 0
 2067 088a FFF7FEFF 		bl	CPU_SR_Save
 2068              	.LVL231:
 2069 088e 0646     		mov	r6, r0
 2070              	.LVL232:
 419:../../source/src/user/OS_LIB/buddy.c **** 	if(NOTHING != num)
 2071              		.loc 1 419 0
 2072 0890 0520     		movs	r0, #5
 2073              	.LVL233:
ARM GAS  G:\Users\Jaxb\AppData\Local\Temp\ccbV8Tbs.s 			page 53


 2074 0892 FFF749FC 		bl	_alloc_page
 2075              	.LVL234:
 420:../../source/src/user/OS_LIB/buddy.c **** 	{
 2076              		.loc 1 420 0
 2077 0896 4FF6FF73 		movw	r3, #65535
 2078 089a 9842     		cmp	r0, r3
 419:../../source/src/user/OS_LIB/buddy.c **** 	if(NOTHING != num)
 2079              		.loc 1 419 0
 2080 089c 0446     		mov	r4, r0
 2081              	.LVL235:
 420:../../source/src/user/OS_LIB/buddy.c **** 	{
 2082              		.loc 1 420 0
 2083 089e 0CD0     		beq	.L240
 423:../../source/src/user/OS_LIB/buddy.c **** 		CPU_CRITICAL_EXIT();
 2084              		.loc 1 423 0
 2085 08a0 084D     		ldr	r5, .L242
 424:../../source/src/user/OS_LIB/buddy.c **** 		return _add_of_num(num);
 2086              		.loc 1 424 0
 2087 08a2 3046     		mov	r0, r6
 2088              	.LVL236:
 423:../../source/src/user/OS_LIB/buddy.c **** 		CPU_CRITICAL_EXIT();
 2089              		.loc 1 423 0
 2090 08a4 2A68     		ldr	r2, [r5]
 2091 08a6 D369     		ldr	r3, [r2, #28]
 2092 08a8 103B     		subs	r3, r3, #16
 2093 08aa D361     		str	r3, [r2, #28]
 424:../../source/src/user/OS_LIB/buddy.c **** 		return _add_of_num(num);
 2094              		.loc 1 424 0
 2095 08ac FFF7FEFF 		bl	CPU_SR_Restore
 2096              	.LVL237:
 2097              	.LBB148:
 2098              	.LBB149:
 142:../../source/src/user/OS_LIB/buddy.c **** }
 2099              		.loc 1 142 0
 2100 08b0 2B68     		ldr	r3, [r5]
 2101 08b2 986B     		ldr	r0, [r3, #56]
 2102 08b4 00EB8420 		add	r0, r0, r4, lsl #10
 2103              	.LVL238:
 2104              	.LBE149:
 2105              	.LBE148:
 429:../../source/src/user/OS_LIB/buddy.c **** 
 2106              		.loc 1 429 0
 2107 08b8 70BD     		pop	{r4, r5, r6, pc}
 2108              	.LVL239:
 2109              	.L240:
 427:../../source/src/user/OS_LIB/buddy.c **** 	return NULL;
 2110              		.loc 1 427 0
 2111 08ba 3046     		mov	r0, r6
 2112              	.LVL240:
 2113 08bc FFF7FEFF 		bl	CPU_SR_Restore
 2114              	.LVL241:
 428:../../source/src/user/OS_LIB/buddy.c **** }
 2115              		.loc 1 428 0
 2116 08c0 0020     		movs	r0, #0
 429:../../source/src/user/OS_LIB/buddy.c **** 
 2117              		.loc 1 429 0
 2118 08c2 70BD     		pop	{r4, r5, r6, pc}
ARM GAS  G:\Users\Jaxb\AppData\Local\Temp\ccbV8Tbs.s 			page 54


 2119              	.LVL242:
 2120              	.L243:
 2121              		.align	2
 2122              	.L242:
 2123 08c4 00000000 		.word	.LANCHOR0
 2124              		.cfi_endproc
 2125              	.LFE23:
 2126              		.size	alloc_power5_page, .-alloc_power5_page
 2127              		.align	1
 2128              		.p2align 2,,3
 2129              		.global	alloc_power6_page
 2130              		.syntax unified
 2131              		.thumb
 2132              		.thumb_func
 2133              		.fpu softvfp
 2134              		.type	alloc_power6_page, %function
 2135              	alloc_power6_page:
 2136              	.LFB24:
 432:../../source/src/user/OS_LIB/buddy.c **** 	CPU_SR_ALLOC();
 2137              		.loc 1 432 0
 2138              		.cfi_startproc
 2139              		@ args = 0, pretend = 0, frame = 0
 2140              		@ frame_needed = 0, uses_anonymous_args = 0
 2141              	.LVL243:
 2142 08c8 70B5     		push	{r4, r5, r6, lr}
 2143              	.LCFI24:
 2144              		.cfi_def_cfa_offset 16
 2145              		.cfi_offset 4, -16
 2146              		.cfi_offset 5, -12
 2147              		.cfi_offset 6, -8
 2148              		.cfi_offset 14, -4
 434:../../source/src/user/OS_LIB/buddy.c **** 	Page_Num_Type num = _alloc_page(6);
 2149              		.loc 1 434 0
 2150 08ca FFF7FEFF 		bl	CPU_SR_Save
 2151              	.LVL244:
 2152 08ce 0646     		mov	r6, r0
 2153              	.LVL245:
 435:../../source/src/user/OS_LIB/buddy.c **** 	if(NOTHING != num)
 2154              		.loc 1 435 0
 2155 08d0 0620     		movs	r0, #6
 2156              	.LVL246:
 2157 08d2 FFF729FC 		bl	_alloc_page
 2158              	.LVL247:
 436:../../source/src/user/OS_LIB/buddy.c **** 	{
 2159              		.loc 1 436 0
 2160 08d6 4FF6FF73 		movw	r3, #65535
 2161 08da 9842     		cmp	r0, r3
 435:../../source/src/user/OS_LIB/buddy.c **** 	if(NOTHING != num)
 2162              		.loc 1 435 0
 2163 08dc 0446     		mov	r4, r0
 2164              	.LVL248:
 436:../../source/src/user/OS_LIB/buddy.c **** 	{
 2165              		.loc 1 436 0
 2166 08de 0CD0     		beq	.L245
 439:../../source/src/user/OS_LIB/buddy.c **** 		CPU_CRITICAL_EXIT();
 2167              		.loc 1 439 0
 2168 08e0 084D     		ldr	r5, .L247
ARM GAS  G:\Users\Jaxb\AppData\Local\Temp\ccbV8Tbs.s 			page 55


 440:../../source/src/user/OS_LIB/buddy.c **** 		return _add_of_num(num);
 2169              		.loc 1 440 0
 2170 08e2 3046     		mov	r0, r6
 2171              	.LVL249:
 439:../../source/src/user/OS_LIB/buddy.c **** 		CPU_CRITICAL_EXIT();
 2172              		.loc 1 439 0
 2173 08e4 2A68     		ldr	r2, [r5]
 2174 08e6 D369     		ldr	r3, [r2, #28]
 2175 08e8 203B     		subs	r3, r3, #32
 2176 08ea D361     		str	r3, [r2, #28]
 440:../../source/src/user/OS_LIB/buddy.c **** 		return _add_of_num(num);
 2177              		.loc 1 440 0
 2178 08ec FFF7FEFF 		bl	CPU_SR_Restore
 2179              	.LVL250:
 2180              	.LBB150:
 2181              	.LBB151:
 142:../../source/src/user/OS_LIB/buddy.c **** }
 2182              		.loc 1 142 0
 2183 08f0 2B68     		ldr	r3, [r5]
 2184 08f2 986B     		ldr	r0, [r3, #56]
 2185 08f4 00EB8420 		add	r0, r0, r4, lsl #10
 2186              	.LVL251:
 2187              	.LBE151:
 2188              	.LBE150:
 445:../../source/src/user/OS_LIB/buddy.c **** 
 2189              		.loc 1 445 0
 2190 08f8 70BD     		pop	{r4, r5, r6, pc}
 2191              	.LVL252:
 2192              	.L245:
 443:../../source/src/user/OS_LIB/buddy.c **** 	return NULL;
 2193              		.loc 1 443 0
 2194 08fa 3046     		mov	r0, r6
 2195              	.LVL253:
 2196 08fc FFF7FEFF 		bl	CPU_SR_Restore
 2197              	.LVL254:
 444:../../source/src/user/OS_LIB/buddy.c **** }
 2198              		.loc 1 444 0
 2199 0900 0020     		movs	r0, #0
 445:../../source/src/user/OS_LIB/buddy.c **** 
 2200              		.loc 1 445 0
 2201 0902 70BD     		pop	{r4, r5, r6, pc}
 2202              	.LVL255:
 2203              	.L248:
 2204              		.align	2
 2205              	.L247:
 2206 0904 00000000 		.word	.LANCHOR0
 2207              		.cfi_endproc
 2208              	.LFE24:
 2209              		.size	alloc_power6_page, .-alloc_power6_page
 2210              		.align	1
 2211              		.p2align 2,,3
 2212              		.global	alloc_power7_page
 2213              		.syntax unified
 2214              		.thumb
 2215              		.thumb_func
 2216              		.fpu softvfp
 2217              		.type	alloc_power7_page, %function
ARM GAS  G:\Users\Jaxb\AppData\Local\Temp\ccbV8Tbs.s 			page 56


 2218              	alloc_power7_page:
 2219              	.LFB25:
 448:../../source/src/user/OS_LIB/buddy.c **** 	CPU_SR_ALLOC();
 2220              		.loc 1 448 0
 2221              		.cfi_startproc
 2222              		@ args = 0, pretend = 0, frame = 0
 2223              		@ frame_needed = 0, uses_anonymous_args = 0
 2224              	.LVL256:
 2225 0908 70B5     		push	{r4, r5, r6, lr}
 2226              	.LCFI25:
 2227              		.cfi_def_cfa_offset 16
 2228              		.cfi_offset 4, -16
 2229              		.cfi_offset 5, -12
 2230              		.cfi_offset 6, -8
 2231              		.cfi_offset 14, -4
 450:../../source/src/user/OS_LIB/buddy.c **** 	Page_Num_Type num = _alloc_page(7);
 2232              		.loc 1 450 0
 2233 090a FFF7FEFF 		bl	CPU_SR_Save
 2234              	.LVL257:
 2235 090e 0646     		mov	r6, r0
 2236              	.LVL258:
 451:../../source/src/user/OS_LIB/buddy.c **** 	if(NOTHING != num)
 2237              		.loc 1 451 0
 2238 0910 0720     		movs	r0, #7
 2239              	.LVL259:
 2240 0912 FFF709FC 		bl	_alloc_page
 2241              	.LVL260:
 452:../../source/src/user/OS_LIB/buddy.c **** 	{
 2242              		.loc 1 452 0
 2243 0916 4FF6FF73 		movw	r3, #65535
 2244 091a 9842     		cmp	r0, r3
 451:../../source/src/user/OS_LIB/buddy.c **** 	if(NOTHING != num)
 2245              		.loc 1 451 0
 2246 091c 0446     		mov	r4, r0
 2247              	.LVL261:
 452:../../source/src/user/OS_LIB/buddy.c **** 	{
 2248              		.loc 1 452 0
 2249 091e 0CD0     		beq	.L250
 455:../../source/src/user/OS_LIB/buddy.c **** 		CPU_CRITICAL_EXIT();
 2250              		.loc 1 455 0
 2251 0920 084D     		ldr	r5, .L252
 456:../../source/src/user/OS_LIB/buddy.c **** 		return _add_of_num(num);
 2252              		.loc 1 456 0
 2253 0922 3046     		mov	r0, r6
 2254              	.LVL262:
 455:../../source/src/user/OS_LIB/buddy.c **** 		CPU_CRITICAL_EXIT();
 2255              		.loc 1 455 0
 2256 0924 2A68     		ldr	r2, [r5]
 2257 0926 D369     		ldr	r3, [r2, #28]
 2258 0928 403B     		subs	r3, r3, #64
 2259 092a D361     		str	r3, [r2, #28]
 456:../../source/src/user/OS_LIB/buddy.c **** 		return _add_of_num(num);
 2260              		.loc 1 456 0
 2261 092c FFF7FEFF 		bl	CPU_SR_Restore
 2262              	.LVL263:
 2263              	.LBB152:
 2264              	.LBB153:
ARM GAS  G:\Users\Jaxb\AppData\Local\Temp\ccbV8Tbs.s 			page 57


 142:../../source/src/user/OS_LIB/buddy.c **** }
 2265              		.loc 1 142 0
 2266 0930 2B68     		ldr	r3, [r5]
 2267 0932 986B     		ldr	r0, [r3, #56]
 2268 0934 00EB8420 		add	r0, r0, r4, lsl #10
 2269              	.LVL264:
 2270              	.LBE153:
 2271              	.LBE152:
 461:../../source/src/user/OS_LIB/buddy.c **** 
 2272              		.loc 1 461 0
 2273 0938 70BD     		pop	{r4, r5, r6, pc}
 2274              	.LVL265:
 2275              	.L250:
 459:../../source/src/user/OS_LIB/buddy.c **** 	return NULL;
 2276              		.loc 1 459 0
 2277 093a 3046     		mov	r0, r6
 2278              	.LVL266:
 2279 093c FFF7FEFF 		bl	CPU_SR_Restore
 2280              	.LVL267:
 460:../../source/src/user/OS_LIB/buddy.c **** }
 2281              		.loc 1 460 0
 2282 0940 0020     		movs	r0, #0
 461:../../source/src/user/OS_LIB/buddy.c **** 
 2283              		.loc 1 461 0
 2284 0942 70BD     		pop	{r4, r5, r6, pc}
 2285              	.LVL268:
 2286              	.L253:
 2287              		.align	2
 2288              	.L252:
 2289 0944 00000000 		.word	.LANCHOR0
 2290              		.cfi_endproc
 2291              	.LFE25:
 2292              		.size	alloc_power7_page, .-alloc_power7_page
 2293              		.align	1
 2294              		.p2align 2,,3
 2295              		.global	alloc_power8_page
 2296              		.syntax unified
 2297              		.thumb
 2298              		.thumb_func
 2299              		.fpu softvfp
 2300              		.type	alloc_power8_page, %function
 2301              	alloc_power8_page:
 2302              	.LFB26:
 464:../../source/src/user/OS_LIB/buddy.c **** 	CPU_SR_ALLOC();
 2303              		.loc 1 464 0
 2304              		.cfi_startproc
 2305              		@ args = 0, pretend = 0, frame = 0
 2306              		@ frame_needed = 0, uses_anonymous_args = 0
 2307              	.LVL269:
 2308 0948 70B5     		push	{r4, r5, r6, lr}
 2309              	.LCFI26:
 2310              		.cfi_def_cfa_offset 16
 2311              		.cfi_offset 4, -16
 2312              		.cfi_offset 5, -12
 2313              		.cfi_offset 6, -8
 2314              		.cfi_offset 14, -4
 466:../../source/src/user/OS_LIB/buddy.c **** 	Page_Num_Type num = _alloc_page(8);
ARM GAS  G:\Users\Jaxb\AppData\Local\Temp\ccbV8Tbs.s 			page 58


 2315              		.loc 1 466 0
 2316 094a FFF7FEFF 		bl	CPU_SR_Save
 2317              	.LVL270:
 2318 094e 0646     		mov	r6, r0
 2319              	.LVL271:
 467:../../source/src/user/OS_LIB/buddy.c **** 	if(NOTHING != num)
 2320              		.loc 1 467 0
 2321 0950 0820     		movs	r0, #8
 2322              	.LVL272:
 2323 0952 FFF7E9FB 		bl	_alloc_page
 2324              	.LVL273:
 468:../../source/src/user/OS_LIB/buddy.c **** 	{
 2325              		.loc 1 468 0
 2326 0956 4FF6FF73 		movw	r3, #65535
 2327 095a 9842     		cmp	r0, r3
 467:../../source/src/user/OS_LIB/buddy.c **** 	if(NOTHING != num)
 2328              		.loc 1 467 0
 2329 095c 0446     		mov	r4, r0
 2330              	.LVL274:
 468:../../source/src/user/OS_LIB/buddy.c **** 	{
 2331              		.loc 1 468 0
 2332 095e 0CD0     		beq	.L255
 471:../../source/src/user/OS_LIB/buddy.c **** 		CPU_CRITICAL_EXIT();
 2333              		.loc 1 471 0
 2334 0960 084D     		ldr	r5, .L257
 472:../../source/src/user/OS_LIB/buddy.c **** 		return _add_of_num(num);
 2335              		.loc 1 472 0
 2336 0962 3046     		mov	r0, r6
 2337              	.LVL275:
 471:../../source/src/user/OS_LIB/buddy.c **** 		CPU_CRITICAL_EXIT();
 2338              		.loc 1 471 0
 2339 0964 2A68     		ldr	r2, [r5]
 2340 0966 D369     		ldr	r3, [r2, #28]
 2341 0968 803B     		subs	r3, r3, #128
 2342 096a D361     		str	r3, [r2, #28]
 472:../../source/src/user/OS_LIB/buddy.c **** 		return _add_of_num(num);
 2343              		.loc 1 472 0
 2344 096c FFF7FEFF 		bl	CPU_SR_Restore
 2345              	.LVL276:
 2346              	.LBB154:
 2347              	.LBB155:
 142:../../source/src/user/OS_LIB/buddy.c **** }
 2348              		.loc 1 142 0
 2349 0970 2B68     		ldr	r3, [r5]
 2350 0972 986B     		ldr	r0, [r3, #56]
 2351 0974 00EB8420 		add	r0, r0, r4, lsl #10
 2352              	.LVL277:
 2353              	.LBE155:
 2354              	.LBE154:
 477:../../source/src/user/OS_LIB/buddy.c **** 
 2355              		.loc 1 477 0
 2356 0978 70BD     		pop	{r4, r5, r6, pc}
 2357              	.LVL278:
 2358              	.L255:
 475:../../source/src/user/OS_LIB/buddy.c **** 	return NULL;
 2359              		.loc 1 475 0
 2360 097a 3046     		mov	r0, r6
ARM GAS  G:\Users\Jaxb\AppData\Local\Temp\ccbV8Tbs.s 			page 59


 2361              	.LVL279:
 2362 097c FFF7FEFF 		bl	CPU_SR_Restore
 2363              	.LVL280:
 476:../../source/src/user/OS_LIB/buddy.c **** }
 2364              		.loc 1 476 0
 2365 0980 0020     		movs	r0, #0
 477:../../source/src/user/OS_LIB/buddy.c **** 
 2366              		.loc 1 477 0
 2367 0982 70BD     		pop	{r4, r5, r6, pc}
 2368              	.LVL281:
 2369              	.L258:
 2370              		.align	2
 2371              	.L257:
 2372 0984 00000000 		.word	.LANCHOR0
 2373              		.cfi_endproc
 2374              	.LFE26:
 2375              		.size	alloc_power8_page, .-alloc_power8_page
 2376              		.align	1
 2377              		.p2align 2,,3
 2378              		.global	alloc_power9_page
 2379              		.syntax unified
 2380              		.thumb
 2381              		.thumb_func
 2382              		.fpu softvfp
 2383              		.type	alloc_power9_page, %function
 2384              	alloc_power9_page:
 2385              	.LFB27:
 480:../../source/src/user/OS_LIB/buddy.c **** 	CPU_SR_ALLOC();
 2386              		.loc 1 480 0
 2387              		.cfi_startproc
 2388              		@ args = 0, pretend = 0, frame = 0
 2389              		@ frame_needed = 0, uses_anonymous_args = 0
 2390              	.LVL282:
 2391 0988 70B5     		push	{r4, r5, r6, lr}
 2392              	.LCFI27:
 2393              		.cfi_def_cfa_offset 16
 2394              		.cfi_offset 4, -16
 2395              		.cfi_offset 5, -12
 2396              		.cfi_offset 6, -8
 2397              		.cfi_offset 14, -4
 482:../../source/src/user/OS_LIB/buddy.c **** 	Page_Num_Type num = _alloc_page(9);
 2398              		.loc 1 482 0
 2399 098a FFF7FEFF 		bl	CPU_SR_Save
 2400              	.LVL283:
 2401 098e 0646     		mov	r6, r0
 2402              	.LVL284:
 483:../../source/src/user/OS_LIB/buddy.c **** 	if(NOTHING != num)
 2403              		.loc 1 483 0
 2404 0990 0920     		movs	r0, #9
 2405              	.LVL285:
 2406 0992 FFF7C9FB 		bl	_alloc_page
 2407              	.LVL286:
 484:../../source/src/user/OS_LIB/buddy.c **** 	{
 2408              		.loc 1 484 0
 2409 0996 4FF6FF73 		movw	r3, #65535
 2410 099a 9842     		cmp	r0, r3
 483:../../source/src/user/OS_LIB/buddy.c **** 	if(NOTHING != num)
ARM GAS  G:\Users\Jaxb\AppData\Local\Temp\ccbV8Tbs.s 			page 60


 2411              		.loc 1 483 0
 2412 099c 0446     		mov	r4, r0
 2413              	.LVL287:
 484:../../source/src/user/OS_LIB/buddy.c **** 	{
 2414              		.loc 1 484 0
 2415 099e 0DD0     		beq	.L260
 487:../../source/src/user/OS_LIB/buddy.c **** 		CPU_CRITICAL_EXIT();
 2416              		.loc 1 487 0
 2417 09a0 094D     		ldr	r5, .L262
 488:../../source/src/user/OS_LIB/buddy.c **** 		return _add_of_num(num);
 2418              		.loc 1 488 0
 2419 09a2 3046     		mov	r0, r6
 2420              	.LVL288:
 487:../../source/src/user/OS_LIB/buddy.c **** 		CPU_CRITICAL_EXIT();
 2421              		.loc 1 487 0
 2422 09a4 2A68     		ldr	r2, [r5]
 2423 09a6 D369     		ldr	r3, [r2, #28]
 2424 09a8 A3F58073 		sub	r3, r3, #256
 2425 09ac D361     		str	r3, [r2, #28]
 488:../../source/src/user/OS_LIB/buddy.c **** 		return _add_of_num(num);
 2426              		.loc 1 488 0
 2427 09ae FFF7FEFF 		bl	CPU_SR_Restore
 2428              	.LVL289:
 2429              	.LBB156:
 2430              	.LBB157:
 142:../../source/src/user/OS_LIB/buddy.c **** }
 2431              		.loc 1 142 0
 2432 09b2 2B68     		ldr	r3, [r5]
 2433 09b4 986B     		ldr	r0, [r3, #56]
 2434 09b6 00EB8420 		add	r0, r0, r4, lsl #10
 2435              	.LVL290:
 2436              	.LBE157:
 2437              	.LBE156:
 493:../../source/src/user/OS_LIB/buddy.c **** 
 2438              		.loc 1 493 0
 2439 09ba 70BD     		pop	{r4, r5, r6, pc}
 2440              	.LVL291:
 2441              	.L260:
 491:../../source/src/user/OS_LIB/buddy.c **** 	return NULL;
 2442              		.loc 1 491 0
 2443 09bc 3046     		mov	r0, r6
 2444              	.LVL292:
 2445 09be FFF7FEFF 		bl	CPU_SR_Restore
 2446              	.LVL293:
 492:../../source/src/user/OS_LIB/buddy.c **** }
 2447              		.loc 1 492 0
 2448 09c2 0020     		movs	r0, #0
 493:../../source/src/user/OS_LIB/buddy.c **** 
 2449              		.loc 1 493 0
 2450 09c4 70BD     		pop	{r4, r5, r6, pc}
 2451              	.LVL294:
 2452              	.L263:
 2453 09c6 00BF     		.align	2
 2454              	.L262:
 2455 09c8 00000000 		.word	.LANCHOR0
 2456              		.cfi_endproc
 2457              	.LFE27:
ARM GAS  G:\Users\Jaxb\AppData\Local\Temp\ccbV8Tbs.s 			page 61


 2458              		.size	alloc_power9_page, .-alloc_power9_page
 2459              		.align	1
 2460              		.p2align 2,,3
 2461              		.global	alloc_power10_page
 2462              		.syntax unified
 2463              		.thumb
 2464              		.thumb_func
 2465              		.fpu softvfp
 2466              		.type	alloc_power10_page, %function
 2467              	alloc_power10_page:
 2468              	.LFB28:
 496:../../source/src/user/OS_LIB/buddy.c **** 	CPU_SR_ALLOC();
 2469              		.loc 1 496 0
 2470              		.cfi_startproc
 2471              		@ args = 0, pretend = 0, frame = 0
 2472              		@ frame_needed = 0, uses_anonymous_args = 0
 2473              	.LVL295:
 2474 09cc 70B5     		push	{r4, r5, r6, lr}
 2475              	.LCFI28:
 2476              		.cfi_def_cfa_offset 16
 2477              		.cfi_offset 4, -16
 2478              		.cfi_offset 5, -12
 2479              		.cfi_offset 6, -8
 2480              		.cfi_offset 14, -4
 498:../../source/src/user/OS_LIB/buddy.c **** 	Page_Num_Type num = _alloc_page(10);
 2481              		.loc 1 498 0
 2482 09ce FFF7FEFF 		bl	CPU_SR_Save
 2483              	.LVL296:
 2484 09d2 0646     		mov	r6, r0
 2485              	.LVL297:
 499:../../source/src/user/OS_LIB/buddy.c **** 	if(NOTHING != num)
 2486              		.loc 1 499 0
 2487 09d4 0A20     		movs	r0, #10
 2488              	.LVL298:
 2489 09d6 FFF7A7FB 		bl	_alloc_page
 2490              	.LVL299:
 500:../../source/src/user/OS_LIB/buddy.c **** 	{
 2491              		.loc 1 500 0
 2492 09da 4FF6FF73 		movw	r3, #65535
 2493 09de 9842     		cmp	r0, r3
 499:../../source/src/user/OS_LIB/buddy.c **** 	if(NOTHING != num)
 2494              		.loc 1 499 0
 2495 09e0 0446     		mov	r4, r0
 2496              	.LVL300:
 500:../../source/src/user/OS_LIB/buddy.c **** 	{
 2497              		.loc 1 500 0
 2498 09e2 0DD0     		beq	.L265
 503:../../source/src/user/OS_LIB/buddy.c **** 		CPU_CRITICAL_EXIT();
 2499              		.loc 1 503 0
 2500 09e4 094D     		ldr	r5, .L267
 504:../../source/src/user/OS_LIB/buddy.c **** 		return _add_of_num(num);
 2501              		.loc 1 504 0
 2502 09e6 3046     		mov	r0, r6
 2503              	.LVL301:
 503:../../source/src/user/OS_LIB/buddy.c **** 		CPU_CRITICAL_EXIT();
 2504              		.loc 1 503 0
 2505 09e8 2A68     		ldr	r2, [r5]
ARM GAS  G:\Users\Jaxb\AppData\Local\Temp\ccbV8Tbs.s 			page 62


 2506 09ea D369     		ldr	r3, [r2, #28]
 2507 09ec A3F50073 		sub	r3, r3, #512
 2508 09f0 D361     		str	r3, [r2, #28]
 504:../../source/src/user/OS_LIB/buddy.c **** 		return _add_of_num(num);
 2509              		.loc 1 504 0
 2510 09f2 FFF7FEFF 		bl	CPU_SR_Restore
 2511              	.LVL302:
 2512              	.LBB158:
 2513              	.LBB159:
 142:../../source/src/user/OS_LIB/buddy.c **** }
 2514              		.loc 1 142 0
 2515 09f6 2B68     		ldr	r3, [r5]
 2516 09f8 986B     		ldr	r0, [r3, #56]
 2517 09fa 00EB8420 		add	r0, r0, r4, lsl #10
 2518              	.LVL303:
 2519              	.LBE159:
 2520              	.LBE158:
 509:../../source/src/user/OS_LIB/buddy.c **** 
 2521              		.loc 1 509 0
 2522 09fe 70BD     		pop	{r4, r5, r6, pc}
 2523              	.LVL304:
 2524              	.L265:
 507:../../source/src/user/OS_LIB/buddy.c **** 	return NULL;
 2525              		.loc 1 507 0
 2526 0a00 3046     		mov	r0, r6
 2527              	.LVL305:
 2528 0a02 FFF7FEFF 		bl	CPU_SR_Restore
 2529              	.LVL306:
 508:../../source/src/user/OS_LIB/buddy.c **** }
 2530              		.loc 1 508 0
 2531 0a06 0020     		movs	r0, #0
 509:../../source/src/user/OS_LIB/buddy.c **** 
 2532              		.loc 1 509 0
 2533 0a08 70BD     		pop	{r4, r5, r6, pc}
 2534              	.LVL307:
 2535              	.L268:
 2536 0a0a 00BF     		.align	2
 2537              	.L267:
 2538 0a0c 00000000 		.word	.LANCHOR0
 2539              		.cfi_endproc
 2540              	.LFE28:
 2541              		.size	alloc_power10_page, .-alloc_power10_page
 2542              		.align	1
 2543              		.p2align 2,,3
 2544              		.global	return_power1_page
 2545              		.syntax unified
 2546              		.thumb
 2547              		.thumb_func
 2548              		.fpu softvfp
 2549              		.type	return_power1_page, %function
 2550              	return_power1_page:
 2551              	.LFB34:
 590:../../source/src/user/OS_LIB/buddy.c **** 
 591:../../source/src/user/OS_LIB/buddy.c **** inline void return_power1_page(void *ptr)
 592:../../source/src/user/OS_LIB/buddy.c **** {
 2552              		.loc 1 592 0
 2553              		.cfi_startproc
ARM GAS  G:\Users\Jaxb\AppData\Local\Temp\ccbV8Tbs.s 			page 63


 2554              		@ args = 0, pretend = 0, frame = 0
 2555              		@ frame_needed = 0, uses_anonymous_args = 0
 2556              	.LVL308:
 2557 0a10 38B5     		push	{r3, r4, r5, lr}
 2558              	.LCFI29:
 2559              		.cfi_def_cfa_offset 16
 2560              		.cfi_offset 3, -16
 2561              		.cfi_offset 4, -12
 2562              		.cfi_offset 5, -8
 2563              		.cfi_offset 14, -4
 2564              		.loc 1 592 0
 2565 0a12 0546     		mov	r5, r0
 593:../../source/src/user/OS_LIB/buddy.c **** 	CPU_SR_ALLOC();
 594:../../source/src/user/OS_LIB/buddy.c **** 	CPU_CRITICAL_ENTER();
 2566              		.loc 1 594 0
 2567 0a14 FFF7FEFF 		bl	CPU_SR_Save
 2568              	.LVL309:
 595:../../source/src/user/OS_LIB/buddy.c **** 	//increase the space of the buddy
 596:../../source/src/user/OS_LIB/buddy.c **** 	current_used_buddy_ptr->current_page_num += PAGE_SIZE_KB;
 597:../../source/src/user/OS_LIB/buddy.c **** 	_return_page(ptr,1);
 2569              		.loc 1 597 0
 2570 0a18 0121     		movs	r1, #1
 594:../../source/src/user/OS_LIB/buddy.c **** 	//increase the space of the buddy
 2571              		.loc 1 594 0
 2572 0a1a 0446     		mov	r4, r0
 2573              	.LVL310:
 596:../../source/src/user/OS_LIB/buddy.c **** 	_return_page(ptr,1);
 2574              		.loc 1 596 0
 2575 0a1c 064B     		ldr	r3, .L270
 2576              		.loc 1 597 0
 2577 0a1e 2846     		mov	r0, r5
 2578              	.LVL311:
 596:../../source/src/user/OS_LIB/buddy.c **** 	_return_page(ptr,1);
 2579              		.loc 1 596 0
 2580 0a20 1A68     		ldr	r2, [r3]
 2581 0a22 D369     		ldr	r3, [r2, #28]
 2582 0a24 0B44     		add	r3, r3, r1
 2583 0a26 D361     		str	r3, [r2, #28]
 2584              		.loc 1 597 0
 2585 0a28 FFF7E0FB 		bl	_return_page
 2586              	.LVL312:
 598:../../source/src/user/OS_LIB/buddy.c **** 	CPU_CRITICAL_EXIT();
 2587              		.loc 1 598 0
 2588 0a2c 2046     		mov	r0, r4
 599:../../source/src/user/OS_LIB/buddy.c **** }
 2589              		.loc 1 599 0
 2590 0a2e BDE83840 		pop	{r3, r4, r5, lr}
 2591              	.LCFI30:
 2592              		.cfi_restore 14
 2593              		.cfi_restore 5
 2594              		.cfi_restore 4
 2595              		.cfi_restore 3
 2596              		.cfi_def_cfa_offset 0
 2597              	.LVL313:
 598:../../source/src/user/OS_LIB/buddy.c **** 	CPU_CRITICAL_EXIT();
 2598              		.loc 1 598 0
 2599 0a32 FFF7FEBF 		b	CPU_SR_Restore
ARM GAS  G:\Users\Jaxb\AppData\Local\Temp\ccbV8Tbs.s 			page 64


 2600              	.LVL314:
 2601              	.L271:
 2602 0a36 00BF     		.align	2
 2603              	.L270:
 2604 0a38 00000000 		.word	.LANCHOR0
 2605              		.cfi_endproc
 2606              	.LFE34:
 2607              		.size	return_power1_page, .-return_power1_page
 2608              		.align	1
 2609              		.p2align 2,,3
 2610              		.global	return_power2_page
 2611              		.syntax unified
 2612              		.thumb
 2613              		.thumb_func
 2614              		.fpu softvfp
 2615              		.type	return_power2_page, %function
 2616              	return_power2_page:
 2617              	.LFB35:
 600:../../source/src/user/OS_LIB/buddy.c **** 
 601:../../source/src/user/OS_LIB/buddy.c **** void return_power2_page(void *ptr)
 602:../../source/src/user/OS_LIB/buddy.c **** {
 2618              		.loc 1 602 0
 2619              		.cfi_startproc
 2620              		@ args = 0, pretend = 0, frame = 0
 2621              		@ frame_needed = 0, uses_anonymous_args = 0
 2622              	.LVL315:
 2623 0a3c 38B5     		push	{r3, r4, r5, lr}
 2624              	.LCFI31:
 2625              		.cfi_def_cfa_offset 16
 2626              		.cfi_offset 3, -16
 2627              		.cfi_offset 4, -12
 2628              		.cfi_offset 5, -8
 2629              		.cfi_offset 14, -4
 2630              		.loc 1 602 0
 2631 0a3e 0546     		mov	r5, r0
 603:../../source/src/user/OS_LIB/buddy.c **** 	CPU_SR_ALLOC();
 604:../../source/src/user/OS_LIB/buddy.c **** 	CPU_CRITICAL_ENTER();
 2632              		.loc 1 604 0
 2633 0a40 FFF7FEFF 		bl	CPU_SR_Save
 2634              	.LVL316:
 605:../../source/src/user/OS_LIB/buddy.c **** 	//increase the space of the buddy
 606:../../source/src/user/OS_LIB/buddy.c **** 	current_used_buddy_ptr->current_page_num += 2 * PAGE_SIZE_KB;
 607:../../source/src/user/OS_LIB/buddy.c **** 	_return_page(ptr,2);
 2635              		.loc 1 607 0
 2636 0a44 0221     		movs	r1, #2
 604:../../source/src/user/OS_LIB/buddy.c **** 	//increase the space of the buddy
 2637              		.loc 1 604 0
 2638 0a46 0446     		mov	r4, r0
 2639              	.LVL317:
 606:../../source/src/user/OS_LIB/buddy.c **** 	_return_page(ptr,2);
 2640              		.loc 1 606 0
 2641 0a48 064B     		ldr	r3, .L273
 2642              		.loc 1 607 0
 2643 0a4a 2846     		mov	r0, r5
 2644              	.LVL318:
 606:../../source/src/user/OS_LIB/buddy.c **** 	_return_page(ptr,2);
 2645              		.loc 1 606 0
ARM GAS  G:\Users\Jaxb\AppData\Local\Temp\ccbV8Tbs.s 			page 65


 2646 0a4c 1A68     		ldr	r2, [r3]
 2647 0a4e D369     		ldr	r3, [r2, #28]
 2648 0a50 0B44     		add	r3, r3, r1
 2649 0a52 D361     		str	r3, [r2, #28]
 2650              		.loc 1 607 0
 2651 0a54 FFF7CAFB 		bl	_return_page
 2652              	.LVL319:
 608:../../source/src/user/OS_LIB/buddy.c **** 	CPU_CRITICAL_EXIT();
 2653              		.loc 1 608 0
 2654 0a58 2046     		mov	r0, r4
 609:../../source/src/user/OS_LIB/buddy.c **** }
 2655              		.loc 1 609 0
 2656 0a5a BDE83840 		pop	{r3, r4, r5, lr}
 2657              	.LCFI32:
 2658              		.cfi_restore 14
 2659              		.cfi_restore 5
 2660              		.cfi_restore 4
 2661              		.cfi_restore 3
 2662              		.cfi_def_cfa_offset 0
 2663              	.LVL320:
 608:../../source/src/user/OS_LIB/buddy.c **** 	CPU_CRITICAL_EXIT();
 2664              		.loc 1 608 0
 2665 0a5e FFF7FEBF 		b	CPU_SR_Restore
 2666              	.LVL321:
 2667              	.L274:
 2668 0a62 00BF     		.align	2
 2669              	.L273:
 2670 0a64 00000000 		.word	.LANCHOR0
 2671              		.cfi_endproc
 2672              	.LFE35:
 2673              		.size	return_power2_page, .-return_power2_page
 2674              		.align	1
 2675              		.p2align 2,,3
 2676              		.global	return_power3_page
 2677              		.syntax unified
 2678              		.thumb
 2679              		.thumb_func
 2680              		.fpu softvfp
 2681              		.type	return_power3_page, %function
 2682              	return_power3_page:
 2683              	.LFB36:
 610:../../source/src/user/OS_LIB/buddy.c **** 
 611:../../source/src/user/OS_LIB/buddy.c **** void return_power3_page(void *ptr)
 612:../../source/src/user/OS_LIB/buddy.c **** {
 2684              		.loc 1 612 0
 2685              		.cfi_startproc
 2686              		@ args = 0, pretend = 0, frame = 0
 2687              		@ frame_needed = 0, uses_anonymous_args = 0
 2688              	.LVL322:
 2689 0a68 38B5     		push	{r3, r4, r5, lr}
 2690              	.LCFI33:
 2691              		.cfi_def_cfa_offset 16
 2692              		.cfi_offset 3, -16
 2693              		.cfi_offset 4, -12
 2694              		.cfi_offset 5, -8
 2695              		.cfi_offset 14, -4
 2696              		.loc 1 612 0
ARM GAS  G:\Users\Jaxb\AppData\Local\Temp\ccbV8Tbs.s 			page 66


 2697 0a6a 0546     		mov	r5, r0
 613:../../source/src/user/OS_LIB/buddy.c **** 	CPU_SR_ALLOC();
 614:../../source/src/user/OS_LIB/buddy.c **** 	CPU_CRITICAL_ENTER();
 2698              		.loc 1 614 0
 2699 0a6c FFF7FEFF 		bl	CPU_SR_Save
 2700              	.LVL323:
 2701 0a70 0446     		mov	r4, r0
 2702              	.LVL324:
 615:../../source/src/user/OS_LIB/buddy.c **** 	//increase the space of the buddy
 616:../../source/src/user/OS_LIB/buddy.c **** 	current_used_buddy_ptr->current_page_num += 4 * PAGE_SIZE_KB;
 2703              		.loc 1 616 0
 2704 0a72 074B     		ldr	r3, .L276
 617:../../source/src/user/OS_LIB/buddy.c **** 	_return_page(ptr,3);
 2705              		.loc 1 617 0
 2706 0a74 2846     		mov	r0, r5
 2707              	.LVL325:
 616:../../source/src/user/OS_LIB/buddy.c **** 	_return_page(ptr,3);
 2708              		.loc 1 616 0
 2709 0a76 1A68     		ldr	r2, [r3]
 2710              		.loc 1 617 0
 2711 0a78 0321     		movs	r1, #3
 616:../../source/src/user/OS_LIB/buddy.c **** 	_return_page(ptr,3);
 2712              		.loc 1 616 0
 2713 0a7a D369     		ldr	r3, [r2, #28]
 2714 0a7c 0433     		adds	r3, r3, #4
 2715 0a7e D361     		str	r3, [r2, #28]
 2716              		.loc 1 617 0
 2717 0a80 FFF7B4FB 		bl	_return_page
 2718              	.LVL326:
 618:../../source/src/user/OS_LIB/buddy.c **** 	CPU_CRITICAL_EXIT();
 2719              		.loc 1 618 0
 2720 0a84 2046     		mov	r0, r4
 619:../../source/src/user/OS_LIB/buddy.c **** }
 2721              		.loc 1 619 0
 2722 0a86 BDE83840 		pop	{r3, r4, r5, lr}
 2723              	.LCFI34:
 2724              		.cfi_restore 14
 2725              		.cfi_restore 5
 2726              		.cfi_restore 4
 2727              		.cfi_restore 3
 2728              		.cfi_def_cfa_offset 0
 2729              	.LVL327:
 618:../../source/src/user/OS_LIB/buddy.c **** 	CPU_CRITICAL_EXIT();
 2730              		.loc 1 618 0
 2731 0a8a FFF7FEBF 		b	CPU_SR_Restore
 2732              	.LVL328:
 2733              	.L277:
 2734 0a8e 00BF     		.align	2
 2735              	.L276:
 2736 0a90 00000000 		.word	.LANCHOR0
 2737              		.cfi_endproc
 2738              	.LFE36:
 2739              		.size	return_power3_page, .-return_power3_page
 2740              		.align	1
 2741              		.p2align 2,,3
 2742              		.global	return_power4_page
 2743              		.syntax unified
ARM GAS  G:\Users\Jaxb\AppData\Local\Temp\ccbV8Tbs.s 			page 67


 2744              		.thumb
 2745              		.thumb_func
 2746              		.fpu softvfp
 2747              		.type	return_power4_page, %function
 2748              	return_power4_page:
 2749              	.LFB37:
 620:../../source/src/user/OS_LIB/buddy.c **** 
 621:../../source/src/user/OS_LIB/buddy.c **** void return_power4_page(void *ptr)
 622:../../source/src/user/OS_LIB/buddy.c **** {
 2750              		.loc 1 622 0
 2751              		.cfi_startproc
 2752              		@ args = 0, pretend = 0, frame = 0
 2753              		@ frame_needed = 0, uses_anonymous_args = 0
 2754              	.LVL329:
 2755 0a94 38B5     		push	{r3, r4, r5, lr}
 2756              	.LCFI35:
 2757              		.cfi_def_cfa_offset 16
 2758              		.cfi_offset 3, -16
 2759              		.cfi_offset 4, -12
 2760              		.cfi_offset 5, -8
 2761              		.cfi_offset 14, -4
 2762              		.loc 1 622 0
 2763 0a96 0546     		mov	r5, r0
 623:../../source/src/user/OS_LIB/buddy.c **** 	CPU_SR_ALLOC();
 624:../../source/src/user/OS_LIB/buddy.c **** 	CPU_CRITICAL_ENTER();
 2764              		.loc 1 624 0
 2765 0a98 FFF7FEFF 		bl	CPU_SR_Save
 2766              	.LVL330:
 2767 0a9c 0446     		mov	r4, r0
 2768              	.LVL331:
 625:../../source/src/user/OS_LIB/buddy.c **** 	//increase the space of the buddy
 626:../../source/src/user/OS_LIB/buddy.c **** 	current_used_buddy_ptr->current_page_num += 8 * PAGE_SIZE_KB;
 2769              		.loc 1 626 0
 2770 0a9e 074B     		ldr	r3, .L279
 627:../../source/src/user/OS_LIB/buddy.c **** 	_return_page(ptr,4);
 2771              		.loc 1 627 0
 2772 0aa0 2846     		mov	r0, r5
 2773              	.LVL332:
 626:../../source/src/user/OS_LIB/buddy.c **** 	_return_page(ptr,4);
 2774              		.loc 1 626 0
 2775 0aa2 1A68     		ldr	r2, [r3]
 2776              		.loc 1 627 0
 2777 0aa4 0421     		movs	r1, #4
 626:../../source/src/user/OS_LIB/buddy.c **** 	_return_page(ptr,4);
 2778              		.loc 1 626 0
 2779 0aa6 D369     		ldr	r3, [r2, #28]
 2780 0aa8 0833     		adds	r3, r3, #8
 2781 0aaa D361     		str	r3, [r2, #28]
 2782              		.loc 1 627 0
 2783 0aac FFF79EFB 		bl	_return_page
 2784              	.LVL333:
 628:../../source/src/user/OS_LIB/buddy.c **** 	CPU_CRITICAL_EXIT();
 2785              		.loc 1 628 0
 2786 0ab0 2046     		mov	r0, r4
 629:../../source/src/user/OS_LIB/buddy.c **** }
 2787              		.loc 1 629 0
 2788 0ab2 BDE83840 		pop	{r3, r4, r5, lr}
ARM GAS  G:\Users\Jaxb\AppData\Local\Temp\ccbV8Tbs.s 			page 68


 2789              	.LCFI36:
 2790              		.cfi_restore 14
 2791              		.cfi_restore 5
 2792              		.cfi_restore 4
 2793              		.cfi_restore 3
 2794              		.cfi_def_cfa_offset 0
 2795              	.LVL334:
 628:../../source/src/user/OS_LIB/buddy.c **** 	CPU_CRITICAL_EXIT();
 2796              		.loc 1 628 0
 2797 0ab6 FFF7FEBF 		b	CPU_SR_Restore
 2798              	.LVL335:
 2799              	.L280:
 2800 0aba 00BF     		.align	2
 2801              	.L279:
 2802 0abc 00000000 		.word	.LANCHOR0
 2803              		.cfi_endproc
 2804              	.LFE37:
 2805              		.size	return_power4_page, .-return_power4_page
 2806              		.align	1
 2807              		.p2align 2,,3
 2808              		.global	return_power5_page
 2809              		.syntax unified
 2810              		.thumb
 2811              		.thumb_func
 2812              		.fpu softvfp
 2813              		.type	return_power5_page, %function
 2814              	return_power5_page:
 2815              	.LFB38:
 630:../../source/src/user/OS_LIB/buddy.c **** 
 631:../../source/src/user/OS_LIB/buddy.c **** void return_power5_page(void *ptr)
 632:../../source/src/user/OS_LIB/buddy.c **** {
 2816              		.loc 1 632 0
 2817              		.cfi_startproc
 2818              		@ args = 0, pretend = 0, frame = 0
 2819              		@ frame_needed = 0, uses_anonymous_args = 0
 2820              	.LVL336:
 2821 0ac0 38B5     		push	{r3, r4, r5, lr}
 2822              	.LCFI37:
 2823              		.cfi_def_cfa_offset 16
 2824              		.cfi_offset 3, -16
 2825              		.cfi_offset 4, -12
 2826              		.cfi_offset 5, -8
 2827              		.cfi_offset 14, -4
 2828              		.loc 1 632 0
 2829 0ac2 0546     		mov	r5, r0
 633:../../source/src/user/OS_LIB/buddy.c **** 	CPU_SR_ALLOC();
 634:../../source/src/user/OS_LIB/buddy.c **** 	CPU_CRITICAL_ENTER();
 2830              		.loc 1 634 0
 2831 0ac4 FFF7FEFF 		bl	CPU_SR_Save
 2832              	.LVL337:
 2833 0ac8 0446     		mov	r4, r0
 2834              	.LVL338:
 635:../../source/src/user/OS_LIB/buddy.c **** 	//increase the space of the buddy
 636:../../source/src/user/OS_LIB/buddy.c **** 	current_used_buddy_ptr->current_page_num += 16 * PAGE_SIZE_KB;
 2835              		.loc 1 636 0
 2836 0aca 074B     		ldr	r3, .L282
 637:../../source/src/user/OS_LIB/buddy.c **** 	_return_page(ptr,5);
ARM GAS  G:\Users\Jaxb\AppData\Local\Temp\ccbV8Tbs.s 			page 69


 2837              		.loc 1 637 0
 2838 0acc 2846     		mov	r0, r5
 2839              	.LVL339:
 636:../../source/src/user/OS_LIB/buddy.c **** 	_return_page(ptr,5);
 2840              		.loc 1 636 0
 2841 0ace 1A68     		ldr	r2, [r3]
 2842              		.loc 1 637 0
 2843 0ad0 0521     		movs	r1, #5
 636:../../source/src/user/OS_LIB/buddy.c **** 	_return_page(ptr,5);
 2844              		.loc 1 636 0
 2845 0ad2 D369     		ldr	r3, [r2, #28]
 2846 0ad4 1033     		adds	r3, r3, #16
 2847 0ad6 D361     		str	r3, [r2, #28]
 2848              		.loc 1 637 0
 2849 0ad8 FFF788FB 		bl	_return_page
 2850              	.LVL340:
 638:../../source/src/user/OS_LIB/buddy.c **** 	CPU_CRITICAL_EXIT();
 2851              		.loc 1 638 0
 2852 0adc 2046     		mov	r0, r4
 639:../../source/src/user/OS_LIB/buddy.c **** }
 2853              		.loc 1 639 0
 2854 0ade BDE83840 		pop	{r3, r4, r5, lr}
 2855              	.LCFI38:
 2856              		.cfi_restore 14
 2857              		.cfi_restore 5
 2858              		.cfi_restore 4
 2859              		.cfi_restore 3
 2860              		.cfi_def_cfa_offset 0
 2861              	.LVL341:
 638:../../source/src/user/OS_LIB/buddy.c **** 	CPU_CRITICAL_EXIT();
 2862              		.loc 1 638 0
 2863 0ae2 FFF7FEBF 		b	CPU_SR_Restore
 2864              	.LVL342:
 2865              	.L283:
 2866 0ae6 00BF     		.align	2
 2867              	.L282:
 2868 0ae8 00000000 		.word	.LANCHOR0
 2869              		.cfi_endproc
 2870              	.LFE38:
 2871              		.size	return_power5_page, .-return_power5_page
 2872              		.align	1
 2873              		.p2align 2,,3
 2874              		.global	return_power6_page
 2875              		.syntax unified
 2876              		.thumb
 2877              		.thumb_func
 2878              		.fpu softvfp
 2879              		.type	return_power6_page, %function
 2880              	return_power6_page:
 2881              	.LFB39:
 640:../../source/src/user/OS_LIB/buddy.c **** 
 641:../../source/src/user/OS_LIB/buddy.c **** void return_power6_page(void *ptr)
 642:../../source/src/user/OS_LIB/buddy.c **** {
 2882              		.loc 1 642 0
 2883              		.cfi_startproc
 2884              		@ args = 0, pretend = 0, frame = 0
 2885              		@ frame_needed = 0, uses_anonymous_args = 0
ARM GAS  G:\Users\Jaxb\AppData\Local\Temp\ccbV8Tbs.s 			page 70


 2886              	.LVL343:
 2887 0aec 38B5     		push	{r3, r4, r5, lr}
 2888              	.LCFI39:
 2889              		.cfi_def_cfa_offset 16
 2890              		.cfi_offset 3, -16
 2891              		.cfi_offset 4, -12
 2892              		.cfi_offset 5, -8
 2893              		.cfi_offset 14, -4
 2894              		.loc 1 642 0
 2895 0aee 0546     		mov	r5, r0
 643:../../source/src/user/OS_LIB/buddy.c **** 	CPU_SR_ALLOC();
 644:../../source/src/user/OS_LIB/buddy.c **** 	CPU_CRITICAL_ENTER();
 2896              		.loc 1 644 0
 2897 0af0 FFF7FEFF 		bl	CPU_SR_Save
 2898              	.LVL344:
 2899 0af4 0446     		mov	r4, r0
 2900              	.LVL345:
 645:../../source/src/user/OS_LIB/buddy.c **** 	//increase the space of the buddy
 646:../../source/src/user/OS_LIB/buddy.c **** 	current_used_buddy_ptr->current_page_num += 32 * PAGE_SIZE_KB;
 2901              		.loc 1 646 0
 2902 0af6 074B     		ldr	r3, .L285
 647:../../source/src/user/OS_LIB/buddy.c **** 	_return_page(ptr,6);
 2903              		.loc 1 647 0
 2904 0af8 2846     		mov	r0, r5
 2905              	.LVL346:
 646:../../source/src/user/OS_LIB/buddy.c **** 	_return_page(ptr,6);
 2906              		.loc 1 646 0
 2907 0afa 1A68     		ldr	r2, [r3]
 2908              		.loc 1 647 0
 2909 0afc 0621     		movs	r1, #6
 646:../../source/src/user/OS_LIB/buddy.c **** 	_return_page(ptr,6);
 2910              		.loc 1 646 0
 2911 0afe D369     		ldr	r3, [r2, #28]
 2912 0b00 2033     		adds	r3, r3, #32
 2913 0b02 D361     		str	r3, [r2, #28]
 2914              		.loc 1 647 0
 2915 0b04 FFF772FB 		bl	_return_page
 2916              	.LVL347:
 648:../../source/src/user/OS_LIB/buddy.c **** 	CPU_CRITICAL_EXIT();
 2917              		.loc 1 648 0
 2918 0b08 2046     		mov	r0, r4
 649:../../source/src/user/OS_LIB/buddy.c **** }
 2919              		.loc 1 649 0
 2920 0b0a BDE83840 		pop	{r3, r4, r5, lr}
 2921              	.LCFI40:
 2922              		.cfi_restore 14
 2923              		.cfi_restore 5
 2924              		.cfi_restore 4
 2925              		.cfi_restore 3
 2926              		.cfi_def_cfa_offset 0
 2927              	.LVL348:
 648:../../source/src/user/OS_LIB/buddy.c **** 	CPU_CRITICAL_EXIT();
 2928              		.loc 1 648 0
 2929 0b0e FFF7FEBF 		b	CPU_SR_Restore
 2930              	.LVL349:
 2931              	.L286:
 2932 0b12 00BF     		.align	2
ARM GAS  G:\Users\Jaxb\AppData\Local\Temp\ccbV8Tbs.s 			page 71


 2933              	.L285:
 2934 0b14 00000000 		.word	.LANCHOR0
 2935              		.cfi_endproc
 2936              	.LFE39:
 2937              		.size	return_power6_page, .-return_power6_page
 2938              		.align	1
 2939              		.p2align 2,,3
 2940              		.global	return_power7_page
 2941              		.syntax unified
 2942              		.thumb
 2943              		.thumb_func
 2944              		.fpu softvfp
 2945              		.type	return_power7_page, %function
 2946              	return_power7_page:
 2947              	.LFB40:
 650:../../source/src/user/OS_LIB/buddy.c **** 
 651:../../source/src/user/OS_LIB/buddy.c **** void return_power7_page(void *ptr)
 652:../../source/src/user/OS_LIB/buddy.c **** {
 2948              		.loc 1 652 0
 2949              		.cfi_startproc
 2950              		@ args = 0, pretend = 0, frame = 0
 2951              		@ frame_needed = 0, uses_anonymous_args = 0
 2952              	.LVL350:
 2953 0b18 38B5     		push	{r3, r4, r5, lr}
 2954              	.LCFI41:
 2955              		.cfi_def_cfa_offset 16
 2956              		.cfi_offset 3, -16
 2957              		.cfi_offset 4, -12
 2958              		.cfi_offset 5, -8
 2959              		.cfi_offset 14, -4
 2960              		.loc 1 652 0
 2961 0b1a 0546     		mov	r5, r0
 653:../../source/src/user/OS_LIB/buddy.c **** 	CPU_SR_ALLOC();
 654:../../source/src/user/OS_LIB/buddy.c **** 	CPU_CRITICAL_ENTER();
 2962              		.loc 1 654 0
 2963 0b1c FFF7FEFF 		bl	CPU_SR_Save
 2964              	.LVL351:
 2965 0b20 0446     		mov	r4, r0
 2966              	.LVL352:
 655:../../source/src/user/OS_LIB/buddy.c **** 	//increase the space of the buddy
 656:../../source/src/user/OS_LIB/buddy.c **** 	current_used_buddy_ptr->current_page_num += 64 * PAGE_SIZE_KB;
 2967              		.loc 1 656 0
 2968 0b22 074B     		ldr	r3, .L288
 657:../../source/src/user/OS_LIB/buddy.c **** 	_return_page(ptr,7);
 2969              		.loc 1 657 0
 2970 0b24 2846     		mov	r0, r5
 2971              	.LVL353:
 656:../../source/src/user/OS_LIB/buddy.c **** 	_return_page(ptr,7);
 2972              		.loc 1 656 0
 2973 0b26 1A68     		ldr	r2, [r3]
 2974              		.loc 1 657 0
 2975 0b28 0721     		movs	r1, #7
 656:../../source/src/user/OS_LIB/buddy.c **** 	_return_page(ptr,7);
 2976              		.loc 1 656 0
 2977 0b2a D369     		ldr	r3, [r2, #28]
 2978 0b2c 4033     		adds	r3, r3, #64
 2979 0b2e D361     		str	r3, [r2, #28]
ARM GAS  G:\Users\Jaxb\AppData\Local\Temp\ccbV8Tbs.s 			page 72


 2980              		.loc 1 657 0
 2981 0b30 FFF75CFB 		bl	_return_page
 2982              	.LVL354:
 658:../../source/src/user/OS_LIB/buddy.c **** 	CPU_CRITICAL_EXIT();
 2983              		.loc 1 658 0
 2984 0b34 2046     		mov	r0, r4
 659:../../source/src/user/OS_LIB/buddy.c **** }
 2985              		.loc 1 659 0
 2986 0b36 BDE83840 		pop	{r3, r4, r5, lr}
 2987              	.LCFI42:
 2988              		.cfi_restore 14
 2989              		.cfi_restore 5
 2990              		.cfi_restore 4
 2991              		.cfi_restore 3
 2992              		.cfi_def_cfa_offset 0
 2993              	.LVL355:
 658:../../source/src/user/OS_LIB/buddy.c **** 	CPU_CRITICAL_EXIT();
 2994              		.loc 1 658 0
 2995 0b3a FFF7FEBF 		b	CPU_SR_Restore
 2996              	.LVL356:
 2997              	.L289:
 2998 0b3e 00BF     		.align	2
 2999              	.L288:
 3000 0b40 00000000 		.word	.LANCHOR0
 3001              		.cfi_endproc
 3002              	.LFE40:
 3003              		.size	return_power7_page, .-return_power7_page
 3004              		.align	1
 3005              		.p2align 2,,3
 3006              		.global	return_power8_page
 3007              		.syntax unified
 3008              		.thumb
 3009              		.thumb_func
 3010              		.fpu softvfp
 3011              		.type	return_power8_page, %function
 3012              	return_power8_page:
 3013              	.LFB41:
 660:../../source/src/user/OS_LIB/buddy.c **** 
 661:../../source/src/user/OS_LIB/buddy.c **** void return_power8_page(void *ptr)
 662:../../source/src/user/OS_LIB/buddy.c **** {
 3014              		.loc 1 662 0
 3015              		.cfi_startproc
 3016              		@ args = 0, pretend = 0, frame = 0
 3017              		@ frame_needed = 0, uses_anonymous_args = 0
 3018              	.LVL357:
 3019 0b44 38B5     		push	{r3, r4, r5, lr}
 3020              	.LCFI43:
 3021              		.cfi_def_cfa_offset 16
 3022              		.cfi_offset 3, -16
 3023              		.cfi_offset 4, -12
 3024              		.cfi_offset 5, -8
 3025              		.cfi_offset 14, -4
 3026              		.loc 1 662 0
 3027 0b46 0546     		mov	r5, r0
 663:../../source/src/user/OS_LIB/buddy.c **** 	CPU_SR_ALLOC();
 664:../../source/src/user/OS_LIB/buddy.c **** 	CPU_CRITICAL_ENTER();
 3028              		.loc 1 664 0
ARM GAS  G:\Users\Jaxb\AppData\Local\Temp\ccbV8Tbs.s 			page 73


 3029 0b48 FFF7FEFF 		bl	CPU_SR_Save
 3030              	.LVL358:
 3031 0b4c 0446     		mov	r4, r0
 3032              	.LVL359:
 665:../../source/src/user/OS_LIB/buddy.c **** 	//increase the space of the buddy
 666:../../source/src/user/OS_LIB/buddy.c **** 	current_used_buddy_ptr->current_page_num += 128 * PAGE_SIZE_KB;
 3033              		.loc 1 666 0
 3034 0b4e 074B     		ldr	r3, .L291
 667:../../source/src/user/OS_LIB/buddy.c **** 	_return_page(ptr,8);
 3035              		.loc 1 667 0
 3036 0b50 2846     		mov	r0, r5
 3037              	.LVL360:
 666:../../source/src/user/OS_LIB/buddy.c **** 	_return_page(ptr,8);
 3038              		.loc 1 666 0
 3039 0b52 1A68     		ldr	r2, [r3]
 3040              		.loc 1 667 0
 3041 0b54 0821     		movs	r1, #8
 666:../../source/src/user/OS_LIB/buddy.c **** 	_return_page(ptr,8);
 3042              		.loc 1 666 0
 3043 0b56 D369     		ldr	r3, [r2, #28]
 3044 0b58 8033     		adds	r3, r3, #128
 3045 0b5a D361     		str	r3, [r2, #28]
 3046              		.loc 1 667 0
 3047 0b5c FFF746FB 		bl	_return_page
 3048              	.LVL361:
 668:../../source/src/user/OS_LIB/buddy.c **** 	CPU_CRITICAL_EXIT();
 3049              		.loc 1 668 0
 3050 0b60 2046     		mov	r0, r4
 669:../../source/src/user/OS_LIB/buddy.c **** }
 3051              		.loc 1 669 0
 3052 0b62 BDE83840 		pop	{r3, r4, r5, lr}
 3053              	.LCFI44:
 3054              		.cfi_restore 14
 3055              		.cfi_restore 5
 3056              		.cfi_restore 4
 3057              		.cfi_restore 3
 3058              		.cfi_def_cfa_offset 0
 3059              	.LVL362:
 668:../../source/src/user/OS_LIB/buddy.c **** 	CPU_CRITICAL_EXIT();
 3060              		.loc 1 668 0
 3061 0b66 FFF7FEBF 		b	CPU_SR_Restore
 3062              	.LVL363:
 3063              	.L292:
 3064 0b6a 00BF     		.align	2
 3065              	.L291:
 3066 0b6c 00000000 		.word	.LANCHOR0
 3067              		.cfi_endproc
 3068              	.LFE41:
 3069              		.size	return_power8_page, .-return_power8_page
 3070              		.align	1
 3071              		.p2align 2,,3
 3072              		.global	return_power9_page
 3073              		.syntax unified
 3074              		.thumb
 3075              		.thumb_func
 3076              		.fpu softvfp
 3077              		.type	return_power9_page, %function
ARM GAS  G:\Users\Jaxb\AppData\Local\Temp\ccbV8Tbs.s 			page 74


 3078              	return_power9_page:
 3079              	.LFB42:
 670:../../source/src/user/OS_LIB/buddy.c **** 
 671:../../source/src/user/OS_LIB/buddy.c **** void return_power9_page(void *ptr)
 672:../../source/src/user/OS_LIB/buddy.c **** {
 3080              		.loc 1 672 0
 3081              		.cfi_startproc
 3082              		@ args = 0, pretend = 0, frame = 0
 3083              		@ frame_needed = 0, uses_anonymous_args = 0
 3084              	.LVL364:
 3085 0b70 38B5     		push	{r3, r4, r5, lr}
 3086              	.LCFI45:
 3087              		.cfi_def_cfa_offset 16
 3088              		.cfi_offset 3, -16
 3089              		.cfi_offset 4, -12
 3090              		.cfi_offset 5, -8
 3091              		.cfi_offset 14, -4
 3092              		.loc 1 672 0
 3093 0b72 0546     		mov	r5, r0
 673:../../source/src/user/OS_LIB/buddy.c **** 	CPU_SR_ALLOC();
 674:../../source/src/user/OS_LIB/buddy.c **** 	CPU_CRITICAL_ENTER();
 3094              		.loc 1 674 0
 3095 0b74 FFF7FEFF 		bl	CPU_SR_Save
 3096              	.LVL365:
 3097 0b78 0446     		mov	r4, r0
 3098              	.LVL366:
 675:../../source/src/user/OS_LIB/buddy.c **** 	//increase the space of the buddy
 676:../../source/src/user/OS_LIB/buddy.c **** 	current_used_buddy_ptr->current_page_num += 256 * PAGE_SIZE_KB;
 3099              		.loc 1 676 0
 3100 0b7a 074B     		ldr	r3, .L294
 677:../../source/src/user/OS_LIB/buddy.c **** 	_return_page(ptr,9);
 3101              		.loc 1 677 0
 3102 0b7c 2846     		mov	r0, r5
 3103              	.LVL367:
 676:../../source/src/user/OS_LIB/buddy.c **** 	_return_page(ptr,9);
 3104              		.loc 1 676 0
 3105 0b7e 1A68     		ldr	r2, [r3]
 3106              		.loc 1 677 0
 3107 0b80 0921     		movs	r1, #9
 676:../../source/src/user/OS_LIB/buddy.c **** 	_return_page(ptr,9);
 3108              		.loc 1 676 0
 3109 0b82 D369     		ldr	r3, [r2, #28]
 3110 0b84 03F58073 		add	r3, r3, #256
 3111 0b88 D361     		str	r3, [r2, #28]
 3112              		.loc 1 677 0
 3113 0b8a FFF72FFB 		bl	_return_page
 3114              	.LVL368:
 678:../../source/src/user/OS_LIB/buddy.c **** 	CPU_CRITICAL_EXIT();
 3115              		.loc 1 678 0
 3116 0b8e 2046     		mov	r0, r4
 679:../../source/src/user/OS_LIB/buddy.c **** }
 3117              		.loc 1 679 0
 3118 0b90 BDE83840 		pop	{r3, r4, r5, lr}
 3119              	.LCFI46:
 3120              		.cfi_restore 14
 3121              		.cfi_restore 5
 3122              		.cfi_restore 4
ARM GAS  G:\Users\Jaxb\AppData\Local\Temp\ccbV8Tbs.s 			page 75


 3123              		.cfi_restore 3
 3124              		.cfi_def_cfa_offset 0
 3125              	.LVL369:
 678:../../source/src/user/OS_LIB/buddy.c **** 	CPU_CRITICAL_EXIT();
 3126              		.loc 1 678 0
 3127 0b94 FFF7FEBF 		b	CPU_SR_Restore
 3128              	.LVL370:
 3129              	.L295:
 3130              		.align	2
 3131              	.L294:
 3132 0b98 00000000 		.word	.LANCHOR0
 3133              		.cfi_endproc
 3134              	.LFE42:
 3135              		.size	return_power9_page, .-return_power9_page
 3136              		.align	1
 3137              		.p2align 2,,3
 3138              		.global	return_power10_page
 3139              		.syntax unified
 3140              		.thumb
 3141              		.thumb_func
 3142              		.fpu softvfp
 3143              		.type	return_power10_page, %function
 3144              	return_power10_page:
 3145              	.LFB43:
 680:../../source/src/user/OS_LIB/buddy.c **** 
 681:../../source/src/user/OS_LIB/buddy.c **** void return_power10_page(void *ptr)
 682:../../source/src/user/OS_LIB/buddy.c **** {
 3146              		.loc 1 682 0
 3147              		.cfi_startproc
 3148              		@ args = 0, pretend = 0, frame = 0
 3149              		@ frame_needed = 0, uses_anonymous_args = 0
 3150              	.LVL371:
 3151 0b9c 38B5     		push	{r3, r4, r5, lr}
 3152              	.LCFI47:
 3153              		.cfi_def_cfa_offset 16
 3154              		.cfi_offset 3, -16
 3155              		.cfi_offset 4, -12
 3156              		.cfi_offset 5, -8
 3157              		.cfi_offset 14, -4
 3158              		.loc 1 682 0
 3159 0b9e 0546     		mov	r5, r0
 683:../../source/src/user/OS_LIB/buddy.c **** 	CPU_SR_ALLOC();
 684:../../source/src/user/OS_LIB/buddy.c **** 	CPU_CRITICAL_ENTER();
 3160              		.loc 1 684 0
 3161 0ba0 FFF7FEFF 		bl	CPU_SR_Save
 3162              	.LVL372:
 3163 0ba4 0446     		mov	r4, r0
 3164              	.LVL373:
 685:../../source/src/user/OS_LIB/buddy.c **** 	//increase the space of the buddy
 686:../../source/src/user/OS_LIB/buddy.c **** 	current_used_buddy_ptr->current_page_num += 512 * PAGE_SIZE_KB;
 3165              		.loc 1 686 0
 3166 0ba6 074B     		ldr	r3, .L297
 687:../../source/src/user/OS_LIB/buddy.c **** 	_return_page(ptr,10);
 3167              		.loc 1 687 0
 3168 0ba8 2846     		mov	r0, r5
 3169              	.LVL374:
 686:../../source/src/user/OS_LIB/buddy.c **** 	_return_page(ptr,10);
ARM GAS  G:\Users\Jaxb\AppData\Local\Temp\ccbV8Tbs.s 			page 76


 3170              		.loc 1 686 0
 3171 0baa 1A68     		ldr	r2, [r3]
 3172              		.loc 1 687 0
 3173 0bac 0A21     		movs	r1, #10
 686:../../source/src/user/OS_LIB/buddy.c **** 	_return_page(ptr,10);
 3174              		.loc 1 686 0
 3175 0bae D369     		ldr	r3, [r2, #28]
 3176 0bb0 03F50073 		add	r3, r3, #512
 3177 0bb4 D361     		str	r3, [r2, #28]
 3178              		.loc 1 687 0
 3179 0bb6 FFF719FB 		bl	_return_page
 3180              	.LVL375:
 688:../../source/src/user/OS_LIB/buddy.c **** 	CPU_CRITICAL_EXIT();
 3181              		.loc 1 688 0
 3182 0bba 2046     		mov	r0, r4
 689:../../source/src/user/OS_LIB/buddy.c **** }
 3183              		.loc 1 689 0
 3184 0bbc BDE83840 		pop	{r3, r4, r5, lr}
 3185              	.LCFI48:
 3186              		.cfi_restore 14
 3187              		.cfi_restore 5
 3188              		.cfi_restore 4
 3189              		.cfi_restore 3
 3190              		.cfi_def_cfa_offset 0
 3191              	.LVL376:
 688:../../source/src/user/OS_LIB/buddy.c **** 	CPU_CRITICAL_EXIT();
 3192              		.loc 1 688 0
 3193 0bc0 FFF7FEBF 		b	CPU_SR_Restore
 3194              	.LVL377:
 3195              	.L298:
 3196              		.align	2
 3197              	.L297:
 3198 0bc4 00000000 		.word	.LANCHOR0
 3199              		.cfi_endproc
 3200              	.LFE43:
 3201              		.size	return_power10_page, .-return_power10_page
 3202              		.align	1
 3203              		.p2align 2,,3
 3204              		.global	shell_buddy_debug
 3205              		.syntax unified
 3206              		.thumb
 3207              		.thumb_func
 3208              		.fpu softvfp
 3209              		.type	shell_buddy_debug, %function
 3210              	shell_buddy_debug:
 3211              	.LFB48:
 690:../../source/src/user/OS_LIB/buddy.c **** 
 691:../../source/src/user/OS_LIB/buddy.c **** #if CONFIG_SHELL_EN
 692:../../source/src/user/OS_LIB/buddy.c **** static int _check_buddy_flag_level(unsigned int level,unsigned int offset)
 693:../../source/src/user/OS_LIB/buddy.c **** {
 694:../../source/src/user/OS_LIB/buddy.c **** 	//PRINTF("level is %d,offset is %d\n",level,offset);
 695:../../source/src/user/OS_LIB/buddy.c **** 	ASSERT((level>=1) && (level<=10));
 696:../../source/src/user/OS_LIB/buddy.c **** 	ASSERT((offset<((current_used_buddy_ptr->info.page_num>>1)/sizeof_level(level))));
 697:../../source/src/user/OS_LIB/buddy.c **** 	unsigned int num = 0;
 698:../../source/src/user/OS_LIB/buddy.c **** 	//int page_num = (0x00000001<<(level-1))<<offset -1;
 699:../../source/src/user/OS_LIB/buddy.c **** 	unsigned int page_num = sizeof_level(level)*2*offset;
 700:../../source/src/user/OS_LIB/buddy.c **** 	if(NOTHING == current_used_buddy_ptr->order_array[level-1])
ARM GAS  G:\Users\Jaxb\AppData\Local\Temp\ccbV8Tbs.s 			page 77


 701:../../source/src/user/OS_LIB/buddy.c **** 	{
 702:../../source/src/user/OS_LIB/buddy.c **** 		return -1;
 703:../../source/src/user/OS_LIB/buddy.c **** 	}
 704:../../source/src/user/OS_LIB/buddy.c **** 	struct order_link buffer = current_used_buddy_ptr->link_body[current_used_buddy_ptr->order_array[l
 705:../../source/src/user/OS_LIB/buddy.c **** 	while(buffer.next != NOTHING)
 706:../../source/src/user/OS_LIB/buddy.c **** 	{
 707:../../source/src/user/OS_LIB/buddy.c **** 		if((page_num == buffer.num) || (page_num+sizeof_level(level) == buffer.num))
 708:../../source/src/user/OS_LIB/buddy.c **** 		{
 709:../../source/src/user/OS_LIB/buddy.c **** 			++num;
 710:../../source/src/user/OS_LIB/buddy.c **** 			if(2 < num)
 711:../../source/src/user/OS_LIB/buddy.c **** 			{
 712:../../source/src/user/OS_LIB/buddy.c **** 				return -1;
 713:../../source/src/user/OS_LIB/buddy.c **** 			}
 714:../../source/src/user/OS_LIB/buddy.c **** 		}
 715:../../source/src/user/OS_LIB/buddy.c **** 		buffer = current_used_buddy_ptr->link_body[buffer.next];
 716:../../source/src/user/OS_LIB/buddy.c **** 	}
 717:../../source/src/user/OS_LIB/buddy.c **** 	if((page_num == buffer.num) || (page_num+sizeof_level(level) == buffer.num))
 718:../../source/src/user/OS_LIB/buddy.c **** 	{
 719:../../source/src/user/OS_LIB/buddy.c **** 		++num;
 720:../../source/src/user/OS_LIB/buddy.c **** 		if(num>=2)
 721:../../source/src/user/OS_LIB/buddy.c **** 		{
 722:../../source/src/user/OS_LIB/buddy.c **** 			return -1;
 723:../../source/src/user/OS_LIB/buddy.c **** 		}
 724:../../source/src/user/OS_LIB/buddy.c **** 	}
 725:../../source/src/user/OS_LIB/buddy.c **** 	if(1 == num)
 726:../../source/src/user/OS_LIB/buddy.c **** 	{
 727:../../source/src/user/OS_LIB/buddy.c **** 		return 0;
 728:../../source/src/user/OS_LIB/buddy.c **** 	}
 729:../../source/src/user/OS_LIB/buddy.c **** 	else
 730:../../source/src/user/OS_LIB/buddy.c **** 	{
 731:../../source/src/user/OS_LIB/buddy.c **** 		return -1;
 732:../../source/src/user/OS_LIB/buddy.c **** 	}
 733:../../source/src/user/OS_LIB/buddy.c **** }
 734:../../source/src/user/OS_LIB/buddy.c **** 
 735:../../source/src/user/OS_LIB/buddy.c **** static unsigned int _get_level(unsigned int array_index,unsigned int array_offset)
 736:../../source/src/user/OS_LIB/buddy.c **** {
 737:../../source/src/user/OS_LIB/buddy.c **** 	unsigned int num = array_index * 8 * sizeof(Flag_Type) + array_offset;
 738:../../source/src/user/OS_LIB/buddy.c **** 	ASSERT(num < 1024);
 739:../../source/src/user/OS_LIB/buddy.c **** 	unsigned int i;
 740:../../source/src/user/OS_LIB/buddy.c **** 	for(i=0;i<current_used_buddy_ptr->info.level_flag_base_size;++i)
 741:../../source/src/user/OS_LIB/buddy.c **** 	{
 742:../../source/src/user/OS_LIB/buddy.c **** 		if(num < current_used_buddy_ptr->level_flag_base[i])
 743:../../source/src/user/OS_LIB/buddy.c **** 		{
 744:../../source/src/user/OS_LIB/buddy.c **** 			return i;
 745:../../source/src/user/OS_LIB/buddy.c **** 		}
 746:../../source/src/user/OS_LIB/buddy.c **** 	}
 747:../../source/src/user/OS_LIB/buddy.c **** 	ASSERT(current_used_buddy_ptr->info.page_num - 2 == num);
 748:../../source/src/user/OS_LIB/buddy.c **** 	return current_used_buddy_ptr->info.max_level;
 749:../../source/src/user/OS_LIB/buddy.c **** }
 750:../../source/src/user/OS_LIB/buddy.c **** 
 751:../../source/src/user/OS_LIB/buddy.c **** static int _check_buddy_level_flag(void)
 752:../../source/src/user/OS_LIB/buddy.c **** {
 753:../../source/src/user/OS_LIB/buddy.c **** 	unsigned int i;
 754:../../source/src/user/OS_LIB/buddy.c **** 	unsigned int num;
 755:../../source/src/user/OS_LIB/buddy.c **** 	struct order_link buffer;
 756:../../source/src/user/OS_LIB/buddy.c **** 	unsigned int offset;
 757:../../source/src/user/OS_LIB/buddy.c **** 	for(i=0;i<current_used_buddy_ptr->info.max_level;++i) //each level
ARM GAS  G:\Users\Jaxb\AppData\Local\Temp\ccbV8Tbs.s 			page 78


 758:../../source/src/user/OS_LIB/buddy.c **** 	{
 759:../../source/src/user/OS_LIB/buddy.c **** 		if(NOTHING != current_used_buddy_ptr->order_array[i])
 760:../../source/src/user/OS_LIB/buddy.c **** 		{
 761:../../source/src/user/OS_LIB/buddy.c **** 			if(i != current_used_buddy_ptr->info.max_level-1)
 762:../../source/src/user/OS_LIB/buddy.c **** 			{
 763:../../source/src/user/OS_LIB/buddy.c **** 				buffer = current_used_buddy_ptr->link_body[current_used_buddy_ptr->order_array[i]];
 764:../../source/src/user/OS_LIB/buddy.c **** 				while(NOTHING != buffer.next)
 765:../../source/src/user/OS_LIB/buddy.c **** 				{
 766:../../source/src/user/OS_LIB/buddy.c **** 					num = buffer.num;
 767:../../source/src/user/OS_LIB/buddy.c **** 					offset = num>>(i+1);
 768:../../source/src/user/OS_LIB/buddy.c **** 					num = current_used_buddy_ptr->level_flag_base[i] + offset;
 769:../../source/src/user/OS_LIB/buddy.c **** 					//PRINTF("num is %d\n",num);
 770:../../source/src/user/OS_LIB/buddy.c **** 					if(!(0x01 & current_used_buddy_ptr->flag[num/(sizeof(Flag_Type)*8)]>>(sizeof(Flag_Type)*8 - nu
 771:../../source/src/user/OS_LIB/buddy.c **** 					{
 772:../../source/src/user/OS_LIB/buddy.c **** 						PRINTF("level %d,page_num %d error\n",i+1,num<<(i+1));
 773:../../source/src/user/OS_LIB/buddy.c **** 						return -1;
 774:../../source/src/user/OS_LIB/buddy.c **** 					}
 775:../../source/src/user/OS_LIB/buddy.c **** 					buffer = current_used_buddy_ptr->link_body[buffer.next];
 776:../../source/src/user/OS_LIB/buddy.c **** 				}
 777:../../source/src/user/OS_LIB/buddy.c **** 				num = buffer.num;
 778:../../source/src/user/OS_LIB/buddy.c **** 				offset = num>>(i+1);
 779:../../source/src/user/OS_LIB/buddy.c **** 				num = current_used_buddy_ptr->level_flag_base[i] + offset;
 780:../../source/src/user/OS_LIB/buddy.c **** 				//PRINTF("num is %d\n",num);
 781:../../source/src/user/OS_LIB/buddy.c **** 				if(!(0x01 & current_used_buddy_ptr->flag[num/(sizeof(Flag_Type)*8)]>>(31-(num%(sizeof(Flag_Type
 782:../../source/src/user/OS_LIB/buddy.c **** 				{
 783:../../source/src/user/OS_LIB/buddy.c **** 					PRINTF("level %d,page_num %d error\n",i+1,num<<(i+1));
 784:../../source/src/user/OS_LIB/buddy.c **** 					return -1;
 785:../../source/src/user/OS_LIB/buddy.c **** 				}
 786:../../source/src/user/OS_LIB/buddy.c **** 			}
 787:../../source/src/user/OS_LIB/buddy.c **** 			else
 788:../../source/src/user/OS_LIB/buddy.c **** 			{
 789:../../source/src/user/OS_LIB/buddy.c **** 				buffer = current_used_buddy_ptr->link_body[current_used_buddy_ptr->order_array[i]];
 790:../../source/src/user/OS_LIB/buddy.c **** 				num = buffer.num;
 791:../../source/src/user/OS_LIB/buddy.c **** 				offset = num>>(i+1);
 792:../../source/src/user/OS_LIB/buddy.c **** 				num = current_used_buddy_ptr->level_flag_base[i] + offset;
 793:../../source/src/user/OS_LIB/buddy.c **** 				if(NOTHING != buffer.next)
 794:../../source/src/user/OS_LIB/buddy.c **** 				{
 795:../../source/src/user/OS_LIB/buddy.c **** 					if(current_used_buddy_ptr->link_body[buffer.next].num != sizeof_level(current_used_buddy_ptr->
 796:../../source/src/user/OS_LIB/buddy.c **** 					{
 797:../../source/src/user/OS_LIB/buddy.c **** 						//PRINTF("here\n");
 798:../../source/src/user/OS_LIB/buddy.c **** 						PRINTF("level %d,page_num %d error\n",i+1,num);
 799:../../source/src/user/OS_LIB/buddy.c **** 						return -1;
 800:../../source/src/user/OS_LIB/buddy.c **** 					}
 801:../../source/src/user/OS_LIB/buddy.c **** 					if(0x01 & current_used_buddy_ptr->flag[num/(sizeof(Flag_Type)*8)]>>(31-(num%(sizeof(Flag_Type)
 802:../../source/src/user/OS_LIB/buddy.c **** 					{
 803:../../source/src/user/OS_LIB/buddy.c **** 						//PRINTF("there\n");
 804:../../source/src/user/OS_LIB/buddy.c **** 						PRINTF("level %d,page_num %d error\n",i+1,num);
 805:../../source/src/user/OS_LIB/buddy.c **** 						return -1;
 806:../../source/src/user/OS_LIB/buddy.c **** 					}
 807:../../source/src/user/OS_LIB/buddy.c **** 				}
 808:../../source/src/user/OS_LIB/buddy.c **** 				else
 809:../../source/src/user/OS_LIB/buddy.c **** 				{
 810:../../source/src/user/OS_LIB/buddy.c **** 					//PRINTF("num is %d\n",num);
 811:../../source/src/user/OS_LIB/buddy.c **** 					if(!(0x01 & current_used_buddy_ptr->flag[num/(sizeof(Flag_Type)*8)]>>(31-(num%(sizeof(Flag_Typ
 812:../../source/src/user/OS_LIB/buddy.c **** 					{
 813:../../source/src/user/OS_LIB/buddy.c **** 						PRINTF("level %d,page_num %d error\n",i+1,num);
 814:../../source/src/user/OS_LIB/buddy.c **** 						return -1;
ARM GAS  G:\Users\Jaxb\AppData\Local\Temp\ccbV8Tbs.s 			page 79


 815:../../source/src/user/OS_LIB/buddy.c **** 					}
 816:../../source/src/user/OS_LIB/buddy.c **** 				}
 817:../../source/src/user/OS_LIB/buddy.c **** 			}
 818:../../source/src/user/OS_LIB/buddy.c **** 		}
 819:../../source/src/user/OS_LIB/buddy.c **** 	}
 820:../../source/src/user/OS_LIB/buddy.c **** 	return 0;
 821:../../source/src/user/OS_LIB/buddy.c **** }
 822:../../source/src/user/OS_LIB/buddy.c **** 
 823:../../source/src/user/OS_LIB/buddy.c **** static int check_buddy(void)
 824:../../source/src/user/OS_LIB/buddy.c **** {
 825:../../source/src/user/OS_LIB/buddy.c **** 	unsigned int i,j;
 826:../../source/src/user/OS_LIB/buddy.c **** 	PRINTF("now going to step1:check from flag to level array\n");
 827:../../source/src/user/OS_LIB/buddy.c **** 	for(i=0;i<current_used_buddy_ptr->info.flag_array_num;++i)
 828:../../source/src/user/OS_LIB/buddy.c **** 	{
 829:../../source/src/user/OS_LIB/buddy.c **** 		if(0 != current_used_buddy_ptr->flag[i])
 830:../../source/src/user/OS_LIB/buddy.c **** 		{
 831:../../source/src/user/OS_LIB/buddy.c **** 			for(j=0;j<8*sizeof(Flag_Type);++j)
 832:../../source/src/user/OS_LIB/buddy.c **** 			{
 833:../../source/src/user/OS_LIB/buddy.c **** 				if(0x01 & (current_used_buddy_ptr->flag[i]>>(31-j))) // corresponding bit is setted
 834:../../source/src/user/OS_LIB/buddy.c **** 				{
 835:../../source/src/user/OS_LIB/buddy.c **** 					unsigned int level = _get_level(i,j);
 836:../../source/src/user/OS_LIB/buddy.c **** 					if(0 != _check_buddy_flag_level(level,i*sizeof(Flag_Type)*8+j-current_used_buddy_ptr->level_fl
 837:../../source/src/user/OS_LIB/buddy.c **** 					{
 838:../../source/src/user/OS_LIB/buddy.c **** 						PRINTF("num %d,level %d error!\n",i*8*sizeof(Flag_Type)+j,level);
 839:../../source/src/user/OS_LIB/buddy.c **** 						return -1;
 840:../../source/src/user/OS_LIB/buddy.c **** 					}
 841:../../source/src/user/OS_LIB/buddy.c **** 				}
 842:../../source/src/user/OS_LIB/buddy.c **** 			}
 843:../../source/src/user/OS_LIB/buddy.c **** 		}
 844:../../source/src/user/OS_LIB/buddy.c **** 	}
 845:../../source/src/user/OS_LIB/buddy.c **** 	PRINTF("Inspection step 1:check from flag to level array is completed.Nothing wrong\n");
 846:../../source/src/user/OS_LIB/buddy.c **** 	PRINTF("now going to step2:check from level array to flag\n");
 847:../../source/src/user/OS_LIB/buddy.c **** 
 848:../../source/src/user/OS_LIB/buddy.c **** 	//then check from level to flag
 849:../../source/src/user/OS_LIB/buddy.c **** 	return _check_buddy_level_flag();
 850:../../source/src/user/OS_LIB/buddy.c **** }
 851:../../source/src/user/OS_LIB/buddy.c **** 
 852:../../source/src/user/OS_LIB/buddy.c **** void shell_buddy_debug(int argc, char const *argv[])
 853:../../source/src/user/OS_LIB/buddy.c **** {
 3212              		.loc 1 853 0
 3213              		.cfi_startproc
 3214              		@ args = 0, pretend = 0, frame = 24
 3215              		@ frame_needed = 0, uses_anonymous_args = 0
 3216              	.LVL378:
 3217 0bc8 2DE9F04F 		push	{r4, r5, r6, r7, r8, r9, r10, fp, lr}
 3218              	.LCFI49:
 3219              		.cfi_def_cfa_offset 36
 3220              		.cfi_offset 4, -36
 3221              		.cfi_offset 5, -32
 3222              		.cfi_offset 6, -28
 3223              		.cfi_offset 7, -24
 3224              		.cfi_offset 8, -20
 3225              		.cfi_offset 9, -16
 3226              		.cfi_offset 10, -12
 3227              		.cfi_offset 11, -8
 3228              		.cfi_offset 14, -4
 3229              	.LBB177:
ARM GAS  G:\Users\Jaxb\AppData\Local\Temp\ccbV8Tbs.s 			page 80


 3230              	.LBB178:
  32:../../source/src/user/OS_LIB/buddy.c **** 	return (const struct buddy *)os_buddy_ptr_head;
 3231              		.loc 1 32 0
 3232 0bcc DFF890B3 		ldr	fp, .L400+88
 3233              	.LBE178:
 3234              	.LBE177:
 3235              		.loc 1 853 0
 3236 0bd0 87B0     		sub	sp, sp, #28
 3237              	.LCFI50:
 3238              		.cfi_def_cfa_offset 64
 3239              	.LBB180:
 3240              	.LBB179:
  32:../../source/src/user/OS_LIB/buddy.c **** 	return (const struct buddy *)os_buddy_ptr_head;
 3241              		.loc 1 32 0
 3242 0bd2 DBF80430 		ldr	r3, [fp, #4]
 3243 0bd6 0493     		str	r3, [sp, #16]
 3244 0bd8 CBF80030 		str	r3, [fp]
 3245              	.LBE179:
 3246              	.LBE180:
 854:../../source/src/user/OS_LIB/buddy.c **** 	(void)argc;
 855:../../source/src/user/OS_LIB/buddy.c **** 	(void)argv;
 856:../../source/src/user/OS_LIB/buddy.c **** 	unsigned int i;
 857:../../source/src/user/OS_LIB/buddy.c **** 	unsigned int j;
 858:../../source/src/user/OS_LIB/buddy.c **** 	struct order_link buffer;
 859:../../source/src/user/OS_LIB/buddy.c **** 	struct buddy *buddy_ptr = (struct buddy *)get_os_buddy_ptr_head();
 860:../../source/src/user/OS_LIB/buddy.c **** 	ASSERT(NULL != buddy_ptr);
 3247              		.loc 1 860 0
 3248 0bdc 002B     		cmp	r3, #0
 3249 0bde 00F04782 		beq	.L390
 3250 0be2 0123     		movs	r3, #1
 3251 0be4 0593     		str	r3, [sp, #20]
 3252              	.LVL379:
 3253              	.L300:
 861:../../source/src/user/OS_LIB/buddy.c **** 	j = 1;
 862:../../source/src/user/OS_LIB/buddy.c **** 	while(NULL != buddy_ptr)
 863:../../source/src/user/OS_LIB/buddy.c **** 	{
 864:../../source/src/user/OS_LIB/buddy.c **** 		PRINTF("NO.%u memory : \n",j++);
 3254              		.loc 1 864 0
 3255 0be6 0599     		ldr	r1, [sp, #20]
 3256 0be8 C748     		ldr	r0, .L400
 3257 0bea FFF7FEFF 		bl	ka_printf
 3258              	.LVL380:
 865:../../source/src/user/OS_LIB/buddy.c **** 		PRINTF("=====================================================\n");
 3259              		.loc 1 865 0
 3260 0bee C748     		ldr	r0, .L400+4
 3261 0bf0 FFF7FEFF 		bl	ka_printf
 3262              	.LVL381:
 866:../../source/src/user/OS_LIB/buddy.c **** 		PRINTF("the following informations are the buddy debug infomations\n");
 3263              		.loc 1 866 0
 3264 0bf4 C648     		ldr	r0, .L400+8
 3265 0bf6 FFF7FEFF 		bl	ka_printf
 3266              	.LVL382:
 3267              	.LBB181:
 3268              	.LBB182:
  50:../../source/src/user/OS_LIB/buddy.c **** 	unsigned int buffer = current_used_buddy_ptr->current_page_num;
 3269              		.loc 1 50 0
 3270 0bfa FFF7FEFF 		bl	CPU_SR_Save
ARM GAS  G:\Users\Jaxb\AppData\Local\Temp\ccbV8Tbs.s 			page 81


 3271              	.LVL383:
  51:../../source/src/user/OS_LIB/buddy.c **** 	CPU_CRITICAL_EXIT();
 3272              		.loc 1 51 0
 3273 0bfe DBF80030 		ldr	r3, [fp]
 3274 0c02 DC69     		ldr	r4, [r3, #28]
 3275              	.LVL384:
  52:../../source/src/user/OS_LIB/buddy.c **** 	return buffer;
 3276              		.loc 1 52 0
 3277 0c04 FFF7FEFF 		bl	CPU_SR_Restore
 3278              	.LVL385:
 3279              	.LBE182:
 3280              	.LBE181:
 867:../../source/src/user/OS_LIB/buddy.c **** 		PRINTF("rest buddy space is %u\n",get_current_buddy_space());
 3281              		.loc 1 867 0
 3282 0c08 2146     		mov	r1, r4
 3283 0c0a C248     		ldr	r0, .L400+12
 3284 0c0c FFF7FEFF 		bl	ka_printf
 3285              	.LVL386:
 868:../../source/src/user/OS_LIB/buddy.c **** 		PRINTF("the total space is %uKB\n",PAGE_SIZE_KB * current_used_buddy_ptr->info.page_num);
 3286              		.loc 1 868 0
 3287 0c10 DBF80030 		ldr	r3, [fp]
 3288 0c14 C048     		ldr	r0, .L400+16
 3289 0c16 596A     		ldr	r1, [r3, #36]
 3290 0c18 FFF7FEFF 		bl	ka_printf
 3291              	.LVL387:
 3292              	.LBB183:
 3293              	.LBB184:
  50:../../source/src/user/OS_LIB/buddy.c **** 	unsigned int buffer = current_used_buddy_ptr->current_page_num;
 3294              		.loc 1 50 0
 3295 0c1c FFF7FEFF 		bl	CPU_SR_Save
 3296              	.LVL388:
  51:../../source/src/user/OS_LIB/buddy.c **** 	CPU_CRITICAL_EXIT();
 3297              		.loc 1 51 0
 3298 0c20 DBF80030 		ldr	r3, [fp]
 3299 0c24 DC69     		ldr	r4, [r3, #28]
 3300              	.LVL389:
  52:../../source/src/user/OS_LIB/buddy.c **** 	return buffer;
 3301              		.loc 1 52 0
 3302 0c26 FFF7FEFF 		bl	CPU_SR_Restore
 3303              	.LVL390:
 3304              	.LBE184:
 3305              	.LBE183:
 869:../../source/src/user/OS_LIB/buddy.c **** 		PRINTF("now there are %u%% left\n",100*get_current_buddy_space()/(PAGE_SIZE_KB * current_used_bud
 3306              		.loc 1 869 0
 3307 0c2a 6423     		movs	r3, #100
 3308 0c2c DBF80020 		ldr	r2, [fp]
 3309 0c30 03FB04F3 		mul	r3, r3, r4
 3310 0c34 516A     		ldr	r1, [r2, #36]
 3311 0c36 B948     		ldr	r0, .L400+20
 3312 0c38 B3FBF1F1 		udiv	r1, r3, r1
 3313 0c3c FFF7FEFF 		bl	ka_printf
 3314              	.LVL391:
 870:../../source/src/user/OS_LIB/buddy.c **** 	//==========================================================================	
 871:../../source/src/user/OS_LIB/buddy.c **** 	//flag info
 872:../../source/src/user/OS_LIB/buddy.c **** 		PRINTF("=====================================================\n");
 3315              		.loc 1 872 0
 3316 0c40 B248     		ldr	r0, .L400+4
ARM GAS  G:\Users\Jaxb\AppData\Local\Temp\ccbV8Tbs.s 			page 82


 3317 0c42 FFF7FEFF 		bl	ka_printf
 3318              	.LVL392:
 873:../../source/src/user/OS_LIB/buddy.c **** 		PRINTF("buddy flag infomation :\n");
 3319              		.loc 1 873 0
 3320 0c46 B648     		ldr	r0, .L400+24
 3321 0c48 FFF7FEFF 		bl	ka_printf
 3322              	.LVL393:
 874:../../source/src/user/OS_LIB/buddy.c **** 		for(i=0;i<current_used_buddy_ptr->info.flag_array_num;++i)
 3323              		.loc 1 874 0
 3324 0c4c DBF80030 		ldr	r3, [fp]
 3325 0c50 1B6A     		ldr	r3, [r3, #32]
 3326 0c52 BBB1     		cbz	r3, .L302
 3327 0c54 1F25     		movs	r5, #31
 3328 0c56 0024     		movs	r4, #0
 875:../../source/src/user/OS_LIB/buddy.c **** 		{
 876:../../source/src/user/OS_LIB/buddy.c **** 			PRINTF("flag %d to %d:",i<<5,(i<<5)+31);
 3329              		.loc 1 876 0
 3330 0c58 B24F     		ldr	r7, .L400+28
 877:../../source/src/user/OS_LIB/buddy.c **** 			PRINTF("%x\n",current_used_buddy_ptr->flag[i]);
 3331              		.loc 1 877 0
 3332 0c5a B34E     		ldr	r6, .L400+32
 3333              	.LVL394:
 3334              	.L303:
 876:../../source/src/user/OS_LIB/buddy.c **** 			PRINTF("%x\n",current_used_buddy_ptr->flag[i]);
 3335              		.loc 1 876 0 discriminator 3
 3336 0c5c 2A46     		mov	r2, r5
 3337 0c5e 6101     		lsls	r1, r4, #5
 3338 0c60 3846     		mov	r0, r7
 3339 0c62 FFF7FEFF 		bl	ka_printf
 3340              	.LVL395:
 3341              		.loc 1 877 0 discriminator 3
 3342 0c66 DBF80030 		ldr	r3, [fp]
 3343 0c6a 3046     		mov	r0, r6
 3344 0c6c 1B68     		ldr	r3, [r3]
 3345 0c6e 2035     		adds	r5, r5, #32
 3346 0c70 53F82410 		ldr	r1, [r3, r4, lsl #2]
 3347 0c74 FFF7FEFF 		bl	ka_printf
 3348              	.LVL396:
 874:../../source/src/user/OS_LIB/buddy.c **** 		{
 3349              		.loc 1 874 0 discriminator 3
 3350 0c78 DBF80030 		ldr	r3, [fp]
 3351 0c7c 0134     		adds	r4, r4, #1
 3352              	.LVL397:
 3353 0c7e 1B6A     		ldr	r3, [r3, #32]
 3354 0c80 A342     		cmp	r3, r4
 3355 0c82 EBD8     		bhi	.L303
 3356              	.LVL398:
 3357              	.L302:
 878:../../source/src/user/OS_LIB/buddy.c **** 		}
 879:../../source/src/user/OS_LIB/buddy.c **** 	//==========================================================================		
 880:../../source/src/user/OS_LIB/buddy.c **** 	//level info
 881:../../source/src/user/OS_LIB/buddy.c **** 		PRINTF("=====================================================\n");
 882:../../source/src/user/OS_LIB/buddy.c **** 		PRINTF("each level's infomation :\n");
 883:../../source/src/user/OS_LIB/buddy.c **** 		for(i=0;i<current_used_buddy_ptr->info.max_level;++i)
 3358              		.loc 1 883 0
 3359 0c84 0026     		movs	r6, #0
 3360 0c86 3546     		mov	r5, r6
ARM GAS  G:\Users\Jaxb\AppData\Local\Temp\ccbV8Tbs.s 			page 83


 881:../../source/src/user/OS_LIB/buddy.c **** 		PRINTF("each level's infomation :\n");
 3361              		.loc 1 881 0
 3362 0c88 A048     		ldr	r0, .L400+4
 3363 0c8a FFF7FEFF 		bl	ka_printf
 3364              	.LVL399:
 882:../../source/src/user/OS_LIB/buddy.c **** 		for(i=0;i<current_used_buddy_ptr->info.max_level;++i)
 3365              		.loc 1 882 0
 3366 0c8e A748     		ldr	r0, .L400+36
 3367 0c90 FFF7FEFF 		bl	ka_printf
 3368              	.LVL400:
 3369              		.loc 1 883 0
 3370 0c94 DBF80030 		ldr	r3, [fp]
 884:../../source/src/user/OS_LIB/buddy.c **** 		{
 885:../../source/src/user/OS_LIB/buddy.c **** 			PRINTF("level %d : ---",i+1);
 3371              		.loc 1 885 0
 3372 0c98 A54F     		ldr	r7, .L400+40
 883:../../source/src/user/OS_LIB/buddy.c **** 		{
 3373              		.loc 1 883 0
 3374 0c9a 9B6A     		ldr	r3, [r3, #40]
 886:../../source/src/user/OS_LIB/buddy.c **** 			if(NOTHING == current_used_buddy_ptr->order_array[i])
 887:../../source/src/user/OS_LIB/buddy.c **** 			{
 888:../../source/src/user/OS_LIB/buddy.c **** 				PRINTF("nothing here\n");
 889:../../source/src/user/OS_LIB/buddy.c **** 			}
 890:../../source/src/user/OS_LIB/buddy.c **** 			else
 891:../../source/src/user/OS_LIB/buddy.c **** 			{
 892:../../source/src/user/OS_LIB/buddy.c **** 				buffer = current_used_buddy_ptr->link_body[current_used_buddy_ptr->order_array[i]];
 893:../../source/src/user/OS_LIB/buddy.c **** 				while(1)
 894:../../source/src/user/OS_LIB/buddy.c **** 				{
 895:../../source/src/user/OS_LIB/buddy.c **** 					PRINTF("num-%d--->",buffer.num);
 896:../../source/src/user/OS_LIB/buddy.c **** 					if(NOTHING == buffer.next)
 897:../../source/src/user/OS_LIB/buddy.c **** 					{
 898:../../source/src/user/OS_LIB/buddy.c **** 						PRINTF("end\n");
 3375              		.loc 1 898 0
 3376 0c9c DFF8C482 		ldr	r8, .L400+92
 3377              	.LVL401:
 883:../../source/src/user/OS_LIB/buddy.c **** 		{
 3378              		.loc 1 883 0
 3379 0ca0 AB42     		cmp	r3, r5
 3380 0ca2 2AD9     		bls	.L391
 3381              	.L309:
 886:../../source/src/user/OS_LIB/buddy.c **** 			if(NOTHING == current_used_buddy_ptr->order_array[i])
 3382              		.loc 1 886 0
 3383 0ca4 4FF6FF79 		movw	r9, #65535
 885:../../source/src/user/OS_LIB/buddy.c **** 			if(NOTHING == current_used_buddy_ptr->order_array[i])
 3384              		.loc 1 885 0
 3385 0ca8 0135     		adds	r5, r5, #1
 3386              	.LVL402:
 3387 0caa 2946     		mov	r1, r5
 3388 0cac 3846     		mov	r0, r7
 3389 0cae FFF7FEFF 		bl	ka_printf
 3390              	.LVL403:
 886:../../source/src/user/OS_LIB/buddy.c **** 			if(NOTHING == current_used_buddy_ptr->order_array[i])
 3391              		.loc 1 886 0
 3392 0cb2 DBF80020 		ldr	r2, [fp]
 3393 0cb6 1369     		ldr	r3, [r2, #16]
 3394 0cb8 9B5B     		ldrh	r3, [r3, r6]
 3395 0cba 4B45     		cmp	r3, r9
ARM GAS  G:\Users\Jaxb\AppData\Local\Temp\ccbV8Tbs.s 			page 84


 3396 0cbc 00F0A080 		beq	.L392
 892:../../source/src/user/OS_LIB/buddy.c **** 				while(1)
 3397              		.loc 1 892 0
 3398 0cc0 5268     		ldr	r2, [r2, #4]
 3399 0cc2 02EB8301 		add	r1, r2, r3, lsl #2
 3400 0cc6 4C88     		ldrh	r4, [r1, #2]
 3401 0cc8 32F82310 		ldrh	r1, [r2, r3, lsl #2]
 3402              	.LVL404:
 3403 0ccc 07E0     		b	.L308
 3404              	.LVL405:
 3405              	.L307:
 899:../../source/src/user/OS_LIB/buddy.c **** 						break ;
 900:../../source/src/user/OS_LIB/buddy.c **** 					}
 901:../../source/src/user/OS_LIB/buddy.c **** 					buffer = current_used_buddy_ptr->link_body[buffer.next];
 3406              		.loc 1 901 0
 3407 0cce DBF80030 		ldr	r3, [fp]
 3408 0cd2 5B68     		ldr	r3, [r3, #4]
 3409 0cd4 03EB8402 		add	r2, r3, r4, lsl #2
 3410 0cd8 33F82410 		ldrh	r1, [r3, r4, lsl #2]
 3411              	.LVL406:
 3412 0cdc 5488     		ldrh	r4, [r2, #2]
 3413              	.LVL407:
 3414              	.L308:
 895:../../source/src/user/OS_LIB/buddy.c **** 					if(NOTHING == buffer.next)
 3415              		.loc 1 895 0
 3416 0cde 9548     		ldr	r0, .L400+44
 3417 0ce0 FFF7FEFF 		bl	ka_printf
 3418              	.LVL408:
 896:../../source/src/user/OS_LIB/buddy.c **** 					{
 3419              		.loc 1 896 0
 3420 0ce4 4C45     		cmp	r4, r9
 3421 0ce6 F2D1     		bne	.L307
 898:../../source/src/user/OS_LIB/buddy.c **** 						break ;
 3422              		.loc 1 898 0
 3423 0ce8 4046     		mov	r0, r8
 3424 0cea FFF7FEFF 		bl	ka_printf
 3425              	.LVL409:
 3426              	.L306:
 883:../../source/src/user/OS_LIB/buddy.c **** 		{
 3427              		.loc 1 883 0 discriminator 1
 3428 0cee DBF80030 		ldr	r3, [fp]
 3429 0cf2 0236     		adds	r6, r6, #2
 3430              	.LVL410:
 3431 0cf4 9B6A     		ldr	r3, [r3, #40]
 3432 0cf6 AB42     		cmp	r3, r5
 3433 0cf8 D4D8     		bhi	.L309
 3434              	.L391:
 902:../../source/src/user/OS_LIB/buddy.c **** 				}
 903:../../source/src/user/OS_LIB/buddy.c **** 			}
 904:../../source/src/user/OS_LIB/buddy.c **** 		}
 905:../../source/src/user/OS_LIB/buddy.c **** 		PRINTF("=====================================================\n");
 3435              		.loc 1 905 0
 3436 0cfa 8448     		ldr	r0, .L400+4
 3437 0cfc FFF7FEFF 		bl	ka_printf
 3438              	.LVL411:
 906:../../source/src/user/OS_LIB/buddy.c **** 	//=========================================================================
 907:../../source/src/user/OS_LIB/buddy.c **** 	//start check the buddy info
ARM GAS  G:\Users\Jaxb\AppData\Local\Temp\ccbV8Tbs.s 			page 85


 908:../../source/src/user/OS_LIB/buddy.c **** 		PRINTF("\nnow going to check the buddy info.......\n");
 3439              		.loc 1 908 0
 3440 0d00 8D48     		ldr	r0, .L400+48
 3441 0d02 FFF7FEFF 		bl	ka_printf
 3442              	.LVL412:
 3443              	.LBB185:
 3444              	.LBB186:
 826:../../source/src/user/OS_LIB/buddy.c **** 	for(i=0;i<current_used_buddy_ptr->info.flag_array_num;++i)
 3445              		.loc 1 826 0
 3446 0d06 8D48     		ldr	r0, .L400+52
 3447 0d08 FFF7FEFF 		bl	ka_printf
 3448              	.LVL413:
 827:../../source/src/user/OS_LIB/buddy.c **** 	{
 3449              		.loc 1 827 0
 3450 0d0c DBF800C0 		ldr	ip, [fp]
 3451 0d10 DCF82030 		ldr	r3, [ip, #32]
 3452 0d14 93B1     		cbz	r3, .L310
 3453 0d16 0023     		movs	r3, #0
 3454              	.LBB187:
 3455              	.LBB188:
 3456              	.LBB189:
 700:../../source/src/user/OS_LIB/buddy.c **** 	{
 3457              		.loc 1 700 0
 3458 0d18 4FF6FF78 		movw	r8, #65535
 3459              	.LBE189:
 3460              	.LBE188:
 3461              	.LBE187:
 827:../../source/src/user/OS_LIB/buddy.c **** 	{
 3462              		.loc 1 827 0
 3463 0d1c 0093     		str	r3, [sp]
 3464              	.LVL414:
 3465              	.L331:
 829:../../source/src/user/OS_LIB/buddy.c **** 		{
 3466              		.loc 1 829 0
 3467 0d1e 0099     		ldr	r1, [sp]
 3468 0d20 DCF80030 		ldr	r3, [ip]
 3469 0d24 8A00     		lsls	r2, r1, #2
 3470 0d26 53F82130 		ldr	r3, [r3, r1, lsl #2]
 3471 0d2a 002B     		cmp	r3, #0
 3472 0d2c 6CD1     		bne	.L393
 3473              	.L311:
 827:../../source/src/user/OS_LIB/buddy.c **** 	{
 3474              		.loc 1 827 0
 3475 0d2e 009A     		ldr	r2, [sp]
 3476 0d30 DCF82030 		ldr	r3, [ip, #32]
 3477 0d34 0132     		adds	r2, r2, #1
 3478 0d36 9A42     		cmp	r2, r3
 3479 0d38 0092     		str	r2, [sp]
 3480              	.LVL415:
 3481 0d3a F0D3     		bcc	.L331
 3482              	.LVL416:
 3483              	.L310:
 845:../../source/src/user/OS_LIB/buddy.c **** 	PRINTF("now going to step2:check from level array to flag\n");
 3484              		.loc 1 845 0
 3485 0d3c 8048     		ldr	r0, .L400+56
 3486 0d3e FFF7FEFF 		bl	ka_printf
 3487              	.LVL417:
ARM GAS  G:\Users\Jaxb\AppData\Local\Temp\ccbV8Tbs.s 			page 86


 846:../../source/src/user/OS_LIB/buddy.c **** 
 3488              		.loc 1 846 0
 3489 0d42 8048     		ldr	r0, .L400+60
 3490 0d44 FFF7FEFF 		bl	ka_printf
 3491              	.LVL418:
 3492              	.LBB208:
 3493              	.LBB209:
 757:../../source/src/user/OS_LIB/buddy.c **** 	{
 3494              		.loc 1 757 0
 3495 0d48 DBF80080 		ldr	r8, [fp]
 3496 0d4c D8F82890 		ldr	r9, [r8, #40]
 3497 0d50 B9F1000F 		cmp	r9, #0
 3498 0d54 41D0     		beq	.L332
 3499 0d56 0020     		movs	r0, #0
 759:../../source/src/user/OS_LIB/buddy.c **** 		{
 3500              		.loc 1 759 0
 3501 0d58 4FF6FF76 		movw	r6, #65535
 3502 0d5c D8F81030 		ldr	r3, [r8, #16]
 761:../../source/src/user/OS_LIB/buddy.c **** 			{
 3503              		.loc 1 761 0
 3504 0d60 09F1FF3A 		add	r10, r9, #-1
 3505 0d64 A3F1020E 		sub	lr, r3, #2
 3506              	.LVL419:
 3507              	.L341:
 759:../../source/src/user/OS_LIB/buddy.c **** 		{
 3508              		.loc 1 759 0
 3509 0d68 3EF8024F 		ldrh	r4, [lr, #2]!
 3510 0d6c 411C     		adds	r1, r0, #1
 3511 0d6e B442     		cmp	r4, r6
 3512 0d70 30D0     		beq	.L333
 3513 0d72 D8F80450 		ldr	r5, [r8, #4]
 3514 0d76 D8F81430 		ldr	r3, [r8, #20]
 3515 0d7a 35F82420 		ldrh	r2, [r5, r4, lsl #2]
 3516 0d7e 33F81070 		ldrh	r7, [r3, r0, lsl #1]
 3517 0d82 CA40     		lsrs	r2, r2, r1
 3518 0d84 05EB8404 		add	r4, r5, r4, lsl #2
 761:../../source/src/user/OS_LIB/buddy.c **** 			{
 3519              		.loc 1 761 0
 3520 0d88 8245     		cmp	r10, r0
 3521 0d8a 6488     		ldrh	r4, [r4, #2]
 3522 0d8c 3A44     		add	r2, r2, r7
 3523 0d8e 00F03681 		beq	.L334
 3524              	.LVL420:
 3525 0d92 D8F80000 		ldr	r0, [r8]
 3526 0d96 5309     		lsrs	r3, r2, #5
 3527 0d98 6FEA020C 		mvn	ip, r2
 3528 0d9c 50F82330 		ldr	r3, [r0, r3, lsl #2]
 3529 0da0 0DE0     		b	.L386
 3530              	.LVL421:
 3531              	.L338:
 770:../../source/src/user/OS_LIB/buddy.c **** 					{
 3532              		.loc 1 770 0
 3533 0da2 002B     		cmp	r3, #0
 3534 0da4 00F05181 		beq	.L387
 3535              	.LVL422:
 775:../../source/src/user/OS_LIB/buddy.c **** 				}
 3536              		.loc 1 775 0
ARM GAS  G:\Users\Jaxb\AppData\Local\Temp\ccbV8Tbs.s 			page 87


 3537 0da8 A400     		lsls	r4, r4, #2
 3538              	.LVL423:
 3539 0daa 2A5B     		ldrh	r2, [r5, r4]
 3540 0dac 2C44     		add	r4, r4, r5
 3541              	.LVL424:
 3542 0dae CA40     		lsrs	r2, r2, r1
 3543 0db0 3A44     		add	r2, r2, r7
 3544 0db2 6FEA020C 		mvn	ip, r2
 3545 0db6 5309     		lsrs	r3, r2, #5
 3546 0db8 50F82330 		ldr	r3, [r0, r3, lsl #2]
 3547 0dbc 6488     		ldrh	r4, [r4, #2]
 3548              	.LVL425:
 3549              	.L386:
 3550 0dbe 0CF01F0C 		and	ip, ip, #31
 3551 0dc2 23FA0CF3 		lsr	r3, r3, ip
 764:../../source/src/user/OS_LIB/buddy.c **** 				{
 3552              		.loc 1 764 0
 3553 0dc6 B442     		cmp	r4, r6
 3554 0dc8 03F00103 		and	r3, r3, #1
 3555 0dcc E9D1     		bne	.L338
 781:../../source/src/user/OS_LIB/buddy.c **** 				{
 3556              		.loc 1 781 0
 3557 0dce 002B     		cmp	r3, #0
 3558 0dd0 00F03B81 		beq	.L387
 3559              	.LVL426:
 3560              	.L333:
 757:../../source/src/user/OS_LIB/buddy.c **** 	{
 3561              		.loc 1 757 0
 3562 0dd4 8945     		cmp	r9, r1
 3563 0dd6 0846     		mov	r0, r1
 3564 0dd8 C6D1     		bne	.L341
 3565              	.LVL427:
 3566              	.L332:
 3567              	.LBE209:
 3568              	.LBE208:
 3569              	.LBE186:
 3570              	.LBE185:
 909:../../source/src/user/OS_LIB/buddy.c **** 		if(0 == check_buddy())
 910:../../source/src/user/OS_LIB/buddy.c **** 		{
 911:../../source/src/user/OS_LIB/buddy.c **** 			PRINTF("correct!\n");
 3571              		.loc 1 911 0
 3572 0dda 5B48     		ldr	r0, .L400+64
 3573 0ddc FFF7FEFF 		bl	ka_printf
 3574              	.LVL428:
 3575              	.L342:
 912:../../source/src/user/OS_LIB/buddy.c **** 		}
 913:../../source/src/user/OS_LIB/buddy.c **** 		else
 914:../../source/src/user/OS_LIB/buddy.c **** 		{
 915:../../source/src/user/OS_LIB/buddy.c **** 			PRINTF("something wrong!\n");
 916:../../source/src/user/OS_LIB/buddy.c **** 		}
 917:../../source/src/user/OS_LIB/buddy.c **** 		PRINTF("\n\n");
 3576              		.loc 1 917 0
 3577 0de0 5A48     		ldr	r0, .L400+68
 3578 0de2 FFF7FEFF 		bl	ka_printf
 3579              	.LVL429:
 3580              	.LBB221:
 3581              	.LBB222:
ARM GAS  G:\Users\Jaxb\AppData\Local\Temp\ccbV8Tbs.s 			page 88


  38:../../source/src/user/OS_LIB/buddy.c **** 	{
 3582              		.loc 1 38 0
 3583 0de6 049B     		ldr	r3, [sp, #16]
 3584 0de8 5B6B     		ldr	r3, [r3, #52]
 3585 0dea 0493     		str	r3, [sp, #16]
 3586              	.LVL430:
 3587 0dec 002B     		cmp	r3, #0
 3588 0dee 00F02081 		beq	.L394
 3589              	.LBE222:
 3590              	.LBE221:
 864:../../source/src/user/OS_LIB/buddy.c **** 		PRINTF("=====================================================\n");
 3591              		.loc 1 864 0
 3592 0df2 059B     		ldr	r3, [sp, #20]
 3593 0df4 0133     		adds	r3, r3, #1
 3594 0df6 0593     		str	r3, [sp, #20]
 3595              	.LVL431:
 3596              	.LBB225:
 3597              	.LBB223:
  43:../../source/src/user/OS_LIB/buddy.c **** 	return (const struct buddy *)current_used_buddy_ptr;
 3598              		.loc 1 43 0
 3599 0df8 049B     		ldr	r3, [sp, #16]
 3600 0dfa CBF80030 		str	r3, [fp]
 3601              	.LVL432:
 3602 0dfe F2E6     		b	.L300
 3603              	.LVL433:
 3604              	.L392:
 3605              	.LBE223:
 3606              	.LBE225:
 888:../../source/src/user/OS_LIB/buddy.c **** 			}
 3607              		.loc 1 888 0
 3608 0e00 5348     		ldr	r0, .L400+72
 3609 0e02 FFF7FEFF 		bl	ka_printf
 3610              	.LVL434:
 3611 0e06 72E7     		b	.L306
 3612              	.LVL435:
 3613              	.L393:
 3614              	.LBB226:
 3615              	.LBB218:
 3616              	.LBB212:
 3617              	.LBB196:
 3618              	.LBB197:
 737:../../source/src/user/OS_LIB/buddy.c **** 	ASSERT(num < 1024);
 3619              		.loc 1 737 0
 3620 0e08 4B01     		lsls	r3, r1, #5
 3621 0e0a 4FF01F0A 		mov	r10, #31
 3622 0e0e 0193     		str	r3, [sp, #4]
 3623 0e10 1646     		mov	r6, r2
 3624 0e12 6046     		mov	r0, ip
 3625 0e14 03E0     		b	.L330
 3626              	.LVL436:
 3627              	.L312:
 3628              	.LBE197:
 3629              	.LBE196:
 3630              	.LBE212:
 831:../../source/src/user/OS_LIB/buddy.c **** 			{
 3631              		.loc 1 831 0
 3632 0e16 1AF1FF3A 		adds	r10, r10, #-1
ARM GAS  G:\Users\Jaxb\AppData\Local\Temp\ccbV8Tbs.s 			page 89


 3633              	.LVL437:
 3634 0e1a C0F0B080 		bcc	.L395
 3635              	.LVL438:
 3636              	.L330:
 833:../../source/src/user/OS_LIB/buddy.c **** 				{
 3637              		.loc 1 833 0
 3638 0e1e 0368     		ldr	r3, [r0]
 3639 0e20 9C59     		ldr	r4, [r3, r6]
 3640 0e22 24FA0AF4 		lsr	r4, r4, r10
 3641 0e26 14F00104 		ands	r4, r4, #1
 3642 0e2a F4D0     		beq	.L312
 3643              	.LVL439:
 3644 0e2c 019B     		ldr	r3, [sp, #4]
 3645 0e2e 03F11F09 		add	r9, r3, #31
 3646 0e32 A9EB0A09 		sub	r9, r9, r10
 3647              	.LVL440:
 3648              	.LBB213:
 3649              	.LBB200:
 3650              	.LBB198:
 738:../../source/src/user/OS_LIB/buddy.c **** 	unsigned int i;
 3651              		.loc 1 738 0
 3652 0e36 B9F5806F 		cmp	r9, #1024
 3653 0e3a 80F0C880 		bcs	.L396
 3654              	.L313:
 3655              	.LVL441:
 740:../../source/src/user/OS_LIB/buddy.c **** 	{
 3656              		.loc 1 740 0
 3657 0e3e 016B     		ldr	r1, [r0, #48]
 3658 0e40 71B1     		cbz	r1, .L314
 742:../../source/src/user/OS_LIB/buddy.c **** 		{
 3659              		.loc 1 742 0
 3660 0e42 4569     		ldr	r5, [r0, #20]
 3661 0e44 2B88     		ldrh	r3, [r5]
 3662 0e46 4B45     		cmp	r3, r9
 3663 0e48 00F29B80 		bhi	.L315
 3664 0e4c 2B46     		mov	r3, r5
 3665 0e4e 0027     		movs	r7, #0
 3666 0e50 03E0     		b	.L316
 3667              	.LVL442:
 3668              	.L318:
 3669 0e52 33F8022F 		ldrh	r2, [r3, #2]!
 3670 0e56 4A45     		cmp	r2, r9
 3671 0e58 0FD8     		bhi	.L317
 3672              	.LVL443:
 3673              	.L316:
 740:../../source/src/user/OS_LIB/buddy.c **** 	{
 3674              		.loc 1 740 0
 3675 0e5a 0137     		adds	r7, r7, #1
 3676              	.LVL444:
 3677 0e5c 8F42     		cmp	r7, r1
 3678 0e5e F8D1     		bne	.L318
 3679              	.LVL445:
 3680              	.L314:
 747:../../source/src/user/OS_LIB/buddy.c **** 	return current_used_buddy_ptr->info.max_level;
 3681              		.loc 1 747 0
 3682 0e60 436A     		ldr	r3, [r0, #36]
 3683 0e62 023B     		subs	r3, r3, #2
ARM GAS  G:\Users\Jaxb\AppData\Local\Temp\ccbV8Tbs.s 			page 90


 3684 0e64 4B45     		cmp	r3, r9
 3685 0e66 06D0     		beq	.L319
 3686 0e68 3A48     		ldr	r0, .L400+76
 3687 0e6a 40F2EB21 		movw	r1, #747
 3688 0e6e FFF7FEFF 		bl	_ASSERT
 3689              	.LVL446:
 3690 0e72 DBF80000 		ldr	r0, [fp]
 3691              	.L319:
 748:../../source/src/user/OS_LIB/buddy.c **** }
 3692              		.loc 1 748 0
 3693 0e76 876A     		ldr	r7, [r0, #40]
 3694 0e78 4569     		ldr	r5, [r0, #20]
 3695              	.L317:
 3696              	.LVL447:
 3697 0e7a 0224     		movs	r4, #2
 3698              	.LBE198:
 3699              	.LBE200:
 836:../../source/src/user/OS_LIB/buddy.c **** 					{
 3700              		.loc 1 836 0
 3701 0e7c 07F10043 		add	r3, r7, #-2147483648
 3702 0e80 013B     		subs	r3, r3, #1
 3703 0e82 35F81320 		ldrh	r2, [r5, r3, lsl #1]
 3704              	.LBB201:
 3705              	.LBB190:
 695:../../source/src/user/OS_LIB/buddy.c **** 	ASSERT((offset<((current_used_buddy_ptr->info.page_num>>1)/sizeof_level(level))));
 3706              		.loc 1 695 0
 3707 0e86 7D1E     		subs	r5, r7, #1
 3708 0e88 092D     		cmp	r5, #9
 3709              	.LBE190:
 3710              	.LBE201:
 836:../../source/src/user/OS_LIB/buddy.c **** 					{
 3711              		.loc 1 836 0
 3712 0e8a A9EB0202 		sub	r2, r9, r2
 3713              	.LVL448:
 3714 0e8e 4FEA4303 		lsl	r3, r3, #1
 3715 0e92 04FA05F4 		lsl	r4, r4, r5
 3716              	.LBB202:
 3717              	.LBB191:
 695:../../source/src/user/OS_LIB/buddy.c **** 	ASSERT((offset<((current_used_buddy_ptr->info.page_num>>1)/sizeof_level(level))));
 3718              		.loc 1 695 0
 3719 0e96 7DD8     		bhi	.L345
 696:../../source/src/user/OS_LIB/buddy.c **** 	unsigned int num = 0;
 3720              		.loc 1 696 0
 3721 0e98 416A     		ldr	r1, [r0, #36]
 3722 0e9a 4908     		lsrs	r1, r1, #1
 3723 0e9c E940     		lsrs	r1, r1, r5
 3724 0e9e 8A42     		cmp	r2, r1
 3725 0ea0 80F08980 		bcs	.L397
 3726              	.LVL449:
 3727              	.L321:
 700:../../source/src/user/OS_LIB/buddy.c **** 	{
 3728              		.loc 1 700 0
 3729 0ea4 0169     		ldr	r1, [r0, #16]
 699:../../source/src/user/OS_LIB/buddy.c **** 	if(NOTHING == current_used_buddy_ptr->order_array[level-1])
 3730              		.loc 1 699 0
 3731 0ea6 04FB02F4 		mul	r4, r4, r2
 3732              	.LVL450:
ARM GAS  G:\Users\Jaxb\AppData\Local\Temp\ccbV8Tbs.s 			page 91


 700:../../source/src/user/OS_LIB/buddy.c **** 	{
 3733              		.loc 1 700 0
 3734 0eaa C95A     		ldrh	r1, [r1, r3]
 3735 0eac 4145     		cmp	r1, r8
 3736 0eae 21D0     		beq	.L322
 704:../../source/src/user/OS_LIB/buddy.c **** 	while(buffer.next != NOTHING)
 3737              		.loc 1 704 0
 3738 0eb0 4268     		ldr	r2, [r0, #4]
 3739 0eb2 02EB8103 		add	r3, r2, r1, lsl #2
 3740 0eb6 5B88     		ldrh	r3, [r3, #2]
 3741 0eb8 32F82110 		ldrh	r1, [r2, r1, lsl #2]
 3742              	.LVL451:
 705:../../source/src/user/OS_LIB/buddy.c **** 	{
 3743              		.loc 1 705 0
 3744 0ebc 4345     		cmp	r3, r8
 3745 0ebe 00F09380 		beq	.L323
 707:../../source/src/user/OS_LIB/buddy.c **** 		{
 3746              		.loc 1 707 0
 3747 0ec2 4FF0010C 		mov	ip, #1
 3748 0ec6 0CFA05F5 		lsl	r5, ip, r5
 697:../../source/src/user/OS_LIB/buddy.c **** 	//int page_num = (0x00000001<<(level-1))<<offset -1;
 3749              		.loc 1 697 0
 3750 0eca 4FF0000E 		mov	lr, #0
 707:../../source/src/user/OS_LIB/buddy.c **** 		{
 3751              		.loc 1 707 0
 3752 0ece 2544     		add	r5, r5, r4
 3753 0ed0 07E0     		b	.L325
 3754              	.LVL452:
 3755              	.L399:
 3756 0ed2 A942     		cmp	r1, r5
 3757 0ed4 09D0     		beq	.L324
 3758              	.L344:
 715:../../source/src/user/OS_LIB/buddy.c **** 	}
 3759              		.loc 1 715 0
 3760 0ed6 32F82310 		ldrh	r1, [r2, r3, lsl #2]
 3761              	.LVL453:
 3762 0eda BCF80230 		ldrh	r3, [ip, #2]
 3763              	.LVL454:
 705:../../source/src/user/OS_LIB/buddy.c **** 	{
 3764              		.loc 1 705 0
 3765 0ede 4345     		cmp	r3, r8
 3766 0ee0 42D0     		beq	.L398
 3767              	.LVL455:
 3768              	.L325:
 707:../../source/src/user/OS_LIB/buddy.c **** 		{
 3769              		.loc 1 707 0
 3770 0ee2 8C42     		cmp	r4, r1
 715:../../source/src/user/OS_LIB/buddy.c **** 	}
 3771              		.loc 1 715 0
 3772 0ee4 02EB830C 		add	ip, r2, r3, lsl #2
 707:../../source/src/user/OS_LIB/buddy.c **** 		{
 3773              		.loc 1 707 0
 3774 0ee8 F3D1     		bne	.L399
 3775              	.L324:
 709:../../source/src/user/OS_LIB/buddy.c **** 			if(2 < num)
 3776              		.loc 1 709 0
 3777 0eea 0EF1010E 		add	lr, lr, #1
ARM GAS  G:\Users\Jaxb\AppData\Local\Temp\ccbV8Tbs.s 			page 92


 3778              	.LVL456:
 710:../../source/src/user/OS_LIB/buddy.c **** 			{
 3779              		.loc 1 710 0
 3780 0eee BEF1020F 		cmp	lr, #2
 3781 0ef2 F0D9     		bls	.L344
 3782              	.LVL457:
 3783              	.L322:
 3784              	.LBE191:
 3785              	.LBE202:
 838:../../source/src/user/OS_LIB/buddy.c **** 						return -1;
 3786              		.loc 1 838 0
 3787 0ef4 3A46     		mov	r2, r7
 3788 0ef6 4946     		mov	r1, r9
 3789 0ef8 1748     		ldr	r0, .L400+80
 3790 0efa FFF7FEFF 		bl	ka_printf
 3791              	.LVL458:
 3792              	.L329:
 3793              	.LBE213:
 3794              	.LBE218:
 3795              	.LBE226:
 915:../../source/src/user/OS_LIB/buddy.c **** 		}
 3796              		.loc 1 915 0
 3797 0efe 1748     		ldr	r0, .L400+84
 3798 0f00 FFF7FEFF 		bl	ka_printf
 3799              	.LVL459:
 3800 0f04 6CE7     		b	.L342
 3801              	.L401:
 3802 0f06 00BF     		.align	2
 3803              	.L400:
 3804 0f08 54000000 		.word	.LC3
 3805 0f0c 68000000 		.word	.LC4
 3806 0f10 A0000000 		.word	.LC5
 3807 0f14 DC000000 		.word	.LC6
 3808 0f18 F4000000 		.word	.LC7
 3809 0f1c 10010000 		.word	.LC8
 3810 0f20 2C010000 		.word	.LC9
 3811 0f24 48010000 		.word	.LC10
 3812 0f28 58010000 		.word	.LC11
 3813 0f2c 5C010000 		.word	.LC12
 3814 0f30 78010000 		.word	.LC13
 3815 0f34 98010000 		.word	.LC15
 3816 0f38 AC010000 		.word	.LC17
 3817 0f3c D8010000 		.word	.LC18
 3818 0f40 24020000 		.word	.LC20
 3819 0f44 74020000 		.word	.LC21
 3820 0f48 C4020000 		.word	.LC23
 3821 0f4c E4020000 		.word	.LC25
 3822 0f50 88010000 		.word	.LC14
 3823 0f54 00000000 		.word	.LC0
 3824 0f58 0C020000 		.word	.LC19
 3825 0f5c D0020000 		.word	.LC24
 3826 0f60 00000000 		.word	.LANCHOR0
 3827 0f64 A4010000 		.word	.LC16
 3828              	.LVL460:
 3829              	.L398:
 3830              	.LBB227:
 3831              	.LBB219:
ARM GAS  G:\Users\Jaxb\AppData\Local\Temp\ccbV8Tbs.s 			page 93


 3832              	.LBB214:
 3833              	.LBB203:
 3834              	.LBB192:
 717:../../source/src/user/OS_LIB/buddy.c **** 	{
 3835              		.loc 1 717 0
 3836 0f68 8C42     		cmp	r4, r1
 3837 0f6a 38D0     		beq	.L327
 3838 0f6c 8D42     		cmp	r5, r1
 3839 0f6e 36D0     		beq	.L327
 725:../../source/src/user/OS_LIB/buddy.c **** 	{
 3840              		.loc 1 725 0
 3841 0f70 BEF1010F 		cmp	lr, #1
 3842 0f74 BED1     		bne	.L322
 3843              	.LVL461:
 3844              	.LBE192:
 3845              	.LBE203:
 3846              	.LBE214:
 831:../../source/src/user/OS_LIB/buddy.c **** 			{
 3847              		.loc 1 831 0
 3848 0f76 1AF1FF3A 		adds	r10, r10, #-1
 3849              	.LVL462:
 3850 0f7a BFF450AF 		bcs	.L330
 3851              	.LVL463:
 3852              	.L395:
 3853 0f7e 8446     		mov	ip, r0
 3854 0f80 D5E6     		b	.L311
 3855              	.LVL464:
 3856              	.L315:
 3857              	.LBB215:
 836:../../source/src/user/OS_LIB/buddy.c **** 					{
 3858              		.loc 1 836 0
 3859 0f82 35F8022C 		ldrh	r2, [r5, #-2]
 3860 0f86 0027     		movs	r7, #0
 3861              	.LBB204:
 3862              	.LBB193:
 695:../../source/src/user/OS_LIB/buddy.c **** 	ASSERT((offset<((current_used_buddy_ptr->info.page_num>>1)/sizeof_level(level))));
 3863              		.loc 1 695 0
 3864 0f88 4FF0FF35 		mov	r5, #-1
 3865              	.LBE193:
 3866              	.LBE204:
 836:../../source/src/user/OS_LIB/buddy.c **** 					{
 3867              		.loc 1 836 0
 3868 0f8c 6FF00103 		mvn	r3, #1
 3869 0f90 A9EB0202 		sub	r2, r9, r2
 3870              	.LVL465:
 3871              	.L345:
 3872              	.LBB205:
 3873              	.LBB194:
 695:../../source/src/user/OS_LIB/buddy.c **** 	ASSERT((offset<((current_used_buddy_ptr->info.page_num>>1)/sizeof_level(level))));
 3874              		.loc 1 695 0
 3875 0f94 40F2B721 		movw	r1, #695
 3876 0f98 3848     		ldr	r0, .L402
 3877 0f9a CDE90223 		strd	r2, r3, [sp, #8]
 3878              	.LVL466:
 3879 0f9e FFF7FEFF 		bl	_ASSERT
 3880              	.LVL467:
 3881 0fa2 DDE90223 		ldrd	r2, r3, [sp, #8]
ARM GAS  G:\Users\Jaxb\AppData\Local\Temp\ccbV8Tbs.s 			page 94


 3882 0fa6 DBF80000 		ldr	r0, [fp]
 696:../../source/src/user/OS_LIB/buddy.c **** 	unsigned int num = 0;
 3883              		.loc 1 696 0
 3884 0faa 416A     		ldr	r1, [r0, #36]
 3885 0fac 4908     		lsrs	r1, r1, #1
 3886 0fae E940     		lsrs	r1, r1, r5
 3887 0fb0 8A42     		cmp	r2, r1
 3888 0fb2 FFF477AF 		bcc	.L321
 3889              	.LVL468:
 3890              	.L397:
 3891 0fb6 3148     		ldr	r0, .L402
 3892 0fb8 4FF42E71 		mov	r1, #696
 3893 0fbc CDE90223 		strd	r2, r3, [sp, #8]
 3894 0fc0 FFF7FEFF 		bl	_ASSERT
 3895              	.LVL469:
 3896 0fc4 DDE90223 		ldrd	r2, r3, [sp, #8]
 3897 0fc8 DBF80000 		ldr	r0, [fp]
 3898 0fcc 6AE7     		b	.L321
 3899              	.LVL470:
 3900              	.L396:
 3901              	.LBE194:
 3902              	.LBE205:
 3903              	.LBB206:
 3904              	.LBB199:
 738:../../source/src/user/OS_LIB/buddy.c **** 	unsigned int i;
 3905              		.loc 1 738 0
 3906 0fce 2B48     		ldr	r0, .L402
 3907 0fd0 40F2E221 		movw	r1, #738
 3908 0fd4 FFF7FEFF 		bl	_ASSERT
 3909              	.LVL471:
 3910 0fd8 DBF80000 		ldr	r0, [fp]
 3911 0fdc 2FE7     		b	.L313
 3912              	.LVL472:
 3913              	.L327:
 3914              	.LBE199:
 3915              	.LBE206:
 3916              	.LBB207:
 3917              	.LBB195:
 720:../../source/src/user/OS_LIB/buddy.c **** 		{
 3918              		.loc 1 720 0
 3919 0fde BEF1000F 		cmp	lr, #0
 3920 0fe2 3FF418AF 		beq	.L312
 3921 0fe6 85E7     		b	.L322
 3922              	.LVL473:
 3923              	.L323:
 717:../../source/src/user/OS_LIB/buddy.c **** 	{
 3924              		.loc 1 717 0
 3925 0fe8 8C42     		cmp	r4, r1
 3926 0fea 3FF414AF 		beq	.L312
 3927 0fee 0123     		movs	r3, #1
 3928              	.LVL474:
 3929 0ff0 03FA05F5 		lsl	r5, r3, r5
 3930 0ff4 2C44     		add	r4, r4, r5
 3931              	.LVL475:
 3932 0ff6 8C42     		cmp	r4, r1
 3933 0ff8 7FF47CAF 		bne	.L322
 3934 0ffc 0BE7     		b	.L312
ARM GAS  G:\Users\Jaxb\AppData\Local\Temp\ccbV8Tbs.s 			page 95


 3935              	.LVL476:
 3936              	.L334:
 3937              	.LBE195:
 3938              	.LBE207:
 3939              	.LBE215:
 3940              	.LBB216:
 3941              	.LBB210:
 793:../../source/src/user/OS_LIB/buddy.c **** 				{
 3942              		.loc 1 793 0
 3943 0ffe B442     		cmp	r4, r6
 3944 1000 28D0     		beq	.L339
 795:../../source/src/user/OS_LIB/buddy.c **** 					{
 3945              		.loc 1 795 0
 3946 1002 0123     		movs	r3, #1
 3947 1004 35F82400 		ldrh	r0, [r5, r4, lsl #2]
 3948 1008 03FA0AF3 		lsl	r3, r3, r10
 3949 100c 9842     		cmp	r0, r3
 3950 100e 0CD1     		bne	.L388
 801:../../source/src/user/OS_LIB/buddy.c **** 					{
 3951              		.loc 1 801 0
 3952 1010 D343     		mvns	r3, r2
 3953 1012 D8F80000 		ldr	r0, [r8]
 3954 1016 5409     		lsrs	r4, r2, #5
 3955 1018 50F82400 		ldr	r0, [r0, r4, lsl #2]
 3956 101c 03F01F03 		and	r3, r3, #31
 3957 1020 20FA03F3 		lsr	r3, r0, r3
 3958 1024 D807     		lsls	r0, r3, #31
 3959 1026 7FF5D5AE 		bpl	.L333
 3960              	.L388:
 813:../../source/src/user/OS_LIB/buddy.c **** 						return -1;
 3961              		.loc 1 813 0
 3962 102a 1548     		ldr	r0, .L402+4
 3963 102c FFF7FEFF 		bl	ka_printf
 3964              	.LVL477:
 3965 1030 65E7     		b	.L329
 3966              	.LVL478:
 3967              	.L394:
 3968              	.LBE210:
 3969              	.LBE216:
 3970              	.LBE219:
 3971              	.LBE227:
 3972              	.LBB228:
 3973              	.LBB224:
  40:../../source/src/user/OS_LIB/buddy.c **** 		return NULL;
 3974              		.loc 1 40 0
 3975 1032 DBF80430 		ldr	r3, [fp, #4]
 3976 1036 CBF80030 		str	r3, [fp]
 3977              	.LVL479:
 3978              	.L301:
 3979              	.LBE224:
 3980              	.LBE228:
 918:../../source/src/user/OS_LIB/buddy.c **** 		buddy_ptr = (struct buddy *)get_next_buddy_ptr_head(buddy_ptr);
 919:../../source/src/user/OS_LIB/buddy.c **** 	}
 920:../../source/src/user/OS_LIB/buddy.c **** 	PRINTF("now going to display the page allocation's info\n");
 3981              		.loc 1 920 0
 3982 103a 1248     		ldr	r0, .L402+8
 3983 103c FFF7FEFF 		bl	ka_printf
ARM GAS  G:\Users\Jaxb\AppData\Local\Temp\ccbV8Tbs.s 			page 96


 3984              	.LVL480:
 921:../../source/src/user/OS_LIB/buddy.c **** 	dis_page_alloc_record();	
 922:../../source/src/user/OS_LIB/buddy.c **** }
 3985              		.loc 1 922 0
 3986 1040 07B0     		add	sp, sp, #28
 3987              	.LCFI51:
 3988              		.cfi_remember_state
 3989              		.cfi_def_cfa_offset 36
 3990              		@ sp needed
 3991 1042 BDE8F04F 		pop	{r4, r5, r6, r7, r8, r9, r10, fp, lr}
 3992              	.LCFI52:
 3993              		.cfi_restore 14
 3994              		.cfi_restore 11
 3995              		.cfi_restore 10
 3996              		.cfi_restore 9
 3997              		.cfi_restore 8
 3998              		.cfi_restore 7
 3999              		.cfi_restore 6
 4000              		.cfi_restore 5
 4001              		.cfi_restore 4
 4002              		.cfi_def_cfa_offset 0
 921:../../source/src/user/OS_LIB/buddy.c **** 	dis_page_alloc_record();	
 4003              		.loc 1 921 0
 4004 1046 FFF7FEBF 		b	dis_page_alloc_record
 4005              	.LVL481:
 4006              	.L387:
 4007              	.LCFI53:
 4008              		.cfi_restore_state
 4009              	.LBB229:
 4010              	.LBB220:
 4011              	.LBB217:
 4012              	.LBB211:
 783:../../source/src/user/OS_LIB/buddy.c **** 					return -1;
 4013              		.loc 1 783 0
 4014 104a 8A40     		lsls	r2, r2, r1
 4015 104c 0C48     		ldr	r0, .L402+4
 4016 104e FFF7FEFF 		bl	ka_printf
 4017              	.LVL482:
 4018 1052 54E7     		b	.L329
 4019              	.LVL483:
 4020              	.L339:
 811:../../source/src/user/OS_LIB/buddy.c **** 					{
 4021              		.loc 1 811 0
 4022 1054 D343     		mvns	r3, r2
 4023 1056 D8F80000 		ldr	r0, [r8]
 4024 105a 5409     		lsrs	r4, r2, #5
 4025 105c 50F82400 		ldr	r0, [r0, r4, lsl #2]
 4026 1060 03F01F03 		and	r3, r3, #31
 4027 1064 20FA03F3 		lsr	r3, r0, r3
 4028 1068 DB07     		lsls	r3, r3, #31
 4029 106a 3FF5B3AE 		bmi	.L333
 4030 106e DCE7     		b	.L388
 4031              	.LVL484:
 4032              	.L390:
 4033              	.LBE211:
 4034              	.LBE217:
 4035              	.LBE220:
ARM GAS  G:\Users\Jaxb\AppData\Local\Temp\ccbV8Tbs.s 			page 97


 4036              	.LBE229:
 860:../../source/src/user/OS_LIB/buddy.c **** 	j = 1;
 4037              		.loc 1 860 0 discriminator 1
 4038 1070 4FF45771 		mov	r1, #860
 4039              	.LVL485:
 4040 1074 0148     		ldr	r0, .L402
 4041              	.LVL486:
 4042 1076 FFF7FEFF 		bl	_ASSERT
 4043              	.LVL487:
 4044 107a DEE7     		b	.L301
 4045              	.L403:
 4046              		.align	2
 4047              	.L402:
 4048 107c 00000000 		.word	.LC0
 4049 1080 A8020000 		.word	.LC22
 4050 1084 E8020000 		.word	.LC26
 4051              		.cfi_endproc
 4052              	.LFE48:
 4053              		.size	shell_buddy_debug, .-shell_buddy_debug
 4054              		.bss
 4055              		.align	2
 4056              		.set	.LANCHOR0,. + 0
 4057              		.type	current_used_buddy_ptr, %object
 4058              		.size	current_used_buddy_ptr, 4
 4059              	current_used_buddy_ptr:
 4060 0000 00000000 		.space	4
 4061              		.type	os_buddy_ptr_head, %object
 4062              		.size	os_buddy_ptr_head, 4
 4063              	os_buddy_ptr_head:
 4064 0004 00000000 		.space	4
 4065              		.section	.rodata.str1.4,"aMS",%progbits,1
 4066              		.align	2
 4067              	.LC0:
 4068 0000 2E2E2F2E 		.ascii	"../../source/src/user/OS_LIB/buddy.c\000"
 4068      2E2F736F 
 4068      75726365 
 4068      2F737263 
 4068      2F757365 
 4069 0025 000000   		.space	3
 4070              	.LC1:
 4071 0028 73706163 		.ascii	"space used by os is %d\012\000"
 4071      65207573 
 4071      65642062 
 4071      79206F73 
 4071      20697320 
 4072              	.LC2:
 4073 0040 616C6C6F 		.ascii	"allocate level %d\012\000"
 4073      63617465 
 4073      206C6576 
 4073      656C2025 
 4073      640A00
 4074 0053 00       		.space	1
 4075              	.LC3:
 4076 0054 4E4F2E25 		.ascii	"NO.%u memory : \012\000"
 4076      75206D65 
 4076      6D6F7279 
 4076      203A200A 
ARM GAS  G:\Users\Jaxb\AppData\Local\Temp\ccbV8Tbs.s 			page 98


 4076      00
 4077 0065 000000   		.space	3
 4078              	.LC4:
 4079 0068 3D3D3D3D 		.ascii	"==================================================="
 4079      3D3D3D3D 
 4079      3D3D3D3D 
 4079      3D3D3D3D 
 4079      3D3D3D3D 
 4080 009b 3D3D0A00 		.ascii	"==\012\000"
 4081 009f 00       		.space	1
 4082              	.LC5:
 4083 00a0 74686520 		.ascii	"the following informations are the buddy debug info"
 4083      666F6C6C 
 4083      6F77696E 
 4083      6720696E 
 4083      666F726D 
 4084 00d3 6D617469 		.ascii	"mations\012\000"
 4084      6F6E730A 
 4084      00
 4085              	.LC6:
 4086 00dc 72657374 		.ascii	"rest buddy space is %u\012\000"
 4086      20627564 
 4086      64792073 
 4086      70616365 
 4086      20697320 
 4087              	.LC7:
 4088 00f4 74686520 		.ascii	"the total space is %uKB\012\000"
 4088      746F7461 
 4088      6C207370 
 4088      61636520 
 4088      69732025 
 4089 010d 000000   		.space	3
 4090              	.LC8:
 4091 0110 6E6F7720 		.ascii	"now there are %u%% left\012\000"
 4091      74686572 
 4091      65206172 
 4091      65202575 
 4091      2525206C 
 4092 0129 000000   		.space	3
 4093              	.LC9:
 4094 012c 62756464 		.ascii	"buddy flag infomation :\012\000"
 4094      7920666C 
 4094      61672069 
 4094      6E666F6D 
 4094      6174696F 
 4095 0145 000000   		.space	3
 4096              	.LC10:
 4097 0148 666C6167 		.ascii	"flag %d to %d:\000"
 4097      20256420 
 4097      746F2025 
 4097      643A00
 4098 0157 00       		.space	1
 4099              	.LC11:
 4100 0158 25780A00 		.ascii	"%x\012\000"
 4101              	.LC12:
 4102 015c 65616368 		.ascii	"each level's infomation :\012\000"
 4102      206C6576 
ARM GAS  G:\Users\Jaxb\AppData\Local\Temp\ccbV8Tbs.s 			page 99


 4102      656C2773 
 4102      20696E66 
 4102      6F6D6174 
 4103 0177 00       		.space	1
 4104              	.LC13:
 4105 0178 6C657665 		.ascii	"level %d : ---\000"
 4105      6C202564 
 4105      203A202D 
 4105      2D2D00
 4106 0187 00       		.space	1
 4107              	.LC14:
 4108 0188 6E6F7468 		.ascii	"nothing here\012\000"
 4108      696E6720 
 4108      68657265 
 4108      0A00
 4109 0196 0000     		.space	2
 4110              	.LC15:
 4111 0198 6E756D2D 		.ascii	"num-%d--->\000"
 4111      25642D2D 
 4111      2D3E00
 4112 01a3 00       		.space	1
 4113              	.LC16:
 4114 01a4 656E640A 		.ascii	"end\012\000"
 4114      00
 4115 01a9 000000   		.space	3
 4116              	.LC17:
 4117 01ac 0A6E6F77 		.ascii	"\012now going to check the buddy info.......\012\000"
 4117      20676F69 
 4117      6E672074 
 4117      6F206368 
 4117      65636B20 
 4118 01d7 00       		.space	1
 4119              	.LC18:
 4120 01d8 6E6F7720 		.ascii	"now going to step1:check from flag to level array\012"
 4120      676F696E 
 4120      6720746F 
 4120      20737465 
 4120      70313A63 
 4121 020a 00       		.ascii	"\000"
 4122 020b 00       		.space	1
 4123              	.LC19:
 4124 020c 6E756D20 		.ascii	"num %d,level %d error!\012\000"
 4124      25642C6C 
 4124      6576656C 
 4124      20256420 
 4124      6572726F 
 4125              	.LC20:
 4126 0224 496E7370 		.ascii	"Inspection step 1:check from flag to level array is"
 4126      65637469 
 4126      6F6E2073 
 4126      74657020 
 4126      313A6368 
 4127 0257 20636F6D 		.ascii	" completed.Nothing wrong\012\000"
 4127      706C6574 
 4127      65642E4E 
 4127      6F746869 
 4127      6E672077 
ARM GAS  G:\Users\Jaxb\AppData\Local\Temp\ccbV8Tbs.s 			page 100


 4128 0271 000000   		.space	3
 4129              	.LC21:
 4130 0274 6E6F7720 		.ascii	"now going to step2:check from level array to flag\012"
 4130      676F696E 
 4130      6720746F 
 4130      20737465 
 4130      70323A63 
 4131 02a6 00       		.ascii	"\000"
 4132 02a7 00       		.space	1
 4133              	.LC22:
 4134 02a8 6C657665 		.ascii	"level %d,page_num %d error\012\000"
 4134      6C202564 
 4134      2C706167 
 4134      655F6E75 
 4134      6D202564 
 4135              	.LC23:
 4136 02c4 636F7272 		.ascii	"correct!\012\000"
 4136      65637421 
 4136      0A00
 4137 02ce 0000     		.space	2
 4138              	.LC24:
 4139 02d0 736F6D65 		.ascii	"something wrong!\012\000"
 4139      7468696E 
 4139      67207772 
 4139      6F6E6721 
 4139      0A00
 4140 02e2 0000     		.space	2
 4141              	.LC25:
 4142 02e4 0A0A00   		.ascii	"\012\012\000"
 4143 02e7 00       		.space	1
 4144              	.LC26:
 4145 02e8 6E6F7720 		.ascii	"now going to display the page allocation's info\012"
 4145      676F696E 
 4145      6720746F 
 4145      20646973 
 4145      706C6179 
 4146 0318 00       		.ascii	"\000"
 4147              		.text
 4148              	.Letext0:
 4149              		.file 2 "../../source/include/os_cpu/kakaosstdint.h"
 4150              		.file 3 "../../source/include/os_cpu/bsp/bsp.h"
 4151              		.file 4 "../../source/include/os_lib/buddy.h"
 4152              		.file 5 "../../source/include/os_cpu/os_cpu_stm32.h"
 4153              		.file 6 "../../source/include/os_lib/myassert.h"
 4154              		.file 7 "../../source/include/os_lib/myMicroLIB.h"
 4155              		.section	.debug_info,"",%progbits
 4156              	.Ldebug_info0:
 4157 0000 EE1E0000 		.4byte	0x1eee
 4158 0004 0200     		.2byte	0x2
 4159 0006 00000000 		.4byte	.Ldebug_abbrev0
 4160 000a 04       		.byte	0x4
 4161 000b 01       		.uleb128 0x1
 4162 000c E2050000 		.4byte	.LASF108
 4163 0010 0C       		.byte	0xc
 4164 0011 B1030000 		.4byte	.LASF109
 4165 0015 B1040000 		.4byte	.LASF110
 4166 0019 00000000 		.4byte	.Ltext0
ARM GAS  G:\Users\Jaxb\AppData\Local\Temp\ccbV8Tbs.s 			page 101


 4167 001d 88100000 		.4byte	.Letext0
 4168 0021 00000000 		.4byte	.Ldebug_line0
 4169 0025 02       		.uleb128 0x2
 4170 0026 01       		.byte	0x1
 4171 0027 06       		.byte	0x6
 4172 0028 E0020000 		.4byte	.LASF0
 4173 002c 02       		.uleb128 0x2
 4174 002d 02       		.byte	0x2
 4175 002e 05       		.byte	0x5
 4176 002f DE000000 		.4byte	.LASF1
 4177 0033 03       		.uleb128 0x3
 4178 0034 04       		.byte	0x4
 4179 0035 05       		.byte	0x5
 4180 0036 696E7400 		.ascii	"int\000"
 4181 003a 02       		.uleb128 0x2
 4182 003b 08       		.byte	0x8
 4183 003c 05       		.byte	0x5
 4184 003d 0F020000 		.4byte	.LASF2
 4185 0041 02       		.uleb128 0x2
 4186 0042 01       		.byte	0x1
 4187 0043 08       		.byte	0x8
 4188 0044 A7020000 		.4byte	.LASF3
 4189 0048 04       		.uleb128 0x4
 4190 0049 34040000 		.4byte	.LASF5
 4191 004d 02       		.byte	0x2
 4192 004e 0B       		.byte	0xb
 4193 004f 53000000 		.4byte	0x53
 4194 0053 02       		.uleb128 0x2
 4195 0054 02       		.byte	0x2
 4196 0055 07       		.byte	0x7
 4197 0056 10040000 		.4byte	.LASF4
 4198 005a 04       		.uleb128 0x4
 4199 005b 67010000 		.4byte	.LASF6
 4200 005f 02       		.byte	0x2
 4201 0060 0C       		.byte	0xc
 4202 0061 65000000 		.4byte	0x65
 4203 0065 02       		.uleb128 0x2
 4204 0066 04       		.byte	0x4
 4205 0067 07       		.byte	0x7
 4206 0068 57030000 		.4byte	.LASF7
 4207 006c 02       		.uleb128 0x2
 4208 006d 08       		.byte	0x8
 4209 006e 07       		.byte	0x7
 4210 006f F4020000 		.4byte	.LASF8
 4211 0073 05       		.uleb128 0x5
 4212 0074 95010000 		.4byte	.LASF17
 4213 0078 0C       		.byte	0xc
 4214 0079 03       		.byte	0x3
 4215 007a 0E       		.byte	0xe
 4216 007b AA000000 		.4byte	0xaa
 4217 007f 06       		.uleb128 0x6
 4218 0080 1E070000 		.4byte	.LASF9
 4219 0084 03       		.byte	0x3
 4220 0085 0F       		.byte	0xf
 4221 0086 65000000 		.4byte	0x65
 4222 008a 02       		.byte	0x2
 4223 008b 23       		.byte	0x23
ARM GAS  G:\Users\Jaxb\AppData\Local\Temp\ccbV8Tbs.s 			page 102


 4224 008c 00       		.uleb128 0
 4225 008d 06       		.uleb128 0x6
 4226 008e 0A040000 		.4byte	.LASF10
 4227 0092 03       		.byte	0x3
 4228 0093 10       		.byte	0x10
 4229 0094 AF000000 		.4byte	0xaf
 4230 0098 02       		.byte	0x2
 4231 0099 23       		.byte	0x23
 4232 009a 04       		.uleb128 0x4
 4233 009b 06       		.uleb128 0x6
 4234 009c 11050000 		.4byte	.LASF11
 4235 00a0 03       		.byte	0x3
 4236 00a1 11       		.byte	0x11
 4237 00a2 5A000000 		.4byte	0x5a
 4238 00a6 02       		.byte	0x2
 4239 00a7 23       		.byte	0x23
 4240 00a8 08       		.uleb128 0x8
 4241 00a9 00       		.byte	0
 4242 00aa 07       		.uleb128 0x7
 4243 00ab 73000000 		.4byte	0x73
 4244 00af 08       		.uleb128 0x8
 4245 00b0 04       		.byte	0x4
 4246 00b1 09       		.uleb128 0x9
 4247 00b2 04       		.byte	0x4
 4248 00b3 AA000000 		.4byte	0xaa
 4249 00b7 02       		.uleb128 0x2
 4250 00b8 01       		.byte	0x1
 4251 00b9 08       		.byte	0x8
 4252 00ba 3B040000 		.4byte	.LASF12
 4253 00be 07       		.uleb128 0x7
 4254 00bf B7000000 		.4byte	0xb7
 4255 00c3 0A       		.uleb128 0xa
 4256 00c4 0004     		.2byte	0x400
 4257 00c6 04       		.byte	0x4
 4258 00c7 10       		.byte	0x10
 4259 00c8 D9000000 		.4byte	0xd9
 4260 00cc 0B       		.uleb128 0xb
 4261 00cd 6100     		.ascii	"a\000"
 4262 00cf 04       		.byte	0x4
 4263 00d0 11       		.byte	0x11
 4264 00d1 D9000000 		.4byte	0xd9
 4265 00d5 02       		.byte	0x2
 4266 00d6 23       		.byte	0x23
 4267 00d7 00       		.uleb128 0
 4268 00d8 00       		.byte	0
 4269 00d9 0C       		.uleb128 0xc
 4270 00da 33000000 		.4byte	0x33
 4271 00de E9000000 		.4byte	0xe9
 4272 00e2 0D       		.uleb128 0xd
 4273 00e3 65000000 		.4byte	0x65
 4274 00e7 FF       		.byte	0xff
 4275 00e8 00       		.byte	0
 4276 00e9 04       		.uleb128 0x4
 4277 00ea 82020000 		.4byte	.LASF13
 4278 00ee 04       		.byte	0x4
 4279 00ef 12       		.byte	0x12
 4280 00f0 C3000000 		.4byte	0xc3
ARM GAS  G:\Users\Jaxb\AppData\Local\Temp\ccbV8Tbs.s 			page 103


 4281 00f4 04       		.uleb128 0x4
 4282 00f5 87030000 		.4byte	.LASF14
 4283 00f9 04       		.byte	0x4
 4284 00fa 14       		.byte	0x14
 4285 00fb 5A000000 		.4byte	0x5a
 4286 00ff 04       		.uleb128 0x4
 4287 0100 FC010000 		.4byte	.LASF15
 4288 0104 04       		.byte	0x4
 4289 0105 15       		.byte	0x15
 4290 0106 48000000 		.4byte	0x48
 4291 010a 04       		.uleb128 0x4
 4292 010b 4D020000 		.4byte	.LASF16
 4293 010f 04       		.byte	0x4
 4294 0110 16       		.byte	0x16
 4295 0111 E9000000 		.4byte	0xe9
 4296 0115 05       		.uleb128 0x5
 4297 0116 79000000 		.4byte	.LASF18
 4298 011a 14       		.byte	0x14
 4299 011b 04       		.byte	0x4
 4300 011c 19       		.byte	0x19
 4301 011d 68010000 		.4byte	0x168
 4302 0121 06       		.uleb128 0x6
 4303 0122 AA060000 		.4byte	.LASF19
 4304 0126 04       		.byte	0x4
 4305 0127 1A       		.byte	0x1a
 4306 0128 65000000 		.4byte	0x65
 4307 012c 02       		.byte	0x2
 4308 012d 23       		.byte	0x23
 4309 012e 00       		.uleb128 0
 4310 012f 06       		.uleb128 0x6
 4311 0130 97000000 		.4byte	.LASF20
 4312 0134 04       		.byte	0x4
 4313 0135 1B       		.byte	0x1b
 4314 0136 65000000 		.4byte	0x65
 4315 013a 02       		.byte	0x2
 4316 013b 23       		.byte	0x23
 4317 013c 04       		.uleb128 0x4
 4318 013d 06       		.uleb128 0x6
 4319 013e 34030000 		.4byte	.LASF21
 4320 0142 04       		.byte	0x4
 4321 0143 1C       		.byte	0x1c
 4322 0144 65000000 		.4byte	0x65
 4323 0148 02       		.byte	0x2
 4324 0149 23       		.byte	0x23
 4325 014a 08       		.uleb128 0x8
 4326 014b 06       		.uleb128 0x6
 4327 014c 1E070000 		.4byte	.LASF9
 4328 0150 04       		.byte	0x4
 4329 0151 1D       		.byte	0x1d
 4330 0152 65000000 		.4byte	0x65
 4331 0156 02       		.byte	0x2
 4332 0157 23       		.byte	0x23
 4333 0158 0C       		.uleb128 0xc
 4334 0159 06       		.uleb128 0x6
 4335 015a FC040000 		.4byte	.LASF22
 4336 015e 04       		.byte	0x4
 4337 015f 1E       		.byte	0x1e
ARM GAS  G:\Users\Jaxb\AppData\Local\Temp\ccbV8Tbs.s 			page 104


 4338 0160 65000000 		.4byte	0x65
 4339 0164 02       		.byte	0x2
 4340 0165 23       		.byte	0x23
 4341 0166 10       		.uleb128 0x10
 4342 0167 00       		.byte	0
 4343 0168 05       		.uleb128 0x5
 4344 0169 C1010000 		.4byte	.LASF23
 4345 016d 04       		.byte	0x4
 4346 016e 04       		.byte	0x4
 4347 016f 21       		.byte	0x21
 4348 0170 91010000 		.4byte	0x191
 4349 0174 0B       		.uleb128 0xb
 4350 0175 6E756D00 		.ascii	"num\000"
 4351 0179 04       		.byte	0x4
 4352 017a 22       		.byte	0x22
 4353 017b FF000000 		.4byte	0xff
 4354 017f 02       		.byte	0x2
 4355 0180 23       		.byte	0x23
 4356 0181 00       		.uleb128 0
 4357 0182 06       		.uleb128 0x6
 4358 0183 23070000 		.4byte	.LASF24
 4359 0187 04       		.byte	0x4
 4360 0188 23       		.byte	0x23
 4361 0189 FF000000 		.4byte	0xff
 4362 018d 02       		.byte	0x2
 4363 018e 23       		.byte	0x23
 4364 018f 02       		.uleb128 0x2
 4365 0190 00       		.byte	0
 4366 0191 05       		.uleb128 0x5
 4367 0192 A2040000 		.4byte	.LASF25
 4368 0196 3C       		.byte	0x3c
 4369 0197 04       		.byte	0x4
 4370 0198 39       		.byte	0x39
 4371 0199 38020000 		.4byte	0x238
 4372 019d 06       		.uleb128 0x6
 4373 019e 1D020000 		.4byte	.LASF26
 4374 01a2 04       		.byte	0x4
 4375 01a3 3A       		.byte	0x3a
 4376 01a4 3D020000 		.4byte	0x23d
 4377 01a8 02       		.byte	0x2
 4378 01a9 23       		.byte	0x23
 4379 01aa 00       		.uleb128 0
 4380 01ab 06       		.uleb128 0x6
 4381 01ac A0000000 		.4byte	.LASF27
 4382 01b0 04       		.byte	0x4
 4383 01b1 3B       		.byte	0x3b
 4384 01b2 43020000 		.4byte	0x243
 4385 01b6 02       		.byte	0x2
 4386 01b7 23       		.byte	0x23
 4387 01b8 04       		.uleb128 0x4
 4388 01b9 06       		.uleb128 0x6
 4389 01ba 29000000 		.4byte	.LASF28
 4390 01be 04       		.byte	0x4
 4391 01bf 3C       		.byte	0x3c
 4392 01c0 FF000000 		.4byte	0xff
 4393 01c4 02       		.byte	0x2
 4394 01c5 23       		.byte	0x23
ARM GAS  G:\Users\Jaxb\AppData\Local\Temp\ccbV8Tbs.s 			page 105


 4395 01c6 08       		.uleb128 0x8
 4396 01c7 06       		.uleb128 0x6
 4397 01c8 B1010000 		.4byte	.LASF29
 4398 01cc 04       		.byte	0x4
 4399 01cd 3D       		.byte	0x3d
 4400 01ce 49020000 		.4byte	0x249
 4401 01d2 02       		.byte	0x2
 4402 01d3 23       		.byte	0x23
 4403 01d4 0C       		.uleb128 0xc
 4404 01d5 06       		.uleb128 0x6
 4405 01d6 F8060000 		.4byte	.LASF30
 4406 01da 04       		.byte	0x4
 4407 01db 3E       		.byte	0x3e
 4408 01dc 49020000 		.4byte	0x249
 4409 01e0 02       		.byte	0x2
 4410 01e1 23       		.byte	0x23
 4411 01e2 10       		.uleb128 0x10
 4412 01e3 06       		.uleb128 0x6
 4413 01e4 77030000 		.4byte	.LASF31
 4414 01e8 04       		.byte	0x4
 4415 01e9 3F       		.byte	0x3f
 4416 01ea 4F020000 		.4byte	0x24f
 4417 01ee 02       		.byte	0x2
 4418 01ef 23       		.byte	0x23
 4419 01f0 14       		.uleb128 0x14
 4420 01f1 06       		.uleb128 0x6
 4421 01f2 E8030000 		.4byte	.LASF32
 4422 01f6 04       		.byte	0x4
 4423 01f7 40       		.byte	0x40
 4424 01f8 65000000 		.4byte	0x65
 4425 01fc 02       		.byte	0x2
 4426 01fd 23       		.byte	0x23
 4427 01fe 18       		.uleb128 0x18
 4428 01ff 06       		.uleb128 0x6
 4429 0200 B2050000 		.4byte	.LASF33
 4430 0204 04       		.byte	0x4
 4431 0205 41       		.byte	0x41
 4432 0206 65000000 		.4byte	0x65
 4433 020a 02       		.byte	0x2
 4434 020b 23       		.byte	0x23
 4435 020c 1C       		.uleb128 0x1c
 4436 020d 06       		.uleb128 0x6
 4437 020e 30050000 		.4byte	.LASF34
 4438 0212 04       		.byte	0x4
 4439 0213 42       		.byte	0x42
 4440 0214 15010000 		.4byte	0x115
 4441 0218 02       		.byte	0x2
 4442 0219 23       		.byte	0x23
 4443 021a 20       		.uleb128 0x20
 4444 021b 06       		.uleb128 0x6
 4445 021c 23070000 		.4byte	.LASF24
 4446 0220 04       		.byte	0x4
 4447 0221 43       		.byte	0x43
 4448 0222 55020000 		.4byte	0x255
 4449 0226 02       		.byte	0x2
 4450 0227 23       		.byte	0x23
 4451 0228 34       		.uleb128 0x34
ARM GAS  G:\Users\Jaxb\AppData\Local\Temp\ccbV8Tbs.s 			page 106


 4452 0229 06       		.uleb128 0x6
 4453 022a 65050000 		.4byte	.LASF35
 4454 022e 04       		.byte	0x4
 4455 022f 44       		.byte	0x44
 4456 0230 5B020000 		.4byte	0x25b
 4457 0234 02       		.byte	0x2
 4458 0235 23       		.byte	0x23
 4459 0236 38       		.uleb128 0x38
 4460 0237 00       		.byte	0
 4461 0238 07       		.uleb128 0x7
 4462 0239 91010000 		.4byte	0x191
 4463 023d 09       		.uleb128 0x9
 4464 023e 04       		.byte	0x4
 4465 023f F4000000 		.4byte	0xf4
 4466 0243 09       		.uleb128 0x9
 4467 0244 04       		.byte	0x4
 4468 0245 68010000 		.4byte	0x168
 4469 0249 09       		.uleb128 0x9
 4470 024a 04       		.byte	0x4
 4471 024b FF000000 		.4byte	0xff
 4472 024f 09       		.uleb128 0x9
 4473 0250 04       		.byte	0x4
 4474 0251 48000000 		.4byte	0x48
 4475 0255 09       		.uleb128 0x9
 4476 0256 04       		.byte	0x4
 4477 0257 91010000 		.4byte	0x191
 4478 025b 09       		.uleb128 0x9
 4479 025c 04       		.byte	0x4
 4480 025d 0A010000 		.4byte	0x10a
 4481 0261 04       		.uleb128 0x4
 4482 0262 58040000 		.4byte	.LASF36
 4483 0266 05       		.byte	0x5
 4484 0267 04       		.byte	0x4
 4485 0268 65000000 		.4byte	0x65
 4486 026c 04       		.uleb128 0x4
 4487 026d DB060000 		.4byte	.LASF37
 4488 0271 05       		.byte	0x5
 4489 0272 06       		.byte	0x6
 4490 0273 61020000 		.4byte	0x261
 4491 0277 0E       		.uleb128 0xe
 4492 0278 35050000 		.4byte	.LASF38
 4493 027c 01       		.byte	0x1
 4494 027d 07       		.byte	0x7
 4495 027e 55020000 		.4byte	0x255
 4496 0282 05       		.byte	0x5
 4497 0283 03       		.byte	0x3
 4498 0284 04000000 		.4byte	os_buddy_ptr_head
 4499 0288 0E       		.uleb128 0xe
 4500 0289 0B030000 		.4byte	.LASF39
 4501 028d 01       		.byte	0x1
 4502 028e 08       		.byte	0x8
 4503 028f 55020000 		.4byte	0x255
 4504 0293 05       		.byte	0x5
 4505 0294 03       		.byte	0x3
 4506 0295 00000000 		.4byte	current_used_buddy_ptr
 4507 0299 0F       		.uleb128 0xf
 4508 029a 18070000 		.4byte	.LASF111
ARM GAS  G:\Users\Jaxb\AppData\Local\Temp\ccbV8Tbs.s 			page 107


 4509 029e 01       		.byte	0x1
 4510 029f 0A       		.byte	0xa
 4511 02a0 33000000 		.4byte	0x33
 4512 02a4 01       		.byte	0x1
 4513 02a5 01       		.byte	0x1
 4514 02a6 10       		.uleb128 0x10
 4515 02a7 01       		.byte	0x1
 4516 02a8 CE020000 		.4byte	.LASF52
 4517 02ac 01       		.byte	0x1
 4518 02ad 5403     		.2byte	0x354
 4519 02af 01       		.byte	0x1
 4520 02b0 C80B0000 		.4byte	.LFB48
 4521 02b4 88100000 		.4byte	.LFE48
 4522 02b8 00000000 		.4byte	.LLST121
 4523 02bc 01       		.byte	0x1
 4524 02bd E5070000 		.4byte	0x7e5
 4525 02c1 11       		.uleb128 0x11
 4526 02c2 C1020000 		.4byte	.LASF40
 4527 02c6 01       		.byte	0x1
 4528 02c7 5403     		.2byte	0x354
 4529 02c9 33000000 		.4byte	0x33
 4530 02cd 52000000 		.4byte	.LLST122
 4531 02d1 11       		.uleb128 0x11
 4532 02d2 0A020000 		.4byte	.LASF41
 4533 02d6 01       		.byte	0x1
 4534 02d7 5403     		.2byte	0x354
 4535 02d9 E5070000 		.4byte	0x7e5
 4536 02dd 8C000000 		.4byte	.LLST123
 4537 02e1 12       		.uleb128 0x12
 4538 02e2 6900     		.ascii	"i\000"
 4539 02e4 01       		.byte	0x1
 4540 02e5 5803     		.2byte	0x358
 4541 02e7 65000000 		.4byte	0x65
 4542 02eb C6000000 		.4byte	.LLST124
 4543 02ef 12       		.uleb128 0x12
 4544 02f0 6A00     		.ascii	"j\000"
 4545 02f2 01       		.byte	0x1
 4546 02f3 5903     		.2byte	0x359
 4547 02f5 65000000 		.4byte	0x65
 4548 02f9 21010000 		.4byte	.LLST125
 4549 02fd 13       		.uleb128 0x13
 4550 02fe 6F040000 		.4byte	.LASF42
 4551 0302 01       		.byte	0x1
 4552 0303 5A03     		.2byte	0x35a
 4553 0305 68010000 		.4byte	0x168
 4554 0309 59010000 		.4byte	.LLST126
 4555 030d 13       		.uleb128 0x13
 4556 030e D1060000 		.4byte	.LASF43
 4557 0312 01       		.byte	0x1
 4558 0313 5B03     		.2byte	0x35b
 4559 0315 55020000 		.4byte	0x255
 4560 0319 AF010000 		.4byte	.LLST127
 4561 031d 14       		.uleb128 0x14
 4562 031e E11D0000 		.4byte	0x1de1
 4563 0322 CC0B0000 		.4byte	.LBB177
 4564 0326 68010000 		.4byte	.Ldebug_ranges0+0x168
 4565 032a 01       		.byte	0x1
ARM GAS  G:\Users\Jaxb\AppData\Local\Temp\ccbV8Tbs.s 			page 108


 4566 032b 5B03     		.2byte	0x35b
 4567 032d 15       		.uleb128 0x15
 4568 032e 941D0000 		.4byte	0x1d94
 4569 0332 FA0B0000 		.4byte	.LBB181
 4570 0336 080C0000 		.4byte	.LBE181
 4571 033a 01       		.byte	0x1
 4572 033b 6303     		.2byte	0x363
 4573 033d 68030000 		.4byte	0x368
 4574 0341 16       		.uleb128 0x16
 4575 0342 FA0B0000 		.4byte	.LBB182
 4576 0346 080C0000 		.4byte	.LBE182
 4577 034a 17       		.uleb128 0x17
 4578 034b 521E0000 		.4byte	0x1e52
 4579 034f 17       		.uleb128 0x17
 4580 0350 5B1E0000 		.4byte	0x1e5b
 4581 0354 18       		.uleb128 0x18
 4582 0355 FE0B0000 		.4byte	.LVL383
 4583 0359 961E0000 		.4byte	0x1e96
 4584 035d 18       		.uleb128 0x18
 4585 035e 080C0000 		.4byte	.LVL385
 4586 0362 A31E0000 		.4byte	0x1ea3
 4587 0366 00       		.byte	0
 4588 0367 00       		.byte	0
 4589 0368 15       		.uleb128 0x15
 4590 0369 941D0000 		.4byte	0x1d94
 4591 036d 1C0C0000 		.4byte	.LBB183
 4592 0371 2A0C0000 		.4byte	.LBE183
 4593 0375 01       		.byte	0x1
 4594 0376 6503     		.2byte	0x365
 4595 0378 A3030000 		.4byte	0x3a3
 4596 037c 16       		.uleb128 0x16
 4597 037d 1C0C0000 		.4byte	.LBB184
 4598 0381 2A0C0000 		.4byte	.LBE184
 4599 0385 17       		.uleb128 0x17
 4600 0386 521E0000 		.4byte	0x1e52
 4601 038a 17       		.uleb128 0x17
 4602 038b 5B1E0000 		.4byte	0x1e5b
 4603 038f 18       		.uleb128 0x18
 4604 0390 200C0000 		.4byte	.LVL388
 4605 0394 961E0000 		.4byte	0x1e96
 4606 0398 18       		.uleb128 0x18
 4607 0399 2A0C0000 		.4byte	.LVL390
 4608 039d A31E0000 		.4byte	0x1ea3
 4609 03a1 00       		.byte	0
 4610 03a2 00       		.byte	0
 4611 03a3 19       		.uleb128 0x19
 4612 03a4 F1070000 		.4byte	0x7f1
 4613 03a8 060D0000 		.4byte	.LBB185
 4614 03ac 80010000 		.4byte	.Ldebug_ranges0+0x180
 4615 03b0 01       		.byte	0x1
 4616 03b1 8D03     		.2byte	0x38d
 4617 03b3 93050000 		.4byte	0x593
 4618 03b7 1A       		.uleb128 0x1a
 4619 03b8 80010000 		.4byte	.Ldebug_ranges0+0x180
 4620 03bc 1B       		.uleb128 0x1b
 4621 03bd 03080000 		.4byte	0x803
 4622 03c1 E6010000 		.4byte	.LLST128
ARM GAS  G:\Users\Jaxb\AppData\Local\Temp\ccbV8Tbs.s 			page 109


 4623 03c5 1B       		.uleb128 0x1b
 4624 03c6 0D080000 		.4byte	0x80d
 4625 03ca 34020000 		.4byte	.LLST129
 4626 03ce 1C       		.uleb128 0x1c
 4627 03cf 17080000 		.4byte	0x817
 4628 03d3 A8010000 		.4byte	.Ldebug_ranges0+0x1a8
 4629 03d7 EF040000 		.4byte	0x4ef
 4630 03db 17       		.uleb128 0x17
 4631 03dc 18080000 		.4byte	0x818
 4632 03e0 19       		.uleb128 0x19
 4633 03e1 A8080000 		.4byte	0x8a8
 4634 03e5 180D0000 		.4byte	.LBB188
 4635 03e9 D8010000 		.4byte	.Ldebug_ranges0+0x1d8
 4636 03ed 01       		.byte	0x1
 4637 03ee 4403     		.2byte	0x344
 4638 03f0 5C040000 		.4byte	0x45c
 4639 03f4 1D       		.uleb128 0x1d
 4640 03f5 C6080000 		.4byte	0x8c6
 4641 03f9 98020000 		.4byte	.LLST130
 4642 03fd 1E       		.uleb128 0x1e
 4643 03fe BA080000 		.4byte	0x8ba
 4644 0402 1A       		.uleb128 0x1a
 4645 0403 D8010000 		.4byte	.Ldebug_ranges0+0x1d8
 4646 0407 1B       		.uleb128 0x1b
 4647 0408 D2080000 		.4byte	0x8d2
 4648 040c C2020000 		.4byte	.LLST131
 4649 0410 1B       		.uleb128 0x1b
 4650 0411 DE080000 		.4byte	0x8de
 4651 0415 05030000 		.4byte	.LLST132
 4652 0419 1B       		.uleb128 0x1b
 4653 041a EA080000 		.4byte	0x8ea
 4654 041e 2E030000 		.4byte	.LLST133
 4655 0422 1F       		.uleb128 0x1f
 4656 0423 A20F0000 		.4byte	.LVL467
 4657 0427 B01E0000 		.4byte	0x1eb0
 4658 042b 40040000 		.4byte	0x440
 4659 042f 20       		.uleb128 0x20
 4660 0430 01       		.byte	0x1
 4661 0431 50       		.byte	0x50
 4662 0432 05       		.byte	0x5
 4663 0433 03       		.byte	0x3
 4664 0434 00000000 		.4byte	.LC0
 4665 0438 20       		.uleb128 0x20
 4666 0439 01       		.byte	0x1
 4667 043a 51       		.byte	0x51
 4668 043b 03       		.byte	0x3
 4669 043c 0A       		.byte	0xa
 4670 043d B702     		.2byte	0x2b7
 4671 043f 00       		.byte	0
 4672 0440 21       		.uleb128 0x21
 4673 0441 C40F0000 		.4byte	.LVL469
 4674 0445 B01E0000 		.4byte	0x1eb0
 4675 0449 20       		.uleb128 0x20
 4676 044a 01       		.byte	0x1
 4677 044b 50       		.byte	0x50
 4678 044c 05       		.byte	0x5
 4679 044d 03       		.byte	0x3
ARM GAS  G:\Users\Jaxb\AppData\Local\Temp\ccbV8Tbs.s 			page 110


 4680 044e 00000000 		.4byte	.LC0
 4681 0452 20       		.uleb128 0x20
 4682 0453 01       		.byte	0x1
 4683 0454 51       		.byte	0x51
 4684 0455 03       		.byte	0x3
 4685 0456 0A       		.byte	0xa
 4686 0457 B802     		.2byte	0x2b8
 4687 0459 00       		.byte	0
 4688 045a 00       		.byte	0
 4689 045b 00       		.byte	0
 4690 045c 19       		.uleb128 0x19
 4691 045d 67080000 		.4byte	0x867
 4692 0461 080E0000 		.4byte	.LBB196
 4693 0465 18020000 		.4byte	.Ldebug_ranges0+0x218
 4694 0469 01       		.byte	0x1
 4695 046a 4303     		.2byte	0x343
 4696 046c CF040000 		.4byte	0x4cf
 4697 0470 1D       		.uleb128 0x1d
 4698 0471 85080000 		.4byte	0x885
 4699 0475 95030000 		.4byte	.LLST134
 4700 0479 1E       		.uleb128 0x1e
 4701 047a 79080000 		.4byte	0x879
 4702 047e 1A       		.uleb128 0x1a
 4703 047f 18020000 		.4byte	.Ldebug_ranges0+0x218
 4704 0483 1B       		.uleb128 0x1b
 4705 0484 91080000 		.4byte	0x891
 4706 0488 BB030000 		.4byte	.LLST135
 4707 048c 1B       		.uleb128 0x1b
 4708 048d 9D080000 		.4byte	0x89d
 4709 0491 D9030000 		.4byte	.LLST136
 4710 0495 1F       		.uleb128 0x1f
 4711 0496 720E0000 		.4byte	.LVL446
 4712 049a B01E0000 		.4byte	0x1eb0
 4713 049e B3040000 		.4byte	0x4b3
 4714 04a2 20       		.uleb128 0x20
 4715 04a3 01       		.byte	0x1
 4716 04a4 50       		.byte	0x50
 4717 04a5 05       		.byte	0x5
 4718 04a6 03       		.byte	0x3
 4719 04a7 00000000 		.4byte	.LC0
 4720 04ab 20       		.uleb128 0x20
 4721 04ac 01       		.byte	0x1
 4722 04ad 51       		.byte	0x51
 4723 04ae 03       		.byte	0x3
 4724 04af 0A       		.byte	0xa
 4725 04b0 EB02     		.2byte	0x2eb
 4726 04b2 00       		.byte	0
 4727 04b3 21       		.uleb128 0x21
 4728 04b4 D80F0000 		.4byte	.LVL471
 4729 04b8 B01E0000 		.4byte	0x1eb0
 4730 04bc 20       		.uleb128 0x20
 4731 04bd 01       		.byte	0x1
 4732 04be 50       		.byte	0x50
 4733 04bf 05       		.byte	0x5
 4734 04c0 03       		.byte	0x3
 4735 04c1 00000000 		.4byte	.LC0
 4736 04c5 20       		.uleb128 0x20
ARM GAS  G:\Users\Jaxb\AppData\Local\Temp\ccbV8Tbs.s 			page 111


 4737 04c6 01       		.byte	0x1
 4738 04c7 51       		.byte	0x51
 4739 04c8 03       		.byte	0x3
 4740 04c9 0A       		.byte	0xa
 4741 04ca E202     		.2byte	0x2e2
 4742 04cc 00       		.byte	0
 4743 04cd 00       		.byte	0
 4744 04ce 00       		.byte	0
 4745 04cf 21       		.uleb128 0x21
 4746 04d0 FE0E0000 		.4byte	.LVL458
 4747 04d4 BD1E0000 		.4byte	0x1ebd
 4748 04d8 20       		.uleb128 0x20
 4749 04d9 01       		.byte	0x1
 4750 04da 50       		.byte	0x50
 4751 04db 05       		.byte	0x5
 4752 04dc 03       		.byte	0x3
 4753 04dd 0C020000 		.4byte	.LC19
 4754 04e1 20       		.uleb128 0x20
 4755 04e2 01       		.byte	0x1
 4756 04e3 51       		.byte	0x51
 4757 04e4 02       		.byte	0x2
 4758 04e5 79       		.byte	0x79
 4759 04e6 00       		.sleb128 0
 4760 04e7 20       		.uleb128 0x20
 4761 04e8 01       		.byte	0x1
 4762 04e9 52       		.byte	0x52
 4763 04ea 02       		.byte	0x2
 4764 04eb 77       		.byte	0x77
 4765 04ec 00       		.sleb128 0
 4766 04ed 00       		.byte	0
 4767 04ee 00       		.byte	0
 4768 04ef 19       		.uleb128 0x19
 4769 04f0 26080000 		.4byte	0x826
 4770 04f4 480D0000 		.4byte	.LBB208
 4771 04f8 38020000 		.4byte	.Ldebug_ranges0+0x238
 4772 04fc 01       		.byte	0x1
 4773 04fd 5103     		.2byte	0x351
 4774 04ff 50050000 		.4byte	0x550
 4775 0503 1A       		.uleb128 0x1a
 4776 0504 38020000 		.4byte	.Ldebug_ranges0+0x238
 4777 0508 1B       		.uleb128 0x1b
 4778 0509 38080000 		.4byte	0x838
 4779 050d F8030000 		.4byte	.LLST137
 4780 0511 17       		.uleb128 0x17
 4781 0512 42080000 		.4byte	0x842
 4782 0516 1B       		.uleb128 0x1b
 4783 0517 4E080000 		.4byte	0x84e
 4784 051b 19040000 		.4byte	.LLST138
 4785 051f 17       		.uleb128 0x17
 4786 0520 5A080000 		.4byte	0x85a
 4787 0524 1F       		.uleb128 0x1f
 4788 0525 30100000 		.4byte	.LVL477
 4789 0529 BD1E0000 		.4byte	0x1ebd
 4790 052d 3B050000 		.4byte	0x53b
 4791 0531 20       		.uleb128 0x20
 4792 0532 01       		.byte	0x1
 4793 0533 50       		.byte	0x50
ARM GAS  G:\Users\Jaxb\AppData\Local\Temp\ccbV8Tbs.s 			page 112


 4794 0534 05       		.byte	0x5
 4795 0535 03       		.byte	0x3
 4796 0536 A8020000 		.4byte	.LC22
 4797 053a 00       		.byte	0
 4798 053b 21       		.uleb128 0x21
 4799 053c 52100000 		.4byte	.LVL482
 4800 0540 BD1E0000 		.4byte	0x1ebd
 4801 0544 20       		.uleb128 0x20
 4802 0545 01       		.byte	0x1
 4803 0546 50       		.byte	0x50
 4804 0547 05       		.byte	0x5
 4805 0548 03       		.byte	0x3
 4806 0549 A8020000 		.4byte	.LC22
 4807 054d 00       		.byte	0
 4808 054e 00       		.byte	0
 4809 054f 00       		.byte	0
 4810 0550 1F       		.uleb128 0x1f
 4811 0551 0C0D0000 		.4byte	.LVL413
 4812 0555 BD1E0000 		.4byte	0x1ebd
 4813 0559 67050000 		.4byte	0x567
 4814 055d 20       		.uleb128 0x20
 4815 055e 01       		.byte	0x1
 4816 055f 50       		.byte	0x50
 4817 0560 05       		.byte	0x5
 4818 0561 03       		.byte	0x3
 4819 0562 D8010000 		.4byte	.LC18
 4820 0566 00       		.byte	0
 4821 0567 1F       		.uleb128 0x1f
 4822 0568 420D0000 		.4byte	.LVL417
 4823 056c BD1E0000 		.4byte	0x1ebd
 4824 0570 7E050000 		.4byte	0x57e
 4825 0574 20       		.uleb128 0x20
 4826 0575 01       		.byte	0x1
 4827 0576 50       		.byte	0x50
 4828 0577 05       		.byte	0x5
 4829 0578 03       		.byte	0x3
 4830 0579 24020000 		.4byte	.LC20
 4831 057d 00       		.byte	0
 4832 057e 21       		.uleb128 0x21
 4833 057f 480D0000 		.4byte	.LVL418
 4834 0583 BD1E0000 		.4byte	0x1ebd
 4835 0587 20       		.uleb128 0x20
 4836 0588 01       		.byte	0x1
 4837 0589 50       		.byte	0x50
 4838 058a 05       		.byte	0x5
 4839 058b 03       		.byte	0x3
 4840 058c 74020000 		.4byte	.LC21
 4841 0590 00       		.byte	0
 4842 0591 00       		.byte	0
 4843 0592 00       		.byte	0
 4844 0593 19       		.uleb128 0x19
 4845 0594 BD1D0000 		.4byte	0x1dbd
 4846 0598 E60D0000 		.4byte	.LBB221
 4847 059c 58020000 		.4byte	.Ldebug_ranges0+0x258
 4848 05a0 01       		.byte	0x1
 4849 05a1 9603     		.2byte	0x396
 4850 05a3 B1050000 		.4byte	0x5b1
ARM GAS  G:\Users\Jaxb\AppData\Local\Temp\ccbV8Tbs.s 			page 113


 4851 05a7 1D       		.uleb128 0x1d
 4852 05a8 CF1D0000 		.4byte	0x1dcf
 4853 05ac BF040000 		.4byte	.LLST139
 4854 05b0 00       		.byte	0
 4855 05b1 1F       		.uleb128 0x1f
 4856 05b2 EE0B0000 		.4byte	.LVL380
 4857 05b6 BD1E0000 		.4byte	0x1ebd
 4858 05ba CF050000 		.4byte	0x5cf
 4859 05be 20       		.uleb128 0x20
 4860 05bf 01       		.byte	0x1
 4861 05c0 50       		.byte	0x50
 4862 05c1 05       		.byte	0x5
 4863 05c2 03       		.byte	0x3
 4864 05c3 54000000 		.4byte	.LC3
 4865 05c7 20       		.uleb128 0x20
 4866 05c8 01       		.byte	0x1
 4867 05c9 51       		.byte	0x51
 4868 05ca 03       		.byte	0x3
 4869 05cb 91       		.byte	0x91
 4870 05cc 54       		.sleb128 -44
 4871 05cd 06       		.byte	0x6
 4872 05ce 00       		.byte	0
 4873 05cf 1F       		.uleb128 0x1f
 4874 05d0 F40B0000 		.4byte	.LVL381
 4875 05d4 BD1E0000 		.4byte	0x1ebd
 4876 05d8 E6050000 		.4byte	0x5e6
 4877 05dc 20       		.uleb128 0x20
 4878 05dd 01       		.byte	0x1
 4879 05de 50       		.byte	0x50
 4880 05df 05       		.byte	0x5
 4881 05e0 03       		.byte	0x3
 4882 05e1 68000000 		.4byte	.LC4
 4883 05e5 00       		.byte	0
 4884 05e6 1F       		.uleb128 0x1f
 4885 05e7 FA0B0000 		.4byte	.LVL382
 4886 05eb BD1E0000 		.4byte	0x1ebd
 4887 05ef FD050000 		.4byte	0x5fd
 4888 05f3 20       		.uleb128 0x20
 4889 05f4 01       		.byte	0x1
 4890 05f5 50       		.byte	0x50
 4891 05f6 05       		.byte	0x5
 4892 05f7 03       		.byte	0x3
 4893 05f8 A0000000 		.4byte	.LC5
 4894 05fc 00       		.byte	0
 4895 05fd 1F       		.uleb128 0x1f
 4896 05fe 100C0000 		.4byte	.LVL386
 4897 0602 BD1E0000 		.4byte	0x1ebd
 4898 0606 1A060000 		.4byte	0x61a
 4899 060a 20       		.uleb128 0x20
 4900 060b 01       		.byte	0x1
 4901 060c 50       		.byte	0x50
 4902 060d 05       		.byte	0x5
 4903 060e 03       		.byte	0x3
 4904 060f DC000000 		.4byte	.LC6
 4905 0613 20       		.uleb128 0x20
 4906 0614 01       		.byte	0x1
 4907 0615 51       		.byte	0x51
ARM GAS  G:\Users\Jaxb\AppData\Local\Temp\ccbV8Tbs.s 			page 114


 4908 0616 02       		.byte	0x2
 4909 0617 74       		.byte	0x74
 4910 0618 00       		.sleb128 0
 4911 0619 00       		.byte	0
 4912 061a 1F       		.uleb128 0x1f
 4913 061b 1C0C0000 		.4byte	.LVL387
 4914 061f BD1E0000 		.4byte	0x1ebd
 4915 0623 31060000 		.4byte	0x631
 4916 0627 20       		.uleb128 0x20
 4917 0628 01       		.byte	0x1
 4918 0629 50       		.byte	0x50
 4919 062a 05       		.byte	0x5
 4920 062b 03       		.byte	0x3
 4921 062c F4000000 		.4byte	.LC7
 4922 0630 00       		.byte	0
 4923 0631 1F       		.uleb128 0x1f
 4924 0632 400C0000 		.4byte	.LVL391
 4925 0636 BD1E0000 		.4byte	0x1ebd
 4926 063a 48060000 		.4byte	0x648
 4927 063e 20       		.uleb128 0x20
 4928 063f 01       		.byte	0x1
 4929 0640 50       		.byte	0x50
 4930 0641 05       		.byte	0x5
 4931 0642 03       		.byte	0x3
 4932 0643 10010000 		.4byte	.LC8
 4933 0647 00       		.byte	0
 4934 0648 1F       		.uleb128 0x1f
 4935 0649 460C0000 		.4byte	.LVL392
 4936 064d BD1E0000 		.4byte	0x1ebd
 4937 0651 5F060000 		.4byte	0x65f
 4938 0655 20       		.uleb128 0x20
 4939 0656 01       		.byte	0x1
 4940 0657 50       		.byte	0x50
 4941 0658 05       		.byte	0x5
 4942 0659 03       		.byte	0x3
 4943 065a 68000000 		.4byte	.LC4
 4944 065e 00       		.byte	0
 4945 065f 1F       		.uleb128 0x1f
 4946 0660 4C0C0000 		.4byte	.LVL393
 4947 0664 BD1E0000 		.4byte	0x1ebd
 4948 0668 76060000 		.4byte	0x676
 4949 066c 20       		.uleb128 0x20
 4950 066d 01       		.byte	0x1
 4951 066e 50       		.byte	0x50
 4952 066f 05       		.byte	0x5
 4953 0670 03       		.byte	0x3
 4954 0671 2C010000 		.4byte	.LC9
 4955 0675 00       		.byte	0
 4956 0676 1F       		.uleb128 0x1f
 4957 0677 660C0000 		.4byte	.LVL395
 4958 067b BD1E0000 		.4byte	0x1ebd
 4959 067f 98060000 		.4byte	0x698
 4960 0683 20       		.uleb128 0x20
 4961 0684 01       		.byte	0x1
 4962 0685 50       		.byte	0x50
 4963 0686 02       		.byte	0x2
 4964 0687 77       		.byte	0x77
ARM GAS  G:\Users\Jaxb\AppData\Local\Temp\ccbV8Tbs.s 			page 115


 4965 0688 00       		.sleb128 0
 4966 0689 20       		.uleb128 0x20
 4967 068a 01       		.byte	0x1
 4968 068b 51       		.byte	0x51
 4969 068c 04       		.byte	0x4
 4970 068d 74       		.byte	0x74
 4971 068e 00       		.sleb128 0
 4972 068f 35       		.byte	0x35
 4973 0690 24       		.byte	0x24
 4974 0691 20       		.uleb128 0x20
 4975 0692 01       		.byte	0x1
 4976 0693 52       		.byte	0x52
 4977 0694 02       		.byte	0x2
 4978 0695 75       		.byte	0x75
 4979 0696 00       		.sleb128 0
 4980 0697 00       		.byte	0
 4981 0698 1F       		.uleb128 0x1f
 4982 0699 780C0000 		.4byte	.LVL396
 4983 069d BD1E0000 		.4byte	0x1ebd
 4984 06a1 AC060000 		.4byte	0x6ac
 4985 06a5 20       		.uleb128 0x20
 4986 06a6 01       		.byte	0x1
 4987 06a7 50       		.byte	0x50
 4988 06a8 02       		.byte	0x2
 4989 06a9 76       		.byte	0x76
 4990 06aa 00       		.sleb128 0
 4991 06ab 00       		.byte	0
 4992 06ac 1F       		.uleb128 0x1f
 4993 06ad 8E0C0000 		.4byte	.LVL399
 4994 06b1 BD1E0000 		.4byte	0x1ebd
 4995 06b5 C3060000 		.4byte	0x6c3
 4996 06b9 20       		.uleb128 0x20
 4997 06ba 01       		.byte	0x1
 4998 06bb 50       		.byte	0x50
 4999 06bc 05       		.byte	0x5
 5000 06bd 03       		.byte	0x3
 5001 06be 68000000 		.4byte	.LC4
 5002 06c2 00       		.byte	0
 5003 06c3 1F       		.uleb128 0x1f
 5004 06c4 940C0000 		.4byte	.LVL400
 5005 06c8 BD1E0000 		.4byte	0x1ebd
 5006 06cc DA060000 		.4byte	0x6da
 5007 06d0 20       		.uleb128 0x20
 5008 06d1 01       		.byte	0x1
 5009 06d2 50       		.byte	0x50
 5010 06d3 05       		.byte	0x5
 5011 06d4 03       		.byte	0x3
 5012 06d5 5C010000 		.4byte	.LC12
 5013 06d9 00       		.byte	0
 5014 06da 1F       		.uleb128 0x1f
 5015 06db B20C0000 		.4byte	.LVL403
 5016 06df BD1E0000 		.4byte	0x1ebd
 5017 06e3 F4060000 		.4byte	0x6f4
 5018 06e7 20       		.uleb128 0x20
 5019 06e8 01       		.byte	0x1
 5020 06e9 50       		.byte	0x50
 5021 06ea 02       		.byte	0x2
ARM GAS  G:\Users\Jaxb\AppData\Local\Temp\ccbV8Tbs.s 			page 116


 5022 06eb 77       		.byte	0x77
 5023 06ec 00       		.sleb128 0
 5024 06ed 20       		.uleb128 0x20
 5025 06ee 01       		.byte	0x1
 5026 06ef 51       		.byte	0x51
 5027 06f0 02       		.byte	0x2
 5028 06f1 75       		.byte	0x75
 5029 06f2 00       		.sleb128 0
 5030 06f3 00       		.byte	0
 5031 06f4 1F       		.uleb128 0x1f
 5032 06f5 E40C0000 		.4byte	.LVL408
 5033 06f9 BD1E0000 		.4byte	0x1ebd
 5034 06fd 0B070000 		.4byte	0x70b
 5035 0701 20       		.uleb128 0x20
 5036 0702 01       		.byte	0x1
 5037 0703 50       		.byte	0x50
 5038 0704 05       		.byte	0x5
 5039 0705 03       		.byte	0x3
 5040 0706 98010000 		.4byte	.LC15
 5041 070a 00       		.byte	0
 5042 070b 1F       		.uleb128 0x1f
 5043 070c EE0C0000 		.4byte	.LVL409
 5044 0710 BD1E0000 		.4byte	0x1ebd
 5045 0714 1F070000 		.4byte	0x71f
 5046 0718 20       		.uleb128 0x20
 5047 0719 01       		.byte	0x1
 5048 071a 50       		.byte	0x50
 5049 071b 02       		.byte	0x2
 5050 071c 78       		.byte	0x78
 5051 071d 00       		.sleb128 0
 5052 071e 00       		.byte	0
 5053 071f 1F       		.uleb128 0x1f
 5054 0720 000D0000 		.4byte	.LVL411
 5055 0724 BD1E0000 		.4byte	0x1ebd
 5056 0728 36070000 		.4byte	0x736
 5057 072c 20       		.uleb128 0x20
 5058 072d 01       		.byte	0x1
 5059 072e 50       		.byte	0x50
 5060 072f 05       		.byte	0x5
 5061 0730 03       		.byte	0x3
 5062 0731 68000000 		.4byte	.LC4
 5063 0735 00       		.byte	0
 5064 0736 1F       		.uleb128 0x1f
 5065 0737 060D0000 		.4byte	.LVL412
 5066 073b BD1E0000 		.4byte	0x1ebd
 5067 073f 4D070000 		.4byte	0x74d
 5068 0743 20       		.uleb128 0x20
 5069 0744 01       		.byte	0x1
 5070 0745 50       		.byte	0x50
 5071 0746 05       		.byte	0x5
 5072 0747 03       		.byte	0x3
 5073 0748 AC010000 		.4byte	.LC17
 5074 074c 00       		.byte	0
 5075 074d 1F       		.uleb128 0x1f
 5076 074e E00D0000 		.4byte	.LVL428
 5077 0752 BD1E0000 		.4byte	0x1ebd
 5078 0756 64070000 		.4byte	0x764
ARM GAS  G:\Users\Jaxb\AppData\Local\Temp\ccbV8Tbs.s 			page 117


 5079 075a 20       		.uleb128 0x20
 5080 075b 01       		.byte	0x1
 5081 075c 50       		.byte	0x50
 5082 075d 05       		.byte	0x5
 5083 075e 03       		.byte	0x3
 5084 075f C4020000 		.4byte	.LC23
 5085 0763 00       		.byte	0
 5086 0764 1F       		.uleb128 0x1f
 5087 0765 E60D0000 		.4byte	.LVL429
 5088 0769 BD1E0000 		.4byte	0x1ebd
 5089 076d 7B070000 		.4byte	0x77b
 5090 0771 20       		.uleb128 0x20
 5091 0772 01       		.byte	0x1
 5092 0773 50       		.byte	0x50
 5093 0774 05       		.byte	0x5
 5094 0775 03       		.byte	0x3
 5095 0776 E4020000 		.4byte	.LC25
 5096 077a 00       		.byte	0
 5097 077b 1F       		.uleb128 0x1f
 5098 077c 060E0000 		.4byte	.LVL434
 5099 0780 BD1E0000 		.4byte	0x1ebd
 5100 0784 92070000 		.4byte	0x792
 5101 0788 20       		.uleb128 0x20
 5102 0789 01       		.byte	0x1
 5103 078a 50       		.byte	0x50
 5104 078b 05       		.byte	0x5
 5105 078c 03       		.byte	0x3
 5106 078d 88010000 		.4byte	.LC14
 5107 0791 00       		.byte	0
 5108 0792 1F       		.uleb128 0x1f
 5109 0793 040F0000 		.4byte	.LVL459
 5110 0797 BD1E0000 		.4byte	0x1ebd
 5111 079b A9070000 		.4byte	0x7a9
 5112 079f 20       		.uleb128 0x20
 5113 07a0 01       		.byte	0x1
 5114 07a1 50       		.byte	0x50
 5115 07a2 05       		.byte	0x5
 5116 07a3 03       		.byte	0x3
 5117 07a4 D0020000 		.4byte	.LC24
 5118 07a8 00       		.byte	0
 5119 07a9 1F       		.uleb128 0x1f
 5120 07aa 40100000 		.4byte	.LVL480
 5121 07ae BD1E0000 		.4byte	0x1ebd
 5122 07b2 C0070000 		.4byte	0x7c0
 5123 07b6 20       		.uleb128 0x20
 5124 07b7 01       		.byte	0x1
 5125 07b8 50       		.byte	0x50
 5126 07b9 05       		.byte	0x5
 5127 07ba 03       		.byte	0x3
 5128 07bb E8020000 		.4byte	.LC26
 5129 07bf 00       		.byte	0
 5130 07c0 22       		.uleb128 0x22
 5131 07c1 4A100000 		.4byte	.LVL481
 5132 07c5 01       		.byte	0x1
 5133 07c6 CA1E0000 		.4byte	0x1eca
 5134 07ca 21       		.uleb128 0x21
 5135 07cb 7A100000 		.4byte	.LVL487
ARM GAS  G:\Users\Jaxb\AppData\Local\Temp\ccbV8Tbs.s 			page 118


 5136 07cf B01E0000 		.4byte	0x1eb0
 5137 07d3 20       		.uleb128 0x20
 5138 07d4 01       		.byte	0x1
 5139 07d5 50       		.byte	0x50
 5140 07d6 05       		.byte	0x5
 5141 07d7 03       		.byte	0x3
 5142 07d8 00000000 		.4byte	.LC0
 5143 07dc 20       		.uleb128 0x20
 5144 07dd 01       		.byte	0x1
 5145 07de 51       		.byte	0x51
 5146 07df 03       		.byte	0x3
 5147 07e0 0A       		.byte	0xa
 5148 07e1 5C03     		.2byte	0x35c
 5149 07e3 00       		.byte	0
 5150 07e4 00       		.byte	0
 5151 07e5 09       		.uleb128 0x9
 5152 07e6 04       		.byte	0x4
 5153 07e7 EB070000 		.4byte	0x7eb
 5154 07eb 09       		.uleb128 0x9
 5155 07ec 04       		.byte	0x4
 5156 07ed BE000000 		.4byte	0xbe
 5157 07f1 23       		.uleb128 0x23
 5158 07f2 63040000 		.4byte	.LASF45
 5159 07f6 01       		.byte	0x1
 5160 07f7 3703     		.2byte	0x337
 5161 07f9 01       		.byte	0x1
 5162 07fa 33000000 		.4byte	0x33
 5163 07fe 01       		.byte	0x1
 5164 07ff 26080000 		.4byte	0x826
 5165 0803 24       		.uleb128 0x24
 5166 0804 6900     		.ascii	"i\000"
 5167 0806 01       		.byte	0x1
 5168 0807 3903     		.2byte	0x339
 5169 0809 65000000 		.4byte	0x65
 5170 080d 24       		.uleb128 0x24
 5171 080e 6A00     		.ascii	"j\000"
 5172 0810 01       		.byte	0x1
 5173 0811 3903     		.2byte	0x339
 5174 0813 65000000 		.4byte	0x65
 5175 0817 25       		.uleb128 0x25
 5176 0818 26       		.uleb128 0x26
 5177 0819 9C040000 		.4byte	.LASF44
 5178 081d 01       		.byte	0x1
 5179 081e 4303     		.2byte	0x343
 5180 0820 65000000 		.4byte	0x65
 5181 0824 00       		.byte	0
 5182 0825 00       		.byte	0
 5183 0826 23       		.uleb128 0x23
 5184 0827 B9060000 		.4byte	.LASF46
 5185 082b 01       		.byte	0x1
 5186 082c EF02     		.2byte	0x2ef
 5187 082e 01       		.byte	0x1
 5188 082f 33000000 		.4byte	0x33
 5189 0833 01       		.byte	0x1
 5190 0834 67080000 		.4byte	0x867
 5191 0838 24       		.uleb128 0x24
 5192 0839 6900     		.ascii	"i\000"
ARM GAS  G:\Users\Jaxb\AppData\Local\Temp\ccbV8Tbs.s 			page 119


 5193 083b 01       		.byte	0x1
 5194 083c F102     		.2byte	0x2f1
 5195 083e 65000000 		.4byte	0x65
 5196 0842 24       		.uleb128 0x24
 5197 0843 6E756D00 		.ascii	"num\000"
 5198 0847 01       		.byte	0x1
 5199 0848 F202     		.2byte	0x2f2
 5200 084a 65000000 		.4byte	0x65
 5201 084e 26       		.uleb128 0x26
 5202 084f 6F040000 		.4byte	.LASF42
 5203 0853 01       		.byte	0x1
 5204 0854 F302     		.2byte	0x2f3
 5205 0856 68010000 		.4byte	0x168
 5206 085a 26       		.uleb128 0x26
 5207 085b 46020000 		.4byte	.LASF47
 5208 085f 01       		.byte	0x1
 5209 0860 F402     		.2byte	0x2f4
 5210 0862 65000000 		.4byte	0x65
 5211 0866 00       		.byte	0
 5212 0867 23       		.uleb128 0x23
 5213 0868 34020000 		.4byte	.LASF48
 5214 086c 01       		.byte	0x1
 5215 086d DF02     		.2byte	0x2df
 5216 086f 01       		.byte	0x1
 5217 0870 65000000 		.4byte	0x65
 5218 0874 01       		.byte	0x1
 5219 0875 A8080000 		.4byte	0x8a8
 5220 0879 27       		.uleb128 0x27
 5221 087a 89010000 		.4byte	.LASF49
 5222 087e 01       		.byte	0x1
 5223 087f DF02     		.2byte	0x2df
 5224 0881 65000000 		.4byte	0x65
 5225 0885 27       		.uleb128 0x27
 5226 0886 6C000000 		.4byte	.LASF50
 5227 088a 01       		.byte	0x1
 5228 088b DF02     		.2byte	0x2df
 5229 088d 65000000 		.4byte	0x65
 5230 0891 24       		.uleb128 0x24
 5231 0892 6E756D00 		.ascii	"num\000"
 5232 0896 01       		.byte	0x1
 5233 0897 E102     		.2byte	0x2e1
 5234 0899 65000000 		.4byte	0x65
 5235 089d 24       		.uleb128 0x24
 5236 089e 6900     		.ascii	"i\000"
 5237 08a0 01       		.byte	0x1
 5238 08a1 E302     		.2byte	0x2e3
 5239 08a3 65000000 		.4byte	0x65
 5240 08a7 00       		.byte	0
 5241 08a8 23       		.uleb128 0x23
 5242 08a9 8F050000 		.4byte	.LASF51
 5243 08ad 01       		.byte	0x1
 5244 08ae B402     		.2byte	0x2b4
 5245 08b0 01       		.byte	0x1
 5246 08b1 33000000 		.4byte	0x33
 5247 08b5 01       		.byte	0x1
 5248 08b6 F7080000 		.4byte	0x8f7
 5249 08ba 27       		.uleb128 0x27
ARM GAS  G:\Users\Jaxb\AppData\Local\Temp\ccbV8Tbs.s 			page 120


 5250 08bb 9C040000 		.4byte	.LASF44
 5251 08bf 01       		.byte	0x1
 5252 08c0 B402     		.2byte	0x2b4
 5253 08c2 65000000 		.4byte	0x65
 5254 08c6 27       		.uleb128 0x27
 5255 08c7 46020000 		.4byte	.LASF47
 5256 08cb 01       		.byte	0x1
 5257 08cc B402     		.2byte	0x2b4
 5258 08ce 65000000 		.4byte	0x65
 5259 08d2 24       		.uleb128 0x24
 5260 08d3 6E756D00 		.ascii	"num\000"
 5261 08d7 01       		.byte	0x1
 5262 08d8 B902     		.2byte	0x2b9
 5263 08da 65000000 		.4byte	0x65
 5264 08de 26       		.uleb128 0x26
 5265 08df 97000000 		.4byte	.LASF20
 5266 08e3 01       		.byte	0x1
 5267 08e4 BB02     		.2byte	0x2bb
 5268 08e6 65000000 		.4byte	0x65
 5269 08ea 26       		.uleb128 0x26
 5270 08eb 6F040000 		.4byte	.LASF42
 5271 08ef 01       		.byte	0x1
 5272 08f0 C002     		.2byte	0x2c0
 5273 08f2 68010000 		.4byte	0x168
 5274 08f6 00       		.byte	0
 5275 08f7 10       		.uleb128 0x10
 5276 08f8 01       		.byte	0x1
 5277 08f9 7B050000 		.4byte	.LASF53
 5278 08fd 01       		.byte	0x1
 5279 08fe A902     		.2byte	0x2a9
 5280 0900 01       		.byte	0x1
 5281 0901 9C0B0000 		.4byte	.LFB43
 5282 0905 C80B0000 		.4byte	.LFE43
 5283 0909 D3040000 		.4byte	.LLST118
 5284 090d 01       		.byte	0x1
 5285 090e 5F090000 		.4byte	0x95f
 5286 0912 28       		.uleb128 0x28
 5287 0913 70747200 		.ascii	"ptr\000"
 5288 0917 01       		.byte	0x1
 5289 0918 A902     		.2byte	0x2a9
 5290 091a AF000000 		.4byte	0xaf
 5291 091e FF040000 		.4byte	.LLST119
 5292 0922 13       		.uleb128 0x13
 5293 0923 C3050000 		.4byte	.LASF54
 5294 0927 01       		.byte	0x1
 5295 0928 AB02     		.2byte	0x2ab
 5296 092a 6C020000 		.4byte	0x26c
 5297 092e 2B050000 		.4byte	.LLST120
 5298 0932 18       		.uleb128 0x18
 5299 0933 A40B0000 		.4byte	.LVL372
 5300 0937 961E0000 		.4byte	0x1e96
 5301 093b 1F       		.uleb128 0x1f
 5302 093c BA0B0000 		.4byte	.LVL375
 5303 0940 070D0000 		.4byte	0xd07
 5304 0944 54090000 		.4byte	0x954
 5305 0948 20       		.uleb128 0x20
 5306 0949 01       		.byte	0x1
ARM GAS  G:\Users\Jaxb\AppData\Local\Temp\ccbV8Tbs.s 			page 121


 5307 094a 50       		.byte	0x50
 5308 094b 02       		.byte	0x2
 5309 094c 75       		.byte	0x75
 5310 094d 00       		.sleb128 0
 5311 094e 20       		.uleb128 0x20
 5312 094f 01       		.byte	0x1
 5313 0950 51       		.byte	0x51
 5314 0951 01       		.byte	0x1
 5315 0952 3A       		.byte	0x3a
 5316 0953 00       		.byte	0
 5317 0954 22       		.uleb128 0x22
 5318 0955 C40B0000 		.4byte	.LVL377
 5319 0959 01       		.byte	0x1
 5320 095a A31E0000 		.4byte	0x1ea3
 5321 095e 00       		.byte	0
 5322 095f 10       		.uleb128 0x10
 5323 0960 01       		.byte	0x1
 5324 0961 16000000 		.4byte	.LASF55
 5325 0965 01       		.byte	0x1
 5326 0966 9F02     		.2byte	0x29f
 5327 0968 01       		.byte	0x1
 5328 0969 700B0000 		.4byte	.LFB42
 5329 096d 9C0B0000 		.4byte	.LFE42
 5330 0971 60050000 		.4byte	.LLST115
 5331 0975 01       		.byte	0x1
 5332 0976 C7090000 		.4byte	0x9c7
 5333 097a 28       		.uleb128 0x28
 5334 097b 70747200 		.ascii	"ptr\000"
 5335 097f 01       		.byte	0x1
 5336 0980 9F02     		.2byte	0x29f
 5337 0982 AF000000 		.4byte	0xaf
 5338 0986 8C050000 		.4byte	.LLST116
 5339 098a 13       		.uleb128 0x13
 5340 098b C3050000 		.4byte	.LASF54
 5341 098f 01       		.byte	0x1
 5342 0990 A102     		.2byte	0x2a1
 5343 0992 6C020000 		.4byte	0x26c
 5344 0996 B8050000 		.4byte	.LLST117
 5345 099a 18       		.uleb128 0x18
 5346 099b 780B0000 		.4byte	.LVL365
 5347 099f 961E0000 		.4byte	0x1e96
 5348 09a3 1F       		.uleb128 0x1f
 5349 09a4 8E0B0000 		.4byte	.LVL368
 5350 09a8 070D0000 		.4byte	0xd07
 5351 09ac BC090000 		.4byte	0x9bc
 5352 09b0 20       		.uleb128 0x20
 5353 09b1 01       		.byte	0x1
 5354 09b2 50       		.byte	0x50
 5355 09b3 02       		.byte	0x2
 5356 09b4 75       		.byte	0x75
 5357 09b5 00       		.sleb128 0
 5358 09b6 20       		.uleb128 0x20
 5359 09b7 01       		.byte	0x1
 5360 09b8 51       		.byte	0x51
 5361 09b9 01       		.byte	0x1
 5362 09ba 39       		.byte	0x39
 5363 09bb 00       		.byte	0
ARM GAS  G:\Users\Jaxb\AppData\Local\Temp\ccbV8Tbs.s 			page 122


 5364 09bc 22       		.uleb128 0x22
 5365 09bd 980B0000 		.4byte	.LVL370
 5366 09c1 01       		.byte	0x1
 5367 09c2 A31E0000 		.4byte	0x1ea3
 5368 09c6 00       		.byte	0
 5369 09c7 10       		.uleb128 0x10
 5370 09c8 01       		.byte	0x1
 5371 09c9 89040000 		.4byte	.LASF56
 5372 09cd 01       		.byte	0x1
 5373 09ce 9502     		.2byte	0x295
 5374 09d0 01       		.byte	0x1
 5375 09d1 440B0000 		.4byte	.LFB41
 5376 09d5 700B0000 		.4byte	.LFE41
 5377 09d9 ED050000 		.4byte	.LLST112
 5378 09dd 01       		.byte	0x1
 5379 09de 2F0A0000 		.4byte	0xa2f
 5380 09e2 28       		.uleb128 0x28
 5381 09e3 70747200 		.ascii	"ptr\000"
 5382 09e7 01       		.byte	0x1
 5383 09e8 9502     		.2byte	0x295
 5384 09ea AF000000 		.4byte	0xaf
 5385 09ee 19060000 		.4byte	.LLST113
 5386 09f2 13       		.uleb128 0x13
 5387 09f3 C3050000 		.4byte	.LASF54
 5388 09f7 01       		.byte	0x1
 5389 09f8 9702     		.2byte	0x297
 5390 09fa 6C020000 		.4byte	0x26c
 5391 09fe 45060000 		.4byte	.LLST114
 5392 0a02 18       		.uleb128 0x18
 5393 0a03 4C0B0000 		.4byte	.LVL358
 5394 0a07 961E0000 		.4byte	0x1e96
 5395 0a0b 1F       		.uleb128 0x1f
 5396 0a0c 600B0000 		.4byte	.LVL361
 5397 0a10 070D0000 		.4byte	0xd07
 5398 0a14 240A0000 		.4byte	0xa24
 5399 0a18 20       		.uleb128 0x20
 5400 0a19 01       		.byte	0x1
 5401 0a1a 50       		.byte	0x50
 5402 0a1b 02       		.byte	0x2
 5403 0a1c 75       		.byte	0x75
 5404 0a1d 00       		.sleb128 0
 5405 0a1e 20       		.uleb128 0x20
 5406 0a1f 01       		.byte	0x1
 5407 0a20 51       		.byte	0x51
 5408 0a21 01       		.byte	0x1
 5409 0a22 38       		.byte	0x38
 5410 0a23 00       		.byte	0
 5411 0a24 22       		.uleb128 0x22
 5412 0a25 6A0B0000 		.4byte	.LVL363
 5413 0a29 01       		.byte	0x1
 5414 0a2a A31E0000 		.4byte	0x1ea3
 5415 0a2e 00       		.byte	0
 5416 0a2f 10       		.uleb128 0x10
 5417 0a30 01       		.byte	0x1
 5418 0a31 52050000 		.4byte	.LASF57
 5419 0a35 01       		.byte	0x1
 5420 0a36 8B02     		.2byte	0x28b
ARM GAS  G:\Users\Jaxb\AppData\Local\Temp\ccbV8Tbs.s 			page 123


 5421 0a38 01       		.byte	0x1
 5422 0a39 180B0000 		.4byte	.LFB40
 5423 0a3d 440B0000 		.4byte	.LFE40
 5424 0a41 7A060000 		.4byte	.LLST109
 5425 0a45 01       		.byte	0x1
 5426 0a46 970A0000 		.4byte	0xa97
 5427 0a4a 28       		.uleb128 0x28
 5428 0a4b 70747200 		.ascii	"ptr\000"
 5429 0a4f 01       		.byte	0x1
 5430 0a50 8B02     		.2byte	0x28b
 5431 0a52 AF000000 		.4byte	0xaf
 5432 0a56 A6060000 		.4byte	.LLST110
 5433 0a5a 13       		.uleb128 0x13
 5434 0a5b C3050000 		.4byte	.LASF54
 5435 0a5f 01       		.byte	0x1
 5436 0a60 8D02     		.2byte	0x28d
 5437 0a62 6C020000 		.4byte	0x26c
 5438 0a66 D2060000 		.4byte	.LLST111
 5439 0a6a 18       		.uleb128 0x18
 5440 0a6b 200B0000 		.4byte	.LVL351
 5441 0a6f 961E0000 		.4byte	0x1e96
 5442 0a73 1F       		.uleb128 0x1f
 5443 0a74 340B0000 		.4byte	.LVL354
 5444 0a78 070D0000 		.4byte	0xd07
 5445 0a7c 8C0A0000 		.4byte	0xa8c
 5446 0a80 20       		.uleb128 0x20
 5447 0a81 01       		.byte	0x1
 5448 0a82 50       		.byte	0x50
 5449 0a83 02       		.byte	0x2
 5450 0a84 75       		.byte	0x75
 5451 0a85 00       		.sleb128 0
 5452 0a86 20       		.uleb128 0x20
 5453 0a87 01       		.byte	0x1
 5454 0a88 51       		.byte	0x51
 5455 0a89 01       		.byte	0x1
 5456 0a8a 37       		.byte	0x37
 5457 0a8b 00       		.byte	0
 5458 0a8c 22       		.uleb128 0x22
 5459 0a8d 3E0B0000 		.4byte	.LVL356
 5460 0a91 01       		.byte	0x1
 5461 0a92 A31E0000 		.4byte	0x1ea3
 5462 0a96 00       		.byte	0
 5463 0a97 10       		.uleb128 0x10
 5464 0a98 01       		.byte	0x1
 5465 0a99 46000000 		.4byte	.LASF58
 5466 0a9d 01       		.byte	0x1
 5467 0a9e 8102     		.2byte	0x281
 5468 0aa0 01       		.byte	0x1
 5469 0aa1 EC0A0000 		.4byte	.LFB39
 5470 0aa5 180B0000 		.4byte	.LFE39
 5471 0aa9 07070000 		.4byte	.LLST106
 5472 0aad 01       		.byte	0x1
 5473 0aae FF0A0000 		.4byte	0xaff
 5474 0ab2 28       		.uleb128 0x28
 5475 0ab3 70747200 		.ascii	"ptr\000"
 5476 0ab7 01       		.byte	0x1
 5477 0ab8 8102     		.2byte	0x281
ARM GAS  G:\Users\Jaxb\AppData\Local\Temp\ccbV8Tbs.s 			page 124


 5478 0aba AF000000 		.4byte	0xaf
 5479 0abe 33070000 		.4byte	.LLST107
 5480 0ac2 13       		.uleb128 0x13
 5481 0ac3 C3050000 		.4byte	.LASF54
 5482 0ac7 01       		.byte	0x1
 5483 0ac8 8302     		.2byte	0x283
 5484 0aca 6C020000 		.4byte	0x26c
 5485 0ace 5F070000 		.4byte	.LLST108
 5486 0ad2 18       		.uleb128 0x18
 5487 0ad3 F40A0000 		.4byte	.LVL344
 5488 0ad7 961E0000 		.4byte	0x1e96
 5489 0adb 1F       		.uleb128 0x1f
 5490 0adc 080B0000 		.4byte	.LVL347
 5491 0ae0 070D0000 		.4byte	0xd07
 5492 0ae4 F40A0000 		.4byte	0xaf4
 5493 0ae8 20       		.uleb128 0x20
 5494 0ae9 01       		.byte	0x1
 5495 0aea 50       		.byte	0x50
 5496 0aeb 02       		.byte	0x2
 5497 0aec 75       		.byte	0x75
 5498 0aed 00       		.sleb128 0
 5499 0aee 20       		.uleb128 0x20
 5500 0aef 01       		.byte	0x1
 5501 0af0 51       		.byte	0x51
 5502 0af1 01       		.byte	0x1
 5503 0af2 36       		.byte	0x36
 5504 0af3 00       		.byte	0
 5505 0af4 22       		.uleb128 0x22
 5506 0af5 120B0000 		.4byte	.LVL349
 5507 0af9 01       		.byte	0x1
 5508 0afa A31E0000 		.4byte	0x1ea3
 5509 0afe 00       		.byte	0
 5510 0aff 10       		.uleb128 0x10
 5511 0b00 01       		.byte	0x1
 5512 0b01 64030000 		.4byte	.LASF59
 5513 0b05 01       		.byte	0x1
 5514 0b06 7702     		.2byte	0x277
 5515 0b08 01       		.byte	0x1
 5516 0b09 C00A0000 		.4byte	.LFB38
 5517 0b0d EC0A0000 		.4byte	.LFE38
 5518 0b11 94070000 		.4byte	.LLST103
 5519 0b15 01       		.byte	0x1
 5520 0b16 670B0000 		.4byte	0xb67
 5521 0b1a 28       		.uleb128 0x28
 5522 0b1b 70747200 		.ascii	"ptr\000"
 5523 0b1f 01       		.byte	0x1
 5524 0b20 7702     		.2byte	0x277
 5525 0b22 AF000000 		.4byte	0xaf
 5526 0b26 C0070000 		.4byte	.LLST104
 5527 0b2a 13       		.uleb128 0x13
 5528 0b2b C3050000 		.4byte	.LASF54
 5529 0b2f 01       		.byte	0x1
 5530 0b30 7902     		.2byte	0x279
 5531 0b32 6C020000 		.4byte	0x26c
 5532 0b36 EC070000 		.4byte	.LLST105
 5533 0b3a 18       		.uleb128 0x18
 5534 0b3b C80A0000 		.4byte	.LVL337
ARM GAS  G:\Users\Jaxb\AppData\Local\Temp\ccbV8Tbs.s 			page 125


 5535 0b3f 961E0000 		.4byte	0x1e96
 5536 0b43 1F       		.uleb128 0x1f
 5537 0b44 DC0A0000 		.4byte	.LVL340
 5538 0b48 070D0000 		.4byte	0xd07
 5539 0b4c 5C0B0000 		.4byte	0xb5c
 5540 0b50 20       		.uleb128 0x20
 5541 0b51 01       		.byte	0x1
 5542 0b52 50       		.byte	0x50
 5543 0b53 02       		.byte	0x2
 5544 0b54 75       		.byte	0x75
 5545 0b55 00       		.sleb128 0
 5546 0b56 20       		.uleb128 0x20
 5547 0b57 01       		.byte	0x1
 5548 0b58 51       		.byte	0x51
 5549 0b59 01       		.byte	0x1
 5550 0b5a 35       		.byte	0x35
 5551 0b5b 00       		.byte	0
 5552 0b5c 22       		.uleb128 0x22
 5553 0b5d E60A0000 		.4byte	.LVL342
 5554 0b61 01       		.byte	0x1
 5555 0b62 A31E0000 		.4byte	0x1ea3
 5556 0b66 00       		.byte	0
 5557 0b67 10       		.uleb128 0x10
 5558 0b68 01       		.byte	0x1
 5559 0b69 59000000 		.4byte	.LASF60
 5560 0b6d 01       		.byte	0x1
 5561 0b6e 6D02     		.2byte	0x26d
 5562 0b70 01       		.byte	0x1
 5563 0b71 940A0000 		.4byte	.LFB37
 5564 0b75 C00A0000 		.4byte	.LFE37
 5565 0b79 21080000 		.4byte	.LLST100
 5566 0b7d 01       		.byte	0x1
 5567 0b7e CF0B0000 		.4byte	0xbcf
 5568 0b82 28       		.uleb128 0x28
 5569 0b83 70747200 		.ascii	"ptr\000"
 5570 0b87 01       		.byte	0x1
 5571 0b88 6D02     		.2byte	0x26d
 5572 0b8a AF000000 		.4byte	0xaf
 5573 0b8e 4D080000 		.4byte	.LLST101
 5574 0b92 13       		.uleb128 0x13
 5575 0b93 C3050000 		.4byte	.LASF54
 5576 0b97 01       		.byte	0x1
 5577 0b98 6F02     		.2byte	0x26f
 5578 0b9a 6C020000 		.4byte	0x26c
 5579 0b9e 79080000 		.4byte	.LLST102
 5580 0ba2 18       		.uleb128 0x18
 5581 0ba3 9C0A0000 		.4byte	.LVL330
 5582 0ba7 961E0000 		.4byte	0x1e96
 5583 0bab 1F       		.uleb128 0x1f
 5584 0bac B00A0000 		.4byte	.LVL333
 5585 0bb0 070D0000 		.4byte	0xd07
 5586 0bb4 C40B0000 		.4byte	0xbc4
 5587 0bb8 20       		.uleb128 0x20
 5588 0bb9 01       		.byte	0x1
 5589 0bba 50       		.byte	0x50
 5590 0bbb 02       		.byte	0x2
 5591 0bbc 75       		.byte	0x75
ARM GAS  G:\Users\Jaxb\AppData\Local\Temp\ccbV8Tbs.s 			page 126


 5592 0bbd 00       		.sleb128 0
 5593 0bbe 20       		.uleb128 0x20
 5594 0bbf 01       		.byte	0x1
 5595 0bc0 51       		.byte	0x51
 5596 0bc1 01       		.byte	0x1
 5597 0bc2 34       		.byte	0x34
 5598 0bc3 00       		.byte	0
 5599 0bc4 22       		.uleb128 0x22
 5600 0bc5 BA0A0000 		.4byte	.LVL335
 5601 0bc9 01       		.byte	0x1
 5602 0bca A31E0000 		.4byte	0x1ea3
 5603 0bce 00       		.byte	0
 5604 0bcf 10       		.uleb128 0x10
 5605 0bd0 01       		.byte	0x1
 5606 0bd1 84000000 		.4byte	.LASF61
 5607 0bd5 01       		.byte	0x1
 5608 0bd6 6302     		.2byte	0x263
 5609 0bd8 01       		.byte	0x1
 5610 0bd9 680A0000 		.4byte	.LFB36
 5611 0bdd 940A0000 		.4byte	.LFE36
 5612 0be1 AE080000 		.4byte	.LLST97
 5613 0be5 01       		.byte	0x1
 5614 0be6 370C0000 		.4byte	0xc37
 5615 0bea 28       		.uleb128 0x28
 5616 0beb 70747200 		.ascii	"ptr\000"
 5617 0bef 01       		.byte	0x1
 5618 0bf0 6302     		.2byte	0x263
 5619 0bf2 AF000000 		.4byte	0xaf
 5620 0bf6 DA080000 		.4byte	.LLST98
 5621 0bfa 13       		.uleb128 0x13
 5622 0bfb C3050000 		.4byte	.LASF54
 5623 0bff 01       		.byte	0x1
 5624 0c00 6502     		.2byte	0x265
 5625 0c02 6C020000 		.4byte	0x26c
 5626 0c06 06090000 		.4byte	.LLST99
 5627 0c0a 18       		.uleb128 0x18
 5628 0c0b 700A0000 		.4byte	.LVL323
 5629 0c0f 961E0000 		.4byte	0x1e96
 5630 0c13 1F       		.uleb128 0x1f
 5631 0c14 840A0000 		.4byte	.LVL326
 5632 0c18 070D0000 		.4byte	0xd07
 5633 0c1c 2C0C0000 		.4byte	0xc2c
 5634 0c20 20       		.uleb128 0x20
 5635 0c21 01       		.byte	0x1
 5636 0c22 50       		.byte	0x50
 5637 0c23 02       		.byte	0x2
 5638 0c24 75       		.byte	0x75
 5639 0c25 00       		.sleb128 0
 5640 0c26 20       		.uleb128 0x20
 5641 0c27 01       		.byte	0x1
 5642 0c28 51       		.byte	0x51
 5643 0c29 01       		.byte	0x1
 5644 0c2a 33       		.byte	0x33
 5645 0c2b 00       		.byte	0
 5646 0c2c 22       		.uleb128 0x22
 5647 0c2d 8E0A0000 		.4byte	.LVL328
 5648 0c31 01       		.byte	0x1
ARM GAS  G:\Users\Jaxb\AppData\Local\Temp\ccbV8Tbs.s 			page 127


 5649 0c32 A31E0000 		.4byte	0x1ea3
 5650 0c36 00       		.byte	0
 5651 0c37 10       		.uleb128 0x10
 5652 0c38 01       		.byte	0x1
 5653 0c39 91030000 		.4byte	.LASF62
 5654 0c3d 01       		.byte	0x1
 5655 0c3e 5902     		.2byte	0x259
 5656 0c40 01       		.byte	0x1
 5657 0c41 3C0A0000 		.4byte	.LFB35
 5658 0c45 680A0000 		.4byte	.LFE35
 5659 0c49 3B090000 		.4byte	.LLST94
 5660 0c4d 01       		.byte	0x1
 5661 0c4e 9F0C0000 		.4byte	0xc9f
 5662 0c52 28       		.uleb128 0x28
 5663 0c53 70747200 		.ascii	"ptr\000"
 5664 0c57 01       		.byte	0x1
 5665 0c58 5902     		.2byte	0x259
 5666 0c5a AF000000 		.4byte	0xaf
 5667 0c5e 67090000 		.4byte	.LLST95
 5668 0c62 13       		.uleb128 0x13
 5669 0c63 C3050000 		.4byte	.LASF54
 5670 0c67 01       		.byte	0x1
 5671 0c68 5B02     		.2byte	0x25b
 5672 0c6a 6C020000 		.4byte	0x26c
 5673 0c6e 93090000 		.4byte	.LLST96
 5674 0c72 18       		.uleb128 0x18
 5675 0c73 440A0000 		.4byte	.LVL316
 5676 0c77 961E0000 		.4byte	0x1e96
 5677 0c7b 1F       		.uleb128 0x1f
 5678 0c7c 580A0000 		.4byte	.LVL319
 5679 0c80 070D0000 		.4byte	0xd07
 5680 0c84 940C0000 		.4byte	0xc94
 5681 0c88 20       		.uleb128 0x20
 5682 0c89 01       		.byte	0x1
 5683 0c8a 50       		.byte	0x50
 5684 0c8b 02       		.byte	0x2
 5685 0c8c 75       		.byte	0x75
 5686 0c8d 00       		.sleb128 0
 5687 0c8e 20       		.uleb128 0x20
 5688 0c8f 01       		.byte	0x1
 5689 0c90 51       		.byte	0x51
 5690 0c91 01       		.byte	0x1
 5691 0c92 32       		.byte	0x32
 5692 0c93 00       		.byte	0
 5693 0c94 22       		.uleb128 0x22
 5694 0c95 620A0000 		.4byte	.LVL321
 5695 0c99 01       		.byte	0x1
 5696 0c9a A31E0000 		.4byte	0x1ea3
 5697 0c9e 00       		.byte	0
 5698 0c9f 10       		.uleb128 0x10
 5699 0ca0 01       		.byte	0x1
 5700 0ca1 CC010000 		.4byte	.LASF63
 5701 0ca5 01       		.byte	0x1
 5702 0ca6 4F02     		.2byte	0x24f
 5703 0ca8 01       		.byte	0x1
 5704 0ca9 100A0000 		.4byte	.LFB34
 5705 0cad 3C0A0000 		.4byte	.LFE34
ARM GAS  G:\Users\Jaxb\AppData\Local\Temp\ccbV8Tbs.s 			page 128


 5706 0cb1 C8090000 		.4byte	.LLST91
 5707 0cb5 01       		.byte	0x1
 5708 0cb6 070D0000 		.4byte	0xd07
 5709 0cba 28       		.uleb128 0x28
 5710 0cbb 70747200 		.ascii	"ptr\000"
 5711 0cbf 01       		.byte	0x1
 5712 0cc0 4F02     		.2byte	0x24f
 5713 0cc2 AF000000 		.4byte	0xaf
 5714 0cc6 F4090000 		.4byte	.LLST92
 5715 0cca 13       		.uleb128 0x13
 5716 0ccb C3050000 		.4byte	.LASF54
 5717 0ccf 01       		.byte	0x1
 5718 0cd0 5102     		.2byte	0x251
 5719 0cd2 6C020000 		.4byte	0x26c
 5720 0cd6 200A0000 		.4byte	.LLST93
 5721 0cda 18       		.uleb128 0x18
 5722 0cdb 180A0000 		.4byte	.LVL309
 5723 0cdf 961E0000 		.4byte	0x1e96
 5724 0ce3 1F       		.uleb128 0x1f
 5725 0ce4 2C0A0000 		.4byte	.LVL312
 5726 0ce8 070D0000 		.4byte	0xd07
 5727 0cec FC0C0000 		.4byte	0xcfc
 5728 0cf0 20       		.uleb128 0x20
 5729 0cf1 01       		.byte	0x1
 5730 0cf2 50       		.byte	0x50
 5731 0cf3 02       		.byte	0x2
 5732 0cf4 75       		.byte	0x75
 5733 0cf5 00       		.sleb128 0
 5734 0cf6 20       		.uleb128 0x20
 5735 0cf7 01       		.byte	0x1
 5736 0cf8 51       		.byte	0x51
 5737 0cf9 01       		.byte	0x1
 5738 0cfa 31       		.byte	0x31
 5739 0cfb 00       		.byte	0
 5740 0cfc 22       		.uleb128 0x22
 5741 0cfd 360A0000 		.4byte	.LVL314
 5742 0d01 01       		.byte	0x1
 5743 0d02 A31E0000 		.4byte	0x1ea3
 5744 0d06 00       		.byte	0
 5745 0d07 29       		.uleb128 0x29
 5746 0d08 A4030000 		.4byte	.LASF87
 5747 0d0c 01       		.byte	0x1
 5748 0d0d 3E02     		.2byte	0x23e
 5749 0d0f 01       		.byte	0x1
 5750 0d10 EC010000 		.4byte	.LFB33
 5751 0d14 60050000 		.4byte	.LFE33
 5752 0d18 550A0000 		.4byte	.LLST14
 5753 0d1c 01       		.byte	0x1
 5754 0d1d AA110000 		.4byte	0x11aa
 5755 0d21 28       		.uleb128 0x28
 5756 0d22 70747200 		.ascii	"ptr\000"
 5757 0d26 01       		.byte	0x1
 5758 0d27 3E02     		.2byte	0x23e
 5759 0d29 AF000000 		.4byte	0xaf
 5760 0d2d BD0A0000 		.4byte	.LLST15
 5761 0d31 11       		.uleb128 0x11
 5762 0d32 9C040000 		.4byte	.LASF44
ARM GAS  G:\Users\Jaxb\AppData\Local\Temp\ccbV8Tbs.s 			page 129


 5763 0d36 01       		.byte	0x1
 5764 0d37 3E02     		.2byte	0x23e
 5765 0d39 65000000 		.4byte	0x65
 5766 0d3d 0D0B0000 		.4byte	.LLST16
 5767 0d41 26       		.uleb128 0x26
 5768 0d42 97000000 		.4byte	.LASF20
 5769 0d46 01       		.byte	0x1
 5770 0d47 4A02     		.2byte	0x24a
 5771 0d49 FF000000 		.4byte	0xff
 5772 0d4d 15       		.uleb128 0x15
 5773 0d4e 441B0000 		.4byte	0x1b44
 5774 0d52 26020000 		.4byte	.LBB81
 5775 0d56 3A020000 		.4byte	.LBE81
 5776 0d5a 01       		.byte	0x1
 5777 0d5b 4902     		.2byte	0x249
 5778 0d5d 6B0D0000 		.4byte	0xd6b
 5779 0d61 1D       		.uleb128 0x1d
 5780 0d62 561B0000 		.4byte	0x1b56
 5781 0d66 840B0000 		.4byte	.LLST17
 5782 0d6a 00       		.byte	0
 5783 0d6b 19       		.uleb128 0x19
 5784 0d6c 20120000 		.4byte	0x1220
 5785 0d70 44020000 		.4byte	.LBB83
 5786 0d74 60000000 		.4byte	.Ldebug_ranges0+0x60
 5787 0d78 01       		.byte	0x1
 5788 0d79 4A02     		.2byte	0x24a
 5789 0d7b 890D0000 		.4byte	0xd89
 5790 0d7f 1D       		.uleb128 0x1d
 5791 0d80 32120000 		.4byte	0x1232
 5792 0d84 970B0000 		.4byte	.LLST18
 5793 0d88 00       		.byte	0
 5794 0d89 19       		.uleb128 0x19
 5795 0d8a 151C0000 		.4byte	0x1c15
 5796 0d8e 60020000 		.4byte	.LBB87
 5797 0d92 78000000 		.4byte	.Ldebug_ranges0+0x78
 5798 0d96 01       		.byte	0x1
 5799 0d97 4C02     		.2byte	0x24c
 5800 0d99 39110000 		.4byte	0x1139
 5801 0d9d 1D       		.uleb128 0x1d
 5802 0d9e 2D1C0000 		.4byte	0x1c2d
 5803 0da2 B80B0000 		.4byte	.LLST19
 5804 0da6 1D       		.uleb128 0x1d
 5805 0da7 221C0000 		.4byte	0x1c22
 5806 0dab EC0B0000 		.4byte	.LLST20
 5807 0daf 1A       		.uleb128 0x1a
 5808 0db0 78000000 		.4byte	.Ldebug_ranges0+0x78
 5809 0db4 1B       		.uleb128 0x1b
 5810 0db5 381C0000 		.4byte	0x1c38
 5811 0db9 3F0C0000 		.4byte	.LLST21
 5812 0dbd 17       		.uleb128 0x17
 5813 0dbe 411C0000 		.4byte	0x1c41
 5814 0dc2 2A       		.uleb128 0x2a
 5815 0dc3 3F120000 		.4byte	0x123f
 5816 0dc7 82020000 		.4byte	.LBB89
 5817 0dcb 98000000 		.4byte	.Ldebug_ranges0+0x98
 5818 0dcf 01       		.byte	0x1
 5819 0dd0 73       		.byte	0x73
ARM GAS  G:\Users\Jaxb\AppData\Local\Temp\ccbV8Tbs.s 			page 130


 5820 0dd1 F30D0000 		.4byte	0xdf3
 5821 0dd5 1E       		.uleb128 0x1e
 5822 0dd6 5D120000 		.4byte	0x125d
 5823 0dda 1D       		.uleb128 0x1d
 5824 0ddb 51120000 		.4byte	0x1251
 5825 0ddf BB0C0000 		.4byte	.LLST22
 5826 0de3 1A       		.uleb128 0x1a
 5827 0de4 98000000 		.4byte	.Ldebug_ranges0+0x98
 5828 0de8 1B       		.uleb128 0x1b
 5829 0de9 69120000 		.4byte	0x1269
 5830 0ded FE0C0000 		.4byte	.LLST23
 5831 0df1 00       		.byte	0
 5832 0df2 00       		.byte	0
 5833 0df3 2A       		.uleb128 0x2a
 5834 0df4 4D1C0000 		.4byte	0x1c4d
 5835 0df8 AE020000 		.4byte	.LBB92
 5836 0dfc B0000000 		.4byte	.Ldebug_ranges0+0xb0
 5837 0e00 01       		.byte	0x1
 5838 0e01 70       		.byte	0x70
 5839 0e02 4F0E0000 		.4byte	0xe4f
 5840 0e06 1D       		.uleb128 0x1d
 5841 0e07 691C0000 		.4byte	0x1c69
 5842 0e0b 1C0D0000 		.4byte	.LLST24
 5843 0e0f 1D       		.uleb128 0x1d
 5844 0e10 5E1C0000 		.4byte	0x1c5e
 5845 0e14 3A0D0000 		.4byte	.LLST25
 5846 0e18 1F       		.uleb128 0x1f
 5847 0e19 C0020000 		.4byte	.LVL57
 5848 0e1d B01E0000 		.4byte	0x1eb0
 5849 0e21 350E0000 		.4byte	0xe35
 5850 0e25 20       		.uleb128 0x20
 5851 0e26 01       		.byte	0x1
 5852 0e27 50       		.byte	0x50
 5853 0e28 05       		.byte	0x5
 5854 0e29 03       		.byte	0x3
 5855 0e2a 00000000 		.4byte	.LC0
 5856 0e2e 20       		.uleb128 0x20
 5857 0e2f 01       		.byte	0x1
 5858 0e30 51       		.byte	0x51
 5859 0e31 02       		.byte	0x2
 5860 0e32 08       		.byte	0x8
 5861 0e33 56       		.byte	0x56
 5862 0e34 00       		.byte	0
 5863 0e35 21       		.uleb128 0x21
 5864 0e36 72040000 		.4byte	.LVL96
 5865 0e3a B01E0000 		.4byte	0x1eb0
 5866 0e3e 20       		.uleb128 0x20
 5867 0e3f 01       		.byte	0x1
 5868 0e40 50       		.byte	0x50
 5869 0e41 05       		.byte	0x5
 5870 0e42 03       		.byte	0x3
 5871 0e43 00000000 		.4byte	.LC0
 5872 0e47 20       		.uleb128 0x20
 5873 0e48 01       		.byte	0x1
 5874 0e49 51       		.byte	0x51
 5875 0e4a 02       		.byte	0x2
 5876 0e4b 08       		.byte	0x8
ARM GAS  G:\Users\Jaxb\AppData\Local\Temp\ccbV8Tbs.s 			page 131


 5877 0e4c 57       		.byte	0x57
 5878 0e4d 00       		.byte	0
 5879 0e4e 00       		.byte	0
 5880 0e4f 2B       		.uleb128 0x2b
 5881 0e50 E9110000 		.4byte	0x11e9
 5882 0e54 D8020000 		.4byte	.LBB95
 5883 0e58 2C030000 		.4byte	.LBE95
 5884 0e5c 01       		.byte	0x1
 5885 0e5d 71       		.byte	0x71
 5886 0e5e C00E0000 		.4byte	0xec0
 5887 0e62 1D       		.uleb128 0x1d
 5888 0e63 07120000 		.4byte	0x1207
 5889 0e67 580D0000 		.4byte	.LLST26
 5890 0e6b 1D       		.uleb128 0x1d
 5891 0e6c FB110000 		.4byte	0x11fb
 5892 0e70 6B0D0000 		.4byte	.LLST27
 5893 0e74 16       		.uleb128 0x16
 5894 0e75 D8020000 		.4byte	.LBB96
 5895 0e79 2C030000 		.4byte	.LBE96
 5896 0e7d 1B       		.uleb128 0x1b
 5897 0e7e 13120000 		.4byte	0x1213
 5898 0e82 7E0D0000 		.4byte	.LLST28
 5899 0e86 1F       		.uleb128 0x1f
 5900 0e87 F2020000 		.4byte	.LVL59
 5901 0e8b B01E0000 		.4byte	0x1eb0
 5902 0e8f A40E0000 		.4byte	0xea4
 5903 0e93 20       		.uleb128 0x20
 5904 0e94 01       		.byte	0x1
 5905 0e95 50       		.byte	0x50
 5906 0e96 05       		.byte	0x5
 5907 0e97 03       		.byte	0x3
 5908 0e98 00000000 		.4byte	.LC0
 5909 0e9c 20       		.uleb128 0x20
 5910 0e9d 01       		.byte	0x1
 5911 0e9e 51       		.byte	0x51
 5912 0e9f 03       		.byte	0x3
 5913 0ea0 0A       		.byte	0xa
 5914 0ea1 1802     		.2byte	0x218
 5915 0ea3 00       		.byte	0
 5916 0ea4 21       		.uleb128 0x21
 5917 0ea5 02030000 		.4byte	.LVL60
 5918 0ea9 B01E0000 		.4byte	0x1eb0
 5919 0ead 20       		.uleb128 0x20
 5920 0eae 01       		.byte	0x1
 5921 0eaf 50       		.byte	0x50
 5922 0eb0 05       		.byte	0x5
 5923 0eb1 03       		.byte	0x3
 5924 0eb2 00000000 		.4byte	.LC0
 5925 0eb6 20       		.uleb128 0x20
 5926 0eb7 01       		.byte	0x1
 5927 0eb8 51       		.byte	0x51
 5928 0eb9 03       		.byte	0x3
 5929 0eba 0A       		.byte	0xa
 5930 0ebb 1902     		.2byte	0x219
 5931 0ebd 00       		.byte	0
 5932 0ebe 00       		.byte	0
 5933 0ebf 00       		.byte	0
ARM GAS  G:\Users\Jaxb\AppData\Local\Temp\ccbV8Tbs.s 			page 132


 5934 0ec0 2A       		.uleb128 0x2a
 5935 0ec1 AA110000 		.4byte	0x11aa
 5936 0ec5 56030000 		.4byte	.LBB98
 5937 0ec9 C8000000 		.4byte	.Ldebug_ranges0+0xc8
 5938 0ecd 01       		.byte	0x1
 5939 0ece 74       		.byte	0x74
 5940 0ecf 16100000 		.4byte	0x1016
 5941 0ed3 1D       		.uleb128 0x1d
 5942 0ed4 C4110000 		.4byte	0x11c4
 5943 0ed8 A10D0000 		.4byte	.LLST29
 5944 0edc 1D       		.uleb128 0x1d
 5945 0edd B8110000 		.4byte	0x11b8
 5946 0ee1 CA0D0000 		.4byte	.LLST30
 5947 0ee5 1A       		.uleb128 0x1a
 5948 0ee6 C8000000 		.4byte	.Ldebug_ranges0+0xc8
 5949 0eea 1B       		.uleb128 0x1b
 5950 0eeb D0110000 		.4byte	0x11d0
 5951 0eef F30D0000 		.4byte	.LLST31
 5952 0ef3 1B       		.uleb128 0x1b
 5953 0ef4 DC110000 		.4byte	0x11dc
 5954 0ef8 400E0000 		.4byte	.LLST32
 5955 0efc 19       		.uleb128 0x19
 5956 0efd 621B0000 		.4byte	0x1b62
 5957 0f01 78040000 		.4byte	.LBB100
 5958 0f05 E8000000 		.4byte	.Ldebug_ranges0+0xe8
 5959 0f09 01       		.byte	0x1
 5960 0f0a 3402     		.2byte	0x234
 5961 0f0c 500F0000 		.4byte	0xf50
 5962 0f10 1D       		.uleb128 0x1d
 5963 0f11 6F1B0000 		.4byte	0x1b6f
 5964 0f15 810E0000 		.4byte	.LLST33
 5965 0f19 1F       		.uleb128 0x1f
 5966 0f1a 9E040000 		.4byte	.LVL100
 5967 0f1e B01E0000 		.4byte	0x1eb0
 5968 0f22 360F0000 		.4byte	0xf36
 5969 0f26 20       		.uleb128 0x20
 5970 0f27 01       		.byte	0x1
 5971 0f28 50       		.byte	0x50
 5972 0f29 05       		.byte	0x5
 5973 0f2a 03       		.byte	0x3
 5974 0f2b 00000000 		.4byte	.LC0
 5975 0f2f 20       		.uleb128 0x20
 5976 0f30 01       		.byte	0x1
 5977 0f31 51       		.byte	0x51
 5978 0f32 02       		.byte	0x2
 5979 0f33 08       		.byte	0x8
 5980 0f34 9D       		.byte	0x9d
 5981 0f35 00       		.byte	0
 5982 0f36 21       		.uleb128 0x21
 5983 0f37 08050000 		.4byte	.LVL108
 5984 0f3b B01E0000 		.4byte	0x1eb0
 5985 0f3f 20       		.uleb128 0x20
 5986 0f40 01       		.byte	0x1
 5987 0f41 50       		.byte	0x50
 5988 0f42 05       		.byte	0x5
 5989 0f43 03       		.byte	0x3
 5990 0f44 00000000 		.4byte	.LC0
ARM GAS  G:\Users\Jaxb\AppData\Local\Temp\ccbV8Tbs.s 			page 133


 5991 0f48 20       		.uleb128 0x20
 5992 0f49 01       		.byte	0x1
 5993 0f4a 51       		.byte	0x51
 5994 0f4b 02       		.byte	0x2
 5995 0f4c 08       		.byte	0x8
 5996 0f4d 9C       		.byte	0x9c
 5997 0f4e 00       		.byte	0
 5998 0f4f 00       		.byte	0
 5999 0f50 19       		.uleb128 0x19
 6000 0f51 621B0000 		.4byte	0x1b62
 6001 0f55 D2040000 		.4byte	.LBB107
 6002 0f59 10010000 		.4byte	.Ldebug_ranges0+0x110
 6003 0f5d 01       		.byte	0x1
 6004 0f5e 2902     		.2byte	0x229
 6005 0f60 A00F0000 		.4byte	0xfa0
 6006 0f64 1E       		.uleb128 0x1e
 6007 0f65 6F1B0000 		.4byte	0x1b6f
 6008 0f69 1F       		.uleb128 0x1f
 6009 0f6a F6040000 		.4byte	.LVL106
 6010 0f6e B01E0000 		.4byte	0x1eb0
 6011 0f72 860F0000 		.4byte	0xf86
 6012 0f76 20       		.uleb128 0x20
 6013 0f77 01       		.byte	0x1
 6014 0f78 50       		.byte	0x50
 6015 0f79 05       		.byte	0x5
 6016 0f7a 03       		.byte	0x3
 6017 0f7b 00000000 		.4byte	.LC0
 6018 0f7f 20       		.uleb128 0x20
 6019 0f80 01       		.byte	0x1
 6020 0f81 51       		.byte	0x51
 6021 0f82 02       		.byte	0x2
 6022 0f83 08       		.byte	0x8
 6023 0f84 9D       		.byte	0x9d
 6024 0f85 00       		.byte	0
 6025 0f86 21       		.uleb128 0x21
 6026 0f87 20050000 		.4byte	.LVL112
 6027 0f8b B01E0000 		.4byte	0x1eb0
 6028 0f8f 20       		.uleb128 0x20
 6029 0f90 01       		.byte	0x1
 6030 0f91 50       		.byte	0x50
 6031 0f92 05       		.byte	0x5
 6032 0f93 03       		.byte	0x3
 6033 0f94 00000000 		.4byte	.LC0
 6034 0f98 20       		.uleb128 0x20
 6035 0f99 01       		.byte	0x1
 6036 0f9a 51       		.byte	0x51
 6037 0f9b 02       		.byte	0x2
 6038 0f9c 08       		.byte	0x8
 6039 0f9d 9C       		.byte	0x9c
 6040 0f9e 00       		.byte	0
 6041 0f9f 00       		.byte	0
 6042 0fa0 1F       		.uleb128 0x1f
 6043 0fa1 70030000 		.4byte	.LVL69
 6044 0fa5 B01E0000 		.4byte	0x1eb0
 6045 0fa9 BE0F0000 		.4byte	0xfbe
 6046 0fad 20       		.uleb128 0x20
 6047 0fae 01       		.byte	0x1
ARM GAS  G:\Users\Jaxb\AppData\Local\Temp\ccbV8Tbs.s 			page 134


 6048 0faf 50       		.byte	0x50
 6049 0fb0 05       		.byte	0x5
 6050 0fb1 03       		.byte	0x3
 6051 0fb2 00000000 		.4byte	.LC0
 6052 0fb6 20       		.uleb128 0x20
 6053 0fb7 01       		.byte	0x1
 6054 0fb8 51       		.byte	0x51
 6055 0fb9 03       		.byte	0x3
 6056 0fba 0A       		.byte	0xa
 6057 0fbb 2202     		.2byte	0x222
 6058 0fbd 00       		.byte	0
 6059 0fbe 1F       		.uleb128 0x1f
 6060 0fbf D2030000 		.4byte	.LVL76
 6061 0fc3 B01E0000 		.4byte	0x1eb0
 6062 0fc7 DC0F0000 		.4byte	0xfdc
 6063 0fcb 20       		.uleb128 0x20
 6064 0fcc 01       		.byte	0x1
 6065 0fcd 50       		.byte	0x50
 6066 0fce 05       		.byte	0x5
 6067 0fcf 03       		.byte	0x3
 6068 0fd0 00000000 		.4byte	.LC0
 6069 0fd4 20       		.uleb128 0x20
 6070 0fd5 01       		.byte	0x1
 6071 0fd6 51       		.byte	0x51
 6072 0fd7 03       		.byte	0x3
 6073 0fd8 0A       		.byte	0xa
 6074 0fd9 3A02     		.2byte	0x23a
 6075 0fdb 00       		.byte	0
 6076 0fdc 1F       		.uleb128 0x1f
 6077 0fdd B8040000 		.4byte	.LVL102
 6078 0fe1 B01E0000 		.4byte	0x1eb0
 6079 0fe5 FA0F0000 		.4byte	0xffa
 6080 0fe9 20       		.uleb128 0x20
 6081 0fea 01       		.byte	0x1
 6082 0feb 50       		.byte	0x50
 6083 0fec 05       		.byte	0x5
 6084 0fed 03       		.byte	0x3
 6085 0fee 00000000 		.4byte	.LC0
 6086 0ff2 20       		.uleb128 0x20
 6087 0ff3 01       		.byte	0x1
 6088 0ff4 51       		.byte	0x51
 6089 0ff5 03       		.byte	0x3
 6090 0ff6 0A       		.byte	0xa
 6091 0ff7 2302     		.2byte	0x223
 6092 0ff9 00       		.byte	0
 6093 0ffa 21       		.uleb128 0x21
 6094 0ffb C4040000 		.4byte	.LVL103
 6095 0fff B01E0000 		.4byte	0x1eb0
 6096 1003 20       		.uleb128 0x20
 6097 1004 01       		.byte	0x1
 6098 1005 50       		.byte	0x50
 6099 1006 05       		.byte	0x5
 6100 1007 03       		.byte	0x3
 6101 1008 00000000 		.4byte	.LC0
 6102 100c 20       		.uleb128 0x20
 6103 100d 01       		.byte	0x1
 6104 100e 51       		.byte	0x51
ARM GAS  G:\Users\Jaxb\AppData\Local\Temp\ccbV8Tbs.s 			page 135


 6105 100f 03       		.byte	0x3
 6106 1010 0A       		.byte	0xa
 6107 1011 2402     		.2byte	0x224
 6108 1013 00       		.byte	0
 6109 1014 00       		.byte	0
 6110 1015 00       		.byte	0
 6111 1016 2B       		.uleb128 0x2b
 6112 1017 3F120000 		.4byte	0x123f
 6113 101b 34050000 		.4byte	.LBB119
 6114 101f 52050000 		.4byte	.LBE119
 6115 1023 01       		.byte	0x1
 6116 1024 83       		.byte	0x83
 6117 1025 4F100000 		.4byte	0x104f
 6118 1029 1D       		.uleb128 0x1d
 6119 102a 5D120000 		.4byte	0x125d
 6120 102e 9F0E0000 		.4byte	.LLST34
 6121 1032 1D       		.uleb128 0x1d
 6122 1033 51120000 		.4byte	0x1251
 6123 1037 B20E0000 		.4byte	.LLST35
 6124 103b 16       		.uleb128 0x16
 6125 103c 34050000 		.4byte	.LBB120
 6126 1040 52050000 		.4byte	.LBE120
 6127 1044 1B       		.uleb128 0x1b
 6128 1045 69120000 		.4byte	0x1269
 6129 1049 C50E0000 		.4byte	.LLST36
 6130 104d 00       		.byte	0
 6131 104e 00       		.byte	0
 6132 104f 1F       		.uleb128 0x1f
 6133 1050 56030000 		.4byte	.LVL68
 6134 1054 B01E0000 		.4byte	0x1eb0
 6135 1058 6C100000 		.4byte	0x106c
 6136 105c 20       		.uleb128 0x20
 6137 105d 01       		.byte	0x1
 6138 105e 50       		.byte	0x50
 6139 105f 05       		.byte	0x5
 6140 1060 03       		.byte	0x3
 6141 1061 00000000 		.4byte	.LC0
 6142 1065 20       		.uleb128 0x20
 6143 1066 01       		.byte	0x1
 6144 1067 51       		.byte	0x51
 6145 1068 02       		.byte	0x2
 6146 1069 08       		.byte	0x8
 6147 106a 73       		.byte	0x73
 6148 106b 00       		.byte	0
 6149 106c 1F       		.uleb128 0x1f
 6150 106d E2030000 		.4byte	.LVL78
 6151 1071 7B1B0000 		.4byte	0x1b7b
 6152 1075 86100000 		.4byte	0x1086
 6153 1079 20       		.uleb128 0x20
 6154 107a 01       		.byte	0x1
 6155 107b 50       		.byte	0x50
 6156 107c 02       		.byte	0x2
 6157 107d 79       		.byte	0x79
 6158 107e 00       		.sleb128 0
 6159 107f 20       		.uleb128 0x20
 6160 1080 01       		.byte	0x1
 6161 1081 51       		.byte	0x51
ARM GAS  G:\Users\Jaxb\AppData\Local\Temp\ccbV8Tbs.s 			page 136


 6162 1082 02       		.byte	0x2
 6163 1083 76       		.byte	0x76
 6164 1084 00       		.sleb128 0
 6165 1085 00       		.byte	0
 6166 1086 1F       		.uleb128 0x1f
 6167 1087 06040000 		.4byte	.LVL81
 6168 108b B01E0000 		.4byte	0x1eb0
 6169 108f A3100000 		.4byte	0x10a3
 6170 1093 20       		.uleb128 0x20
 6171 1094 01       		.byte	0x1
 6172 1095 50       		.byte	0x50
 6173 1096 05       		.byte	0x5
 6174 1097 03       		.byte	0x3
 6175 1098 00000000 		.4byte	.LC0
 6176 109c 20       		.uleb128 0x20
 6177 109d 01       		.byte	0x1
 6178 109e 51       		.byte	0x51
 6179 109f 02       		.byte	0x2
 6180 10a0 08       		.byte	0x8
 6181 10a1 67       		.byte	0x67
 6182 10a2 00       		.byte	0
 6183 10a3 1F       		.uleb128 0x1f
 6184 10a4 10040000 		.4byte	.LVL83
 6185 10a8 B01E0000 		.4byte	0x1eb0
 6186 10ac C0100000 		.4byte	0x10c0
 6187 10b0 20       		.uleb128 0x20
 6188 10b1 01       		.byte	0x1
 6189 10b2 50       		.byte	0x50
 6190 10b3 05       		.byte	0x5
 6191 10b4 03       		.byte	0x3
 6192 10b5 00000000 		.4byte	.LC0
 6193 10b9 20       		.uleb128 0x20
 6194 10ba 01       		.byte	0x1
 6195 10bb 51       		.byte	0x51
 6196 10bc 02       		.byte	0x2
 6197 10bd 08       		.byte	0x8
 6198 10be 63       		.byte	0x63
 6199 10bf 00       		.byte	0
 6200 10c0 1F       		.uleb128 0x1f
 6201 10c1 48040000 		.4byte	.LVL91
 6202 10c5 7B1B0000 		.4byte	0x1b7b
 6203 10c9 DA100000 		.4byte	0x10da
 6204 10cd 20       		.uleb128 0x20
 6205 10ce 01       		.byte	0x1
 6206 10cf 50       		.byte	0x50
 6207 10d0 02       		.byte	0x2
 6208 10d1 79       		.byte	0x79
 6209 10d2 00       		.sleb128 0
 6210 10d3 20       		.uleb128 0x20
 6211 10d4 01       		.byte	0x1
 6212 10d5 51       		.byte	0x51
 6213 10d6 02       		.byte	0x2
 6214 10d7 76       		.byte	0x76
 6215 10d8 00       		.sleb128 0
 6216 10d9 00       		.byte	0
 6217 10da 1F       		.uleb128 0x1f
 6218 10db 52040000 		.4byte	.LVL93
ARM GAS  G:\Users\Jaxb\AppData\Local\Temp\ccbV8Tbs.s 			page 137


 6219 10df B01E0000 		.4byte	0x1eb0
 6220 10e3 F7100000 		.4byte	0x10f7
 6221 10e7 20       		.uleb128 0x20
 6222 10e8 01       		.byte	0x1
 6223 10e9 50       		.byte	0x50
 6224 10ea 05       		.byte	0x5
 6225 10eb 03       		.byte	0x3
 6226 10ec 00000000 		.4byte	.LC0
 6227 10f0 20       		.uleb128 0x20
 6228 10f1 01       		.byte	0x1
 6229 10f2 51       		.byte	0x51
 6230 10f3 02       		.byte	0x2
 6231 10f4 08       		.byte	0x8
 6232 10f5 68       		.byte	0x68
 6233 10f6 00       		.byte	0
 6234 10f7 22       		.uleb128 0x22
 6235 10f8 6A040000 		.4byte	.LVL95
 6236 10fc 01       		.byte	0x1
 6237 10fd 751C0000 		.4byte	0x1c75
 6238 1101 1F       		.uleb128 0x1f
 6239 1102 16050000 		.4byte	.LVL110
 6240 1106 B01E0000 		.4byte	0x1eb0
 6241 110a 1E110000 		.4byte	0x111e
 6242 110e 20       		.uleb128 0x20
 6243 110f 01       		.byte	0x1
 6244 1110 50       		.byte	0x50
 6245 1111 05       		.byte	0x5
 6246 1112 03       		.byte	0x3
 6247 1113 00000000 		.4byte	.LC0
 6248 1117 20       		.uleb128 0x20
 6249 1118 01       		.byte	0x1
 6250 1119 51       		.byte	0x51
 6251 111a 02       		.byte	0x2
 6252 111b 08       		.byte	0x8
 6253 111c 64       		.byte	0x64
 6254 111d 00       		.byte	0
 6255 111e 21       		.uleb128 0x21
 6256 111f 5A050000 		.4byte	.LVL119
 6257 1123 B01E0000 		.4byte	0x1eb0
 6258 1127 20       		.uleb128 0x20
 6259 1128 01       		.byte	0x1
 6260 1129 50       		.byte	0x50
 6261 112a 05       		.byte	0x5
 6262 112b 03       		.byte	0x3
 6263 112c 00000000 		.4byte	.LC0
 6264 1130 20       		.uleb128 0x20
 6265 1131 01       		.byte	0x1
 6266 1132 51       		.byte	0x51
 6267 1133 02       		.byte	0x2
 6268 1134 08       		.byte	0x8
 6269 1135 83       		.byte	0x83
 6270 1136 00       		.byte	0
 6271 1137 00       		.byte	0
 6272 1138 00       		.byte	0
 6273 1139 1F       		.uleb128 0x1f
 6274 113a 26020000 		.4byte	.LVL47
 6275 113e B01E0000 		.4byte	0x1eb0
ARM GAS  G:\Users\Jaxb\AppData\Local\Temp\ccbV8Tbs.s 			page 138


 6276 1142 57110000 		.4byte	0x1157
 6277 1146 20       		.uleb128 0x20
 6278 1147 01       		.byte	0x1
 6279 1148 50       		.byte	0x50
 6280 1149 05       		.byte	0x5
 6281 114a 03       		.byte	0x3
 6282 114b 00000000 		.4byte	.LC0
 6283 114f 20       		.uleb128 0x20
 6284 1150 01       		.byte	0x1
 6285 1151 51       		.byte	0x51
 6286 1152 03       		.byte	0x3
 6287 1153 0A       		.byte	0xa
 6288 1154 4802     		.2byte	0x248
 6289 1156 00       		.byte	0
 6290 1157 1F       		.uleb128 0x1f
 6291 1158 44020000 		.4byte	.LVL50
 6292 115c B01E0000 		.4byte	0x1eb0
 6293 1160 75110000 		.4byte	0x1175
 6294 1164 20       		.uleb128 0x20
 6295 1165 01       		.byte	0x1
 6296 1166 50       		.byte	0x50
 6297 1167 05       		.byte	0x5
 6298 1168 03       		.byte	0x3
 6299 1169 00000000 		.4byte	.LC0
 6300 116d 20       		.uleb128 0x20
 6301 116e 01       		.byte	0x1
 6302 116f 51       		.byte	0x51
 6303 1170 03       		.byte	0x3
 6304 1171 0A       		.byte	0xa
 6305 1172 4902     		.2byte	0x249
 6306 1174 00       		.byte	0
 6307 1175 1F       		.uleb128 0x1f
 6308 1176 5C020000 		.4byte	.LVL53
 6309 117a 7B1B0000 		.4byte	0x1b7b
 6310 117e 8F110000 		.4byte	0x118f
 6311 1182 20       		.uleb128 0x20
 6312 1183 01       		.byte	0x1
 6313 1184 50       		.byte	0x50
 6314 1185 02       		.byte	0x2
 6315 1186 79       		.byte	0x79
 6316 1187 00       		.sleb128 0
 6317 1188 20       		.uleb128 0x20
 6318 1189 01       		.byte	0x1
 6319 118a 51       		.byte	0x51
 6320 118b 02       		.byte	0x2
 6321 118c 76       		.byte	0x76
 6322 118d 00       		.sleb128 0
 6323 118e 00       		.byte	0
 6324 118f 21       		.uleb128 0x21
 6325 1190 30040000 		.4byte	.LVL88
 6326 1194 B01E0000 		.4byte	0x1eb0
 6327 1198 20       		.uleb128 0x20
 6328 1199 01       		.byte	0x1
 6329 119a 50       		.byte	0x50
 6330 119b 05       		.byte	0x5
 6331 119c 03       		.byte	0x3
 6332 119d 00000000 		.4byte	.LC0
ARM GAS  G:\Users\Jaxb\AppData\Local\Temp\ccbV8Tbs.s 			page 139


 6333 11a1 20       		.uleb128 0x20
 6334 11a2 01       		.byte	0x1
 6335 11a3 51       		.byte	0x51
 6336 11a4 03       		.byte	0x3
 6337 11a5 0A       		.byte	0xa
 6338 11a6 4502     		.2byte	0x245
 6339 11a8 00       		.byte	0
 6340 11a9 00       		.byte	0
 6341 11aa 2C       		.uleb128 0x2c
 6342 11ab 76040000 		.4byte	.LASF83
 6343 11af 01       		.byte	0x1
 6344 11b0 1F02     		.2byte	0x21f
 6345 11b2 01       		.byte	0x1
 6346 11b3 01       		.byte	0x1
 6347 11b4 E9110000 		.4byte	0x11e9
 6348 11b8 27       		.uleb128 0x27
 6349 11b9 9C040000 		.4byte	.LASF44
 6350 11bd 01       		.byte	0x1
 6351 11be 1F02     		.2byte	0x21f
 6352 11c0 65000000 		.4byte	0x65
 6353 11c4 27       		.uleb128 0x27
 6354 11c5 97000000 		.4byte	.LASF20
 6355 11c9 01       		.byte	0x1
 6356 11ca 1F02     		.2byte	0x21f
 6357 11cc FF000000 		.4byte	0xff
 6358 11d0 26       		.uleb128 0x26
 6359 11d1 EC020000 		.4byte	.LASF64
 6360 11d5 01       		.byte	0x1
 6361 11d6 2102     		.2byte	0x221
 6362 11d8 FF000000 		.4byte	0xff
 6363 11dc 26       		.uleb128 0x26
 6364 11dd 28050000 		.4byte	.LASF65
 6365 11e1 01       		.byte	0x1
 6366 11e2 2102     		.2byte	0x221
 6367 11e4 FF000000 		.4byte	0xff
 6368 11e8 00       		.byte	0
 6369 11e9 23       		.uleb128 0x23
 6370 11ea 3A000000 		.4byte	.LASF66
 6371 11ee 01       		.byte	0x1
 6372 11ef 1602     		.2byte	0x216
 6373 11f1 01       		.byte	0x1
 6374 11f2 33000000 		.4byte	0x33
 6375 11f6 03       		.byte	0x3
 6376 11f7 20120000 		.4byte	0x1220
 6377 11fb 27       		.uleb128 0x27
 6378 11fc 9C040000 		.4byte	.LASF44
 6379 1200 01       		.byte	0x1
 6380 1201 1602     		.2byte	0x216
 6381 1203 65000000 		.4byte	0x65
 6382 1207 27       		.uleb128 0x27
 6383 1208 97000000 		.4byte	.LASF20
 6384 120c 01       		.byte	0x1
 6385 120d 1602     		.2byte	0x216
 6386 120f FF000000 		.4byte	0xff
 6387 1213 26       		.uleb128 0x26
 6388 1214 C2000000 		.4byte	.LASF67
 6389 1218 01       		.byte	0x1
ARM GAS  G:\Users\Jaxb\AppData\Local\Temp\ccbV8Tbs.s 			page 140


 6390 1219 1A02     		.2byte	0x21a
 6391 121b 33000000 		.4byte	0x33
 6392 121f 00       		.byte	0
 6393 1220 23       		.uleb128 0x23
 6394 1221 40040000 		.4byte	.LASF68
 6395 1225 01       		.byte	0x1
 6396 1226 1102     		.2byte	0x211
 6397 1228 01       		.byte	0x1
 6398 1229 FF000000 		.4byte	0xff
 6399 122d 03       		.byte	0x3
 6400 122e 3F120000 		.4byte	0x123f
 6401 1232 2D       		.uleb128 0x2d
 6402 1233 70747200 		.ascii	"ptr\000"
 6403 1237 01       		.byte	0x1
 6404 1238 1102     		.2byte	0x211
 6405 123a AF000000 		.4byte	0xaf
 6406 123e 00       		.byte	0
 6407 123f 23       		.uleb128 0x23
 6408 1240 9A060000 		.4byte	.LASF69
 6409 1244 01       		.byte	0x1
 6410 1245 0102     		.2byte	0x201
 6411 1247 01       		.byte	0x1
 6412 1248 33000000 		.4byte	0x33
 6413 124c 01       		.byte	0x1
 6414 124d 76120000 		.4byte	0x1276
 6415 1251 27       		.uleb128 0x27
 6416 1252 9C040000 		.4byte	.LASF44
 6417 1256 01       		.byte	0x1
 6418 1257 0102     		.2byte	0x201
 6419 1259 65000000 		.4byte	0x65
 6420 125d 27       		.uleb128 0x27
 6421 125e 97000000 		.4byte	.LASF20
 6422 1262 01       		.byte	0x1
 6423 1263 0102     		.2byte	0x201
 6424 1265 FF000000 		.4byte	0xff
 6425 1269 26       		.uleb128 0x26
 6426 126a 6F040000 		.4byte	.LASF42
 6427 126e 01       		.byte	0x1
 6428 126f 0502     		.2byte	0x205
 6429 1271 48000000 		.4byte	0x48
 6430 1275 00       		.byte	0
 6431 1276 2E       		.uleb128 0x2e
 6432 1277 01       		.byte	0x1
 6433 1278 33010000 		.4byte	.LASF70
 6434 127c 01       		.byte	0x1
 6435 127d EF01     		.2byte	0x1ef
 6436 127f 01       		.byte	0x1
 6437 1280 AF000000 		.4byte	0xaf
 6438 1284 CC090000 		.4byte	.LFB28
 6439 1288 100A0000 		.4byte	.LFE28
 6440 128c E30E0000 		.4byte	.LLST87
 6441 1290 01       		.byte	0x1
 6442 1291 14130000 		.4byte	0x1314
 6443 1295 13       		.uleb128 0x13
 6444 1296 C3050000 		.4byte	.LASF54
 6445 129a 01       		.byte	0x1
 6446 129b F101     		.2byte	0x1f1
ARM GAS  G:\Users\Jaxb\AppData\Local\Temp\ccbV8Tbs.s 			page 141


 6447 129d 6C020000 		.4byte	0x26c
 6448 12a1 030F0000 		.4byte	.LLST88
 6449 12a5 12       		.uleb128 0x12
 6450 12a6 6E756D00 		.ascii	"num\000"
 6451 12aa 01       		.byte	0x1
 6452 12ab F301     		.2byte	0x1f3
 6453 12ad FF000000 		.4byte	0xff
 6454 12b1 2D0F0000 		.4byte	.LLST89
 6455 12b5 15       		.uleb128 0x15
 6456 12b6 F81B0000 		.4byte	0x1bf8
 6457 12ba F6090000 		.4byte	.LBB158
 6458 12be FE090000 		.4byte	.LBE158
 6459 12c2 01       		.byte	0x1
 6460 12c3 F901     		.2byte	0x1f9
 6461 12c5 D3120000 		.4byte	0x12d3
 6462 12c9 1D       		.uleb128 0x1d
 6463 12ca 091C0000 		.4byte	0x1c09
 6464 12ce 4B0F0000 		.4byte	.LLST90
 6465 12d2 00       		.byte	0
 6466 12d3 18       		.uleb128 0x18
 6467 12d4 D2090000 		.4byte	.LVL296
 6468 12d8 961E0000 		.4byte	0x1e96
 6469 12dc 1F       		.uleb128 0x1f
 6470 12dd DA090000 		.4byte	.LVL299
 6471 12e1 A2180000 		.4byte	0x18a2
 6472 12e5 EF120000 		.4byte	0x12ef
 6473 12e9 20       		.uleb128 0x20
 6474 12ea 01       		.byte	0x1
 6475 12eb 50       		.byte	0x50
 6476 12ec 01       		.byte	0x1
 6477 12ed 3A       		.byte	0x3a
 6478 12ee 00       		.byte	0
 6479 12ef 1F       		.uleb128 0x1f
 6480 12f0 F6090000 		.4byte	.LVL302
 6481 12f4 A31E0000 		.4byte	0x1ea3
 6482 12f8 03130000 		.4byte	0x1303
 6483 12fc 20       		.uleb128 0x20
 6484 12fd 01       		.byte	0x1
 6485 12fe 50       		.byte	0x50
 6486 12ff 02       		.byte	0x2
 6487 1300 76       		.byte	0x76
 6488 1301 00       		.sleb128 0
 6489 1302 00       		.byte	0
 6490 1303 21       		.uleb128 0x21
 6491 1304 060A0000 		.4byte	.LVL306
 6492 1308 A31E0000 		.4byte	0x1ea3
 6493 130c 20       		.uleb128 0x20
 6494 130d 01       		.byte	0x1
 6495 130e 50       		.byte	0x50
 6496 130f 02       		.byte	0x2
 6497 1310 76       		.byte	0x76
 6498 1311 00       		.sleb128 0
 6499 1312 00       		.byte	0
 6500 1313 00       		.byte	0
 6501 1314 2E       		.uleb128 0x2e
 6502 1315 01       		.byte	0x1
 6503 1316 DF010000 		.4byte	.LASF71
ARM GAS  G:\Users\Jaxb\AppData\Local\Temp\ccbV8Tbs.s 			page 142


 6504 131a 01       		.byte	0x1
 6505 131b DF01     		.2byte	0x1df
 6506 131d 01       		.byte	0x1
 6507 131e AF000000 		.4byte	0xaf
 6508 1322 88090000 		.4byte	.LFB27
 6509 1326 CC090000 		.4byte	.LFE27
 6510 132a 5E0F0000 		.4byte	.LLST83
 6511 132e 01       		.byte	0x1
 6512 132f B2130000 		.4byte	0x13b2
 6513 1333 13       		.uleb128 0x13
 6514 1334 C3050000 		.4byte	.LASF54
 6515 1338 01       		.byte	0x1
 6516 1339 E101     		.2byte	0x1e1
 6517 133b 6C020000 		.4byte	0x26c
 6518 133f 7E0F0000 		.4byte	.LLST84
 6519 1343 12       		.uleb128 0x12
 6520 1344 6E756D00 		.ascii	"num\000"
 6521 1348 01       		.byte	0x1
 6522 1349 E301     		.2byte	0x1e3
 6523 134b FF000000 		.4byte	0xff
 6524 134f A80F0000 		.4byte	.LLST85
 6525 1353 15       		.uleb128 0x15
 6526 1354 F81B0000 		.4byte	0x1bf8
 6527 1358 B2090000 		.4byte	.LBB156
 6528 135c BA090000 		.4byte	.LBE156
 6529 1360 01       		.byte	0x1
 6530 1361 E901     		.2byte	0x1e9
 6531 1363 71130000 		.4byte	0x1371
 6532 1367 1D       		.uleb128 0x1d
 6533 1368 091C0000 		.4byte	0x1c09
 6534 136c C60F0000 		.4byte	.LLST86
 6535 1370 00       		.byte	0
 6536 1371 18       		.uleb128 0x18
 6537 1372 8E090000 		.4byte	.LVL283
 6538 1376 961E0000 		.4byte	0x1e96
 6539 137a 1F       		.uleb128 0x1f
 6540 137b 96090000 		.4byte	.LVL286
 6541 137f A2180000 		.4byte	0x18a2
 6542 1383 8D130000 		.4byte	0x138d
 6543 1387 20       		.uleb128 0x20
 6544 1388 01       		.byte	0x1
 6545 1389 50       		.byte	0x50
 6546 138a 01       		.byte	0x1
 6547 138b 39       		.byte	0x39
 6548 138c 00       		.byte	0
 6549 138d 1F       		.uleb128 0x1f
 6550 138e B2090000 		.4byte	.LVL289
 6551 1392 A31E0000 		.4byte	0x1ea3
 6552 1396 A1130000 		.4byte	0x13a1
 6553 139a 20       		.uleb128 0x20
 6554 139b 01       		.byte	0x1
 6555 139c 50       		.byte	0x50
 6556 139d 02       		.byte	0x2
 6557 139e 76       		.byte	0x76
 6558 139f 00       		.sleb128 0
 6559 13a0 00       		.byte	0
 6560 13a1 21       		.uleb128 0x21
ARM GAS  G:\Users\Jaxb\AppData\Local\Temp\ccbV8Tbs.s 			page 143


 6561 13a2 C2090000 		.4byte	.LVL293
 6562 13a6 A31E0000 		.4byte	0x1ea3
 6563 13aa 20       		.uleb128 0x20
 6564 13ab 01       		.byte	0x1
 6565 13ac 50       		.byte	0x50
 6566 13ad 02       		.byte	0x2
 6567 13ae 76       		.byte	0x76
 6568 13af 00       		.sleb128 0
 6569 13b0 00       		.byte	0
 6570 13b1 00       		.byte	0
 6571 13b2 2E       		.uleb128 0x2e
 6572 13b3 01       		.byte	0x1
 6573 13b4 D6030000 		.4byte	.LASF72
 6574 13b8 01       		.byte	0x1
 6575 13b9 CF01     		.2byte	0x1cf
 6576 13bb 01       		.byte	0x1
 6577 13bc AF000000 		.4byte	0xaf
 6578 13c0 48090000 		.4byte	.LFB26
 6579 13c4 88090000 		.4byte	.LFE26
 6580 13c8 D90F0000 		.4byte	.LLST79
 6581 13cc 01       		.byte	0x1
 6582 13cd 50140000 		.4byte	0x1450
 6583 13d1 13       		.uleb128 0x13
 6584 13d2 C3050000 		.4byte	.LASF54
 6585 13d6 01       		.byte	0x1
 6586 13d7 D101     		.2byte	0x1d1
 6587 13d9 6C020000 		.4byte	0x26c
 6588 13dd F90F0000 		.4byte	.LLST80
 6589 13e1 12       		.uleb128 0x12
 6590 13e2 6E756D00 		.ascii	"num\000"
 6591 13e6 01       		.byte	0x1
 6592 13e7 D301     		.2byte	0x1d3
 6593 13e9 FF000000 		.4byte	0xff
 6594 13ed 23100000 		.4byte	.LLST81
 6595 13f1 15       		.uleb128 0x15
 6596 13f2 F81B0000 		.4byte	0x1bf8
 6597 13f6 70090000 		.4byte	.LBB154
 6598 13fa 78090000 		.4byte	.LBE154
 6599 13fe 01       		.byte	0x1
 6600 13ff D901     		.2byte	0x1d9
 6601 1401 0F140000 		.4byte	0x140f
 6602 1405 1D       		.uleb128 0x1d
 6603 1406 091C0000 		.4byte	0x1c09
 6604 140a 41100000 		.4byte	.LLST82
 6605 140e 00       		.byte	0
 6606 140f 18       		.uleb128 0x18
 6607 1410 4E090000 		.4byte	.LVL270
 6608 1414 961E0000 		.4byte	0x1e96
 6609 1418 1F       		.uleb128 0x1f
 6610 1419 56090000 		.4byte	.LVL273
 6611 141d A2180000 		.4byte	0x18a2
 6612 1421 2B140000 		.4byte	0x142b
 6613 1425 20       		.uleb128 0x20
 6614 1426 01       		.byte	0x1
 6615 1427 50       		.byte	0x50
 6616 1428 01       		.byte	0x1
 6617 1429 38       		.byte	0x38
ARM GAS  G:\Users\Jaxb\AppData\Local\Temp\ccbV8Tbs.s 			page 144


 6618 142a 00       		.byte	0
 6619 142b 1F       		.uleb128 0x1f
 6620 142c 70090000 		.4byte	.LVL276
 6621 1430 A31E0000 		.4byte	0x1ea3
 6622 1434 3F140000 		.4byte	0x143f
 6623 1438 20       		.uleb128 0x20
 6624 1439 01       		.byte	0x1
 6625 143a 50       		.byte	0x50
 6626 143b 02       		.byte	0x2
 6627 143c 76       		.byte	0x76
 6628 143d 00       		.sleb128 0
 6629 143e 00       		.byte	0
 6630 143f 21       		.uleb128 0x21
 6631 1440 80090000 		.4byte	.LVL280
 6632 1444 A31E0000 		.4byte	0x1ea3
 6633 1448 20       		.uleb128 0x20
 6634 1449 01       		.byte	0x1
 6635 144a 50       		.byte	0x50
 6636 144b 02       		.byte	0x2
 6637 144c 76       		.byte	0x76
 6638 144d 00       		.sleb128 0
 6639 144e 00       		.byte	0
 6640 144f 00       		.byte	0
 6641 1450 2E       		.uleb128 0x2e
 6642 1451 01       		.byte	0x1
 6643 1452 5E020000 		.4byte	.LASF73
 6644 1456 01       		.byte	0x1
 6645 1457 BF01     		.2byte	0x1bf
 6646 1459 01       		.byte	0x1
 6647 145a AF000000 		.4byte	0xaf
 6648 145e 08090000 		.4byte	.LFB25
 6649 1462 48090000 		.4byte	.LFE25
 6650 1466 54100000 		.4byte	.LLST75
 6651 146a 01       		.byte	0x1
 6652 146b EE140000 		.4byte	0x14ee
 6653 146f 13       		.uleb128 0x13
 6654 1470 C3050000 		.4byte	.LASF54
 6655 1474 01       		.byte	0x1
 6656 1475 C101     		.2byte	0x1c1
 6657 1477 6C020000 		.4byte	0x26c
 6658 147b 74100000 		.4byte	.LLST76
 6659 147f 12       		.uleb128 0x12
 6660 1480 6E756D00 		.ascii	"num\000"
 6661 1484 01       		.byte	0x1
 6662 1485 C301     		.2byte	0x1c3
 6663 1487 FF000000 		.4byte	0xff
 6664 148b 9E100000 		.4byte	.LLST77
 6665 148f 15       		.uleb128 0x15
 6666 1490 F81B0000 		.4byte	0x1bf8
 6667 1494 30090000 		.4byte	.LBB152
 6668 1498 38090000 		.4byte	.LBE152
 6669 149c 01       		.byte	0x1
 6670 149d C901     		.2byte	0x1c9
 6671 149f AD140000 		.4byte	0x14ad
 6672 14a3 1D       		.uleb128 0x1d
 6673 14a4 091C0000 		.4byte	0x1c09
 6674 14a8 BC100000 		.4byte	.LLST78
ARM GAS  G:\Users\Jaxb\AppData\Local\Temp\ccbV8Tbs.s 			page 145


 6675 14ac 00       		.byte	0
 6676 14ad 18       		.uleb128 0x18
 6677 14ae 0E090000 		.4byte	.LVL257
 6678 14b2 961E0000 		.4byte	0x1e96
 6679 14b6 1F       		.uleb128 0x1f
 6680 14b7 16090000 		.4byte	.LVL260
 6681 14bb A2180000 		.4byte	0x18a2
 6682 14bf C9140000 		.4byte	0x14c9
 6683 14c3 20       		.uleb128 0x20
 6684 14c4 01       		.byte	0x1
 6685 14c5 50       		.byte	0x50
 6686 14c6 01       		.byte	0x1
 6687 14c7 37       		.byte	0x37
 6688 14c8 00       		.byte	0
 6689 14c9 1F       		.uleb128 0x1f
 6690 14ca 30090000 		.4byte	.LVL263
 6691 14ce A31E0000 		.4byte	0x1ea3
 6692 14d2 DD140000 		.4byte	0x14dd
 6693 14d6 20       		.uleb128 0x20
 6694 14d7 01       		.byte	0x1
 6695 14d8 50       		.byte	0x50
 6696 14d9 02       		.byte	0x2
 6697 14da 76       		.byte	0x76
 6698 14db 00       		.sleb128 0
 6699 14dc 00       		.byte	0
 6700 14dd 21       		.uleb128 0x21
 6701 14de 40090000 		.4byte	.LVL267
 6702 14e2 A31E0000 		.4byte	0x1ea3
 6703 14e6 20       		.uleb128 0x20
 6704 14e7 01       		.byte	0x1
 6705 14e8 50       		.byte	0x50
 6706 14e9 02       		.byte	0x2
 6707 14ea 76       		.byte	0x76
 6708 14eb 00       		.sleb128 0
 6709 14ec 00       		.byte	0
 6710 14ed 00       		.byte	0
 6711 14ee 2E       		.uleb128 0x2e
 6712 14ef 01       		.byte	0x1
 6713 14f0 22020000 		.4byte	.LASF74
 6714 14f4 01       		.byte	0x1
 6715 14f5 AF01     		.2byte	0x1af
 6716 14f7 01       		.byte	0x1
 6717 14f8 AF000000 		.4byte	0xaf
 6718 14fc C8080000 		.4byte	.LFB24
 6719 1500 08090000 		.4byte	.LFE24
 6720 1504 CF100000 		.4byte	.LLST71
 6721 1508 01       		.byte	0x1
 6722 1509 8C150000 		.4byte	0x158c
 6723 150d 13       		.uleb128 0x13
 6724 150e C3050000 		.4byte	.LASF54
 6725 1512 01       		.byte	0x1
 6726 1513 B101     		.2byte	0x1b1
 6727 1515 6C020000 		.4byte	0x26c
 6728 1519 EF100000 		.4byte	.LLST72
 6729 151d 12       		.uleb128 0x12
 6730 151e 6E756D00 		.ascii	"num\000"
 6731 1522 01       		.byte	0x1
ARM GAS  G:\Users\Jaxb\AppData\Local\Temp\ccbV8Tbs.s 			page 146


 6732 1523 B301     		.2byte	0x1b3
 6733 1525 FF000000 		.4byte	0xff
 6734 1529 19110000 		.4byte	.LLST73
 6735 152d 15       		.uleb128 0x15
 6736 152e F81B0000 		.4byte	0x1bf8
 6737 1532 F0080000 		.4byte	.LBB150
 6738 1536 F8080000 		.4byte	.LBE150
 6739 153a 01       		.byte	0x1
 6740 153b B901     		.2byte	0x1b9
 6741 153d 4B150000 		.4byte	0x154b
 6742 1541 1D       		.uleb128 0x1d
 6743 1542 091C0000 		.4byte	0x1c09
 6744 1546 37110000 		.4byte	.LLST74
 6745 154a 00       		.byte	0
 6746 154b 18       		.uleb128 0x18
 6747 154c CE080000 		.4byte	.LVL244
 6748 1550 961E0000 		.4byte	0x1e96
 6749 1554 1F       		.uleb128 0x1f
 6750 1555 D6080000 		.4byte	.LVL247
 6751 1559 A2180000 		.4byte	0x18a2
 6752 155d 67150000 		.4byte	0x1567
 6753 1561 20       		.uleb128 0x20
 6754 1562 01       		.byte	0x1
 6755 1563 50       		.byte	0x50
 6756 1564 01       		.byte	0x1
 6757 1565 36       		.byte	0x36
 6758 1566 00       		.byte	0
 6759 1567 1F       		.uleb128 0x1f
 6760 1568 F0080000 		.4byte	.LVL250
 6761 156c A31E0000 		.4byte	0x1ea3
 6762 1570 7B150000 		.4byte	0x157b
 6763 1574 20       		.uleb128 0x20
 6764 1575 01       		.byte	0x1
 6765 1576 50       		.byte	0x50
 6766 1577 02       		.byte	0x2
 6767 1578 76       		.byte	0x76
 6768 1579 00       		.sleb128 0
 6769 157a 00       		.byte	0
 6770 157b 21       		.uleb128 0x21
 6771 157c 00090000 		.4byte	.LVL254
 6772 1580 A31E0000 		.4byte	0x1ea3
 6773 1584 20       		.uleb128 0x20
 6774 1585 01       		.byte	0x1
 6775 1586 50       		.byte	0x50
 6776 1587 02       		.byte	0x2
 6777 1588 76       		.byte	0x76
 6778 1589 00       		.sleb128 0
 6779 158a 00       		.byte	0
 6780 158b 00       		.byte	0
 6781 158c 2E       		.uleb128 0x2e
 6782 158d 01       		.byte	0x1
 6783 158e 88060000 		.4byte	.LASF75
 6784 1592 01       		.byte	0x1
 6785 1593 9F01     		.2byte	0x19f
 6786 1595 01       		.byte	0x1
 6787 1596 AF000000 		.4byte	0xaf
 6788 159a 88080000 		.4byte	.LFB23
ARM GAS  G:\Users\Jaxb\AppData\Local\Temp\ccbV8Tbs.s 			page 147


 6789 159e C8080000 		.4byte	.LFE23
 6790 15a2 4A110000 		.4byte	.LLST67
 6791 15a6 01       		.byte	0x1
 6792 15a7 2A160000 		.4byte	0x162a
 6793 15ab 13       		.uleb128 0x13
 6794 15ac C3050000 		.4byte	.LASF54
 6795 15b0 01       		.byte	0x1
 6796 15b1 A101     		.2byte	0x1a1
 6797 15b3 6C020000 		.4byte	0x26c
 6798 15b7 6A110000 		.4byte	.LLST68
 6799 15bb 12       		.uleb128 0x12
 6800 15bc 6E756D00 		.ascii	"num\000"
 6801 15c0 01       		.byte	0x1
 6802 15c1 A301     		.2byte	0x1a3
 6803 15c3 FF000000 		.4byte	0xff
 6804 15c7 94110000 		.4byte	.LLST69
 6805 15cb 15       		.uleb128 0x15
 6806 15cc F81B0000 		.4byte	0x1bf8
 6807 15d0 B0080000 		.4byte	.LBB148
 6808 15d4 B8080000 		.4byte	.LBE148
 6809 15d8 01       		.byte	0x1
 6810 15d9 A901     		.2byte	0x1a9
 6811 15db E9150000 		.4byte	0x15e9
 6812 15df 1D       		.uleb128 0x1d
 6813 15e0 091C0000 		.4byte	0x1c09
 6814 15e4 B2110000 		.4byte	.LLST70
 6815 15e8 00       		.byte	0
 6816 15e9 18       		.uleb128 0x18
 6817 15ea 8E080000 		.4byte	.LVL231
 6818 15ee 961E0000 		.4byte	0x1e96
 6819 15f2 1F       		.uleb128 0x1f
 6820 15f3 96080000 		.4byte	.LVL234
 6821 15f7 A2180000 		.4byte	0x18a2
 6822 15fb 05160000 		.4byte	0x1605
 6823 15ff 20       		.uleb128 0x20
 6824 1600 01       		.byte	0x1
 6825 1601 50       		.byte	0x50
 6826 1602 01       		.byte	0x1
 6827 1603 35       		.byte	0x35
 6828 1604 00       		.byte	0
 6829 1605 1F       		.uleb128 0x1f
 6830 1606 B0080000 		.4byte	.LVL237
 6831 160a A31E0000 		.4byte	0x1ea3
 6832 160e 19160000 		.4byte	0x1619
 6833 1612 20       		.uleb128 0x20
 6834 1613 01       		.byte	0x1
 6835 1614 50       		.byte	0x50
 6836 1615 02       		.byte	0x2
 6837 1616 76       		.byte	0x76
 6838 1617 00       		.sleb128 0
 6839 1618 00       		.byte	0
 6840 1619 21       		.uleb128 0x21
 6841 161a C0080000 		.4byte	.LVL241
 6842 161e A31E0000 		.4byte	0x1ea3
 6843 1622 20       		.uleb128 0x20
 6844 1623 01       		.byte	0x1
 6845 1624 50       		.byte	0x50
ARM GAS  G:\Users\Jaxb\AppData\Local\Temp\ccbV8Tbs.s 			page 148


 6846 1625 02       		.byte	0x2
 6847 1626 76       		.byte	0x76
 6848 1627 00       		.sleb128 0
 6849 1628 00       		.byte	0
 6850 1629 00       		.byte	0
 6851 162a 2E       		.uleb128 0x2e
 6852 162b 01       		.byte	0x1
 6853 162c 70020000 		.4byte	.LASF76
 6854 1630 01       		.byte	0x1
 6855 1631 8F01     		.2byte	0x18f
 6856 1633 01       		.byte	0x1
 6857 1634 AF000000 		.4byte	0xaf
 6858 1638 48080000 		.4byte	.LFB22
 6859 163c 88080000 		.4byte	.LFE22
 6860 1640 C5110000 		.4byte	.LLST63
 6861 1644 01       		.byte	0x1
 6862 1645 C8160000 		.4byte	0x16c8
 6863 1649 13       		.uleb128 0x13
 6864 164a C3050000 		.4byte	.LASF54
 6865 164e 01       		.byte	0x1
 6866 164f 9101     		.2byte	0x191
 6867 1651 6C020000 		.4byte	0x26c
 6868 1655 E5110000 		.4byte	.LLST64
 6869 1659 12       		.uleb128 0x12
 6870 165a 6E756D00 		.ascii	"num\000"
 6871 165e 01       		.byte	0x1
 6872 165f 9301     		.2byte	0x193
 6873 1661 FF000000 		.4byte	0xff
 6874 1665 0F120000 		.4byte	.LLST65
 6875 1669 15       		.uleb128 0x15
 6876 166a F81B0000 		.4byte	0x1bf8
 6877 166e 70080000 		.4byte	.LBB146
 6878 1672 78080000 		.4byte	.LBE146
 6879 1676 01       		.byte	0x1
 6880 1677 9901     		.2byte	0x199
 6881 1679 87160000 		.4byte	0x1687
 6882 167d 1D       		.uleb128 0x1d
 6883 167e 091C0000 		.4byte	0x1c09
 6884 1682 2D120000 		.4byte	.LLST66
 6885 1686 00       		.byte	0
 6886 1687 18       		.uleb128 0x18
 6887 1688 4E080000 		.4byte	.LVL218
 6888 168c 961E0000 		.4byte	0x1e96
 6889 1690 1F       		.uleb128 0x1f
 6890 1691 56080000 		.4byte	.LVL221
 6891 1695 A2180000 		.4byte	0x18a2
 6892 1699 A3160000 		.4byte	0x16a3
 6893 169d 20       		.uleb128 0x20
 6894 169e 01       		.byte	0x1
 6895 169f 50       		.byte	0x50
 6896 16a0 01       		.byte	0x1
 6897 16a1 34       		.byte	0x34
 6898 16a2 00       		.byte	0
 6899 16a3 1F       		.uleb128 0x1f
 6900 16a4 70080000 		.4byte	.LVL224
 6901 16a8 A31E0000 		.4byte	0x1ea3
 6902 16ac B7160000 		.4byte	0x16b7
ARM GAS  G:\Users\Jaxb\AppData\Local\Temp\ccbV8Tbs.s 			page 149


 6903 16b0 20       		.uleb128 0x20
 6904 16b1 01       		.byte	0x1
 6905 16b2 50       		.byte	0x50
 6906 16b3 02       		.byte	0x2
 6907 16b4 76       		.byte	0x76
 6908 16b5 00       		.sleb128 0
 6909 16b6 00       		.byte	0
 6910 16b7 21       		.uleb128 0x21
 6911 16b8 80080000 		.4byte	.LVL228
 6912 16bc A31E0000 		.4byte	0x1ea3
 6913 16c0 20       		.uleb128 0x20
 6914 16c1 01       		.byte	0x1
 6915 16c2 50       		.byte	0x50
 6916 16c3 02       		.byte	0x2
 6917 16c4 76       		.byte	0x76
 6918 16c5 00       		.sleb128 0
 6919 16c6 00       		.byte	0
 6920 16c7 00       		.byte	0
 6921 16c8 2E       		.uleb128 0x2e
 6922 16c9 01       		.byte	0x1
 6923 16ca 95020000 		.4byte	.LASF77
 6924 16ce 01       		.byte	0x1
 6925 16cf 7F01     		.2byte	0x17f
 6926 16d1 01       		.byte	0x1
 6927 16d2 AF000000 		.4byte	0xaf
 6928 16d6 08080000 		.4byte	.LFB21
 6929 16da 48080000 		.4byte	.LFE21
 6930 16de 40120000 		.4byte	.LLST59
 6931 16e2 01       		.byte	0x1
 6932 16e3 66170000 		.4byte	0x1766
 6933 16e7 13       		.uleb128 0x13
 6934 16e8 C3050000 		.4byte	.LASF54
 6935 16ec 01       		.byte	0x1
 6936 16ed 8101     		.2byte	0x181
 6937 16ef 6C020000 		.4byte	0x26c
 6938 16f3 60120000 		.4byte	.LLST60
 6939 16f7 12       		.uleb128 0x12
 6940 16f8 6E756D00 		.ascii	"num\000"
 6941 16fc 01       		.byte	0x1
 6942 16fd 8301     		.2byte	0x183
 6943 16ff FF000000 		.4byte	0xff
 6944 1703 8A120000 		.4byte	.LLST61
 6945 1707 15       		.uleb128 0x15
 6946 1708 F81B0000 		.4byte	0x1bf8
 6947 170c 30080000 		.4byte	.LBB144
 6948 1710 38080000 		.4byte	.LBE144
 6949 1714 01       		.byte	0x1
 6950 1715 8901     		.2byte	0x189
 6951 1717 25170000 		.4byte	0x1725
 6952 171b 1D       		.uleb128 0x1d
 6953 171c 091C0000 		.4byte	0x1c09
 6954 1720 A8120000 		.4byte	.LLST62
 6955 1724 00       		.byte	0
 6956 1725 18       		.uleb128 0x18
 6957 1726 0E080000 		.4byte	.LVL205
 6958 172a 961E0000 		.4byte	0x1e96
 6959 172e 1F       		.uleb128 0x1f
ARM GAS  G:\Users\Jaxb\AppData\Local\Temp\ccbV8Tbs.s 			page 150


 6960 172f 16080000 		.4byte	.LVL208
 6961 1733 A2180000 		.4byte	0x18a2
 6962 1737 41170000 		.4byte	0x1741
 6963 173b 20       		.uleb128 0x20
 6964 173c 01       		.byte	0x1
 6965 173d 50       		.byte	0x50
 6966 173e 01       		.byte	0x1
 6967 173f 33       		.byte	0x33
 6968 1740 00       		.byte	0
 6969 1741 1F       		.uleb128 0x1f
 6970 1742 30080000 		.4byte	.LVL211
 6971 1746 A31E0000 		.4byte	0x1ea3
 6972 174a 55170000 		.4byte	0x1755
 6973 174e 20       		.uleb128 0x20
 6974 174f 01       		.byte	0x1
 6975 1750 50       		.byte	0x50
 6976 1751 02       		.byte	0x2
 6977 1752 76       		.byte	0x76
 6978 1753 00       		.sleb128 0
 6979 1754 00       		.byte	0
 6980 1755 21       		.uleb128 0x21
 6981 1756 40080000 		.4byte	.LVL215
 6982 175a A31E0000 		.4byte	0x1ea3
 6983 175e 20       		.uleb128 0x20
 6984 175f 01       		.byte	0x1
 6985 1760 50       		.byte	0x50
 6986 1761 02       		.byte	0x2
 6987 1762 76       		.byte	0x76
 6988 1763 00       		.sleb128 0
 6989 1764 00       		.byte	0
 6990 1765 00       		.byte	0
 6991 1766 2E       		.uleb128 0x2e
 6992 1767 01       		.byte	0x1
 6993 1768 16050000 		.4byte	.LASF78
 6994 176c 01       		.byte	0x1
 6995 176d 6F01     		.2byte	0x16f
 6996 176f 01       		.byte	0x1
 6997 1770 AF000000 		.4byte	0xaf
 6998 1774 C8070000 		.4byte	.LFB20
 6999 1778 08080000 		.4byte	.LFE20
 7000 177c BB120000 		.4byte	.LLST55
 7001 1780 01       		.byte	0x1
 7002 1781 04180000 		.4byte	0x1804
 7003 1785 13       		.uleb128 0x13
 7004 1786 C3050000 		.4byte	.LASF54
 7005 178a 01       		.byte	0x1
 7006 178b 7101     		.2byte	0x171
 7007 178d 6C020000 		.4byte	0x26c
 7008 1791 DB120000 		.4byte	.LLST56
 7009 1795 12       		.uleb128 0x12
 7010 1796 6E756D00 		.ascii	"num\000"
 7011 179a 01       		.byte	0x1
 7012 179b 7301     		.2byte	0x173
 7013 179d FF000000 		.4byte	0xff
 7014 17a1 05130000 		.4byte	.LLST57
 7015 17a5 15       		.uleb128 0x15
 7016 17a6 F81B0000 		.4byte	0x1bf8
ARM GAS  G:\Users\Jaxb\AppData\Local\Temp\ccbV8Tbs.s 			page 151


 7017 17aa F0070000 		.4byte	.LBB142
 7018 17ae F8070000 		.4byte	.LBE142
 7019 17b2 01       		.byte	0x1
 7020 17b3 7901     		.2byte	0x179
 7021 17b5 C3170000 		.4byte	0x17c3
 7022 17b9 1D       		.uleb128 0x1d
 7023 17ba 091C0000 		.4byte	0x1c09
 7024 17be 23130000 		.4byte	.LLST58
 7025 17c2 00       		.byte	0
 7026 17c3 18       		.uleb128 0x18
 7027 17c4 CE070000 		.4byte	.LVL192
 7028 17c8 961E0000 		.4byte	0x1e96
 7029 17cc 1F       		.uleb128 0x1f
 7030 17cd D6070000 		.4byte	.LVL195
 7031 17d1 A2180000 		.4byte	0x18a2
 7032 17d5 DF170000 		.4byte	0x17df
 7033 17d9 20       		.uleb128 0x20
 7034 17da 01       		.byte	0x1
 7035 17db 50       		.byte	0x50
 7036 17dc 01       		.byte	0x1
 7037 17dd 32       		.byte	0x32
 7038 17de 00       		.byte	0
 7039 17df 1F       		.uleb128 0x1f
 7040 17e0 F0070000 		.4byte	.LVL198
 7041 17e4 A31E0000 		.4byte	0x1ea3
 7042 17e8 F3170000 		.4byte	0x17f3
 7043 17ec 20       		.uleb128 0x20
 7044 17ed 01       		.byte	0x1
 7045 17ee 50       		.byte	0x50
 7046 17ef 02       		.byte	0x2
 7047 17f0 76       		.byte	0x76
 7048 17f1 00       		.sleb128 0
 7049 17f2 00       		.byte	0
 7050 17f3 21       		.uleb128 0x21
 7051 17f4 00080000 		.4byte	.LVL202
 7052 17f8 A31E0000 		.4byte	0x1ea3
 7053 17fc 20       		.uleb128 0x20
 7054 17fd 01       		.byte	0x1
 7055 17fe 50       		.byte	0x50
 7056 17ff 02       		.byte	0x2
 7057 1800 76       		.byte	0x76
 7058 1801 00       		.sleb128 0
 7059 1802 00       		.byte	0
 7060 1803 00       		.byte	0
 7061 1804 2E       		.uleb128 0x2e
 7062 1805 01       		.byte	0x1
 7063 1806 21010000 		.4byte	.LASF79
 7064 180a 01       		.byte	0x1
 7065 180b 5F01     		.2byte	0x15f
 7066 180d 01       		.byte	0x1
 7067 180e AF000000 		.4byte	0xaf
 7068 1812 88070000 		.4byte	.LFB19
 7069 1816 C8070000 		.4byte	.LFE19
 7070 181a 36130000 		.4byte	.LLST51
 7071 181e 01       		.byte	0x1
 7072 181f A2180000 		.4byte	0x18a2
 7073 1823 13       		.uleb128 0x13
ARM GAS  G:\Users\Jaxb\AppData\Local\Temp\ccbV8Tbs.s 			page 152


 7074 1824 C3050000 		.4byte	.LASF54
 7075 1828 01       		.byte	0x1
 7076 1829 6101     		.2byte	0x161
 7077 182b 6C020000 		.4byte	0x26c
 7078 182f 56130000 		.4byte	.LLST52
 7079 1833 12       		.uleb128 0x12
 7080 1834 6E756D00 		.ascii	"num\000"
 7081 1838 01       		.byte	0x1
 7082 1839 6301     		.2byte	0x163
 7083 183b FF000000 		.4byte	0xff
 7084 183f 80130000 		.4byte	.LLST53
 7085 1843 15       		.uleb128 0x15
 7086 1844 F81B0000 		.4byte	0x1bf8
 7087 1848 B0070000 		.4byte	.LBB140
 7088 184c B8070000 		.4byte	.LBE140
 7089 1850 01       		.byte	0x1
 7090 1851 6901     		.2byte	0x169
 7091 1853 61180000 		.4byte	0x1861
 7092 1857 1D       		.uleb128 0x1d
 7093 1858 091C0000 		.4byte	0x1c09
 7094 185c 9E130000 		.4byte	.LLST54
 7095 1860 00       		.byte	0
 7096 1861 18       		.uleb128 0x18
 7097 1862 8E070000 		.4byte	.LVL179
 7098 1866 961E0000 		.4byte	0x1e96
 7099 186a 1F       		.uleb128 0x1f
 7100 186b 96070000 		.4byte	.LVL182
 7101 186f A2180000 		.4byte	0x18a2
 7102 1873 7D180000 		.4byte	0x187d
 7103 1877 20       		.uleb128 0x20
 7104 1878 01       		.byte	0x1
 7105 1879 50       		.byte	0x50
 7106 187a 01       		.byte	0x1
 7107 187b 31       		.byte	0x31
 7108 187c 00       		.byte	0
 7109 187d 1F       		.uleb128 0x1f
 7110 187e B0070000 		.4byte	.LVL185
 7111 1882 A31E0000 		.4byte	0x1ea3
 7112 1886 91180000 		.4byte	0x1891
 7113 188a 20       		.uleb128 0x20
 7114 188b 01       		.byte	0x1
 7115 188c 50       		.byte	0x50
 7116 188d 02       		.byte	0x2
 7117 188e 76       		.byte	0x76
 7118 188f 00       		.sleb128 0
 7119 1890 00       		.byte	0
 7120 1891 21       		.uleb128 0x21
 7121 1892 C0070000 		.4byte	.LVL189
 7122 1896 A31E0000 		.4byte	0x1ea3
 7123 189a 20       		.uleb128 0x20
 7124 189b 01       		.byte	0x1
 7125 189c 50       		.byte	0x50
 7126 189d 02       		.byte	0x2
 7127 189e 76       		.byte	0x76
 7128 189f 00       		.sleb128 0
 7129 18a0 00       		.byte	0
 7130 18a1 00       		.byte	0
ARM GAS  G:\Users\Jaxb\AppData\Local\Temp\ccbV8Tbs.s 			page 153


 7131 18a2 2F       		.uleb128 0x2f
 7132 18a3 2E070000 		.4byte	.LASF112
 7133 18a7 01       		.byte	0x1
 7134 18a8 4201     		.2byte	0x142
 7135 18aa 01       		.byte	0x1
 7136 18ab FF000000 		.4byte	0xff
 7137 18af 28010000 		.4byte	.LFB18
 7138 18b3 EC010000 		.4byte	.LFE18
 7139 18b7 B1130000 		.4byte	.LLST9
 7140 18bb 01       		.byte	0x1
 7141 18bc B2190000 		.4byte	0x19b2
 7142 18c0 11       		.uleb128 0x11
 7143 18c1 9C040000 		.4byte	.LASF44
 7144 18c5 01       		.byte	0x1
 7145 18c6 4201     		.2byte	0x142
 7146 18c8 65000000 		.4byte	0x65
 7147 18cc D1130000 		.4byte	.LLST10
 7148 18d0 13       		.uleb128 0x13
 7149 18d1 6F040000 		.4byte	.LASF42
 7150 18d5 01       		.byte	0x1
 7151 18d6 4501     		.2byte	0x145
 7152 18d8 FF000000 		.4byte	0xff
 7153 18dc 05140000 		.4byte	.LLST11
 7154 18e0 30       		.uleb128 0x30
 7155 18e1 20000000 		.4byte	.Ldebug_ranges0+0x20
 7156 18e5 4A190000 		.4byte	0x194a
 7157 18e9 13       		.uleb128 0x13
 7158 18ea C2000000 		.4byte	.LASF67
 7159 18ee 01       		.byte	0x1
 7160 18ef 4801     		.2byte	0x148
 7161 18f1 FF000000 		.4byte	0xff
 7162 18f5 23140000 		.4byte	.LLST12
 7163 18f9 31       		.uleb128 0x31
 7164 18fa 621B0000 		.4byte	0x1b62
 7165 18fe 8A010000 		.4byte	.LBB52
 7166 1902 38000000 		.4byte	.Ldebug_ranges0+0x38
 7167 1906 01       		.byte	0x1
 7168 1907 4B01     		.2byte	0x14b
 7169 1909 1D       		.uleb128 0x1d
 7170 190a 6F1B0000 		.4byte	0x1b6f
 7171 190e 41140000 		.4byte	.LLST13
 7172 1912 1F       		.uleb128 0x1f
 7173 1913 BE010000 		.4byte	.LVL39
 7174 1917 B01E0000 		.4byte	0x1eb0
 7175 191b 2F190000 		.4byte	0x192f
 7176 191f 20       		.uleb128 0x20
 7177 1920 01       		.byte	0x1
 7178 1921 50       		.byte	0x50
 7179 1922 05       		.byte	0x5
 7180 1923 03       		.byte	0x3
 7181 1924 00000000 		.4byte	.LC0
 7182 1928 20       		.uleb128 0x20
 7183 1929 01       		.byte	0x1
 7184 192a 51       		.byte	0x51
 7185 192b 02       		.byte	0x2
 7186 192c 08       		.byte	0x8
 7187 192d 9D       		.byte	0x9d
ARM GAS  G:\Users\Jaxb\AppData\Local\Temp\ccbV8Tbs.s 			page 154


 7188 192e 00       		.byte	0
 7189 192f 21       		.uleb128 0x21
 7190 1930 E0010000 		.4byte	.LVL43
 7191 1934 B01E0000 		.4byte	0x1eb0
 7192 1938 20       		.uleb128 0x20
 7193 1939 01       		.byte	0x1
 7194 193a 50       		.byte	0x50
 7195 193b 05       		.byte	0x5
 7196 193c 03       		.byte	0x3
 7197 193d 00000000 		.4byte	.LC0
 7198 1941 20       		.uleb128 0x20
 7199 1942 01       		.byte	0x1
 7200 1943 51       		.byte	0x51
 7201 1944 02       		.byte	0x2
 7202 1945 08       		.byte	0x8
 7203 1946 9C       		.byte	0x9c
 7204 1947 00       		.byte	0
 7205 1948 00       		.byte	0
 7206 1949 00       		.byte	0
 7207 194a 1F       		.uleb128 0x1f
 7208 194b 66010000 		.4byte	.LVL31
 7209 194f B01E0000 		.4byte	0x1eb0
 7210 1953 68190000 		.4byte	0x1968
 7211 1957 20       		.uleb128 0x20
 7212 1958 01       		.byte	0x1
 7213 1959 50       		.byte	0x50
 7214 195a 05       		.byte	0x5
 7215 195b 03       		.byte	0x3
 7216 195c 00000000 		.4byte	.LC0
 7217 1960 20       		.uleb128 0x20
 7218 1961 01       		.byte	0x1
 7219 1962 51       		.byte	0x51
 7220 1963 03       		.byte	0x3
 7221 1964 0A       		.byte	0xa
 7222 1965 4401     		.2byte	0x144
 7223 1967 00       		.byte	0
 7224 1968 1F       		.uleb128 0x1f
 7225 1969 70010000 		.4byte	.LVL32
 7226 196d A2180000 		.4byte	0x18a2
 7227 1971 7C190000 		.4byte	0x197c
 7228 1975 20       		.uleb128 0x20
 7229 1976 01       		.byte	0x1
 7230 1977 50       		.byte	0x50
 7231 1978 02       		.byte	0x2
 7232 1979 75       		.byte	0x75
 7233 197a 01       		.sleb128 1
 7234 197b 00       		.byte	0
 7235 197c 1F       		.uleb128 0x1f
 7236 197d 86010000 		.4byte	.LVL35
 7237 1981 751C0000 		.4byte	0x1c75
 7238 1985 9B190000 		.4byte	0x199b
 7239 1989 20       		.uleb128 0x20
 7240 198a 01       		.byte	0x1
 7241 198b 50       		.byte	0x50
 7242 198c 02       		.byte	0x2
 7243 198d 75       		.byte	0x75
 7244 198e 00       		.sleb128 0
ARM GAS  G:\Users\Jaxb\AppData\Local\Temp\ccbV8Tbs.s 			page 155


 7245 198f 20       		.uleb128 0x20
 7246 1990 01       		.byte	0x1
 7247 1991 51       		.byte	0x51
 7248 1992 07       		.byte	0x7
 7249 1993 31       		.byte	0x31
 7250 1994 75       		.byte	0x75
 7251 1995 7F       		.sleb128 -1
 7252 1996 24       		.byte	0x24
 7253 1997 76       		.byte	0x76
 7254 1998 00       		.sleb128 0
 7255 1999 22       		.byte	0x22
 7256 199a 00       		.byte	0
 7257 199b 21       		.uleb128 0x21
 7258 199c D2010000 		.4byte	.LVL41
 7259 19a0 7B1B0000 		.4byte	0x1b7b
 7260 19a4 20       		.uleb128 0x20
 7261 19a5 01       		.byte	0x1
 7262 19a6 50       		.byte	0x50
 7263 19a7 02       		.byte	0x2
 7264 19a8 75       		.byte	0x75
 7265 19a9 00       		.sleb128 0
 7266 19aa 20       		.uleb128 0x20
 7267 19ab 01       		.byte	0x1
 7268 19ac 51       		.byte	0x51
 7269 19ad 02       		.byte	0x2
 7270 19ae 76       		.byte	0x76
 7271 19af 00       		.sleb128 0
 7272 19b0 00       		.byte	0
 7273 19b1 00       		.byte	0
 7274 19b2 32       		.uleb128 0x32
 7275 19b3 01       		.byte	0x1
 7276 19b4 A7050000 		.4byte	.LASF80
 7277 19b8 01       		.byte	0x1
 7278 19b9 DF       		.byte	0xdf
 7279 19ba 01       		.byte	0x1
 7280 19bb C0050000 		.4byte	.LFB17
 7281 19bf 88070000 		.4byte	.LFE17
 7282 19c3 5F140000 		.4byte	.LLST42
 7283 19c7 01       		.byte	0x1
 7284 19c8 1E1B0000 		.4byte	0x1b1e
 7285 19cc 33       		.uleb128 0x33
 7286 19cd 23040000 		.4byte	.LASF81
 7287 19d1 01       		.byte	0x1
 7288 19d2 DF       		.byte	0xdf
 7289 19d3 B1000000 		.4byte	0xb1
 7290 19d7 D3140000 		.4byte	.LLST43
 7291 19db 34       		.uleb128 0x34
 7292 19dc 11050000 		.4byte	.LASF11
 7293 19e0 01       		.byte	0x1
 7294 19e1 E1       		.byte	0xe1
 7295 19e2 65000000 		.4byte	0x65
 7296 19e6 18150000 		.4byte	.LLST44
 7297 19ea 35       		.uleb128 0x35
 7298 19eb 6900     		.ascii	"i\000"
 7299 19ed 01       		.byte	0x1
 7300 19ee E2       		.byte	0xe2
 7301 19ef 65000000 		.4byte	0x65
ARM GAS  G:\Users\Jaxb\AppData\Local\Temp\ccbV8Tbs.s 			page 156


 7302 19f3 6D150000 		.4byte	.LLST45
 7303 19f7 34       		.uleb128 0x34
 7304 19f8 6F040000 		.4byte	.LASF42
 7305 19fc 01       		.byte	0x1
 7306 19fd E3       		.byte	0xe3
 7307 19fe 65000000 		.4byte	0x65
 7308 1a02 17160000 		.4byte	.LLST46
 7309 1a06 34       		.uleb128 0x34
 7310 1a07 A8040000 		.4byte	.LASF82
 7311 1a0b 01       		.byte	0x1
 7312 1a0c E4       		.byte	0xe4
 7313 1a0d 5A000000 		.4byte	0x5a
 7314 1a11 2A160000 		.4byte	.LLST47
 7315 1a15 0E       		.uleb128 0xe
 7316 1a16 D1060000 		.4byte	.LASF43
 7317 1a1a 01       		.byte	0x1
 7318 1a1b E5       		.byte	0xe5
 7319 1a1c 55020000 		.4byte	0x255
 7320 1a20 01       		.byte	0x1
 7321 1a21 54       		.byte	0x54
 7322 1a22 36       		.uleb128 0x36
 7323 1a23 F1010000 		.4byte	.LASF113
 7324 1a27 01       		.byte	0x1
 7325 1a28 3B01     		.2byte	0x13b
 7326 1a2a 14070000 		.4byte	.L186
 7327 1a2e 15       		.uleb128 0x15
 7328 1a2f EF1D0000 		.4byte	0x1def
 7329 1a33 06060000 		.4byte	.LBB130
 7330 1a37 0A060000 		.4byte	.LBE130
 7331 1a3b 01       		.byte	0x1
 7332 1a3c 0201     		.2byte	0x102
 7333 1a3e 551A0000 		.4byte	0x1a55
 7334 1a42 1D       		.uleb128 0x1d
 7335 1a43 001E0000 		.4byte	0x1e00
 7336 1a47 6E160000 		.4byte	.LLST48
 7337 1a4b 18       		.uleb128 0x18
 7338 1a4c 0A060000 		.4byte	.LVL140
 7339 1a50 D71E0000 		.4byte	0x1ed7
 7340 1a54 00       		.byte	0
 7341 1a55 19       		.uleb128 0x19
 7342 1a56 1E1B0000 		.4byte	0x1b1e
 7343 1a5a 14070000 		.4byte	.LBB132
 7344 1a5e 30010000 		.4byte	.Ldebug_ranges0+0x130
 7345 1a62 01       		.byte	0x1
 7346 1a63 3D01     		.2byte	0x13d
 7347 1a65 861A0000 		.4byte	0x1a86
 7348 1a69 1D       		.uleb128 0x1d
 7349 1a6a 2B1B0000 		.4byte	0x1b2b
 7350 1a6e 81160000 		.4byte	.LLST49
 7351 1a72 37       		.uleb128 0x37
 7352 1a73 361B0000 		.4byte	0x1b36
 7353 1a77 50010000 		.4byte	.Ldebug_ranges0+0x150
 7354 1a7b 1B       		.uleb128 0x1b
 7355 1a7c 371B0000 		.4byte	0x1b37
 7356 1a80 9F160000 		.4byte	.LLST50
 7357 1a84 00       		.byte	0
 7358 1a85 00       		.byte	0
ARM GAS  G:\Users\Jaxb\AppData\Local\Temp\ccbV8Tbs.s 			page 157


 7359 1a86 1F       		.uleb128 0x1f
 7360 1a87 94060000 		.4byte	.LVL152
 7361 1a8b E41E0000 		.4byte	0x1ee4
 7362 1a8f 991A0000 		.4byte	0x1a99
 7363 1a93 20       		.uleb128 0x20
 7364 1a94 01       		.byte	0x1
 7365 1a95 50       		.byte	0x50
 7366 1a96 01       		.byte	0x1
 7367 1a97 32       		.byte	0x32
 7368 1a98 00       		.byte	0
 7369 1a99 18       		.uleb128 0x18
 7370 1a9a C4060000 		.4byte	.LVL157
 7371 1a9e 751C0000 		.4byte	0x1c75
 7372 1aa2 1F       		.uleb128 0x1f
 7373 1aa3 CC060000 		.4byte	.LVL158
 7374 1aa7 751C0000 		.4byte	0x1c75
 7375 1aab B51A0000 		.4byte	0x1ab5
 7376 1aaf 20       		.uleb128 0x20
 7377 1ab0 01       		.byte	0x1
 7378 1ab1 51       		.byte	0x51
 7379 1ab2 01       		.byte	0x1
 7380 1ab3 30       		.byte	0x30
 7381 1ab4 00       		.byte	0
 7382 1ab5 1F       		.uleb128 0x1f
 7383 1ab6 E0060000 		.4byte	.LVL161
 7384 1aba BD1E0000 		.4byte	0x1ebd
 7385 1abe D21A0000 		.4byte	0x1ad2
 7386 1ac2 20       		.uleb128 0x20
 7387 1ac3 01       		.byte	0x1
 7388 1ac4 50       		.byte	0x50
 7389 1ac5 05       		.byte	0x5
 7390 1ac6 03       		.byte	0x3
 7391 1ac7 28000000 		.4byte	.LC1
 7392 1acb 20       		.uleb128 0x20
 7393 1acc 01       		.byte	0x1
 7394 1acd 51       		.byte	0x51
 7395 1ace 02       		.byte	0x2
 7396 1acf 76       		.byte	0x76
 7397 1ad0 00       		.sleb128 0
 7398 1ad1 00       		.byte	0
 7399 1ad2 1F       		.uleb128 0x1f
 7400 1ad3 14070000 		.4byte	.LVL167
 7401 1ad7 B01E0000 		.4byte	0x1eb0
 7402 1adb F01A0000 		.4byte	0x1af0
 7403 1adf 20       		.uleb128 0x20
 7404 1ae0 01       		.byte	0x1
 7405 1ae1 50       		.byte	0x50
 7406 1ae2 05       		.byte	0x5
 7407 1ae3 03       		.byte	0x3
 7408 1ae4 00000000 		.4byte	.LC0
 7409 1ae8 20       		.uleb128 0x20
 7410 1ae9 01       		.byte	0x1
 7411 1aea 51       		.byte	0x51
 7412 1aeb 03       		.byte	0x3
 7413 1aec 0A       		.byte	0xa
 7414 1aed 3A01     		.2byte	0x13a
 7415 1aef 00       		.byte	0
ARM GAS  G:\Users\Jaxb\AppData\Local\Temp\ccbV8Tbs.s 			page 158


 7416 1af0 1F       		.uleb128 0x1f
 7417 1af1 4C070000 		.4byte	.LVL173
 7418 1af5 BD1E0000 		.4byte	0x1ebd
 7419 1af9 0D1B0000 		.4byte	0x1b0d
 7420 1afd 20       		.uleb128 0x20
 7421 1afe 01       		.byte	0x1
 7422 1aff 50       		.byte	0x50
 7423 1b00 05       		.byte	0x5
 7424 1b01 03       		.byte	0x3
 7425 1b02 40000000 		.4byte	.LC2
 7426 1b06 20       		.uleb128 0x20
 7427 1b07 01       		.byte	0x1
 7428 1b08 51       		.byte	0x51
 7429 1b09 02       		.byte	0x2
 7430 1b0a 76       		.byte	0x76
 7431 1b0b 00       		.sleb128 0
 7432 1b0c 00       		.byte	0
 7433 1b0d 21       		.uleb128 0x21
 7434 1b0e 52070000 		.4byte	.LVL174
 7435 1b12 A2180000 		.4byte	0x18a2
 7436 1b16 20       		.uleb128 0x20
 7437 1b17 01       		.byte	0x1
 7438 1b18 50       		.byte	0x50
 7439 1b19 02       		.byte	0x2
 7440 1b1a 76       		.byte	0x76
 7441 1b1b 00       		.sleb128 0
 7442 1b1c 00       		.byte	0
 7443 1b1d 00       		.byte	0
 7444 1b1e 38       		.uleb128 0x38
 7445 1b1f F6000000 		.4byte	.LASF84
 7446 1b23 01       		.byte	0x1
 7447 1b24 AC       		.byte	0xac
 7448 1b25 01       		.byte	0x1
 7449 1b26 01       		.byte	0x1
 7450 1b27 441B0000 		.4byte	0x1b44
 7451 1b2b 39       		.uleb128 0x39
 7452 1b2c D1060000 		.4byte	.LASF43
 7453 1b30 01       		.byte	0x1
 7454 1b31 AC       		.byte	0xac
 7455 1b32 55020000 		.4byte	0x255
 7456 1b36 25       		.uleb128 0x25
 7457 1b37 3A       		.uleb128 0x3a
 7458 1b38 47050000 		.4byte	.LASF85
 7459 1b3c 01       		.byte	0x1
 7460 1b3d B9       		.byte	0xb9
 7461 1b3e 55020000 		.4byte	0x255
 7462 1b42 00       		.byte	0
 7463 1b43 00       		.byte	0
 7464 1b44 3B       		.uleb128 0x3b
 7465 1b45 01       		.byte	0x1
 7466 1b46 7A010000 		.4byte	.LASF97
 7467 1b4a 01       		.byte	0x1
 7468 1b4b A2       		.byte	0xa2
 7469 1b4c 01       		.byte	0x1
 7470 1b4d 33000000 		.4byte	0x33
 7471 1b51 01       		.byte	0x1
 7472 1b52 621B0000 		.4byte	0x1b62
ARM GAS  G:\Users\Jaxb\AppData\Local\Temp\ccbV8Tbs.s 			page 159


 7473 1b56 3C       		.uleb128 0x3c
 7474 1b57 70747200 		.ascii	"ptr\000"
 7475 1b5b 01       		.byte	0x1
 7476 1b5c A2       		.byte	0xa2
 7477 1b5d AF000000 		.4byte	0xaf
 7478 1b61 00       		.byte	0
 7479 1b62 38       		.uleb128 0x38
 7480 1b63 22030000 		.4byte	.LASF86
 7481 1b67 01       		.byte	0x1
 7482 1b68 9A       		.byte	0x9a
 7483 1b69 01       		.byte	0x1
 7484 1b6a 03       		.byte	0x3
 7485 1b6b 7B1B0000 		.4byte	0x1b7b
 7486 1b6f 39       		.uleb128 0x39
 7487 1b70 6F040000 		.4byte	.LASF42
 7488 1b74 01       		.byte	0x1
 7489 1b75 9A       		.byte	0x9a
 7490 1b76 FF000000 		.4byte	0xff
 7491 1b7a 00       		.byte	0
 7492 1b7b 3D       		.uleb128 0x3d
 7493 1b7c 00000000 		.4byte	.LASF88
 7494 1b80 01       		.byte	0x1
 7495 1b81 92       		.byte	0x92
 7496 1b82 01       		.byte	0x1
 7497 1b83 C0000000 		.4byte	.LFB13
 7498 1b87 28010000 		.4byte	.LFE13
 7499 1b8b BD160000 		.4byte	.LLST5
 7500 1b8f 01       		.byte	0x1
 7501 1b90 F81B0000 		.4byte	0x1bf8
 7502 1b94 33       		.uleb128 0x33
 7503 1b95 9C040000 		.4byte	.LASF44
 7504 1b99 01       		.byte	0x1
 7505 1b9a 92       		.byte	0x92
 7506 1b9b 65000000 		.4byte	0x65
 7507 1b9f DD160000 		.4byte	.LLST6
 7508 1ba3 33       		.uleb128 0x33
 7509 1ba4 97000000 		.4byte	.LASF20
 7510 1ba8 01       		.byte	0x1
 7511 1ba9 92       		.byte	0x92
 7512 1baa FF000000 		.4byte	0xff
 7513 1bae 30170000 		.4byte	.LLST7
 7514 1bb2 34       		.uleb128 0x34
 7515 1bb3 C2000000 		.4byte	.LASF67
 7516 1bb7 01       		.byte	0x1
 7517 1bb8 96       		.byte	0x96
 7518 1bb9 65000000 		.4byte	0x65
 7519 1bbd 6A170000 		.4byte	.LLST8
 7520 1bc1 1F       		.uleb128 0x1f
 7521 1bc2 E6000000 		.4byte	.LVL19
 7522 1bc6 B01E0000 		.4byte	0x1eb0
 7523 1bca DE1B0000 		.4byte	0x1bde
 7524 1bce 20       		.uleb128 0x20
 7525 1bcf 01       		.byte	0x1
 7526 1bd0 50       		.byte	0x50
 7527 1bd1 05       		.byte	0x5
 7528 1bd2 03       		.byte	0x3
 7529 1bd3 00000000 		.4byte	.LC0
ARM GAS  G:\Users\Jaxb\AppData\Local\Temp\ccbV8Tbs.s 			page 160


 7530 1bd7 20       		.uleb128 0x20
 7531 1bd8 01       		.byte	0x1
 7532 1bd9 51       		.byte	0x51
 7533 1bda 02       		.byte	0x2
 7534 1bdb 08       		.byte	0x8
 7535 1bdc 95       		.byte	0x95
 7536 1bdd 00       		.byte	0
 7537 1bde 21       		.uleb128 0x21
 7538 1bdf 1C010000 		.4byte	.LVL26
 7539 1be3 B01E0000 		.4byte	0x1eb0
 7540 1be7 20       		.uleb128 0x20
 7541 1be8 01       		.byte	0x1
 7542 1be9 50       		.byte	0x50
 7543 1bea 05       		.byte	0x5
 7544 1beb 03       		.byte	0x3
 7545 1bec 00000000 		.4byte	.LC0
 7546 1bf0 20       		.uleb128 0x20
 7547 1bf1 01       		.byte	0x1
 7548 1bf2 51       		.byte	0x51
 7549 1bf3 02       		.byte	0x2
 7550 1bf4 08       		.byte	0x8
 7551 1bf5 94       		.byte	0x94
 7552 1bf6 00       		.byte	0
 7553 1bf7 00       		.byte	0
 7554 1bf8 3E       		.uleb128 0x3e
 7555 1bf9 B5020000 		.4byte	.LASF89
 7556 1bfd 01       		.byte	0x1
 7557 1bfe 8C       		.byte	0x8c
 7558 1bff 01       		.byte	0x1
 7559 1c00 AF000000 		.4byte	0xaf
 7560 1c04 03       		.byte	0x3
 7561 1c05 151C0000 		.4byte	0x1c15
 7562 1c09 39       		.uleb128 0x39
 7563 1c0a 97000000 		.4byte	.LASF20
 7564 1c0e 01       		.byte	0x1
 7565 1c0f 8C       		.byte	0x8c
 7566 1c10 48000000 		.4byte	0x48
 7567 1c14 00       		.byte	0
 7568 1c15 38       		.uleb128 0x38
 7569 1c16 3E030000 		.4byte	.LASF90
 7570 1c1a 01       		.byte	0x1
 7571 1c1b 5E       		.byte	0x5e
 7572 1c1c 01       		.byte	0x1
 7573 1c1d 01       		.byte	0x1
 7574 1c1e 4D1C0000 		.4byte	0x1c4d
 7575 1c22 39       		.uleb128 0x39
 7576 1c23 9C040000 		.4byte	.LASF44
 7577 1c27 01       		.byte	0x1
 7578 1c28 5E       		.byte	0x5e
 7579 1c29 65000000 		.4byte	0x65
 7580 1c2d 39       		.uleb128 0x39
 7581 1c2e 97000000 		.4byte	.LASF20
 7582 1c32 01       		.byte	0x1
 7583 1c33 5E       		.byte	0x5e
 7584 1c34 FF000000 		.4byte	0xff
 7585 1c38 3F       		.uleb128 0x3f
 7586 1c39 6900     		.ascii	"i\000"
ARM GAS  G:\Users\Jaxb\AppData\Local\Temp\ccbV8Tbs.s 			page 161


 7587 1c3b 01       		.byte	0x1
 7588 1c3c 61       		.byte	0x61
 7589 1c3d 65000000 		.4byte	0x65
 7590 1c41 3A       		.uleb128 0x3a
 7591 1c42 A2010000 		.4byte	.LASF91
 7592 1c46 01       		.byte	0x1
 7593 1c47 62       		.byte	0x62
 7594 1c48 FF000000 		.4byte	0xff
 7595 1c4c 00       		.byte	0
 7596 1c4d 3E       		.uleb128 0x3e
 7597 1c4e FA030000 		.4byte	.LASF92
 7598 1c52 01       		.byte	0x1
 7599 1c53 54       		.byte	0x54
 7600 1c54 01       		.byte	0x1
 7601 1c55 FF000000 		.4byte	0xff
 7602 1c59 01       		.byte	0x1
 7603 1c5a 751C0000 		.4byte	0x1c75
 7604 1c5e 39       		.uleb128 0x39
 7605 1c5f 9C040000 		.4byte	.LASF44
 7606 1c63 01       		.byte	0x1
 7607 1c64 54       		.byte	0x54
 7608 1c65 65000000 		.4byte	0x65
 7609 1c69 39       		.uleb128 0x39
 7610 1c6a 97000000 		.4byte	.LASF20
 7611 1c6e 01       		.byte	0x1
 7612 1c6f 54       		.byte	0x54
 7613 1c70 FF000000 		.4byte	0xff
 7614 1c74 00       		.byte	0
 7615 1c75 3D       		.uleb128 0x3d
 7616 1c76 04070000 		.4byte	.LASF93
 7617 1c7a 01       		.byte	0x1
 7618 1c7b 46       		.byte	0x46
 7619 1c7c 01       		.byte	0x1
 7620 1c7d 00000000 		.4byte	.LFB9
 7621 1c81 C0000000 		.4byte	.LFE9
 7622 1c85 B2170000 		.4byte	.LLST0
 7623 1c89 01       		.byte	0x1
 7624 1c8a 771D0000 		.4byte	0x1d77
 7625 1c8e 33       		.uleb128 0x33
 7626 1c8f 9C040000 		.4byte	.LASF44
 7627 1c93 01       		.byte	0x1
 7628 1c94 46       		.byte	0x46
 7629 1c95 65000000 		.4byte	0x65
 7630 1c99 D2170000 		.4byte	.LLST1
 7631 1c9d 33       		.uleb128 0x33
 7632 1c9e 97000000 		.4byte	.LASF20
 7633 1ca2 01       		.byte	0x1
 7634 1ca3 46       		.byte	0x46
 7635 1ca4 FF000000 		.4byte	0xff
 7636 1ca8 44180000 		.4byte	.LLST2
 7637 1cac 34       		.uleb128 0x34
 7638 1cad 28070000 		.4byte	.LASF94
 7639 1cb1 01       		.byte	0x1
 7640 1cb2 4A       		.byte	0x4a
 7641 1cb3 48000000 		.4byte	0x48
 7642 1cb7 7E180000 		.4byte	.LLST3
 7643 1cbb 3A       		.uleb128 0x3a
ARM GAS  G:\Users\Jaxb\AppData\Local\Temp\ccbV8Tbs.s 			page 162


 7644 1cbc 58010000 		.4byte	.LASF95
 7645 1cc0 01       		.byte	0x1
 7646 1cc1 4B       		.byte	0x4b
 7647 1cc2 43020000 		.4byte	0x243
 7648 1cc6 2A       		.uleb128 0x2a
 7649 1cc7 771D0000 		.4byte	0x1d77
 7650 1ccb 22000000 		.4byte	.LBB42
 7651 1ccf 00000000 		.4byte	.Ldebug_ranges0+0
 7652 1cd3 01       		.byte	0x1
 7653 1cd4 4B       		.byte	0x4b
 7654 1cd5 E91C0000 		.4byte	0x1ce9
 7655 1cd9 1A       		.uleb128 0x1a
 7656 1cda 00000000 		.4byte	.Ldebug_ranges0+0
 7657 1cde 1B       		.uleb128 0x1b
 7658 1cdf 881D0000 		.4byte	0x1d88
 7659 1ce3 9C180000 		.4byte	.LLST4
 7660 1ce7 00       		.byte	0
 7661 1ce8 00       		.byte	0
 7662 1ce9 1F       		.uleb128 0x1f
 7663 1cea 74000000 		.4byte	.LVL6
 7664 1cee B01E0000 		.4byte	0x1eb0
 7665 1cf2 061D0000 		.4byte	0x1d06
 7666 1cf6 20       		.uleb128 0x20
 7667 1cf7 01       		.byte	0x1
 7668 1cf8 50       		.byte	0x50
 7669 1cf9 05       		.byte	0x5
 7670 1cfa 03       		.byte	0x3
 7671 1cfb 00000000 		.4byte	.LC0
 7672 1cff 20       		.uleb128 0x20
 7673 1d00 01       		.byte	0x1
 7674 1d01 51       		.byte	0x51
 7675 1d02 02       		.byte	0x2
 7676 1d03 08       		.byte	0x8
 7677 1d04 50       		.byte	0x50
 7678 1d05 00       		.byte	0
 7679 1d06 1F       		.uleb128 0x1f
 7680 1d07 88000000 		.4byte	.LVL10
 7681 1d0b B01E0000 		.4byte	0x1eb0
 7682 1d0f 231D0000 		.4byte	0x1d23
 7683 1d13 20       		.uleb128 0x20
 7684 1d14 01       		.byte	0x1
 7685 1d15 50       		.byte	0x50
 7686 1d16 05       		.byte	0x5
 7687 1d17 03       		.byte	0x3
 7688 1d18 00000000 		.4byte	.LC0
 7689 1d1c 20       		.uleb128 0x20
 7690 1d1d 01       		.byte	0x1
 7691 1d1e 51       		.byte	0x51
 7692 1d1f 02       		.byte	0x2
 7693 1d20 08       		.byte	0x8
 7694 1d21 48       		.byte	0x48
 7695 1d22 00       		.byte	0
 7696 1d23 1F       		.uleb128 0x1f
 7697 1d24 92000000 		.4byte	.LVL12
 7698 1d28 B01E0000 		.4byte	0x1eb0
 7699 1d2c 401D0000 		.4byte	0x1d40
 7700 1d30 20       		.uleb128 0x20
ARM GAS  G:\Users\Jaxb\AppData\Local\Temp\ccbV8Tbs.s 			page 163


 7701 1d31 01       		.byte	0x1
 7702 1d32 50       		.byte	0x50
 7703 1d33 05       		.byte	0x5
 7704 1d34 03       		.byte	0x3
 7705 1d35 00000000 		.4byte	.LC0
 7706 1d39 20       		.uleb128 0x20
 7707 1d3a 01       		.byte	0x1
 7708 1d3b 51       		.byte	0x51
 7709 1d3c 02       		.byte	0x2
 7710 1d3d 08       		.byte	0x8
 7711 1d3e 4C       		.byte	0x4c
 7712 1d3f 00       		.byte	0
 7713 1d40 1F       		.uleb128 0x1f
 7714 1d41 A0000000 		.4byte	.LVL14
 7715 1d45 B01E0000 		.4byte	0x1eb0
 7716 1d49 5D1D0000 		.4byte	0x1d5d
 7717 1d4d 20       		.uleb128 0x20
 7718 1d4e 01       		.byte	0x1
 7719 1d4f 50       		.byte	0x50
 7720 1d50 05       		.byte	0x5
 7721 1d51 03       		.byte	0x3
 7722 1d52 00000000 		.4byte	.LC0
 7723 1d56 20       		.uleb128 0x20
 7724 1d57 01       		.byte	0x1
 7725 1d58 51       		.byte	0x51
 7726 1d59 02       		.byte	0x2
 7727 1d5a 08       		.byte	0x8
 7728 1d5b 4F       		.byte	0x4f
 7729 1d5c 00       		.byte	0
 7730 1d5d 21       		.uleb128 0x21
 7731 1d5e B4000000 		.4byte	.LVL16
 7732 1d62 B01E0000 		.4byte	0x1eb0
 7733 1d66 20       		.uleb128 0x20
 7734 1d67 01       		.byte	0x1
 7735 1d68 50       		.byte	0x50
 7736 1d69 05       		.byte	0x5
 7737 1d6a 03       		.byte	0x3
 7738 1d6b 00000000 		.4byte	.LC0
 7739 1d6f 20       		.uleb128 0x20
 7740 1d70 01       		.byte	0x1
 7741 1d71 51       		.byte	0x51
 7742 1d72 02       		.byte	0x2
 7743 1d73 08       		.byte	0x8
 7744 1d74 49       		.byte	0x49
 7745 1d75 00       		.byte	0
 7746 1d76 00       		.byte	0
 7747 1d77 3E       		.uleb128 0x3e
 7748 1d78 46010000 		.4byte	.LASF96
 7749 1d7c 01       		.byte	0x1
 7750 1d7d 38       		.byte	0x38
 7751 1d7e 01       		.byte	0x1
 7752 1d7f 43020000 		.4byte	0x243
 7753 1d83 01       		.byte	0x1
 7754 1d84 941D0000 		.4byte	0x1d94
 7755 1d88 3A       		.uleb128 0x3a
 7756 1d89 6F040000 		.4byte	.LASF42
 7757 1d8d 01       		.byte	0x1
ARM GAS  G:\Users\Jaxb\AppData\Local\Temp\ccbV8Tbs.s 			page 164


 7758 1d8e 3A       		.byte	0x3a
 7759 1d8f 48000000 		.4byte	0x48
 7760 1d93 00       		.byte	0
 7761 1d94 3B       		.uleb128 0x3b
 7762 1d95 01       		.byte	0x1
 7763 1d96 CA050000 		.4byte	.LASF98
 7764 1d9a 01       		.byte	0x1
 7765 1d9b 2F       		.byte	0x2f
 7766 1d9c 01       		.byte	0x1
 7767 1d9d 65000000 		.4byte	0x65
 7768 1da1 01       		.byte	0x1
 7769 1da2 BD1D0000 		.4byte	0x1dbd
 7770 1da6 3A       		.uleb128 0x3a
 7771 1da7 C3050000 		.4byte	.LASF54
 7772 1dab 01       		.byte	0x1
 7773 1dac 31       		.byte	0x31
 7774 1dad 6C020000 		.4byte	0x26c
 7775 1db1 3A       		.uleb128 0x3a
 7776 1db2 6F040000 		.4byte	.LASF42
 7777 1db6 01       		.byte	0x1
 7778 1db7 33       		.byte	0x33
 7779 1db8 65000000 		.4byte	0x65
 7780 1dbc 00       		.byte	0
 7781 1dbd 3B       		.uleb128 0x3b
 7782 1dbe 01       		.byte	0x1
 7783 1dbf AA000000 		.4byte	.LASF99
 7784 1dc3 01       		.byte	0x1
 7785 1dc4 24       		.byte	0x24
 7786 1dc5 01       		.byte	0x1
 7787 1dc6 DB1D0000 		.4byte	0x1ddb
 7788 1dca 01       		.byte	0x1
 7789 1dcb DB1D0000 		.4byte	0x1ddb
 7790 1dcf 39       		.uleb128 0x39
 7791 1dd0 D1060000 		.4byte	.LASF43
 7792 1dd4 01       		.byte	0x1
 7793 1dd5 24       		.byte	0x24
 7794 1dd6 DB1D0000 		.4byte	0x1ddb
 7795 1dda 00       		.byte	0
 7796 1ddb 09       		.uleb128 0x9
 7797 1ddc 04       		.byte	0x4
 7798 1ddd 38020000 		.4byte	0x238
 7799 1de1 40       		.uleb128 0x40
 7800 1de2 01       		.byte	0x1
 7801 1de3 E2060000 		.4byte	.LASF114
 7802 1de7 01       		.byte	0x1
 7803 1de8 1E       		.byte	0x1e
 7804 1de9 01       		.byte	0x1
 7805 1dea DB1D0000 		.4byte	0x1ddb
 7806 1dee 01       		.byte	0x1
 7807 1def 3E       		.uleb128 0x3e
 7808 1df0 E8000000 		.4byte	.LASF100
 7809 1df4 01       		.byte	0x1
 7810 1df5 19       		.byte	0x19
 7811 1df6 01       		.byte	0x1
 7812 1df7 65000000 		.4byte	0x65
 7813 1dfb 03       		.byte	0x3
 7814 1dfc 0C1E0000 		.4byte	0x1e0c
ARM GAS  G:\Users\Jaxb\AppData\Local\Temp\ccbV8Tbs.s 			page 165


 7815 1e00 39       		.uleb128 0x39
 7816 1e01 97000000 		.4byte	.LASF20
 7817 1e05 01       		.byte	0x1
 7818 1e06 19       		.byte	0x19
 7819 1e07 65000000 		.4byte	0x65
 7820 1e0b 00       		.byte	0
 7821 1e0c 41       		.uleb128 0x41
 7822 1e0d E11D0000 		.4byte	0x1de1
 7823 1e11 60050000 		.4byte	.LFB5
 7824 1e15 6C050000 		.4byte	.LFE5
 7825 1e19 02       		.byte	0x2
 7826 1e1a 7D       		.byte	0x7d
 7827 1e1b 00       		.sleb128 0
 7828 1e1c 01       		.byte	0x1
 7829 1e1d 42       		.uleb128 0x42
 7830 1e1e BD1D0000 		.4byte	0x1dbd
 7831 1e22 6C050000 		.4byte	.LFB6
 7832 1e26 80050000 		.4byte	.LFE6
 7833 1e2a 02       		.byte	0x2
 7834 1e2b 7D       		.byte	0x7d
 7835 1e2c 00       		.sleb128 0
 7836 1e2d 01       		.byte	0x1
 7837 1e2e 3C1E0000 		.4byte	0x1e3c
 7838 1e32 1D       		.uleb128 0x1d
 7839 1e33 CF1D0000 		.4byte	0x1dcf
 7840 1e37 AF180000 		.4byte	.LLST37
 7841 1e3b 00       		.byte	0
 7842 1e3c 43       		.uleb128 0x43
 7843 1e3d 941D0000 		.4byte	0x1d94
 7844 1e41 80050000 		.4byte	.LFB7
 7845 1e45 98050000 		.4byte	.LFE7
 7846 1e49 D0180000 		.4byte	.LLST38
 7847 1e4d 01       		.byte	0x1
 7848 1e4e 771E0000 		.4byte	0x1e77
 7849 1e52 1B       		.uleb128 0x1b
 7850 1e53 A61D0000 		.4byte	0x1da6
 7851 1e57 F0180000 		.4byte	.LLST39
 7852 1e5b 1B       		.uleb128 0x1b
 7853 1e5c B11D0000 		.4byte	0x1db1
 7854 1e60 0F190000 		.4byte	.LLST40
 7855 1e64 18       		.uleb128 0x18
 7856 1e65 86050000 		.4byte	.LVL123
 7857 1e69 961E0000 		.4byte	0x1e96
 7858 1e6d 18       		.uleb128 0x18
 7859 1e6e 90050000 		.4byte	.LVL125
 7860 1e72 A31E0000 		.4byte	0x1ea3
 7861 1e76 00       		.byte	0
 7862 1e77 42       		.uleb128 0x42
 7863 1e78 441B0000 		.4byte	0x1b44
 7864 1e7c 98050000 		.4byte	.LFB15
 7865 1e80 C0050000 		.4byte	.LFE15
 7866 1e84 02       		.byte	0x2
 7867 1e85 7D       		.byte	0x7d
 7868 1e86 00       		.sleb128 0
 7869 1e87 01       		.byte	0x1
 7870 1e88 961E0000 		.4byte	0x1e96
 7871 1e8c 1D       		.uleb128 0x1d
ARM GAS  G:\Users\Jaxb\AppData\Local\Temp\ccbV8Tbs.s 			page 166


 7872 1e8d 561B0000 		.4byte	0x1b56
 7873 1e91 2D190000 		.4byte	.LLST41
 7874 1e95 00       		.byte	0
 7875 1e96 44       		.uleb128 0x44
 7876 1e97 01       		.byte	0x1
 7877 1e98 01       		.byte	0x1
 7878 1e99 6E010000 		.4byte	.LASF101
 7879 1e9d 6E010000 		.4byte	.LASF101
 7880 1ea1 05       		.byte	0x5
 7881 1ea2 35       		.byte	0x35
 7882 1ea3 44       		.uleb128 0x44
 7883 1ea4 01       		.byte	0x1
 7884 1ea5 01       		.byte	0x1
 7885 1ea6 00010000 		.4byte	.LASF102
 7886 1eaa 00010000 		.4byte	.LASF102
 7887 1eae 05       		.byte	0x5
 7888 1eaf 36       		.byte	0x36
 7889 1eb0 44       		.uleb128 0x44
 7890 1eb1 01       		.byte	0x1
 7891 1eb2 01       		.byte	0x1
 7892 1eb3 C6020000 		.4byte	.LASF103
 7893 1eb7 C6020000 		.4byte	.LASF103
 7894 1ebb 06       		.byte	0x6
 7895 1ebc 06       		.byte	0x6
 7896 1ebd 44       		.uleb128 0x44
 7897 1ebe 01       		.byte	0x1
 7898 1ebf 01       		.byte	0x1
 7899 1ec0 4E040000 		.4byte	.LASF104
 7900 1ec4 4E040000 		.4byte	.LASF104
 7901 1ec8 07       		.byte	0x7
 7902 1ec9 0C       		.byte	0xc
 7903 1eca 44       		.uleb128 0x44
 7904 1ecb 01       		.byte	0x1
 7905 1ecc 01       		.byte	0x1
 7906 1ecd C8000000 		.4byte	.LASF105
 7907 1ed1 C8000000 		.4byte	.LASF105
 7908 1ed5 01       		.byte	0x1
 7909 1ed6 0E       		.byte	0xe
 7910 1ed7 44       		.uleb128 0x44
 7911 1ed8 01       		.byte	0x1
 7912 1ed9 01       		.byte	0x1
 7913 1eda 0F010000 		.4byte	.LASF106
 7914 1ede 0F010000 		.4byte	.LASF106
 7915 1ee2 01       		.byte	0x1
 7916 1ee3 0C       		.byte	0xc
 7917 1ee4 44       		.uleb128 0x44
 7918 1ee5 01       		.byte	0x1
 7919 1ee6 01       		.byte	0x1
 7920 1ee7 3F020000 		.4byte	.LASF107
 7921 1eeb 3F020000 		.4byte	.LASF107
 7922 1eef 01       		.byte	0x1
 7923 1ef0 0D       		.byte	0xd
 7924 1ef1 00       		.byte	0
 7925              		.section	.debug_abbrev,"",%progbits
 7926              	.Ldebug_abbrev0:
 7927 0000 01       		.uleb128 0x1
 7928 0001 11       		.uleb128 0x11
ARM GAS  G:\Users\Jaxb\AppData\Local\Temp\ccbV8Tbs.s 			page 167


 7929 0002 01       		.byte	0x1
 7930 0003 25       		.uleb128 0x25
 7931 0004 0E       		.uleb128 0xe
 7932 0005 13       		.uleb128 0x13
 7933 0006 0B       		.uleb128 0xb
 7934 0007 03       		.uleb128 0x3
 7935 0008 0E       		.uleb128 0xe
 7936 0009 1B       		.uleb128 0x1b
 7937 000a 0E       		.uleb128 0xe
 7938 000b 11       		.uleb128 0x11
 7939 000c 01       		.uleb128 0x1
 7940 000d 12       		.uleb128 0x12
 7941 000e 01       		.uleb128 0x1
 7942 000f 10       		.uleb128 0x10
 7943 0010 06       		.uleb128 0x6
 7944 0011 00       		.byte	0
 7945 0012 00       		.byte	0
 7946 0013 02       		.uleb128 0x2
 7947 0014 24       		.uleb128 0x24
 7948 0015 00       		.byte	0
 7949 0016 0B       		.uleb128 0xb
 7950 0017 0B       		.uleb128 0xb
 7951 0018 3E       		.uleb128 0x3e
 7952 0019 0B       		.uleb128 0xb
 7953 001a 03       		.uleb128 0x3
 7954 001b 0E       		.uleb128 0xe
 7955 001c 00       		.byte	0
 7956 001d 00       		.byte	0
 7957 001e 03       		.uleb128 0x3
 7958 001f 24       		.uleb128 0x24
 7959 0020 00       		.byte	0
 7960 0021 0B       		.uleb128 0xb
 7961 0022 0B       		.uleb128 0xb
 7962 0023 3E       		.uleb128 0x3e
 7963 0024 0B       		.uleb128 0xb
 7964 0025 03       		.uleb128 0x3
 7965 0026 08       		.uleb128 0x8
 7966 0027 00       		.byte	0
 7967 0028 00       		.byte	0
 7968 0029 04       		.uleb128 0x4
 7969 002a 16       		.uleb128 0x16
 7970 002b 00       		.byte	0
 7971 002c 03       		.uleb128 0x3
 7972 002d 0E       		.uleb128 0xe
 7973 002e 3A       		.uleb128 0x3a
 7974 002f 0B       		.uleb128 0xb
 7975 0030 3B       		.uleb128 0x3b
 7976 0031 0B       		.uleb128 0xb
 7977 0032 49       		.uleb128 0x49
 7978 0033 13       		.uleb128 0x13
 7979 0034 00       		.byte	0
 7980 0035 00       		.byte	0
 7981 0036 05       		.uleb128 0x5
 7982 0037 13       		.uleb128 0x13
 7983 0038 01       		.byte	0x1
 7984 0039 03       		.uleb128 0x3
 7985 003a 0E       		.uleb128 0xe
ARM GAS  G:\Users\Jaxb\AppData\Local\Temp\ccbV8Tbs.s 			page 168


 7986 003b 0B       		.uleb128 0xb
 7987 003c 0B       		.uleb128 0xb
 7988 003d 3A       		.uleb128 0x3a
 7989 003e 0B       		.uleb128 0xb
 7990 003f 3B       		.uleb128 0x3b
 7991 0040 0B       		.uleb128 0xb
 7992 0041 01       		.uleb128 0x1
 7993 0042 13       		.uleb128 0x13
 7994 0043 00       		.byte	0
 7995 0044 00       		.byte	0
 7996 0045 06       		.uleb128 0x6
 7997 0046 0D       		.uleb128 0xd
 7998 0047 00       		.byte	0
 7999 0048 03       		.uleb128 0x3
 8000 0049 0E       		.uleb128 0xe
 8001 004a 3A       		.uleb128 0x3a
 8002 004b 0B       		.uleb128 0xb
 8003 004c 3B       		.uleb128 0x3b
 8004 004d 0B       		.uleb128 0xb
 8005 004e 49       		.uleb128 0x49
 8006 004f 13       		.uleb128 0x13
 8007 0050 38       		.uleb128 0x38
 8008 0051 0A       		.uleb128 0xa
 8009 0052 00       		.byte	0
 8010 0053 00       		.byte	0
 8011 0054 07       		.uleb128 0x7
 8012 0055 26       		.uleb128 0x26
 8013 0056 00       		.byte	0
 8014 0057 49       		.uleb128 0x49
 8015 0058 13       		.uleb128 0x13
 8016 0059 00       		.byte	0
 8017 005a 00       		.byte	0
 8018 005b 08       		.uleb128 0x8
 8019 005c 0F       		.uleb128 0xf
 8020 005d 00       		.byte	0
 8021 005e 0B       		.uleb128 0xb
 8022 005f 0B       		.uleb128 0xb
 8023 0060 00       		.byte	0
 8024 0061 00       		.byte	0
 8025 0062 09       		.uleb128 0x9
 8026 0063 0F       		.uleb128 0xf
 8027 0064 00       		.byte	0
 8028 0065 0B       		.uleb128 0xb
 8029 0066 0B       		.uleb128 0xb
 8030 0067 49       		.uleb128 0x49
 8031 0068 13       		.uleb128 0x13
 8032 0069 00       		.byte	0
 8033 006a 00       		.byte	0
 8034 006b 0A       		.uleb128 0xa
 8035 006c 13       		.uleb128 0x13
 8036 006d 01       		.byte	0x1
 8037 006e 0B       		.uleb128 0xb
 8038 006f 05       		.uleb128 0x5
 8039 0070 3A       		.uleb128 0x3a
 8040 0071 0B       		.uleb128 0xb
 8041 0072 3B       		.uleb128 0x3b
 8042 0073 0B       		.uleb128 0xb
ARM GAS  G:\Users\Jaxb\AppData\Local\Temp\ccbV8Tbs.s 			page 169


 8043 0074 01       		.uleb128 0x1
 8044 0075 13       		.uleb128 0x13
 8045 0076 00       		.byte	0
 8046 0077 00       		.byte	0
 8047 0078 0B       		.uleb128 0xb
 8048 0079 0D       		.uleb128 0xd
 8049 007a 00       		.byte	0
 8050 007b 03       		.uleb128 0x3
 8051 007c 08       		.uleb128 0x8
 8052 007d 3A       		.uleb128 0x3a
 8053 007e 0B       		.uleb128 0xb
 8054 007f 3B       		.uleb128 0x3b
 8055 0080 0B       		.uleb128 0xb
 8056 0081 49       		.uleb128 0x49
 8057 0082 13       		.uleb128 0x13
 8058 0083 38       		.uleb128 0x38
 8059 0084 0A       		.uleb128 0xa
 8060 0085 00       		.byte	0
 8061 0086 00       		.byte	0
 8062 0087 0C       		.uleb128 0xc
 8063 0088 01       		.uleb128 0x1
 8064 0089 01       		.byte	0x1
 8065 008a 49       		.uleb128 0x49
 8066 008b 13       		.uleb128 0x13
 8067 008c 01       		.uleb128 0x1
 8068 008d 13       		.uleb128 0x13
 8069 008e 00       		.byte	0
 8070 008f 00       		.byte	0
 8071 0090 0D       		.uleb128 0xd
 8072 0091 21       		.uleb128 0x21
 8073 0092 00       		.byte	0
 8074 0093 49       		.uleb128 0x49
 8075 0094 13       		.uleb128 0x13
 8076 0095 2F       		.uleb128 0x2f
 8077 0096 0B       		.uleb128 0xb
 8078 0097 00       		.byte	0
 8079 0098 00       		.byte	0
 8080 0099 0E       		.uleb128 0xe
 8081 009a 34       		.uleb128 0x34
 8082 009b 00       		.byte	0
 8083 009c 03       		.uleb128 0x3
 8084 009d 0E       		.uleb128 0xe
 8085 009e 3A       		.uleb128 0x3a
 8086 009f 0B       		.uleb128 0xb
 8087 00a0 3B       		.uleb128 0x3b
 8088 00a1 0B       		.uleb128 0xb
 8089 00a2 49       		.uleb128 0x49
 8090 00a3 13       		.uleb128 0x13
 8091 00a4 02       		.uleb128 0x2
 8092 00a5 0A       		.uleb128 0xa
 8093 00a6 00       		.byte	0
 8094 00a7 00       		.byte	0
 8095 00a8 0F       		.uleb128 0xf
 8096 00a9 34       		.uleb128 0x34
 8097 00aa 00       		.byte	0
 8098 00ab 03       		.uleb128 0x3
 8099 00ac 0E       		.uleb128 0xe
ARM GAS  G:\Users\Jaxb\AppData\Local\Temp\ccbV8Tbs.s 			page 170


 8100 00ad 3A       		.uleb128 0x3a
 8101 00ae 0B       		.uleb128 0xb
 8102 00af 3B       		.uleb128 0x3b
 8103 00b0 0B       		.uleb128 0xb
 8104 00b1 49       		.uleb128 0x49
 8105 00b2 13       		.uleb128 0x13
 8106 00b3 3F       		.uleb128 0x3f
 8107 00b4 0C       		.uleb128 0xc
 8108 00b5 3C       		.uleb128 0x3c
 8109 00b6 0C       		.uleb128 0xc
 8110 00b7 00       		.byte	0
 8111 00b8 00       		.byte	0
 8112 00b9 10       		.uleb128 0x10
 8113 00ba 2E       		.uleb128 0x2e
 8114 00bb 01       		.byte	0x1
 8115 00bc 3F       		.uleb128 0x3f
 8116 00bd 0C       		.uleb128 0xc
 8117 00be 03       		.uleb128 0x3
 8118 00bf 0E       		.uleb128 0xe
 8119 00c0 3A       		.uleb128 0x3a
 8120 00c1 0B       		.uleb128 0xb
 8121 00c2 3B       		.uleb128 0x3b
 8122 00c3 05       		.uleb128 0x5
 8123 00c4 27       		.uleb128 0x27
 8124 00c5 0C       		.uleb128 0xc
 8125 00c6 11       		.uleb128 0x11
 8126 00c7 01       		.uleb128 0x1
 8127 00c8 12       		.uleb128 0x12
 8128 00c9 01       		.uleb128 0x1
 8129 00ca 40       		.uleb128 0x40
 8130 00cb 06       		.uleb128 0x6
 8131 00cc 9742     		.uleb128 0x2117
 8132 00ce 0C       		.uleb128 0xc
 8133 00cf 01       		.uleb128 0x1
 8134 00d0 13       		.uleb128 0x13
 8135 00d1 00       		.byte	0
 8136 00d2 00       		.byte	0
 8137 00d3 11       		.uleb128 0x11
 8138 00d4 05       		.uleb128 0x5
 8139 00d5 00       		.byte	0
 8140 00d6 03       		.uleb128 0x3
 8141 00d7 0E       		.uleb128 0xe
 8142 00d8 3A       		.uleb128 0x3a
 8143 00d9 0B       		.uleb128 0xb
 8144 00da 3B       		.uleb128 0x3b
 8145 00db 05       		.uleb128 0x5
 8146 00dc 49       		.uleb128 0x49
 8147 00dd 13       		.uleb128 0x13
 8148 00de 02       		.uleb128 0x2
 8149 00df 06       		.uleb128 0x6
 8150 00e0 00       		.byte	0
 8151 00e1 00       		.byte	0
 8152 00e2 12       		.uleb128 0x12
 8153 00e3 34       		.uleb128 0x34
 8154 00e4 00       		.byte	0
 8155 00e5 03       		.uleb128 0x3
 8156 00e6 08       		.uleb128 0x8
ARM GAS  G:\Users\Jaxb\AppData\Local\Temp\ccbV8Tbs.s 			page 171


 8157 00e7 3A       		.uleb128 0x3a
 8158 00e8 0B       		.uleb128 0xb
 8159 00e9 3B       		.uleb128 0x3b
 8160 00ea 05       		.uleb128 0x5
 8161 00eb 49       		.uleb128 0x49
 8162 00ec 13       		.uleb128 0x13
 8163 00ed 02       		.uleb128 0x2
 8164 00ee 06       		.uleb128 0x6
 8165 00ef 00       		.byte	0
 8166 00f0 00       		.byte	0
 8167 00f1 13       		.uleb128 0x13
 8168 00f2 34       		.uleb128 0x34
 8169 00f3 00       		.byte	0
 8170 00f4 03       		.uleb128 0x3
 8171 00f5 0E       		.uleb128 0xe
 8172 00f6 3A       		.uleb128 0x3a
 8173 00f7 0B       		.uleb128 0xb
 8174 00f8 3B       		.uleb128 0x3b
 8175 00f9 05       		.uleb128 0x5
 8176 00fa 49       		.uleb128 0x49
 8177 00fb 13       		.uleb128 0x13
 8178 00fc 02       		.uleb128 0x2
 8179 00fd 06       		.uleb128 0x6
 8180 00fe 00       		.byte	0
 8181 00ff 00       		.byte	0
 8182 0100 14       		.uleb128 0x14
 8183 0101 1D       		.uleb128 0x1d
 8184 0102 00       		.byte	0
 8185 0103 31       		.uleb128 0x31
 8186 0104 13       		.uleb128 0x13
 8187 0105 52       		.uleb128 0x52
 8188 0106 01       		.uleb128 0x1
 8189 0107 55       		.uleb128 0x55
 8190 0108 06       		.uleb128 0x6
 8191 0109 58       		.uleb128 0x58
 8192 010a 0B       		.uleb128 0xb
 8193 010b 59       		.uleb128 0x59
 8194 010c 05       		.uleb128 0x5
 8195 010d 00       		.byte	0
 8196 010e 00       		.byte	0
 8197 010f 15       		.uleb128 0x15
 8198 0110 1D       		.uleb128 0x1d
 8199 0111 01       		.byte	0x1
 8200 0112 31       		.uleb128 0x31
 8201 0113 13       		.uleb128 0x13
 8202 0114 11       		.uleb128 0x11
 8203 0115 01       		.uleb128 0x1
 8204 0116 12       		.uleb128 0x12
 8205 0117 01       		.uleb128 0x1
 8206 0118 58       		.uleb128 0x58
 8207 0119 0B       		.uleb128 0xb
 8208 011a 59       		.uleb128 0x59
 8209 011b 05       		.uleb128 0x5
 8210 011c 01       		.uleb128 0x1
 8211 011d 13       		.uleb128 0x13
 8212 011e 00       		.byte	0
 8213 011f 00       		.byte	0
ARM GAS  G:\Users\Jaxb\AppData\Local\Temp\ccbV8Tbs.s 			page 172


 8214 0120 16       		.uleb128 0x16
 8215 0121 0B       		.uleb128 0xb
 8216 0122 01       		.byte	0x1
 8217 0123 11       		.uleb128 0x11
 8218 0124 01       		.uleb128 0x1
 8219 0125 12       		.uleb128 0x12
 8220 0126 01       		.uleb128 0x1
 8221 0127 00       		.byte	0
 8222 0128 00       		.byte	0
 8223 0129 17       		.uleb128 0x17
 8224 012a 34       		.uleb128 0x34
 8225 012b 00       		.byte	0
 8226 012c 31       		.uleb128 0x31
 8227 012d 13       		.uleb128 0x13
 8228 012e 00       		.byte	0
 8229 012f 00       		.byte	0
 8230 0130 18       		.uleb128 0x18
 8231 0131 898201   		.uleb128 0x4109
 8232 0134 00       		.byte	0
 8233 0135 11       		.uleb128 0x11
 8234 0136 01       		.uleb128 0x1
 8235 0137 31       		.uleb128 0x31
 8236 0138 13       		.uleb128 0x13
 8237 0139 00       		.byte	0
 8238 013a 00       		.byte	0
 8239 013b 19       		.uleb128 0x19
 8240 013c 1D       		.uleb128 0x1d
 8241 013d 01       		.byte	0x1
 8242 013e 31       		.uleb128 0x31
 8243 013f 13       		.uleb128 0x13
 8244 0140 52       		.uleb128 0x52
 8245 0141 01       		.uleb128 0x1
 8246 0142 55       		.uleb128 0x55
 8247 0143 06       		.uleb128 0x6
 8248 0144 58       		.uleb128 0x58
 8249 0145 0B       		.uleb128 0xb
 8250 0146 59       		.uleb128 0x59
 8251 0147 05       		.uleb128 0x5
 8252 0148 01       		.uleb128 0x1
 8253 0149 13       		.uleb128 0x13
 8254 014a 00       		.byte	0
 8255 014b 00       		.byte	0
 8256 014c 1A       		.uleb128 0x1a
 8257 014d 0B       		.uleb128 0xb
 8258 014e 01       		.byte	0x1
 8259 014f 55       		.uleb128 0x55
 8260 0150 06       		.uleb128 0x6
 8261 0151 00       		.byte	0
 8262 0152 00       		.byte	0
 8263 0153 1B       		.uleb128 0x1b
 8264 0154 34       		.uleb128 0x34
 8265 0155 00       		.byte	0
 8266 0156 31       		.uleb128 0x31
 8267 0157 13       		.uleb128 0x13
 8268 0158 02       		.uleb128 0x2
 8269 0159 06       		.uleb128 0x6
 8270 015a 00       		.byte	0
ARM GAS  G:\Users\Jaxb\AppData\Local\Temp\ccbV8Tbs.s 			page 173


 8271 015b 00       		.byte	0
 8272 015c 1C       		.uleb128 0x1c
 8273 015d 0B       		.uleb128 0xb
 8274 015e 01       		.byte	0x1
 8275 015f 31       		.uleb128 0x31
 8276 0160 13       		.uleb128 0x13
 8277 0161 55       		.uleb128 0x55
 8278 0162 06       		.uleb128 0x6
 8279 0163 01       		.uleb128 0x1
 8280 0164 13       		.uleb128 0x13
 8281 0165 00       		.byte	0
 8282 0166 00       		.byte	0
 8283 0167 1D       		.uleb128 0x1d
 8284 0168 05       		.uleb128 0x5
 8285 0169 00       		.byte	0
 8286 016a 31       		.uleb128 0x31
 8287 016b 13       		.uleb128 0x13
 8288 016c 02       		.uleb128 0x2
 8289 016d 06       		.uleb128 0x6
 8290 016e 00       		.byte	0
 8291 016f 00       		.byte	0
 8292 0170 1E       		.uleb128 0x1e
 8293 0171 05       		.uleb128 0x5
 8294 0172 00       		.byte	0
 8295 0173 31       		.uleb128 0x31
 8296 0174 13       		.uleb128 0x13
 8297 0175 00       		.byte	0
 8298 0176 00       		.byte	0
 8299 0177 1F       		.uleb128 0x1f
 8300 0178 898201   		.uleb128 0x4109
 8301 017b 01       		.byte	0x1
 8302 017c 11       		.uleb128 0x11
 8303 017d 01       		.uleb128 0x1
 8304 017e 31       		.uleb128 0x31
 8305 017f 13       		.uleb128 0x13
 8306 0180 01       		.uleb128 0x1
 8307 0181 13       		.uleb128 0x13
 8308 0182 00       		.byte	0
 8309 0183 00       		.byte	0
 8310 0184 20       		.uleb128 0x20
 8311 0185 8A8201   		.uleb128 0x410a
 8312 0188 00       		.byte	0
 8313 0189 02       		.uleb128 0x2
 8314 018a 0A       		.uleb128 0xa
 8315 018b 9142     		.uleb128 0x2111
 8316 018d 0A       		.uleb128 0xa
 8317 018e 00       		.byte	0
 8318 018f 00       		.byte	0
 8319 0190 21       		.uleb128 0x21
 8320 0191 898201   		.uleb128 0x4109
 8321 0194 01       		.byte	0x1
 8322 0195 11       		.uleb128 0x11
 8323 0196 01       		.uleb128 0x1
 8324 0197 31       		.uleb128 0x31
 8325 0198 13       		.uleb128 0x13
 8326 0199 00       		.byte	0
 8327 019a 00       		.byte	0
ARM GAS  G:\Users\Jaxb\AppData\Local\Temp\ccbV8Tbs.s 			page 174


 8328 019b 22       		.uleb128 0x22
 8329 019c 898201   		.uleb128 0x4109
 8330 019f 00       		.byte	0
 8331 01a0 11       		.uleb128 0x11
 8332 01a1 01       		.uleb128 0x1
 8333 01a2 9542     		.uleb128 0x2115
 8334 01a4 0C       		.uleb128 0xc
 8335 01a5 31       		.uleb128 0x31
 8336 01a6 13       		.uleb128 0x13
 8337 01a7 00       		.byte	0
 8338 01a8 00       		.byte	0
 8339 01a9 23       		.uleb128 0x23
 8340 01aa 2E       		.uleb128 0x2e
 8341 01ab 01       		.byte	0x1
 8342 01ac 03       		.uleb128 0x3
 8343 01ad 0E       		.uleb128 0xe
 8344 01ae 3A       		.uleb128 0x3a
 8345 01af 0B       		.uleb128 0xb
 8346 01b0 3B       		.uleb128 0x3b
 8347 01b1 05       		.uleb128 0x5
 8348 01b2 27       		.uleb128 0x27
 8349 01b3 0C       		.uleb128 0xc
 8350 01b4 49       		.uleb128 0x49
 8351 01b5 13       		.uleb128 0x13
 8352 01b6 20       		.uleb128 0x20
 8353 01b7 0B       		.uleb128 0xb
 8354 01b8 01       		.uleb128 0x1
 8355 01b9 13       		.uleb128 0x13
 8356 01ba 00       		.byte	0
 8357 01bb 00       		.byte	0
 8358 01bc 24       		.uleb128 0x24
 8359 01bd 34       		.uleb128 0x34
 8360 01be 00       		.byte	0
 8361 01bf 03       		.uleb128 0x3
 8362 01c0 08       		.uleb128 0x8
 8363 01c1 3A       		.uleb128 0x3a
 8364 01c2 0B       		.uleb128 0xb
 8365 01c3 3B       		.uleb128 0x3b
 8366 01c4 05       		.uleb128 0x5
 8367 01c5 49       		.uleb128 0x49
 8368 01c6 13       		.uleb128 0x13
 8369 01c7 00       		.byte	0
 8370 01c8 00       		.byte	0
 8371 01c9 25       		.uleb128 0x25
 8372 01ca 0B       		.uleb128 0xb
 8373 01cb 01       		.byte	0x1
 8374 01cc 00       		.byte	0
 8375 01cd 00       		.byte	0
 8376 01ce 26       		.uleb128 0x26
 8377 01cf 34       		.uleb128 0x34
 8378 01d0 00       		.byte	0
 8379 01d1 03       		.uleb128 0x3
 8380 01d2 0E       		.uleb128 0xe
 8381 01d3 3A       		.uleb128 0x3a
 8382 01d4 0B       		.uleb128 0xb
 8383 01d5 3B       		.uleb128 0x3b
 8384 01d6 05       		.uleb128 0x5
ARM GAS  G:\Users\Jaxb\AppData\Local\Temp\ccbV8Tbs.s 			page 175


 8385 01d7 49       		.uleb128 0x49
 8386 01d8 13       		.uleb128 0x13
 8387 01d9 00       		.byte	0
 8388 01da 00       		.byte	0
 8389 01db 27       		.uleb128 0x27
 8390 01dc 05       		.uleb128 0x5
 8391 01dd 00       		.byte	0
 8392 01de 03       		.uleb128 0x3
 8393 01df 0E       		.uleb128 0xe
 8394 01e0 3A       		.uleb128 0x3a
 8395 01e1 0B       		.uleb128 0xb
 8396 01e2 3B       		.uleb128 0x3b
 8397 01e3 05       		.uleb128 0x5
 8398 01e4 49       		.uleb128 0x49
 8399 01e5 13       		.uleb128 0x13
 8400 01e6 00       		.byte	0
 8401 01e7 00       		.byte	0
 8402 01e8 28       		.uleb128 0x28
 8403 01e9 05       		.uleb128 0x5
 8404 01ea 00       		.byte	0
 8405 01eb 03       		.uleb128 0x3
 8406 01ec 08       		.uleb128 0x8
 8407 01ed 3A       		.uleb128 0x3a
 8408 01ee 0B       		.uleb128 0xb
 8409 01ef 3B       		.uleb128 0x3b
 8410 01f0 05       		.uleb128 0x5
 8411 01f1 49       		.uleb128 0x49
 8412 01f2 13       		.uleb128 0x13
 8413 01f3 02       		.uleb128 0x2
 8414 01f4 06       		.uleb128 0x6
 8415 01f5 00       		.byte	0
 8416 01f6 00       		.byte	0
 8417 01f7 29       		.uleb128 0x29
 8418 01f8 2E       		.uleb128 0x2e
 8419 01f9 01       		.byte	0x1
 8420 01fa 03       		.uleb128 0x3
 8421 01fb 0E       		.uleb128 0xe
 8422 01fc 3A       		.uleb128 0x3a
 8423 01fd 0B       		.uleb128 0xb
 8424 01fe 3B       		.uleb128 0x3b
 8425 01ff 05       		.uleb128 0x5
 8426 0200 27       		.uleb128 0x27
 8427 0201 0C       		.uleb128 0xc
 8428 0202 11       		.uleb128 0x11
 8429 0203 01       		.uleb128 0x1
 8430 0204 12       		.uleb128 0x12
 8431 0205 01       		.uleb128 0x1
 8432 0206 40       		.uleb128 0x40
 8433 0207 06       		.uleb128 0x6
 8434 0208 9742     		.uleb128 0x2117
 8435 020a 0C       		.uleb128 0xc
 8436 020b 01       		.uleb128 0x1
 8437 020c 13       		.uleb128 0x13
 8438 020d 00       		.byte	0
 8439 020e 00       		.byte	0
 8440 020f 2A       		.uleb128 0x2a
 8441 0210 1D       		.uleb128 0x1d
ARM GAS  G:\Users\Jaxb\AppData\Local\Temp\ccbV8Tbs.s 			page 176


 8442 0211 01       		.byte	0x1
 8443 0212 31       		.uleb128 0x31
 8444 0213 13       		.uleb128 0x13
 8445 0214 52       		.uleb128 0x52
 8446 0215 01       		.uleb128 0x1
 8447 0216 55       		.uleb128 0x55
 8448 0217 06       		.uleb128 0x6
 8449 0218 58       		.uleb128 0x58
 8450 0219 0B       		.uleb128 0xb
 8451 021a 59       		.uleb128 0x59
 8452 021b 0B       		.uleb128 0xb
 8453 021c 01       		.uleb128 0x1
 8454 021d 13       		.uleb128 0x13
 8455 021e 00       		.byte	0
 8456 021f 00       		.byte	0
 8457 0220 2B       		.uleb128 0x2b
 8458 0221 1D       		.uleb128 0x1d
 8459 0222 01       		.byte	0x1
 8460 0223 31       		.uleb128 0x31
 8461 0224 13       		.uleb128 0x13
 8462 0225 11       		.uleb128 0x11
 8463 0226 01       		.uleb128 0x1
 8464 0227 12       		.uleb128 0x12
 8465 0228 01       		.uleb128 0x1
 8466 0229 58       		.uleb128 0x58
 8467 022a 0B       		.uleb128 0xb
 8468 022b 59       		.uleb128 0x59
 8469 022c 0B       		.uleb128 0xb
 8470 022d 01       		.uleb128 0x1
 8471 022e 13       		.uleb128 0x13
 8472 022f 00       		.byte	0
 8473 0230 00       		.byte	0
 8474 0231 2C       		.uleb128 0x2c
 8475 0232 2E       		.uleb128 0x2e
 8476 0233 01       		.byte	0x1
 8477 0234 03       		.uleb128 0x3
 8478 0235 0E       		.uleb128 0xe
 8479 0236 3A       		.uleb128 0x3a
 8480 0237 0B       		.uleb128 0xb
 8481 0238 3B       		.uleb128 0x3b
 8482 0239 05       		.uleb128 0x5
 8483 023a 27       		.uleb128 0x27
 8484 023b 0C       		.uleb128 0xc
 8485 023c 20       		.uleb128 0x20
 8486 023d 0B       		.uleb128 0xb
 8487 023e 01       		.uleb128 0x1
 8488 023f 13       		.uleb128 0x13
 8489 0240 00       		.byte	0
 8490 0241 00       		.byte	0
 8491 0242 2D       		.uleb128 0x2d
 8492 0243 05       		.uleb128 0x5
 8493 0244 00       		.byte	0
 8494 0245 03       		.uleb128 0x3
 8495 0246 08       		.uleb128 0x8
 8496 0247 3A       		.uleb128 0x3a
 8497 0248 0B       		.uleb128 0xb
 8498 0249 3B       		.uleb128 0x3b
ARM GAS  G:\Users\Jaxb\AppData\Local\Temp\ccbV8Tbs.s 			page 177


 8499 024a 05       		.uleb128 0x5
 8500 024b 49       		.uleb128 0x49
 8501 024c 13       		.uleb128 0x13
 8502 024d 00       		.byte	0
 8503 024e 00       		.byte	0
 8504 024f 2E       		.uleb128 0x2e
 8505 0250 2E       		.uleb128 0x2e
 8506 0251 01       		.byte	0x1
 8507 0252 3F       		.uleb128 0x3f
 8508 0253 0C       		.uleb128 0xc
 8509 0254 03       		.uleb128 0x3
 8510 0255 0E       		.uleb128 0xe
 8511 0256 3A       		.uleb128 0x3a
 8512 0257 0B       		.uleb128 0xb
 8513 0258 3B       		.uleb128 0x3b
 8514 0259 05       		.uleb128 0x5
 8515 025a 27       		.uleb128 0x27
 8516 025b 0C       		.uleb128 0xc
 8517 025c 49       		.uleb128 0x49
 8518 025d 13       		.uleb128 0x13
 8519 025e 11       		.uleb128 0x11
 8520 025f 01       		.uleb128 0x1
 8521 0260 12       		.uleb128 0x12
 8522 0261 01       		.uleb128 0x1
 8523 0262 40       		.uleb128 0x40
 8524 0263 06       		.uleb128 0x6
 8525 0264 9742     		.uleb128 0x2117
 8526 0266 0C       		.uleb128 0xc
 8527 0267 01       		.uleb128 0x1
 8528 0268 13       		.uleb128 0x13
 8529 0269 00       		.byte	0
 8530 026a 00       		.byte	0
 8531 026b 2F       		.uleb128 0x2f
 8532 026c 2E       		.uleb128 0x2e
 8533 026d 01       		.byte	0x1
 8534 026e 03       		.uleb128 0x3
 8535 026f 0E       		.uleb128 0xe
 8536 0270 3A       		.uleb128 0x3a
 8537 0271 0B       		.uleb128 0xb
 8538 0272 3B       		.uleb128 0x3b
 8539 0273 05       		.uleb128 0x5
 8540 0274 27       		.uleb128 0x27
 8541 0275 0C       		.uleb128 0xc
 8542 0276 49       		.uleb128 0x49
 8543 0277 13       		.uleb128 0x13
 8544 0278 11       		.uleb128 0x11
 8545 0279 01       		.uleb128 0x1
 8546 027a 12       		.uleb128 0x12
 8547 027b 01       		.uleb128 0x1
 8548 027c 40       		.uleb128 0x40
 8549 027d 06       		.uleb128 0x6
 8550 027e 9742     		.uleb128 0x2117
 8551 0280 0C       		.uleb128 0xc
 8552 0281 01       		.uleb128 0x1
 8553 0282 13       		.uleb128 0x13
 8554 0283 00       		.byte	0
 8555 0284 00       		.byte	0
ARM GAS  G:\Users\Jaxb\AppData\Local\Temp\ccbV8Tbs.s 			page 178


 8556 0285 30       		.uleb128 0x30
 8557 0286 0B       		.uleb128 0xb
 8558 0287 01       		.byte	0x1
 8559 0288 55       		.uleb128 0x55
 8560 0289 06       		.uleb128 0x6
 8561 028a 01       		.uleb128 0x1
 8562 028b 13       		.uleb128 0x13
 8563 028c 00       		.byte	0
 8564 028d 00       		.byte	0
 8565 028e 31       		.uleb128 0x31
 8566 028f 1D       		.uleb128 0x1d
 8567 0290 01       		.byte	0x1
 8568 0291 31       		.uleb128 0x31
 8569 0292 13       		.uleb128 0x13
 8570 0293 52       		.uleb128 0x52
 8571 0294 01       		.uleb128 0x1
 8572 0295 55       		.uleb128 0x55
 8573 0296 06       		.uleb128 0x6
 8574 0297 58       		.uleb128 0x58
 8575 0298 0B       		.uleb128 0xb
 8576 0299 59       		.uleb128 0x59
 8577 029a 05       		.uleb128 0x5
 8578 029b 00       		.byte	0
 8579 029c 00       		.byte	0
 8580 029d 32       		.uleb128 0x32
 8581 029e 2E       		.uleb128 0x2e
 8582 029f 01       		.byte	0x1
 8583 02a0 3F       		.uleb128 0x3f
 8584 02a1 0C       		.uleb128 0xc
 8585 02a2 03       		.uleb128 0x3
 8586 02a3 0E       		.uleb128 0xe
 8587 02a4 3A       		.uleb128 0x3a
 8588 02a5 0B       		.uleb128 0xb
 8589 02a6 3B       		.uleb128 0x3b
 8590 02a7 0B       		.uleb128 0xb
 8591 02a8 27       		.uleb128 0x27
 8592 02a9 0C       		.uleb128 0xc
 8593 02aa 11       		.uleb128 0x11
 8594 02ab 01       		.uleb128 0x1
 8595 02ac 12       		.uleb128 0x12
 8596 02ad 01       		.uleb128 0x1
 8597 02ae 40       		.uleb128 0x40
 8598 02af 06       		.uleb128 0x6
 8599 02b0 9742     		.uleb128 0x2117
 8600 02b2 0C       		.uleb128 0xc
 8601 02b3 01       		.uleb128 0x1
 8602 02b4 13       		.uleb128 0x13
 8603 02b5 00       		.byte	0
 8604 02b6 00       		.byte	0
 8605 02b7 33       		.uleb128 0x33
 8606 02b8 05       		.uleb128 0x5
 8607 02b9 00       		.byte	0
 8608 02ba 03       		.uleb128 0x3
 8609 02bb 0E       		.uleb128 0xe
 8610 02bc 3A       		.uleb128 0x3a
 8611 02bd 0B       		.uleb128 0xb
 8612 02be 3B       		.uleb128 0x3b
ARM GAS  G:\Users\Jaxb\AppData\Local\Temp\ccbV8Tbs.s 			page 179


 8613 02bf 0B       		.uleb128 0xb
 8614 02c0 49       		.uleb128 0x49
 8615 02c1 13       		.uleb128 0x13
 8616 02c2 02       		.uleb128 0x2
 8617 02c3 06       		.uleb128 0x6
 8618 02c4 00       		.byte	0
 8619 02c5 00       		.byte	0
 8620 02c6 34       		.uleb128 0x34
 8621 02c7 34       		.uleb128 0x34
 8622 02c8 00       		.byte	0
 8623 02c9 03       		.uleb128 0x3
 8624 02ca 0E       		.uleb128 0xe
 8625 02cb 3A       		.uleb128 0x3a
 8626 02cc 0B       		.uleb128 0xb
 8627 02cd 3B       		.uleb128 0x3b
 8628 02ce 0B       		.uleb128 0xb
 8629 02cf 49       		.uleb128 0x49
 8630 02d0 13       		.uleb128 0x13
 8631 02d1 02       		.uleb128 0x2
 8632 02d2 06       		.uleb128 0x6
 8633 02d3 00       		.byte	0
 8634 02d4 00       		.byte	0
 8635 02d5 35       		.uleb128 0x35
 8636 02d6 34       		.uleb128 0x34
 8637 02d7 00       		.byte	0
 8638 02d8 03       		.uleb128 0x3
 8639 02d9 08       		.uleb128 0x8
 8640 02da 3A       		.uleb128 0x3a
 8641 02db 0B       		.uleb128 0xb
 8642 02dc 3B       		.uleb128 0x3b
 8643 02dd 0B       		.uleb128 0xb
 8644 02de 49       		.uleb128 0x49
 8645 02df 13       		.uleb128 0x13
 8646 02e0 02       		.uleb128 0x2
 8647 02e1 06       		.uleb128 0x6
 8648 02e2 00       		.byte	0
 8649 02e3 00       		.byte	0
 8650 02e4 36       		.uleb128 0x36
 8651 02e5 0A       		.uleb128 0xa
 8652 02e6 00       		.byte	0
 8653 02e7 03       		.uleb128 0x3
 8654 02e8 0E       		.uleb128 0xe
 8655 02e9 3A       		.uleb128 0x3a
 8656 02ea 0B       		.uleb128 0xb
 8657 02eb 3B       		.uleb128 0x3b
 8658 02ec 05       		.uleb128 0x5
 8659 02ed 11       		.uleb128 0x11
 8660 02ee 01       		.uleb128 0x1
 8661 02ef 00       		.byte	0
 8662 02f0 00       		.byte	0
 8663 02f1 37       		.uleb128 0x37
 8664 02f2 0B       		.uleb128 0xb
 8665 02f3 01       		.byte	0x1
 8666 02f4 31       		.uleb128 0x31
 8667 02f5 13       		.uleb128 0x13
 8668 02f6 55       		.uleb128 0x55
 8669 02f7 06       		.uleb128 0x6
ARM GAS  G:\Users\Jaxb\AppData\Local\Temp\ccbV8Tbs.s 			page 180


 8670 02f8 00       		.byte	0
 8671 02f9 00       		.byte	0
 8672 02fa 38       		.uleb128 0x38
 8673 02fb 2E       		.uleb128 0x2e
 8674 02fc 01       		.byte	0x1
 8675 02fd 03       		.uleb128 0x3
 8676 02fe 0E       		.uleb128 0xe
 8677 02ff 3A       		.uleb128 0x3a
 8678 0300 0B       		.uleb128 0xb
 8679 0301 3B       		.uleb128 0x3b
 8680 0302 0B       		.uleb128 0xb
 8681 0303 27       		.uleb128 0x27
 8682 0304 0C       		.uleb128 0xc
 8683 0305 20       		.uleb128 0x20
 8684 0306 0B       		.uleb128 0xb
 8685 0307 01       		.uleb128 0x1
 8686 0308 13       		.uleb128 0x13
 8687 0309 00       		.byte	0
 8688 030a 00       		.byte	0
 8689 030b 39       		.uleb128 0x39
 8690 030c 05       		.uleb128 0x5
 8691 030d 00       		.byte	0
 8692 030e 03       		.uleb128 0x3
 8693 030f 0E       		.uleb128 0xe
 8694 0310 3A       		.uleb128 0x3a
 8695 0311 0B       		.uleb128 0xb
 8696 0312 3B       		.uleb128 0x3b
 8697 0313 0B       		.uleb128 0xb
 8698 0314 49       		.uleb128 0x49
 8699 0315 13       		.uleb128 0x13
 8700 0316 00       		.byte	0
 8701 0317 00       		.byte	0
 8702 0318 3A       		.uleb128 0x3a
 8703 0319 34       		.uleb128 0x34
 8704 031a 00       		.byte	0
 8705 031b 03       		.uleb128 0x3
 8706 031c 0E       		.uleb128 0xe
 8707 031d 3A       		.uleb128 0x3a
 8708 031e 0B       		.uleb128 0xb
 8709 031f 3B       		.uleb128 0x3b
 8710 0320 0B       		.uleb128 0xb
 8711 0321 49       		.uleb128 0x49
 8712 0322 13       		.uleb128 0x13
 8713 0323 00       		.byte	0
 8714 0324 00       		.byte	0
 8715 0325 3B       		.uleb128 0x3b
 8716 0326 2E       		.uleb128 0x2e
 8717 0327 01       		.byte	0x1
 8718 0328 3F       		.uleb128 0x3f
 8719 0329 0C       		.uleb128 0xc
 8720 032a 03       		.uleb128 0x3
 8721 032b 0E       		.uleb128 0xe
 8722 032c 3A       		.uleb128 0x3a
 8723 032d 0B       		.uleb128 0xb
 8724 032e 3B       		.uleb128 0x3b
 8725 032f 0B       		.uleb128 0xb
 8726 0330 27       		.uleb128 0x27
ARM GAS  G:\Users\Jaxb\AppData\Local\Temp\ccbV8Tbs.s 			page 181


 8727 0331 0C       		.uleb128 0xc
 8728 0332 49       		.uleb128 0x49
 8729 0333 13       		.uleb128 0x13
 8730 0334 20       		.uleb128 0x20
 8731 0335 0B       		.uleb128 0xb
 8732 0336 01       		.uleb128 0x1
 8733 0337 13       		.uleb128 0x13
 8734 0338 00       		.byte	0
 8735 0339 00       		.byte	0
 8736 033a 3C       		.uleb128 0x3c
 8737 033b 05       		.uleb128 0x5
 8738 033c 00       		.byte	0
 8739 033d 03       		.uleb128 0x3
 8740 033e 08       		.uleb128 0x8
 8741 033f 3A       		.uleb128 0x3a
 8742 0340 0B       		.uleb128 0xb
 8743 0341 3B       		.uleb128 0x3b
 8744 0342 0B       		.uleb128 0xb
 8745 0343 49       		.uleb128 0x49
 8746 0344 13       		.uleb128 0x13
 8747 0345 00       		.byte	0
 8748 0346 00       		.byte	0
 8749 0347 3D       		.uleb128 0x3d
 8750 0348 2E       		.uleb128 0x2e
 8751 0349 01       		.byte	0x1
 8752 034a 03       		.uleb128 0x3
 8753 034b 0E       		.uleb128 0xe
 8754 034c 3A       		.uleb128 0x3a
 8755 034d 0B       		.uleb128 0xb
 8756 034e 3B       		.uleb128 0x3b
 8757 034f 0B       		.uleb128 0xb
 8758 0350 27       		.uleb128 0x27
 8759 0351 0C       		.uleb128 0xc
 8760 0352 11       		.uleb128 0x11
 8761 0353 01       		.uleb128 0x1
 8762 0354 12       		.uleb128 0x12
 8763 0355 01       		.uleb128 0x1
 8764 0356 40       		.uleb128 0x40
 8765 0357 06       		.uleb128 0x6
 8766 0358 9742     		.uleb128 0x2117
 8767 035a 0C       		.uleb128 0xc
 8768 035b 01       		.uleb128 0x1
 8769 035c 13       		.uleb128 0x13
 8770 035d 00       		.byte	0
 8771 035e 00       		.byte	0
 8772 035f 3E       		.uleb128 0x3e
 8773 0360 2E       		.uleb128 0x2e
 8774 0361 01       		.byte	0x1
 8775 0362 03       		.uleb128 0x3
 8776 0363 0E       		.uleb128 0xe
 8777 0364 3A       		.uleb128 0x3a
 8778 0365 0B       		.uleb128 0xb
 8779 0366 3B       		.uleb128 0x3b
 8780 0367 0B       		.uleb128 0xb
 8781 0368 27       		.uleb128 0x27
 8782 0369 0C       		.uleb128 0xc
 8783 036a 49       		.uleb128 0x49
ARM GAS  G:\Users\Jaxb\AppData\Local\Temp\ccbV8Tbs.s 			page 182


 8784 036b 13       		.uleb128 0x13
 8785 036c 20       		.uleb128 0x20
 8786 036d 0B       		.uleb128 0xb
 8787 036e 01       		.uleb128 0x1
 8788 036f 13       		.uleb128 0x13
 8789 0370 00       		.byte	0
 8790 0371 00       		.byte	0
 8791 0372 3F       		.uleb128 0x3f
 8792 0373 34       		.uleb128 0x34
 8793 0374 00       		.byte	0
 8794 0375 03       		.uleb128 0x3
 8795 0376 08       		.uleb128 0x8
 8796 0377 3A       		.uleb128 0x3a
 8797 0378 0B       		.uleb128 0xb
 8798 0379 3B       		.uleb128 0x3b
 8799 037a 0B       		.uleb128 0xb
 8800 037b 49       		.uleb128 0x49
 8801 037c 13       		.uleb128 0x13
 8802 037d 00       		.byte	0
 8803 037e 00       		.byte	0
 8804 037f 40       		.uleb128 0x40
 8805 0380 2E       		.uleb128 0x2e
 8806 0381 00       		.byte	0
 8807 0382 3F       		.uleb128 0x3f
 8808 0383 0C       		.uleb128 0xc
 8809 0384 03       		.uleb128 0x3
 8810 0385 0E       		.uleb128 0xe
 8811 0386 3A       		.uleb128 0x3a
 8812 0387 0B       		.uleb128 0xb
 8813 0388 3B       		.uleb128 0x3b
 8814 0389 0B       		.uleb128 0xb
 8815 038a 27       		.uleb128 0x27
 8816 038b 0C       		.uleb128 0xc
 8817 038c 49       		.uleb128 0x49
 8818 038d 13       		.uleb128 0x13
 8819 038e 20       		.uleb128 0x20
 8820 038f 0B       		.uleb128 0xb
 8821 0390 00       		.byte	0
 8822 0391 00       		.byte	0
 8823 0392 41       		.uleb128 0x41
 8824 0393 2E       		.uleb128 0x2e
 8825 0394 00       		.byte	0
 8826 0395 31       		.uleb128 0x31
 8827 0396 13       		.uleb128 0x13
 8828 0397 11       		.uleb128 0x11
 8829 0398 01       		.uleb128 0x1
 8830 0399 12       		.uleb128 0x12
 8831 039a 01       		.uleb128 0x1
 8832 039b 40       		.uleb128 0x40
 8833 039c 0A       		.uleb128 0xa
 8834 039d 9742     		.uleb128 0x2117
 8835 039f 0C       		.uleb128 0xc
 8836 03a0 00       		.byte	0
 8837 03a1 00       		.byte	0
 8838 03a2 42       		.uleb128 0x42
 8839 03a3 2E       		.uleb128 0x2e
 8840 03a4 01       		.byte	0x1
ARM GAS  G:\Users\Jaxb\AppData\Local\Temp\ccbV8Tbs.s 			page 183


 8841 03a5 31       		.uleb128 0x31
 8842 03a6 13       		.uleb128 0x13
 8843 03a7 11       		.uleb128 0x11
 8844 03a8 01       		.uleb128 0x1
 8845 03a9 12       		.uleb128 0x12
 8846 03aa 01       		.uleb128 0x1
 8847 03ab 40       		.uleb128 0x40
 8848 03ac 0A       		.uleb128 0xa
 8849 03ad 9742     		.uleb128 0x2117
 8850 03af 0C       		.uleb128 0xc
 8851 03b0 01       		.uleb128 0x1
 8852 03b1 13       		.uleb128 0x13
 8853 03b2 00       		.byte	0
 8854 03b3 00       		.byte	0
 8855 03b4 43       		.uleb128 0x43
 8856 03b5 2E       		.uleb128 0x2e
 8857 03b6 01       		.byte	0x1
 8858 03b7 31       		.uleb128 0x31
 8859 03b8 13       		.uleb128 0x13
 8860 03b9 11       		.uleb128 0x11
 8861 03ba 01       		.uleb128 0x1
 8862 03bb 12       		.uleb128 0x12
 8863 03bc 01       		.uleb128 0x1
 8864 03bd 40       		.uleb128 0x40
 8865 03be 06       		.uleb128 0x6
 8866 03bf 9742     		.uleb128 0x2117
 8867 03c1 0C       		.uleb128 0xc
 8868 03c2 01       		.uleb128 0x1
 8869 03c3 13       		.uleb128 0x13
 8870 03c4 00       		.byte	0
 8871 03c5 00       		.byte	0
 8872 03c6 44       		.uleb128 0x44
 8873 03c7 2E       		.uleb128 0x2e
 8874 03c8 00       		.byte	0
 8875 03c9 3F       		.uleb128 0x3f
 8876 03ca 0C       		.uleb128 0xc
 8877 03cb 3C       		.uleb128 0x3c
 8878 03cc 0C       		.uleb128 0xc
 8879 03cd 8740     		.uleb128 0x2007
 8880 03cf 0E       		.uleb128 0xe
 8881 03d0 03       		.uleb128 0x3
 8882 03d1 0E       		.uleb128 0xe
 8883 03d2 3A       		.uleb128 0x3a
 8884 03d3 0B       		.uleb128 0xb
 8885 03d4 3B       		.uleb128 0x3b
 8886 03d5 0B       		.uleb128 0xb
 8887 03d6 00       		.byte	0
 8888 03d7 00       		.byte	0
 8889 03d8 00       		.byte	0
 8890              		.section	.debug_loc,"",%progbits
 8891              	.Ldebug_loc0:
 8892              	.LLST121:
 8893 0000 C80B0000 		.4byte	.LFB48-.Ltext0
 8894 0004 CC0B0000 		.4byte	.LCFI49-.Ltext0
 8895 0008 0200     		.2byte	0x2
 8896 000a 7D       		.byte	0x7d
 8897 000b 00       		.sleb128 0
ARM GAS  G:\Users\Jaxb\AppData\Local\Temp\ccbV8Tbs.s 			page 184


 8898 000c CC0B0000 		.4byte	.LCFI49-.Ltext0
 8899 0010 D20B0000 		.4byte	.LCFI50-.Ltext0
 8900 0014 0200     		.2byte	0x2
 8901 0016 7D       		.byte	0x7d
 8902 0017 24       		.sleb128 36
 8903 0018 D20B0000 		.4byte	.LCFI50-.Ltext0
 8904 001c 42100000 		.4byte	.LCFI51-.Ltext0
 8905 0020 0300     		.2byte	0x3
 8906 0022 7D       		.byte	0x7d
 8907 0023 C000     		.sleb128 64
 8908 0025 42100000 		.4byte	.LCFI51-.Ltext0
 8909 0029 46100000 		.4byte	.LCFI52-.Ltext0
 8910 002d 0200     		.2byte	0x2
 8911 002f 7D       		.byte	0x7d
 8912 0030 24       		.sleb128 36
 8913 0031 46100000 		.4byte	.LCFI52-.Ltext0
 8914 0035 4A100000 		.4byte	.LCFI53-.Ltext0
 8915 0039 0200     		.2byte	0x2
 8916 003b 7D       		.byte	0x7d
 8917 003c 00       		.sleb128 0
 8918 003d 4A100000 		.4byte	.LCFI53-.Ltext0
 8919 0041 88100000 		.4byte	.LFE48-.Ltext0
 8920 0045 0300     		.2byte	0x3
 8921 0047 7D       		.byte	0x7d
 8922 0048 C000     		.sleb128 64
 8923 004a 00000000 		.4byte	0
 8924 004e 00000000 		.4byte	0
 8925              	.LLST122:
 8926 0052 C80B0000 		.4byte	.LVL378-.Ltext0
 8927 0056 E60B0000 		.4byte	.LVL379-.Ltext0
 8928 005a 0100     		.2byte	0x1
 8929 005c 50       		.byte	0x50
 8930 005d E60B0000 		.4byte	.LVL379-.Ltext0
 8931 0061 70100000 		.4byte	.LVL484-.Ltext0
 8932 0065 0400     		.2byte	0x4
 8933 0067 F3       		.byte	0xf3
 8934 0068 01       		.uleb128 0x1
 8935 0069 50       		.byte	0x50
 8936 006a 9F       		.byte	0x9f
 8937 006b 70100000 		.4byte	.LVL484-.Ltext0
 8938 006f 76100000 		.4byte	.LVL486-.Ltext0
 8939 0073 0100     		.2byte	0x1
 8940 0075 50       		.byte	0x50
 8941 0076 76100000 		.4byte	.LVL486-.Ltext0
 8942 007a 88100000 		.4byte	.LFE48-.Ltext0
 8943 007e 0400     		.2byte	0x4
 8944 0080 F3       		.byte	0xf3
 8945 0081 01       		.uleb128 0x1
 8946 0082 50       		.byte	0x50
 8947 0083 9F       		.byte	0x9f
 8948 0084 00000000 		.4byte	0
 8949 0088 00000000 		.4byte	0
 8950              	.LLST123:
 8951 008c C80B0000 		.4byte	.LVL378-.Ltext0
 8952 0090 E60B0000 		.4byte	.LVL379-.Ltext0
 8953 0094 0100     		.2byte	0x1
 8954 0096 51       		.byte	0x51
ARM GAS  G:\Users\Jaxb\AppData\Local\Temp\ccbV8Tbs.s 			page 185


 8955 0097 E60B0000 		.4byte	.LVL379-.Ltext0
 8956 009b 70100000 		.4byte	.LVL484-.Ltext0
 8957 009f 0400     		.2byte	0x4
 8958 00a1 F3       		.byte	0xf3
 8959 00a2 01       		.uleb128 0x1
 8960 00a3 51       		.byte	0x51
 8961 00a4 9F       		.byte	0x9f
 8962 00a5 70100000 		.4byte	.LVL484-.Ltext0
 8963 00a9 74100000 		.4byte	.LVL485-.Ltext0
 8964 00ad 0100     		.2byte	0x1
 8965 00af 51       		.byte	0x51
 8966 00b0 74100000 		.4byte	.LVL485-.Ltext0
 8967 00b4 88100000 		.4byte	.LFE48-.Ltext0
 8968 00b8 0400     		.2byte	0x4
 8969 00ba F3       		.byte	0xf3
 8970 00bb 01       		.uleb128 0x1
 8971 00bc 51       		.byte	0x51
 8972 00bd 9F       		.byte	0x9f
 8973 00be 00000000 		.4byte	0
 8974 00c2 00000000 		.4byte	0
 8975              	.LLST124:
 8976 00c6 4C0C0000 		.4byte	.LVL393-.Ltext0
 8977 00ca 5C0C0000 		.4byte	.LVL394-.Ltext0
 8978 00ce 0200     		.2byte	0x2
 8979 00d0 30       		.byte	0x30
 8980 00d1 9F       		.byte	0x9f
 8981 00d2 5C0C0000 		.4byte	.LVL394-.Ltext0
 8982 00d6 840C0000 		.4byte	.LVL398-.Ltext0
 8983 00da 0100     		.2byte	0x1
 8984 00dc 54       		.byte	0x54
 8985 00dd 940C0000 		.4byte	.LVL400-.Ltext0
 8986 00e1 A00C0000 		.4byte	.LVL401-.Ltext0
 8987 00e5 0200     		.2byte	0x2
 8988 00e7 30       		.byte	0x30
 8989 00e8 9F       		.byte	0x9f
 8990 00e9 A00C0000 		.4byte	.LVL401-.Ltext0
 8991 00ed AA0C0000 		.4byte	.LVL402-.Ltext0
 8992 00f1 0100     		.2byte	0x1
 8993 00f3 55       		.byte	0x55
 8994 00f4 AA0C0000 		.4byte	.LVL402-.Ltext0
 8995 00f8 F40C0000 		.4byte	.LVL410-.Ltext0
 8996 00fc 0300     		.2byte	0x3
 8997 00fe 75       		.byte	0x75
 8998 00ff 7F       		.sleb128 -1
 8999 0100 9F       		.byte	0x9f
 9000 0101 F40C0000 		.4byte	.LVL410-.Ltext0
 9001 0105 1E0D0000 		.4byte	.LVL414-.Ltext0
 9002 0109 0100     		.2byte	0x1
 9003 010b 55       		.byte	0x55
 9004 010c 000E0000 		.4byte	.LVL433-.Ltext0
 9005 0110 080E0000 		.4byte	.LVL435-.Ltext0
 9006 0114 0300     		.2byte	0x3
 9007 0116 75       		.byte	0x75
 9008 0117 7F       		.sleb128 -1
 9009 0118 9F       		.byte	0x9f
 9010 0119 00000000 		.4byte	0
 9011 011d 00000000 		.4byte	0
ARM GAS  G:\Users\Jaxb\AppData\Local\Temp\ccbV8Tbs.s 			page 186


 9012              	.LLST125:
 9013 0121 E60B0000 		.4byte	.LVL379-.Ltext0
 9014 0125 F80D0000 		.4byte	.LVL431-.Ltext0
 9015 0129 0600     		.2byte	0x6
 9016 012b 91       		.byte	0x91
 9017 012c 54       		.sleb128 -44
 9018 012d 06       		.byte	0x6
 9019 012e 23       		.byte	0x23
 9020 012f 01       		.uleb128 0x1
 9021 0130 9F       		.byte	0x9f
 9022 0131 000E0000 		.4byte	.LVL433-.Ltext0
 9023 0135 3A100000 		.4byte	.LVL479-.Ltext0
 9024 0139 0600     		.2byte	0x6
 9025 013b 91       		.byte	0x91
 9026 013c 54       		.sleb128 -44
 9027 013d 06       		.byte	0x6
 9028 013e 23       		.byte	0x23
 9029 013f 01       		.uleb128 0x1
 9030 0140 9F       		.byte	0x9f
 9031 0141 4A100000 		.4byte	.LVL481-.Ltext0
 9032 0145 70100000 		.4byte	.LVL484-.Ltext0
 9033 0149 0600     		.2byte	0x6
 9034 014b 91       		.byte	0x91
 9035 014c 54       		.sleb128 -44
 9036 014d 06       		.byte	0x6
 9037 014e 23       		.byte	0x23
 9038 014f 01       		.uleb128 0x1
 9039 0150 9F       		.byte	0x9f
 9040 0151 00000000 		.4byte	0
 9041 0155 00000000 		.4byte	0
 9042              	.LLST126:
 9043 0159 CC0C0000 		.4byte	.LVL404-.Ltext0
 9044 015d CE0C0000 		.4byte	.LVL405-.Ltext0
 9045 0161 0600     		.2byte	0x6
 9046 0163 51       		.byte	0x51
 9047 0164 93       		.byte	0x93
 9048 0165 02       		.uleb128 0x2
 9049 0166 54       		.byte	0x54
 9050 0167 93       		.byte	0x93
 9051 0168 02       		.uleb128 0x2
 9052 0169 CE0C0000 		.4byte	.LVL405-.Ltext0
 9053 016d DC0C0000 		.4byte	.LVL406-.Ltext0
 9054 0171 0500     		.2byte	0x5
 9055 0173 93       		.byte	0x93
 9056 0174 02       		.uleb128 0x2
 9057 0175 54       		.byte	0x54
 9058 0176 93       		.byte	0x93
 9059 0177 02       		.uleb128 0x2
 9060 0178 DC0C0000 		.4byte	.LVL406-.Ltext0
 9061 017c DE0C0000 		.4byte	.LVL407-.Ltext0
 9062 0180 0600     		.2byte	0x6
 9063 0182 51       		.byte	0x51
 9064 0183 93       		.byte	0x93
 9065 0184 02       		.uleb128 0x2
 9066 0185 54       		.byte	0x54
 9067 0186 93       		.byte	0x93
 9068 0187 02       		.uleb128 0x2
ARM GAS  G:\Users\Jaxb\AppData\Local\Temp\ccbV8Tbs.s 			page 187


 9069 0188 DE0C0000 		.4byte	.LVL407-.Ltext0
 9070 018c E30C0000 		.4byte	.LVL408-1-.Ltext0
 9071 0190 0600     		.2byte	0x6
 9072 0192 51       		.byte	0x51
 9073 0193 93       		.byte	0x93
 9074 0194 02       		.uleb128 0x2
 9075 0195 54       		.byte	0x54
 9076 0196 93       		.byte	0x93
 9077 0197 02       		.uleb128 0x2
 9078 0198 E30C0000 		.4byte	.LVL408-1-.Ltext0
 9079 019c EE0C0000 		.4byte	.LVL409-.Ltext0
 9080 01a0 0500     		.2byte	0x5
 9081 01a2 93       		.byte	0x93
 9082 01a3 02       		.uleb128 0x2
 9083 01a4 54       		.byte	0x54
 9084 01a5 93       		.byte	0x93
 9085 01a6 02       		.uleb128 0x2
 9086 01a7 00000000 		.4byte	0
 9087 01ab 00000000 		.4byte	0
 9088              	.LLST127:
 9089 01af E60B0000 		.4byte	.LVL379-.Ltext0
 9090 01b3 EC0D0000 		.4byte	.LVL430-.Ltext0
 9091 01b7 0200     		.2byte	0x2
 9092 01b9 91       		.byte	0x91
 9093 01ba 50       		.sleb128 -48
 9094 01bb FE0D0000 		.4byte	.LVL432-.Ltext0
 9095 01bf 000E0000 		.4byte	.LVL433-.Ltext0
 9096 01c3 0100     		.2byte	0x1
 9097 01c5 53       		.byte	0x53
 9098 01c6 000E0000 		.4byte	.LVL433-.Ltext0
 9099 01ca 32100000 		.4byte	.LVL478-.Ltext0
 9100 01ce 0200     		.2byte	0x2
 9101 01d0 91       		.byte	0x91
 9102 01d1 50       		.sleb128 -48
 9103 01d2 4A100000 		.4byte	.LVL481-.Ltext0
 9104 01d6 70100000 		.4byte	.LVL484-.Ltext0
 9105 01da 0200     		.2byte	0x2
 9106 01dc 91       		.byte	0x91
 9107 01dd 50       		.sleb128 -48
 9108 01de 00000000 		.4byte	0
 9109 01e2 00000000 		.4byte	0
 9110              	.LLST128:
 9111 01e6 0C0D0000 		.4byte	.LVL413-.Ltext0
 9112 01ea 1E0D0000 		.4byte	.LVL414-.Ltext0
 9113 01ee 0200     		.2byte	0x2
 9114 01f0 30       		.byte	0x30
 9115 01f1 9F       		.byte	0x9f
 9116 01f2 1E0D0000 		.4byte	.LVL414-.Ltext0
 9117 01f6 3A0D0000 		.4byte	.LVL415-.Ltext0
 9118 01fa 0200     		.2byte	0x2
 9119 01fc 7D       		.byte	0x7d
 9120 01fd 00       		.sleb128 0
 9121 01fe 3A0D0000 		.4byte	.LVL415-.Ltext0
 9122 0202 3C0D0000 		.4byte	.LVL416-.Ltext0
 9123 0206 0100     		.2byte	0x1
 9124 0208 52       		.byte	0x52
 9125 0209 080E0000 		.4byte	.LVL435-.Ltext0
ARM GAS  G:\Users\Jaxb\AppData\Local\Temp\ccbV8Tbs.s 			page 188


 9126 020d 160E0000 		.4byte	.LVL436-.Ltext0
 9127 0211 0100     		.2byte	0x1
 9128 0213 51       		.byte	0x51
 9129 0214 160E0000 		.4byte	.LVL436-.Ltext0
 9130 0218 FE0E0000 		.4byte	.LVL458-.Ltext0
 9131 021c 0200     		.2byte	0x2
 9132 021e 7D       		.byte	0x7d
 9133 021f 00       		.sleb128 0
 9134 0220 680F0000 		.4byte	.LVL460-.Ltext0
 9135 0224 FE0F0000 		.4byte	.LVL476-.Ltext0
 9136 0228 0200     		.2byte	0x2
 9137 022a 7D       		.byte	0x7d
 9138 022b 00       		.sleb128 0
 9139 022c 00000000 		.4byte	0
 9140 0230 00000000 		.4byte	0
 9141              	.LLST129:
 9142 0234 160E0000 		.4byte	.LVL436-.Ltext0
 9143 0238 1A0E0000 		.4byte	.LVL437-.Ltext0
 9144 023c 0600     		.2byte	0x6
 9145 023e 08       		.byte	0x8
 9146 023f 20       		.byte	0x20
 9147 0240 7A       		.byte	0x7a
 9148 0241 00       		.sleb128 0
 9149 0242 1C       		.byte	0x1c
 9150 0243 9F       		.byte	0x9f
 9151 0244 1A0E0000 		.4byte	.LVL437-.Ltext0
 9152 0248 FE0E0000 		.4byte	.LVL458-.Ltext0
 9153 024c 0500     		.2byte	0x5
 9154 024e 4F       		.byte	0x4f
 9155 024f 7A       		.byte	0x7a
 9156 0250 00       		.sleb128 0
 9157 0251 1C       		.byte	0x1c
 9158 0252 9F       		.byte	0x9f
 9159 0253 680F0000 		.4byte	.LVL460-.Ltext0
 9160 0257 760F0000 		.4byte	.LVL461-.Ltext0
 9161 025b 0500     		.2byte	0x5
 9162 025d 4F       		.byte	0x4f
 9163 025e 7A       		.byte	0x7a
 9164 025f 00       		.sleb128 0
 9165 0260 1C       		.byte	0x1c
 9166 0261 9F       		.byte	0x9f
 9167 0262 760F0000 		.4byte	.LVL461-.Ltext0
 9168 0266 7A0F0000 		.4byte	.LVL462-.Ltext0
 9169 026a 0600     		.2byte	0x6
 9170 026c 08       		.byte	0x8
 9171 026d 20       		.byte	0x20
 9172 026e 7A       		.byte	0x7a
 9173 026f 00       		.sleb128 0
 9174 0270 1C       		.byte	0x1c
 9175 0271 9F       		.byte	0x9f
 9176 0272 7A0F0000 		.4byte	.LVL462-.Ltext0
 9177 0276 7E0F0000 		.4byte	.LVL463-.Ltext0
 9178 027a 0500     		.2byte	0x5
 9179 027c 4F       		.byte	0x4f
 9180 027d 7A       		.byte	0x7a
 9181 027e 00       		.sleb128 0
 9182 027f 1C       		.byte	0x1c
ARM GAS  G:\Users\Jaxb\AppData\Local\Temp\ccbV8Tbs.s 			page 189


 9183 0280 9F       		.byte	0x9f
 9184 0281 820F0000 		.4byte	.LVL464-.Ltext0
 9185 0285 FE0F0000 		.4byte	.LVL476-.Ltext0
 9186 0289 0500     		.2byte	0x5
 9187 028b 4F       		.byte	0x4f
 9188 028c 7A       		.byte	0x7a
 9189 028d 00       		.sleb128 0
 9190 028e 1C       		.byte	0x1c
 9191 028f 9F       		.byte	0x9f
 9192 0290 00000000 		.4byte	0
 9193 0294 00000000 		.4byte	0
 9194              	.LLST130:
 9195 0298 8E0E0000 		.4byte	.LVL448-.Ltext0
 9196 029c A40E0000 		.4byte	.LVL449-.Ltext0
 9197 02a0 0100     		.2byte	0x1
 9198 02a2 52       		.byte	0x52
 9199 02a3 940F0000 		.4byte	.LVL465-.Ltext0
 9200 02a7 9E0F0000 		.4byte	.LVL466-.Ltext0
 9201 02ab 0100     		.2byte	0x1
 9202 02ad 52       		.byte	0x52
 9203 02ae 9E0F0000 		.4byte	.LVL466-.Ltext0
 9204 02b2 B60F0000 		.4byte	.LVL468-.Ltext0
 9205 02b6 0200     		.2byte	0x2
 9206 02b8 91       		.byte	0x91
 9207 02b9 48       		.sleb128 -56
 9208 02ba 00000000 		.4byte	0
 9209 02be 00000000 		.4byte	0
 9210              	.LLST131:
 9211 02c2 A40E0000 		.4byte	.LVL449-.Ltext0
 9212 02c6 D20E0000 		.4byte	.LVL452-.Ltext0
 9213 02ca 0200     		.2byte	0x2
 9214 02cc 30       		.byte	0x30
 9215 02cd 9F       		.byte	0x9f
 9216 02ce D20E0000 		.4byte	.LVL452-.Ltext0
 9217 02d2 F40E0000 		.4byte	.LVL457-.Ltext0
 9218 02d6 0100     		.2byte	0x1
 9219 02d8 5E       		.byte	0x5e
 9220 02d9 680F0000 		.4byte	.LVL460-.Ltext0
 9221 02dd 7E0F0000 		.4byte	.LVL463-.Ltext0
 9222 02e1 0100     		.2byte	0x1
 9223 02e3 5E       		.byte	0x5e
 9224 02e4 DE0F0000 		.4byte	.LVL472-.Ltext0
 9225 02e8 E80F0000 		.4byte	.LVL473-.Ltext0
 9226 02ec 0300     		.2byte	0x3
 9227 02ee 7E       		.byte	0x7e
 9228 02ef 01       		.sleb128 1
 9229 02f0 9F       		.byte	0x9f
 9230 02f1 E80F0000 		.4byte	.LVL473-.Ltext0
 9231 02f5 FE0F0000 		.4byte	.LVL476-.Ltext0
 9232 02f9 0200     		.2byte	0x2
 9233 02fb 30       		.byte	0x30
 9234 02fc 9F       		.byte	0x9f
 9235 02fd 00000000 		.4byte	0
 9236 0301 00000000 		.4byte	0
 9237              	.LLST132:
 9238 0305 AA0E0000 		.4byte	.LVL450-.Ltext0
 9239 0309 F40E0000 		.4byte	.LVL457-.Ltext0
ARM GAS  G:\Users\Jaxb\AppData\Local\Temp\ccbV8Tbs.s 			page 190


 9240 030d 0100     		.2byte	0x1
 9241 030f 54       		.byte	0x54
 9242 0310 680F0000 		.4byte	.LVL460-.Ltext0
 9243 0314 7E0F0000 		.4byte	.LVL463-.Ltext0
 9244 0318 0100     		.2byte	0x1
 9245 031a 54       		.byte	0x54
 9246 031b DE0F0000 		.4byte	.LVL472-.Ltext0
 9247 031f F60F0000 		.4byte	.LVL475-.Ltext0
 9248 0323 0100     		.2byte	0x1
 9249 0325 54       		.byte	0x54
 9250 0326 00000000 		.4byte	0
 9251 032a 00000000 		.4byte	0
 9252              	.LLST133:
 9253 032e BC0E0000 		.4byte	.LVL451-.Ltext0
 9254 0332 DA0E0000 		.4byte	.LVL453-.Ltext0
 9255 0336 0600     		.2byte	0x6
 9256 0338 51       		.byte	0x51
 9257 0339 93       		.byte	0x93
 9258 033a 02       		.uleb128 0x2
 9259 033b 53       		.byte	0x53
 9260 033c 93       		.byte	0x93
 9261 033d 02       		.uleb128 0x2
 9262 033e DA0E0000 		.4byte	.LVL453-.Ltext0
 9263 0342 DE0E0000 		.4byte	.LVL454-.Ltext0
 9264 0346 0600     		.2byte	0x6
 9265 0348 51       		.byte	0x51
 9266 0349 93       		.byte	0x93
 9267 034a 02       		.uleb128 0x2
 9268 034b 53       		.byte	0x53
 9269 034c 93       		.byte	0x93
 9270 034d 02       		.uleb128 0x2
 9271 034e DE0E0000 		.4byte	.LVL454-.Ltext0
 9272 0352 F40E0000 		.4byte	.LVL457-.Ltext0
 9273 0356 0600     		.2byte	0x6
 9274 0358 51       		.byte	0x51
 9275 0359 93       		.byte	0x93
 9276 035a 02       		.uleb128 0x2
 9277 035b 53       		.byte	0x53
 9278 035c 93       		.byte	0x93
 9279 035d 02       		.uleb128 0x2
 9280 035e 680F0000 		.4byte	.LVL460-.Ltext0
 9281 0362 7E0F0000 		.4byte	.LVL463-.Ltext0
 9282 0366 0600     		.2byte	0x6
 9283 0368 51       		.byte	0x51
 9284 0369 93       		.byte	0x93
 9285 036a 02       		.uleb128 0x2
 9286 036b 53       		.byte	0x53
 9287 036c 93       		.byte	0x93
 9288 036d 02       		.uleb128 0x2
 9289 036e DE0F0000 		.4byte	.LVL472-.Ltext0
 9290 0372 F00F0000 		.4byte	.LVL474-.Ltext0
 9291 0376 0600     		.2byte	0x6
 9292 0378 51       		.byte	0x51
 9293 0379 93       		.byte	0x93
 9294 037a 02       		.uleb128 0x2
 9295 037b 53       		.byte	0x53
 9296 037c 93       		.byte	0x93
ARM GAS  G:\Users\Jaxb\AppData\Local\Temp\ccbV8Tbs.s 			page 191


 9297 037d 02       		.uleb128 0x2
 9298 037e F00F0000 		.4byte	.LVL474-.Ltext0
 9299 0382 FE0F0000 		.4byte	.LVL476-.Ltext0
 9300 0386 0500     		.2byte	0x5
 9301 0388 51       		.byte	0x51
 9302 0389 93       		.byte	0x93
 9303 038a 02       		.uleb128 0x2
 9304 038b 93       		.byte	0x93
 9305 038c 02       		.uleb128 0x2
 9306 038d 00000000 		.4byte	0
 9307 0391 00000000 		.4byte	0
 9308              	.LLST134:
 9309 0395 2C0E0000 		.4byte	.LVL439-.Ltext0
 9310 0399 7A0E0000 		.4byte	.LVL447-.Ltext0
 9311 039d 0500     		.2byte	0x5
 9312 039f 4F       		.byte	0x4f
 9313 03a0 7A       		.byte	0x7a
 9314 03a1 00       		.sleb128 0
 9315 03a2 1C       		.byte	0x1c
 9316 03a3 9F       		.byte	0x9f
 9317 03a4 CE0F0000 		.4byte	.LVL470-.Ltext0
 9318 03a8 DE0F0000 		.4byte	.LVL472-.Ltext0
 9319 03ac 0500     		.2byte	0x5
 9320 03ae 4F       		.byte	0x4f
 9321 03af 7A       		.byte	0x7a
 9322 03b0 00       		.sleb128 0
 9323 03b1 1C       		.byte	0x1c
 9324 03b2 9F       		.byte	0x9f
 9325 03b3 00000000 		.4byte	0
 9326 03b7 00000000 		.4byte	0
 9327              	.LLST135:
 9328 03bb 360E0000 		.4byte	.LVL440-.Ltext0
 9329 03bf 7A0E0000 		.4byte	.LVL447-.Ltext0
 9330 03c3 0100     		.2byte	0x1
 9331 03c5 59       		.byte	0x59
 9332 03c6 CE0F0000 		.4byte	.LVL470-.Ltext0
 9333 03ca DE0F0000 		.4byte	.LVL472-.Ltext0
 9334 03ce 0100     		.2byte	0x1
 9335 03d0 59       		.byte	0x59
 9336 03d1 00000000 		.4byte	0
 9337 03d5 00000000 		.4byte	0
 9338              	.LLST136:
 9339 03d9 3E0E0000 		.4byte	.LVL441-.Ltext0
 9340 03dd 520E0000 		.4byte	.LVL442-.Ltext0
 9341 03e1 0200     		.2byte	0x2
 9342 03e3 30       		.byte	0x30
 9343 03e4 9F       		.byte	0x9f
 9344 03e5 520E0000 		.4byte	.LVL442-.Ltext0
 9345 03e9 600E0000 		.4byte	.LVL445-.Ltext0
 9346 03ed 0100     		.2byte	0x1
 9347 03ef 57       		.byte	0x57
 9348 03f0 00000000 		.4byte	0
 9349 03f4 00000000 		.4byte	0
 9350              	.LLST137:
 9351 03f8 480D0000 		.4byte	.LVL418-.Ltext0
 9352 03fc 680D0000 		.4byte	.LVL419-.Ltext0
 9353 0400 0200     		.2byte	0x2
ARM GAS  G:\Users\Jaxb\AppData\Local\Temp\ccbV8Tbs.s 			page 192


 9354 0402 30       		.byte	0x30
 9355 0403 9F       		.byte	0x9f
 9356 0404 D40D0000 		.4byte	.LVL426-.Ltext0
 9357 0408 DA0D0000 		.4byte	.LVL427-.Ltext0
 9358 040c 0300     		.2byte	0x3
 9359 040e 71       		.byte	0x71
 9360 040f 01       		.sleb128 1
 9361 0410 9F       		.byte	0x9f
 9362 0411 00000000 		.4byte	0
 9363 0415 00000000 		.4byte	0
 9364              	.LLST138:
 9365 0419 920D0000 		.4byte	.LVL420-.Ltext0
 9366 041d A20D0000 		.4byte	.LVL421-.Ltext0
 9367 0421 2000     		.2byte	0x20
 9368 0423 7E       		.byte	0x7e
 9369 0424 7E       		.sleb128 -2
 9370 0425 94       		.byte	0x94
 9371 0426 02       		.byte	0x2
 9372 0427 0A       		.byte	0xa
 9373 0428 FFFF     		.2byte	0xffff
 9374 042a 1A       		.byte	0x1a
 9375 042b 32       		.byte	0x32
 9376 042c 24       		.byte	0x24
 9377 042d 75       		.byte	0x75
 9378 042e 00       		.sleb128 0
 9379 042f 22       		.byte	0x22
 9380 0430 93       		.byte	0x93
 9381 0431 02       		.uleb128 0x2
 9382 0432 7E       		.byte	0x7e
 9383 0433 7E       		.sleb128 -2
 9384 0434 94       		.byte	0x94
 9385 0435 02       		.byte	0x2
 9386 0436 0A       		.byte	0xa
 9387 0437 FFFF     		.2byte	0xffff
 9388 0439 1A       		.byte	0x1a
 9389 043a 32       		.byte	0x32
 9390 043b 24       		.byte	0x24
 9391 043c 75       		.byte	0x75
 9392 043d 00       		.sleb128 0
 9393 043e 22       		.byte	0x22
 9394 043f 23       		.byte	0x23
 9395 0440 02       		.uleb128 0x2
 9396 0441 93       		.byte	0x93
 9397 0442 02       		.uleb128 0x2
 9398 0443 A20D0000 		.4byte	.LVL421-.Ltext0
 9399 0447 A80D0000 		.4byte	.LVL422-.Ltext0
 9400 044b 0500     		.2byte	0x5
 9401 044d 93       		.byte	0x93
 9402 044e 02       		.uleb128 0x2
 9403 044f 54       		.byte	0x54
 9404 0450 93       		.byte	0x93
 9405 0451 02       		.uleb128 0x2
 9406 0452 A80D0000 		.4byte	.LVL422-.Ltext0
 9407 0456 AA0D0000 		.4byte	.LVL423-.Ltext0
 9408 045a 1200     		.2byte	0x12
 9409 045c 7E       		.byte	0x7e
 9410 045d 7E       		.sleb128 -2
ARM GAS  G:\Users\Jaxb\AppData\Local\Temp\ccbV8Tbs.s 			page 193


 9411 045e 94       		.byte	0x94
 9412 045f 02       		.byte	0x2
 9413 0460 0A       		.byte	0xa
 9414 0461 FFFF     		.2byte	0xffff
 9415 0463 1A       		.byte	0x1a
 9416 0464 32       		.byte	0x32
 9417 0465 24       		.byte	0x24
 9418 0466 75       		.byte	0x75
 9419 0467 00       		.sleb128 0
 9420 0468 22       		.byte	0x22
 9421 0469 93       		.byte	0x93
 9422 046a 02       		.uleb128 0x2
 9423 046b 54       		.byte	0x54
 9424 046c 93       		.byte	0x93
 9425 046d 02       		.uleb128 0x2
 9426 046e AA0D0000 		.4byte	.LVL423-.Ltext0
 9427 0472 AE0D0000 		.4byte	.LVL424-.Ltext0
 9428 0476 1100     		.2byte	0x11
 9429 0478 7E       		.byte	0x7e
 9430 0479 7E       		.sleb128 -2
 9431 047a 94       		.byte	0x94
 9432 047b 02       		.byte	0x2
 9433 047c 0A       		.byte	0xa
 9434 047d FFFF     		.2byte	0xffff
 9435 047f 1A       		.byte	0x1a
 9436 0480 32       		.byte	0x32
 9437 0481 24       		.byte	0x24
 9438 0482 75       		.byte	0x75
 9439 0483 00       		.sleb128 0
 9440 0484 22       		.byte	0x22
 9441 0485 93       		.byte	0x93
 9442 0486 02       		.uleb128 0x2
 9443 0487 93       		.byte	0x93
 9444 0488 02       		.uleb128 0x2
 9445 0489 AE0D0000 		.4byte	.LVL424-.Ltext0
 9446 048d BE0D0000 		.4byte	.LVL425-.Ltext0
 9447 0491 0600     		.2byte	0x6
 9448 0493 74       		.byte	0x74
 9449 0494 00       		.sleb128 0
 9450 0495 93       		.byte	0x93
 9451 0496 02       		.uleb128 0x2
 9452 0497 93       		.byte	0x93
 9453 0498 02       		.uleb128 0x2
 9454 0499 BE0D0000 		.4byte	.LVL425-.Ltext0
 9455 049d D40D0000 		.4byte	.LVL426-.Ltext0
 9456 04a1 0500     		.2byte	0x5
 9457 04a3 93       		.byte	0x93
 9458 04a4 02       		.uleb128 0x2
 9459 04a5 54       		.byte	0x54
 9460 04a6 93       		.byte	0x93
 9461 04a7 02       		.uleb128 0x2
 9462 04a8 4A100000 		.4byte	.LVL481-.Ltext0
 9463 04ac 54100000 		.4byte	.LVL483-.Ltext0
 9464 04b0 0500     		.2byte	0x5
 9465 04b2 93       		.byte	0x93
 9466 04b3 02       		.uleb128 0x2
 9467 04b4 54       		.byte	0x54
ARM GAS  G:\Users\Jaxb\AppData\Local\Temp\ccbV8Tbs.s 			page 194


 9468 04b5 93       		.byte	0x93
 9469 04b6 02       		.uleb128 0x2
 9470 04b7 00000000 		.4byte	0
 9471 04bb 00000000 		.4byte	0
 9472              	.LLST139:
 9473 04bf E60D0000 		.4byte	.LVL429-.Ltext0
 9474 04c3 EC0D0000 		.4byte	.LVL430-.Ltext0
 9475 04c7 0200     		.2byte	0x2
 9476 04c9 91       		.byte	0x91
 9477 04ca 50       		.sleb128 -48
 9478 04cb 00000000 		.4byte	0
 9479 04cf 00000000 		.4byte	0
 9480              	.LLST118:
 9481 04d3 9C0B0000 		.4byte	.LFB43-.Ltext0
 9482 04d7 9E0B0000 		.4byte	.LCFI47-.Ltext0
 9483 04db 0200     		.2byte	0x2
 9484 04dd 7D       		.byte	0x7d
 9485 04de 00       		.sleb128 0
 9486 04df 9E0B0000 		.4byte	.LCFI47-.Ltext0
 9487 04e3 C00B0000 		.4byte	.LCFI48-.Ltext0
 9488 04e7 0200     		.2byte	0x2
 9489 04e9 7D       		.byte	0x7d
 9490 04ea 10       		.sleb128 16
 9491 04eb C00B0000 		.4byte	.LCFI48-.Ltext0
 9492 04ef C80B0000 		.4byte	.LFE43-.Ltext0
 9493 04f3 0200     		.2byte	0x2
 9494 04f5 7D       		.byte	0x7d
 9495 04f6 00       		.sleb128 0
 9496 04f7 00000000 		.4byte	0
 9497 04fb 00000000 		.4byte	0
 9498              	.LLST119:
 9499 04ff 9C0B0000 		.4byte	.LVL371-.Ltext0
 9500 0503 A30B0000 		.4byte	.LVL372-1-.Ltext0
 9501 0507 0100     		.2byte	0x1
 9502 0509 50       		.byte	0x50
 9503 050a A30B0000 		.4byte	.LVL372-1-.Ltext0
 9504 050e C00B0000 		.4byte	.LVL376-.Ltext0
 9505 0512 0100     		.2byte	0x1
 9506 0514 55       		.byte	0x55
 9507 0515 C00B0000 		.4byte	.LVL376-.Ltext0
 9508 0519 C80B0000 		.4byte	.LFE43-.Ltext0
 9509 051d 0400     		.2byte	0x4
 9510 051f F3       		.byte	0xf3
 9511 0520 01       		.uleb128 0x1
 9512 0521 50       		.byte	0x50
 9513 0522 9F       		.byte	0x9f
 9514 0523 00000000 		.4byte	0
 9515 0527 00000000 		.4byte	0
 9516              	.LLST120:
 9517 052b 9C0B0000 		.4byte	.LVL371-.Ltext0
 9518 052f A60B0000 		.4byte	.LVL373-.Ltext0
 9519 0533 0200     		.2byte	0x2
 9520 0535 30       		.byte	0x30
 9521 0536 9F       		.byte	0x9f
 9522 0537 A60B0000 		.4byte	.LVL373-.Ltext0
 9523 053b AA0B0000 		.4byte	.LVL374-.Ltext0
 9524 053f 0100     		.2byte	0x1
ARM GAS  G:\Users\Jaxb\AppData\Local\Temp\ccbV8Tbs.s 			page 195


 9525 0541 50       		.byte	0x50
 9526 0542 AA0B0000 		.4byte	.LVL374-.Ltext0
 9527 0546 C00B0000 		.4byte	.LVL376-.Ltext0
 9528 054a 0100     		.2byte	0x1
 9529 054c 54       		.byte	0x54
 9530 054d C00B0000 		.4byte	.LVL376-.Ltext0
 9531 0551 C30B0000 		.4byte	.LVL377-1-.Ltext0
 9532 0555 0100     		.2byte	0x1
 9533 0557 50       		.byte	0x50
 9534 0558 00000000 		.4byte	0
 9535 055c 00000000 		.4byte	0
 9536              	.LLST115:
 9537 0560 700B0000 		.4byte	.LFB42-.Ltext0
 9538 0564 720B0000 		.4byte	.LCFI45-.Ltext0
 9539 0568 0200     		.2byte	0x2
 9540 056a 7D       		.byte	0x7d
 9541 056b 00       		.sleb128 0
 9542 056c 720B0000 		.4byte	.LCFI45-.Ltext0
 9543 0570 940B0000 		.4byte	.LCFI46-.Ltext0
 9544 0574 0200     		.2byte	0x2
 9545 0576 7D       		.byte	0x7d
 9546 0577 10       		.sleb128 16
 9547 0578 940B0000 		.4byte	.LCFI46-.Ltext0
 9548 057c 9C0B0000 		.4byte	.LFE42-.Ltext0
 9549 0580 0200     		.2byte	0x2
 9550 0582 7D       		.byte	0x7d
 9551 0583 00       		.sleb128 0
 9552 0584 00000000 		.4byte	0
 9553 0588 00000000 		.4byte	0
 9554              	.LLST116:
 9555 058c 700B0000 		.4byte	.LVL364-.Ltext0
 9556 0590 770B0000 		.4byte	.LVL365-1-.Ltext0
 9557 0594 0100     		.2byte	0x1
 9558 0596 50       		.byte	0x50
 9559 0597 770B0000 		.4byte	.LVL365-1-.Ltext0
 9560 059b 940B0000 		.4byte	.LVL369-.Ltext0
 9561 059f 0100     		.2byte	0x1
 9562 05a1 55       		.byte	0x55
 9563 05a2 940B0000 		.4byte	.LVL369-.Ltext0
 9564 05a6 9C0B0000 		.4byte	.LFE42-.Ltext0
 9565 05aa 0400     		.2byte	0x4
 9566 05ac F3       		.byte	0xf3
 9567 05ad 01       		.uleb128 0x1
 9568 05ae 50       		.byte	0x50
 9569 05af 9F       		.byte	0x9f
 9570 05b0 00000000 		.4byte	0
 9571 05b4 00000000 		.4byte	0
 9572              	.LLST117:
 9573 05b8 700B0000 		.4byte	.LVL364-.Ltext0
 9574 05bc 7A0B0000 		.4byte	.LVL366-.Ltext0
 9575 05c0 0200     		.2byte	0x2
 9576 05c2 30       		.byte	0x30
 9577 05c3 9F       		.byte	0x9f
 9578 05c4 7A0B0000 		.4byte	.LVL366-.Ltext0
 9579 05c8 7E0B0000 		.4byte	.LVL367-.Ltext0
 9580 05cc 0100     		.2byte	0x1
 9581 05ce 50       		.byte	0x50
ARM GAS  G:\Users\Jaxb\AppData\Local\Temp\ccbV8Tbs.s 			page 196


 9582 05cf 7E0B0000 		.4byte	.LVL367-.Ltext0
 9583 05d3 940B0000 		.4byte	.LVL369-.Ltext0
 9584 05d7 0100     		.2byte	0x1
 9585 05d9 54       		.byte	0x54
 9586 05da 940B0000 		.4byte	.LVL369-.Ltext0
 9587 05de 970B0000 		.4byte	.LVL370-1-.Ltext0
 9588 05e2 0100     		.2byte	0x1
 9589 05e4 50       		.byte	0x50
 9590 05e5 00000000 		.4byte	0
 9591 05e9 00000000 		.4byte	0
 9592              	.LLST112:
 9593 05ed 440B0000 		.4byte	.LFB41-.Ltext0
 9594 05f1 460B0000 		.4byte	.LCFI43-.Ltext0
 9595 05f5 0200     		.2byte	0x2
 9596 05f7 7D       		.byte	0x7d
 9597 05f8 00       		.sleb128 0
 9598 05f9 460B0000 		.4byte	.LCFI43-.Ltext0
 9599 05fd 660B0000 		.4byte	.LCFI44-.Ltext0
 9600 0601 0200     		.2byte	0x2
 9601 0603 7D       		.byte	0x7d
 9602 0604 10       		.sleb128 16
 9603 0605 660B0000 		.4byte	.LCFI44-.Ltext0
 9604 0609 700B0000 		.4byte	.LFE41-.Ltext0
 9605 060d 0200     		.2byte	0x2
 9606 060f 7D       		.byte	0x7d
 9607 0610 00       		.sleb128 0
 9608 0611 00000000 		.4byte	0
 9609 0615 00000000 		.4byte	0
 9610              	.LLST113:
 9611 0619 440B0000 		.4byte	.LVL357-.Ltext0
 9612 061d 4B0B0000 		.4byte	.LVL358-1-.Ltext0
 9613 0621 0100     		.2byte	0x1
 9614 0623 50       		.byte	0x50
 9615 0624 4B0B0000 		.4byte	.LVL358-1-.Ltext0
 9616 0628 660B0000 		.4byte	.LVL362-.Ltext0
 9617 062c 0100     		.2byte	0x1
 9618 062e 55       		.byte	0x55
 9619 062f 660B0000 		.4byte	.LVL362-.Ltext0
 9620 0633 700B0000 		.4byte	.LFE41-.Ltext0
 9621 0637 0400     		.2byte	0x4
 9622 0639 F3       		.byte	0xf3
 9623 063a 01       		.uleb128 0x1
 9624 063b 50       		.byte	0x50
 9625 063c 9F       		.byte	0x9f
 9626 063d 00000000 		.4byte	0
 9627 0641 00000000 		.4byte	0
 9628              	.LLST114:
 9629 0645 440B0000 		.4byte	.LVL357-.Ltext0
 9630 0649 4E0B0000 		.4byte	.LVL359-.Ltext0
 9631 064d 0200     		.2byte	0x2
 9632 064f 30       		.byte	0x30
 9633 0650 9F       		.byte	0x9f
 9634 0651 4E0B0000 		.4byte	.LVL359-.Ltext0
 9635 0655 520B0000 		.4byte	.LVL360-.Ltext0
 9636 0659 0100     		.2byte	0x1
 9637 065b 50       		.byte	0x50
 9638 065c 520B0000 		.4byte	.LVL360-.Ltext0
ARM GAS  G:\Users\Jaxb\AppData\Local\Temp\ccbV8Tbs.s 			page 197


 9639 0660 660B0000 		.4byte	.LVL362-.Ltext0
 9640 0664 0100     		.2byte	0x1
 9641 0666 54       		.byte	0x54
 9642 0667 660B0000 		.4byte	.LVL362-.Ltext0
 9643 066b 690B0000 		.4byte	.LVL363-1-.Ltext0
 9644 066f 0100     		.2byte	0x1
 9645 0671 50       		.byte	0x50
 9646 0672 00000000 		.4byte	0
 9647 0676 00000000 		.4byte	0
 9648              	.LLST109:
 9649 067a 180B0000 		.4byte	.LFB40-.Ltext0
 9650 067e 1A0B0000 		.4byte	.LCFI41-.Ltext0
 9651 0682 0200     		.2byte	0x2
 9652 0684 7D       		.byte	0x7d
 9653 0685 00       		.sleb128 0
 9654 0686 1A0B0000 		.4byte	.LCFI41-.Ltext0
 9655 068a 3A0B0000 		.4byte	.LCFI42-.Ltext0
 9656 068e 0200     		.2byte	0x2
 9657 0690 7D       		.byte	0x7d
 9658 0691 10       		.sleb128 16
 9659 0692 3A0B0000 		.4byte	.LCFI42-.Ltext0
 9660 0696 440B0000 		.4byte	.LFE40-.Ltext0
 9661 069a 0200     		.2byte	0x2
 9662 069c 7D       		.byte	0x7d
 9663 069d 00       		.sleb128 0
 9664 069e 00000000 		.4byte	0
 9665 06a2 00000000 		.4byte	0
 9666              	.LLST110:
 9667 06a6 180B0000 		.4byte	.LVL350-.Ltext0
 9668 06aa 1F0B0000 		.4byte	.LVL351-1-.Ltext0
 9669 06ae 0100     		.2byte	0x1
 9670 06b0 50       		.byte	0x50
 9671 06b1 1F0B0000 		.4byte	.LVL351-1-.Ltext0
 9672 06b5 3A0B0000 		.4byte	.LVL355-.Ltext0
 9673 06b9 0100     		.2byte	0x1
 9674 06bb 55       		.byte	0x55
 9675 06bc 3A0B0000 		.4byte	.LVL355-.Ltext0
 9676 06c0 440B0000 		.4byte	.LFE40-.Ltext0
 9677 06c4 0400     		.2byte	0x4
 9678 06c6 F3       		.byte	0xf3
 9679 06c7 01       		.uleb128 0x1
 9680 06c8 50       		.byte	0x50
 9681 06c9 9F       		.byte	0x9f
 9682 06ca 00000000 		.4byte	0
 9683 06ce 00000000 		.4byte	0
 9684              	.LLST111:
 9685 06d2 180B0000 		.4byte	.LVL350-.Ltext0
 9686 06d6 220B0000 		.4byte	.LVL352-.Ltext0
 9687 06da 0200     		.2byte	0x2
 9688 06dc 30       		.byte	0x30
 9689 06dd 9F       		.byte	0x9f
 9690 06de 220B0000 		.4byte	.LVL352-.Ltext0
 9691 06e2 260B0000 		.4byte	.LVL353-.Ltext0
 9692 06e6 0100     		.2byte	0x1
 9693 06e8 50       		.byte	0x50
 9694 06e9 260B0000 		.4byte	.LVL353-.Ltext0
 9695 06ed 3A0B0000 		.4byte	.LVL355-.Ltext0
ARM GAS  G:\Users\Jaxb\AppData\Local\Temp\ccbV8Tbs.s 			page 198


 9696 06f1 0100     		.2byte	0x1
 9697 06f3 54       		.byte	0x54
 9698 06f4 3A0B0000 		.4byte	.LVL355-.Ltext0
 9699 06f8 3D0B0000 		.4byte	.LVL356-1-.Ltext0
 9700 06fc 0100     		.2byte	0x1
 9701 06fe 50       		.byte	0x50
 9702 06ff 00000000 		.4byte	0
 9703 0703 00000000 		.4byte	0
 9704              	.LLST106:
 9705 0707 EC0A0000 		.4byte	.LFB39-.Ltext0
 9706 070b EE0A0000 		.4byte	.LCFI39-.Ltext0
 9707 070f 0200     		.2byte	0x2
 9708 0711 7D       		.byte	0x7d
 9709 0712 00       		.sleb128 0
 9710 0713 EE0A0000 		.4byte	.LCFI39-.Ltext0
 9711 0717 0E0B0000 		.4byte	.LCFI40-.Ltext0
 9712 071b 0200     		.2byte	0x2
 9713 071d 7D       		.byte	0x7d
 9714 071e 10       		.sleb128 16
 9715 071f 0E0B0000 		.4byte	.LCFI40-.Ltext0
 9716 0723 180B0000 		.4byte	.LFE39-.Ltext0
 9717 0727 0200     		.2byte	0x2
 9718 0729 7D       		.byte	0x7d
 9719 072a 00       		.sleb128 0
 9720 072b 00000000 		.4byte	0
 9721 072f 00000000 		.4byte	0
 9722              	.LLST107:
 9723 0733 EC0A0000 		.4byte	.LVL343-.Ltext0
 9724 0737 F30A0000 		.4byte	.LVL344-1-.Ltext0
 9725 073b 0100     		.2byte	0x1
 9726 073d 50       		.byte	0x50
 9727 073e F30A0000 		.4byte	.LVL344-1-.Ltext0
 9728 0742 0E0B0000 		.4byte	.LVL348-.Ltext0
 9729 0746 0100     		.2byte	0x1
 9730 0748 55       		.byte	0x55
 9731 0749 0E0B0000 		.4byte	.LVL348-.Ltext0
 9732 074d 180B0000 		.4byte	.LFE39-.Ltext0
 9733 0751 0400     		.2byte	0x4
 9734 0753 F3       		.byte	0xf3
 9735 0754 01       		.uleb128 0x1
 9736 0755 50       		.byte	0x50
 9737 0756 9F       		.byte	0x9f
 9738 0757 00000000 		.4byte	0
 9739 075b 00000000 		.4byte	0
 9740              	.LLST108:
 9741 075f EC0A0000 		.4byte	.LVL343-.Ltext0
 9742 0763 F60A0000 		.4byte	.LVL345-.Ltext0
 9743 0767 0200     		.2byte	0x2
 9744 0769 30       		.byte	0x30
 9745 076a 9F       		.byte	0x9f
 9746 076b F60A0000 		.4byte	.LVL345-.Ltext0
 9747 076f FA0A0000 		.4byte	.LVL346-.Ltext0
 9748 0773 0100     		.2byte	0x1
 9749 0775 50       		.byte	0x50
 9750 0776 FA0A0000 		.4byte	.LVL346-.Ltext0
 9751 077a 0E0B0000 		.4byte	.LVL348-.Ltext0
 9752 077e 0100     		.2byte	0x1
ARM GAS  G:\Users\Jaxb\AppData\Local\Temp\ccbV8Tbs.s 			page 199


 9753 0780 54       		.byte	0x54
 9754 0781 0E0B0000 		.4byte	.LVL348-.Ltext0
 9755 0785 110B0000 		.4byte	.LVL349-1-.Ltext0
 9756 0789 0100     		.2byte	0x1
 9757 078b 50       		.byte	0x50
 9758 078c 00000000 		.4byte	0
 9759 0790 00000000 		.4byte	0
 9760              	.LLST103:
 9761 0794 C00A0000 		.4byte	.LFB38-.Ltext0
 9762 0798 C20A0000 		.4byte	.LCFI37-.Ltext0
 9763 079c 0200     		.2byte	0x2
 9764 079e 7D       		.byte	0x7d
 9765 079f 00       		.sleb128 0
 9766 07a0 C20A0000 		.4byte	.LCFI37-.Ltext0
 9767 07a4 E20A0000 		.4byte	.LCFI38-.Ltext0
 9768 07a8 0200     		.2byte	0x2
 9769 07aa 7D       		.byte	0x7d
 9770 07ab 10       		.sleb128 16
 9771 07ac E20A0000 		.4byte	.LCFI38-.Ltext0
 9772 07b0 EC0A0000 		.4byte	.LFE38-.Ltext0
 9773 07b4 0200     		.2byte	0x2
 9774 07b6 7D       		.byte	0x7d
 9775 07b7 00       		.sleb128 0
 9776 07b8 00000000 		.4byte	0
 9777 07bc 00000000 		.4byte	0
 9778              	.LLST104:
 9779 07c0 C00A0000 		.4byte	.LVL336-.Ltext0
 9780 07c4 C70A0000 		.4byte	.LVL337-1-.Ltext0
 9781 07c8 0100     		.2byte	0x1
 9782 07ca 50       		.byte	0x50
 9783 07cb C70A0000 		.4byte	.LVL337-1-.Ltext0
 9784 07cf E20A0000 		.4byte	.LVL341-.Ltext0
 9785 07d3 0100     		.2byte	0x1
 9786 07d5 55       		.byte	0x55
 9787 07d6 E20A0000 		.4byte	.LVL341-.Ltext0
 9788 07da EC0A0000 		.4byte	.LFE38-.Ltext0
 9789 07de 0400     		.2byte	0x4
 9790 07e0 F3       		.byte	0xf3
 9791 07e1 01       		.uleb128 0x1
 9792 07e2 50       		.byte	0x50
 9793 07e3 9F       		.byte	0x9f
 9794 07e4 00000000 		.4byte	0
 9795 07e8 00000000 		.4byte	0
 9796              	.LLST105:
 9797 07ec C00A0000 		.4byte	.LVL336-.Ltext0
 9798 07f0 CA0A0000 		.4byte	.LVL338-.Ltext0
 9799 07f4 0200     		.2byte	0x2
 9800 07f6 30       		.byte	0x30
 9801 07f7 9F       		.byte	0x9f
 9802 07f8 CA0A0000 		.4byte	.LVL338-.Ltext0
 9803 07fc CE0A0000 		.4byte	.LVL339-.Ltext0
 9804 0800 0100     		.2byte	0x1
 9805 0802 50       		.byte	0x50
 9806 0803 CE0A0000 		.4byte	.LVL339-.Ltext0
 9807 0807 E20A0000 		.4byte	.LVL341-.Ltext0
 9808 080b 0100     		.2byte	0x1
 9809 080d 54       		.byte	0x54
ARM GAS  G:\Users\Jaxb\AppData\Local\Temp\ccbV8Tbs.s 			page 200


 9810 080e E20A0000 		.4byte	.LVL341-.Ltext0
 9811 0812 E50A0000 		.4byte	.LVL342-1-.Ltext0
 9812 0816 0100     		.2byte	0x1
 9813 0818 50       		.byte	0x50
 9814 0819 00000000 		.4byte	0
 9815 081d 00000000 		.4byte	0
 9816              	.LLST100:
 9817 0821 940A0000 		.4byte	.LFB37-.Ltext0
 9818 0825 960A0000 		.4byte	.LCFI35-.Ltext0
 9819 0829 0200     		.2byte	0x2
 9820 082b 7D       		.byte	0x7d
 9821 082c 00       		.sleb128 0
 9822 082d 960A0000 		.4byte	.LCFI35-.Ltext0
 9823 0831 B60A0000 		.4byte	.LCFI36-.Ltext0
 9824 0835 0200     		.2byte	0x2
 9825 0837 7D       		.byte	0x7d
 9826 0838 10       		.sleb128 16
 9827 0839 B60A0000 		.4byte	.LCFI36-.Ltext0
 9828 083d C00A0000 		.4byte	.LFE37-.Ltext0
 9829 0841 0200     		.2byte	0x2
 9830 0843 7D       		.byte	0x7d
 9831 0844 00       		.sleb128 0
 9832 0845 00000000 		.4byte	0
 9833 0849 00000000 		.4byte	0
 9834              	.LLST101:
 9835 084d 940A0000 		.4byte	.LVL329-.Ltext0
 9836 0851 9B0A0000 		.4byte	.LVL330-1-.Ltext0
 9837 0855 0100     		.2byte	0x1
 9838 0857 50       		.byte	0x50
 9839 0858 9B0A0000 		.4byte	.LVL330-1-.Ltext0
 9840 085c B60A0000 		.4byte	.LVL334-.Ltext0
 9841 0860 0100     		.2byte	0x1
 9842 0862 55       		.byte	0x55
 9843 0863 B60A0000 		.4byte	.LVL334-.Ltext0
 9844 0867 C00A0000 		.4byte	.LFE37-.Ltext0
 9845 086b 0400     		.2byte	0x4
 9846 086d F3       		.byte	0xf3
 9847 086e 01       		.uleb128 0x1
 9848 086f 50       		.byte	0x50
 9849 0870 9F       		.byte	0x9f
 9850 0871 00000000 		.4byte	0
 9851 0875 00000000 		.4byte	0
 9852              	.LLST102:
 9853 0879 940A0000 		.4byte	.LVL329-.Ltext0
 9854 087d 9E0A0000 		.4byte	.LVL331-.Ltext0
 9855 0881 0200     		.2byte	0x2
 9856 0883 30       		.byte	0x30
 9857 0884 9F       		.byte	0x9f
 9858 0885 9E0A0000 		.4byte	.LVL331-.Ltext0
 9859 0889 A20A0000 		.4byte	.LVL332-.Ltext0
 9860 088d 0100     		.2byte	0x1
 9861 088f 50       		.byte	0x50
 9862 0890 A20A0000 		.4byte	.LVL332-.Ltext0
 9863 0894 B60A0000 		.4byte	.LVL334-.Ltext0
 9864 0898 0100     		.2byte	0x1
 9865 089a 54       		.byte	0x54
 9866 089b B60A0000 		.4byte	.LVL334-.Ltext0
ARM GAS  G:\Users\Jaxb\AppData\Local\Temp\ccbV8Tbs.s 			page 201


 9867 089f B90A0000 		.4byte	.LVL335-1-.Ltext0
 9868 08a3 0100     		.2byte	0x1
 9869 08a5 50       		.byte	0x50
 9870 08a6 00000000 		.4byte	0
 9871 08aa 00000000 		.4byte	0
 9872              	.LLST97:
 9873 08ae 680A0000 		.4byte	.LFB36-.Ltext0
 9874 08b2 6A0A0000 		.4byte	.LCFI33-.Ltext0
 9875 08b6 0200     		.2byte	0x2
 9876 08b8 7D       		.byte	0x7d
 9877 08b9 00       		.sleb128 0
 9878 08ba 6A0A0000 		.4byte	.LCFI33-.Ltext0
 9879 08be 8A0A0000 		.4byte	.LCFI34-.Ltext0
 9880 08c2 0200     		.2byte	0x2
 9881 08c4 7D       		.byte	0x7d
 9882 08c5 10       		.sleb128 16
 9883 08c6 8A0A0000 		.4byte	.LCFI34-.Ltext0
 9884 08ca 940A0000 		.4byte	.LFE36-.Ltext0
 9885 08ce 0200     		.2byte	0x2
 9886 08d0 7D       		.byte	0x7d
 9887 08d1 00       		.sleb128 0
 9888 08d2 00000000 		.4byte	0
 9889 08d6 00000000 		.4byte	0
 9890              	.LLST98:
 9891 08da 680A0000 		.4byte	.LVL322-.Ltext0
 9892 08de 6F0A0000 		.4byte	.LVL323-1-.Ltext0
 9893 08e2 0100     		.2byte	0x1
 9894 08e4 50       		.byte	0x50
 9895 08e5 6F0A0000 		.4byte	.LVL323-1-.Ltext0
 9896 08e9 8A0A0000 		.4byte	.LVL327-.Ltext0
 9897 08ed 0100     		.2byte	0x1
 9898 08ef 55       		.byte	0x55
 9899 08f0 8A0A0000 		.4byte	.LVL327-.Ltext0
 9900 08f4 940A0000 		.4byte	.LFE36-.Ltext0
 9901 08f8 0400     		.2byte	0x4
 9902 08fa F3       		.byte	0xf3
 9903 08fb 01       		.uleb128 0x1
 9904 08fc 50       		.byte	0x50
 9905 08fd 9F       		.byte	0x9f
 9906 08fe 00000000 		.4byte	0
 9907 0902 00000000 		.4byte	0
 9908              	.LLST99:
 9909 0906 680A0000 		.4byte	.LVL322-.Ltext0
 9910 090a 720A0000 		.4byte	.LVL324-.Ltext0
 9911 090e 0200     		.2byte	0x2
 9912 0910 30       		.byte	0x30
 9913 0911 9F       		.byte	0x9f
 9914 0912 720A0000 		.4byte	.LVL324-.Ltext0
 9915 0916 760A0000 		.4byte	.LVL325-.Ltext0
 9916 091a 0100     		.2byte	0x1
 9917 091c 50       		.byte	0x50
 9918 091d 760A0000 		.4byte	.LVL325-.Ltext0
 9919 0921 8A0A0000 		.4byte	.LVL327-.Ltext0
 9920 0925 0100     		.2byte	0x1
 9921 0927 54       		.byte	0x54
 9922 0928 8A0A0000 		.4byte	.LVL327-.Ltext0
 9923 092c 8D0A0000 		.4byte	.LVL328-1-.Ltext0
ARM GAS  G:\Users\Jaxb\AppData\Local\Temp\ccbV8Tbs.s 			page 202


 9924 0930 0100     		.2byte	0x1
 9925 0932 50       		.byte	0x50
 9926 0933 00000000 		.4byte	0
 9927 0937 00000000 		.4byte	0
 9928              	.LLST94:
 9929 093b 3C0A0000 		.4byte	.LFB35-.Ltext0
 9930 093f 3E0A0000 		.4byte	.LCFI31-.Ltext0
 9931 0943 0200     		.2byte	0x2
 9932 0945 7D       		.byte	0x7d
 9933 0946 00       		.sleb128 0
 9934 0947 3E0A0000 		.4byte	.LCFI31-.Ltext0
 9935 094b 5E0A0000 		.4byte	.LCFI32-.Ltext0
 9936 094f 0200     		.2byte	0x2
 9937 0951 7D       		.byte	0x7d
 9938 0952 10       		.sleb128 16
 9939 0953 5E0A0000 		.4byte	.LCFI32-.Ltext0
 9940 0957 680A0000 		.4byte	.LFE35-.Ltext0
 9941 095b 0200     		.2byte	0x2
 9942 095d 7D       		.byte	0x7d
 9943 095e 00       		.sleb128 0
 9944 095f 00000000 		.4byte	0
 9945 0963 00000000 		.4byte	0
 9946              	.LLST95:
 9947 0967 3C0A0000 		.4byte	.LVL315-.Ltext0
 9948 096b 430A0000 		.4byte	.LVL316-1-.Ltext0
 9949 096f 0100     		.2byte	0x1
 9950 0971 50       		.byte	0x50
 9951 0972 430A0000 		.4byte	.LVL316-1-.Ltext0
 9952 0976 5E0A0000 		.4byte	.LVL320-.Ltext0
 9953 097a 0100     		.2byte	0x1
 9954 097c 55       		.byte	0x55
 9955 097d 5E0A0000 		.4byte	.LVL320-.Ltext0
 9956 0981 680A0000 		.4byte	.LFE35-.Ltext0
 9957 0985 0400     		.2byte	0x4
 9958 0987 F3       		.byte	0xf3
 9959 0988 01       		.uleb128 0x1
 9960 0989 50       		.byte	0x50
 9961 098a 9F       		.byte	0x9f
 9962 098b 00000000 		.4byte	0
 9963 098f 00000000 		.4byte	0
 9964              	.LLST96:
 9965 0993 3C0A0000 		.4byte	.LVL315-.Ltext0
 9966 0997 480A0000 		.4byte	.LVL317-.Ltext0
 9967 099b 0200     		.2byte	0x2
 9968 099d 30       		.byte	0x30
 9969 099e 9F       		.byte	0x9f
 9970 099f 480A0000 		.4byte	.LVL317-.Ltext0
 9971 09a3 4C0A0000 		.4byte	.LVL318-.Ltext0
 9972 09a7 0100     		.2byte	0x1
 9973 09a9 50       		.byte	0x50
 9974 09aa 4C0A0000 		.4byte	.LVL318-.Ltext0
 9975 09ae 5E0A0000 		.4byte	.LVL320-.Ltext0
 9976 09b2 0100     		.2byte	0x1
 9977 09b4 54       		.byte	0x54
 9978 09b5 5E0A0000 		.4byte	.LVL320-.Ltext0
 9979 09b9 610A0000 		.4byte	.LVL321-1-.Ltext0
 9980 09bd 0100     		.2byte	0x1
ARM GAS  G:\Users\Jaxb\AppData\Local\Temp\ccbV8Tbs.s 			page 203


 9981 09bf 50       		.byte	0x50
 9982 09c0 00000000 		.4byte	0
 9983 09c4 00000000 		.4byte	0
 9984              	.LLST91:
 9985 09c8 100A0000 		.4byte	.LFB34-.Ltext0
 9986 09cc 120A0000 		.4byte	.LCFI29-.Ltext0
 9987 09d0 0200     		.2byte	0x2
 9988 09d2 7D       		.byte	0x7d
 9989 09d3 00       		.sleb128 0
 9990 09d4 120A0000 		.4byte	.LCFI29-.Ltext0
 9991 09d8 320A0000 		.4byte	.LCFI30-.Ltext0
 9992 09dc 0200     		.2byte	0x2
 9993 09de 7D       		.byte	0x7d
 9994 09df 10       		.sleb128 16
 9995 09e0 320A0000 		.4byte	.LCFI30-.Ltext0
 9996 09e4 3C0A0000 		.4byte	.LFE34-.Ltext0
 9997 09e8 0200     		.2byte	0x2
 9998 09ea 7D       		.byte	0x7d
 9999 09eb 00       		.sleb128 0
 10000 09ec 00000000 		.4byte	0
 10001 09f0 00000000 		.4byte	0
 10002              	.LLST92:
 10003 09f4 100A0000 		.4byte	.LVL308-.Ltext0
 10004 09f8 170A0000 		.4byte	.LVL309-1-.Ltext0
 10005 09fc 0100     		.2byte	0x1
 10006 09fe 50       		.byte	0x50
 10007 09ff 170A0000 		.4byte	.LVL309-1-.Ltext0
 10008 0a03 320A0000 		.4byte	.LVL313-.Ltext0
 10009 0a07 0100     		.2byte	0x1
 10010 0a09 55       		.byte	0x55
 10011 0a0a 320A0000 		.4byte	.LVL313-.Ltext0
 10012 0a0e 3C0A0000 		.4byte	.LFE34-.Ltext0
 10013 0a12 0400     		.2byte	0x4
 10014 0a14 F3       		.byte	0xf3
 10015 0a15 01       		.uleb128 0x1
 10016 0a16 50       		.byte	0x50
 10017 0a17 9F       		.byte	0x9f
 10018 0a18 00000000 		.4byte	0
 10019 0a1c 00000000 		.4byte	0
 10020              	.LLST93:
 10021 0a20 100A0000 		.4byte	.LVL308-.Ltext0
 10022 0a24 1C0A0000 		.4byte	.LVL310-.Ltext0
 10023 0a28 0200     		.2byte	0x2
 10024 0a2a 30       		.byte	0x30
 10025 0a2b 9F       		.byte	0x9f
 10026 0a2c 1C0A0000 		.4byte	.LVL310-.Ltext0
 10027 0a30 200A0000 		.4byte	.LVL311-.Ltext0
 10028 0a34 0100     		.2byte	0x1
 10029 0a36 50       		.byte	0x50
 10030 0a37 200A0000 		.4byte	.LVL311-.Ltext0
 10031 0a3b 320A0000 		.4byte	.LVL313-.Ltext0
 10032 0a3f 0100     		.2byte	0x1
 10033 0a41 54       		.byte	0x54
 10034 0a42 320A0000 		.4byte	.LVL313-.Ltext0
 10035 0a46 350A0000 		.4byte	.LVL314-1-.Ltext0
 10036 0a4a 0100     		.2byte	0x1
 10037 0a4c 50       		.byte	0x50
ARM GAS  G:\Users\Jaxb\AppData\Local\Temp\ccbV8Tbs.s 			page 204


 10038 0a4d 00000000 		.4byte	0
 10039 0a51 00000000 		.4byte	0
 10040              	.LLST14:
 10041 0a55 EC010000 		.4byte	.LFB33-.Ltext0
 10042 0a59 F0010000 		.4byte	.LCFI3-.Ltext0
 10043 0a5d 0200     		.2byte	0x2
 10044 0a5f 7D       		.byte	0x7d
 10045 0a60 00       		.sleb128 0
 10046 0a61 F0010000 		.4byte	.LCFI3-.Ltext0
 10047 0a65 F4010000 		.4byte	.LCFI4-.Ltext0
 10048 0a69 0200     		.2byte	0x2
 10049 0a6b 7D       		.byte	0x7d
 10050 0a6c 24       		.sleb128 36
 10051 0a6d F4010000 		.4byte	.LCFI4-.Ltext0
 10052 0a71 22040000 		.4byte	.LCFI5-.Ltext0
 10053 0a75 0200     		.2byte	0x2
 10054 0a77 7D       		.byte	0x7d
 10055 0a78 30       		.sleb128 48
 10056 0a79 22040000 		.4byte	.LCFI5-.Ltext0
 10057 0a7d 26040000 		.4byte	.LCFI6-.Ltext0
 10058 0a81 0200     		.2byte	0x2
 10059 0a83 7D       		.byte	0x7d
 10060 0a84 24       		.sleb128 36
 10061 0a85 26040000 		.4byte	.LCFI6-.Ltext0
 10062 0a89 64040000 		.4byte	.LCFI7-.Ltext0
 10063 0a8d 0200     		.2byte	0x2
 10064 0a8f 7D       		.byte	0x7d
 10065 0a90 30       		.sleb128 48
 10066 0a91 64040000 		.4byte	.LCFI7-.Ltext0
 10067 0a95 68040000 		.4byte	.LCFI8-.Ltext0
 10068 0a99 0200     		.2byte	0x2
 10069 0a9b 7D       		.byte	0x7d
 10070 0a9c 24       		.sleb128 36
 10071 0a9d 68040000 		.4byte	.LCFI8-.Ltext0
 10072 0aa1 6A040000 		.4byte	.LCFI9-.Ltext0
 10073 0aa5 0200     		.2byte	0x2
 10074 0aa7 7D       		.byte	0x7d
 10075 0aa8 00       		.sleb128 0
 10076 0aa9 6A040000 		.4byte	.LCFI9-.Ltext0
 10077 0aad 60050000 		.4byte	.LFE33-.Ltext0
 10078 0ab1 0200     		.2byte	0x2
 10079 0ab3 7D       		.byte	0x7d
 10080 0ab4 30       		.sleb128 48
 10081 0ab5 00000000 		.4byte	0
 10082 0ab9 00000000 		.4byte	0
 10083              	.LLST15:
 10084 0abd EC010000 		.4byte	.LVL44-.Ltext0
 10085 0ac1 0E020000 		.4byte	.LVL46-.Ltext0
 10086 0ac5 0100     		.2byte	0x1
 10087 0ac7 50       		.byte	0x50
 10088 0ac8 0E020000 		.4byte	.LVL46-.Ltext0
 10089 0acc 52020000 		.4byte	.LVL51-.Ltext0
 10090 0ad0 0100     		.2byte	0x1
 10091 0ad2 55       		.byte	0x55
 10092 0ad3 52020000 		.4byte	.LVL51-.Ltext0
 10093 0ad7 26040000 		.4byte	.LVL86-.Ltext0
 10094 0adb 0400     		.2byte	0x4
ARM GAS  G:\Users\Jaxb\AppData\Local\Temp\ccbV8Tbs.s 			page 205


 10095 0add F3       		.byte	0xf3
 10096 0ade 01       		.uleb128 0x1
 10097 0adf 50       		.byte	0x50
 10098 0ae0 9F       		.byte	0x9f
 10099 0ae1 26040000 		.4byte	.LVL86-.Ltext0
 10100 0ae5 28040000 		.4byte	.LVL87-.Ltext0
 10101 0ae9 0100     		.2byte	0x1
 10102 0aeb 50       		.byte	0x50
 10103 0aec 28040000 		.4byte	.LVL87-.Ltext0
 10104 0af0 3E040000 		.4byte	.LVL89-.Ltext0
 10105 0af4 0100     		.2byte	0x1
 10106 0af6 55       		.byte	0x55
 10107 0af7 3E040000 		.4byte	.LVL89-.Ltext0
 10108 0afb 60050000 		.4byte	.LFE33-.Ltext0
 10109 0aff 0400     		.2byte	0x4
 10110 0b01 F3       		.byte	0xf3
 10111 0b02 01       		.uleb128 0x1
 10112 0b03 50       		.byte	0x50
 10113 0b04 9F       		.byte	0x9f
 10114 0b05 00000000 		.4byte	0
 10115 0b09 00000000 		.4byte	0
 10116              	.LLST16:
 10117 0b0d EC010000 		.4byte	.LVL44-.Ltext0
 10118 0b11 06020000 		.4byte	.LVL45-.Ltext0
 10119 0b15 0100     		.2byte	0x1
 10120 0b17 51       		.byte	0x51
 10121 0b18 06020000 		.4byte	.LVL45-.Ltext0
 10122 0b1c 90020000 		.4byte	.LVL55-.Ltext0
 10123 0b20 0100     		.2byte	0x1
 10124 0b22 59       		.byte	0x59
 10125 0b23 90020000 		.4byte	.LVL55-.Ltext0
 10126 0b27 08040000 		.4byte	.LVL82-.Ltext0
 10127 0b2b 0400     		.2byte	0x4
 10128 0b2d F3       		.byte	0xf3
 10129 0b2e 01       		.uleb128 0x1
 10130 0b2f 51       		.byte	0x51
 10131 0b30 9F       		.byte	0x9f
 10132 0b31 08040000 		.4byte	.LVL82-.Ltext0
 10133 0b35 20040000 		.4byte	.LVL85-.Ltext0
 10134 0b39 0100     		.2byte	0x1
 10135 0b3b 59       		.byte	0x59
 10136 0b3c 20040000 		.4byte	.LVL85-.Ltext0
 10137 0b40 26040000 		.4byte	.LVL86-.Ltext0
 10138 0b44 0400     		.2byte	0x4
 10139 0b46 F3       		.byte	0xf3
 10140 0b47 01       		.uleb128 0x1
 10141 0b48 51       		.byte	0x51
 10142 0b49 9F       		.byte	0x9f
 10143 0b4a 26040000 		.4byte	.LVL86-.Ltext0
 10144 0b4e 3E040000 		.4byte	.LVL89-.Ltext0
 10145 0b52 0100     		.2byte	0x1
 10146 0b54 59       		.byte	0x59
 10147 0b55 3E040000 		.4byte	.LVL89-.Ltext0
 10148 0b59 0E050000 		.4byte	.LVL109-.Ltext0
 10149 0b5d 0400     		.2byte	0x4
 10150 0b5f F3       		.byte	0xf3
 10151 0b60 01       		.uleb128 0x1
ARM GAS  G:\Users\Jaxb\AppData\Local\Temp\ccbV8Tbs.s 			page 206


 10152 0b61 51       		.byte	0x51
 10153 0b62 9F       		.byte	0x9f
 10154 0b63 0E050000 		.4byte	.LVL109-.Ltext0
 10155 0b67 18050000 		.4byte	.LVL111-.Ltext0
 10156 0b6b 0100     		.2byte	0x1
 10157 0b6d 59       		.byte	0x59
 10158 0b6e 18050000 		.4byte	.LVL111-.Ltext0
 10159 0b72 60050000 		.4byte	.LFE33-.Ltext0
 10160 0b76 0400     		.2byte	0x4
 10161 0b78 F3       		.byte	0xf3
 10162 0b79 01       		.uleb128 0x1
 10163 0b7a 51       		.byte	0x51
 10164 0b7b 9F       		.byte	0x9f
 10165 0b7c 00000000 		.4byte	0
 10166 0b80 00000000 		.4byte	0
 10167              	.LLST17:
 10168 0b84 26020000 		.4byte	.LVL47-.Ltext0
 10169 0b88 3A020000 		.4byte	.LVL49-.Ltext0
 10170 0b8c 0100     		.2byte	0x1
 10171 0b8e 55       		.byte	0x55
 10172 0b8f 00000000 		.4byte	0
 10173 0b93 00000000 		.4byte	0
 10174              	.LLST18:
 10175 0b97 44020000 		.4byte	.LVL50-.Ltext0
 10176 0b9b 52020000 		.4byte	.LVL51-.Ltext0
 10177 0b9f 0100     		.2byte	0x1
 10178 0ba1 55       		.byte	0x55
 10179 0ba2 52020000 		.4byte	.LVL51-.Ltext0
 10180 0ba6 56020000 		.4byte	.LVL52-.Ltext0
 10181 0baa 0400     		.2byte	0x4
 10182 0bac F3       		.byte	0xf3
 10183 0bad 01       		.uleb128 0x1
 10184 0bae 50       		.byte	0x50
 10185 0baf 9F       		.byte	0x9f
 10186 0bb0 00000000 		.4byte	0
 10187 0bb4 00000000 		.4byte	0
 10188              	.LLST19:
 10189 0bb8 5C020000 		.4byte	.LVL53-.Ltext0
 10190 0bbc 20040000 		.4byte	.LVL85-.Ltext0
 10191 0bc0 0100     		.2byte	0x1
 10192 0bc2 56       		.byte	0x56
 10193 0bc3 3E040000 		.4byte	.LVL89-.Ltext0
 10194 0bc7 44040000 		.4byte	.LVL90-.Ltext0
 10195 0bcb 0100     		.2byte	0x1
 10196 0bcd 56       		.byte	0x56
 10197 0bce 4A040000 		.4byte	.LVL92-.Ltext0
 10198 0bd2 68040000 		.4byte	.LVL94-.Ltext0
 10199 0bd6 0100     		.2byte	0x1
 10200 0bd8 56       		.byte	0x56
 10201 0bd9 6A040000 		.4byte	.LVL95-.Ltext0
 10202 0bdd 60050000 		.4byte	.LFE33-.Ltext0
 10203 0be1 0100     		.2byte	0x1
 10204 0be3 56       		.byte	0x56
 10205 0be4 00000000 		.4byte	0
 10206 0be8 00000000 		.4byte	0
 10207              	.LLST20:
 10208 0bec 5C020000 		.4byte	.LVL53-.Ltext0
ARM GAS  G:\Users\Jaxb\AppData\Local\Temp\ccbV8Tbs.s 			page 207


 10209 0bf0 90020000 		.4byte	.LVL55-.Ltext0
 10210 0bf4 0100     		.2byte	0x1
 10211 0bf6 59       		.byte	0x59
 10212 0bf7 90020000 		.4byte	.LVL55-.Ltext0
 10213 0bfb 08040000 		.4byte	.LVL82-.Ltext0
 10214 0bff 0400     		.2byte	0x4
 10215 0c01 F3       		.byte	0xf3
 10216 0c02 01       		.uleb128 0x1
 10217 0c03 51       		.byte	0x51
 10218 0c04 9F       		.byte	0x9f
 10219 0c05 08040000 		.4byte	.LVL82-.Ltext0
 10220 0c09 20040000 		.4byte	.LVL85-.Ltext0
 10221 0c0d 0100     		.2byte	0x1
 10222 0c0f 59       		.byte	0x59
 10223 0c10 3E040000 		.4byte	.LVL89-.Ltext0
 10224 0c14 0E050000 		.4byte	.LVL109-.Ltext0
 10225 0c18 0400     		.2byte	0x4
 10226 0c1a F3       		.byte	0xf3
 10227 0c1b 01       		.uleb128 0x1
 10228 0c1c 51       		.byte	0x51
 10229 0c1d 9F       		.byte	0x9f
 10230 0c1e 0E050000 		.4byte	.LVL109-.Ltext0
 10231 0c22 18050000 		.4byte	.LVL111-.Ltext0
 10232 0c26 0100     		.2byte	0x1
 10233 0c28 59       		.byte	0x59
 10234 0c29 18050000 		.4byte	.LVL111-.Ltext0
 10235 0c2d 60050000 		.4byte	.LFE33-.Ltext0
 10236 0c31 0400     		.2byte	0x4
 10237 0c33 F3       		.byte	0xf3
 10238 0c34 01       		.uleb128 0x1
 10239 0c35 51       		.byte	0x51
 10240 0c36 9F       		.byte	0x9f
 10241 0c37 00000000 		.4byte	0
 10242 0c3b 00000000 		.4byte	0
 10243              	.LLST21:
 10244 0c3f 7A020000 		.4byte	.LVL54-.Ltext0
 10245 0c43 D8030000 		.4byte	.LVL77-.Ltext0
 10246 0c47 0100     		.2byte	0x1
 10247 0c49 59       		.byte	0x59
 10248 0c4a D8030000 		.4byte	.LVL77-.Ltext0
 10249 0c4e E2030000 		.4byte	.LVL78-.Ltext0
 10250 0c52 0300     		.2byte	0x3
 10251 0c54 79       		.byte	0x79
 10252 0c55 7F       		.sleb128 -1
 10253 0c56 9F       		.byte	0x9f
 10254 0c57 E2030000 		.4byte	.LVL78-.Ltext0
 10255 0c5b F6030000 		.4byte	.LVL79-.Ltext0
 10256 0c5f 0300     		.2byte	0x3
 10257 0c61 79       		.byte	0x79
 10258 0c62 01       		.sleb128 1
 10259 0c63 9F       		.byte	0x9f
 10260 0c64 F6030000 		.4byte	.LVL79-.Ltext0
 10261 0c68 08040000 		.4byte	.LVL82-.Ltext0
 10262 0c6c 0100     		.2byte	0x1
 10263 0c6e 59       		.byte	0x59
 10264 0c6f 14040000 		.4byte	.LVL84-.Ltext0
 10265 0c73 20040000 		.4byte	.LVL85-.Ltext0
ARM GAS  G:\Users\Jaxb\AppData\Local\Temp\ccbV8Tbs.s 			page 208


 10266 0c77 0100     		.2byte	0x1
 10267 0c79 59       		.byte	0x59
 10268 0c7a 3E040000 		.4byte	.LVL89-.Ltext0
 10269 0c7e 4A040000 		.4byte	.LVL92-.Ltext0
 10270 0c82 0300     		.2byte	0x3
 10271 0c84 79       		.byte	0x79
 10272 0c85 7F       		.sleb128 -1
 10273 0c86 9F       		.byte	0x9f
 10274 0c87 4A040000 		.4byte	.LVL92-.Ltext0
 10275 0c8b 68040000 		.4byte	.LVL94-.Ltext0
 10276 0c8f 0100     		.2byte	0x1
 10277 0c91 59       		.byte	0x59
 10278 0c92 68040000 		.4byte	.LVL94-.Ltext0
 10279 0c96 69040000 		.4byte	.LVL95-1-.Ltext0
 10280 0c9a 0100     		.2byte	0x1
 10281 0c9c 50       		.byte	0x50
 10282 0c9d 6A040000 		.4byte	.LVL95-.Ltext0
 10283 0ca1 0E050000 		.4byte	.LVL109-.Ltext0
 10284 0ca5 0100     		.2byte	0x1
 10285 0ca7 59       		.byte	0x59
 10286 0ca8 18050000 		.4byte	.LVL111-.Ltext0
 10287 0cac 60050000 		.4byte	.LFE33-.Ltext0
 10288 0cb0 0100     		.2byte	0x1
 10289 0cb2 59       		.byte	0x59
 10290 0cb3 00000000 		.4byte	0
 10291 0cb7 00000000 		.4byte	0
 10292              	.LLST22:
 10293 0cbb 36030000 		.4byte	.LVL63-.Ltext0
 10294 0cbf D8030000 		.4byte	.LVL77-.Ltext0
 10295 0cc3 0100     		.2byte	0x1
 10296 0cc5 59       		.byte	0x59
 10297 0cc6 D8030000 		.4byte	.LVL77-.Ltext0
 10298 0cca FE030000 		.4byte	.LVL80-.Ltext0
 10299 0cce 0300     		.2byte	0x3
 10300 0cd0 79       		.byte	0x79
 10301 0cd1 7F       		.sleb128 -1
 10302 0cd2 9F       		.byte	0x9f
 10303 0cd3 3E040000 		.4byte	.LVL89-.Ltext0
 10304 0cd7 4A040000 		.4byte	.LVL92-.Ltext0
 10305 0cdb 0300     		.2byte	0x3
 10306 0cdd 79       		.byte	0x79
 10307 0cde 7F       		.sleb128 -1
 10308 0cdf 9F       		.byte	0x9f
 10309 0ce0 74040000 		.4byte	.LVL97-.Ltext0
 10310 0ce4 0E050000 		.4byte	.LVL109-.Ltext0
 10311 0ce8 0100     		.2byte	0x1
 10312 0cea 59       		.byte	0x59
 10313 0ceb 18050000 		.4byte	.LVL111-.Ltext0
 10314 0cef 34050000 		.4byte	.LVL114-.Ltext0
 10315 0cf3 0100     		.2byte	0x1
 10316 0cf5 59       		.byte	0x59
 10317 0cf6 00000000 		.4byte	0
 10318 0cfa 00000000 		.4byte	0
 10319              	.LLST23:
 10320 0cfe 3C030000 		.4byte	.LVL64-.Ltext0
 10321 0d02 44030000 		.4byte	.LVL65-.Ltext0
 10322 0d06 0100     		.2byte	0x1
ARM GAS  G:\Users\Jaxb\AppData\Local\Temp\ccbV8Tbs.s 			page 209


 10323 0d08 51       		.byte	0x51
 10324 0d09 4A030000 		.4byte	.LVL66-.Ltext0
 10325 0d0d 4E030000 		.4byte	.LVL67-.Ltext0
 10326 0d11 0100     		.2byte	0x1
 10327 0d13 51       		.byte	0x51
 10328 0d14 00000000 		.4byte	0
 10329 0d18 00000000 		.4byte	0
 10330              	.LLST24:
 10331 0d1c AE020000 		.4byte	.LVL56-.Ltext0
 10332 0d20 C8020000 		.4byte	.LVL58-.Ltext0
 10333 0d24 0100     		.2byte	0x1
 10334 0d26 56       		.byte	0x56
 10335 0d27 6A040000 		.4byte	.LVL95-.Ltext0
 10336 0d2b 74040000 		.4byte	.LVL97-.Ltext0
 10337 0d2f 0100     		.2byte	0x1
 10338 0d31 56       		.byte	0x56
 10339 0d32 00000000 		.4byte	0
 10340 0d36 00000000 		.4byte	0
 10341              	.LLST25:
 10342 0d3a AE020000 		.4byte	.LVL56-.Ltext0
 10343 0d3e C8020000 		.4byte	.LVL58-.Ltext0
 10344 0d42 0100     		.2byte	0x1
 10345 0d44 59       		.byte	0x59
 10346 0d45 6A040000 		.4byte	.LVL95-.Ltext0
 10347 0d49 74040000 		.4byte	.LVL97-.Ltext0
 10348 0d4d 0100     		.2byte	0x1
 10349 0d4f 59       		.byte	0x59
 10350 0d50 00000000 		.4byte	0
 10351 0d54 00000000 		.4byte	0
 10352              	.LLST26:
 10353 0d58 C8020000 		.4byte	.LVL58-.Ltext0
 10354 0d5c 1A030000 		.4byte	.LVL62-.Ltext0
 10355 0d60 0100     		.2byte	0x1
 10356 0d62 56       		.byte	0x56
 10357 0d63 00000000 		.4byte	0
 10358 0d67 00000000 		.4byte	0
 10359              	.LLST27:
 10360 0d6b C8020000 		.4byte	.LVL58-.Ltext0
 10361 0d6f 1A030000 		.4byte	.LVL62-.Ltext0
 10362 0d73 0100     		.2byte	0x1
 10363 0d75 59       		.byte	0x59
 10364 0d76 00000000 		.4byte	0
 10365 0d7a 00000000 		.4byte	0
 10366              	.LLST28:
 10367 0d7e 02030000 		.4byte	.LVL60-.Ltext0
 10368 0d82 16030000 		.4byte	.LVL61-.Ltext0
 10369 0d86 0600     		.2byte	0x6
 10370 0d88 76       		.byte	0x76
 10371 0d89 00       		.sleb128 0
 10372 0d8a 79       		.byte	0x79
 10373 0d8b 00       		.sleb128 0
 10374 0d8c 26       		.byte	0x26
 10375 0d8d 9F       		.byte	0x9f
 10376 0d8e 16030000 		.4byte	.LVL61-.Ltext0
 10377 0d92 1A030000 		.4byte	.LVL62-.Ltext0
 10378 0d96 0100     		.2byte	0x1
 10379 0d98 51       		.byte	0x51
ARM GAS  G:\Users\Jaxb\AppData\Local\Temp\ccbV8Tbs.s 			page 210


 10380 0d99 00000000 		.4byte	0
 10381 0d9d 00000000 		.4byte	0
 10382              	.LLST29:
 10383 0da1 56030000 		.4byte	.LVL68-.Ltext0
 10384 0da5 D2030000 		.4byte	.LVL76-.Ltext0
 10385 0da9 0100     		.2byte	0x1
 10386 0dab 57       		.byte	0x57
 10387 0dac 74040000 		.4byte	.LVL97-.Ltext0
 10388 0db0 0E050000 		.4byte	.LVL109-.Ltext0
 10389 0db4 0100     		.2byte	0x1
 10390 0db6 57       		.byte	0x57
 10391 0db7 18050000 		.4byte	.LVL111-.Ltext0
 10392 0dbb 34050000 		.4byte	.LVL114-.Ltext0
 10393 0dbf 0100     		.2byte	0x1
 10394 0dc1 57       		.byte	0x57
 10395 0dc2 00000000 		.4byte	0
 10396 0dc6 00000000 		.4byte	0
 10397              	.LLST30:
 10398 0dca 56030000 		.4byte	.LVL68-.Ltext0
 10399 0dce D2030000 		.4byte	.LVL76-.Ltext0
 10400 0dd2 0100     		.2byte	0x1
 10401 0dd4 59       		.byte	0x59
 10402 0dd5 74040000 		.4byte	.LVL97-.Ltext0
 10403 0dd9 0E050000 		.4byte	.LVL109-.Ltext0
 10404 0ddd 0100     		.2byte	0x1
 10405 0ddf 59       		.byte	0x59
 10406 0de0 18050000 		.4byte	.LVL111-.Ltext0
 10407 0de4 34050000 		.4byte	.LVL114-.Ltext0
 10408 0de8 0100     		.2byte	0x1
 10409 0dea 59       		.byte	0x59
 10410 0deb 00000000 		.4byte	0
 10411 0def 00000000 		.4byte	0
 10412              	.LLST31:
 10413 0df3 8A030000 		.4byte	.LVL70-.Ltext0
 10414 0df7 B2030000 		.4byte	.LVL72-.Ltext0
 10415 0dfb 0D00     		.2byte	0xd
 10416 0dfd 03       		.byte	0x3
 10417 0dfe 00000000 		.4byte	current_used_buddy_ptr
 10418 0e02 06       		.byte	0x6
 10419 0e03 23       		.byte	0x23
 10420 0e04 10       		.uleb128 0x10
 10421 0e05 06       		.byte	0x6
 10422 0e06 7D       		.byte	0x7d
 10423 0e07 00       		.sleb128 0
 10424 0e08 06       		.byte	0x6
 10425 0e09 22       		.byte	0x22
 10426 0e0a D2040000 		.4byte	.LVL104-.Ltext0
 10427 0e0e D8040000 		.4byte	.LVL105-.Ltext0
 10428 0e12 0D00     		.2byte	0xd
 10429 0e14 03       		.byte	0x3
 10430 0e15 00000000 		.4byte	current_used_buddy_ptr
 10431 0e19 06       		.byte	0x6
 10432 0e1a 23       		.byte	0x23
 10433 0e1b 10       		.uleb128 0x10
 10434 0e1c 06       		.byte	0x6
 10435 0e1d 7D       		.byte	0x7d
 10436 0e1e 00       		.sleb128 0
ARM GAS  G:\Users\Jaxb\AppData\Local\Temp\ccbV8Tbs.s 			page 211


 10437 0e1f 06       		.byte	0x6
 10438 0e20 22       		.byte	0x22
 10439 0e21 26050000 		.4byte	.LVL113-.Ltext0
 10440 0e25 34050000 		.4byte	.LVL114-.Ltext0
 10441 0e29 0D00     		.2byte	0xd
 10442 0e2b 03       		.byte	0x3
 10443 0e2c 00000000 		.4byte	current_used_buddy_ptr
 10444 0e30 06       		.byte	0x6
 10445 0e31 23       		.byte	0x23
 10446 0e32 10       		.uleb128 0x10
 10447 0e33 06       		.byte	0x6
 10448 0e34 7D       		.byte	0x7d
 10449 0e35 00       		.sleb128 0
 10450 0e36 06       		.byte	0x6
 10451 0e37 22       		.byte	0x22
 10452 0e38 00000000 		.4byte	0
 10453 0e3c 00000000 		.4byte	0
 10454              	.LLST32:
 10455 0e40 9E030000 		.4byte	.LVL71-.Ltext0
 10456 0e44 B2030000 		.4byte	.LVL72-.Ltext0
 10457 0e48 0200     		.2byte	0x2
 10458 0e4a 7B       		.byte	0x7b
 10459 0e4b 02       		.sleb128 2
 10460 0e4c B2030000 		.4byte	.LVL72-.Ltext0
 10461 0e50 BE030000 		.4byte	.LVL73-.Ltext0
 10462 0e54 0100     		.2byte	0x1
 10463 0e56 54       		.byte	0x54
 10464 0e57 C0030000 		.4byte	.LVL74-.Ltext0
 10465 0e5b C8030000 		.4byte	.LVL75-.Ltext0
 10466 0e5f 0100     		.2byte	0x1
 10467 0e61 54       		.byte	0x54
 10468 0e62 74040000 		.4byte	.LVL97-.Ltext0
 10469 0e66 78040000 		.4byte	.LVL98-.Ltext0
 10470 0e6a 0100     		.2byte	0x1
 10471 0e6c 54       		.byte	0x54
 10472 0e6d 26050000 		.4byte	.LVL113-.Ltext0
 10473 0e71 34050000 		.4byte	.LVL114-.Ltext0
 10474 0e75 0200     		.2byte	0x2
 10475 0e77 7B       		.byte	0x7b
 10476 0e78 02       		.sleb128 2
 10477 0e79 00000000 		.4byte	0
 10478 0e7d 00000000 		.4byte	0
 10479              	.LLST33:
 10480 0e81 84040000 		.4byte	.LVL99-.Ltext0
 10481 0e85 A6040000 		.4byte	.LVL101-.Ltext0
 10482 0e89 0100     		.2byte	0x1
 10483 0e8b 54       		.byte	0x54
 10484 0e8c 00050000 		.4byte	.LVL107-.Ltext0
 10485 0e90 0E050000 		.4byte	.LVL109-.Ltext0
 10486 0e94 0100     		.2byte	0x1
 10487 0e96 54       		.byte	0x54
 10488 0e97 00000000 		.4byte	0
 10489 0e9b 00000000 		.4byte	0
 10490              	.LLST34:
 10491 0e9f 34050000 		.4byte	.LVL114-.Ltext0
 10492 0ea3 52050000 		.4byte	.LVL118-.Ltext0
 10493 0ea7 0100     		.2byte	0x1
ARM GAS  G:\Users\Jaxb\AppData\Local\Temp\ccbV8Tbs.s 			page 212


 10494 0ea9 57       		.byte	0x57
 10495 0eaa 00000000 		.4byte	0
 10496 0eae 00000000 		.4byte	0
 10497              	.LLST35:
 10498 0eb2 34050000 		.4byte	.LVL114-.Ltext0
 10499 0eb6 52050000 		.4byte	.LVL118-.Ltext0
 10500 0eba 0100     		.2byte	0x1
 10501 0ebc 59       		.byte	0x59
 10502 0ebd 00000000 		.4byte	0
 10503 0ec1 00000000 		.4byte	0
 10504              	.LLST36:
 10505 0ec5 3E050000 		.4byte	.LVL115-.Ltext0
 10506 0ec9 46050000 		.4byte	.LVL116-.Ltext0
 10507 0ecd 0100     		.2byte	0x1
 10508 0ecf 51       		.byte	0x51
 10509 0ed0 4C050000 		.4byte	.LVL117-.Ltext0
 10510 0ed4 52050000 		.4byte	.LVL118-.Ltext0
 10511 0ed8 0100     		.2byte	0x1
 10512 0eda 51       		.byte	0x51
 10513 0edb 00000000 		.4byte	0
 10514 0edf 00000000 		.4byte	0
 10515              	.LLST87:
 10516 0ee3 CC090000 		.4byte	.LFB28-.Ltext0
 10517 0ee7 CE090000 		.4byte	.LCFI28-.Ltext0
 10518 0eeb 0200     		.2byte	0x2
 10519 0eed 7D       		.byte	0x7d
 10520 0eee 00       		.sleb128 0
 10521 0eef CE090000 		.4byte	.LCFI28-.Ltext0
 10522 0ef3 100A0000 		.4byte	.LFE28-.Ltext0
 10523 0ef7 0200     		.2byte	0x2
 10524 0ef9 7D       		.byte	0x7d
 10525 0efa 10       		.sleb128 16
 10526 0efb 00000000 		.4byte	0
 10527 0eff 00000000 		.4byte	0
 10528              	.LLST88:
 10529 0f03 CC090000 		.4byte	.LVL295-.Ltext0
 10530 0f07 D4090000 		.4byte	.LVL297-.Ltext0
 10531 0f0b 0200     		.2byte	0x2
 10532 0f0d 30       		.byte	0x30
 10533 0f0e 9F       		.byte	0x9f
 10534 0f0f D4090000 		.4byte	.LVL297-.Ltext0
 10535 0f13 D6090000 		.4byte	.LVL298-.Ltext0
 10536 0f17 0100     		.2byte	0x1
 10537 0f19 50       		.byte	0x50
 10538 0f1a D6090000 		.4byte	.LVL298-.Ltext0
 10539 0f1e 0A0A0000 		.4byte	.LVL307-.Ltext0
 10540 0f22 0100     		.2byte	0x1
 10541 0f24 56       		.byte	0x56
 10542 0f25 00000000 		.4byte	0
 10543 0f29 00000000 		.4byte	0
 10544              	.LLST89:
 10545 0f2d E2090000 		.4byte	.LVL300-.Ltext0
 10546 0f31 E8090000 		.4byte	.LVL301-.Ltext0
 10547 0f35 0100     		.2byte	0x1
 10548 0f37 50       		.byte	0x50
 10549 0f38 000A0000 		.4byte	.LVL304-.Ltext0
 10550 0f3c 020A0000 		.4byte	.LVL305-.Ltext0
ARM GAS  G:\Users\Jaxb\AppData\Local\Temp\ccbV8Tbs.s 			page 213


 10551 0f40 0100     		.2byte	0x1
 10552 0f42 50       		.byte	0x50
 10553 0f43 00000000 		.4byte	0
 10554 0f47 00000000 		.4byte	0
 10555              	.LLST90:
 10556 0f4b F6090000 		.4byte	.LVL302-.Ltext0
 10557 0f4f FE090000 		.4byte	.LVL303-.Ltext0
 10558 0f53 0100     		.2byte	0x1
 10559 0f55 54       		.byte	0x54
 10560 0f56 00000000 		.4byte	0
 10561 0f5a 00000000 		.4byte	0
 10562              	.LLST83:
 10563 0f5e 88090000 		.4byte	.LFB27-.Ltext0
 10564 0f62 8A090000 		.4byte	.LCFI27-.Ltext0
 10565 0f66 0200     		.2byte	0x2
 10566 0f68 7D       		.byte	0x7d
 10567 0f69 00       		.sleb128 0
 10568 0f6a 8A090000 		.4byte	.LCFI27-.Ltext0
 10569 0f6e CC090000 		.4byte	.LFE27-.Ltext0
 10570 0f72 0200     		.2byte	0x2
 10571 0f74 7D       		.byte	0x7d
 10572 0f75 10       		.sleb128 16
 10573 0f76 00000000 		.4byte	0
 10574 0f7a 00000000 		.4byte	0
 10575              	.LLST84:
 10576 0f7e 88090000 		.4byte	.LVL282-.Ltext0
 10577 0f82 90090000 		.4byte	.LVL284-.Ltext0
 10578 0f86 0200     		.2byte	0x2
 10579 0f88 30       		.byte	0x30
 10580 0f89 9F       		.byte	0x9f
 10581 0f8a 90090000 		.4byte	.LVL284-.Ltext0
 10582 0f8e 92090000 		.4byte	.LVL285-.Ltext0
 10583 0f92 0100     		.2byte	0x1
 10584 0f94 50       		.byte	0x50
 10585 0f95 92090000 		.4byte	.LVL285-.Ltext0
 10586 0f99 C6090000 		.4byte	.LVL294-.Ltext0
 10587 0f9d 0100     		.2byte	0x1
 10588 0f9f 56       		.byte	0x56
 10589 0fa0 00000000 		.4byte	0
 10590 0fa4 00000000 		.4byte	0
 10591              	.LLST85:
 10592 0fa8 9E090000 		.4byte	.LVL287-.Ltext0
 10593 0fac A4090000 		.4byte	.LVL288-.Ltext0
 10594 0fb0 0100     		.2byte	0x1
 10595 0fb2 50       		.byte	0x50
 10596 0fb3 BC090000 		.4byte	.LVL291-.Ltext0
 10597 0fb7 BE090000 		.4byte	.LVL292-.Ltext0
 10598 0fbb 0100     		.2byte	0x1
 10599 0fbd 50       		.byte	0x50
 10600 0fbe 00000000 		.4byte	0
 10601 0fc2 00000000 		.4byte	0
 10602              	.LLST86:
 10603 0fc6 B2090000 		.4byte	.LVL289-.Ltext0
 10604 0fca BA090000 		.4byte	.LVL290-.Ltext0
 10605 0fce 0100     		.2byte	0x1
 10606 0fd0 54       		.byte	0x54
 10607 0fd1 00000000 		.4byte	0
ARM GAS  G:\Users\Jaxb\AppData\Local\Temp\ccbV8Tbs.s 			page 214


 10608 0fd5 00000000 		.4byte	0
 10609              	.LLST79:
 10610 0fd9 48090000 		.4byte	.LFB26-.Ltext0
 10611 0fdd 4A090000 		.4byte	.LCFI26-.Ltext0
 10612 0fe1 0200     		.2byte	0x2
 10613 0fe3 7D       		.byte	0x7d
 10614 0fe4 00       		.sleb128 0
 10615 0fe5 4A090000 		.4byte	.LCFI26-.Ltext0
 10616 0fe9 88090000 		.4byte	.LFE26-.Ltext0
 10617 0fed 0200     		.2byte	0x2
 10618 0fef 7D       		.byte	0x7d
 10619 0ff0 10       		.sleb128 16
 10620 0ff1 00000000 		.4byte	0
 10621 0ff5 00000000 		.4byte	0
 10622              	.LLST80:
 10623 0ff9 48090000 		.4byte	.LVL269-.Ltext0
 10624 0ffd 50090000 		.4byte	.LVL271-.Ltext0
 10625 1001 0200     		.2byte	0x2
 10626 1003 30       		.byte	0x30
 10627 1004 9F       		.byte	0x9f
 10628 1005 50090000 		.4byte	.LVL271-.Ltext0
 10629 1009 52090000 		.4byte	.LVL272-.Ltext0
 10630 100d 0100     		.2byte	0x1
 10631 100f 50       		.byte	0x50
 10632 1010 52090000 		.4byte	.LVL272-.Ltext0
 10633 1014 84090000 		.4byte	.LVL281-.Ltext0
 10634 1018 0100     		.2byte	0x1
 10635 101a 56       		.byte	0x56
 10636 101b 00000000 		.4byte	0
 10637 101f 00000000 		.4byte	0
 10638              	.LLST81:
 10639 1023 5E090000 		.4byte	.LVL274-.Ltext0
 10640 1027 64090000 		.4byte	.LVL275-.Ltext0
 10641 102b 0100     		.2byte	0x1
 10642 102d 50       		.byte	0x50
 10643 102e 7A090000 		.4byte	.LVL278-.Ltext0
 10644 1032 7C090000 		.4byte	.LVL279-.Ltext0
 10645 1036 0100     		.2byte	0x1
 10646 1038 50       		.byte	0x50
 10647 1039 00000000 		.4byte	0
 10648 103d 00000000 		.4byte	0
 10649              	.LLST82:
 10650 1041 70090000 		.4byte	.LVL276-.Ltext0
 10651 1045 78090000 		.4byte	.LVL277-.Ltext0
 10652 1049 0100     		.2byte	0x1
 10653 104b 54       		.byte	0x54
 10654 104c 00000000 		.4byte	0
 10655 1050 00000000 		.4byte	0
 10656              	.LLST75:
 10657 1054 08090000 		.4byte	.LFB25-.Ltext0
 10658 1058 0A090000 		.4byte	.LCFI25-.Ltext0
 10659 105c 0200     		.2byte	0x2
 10660 105e 7D       		.byte	0x7d
 10661 105f 00       		.sleb128 0
 10662 1060 0A090000 		.4byte	.LCFI25-.Ltext0
 10663 1064 48090000 		.4byte	.LFE25-.Ltext0
 10664 1068 0200     		.2byte	0x2
ARM GAS  G:\Users\Jaxb\AppData\Local\Temp\ccbV8Tbs.s 			page 215


 10665 106a 7D       		.byte	0x7d
 10666 106b 10       		.sleb128 16
 10667 106c 00000000 		.4byte	0
 10668 1070 00000000 		.4byte	0
 10669              	.LLST76:
 10670 1074 08090000 		.4byte	.LVL256-.Ltext0
 10671 1078 10090000 		.4byte	.LVL258-.Ltext0
 10672 107c 0200     		.2byte	0x2
 10673 107e 30       		.byte	0x30
 10674 107f 9F       		.byte	0x9f
 10675 1080 10090000 		.4byte	.LVL258-.Ltext0
 10676 1084 12090000 		.4byte	.LVL259-.Ltext0
 10677 1088 0100     		.2byte	0x1
 10678 108a 50       		.byte	0x50
 10679 108b 12090000 		.4byte	.LVL259-.Ltext0
 10680 108f 44090000 		.4byte	.LVL268-.Ltext0
 10681 1093 0100     		.2byte	0x1
 10682 1095 56       		.byte	0x56
 10683 1096 00000000 		.4byte	0
 10684 109a 00000000 		.4byte	0
 10685              	.LLST77:
 10686 109e 1E090000 		.4byte	.LVL261-.Ltext0
 10687 10a2 24090000 		.4byte	.LVL262-.Ltext0
 10688 10a6 0100     		.2byte	0x1
 10689 10a8 50       		.byte	0x50
 10690 10a9 3A090000 		.4byte	.LVL265-.Ltext0
 10691 10ad 3C090000 		.4byte	.LVL266-.Ltext0
 10692 10b1 0100     		.2byte	0x1
 10693 10b3 50       		.byte	0x50
 10694 10b4 00000000 		.4byte	0
 10695 10b8 00000000 		.4byte	0
 10696              	.LLST78:
 10697 10bc 30090000 		.4byte	.LVL263-.Ltext0
 10698 10c0 38090000 		.4byte	.LVL264-.Ltext0
 10699 10c4 0100     		.2byte	0x1
 10700 10c6 54       		.byte	0x54
 10701 10c7 00000000 		.4byte	0
 10702 10cb 00000000 		.4byte	0
 10703              	.LLST71:
 10704 10cf C8080000 		.4byte	.LFB24-.Ltext0
 10705 10d3 CA080000 		.4byte	.LCFI24-.Ltext0
 10706 10d7 0200     		.2byte	0x2
 10707 10d9 7D       		.byte	0x7d
 10708 10da 00       		.sleb128 0
 10709 10db CA080000 		.4byte	.LCFI24-.Ltext0
 10710 10df 08090000 		.4byte	.LFE24-.Ltext0
 10711 10e3 0200     		.2byte	0x2
 10712 10e5 7D       		.byte	0x7d
 10713 10e6 10       		.sleb128 16
 10714 10e7 00000000 		.4byte	0
 10715 10eb 00000000 		.4byte	0
 10716              	.LLST72:
 10717 10ef C8080000 		.4byte	.LVL243-.Ltext0
 10718 10f3 D0080000 		.4byte	.LVL245-.Ltext0
 10719 10f7 0200     		.2byte	0x2
 10720 10f9 30       		.byte	0x30
 10721 10fa 9F       		.byte	0x9f
ARM GAS  G:\Users\Jaxb\AppData\Local\Temp\ccbV8Tbs.s 			page 216


 10722 10fb D0080000 		.4byte	.LVL245-.Ltext0
 10723 10ff D2080000 		.4byte	.LVL246-.Ltext0
 10724 1103 0100     		.2byte	0x1
 10725 1105 50       		.byte	0x50
 10726 1106 D2080000 		.4byte	.LVL246-.Ltext0
 10727 110a 04090000 		.4byte	.LVL255-.Ltext0
 10728 110e 0100     		.2byte	0x1
 10729 1110 56       		.byte	0x56
 10730 1111 00000000 		.4byte	0
 10731 1115 00000000 		.4byte	0
 10732              	.LLST73:
 10733 1119 DE080000 		.4byte	.LVL248-.Ltext0
 10734 111d E4080000 		.4byte	.LVL249-.Ltext0
 10735 1121 0100     		.2byte	0x1
 10736 1123 50       		.byte	0x50
 10737 1124 FA080000 		.4byte	.LVL252-.Ltext0
 10738 1128 FC080000 		.4byte	.LVL253-.Ltext0
 10739 112c 0100     		.2byte	0x1
 10740 112e 50       		.byte	0x50
 10741 112f 00000000 		.4byte	0
 10742 1133 00000000 		.4byte	0
 10743              	.LLST74:
 10744 1137 F0080000 		.4byte	.LVL250-.Ltext0
 10745 113b F8080000 		.4byte	.LVL251-.Ltext0
 10746 113f 0100     		.2byte	0x1
 10747 1141 54       		.byte	0x54
 10748 1142 00000000 		.4byte	0
 10749 1146 00000000 		.4byte	0
 10750              	.LLST67:
 10751 114a 88080000 		.4byte	.LFB23-.Ltext0
 10752 114e 8A080000 		.4byte	.LCFI23-.Ltext0
 10753 1152 0200     		.2byte	0x2
 10754 1154 7D       		.byte	0x7d
 10755 1155 00       		.sleb128 0
 10756 1156 8A080000 		.4byte	.LCFI23-.Ltext0
 10757 115a C8080000 		.4byte	.LFE23-.Ltext0
 10758 115e 0200     		.2byte	0x2
 10759 1160 7D       		.byte	0x7d
 10760 1161 10       		.sleb128 16
 10761 1162 00000000 		.4byte	0
 10762 1166 00000000 		.4byte	0
 10763              	.LLST68:
 10764 116a 88080000 		.4byte	.LVL230-.Ltext0
 10765 116e 90080000 		.4byte	.LVL232-.Ltext0
 10766 1172 0200     		.2byte	0x2
 10767 1174 30       		.byte	0x30
 10768 1175 9F       		.byte	0x9f
 10769 1176 90080000 		.4byte	.LVL232-.Ltext0
 10770 117a 92080000 		.4byte	.LVL233-.Ltext0
 10771 117e 0100     		.2byte	0x1
 10772 1180 50       		.byte	0x50
 10773 1181 92080000 		.4byte	.LVL233-.Ltext0
 10774 1185 C4080000 		.4byte	.LVL242-.Ltext0
 10775 1189 0100     		.2byte	0x1
 10776 118b 56       		.byte	0x56
 10777 118c 00000000 		.4byte	0
 10778 1190 00000000 		.4byte	0
ARM GAS  G:\Users\Jaxb\AppData\Local\Temp\ccbV8Tbs.s 			page 217


 10779              	.LLST69:
 10780 1194 9E080000 		.4byte	.LVL235-.Ltext0
 10781 1198 A4080000 		.4byte	.LVL236-.Ltext0
 10782 119c 0100     		.2byte	0x1
 10783 119e 50       		.byte	0x50
 10784 119f BA080000 		.4byte	.LVL239-.Ltext0
 10785 11a3 BC080000 		.4byte	.LVL240-.Ltext0
 10786 11a7 0100     		.2byte	0x1
 10787 11a9 50       		.byte	0x50
 10788 11aa 00000000 		.4byte	0
 10789 11ae 00000000 		.4byte	0
 10790              	.LLST70:
 10791 11b2 B0080000 		.4byte	.LVL237-.Ltext0
 10792 11b6 B8080000 		.4byte	.LVL238-.Ltext0
 10793 11ba 0100     		.2byte	0x1
 10794 11bc 54       		.byte	0x54
 10795 11bd 00000000 		.4byte	0
 10796 11c1 00000000 		.4byte	0
 10797              	.LLST63:
 10798 11c5 48080000 		.4byte	.LFB22-.Ltext0
 10799 11c9 4A080000 		.4byte	.LCFI22-.Ltext0
 10800 11cd 0200     		.2byte	0x2
 10801 11cf 7D       		.byte	0x7d
 10802 11d0 00       		.sleb128 0
 10803 11d1 4A080000 		.4byte	.LCFI22-.Ltext0
 10804 11d5 88080000 		.4byte	.LFE22-.Ltext0
 10805 11d9 0200     		.2byte	0x2
 10806 11db 7D       		.byte	0x7d
 10807 11dc 10       		.sleb128 16
 10808 11dd 00000000 		.4byte	0
 10809 11e1 00000000 		.4byte	0
 10810              	.LLST64:
 10811 11e5 48080000 		.4byte	.LVL217-.Ltext0
 10812 11e9 50080000 		.4byte	.LVL219-.Ltext0
 10813 11ed 0200     		.2byte	0x2
 10814 11ef 30       		.byte	0x30
 10815 11f0 9F       		.byte	0x9f
 10816 11f1 50080000 		.4byte	.LVL219-.Ltext0
 10817 11f5 52080000 		.4byte	.LVL220-.Ltext0
 10818 11f9 0100     		.2byte	0x1
 10819 11fb 50       		.byte	0x50
 10820 11fc 52080000 		.4byte	.LVL220-.Ltext0
 10821 1200 84080000 		.4byte	.LVL229-.Ltext0
 10822 1204 0100     		.2byte	0x1
 10823 1206 56       		.byte	0x56
 10824 1207 00000000 		.4byte	0
 10825 120b 00000000 		.4byte	0
 10826              	.LLST65:
 10827 120f 5E080000 		.4byte	.LVL222-.Ltext0
 10828 1213 64080000 		.4byte	.LVL223-.Ltext0
 10829 1217 0100     		.2byte	0x1
 10830 1219 50       		.byte	0x50
 10831 121a 7A080000 		.4byte	.LVL226-.Ltext0
 10832 121e 7C080000 		.4byte	.LVL227-.Ltext0
 10833 1222 0100     		.2byte	0x1
 10834 1224 50       		.byte	0x50
 10835 1225 00000000 		.4byte	0
ARM GAS  G:\Users\Jaxb\AppData\Local\Temp\ccbV8Tbs.s 			page 218


 10836 1229 00000000 		.4byte	0
 10837              	.LLST66:
 10838 122d 70080000 		.4byte	.LVL224-.Ltext0
 10839 1231 78080000 		.4byte	.LVL225-.Ltext0
 10840 1235 0100     		.2byte	0x1
 10841 1237 54       		.byte	0x54
 10842 1238 00000000 		.4byte	0
 10843 123c 00000000 		.4byte	0
 10844              	.LLST59:
 10845 1240 08080000 		.4byte	.LFB21-.Ltext0
 10846 1244 0A080000 		.4byte	.LCFI21-.Ltext0
 10847 1248 0200     		.2byte	0x2
 10848 124a 7D       		.byte	0x7d
 10849 124b 00       		.sleb128 0
 10850 124c 0A080000 		.4byte	.LCFI21-.Ltext0
 10851 1250 48080000 		.4byte	.LFE21-.Ltext0
 10852 1254 0200     		.2byte	0x2
 10853 1256 7D       		.byte	0x7d
 10854 1257 10       		.sleb128 16
 10855 1258 00000000 		.4byte	0
 10856 125c 00000000 		.4byte	0
 10857              	.LLST60:
 10858 1260 08080000 		.4byte	.LVL204-.Ltext0
 10859 1264 10080000 		.4byte	.LVL206-.Ltext0
 10860 1268 0200     		.2byte	0x2
 10861 126a 30       		.byte	0x30
 10862 126b 9F       		.byte	0x9f
 10863 126c 10080000 		.4byte	.LVL206-.Ltext0
 10864 1270 12080000 		.4byte	.LVL207-.Ltext0
 10865 1274 0100     		.2byte	0x1
 10866 1276 50       		.byte	0x50
 10867 1277 12080000 		.4byte	.LVL207-.Ltext0
 10868 127b 44080000 		.4byte	.LVL216-.Ltext0
 10869 127f 0100     		.2byte	0x1
 10870 1281 56       		.byte	0x56
 10871 1282 00000000 		.4byte	0
 10872 1286 00000000 		.4byte	0
 10873              	.LLST61:
 10874 128a 1E080000 		.4byte	.LVL209-.Ltext0
 10875 128e 24080000 		.4byte	.LVL210-.Ltext0
 10876 1292 0100     		.2byte	0x1
 10877 1294 50       		.byte	0x50
 10878 1295 3A080000 		.4byte	.LVL213-.Ltext0
 10879 1299 3C080000 		.4byte	.LVL214-.Ltext0
 10880 129d 0100     		.2byte	0x1
 10881 129f 50       		.byte	0x50
 10882 12a0 00000000 		.4byte	0
 10883 12a4 00000000 		.4byte	0
 10884              	.LLST62:
 10885 12a8 30080000 		.4byte	.LVL211-.Ltext0
 10886 12ac 38080000 		.4byte	.LVL212-.Ltext0
 10887 12b0 0100     		.2byte	0x1
 10888 12b2 54       		.byte	0x54
 10889 12b3 00000000 		.4byte	0
 10890 12b7 00000000 		.4byte	0
 10891              	.LLST55:
 10892 12bb C8070000 		.4byte	.LFB20-.Ltext0
ARM GAS  G:\Users\Jaxb\AppData\Local\Temp\ccbV8Tbs.s 			page 219


 10893 12bf CA070000 		.4byte	.LCFI20-.Ltext0
 10894 12c3 0200     		.2byte	0x2
 10895 12c5 7D       		.byte	0x7d
 10896 12c6 00       		.sleb128 0
 10897 12c7 CA070000 		.4byte	.LCFI20-.Ltext0
 10898 12cb 08080000 		.4byte	.LFE20-.Ltext0
 10899 12cf 0200     		.2byte	0x2
 10900 12d1 7D       		.byte	0x7d
 10901 12d2 10       		.sleb128 16
 10902 12d3 00000000 		.4byte	0
 10903 12d7 00000000 		.4byte	0
 10904              	.LLST56:
 10905 12db C8070000 		.4byte	.LVL191-.Ltext0
 10906 12df D0070000 		.4byte	.LVL193-.Ltext0
 10907 12e3 0200     		.2byte	0x2
 10908 12e5 30       		.byte	0x30
 10909 12e6 9F       		.byte	0x9f
 10910 12e7 D0070000 		.4byte	.LVL193-.Ltext0
 10911 12eb D2070000 		.4byte	.LVL194-.Ltext0
 10912 12ef 0100     		.2byte	0x1
 10913 12f1 50       		.byte	0x50
 10914 12f2 D2070000 		.4byte	.LVL194-.Ltext0
 10915 12f6 04080000 		.4byte	.LVL203-.Ltext0
 10916 12fa 0100     		.2byte	0x1
 10917 12fc 56       		.byte	0x56
 10918 12fd 00000000 		.4byte	0
 10919 1301 00000000 		.4byte	0
 10920              	.LLST57:
 10921 1305 DE070000 		.4byte	.LVL196-.Ltext0
 10922 1309 E4070000 		.4byte	.LVL197-.Ltext0
 10923 130d 0100     		.2byte	0x1
 10924 130f 50       		.byte	0x50
 10925 1310 FA070000 		.4byte	.LVL200-.Ltext0
 10926 1314 FC070000 		.4byte	.LVL201-.Ltext0
 10927 1318 0100     		.2byte	0x1
 10928 131a 50       		.byte	0x50
 10929 131b 00000000 		.4byte	0
 10930 131f 00000000 		.4byte	0
 10931              	.LLST58:
 10932 1323 F0070000 		.4byte	.LVL198-.Ltext0
 10933 1327 F8070000 		.4byte	.LVL199-.Ltext0
 10934 132b 0100     		.2byte	0x1
 10935 132d 54       		.byte	0x54
 10936 132e 00000000 		.4byte	0
 10937 1332 00000000 		.4byte	0
 10938              	.LLST51:
 10939 1336 88070000 		.4byte	.LFB19-.Ltext0
 10940 133a 8A070000 		.4byte	.LCFI19-.Ltext0
 10941 133e 0200     		.2byte	0x2
 10942 1340 7D       		.byte	0x7d
 10943 1341 00       		.sleb128 0
 10944 1342 8A070000 		.4byte	.LCFI19-.Ltext0
 10945 1346 C8070000 		.4byte	.LFE19-.Ltext0
 10946 134a 0200     		.2byte	0x2
 10947 134c 7D       		.byte	0x7d
 10948 134d 10       		.sleb128 16
 10949 134e 00000000 		.4byte	0
ARM GAS  G:\Users\Jaxb\AppData\Local\Temp\ccbV8Tbs.s 			page 220


 10950 1352 00000000 		.4byte	0
 10951              	.LLST52:
 10952 1356 88070000 		.4byte	.LVL178-.Ltext0
 10953 135a 90070000 		.4byte	.LVL180-.Ltext0
 10954 135e 0200     		.2byte	0x2
 10955 1360 30       		.byte	0x30
 10956 1361 9F       		.byte	0x9f
 10957 1362 90070000 		.4byte	.LVL180-.Ltext0
 10958 1366 92070000 		.4byte	.LVL181-.Ltext0
 10959 136a 0100     		.2byte	0x1
 10960 136c 50       		.byte	0x50
 10961 136d 92070000 		.4byte	.LVL181-.Ltext0
 10962 1371 C4070000 		.4byte	.LVL190-.Ltext0
 10963 1375 0100     		.2byte	0x1
 10964 1377 56       		.byte	0x56
 10965 1378 00000000 		.4byte	0
 10966 137c 00000000 		.4byte	0
 10967              	.LLST53:
 10968 1380 9E070000 		.4byte	.LVL183-.Ltext0
 10969 1384 A4070000 		.4byte	.LVL184-.Ltext0
 10970 1388 0100     		.2byte	0x1
 10971 138a 50       		.byte	0x50
 10972 138b BA070000 		.4byte	.LVL187-.Ltext0
 10973 138f BC070000 		.4byte	.LVL188-.Ltext0
 10974 1393 0100     		.2byte	0x1
 10975 1395 50       		.byte	0x50
 10976 1396 00000000 		.4byte	0
 10977 139a 00000000 		.4byte	0
 10978              	.LLST54:
 10979 139e B0070000 		.4byte	.LVL185-.Ltext0
 10980 13a2 B8070000 		.4byte	.LVL186-.Ltext0
 10981 13a6 0100     		.2byte	0x1
 10982 13a8 54       		.byte	0x54
 10983 13a9 00000000 		.4byte	0
 10984 13ad 00000000 		.4byte	0
 10985              	.LLST9:
 10986 13b1 28010000 		.4byte	.LFB18-.Ltext0
 10987 13b5 2C010000 		.4byte	.LCFI2-.Ltext0
 10988 13b9 0200     		.2byte	0x2
 10989 13bb 7D       		.byte	0x7d
 10990 13bc 00       		.sleb128 0
 10991 13bd 2C010000 		.4byte	.LCFI2-.Ltext0
 10992 13c1 EC010000 		.4byte	.LFE18-.Ltext0
 10993 13c5 0200     		.2byte	0x2
 10994 13c7 7D       		.byte	0x7d
 10995 13c8 18       		.sleb128 24
 10996 13c9 00000000 		.4byte	0
 10997 13cd 00000000 		.4byte	0
 10998              	.LLST10:
 10999 13d1 28010000 		.4byte	.LVL27-.Ltext0
 11000 13d5 3A010000 		.4byte	.LVL28-.Ltext0
 11001 13d9 0100     		.2byte	0x1
 11002 13db 50       		.byte	0x50
 11003 13dc 3A010000 		.4byte	.LVL28-.Ltext0
 11004 13e0 5C010000 		.4byte	.LVL29-.Ltext0
 11005 13e4 0100     		.2byte	0x1
 11006 13e6 55       		.byte	0x55
ARM GAS  G:\Users\Jaxb\AppData\Local\Temp\ccbV8Tbs.s 			page 221


 11007 13e7 5C010000 		.4byte	.LVL29-.Ltext0
 11008 13eb 62010000 		.4byte	.LVL30-.Ltext0
 11009 13ef 0100     		.2byte	0x1
 11010 13f1 50       		.byte	0x50
 11011 13f2 62010000 		.4byte	.LVL30-.Ltext0
 11012 13f6 EC010000 		.4byte	.LFE18-.Ltext0
 11013 13fa 0100     		.2byte	0x1
 11014 13fc 55       		.byte	0x55
 11015 13fd 00000000 		.4byte	0
 11016 1401 00000000 		.4byte	0
 11017              	.LLST11:
 11018 1405 74010000 		.4byte	.LVL33-.Ltext0
 11019 1409 82010000 		.4byte	.LVL34-.Ltext0
 11020 140d 0100     		.2byte	0x1
 11021 140f 50       		.byte	0x50
 11022 1410 9C010000 		.4byte	.LVL37-.Ltext0
 11023 1414 EC010000 		.4byte	.LFE18-.Ltext0
 11024 1418 0100     		.2byte	0x1
 11025 141a 56       		.byte	0x56
 11026 141b 00000000 		.4byte	0
 11027 141f 00000000 		.4byte	0
 11028              	.LLST12:
 11029 1423 88010000 		.4byte	.LVL36-.Ltext0
 11030 1427 CA010000 		.4byte	.LVL40-.Ltext0
 11031 142b 0100     		.2byte	0x1
 11032 142d 54       		.byte	0x54
 11033 142e D8010000 		.4byte	.LVL42-.Ltext0
 11034 1432 EC010000 		.4byte	.LFE18-.Ltext0
 11035 1436 0100     		.2byte	0x1
 11036 1438 54       		.byte	0x54
 11037 1439 00000000 		.4byte	0
 11038 143d 00000000 		.4byte	0
 11039              	.LLST13:
 11040 1441 A0010000 		.4byte	.LVL38-.Ltext0
 11041 1445 CA010000 		.4byte	.LVL40-.Ltext0
 11042 1449 0100     		.2byte	0x1
 11043 144b 54       		.byte	0x54
 11044 144c D8010000 		.4byte	.LVL42-.Ltext0
 11045 1450 EC010000 		.4byte	.LFE18-.Ltext0
 11046 1454 0100     		.2byte	0x1
 11047 1456 54       		.byte	0x54
 11048 1457 00000000 		.4byte	0
 11049 145b 00000000 		.4byte	0
 11050              	.LLST42:
 11051 145f C0050000 		.4byte	.LFB17-.Ltext0
 11052 1463 C6050000 		.4byte	.LCFI11-.Ltext0
 11053 1467 0200     		.2byte	0x2
 11054 1469 7D       		.byte	0x7d
 11055 146a 00       		.sleb128 0
 11056 146b C6050000 		.4byte	.LCFI11-.Ltext0
 11057 146f FA050000 		.4byte	.LCFI12-.Ltext0
 11058 1473 0200     		.2byte	0x2
 11059 1475 7D       		.byte	0x7d
 11060 1476 18       		.sleb128 24
 11061 1477 FA050000 		.4byte	.LCFI12-.Ltext0
 11062 147b 26070000 		.4byte	.LCFI13-.Ltext0
 11063 147f 0200     		.2byte	0x2
ARM GAS  G:\Users\Jaxb\AppData\Local\Temp\ccbV8Tbs.s 			page 222


 11064 1481 7D       		.byte	0x7d
 11065 1482 20       		.sleb128 32
 11066 1483 26070000 		.4byte	.LCFI13-.Ltext0
 11067 1487 2A070000 		.4byte	.LCFI14-.Ltext0
 11068 148b 0200     		.2byte	0x2
 11069 148d 7D       		.byte	0x7d
 11070 148e 18       		.sleb128 24
 11071 148f 2A070000 		.4byte	.LCFI14-.Ltext0
 11072 1493 3C070000 		.4byte	.LCFI15-.Ltext0
 11073 1497 0200     		.2byte	0x2
 11074 1499 7D       		.byte	0x7d
 11075 149a 20       		.sleb128 32
 11076 149b 3C070000 		.4byte	.LCFI15-.Ltext0
 11077 149f 40070000 		.4byte	.LCFI16-.Ltext0
 11078 14a3 0200     		.2byte	0x2
 11079 14a5 7D       		.byte	0x7d
 11080 14a6 18       		.sleb128 24
 11081 14a7 40070000 		.4byte	.LCFI16-.Ltext0
 11082 14ab 62070000 		.4byte	.LCFI17-.Ltext0
 11083 14af 0200     		.2byte	0x2
 11084 14b1 7D       		.byte	0x7d
 11085 14b2 20       		.sleb128 32
 11086 14b3 62070000 		.4byte	.LCFI17-.Ltext0
 11087 14b7 66070000 		.4byte	.LCFI18-.Ltext0
 11088 14bb 0200     		.2byte	0x2
 11089 14bd 7D       		.byte	0x7d
 11090 14be 18       		.sleb128 24
 11091 14bf 66070000 		.4byte	.LCFI18-.Ltext0
 11092 14c3 88070000 		.4byte	.LFE17-.Ltext0
 11093 14c7 0200     		.2byte	0x2
 11094 14c9 7D       		.byte	0x7d
 11095 14ca 20       		.sleb128 32
 11096 14cb 00000000 		.4byte	0
 11097 14cf 00000000 		.4byte	0
 11098              	.LLST43:
 11099 14d3 C0050000 		.4byte	.LVL131-.Ltext0
 11100 14d7 D0050000 		.4byte	.LVL133-.Ltext0
 11101 14db 0100     		.2byte	0x1
 11102 14dd 50       		.byte	0x50
 11103 14de D0050000 		.4byte	.LVL133-.Ltext0
 11104 14e2 D0060000 		.4byte	.LVL159-.Ltext0
 11105 14e6 0100     		.2byte	0x1
 11106 14e8 56       		.byte	0x56
 11107 14e9 D0060000 		.4byte	.LVL159-.Ltext0
 11108 14ed 66070000 		.4byte	.LVL176-.Ltext0
 11109 14f1 0400     		.2byte	0x4
 11110 14f3 F3       		.byte	0xf3
 11111 14f4 01       		.uleb128 0x1
 11112 14f5 50       		.byte	0x50
 11113 14f6 9F       		.byte	0x9f
 11114 14f7 66070000 		.4byte	.LVL176-.Ltext0
 11115 14fb 6C070000 		.4byte	.LVL177-.Ltext0
 11116 14ff 0100     		.2byte	0x1
 11117 1501 56       		.byte	0x56
 11118 1502 6C070000 		.4byte	.LVL177-.Ltext0
 11119 1506 88070000 		.4byte	.LFE17-.Ltext0
 11120 150a 0400     		.2byte	0x4
ARM GAS  G:\Users\Jaxb\AppData\Local\Temp\ccbV8Tbs.s 			page 223


 11121 150c F3       		.byte	0xf3
 11122 150d 01       		.uleb128 0x1
 11123 150e 50       		.byte	0x50
 11124 150f 9F       		.byte	0x9f
 11125 1510 00000000 		.4byte	0
 11126 1514 00000000 		.4byte	0
 11127              	.LLST44:
 11128 1518 D6050000 		.4byte	.LVL135-.Ltext0
 11129 151c F2050000 		.4byte	.LVL138-.Ltext0
 11130 1520 0100     		.2byte	0x1
 11131 1522 52       		.byte	0x52
 11132 1523 F2050000 		.4byte	.LVL138-.Ltext0
 11133 1527 09060000 		.4byte	.LVL140-1-.Ltext0
 11134 152b 0100     		.2byte	0x1
 11135 152d 50       		.byte	0x50
 11136 152e 24060000 		.4byte	.LVL141-.Ltext0
 11137 1532 3E060000 		.4byte	.LVL142-.Ltext0
 11138 1536 0100     		.2byte	0x1
 11139 1538 50       		.byte	0x50
 11140 1539 D8060000 		.4byte	.LVL160-.Ltext0
 11141 153d EA060000 		.4byte	.LVL162-.Ltext0
 11142 1541 0100     		.2byte	0x1
 11143 1543 56       		.byte	0x56
 11144 1544 EA060000 		.4byte	.LVL162-.Ltext0
 11145 1548 13070000 		.4byte	.LVL167-1-.Ltext0
 11146 154c 0100     		.2byte	0x1
 11147 154e 52       		.byte	0x52
 11148 154f 40070000 		.4byte	.LVL171-.Ltext0
 11149 1553 4B070000 		.4byte	.LVL173-1-.Ltext0
 11150 1557 0100     		.2byte	0x1
 11151 1559 52       		.byte	0x52
 11152 155a 6C070000 		.4byte	.LVL177-.Ltext0
 11153 155e 88070000 		.4byte	.LFE17-.Ltext0
 11154 1562 0100     		.2byte	0x1
 11155 1564 52       		.byte	0x52
 11156 1565 00000000 		.4byte	0
 11157 1569 00000000 		.4byte	0
 11158              	.LLST45:
 11159 156d 24060000 		.4byte	.LVL141-.Ltext0
 11160 1571 3E060000 		.4byte	.LVL142-.Ltext0
 11161 1575 0200     		.2byte	0x2
 11162 1577 30       		.byte	0x30
 11163 1578 9F       		.byte	0x9f
 11164 1579 3E060000 		.4byte	.LVL142-.Ltext0
 11165 157d 4C060000 		.4byte	.LVL144-.Ltext0
 11166 1581 0100     		.2byte	0x1
 11167 1583 52       		.byte	0x52
 11168 1584 52060000 		.4byte	.LVL145-.Ltext0
 11169 1588 62060000 		.4byte	.LVL146-.Ltext0
 11170 158c 0200     		.2byte	0x2
 11171 158e 30       		.byte	0x30
 11172 158f 9F       		.byte	0x9f
 11173 1590 62060000 		.4byte	.LVL146-.Ltext0
 11174 1594 64060000 		.4byte	.LVL147-.Ltext0
 11175 1598 0100     		.2byte	0x1
 11176 159a 52       		.byte	0x52
 11177 159b 64060000 		.4byte	.LVL147-.Ltext0
ARM GAS  G:\Users\Jaxb\AppData\Local\Temp\ccbV8Tbs.s 			page 224


 11178 159f 6C060000 		.4byte	.LVL148-.Ltext0
 11179 15a3 0300     		.2byte	0x3
 11180 15a5 72       		.byte	0x72
 11181 15a6 7F       		.sleb128 -1
 11182 15a7 9F       		.byte	0x9f
 11183 15a8 6C060000 		.4byte	.LVL148-.Ltext0
 11184 15ac 72060000 		.4byte	.LVL149-.Ltext0
 11185 15b0 0100     		.2byte	0x1
 11186 15b2 52       		.byte	0x52
 11187 15b3 7A060000 		.4byte	.LVL150-.Ltext0
 11188 15b7 84060000 		.4byte	.LVL151-.Ltext0
 11189 15bb 0200     		.2byte	0x2
 11190 15bd 30       		.byte	0x30
 11191 15be 9F       		.byte	0x9f
 11192 15bf 9E060000 		.4byte	.LVL153-.Ltext0
 11193 15c3 A6060000 		.4byte	.LVL154-.Ltext0
 11194 15c7 0200     		.2byte	0x2
 11195 15c9 31       		.byte	0x31
 11196 15ca 9F       		.byte	0x9f
 11197 15cb EA060000 		.4byte	.LVL162-.Ltext0
 11198 15cf FA060000 		.4byte	.LVL163-.Ltext0
 11199 15d3 0200     		.2byte	0x2
 11200 15d5 30       		.byte	0x30
 11201 15d6 9F       		.byte	0x9f
 11202 15d7 FA060000 		.4byte	.LVL163-.Ltext0
 11203 15db 00070000 		.4byte	.LVL164-.Ltext0
 11204 15df 0100     		.2byte	0x1
 11205 15e1 53       		.byte	0x53
 11206 15e2 00070000 		.4byte	.LVL164-.Ltext0
 11207 15e6 02070000 		.4byte	.LVL165-.Ltext0
 11208 15ea 0100     		.2byte	0x1
 11209 15ec 50       		.byte	0x50
 11210 15ed 02070000 		.4byte	.LVL165-.Ltext0
 11211 15f1 0A070000 		.4byte	.LVL166-.Ltext0
 11212 15f5 0100     		.2byte	0x1
 11213 15f7 53       		.byte	0x53
 11214 15f8 40070000 		.4byte	.LVL171-.Ltext0
 11215 15fc 44070000 		.4byte	.LVL172-.Ltext0
 11216 1600 0100     		.2byte	0x1
 11217 1602 53       		.byte	0x53
 11218 1603 66070000 		.4byte	.LVL176-.Ltext0
 11219 1607 88070000 		.4byte	.LFE17-.Ltext0
 11220 160b 0200     		.2byte	0x2
 11221 160d 30       		.byte	0x30
 11222 160e 9F       		.byte	0x9f
 11223 160f 00000000 		.4byte	0
 11224 1613 00000000 		.4byte	0
 11225              	.LLST46:
 11226 1617 94060000 		.4byte	.LVL152-.Ltext0
 11227 161b BA060000 		.4byte	.LVL156-.Ltext0
 11228 161f 0100     		.2byte	0x1
 11229 1621 50       		.byte	0x50
 11230 1622 00000000 		.4byte	0
 11231 1626 00000000 		.4byte	0
 11232              	.LLST47:
 11233 162a C0050000 		.4byte	.LVL131-.Ltext0
 11234 162e DE050000 		.4byte	.LVL137-.Ltext0
ARM GAS  G:\Users\Jaxb\AppData\Local\Temp\ccbV8Tbs.s 			page 225


 11235 1632 0200     		.2byte	0x2
 11236 1634 30       		.byte	0x30
 11237 1635 9F       		.byte	0x9f
 11238 1636 DE050000 		.4byte	.LVL137-.Ltext0
 11239 163a F2050000 		.4byte	.LVL138-.Ltext0
 11240 163e 0100     		.2byte	0x1
 11241 1640 57       		.byte	0x57
 11242 1641 F2050000 		.4byte	.LVL138-.Ltext0
 11243 1645 04060000 		.4byte	.LVL139-.Ltext0
 11244 1649 0600     		.2byte	0x6
 11245 164b 77       		.byte	0x77
 11246 164c 00       		.sleb128 0
 11247 164d 71       		.byte	0x71
 11248 164e 00       		.sleb128 0
 11249 164f 22       		.byte	0x22
 11250 1650 9F       		.byte	0x9f
 11251 1651 04060000 		.4byte	.LVL139-.Ltext0
 11252 1655 09060000 		.4byte	.LVL140-1-.Ltext0
 11253 1659 0B00     		.2byte	0xb
 11254 165b 70       		.byte	0x70
 11255 165c 00       		.sleb128 0
 11256 165d 31       		.byte	0x31
 11257 165e 24       		.byte	0x24
 11258 165f 71       		.byte	0x71
 11259 1660 00       		.sleb128 0
 11260 1661 22       		.byte	0x22
 11261 1662 77       		.byte	0x77
 11262 1663 00       		.sleb128 0
 11263 1664 22       		.byte	0x22
 11264 1665 9F       		.byte	0x9f
 11265 1666 00000000 		.4byte	0
 11266 166a 00000000 		.4byte	0
 11267              	.LLST48:
 11268 166e 04060000 		.4byte	.LVL139-.Ltext0
 11269 1672 09060000 		.4byte	.LVL140-1-.Ltext0
 11270 1676 0100     		.2byte	0x1
 11271 1678 50       		.byte	0x50
 11272 1679 00000000 		.4byte	0
 11273 167d 00000000 		.4byte	0
 11274              	.LLST49:
 11275 1681 14070000 		.4byte	.LVL167-.Ltext0
 11276 1685 3A070000 		.4byte	.LVL170-.Ltext0
 11277 1689 0100     		.2byte	0x1
 11278 168b 54       		.byte	0x54
 11279 168c 5C070000 		.4byte	.LVL175-.Ltext0
 11280 1690 66070000 		.4byte	.LVL176-.Ltext0
 11281 1694 0100     		.2byte	0x1
 11282 1696 54       		.byte	0x54
 11283 1697 00000000 		.4byte	0
 11284 169b 00000000 		.4byte	0
 11285              	.LLST50:
 11286 169f 2A070000 		.4byte	.LVL168-.Ltext0
 11287 16a3 3A070000 		.4byte	.LVL170-.Ltext0
 11288 16a7 0100     		.2byte	0x1
 11289 16a9 52       		.byte	0x52
 11290 16aa 5C070000 		.4byte	.LVL175-.Ltext0
 11291 16ae 66070000 		.4byte	.LVL176-.Ltext0
ARM GAS  G:\Users\Jaxb\AppData\Local\Temp\ccbV8Tbs.s 			page 226


 11292 16b2 0100     		.2byte	0x1
 11293 16b4 52       		.byte	0x52
 11294 16b5 00000000 		.4byte	0
 11295 16b9 00000000 		.4byte	0
 11296              	.LLST5:
 11297 16bd C0000000 		.4byte	.LFB13-.Ltext0
 11298 16c1 C2000000 		.4byte	.LCFI1-.Ltext0
 11299 16c5 0200     		.2byte	0x2
 11300 16c7 7D       		.byte	0x7d
 11301 16c8 00       		.sleb128 0
 11302 16c9 C2000000 		.4byte	.LCFI1-.Ltext0
 11303 16cd 28010000 		.4byte	.LFE13-.Ltext0
 11304 16d1 0200     		.2byte	0x2
 11305 16d3 7D       		.byte	0x7d
 11306 16d4 10       		.sleb128 16
 11307 16d5 00000000 		.4byte	0
 11308 16d9 00000000 		.4byte	0
 11309              	.LLST6:
 11310 16dd C0000000 		.4byte	.LVL17-.Ltext0
 11311 16e1 D2000000 		.4byte	.LVL18-.Ltext0
 11312 16e5 0100     		.2byte	0x1
 11313 16e7 50       		.byte	0x50
 11314 16e8 D2000000 		.4byte	.LVL18-.Ltext0
 11315 16ec FA000000 		.4byte	.LVL20-.Ltext0
 11316 16f0 0100     		.2byte	0x1
 11317 16f2 54       		.byte	0x54
 11318 16f3 FA000000 		.4byte	.LVL20-.Ltext0
 11319 16f7 04010000 		.4byte	.LVL22-.Ltext0
 11320 16fb 0700     		.2byte	0x7
 11321 16fd 73       		.byte	0x73
 11322 16fe 81808080 		.sleb128 -2147483647
 11322      78
 11323 1703 9F       		.byte	0x9f
 11324 1704 04010000 		.4byte	.LVL22-.Ltext0
 11325 1708 14010000 		.4byte	.LVL23-.Ltext0
 11326 170c 0400     		.2byte	0x4
 11327 170e F3       		.byte	0xf3
 11328 170f 01       		.uleb128 0x1
 11329 1710 50       		.byte	0x50
 11330 1711 9F       		.byte	0x9f
 11331 1712 14010000 		.4byte	.LVL23-.Ltext0
 11332 1716 18010000 		.4byte	.LVL25-.Ltext0
 11333 171a 0100     		.2byte	0x1
 11334 171c 50       		.byte	0x50
 11335 171d 18010000 		.4byte	.LVL25-.Ltext0
 11336 1721 28010000 		.4byte	.LFE13-.Ltext0
 11337 1725 0100     		.2byte	0x1
 11338 1727 54       		.byte	0x54
 11339 1728 00000000 		.4byte	0
 11340 172c 00000000 		.4byte	0
 11341              	.LLST7:
 11342 1730 C0000000 		.4byte	.LVL17-.Ltext0
 11343 1734 D2000000 		.4byte	.LVL18-.Ltext0
 11344 1738 0100     		.2byte	0x1
 11345 173a 51       		.byte	0x51
 11346 173b D2000000 		.4byte	.LVL18-.Ltext0
 11347 173f 14010000 		.4byte	.LVL23-.Ltext0
ARM GAS  G:\Users\Jaxb\AppData\Local\Temp\ccbV8Tbs.s 			page 227


 11348 1743 0400     		.2byte	0x4
 11349 1745 F3       		.byte	0xf3
 11350 1746 01       		.uleb128 0x1
 11351 1747 51       		.byte	0x51
 11352 1748 9F       		.byte	0x9f
 11353 1749 14010000 		.4byte	.LVL23-.Ltext0
 11354 174d 16010000 		.4byte	.LVL24-.Ltext0
 11355 1751 0100     		.2byte	0x1
 11356 1753 51       		.byte	0x51
 11357 1754 16010000 		.4byte	.LVL24-.Ltext0
 11358 1758 28010000 		.4byte	.LFE13-.Ltext0
 11359 175c 0400     		.2byte	0x4
 11360 175e F3       		.byte	0xf3
 11361 175f 01       		.uleb128 0x1
 11362 1760 51       		.byte	0x51
 11363 1761 9F       		.byte	0x9f
 11364 1762 00000000 		.4byte	0
 11365 1766 00000000 		.4byte	0
 11366              	.LLST8:
 11367 176a E6000000 		.4byte	.LVL19-.Ltext0
 11368 176e FA000000 		.4byte	.LVL20-.Ltext0
 11369 1772 0600     		.2byte	0x6
 11370 1774 75       		.byte	0x75
 11371 1775 00       		.sleb128 0
 11372 1776 74       		.byte	0x74
 11373 1777 00       		.sleb128 0
 11374 1778 26       		.byte	0x26
 11375 1779 9F       		.byte	0x9f
 11376 177a FA000000 		.4byte	.LVL20-.Ltext0
 11377 177e 00010000 		.4byte	.LVL21-.Ltext0
 11378 1782 0100     		.2byte	0x1
 11379 1784 54       		.byte	0x54
 11380 1785 00010000 		.4byte	.LVL21-.Ltext0
 11381 1789 04010000 		.4byte	.LVL22-.Ltext0
 11382 178d 0A00     		.2byte	0xa
 11383 178f 75       		.byte	0x75
 11384 1790 00       		.sleb128 0
 11385 1791 73       		.byte	0x73
 11386 1792 81808080 		.sleb128 -2147483647
 11386      78
 11387 1797 26       		.byte	0x26
 11388 1798 9F       		.byte	0x9f
 11389 1799 04010000 		.4byte	.LVL22-.Ltext0
 11390 179d 14010000 		.4byte	.LVL23-.Ltext0
 11391 17a1 0700     		.2byte	0x7
 11392 17a3 75       		.byte	0x75
 11393 17a4 00       		.sleb128 0
 11394 17a5 F3       		.byte	0xf3
 11395 17a6 01       		.uleb128 0x1
 11396 17a7 50       		.byte	0x50
 11397 17a8 26       		.byte	0x26
 11398 17a9 9F       		.byte	0x9f
 11399 17aa 00000000 		.4byte	0
 11400 17ae 00000000 		.4byte	0
 11401              	.LLST0:
 11402 17b2 00000000 		.4byte	.LFB9-.Ltext0
 11403 17b6 04000000 		.4byte	.LCFI0-.Ltext0
ARM GAS  G:\Users\Jaxb\AppData\Local\Temp\ccbV8Tbs.s 			page 228


 11404 17ba 0200     		.2byte	0x2
 11405 17bc 7D       		.byte	0x7d
 11406 17bd 00       		.sleb128 0
 11407 17be 04000000 		.4byte	.LCFI0-.Ltext0
 11408 17c2 C0000000 		.4byte	.LFE9-.Ltext0
 11409 17c6 0200     		.2byte	0x2
 11410 17c8 7D       		.byte	0x7d
 11411 17c9 18       		.sleb128 24
 11412 17ca 00000000 		.4byte	0
 11413 17ce 00000000 		.4byte	0
 11414              	.LLST1:
 11415 17d2 00000000 		.4byte	.LVL0-.Ltext0
 11416 17d6 16000000 		.4byte	.LVL1-.Ltext0
 11417 17da 0100     		.2byte	0x1
 11418 17dc 50       		.byte	0x50
 11419 17dd 16000000 		.4byte	.LVL1-.Ltext0
 11420 17e1 4A000000 		.4byte	.LVL4-.Ltext0
 11421 17e5 0100     		.2byte	0x1
 11422 17e7 54       		.byte	0x54
 11423 17e8 4A000000 		.4byte	.LVL4-.Ltext0
 11424 17ec 52000000 		.4byte	.LVL5-.Ltext0
 11425 17f0 0700     		.2byte	0x7
 11426 17f2 74       		.byte	0x74
 11427 17f3 80808080 		.sleb128 -2147483648
 11427      78
 11428 17f8 9F       		.byte	0x9f
 11429 17f9 52000000 		.4byte	.LVL5-.Ltext0
 11430 17fd 80000000 		.4byte	.LVL7-.Ltext0
 11431 1801 0700     		.2byte	0x7
 11432 1803 74       		.byte	0x74
 11433 1804 81808080 		.sleb128 -2147483647
 11433      78
 11434 1809 9F       		.byte	0x9f
 11435 180a 80000000 		.4byte	.LVL7-.Ltext0
 11436 180e 84000000 		.4byte	.LVL9-.Ltext0
 11437 1812 0100     		.2byte	0x1
 11438 1814 50       		.byte	0x50
 11439 1815 84000000 		.4byte	.LVL9-.Ltext0
 11440 1819 98000000 		.4byte	.LVL13-.Ltext0
 11441 181d 0100     		.2byte	0x1
 11442 181f 54       		.byte	0x54
 11443 1820 98000000 		.4byte	.LVL13-.Ltext0
 11444 1824 AC000000 		.4byte	.LVL15-.Ltext0
 11445 1828 0700     		.2byte	0x7
 11446 182a 74       		.byte	0x74
 11447 182b 81808080 		.sleb128 -2147483647
 11447      78
 11448 1830 9F       		.byte	0x9f
 11449 1831 AC000000 		.4byte	.LVL15-.Ltext0
 11450 1835 C0000000 		.4byte	.LFE9-.Ltext0
 11451 1839 0100     		.2byte	0x1
 11452 183b 54       		.byte	0x54
 11453 183c 00000000 		.4byte	0
 11454 1840 00000000 		.4byte	0
 11455              	.LLST2:
 11456 1844 00000000 		.4byte	.LVL0-.Ltext0
 11457 1848 16000000 		.4byte	.LVL1-.Ltext0
ARM GAS  G:\Users\Jaxb\AppData\Local\Temp\ccbV8Tbs.s 			page 229


 11458 184c 0100     		.2byte	0x1
 11459 184e 51       		.byte	0x51
 11460 184f 16000000 		.4byte	.LVL1-.Ltext0
 11461 1853 80000000 		.4byte	.LVL7-.Ltext0
 11462 1857 0400     		.2byte	0x4
 11463 1859 F3       		.byte	0xf3
 11464 185a 01       		.uleb128 0x1
 11465 185b 51       		.byte	0x51
 11466 185c 9F       		.byte	0x9f
 11467 185d 80000000 		.4byte	.LVL7-.Ltext0
 11468 1861 82000000 		.4byte	.LVL8-.Ltext0
 11469 1865 0100     		.2byte	0x1
 11470 1867 51       		.byte	0x51
 11471 1868 82000000 		.4byte	.LVL8-.Ltext0
 11472 186c C0000000 		.4byte	.LFE9-.Ltext0
 11473 1870 0400     		.2byte	0x4
 11474 1872 F3       		.byte	0xf3
 11475 1873 01       		.uleb128 0x1
 11476 1874 51       		.byte	0x51
 11477 1875 9F       		.byte	0x9f
 11478 1876 00000000 		.4byte	0
 11479 187a 00000000 		.4byte	0
 11480              	.LLST3:
 11481 187e 2A000000 		.4byte	.LVL2-.Ltext0
 11482 1882 80000000 		.4byte	.LVL7-.Ltext0
 11483 1886 0100     		.2byte	0x1
 11484 1888 57       		.byte	0x57
 11485 1889 8A000000 		.4byte	.LVL11-.Ltext0
 11486 188d AC000000 		.4byte	.LVL15-.Ltext0
 11487 1891 0100     		.2byte	0x1
 11488 1893 57       		.byte	0x57
 11489 1894 00000000 		.4byte	0
 11490 1898 00000000 		.4byte	0
 11491              	.LLST4:
 11492 189c 2A000000 		.4byte	.LVL2-.Ltext0
 11493 18a0 2E000000 		.4byte	.LVL3-.Ltext0
 11494 18a4 0100     		.2byte	0x1
 11495 18a6 57       		.byte	0x57
 11496 18a7 00000000 		.4byte	0
 11497 18ab 00000000 		.4byte	0
 11498              	.LLST37:
 11499 18af 6C050000 		.4byte	.LVL120-.Ltext0
 11500 18b3 6E050000 		.4byte	.LVL121-.Ltext0
 11501 18b7 0100     		.2byte	0x1
 11502 18b9 50       		.byte	0x50
 11503 18ba 6E050000 		.4byte	.LVL121-.Ltext0
 11504 18be 80050000 		.4byte	.LFE6-.Ltext0
 11505 18c2 0400     		.2byte	0x4
 11506 18c4 F3       		.byte	0xf3
 11507 18c5 01       		.uleb128 0x1
 11508 18c6 50       		.byte	0x50
 11509 18c7 9F       		.byte	0x9f
 11510 18c8 00000000 		.4byte	0
 11511 18cc 00000000 		.4byte	0
 11512              	.LLST38:
 11513 18d0 80050000 		.4byte	.LFB7-.Ltext0
 11514 18d4 82050000 		.4byte	.LCFI10-.Ltext0
ARM GAS  G:\Users\Jaxb\AppData\Local\Temp\ccbV8Tbs.s 			page 230


 11515 18d8 0200     		.2byte	0x2
 11516 18da 7D       		.byte	0x7d
 11517 18db 00       		.sleb128 0
 11518 18dc 82050000 		.4byte	.LCFI10-.Ltext0
 11519 18e0 98050000 		.4byte	.LFE7-.Ltext0
 11520 18e4 0200     		.2byte	0x2
 11521 18e6 7D       		.byte	0x7d
 11522 18e7 08       		.sleb128 8
 11523 18e8 00000000 		.4byte	0
 11524 18ec 00000000 		.4byte	0
 11525              	.LLST39:
 11526 18f0 80050000 		.4byte	.LVL122-.Ltext0
 11527 18f4 86050000 		.4byte	.LVL123-.Ltext0
 11528 18f8 0200     		.2byte	0x2
 11529 18fa 30       		.byte	0x30
 11530 18fb 9F       		.byte	0x9f
 11531 18fc 86050000 		.4byte	.LVL123-.Ltext0
 11532 1900 8F050000 		.4byte	.LVL125-1-.Ltext0
 11533 1904 0100     		.2byte	0x1
 11534 1906 50       		.byte	0x50
 11535 1907 00000000 		.4byte	0
 11536 190b 00000000 		.4byte	0
 11537              	.LLST40:
 11538 190f 8C050000 		.4byte	.LVL124-.Ltext0
 11539 1913 94050000 		.4byte	.LVL126-.Ltext0
 11540 1917 0100     		.2byte	0x1
 11541 1919 54       		.byte	0x54
 11542 191a 94050000 		.4byte	.LVL126-.Ltext0
 11543 191e 98050000 		.4byte	.LFE7-.Ltext0
 11544 1922 0100     		.2byte	0x1
 11545 1924 50       		.byte	0x50
 11546 1925 00000000 		.4byte	0
 11547 1929 00000000 		.4byte	0
 11548              	.LLST41:
 11549 192d 98050000 		.4byte	.LVL127-.Ltext0
 11550 1931 AE050000 		.4byte	.LVL128-.Ltext0
 11551 1935 0100     		.2byte	0x1
 11552 1937 50       		.byte	0x50
 11553 1938 AE050000 		.4byte	.LVL128-.Ltext0
 11554 193c B4050000 		.4byte	.LVL129-.Ltext0
 11555 1940 0400     		.2byte	0x4
 11556 1942 F3       		.byte	0xf3
 11557 1943 01       		.uleb128 0x1
 11558 1944 50       		.byte	0x50
 11559 1945 9F       		.byte	0x9f
 11560 1946 B4050000 		.4byte	.LVL129-.Ltext0
 11561 194a B8050000 		.4byte	.LVL130-.Ltext0
 11562 194e 0100     		.2byte	0x1
 11563 1950 50       		.byte	0x50
 11564 1951 B8050000 		.4byte	.LVL130-.Ltext0
 11565 1955 C0050000 		.4byte	.LFE15-.Ltext0
 11566 1959 0400     		.2byte	0x4
 11567 195b F3       		.byte	0xf3
 11568 195c 01       		.uleb128 0x1
 11569 195d 50       		.byte	0x50
 11570 195e 9F       		.byte	0x9f
 11571 195f 00000000 		.4byte	0
ARM GAS  G:\Users\Jaxb\AppData\Local\Temp\ccbV8Tbs.s 			page 231


 11572 1963 00000000 		.4byte	0
 11573              		.section	.debug_aranges,"",%progbits
 11574 0000 1C000000 		.4byte	0x1c
 11575 0004 0200     		.2byte	0x2
 11576 0006 00000000 		.4byte	.Ldebug_info0
 11577 000a 04       		.byte	0x4
 11578 000b 00       		.byte	0
 11579 000c 0000     		.2byte	0
 11580 000e 0000     		.2byte	0
 11581 0010 00000000 		.4byte	.Ltext0
 11582 0014 88100000 		.4byte	.Letext0-.Ltext0
 11583 0018 00000000 		.4byte	0
 11584 001c 00000000 		.4byte	0
 11585              		.section	.debug_ranges,"",%progbits
 11586              	.Ldebug_ranges0:
 11587 0000 22000000 		.4byte	.LBB42-.Ltext0
 11588 0004 26000000 		.4byte	.LBE42-.Ltext0
 11589 0008 2A000000 		.4byte	.LBB46-.Ltext0
 11590 000c 36000000 		.4byte	.LBE46-.Ltext0
 11591 0010 3A000000 		.4byte	.LBB47-.Ltext0
 11592 0014 42000000 		.4byte	.LBE47-.Ltext0
 11593 0018 00000000 		.4byte	0
 11594 001c 00000000 		.4byte	0
 11595 0020 88010000 		.4byte	.LBB51-.Ltext0
 11596 0024 CA010000 		.4byte	.LBE51-.Ltext0
 11597 0028 D8010000 		.4byte	.LBB60-.Ltext0
 11598 002c EC010000 		.4byte	.LBE60-.Ltext0
 11599 0030 00000000 		.4byte	0
 11600 0034 00000000 		.4byte	0
 11601 0038 8A010000 		.4byte	.LBB52-.Ltext0
 11602 003c 8C010000 		.4byte	.LBE52-.Ltext0
 11603 0040 94010000 		.4byte	.LBB57-.Ltext0
 11604 0044 98010000 		.4byte	.LBE57-.Ltext0
 11605 0048 A0010000 		.4byte	.LBB58-.Ltext0
 11606 004c CA010000 		.4byte	.LBE58-.Ltext0
 11607 0050 D8010000 		.4byte	.LBB59-.Ltext0
 11608 0054 EC010000 		.4byte	.LBE59-.Ltext0
 11609 0058 00000000 		.4byte	0
 11610 005c 00000000 		.4byte	0
 11611 0060 44020000 		.4byte	.LBB83-.Ltext0
 11612 0064 48020000 		.4byte	.LBE83-.Ltext0
 11613 0068 4A020000 		.4byte	.LBB86-.Ltext0
 11614 006c 56020000 		.4byte	.LBE86-.Ltext0
 11615 0070 00000000 		.4byte	0
 11616 0074 00000000 		.4byte	0
 11617 0078 60020000 		.4byte	.LBB87-.Ltext0
 11618 007c 20040000 		.4byte	.LBE87-.Ltext0
 11619 0080 3E040000 		.4byte	.LBB123-.Ltext0
 11620 0084 62040000 		.4byte	.LBE123-.Ltext0
 11621 0088 68040000 		.4byte	.LBB124-.Ltext0
 11622 008c 60050000 		.4byte	.LBE124-.Ltext0
 11623 0090 00000000 		.4byte	0
 11624 0094 00000000 		.4byte	0
 11625 0098 82020000 		.4byte	.LBB89-.Ltext0
 11626 009c 88020000 		.4byte	.LBE89-.Ltext0
 11627 00a0 36030000 		.4byte	.LBB97-.Ltext0
 11628 00a4 4E030000 		.4byte	.LBE97-.Ltext0
ARM GAS  G:\Users\Jaxb\AppData\Local\Temp\ccbV8Tbs.s 			page 232


 11629 00a8 00000000 		.4byte	0
 11630 00ac 00000000 		.4byte	0
 11631 00b0 AE020000 		.4byte	.LBB92-.Ltext0
 11632 00b4 D8020000 		.4byte	.LBE92-.Ltext0
 11633 00b8 6A040000 		.4byte	.LBB116-.Ltext0
 11634 00bc 78040000 		.4byte	.LBE116-.Ltext0
 11635 00c0 00000000 		.4byte	0
 11636 00c4 00000000 		.4byte	0
 11637 00c8 56030000 		.4byte	.LBB98-.Ltext0
 11638 00cc D2030000 		.4byte	.LBE98-.Ltext0
 11639 00d0 78040000 		.4byte	.LBB117-.Ltext0
 11640 00d4 0E050000 		.4byte	.LBE117-.Ltext0
 11641 00d8 18050000 		.4byte	.LBB118-.Ltext0
 11642 00dc 34050000 		.4byte	.LBE118-.Ltext0
 11643 00e0 00000000 		.4byte	0
 11644 00e4 00000000 		.4byte	0
 11645 00e8 78040000 		.4byte	.LBB100-.Ltext0
 11646 00ec 7A040000 		.4byte	.LBE100-.Ltext0
 11647 00f0 7C040000 		.4byte	.LBB105-.Ltext0
 11648 00f4 80040000 		.4byte	.LBE105-.Ltext0
 11649 00f8 84040000 		.4byte	.LBB106-.Ltext0
 11650 00fc AE040000 		.4byte	.LBE106-.Ltext0
 11651 0100 00050000 		.4byte	.LBB112-.Ltext0
 11652 0104 0E050000 		.4byte	.LBE112-.Ltext0
 11653 0108 00000000 		.4byte	0
 11654 010c 00000000 		.4byte	0
 11655 0110 D2040000 		.4byte	.LBB107-.Ltext0
 11656 0114 D4040000 		.4byte	.LBE107-.Ltext0
 11657 0118 D8040000 		.4byte	.LBB111-.Ltext0
 11658 011c 00050000 		.4byte	.LBE111-.Ltext0
 11659 0120 18050000 		.4byte	.LBB113-.Ltext0
 11660 0124 26050000 		.4byte	.LBE113-.Ltext0
 11661 0128 00000000 		.4byte	0
 11662 012c 00000000 		.4byte	0
 11663 0130 14070000 		.4byte	.LBB132-.Ltext0
 11664 0134 24070000 		.4byte	.LBE132-.Ltext0
 11665 0138 2A070000 		.4byte	.LBB138-.Ltext0
 11666 013c 3A070000 		.4byte	.LBE138-.Ltext0
 11667 0140 5C070000 		.4byte	.LBB139-.Ltext0
 11668 0144 60070000 		.4byte	.LBE139-.Ltext0
 11669 0148 00000000 		.4byte	0
 11670 014c 00000000 		.4byte	0
 11671 0150 2A070000 		.4byte	.LBB134-.Ltext0
 11672 0154 3A070000 		.4byte	.LBE134-.Ltext0
 11673 0158 5C070000 		.4byte	.LBB135-.Ltext0
 11674 015c 60070000 		.4byte	.LBE135-.Ltext0
 11675 0160 00000000 		.4byte	0
 11676 0164 00000000 		.4byte	0
 11677 0168 CC0B0000 		.4byte	.LBB177-.Ltext0
 11678 016c D00B0000 		.4byte	.LBE177-.Ltext0
 11679 0170 D20B0000 		.4byte	.LBB180-.Ltext0
 11680 0174 DC0B0000 		.4byte	.LBE180-.Ltext0
 11681 0178 00000000 		.4byte	0
 11682 017c 00000000 		.4byte	0
 11683 0180 060D0000 		.4byte	.LBB185-.Ltext0
 11684 0184 DA0D0000 		.4byte	.LBE185-.Ltext0
 11685 0188 080E0000 		.4byte	.LBB226-.Ltext0
ARM GAS  G:\Users\Jaxb\AppData\Local\Temp\ccbV8Tbs.s 			page 233


 11686 018c FE0E0000 		.4byte	.LBE226-.Ltext0
 11687 0190 680F0000 		.4byte	.LBB227-.Ltext0
 11688 0194 32100000 		.4byte	.LBE227-.Ltext0
 11689 0198 4A100000 		.4byte	.LBB229-.Ltext0
 11690 019c 70100000 		.4byte	.LBE229-.Ltext0
 11691 01a0 00000000 		.4byte	0
 11692 01a4 00000000 		.4byte	0
 11693 01a8 180D0000 		.4byte	.LBB187-.Ltext0
 11694 01ac 1C0D0000 		.4byte	.LBE187-.Ltext0
 11695 01b0 080E0000 		.4byte	.LBB212-.Ltext0
 11696 01b4 160E0000 		.4byte	.LBE212-.Ltext0
 11697 01b8 360E0000 		.4byte	.LBB213-.Ltext0
 11698 01bc FE0E0000 		.4byte	.LBE213-.Ltext0
 11699 01c0 680F0000 		.4byte	.LBB214-.Ltext0
 11700 01c4 760F0000 		.4byte	.LBE214-.Ltext0
 11701 01c8 820F0000 		.4byte	.LBB215-.Ltext0
 11702 01cc FE0F0000 		.4byte	.LBE215-.Ltext0
 11703 01d0 00000000 		.4byte	0
 11704 01d4 00000000 		.4byte	0
 11705 01d8 180D0000 		.4byte	.LBB188-.Ltext0
 11706 01dc 1C0D0000 		.4byte	.LBE188-.Ltext0
 11707 01e0 860E0000 		.4byte	.LBB201-.Ltext0
 11708 01e4 8A0E0000 		.4byte	.LBE201-.Ltext0
 11709 01e8 960E0000 		.4byte	.LBB202-.Ltext0
 11710 01ec F40E0000 		.4byte	.LBE202-.Ltext0
 11711 01f0 680F0000 		.4byte	.LBB203-.Ltext0
 11712 01f4 760F0000 		.4byte	.LBE203-.Ltext0
 11713 01f8 880F0000 		.4byte	.LBB204-.Ltext0
 11714 01fc 8C0F0000 		.4byte	.LBE204-.Ltext0
 11715 0200 940F0000 		.4byte	.LBB205-.Ltext0
 11716 0204 CE0F0000 		.4byte	.LBE205-.Ltext0
 11717 0208 DE0F0000 		.4byte	.LBB207-.Ltext0
 11718 020c FE0F0000 		.4byte	.LBE207-.Ltext0
 11719 0210 00000000 		.4byte	0
 11720 0214 00000000 		.4byte	0
 11721 0218 080E0000 		.4byte	.LBB196-.Ltext0
 11722 021c 160E0000 		.4byte	.LBE196-.Ltext0
 11723 0220 360E0000 		.4byte	.LBB200-.Ltext0
 11724 0224 7C0E0000 		.4byte	.LBE200-.Ltext0
 11725 0228 CE0F0000 		.4byte	.LBB206-.Ltext0
 11726 022c DE0F0000 		.4byte	.LBE206-.Ltext0
 11727 0230 00000000 		.4byte	0
 11728 0234 00000000 		.4byte	0
 11729 0238 480D0000 		.4byte	.LBB208-.Ltext0
 11730 023c DA0D0000 		.4byte	.LBE208-.Ltext0
 11731 0240 FE0F0000 		.4byte	.LBB216-.Ltext0
 11732 0244 32100000 		.4byte	.LBE216-.Ltext0
 11733 0248 4A100000 		.4byte	.LBB217-.Ltext0
 11734 024c 70100000 		.4byte	.LBE217-.Ltext0
 11735 0250 00000000 		.4byte	0
 11736 0254 00000000 		.4byte	0
 11737 0258 E60D0000 		.4byte	.LBB221-.Ltext0
 11738 025c F20D0000 		.4byte	.LBE221-.Ltext0
 11739 0260 F80D0000 		.4byte	.LBB225-.Ltext0
 11740 0264 000E0000 		.4byte	.LBE225-.Ltext0
 11741 0268 32100000 		.4byte	.LBB228-.Ltext0
 11742 026c 3A100000 		.4byte	.LBE228-.Ltext0
ARM GAS  G:\Users\Jaxb\AppData\Local\Temp\ccbV8Tbs.s 			page 234


 11743 0270 00000000 		.4byte	0
 11744 0274 00000000 		.4byte	0
 11745              		.section	.debug_line,"",%progbits
 11746              	.Ldebug_line0:
 11747 0000 08060000 		.section	.debug_str,"MS",%progbits,1
 11747      0200E900 
 11747      00000201 
 11747      FB0E0D00 
 11747      01010101 
 11748              	.LASF88:
 11749 0000 5F646561 		.ascii	"_deal_with_flag_alloc\000"
 11749      6C5F7769 
 11749      74685F66 
 11749      6C61675F 
 11749      616C6C6F 
 11750              	.LASF55:
 11751 0016 72657475 		.ascii	"return_power9_page\000"
 11751      726E5F70 
 11751      6F776572 
 11751      395F7061 
 11751      676500
 11752              	.LASF28:
 11753 0029 6F726465 		.ascii	"order_link_first\000"
 11753      725F6C69 
 11753      6E6B5F66 
 11753      69727374 
 11753      00
 11754              	.LASF66:
 11755 003a 5F636865 		.ascii	"_check_flag\000"
 11755      636B5F66 
 11755      6C616700 
 11756              	.LASF58:
 11757 0046 72657475 		.ascii	"return_power6_page\000"
 11757      726E5F70 
 11757      6F776572 
 11757      365F7061 
 11757      676500
 11758              	.LASF60:
 11759 0059 72657475 		.ascii	"return_power4_page\000"
 11759      726E5F70 
 11759      6F776572 
 11759      345F7061 
 11759      676500
 11760              	.LASF50:
 11761 006c 61727261 		.ascii	"array_offset\000"
 11761      795F6F66 
 11761      66736574 
 11761      00
 11762              	.LASF18:
 11763 0079 62756464 		.ascii	"buddy_info\000"
 11763      795F696E 
 11763      666F00
 11764              	.LASF61:
 11765 0084 72657475 		.ascii	"return_power3_page\000"
 11765      726E5F70 
 11765      6F776572 
 11765      335F7061 
ARM GAS  G:\Users\Jaxb\AppData\Local\Temp\ccbV8Tbs.s 			page 235


 11765      676500
 11766              	.LASF20:
 11767 0097 70616765 		.ascii	"page_num\000"
 11767      5F6E756D 
 11767      00
 11768              	.LASF27:
 11769 00a0 6C696E6B 		.ascii	"link_body\000"
 11769      5F626F64 
 11769      7900
 11770              	.LASF99:
 11771 00aa 6765745F 		.ascii	"get_next_buddy_ptr_head\000"
 11771      6E657874 
 11771      5F627564 
 11771      64795F70 
 11771      74725F68 
 11772              	.LASF67:
 11773 00c2 696E6465 		.ascii	"index\000"
 11773      7800
 11774              	.LASF105:
 11775 00c8 6469735F 		.ascii	"dis_page_alloc_record\000"
 11775      70616765 
 11775      5F616C6C 
 11775      6F635F72 
 11775      65636F72 
 11776              	.LASF1:
 11777 00de 73686F72 		.ascii	"short int\000"
 11777      7420696E 
 11777      7400
 11778              	.LASF100:
 11779 00e8 6765745F 		.ascii	"get_max_level\000"
 11779      6D61785F 
 11779      6C657665 
 11779      6C00
 11780              	.LASF84:
 11781 00f6 6164645F 		.ascii	"add_to_os\000"
 11781      746F5F6F 
 11781      7300
 11782              	.LASF102:
 11783 0100 4350555F 		.ascii	"CPU_SR_Restore\000"
 11783      53525F52 
 11783      6573746F 
 11783      726500
 11784              	.LASF106:
 11785 010f 6765745F 		.ascii	"get_set_bit_place\000"
 11785      7365745F 
 11785      6269745F 
 11785      706C6163 
 11785      6500
 11786              	.LASF79:
 11787 0121 616C6C6F 		.ascii	"alloc_power1_page\000"
 11787      635F706F 
 11787      77657231 
 11787      5F706167 
 11787      6500
 11788              	.LASF70:
 11789 0133 616C6C6F 		.ascii	"alloc_power10_page\000"
 11789      635F706F 
ARM GAS  G:\Users\Jaxb\AppData\Local\Temp\ccbV8Tbs.s 			page 236


 11789      77657231 
 11789      305F7061 
 11789      676500
 11790              	.LASF96:
 11791 0146 5F616C6C 		.ascii	"_alloc_order_link\000"
 11791      6F635F6F 
 11791      72646572 
 11791      5F6C696E 
 11791      6B00
 11792              	.LASF95:
 11793 0158 6F726465 		.ascii	"order_link_ptr\000"
 11793      725F6C69 
 11793      6E6B5F70 
 11793      747200
 11794              	.LASF6:
 11795 0167 55494E54 		.ascii	"UINT32\000"
 11795      333200
 11796              	.LASF101:
 11797 016e 4350555F 		.ascii	"CPU_SR_Save\000"
 11797      53525F53 
 11797      61766500 
 11798              	.LASF97:
 11799 017a 696E5F62 		.ascii	"in_buddy_range\000"
 11799      75646479 
 11799      5F72616E 
 11799      676500
 11800              	.LASF49:
 11801 0189 61727261 		.ascii	"array_index\000"
 11801      795F696E 
 11801      64657800 
 11802              	.LASF17:
 11803 0195 6465765F 		.ascii	"dev_mem_para\000"
 11803      6D656D5F 
 11803      70617261 
 11803      00
 11804              	.LASF91:
 11805 01a2 62756464 		.ascii	"buddy_page_num\000"
 11805      795F7061 
 11805      67655F6E 
 11805      756D00
 11806              	.LASF29:
 11807 01b1 6F726465 		.ascii	"order_link_flag\000"
 11807      725F6C69 
 11807      6E6B5F66 
 11807      6C616700 
 11808              	.LASF23:
 11809 01c1 6F726465 		.ascii	"order_link\000"
 11809      725F6C69 
 11809      6E6B00
 11810              	.LASF63:
 11811 01cc 72657475 		.ascii	"return_power1_page\000"
 11811      726E5F70 
 11811      6F776572 
 11811      315F7061 
 11811      676500
 11812              	.LASF71:
 11813 01df 616C6C6F 		.ascii	"alloc_power9_page\000"
ARM GAS  G:\Users\Jaxb\AppData\Local\Temp\ccbV8Tbs.s 			page 237


 11813      635F706F 
 11813      77657239 
 11813      5F706167 
 11813      6500
 11814              	.LASF113:
 11815 01f1 66696E61 		.ascii	"final_step\000"
 11815      6C5F7374 
 11815      657000
 11816              	.LASF15:
 11817 01fc 50616765 		.ascii	"Page_Num_Type\000"
 11817      5F4E756D 
 11817      5F547970 
 11817      6500
 11818              	.LASF41:
 11819 020a 61726776 		.ascii	"argv\000"
 11819      00
 11820              	.LASF2:
 11821 020f 6C6F6E67 		.ascii	"long long int\000"
 11821      206C6F6E 
 11821      6720696E 
 11821      7400
 11822              	.LASF26:
 11823 021d 666C6167 		.ascii	"flag\000"
 11823      00
 11824              	.LASF74:
 11825 0222 616C6C6F 		.ascii	"alloc_power6_page\000"
 11825      635F706F 
 11825      77657236 
 11825      5F706167 
 11825      6500
 11826              	.LASF48:
 11827 0234 5F676574 		.ascii	"_get_level\000"
 11827      5F6C6576 
 11827      656C00
 11828              	.LASF107:
 11829 023f 6B615F70 		.ascii	"ka_pow\000"
 11829      6F7700
 11830              	.LASF47:
 11831 0246 6F666673 		.ascii	"offset\000"
 11831      657400
 11832              	.LASF16:
 11833 024d 42756464 		.ascii	"Buddy_Space_Type\000"
 11833      795F5370 
 11833      6163655F 
 11833      54797065 
 11833      00
 11834              	.LASF73:
 11835 025e 616C6C6F 		.ascii	"alloc_power7_page\000"
 11835      635F706F 
 11835      77657237 
 11835      5F706167 
 11835      6500
 11836              	.LASF76:
 11837 0270 616C6C6F 		.ascii	"alloc_power4_page\000"
 11837      635F706F 
 11837      77657234 
 11837      5F706167 
ARM GAS  G:\Users\Jaxb\AppData\Local\Temp\ccbV8Tbs.s 			page 238


 11837      6500
 11838              	.LASF13:
 11839 0282 62756464 		.ascii	"buddy_space_struct\000"
 11839      795F7370 
 11839      6163655F 
 11839      73747275 
 11839      637400
 11840              	.LASF77:
 11841 0295 616C6C6F 		.ascii	"alloc_power3_page\000"
 11841      635F706F 
 11841      77657233 
 11841      5F706167 
 11841      6500
 11842              	.LASF3:
 11843 02a7 756E7369 		.ascii	"unsigned char\000"
 11843      676E6564 
 11843      20636861 
 11843      7200
 11844              	.LASF89:
 11845 02b5 5F616464 		.ascii	"_add_of_num\000"
 11845      5F6F665F 
 11845      6E756D00 
 11846              	.LASF40:
 11847 02c1 61726763 		.ascii	"argc\000"
 11847      00
 11848              	.LASF103:
 11849 02c6 5F415353 		.ascii	"_ASSERT\000"
 11849      45525400 
 11850              	.LASF52:
 11851 02ce 7368656C 		.ascii	"shell_buddy_debug\000"
 11851      6C5F6275 
 11851      6464795F 
 11851      64656275 
 11851      6700
 11852              	.LASF0:
 11853 02e0 7369676E 		.ascii	"signed char\000"
 11853      65642063 
 11853      68617200 
 11854              	.LASF64:
 11855 02ec 62756666 		.ascii	"buffer1\000"
 11855      65723100 
 11856              	.LASF8:
 11857 02f4 6C6F6E67 		.ascii	"long long unsigned int\000"
 11857      206C6F6E 
 11857      6720756E 
 11857      7369676E 
 11857      65642069 
 11858              	.LASF39:
 11859 030b 63757272 		.ascii	"current_used_buddy_ptr\000"
 11859      656E745F 
 11859      75736564 
 11859      5F627564 
 11859      64795F70 
 11860              	.LASF86:
 11861 0322 5F726574 		.ascii	"_return_link_body\000"
 11861      75726E5F 
 11861      6C696E6B 
ARM GAS  G:\Users\Jaxb\AppData\Local\Temp\ccbV8Tbs.s 			page 239


 11861      5F626F64 
 11861      7900
 11862              	.LASF21:
 11863 0334 6D61785F 		.ascii	"max_level\000"
 11863      6C657665 
 11863      6C00
 11864              	.LASF90:
 11865 033e 5F616464 		.ascii	"_add_to_order_array_loop\000"
 11865      5F746F5F 
 11865      6F726465 
 11865      725F6172 
 11865      7261795F 
 11866              	.LASF7:
 11867 0357 756E7369 		.ascii	"unsigned int\000"
 11867      676E6564 
 11867      20696E74 
 11867      00
 11868              	.LASF59:
 11869 0364 72657475 		.ascii	"return_power5_page\000"
 11869      726E5F70 
 11869      6F776572 
 11869      355F7061 
 11869      676500
 11870              	.LASF31:
 11871 0377 6C657665 		.ascii	"level_flag_base\000"
 11871      6C5F666C 
 11871      61675F62 
 11871      61736500 
 11872              	.LASF14:
 11873 0387 466C6167 		.ascii	"Flag_Type\000"
 11873      5F547970 
 11873      6500
 11874              	.LASF62:
 11875 0391 72657475 		.ascii	"return_power2_page\000"
 11875      726E5F70 
 11875      6F776572 
 11875      325F7061 
 11875      676500
 11876              	.LASF87:
 11877 03a4 5F726574 		.ascii	"_return_page\000"
 11877      75726E5F 
 11877      70616765 
 11877      00
 11878              	.LASF109:
 11879 03b1 2E2E2F2E 		.ascii	"../../source/src/user/OS_LIB/buddy.c\000"
 11879      2E2F736F 
 11879      75726365 
 11879      2F737263 
 11879      2F757365 
 11880              	.LASF72:
 11881 03d6 616C6C6F 		.ascii	"alloc_power8_page\000"
 11881      635F706F 
 11881      77657238 
 11881      5F706167 
 11881      6500
 11882              	.LASF32:
 11883 03e8 62756464 		.ascii	"buddy_struct_size\000"
ARM GAS  G:\Users\Jaxb\AppData\Local\Temp\ccbV8Tbs.s 			page 240


 11883      795F7374 
 11883      72756374 
 11883      5F73697A 
 11883      6500
 11884              	.LASF92:
 11885 03fa 5F627564 		.ascii	"_buddy_page_num\000"
 11885      64795F70 
 11885      6167655F 
 11885      6E756D00 
 11886              	.LASF10:
 11887 040a 73746172 		.ascii	"start\000"
 11887      7400
 11888              	.LASF4:
 11889 0410 73686F72 		.ascii	"short unsigned int\000"
 11889      7420756E 
 11889      7369676E 
 11889      65642069 
 11889      6E7400
 11890              	.LASF81:
 11891 0423 6465765F 		.ascii	"dev_mem_para_ptr\000"
 11891      6D656D5F 
 11891      70617261 
 11891      5F707472 
 11891      00
 11892              	.LASF5:
 11893 0434 55494E54 		.ascii	"UINT16\000"
 11893      313600
 11894              	.LASF12:
 11895 043b 63686172 		.ascii	"char\000"
 11895      00
 11896              	.LASF68:
 11897 0440 5F676574 		.ascii	"_get_page_num\000"
 11897      5F706167 
 11897      655F6E75 
 11897      6D00
 11898              	.LASF104:
 11899 044e 6B615F70 		.ascii	"ka_printf\000"
 11899      72696E74 
 11899      6600
 11900              	.LASF36:
 11901 0458 4350555F 		.ascii	"CPU_INT32U\000"
 11901      494E5433 
 11901      325500
 11902              	.LASF45:
 11903 0463 63686563 		.ascii	"check_buddy\000"
 11903      6B5F6275 
 11903      64647900 
 11904              	.LASF42:
 11905 046f 62756666 		.ascii	"buffer\000"
 11905      657200
 11906              	.LASF83:
 11907 0476 5F64656C 		.ascii	"_delete_from_chain\000"
 11907      6574655F 
 11907      66726F6D 
 11907      5F636861 
 11907      696E00
 11908              	.LASF56:
ARM GAS  G:\Users\Jaxb\AppData\Local\Temp\ccbV8Tbs.s 			page 241


 11909 0489 72657475 		.ascii	"return_power8_page\000"
 11909      726E5F70 
 11909      6F776572 
 11909      385F7061 
 11909      676500
 11910              	.LASF44:
 11911 049c 6C657665 		.ascii	"level\000"
 11911      6C00
 11912              	.LASF25:
 11913 04a2 62756464 		.ascii	"buddy\000"
 11913      7900
 11914              	.LASF82:
 11915 04a8 73697A65 		.ascii	"size_sum\000"
 11915      5F73756D 
 11915      00
 11916              	.LASF110:
 11917 04b1 473A5C55 		.ascii	"G:\\Users\\Jaxb\\Desktop\\KAKAOS-0.07  2019.2.21  f"
 11917      73657273 
 11917      5C4A6178 
 11917      625C4465 
 11917      736B746F 
 11918 04e0 6F722067 		.ascii	"or gcc\\Project\\RVMDK\243\250uv5\243\251\000"
 11918      63635C50 
 11918      726F6A65 
 11918      63745C52 
 11918      564D444B 
 11919              	.LASF22:
 11920 04fc 6C657665 		.ascii	"level_flag_base_size\000"
 11920      6C5F666C 
 11920      61675F62 
 11920      6173655F 
 11920      73697A65 
 11921              	.LASF11:
 11922 0511 73697A65 		.ascii	"size\000"
 11922      00
 11923              	.LASF78:
 11924 0516 616C6C6F 		.ascii	"alloc_power2_page\000"
 11924      635F706F 
 11924      77657232 
 11924      5F706167 
 11924      6500
 11925              	.LASF65:
 11926 0528 62756666 		.ascii	"buffer2\000"
 11926      65723200 
 11927              	.LASF34:
 11928 0530 696E666F 		.ascii	"info\000"
 11928      00
 11929              	.LASF38:
 11930 0535 6F735F62 		.ascii	"os_buddy_ptr_head\000"
 11930      75646479 
 11930      5F707472 
 11930      5F686561 
 11930      6400
 11931              	.LASF85:
 11932 0547 62756666 		.ascii	"buffer_ptr\000"
 11932      65725F70 
 11932      747200
ARM GAS  G:\Users\Jaxb\AppData\Local\Temp\ccbV8Tbs.s 			page 242


 11933              	.LASF57:
 11934 0552 72657475 		.ascii	"return_power7_page\000"
 11934      726E5F70 
 11934      6F776572 
 11934      375F7061 
 11934      676500
 11935              	.LASF35:
 11936 0565 62756464 		.ascii	"buddy_space_start_ptr\000"
 11936      795F7370 
 11936      6163655F 
 11936      73746172 
 11936      745F7074 
 11937              	.LASF53:
 11938 057b 72657475 		.ascii	"return_power10_page\000"
 11938      726E5F70 
 11938      6F776572 
 11938      31305F70 
 11938      61676500 
 11939              	.LASF51:
 11940 058f 5F636865 		.ascii	"_check_buddy_flag_level\000"
 11940      636B5F62 
 11940      75646479 
 11940      5F666C61 
 11940      675F6C65 
 11941              	.LASF80:
 11942 05a7 62756464 		.ascii	"buddy_init\000"
 11942      795F696E 
 11942      697400
 11943              	.LASF33:
 11944 05b2 63757272 		.ascii	"current_page_num\000"
 11944      656E745F 
 11944      70616765 
 11944      5F6E756D 
 11944      00
 11945              	.LASF54:
 11946 05c3 6370755F 		.ascii	"cpu_sr\000"
 11946      737200
 11947              	.LASF98:
 11948 05ca 6765745F 		.ascii	"get_current_buddy_space\000"
 11948      63757272 
 11948      656E745F 
 11948      62756464 
 11948      795F7370 
 11949              	.LASF108:
 11950 05e2 474E5520 		.ascii	"GNU C11 7.3.1 20180622 (release) [ARM/embedded-7-br"
 11950      43313120 
 11950      372E332E 
 11950      31203230 
 11950      31383036 
 11951 0615 616E6368 		.ascii	"anch revision 261907] -mcpu=cortex-m3 -mthumb -mapc"
 11951      20726576 
 11951      6973696F 
 11951      6E203236 
 11951      31393037 
 11952 0648 732D6672 		.ascii	"s-frame -mthumb-interwork -mcpu=cortex-m3 -mthumb -"
 11952      616D6520 
 11952      2D6D7468 
ARM GAS  G:\Users\Jaxb\AppData\Local\Temp\ccbV8Tbs.s 			page 243


 11952      756D622D 
 11952      696E7465 
 11953 067b 67647761 		.ascii	"gdwarf-2 -O2\000"
 11953      72662D32 
 11953      202D4F32 
 11953      00
 11954              	.LASF75:
 11955 0688 616C6C6F 		.ascii	"alloc_power5_page\000"
 11955      635F706F 
 11955      77657235 
 11955      5F706167 
 11955      6500
 11956              	.LASF69:
 11957 069a 61737365 		.ascii	"assert_in_chain\000"
 11957      72745F69 
 11957      6E5F6368 
 11957      61696E00 
 11958              	.LASF19:
 11959 06aa 666C6167 		.ascii	"flag_array_num\000"
 11959      5F617272 
 11959      61795F6E 
 11959      756D00
 11960              	.LASF46:
 11961 06b9 5F636865 		.ascii	"_check_buddy_level_flag\000"
 11961      636B5F62 
 11961      75646479 
 11961      5F6C6576 
 11961      656C5F66 
 11962              	.LASF43:
 11963 06d1 62756464 		.ascii	"buddy_ptr\000"
 11963      795F7074 
 11963      7200
 11964              	.LASF37:
 11965 06db 4350555F 		.ascii	"CPU_SR\000"
 11965      535200
 11966              	.LASF114:
 11967 06e2 6765745F 		.ascii	"get_os_buddy_ptr_head\000"
 11967      6F735F62 
 11967      75646479 
 11967      5F707472 
 11967      5F686561 
 11968              	.LASF30:
 11969 06f8 6F726465 		.ascii	"order_array\000"
 11969      725F6172 
 11969      72617900 
 11970              	.LASF93:
 11971 0704 5F616464 		.ascii	"_add_to_order_array\000"
 11971      5F746F5F 
 11971      6F726465 
 11971      725F6172 
 11971      72617900 
 11972              	.LASF111:
 11973 0718 5F656273 		.ascii	"_ebss\000"
 11973      7300
 11974              	.LASF9:
 11975 071e 7072696F 		.ascii	"prio\000"
 11975      00
ARM GAS  G:\Users\Jaxb\AppData\Local\Temp\ccbV8Tbs.s 			page 244


 11976              	.LASF24:
 11977 0723 6E657874 		.ascii	"next\000"
 11977      00
 11978              	.LASF94:
 11979 0728 66697273 		.ascii	"first\000"
 11979      7400
 11980              	.LASF112:
 11981 072e 5F616C6C 		.ascii	"_alloc_page\000"
 11981      6F635F70 
 11981      61676500 
 11982              		.ident	"GCC: (GNU Tools for Arm Embedded Processors 7-2018-q2-update) 7.3.1 20180622 (release) [AR
ARM GAS  G:\Users\Jaxb\AppData\Local\Temp\ccbV8Tbs.s 			page 245


DEFINED SYMBOLS
                            *ABS*:00000000 buddy.c
G:\Users\Jaxb\AppData\Local\Temp\ccbV8Tbs.s:15     .text:00000000 $t
G:\Users\Jaxb\AppData\Local\Temp\ccbV8Tbs.s:22     .text:00000000 _add_to_order_array
G:\Users\Jaxb\AppData\Local\Temp\ccbV8Tbs.s:180    .text:000000b8 $d
G:\Users\Jaxb\AppData\Local\Temp\ccbV8Tbs.s:185    .text:000000c0 $t
G:\Users\Jaxb\AppData\Local\Temp\ccbV8Tbs.s:192    .text:000000c0 _deal_with_flag_alloc
G:\Users\Jaxb\AppData\Local\Temp\ccbV8Tbs.s:268    .text:00000120 $d
G:\Users\Jaxb\AppData\Local\Temp\ccbV8Tbs.s:273    .text:00000128 $t
G:\Users\Jaxb\AppData\Local\Temp\ccbV8Tbs.s:280    .text:00000128 _alloc_page
G:\Users\Jaxb\AppData\Local\Temp\ccbV8Tbs.s:440    .text:000001e4 $d
G:\Users\Jaxb\AppData\Local\Temp\ccbV8Tbs.s:448    .text:000001ec $t
G:\Users\Jaxb\AppData\Local\Temp\ccbV8Tbs.s:455    .text:000001ec _return_page
G:\Users\Jaxb\AppData\Local\Temp\ccbV8Tbs.s:1086   .text:0000052c $d
G:\Users\Jaxb\AppData\Local\Temp\ccbV8Tbs.s:1095   .text:00000534 $t
G:\Users\Jaxb\AppData\Local\Temp\ccbV8Tbs.s:1127   .text:0000055c $d
G:\Users\Jaxb\AppData\Local\Temp\ccbV8Tbs.s:1133   .text:00000560 $t
G:\Users\Jaxb\AppData\Local\Temp\ccbV8Tbs.s:1141   .text:00000560 get_os_buddy_ptr_head
G:\Users\Jaxb\AppData\Local\Temp\ccbV8Tbs.s:1157   .text:00000568 $d
G:\Users\Jaxb\AppData\Local\Temp\ccbV8Tbs.s:1161   .text:0000056c $t
G:\Users\Jaxb\AppData\Local\Temp\ccbV8Tbs.s:1169   .text:0000056c get_next_buddy_ptr_head
G:\Users\Jaxb\AppData\Local\Temp\ccbV8Tbs.s:1197   .text:0000057c $d
G:\Users\Jaxb\AppData\Local\Temp\ccbV8Tbs.s:1201   .text:00000580 $t
G:\Users\Jaxb\AppData\Local\Temp\ccbV8Tbs.s:1209   .text:00000580 get_current_buddy_space
G:\Users\Jaxb\AppData\Local\Temp\ccbV8Tbs.s:1239   .text:00000594 $d
G:\Users\Jaxb\AppData\Local\Temp\ccbV8Tbs.s:1243   .text:00000598 $t
G:\Users\Jaxb\AppData\Local\Temp\ccbV8Tbs.s:1251   .text:00000598 in_buddy_range
G:\Users\Jaxb\AppData\Local\Temp\ccbV8Tbs.s:1284   .text:000005bc $d
G:\Users\Jaxb\AppData\Local\Temp\ccbV8Tbs.s:1288   .text:000005c0 $t
G:\Users\Jaxb\AppData\Local\Temp\ccbV8Tbs.s:1296   .text:000005c0 buddy_init
G:\Users\Jaxb\AppData\Local\Temp\ccbV8Tbs.s:1704   .text:00000774 $d
G:\Users\Jaxb\AppData\Local\Temp\ccbV8Tbs.s:1712   .text:00000788 $t
G:\Users\Jaxb\AppData\Local\Temp\ccbV8Tbs.s:1720   .text:00000788 alloc_power1_page
G:\Users\Jaxb\AppData\Local\Temp\ccbV8Tbs.s:1791   .text:000007c4 $d
G:\Users\Jaxb\AppData\Local\Temp\ccbV8Tbs.s:1795   .text:000007c8 $t
G:\Users\Jaxb\AppData\Local\Temp\ccbV8Tbs.s:1803   .text:000007c8 alloc_power2_page
G:\Users\Jaxb\AppData\Local\Temp\ccbV8Tbs.s:1874   .text:00000804 $d
G:\Users\Jaxb\AppData\Local\Temp\ccbV8Tbs.s:1878   .text:00000808 $t
G:\Users\Jaxb\AppData\Local\Temp\ccbV8Tbs.s:1886   .text:00000808 alloc_power3_page
G:\Users\Jaxb\AppData\Local\Temp\ccbV8Tbs.s:1957   .text:00000844 $d
G:\Users\Jaxb\AppData\Local\Temp\ccbV8Tbs.s:1961   .text:00000848 $t
G:\Users\Jaxb\AppData\Local\Temp\ccbV8Tbs.s:1969   .text:00000848 alloc_power4_page
G:\Users\Jaxb\AppData\Local\Temp\ccbV8Tbs.s:2040   .text:00000884 $d
G:\Users\Jaxb\AppData\Local\Temp\ccbV8Tbs.s:2044   .text:00000888 $t
G:\Users\Jaxb\AppData\Local\Temp\ccbV8Tbs.s:2052   .text:00000888 alloc_power5_page
G:\Users\Jaxb\AppData\Local\Temp\ccbV8Tbs.s:2123   .text:000008c4 $d
G:\Users\Jaxb\AppData\Local\Temp\ccbV8Tbs.s:2127   .text:000008c8 $t
G:\Users\Jaxb\AppData\Local\Temp\ccbV8Tbs.s:2135   .text:000008c8 alloc_power6_page
G:\Users\Jaxb\AppData\Local\Temp\ccbV8Tbs.s:2206   .text:00000904 $d
G:\Users\Jaxb\AppData\Local\Temp\ccbV8Tbs.s:2210   .text:00000908 $t
G:\Users\Jaxb\AppData\Local\Temp\ccbV8Tbs.s:2218   .text:00000908 alloc_power7_page
G:\Users\Jaxb\AppData\Local\Temp\ccbV8Tbs.s:2289   .text:00000944 $d
G:\Users\Jaxb\AppData\Local\Temp\ccbV8Tbs.s:2293   .text:00000948 $t
G:\Users\Jaxb\AppData\Local\Temp\ccbV8Tbs.s:2301   .text:00000948 alloc_power8_page
G:\Users\Jaxb\AppData\Local\Temp\ccbV8Tbs.s:2372   .text:00000984 $d
G:\Users\Jaxb\AppData\Local\Temp\ccbV8Tbs.s:2376   .text:00000988 $t
G:\Users\Jaxb\AppData\Local\Temp\ccbV8Tbs.s:2384   .text:00000988 alloc_power9_page
ARM GAS  G:\Users\Jaxb\AppData\Local\Temp\ccbV8Tbs.s 			page 246


G:\Users\Jaxb\AppData\Local\Temp\ccbV8Tbs.s:2455   .text:000009c8 $d
G:\Users\Jaxb\AppData\Local\Temp\ccbV8Tbs.s:2459   .text:000009cc $t
G:\Users\Jaxb\AppData\Local\Temp\ccbV8Tbs.s:2467   .text:000009cc alloc_power10_page
G:\Users\Jaxb\AppData\Local\Temp\ccbV8Tbs.s:2538   .text:00000a0c $d
G:\Users\Jaxb\AppData\Local\Temp\ccbV8Tbs.s:2542   .text:00000a10 $t
G:\Users\Jaxb\AppData\Local\Temp\ccbV8Tbs.s:2550   .text:00000a10 return_power1_page
G:\Users\Jaxb\AppData\Local\Temp\ccbV8Tbs.s:2604   .text:00000a38 $d
G:\Users\Jaxb\AppData\Local\Temp\ccbV8Tbs.s:2608   .text:00000a3c $t
G:\Users\Jaxb\AppData\Local\Temp\ccbV8Tbs.s:2616   .text:00000a3c return_power2_page
G:\Users\Jaxb\AppData\Local\Temp\ccbV8Tbs.s:2670   .text:00000a64 $d
G:\Users\Jaxb\AppData\Local\Temp\ccbV8Tbs.s:2674   .text:00000a68 $t
G:\Users\Jaxb\AppData\Local\Temp\ccbV8Tbs.s:2682   .text:00000a68 return_power3_page
G:\Users\Jaxb\AppData\Local\Temp\ccbV8Tbs.s:2736   .text:00000a90 $d
G:\Users\Jaxb\AppData\Local\Temp\ccbV8Tbs.s:2740   .text:00000a94 $t
G:\Users\Jaxb\AppData\Local\Temp\ccbV8Tbs.s:2748   .text:00000a94 return_power4_page
G:\Users\Jaxb\AppData\Local\Temp\ccbV8Tbs.s:2802   .text:00000abc $d
G:\Users\Jaxb\AppData\Local\Temp\ccbV8Tbs.s:2806   .text:00000ac0 $t
G:\Users\Jaxb\AppData\Local\Temp\ccbV8Tbs.s:2814   .text:00000ac0 return_power5_page
G:\Users\Jaxb\AppData\Local\Temp\ccbV8Tbs.s:2868   .text:00000ae8 $d
G:\Users\Jaxb\AppData\Local\Temp\ccbV8Tbs.s:2872   .text:00000aec $t
G:\Users\Jaxb\AppData\Local\Temp\ccbV8Tbs.s:2880   .text:00000aec return_power6_page
G:\Users\Jaxb\AppData\Local\Temp\ccbV8Tbs.s:2934   .text:00000b14 $d
G:\Users\Jaxb\AppData\Local\Temp\ccbV8Tbs.s:2938   .text:00000b18 $t
G:\Users\Jaxb\AppData\Local\Temp\ccbV8Tbs.s:2946   .text:00000b18 return_power7_page
G:\Users\Jaxb\AppData\Local\Temp\ccbV8Tbs.s:3000   .text:00000b40 $d
G:\Users\Jaxb\AppData\Local\Temp\ccbV8Tbs.s:3004   .text:00000b44 $t
G:\Users\Jaxb\AppData\Local\Temp\ccbV8Tbs.s:3012   .text:00000b44 return_power8_page
G:\Users\Jaxb\AppData\Local\Temp\ccbV8Tbs.s:3066   .text:00000b6c $d
G:\Users\Jaxb\AppData\Local\Temp\ccbV8Tbs.s:3070   .text:00000b70 $t
G:\Users\Jaxb\AppData\Local\Temp\ccbV8Tbs.s:3078   .text:00000b70 return_power9_page
G:\Users\Jaxb\AppData\Local\Temp\ccbV8Tbs.s:3132   .text:00000b98 $d
G:\Users\Jaxb\AppData\Local\Temp\ccbV8Tbs.s:3136   .text:00000b9c $t
G:\Users\Jaxb\AppData\Local\Temp\ccbV8Tbs.s:3144   .text:00000b9c return_power10_page
G:\Users\Jaxb\AppData\Local\Temp\ccbV8Tbs.s:3198   .text:00000bc4 $d
G:\Users\Jaxb\AppData\Local\Temp\ccbV8Tbs.s:3202   .text:00000bc8 $t
G:\Users\Jaxb\AppData\Local\Temp\ccbV8Tbs.s:3210   .text:00000bc8 shell_buddy_debug
G:\Users\Jaxb\AppData\Local\Temp\ccbV8Tbs.s:3804   .text:00000f08 $d
G:\Users\Jaxb\AppData\Local\Temp\ccbV8Tbs.s:3836   .text:00000f68 $t
G:\Users\Jaxb\AppData\Local\Temp\ccbV8Tbs.s:4048   .text:0000107c $d
G:\Users\Jaxb\AppData\Local\Temp\ccbV8Tbs.s:4055   .bss:00000000 $d
G:\Users\Jaxb\AppData\Local\Temp\ccbV8Tbs.s:4059   .bss:00000000 current_used_buddy_ptr
G:\Users\Jaxb\AppData\Local\Temp\ccbV8Tbs.s:4063   .bss:00000004 os_buddy_ptr_head
G:\Users\Jaxb\AppData\Local\Temp\ccbV8Tbs.s:4066   .rodata.str1.4:00000000 $d

UNDEFINED SYMBOLS
_ASSERT
CPU_SR_Save
CPU_SR_Restore
get_set_bit_place
ka_pow
ka_printf
_ebss
dis_page_alloc_record
