ARM GAS  G:\Users\Jaxb\AppData\Local\Temp\ccbV8Tbs.s 			page 1


   1              		.cpu cortex-m3
   2              		.eabi_attribute 20, 1
   3              		.eabi_attribute 21, 1
   4              		.eabi_attribute 23, 3
   5              		.eabi_attribute 24, 1
   6              		.eabi_attribute 25, 1
   7              		.eabi_attribute 26, 1
   8              		.eabi_attribute 30, 2
   9              		.eabi_attribute 34, 1
  10              		.eabi_attribute 18, 4
  11              		.file	"buddy.c"
  12              		.text
  13              	.Ltext0:
  14              		.cfi_sections	.debug_frame
  15              		.align	1
  16              		.p2align 2,,3
  17              		.syntax unified
  18              		.thumb
  19              		.thumb_func
  20              		.fpu softvfp
  21              		.type	_add_to_order_array, %function
  22              	_add_to_order_array:
  23              	.LFB9:
  24              		.file 1 "../../source/src/user/OS_LIB/buddy.c"
   1:../../source/src/user/OS_LIB/buddy.c **** #include <buddy.h>
   2:../../source/src/user/OS_LIB/buddy.c **** #include <myassert.h>
   3:../../source/src/user/OS_LIB/buddy.c **** #include <os_cpu.h>
   4:../../source/src/user/OS_LIB/buddy.c **** #include <myMicroLIB.h>
   5:../../source/src/user/OS_LIB/buddy.c **** #include <printf_debug.h>
   6:../../source/src/user/OS_LIB/buddy.c **** 
   7:../../source/src/user/OS_LIB/buddy.c **** static struct buddy *os_buddy_ptr_head = NULL;
   8:../../source/src/user/OS_LIB/buddy.c **** static struct buddy *current_used_buddy_ptr;
   9:../../source/src/user/OS_LIB/buddy.c **** 
  10:../../source/src/user/OS_LIB/buddy.c **** extern int _ebss;
  11:../../source/src/user/OS_LIB/buddy.c **** 
  12:../../source/src/user/OS_LIB/buddy.c **** extern int get_set_bit_place(unsigned int num);
  13:../../source/src/user/OS_LIB/buddy.c **** extern unsigned long ka_pow(int x,unsigned int y);
  14:../../source/src/user/OS_LIB/buddy.c **** extern void dis_page_alloc_record(void);
  15:../../source/src/user/OS_LIB/buddy.c **** 
  16:../../source/src/user/OS_LIB/buddy.c **** static void _delete_from_chain(unsigned int level,Page_Num_Type page_num);
  17:../../source/src/user/OS_LIB/buddy.c **** #define __debug 
  18:../../source/src/user/OS_LIB/buddy.c **** #if CONFIG_ASSERT_DEBUG
  19:../../source/src/user/OS_LIB/buddy.c **** static __debug int assert_in_chain(unsigned int level,Page_Num_Type num);
  20:../../source/src/user/OS_LIB/buddy.c **** #endif
  21:../../source/src/user/OS_LIB/buddy.c **** static inline int _check_flag(unsigned int level,Page_Num_Type page_num);
  22:../../source/src/user/OS_LIB/buddy.c **** static void _deal_with_flag_alloc(unsigned int level,Page_Num_Type page_num);
  23:../../source/src/user/OS_LIB/buddy.c **** static Page_Num_Type _alloc_page(unsigned int level);
  24:../../source/src/user/OS_LIB/buddy.c **** 
  25:../../source/src/user/OS_LIB/buddy.c **** inline static unsigned int get_max_level(unsigned int page_num)
  26:../../source/src/user/OS_LIB/buddy.c **** {
  27:../../source/src/user/OS_LIB/buddy.c **** 	return get_set_bit_place(page_num);
  28:../../source/src/user/OS_LIB/buddy.c **** }
  29:../../source/src/user/OS_LIB/buddy.c **** 
  30:../../source/src/user/OS_LIB/buddy.c **** const struct buddy *get_os_buddy_ptr_head(void)
  31:../../source/src/user/OS_LIB/buddy.c **** {
  32:../../source/src/user/OS_LIB/buddy.c **** 	current_used_buddy_ptr = os_buddy_ptr_head;
  33:../../source/src/user/OS_LIB/buddy.c **** 	return (const struct buddy *)os_buddy_ptr_head;
ARM GAS  G:\Users\Jaxb\AppData\Local\Temp\ccbV8Tbs.s 			page 2


  34:../../source/src/user/OS_LIB/buddy.c **** }
  35:../../source/src/user/OS_LIB/buddy.c **** 
  36:../../source/src/user/OS_LIB/buddy.c **** const struct buddy *get_next_buddy_ptr_head(const struct buddy *buddy_ptr)
  37:../../source/src/user/OS_LIB/buddy.c **** {
  38:../../source/src/user/OS_LIB/buddy.c **** 	if(NULL == buddy_ptr->next)
  39:../../source/src/user/OS_LIB/buddy.c **** 	{
  40:../../source/src/user/OS_LIB/buddy.c **** 		current_used_buddy_ptr = os_buddy_ptr_head;
  41:../../source/src/user/OS_LIB/buddy.c **** 		return NULL;
  42:../../source/src/user/OS_LIB/buddy.c **** 	}
  43:../../source/src/user/OS_LIB/buddy.c **** 	current_used_buddy_ptr = buddy_ptr->next;
  44:../../source/src/user/OS_LIB/buddy.c **** 	return (const struct buddy *)current_used_buddy_ptr;
  45:../../source/src/user/OS_LIB/buddy.c **** }
  46:../../source/src/user/OS_LIB/buddy.c **** 
  47:../../source/src/user/OS_LIB/buddy.c **** unsigned int get_current_buddy_space(void)
  48:../../source/src/user/OS_LIB/buddy.c **** {
  49:../../source/src/user/OS_LIB/buddy.c **** 	CPU_SR_ALLOC();
  50:../../source/src/user/OS_LIB/buddy.c **** 	CPU_CRITICAL_ENTER();
  51:../../source/src/user/OS_LIB/buddy.c **** 	unsigned int buffer = current_used_buddy_ptr->current_page_num;
  52:../../source/src/user/OS_LIB/buddy.c **** 	CPU_CRITICAL_EXIT();
  53:../../source/src/user/OS_LIB/buddy.c **** 	return buffer;
  54:../../source/src/user/OS_LIB/buddy.c **** }
  55:../../source/src/user/OS_LIB/buddy.c **** 
  56:../../source/src/user/OS_LIB/buddy.c **** static struct order_link *_alloc_order_link(void) //allocate a struct order_link entity
  57:../../source/src/user/OS_LIB/buddy.c **** {
  58:../../source/src/user/OS_LIB/buddy.c **** 	UINT16 buffer = current_used_buddy_ptr->order_link_first;
  59:../../source/src/user/OS_LIB/buddy.c **** 	if(NOTHING == buffer)
  60:../../source/src/user/OS_LIB/buddy.c **** 	{
  61:../../source/src/user/OS_LIB/buddy.c **** 		return NULL;
  62:../../source/src/user/OS_LIB/buddy.c **** 	}
  63:../../source/src/user/OS_LIB/buddy.c **** 	current_used_buddy_ptr->order_link_first = current_used_buddy_ptr->order_link_flag[buffer];
  64:../../source/src/user/OS_LIB/buddy.c **** 	current_used_buddy_ptr->order_link_flag[buffer] = NOTHING;
  65:../../source/src/user/OS_LIB/buddy.c **** 	return &current_used_buddy_ptr->link_body[buffer];
  66:../../source/src/user/OS_LIB/buddy.c **** }
  67:../../source/src/user/OS_LIB/buddy.c **** 
  68:../../source/src/user/OS_LIB/buddy.c **** //		this function allocate a struct order_link to store the page_num;
  69:../../source/src/user/OS_LIB/buddy.c **** // then, insert the struct order_link into corresponding level's order_array
  70:../../source/src/user/OS_LIB/buddy.c **** static void _add_to_order_array(unsigned int level,Page_Num_Type page_num)
  71:../../source/src/user/OS_LIB/buddy.c **** {
  25              		.loc 1 71 0
  26              		.cfi_startproc
  27              		@ args = 0, pretend = 0, frame = 0
  28              		@ frame_needed = 0, uses_anonymous_args = 0
  29              	.LVL0:
  30 0000 2DE9F041 		push	{r4, r5, r6, r7, r8, lr}
  31              	.LCFI0:
  32              		.cfi_def_cfa_offset 24
  33              		.cfi_offset 4, -24
  34              		.cfi_offset 5, -20
  35              		.cfi_offset 6, -16
  36              		.cfi_offset 7, -12
  37              		.cfi_offset 8, -8
  38              		.cfi_offset 14, -4
  39              		.loc 1 71 0
  40 0004 0E46     		mov	r6, r1
  72:../../source/src/user/OS_LIB/buddy.c **** 	ASSERT((level>=1)&&(level<=current_used_buddy_ptr->info.max_level));
  41              		.loc 1 72 0
  42 0006 0446     		mov	r4, r0
ARM GAS  G:\Users\Jaxb\AppData\Local\Temp\ccbV8Tbs.s 			page 3


  43 0008 2B4D     		ldr	r5, .L21
  44 000a 0028     		cmp	r0, #0
  45 000c 38D0     		beq	.L2
  46              		.loc 1 72 0 is_stmt 0 discriminator 1
  47 000e 2B68     		ldr	r3, [r5]
  48 0010 9B6A     		ldr	r3, [r3, #40]
  49 0012 8342     		cmp	r3, r0
  50 0014 34D3     		bcc	.L2
  51              	.LVL1:
  52              	.L3:
  73:../../source/src/user/OS_LIB/buddy.c **** 	ASSERT(0 == (((0x0001<<(level-1))-1) & page_num));
  53              		.loc 1 73 0 is_stmt 1
  54 0016 0123     		movs	r3, #1
  55 0018 621E     		subs	r2, r4, #1
  56 001a 9340     		lsls	r3, r3, r2
  57 001c 013B     		subs	r3, r3, #1
  58 001e 3342     		tst	r3, r6
  59 0020 44D1     		bne	.L19
  60              	.L4:
  61              	.LBB42:
  62              	.LBB43:
  59:../../source/src/user/OS_LIB/buddy.c **** 	{
  63              		.loc 1 59 0
  64 0022 4FF6FF71 		movw	r1, #65535
  65              	.LBE43:
  66              	.LBE42:
  74:../../source/src/user/OS_LIB/buddy.c **** 	UINT16 first = current_used_buddy_ptr->order_link_first;
  67              		.loc 1 74 0
  68 0026 2B68     		ldr	r3, [r5]
  69 0028 1F89     		ldrh	r7, [r3, #8]
  70              	.LVL2:
  71              	.LBB46:
  72              	.LBB44:
  59:../../source/src/user/OS_LIB/buddy.c **** 	{
  73              		.loc 1 59 0
  74 002a 8F42     		cmp	r7, r1
  75 002c 2DD0     		beq	.L6
  76              	.LVL3:
  63:../../source/src/user/OS_LIB/buddy.c **** 	current_used_buddy_ptr->order_link_flag[buffer] = NOTHING;
  77              		.loc 1 63 0
  78 002e D868     		ldr	r0, [r3, #12]
  65:../../source/src/user/OS_LIB/buddy.c **** }
  79              		.loc 1 65 0
  80 0030 5A68     		ldr	r2, [r3, #4]
  63:../../source/src/user/OS_LIB/buddy.c **** 	current_used_buddy_ptr->order_link_flag[buffer] = NOTHING;
  81              		.loc 1 63 0
  82 0032 30F817C0 		ldrh	ip, [r0, r7, lsl #1]
  83              	.LBE44:
  84              	.LBE46:
  75:../../source/src/user/OS_LIB/buddy.c **** 	struct order_link *order_link_ptr = _alloc_order_link();
  76:../../source/src/user/OS_LIB/buddy.c **** 	ASSERT(NULL != order_link_ptr);
  85              		.loc 1 76 0
  86 0036 12EB8708 		adds	r8, r2, r7, lsl #2
  87              	.LBB47:
  88              	.LBB45:
  63:../../source/src/user/OS_LIB/buddy.c **** 	current_used_buddy_ptr->order_link_flag[buffer] = NOTHING;
  89              		.loc 1 63 0
ARM GAS  G:\Users\Jaxb\AppData\Local\Temp\ccbV8Tbs.s 			page 4


  90 003a A3F808C0 		strh	ip, [r3, #8]	@ movhi
  64:../../source/src/user/OS_LIB/buddy.c **** 	return &current_used_buddy_ptr->link_body[buffer];
  91              		.loc 1 64 0
  92 003e 20F81710 		strh	r1, [r0, r7, lsl #1]	@ movhi
  93              	.LBE45:
  94              	.LBE47:
  95              		.loc 1 76 0
  96 0042 22D0     		beq	.L6
  77:../../source/src/user/OS_LIB/buddy.c **** 	order_link_ptr->num  = page_num;
  78:../../source/src/user/OS_LIB/buddy.c **** 	order_link_ptr->next = current_used_buddy_ptr->order_array[level-1];
  97              		.loc 1 78 0
  98 0044 1969     		ldr	r1, [r3, #16]
  99 0046 04F10044 		add	r4, r4, #-2147483648
 100              	.LVL4:
  77:../../source/src/user/OS_LIB/buddy.c **** 	order_link_ptr->num  = page_num;
 101              		.loc 1 77 0
 102 004a 22F82760 		strh	r6, [r2, r7, lsl #2]	@ movhi
  79:../../source/src/user/OS_LIB/buddy.c **** 	ASSERT(order_link_ptr->num <= current_used_buddy_ptr->info.page_num-1);
 103              		.loc 1 79 0
 104 004e 5A6A     		ldr	r2, [r3, #36]
  78:../../source/src/user/OS_LIB/buddy.c **** 	ASSERT(order_link_ptr->num <= current_used_buddy_ptr->info.page_num-1);
 105              		.loc 1 78 0
 106 0050 013C     		subs	r4, r4, #1
 107              	.LVL5:
 108 0052 31F81410 		ldrh	r1, [r1, r4, lsl #1]
 109              		.loc 1 79 0
 110 0056 013A     		subs	r2, r2, #1
 111 0058 9642     		cmp	r6, r2
  78:../../source/src/user/OS_LIB/buddy.c **** 	ASSERT(order_link_ptr->num <= current_used_buddy_ptr->info.page_num-1);
 112              		.loc 1 78 0
 113 005a A8F80210 		strh	r1, [r8, #2]	@ movhi
 114              		.loc 1 79 0
 115 005e 1BD8     		bhi	.L20
 116              	.L7:
  80:../../source/src/user/OS_LIB/buddy.c **** 	ASSERT((order_link_ptr->next <= current_used_buddy_ptr->info.page_num-1) || (NOTHING == order_link
 117              		.loc 1 80 0
 118 0060 9142     		cmp	r1, r2
 119 0062 08D9     		bls	.L8
 120              		.loc 1 80 0 is_stmt 0 discriminator 1
 121 0064 4FF6FF72 		movw	r2, #65535
 122 0068 9142     		cmp	r1, r2
 123 006a 04D0     		beq	.L8
 124              		.loc 1 80 0 discriminator 2
 125 006c 5021     		movs	r1, #80
 126 006e 1348     		ldr	r0, .L21+4
 127 0070 FFF7FEFF 		bl	_ASSERT
 128              	.LVL6:
 129 0074 2B68     		ldr	r3, [r5]
 130              	.L8:
  81:../../source/src/user/OS_LIB/buddy.c **** 	current_used_buddy_ptr->order_array[level-1] = first;
 131              		.loc 1 81 0 is_stmt 1
 132 0076 1B69     		ldr	r3, [r3, #16]
 133 0078 23F81470 		strh	r7, [r3, r4, lsl #1]	@ movhi
  82:../../source/src/user/OS_LIB/buddy.c **** }
 134              		.loc 1 82 0
 135 007c BDE8F081 		pop	{r4, r5, r6, r7, r8, pc}
 136              	.LVL7:
ARM GAS  G:\Users\Jaxb\AppData\Local\Temp\ccbV8Tbs.s 			page 5


 137              	.L2:
  72:../../source/src/user/OS_LIB/buddy.c **** 	ASSERT(0 == (((0x0001<<(level-1))-1) & page_num));
 138              		.loc 1 72 0 discriminator 3
 139 0080 4821     		movs	r1, #72
 140              	.LVL8:
 141 0082 0E48     		ldr	r0, .L21+4
 142              	.LVL9:
 143 0084 FFF7FEFF 		bl	_ASSERT
 144              	.LVL10:
 145 0088 C5E7     		b	.L3
 146              	.LVL11:
 147              	.L6:
  76:../../source/src/user/OS_LIB/buddy.c **** 	order_link_ptr->num  = page_num;
 148              		.loc 1 76 0
 149 008a 4C21     		movs	r1, #76
 150 008c 0B48     		ldr	r0, .L21+4
 151 008e FFF7FEFF 		bl	_ASSERT
 152              	.LVL12:
  77:../../source/src/user/OS_LIB/buddy.c **** 	order_link_ptr->next = current_used_buddy_ptr->order_array[level-1];
 153              		.loc 1 77 0
 154 0092 0023     		movs	r3, #0
 155 0094 1B80     		strh	r3, [r3]	@ movhi
 156 0096 FFDE     		.inst	0xdeff
 157              	.LVL13:
 158              	.L20:
  79:../../source/src/user/OS_LIB/buddy.c **** 	ASSERT((order_link_ptr->next <= current_used_buddy_ptr->info.page_num-1) || (NOTHING == order_link
 159              		.loc 1 79 0 discriminator 1
 160 0098 4F21     		movs	r1, #79
 161 009a 0848     		ldr	r0, .L21+4
 162 009c FFF7FEFF 		bl	_ASSERT
 163              	.LVL14:
 164 00a0 2B68     		ldr	r3, [r5]
 165 00a2 B8F80210 		ldrh	r1, [r8, #2]
 166 00a6 5A6A     		ldr	r2, [r3, #36]
 167 00a8 013A     		subs	r2, r2, #1
 168 00aa D9E7     		b	.L7
 169              	.LVL15:
 170              	.L19:
  73:../../source/src/user/OS_LIB/buddy.c **** 	UINT16 first = current_used_buddy_ptr->order_link_first;
 171              		.loc 1 73 0 discriminator 1
 172 00ac 4921     		movs	r1, #73
 173 00ae 0348     		ldr	r0, .L21+4
 174 00b0 FFF7FEFF 		bl	_ASSERT
 175              	.LVL16:
 176 00b4 B5E7     		b	.L4
 177              	.L22:
 178 00b6 00BF     		.align	2
 179              	.L21:
 180 00b8 00000000 		.word	.LANCHOR0
 181 00bc 00000000 		.word	.LC0
 182              		.cfi_endproc
 183              	.LFE9:
 184              		.size	_add_to_order_array, .-_add_to_order_array
 185              		.align	1
 186              		.p2align 2,,3
 187              		.syntax unified
 188              		.thumb
ARM GAS  G:\Users\Jaxb\AppData\Local\Temp\ccbV8Tbs.s 			page 6


 189              		.thumb_func
 190              		.fpu softvfp
 191              		.type	_deal_with_flag_alloc, %function
 192              	_deal_with_flag_alloc:
 193              	.LFB13:
  83:../../source/src/user/OS_LIB/buddy.c **** 
  84:../../source/src/user/OS_LIB/buddy.c **** static Page_Num_Type _buddy_page_num(unsigned int level,Page_Num_Type page_num)
  85:../../source/src/user/OS_LIB/buddy.c **** {
  86:../../source/src/user/OS_LIB/buddy.c **** 	ASSERT((level>=1)&&(level<=current_used_buddy_ptr->info.max_level));
  87:../../source/src/user/OS_LIB/buddy.c **** 	ASSERT(0 == (((0x0001<<(level-1))-1) & page_num));
  88:../../source/src/user/OS_LIB/buddy.c **** 	if(page_num & (0x0001<<(level-1))) //it's buddy is ahead of it
  89:../../source/src/user/OS_LIB/buddy.c **** 		return (page_num - sizeof_level(level));
  90:../../source/src/user/OS_LIB/buddy.c **** 	else 
  91:../../source/src/user/OS_LIB/buddy.c **** 		return (page_num + sizeof_level(level)); //it's buddy fall behind it
  92:../../source/src/user/OS_LIB/buddy.c **** }
  93:../../source/src/user/OS_LIB/buddy.c **** 
  94:../../source/src/user/OS_LIB/buddy.c **** static void _add_to_order_array_loop(unsigned int level,Page_Num_Type page_num)
  95:../../source/src/user/OS_LIB/buddy.c **** {
  96:../../source/src/user/OS_LIB/buddy.c **** 	//non - recursion
  97:../../source/src/user/OS_LIB/buddy.c **** 	unsigned int i;
  98:../../source/src/user/OS_LIB/buddy.c **** 	Page_Num_Type buddy_page_num;
  99:../../source/src/user/OS_LIB/buddy.c **** 	ASSERT((level>=1)&&(level<=current_used_buddy_ptr->info.max_level));
 100:../../source/src/user/OS_LIB/buddy.c **** 	ASSERT(0 == (((0x0001<<(level-1))-1) & page_num));
 101:../../source/src/user/OS_LIB/buddy.c **** 	for(i=level;i<=current_used_buddy_ptr->info.max_level;++i)
 102:../../source/src/user/OS_LIB/buddy.c **** 	{
 103:../../source/src/user/OS_LIB/buddy.c **** 		ASSERT((i<=current_used_buddy_ptr->info.max_level)&&(i>=1));
 104:../../source/src/user/OS_LIB/buddy.c **** 		ASSERT(0 == (page_num & ((0x0001<<(i-1))-1)));
 105:../../source/src/user/OS_LIB/buddy.c **** 		if(current_used_buddy_ptr->info.max_level == i) // if it is the max level, just insert it into ch
 106:../../source/src/user/OS_LIB/buddy.c **** 		{
 107:../../source/src/user/OS_LIB/buddy.c **** 			_add_to_order_array(i,page_num);
 108:../../source/src/user/OS_LIB/buddy.c **** 			break ;
 109:../../source/src/user/OS_LIB/buddy.c **** 		}
 110:../../source/src/user/OS_LIB/buddy.c **** 		else 
 111:../../source/src/user/OS_LIB/buddy.c **** 		{
 112:../../source/src/user/OS_LIB/buddy.c **** 			buddy_page_num = _buddy_page_num(i,page_num); // get it's buddy page's num
 113:../../source/src/user/OS_LIB/buddy.c **** 			if(0 == _check_flag(i,page_num)) // if flag is 0 , means it's buddy is in chain order_array[leve
 114:../../source/src/user/OS_LIB/buddy.c **** 			{
 115:../../source/src/user/OS_LIB/buddy.c **** 				ASSERT(0 == assert_in_chain(i,buddy_page_num)); //assert it's buddy is in chain "order_array"
 116:../../source/src/user/OS_LIB/buddy.c **** 				_delete_from_chain(i,buddy_page_num); // delete it's buddy from chain order_array[level] so tha
 117:../../source/src/user/OS_LIB/buddy.c **** 				if(page_num < buddy_page_num)
 118:../../source/src/user/OS_LIB/buddy.c **** 				{
 119:../../source/src/user/OS_LIB/buddy.c **** 					_deal_with_flag_alloc(i+1,page_num); // XOR the corresponding bit
 120:../../source/src/user/OS_LIB/buddy.c **** 					continue ;
 121:../../source/src/user/OS_LIB/buddy.c **** 				}
 122:../../source/src/user/OS_LIB/buddy.c **** 				else //if(page_num > buddy_page_num) 
 123:../../source/src/user/OS_LIB/buddy.c **** 				{
 124:../../source/src/user/OS_LIB/buddy.c **** 					_deal_with_flag_alloc(i+1,buddy_page_num); // XOR the corresponding bit
 125:../../source/src/user/OS_LIB/buddy.c **** 					page_num = buddy_page_num;
 126:../../source/src/user/OS_LIB/buddy.c **** 					continue ;
 127:../../source/src/user/OS_LIB/buddy.c **** 				}
 128:../../source/src/user/OS_LIB/buddy.c **** 			}
 129:../../source/src/user/OS_LIB/buddy.c **** 			else /*if(1 == _check_flag(i,page_num))*/  // if flag is not 0 , means it's buddy is in chain or
 130:../../source/src/user/OS_LIB/buddy.c **** 			{
 131:../../source/src/user/OS_LIB/buddy.c **** 				ASSERT(-1 == assert_in_chain(i,buddy_page_num));
 132:../../source/src/user/OS_LIB/buddy.c **** 				_add_to_order_array(i,page_num); // insert into chain order_array[level]
 133:../../source/src/user/OS_LIB/buddy.c **** 				break ;
 134:../../source/src/user/OS_LIB/buddy.c **** 			}
ARM GAS  G:\Users\Jaxb\AppData\Local\Temp\ccbV8Tbs.s 			page 7


 135:../../source/src/user/OS_LIB/buddy.c **** 		}
 136:../../source/src/user/OS_LIB/buddy.c **** 		
 137:../../source/src/user/OS_LIB/buddy.c **** 	}
 138:../../source/src/user/OS_LIB/buddy.c **** }
 139:../../source/src/user/OS_LIB/buddy.c **** 
 140:../../source/src/user/OS_LIB/buddy.c **** static inline void *_add_of_num(UINT16 page_num)
 141:../../source/src/user/OS_LIB/buddy.c **** {
 142:../../source/src/user/OS_LIB/buddy.c **** 	return (void *)(&current_used_buddy_ptr->buddy_space_start_ptr[page_num]);
 143:../../source/src/user/OS_LIB/buddy.c **** }
 144:../../source/src/user/OS_LIB/buddy.c **** 
 145:../../source/src/user/OS_LIB/buddy.c **** // XOR the corresponding bit
 146:../../source/src/user/OS_LIB/buddy.c **** static void _deal_with_flag_alloc(unsigned int level,Page_Num_Type page_num)
 147:../../source/src/user/OS_LIB/buddy.c **** {
 194              		.loc 1 147 0
 195              		.cfi_startproc
 196              		@ args = 0, pretend = 0, frame = 0
 197              		@ frame_needed = 0, uses_anonymous_args = 0
 198              	.LVL17:
 199 00c0 70B5     		push	{r4, r5, r6, lr}
 200              	.LCFI1:
 201              		.cfi_def_cfa_offset 16
 202              		.cfi_offset 4, -16
 203              		.cfi_offset 5, -12
 204              		.cfi_offset 6, -8
 205              		.cfi_offset 14, -4
 206              		.loc 1 147 0
 207 00c2 0D46     		mov	r5, r1
 148:../../source/src/user/OS_LIB/buddy.c **** 	ASSERT((level>=1)&&(level<=current_used_buddy_ptr->info.max_level));
 208              		.loc 1 148 0
 209 00c4 0446     		mov	r4, r0
 210 00c6 164E     		ldr	r6, .L33
 211 00c8 20B3     		cbz	r0, .L24
 212              		.loc 1 148 0 is_stmt 0 discriminator 1
 213 00ca 3368     		ldr	r3, [r6]
 214 00cc 9B6A     		ldr	r3, [r3, #40]
 215 00ce 8342     		cmp	r3, r0
 216 00d0 20D3     		bcc	.L24
 217              	.LVL18:
 218              	.L25:
 149:../../source/src/user/OS_LIB/buddy.c **** 	ASSERT(0 == (((0x0001<<(level-1))-1) & page_num));
 219              		.loc 1 149 0 is_stmt 1
 220 00d2 0123     		movs	r3, #1
 221 00d4 621E     		subs	r2, r4, #1
 222 00d6 9340     		lsls	r3, r3, r2
 223 00d8 013B     		subs	r3, r3, #1
 224 00da 2B42     		tst	r3, r5
 225 00dc 03D0     		beq	.L26
 226              		.loc 1 149 0 is_stmt 0 discriminator 1
 227 00de 9521     		movs	r1, #149
 228 00e0 1048     		ldr	r0, .L33+4
 229 00e2 FFF7FEFF 		bl	_ASSERT
 230              	.LVL19:
 231              	.L26:
 150:../../source/src/user/OS_LIB/buddy.c **** 	unsigned int index = page_num>>level;
 151:../../source/src/user/OS_LIB/buddy.c **** 	current_used_buddy_ptr->flag[(current_used_buddy_ptr->level_flag_base[level-1]+index)/(sizeof(Flag
 232              		.loc 1 151 0 is_stmt 1
 233 00e6 4FF00042 		mov	r2, #-2147483648
ARM GAS  G:\Users\Jaxb\AppData\Local\Temp\ccbV8Tbs.s 			page 8


 234 00ea 3068     		ldr	r0, [r6]
 235 00ec A318     		adds	r3, r4, r2
 236 00ee 4169     		ldr	r1, [r0, #20]
 237 00f0 013B     		subs	r3, r3, #1
 238 00f2 31F81310 		ldrh	r1, [r1, r3, lsl #1]
 150:../../source/src/user/OS_LIB/buddy.c **** 	unsigned int index = page_num>>level;
 239              		.loc 1 150 0
 240 00f6 45FA04F4 		asr	r4, r5, r4
 241              	.LVL20:
 242              		.loc 1 151 0
 243 00fa 2144     		add	r1, r1, r4
 244 00fc 0068     		ldr	r0, [r0]
 245 00fe 4C09     		lsrs	r4, r1, #5
 246              	.LVL21:
 247 0100 50F82430 		ldr	r3, [r0, r4, lsl #2]
 248              	.LVL22:
 249 0104 01F01F01 		and	r1, r1, #31
 250 0108 22FA01F1 		lsr	r1, r2, r1
 251 010c 4B40     		eors	r3, r3, r1
 252 010e 40F82430 		str	r3, [r0, r4, lsl #2]
 152:../../source/src/user/OS_LIB/buddy.c **** }
 253              		.loc 1 152 0
 254 0112 70BD     		pop	{r4, r5, r6, pc}
 255              	.LVL23:
 256              	.L24:
 148:../../source/src/user/OS_LIB/buddy.c **** 	ASSERT(0 == (((0x0001<<(level-1))-1) & page_num));
 257              		.loc 1 148 0 discriminator 3
 258 0114 9421     		movs	r1, #148
 259              	.LVL24:
 260 0116 0348     		ldr	r0, .L33+4
 261              	.LVL25:
 262 0118 FFF7FEFF 		bl	_ASSERT
 263              	.LVL26:
 264 011c D9E7     		b	.L25
 265              	.L34:
 266 011e 00BF     		.align	2
 267              	.L33:
 268 0120 00000000 		.word	.LANCHOR0
 269 0124 00000000 		.word	.LC0
 270              		.cfi_endproc
 271              	.LFE13:
 272              		.size	_deal_with_flag_alloc, .-_deal_with_flag_alloc
 273              		.align	1
 274              		.p2align 2,,3
 275              		.syntax unified
 276              		.thumb
 277              		.thumb_func
 278              		.fpu softvfp
 279              		.type	_alloc_page, %function
 280              	_alloc_page:
 281              	.LFB18:
 153:../../source/src/user/OS_LIB/buddy.c **** 
 154:../../source/src/user/OS_LIB/buddy.c **** static inline void _return_link_body(Page_Num_Type buffer) //return struct order_link "link_body[bu
 155:../../source/src/user/OS_LIB/buddy.c **** {
 156:../../source/src/user/OS_LIB/buddy.c **** 	ASSERT(buffer<=current_used_buddy_ptr->info.page_num-1);
 157:../../source/src/user/OS_LIB/buddy.c **** 	ASSERT(NOTHING == current_used_buddy_ptr->order_link_flag[buffer]);
 158:../../source/src/user/OS_LIB/buddy.c **** 	current_used_buddy_ptr->order_link_flag[buffer] = current_used_buddy_ptr->order_link_first;
ARM GAS  G:\Users\Jaxb\AppData\Local\Temp\ccbV8Tbs.s 			page 9


 159:../../source/src/user/OS_LIB/buddy.c **** 	current_used_buddy_ptr->order_link_first = buffer; //change list's head
 160:../../source/src/user/OS_LIB/buddy.c **** }
 161:../../source/src/user/OS_LIB/buddy.c **** 
 162:../../source/src/user/OS_LIB/buddy.c **** int in_buddy_range(void *ptr)
 163:../../source/src/user/OS_LIB/buddy.c **** {
 164:../../source/src/user/OS_LIB/buddy.c **** 	if(((unsigned int)ptr >= (unsigned int)current_used_buddy_ptr->buddy_space_start_ptr) 
 165:../../source/src/user/OS_LIB/buddy.c **** 			&& ((unsigned int)ptr < (unsigned int)current_used_buddy_ptr + current_used_buddy_ptr->info.page
 166:../../source/src/user/OS_LIB/buddy.c **** 	{
 167:../../source/src/user/OS_LIB/buddy.c **** 		return 0;
 168:../../source/src/user/OS_LIB/buddy.c **** 	}
 169:../../source/src/user/OS_LIB/buddy.c **** 	return -1;
 170:../../source/src/user/OS_LIB/buddy.c **** } 
 171:../../source/src/user/OS_LIB/buddy.c **** 
 172:../../source/src/user/OS_LIB/buddy.c **** static void add_to_os(struct buddy *buddy_ptr)
 173:../../source/src/user/OS_LIB/buddy.c **** {
 174:../../source/src/user/OS_LIB/buddy.c **** 	if(NULL == os_buddy_ptr_head)
 175:../../source/src/user/OS_LIB/buddy.c **** 	{
 176:../../source/src/user/OS_LIB/buddy.c **** 		os_buddy_ptr_head = buddy_ptr;
 177:../../source/src/user/OS_LIB/buddy.c **** 	}
 178:../../source/src/user/OS_LIB/buddy.c **** 	else if(os_buddy_ptr_head->info.prio > buddy_ptr->info.prio)
 179:../../source/src/user/OS_LIB/buddy.c **** 	{
 180:../../source/src/user/OS_LIB/buddy.c **** 		buddy_ptr->next = os_buddy_ptr_head;
 181:../../source/src/user/OS_LIB/buddy.c **** 		os_buddy_ptr_head = buddy_ptr;
 182:../../source/src/user/OS_LIB/buddy.c **** 	}
 183:../../source/src/user/OS_LIB/buddy.c **** 	else
 184:../../source/src/user/OS_LIB/buddy.c **** 	{
 185:../../source/src/user/OS_LIB/buddy.c **** 		struct buddy *buffer_ptr = os_buddy_ptr_head;
 186:../../source/src/user/OS_LIB/buddy.c **** 		while(NULL != buffer_ptr->next)
 187:../../source/src/user/OS_LIB/buddy.c **** 		{
 188:../../source/src/user/OS_LIB/buddy.c **** 			if(buffer_ptr->next->info.prio > buddy_ptr->info.prio)
 189:../../source/src/user/OS_LIB/buddy.c **** 			{
 190:../../source/src/user/OS_LIB/buddy.c **** 				buddy_ptr->next = buffer_ptr->next;
 191:../../source/src/user/OS_LIB/buddy.c **** 				buffer_ptr->next = buddy_ptr;
 192:../../source/src/user/OS_LIB/buddy.c **** 				return ;
 193:../../source/src/user/OS_LIB/buddy.c **** 			}
 194:../../source/src/user/OS_LIB/buddy.c **** 			buffer_ptr = buffer_ptr->next;
 195:../../source/src/user/OS_LIB/buddy.c **** 		}
 196:../../source/src/user/OS_LIB/buddy.c **** 		buffer_ptr->next = buddy_ptr;
 197:../../source/src/user/OS_LIB/buddy.c **** 	}
 198:../../source/src/user/OS_LIB/buddy.c **** }
 199:../../source/src/user/OS_LIB/buddy.c **** 
 200:../../source/src/user/OS_LIB/buddy.c **** /*
 201:../../source/src/user/OS_LIB/buddy.c **** *************************************
 202:../../source/src/user/OS_LIB/buddy.c **** *			memory map :
 203:../../source/src/user/OS_LIB/buddy.c **** *
 204:../../source/src/user/OS_LIB/buddy.c **** |-------------------------------|  low  <--memory start address
 205:../../source/src/user/OS_LIB/buddy.c **** |	struct buddy  				|	|
 206:../../source/src/user/OS_LIB/buddy.c **** |-------------------------------|	|
 207:../../source/src/user/OS_LIB/buddy.c **** |	flag[FLAG_ARRAY_NUM]		|	|
 208:../../source/src/user/OS_LIB/buddy.c **** |-------------------------------|	|
 209:../../source/src/user/OS_LIB/buddy.c **** |	link_body[PAGE_NUM]			|	|
 210:../../source/src/user/OS_LIB/buddy.c **** |-------------------------------|	|
 211:../../source/src/user/OS_LIB/buddy.c **** |	order_link_flag[PAGE_NUM]	|	|
 212:../../source/src/user/OS_LIB/buddy.c **** |-------------------------------|	|
 213:../../source/src/user/OS_LIB/buddy.c **** |	order_array[MAX_LEVEL]		|	|
 214:../../source/src/user/OS_LIB/buddy.c **** |-------------------------------|	|
 215:../../source/src/user/OS_LIB/buddy.c **** |		room					|	|
ARM GAS  G:\Users\Jaxb\AppData\Local\Temp\ccbV8Tbs.s 			page 10


 216:../../source/src/user/OS_LIB/buddy.c **** |		for 					|	|
 217:../../source/src/user/OS_LIB/buddy.c **** |	 allocation 				|	|
 218:../../source/src/user/OS_LIB/buddy.c **** |		 . 						|	|
 219:../../source/src/user/OS_LIB/buddy.c **** |		 .						|	|
 220:../../source/src/user/OS_LIB/buddy.c **** |		 .						|	V
 221:../../source/src/user/OS_LIB/buddy.c **** |-------------------------------|  high
 222:../../source/src/user/OS_LIB/buddy.c ****  */
 223:../../source/src/user/OS_LIB/buddy.c **** void buddy_init(const struct dev_mem_para *dev_mem_para_ptr)
 224:../../source/src/user/OS_LIB/buddy.c **** {
 225:../../source/src/user/OS_LIB/buddy.c **** 	unsigned int size;
 226:../../source/src/user/OS_LIB/buddy.c **** 	unsigned int i;
 227:../../source/src/user/OS_LIB/buddy.c **** 	unsigned int buffer;
 228:../../source/src/user/OS_LIB/buddy.c **** 	UINT32 size_sum = 0;
 229:../../source/src/user/OS_LIB/buddy.c **** 	struct buddy *buddy_ptr;
 230:../../source/src/user/OS_LIB/buddy.c **** 	if(1 != dev_mem_para_ptr->prio)
 231:../../source/src/user/OS_LIB/buddy.c **** 	{
 232:../../source/src/user/OS_LIB/buddy.c **** 	 	buddy_ptr = (struct buddy *)(dev_mem_para_ptr->start);
 233:../../source/src/user/OS_LIB/buddy.c **** 	}
 234:../../source/src/user/OS_LIB/buddy.c **** 	else
 235:../../source/src/user/OS_LIB/buddy.c **** 	{
 236:../../source/src/user/OS_LIB/buddy.c **** 		buddy_ptr = (struct buddy *)(&_ebss + 1);
 237:../../source/src/user/OS_LIB/buddy.c **** 	}
 238:../../source/src/user/OS_LIB/buddy.c **** 	current_used_buddy_ptr = buddy_ptr;
 239:../../source/src/user/OS_LIB/buddy.c **** //1.allocate room for flag[current_used_buddy_ptr->info.flag_array_num]
 240:../../source/src/user/OS_LIB/buddy.c **** 	buddy_ptr->flag = (Flag_Type *)((char *)buddy_ptr + sizeof(struct buddy));
 241:../../source/src/user/OS_LIB/buddy.c **** 	size = dev_mem_para_ptr->size / (PAGE_SIZE_KB * 8 * sizeof(Flag_Type));
 242:../../source/src/user/OS_LIB/buddy.c **** 	if(dev_mem_para_ptr->size % (PAGE_SIZE_KB * 8 * sizeof(Flag_Type)))
 243:../../source/src/user/OS_LIB/buddy.c **** 	{
 244:../../source/src/user/OS_LIB/buddy.c **** 		++size;
 245:../../source/src/user/OS_LIB/buddy.c **** 	}
 246:../../source/src/user/OS_LIB/buddy.c **** 	buddy_ptr->info.flag_array_num = size;
 247:../../source/src/user/OS_LIB/buddy.c **** 	size_sum += size*sizeof(Flag_Type);
 248:../../source/src/user/OS_LIB/buddy.c **** 	buddy_ptr->link_body = (struct order_link *)((char *)buddy_ptr->flag + size*sizeof(Flag_Type));
 249:../../source/src/user/OS_LIB/buddy.c **** //allocate room for link_body[current_used_buddy_ptr->info.page_num]
 250:../../source/src/user/OS_LIB/buddy.c **** 	size = dev_mem_para_ptr->size / PAGE_SIZE_KB;
 251:../../source/src/user/OS_LIB/buddy.c **** 	buddy_ptr->info.page_num = size;
 252:../../source/src/user/OS_LIB/buddy.c **** 	size_sum += size * sizeof(struct order_link);
 253:../../source/src/user/OS_LIB/buddy.c **** 	buddy_ptr->order_link_flag = (Page_Num_Type *)((char *)buddy_ptr->link_body + size * sizeof(struct
 254:../../source/src/user/OS_LIB/buddy.c **** //allocate room for order_link_flag[current_used_buddy_ptr->info.page_num]	
 255:../../source/src/user/OS_LIB/buddy.c **** 	size_sum += size * sizeof(Page_Num_Type);
 256:../../source/src/user/OS_LIB/buddy.c **** 	buddy_ptr->order_array = (Page_Num_Type *)((char *)buddy_ptr->order_link_flag + size * sizeof(Page
 257:../../source/src/user/OS_LIB/buddy.c **** //allocate room for order_array[current_used_buddy_ptr->info.max_level]	
 258:../../source/src/user/OS_LIB/buddy.c **** 	size = get_max_level(buddy_ptr->info.page_num);
 259:../../source/src/user/OS_LIB/buddy.c **** 	buddy_ptr->info.max_level = size;
 260:../../source/src/user/OS_LIB/buddy.c **** 	size_sum += size * sizeof(Page_Num_Type);
 261:../../source/src/user/OS_LIB/buddy.c **** 	buddy_ptr->level_flag_base = (UINT16 *)((char *)buddy_ptr->order_array + size * sizeof(Page_Num_Ty
 262:../../source/src/user/OS_LIB/buddy.c **** //allocate room for level_flag_base[buddy_ptr->info.level_flag_base_size]
 263:../../source/src/user/OS_LIB/buddy.c **** 	size = buddy_ptr->info.max_level;
 264:../../source/src/user/OS_LIB/buddy.c **** 
 265:../../source/src/user/OS_LIB/buddy.c **** 	buddy_ptr->info.level_flag_base_size = size;
 266:../../source/src/user/OS_LIB/buddy.c **** 	size_sum += size * sizeof(UINT16);
 267:../../source/src/user/OS_LIB/buddy.c **** 	buddy_ptr->buddy_struct_size = size_sum;
 268:../../source/src/user/OS_LIB/buddy.c **** 	buddy_ptr->current_page_num = dev_mem_para_ptr->size / PAGE_SIZE_KB;
 269:../../source/src/user/OS_LIB/buddy.c **** 	buddy_ptr->buddy_space_start_ptr = (Buddy_Space_Type *)(dev_mem_para_ptr->start);
 270:../../source/src/user/OS_LIB/buddy.c **** 	buddy_ptr->next = NULL;
 271:../../source/src/user/OS_LIB/buddy.c **** 	buddy_ptr->info.prio = dev_mem_para_ptr->prio;
 272:../../source/src/user/OS_LIB/buddy.c **** //init the data
ARM GAS  G:\Users\Jaxb\AppData\Local\Temp\ccbV8Tbs.s 			page 11


 273:../../source/src/user/OS_LIB/buddy.c **** 	for(i=0;i<buddy_ptr->info.flag_array_num;++i)
 274:../../source/src/user/OS_LIB/buddy.c **** 		buddy_ptr->flag[i] = 0;
 275:../../source/src/user/OS_LIB/buddy.c **** 
 276:../../source/src/user/OS_LIB/buddy.c **** 	buddy_ptr->order_link_first = 0;
 277:../../source/src/user/OS_LIB/buddy.c **** 
 278:../../source/src/user/OS_LIB/buddy.c **** 	for(i=0;i<buddy_ptr->info.page_num-1;++i)
 279:../../source/src/user/OS_LIB/buddy.c **** 		buddy_ptr->order_link_flag[i] = i+1;
 280:../../source/src/user/OS_LIB/buddy.c **** 	buddy_ptr->order_link_flag[i] = NOTHING;
 281:../../source/src/user/OS_LIB/buddy.c **** 
 282:../../source/src/user/OS_LIB/buddy.c **** 	for(i=0;i<buddy_ptr->info.max_level;++i)
 283:../../source/src/user/OS_LIB/buddy.c **** 		buddy_ptr->order_array[i] = NOTHING;
 284:../../source/src/user/OS_LIB/buddy.c **** 
 285:../../source/src/user/OS_LIB/buddy.c **** 	buffer = ka_pow(2,buddy_ptr->info.max_level - 1);
 286:../../source/src/user/OS_LIB/buddy.c **** 	buddy_ptr->level_flag_base[0] = 0;
 287:../../source/src/user/OS_LIB/buddy.c **** 	for(i=1;i<buddy_ptr->info.level_flag_base_size;++i,buffer/=2)
 288:../../source/src/user/OS_LIB/buddy.c **** 		buddy_ptr->level_flag_base[i] = buddy_ptr->level_flag_base[i-1] + buffer;
 289:../../source/src/user/OS_LIB/buddy.c **** //set the order_array[current_used_buddy_ptr->info.max_level],and then allocate a room for struct b
 290:../../source/src/user/OS_LIB/buddy.c **** //first deal with the max level
 291:../../source/src/user/OS_LIB/buddy.c **** 	_add_to_order_array(buddy_ptr->info.max_level,sizeof_level(buddy_ptr->info.max_level));
 292:../../source/src/user/OS_LIB/buddy.c **** 	_add_to_order_array(buddy_ptr->info.max_level,0);
 293:../../source/src/user/OS_LIB/buddy.c **** //mark the space used by struct buddy
 294:../../source/src/user/OS_LIB/buddy.c **** 	size = (unsigned int)buddy_ptr - (unsigned int)dev_mem_para_ptr->start + buddy_ptr->buddy_struct_s
 295:../../source/src/user/OS_LIB/buddy.c **** 	PRINTF("space used by os is %d\n",size);
 296:../../source/src/user/OS_LIB/buddy.c **** 	if(size % PAGE_SIZE_BYTE)
 297:../../source/src/user/OS_LIB/buddy.c **** 	{
 298:../../source/src/user/OS_LIB/buddy.c **** 		size = size/PAGE_SIZE_BYTE + 1;
 299:../../source/src/user/OS_LIB/buddy.c **** 	}
 300:../../source/src/user/OS_LIB/buddy.c **** 	else
 301:../../source/src/user/OS_LIB/buddy.c **** 	{
 302:../../source/src/user/OS_LIB/buddy.c **** 		size /= PAGE_SIZE_BYTE;
 303:../../source/src/user/OS_LIB/buddy.c **** 	}
 304:../../source/src/user/OS_LIB/buddy.c **** 	for(i=0;i<current_used_buddy_ptr->info.max_level;++i)
 305:../../source/src/user/OS_LIB/buddy.c **** 	{
 306:../../source/src/user/OS_LIB/buddy.c **** 		if(((0x01u)<<i) >= size)
 307:../../source/src/user/OS_LIB/buddy.c **** 		{
 308:../../source/src/user/OS_LIB/buddy.c **** 			PRINTF("allocate level %d\n",i+1);
 309:../../source/src/user/OS_LIB/buddy.c **** 			_alloc_page(i+1);
 310:../../source/src/user/OS_LIB/buddy.c **** 			current_used_buddy_ptr->current_page_num -= 0x01<<i;
 311:../../source/src/user/OS_LIB/buddy.c **** 			goto final_step;
 312:../../source/src/user/OS_LIB/buddy.c **** 		}
 313:../../source/src/user/OS_LIB/buddy.c **** 	}
 314:../../source/src/user/OS_LIB/buddy.c **** 	ASSERT(0);//allocation fail
 315:../../source/src/user/OS_LIB/buddy.c **** final_step:
 316:../../source/src/user/OS_LIB/buddy.c **** //add the struct buddy to OS
 317:../../source/src/user/OS_LIB/buddy.c **** 	add_to_os(buddy_ptr);
 318:../../source/src/user/OS_LIB/buddy.c **** }
 319:../../source/src/user/OS_LIB/buddy.c **** 
 320:../../source/src/user/OS_LIB/buddy.c **** //  if allocation success,get a page num,which scope is 0 to 1023
 321:../../source/src/user/OS_LIB/buddy.c **** //  else, get NOTHING
 322:../../source/src/user/OS_LIB/buddy.c **** static Page_Num_Type _alloc_page(unsigned int level)
 323:../../source/src/user/OS_LIB/buddy.c **** {
 282              		.loc 1 323 0
 283              		.cfi_startproc
 284              		@ args = 0, pretend = 0, frame = 0
 285              		@ frame_needed = 0, uses_anonymous_args = 0
 286              	.LVL27:
 287 0128 2DE9F041 		push	{r4, r5, r6, r7, r8, lr}
ARM GAS  G:\Users\Jaxb\AppData\Local\Temp\ccbV8Tbs.s 			page 12


 288              	.LCFI2:
 289              		.cfi_def_cfa_offset 24
 290              		.cfi_offset 4, -24
 291              		.cfi_offset 5, -20
 292              		.cfi_offset 6, -16
 293              		.cfi_offset 7, -12
 294              		.cfi_offset 8, -8
 295              		.cfi_offset 14, -4
 324:../../source/src/user/OS_LIB/buddy.c **** 	ASSERT((level>=1)&&(level<=current_used_buddy_ptr->info.max_level));
 296              		.loc 1 324 0
 297 012c 0546     		mov	r5, r0
 298 012e 2D4F     		ldr	r7, .L50
 299 0130 A0B1     		cbz	r0, .L36
 300              		.loc 1 324 0 is_stmt 0 discriminator 1
 301 0132 3B68     		ldr	r3, [r7]
 302 0134 9A6A     		ldr	r2, [r3, #40]
 303 0136 8242     		cmp	r2, r0
 304 0138 10D3     		bcc	.L36
 305              	.LVL28:
 306              	.L37:
 325:../../source/src/user/OS_LIB/buddy.c **** 	Page_Num_Type buffer;
 326:../../source/src/user/OS_LIB/buddy.c **** 	if(NOTHING != current_used_buddy_ptr->order_array[level-1]) //if this level has free page
 307              		.loc 1 326 0 is_stmt 1
 308 013a 4FF6FF70 		movw	r0, #65535
 309 013e 05F10042 		add	r2, r5, #-2147483648
 310 0142 1969     		ldr	r1, [r3, #16]
 311 0144 013A     		subs	r2, r2, #1
 312 0146 31F81240 		ldrh	r4, [r1, r2, lsl #1]
 313 014a 8442     		cmp	r4, r0
 314 014c 1CD1     		bne	.L48
 327:../../source/src/user/OS_LIB/buddy.c **** 	{
 328:../../source/src/user/OS_LIB/buddy.c **** 		Page_Num_Type index = current_used_buddy_ptr->order_array[level-1];
 329:../../source/src/user/OS_LIB/buddy.c **** 		buffer = current_used_buddy_ptr->link_body[index].num;
 330:../../source/src/user/OS_LIB/buddy.c **** 		current_used_buddy_ptr->order_array[level-1] = current_used_buddy_ptr->link_body[index].next;
 331:../../source/src/user/OS_LIB/buddy.c **** 		_return_link_body(index);
 332:../../source/src/user/OS_LIB/buddy.c **** 	}
 333:../../source/src/user/OS_LIB/buddy.c **** 	else //if this level doesn't have free page
 334:../../source/src/user/OS_LIB/buddy.c **** 	{
 335:../../source/src/user/OS_LIB/buddy.c **** 		if(current_used_buddy_ptr->info.max_level == level)
 315              		.loc 1 335 0
 316 014e 9B6A     		ldr	r3, [r3, #40]
 317 0150 AB42     		cmp	r3, r5
 318 0152 0AD1     		bne	.L42
 319              	.L44:
 336:../../source/src/user/OS_LIB/buddy.c **** 		{
 337:../../source/src/user/OS_LIB/buddy.c **** 			return NOTHING;
 320              		.loc 1 337 0
 321 0154 2646     		mov	r6, r4
 338:../../source/src/user/OS_LIB/buddy.c **** 		}
 339:../../source/src/user/OS_LIB/buddy.c **** 		buffer = _alloc_page(level+1); //get a free page from the higher level 
 340:../../source/src/user/OS_LIB/buddy.c **** 		if(NOTHING == buffer)
 341:../../source/src/user/OS_LIB/buddy.c **** 		{
 342:../../source/src/user/OS_LIB/buddy.c **** 			return NOTHING;
 343:../../source/src/user/OS_LIB/buddy.c **** 		}
 344:../../source/src/user/OS_LIB/buddy.c **** 		_add_to_order_array(level,buffer+sizeof_level(level)); // add the second half of the block to pre
 345:../../source/src/user/OS_LIB/buddy.c **** 	}
 346:../../source/src/user/OS_LIB/buddy.c **** 	_deal_with_flag_alloc(level,buffer); // XOR the corresponding bit
ARM GAS  G:\Users\Jaxb\AppData\Local\Temp\ccbV8Tbs.s 			page 13


 347:../../source/src/user/OS_LIB/buddy.c **** 	return buffer;
 348:../../source/src/user/OS_LIB/buddy.c **** }
 322              		.loc 1 348 0
 323 0156 3046     		mov	r0, r6
 324 0158 BDE8F081 		pop	{r4, r5, r6, r7, r8, pc}
 325              	.LVL29:
 326              	.L36:
 324:../../source/src/user/OS_LIB/buddy.c **** 	Page_Num_Type buffer;
 327              		.loc 1 324 0 discriminator 3
 328 015c 4FF4A271 		mov	r1, #324
 329 0160 2148     		ldr	r0, .L50+4
 330              	.LVL30:
 331 0162 FFF7FEFF 		bl	_ASSERT
 332              	.LVL31:
 333 0166 3B68     		ldr	r3, [r7]
 334 0168 E7E7     		b	.L37
 335              	.L42:
 339:../../source/src/user/OS_LIB/buddy.c **** 		if(NOTHING == buffer)
 336              		.loc 1 339 0
 337 016a 681C     		adds	r0, r5, #1
 338 016c FFF7DCFF 		bl	_alloc_page
 339              	.LVL32:
 340:../../source/src/user/OS_LIB/buddy.c **** 		{
 340              		.loc 1 340 0
 341 0170 A042     		cmp	r0, r4
 339:../../source/src/user/OS_LIB/buddy.c **** 		if(NOTHING == buffer)
 342              		.loc 1 339 0
 343 0172 0646     		mov	r6, r0
 344              	.LVL33:
 340:../../source/src/user/OS_LIB/buddy.c **** 		{
 345              		.loc 1 340 0
 346 0174 EED0     		beq	.L44
 344:../../source/src/user/OS_LIB/buddy.c **** 	}
 347              		.loc 1 344 0
 348 0176 0121     		movs	r1, #1
 349 0178 6B1E     		subs	r3, r5, #1
 350 017a 9940     		lsls	r1, r1, r3
 351 017c 0144     		add	r1, r1, r0
 352 017e 89B2     		uxth	r1, r1
 353 0180 2846     		mov	r0, r5
 354              	.LVL34:
 355 0182 FFF73DFF 		bl	_add_to_order_array
 356              	.LVL35:
 357 0186 20E0     		b	.L41
 358              	.L48:
 359              	.LVL36:
 360              	.LBB51:
 329:../../source/src/user/OS_LIB/buddy.c **** 		current_used_buddy_ptr->order_array[level-1] = current_used_buddy_ptr->link_body[index].next;
 361              		.loc 1 329 0
 362 0188 5E68     		ldr	r6, [r3, #4]
 363              	.LBB52:
 364              	.LBB53:
 156:../../source/src/user/OS_LIB/buddy.c **** 	ASSERT(NOTHING == current_used_buddy_ptr->order_link_flag[buffer]);
 365              		.loc 1 156 0
 366 018a 586A     		ldr	r0, [r3, #36]
 367              	.LBE53:
 368              	.LBE52:
ARM GAS  G:\Users\Jaxb\AppData\Local\Temp\ccbV8Tbs.s 			page 14


 329:../../source/src/user/OS_LIB/buddy.c **** 		current_used_buddy_ptr->order_array[level-1] = current_used_buddy_ptr->link_body[index].next;
 369              		.loc 1 329 0
 370 018c 06EB840C 		add	ip, r6, r4, lsl #2
 330:../../source/src/user/OS_LIB/buddy.c **** 		_return_link_body(index);
 371              		.loc 1 330 0
 372 0190 BCF802C0 		ldrh	ip, [ip, #2]
 373              	.LBB57:
 374              	.LBB54:
 156:../../source/src/user/OS_LIB/buddy.c **** 	ASSERT(NOTHING == current_used_buddy_ptr->order_link_flag[buffer]);
 375              		.loc 1 156 0
 376 0194 0138     		subs	r0, r0, #1
 377 0196 8442     		cmp	r4, r0
 378              	.LBE54:
 379              	.LBE57:
 329:../../source/src/user/OS_LIB/buddy.c **** 		current_used_buddy_ptr->order_array[level-1] = current_used_buddy_ptr->link_body[index].next;
 380              		.loc 1 329 0
 381 0198 36F82460 		ldrh	r6, [r6, r4, lsl #2]
 382              	.LVL37:
 330:../../source/src/user/OS_LIB/buddy.c **** 		_return_link_body(index);
 383              		.loc 1 330 0
 384 019c 21F812C0 		strh	ip, [r1, r2, lsl #1]	@ movhi
 385              	.LVL38:
 386              	.LBB58:
 387              	.LBB55:
 156:../../source/src/user/OS_LIB/buddy.c **** 	ASSERT(NOTHING == current_used_buddy_ptr->order_link_flag[buffer]);
 388              		.loc 1 156 0
 389 01a0 1AD8     		bhi	.L49
 390              	.L39:
 157:../../source/src/user/OS_LIB/buddy.c **** 	current_used_buddy_ptr->order_link_flag[buffer] = current_used_buddy_ptr->order_link_first;
 391              		.loc 1 157 0
 392 01a2 4FF6FF71 		movw	r1, #65535
 393 01a6 DA68     		ldr	r2, [r3, #12]
 394 01a8 4FEA4408 		lsl	r8, r4, #1
 395 01ac 32F81400 		ldrh	r0, [r2, r4, lsl #1]
 396 01b0 4244     		add	r2, r2, r8
 397 01b2 8842     		cmp	r0, r1
 398 01b4 06D0     		beq	.L40
 399 01b6 9D21     		movs	r1, #157
 400 01b8 0B48     		ldr	r0, .L50+4
 401 01ba FFF7FEFF 		bl	_ASSERT
 402              	.LVL39:
 403 01be 3B68     		ldr	r3, [r7]
 404 01c0 DA68     		ldr	r2, [r3, #12]
 405 01c2 4244     		add	r2, r2, r8
 406              	.L40:
 158:../../source/src/user/OS_LIB/buddy.c **** 	current_used_buddy_ptr->order_link_first = buffer; //change list's head
 407              		.loc 1 158 0
 408 01c4 1989     		ldrh	r1, [r3, #8]
 409 01c6 1180     		strh	r1, [r2]	@ movhi
 159:../../source/src/user/OS_LIB/buddy.c **** }
 410              		.loc 1 159 0
 411 01c8 1C81     		strh	r4, [r3, #8]	@ movhi
 412              	.LVL40:
 413              	.L41:
 414              	.LBE55:
 415              	.LBE58:
 416              	.LBE51:
ARM GAS  G:\Users\Jaxb\AppData\Local\Temp\ccbV8Tbs.s 			page 15


 346:../../source/src/user/OS_LIB/buddy.c **** 	return buffer;
 417              		.loc 1 346 0
 418 01ca 2846     		mov	r0, r5
 419 01cc 3146     		mov	r1, r6
 420 01ce FFF777FF 		bl	_deal_with_flag_alloc
 421              	.LVL41:
 422              		.loc 1 348 0
 423 01d2 3046     		mov	r0, r6
 424 01d4 BDE8F081 		pop	{r4, r5, r6, r7, r8, pc}
 425              	.LVL42:
 426              	.L49:
 427              	.LBB60:
 428              	.LBB59:
 429              	.LBB56:
 156:../../source/src/user/OS_LIB/buddy.c **** 	ASSERT(NOTHING == current_used_buddy_ptr->order_link_flag[buffer]);
 430              		.loc 1 156 0
 431 01d8 9C21     		movs	r1, #156
 432 01da 0348     		ldr	r0, .L50+4
 433 01dc FFF7FEFF 		bl	_ASSERT
 434              	.LVL43:
 435 01e0 3B68     		ldr	r3, [r7]
 436 01e2 DEE7     		b	.L39
 437              	.L51:
 438              		.align	2
 439              	.L50:
 440 01e4 00000000 		.word	.LANCHOR0
 441 01e8 00000000 		.word	.LC0
 442              	.LBE56:
 443              	.LBE59:
 444              	.LBE60:
 445              		.cfi_endproc
 446              	.LFE18:
 447              		.size	_alloc_page, .-_alloc_page
 448              		.align	1
 449              		.p2align 2,,3
 450              		.syntax unified
 451              		.thumb
 452              		.thumb_func
 453              		.fpu softvfp
 454              		.type	_return_page, %function
 455              	_return_page:
 456              	.LFB33:
 349:../../source/src/user/OS_LIB/buddy.c **** 
 350:../../source/src/user/OS_LIB/buddy.c **** //get 1 page
 351:../../source/src/user/OS_LIB/buddy.c **** void *alloc_power1_page(void)
 352:../../source/src/user/OS_LIB/buddy.c **** {
 353:../../source/src/user/OS_LIB/buddy.c **** 	CPU_SR_ALLOC();
 354:../../source/src/user/OS_LIB/buddy.c **** 	CPU_CRITICAL_ENTER();
 355:../../source/src/user/OS_LIB/buddy.c **** 	Page_Num_Type num = _alloc_page(1);
 356:../../source/src/user/OS_LIB/buddy.c **** 	if(NOTHING != num)
 357:../../source/src/user/OS_LIB/buddy.c **** 	{
 358:../../source/src/user/OS_LIB/buddy.c **** 		// decrease the space of this buddy
 359:../../source/src/user/OS_LIB/buddy.c **** 		current_used_buddy_ptr->current_page_num -= PAGE_SIZE_KB;
 360:../../source/src/user/OS_LIB/buddy.c **** 		CPU_CRITICAL_EXIT();
 361:../../source/src/user/OS_LIB/buddy.c **** 		return _add_of_num(num);
 362:../../source/src/user/OS_LIB/buddy.c **** 	}
 363:../../source/src/user/OS_LIB/buddy.c **** 	CPU_CRITICAL_EXIT();
ARM GAS  G:\Users\Jaxb\AppData\Local\Temp\ccbV8Tbs.s 			page 16


 364:../../source/src/user/OS_LIB/buddy.c **** 	return NULL;
 365:../../source/src/user/OS_LIB/buddy.c **** }
 366:../../source/src/user/OS_LIB/buddy.c **** 
 367:../../source/src/user/OS_LIB/buddy.c **** void *alloc_power2_page(void)
 368:../../source/src/user/OS_LIB/buddy.c **** {
 369:../../source/src/user/OS_LIB/buddy.c **** 	CPU_SR_ALLOC();
 370:../../source/src/user/OS_LIB/buddy.c **** 	CPU_CRITICAL_ENTER();
 371:../../source/src/user/OS_LIB/buddy.c **** 	Page_Num_Type num = _alloc_page(2);
 372:../../source/src/user/OS_LIB/buddy.c **** 	if(NOTHING != num)
 373:../../source/src/user/OS_LIB/buddy.c **** 	{
 374:../../source/src/user/OS_LIB/buddy.c **** 		// decrease the space of this buddy
 375:../../source/src/user/OS_LIB/buddy.c **** 		current_used_buddy_ptr->current_page_num -= 2 * PAGE_SIZE_KB;
 376:../../source/src/user/OS_LIB/buddy.c **** 		CPU_CRITICAL_EXIT();
 377:../../source/src/user/OS_LIB/buddy.c **** 		return _add_of_num(num);
 378:../../source/src/user/OS_LIB/buddy.c **** 	}
 379:../../source/src/user/OS_LIB/buddy.c **** 	CPU_CRITICAL_EXIT();
 380:../../source/src/user/OS_LIB/buddy.c **** 	return NULL;
 381:../../source/src/user/OS_LIB/buddy.c **** }
 382:../../source/src/user/OS_LIB/buddy.c **** 
 383:../../source/src/user/OS_LIB/buddy.c **** void *alloc_power3_page(void)
 384:../../source/src/user/OS_LIB/buddy.c **** {
 385:../../source/src/user/OS_LIB/buddy.c **** 	CPU_SR_ALLOC();
 386:../../source/src/user/OS_LIB/buddy.c **** 	CPU_CRITICAL_ENTER();
 387:../../source/src/user/OS_LIB/buddy.c **** 	Page_Num_Type num = _alloc_page(3);
 388:../../source/src/user/OS_LIB/buddy.c **** 	if(NOTHING != num)
 389:../../source/src/user/OS_LIB/buddy.c **** 	{
 390:../../source/src/user/OS_LIB/buddy.c **** 		// decrease the space of this buddy
 391:../../source/src/user/OS_LIB/buddy.c **** 		current_used_buddy_ptr->current_page_num -= 4 * PAGE_SIZE_KB;
 392:../../source/src/user/OS_LIB/buddy.c **** 		CPU_CRITICAL_EXIT();
 393:../../source/src/user/OS_LIB/buddy.c **** 		return _add_of_num(num);
 394:../../source/src/user/OS_LIB/buddy.c **** 	}
 395:../../source/src/user/OS_LIB/buddy.c **** 	CPU_CRITICAL_EXIT();
 396:../../source/src/user/OS_LIB/buddy.c **** 	return NULL;
 397:../../source/src/user/OS_LIB/buddy.c **** }
 398:../../source/src/user/OS_LIB/buddy.c **** 
 399:../../source/src/user/OS_LIB/buddy.c **** void *alloc_power4_page(void)
 400:../../source/src/user/OS_LIB/buddy.c **** {
 401:../../source/src/user/OS_LIB/buddy.c **** 	CPU_SR_ALLOC();
 402:../../source/src/user/OS_LIB/buddy.c **** 	CPU_CRITICAL_ENTER();
 403:../../source/src/user/OS_LIB/buddy.c **** 	Page_Num_Type num = _alloc_page(4);
 404:../../source/src/user/OS_LIB/buddy.c **** 	if(NOTHING != num)
 405:../../source/src/user/OS_LIB/buddy.c **** 	{
 406:../../source/src/user/OS_LIB/buddy.c **** 		// decrease the space of this buddy
 407:../../source/src/user/OS_LIB/buddy.c **** 		current_used_buddy_ptr->current_page_num -= 8 * PAGE_SIZE_KB;
 408:../../source/src/user/OS_LIB/buddy.c **** 		CPU_CRITICAL_EXIT();
 409:../../source/src/user/OS_LIB/buddy.c **** 		return _add_of_num(num);
 410:../../source/src/user/OS_LIB/buddy.c **** 	}
 411:../../source/src/user/OS_LIB/buddy.c **** 	CPU_CRITICAL_EXIT();
 412:../../source/src/user/OS_LIB/buddy.c **** 	return NULL;
 413:../../source/src/user/OS_LIB/buddy.c **** }
 414:../../source/src/user/OS_LIB/buddy.c **** 
 415:../../source/src/user/OS_LIB/buddy.c **** void *alloc_power5_page(void)
 416:../../source/src/user/OS_LIB/buddy.c **** {
 417:../../source/src/user/OS_LIB/buddy.c **** 	CPU_SR_ALLOC();
 418:../../source/src/user/OS_LIB/buddy.c **** 	CPU_CRITICAL_ENTER();
 419:../../source/src/user/OS_LIB/buddy.c **** 	Page_Num_Type num = _alloc_page(5);
 420:../../source/src/user/OS_LIB/buddy.c **** 	if(NOTHING != num)
ARM GAS  G:\Users\Jaxb\AppData\Local\Temp\ccbV8Tbs.s 			page 17


 421:../../source/src/user/OS_LIB/buddy.c **** 	{
 422:../../source/src/user/OS_LIB/buddy.c **** 		// decrease the space of this buddy
 423:../../source/src/user/OS_LIB/buddy.c **** 		current_used_buddy_ptr->current_page_num -= 16 * PAGE_SIZE_KB;
 424:../../source/src/user/OS_LIB/buddy.c **** 		CPU_CRITICAL_EXIT();
 425:../../source/src/user/OS_LIB/buddy.c **** 		return _add_of_num(num);
 426:../../source/src/user/OS_LIB/buddy.c **** 	}
 427:../../source/src/user/OS_LIB/buddy.c **** 	CPU_CRITICAL_EXIT();
 428:../../source/src/user/OS_LIB/buddy.c **** 	return NULL;
 429:../../source/src/user/OS_LIB/buddy.c **** }
 430:../../source/src/user/OS_LIB/buddy.c **** 
 431:../../source/src/user/OS_LIB/buddy.c **** void *alloc_power6_page(void)
 432:../../source/src/user/OS_LIB/buddy.c **** {
 433:../../source/src/user/OS_LIB/buddy.c **** 	CPU_SR_ALLOC();
 434:../../source/src/user/OS_LIB/buddy.c **** 	CPU_CRITICAL_ENTER();
 435:../../source/src/user/OS_LIB/buddy.c **** 	Page_Num_Type num = _alloc_page(6);
 436:../../source/src/user/OS_LIB/buddy.c **** 	if(NOTHING != num)
 437:../../source/src/user/OS_LIB/buddy.c **** 	{
 438:../../source/src/user/OS_LIB/buddy.c **** 		// decrease the space of this buddy
 439:../../source/src/user/OS_LIB/buddy.c **** 		current_used_buddy_ptr->current_page_num -= 32 * PAGE_SIZE_KB;
 440:../../source/src/user/OS_LIB/buddy.c **** 		CPU_CRITICAL_EXIT();
 441:../../source/src/user/OS_LIB/buddy.c **** 		return _add_of_num(num);
 442:../../source/src/user/OS_LIB/buddy.c **** 	}
 443:../../source/src/user/OS_LIB/buddy.c **** 	CPU_CRITICAL_EXIT();
 444:../../source/src/user/OS_LIB/buddy.c **** 	return NULL;
 445:../../source/src/user/OS_LIB/buddy.c **** }
 446:../../source/src/user/OS_LIB/buddy.c **** 
 447:../../source/src/user/OS_LIB/buddy.c **** void *alloc_power7_page(void)
 448:../../source/src/user/OS_LIB/buddy.c **** {
 449:../../source/src/user/OS_LIB/buddy.c **** 	CPU_SR_ALLOC();
 450:../../source/src/user/OS_LIB/buddy.c **** 	CPU_CRITICAL_ENTER();
 451:../../source/src/user/OS_LIB/buddy.c **** 	Page_Num_Type num = _alloc_page(7);
 452:../../source/src/user/OS_LIB/buddy.c **** 	if(NOTHING != num)
 453:../../source/src/user/OS_LIB/buddy.c **** 	{
 454:../../source/src/user/OS_LIB/buddy.c **** 		// decrease the space of this buddy
 455:../../source/src/user/OS_LIB/buddy.c **** 		current_used_buddy_ptr->current_page_num -= 64 * PAGE_SIZE_KB;
 456:../../source/src/user/OS_LIB/buddy.c **** 		CPU_CRITICAL_EXIT();
 457:../../source/src/user/OS_LIB/buddy.c **** 		return _add_of_num(num);
 458:../../source/src/user/OS_LIB/buddy.c **** 	}
 459:../../source/src/user/OS_LIB/buddy.c **** 	CPU_CRITICAL_EXIT();
 460:../../source/src/user/OS_LIB/buddy.c **** 	return NULL;
 461:../../source/src/user/OS_LIB/buddy.c **** }
 462:../../source/src/user/OS_LIB/buddy.c **** 
 463:../../source/src/user/OS_LIB/buddy.c **** void *alloc_power8_page(void)
 464:../../source/src/user/OS_LIB/buddy.c **** {
 465:../../source/src/user/OS_LIB/buddy.c **** 	CPU_SR_ALLOC();
 466:../../source/src/user/OS_LIB/buddy.c **** 	CPU_CRITICAL_ENTER();
 467:../../source/src/user/OS_LIB/buddy.c **** 	Page_Num_Type num = _alloc_page(8);
 468:../../source/src/user/OS_LIB/buddy.c **** 	if(NOTHING != num)
 469:../../source/src/user/OS_LIB/buddy.c **** 	{
 470:../../source/src/user/OS_LIB/buddy.c **** 		// decrease the space of this buddy
 471:../../source/src/user/OS_LIB/buddy.c **** 		current_used_buddy_ptr->current_page_num -= 128 * PAGE_SIZE_KB;
 472:../../source/src/user/OS_LIB/buddy.c **** 		CPU_CRITICAL_EXIT();
 473:../../source/src/user/OS_LIB/buddy.c **** 		return _add_of_num(num);
 474:../../source/src/user/OS_LIB/buddy.c **** 	}
 475:../../source/src/user/OS_LIB/buddy.c **** 	CPU_CRITICAL_EXIT();
 476:../../source/src/user/OS_LIB/buddy.c **** 	return NULL;
 477:../../source/src/user/OS_LIB/buddy.c **** }
ARM GAS  G:\Users\Jaxb\AppData\Local\Temp\ccbV8Tbs.s 			page 18


 478:../../source/src/user/OS_LIB/buddy.c **** 
 479:../../source/src/user/OS_LIB/buddy.c **** void *alloc_power9_page(void)
 480:../../source/src/user/OS_LIB/buddy.c **** {
 481:../../source/src/user/OS_LIB/buddy.c **** 	CPU_SR_ALLOC();
 482:../../source/src/user/OS_LIB/buddy.c **** 	CPU_CRITICAL_ENTER();
 483:../../source/src/user/OS_LIB/buddy.c **** 	Page_Num_Type num = _alloc_page(9);
 484:../../source/src/user/OS_LIB/buddy.c **** 	if(NOTHING != num)
 485:../../source/src/user/OS_LIB/buddy.c **** 	{
 486:../../source/src/user/OS_LIB/buddy.c **** 		// decrease the space of this buddy
 487:../../source/src/user/OS_LIB/buddy.c **** 		current_used_buddy_ptr->current_page_num -= 256 * PAGE_SIZE_KB;
 488:../../source/src/user/OS_LIB/buddy.c **** 		CPU_CRITICAL_EXIT();
 489:../../source/src/user/OS_LIB/buddy.c **** 		return _add_of_num(num);
 490:../../source/src/user/OS_LIB/buddy.c **** 	}
 491:../../source/src/user/OS_LIB/buddy.c **** 	CPU_CRITICAL_EXIT();
 492:../../source/src/user/OS_LIB/buddy.c **** 	return NULL;
 493:../../source/src/user/OS_LIB/buddy.c **** }
 494:../../source/src/user/OS_LIB/buddy.c **** 
 495:../../source/src/user/OS_LIB/buddy.c **** void *alloc_power10_page(void)
 496:../../source/src/user/OS_LIB/buddy.c **** {
 497:../../source/src/user/OS_LIB/buddy.c **** 	CPU_SR_ALLOC();
 498:../../source/src/user/OS_LIB/buddy.c **** 	CPU_CRITICAL_ENTER();
 499:../../source/src/user/OS_LIB/buddy.c **** 	Page_Num_Type num = _alloc_page(10);
 500:../../source/src/user/OS_LIB/buddy.c **** 	if(NOTHING != num)
 501:../../source/src/user/OS_LIB/buddy.c **** 	{
 502:../../source/src/user/OS_LIB/buddy.c **** 		// decrease the space of this buddy
 503:../../source/src/user/OS_LIB/buddy.c **** 		current_used_buddy_ptr->current_page_num -= 512 * PAGE_SIZE_KB;
 504:../../source/src/user/OS_LIB/buddy.c **** 		CPU_CRITICAL_EXIT();
 505:../../source/src/user/OS_LIB/buddy.c **** 		return _add_of_num(num);
 506:../../source/src/user/OS_LIB/buddy.c **** 	}
 507:../../source/src/user/OS_LIB/buddy.c **** 	CPU_CRITICAL_EXIT();
 508:../../source/src/user/OS_LIB/buddy.c **** 	return NULL;
 509:../../source/src/user/OS_LIB/buddy.c **** }
 510:../../source/src/user/OS_LIB/buddy.c **** 
 511:../../source/src/user/OS_LIB/buddy.c **** #if CONFIG_ASSERT_DEBUG
 512:../../source/src/user/OS_LIB/buddy.c **** //if in chain,return 0;else, return -1
 513:../../source/src/user/OS_LIB/buddy.c **** static __debug int assert_in_chain(unsigned int level,Page_Num_Type page_num)
 514:../../source/src/user/OS_LIB/buddy.c **** {
 515:../../source/src/user/OS_LIB/buddy.c **** 	if(NOTHING == current_used_buddy_ptr->order_array[level-1])
 516:../../source/src/user/OS_LIB/buddy.c **** 		return -1;
 517:../../source/src/user/OS_LIB/buddy.c **** 	UINT16 buffer;
 518:../../source/src/user/OS_LIB/buddy.c **** 	buffer = current_used_buddy_ptr->order_array[level-1];
 519:../../source/src/user/OS_LIB/buddy.c **** 	while(buffer != NOTHING)
 520:../../source/src/user/OS_LIB/buddy.c **** 	{
 521:../../source/src/user/OS_LIB/buddy.c **** 		if(page_num == current_used_buddy_ptr->link_body[buffer].num)
 522:../../source/src/user/OS_LIB/buddy.c **** 			return 0;
 523:../../source/src/user/OS_LIB/buddy.c **** 		buffer = current_used_buddy_ptr->link_body[buffer].next;
 524:../../source/src/user/OS_LIB/buddy.c **** 	}
 525:../../source/src/user/OS_LIB/buddy.c **** 	return -1;
 526:../../source/src/user/OS_LIB/buddy.c **** }
 527:../../source/src/user/OS_LIB/buddy.c **** #endif
 528:../../source/src/user/OS_LIB/buddy.c **** 
 529:../../source/src/user/OS_LIB/buddy.c **** static inline Page_Num_Type _get_page_num(void *ptr) //according to adress
 530:../../source/src/user/OS_LIB/buddy.c **** {
 531:../../source/src/user/OS_LIB/buddy.c **** 	return (Page_Num_Type)(((UINT32)ptr - (UINT32)current_used_buddy_ptr->buddy_space_start_ptr)/PAGE_
 532:../../source/src/user/OS_LIB/buddy.c **** }
 533:../../source/src/user/OS_LIB/buddy.c **** 
 534:../../source/src/user/OS_LIB/buddy.c **** static inline int _check_flag(unsigned int level,Page_Num_Type page_num) 
ARM GAS  G:\Users\Jaxb\AppData\Local\Temp\ccbV8Tbs.s 			page 19


 535:../../source/src/user/OS_LIB/buddy.c **** {
 536:../../source/src/user/OS_LIB/buddy.c **** 	ASSERT((level>=1)&&(level<=current_used_buddy_ptr->info.max_level));
 537:../../source/src/user/OS_LIB/buddy.c **** 	ASSERT(0 == (((0x0001<<(level-1))-1) & page_num));
 538:../../source/src/user/OS_LIB/buddy.c **** 	int index = page_num>>level;
 539:../../source/src/user/OS_LIB/buddy.c **** 	return (current_used_buddy_ptr->flag[(current_used_buddy_ptr->level_flag_base[level-1]+index)/(siz
 540:../../source/src/user/OS_LIB/buddy.c **** 		&(0x80000000>>((current_used_buddy_ptr->level_flag_base[level-1]+index)%(sizeof(Flag_Type)*8))));
 541:../../source/src/user/OS_LIB/buddy.c **** }
 542:../../source/src/user/OS_LIB/buddy.c **** 
 543:../../source/src/user/OS_LIB/buddy.c **** static void _delete_from_chain(unsigned int level,Page_Num_Type page_num)
 544:../../source/src/user/OS_LIB/buddy.c **** {
 545:../../source/src/user/OS_LIB/buddy.c **** 	Page_Num_Type buffer1,buffer2;
 546:../../source/src/user/OS_LIB/buddy.c **** 	ASSERT((level>=1)&&(level<=current_used_buddy_ptr->info.max_level));
 547:../../source/src/user/OS_LIB/buddy.c **** 	ASSERT(0 == (((0x0001<<(level-1))-1) & page_num));
 548:../../source/src/user/OS_LIB/buddy.c **** 	ASSERT(NOTHING != current_used_buddy_ptr->order_array[level-1]);
 549:../../source/src/user/OS_LIB/buddy.c **** 	buffer1 = current_used_buddy_ptr->order_array[level-1];
 550:../../source/src/user/OS_LIB/buddy.c **** 	if(page_num == current_used_buddy_ptr->link_body[buffer1].num) //delete from linked-list
 551:../../source/src/user/OS_LIB/buddy.c **** 	{
 552:../../source/src/user/OS_LIB/buddy.c **** 		current_used_buddy_ptr->order_array[level-1] = current_used_buddy_ptr->link_body[buffer1].next;
 553:../../source/src/user/OS_LIB/buddy.c **** 		_return_link_body(buffer1);
 554:../../source/src/user/OS_LIB/buddy.c **** 		return ;
 555:../../source/src/user/OS_LIB/buddy.c **** 	}
 556:../../source/src/user/OS_LIB/buddy.c **** 	else
 557:../../source/src/user/OS_LIB/buddy.c **** 	{
 558:../../source/src/user/OS_LIB/buddy.c **** 		buffer2 = current_used_buddy_ptr->link_body[buffer1].next;
 559:../../source/src/user/OS_LIB/buddy.c **** 		while(NOTHING != buffer2)
 560:../../source/src/user/OS_LIB/buddy.c **** 		{
 561:../../source/src/user/OS_LIB/buddy.c **** 			if(page_num == current_used_buddy_ptr->link_body[buffer2].num)
 562:../../source/src/user/OS_LIB/buddy.c **** 			{
 563:../../source/src/user/OS_LIB/buddy.c **** 				current_used_buddy_ptr->link_body[buffer1].next = current_used_buddy_ptr->link_body[buffer2].ne
 564:../../source/src/user/OS_LIB/buddy.c **** 				_return_link_body(buffer2);
 565:../../source/src/user/OS_LIB/buddy.c **** 				return ;
 566:../../source/src/user/OS_LIB/buddy.c **** 			}
 567:../../source/src/user/OS_LIB/buddy.c **** 			buffer1 = buffer2;
 568:../../source/src/user/OS_LIB/buddy.c **** 			buffer2 = current_used_buddy_ptr->link_body[buffer2].next;
 569:../../source/src/user/OS_LIB/buddy.c **** 		}
 570:../../source/src/user/OS_LIB/buddy.c **** 		ASSERT(0);
 571:../../source/src/user/OS_LIB/buddy.c **** 	}
 572:../../source/src/user/OS_LIB/buddy.c **** }
 573:../../source/src/user/OS_LIB/buddy.c **** 
 574:../../source/src/user/OS_LIB/buddy.c **** static void _return_page(void *ptr,unsigned int level) //return page to system
 575:../../source/src/user/OS_LIB/buddy.c **** {
 457              		.loc 1 575 0
 458              		.cfi_startproc
 459              		@ args = 0, pretend = 0, frame = 8
 460              		@ frame_needed = 0, uses_anonymous_args = 0
 461              	.LVL44:
 462 01ec 2DE9F04F 		push	{r4, r5, r6, r7, r8, r9, r10, fp, lr}
 463              	.LCFI3:
 464              		.cfi_def_cfa_offset 36
 465              		.cfi_offset 4, -36
 466              		.cfi_offset 5, -32
 467              		.cfi_offset 6, -28
 468              		.cfi_offset 7, -24
 469              		.cfi_offset 8, -20
 470              		.cfi_offset 9, -16
 471              		.cfi_offset 10, -12
 472              		.cfi_offset 11, -8
ARM GAS  G:\Users\Jaxb\AppData\Local\Temp\ccbV8Tbs.s 			page 20


 473              		.cfi_offset 14, -4
 474 01f0 8946     		mov	r9, r1
 475 01f2 83B0     		sub	sp, sp, #12
 476              	.LCFI4:
 477              		.cfi_def_cfa_offset 48
 576:../../source/src/user/OS_LIB/buddy.c **** 	if(NULL == ptr)
 478              		.loc 1 576 0
 479 01f4 0546     		mov	r5, r0
 480 01f6 0028     		cmp	r0, #0
 481 01f8 00F01281 		beq	.L52
 577:../../source/src/user/OS_LIB/buddy.c **** 	{
 578:../../source/src/user/OS_LIB/buddy.c **** 		return ;
 579:../../source/src/user/OS_LIB/buddy.c **** 	}
 580:../../source/src/user/OS_LIB/buddy.c **** 	ASSERT(NULL != ptr);
 581:../../source/src/user/OS_LIB/buddy.c **** 	ASSERT((level>=1)&&(level<=current_used_buddy_ptr->info.max_level));
 482              		.loc 1 581 0 discriminator 1
 483 01fc DFF83083 		ldr	r8, .L149+4
 484 0200 D8F80020 		ldr	r2, [r8]
 485 0204 916A     		ldr	r1, [r2, #40]
 486              	.LVL45:
 487 0206 4945     		cmp	r1, r9
 488 0208 C0F00D81 		bcc	.L136
 582:../../source/src/user/OS_LIB/buddy.c **** 	ASSERT(((UINT32)current_used_buddy_ptr->buddy_space_start_ptr <= (UINT32)ptr)
 489              		.loc 1 582 0
 490 020c 906B     		ldr	r0, [r2, #56]
 491              	.LVL46:
 492 020e A842     		cmp	r0, r5
 493 0210 04D8     		bhi	.L55
 494              	.L146:
 495              		.loc 1 582 0 is_stmt 0 discriminator 1
 496 0212 516A     		ldr	r1, [r2, #36]
 497 0214 8902     		lsls	r1, r1, #10
 498 0216 0844     		add	r0, r0, r1
 499 0218 8542     		cmp	r5, r0
 500 021a 0BD9     		bls	.L56
 501              	.L55:
 502              		.loc 1 582 0 discriminator 3
 503 021c 4FF41271 		mov	r1, #584
 504 0220 C248     		ldr	r0, .L149
 505 0222 FFF7FEFF 		bl	_ASSERT
 506              	.LVL47:
 507              	.LBB81:
 508              	.LBB82:
 164:../../source/src/user/OS_LIB/buddy.c **** 			&& ((unsigned int)ptr < (unsigned int)current_used_buddy_ptr + current_used_buddy_ptr->info.page
 509              		.loc 1 164 0 is_stmt 1 discriminator 3
 510 0226 D8F80020 		ldr	r2, [r8]
 511 022a 916B     		ldr	r1, [r2, #56]
 512 022c A942     		cmp	r1, r5
 513 022e 04D8     		bhi	.L59
 514 0230 516A     		ldr	r1, [r2, #36]
 515 0232 8902     		lsls	r1, r1, #10
 516              	.LVL48:
 517              	.L56:
 165:../../source/src/user/OS_LIB/buddy.c **** 	{
 518              		.loc 1 165 0
 519 0234 0A44     		add	r2, r2, r1
 520 0236 9542     		cmp	r5, r2
ARM GAS  G:\Users\Jaxb\AppData\Local\Temp\ccbV8Tbs.s 			page 21


 521 0238 04D3     		bcc	.L58
 522              	.L59:
 523              	.LVL49:
 524              	.LBE82:
 525              	.LBE81:
 583:../../source/src/user/OS_LIB/buddy.c **** 		&&
 584:../../source/src/user/OS_LIB/buddy.c **** 		((UINT32)&current_used_buddy_ptr->buddy_space_start_ptr[BUDDY_SPACE_SIZE] >= (UINT32)ptr));
 585:../../source/src/user/OS_LIB/buddy.c **** 	ASSERT(0 == in_buddy_range(ptr));
 526              		.loc 1 585 0
 527 023a 40F24921 		movw	r1, #585
 528 023e BB48     		ldr	r0, .L149
 529 0240 FFF7FEFF 		bl	_ASSERT
 530              	.LVL50:
 531              	.L58:
 532              	.LBB83:
 533              	.LBB84:
 531:../../source/src/user/OS_LIB/buddy.c **** }
 534              		.loc 1 531 0
 535 0244 D8F80020 		ldr	r2, [r8]
 536              	.LBE84:
 537              	.LBE83:
 586:../../source/src/user/OS_LIB/buddy.c **** 	Page_Num_Type page_num = _get_page_num(ptr);
 587:../../source/src/user/OS_LIB/buddy.c **** 	_deal_with_flag_alloc(level,page_num);  //XOR the flag bit
 538              		.loc 1 587 0
 539 0248 4846     		mov	r0, r9
 540              	.LBB86:
 541              	.LBB85:
 531:../../source/src/user/OS_LIB/buddy.c **** }
 542              		.loc 1 531 0
 543 024a 926B     		ldr	r2, [r2, #56]
 544 024c 09F1FF34 		add	r4, r9, #-1
 545 0250 AD1A     		subs	r5, r5, r2
 546              	.LVL51:
 547 0252 AD0A     		lsrs	r5, r5, #10
 548 0254 AEB2     		uxth	r6, r5
 549              	.LVL52:
 550              	.LBE85:
 551              	.LBE86:
 552              		.loc 1 587 0
 553 0256 3146     		mov	r1, r6
 554 0258 FFF732FF 		bl	_deal_with_flag_alloc
 555              	.LVL53:
 556 025c 0122     		movs	r2, #1
 557 025e 3546     		mov	r5, r6
 558              	.LBB87:
 559              	.LBB88:
  99:../../source/src/user/OS_LIB/buddy.c **** 	ASSERT(0 == (((0x0001<<(level-1))-1) & page_num));
 560              		.loc 1 99 0
 561 0260 D8F80010 		ldr	r1, [r8]
 562 0264 A240     		lsls	r2, r2, r4
 563 0266 896A     		ldr	r1, [r1, #40]
 564 0268 013A     		subs	r2, r2, #1
 565 026a 8945     		cmp	r9, r1
 566 026c 05EA0205 		and	r5, r5, r2
 567 0270 00F2CA80 		bhi	.L137
 100:../../source/src/user/OS_LIB/buddy.c **** 	for(i=level;i<=current_used_buddy_ptr->info.max_level;++i)
 568              		.loc 1 100 0
ARM GAS  G:\Users\Jaxb\AppData\Local\Temp\ccbV8Tbs.s 			page 22


 569 0274 002D     		cmp	r5, #0
 570 0276 40F04A81 		bne	.L99
 571              	.L98:
 572              	.LVL54:
 573 027a 09F10047 		add	r7, r9, #-2147483648
 574 027e 013F     		subs	r7, r7, #1
 575 0280 7B00     		lsls	r3, r7, #1
 576              	.LBB89:
 577              	.LBB90:
 515:../../source/src/user/OS_LIB/buddy.c **** 		return -1;
 578              		.loc 1 515 0
 579 0282 4FF6FF75 		movw	r5, #65535
 580 0286 0093     		str	r3, [sp]
 581              	.LBE90:
 582              	.LBE89:
 103:../../source/src/user/OS_LIB/buddy.c **** 		ASSERT(0 == (page_num & ((0x0001<<(i-1))-1)));
 583              		.loc 1 103 0
 584 0288 B9F1000F 		cmp	r9, #0
 585 028c 00F0B780 		beq	.L138
 586              	.LVL55:
 587              	.L61:
 104:../../source/src/user/OS_LIB/buddy.c **** 		if(current_used_buddy_ptr->info.max_level == i) // if it is the max level, just insert it into ch
 588              		.loc 1 104 0
 589 0290 0122     		movs	r2, #1
 590 0292 02FA04F7 		lsl	r7, r2, r4
 591 0296 07F1FF3A 		add	r10, r7, #-1
 592 029a 16EA0A0B 		ands	fp, r6, r10
 593 029e 40F0D480 		bne	.L139
 105:../../source/src/user/OS_LIB/buddy.c **** 		{
 594              		.loc 1 105 0
 595 02a2 D8F80010 		ldr	r1, [r8]
 596 02a6 896A     		ldr	r1, [r1, #40]
 597 02a8 4945     		cmp	r1, r9
 598 02aa 00F0D880 		beq	.L92
 599              	.L63:
 600              	.LVL56:
 601              	.LBB92:
 602              	.LBB93:
  86:../../source/src/user/OS_LIB/buddy.c **** 	ASSERT(0 == (((0x0001<<(level-1))-1) & page_num));
 603              		.loc 1 86 0
 604 02ae B9F1000F 		cmp	r9, #0
 605 02b2 01D0     		beq	.L64
 606 02b4 4945     		cmp	r1, r9
 607 02b6 03D2     		bcs	.L65
 608              	.L64:
 609 02b8 5621     		movs	r1, #86
 610 02ba 9C48     		ldr	r0, .L149
 611 02bc FFF7FEFF 		bl	_ASSERT
 612              	.LVL57:
 613              	.L65:
  87:../../source/src/user/OS_LIB/buddy.c **** 	if(page_num & (0x0001<<(level-1))) //it's buddy is ahead of it
 614              		.loc 1 87 0
 615 02c0 BBF1000F 		cmp	fp, #0
 616 02c4 40F0D180 		bne	.L140
 617              	.L66:
 618              	.LVL58:
  88:../../source/src/user/OS_LIB/buddy.c **** 		return (page_num - sizeof_level(level));
ARM GAS  G:\Users\Jaxb\AppData\Local\Temp\ccbV8Tbs.s 			page 23


 619              		.loc 1 88 0
 620 02c8 46FA04F4 		asr	r4, r6, r4
 621 02cc BAB2     		uxth	r2, r7
 622 02ce E307     		lsls	r3, r4, #31
  89:../../source/src/user/OS_LIB/buddy.c **** 	else 
 623              		.loc 1 89 0
 624 02d0 4CBF     		ite	mi
 625 02d2 B21A     		submi	r2, r6, r2
  91:../../source/src/user/OS_LIB/buddy.c **** }
 626              		.loc 1 91 0
 627 02d4 9219     		addpl	r2, r2, r6
 628 02d6 97B2     		uxth	r7, r2
 629              	.LBE93:
 630              	.LBE92:
 631              	.LBB95:
 632              	.LBB96:
 536:../../source/src/user/OS_LIB/buddy.c **** 	ASSERT(0 == (((0x0001<<(level-1))-1) & page_num));
 633              		.loc 1 536 0
 634 02d8 B9F1000F 		cmp	r9, #0
 635 02dc 04D0     		beq	.L69
 636 02de D8F80010 		ldr	r1, [r8]
 637 02e2 896A     		ldr	r1, [r1, #40]
 638 02e4 4945     		cmp	r1, r9
 639 02e6 04D2     		bcs	.L70
 640              	.L69:
 641 02e8 4FF40671 		mov	r1, #536
 642 02ec 8F48     		ldr	r0, .L149
 643 02ee FFF7FEFF 		bl	_ASSERT
 644              	.LVL59:
 645              	.L70:
 537:../../source/src/user/OS_LIB/buddy.c **** 	int index = page_num>>level;
 646              		.loc 1 537 0
 647 02f2 BBF1000F 		cmp	fp, #0
 648 02f6 04D0     		beq	.L71
 649 02f8 40F21921 		movw	r1, #537
 650 02fc 8B48     		ldr	r0, .L149
 651 02fe FFF7FEFF 		bl	_ASSERT
 652              	.LVL60:
 653              	.L71:
 540:../../source/src/user/OS_LIB/buddy.c **** }
 654              		.loc 1 540 0
 655 0302 4FF0004E 		mov	lr, #-2147483648
 539:../../source/src/user/OS_LIB/buddy.c **** 		&(0x80000000>>((current_used_buddy_ptr->level_flag_base[level-1]+index)%(sizeof(Flag_Type)*8))));
 656              		.loc 1 539 0
 657 0306 D8F80030 		ldr	r3, [r8]
 658 030a 009A     		ldr	r2, [sp]
 659 030c 5C69     		ldr	r4, [r3, #20]
 660 030e 1868     		ldr	r0, [r3]
 661 0310 A45A     		ldrh	r4, [r4, r2]
 538:../../source/src/user/OS_LIB/buddy.c **** 	return (current_used_buddy_ptr->flag[(current_used_buddy_ptr->level_flag_base[level-1]+index)/(siz
 662              		.loc 1 538 0
 663 0312 46FA09F1 		asr	r1, r6, r9
 664              	.LVL61:
 539:../../source/src/user/OS_LIB/buddy.c **** 		&(0x80000000>>((current_used_buddy_ptr->level_flag_base[level-1]+index)%(sizeof(Flag_Type)*8))));
 665              		.loc 1 539 0
 666 0316 0190     		str	r0, [sp, #4]
 667 0318 2144     		add	r1, r1, r4
ARM GAS  G:\Users\Jaxb\AppData\Local\Temp\ccbV8Tbs.s 			page 24


 668              	.LVL62:
 540:../../source/src/user/OS_LIB/buddy.c **** }
 669              		.loc 1 540 0
 670 031a 0198     		ldr	r0, [sp, #4]
 539:../../source/src/user/OS_LIB/buddy.c **** 		&(0x80000000>>((current_used_buddy_ptr->level_flag_base[level-1]+index)%(sizeof(Flag_Type)*8))));
 671              		.loc 1 539 0
 672 031c 4C09     		lsrs	r4, r1, #5
 540:../../source/src/user/OS_LIB/buddy.c **** }
 673              		.loc 1 540 0
 674 031e 50F82440 		ldr	r4, [r0, r4, lsl #2]
 675 0322 01F01F01 		and	r1, r1, #31
 676 0326 2EFA01FE 		lsr	lr, lr, r1
 677 032a 1869     		ldr	r0, [r3, #16]
 678              	.LBE96:
 679              	.LBE95:
 113:../../source/src/user/OS_LIB/buddy.c **** 			{
 680              		.loc 1 113 0
 681 032c 1EEA040F 		tst	lr, r4
 682 0330 815A     		ldrh	r1, [r0, r2]
 683 0332 40F0FF80 		bne	.L72
 684              	.LVL63:
 685              	.LBB97:
 686              	.LBB91:
 515:../../source/src/user/OS_LIB/buddy.c **** 		return -1;
 687              		.loc 1 515 0
 688 0336 A942     		cmp	r1, r5
 689 0338 09D0     		beq	.L73
 521:../../source/src/user/OS_LIB/buddy.c **** 			return 0;
 690              		.loc 1 521 0
 691 033a 5868     		ldr	r0, [r3, #4]
 692              	.L75:
 693              	.LVL64:
 694 033c 30F82140 		ldrh	r4, [r0, r1, lsl #2]
 695 0340 00EB8101 		add	r1, r0, r1, lsl #2
 696              	.LVL65:
 697 0344 BC42     		cmp	r4, r7
 698 0346 06D0     		beq	.L74
 523:../../source/src/user/OS_LIB/buddy.c **** 	}
 699              		.loc 1 523 0
 700 0348 4988     		ldrh	r1, [r1, #2]
 701              	.LVL66:
 519:../../source/src/user/OS_LIB/buddy.c **** 	{
 702              		.loc 1 519 0
 703 034a A942     		cmp	r1, r5
 704 034c F6D1     		bne	.L75
 705              	.LVL67:
 706              	.L73:
 707              	.LBE91:
 708              	.LBE97:
 115:../../source/src/user/OS_LIB/buddy.c **** 				_delete_from_chain(i,buddy_page_num); // delete it's buddy from chain order_array[level] so tha
 709              		.loc 1 115 0
 710 034e 7321     		movs	r1, #115
 711 0350 7648     		ldr	r0, .L149
 712 0352 FFF7FEFF 		bl	_ASSERT
 713              	.LVL68:
 714              	.L74:
 715              	.LBB98:
ARM GAS  G:\Users\Jaxb\AppData\Local\Temp\ccbV8Tbs.s 			page 25


 716              	.LBB99:
 546:../../source/src/user/OS_LIB/buddy.c **** 	ASSERT(0 == (((0x0001<<(level-1))-1) & page_num));
 717              		.loc 1 546 0
 718 0356 B9F1000F 		cmp	r9, #0
 719 035a 04D0     		beq	.L76
 720 035c D8F80010 		ldr	r1, [r8]
 721 0360 896A     		ldr	r1, [r1, #40]
 722 0362 8945     		cmp	r9, r1
 723 0364 04D9     		bls	.L77
 724              	.L76:
 725 0366 40F22221 		movw	r1, #546
 726 036a 7048     		ldr	r0, .L149
 727 036c FFF7FEFF 		bl	_ASSERT
 728              	.LVL69:
 729              	.L77:
 547:../../source/src/user/OS_LIB/buddy.c **** 	ASSERT(NOTHING != current_used_buddy_ptr->order_array[level-1]);
 730              		.loc 1 547 0
 731 0370 17EA0A0F 		tst	r7, r10
 732 0374 40F09B80 		bne	.L141
 733              	.L78:
 548:../../source/src/user/OS_LIB/buddy.c **** 	buffer1 = current_used_buddy_ptr->order_array[level-1];
 734              		.loc 1 548 0
 735 0378 D8F80030 		ldr	r3, [r8]
 736 037c 009A     		ldr	r2, [sp]
 737 037e 1869     		ldr	r0, [r3, #16]
 738 0380 845A     		ldrh	r4, [r0, r2]
 739 0382 1044     		add	r0, r0, r2
 740 0384 AC42     		cmp	r4, r5
 741 0386 00F09880 		beq	.L142
 742              	.L79:
 743              	.LVL70:
 550:../../source/src/user/OS_LIB/buddy.c **** 	{
 744              		.loc 1 550 0
 745 038a 5968     		ldr	r1, [r3, #4]
 746 038c 31F824A0 		ldrh	r10, [r1, r4, lsl #2]
 747 0390 01EB840B 		add	fp, r1, r4, lsl #2
 748 0394 BA45     		cmp	r10, r7
 749 0396 BBF802E0 		ldrh	lr, [fp, #2]
 750 039a 00F09A80 		beq	.L143
 751              	.LVL71:
 559:../../source/src/user/OS_LIB/buddy.c **** 		{
 752              		.loc 1 559 0
 753 039e AE45     		cmp	lr, r5
 754 03a0 12D0     		beq	.L84
 561:../../source/src/user/OS_LIB/buddy.c **** 			{
 755              		.loc 1 561 0
 756 03a2 31F82E40 		ldrh	r4, [r1, lr, lsl #2]
 757 03a6 F246     		mov	r10, lr
 758 03a8 BC42     		cmp	r4, r7
 759 03aa 01EB8E00 		add	r0, r1, lr, lsl #2
 760 03ae 06D1     		bne	.L86
 761 03b0 B9E0     		b	.L144
 762              	.LVL72:
 763              	.L89:
 764 03b2 31F824B0 		ldrh	fp, [r1, r4, lsl #2]
 765 03b6 A246     		mov	r10, r4
 766 03b8 BB45     		cmp	fp, r7
ARM GAS  G:\Users\Jaxb\AppData\Local\Temp\ccbV8Tbs.s 			page 26


 767 03ba 5BD0     		beq	.L145
 768 03bc A646     		mov	lr, r4
 769              	.LVL73:
 770              	.L86:
 568:../../source/src/user/OS_LIB/buddy.c **** 		}
 771              		.loc 1 568 0
 772 03be 4488     		ldrh	r4, [r0, #2]
 773              	.LVL74:
 559:../../source/src/user/OS_LIB/buddy.c **** 		{
 774              		.loc 1 559 0
 775 03c0 AC42     		cmp	r4, r5
 561:../../source/src/user/OS_LIB/buddy.c **** 			{
 776              		.loc 1 561 0
 777 03c2 01EB8400 		add	r0, r1, r4, lsl #2
 559:../../source/src/user/OS_LIB/buddy.c **** 		{
 778              		.loc 1 559 0
 779 03c6 F4D1     		bne	.L89
 780              	.LVL75:
 781              	.L84:
 570:../../source/src/user/OS_LIB/buddy.c **** 	}
 782              		.loc 1 570 0
 783 03c8 40F23A21 		movw	r1, #570
 784 03cc 5748     		ldr	r0, .L149
 785 03ce FFF7FEFF 		bl	_ASSERT
 786              	.LVL76:
 787              	.L83:
 788              	.LBE99:
 789              	.LBE98:
 117:../../source/src/user/OS_LIB/buddy.c **** 				{
 790              		.loc 1 117 0
 791 03d2 BE42     		cmp	r6, r7
 792 03d4 09F10109 		add	r9, r9, #1
 793              	.LVL77:
 794 03d8 31D2     		bcs	.L90
 119:../../source/src/user/OS_LIB/buddy.c **** 					continue ;
 795              		.loc 1 119 0
 796 03da 3146     		mov	r1, r6
 797 03dc 4846     		mov	r0, r9
 798 03de FFF76FFE 		bl	_deal_with_flag_alloc
 799              	.LVL78:
 800              	.L91:
 101:../../source/src/user/OS_LIB/buddy.c **** 	{
 801              		.loc 1 101 0
 802 03e2 D8F80020 		ldr	r2, [r8]
 803 03e6 009B     		ldr	r3, [sp]
 804 03e8 926A     		ldr	r2, [r2, #40]
 805 03ea 0233     		adds	r3, r3, #2
 806 03ec 4A45     		cmp	r2, r9
 807 03ee 0093     		str	r3, [sp]
 808 03f0 16D3     		bcc	.L52
 809 03f2 09F1FF34 		add	r4, r9, #-1
 810              	.LVL79:
 103:../../source/src/user/OS_LIB/buddy.c **** 		ASSERT(0 == (page_num & ((0x0001<<(i-1))-1)));
 811              		.loc 1 103 0
 812 03f6 B9F1000F 		cmp	r9, #0
 813 03fa 7FF449AF 		bne	.L61
 814              	.LVL80:
ARM GAS  G:\Users\Jaxb\AppData\Local\Temp\ccbV8Tbs.s 			page 27


 815              	.L138:
 816 03fe 6721     		movs	r1, #103
 817 0400 4A48     		ldr	r0, .L149
 818 0402 FFF7FEFF 		bl	_ASSERT
 819              	.LVL81:
 820 0406 43E7     		b	.L61
 821              	.LVL82:
 822              	.L137:
  99:../../source/src/user/OS_LIB/buddy.c **** 	ASSERT(0 == (((0x0001<<(level-1))-1) & page_num));
 823              		.loc 1 99 0
 824 0408 6321     		movs	r1, #99
 825 040a 4848     		ldr	r0, .L149
 826 040c FFF7FEFF 		bl	_ASSERT
 827              	.LVL83:
 100:../../source/src/user/OS_LIB/buddy.c **** 	for(i=level;i<=current_used_buddy_ptr->info.max_level;++i)
 828              		.loc 1 100 0
 829 0410 002D     		cmp	r5, #0
 830 0412 7CD1     		bne	.L99
 831              	.L60:
 832              	.LVL84:
 101:../../source/src/user/OS_LIB/buddy.c **** 	{
 833              		.loc 1 101 0
 834 0414 D8F80020 		ldr	r2, [r8]
 835 0418 926A     		ldr	r2, [r2, #40]
 836 041a 9145     		cmp	r9, r2
 837 041c 7FF62DAF 		bls	.L98
 838              	.LVL85:
 839              	.L52:
 840              	.LBE88:
 841              	.LBE87:
 588:../../source/src/user/OS_LIB/buddy.c **** 	_add_to_order_array_loop(level,page_num); // then going to loop to finish the return
 589:../../source/src/user/OS_LIB/buddy.c **** }
 842              		.loc 1 589 0
 843 0420 03B0     		add	sp, sp, #12
 844              	.LCFI5:
 845              		.cfi_remember_state
 846              		.cfi_def_cfa_offset 36
 847              		@ sp needed
 848 0422 BDE8F08F 		pop	{r4, r5, r6, r7, r8, r9, r10, fp, pc}
 849              	.LVL86:
 850              	.L136:
 851              	.LCFI6:
 852              		.cfi_restore_state
 581:../../source/src/user/OS_LIB/buddy.c **** 	ASSERT(((UINT32)current_used_buddy_ptr->buddy_space_start_ptr <= (UINT32)ptr)
 853              		.loc 1 581 0 discriminator 3
 854 0426 4148     		ldr	r0, .L149
 855              	.LVL87:
 856 0428 40F24521 		movw	r1, #581
 857 042c FFF7FEFF 		bl	_ASSERT
 858              	.LVL88:
 859 0430 D8F80020 		ldr	r2, [r8]
 582:../../source/src/user/OS_LIB/buddy.c **** 		&&
 860              		.loc 1 582 0 discriminator 3
 861 0434 906B     		ldr	r0, [r2, #56]
 862 0436 A842     		cmp	r0, r5
 863 0438 7FF6EBAE 		bls	.L146
 864 043c EEE6     		b	.L55
ARM GAS  G:\Users\Jaxb\AppData\Local\Temp\ccbV8Tbs.s 			page 28


 865              	.LVL89:
 866              	.L90:
 867              	.LBB123:
 868              	.LBB121:
 124:../../source/src/user/OS_LIB/buddy.c **** 					page_num = buddy_page_num;
 869              		.loc 1 124 0
 870 043e 3946     		mov	r1, r7
 871 0440 4846     		mov	r0, r9
 872 0442 3E46     		mov	r6, r7
 873              	.LVL90:
 874 0444 FFF73CFE 		bl	_deal_with_flag_alloc
 875              	.LVL91:
 876 0448 CBE7     		b	.L91
 877              	.LVL92:
 878              	.L139:
 104:../../source/src/user/OS_LIB/buddy.c **** 		if(current_used_buddy_ptr->info.max_level == i) // if it is the max level, just insert it into ch
 879              		.loc 1 104 0
 880 044a 6821     		movs	r1, #104
 881 044c 3748     		ldr	r0, .L149
 882 044e FFF7FEFF 		bl	_ASSERT
 883              	.LVL93:
 105:../../source/src/user/OS_LIB/buddy.c **** 		{
 884              		.loc 1 105 0
 885 0452 D8F80010 		ldr	r1, [r8]
 886 0456 896A     		ldr	r1, [r1, #40]
 887 0458 4945     		cmp	r1, r9
 888 045a 7FF428AF 		bne	.L63
 889              	.L92:
 132:../../source/src/user/OS_LIB/buddy.c **** 				break ;
 890              		.loc 1 132 0
 891 045e 3146     		mov	r1, r6
 892 0460 4846     		mov	r0, r9
 893              	.LBE121:
 894              	.LBE123:
 895              		.loc 1 589 0
 896 0462 03B0     		add	sp, sp, #12
 897              	.LCFI7:
 898              		.cfi_remember_state
 899              		.cfi_def_cfa_offset 36
 900              		@ sp needed
 901 0464 BDE8F04F 		pop	{r4, r5, r6, r7, r8, r9, r10, fp, lr}
 902              	.LCFI8:
 903              		.cfi_restore 14
 904              		.cfi_restore 11
 905              		.cfi_restore 10
 906              		.cfi_restore 9
 907              		.cfi_restore 8
 908              		.cfi_restore 7
 909              		.cfi_restore 6
 910              		.cfi_restore 5
 911              		.cfi_restore 4
 912              		.cfi_def_cfa_offset 0
 913              	.LVL94:
 914              	.LBB124:
 915              	.LBB122:
 132:../../source/src/user/OS_LIB/buddy.c **** 				break ;
 916              		.loc 1 132 0
ARM GAS  G:\Users\Jaxb\AppData\Local\Temp\ccbV8Tbs.s 			page 29


 917 0468 CAE5     		b	_add_to_order_array
 918              	.LVL95:
 919              	.L140:
 920              	.LCFI9:
 921              		.cfi_restore_state
 922              	.LBB116:
 923              	.LBB94:
  87:../../source/src/user/OS_LIB/buddy.c **** 	if(page_num & (0x0001<<(level-1))) //it's buddy is ahead of it
 924              		.loc 1 87 0
 925 046a 5721     		movs	r1, #87
 926 046c 2F48     		ldr	r0, .L149
 927 046e FFF7FEFF 		bl	_ASSERT
 928              	.LVL96:
 929 0472 29E7     		b	.L66
 930              	.LVL97:
 931              	.L145:
 932 0474 01EB8E0B 		add	fp, r1, lr, lsl #2
 933              	.LVL98:
 934              	.L85:
 935              	.LBE94:
 936              	.LBE116:
 937              	.LBB117:
 938              	.LBB114:
 939              	.LBB100:
 940              	.LBB101:
 156:../../source/src/user/OS_LIB/buddy.c **** 	ASSERT(NOTHING == current_used_buddy_ptr->order_link_flag[buffer]);
 941              		.loc 1 156 0
 942 0478 596A     		ldr	r1, [r3, #36]
 943              	.LBE101:
 944              	.LBE100:
 563:../../source/src/user/OS_LIB/buddy.c **** 				_return_link_body(buffer2);
 945              		.loc 1 563 0
 946 047a 4088     		ldrh	r0, [r0, #2]
 947              	.LBB105:
 948              	.LBB102:
 156:../../source/src/user/OS_LIB/buddy.c **** 	ASSERT(NOTHING == current_used_buddy_ptr->order_link_flag[buffer]);
 949              		.loc 1 156 0
 950 047c 0139     		subs	r1, r1, #1
 951 047e 5145     		cmp	r1, r10
 952              	.LBE102:
 953              	.LBE105:
 563:../../source/src/user/OS_LIB/buddy.c **** 				_return_link_body(buffer2);
 954              		.loc 1 563 0
 955 0480 ABF80200 		strh	r0, [fp, #2]	@ movhi
 956              	.LVL99:
 957              	.LBB106:
 958              	.LBB103:
 156:../../source/src/user/OS_LIB/buddy.c **** 	ASSERT(NOTHING == current_used_buddy_ptr->order_link_flag[buffer]);
 959              		.loc 1 156 0
 960 0484 3CD3     		bcc	.L147
 961              	.L87:
 157:../../source/src/user/OS_LIB/buddy.c **** 	current_used_buddy_ptr->order_link_flag[buffer] = current_used_buddy_ptr->order_link_first;
 962              		.loc 1 157 0
 963 0486 D968     		ldr	r1, [r3, #12]
 964 0488 4FEA4A0B 		lsl	fp, r10, #1
 965 048c 31F81A00 		ldrh	r0, [r1, r10, lsl #1]
 966 0490 5944     		add	r1, r1, fp
ARM GAS  G:\Users\Jaxb\AppData\Local\Temp\ccbV8Tbs.s 			page 30


 967 0492 A842     		cmp	r0, r5
 968 0494 07D0     		beq	.L88
 969 0496 9D21     		movs	r1, #157
 970 0498 2448     		ldr	r0, .L149
 971 049a FFF7FEFF 		bl	_ASSERT
 972              	.LVL100:
 973 049e D8F80030 		ldr	r3, [r8]
 974 04a2 D968     		ldr	r1, [r3, #12]
 975 04a4 5944     		add	r1, r1, fp
 976              	.LVL101:
 977              	.L88:
 158:../../source/src/user/OS_LIB/buddy.c **** 	current_used_buddy_ptr->order_link_first = buffer; //change list's head
 978              		.loc 1 158 0
 979 04a6 1889     		ldrh	r0, [r3, #8]
 980 04a8 0880     		strh	r0, [r1]	@ movhi
 159:../../source/src/user/OS_LIB/buddy.c **** }
 981              		.loc 1 159 0
 982 04aa 1C81     		strh	r4, [r3, #8]	@ movhi
 983 04ac 91E7     		b	.L83
 984              	.L141:
 985              	.LBE103:
 986              	.LBE106:
 547:../../source/src/user/OS_LIB/buddy.c **** 	ASSERT(NOTHING != current_used_buddy_ptr->order_array[level-1]);
 987              		.loc 1 547 0
 988 04ae 40F22321 		movw	r1, #547
 989 04b2 1E48     		ldr	r0, .L149
 990 04b4 FFF7FEFF 		bl	_ASSERT
 991              	.LVL102:
 992 04b8 5EE7     		b	.L78
 993              	.L142:
 548:../../source/src/user/OS_LIB/buddy.c **** 	buffer1 = current_used_buddy_ptr->order_array[level-1];
 994              		.loc 1 548 0
 995 04ba 1C48     		ldr	r0, .L149
 996 04bc 4FF40971 		mov	r1, #548
 997 04c0 FFF7FEFF 		bl	_ASSERT
 998              	.LVL103:
 999 04c4 D8F80030 		ldr	r3, [r8]
 1000 04c8 009A     		ldr	r2, [sp]
 1001 04ca 1869     		ldr	r0, [r3, #16]
 1002 04cc 845A     		ldrh	r4, [r0, r2]
 1003 04ce 1044     		add	r0, r0, r2
 1004 04d0 5BE7     		b	.L79
 1005              	.LVL104:
 1006              	.L143:
 1007              	.LBB107:
 1008              	.LBB108:
 156:../../source/src/user/OS_LIB/buddy.c **** 	ASSERT(NOTHING == current_used_buddy_ptr->order_link_flag[buffer]);
 1009              		.loc 1 156 0
 1010 04d2 596A     		ldr	r1, [r3, #36]
 1011              	.LBE108:
 1012              	.LBE107:
 552:../../source/src/user/OS_LIB/buddy.c **** 		_return_link_body(buffer1);
 1013              		.loc 1 552 0
 1014 04d4 A0F800E0 		strh	lr, [r0]	@ movhi
 1015              	.LVL105:
 1016              	.LBB111:
 1017              	.LBB109:
ARM GAS  G:\Users\Jaxb\AppData\Local\Temp\ccbV8Tbs.s 			page 31


 156:../../source/src/user/OS_LIB/buddy.c **** 	ASSERT(NOTHING == current_used_buddy_ptr->order_link_flag[buffer]);
 1018              		.loc 1 156 0
 1019 04d8 0139     		subs	r1, r1, #1
 1020 04da 8C42     		cmp	r4, r1
 1021 04dc 1CD8     		bhi	.L148
 1022              	.L81:
 157:../../source/src/user/OS_LIB/buddy.c **** 	current_used_buddy_ptr->order_link_flag[buffer] = current_used_buddy_ptr->order_link_first;
 1023              		.loc 1 157 0
 1024 04de D968     		ldr	r1, [r3, #12]
 1025 04e0 4FEA440A 		lsl	r10, r4, #1
 1026 04e4 31F81400 		ldrh	r0, [r1, r4, lsl #1]
 1027 04e8 5144     		add	r1, r1, r10
 1028 04ea A842     		cmp	r0, r5
 1029 04ec DBD0     		beq	.L88
 1030 04ee 9D21     		movs	r1, #157
 1031 04f0 0E48     		ldr	r0, .L149
 1032 04f2 FFF7FEFF 		bl	_ASSERT
 1033              	.LVL106:
 1034 04f6 D8F80030 		ldr	r3, [r8]
 1035 04fa D968     		ldr	r1, [r3, #12]
 1036 04fc 5144     		add	r1, r1, r10
 1037 04fe D2E7     		b	.L88
 1038              	.LVL107:
 1039              	.L147:
 1040              	.LBE109:
 1041              	.LBE111:
 1042              	.LBB112:
 1043              	.LBB104:
 156:../../source/src/user/OS_LIB/buddy.c **** 	ASSERT(NOTHING == current_used_buddy_ptr->order_link_flag[buffer]);
 1044              		.loc 1 156 0
 1045 0500 9C21     		movs	r1, #156
 1046 0502 0A48     		ldr	r0, .L149
 1047 0504 FFF7FEFF 		bl	_ASSERT
 1048              	.LVL108:
 1049 0508 D8F80030 		ldr	r3, [r8]
 1050 050c BBE7     		b	.L87
 1051              	.LVL109:
 1052              	.L99:
 1053              	.LBE104:
 1054              	.LBE112:
 1055              	.LBE114:
 1056              	.LBE117:
 100:../../source/src/user/OS_LIB/buddy.c **** 	for(i=level;i<=current_used_buddy_ptr->info.max_level;++i)
 1057              		.loc 1 100 0
 1058 050e 6421     		movs	r1, #100
 1059 0510 0648     		ldr	r0, .L149
 1060 0512 FFF7FEFF 		bl	_ASSERT
 1061              	.LVL110:
 1062 0516 7DE7     		b	.L60
 1063              	.LVL111:
 1064              	.L148:
 1065              	.LBB118:
 1066              	.LBB115:
 1067              	.LBB113:
 1068              	.LBB110:
 156:../../source/src/user/OS_LIB/buddy.c **** 	ASSERT(NOTHING == current_used_buddy_ptr->order_link_flag[buffer]);
 1069              		.loc 1 156 0
ARM GAS  G:\Users\Jaxb\AppData\Local\Temp\ccbV8Tbs.s 			page 32


 1070 0518 9C21     		movs	r1, #156
 1071 051a 0448     		ldr	r0, .L149
 1072 051c FFF7FEFF 		bl	_ASSERT
 1073              	.LVL112:
 1074 0520 D8F80030 		ldr	r3, [r8]
 1075 0524 DBE7     		b	.L81
 1076              	.LVL113:
 1077              	.L144:
 1078              	.LBE110:
 1079              	.LBE113:
 561:../../source/src/user/OS_LIB/buddy.c **** 			{
 1080              		.loc 1 561 0
 1081 0526 7446     		mov	r4, lr
 1082 0528 A6E7     		b	.L85
 1083              	.L150:
 1084 052a 00BF     		.align	2
 1085              	.L149:
 1086 052c 00000000 		.word	.LC0
 1087 0530 00000000 		.word	.LANCHOR0
 1088              	.LVL114:
 1089              	.L72:
 1090              	.LBE115:
 1091              	.LBE118:
 1092              	.LBB119:
 1093              	.LBB120:
 515:../../source/src/user/OS_LIB/buddy.c **** 		return -1;
 1094              		.loc 1 515 0
 1095 0534 4FF6FF75 		movw	r5, #65535
 1096 0538 A942     		cmp	r1, r5
 1097 053a 90D0     		beq	.L92
 521:../../source/src/user/OS_LIB/buddy.c **** 			return 0;
 1098              		.loc 1 521 0
 1099 053c 5868     		ldr	r0, [r3, #4]
 1100              	.L94:
 1101              	.LVL115:
 1102 053e 30F82140 		ldrh	r4, [r0, r1, lsl #2]
 1103 0542 00EB8101 		add	r1, r0, r1, lsl #2
 1104              	.LVL116:
 1105 0546 BC42     		cmp	r4, r7
 1106 0548 03D0     		beq	.L93
 523:../../source/src/user/OS_LIB/buddy.c **** 	}
 1107              		.loc 1 523 0
 1108 054a 4988     		ldrh	r1, [r1, #2]
 1109              	.LVL117:
 519:../../source/src/user/OS_LIB/buddy.c **** 	{
 1110              		.loc 1 519 0
 1111 054c A942     		cmp	r1, r5
 1112 054e F6D1     		bne	.L94
 1113 0550 85E7     		b	.L92
 1114              	.LVL118:
 1115              	.L93:
 1116              	.LBE120:
 1117              	.LBE119:
 131:../../source/src/user/OS_LIB/buddy.c **** 				_add_to_order_array(i,page_num); // insert into chain order_array[level]
 1118              		.loc 1 131 0
 1119 0552 8321     		movs	r1, #131
 1120 0554 0148     		ldr	r0, .L151
ARM GAS  G:\Users\Jaxb\AppData\Local\Temp\ccbV8Tbs.s 			page 33


 1121 0556 FFF7FEFF 		bl	_ASSERT
 1122              	.LVL119:
 1123 055a 80E7     		b	.L92
 1124              	.L152:
 1125              		.align	2
 1126              	.L151:
 1127 055c 00000000 		.word	.LC0
 1128              	.LBE122:
 1129              	.LBE124:
 1130              		.cfi_endproc
 1131              	.LFE33:
 1132              		.size	_return_page, .-_return_page
 1133              		.align	1
 1134              		.p2align 2,,3
 1135              		.global	get_os_buddy_ptr_head
 1136              		.syntax unified
 1137              		.thumb
 1138              		.thumb_func
 1139              		.fpu softvfp
 1140              		.type	get_os_buddy_ptr_head, %function
 1141              	get_os_buddy_ptr_head:
 1142              	.LFB5:
  31:../../source/src/user/OS_LIB/buddy.c **** 	current_used_buddy_ptr = os_buddy_ptr_head;
 1143              		.loc 1 31 0
 1144              		.cfi_startproc
 1145              		@ args = 0, pretend = 0, frame = 0
 1146              		@ frame_needed = 0, uses_anonymous_args = 0
 1147              		@ link register save eliminated.
  32:../../source/src/user/OS_LIB/buddy.c **** 	return (const struct buddy *)os_buddy_ptr_head;
 1148              		.loc 1 32 0
 1149 0560 014B     		ldr	r3, .L154
 1150 0562 5868     		ldr	r0, [r3, #4]
 1151 0564 1860     		str	r0, [r3]
  34:../../source/src/user/OS_LIB/buddy.c **** 
 1152              		.loc 1 34 0
 1153 0566 7047     		bx	lr
 1154              	.L155:
 1155              		.align	2
 1156              	.L154:
 1157 0568 00000000 		.word	.LANCHOR0
 1158              		.cfi_endproc
 1159              	.LFE5:
 1160              		.size	get_os_buddy_ptr_head, .-get_os_buddy_ptr_head
 1161              		.align	1
 1162              		.p2align 2,,3
 1163              		.global	get_next_buddy_ptr_head
 1164              		.syntax unified
 1165              		.thumb
 1166              		.thumb_func
 1167              		.fpu softvfp
 1168              		.type	get_next_buddy_ptr_head, %function
 1169              	get_next_buddy_ptr_head:
 1170              	.LFB6:
  37:../../source/src/user/OS_LIB/buddy.c **** 	if(NULL == buddy_ptr->next)
 1171              		.loc 1 37 0
 1172              		.cfi_startproc
 1173              		@ args = 0, pretend = 0, frame = 0
ARM GAS  G:\Users\Jaxb\AppData\Local\Temp\ccbV8Tbs.s 			page 34


 1174              		@ frame_needed = 0, uses_anonymous_args = 0
 1175              		@ link register save eliminated.
 1176              	.LVL120:
  38:../../source/src/user/OS_LIB/buddy.c **** 	{
 1177              		.loc 1 38 0
 1178 056c 406B     		ldr	r0, [r0, #52]
 1179              	.LVL121:
  40:../../source/src/user/OS_LIB/buddy.c **** 		return NULL;
 1180              		.loc 1 40 0
 1181 056e 034B     		ldr	r3, .L160
  38:../../source/src/user/OS_LIB/buddy.c **** 	{
 1182              		.loc 1 38 0
 1183 0570 08B1     		cbz	r0, .L159
  43:../../source/src/user/OS_LIB/buddy.c **** 	return (const struct buddy *)current_used_buddy_ptr;
 1184              		.loc 1 43 0
 1185 0572 1860     		str	r0, [r3]
  45:../../source/src/user/OS_LIB/buddy.c **** 
 1186              		.loc 1 45 0
 1187 0574 7047     		bx	lr
 1188              	.L159:
  40:../../source/src/user/OS_LIB/buddy.c **** 		return NULL;
 1189              		.loc 1 40 0
 1190 0576 5A68     		ldr	r2, [r3, #4]
 1191 0578 1A60     		str	r2, [r3]
  41:../../source/src/user/OS_LIB/buddy.c **** 	}
 1192              		.loc 1 41 0
 1193 057a 7047     		bx	lr
 1194              	.L161:
 1195              		.align	2
 1196              	.L160:
 1197 057c 00000000 		.word	.LANCHOR0
 1198              		.cfi_endproc
 1199              	.LFE6:
 1200              		.size	get_next_buddy_ptr_head, .-get_next_buddy_ptr_head
 1201              		.align	1
 1202              		.p2align 2,,3
 1203              		.global	get_current_buddy_space
 1204              		.syntax unified
 1205              		.thumb
 1206              		.thumb_func
 1207              		.fpu softvfp
 1208              		.type	get_current_buddy_space, %function
 1209              	get_current_buddy_space:
 1210              	.LFB7:
  48:../../source/src/user/OS_LIB/buddy.c **** 	CPU_SR_ALLOC();
 1211              		.loc 1 48 0
 1212              		.cfi_startproc
 1213              		@ args = 0, pretend = 0, frame = 0
 1214              		@ frame_needed = 0, uses_anonymous_args = 0
 1215              	.LVL122:
 1216 0580 10B5     		push	{r4, lr}
 1217              	.LCFI10:
 1218              		.cfi_def_cfa_offset 8
 1219              		.cfi_offset 4, -8
 1220              		.cfi_offset 14, -4
  50:../../source/src/user/OS_LIB/buddy.c **** 	unsigned int buffer = current_used_buddy_ptr->current_page_num;
 1221              		.loc 1 50 0
ARM GAS  G:\Users\Jaxb\AppData\Local\Temp\ccbV8Tbs.s 			page 35


 1222 0582 FFF7FEFF 		bl	CPU_SR_Save
 1223              	.LVL123:
  51:../../source/src/user/OS_LIB/buddy.c **** 	CPU_CRITICAL_EXIT();
 1224              		.loc 1 51 0
 1225 0586 034B     		ldr	r3, .L163
 1226 0588 1B68     		ldr	r3, [r3]
 1227 058a DC69     		ldr	r4, [r3, #28]
 1228              	.LVL124:
  52:../../source/src/user/OS_LIB/buddy.c **** 	return buffer;
 1229              		.loc 1 52 0
 1230 058c FFF7FEFF 		bl	CPU_SR_Restore
 1231              	.LVL125:
  54:../../source/src/user/OS_LIB/buddy.c **** 
 1232              		.loc 1 54 0
 1233 0590 2046     		mov	r0, r4
 1234 0592 10BD     		pop	{r4, pc}
 1235              	.LVL126:
 1236              	.L164:
 1237              		.align	2
 1238              	.L163:
 1239 0594 00000000 		.word	.LANCHOR0
 1240              		.cfi_endproc
 1241              	.LFE7:
 1242              		.size	get_current_buddy_space, .-get_current_buddy_space
 1243              		.align	1
 1244              		.p2align 2,,3
 1245              		.global	in_buddy_range
 1246              		.syntax unified
 1247              		.thumb
 1248              		.thumb_func
 1249              		.fpu softvfp
 1250              		.type	in_buddy_range, %function
 1251              	in_buddy_range:
 1252              	.LFB15:
 163:../../source/src/user/OS_LIB/buddy.c **** 	if(((unsigned int)ptr >= (unsigned int)current_used_buddy_ptr->buddy_space_start_ptr) 
 1253              		.loc 1 163 0
 1254              		.cfi_startproc
 1255              		@ args = 0, pretend = 0, frame = 0
 1256              		@ frame_needed = 0, uses_anonymous_args = 0
 1257              		@ link register save eliminated.
 1258              	.LVL127:
 164:../../source/src/user/OS_LIB/buddy.c **** 			&& ((unsigned int)ptr < (unsigned int)current_used_buddy_ptr + current_used_buddy_ptr->info.page
 1259              		.loc 1 164 0
 1260 0598 084B     		ldr	r3, .L168
 1261 059a 1B68     		ldr	r3, [r3]
 1262 059c 9A6B     		ldr	r2, [r3, #56]
 1263 059e 8242     		cmp	r2, r0
 1264 05a0 08D8     		bhi	.L167
 165:../../source/src/user/OS_LIB/buddy.c **** 	{
 1265              		.loc 1 165 0
 1266 05a2 5A6A     		ldr	r2, [r3, #36]
 1267 05a4 03EB8223 		add	r3, r3, r2, lsl #10
 1268 05a8 9842     		cmp	r0, r3
 1269 05aa 4FF0FF30 		mov	r0, #-1
 1270              	.LVL128:
 1271 05ae 38BF     		it	cc
 1272 05b0 0020     		movcc	r0, #0
ARM GAS  G:\Users\Jaxb\AppData\Local\Temp\ccbV8Tbs.s 			page 36


 1273 05b2 7047     		bx	lr
 1274              	.LVL129:
 1275              	.L167:
 169:../../source/src/user/OS_LIB/buddy.c **** } 
 1276              		.loc 1 169 0
 1277 05b4 4FF0FF30 		mov	r0, #-1
 1278              	.LVL130:
 170:../../source/src/user/OS_LIB/buddy.c **** 
 1279              		.loc 1 170 0
 1280 05b8 7047     		bx	lr
 1281              	.L169:
 1282 05ba 00BF     		.align	2
 1283              	.L168:
 1284 05bc 00000000 		.word	.LANCHOR0
 1285              		.cfi_endproc
 1286              	.LFE15:
 1287              		.size	in_buddy_range, .-in_buddy_range
 1288              		.align	1
 1289              		.p2align 2,,3
 1290              		.global	buddy_init
 1291              		.syntax unified
 1292              		.thumb
 1293              		.thumb_func
 1294              		.fpu softvfp
 1295              		.type	buddy_init, %function
 1296              	buddy_init:
 1297              	.LFB17:
 224:../../source/src/user/OS_LIB/buddy.c **** 	unsigned int size;
 1298              		.loc 1 224 0
 1299              		.cfi_startproc
 1300              		@ args = 0, pretend = 0, frame = 8
 1301              		@ frame_needed = 0, uses_anonymous_args = 0
 1302              	.LVL131:
 230:../../source/src/user/OS_LIB/buddy.c **** 	{
 1303              		.loc 1 230 0
 1304 05c0 0368     		ldr	r3, [r0]
 224:../../source/src/user/OS_LIB/buddy.c **** 	unsigned int size;
 1305              		.loc 1 224 0
 1306 05c2 2DE9F041 		push	{r4, r5, r6, r7, r8, lr}
 1307              	.LCFI11:
 1308              		.cfi_def_cfa_offset 24
 1309              		.cfi_offset 4, -24
 1310              		.cfi_offset 5, -20
 1311              		.cfi_offset 6, -16
 1312              		.cfi_offset 7, -12
 1313              		.cfi_offset 8, -8
 1314              		.cfi_offset 14, -4
 230:../../source/src/user/OS_LIB/buddy.c **** 	{
 1315              		.loc 1 230 0
 1316 05c6 012B     		cmp	r3, #1
 232:../../source/src/user/OS_LIB/buddy.c **** 	}
 1317              		.loc 1 232 0
 1318 05c8 18BF     		it	ne
 1319 05ca 4468     		ldrne	r4, [r0, #4]
 1320              	.LVL132:
 224:../../source/src/user/OS_LIB/buddy.c **** 	unsigned int size;
 1321              		.loc 1 224 0
ARM GAS  G:\Users\Jaxb\AppData\Local\Temp\ccbV8Tbs.s 			page 37


 1322 05cc 0646     		mov	r6, r0
 241:../../source/src/user/OS_LIB/buddy.c **** 	if(dev_mem_para_ptr->size % (PAGE_SIZE_KB * 8 * sizeof(Flag_Type)))
 1323              		.loc 1 241 0
 1324 05ce 8068     		ldr	r0, [r0, #8]
 1325              	.LVL133:
 236:../../source/src/user/OS_LIB/buddy.c **** 	}
 1326              		.loc 1 236 0
 1327 05d0 08BF     		it	eq
 1328 05d2 684C     		ldreq	r4, .L217
 1329              	.LVL134:
 241:../../source/src/user/OS_LIB/buddy.c **** 	if(dev_mem_para_ptr->size % (PAGE_SIZE_KB * 8 * sizeof(Flag_Type)))
 1330              		.loc 1 241 0
 1331 05d4 4209     		lsrs	r2, r0, #5
 1332              	.LVL135:
 242:../../source/src/user/OS_LIB/buddy.c **** 	{
 1333              		.loc 1 242 0
 1334 05d6 C106     		lsls	r1, r0, #27
 244:../../source/src/user/OS_LIB/buddy.c **** 	}
 1335              		.loc 1 244 0
 1336 05d8 18BF     		it	ne
 1337 05da 0132     		addne	r2, r2, #1
 1338              	.LVL136:
 247:../../source/src/user/OS_LIB/buddy.c **** 	buddy_ptr->link_body = (struct order_link *)((char *)buddy_ptr->flag + size*sizeof(Flag_Type));
 1339              		.loc 1 247 0
 1340 05dc 9700     		lsls	r7, r2, #2
 1341              	.LVL137:
 240:../../source/src/user/OS_LIB/buddy.c **** 	size = dev_mem_para_ptr->size / (PAGE_SIZE_KB * 8 * sizeof(Flag_Type));
 1342              		.loc 1 240 0
 1343 05de 04F13C03 		add	r3, r4, #60
 252:../../source/src/user/OS_LIB/buddy.c **** 	buddy_ptr->order_link_flag = (Page_Num_Type *)((char *)buddy_ptr->link_body + size * sizeof(struct
 1344              		.loc 1 252 0
 1345 05e2 8100     		lsls	r1, r0, #2
 240:../../source/src/user/OS_LIB/buddy.c **** 	size = dev_mem_para_ptr->size / (PAGE_SIZE_KB * 8 * sizeof(Flag_Type));
 1346              		.loc 1 240 0
 1347 05e4 2360     		str	r3, [r4]
 248:../../source/src/user/OS_LIB/buddy.c **** //allocate room for link_body[current_used_buddy_ptr->info.page_num]
 1348              		.loc 1 248 0
 1349 05e6 3B44     		add	r3, r3, r7
 253:../../source/src/user/OS_LIB/buddy.c **** //allocate room for order_link_flag[current_used_buddy_ptr->info.page_num]	
 1350              		.loc 1 253 0
 1351 05e8 03EB010C 		add	ip, r3, r1
 255:../../source/src/user/OS_LIB/buddy.c **** 	buddy_ptr->order_array = (Page_Num_Type *)((char *)buddy_ptr->order_link_flag + size * sizeof(Page
 1352              		.loc 1 255 0
 1353 05ec 4FEA4008 		lsl	r8, r0, #1
 248:../../source/src/user/OS_LIB/buddy.c **** //allocate room for link_body[current_used_buddy_ptr->info.page_num]
 1354              		.loc 1 248 0
 1355 05f0 6360     		str	r3, [r4, #4]
 1356              	.LVL138:
 238:../../source/src/user/OS_LIB/buddy.c **** //1.allocate room for flag[current_used_buddy_ptr->info.flag_array_num]
 1357              		.loc 1 238 0
 1358 05f2 614D     		ldr	r5, .L217+4
 256:../../source/src/user/OS_LIB/buddy.c **** //allocate room for order_array[current_used_buddy_ptr->info.max_level]	
 1359              		.loc 1 256 0
 1360 05f4 0CEB0803 		add	r3, ip, r8
 224:../../source/src/user/OS_LIB/buddy.c **** 	unsigned int size;
 1361              		.loc 1 224 0
 1362 05f8 82B0     		sub	sp, sp, #8
ARM GAS  G:\Users\Jaxb\AppData\Local\Temp\ccbV8Tbs.s 			page 38


 1363              	.LCFI12:
 1364              		.cfi_def_cfa_offset 32
 246:../../source/src/user/OS_LIB/buddy.c **** 	size_sum += size*sizeof(Flag_Type);
 1365              		.loc 1 246 0
 1366 05fa 2262     		str	r2, [r4, #32]
 256:../../source/src/user/OS_LIB/buddy.c **** //allocate room for order_array[current_used_buddy_ptr->info.max_level]	
 1367              		.loc 1 256 0
 1368 05fc C4E903C3 		strd	ip, r3, [r4, #12]
 251:../../source/src/user/OS_LIB/buddy.c **** 	size_sum += size * sizeof(struct order_link);
 1369              		.loc 1 251 0
 1370 0600 6062     		str	r0, [r4, #36]
 1371 0602 8844     		add	r8, r8, r1
 1372              	.LVL139:
 238:../../source/src/user/OS_LIB/buddy.c **** //1.allocate room for flag[current_used_buddy_ptr->info.flag_array_num]
 1373              		.loc 1 238 0
 1374 0604 2C60     		str	r4, [r5]
 1375              	.LBB130:
 1376              	.LBB131:
  27:../../source/src/user/OS_LIB/buddy.c **** }
 1377              		.loc 1 27 0
 1378 0606 FFF7FEFF 		bl	get_set_bit_place
 1379              	.LVL140:
 1380              	.LBE131:
 1381              	.LBE130:
 270:../../source/src/user/OS_LIB/buddy.c **** 	buddy_ptr->info.prio = dev_mem_para_ptr->prio;
 1382              		.loc 1 270 0
 1383 060a 0022     		movs	r2, #0
 266:../../source/src/user/OS_LIB/buddy.c **** 	buddy_ptr->buddy_struct_size = size_sum;
 1384              		.loc 1 266 0
 1385 060c 07EB0801 		add	r1, r7, r8
 261:../../source/src/user/OS_LIB/buddy.c **** //allocate room for level_flag_base[buddy_ptr->info.level_flag_base_size]
 1386              		.loc 1 261 0
 1387 0610 2369     		ldr	r3, [r4, #16]
 268:../../source/src/user/OS_LIB/buddy.c **** 	buddy_ptr->buddy_space_start_ptr = (Buddy_Space_Type *)(dev_mem_para_ptr->start);
 1388              		.loc 1 268 0
 1389 0612 B768     		ldr	r7, [r6, #8]
 266:../../source/src/user/OS_LIB/buddy.c **** 	buddy_ptr->buddy_struct_size = size_sum;
 1390              		.loc 1 266 0
 1391 0614 01EB8001 		add	r1, r1, r0, lsl #2
 268:../../source/src/user/OS_LIB/buddy.c **** 	buddy_ptr->buddy_space_start_ptr = (Buddy_Space_Type *)(dev_mem_para_ptr->start);
 1392              		.loc 1 268 0
 1393 0618 0197     		str	r7, [sp, #4]
 269:../../source/src/user/OS_LIB/buddy.c **** 	buddy_ptr->next = NULL;
 1394              		.loc 1 269 0
 1395 061a 7768     		ldr	r7, [r6, #4]
 267:../../source/src/user/OS_LIB/buddy.c **** 	buddy_ptr->current_page_num = dev_mem_para_ptr->size / PAGE_SIZE_KB;
 1396              		.loc 1 267 0
 1397 061c A161     		str	r1, [r4, #24]
 261:../../source/src/user/OS_LIB/buddy.c **** //allocate room for level_flag_base[buddy_ptr->info.level_flag_base_size]
 1398              		.loc 1 261 0
 1399 061e 03EB4001 		add	r1, r3, r0, lsl #1
 1400 0622 6161     		str	r1, [r4, #20]
 1401              	.LVL141:
 271:../../source/src/user/OS_LIB/buddy.c **** //init the data
 1402              		.loc 1 271 0
 1403 0624 3168     		ldr	r1, [r6]
 269:../../source/src/user/OS_LIB/buddy.c **** 	buddy_ptr->next = NULL;
ARM GAS  G:\Users\Jaxb\AppData\Local\Temp\ccbV8Tbs.s 			page 39


 1404              		.loc 1 269 0
 1405 0626 A763     		str	r7, [r4, #56]
 271:../../source/src/user/OS_LIB/buddy.c **** //init the data
 1406              		.loc 1 271 0
 1407 0628 E162     		str	r1, [r4, #44]
 273:../../source/src/user/OS_LIB/buddy.c **** 		buddy_ptr->flag[i] = 0;
 1408              		.loc 1 273 0
 1409 062a 276A     		ldr	r7, [r4, #32]
 268:../../source/src/user/OS_LIB/buddy.c **** 	buddy_ptr->buddy_space_start_ptr = (Buddy_Space_Type *)(dev_mem_para_ptr->start);
 1410              		.loc 1 268 0
 1411 062c 0199     		ldr	r1, [sp, #4]
 259:../../source/src/user/OS_LIB/buddy.c **** 	size_sum += size * sizeof(Page_Num_Type);
 1412              		.loc 1 259 0
 1413 062e A062     		str	r0, [r4, #40]
 265:../../source/src/user/OS_LIB/buddy.c **** 	size_sum += size * sizeof(UINT16);
 1414              		.loc 1 265 0
 1415 0630 2063     		str	r0, [r4, #48]
 268:../../source/src/user/OS_LIB/buddy.c **** 	buddy_ptr->buddy_space_start_ptr = (Buddy_Space_Type *)(dev_mem_para_ptr->start);
 1416              		.loc 1 268 0
 1417 0632 E161     		str	r1, [r4, #28]
 270:../../source/src/user/OS_LIB/buddy.c **** 	buddy_ptr->info.prio = dev_mem_para_ptr->prio;
 1418              		.loc 1 270 0
 1419 0634 6263     		str	r2, [r4, #52]
 273:../../source/src/user/OS_LIB/buddy.c **** 		buddy_ptr->flag[i] = 0;
 1420              		.loc 1 273 0
 1421 0636 4FB1     		cbz	r7, .L173
 274:../../source/src/user/OS_LIB/buddy.c **** 
 1422              		.loc 1 274 0
 1423 0638 1746     		mov	r7, r2
 1424 063a 2168     		ldr	r1, [r4]
 1425 063c 0439     		subs	r1, r1, #4
 1426              	.LVL142:
 1427              	.L174:
 274:../../source/src/user/OS_LIB/buddy.c **** 
 1428              		.loc 1 274 0 is_stmt 0 discriminator 3
 1429 063e 41F8047F 		str	r7, [r1, #4]!
 273:../../source/src/user/OS_LIB/buddy.c **** 		buddy_ptr->flag[i] = 0;
 1430              		.loc 1 273 0 is_stmt 1 discriminator 3
 1431 0642 206A     		ldr	r0, [r4, #32]
 1432 0644 0132     		adds	r2, r2, #1
 1433              	.LVL143:
 1434 0646 9042     		cmp	r0, r2
 1435 0648 F9D8     		bhi	.L174
 1436 064a A06A     		ldr	r0, [r4, #40]
 1437              	.LVL144:
 1438              	.L173:
 276:../../source/src/user/OS_LIB/buddy.c **** 
 1439              		.loc 1 276 0
 1440 064c 0022     		movs	r2, #0
 278:../../source/src/user/OS_LIB/buddy.c **** 		buddy_ptr->order_link_flag[i] = i+1;
 1441              		.loc 1 278 0
 1442 064e 616A     		ldr	r1, [r4, #36]
 276:../../source/src/user/OS_LIB/buddy.c **** 
 1443              		.loc 1 276 0
 1444 0650 2281     		strh	r2, [r4, #8]	@ movhi
 1445              	.LVL145:
 278:../../source/src/user/OS_LIB/buddy.c **** 		buddy_ptr->order_link_flag[i] = i+1;
ARM GAS  G:\Users\Jaxb\AppData\Local\Temp\ccbV8Tbs.s 			page 40


 1446              		.loc 1 278 0
 1447 0652 0129     		cmp	r1, #1
 1448 0654 D4F80CE0 		ldr	lr, [r4, #12]
 1449 0658 0BD0     		beq	.L175
 1450 065a AEF1020C 		sub	ip, lr, #2
 1451 065e 0122     		movs	r2, #1
 1452 0660 00E0     		b	.L176
 1453              	.LVL146:
 1454              	.L193:
 1455 0662 3A46     		mov	r2, r7
 1456              	.LVL147:
 1457              	.L176:
 1458 0664 571C     		adds	r7, r2, #1
 278:../../source/src/user/OS_LIB/buddy.c **** 		buddy_ptr->order_link_flag[i] = i+1;
 1459              		.loc 1 278 0 is_stmt 0 discriminator 3
 1460 0666 8F42     		cmp	r7, r1
 279:../../source/src/user/OS_LIB/buddy.c **** 	buddy_ptr->order_link_flag[i] = NOTHING;
 1461              		.loc 1 279 0 is_stmt 1 discriminator 3
 1462 0668 2CF8022F 		strh	r2, [ip, #2]!	@ movhi
 1463              	.LVL148:
 278:../../source/src/user/OS_LIB/buddy.c **** 		buddy_ptr->order_link_flag[i] = i+1;
 1464              		.loc 1 278 0 discriminator 3
 1465 066c F9D1     		bne	.L193
 1466 066e 0EEB420E 		add	lr, lr, r2, lsl #1
 1467              	.LVL149:
 1468              	.L175:
 280:../../source/src/user/OS_LIB/buddy.c **** 
 1469              		.loc 1 280 0
 1470 0672 4FF6FF72 		movw	r2, #65535
 1471 0676 AEF80020 		strh	r2, [lr]	@ movhi
 1472              	.LVL150:
 282:../../source/src/user/OS_LIB/buddy.c **** 		buddy_ptr->order_array[i] = NOTHING;
 1473              		.loc 1 282 0
 1474 067a 0028     		cmp	r0, #0
 1475 067c 73D0     		beq	.L194
 1476 067e 023B     		subs	r3, r3, #2
 1477 0680 03EB4001 		add	r1, r3, r0, lsl #1
 1478              	.LVL151:
 1479              	.L178:
 283:../../source/src/user/OS_LIB/buddy.c **** 
 1480              		.loc 1 283 0 discriminator 3
 1481 0684 23F8022F 		strh	r2, [r3, #2]!	@ movhi
 282:../../source/src/user/OS_LIB/buddy.c **** 		buddy_ptr->order_array[i] = NOTHING;
 1482              		.loc 1 282 0 discriminator 3
 1483 0688 9942     		cmp	r1, r3
 1484 068a FBD1     		bne	.L178
 1485 068c 411E     		subs	r1, r0, #1
 1486              	.L177:
 285:../../source/src/user/OS_LIB/buddy.c **** 	buddy_ptr->level_flag_base[0] = 0;
 1487              		.loc 1 285 0
 1488 068e 0220     		movs	r0, #2
 1489 0690 FFF7FEFF 		bl	ka_pow
 1490              	.LVL152:
 286:../../source/src/user/OS_LIB/buddy.c **** 	for(i=1;i<buddy_ptr->info.level_flag_base_size;++i,buffer/=2)
 1491              		.loc 1 286 0
 1492 0694 0023     		movs	r3, #0
 287:../../source/src/user/OS_LIB/buddy.c **** 		buddy_ptr->level_flag_base[i] = buddy_ptr->level_flag_base[i-1] + buffer;
ARM GAS  G:\Users\Jaxb\AppData\Local\Temp\ccbV8Tbs.s 			page 41


 1493              		.loc 1 287 0
 1494 0696 216B     		ldr	r1, [r4, #48]
 286:../../source/src/user/OS_LIB/buddy.c **** 	for(i=1;i<buddy_ptr->info.level_flag_base_size;++i,buffer/=2)
 1495              		.loc 1 286 0
 1496 0698 6269     		ldr	r2, [r4, #20]
 287:../../source/src/user/OS_LIB/buddy.c **** 		buddy_ptr->level_flag_base[i] = buddy_ptr->level_flag_base[i-1] + buffer;
 1497              		.loc 1 287 0
 1498 069a 0129     		cmp	r1, #1
 286:../../source/src/user/OS_LIB/buddy.c **** 	for(i=1;i<buddy_ptr->info.level_flag_base_size;++i,buffer/=2)
 1499              		.loc 1 286 0
 1500 069c 1380     		strh	r3, [r2]	@ movhi
 1501              	.LVL153:
 287:../../source/src/user/OS_LIB/buddy.c **** 		buddy_ptr->level_flag_base[i] = buddy_ptr->level_flag_base[i-1] + buffer;
 1502              		.loc 1 287 0
 1503 069e 0AD9     		bls	.L179
 1504 06a0 02EB4101 		add	r1, r2, r1, lsl #1
 1505 06a4 0239     		subs	r1, r1, #2
 1506              	.LVL154:
 1507              	.L180:
 288:../../source/src/user/OS_LIB/buddy.c **** //set the order_array[current_used_buddy_ptr->info.max_level],and then allocate a room for struct b
 1508              		.loc 1 288 0 discriminator 3
 1509 06a6 0344     		add	r3, r3, r0
 1510 06a8 9BB2     		uxth	r3, r3
 1511 06aa 22F8023F 		strh	r3, [r2, #2]!	@ movhi
 287:../../source/src/user/OS_LIB/buddy.c **** 		buddy_ptr->level_flag_base[i] = buddy_ptr->level_flag_base[i-1] + buffer;
 1512              		.loc 1 287 0 discriminator 3
 1513 06ae 9142     		cmp	r1, r2
 1514 06b0 4FEA5000 		lsr	r0, r0, #1
 1515              	.LVL155:
 1516 06b4 F7D1     		bne	.L180
 1517              	.L179:
 291:../../source/src/user/OS_LIB/buddy.c **** 	_add_to_order_array(buddy_ptr->info.max_level,0);
 1518              		.loc 1 291 0
 1519 06b6 0121     		movs	r1, #1
 1520 06b8 A06A     		ldr	r0, [r4, #40]
 1521              	.LVL156:
 1522 06ba 431E     		subs	r3, r0, #1
 1523 06bc 9940     		lsls	r1, r1, r3
 1524 06be 89B2     		uxth	r1, r1
 1525 06c0 FFF79EFC 		bl	_add_to_order_array
 1526              	.LVL157:
 292:../../source/src/user/OS_LIB/buddy.c **** //mark the space used by struct buddy
 1527              		.loc 1 292 0
 1528 06c4 0021     		movs	r1, #0
 1529 06c6 A06A     		ldr	r0, [r4, #40]
 1530 06c8 FFF79AFC 		bl	_add_to_order_array
 1531              	.LVL158:
 294:../../source/src/user/OS_LIB/buddy.c **** 	PRINTF("space used by os is %d\n",size);
 1532              		.loc 1 294 0
 1533 06cc 7268     		ldr	r2, [r6, #4]
 1534 06ce A669     		ldr	r6, [r4, #24]
 1535              	.LVL159:
 1536 06d0 C2F13C02 		rsb	r2, r2, #60
 1537 06d4 2244     		add	r2, r2, r4
 1538 06d6 1644     		add	r6, r6, r2
 1539              	.LVL160:
 295:../../source/src/user/OS_LIB/buddy.c **** 	if(size % PAGE_SIZE_BYTE)
ARM GAS  G:\Users\Jaxb\AppData\Local\Temp\ccbV8Tbs.s 			page 42


 1540              		.loc 1 295 0
 1541 06d8 3146     		mov	r1, r6
 1542 06da 2848     		ldr	r0, .L217+8
 1543 06dc FFF7FEFF 		bl	ka_printf
 1544              	.LVL161:
 296:../../source/src/user/OS_LIB/buddy.c **** 	{
 1545              		.loc 1 296 0
 1546 06e0 C6F30903 		ubfx	r3, r6, #0, #10
 298:../../source/src/user/OS_LIB/buddy.c **** 	}
 1547              		.loc 1 298 0
 1548 06e4 B20A     		lsrs	r2, r6, #10
 296:../../source/src/user/OS_LIB/buddy.c **** 	{
 1549              		.loc 1 296 0
 1550 06e6 03B1     		cbz	r3, .L182
 298:../../source/src/user/OS_LIB/buddy.c **** 	}
 1551              		.loc 1 298 0
 1552 06e8 0132     		adds	r2, r2, #1
 1553              	.LVL162:
 1554              	.L182:
 304:../../source/src/user/OS_LIB/buddy.c **** 	{
 1555              		.loc 1 304 0
 1556 06ea 2B68     		ldr	r3, [r5]
 1557 06ec 9E6A     		ldr	r6, [r3, #40]
 1558 06ee 66B1     		cbz	r6, .L183
 306:../../source/src/user/OS_LIB/buddy.c **** 		{
 1559              		.loc 1 306 0
 1560 06f0 012A     		cmp	r2, #1
 1561 06f2 3BD9     		bls	.L195
 304:../../source/src/user/OS_LIB/buddy.c **** 	{
 1562              		.loc 1 304 0
 1563 06f4 0020     		movs	r0, #0
 306:../../source/src/user/OS_LIB/buddy.c **** 		{
 1564              		.loc 1 306 0
 1565 06f6 0127     		movs	r7, #1
 1566 06f8 02E0     		b	.L185
 1567              	.LVL163:
 1568              	.L187:
 1569 06fa 9142     		cmp	r1, r2
 1570 06fc 20D2     		bcs	.L215
 1571 06fe 1846     		mov	r0, r3
 1572              	.LVL164:
 1573              	.L185:
 304:../../source/src/user/OS_LIB/buddy.c **** 	{
 1574              		.loc 1 304 0 discriminator 2
 1575 0700 431C     		adds	r3, r0, #1
 1576              	.LVL165:
 1577 0702 B342     		cmp	r3, r6
 306:../../source/src/user/OS_LIB/buddy.c **** 		{
 1578              		.loc 1 306 0 discriminator 2
 1579 0704 07FA03F1 		lsl	r1, r7, r3
 304:../../source/src/user/OS_LIB/buddy.c **** 	{
 1580              		.loc 1 304 0 discriminator 2
 1581 0708 F7D1     		bne	.L187
 1582              	.LVL166:
 1583              	.L183:
 314:../../source/src/user/OS_LIB/buddy.c **** final_step:
 1584              		.loc 1 314 0 discriminator 1
ARM GAS  G:\Users\Jaxb\AppData\Local\Temp\ccbV8Tbs.s 			page 43


 1585 070a 4FF49D71 		mov	r1, #314
 1586 070e 1C48     		ldr	r0, .L217+12
 1587 0710 FFF7FEFF 		bl	_ASSERT
 1588              	.LVL167:
 1589              	.L186:
 1590              	.LBB132:
 1591              	.LBB133:
 174:../../source/src/user/OS_LIB/buddy.c **** 	{
 1592              		.loc 1 174 0
 1593 0714 6A68     		ldr	r2, [r5, #4]
 1594 0716 22B1     		cbz	r2, .L214
 178:../../source/src/user/OS_LIB/buddy.c **** 	{
 1595              		.loc 1 178 0
 1596 0718 E06A     		ldr	r0, [r4, #44]
 1597 071a D36A     		ldr	r3, [r2, #44]
 1598 071c 8342     		cmp	r3, r0
 1599 071e 08D9     		bls	.L190
 180:../../source/src/user/OS_LIB/buddy.c **** 		os_buddy_ptr_head = buddy_ptr;
 1600              		.loc 1 180 0
 1601 0720 6263     		str	r2, [r4, #52]
 1602              	.L214:
 181:../../source/src/user/OS_LIB/buddy.c **** 	}
 1603              		.loc 1 181 0
 1604 0722 6C60     		str	r4, [r5, #4]
 1605              	.LBE133:
 1606              	.LBE132:
 318:../../source/src/user/OS_LIB/buddy.c **** 
 1607              		.loc 1 318 0
 1608 0724 02B0     		add	sp, sp, #8
 1609              	.LCFI13:
 1610              		.cfi_remember_state
 1611              		.cfi_def_cfa_offset 24
 1612              		@ sp needed
 1613 0726 BDE8F081 		pop	{r4, r5, r6, r7, r8, pc}
 1614              	.LVL168:
 1615              	.L191:
 1616              	.LCFI14:
 1617              		.cfi_restore_state
 1618              	.LBB138:
 1619              	.LBB136:
 1620              	.LBB134:
 188:../../source/src/user/OS_LIB/buddy.c **** 			{
 1621              		.loc 1 188 0
 1622 072a D96A     		ldr	r1, [r3, #44]
 1623 072c 8842     		cmp	r0, r1
 1624 072e 15D3     		bcc	.L216
 1625 0730 1A46     		mov	r2, r3
 1626              	.LVL169:
 1627              	.L190:
 186:../../source/src/user/OS_LIB/buddy.c **** 		{
 1628              		.loc 1 186 0
 1629 0732 536B     		ldr	r3, [r2, #52]
 1630 0734 002B     		cmp	r3, #0
 1631 0736 F8D1     		bne	.L191
 196:../../source/src/user/OS_LIB/buddy.c **** 	}
 1632              		.loc 1 196 0
 1633 0738 5463     		str	r4, [r2, #52]
ARM GAS  G:\Users\Jaxb\AppData\Local\Temp\ccbV8Tbs.s 			page 44


 1634              	.LVL170:
 1635              	.LBE134:
 1636              	.LBE136:
 1637              	.LBE138:
 318:../../source/src/user/OS_LIB/buddy.c **** 
 1638              		.loc 1 318 0
 1639 073a 02B0     		add	sp, sp, #8
 1640              	.LCFI15:
 1641              		.cfi_remember_state
 1642              		.cfi_def_cfa_offset 24
 1643              		@ sp needed
 1644 073c BDE8F081 		pop	{r4, r5, r6, r7, r8, pc}
 1645              	.LVL171:
 1646              	.L215:
 1647              	.LCFI16:
 1648              		.cfi_restore_state
 1649 0740 0F46     		mov	r7, r1
 1650 0742 861C     		adds	r6, r0, #2
 1651              	.LVL172:
 1652              	.L184:
 308:../../source/src/user/OS_LIB/buddy.c **** 			_alloc_page(i+1);
 1653              		.loc 1 308 0
 1654 0744 3146     		mov	r1, r6
 1655 0746 0F48     		ldr	r0, .L217+16
 1656 0748 FFF7FEFF 		bl	ka_printf
 1657              	.LVL173:
 309:../../source/src/user/OS_LIB/buddy.c **** 			current_used_buddy_ptr->current_page_num -= 0x01<<i;
 1658              		.loc 1 309 0
 1659 074c 3046     		mov	r0, r6
 1660 074e FFF7EBFC 		bl	_alloc_page
 1661              	.LVL174:
 310:../../source/src/user/OS_LIB/buddy.c **** 			goto final_step;
 1662              		.loc 1 310 0
 1663 0752 2B68     		ldr	r3, [r5]
 1664 0754 D969     		ldr	r1, [r3, #28]
 1665 0756 C91B     		subs	r1, r1, r7
 1666 0758 D961     		str	r1, [r3, #28]
 311:../../source/src/user/OS_LIB/buddy.c **** 		}
 1667              		.loc 1 311 0
 1668 075a DBE7     		b	.L186
 1669              	.LVL175:
 1670              	.L216:
 1671              	.LBB139:
 1672              	.LBB137:
 1673              	.LBB135:
 190:../../source/src/user/OS_LIB/buddy.c **** 				buffer_ptr->next = buddy_ptr;
 1674              		.loc 1 190 0
 1675 075c 6363     		str	r3, [r4, #52]
 191:../../source/src/user/OS_LIB/buddy.c **** 				return ;
 1676              		.loc 1 191 0
 1677 075e 5463     		str	r4, [r2, #52]
 1678              	.LBE135:
 1679              	.LBE137:
 1680              	.LBE139:
 318:../../source/src/user/OS_LIB/buddy.c **** 
 1681              		.loc 1 318 0
 1682 0760 02B0     		add	sp, sp, #8
ARM GAS  G:\Users\Jaxb\AppData\Local\Temp\ccbV8Tbs.s 			page 45


 1683              	.LCFI17:
 1684              		.cfi_remember_state
 1685              		.cfi_def_cfa_offset 24
 1686              		@ sp needed
 1687 0762 BDE8F081 		pop	{r4, r5, r6, r7, r8, pc}
 1688              	.LVL176:
 1689              	.L194:
 1690              	.LCFI18:
 1691              		.cfi_restore_state
 282:../../source/src/user/OS_LIB/buddy.c **** 		buddy_ptr->order_array[i] = NOTHING;
 1692              		.loc 1 282 0
 1693 0766 4FF0FF31 		mov	r1, #-1
 1694 076a 90E7     		b	.L177
 1695              	.LVL177:
 1696              	.L195:
 306:../../source/src/user/OS_LIB/buddy.c **** 		{
 1697              		.loc 1 306 0
 1698 076c 0127     		movs	r7, #1
 1699 076e 3E46     		mov	r6, r7
 1700 0770 E8E7     		b	.L184
 1701              	.L218:
 1702 0772 00BF     		.align	2
 1703              	.L217:
 1704 0774 04000000 		.word	_ebss+4
 1705 0778 00000000 		.word	.LANCHOR0
 1706 077c 28000000 		.word	.LC1
 1707 0780 00000000 		.word	.LC0
 1708 0784 40000000 		.word	.LC2
 1709              		.cfi_endproc
 1710              	.LFE17:
 1711              		.size	buddy_init, .-buddy_init
 1712              		.align	1
 1713              		.p2align 2,,3
 1714              		.global	alloc_power1_page
 1715              		.syntax unified
 1716              		.thumb
 1717              		.thumb_func
 1718              		.fpu softvfp
 1719              		.type	alloc_power1_page, %function
 1720              	alloc_power1_page:
 1721              	.LFB19:
 352:../../source/src/user/OS_LIB/buddy.c **** 	CPU_SR_ALLOC();
 1722              		.loc 1 352 0
 1723              		.cfi_startproc
 1724              		@ args = 0, pretend = 0, frame = 0
 1725              		@ frame_needed = 0, uses_anonymous_args = 0
 1726              	.LVL178:
 1727 0788 70B5     		push	{r4, r5, r6, lr}
 1728              	.LCFI19:
 1729              		.cfi_def_cfa_offset 16
 1730              		.cfi_offset 4, -16
 1731              		.cfi_offset 5, -12
 1732              		.cfi_offset 6, -8
 1733              		.cfi_offset 14, -4
 354:../../source/src/user/OS_LIB/buddy.c **** 	Page_Num_Type num = _alloc_page(1);
 1734              		.loc 1 354 0
 1735 078a FFF7FEFF 		bl	CPU_SR_Save
ARM GAS  G:\Users\Jaxb\AppData\Local\Temp\ccbV8Tbs.s 			page 46


 1736              	.LVL179:
 1737 078e 0646     		mov	r6, r0
 1738              	.LVL180:
 355:../../source/src/user/OS_LIB/buddy.c **** 	if(NOTHING != num)
 1739              		.loc 1 355 0
 1740 0790 0120     		movs	r0, #1
 1741              	.LVL181:
 1742 0792 FFF7C9FC 		bl	_alloc_page
 1743              	.LVL182:
 356:../../source/src/user/OS_LIB/buddy.c **** 	{
 1744              		.loc 1 356 0
 1745 0796 4FF6FF73 		movw	r3, #65535
 1746 079a 9842     		cmp	r0, r3
 355:../../source/src/user/OS_LIB/buddy.c **** 	if(NOTHING != num)
 1747              		.loc 1 355 0
 1748 079c 0446     		mov	r4, r0
 1749              	.LVL183:
 356:../../source/src/user/OS_LIB/buddy.c **** 	{
 1750              		.loc 1 356 0
 1751 079e 0CD0     		beq	.L220
 359:../../source/src/user/OS_LIB/buddy.c **** 		CPU_CRITICAL_EXIT();
 1752              		.loc 1 359 0
 1753 07a0 084D     		ldr	r5, .L222
 360:../../source/src/user/OS_LIB/buddy.c **** 		return _add_of_num(num);
 1754              		.loc 1 360 0
 1755 07a2 3046     		mov	r0, r6
 1756              	.LVL184:
 359:../../source/src/user/OS_LIB/buddy.c **** 		CPU_CRITICAL_EXIT();
 1757              		.loc 1 359 0
 1758 07a4 2A68     		ldr	r2, [r5]
 1759 07a6 D369     		ldr	r3, [r2, #28]
 1760 07a8 013B     		subs	r3, r3, #1
 1761 07aa D361     		str	r3, [r2, #28]
 360:../../source/src/user/OS_LIB/buddy.c **** 		return _add_of_num(num);
 1762              		.loc 1 360 0
 1763 07ac FFF7FEFF 		bl	CPU_SR_Restore
 1764              	.LVL185:
 1765              	.LBB140:
 1766              	.LBB141:
 142:../../source/src/user/OS_LIB/buddy.c **** }
 1767              		.loc 1 142 0
 1768 07b0 2B68     		ldr	r3, [r5]
 1769 07b2 986B     		ldr	r0, [r3, #56]
 1770 07b4 00EB8420 		add	r0, r0, r4, lsl #10
 1771              	.LVL186:
 1772              	.LBE141:
 1773              	.LBE140:
 365:../../source/src/user/OS_LIB/buddy.c **** 
 1774              		.loc 1 365 0
 1775 07b8 70BD     		pop	{r4, r5, r6, pc}
 1776              	.LVL187:
 1777              	.L220:
 363:../../source/src/user/OS_LIB/buddy.c **** 	return NULL;
 1778              		.loc 1 363 0
 1779 07ba 3046     		mov	r0, r6
 1780              	.LVL188:
 1781 07bc FFF7FEFF 		bl	CPU_SR_Restore
ARM GAS  G:\Users\Jaxb\AppData\Local\Temp\ccbV8Tbs.s 			page 47


 1782              	.LVL189:
 364:../../source/src/user/OS_LIB/buddy.c **** }
 1783              		.loc 1 364 0
 1784 07c0 0020     		movs	r0, #0
 365:../../source/src/user/OS_LIB/buddy.c **** 
 1785              		.loc 1 365 0
 1786 07c2 70BD     		pop	{r4, r5, r6, pc}
 1787              	.LVL190:
 1788              	.L223:
 1789              		.align	2
 1790              	.L222:
 1791 07c4 00000000 		.word	.LANCHOR0
 1792              		.cfi_endproc
 1793              	.LFE19:
 1794              		.size	alloc_power1_page, .-alloc_power1_page
 1795              		.align	1
 1796              		.p2align 2,,3
 1797              		.global	alloc_power2_page
 1798              		.syntax unified
 1799              		.thumb
 1800              		.thumb_func
 1801              		.fpu softvfp
 1802              		.type	alloc_power2_page, %function
 1803              	alloc_power2_page:
 1804              	.LFB20:
 368:../../source/src/user/OS_LIB/buddy.c **** 	CPU_SR_ALLOC();
 1805              		.loc 1 368 0
 1806              		.cfi_startproc
 1807              		@ args = 0, pretend = 0, frame = 0
 1808              		@ frame_needed = 0, uses_anonymous_args = 0
 1809              	.LVL191:
 1810 07c8 70B5     		push	{r4, r5, r6, lr}
 1811              	.LCFI20:
 1812              		.cfi_def_cfa_offset 16
 1813              		.cfi_offset 4, -16
 1814              		.cfi_offset 5, -12
 1815              		.cfi_offset 6, -8
 1816              		.cfi_offset 14, -4
 370:../../source/src/user/OS_LIB/buddy.c **** 	Page_Num_Type num = _alloc_page(2);
 1817              		.loc 1 370 0
 1818 07ca FFF7FEFF 		bl	CPU_SR_Save
 1819              	.LVL192:
 1820 07ce 0646     		mov	r6, r0
 1821              	.LVL193:
 371:../../source/src/user/OS_LIB/buddy.c **** 	if(NOTHING != num)
 1822              		.loc 1 371 0
 1823 07d0 0220     		movs	r0, #2
 1824              	.LVL194:
 1825 07d2 FFF7A9FC 		bl	_alloc_page
 1826              	.LVL195:
 372:../../source/src/user/OS_LIB/buddy.c **** 	{
 1827              		.loc 1 372 0
 1828 07d6 4FF6FF73 		movw	r3, #65535
 1829 07da 9842     		cmp	r0, r3
 371:../../source/src/user/OS_LIB/buddy.c **** 	if(NOTHING != num)
 1830              		.loc 1 371 0
 1831 07dc 0446     		mov	r4, r0
ARM GAS  G:\Users\Jaxb\AppData\Local\Temp\ccbV8Tbs.s 			page 48


 1832              	.LVL196:
 372:../../source/src/user/OS_LIB/buddy.c **** 	{
 1833              		.loc 1 372 0
 1834 07de 0CD0     		beq	.L225
 375:../../source/src/user/OS_LIB/buddy.c **** 		CPU_CRITICAL_EXIT();
 1835              		.loc 1 375 0
 1836 07e0 084D     		ldr	r5, .L227
 376:../../source/src/user/OS_LIB/buddy.c **** 		return _add_of_num(num);
 1837              		.loc 1 376 0
 1838 07e2 3046     		mov	r0, r6
 1839              	.LVL197:
 375:../../source/src/user/OS_LIB/buddy.c **** 		CPU_CRITICAL_EXIT();
 1840              		.loc 1 375 0
 1841 07e4 2A68     		ldr	r2, [r5]
 1842 07e6 D369     		ldr	r3, [r2, #28]
 1843 07e8 023B     		subs	r3, r3, #2
 1844 07ea D361     		str	r3, [r2, #28]
 376:../../source/src/user/OS_LIB/buddy.c **** 		return _add_of_num(num);
 1845              		.loc 1 376 0
 1846 07ec FFF7FEFF 		bl	CPU_SR_Restore
 1847              	.LVL198:
 1848              	.LBB142:
 1849              	.LBB143:
 142:../../source/src/user/OS_LIB/buddy.c **** }
 1850              		.loc 1 142 0
 1851 07f0 2B68     		ldr	r3, [r5]
 1852 07f2 986B     		ldr	r0, [r3, #56]
 1853 07f4 00EB8420 		add	r0, r0, r4, lsl #10
 1854              	.LVL199:
 1855              	.LBE143:
 1856              	.LBE142:
 381:../../source/src/user/OS_LIB/buddy.c **** 
 1857              		.loc 1 381 0
 1858 07f8 70BD     		pop	{r4, r5, r6, pc}
 1859              	.LVL200:
 1860              	.L225:
 379:../../source/src/user/OS_LIB/buddy.c **** 	return NULL;
 1861              		.loc 1 379 0
 1862 07fa 3046     		mov	r0, r6
 1863              	.LVL201:
 1864 07fc FFF7FEFF 		bl	CPU_SR_Restore
 1865              	.LVL202:
 380:../../source/src/user/OS_LIB/buddy.c **** }
 1866              		.loc 1 380 0
 1867 0800 0020     		movs	r0, #0
 381:../../source/src/user/OS_LIB/buddy.c **** 
 1868              		.loc 1 381 0
 1869 0802 70BD     		pop	{r4, r5, r6, pc}
 1870              	.LVL203:
 1871              	.L228:
 1872              		.align	2
 1873              	.L227:
 1874 0804 00000000 		.word	.LANCHOR0
 1875              		.cfi_endproc
 1876              	.LFE20:
 1877              		.size	alloc_power2_page, .-alloc_power2_page
 1878              		.align	1
ARM GAS  G:\Users\Jaxb\AppData\Local\Temp\ccbV8Tbs.s 			page 49


 1879              		.p2align 2,,3
 1880              		.global	alloc_power3_page
 1881              		.syntax unified
 1882              		.thumb
 1883              		.thumb_func
 1884              		.fpu softvfp
 1885              		.type	alloc_power3_page, %function
 1886              	alloc_power3_page:
 1887              	.LFB21:
 384:../../source/src/user/OS_LIB/buddy.c **** 	CPU_SR_ALLOC();
 1888              		.loc 1 384 0
 1889              		.cfi_startproc
 1890              		@ args = 0, pretend = 0, frame = 0
 1891              		@ frame_needed = 0, uses_anonymous_args = 0
 1892              	.LVL204:
 1893 0808 70B5     		push	{r4, r5, r6, lr}
 1894              	.LCFI21:
 1895              		.cfi_def_cfa_offset 16
 1896              		.cfi_offset 4, -16
 1897              		.cfi_offset 5, -12
 1898              		.cfi_offset 6, -8
 1899              		.cfi_offset 14, -4
 386:../../source/src/user/OS_LIB/buddy.c **** 	Page_Num_Type num = _alloc_page(3);
 1900              		.loc 1 386 0
 1901 080a FFF7FEFF 		bl	CPU_SR_Save
 1902              	.LVL205:
 1903 080e 0646     		mov	r6, r0
 1904              	.LVL206:
 387:../../source/src/user/OS_LIB/buddy.c **** 	if(NOTHING != num)
 1905              		.loc 1 387 0
 1906 0810 0320     		movs	r0, #3
 1907              	.LVL207:
 1908 0812 FFF789FC 		bl	_alloc_page
 1909              	.LVL208:
 388:../../source/src/user/OS_LIB/buddy.c **** 	{
 1910              		.loc 1 388 0
 1911 0816 4FF6FF73 		movw	r3, #65535
 1912 081a 9842     		cmp	r0, r3
 387:../../source/src/user/OS_LIB/buddy.c **** 	if(NOTHING != num)
 1913              		.loc 1 387 0
 1914 081c 0446     		mov	r4, r0
 1915              	.LVL209:
 388:../../source/src/user/OS_LIB/buddy.c **** 	{
 1916              		.loc 1 388 0
 1917 081e 0CD0     		beq	.L230
 391:../../source/src/user/OS_LIB/buddy.c **** 		CPU_CRITICAL_EXIT();
 1918              		.loc 1 391 0
 1919 0820 084D     		ldr	r5, .L232
 392:../../source/src/user/OS_LIB/buddy.c **** 		return _add_of_num(num);
 1920              		.loc 1 392 0
 1921 0822 3046     		mov	r0, r6
 1922              	.LVL210:
 391:../../source/src/user/OS_LIB/buddy.c **** 		CPU_CRITICAL_EXIT();
 1923              		.loc 1 391 0
 1924 0824 2A68     		ldr	r2, [r5]
 1925 0826 D369     		ldr	r3, [r2, #28]
 1926 0828 043B     		subs	r3, r3, #4
ARM GAS  G:\Users\Jaxb\AppData\Local\Temp\ccbV8Tbs.s 			page 50


 1927 082a D361     		str	r3, [r2, #28]
 392:../../source/src/user/OS_LIB/buddy.c **** 		return _add_of_num(num);
 1928              		.loc 1 392 0
 1929 082c FFF7FEFF 		bl	CPU_SR_Restore
 1930              	.LVL211:
 1931              	.LBB144:
 1932              	.LBB145:
 142:../../source/src/user/OS_LIB/buddy.c **** }
 1933              		.loc 1 142 0
 1934 0830 2B68     		ldr	r3, [r5]
 1935 0832 986B     		ldr	r0, [r3, #56]
 1936 0834 00EB8420 		add	r0, r0, r4, lsl #10
 1937              	.LVL212:
 1938              	.LBE145:
 1939              	.LBE144:
 397:../../source/src/user/OS_LIB/buddy.c **** 
 1940              		.loc 1 397 0
 1941 0838 70BD     		pop	{r4, r5, r6, pc}
 1942              	.LVL213:
 1943              	.L230:
 395:../../source/src/user/OS_LIB/buddy.c **** 	return NULL;
 1944              		.loc 1 395 0
 1945 083a 3046     		mov	r0, r6
 1946              	.LVL214:
 1947 083c FFF7FEFF 		bl	CPU_SR_Restore
 1948              	.LVL215:
 396:../../source/src/user/OS_LIB/buddy.c **** }
 1949              		.loc 1 396 0
 1950 0840 0020     		movs	r0, #0
 397:../../source/src/user/OS_LIB/buddy.c **** 
 1951              		.loc 1 397 0
 1952 0842 70BD     		pop	{r4, r5, r6, pc}
 1953              	.LVL216:
 1954              	.L233:
 1955              		.align	2
 1956              	.L232:
 1957 0844 00000000 		.word	.LANCHOR0
 1958              		.cfi_endproc
 1959              	.LFE21:
 1960              		.size	alloc_power3_page, .-alloc_power3_page
 1961              		.align	1
 1962              		.p2align 2,,3
 1963              		.global	alloc_power4_page
 1964              		.syntax unified
 1965              		.thumb
 1966              		.thumb_func
 1967              		.fpu softvfp
 1968              		.type	alloc_power4_page, %function
 1969              	alloc_power4_page:
 1970              	.LFB22:
 400:../../source/src/user/OS_LIB/buddy.c **** 	CPU_SR_ALLOC();
 1971              		.loc 1 400 0
 1972              		.cfi_startproc
 1973              		@ args = 0, pretend = 0, frame = 0
 1974              		@ frame_needed = 0, uses_anonymous_args = 0
 1975              	.LVL217:
 1976 0848 70B5     		push	{r4, r5, r6, lr}
ARM GAS  G:\Users\Jaxb\AppData\Local\Temp\ccbV8Tbs.s 			page 51


 1977              	.LCFI22:
 1978              		.cfi_def_cfa_offset 16
 1979              		.cfi_offset 4, -16
 1980              		.cfi_offset 5, -12
 1981              		.cfi_offset 6, -8
 1982              		.cfi_offset 14, -4
 402:../../source/src/user/OS_LIB/buddy.c **** 	Page_Num_Type num = _alloc_page(4);
 1983              		.loc 1 402 0
 1984 084a FFF7FEFF 		bl	CPU_SR_Save
 1985              	.LVL218:
 1986 084e 0646     		mov	r6, r0
 1987              	.LVL219:
 403:../../source/src/user/OS_LIB/buddy.c **** 	if(NOTHING != num)
 1988              		.loc 1 403 0
 1989 0850 0420     		movs	r0, #4
 1990              	.LVL220:
 1991 0852 FFF769FC 		bl	_alloc_page
 1992              	.LVL221:
 404:../../source/src/user/OS_LIB/buddy.c **** 	{
 1993              		.loc 1 404 0
 1994 0856 4FF6FF73 		movw	r3, #65535
 1995 085a 9842     		cmp	r0, r3
 403:../../source/src/user/OS_LIB/buddy.c **** 	if(NOTHING != num)
 1996              		.loc 1 403 0
 1997 085c 0446     		mov	r4, r0
 1998              	.LVL222:
 404:../../source/src/user/OS_LIB/buddy.c **** 	{
 1999              		.loc 1 404 0
 2000 085e 0CD0     		beq	.L235
 407:../../source/src/user/OS_LIB/buddy.c **** 		CPU_CRITICAL_EXIT();
 2001              		.loc 1 407 0
 2002 0860 084D     		ldr	r5, .L237
 408:../../source/src/user/OS_LIB/buddy.c **** 		return _add_of_num(num);
 2003              		.loc 1 408 0
 2004 0862 3046     		mov	r0, r6
 2005              	.LVL223:
 407:../../source/src/user/OS_LIB/buddy.c **** 		CPU_CRITICAL_EXIT();
 2006              		.loc 1 407 0
 2007 0864 2A68     		ldr	r2, [r5]
 2008 0866 D369     		ldr	r3, [r2, #28]
 2009 0868 083B     		subs	r3, r3, #8
 2010 086a D361     		str	r3, [r2, #28]
 408:../../source/src/user/OS_LIB/buddy.c **** 		return _add_of_num(num);
 2011              		.loc 1 408 0
 2012 086c FFF7FEFF 		bl	CPU_SR_Restore
 2013              	.LVL224:
 2014              	.LBB146:
 2015              	.LBB147:
 142:../../source/src/user/OS_LIB/buddy.c **** }
 2016              		.loc 1 142 0
 2017 0870 2B68     		ldr	r3, [r5]
 2018 0872 986B     		ldr	r0, [r3, #56]
 2019 0874 00EB8420 		add	r0, r0, r4, lsl #10
 2020              	.LVL225:
 2021              	.LBE147:
 2022              	.LBE146:
 413:../../source/src/user/OS_LIB/buddy.c **** 
ARM GAS  G:\Users\Jaxb\AppData\Local\Temp\ccbV8Tbs.s 			page 52


 2023              		.loc 1 413 0
 2024 0878 70BD     		pop	{r4, r5, r6, pc}
 2025              	.LVL226:
 2026              	.L235:
 411:../../source/src/user/OS_LIB/buddy.c **** 	return NULL;
 2027              		.loc 1 411 0
 2028 087a 3046     		mov	r0, r6
 2029              	.LVL227:
 2030 087c FFF7FEFF 		bl	CPU_SR_Restore
 2031              	.LVL228:
 412:../../source/src/user/OS_LIB/buddy.c **** }
 2032              		.loc 1 412 0
 2033 0880 0020     		movs	r0, #0
 413:../../source/src/user/OS_LIB/buddy.c **** 
 2034              		.loc 1 413 0
 2035 0882 70BD     		pop	{r4, r5, r6, pc}
 2036              	.LVL229:
 2037              	.L238:
 2038              		.align	2
 2039              	.L237:
 2040 0884 00000000 		.word	.LANCHOR0
 2041              		.cfi_endproc
 2042              	.LFE22:
 2043              		.size	alloc_power4_page, .-alloc_power4_page
 2044              		.align	1
 2045              		.p2align 2,,3
 2046              		.global	alloc_power5_page
 2047              		.syntax unified
 2048              		.thumb
 2049              		.thumb_func
 2050              		.fpu softvfp
 2051              		.type	alloc_power5_page, %function
 2052              	alloc_power5_page:
 2053              	.LFB23:
 416:../../source/src/user/OS_LIB/buddy.c **** 	CPU_SR_ALLOC();
 2054              		.loc 1 416 0
 2055              		.cfi_startproc
 2056              		@ args = 0, pretend = 0, frame = 0
 2057              		@ frame_needed = 0, uses_anonymous_args = 0
 2058              	.LVL230:
 2059 0888 70B5     		push	{r4, r5, r6, lr}
 2060              	.LCFI23:
 2061              		.cfi_def_cfa_offset 16
 2062              		.cfi_offset 4, -16
 2063              		.cfi_offset 5, -12
 2064              		.cfi_offset 6, -8
 2065              		.cfi_offset 14, -4
 418:../../source/src/user/OS_LIB/buddy.c **** 	Page_Num_Type num = _alloc_page(5);
 2066              		.loc 1 418 0
 2067 088a FFF7FEFF 		bl	CPU_SR_Save
 2068              	.LVL231:
 2069 088e 0646     		mov	r6, r0
 2070              	.LVL232:
 419:../../source/src/user/OS_LIB/buddy.c **** 	if(NOTHING != num)
 2071              		.loc 1 419 0
 2072 0890 0520     		movs	r0, #5
 2073              	.LVL233:
ARM GAS  G:\Users\Jaxb\AppData\Local\Temp\ccbV8Tbs.s 			page 53


 2074 0892 FFF749FC 		bl	_alloc_page
 2075              	.LVL234:
 420:../../source/src/user/OS_LIB/buddy.c **** 	{
 2076              		.loc 1 420 0
 2077 0896 4FF6FF73 		movw	r3, #65535
 2078 089a 9842     		cmp	r0, r3
 419:../../source/src/user/OS_LIB/buddy.c **** 	if(NOTHING != num)
 2079              		.loc 1 419 0
 2080 089c 0446     		mov	r4, r0
 2081              	.LVL235:
 420:../../source/src/user/OS_LIB/buddy.c **** 	{
 2082              		.loc 1 420 0
 2083 089e 0CD0     		beq	.L240
 423:../../source/src/user/OS_LIB/buddy.c **** 		CPU_CRITICAL_EXIT();
 2084              		.loc 1 423 0
 2085 08a0 084D     		ldr	r5, .L242
 424:../../source/src/user/OS_LIB/buddy.c **** 		return _add_of_num(num);
 2086              		.loc 1 424 0
 2087 08a2 3046     		mov	r0, r6
 2088              	.LVL236:
 423:../../source/src/user/OS_LIB/buddy.c **** 		CPU_CRITICAL_EXIT();
 2089              		.loc 1 423 0
 2090 08a4 2A68     		ldr	r2, [r5]
 2091 08a6 D369     		ldr	r3, [r2, #28]
 2092 08a8 103B     		subs	r3, r3, #16
 2093 08aa D361     		str	r3, [r2, #28]
 424:../../source/src/user/OS_LIB/buddy.c **** 		return _add_of_num(num);
 2094              		.loc 1 424 0
 2095 08ac FFF7FEFF 		bl	CPU_SR_Restore
 2096              	.LVL237:
 2097              	.LBB148:
 2098              	.LBB149:
 142:../../source/src/user/OS_LIB/buddy.c **** }
 2099              		.loc 1 142 0
 2100 08b0 2B68     		ldr	r3, [r5]
 2101 08b2 986B     		ldr	r0, [r3, #56]
 2102 08b4 00EB8420 		add	r0, r0, r4, lsl #10
 2103              	.LVL238:
 2104              	.LBE149:
 2105              	.LBE148:
 429:../../source/src/user/OS_LIB/buddy.c **** 
 2106              		.loc 1 429 0
 2107 08b8 70BD     		pop	{r4, r5, r6, pc}
 2108              	.LVL239:
 2109              	.L240:
 427:../../source/src/user/OS_LIB/buddy.c **** 	return NULL;
 2110              		.loc 1 427 0
 2111 08ba 3046     		mov	r0, r6
 2112              	.LVL240:
 2113 08bc FFF7FEFF 		bl	CPU_SR_Restore
 2114              	.LVL241:
 428:../../source/src/user/OS_LIB/buddy.c **** }
 2115              		.loc 1 428 0
 2116 08c0 0020     		movs	r0, #0
 429:../../source/src/user/OS_LIB/buddy.c **** 
 2117              		.loc 1 429 0
 2118 08c2 70BD     		pop	{r4, r5, r6, pc}
ARM GAS  G:\Users\Jaxb\AppData\Local\Temp\ccbV8Tbs.s 			page 54


 2119              	.LVL242:
 2120              	.L243:
 2121              		.align	2
 2122              	.L242:
 2123 08c4 00000000 		.word	.LANCHOR0
 2124              		.cfi_endproc
 2125              	.LFE23:
 2126              		.size	alloc_power5_page, .-alloc_power5_page
 2127              		.align	1
 2128              		.p2align 2,,3
 2129              		.global	alloc_power6_page
 2130              		.syntax unified
 2131              		.thumb
 2132              		.thumb_func
 2133              		.fpu softvfp
 2134              		.type	alloc_power6_page, %function
 2135              	alloc_power6_page:
 2136              	.LFB24:
 432:../../source/src/user/OS_LIB/buddy.c **** 	CPU_SR_ALLOC();
 2137              		.loc 1 432 0
 2138              		.cfi_startproc
 2139              		@ args = 0, pretend = 0, frame = 0
 2140              		@ frame_needed = 0, uses_anonymous_args = 0
 2141              	.LVL243:
 2142 08c8 70B5     		push	{r4, r5, r6, lr}
 2143              	.LCFI24:
 2144              		.cfi_def_cfa_offset 16
 2145              		.cfi_offset 4, -16
 2146              		.cfi_offset 5, -12
 2147              		.cfi_offset 6, -8
 2148              		.cfi_offset 14, -4
 434:../../source/src/user/OS_LIB/buddy.c **** 	Page_Num_Type num = _alloc_page(6);
 2149              		.loc 1 434 0
 2150 08ca FFF7FEFF 		bl	CPU_SR_Save
 2151              	.LVL244:
 2152 08ce 0646     		mov	r6, r0
 2153              	.LVL245:
 435:../../source/src/user/OS_LIB/buddy.c **** 	if(NOTHING != num)
 2154              		.loc 1 435 0
 2155 08d0 0620     		movs	r0, #6
 2156              	.LVL246:
 2157 08d2 FFF729FC 		bl	_alloc_page
 2158              	.LVL247:
 436:../../source/src/user/OS_LIB/buddy.c **** 	{
 2159              		.loc 1 436 0
 2160 08d6 4FF6FF73 		movw	r3, #65535
 2161 08da 9842     		cmp	r0, r3
 435:../../source/src/user/OS_LIB/buddy.c **** 	if(NOTHING != num)
 2162              		.loc 1 435 0
 2163 08dc 0446     		mov	r4, r0
 2164              	.LVL248:
 436:../../source/src/user/OS_LIB/buddy.c **** 	{
 2165              		.loc 1 436 0
 2166 08de 0CD0     		beq	.L245
 439:../../source/src/user/OS_LIB/buddy.c **** 		CPU_CRITICAL_EXIT();
 2167              		.loc 1 439 0
 2168 08e0 084D     		ldr	r5, .L247
ARM GAS  G:\Users\Jaxb\AppData\Local\Temp\ccbV8Tbs.s 			page 55


 440:../../source/src/user/OS_LIB/buddy.c **** 		return _add_of_num(num);
 2169              		.loc 1 440 0
 2170 08e2 3046     		mov	r0, r6
 2171              	.LVL249:
 439:../../source/src/user/OS_LIB/buddy.c **** 		CPU_CRITICAL_EXIT();
 2172              		.loc 1 439 0
 2173 08e4 2A68     		ldr	r2, [r5]
 2174 08e6 D369     		ldr	r3, [r2, #28]
 2175 08e8 203B     		subs	r3, r3, #32
 2176 08ea D361     		str	r3, [r2, #28]
 440:../../source/src/user/OS_LIB/buddy.c **** 		return _add_of_num(num);
 2177              		.loc 1 440 0
 2178 08ec FFF7FEFF 		bl	CPU_SR_Restore
 2179              	.LVL250:
 2180              	.LBB150:
 2181              	.LBB151:
 142:../../source/src/user/OS_LIB/buddy.c **** }
 2182              		.loc 1 142 0
 2183 08f0 2B68     		ldr	r3, [r5]
 2184 08f2 986B     		ldr	r0, [r3, #56]
 2185 08f4 00EB8420 		add	r0, r0, r4, lsl #10
 2186              	.LVL251:
 2187              	.LBE151:
 2188              	.LBE150:
 445:../../source/src/user/OS_LIB/buddy.c **** 
 2189              		.loc 1 445 0
 2190 08f8 70BD     		pop	{r4, r5, r6, pc}
 2191              	.LVL252:
 2192              	.L245:
 443:../../source/src/user/OS_LIB/buddy.c **** 	return NULL;
 2193              		.loc 1 443 0
 2194 08fa 3046     		mov	r0, r6
 2195              	.LVL253:
 2196 08fc FFF7FEFF 		bl	CPU_SR_Restore
 2197              	.LVL254:
 444:../../source/src/user/OS_LIB/buddy.c **** }
 2198              		.loc 1 444 0
 2199 0900 0020     		movs	r0, #0
 445:../../source/src/user/OS_LIB/buddy.c **** 
 2200              		.loc 1 445 0
 2201 0902 70BD     		pop	{r4, r5, r6, pc}
 2202              	.LVL255:
 2203              	.L248:
 2204              		.align	2
 2205              	.L247:
 2206 0904 00000000 		.word	.LANCHOR0
 2207              		.cfi_endproc
 2208              	.LFE24:
 2209              		.size	alloc_power6_page, .-alloc_power6_page
 2210              		.align	1
 2211              		.p2align 2,,3
 2212              		.global	alloc_power7_page
 2213              		.syntax unified
 2214              		.thumb
 2215              		.thumb_func
 2216              		.fpu softvfp
 2217              		.type	alloc_power7_page, %function
ARM GAS  G:\Users\Jaxb\AppData\Local\Temp\ccbV8Tbs.s 			page 56


 2218              	alloc_power7_page:
 2219              	.LFB25:
 448:../../source/src/user/OS_LIB/buddy.c **** 	CPU_SR_ALLOC();
 2220              		.loc 1 448 0
 2221              		.cfi_startproc
 2222              		@ args = 0, pretend = 0, frame = 0
 2223              		@ frame_needed = 0, uses_anonymous_args = 0
 2224              	.LVL256:
 2225 0908 70B5     		push	{r4, r5, r6, lr}
 2226              	.LCFI25:
 2227              		.cfi_def_cfa_offset 16
 2228              		.cfi_offset 4, -16
 2229              		.cfi_offset 5, -12
 2230              		.cfi_offset 6, -8
 2231              		.cfi_offset 14, -4
 450:../../source/src/user/OS_LIB/buddy.c **** 	Page_Num_Type num = _alloc_page(7);
 2232              		.loc 1 450 0
 2233 090a FFF7FEFF 		bl	CPU_SR_Save
 2234              	.LVL257:
 2235 090e 0646     		mov	r6, r0
 2236              	.LVL258:
 451:../../source/src/user/OS_LIB/buddy.c **** 	if(NOTHING != num)
 2237              		.loc 1 451 0
 2238 0910 0720     		movs	r0, #7
 2239              	.LVL259:
 2240 0912 FFF709FC 		bl	_alloc_page
 2241              	.LVL260:
 452:../../source/src/user/OS_LIB/buddy.c **** 	{
 2242              		.loc 1 452 0
 2243 0916 4FF6FF73 		movw	r3, #65535
 2244 091a 9842     		cmp	r0, r3
 451:../../source/src/user/OS_LIB/buddy.c **** 	if(NOTHING != num)
 2245              		.loc 1 451 0
 2246 091c 0446     		mov	r4, r0
 2247              	.LVL261:
 452:../../source/src/user/OS_LIB/buddy.c **** 	{
 2248              		.loc 1 452 0
 2249 091e 0CD0     		beq	.L250
 455:../../source/src/user/OS_LIB/buddy.c **** 		CPU_CRITICAL_EXIT();
 2250              		.loc 1 455 0
 2251 0920 084D     		ldr	r5, .L252
 456:../../source/src/user/OS_LIB/buddy.c **** 		return _add_of_num(num);
 2252              		.loc 1 456 0
 2253 0922 3046     		mov	r0, r6
 2254              	.LVL262:
 455:../../source/src/user/OS_LIB/buddy.c **** 		CPU_CRITICAL_EXIT();
 2255              		.loc 1 455 0
 2256 0924 2A68     		ldr	r2, [r5]
 2257 0926 D369     		ldr	r3, [r2, #28]
 2258 0928 403B     		subs	r3, r3, #64
 2259 092a D361     		str	r3, [r2, #28]
 456:../../source/src/user/OS_LIB/buddy.c **** 		return _add_of_num(num);
 2260              		.loc 1 456 0
 2261 092c FFF7FEFF 		bl	CPU_SR_Restore
 2262              	.LVL263:
 2263              	.LBB152:
 2264              	.LBB153:
ARM GAS  G:\Users\Jaxb\AppData\Local\Temp\ccbV8Tbs.s 			page 57


 142:../../source/src/user/OS_LIB/buddy.c **** }
 2265              		.loc 1 142 0
 2266 0930 2B68     		ldr	r3, [r5]
 2267 0932 986B     		ldr	r0, [r3, #56]
 2268 0934 00EB8420 		add	r0, r0, r4, lsl #10
 2269              	.LVL264:
 2270              	.LBE153:
 2271              	.LBE152:
 461:../../source/src/user/OS_LIB/buddy.c **** 
 2272              		.loc 1 461 0
 2273 0938 70BD     		pop	{r4, r5, r6, pc}
 2274              	.LVL265:
 2275              	.L250:
 459:../../source/src/user/OS_LIB/buddy.c **** 	return NULL;
 2276              		.loc 1 459 0
 2277 093a 3046     		mov	r0, r6
 2278              	.LVL266:
 2279 093c FFF7FEFF 		bl	CPU_SR_Restore
 2280              	.LVL267:
 460:../../source/src/user/OS_LIB/buddy.c **** }
 2281              		.loc 1 460 0
 2282 0940 0020     		movs	r0, #0
 461:../../source/src/user/OS_LIB/buddy.c **** 
 2283              		.loc 1 461 0
 2284 0942 70BD     		pop	{r4, r5, r6, pc}
 2285              	.LVL268:
 2286              	.L253:
 2287              		.align	2
 2288              	.L252:
 2289 0944 00000000 		.word	.LANCHOR0
 2290              		.cfi_endproc
 2291              	.LFE25:
 2292              		.size	alloc_power7_page, .-alloc_power7_page
 2293              		.align	1
 2294              		.p2align 2,,3
 2295              		.global	alloc_power8_page
 2296              		.syntax unified
 2297              		.thumb
 2298              		.thumb_func
 2299              		.fpu softvfp
 2300              		.type	alloc_power8_page, %function
 2301              	alloc_power8_page:
 2302              	.LFB26:
 464:../../source/src/user/OS_LIB/buddy.c **** 	CPU_SR_ALLOC();
 2303              		.loc 1 464 0
 2304              		.cfi_startproc
 2305              		@ args = 0, pretend = 0, frame = 0
 2306              		@ frame_needed = 0, uses_anonymous_args = 0
 2307              	.LVL269:
 2308 0948 70B5     		push	{r4, r5, r6, lr}
 2309              	.LCFI26:
 2310              		.cfi_def_cfa_offset 16
 2311              		.cfi_offset 4, -16
 2312              		.cfi_offset 5, -12
 2313              		.cfi_offset 6, -8
 2314              		.cfi_offset 14, -4
 466:../../source/src/user/OS_LIB/buddy.c **** 	Page_Num_Type num = _alloc_page(8);
ARM GAS  G:\Users\Jaxb\AppData\Local\Temp\ccbV8Tbs.s 			page 58


 2315              		.loc 1 466 0
 2316 094a FFF7FEFF 		bl	CPU_SR_Save
 2317              	.LVL270:
 2318 094e 0646     		mov	r6, r0
 2319              	.LVL271:
 467:../../source/src/user/OS_LIB/buddy.c **** 	if(NOTHING != num)
 2320              		.loc 1 467 0
 2321 0950 0820     		movs	r0, #8
 2322              	.LVL272:
 2323 0952 FFF7E9FB 		bl	_alloc_page
 2324              	.LVL273:
 468:../../source/src/user/OS_LIB/buddy.c **** 	{
 2325              		.loc 1 468 0
 2326 0956 4FF6FF73 		movw	r3, #65535
 2327 095a 9842     		cmp	r0, r3
 467:../../source/src/user/OS_LIB/buddy.c **** 	if(NOTHING != num)
 2328              		.loc 1 467 0
 2329 095c 0446     		mov	r4, r0
 2330              	.LVL274:
 468:../../source/src/user/OS_LIB/buddy.c **** 	{
 2331              		.loc 1 468 0
 2332 095e 0CD0     		beq	.L255
 471:../../source/src/user/OS_LIB/buddy.c **** 		CPU_CRITICAL_EXIT();
 2333              		.loc 1 471 0
 2334 0960 084D     		ldr	r5, .L257
 472:../../source/src/user/OS_LIB/buddy.c **** 		return _add_of_num(num);
 2335              		.loc 1 472 0
 2336 0962 3046     		mov	r0, r6
 2337              	.LVL275:
 471:../../source/src/user/OS_LIB/buddy.c **** 		CPU_CRITICAL_EXIT();
 2338              		.loc 1 471 0
 2339 0964 2A68     		ldr	r2, [r5]
 2340 0966 D369     		ldr	r3, [r2, #28]
 2341 0968 803B     		subs	r3, r3, #128
 2342 096a D361     		str	r3, [r2, #28]
 472:../../source/src/user/OS_LIB/buddy.c **** 		return _add_of_num(num);
 2343              		.loc 1 472 0
 2344 096c FFF7FEFF 		bl	CPU_SR_Restore
 2345              	.LVL276:
 2346              	.LBB154:
 2347              	.LBB155:
 142:../../source/src/user/OS_LIB/buddy.c **** }
 2348              		.loc 1 142 0
 2349 0970 2B68     		ldr	r3, [r5]
 2350 0972 986B     		ldr	r0, [r3, #56]
 2351 0974 00EB8420 		add	r0, r0, r4, lsl #10
 2352              	.LVL277:
 2353              	.LBE155:
 2354              	.LBE154:
 477:../../source/src/user/OS_LIB/buddy.c **** 
 2355              		.loc 1 477 0
 2356 0978 70BD     		pop	{r4, r5, r6, pc}
 2357              	.LVL278:
 2358              	.L255:
 475:../../source/src/user/OS_LIB/buddy.c **** 	return NULL;
 2359              		.loc 1 475 0
 2360 097a 3046     		mov	r0, r6
ARM GAS  G:\Users\Jaxb\AppData\Local\Temp\ccbV8Tbs.s 			page 59


 2361              	.LVL279:
 2362 097c FFF7FEFF 		bl	CPU_SR_Restore
 2363              	.LVL280:
 476:../../source/src/user/OS_LIB/buddy.c **** }
 2364              		.loc 1 476 0
 2365 0980 0020     		movs	r0, #0
 477:../../source/src/user/OS_LIB/buddy.c **** 
 2366              		.loc 1 477 0
 2367 0982 70BD     		pop	{r4, r5, r6, pc}
 2368              	.LVL281:
 2369              	.L258:
 2370              		.align	2
 2371              	.L257:
 2372 0984 00000000 		.word	.LANCHOR0
 2373              		.cfi_endproc
 2374              	.LFE26:
 2375              		.size	alloc_power8_page, .-alloc_power8_page
 2376              		.align	1
 2377              		.p2align 2,,3
 2378              		.global	alloc_power9_page
 2379              		.syntax unified
 2380              		.thumb
 2381              		.thumb_func
 2382              		.fpu softvfp
 2383              		.type	alloc_power9_page, %function
 2384              	alloc_power9_page:
 2385              	.LFB27:
 480:../../source/src/user/OS_LIB/buddy.c **** 	CPU_SR_ALLOC();
 2386              		.loc 1 480 0
 2387              		.cfi_startproc
 2388              		@ args = 0, pretend = 0, frame = 0
 2389              		@ frame_needed = 0, uses_anonymous_args = 0
 2390              	.LVL282:
 2391 0988 70B5     		push	{r4, r5, r6, lr}
 2392              	.LCFI27:
 2393              		.cfi_def_cfa_offset 16
 2394              		.cfi_offset 4, -16
 2395              		.cfi_offset 5, -12
 2396              		.cfi_offset 6, -8
 2397              		.cfi_offset 14, -4
 482:../../source/src/user/OS_LIB/buddy.c **** 	Page_Num_Type num = _alloc_page(9);
 2398              		.loc 1 482 0
 2399 098a FFF7FEFF 		bl	CPU_SR_Save
 2400              	.LVL283:
 2401 098e 0646     		mov	r6, r0
 2402              	.LVL284:
 483:../../source/src/user/OS_LIB/buddy.c **** 	if(NOTHING != num)
 2403              		.loc 1 483 0
 2404 0990 0920     		movs	r0, #9
 2405              	.LVL285:
 2406 0992 FFF7C9FB 		bl	_alloc_page
 2407              	.LVL286:
 484:../../source/src/user/OS_LIB/buddy.c **** 	{
 2408              		.loc 1 484 0
 2409 0996 4FF6FF73 		movw	r3, #65535
 2410 099a 9842     		cmp	r0, r3
 483:../../source/src/user/OS_LIB/buddy.c **** 	if(NOTHING != num)
ARM GAS  G:\Users\Jaxb\AppData\Local\Temp\ccbV8Tbs.s 			page 60


 2411              		.loc 1 483 0
 2412 099c 0446     		mov	r4, r0
 2413              	.LVL287:
 484:../../source/src/user/OS_LIB/buddy.c **** 	{
 2414              		.loc 1 484 0
 2415 099e 0DD0     		beq	.L260
 487:../../source/src/user/OS_LIB/buddy.c **** 		CPU_CRITICAL_EXIT();
 2416              		.loc 1 487 0
 2417 09a0 094D     		ldr	r5, .L262
 488:../../source/src/user/OS_LIB/buddy.c **** 		return _add_of_num(num);
 2418              		.loc 1 488 0
 2419 09a2 3046     		mov	r0, r6
 2420              	.LVL288:
 487:../../source/src/user/OS_LIB/buddy.c **** 		CPU_CRITICAL_EXIT();
 2421              		.loc 1 487 0
 2422 09a4 2A68     		ldr	r2, [r5]
 2423 09a6 D369     		ldr	r3, [r2, #28]
 2424 09a8 A3F58073 		sub	r3, r3, #256
 2425 09ac D361     		str	r3, [r2, #28]
 488:../../source/src/user/OS_LIB/buddy.c **** 		return _add_of_num(num);
 2426              		.loc 1 488 0
 2427 09ae FFF7FEFF 		bl	CPU_SR_Restore
 2428              	.LVL289:
 2429              	.LBB156:
 2430              	.LBB157:
 142:../../source/src/user/OS_LIB/buddy.c **** }
 2431              		.loc 1 142 0
 2432 09b2 2B68     		ldr	r3, [r5]
 2433 09b4 986B     		ldr	r0, [r3, #56]
 2434 09b6 00EB8420 		add	r0, r0, r4, lsl #10
 2435              	.LVL290:
 2436              	.LBE157:
 2437              	.LBE156:
 493:../../source/src/user/OS_LIB/buddy.c **** 
 2438              		.loc 1 493 0
 2439 09ba 70BD     		pop	{r4, r5, r6, pc}
 2440              	.LVL291:
 2441              	.L260:
 491:../../source/src/user/OS_LIB/buddy.c **** 	return NULL;
 2442              		.loc 1 491 0
 2443 09bc 3046     		mov	r0, r6
 2444              	.LVL292:
 2445 09be FFF7FEFF 		bl	CPU_SR_Restore
 2446              	.LVL293:
 492:../../source/src/user/OS_LIB/buddy.c **** }
 2447              		.loc 1 492 0
 2448 09c2 0020     		movs	r0, #0
 493:../../source/src/user/OS_LIB/buddy.c **** 
 2449              		.loc 1 493 0
 2450 09c4 70BD     		pop	{r4, r5, r6, pc}
 2451              	.LVL294:
 2452              	.L263:
 2453 09c6 00BF     		.align	2
 2454              	.L262:
 2455 09c8 00000000 		.word	.LANCHOR0
 2456              		.cfi_endproc
 2457              	.LFE27:
ARM GAS  G:\Users\Jaxb\AppData\Local\Temp\ccbV8Tbs.s 			page 61


 2458              		.size	alloc_power9_page, .-alloc_power9_page
 2459              		.align	1
 2460              		.p2align 2,,3
 2461              		.global	alloc_power10_page
 2462              		.syntax unified
 2463              		.thumb
 2464              		.thumb_func
 2465              		.fpu softvfp
 2466              		.type	alloc_power10_page, %function
 2467              	alloc_power10_page:
 2468              	.LFB28:
 496:../../source/src/user/OS_LIB/buddy.c **** 	CPU_SR_ALLOC();
 2469              		.loc 1 496 0
 2470              		.cfi_startproc
 2471              		@ args = 0, pretend = 0, frame = 0
 2472              		@ frame_needed = 0, uses_anonymous_args = 0
 2473              	.LVL295:
 2474 09cc 70B5     		push	{r4, r5, r6, lr}
 2475              	.LCFI28:
 2476              		.cfi_def_cfa_offset 16
 2477              		.cfi_offset 4, -16
 2478              		.cfi_offset 5, -12
 2479              		.cfi_offset 6, -8
 2480              		.cfi_offset 14, -4
 498:../../source/src/user/OS_LIB/buddy.c **** 	Page_Num_Type num = _alloc_page(10);
 2481              		.loc 1 498 0
 2482 09ce FFF7FEFF 		bl	CPU_SR_Save
 2483              	.LVL296:
 2484 09d2 0646     		mov	r6, r0
 2485              	.LVL297:
 499:../../source/src/user/OS_LIB/buddy.c **** 	if(NOTHING != num)
 2486              		.loc 1 499 0
 2487 09d4 0A20     		movs	r0, #10
 2488              	.LVL298:
 2489 09d6 FFF7A7FB 		bl	_alloc_page
 2490              	.LVL299:
 500:../../source/src/user/OS_LIB/buddy.c **** 	{
 2491              		.loc 1 500 0
 2492 09da 4FF6FF73 		movw	r3, #65535
 2493 09de 9842     		cmp	r0, r3
 499:../../source/src/user/OS_LIB/buddy.c **** 	if(NOTHING != num)
 2494              		.loc 1 499 0
 2495 09e0 0446     		mov	r4, r0
 2496              	.LVL300:
 500:../../source/src/user/OS_LIB/buddy.c **** 	{
 2497              		.loc 1 500 0
 2498 09e2 0DD0     		beq	.L265
 503:../../source/src/user/OS_LIB/buddy.c **** 		CPU_CRITICAL_EXIT();
 2499              		.loc 1 503 0
 2500 09e4 094D     		ldr	r5, .L267
 504:../../source/src/user/OS_LIB/buddy.c **** 		return _add_of_num(num);
 2501              		.loc 1 504 0
 2502 09e6 3046     		mov	r0, r6
 2503              	.LVL301:
 503:../../source/src/user/OS_LIB/buddy.c **** 		CPU_CRITICAL_EXIT();
 2504              		.loc 1 503 0
 2505 09e8 2A68     		ldr	r2, [r5]
ARM GAS  G:\Users\Jaxb\AppData\Local\Temp\ccbV8Tbs.s 			page 62


 2506 09ea D369     		ldr	r3, [r2, #28]
 2507 09ec A3F50073 		sub	r3, r3, #512
 2508 09f0 D361     		str	r3, [r2, #28]
 504:../../source/src/user/OS_LIB/buddy.c **** 		return _add_of_num(num);
 2509              		.loc 1 504 0
 2510 09f2 FFF7FEFF 		bl	CPU_SR_Restore
 2511              	.LVL302:
 2512              	.LBB158:
 2513              	.LBB159:
 142:../../source/src/user/OS_LIB/buddy.c **** }
 2514              		.loc 1 142 0
 2515 09f6 2B68     		ldr	r3, [r5]
 2516 09f8 986B     		ldr	r0, [r3, #56]
 2517 09fa 00EB8420 		add	r0, r0, r4, lsl #10
 2518              	.LVL303:
 2519              	.LBE159:
 2520              	.LBE158:
 509:../../source/src/user/OS_LIB/buddy.c **** 
 2521              		.loc 1 509 0
 2522 09fe 70BD     		pop	{r4, r5, r6, pc}
 2523              	.LVL304:
 2524              	.L265:
 507:../../source/src/user/OS_LIB/buddy.c **** 	return NULL;
 2525              		.loc 1 507 0
 2526 0a00 3046     		mov	r0, r6
 2527              	.LVL305:
 2528 0a02 FFF7FEFF 		bl	CPU_SR_Restore
 2529              	.LVL306:
 508:../../source/src/user/OS_LIB/buddy.c **** }
 2530              		.loc 1 508 0
 2531 0a06 0020     		movs	r0, #0
 509:../../source/src/user/OS_LIB/buddy.c **** 
 2532              		.loc 1 509 0
 2533 0a08 70BD     		pop	{r4, r5, r6, pc}
 2534              	.LVL307:
 2535              	.L268:
 2536 0a0a 00BF     		.align	2
 2537              	.L267:
 2538 0a0c 00000000 		.word	.LANCHOR0
 2539              		.cfi_endproc
 2540              	.LFE28:
 2541              		.size	alloc_power10_page, .-alloc_power10_page
 2542              		.align	1
 2543              		.p2align 2,,3
 2544              		.global	return_power1_page
 2545              		.syntax unified
 2546              		.thumb
 2547              		.thumb_func
 2548              		.fpu softvfp
 2549              		.type	return_power1_page, %function
 2550              	return_power1_page:
 2551              	.LFB34:
 590:../../source/src/user/OS_LIB/buddy.c **** 
 591:../../source/src/user/OS_LIB/buddy.c **** inline void return_power1_page(void *ptr)
 592:../../source/src/user/OS_LIB/buddy.c **** {
 2552              		.loc 1 592 0
 2553              		.cfi_startproc
ARM GAS  G:\Users\Jaxb\AppData\Local\Temp\ccbV8Tbs.s 			page 63


 2554              		@ args = 0, pretend = 0, frame = 0
 2555              		@ frame_needed = 0, uses_anonymous_args = 0
 2556              	.LVL308:
 2557 0a10 38B5     		push	{r3, r4, r5, lr}
 2558              	.LCFI29:
 2559              		.cfi_def_cfa_offset 16
 2560              		.cfi_offset 3, -16
 2561              		.cfi_offset 4, -12
 2562              		.cfi_offset 5, -8
 2563              		.cfi_offset 14, -4
 2564              		.loc 1 592 0
 2565 0a12 0546     		mov	r5, r0
 593:../../source/src/user/OS_LIB/buddy.c **** 	CPU_SR_ALLOC();
 594:../../source/src/user/OS_LIB/buddy.c **** 	CPU_CRITICAL_ENTER();
 2566              		.loc 1 594 0
 2567 0a14 FFF7FEFF 		bl	CPU_SR_Save
 2568              	.LVL309:
 595:../../source/src/user/OS_LIB/buddy.c **** 	//increase the space of the buddy
 596:../../source/src/user/OS_LIB/buddy.c **** 	current_used_buddy_ptr->current_page_num += PAGE_SIZE_KB;
 597:../../source/src/user/OS_LIB/buddy.c **** 	_return_page(ptr,1);
 2569              		.loc 1 597 0
 2570 0a18 0121     		movs	r1, #1
 594:../../source/src/user/OS_LIB/buddy.c **** 	//increase the space of the buddy
 2571              		.loc 1 594 0
 2572 0a1a 0446     		mov	r4, r0
 2573              	.LVL310:
 596:../../source/src/user/OS_LIB/buddy.c **** 	_return_page(ptr,1);
 2574              		.loc 1 596 0
 2575 0a1c 064B     		ldr	r3, .L270
 2576              		.loc 1 597 0
 2577 0a1e 2846     		mov	r0, r5
 2578              	.LVL311:
 596:../../source/src/user/OS_LIB/buddy.c **** 	_return_page(ptr,1);
 2579              		.loc 1 596 0
 2580 0a20 1A68     		ldr	r2, [r3]
 2581 0a22 D369     		ldr	r3, [r2, #28]
 2582 0a24 0B44     		add	r3, r3, r1
 2583 0a26 D361     		str	r3, [r2, #28]
 2584              		.loc 1 597 0
 2585 0a28 FFF7E0FB 		bl	_return_page
 2586              	.LVL312:
 598:../../source/src/user/OS_LIB/buddy.c **** 	CPU_CRITICAL_EXIT();
 2587              		.loc 1 598 0
 2588 0a2c 2046     		mov	r0, r4
 599:../../source/src/user/OS_LIB/buddy.c **** }
 2589              		.loc 1 599 0
 2590 0a2e BDE83840 		pop	{r3, r4, r5, lr}
 2591              	.LCFI30:
 2592              		.cfi_restore 14
 2593              		.cfi_restore 5
 2594              		.cfi_restore 4
 2595              		.cfi_restore 3
 2596              		.cfi_def_cfa_offset 0
 2597              	.LVL313:
 598:../../source/src/user/OS_LIB/buddy.c **** 	CPU_CRITICAL_EXIT();
 2598              		.loc 1 598 0
 2599 0a32 FFF7FEBF 		b	CPU_SR_Restore
ARM GAS  G:\Users\Jaxb\AppData\Local\Temp\ccbV8Tbs.s 			page 64


 2600              	.LVL314:
 2601              	.L271:
 2602 0a36 00BF     		.align	2
 2603              	.L270:
 2604 0a38 00000000 		.word	.LANCHOR0
 2605              		.cfi_endproc
 2606              	.LFE34:
 2607              		.size	return_power1_page, .-return_power1_page
 2608              		.align	1
 2609              		.p2align 2,,3
 2610              		.global	return_power2_page
 2611              		.syntax unified
 2612              		.thumb
 2613              		.thumb_func
 2614              		.fpu softvfp
 2615              		.type	return_power2_page, %function
 2616              	return_power2_page:
 2617              	.LFB35:
 600:../../source/src/user/OS_LIB/buddy.c **** 
 601:../../source/src/user/OS_LIB/buddy.c **** void return_power2_page(void *ptr)
 602:../../source/src/user/OS_LIB/buddy.c **** {
 2618              		.loc 1 602 0
 2619              		.cfi_startproc
 2620              		@ args = 0, pretend = 0, frame = 0
 2621              		@ frame_needed = 0, uses_anonymous_args = 0
 2622              	.LVL315:
 2623 0a3c 38B5     		push	{r3, r4, r5, lr}
 2624              	.LCFI31:
 2625              		.cfi_def_cfa_offset 16
 2626              		.cfi_offset 3, -16
 2627              		.cfi_offset 4, -12
 2628              		.cfi_offset 5, -8
 2629              		.cfi_offset 14, -4
 2630              		.loc 1 602 0
 2631 0a3e 0546     		mov	r5, r0
 603:../../source/src/user/OS_LIB/buddy.c **** 	CPU_SR_ALLOC();
 604:../../source/src/user/OS_LIB/buddy.c **** 	CPU_CRITICAL_ENTER();
 2632              		.loc 1 604 0
 2633 0a40 FFF7FEFF 		bl	CPU_SR_Save
 2634              	.LVL316:
 605:../../source/src/user/OS_LIB/buddy.c **** 	//increase the space of the buddy
 606:../../source/src/user/OS_LIB/buddy.c **** 	current_used_buddy_ptr->current_page_num += 2 * PAGE_SIZE_KB;
 607:../../source/src/user/OS_LIB/buddy.c **** 	_return_page(ptr,2);
 2635              		.loc 1 607 0
 2636 0a44 0221     		movs	r1, #2
 604:../../source/src/user/OS_LIB/buddy.c **** 	//increase the space of the buddy
 2637              		.loc 1 604 0
 2638 0a46 0446     		mov	r4, r0
 2639              	.LVL317:
 606:../../source/src/user/OS_LIB/buddy.c **** 	_return_page(ptr,2);
 2640              		.loc 1 606 0
 2641 0a48 064B     		ldr	r3, .L273
 2642              		.loc 1 607 0
 2643 0a4a 2846     		mov	r0, r5
 2644              	.LVL318:
 606:../../source/src/user/OS_LIB/buddy.c **** 	_return_page(ptr,2);
 2645              		.loc 1 606 0
ARM GAS  G:\Users\Jaxb\AppData\Local\Temp\ccbV8Tbs.s 			page 65


 2646 0a4c 1A68     		ldr	r2, [r3]
 2647 0a4e D369     		ldr	r3, [r2, #28]
 2648 0a50 0B44     		add	r3, r3, r1
 2649 0a52 D361     		str	r3, [r2, #28]
 2650              		.loc 1 607 0
 2651 0a54 FFF7CAFB 		bl	_return_page
 2652              	.LVL319:
 608:../../source/src/user/OS_LIB/buddy.c **** 	CPU_CRITICAL_EXIT();
 2653              		.loc 1 608 0
 2654 0a58 2046     		mov	r0, r4
 609:../../source/src/user/OS_LIB/buddy.c **** }
 2655              		.loc 1 609 0
 2656 0a5a BDE83840 		pop	{r3, r4, r5, lr}
 2657              	.LCFI32:
 2658              		.cfi_restore 14
 2659              		.cfi_restore 5
 2660              		.cfi_restore 4
 2661              		.cfi_restore 3
 2662              		.cfi_def_cfa_offset 0
 2663              	.LVL320:
 608:../../source/src/user/OS_LIB/buddy.c **** 	CPU_CRITICAL_EXIT();
 2664              		.loc 1 608 0
 2665 0a5e FFF7FEBF 		b	CPU_SR_Restore
 2666              	.LVL321:
 2667              	.L274:
 2668 0a62 00BF     		.align	2
 2669              	.L273:
 2670 0a64 00000000 		.word	.LANCHOR0
 2671              		.cfi_endproc
 2672              	.LFE35:
 2673              		.size	return_power2_page, .-return_power2_page
 2674              		.align	1
 2675              		.p2align 2,,3
 2676              		.global	return_power3_page
 2677              		.syntax unified
 2678              		.thumb
 2679              		.thumb_func
 2680              		.fpu softvfp
 2681              		.type	return_power3_page, %function
 2682              	return_power3_page:
 2683              	.LFB36:
 610:../../source/src/user/OS_LIB/buddy.c **** 
 611:../../source/src/user/OS_LIB/buddy.c **** void return_power3_page(void *ptr)
 612:../../source/src/user/OS_LIB/buddy.c **** {
 2684              		.loc 1 612 0
 2685              		.cfi_startproc
 2686              		@ args = 0, pretend = 0, frame = 0
 2687              		@ frame_needed = 0, uses_anonymous_args = 0
 2688              	.LVL322:
 2689 0a68 38B5     		push	{r3, r4, r5, lr}
 2690              	.LCFI33:
 2691              		.cfi_def_cfa_offset 16
 2692              		.cfi_offset 3, -16
 2693              		.cfi_offset 4, -12
 2694              		.cfi_offset 5, -8
 2695              		.cfi_offset 14, -4
 2696              		.loc 1 612 0
ARM GAS  G:\Users\Jaxb\AppData\Local\Temp\ccbV8Tbs.s 			page 66


 2697 0a6a 0546     		mov	r5, r0
 613:../../source/src/user/OS_LIB/buddy.c **** 	CPU_SR_ALLOC();
 614:../../source/src/user/OS_LIB/buddy.c **** 	CPU_CRITICAL_ENTER();
 2698              		.loc 1 614 0
 2699 0a6c FFF7FEFF 		bl	CPU_SR_Save
 2700              	.LVL323:
 2701 0a70 0446     		mov	r4, r0
 2702              	.LVL324:
 615:../../source/src/user/OS_LIB/buddy.c **** 	//increase the space of the buddy
 616:../../source/src/user/OS_LIB/buddy.c **** 	current_used_buddy_ptr->current_page_num += 4 * PAGE_SIZE_KB;
 2703              		.loc 1 616 0
 2704 0a72 074B     		ldr	r3, .L276
 617:../../source/src/user/OS_LIB/buddy.c **** 	_return_page(ptr,3);
 2705              		.loc 1 617 0
 2706 0a74 2846     		mov	r0, r5
 2707              	.LVL325:
 616:../../source/src/user/OS_LIB/buddy.c **** 	_return_page(ptr,3);
 2708              		.loc 1 616 0
 2709 0a76 1A68     		ldr	r2, [r3]
 2710              		.loc 1 617 0
 2711 0a78 0321     		movs	r1, #3
 616:../../source/src/user/OS_LIB/buddy.c **** 	_return_page(ptr,3);
 2712              		.loc 1 616 0
 2713 0a7a D369     		ldr	r3, [r2, #28]
 2714 0a7c 0433     		adds	r3, r3, #4
 2715 0a7e D361     		str	r3, [r2, #28]
 2716              		.loc 1 617 0
 2717 0a80 FFF7B4FB 		bl	_return_page
 2718              	.LVL326:
 618:../../source/src/user/OS_LIB/buddy.c **** 	CPU_CRITICAL_EXIT();
 2719              		.loc 1 618 0
 2720 0a84 2046     		mov	r0, r4
 619:../../source/src/user/OS_LIB/buddy.c **** }
 2721              		.loc 1 619 0
 2722 0a86 BDE83840 		pop	{r3, r4, r5, lr}
 2723              	.LCFI34:
 2724              		.cfi_restore 14
 2725              		.cfi_restore 5
 2726              		.cfi_restore 4
 2727              		.cfi_restore 3
 2728              		.cfi_def_cfa_offset 0
 2729              	.LVL327:
 618:../../source/src/user/OS_LIB/buddy.c **** 	CPU_CRITICAL_EXIT();
 2730              		.loc 1 618 0
 2731 0a8a FFF7FEBF 		b	CPU_SR_Restore
 2732              	.LVL328:
 2733              	.L277:
 2734 0a8e 00BF     		.align	2
 2735              	.L276:
 2736 0a90 00000000 		.word	.LANCHOR0
 2737              		.cfi_endproc
 2738              	.LFE36:
 2739              		.size	return_power3_page, .-return_power3_page
 2740              		.align	1
 2741              		.p2align 2,,3
 2742              		.global	return_power4_page
 2743              		.syntax unified
ARM GAS  G:\Users\Jaxb\AppData\Local\Temp\ccbV8Tbs.s 			page 67


 2744              		.thumb
 2745              		.thumb_func
 2746              		.fpu softvfp
 2747              		.type	return_power4_page, %function
 2748              	return_power4_page:
 2749              	.LFB37:
 620:../../source/src/user/OS_LIB/buddy.c **** 
 621:../../source/src/user/OS_LIB/buddy.c **** void return_power4_page(void *ptr)
 622:../../source/src/user/OS_LIB/buddy.c **** {
 2750              		.loc 1 622 0
 2751              		.cfi_startproc
 2752              		@ args = 0, pretend = 0, frame = 0
 2753              		@ frame_needed = 0, uses_anonymous_args = 0
 2754              	.LVL329:
 2755 0a94 38B5     		push	{r3, r4, r5, lr}
 2756              	.LCFI35:
 2757              		.cfi_def_cfa_offset 16
 2758              		.cfi_offset 3, -16
 2759              		.cfi_offset 4, -12
 2760              		.cfi_offset 5, -8
 2761              		.cfi_offset 14, -4
 2762              		.loc 1 622 0
 2763 0a96 0546     		mov	r5, r0
 623:../../source/src/user/OS_LIB/buddy.c **** 	CPU_SR_ALLOC();
 624:../../source/src/user/OS_LIB/buddy.c **** 	CPU_CRITICAL_ENTER();
 2764              		.loc 1 624 0
 2765 0a98 FFF7FEFF 		bl	CPU_SR_Save
 2766              	.LVL330:
 2767 0a9c 0446     		mov	r4, r0
 2768              	.LVL331:
 625:../../source/src/user/OS_LIB/buddy.c **** 	//increase the space of the buddy
 626:../../source/src/user/OS_LIB/buddy.c **** 	current_used_buddy_ptr->current_page_num += 8 * PAGE_SIZE_KB;
 2769              		.loc 1 626 0
 2770 0a9e 074B     		ldr	r3, .L279
 627:../../source/src/user/OS_LIB/buddy.c **** 	_return_page(ptr,4);
 2771              		.loc 1 627 0
 2772 0aa0 2846     		mov	r0, r5
 2773              	.LVL332:
 626:../../source/src/user/OS_LIB/buddy.c **** 	_return_page(ptr,4);
 2774              		.loc 1 626 0
 2775 0aa2 1A68     		ldr	r2, [r3]
 2776              		.loc 1 627 0
 2777 0aa4 0421     		movs	r1, #4
 626:../../source/src/user/OS_LIB/buddy.c **** 	_return_page(ptr,4);
 2778              		.loc 1 626 0
 2779 0aa6 D369     		ldr	r3, [r2, #28]
 2780 0aa8 0833     		adds	r3, r3, #8
 2781 0aaa D361     		str	r3, [r2, #28]
 2782              		.loc 1 627 0
 2783 0aac FFF79EFB 		bl	_return_page
 2784              	.LVL333:
 628:../../source/src/user/OS_LIB/buddy.c **** 	CPU_CRITICAL_EXIT();
 2785              		.loc 1 628 0
 2786 0ab0 2046     		mov	r0, r4
 629:../../source/src/user/OS_LIB/buddy.c **** }
 2787              		.loc 1 629 0
 2788 0ab2 BDE83840 		pop	{r3, r4, r5, lr}
ARM GAS  G:\Users\Jaxb\AppData\Local\Temp\ccbV8Tbs.s 			page 68


 2789              	.LCFI36:
 2790              		.cfi_restore 14
 2791              		.cfi_restore 5
 2792              		.cfi_restore 4
 2793              		.cfi_restore 3
 2794              		.cfi_def_cfa_offset 0
 2795              	.LVL334:
 628:../../source/src/user/OS_LIB/buddy.c **** 	CPU_CRITICAL_EXIT();
 2796              		.loc 1 628 0
 2797 0ab6 FFF7FEBF 		b	CPU_SR_Restore
 2798              	.LVL335:
 2799              	.L280:
 2800 0aba 00BF     		.align	2
 2801              	.L279:
 2802 0abc 00000000 		.word	.LANCHOR0
 2803              		.cfi_endproc
 2804              	.LFE37:
 2805              		.size	return_power4_page, .-return_power4_page
 2806              		.align	1
 2807              		.p2align 2,,3
 2808              		.global	return_power5_page
 2809              		.syntax unified
 2810              		.thumb
 2811              		.thumb_func
 2812              		.fpu softvfp
 2813              		.type	return_power5_page, %function
 2814              	return_power5_page:
 2815              	.LFB38:
 630:../../source/src/user/OS_LIB/buddy.c **** 
 631:../../source/src/user/OS_LIB/buddy.c **** void return_power5_page(void *ptr)
 632:../../source/src/user/OS_LIB/buddy.c **** {
 2816              		.loc 1 632 0
 2817              		.cfi_startproc
 2818              		@ args = 0, pretend = 0, frame = 0
 2819              		@ frame_needed = 0, uses_anonymous_args = 0
 2820              	.LVL336:
 2821 0ac0 38B5     		push	{r3, r4, r5, lr}
 2822              	.LCFI37:
 2823              		.cfi_def_cfa_offset 16
 2824              		.cfi_offset 3, -16
 2825              		.cfi_offset 4, -12
 2826              		.cfi_offset 5, -8
 2827              		.cfi_offset 14, -4
 2828              		.loc 1 632 0
 2829 0ac2 0546     		mov	r5, r0
 633:../../source/src/user/OS_LIB/buddy.c **** 	CPU_SR_ALLOC();
 634:../../source/src/user/OS_LIB/buddy.c **** 	CPU_CRITICAL_ENTER();
 2830              		.loc 1 634 0
 2831 0ac4 FFF7FEFF 		bl	CPU_SR_Save
 2832              	.LVL337:
 2833 0ac8 0446     		mov	r4, r0
 2834              	.LVL338:
 635:../../source/src/user/OS_LIB/buddy.c **** 	//increase the space of the buddy
 636:../../source/src/user/OS_LIB/buddy.c **** 	current_used_buddy_ptr->current_page_num += 16 * PAGE_SIZE_KB;
 2835              		.loc 1 636 0
 2836 0aca 074B     		ldr	r3, .L282
 637:../../source/src/user/OS_LIB/buddy.c **** 	_return_page(ptr,5);
ARM GAS  G:\Users\Jaxb\AppData\Local\Temp\ccbV8Tbs.s 			page 69


 2837              		.loc 1 637 0
 2838 0acc 2846     		mov	r0, r5
 2839              	.LVL339:
 636:../../source/src/user/OS_LIB/buddy.c **** 	_return_page(ptr,5);
 2840              		.loc 1 636 0
 2841 0ace 1A68     		ldr	r2, [r3]
 2842              		.loc 1 637 0
 2843 0ad0 0521     		movs	r1, #5
 636:../../source/src/user/OS_LIB/buddy.c **** 	_return_page(ptr,5);
 2844              		.loc 1 636 0
 2845 0ad2 D369     		ldr	r3, [r2, #28]
 2846 0ad4 1033     		adds	r3, r3, #16
 2847 0ad6 D361     		str	r3, [r2, #28]
 2848              		.loc 1 637 0
 2849 0ad8 FFF788FB 		bl	_return_page
 2850              	.LVL340:
 638:../../source/src/user/OS_LIB/buddy.c **** 	CPU_CRITICAL_EXIT();
 2851              		.loc 1 638 0
 2852 0adc 2046     		mov	r0, r4
 639:../../source/src/user/OS_LIB/buddy.c **** }
 2853              		.loc 1 639 0
 2854 0ade BDE83840 		pop	{r3, r4, r5, lr}
 2855              	.LCFI38:
 2856              		.cfi_restore 14
 2857              		.cfi_restore 5
 2858              		.cfi_restore 4
 2859              		.cfi_restore 3
 2860              		.cfi_def_cfa_offset 0
 2861              	.LVL341:
 638:../../source/src/user/OS_LIB/buddy.c **** 	CPU_CRITICAL_EXIT();
 2862              		.loc 1 638 0
 2863 0ae2 FFF7FEBF 		b	CPU_SR_Restore
 2864              	.LVL342:
 2865              	.L283:
 2866 0ae6 00BF     		.align	2
 2867              	.L282:
 2868 0ae8 00000000 		.word	.LANCHOR0
 2869              		.cfi_endproc
 2870              	.LFE38:
 2871              		.size	return_power5_page, .-return_power5_page
 2872              		.align	1
 2873              		.p2align 2,,3
 2874              		.global	return_power6_page
 2875              		.syntax unified
 2876              		.thumb
 2877              		.thumb_func
 2878              		.fpu softvfp
 2879              		.type	return_power6_page, %function
 2880              	return_power6_page:
 2881              	.LFB39:
 640:../../source/src/user/OS_LIB/buddy.c **** 
 641:../../source/src/user/OS_LIB/buddy.c **** void return_power6_page(void *ptr)
 642:../../source/src/user/OS_LIB/buddy.c **** {
 2882              		.loc 1 642 0
 2883              		.cfi_startproc
 2884              		@ args = 0, pretend = 0, frame = 0
 2885              		@ frame_needed = 0, uses_anonymous_args = 0
ARM GAS  G:\Users\Jaxb\AppData\Local\Temp\ccbV8Tbs.s 			page 70


 2886              	.LVL343:
 2887 0aec 38B5     		push	{r3, r4, r5, lr}
 2888              	.LCFI39:
 2889              		.cfi_def_cfa_offset 16
 2890              		.cfi_offset 3, -16
 2891              		.cfi_offset 4, -12
 2892              		.cfi_offset 5, -8
 2893              		.cfi_offset 14, -4
 2894              		.loc 1 642 0
 2895 0aee 0546     		mov	r5, r0
 643:../../source/src/user/OS_LIB/buddy.c **** 	CPU_SR_ALLOC();
 644:../../source/src/user/OS_LIB/buddy.c **** 	CPU_CRITICAL_ENTER();
 2896              		.loc 1 644 0
 2897 0af0 FFF7FEFF 		bl	CPU_SR_Save
 2898              	.LVL344:
 2899 0af4 0446     		mov	r4, r0
 2900              	.LVL345:
 645:../../source/src/user/OS_LIB/buddy.c **** 	//increase the space of the buddy
 646:../../source/src/user/OS_LIB/buddy.c **** 	current_used_buddy_ptr->current_page_num += 32 * PAGE_SIZE_KB;
 2901              		.loc 1 646 0
 2902 0af6 074B     		ldr	r3, .L285
 647:../../source/src/user/OS_LIB/buddy.c **** 	_return_page(ptr,6);
 2903              		.loc 1 647 0
 2904 0af8 2846     		mov	r0, r5
 2905              	.LVL346:
 646:../../source/src/user/OS_LIB/buddy.c **** 	_return_page(ptr,6);
 2906              		.loc 1 646 0
 2907 0afa 1A68     		ldr	r2, [r3]
 2908              		.loc 1 647 0
 2909 0afc 0621     		movs	r1, #6
 646:../../source/src/user/OS_LIB/buddy.c **** 	_return_page(ptr,6);
 2910              		.loc 1 646 0
 2911 0afe D369     		ldr	r3, [r2, #28]
 2912 0b00 2033     		adds	r3, r3, #32
 2913 0b02 D361     		str	r3, [r2, #28]
 2914              		.loc 1 647 0
 2915 0b04 FFF772FB 		bl	_return_page
 2916              	.LVL347:
 648:../../source/src/user/OS_LIB/buddy.c **** 	CPU_CRITICAL_EXIT();
 2917              		.loc 1 648 0
 2918 0b08 2046     		mov	r0, r4
 649:../../source/src/user/OS_LIB/buddy.c **** }
 2919              		.loc 1 649 0
 2920 0b0a BDE83840 		pop	{r3, r4, r5, lr}
 2921              	.LCFI40:
 2922              		.cfi_restore 14
 2923              		.cfi_restore 5
 2924              		.cfi_restore 4
 2925              		.cfi_restore 3
 2926              		.cfi_def_cfa_offset 0
 2927              	.LVL348:
 648:../../source/src/user/OS_LIB/buddy.c **** 	CPU_CRITICAL_EXIT();
 2928              		.loc 1 648 0
 2929 0b0e FFF7FEBF 		b	CPU_SR_Restore
 2930              	.LVL349:
 2931              	.L286:
 2932 0b12 00BF     		.align	2
ARM GAS  G:\Users\Jaxb\AppData\Local\Temp\ccbV8Tbs.s 			page 71


 2933              	.L285:
 2934 0b14 00000000 		.word	.LANCHOR0
 2935              		.cfi_endproc
 2936              	.LFE39:
 2937              		.size	return_power6_page, .-return_power6_page
 2938              		.align	1
 2939              		.p2align 2,,3
 2940              		.global	return_power7_page
 2941              		.syntax unified
 2942              		.thumb
 2943              		.thumb_func
 2944              		.fpu softvfp
 2945              		.type	return_power7_page, %function
 2946              	return_power7_page:
 2947              	.LFB40:
 650:../../source/src/user/OS_LIB/buddy.c **** 
 651:../../source/src/user/OS_LIB/buddy.c **** void return_power7_page(void *ptr)
 652:../../source/src/user/OS_LIB/buddy.c **** {
 2948              		.loc 1 652 0
 2949              		.cfi_startproc
 2950              		@ args = 0, pretend = 0, frame = 0
 2951              		@ frame_needed = 0, uses_anonymous_args = 0
 2952              	.LVL350:
 2953 0b18 38B5     		push	{r3, r4, r5, lr}
 2954              	.LCFI41:
 2955              		.cfi_def_cfa_offset 16
 2956              		.cfi_offset 3, -16
 2957              		.cfi_offset 4, -12
 2958              		.cfi_offset 5, -8
 2959              		.cfi_offset 14, -4
 2960              		.loc 1 652 0
 2961 0b1a 0546     		mov	r5, r0
 653:../../source/src/user/OS_LIB/buddy.c **** 	CPU_SR_ALLOC();
 654:../../source/src/user/OS_LIB/buddy.c **** 	CPU_CRITICAL_ENTER();
 2962              		.loc 1 654 0
 2963 0b1c FFF7FEFF 		bl	CPU_SR_Save
 2964              	.LVL351:
 2965 0b20 0446     		mov	r4, r0
 2966              	.LVL352:
 655:../../source/src/user/OS_LIB/buddy.c **** 	//increase the space of the buddy
 656:../../source/src/user/OS_LIB/buddy.c **** 	current_used_buddy_ptr->current_page_num += 64 * PAGE_SIZE_KB;
 2967              		.loc 1 656 0
 2968 0b22 074B     		ldr	r3, .L288
 657:../../source/src/user/OS_LIB/buddy.c **** 	_return_page(ptr,7);
 2969              		.loc 1 657 0
 2970 0b24 2846     		mov	r0, r5
 2971              	.LVL353:
 656:../../source/src/user/OS_LIB/buddy.c **** 	_return_page(ptr,7);
 2972              		.loc 1 656 0
 2973 0b26 1A68     		ldr	r2, [r3]
 2974              		.loc 1 657 0
 2975 0b28 0721     		movs	r1, #7
 656:../../source/src/user/OS_LIB/buddy.c **** 	_return_page(ptr,7);
 2976              		.loc 1 656 0
 2977 0b2a D369     		ldr	r3, [r2, #28]
 2978 0b2c 4033     		adds	r3, r3, #64
 2979 0b2e D361     		str	r3, [r2, #28]
ARM GAS  G:\Users\Jaxb\AppData\Local\Temp\ccbV8Tbs.s 			page 72


 2980              		.loc 1 657 0
 2981 0b30 FFF75CFB 		bl	_return_page
 2982              	.LVL354:
 658:../../source/src/user/OS_LIB/buddy.c **** 	CPU_CRITICAL_EXIT();
 2983              		.loc 1 658 0
 2984 0b34 2046     		mov	r0, r4
 659:../../source/src/user/OS_LIB/buddy.c **** }
 2985              		.loc 1 659 0
 2986 0b36 BDE83840 		pop	{r3, r4, r5, lr}
 2987              	.LCFI42:
 2988              		.cfi_restore 14
 2989              		.cfi_restore 5
 2990              		.cfi_restore 4
 2991              		.cfi_restore 3
 2992              		.cfi_def_cfa_offset 0
 2993              	.LVL355:
 658:../../source/src/user/OS_LIB/buddy.c **** 	CPU_CRITICAL_EXIT();
 2994              		.loc 1 658 0
 2995 0b3a FFF7FEBF 		b	CPU_SR_Restore
 2996              	.LVL356:
 2997              	.L289:
 2998 0b3e 00BF     		.align	2
 2999              	.L288:
 3000 0b40 00000000 		.word	.LANCHOR0
 3001              		.cfi_endproc
 3002              	.LFE40:
 3003              		.size	return_power7_page, .-return_power7_page
 3004              		.align	1
 3005              		.p2align 2,,3
 3006              		.global	return_power8_page
 3007              		.syntax unified
 3008              		.thumb
 3009              		.thumb_func
 3010              		.fpu softvfp
 3011              		.type	return_power8_page, %function
 3012              	return_power8_page:
 3013              	.LFB41:
 660:../../source/src/user/OS_LIB/buddy.c **** 
 661:../../source/src/user/OS_LIB/buddy.c **** void return_power8_page(void *ptr)
 662:../../source/src/user/OS_LIB/buddy.c **** {
 3014              		.loc 1 662 0
 3015              		.cfi_startproc
 3016              		@ args = 0, pretend = 0, frame = 0
 3017              		@ frame_needed = 0, uses_anonymous_args = 0
 3018              	.LVL357:
 3019 0b44 38B5     		push	{r3, r4, r5, lr}
 3020              	.LCFI43:
 3021              		.cfi_def_cfa_offset 16
 3022              		.cfi_offset 3, -16
 3023              		.cfi_offset 4, -12
 3024              		.cfi_offset 5, -8
 3025              		.cfi_offset 14, -4
 3026              		.loc 1 662 0
 3027 0b46 0546     		mov	r5, r0
 663:../../source/src/user/OS_LIB/buddy.c **** 	CPU_SR_ALLOC();
 664:../../source/src/user/OS_LIB/buddy.c **** 	CPU_CRITICAL_ENTER();
 3028              		.loc 1 664 0
ARM GAS  G:\Users\Jaxb\AppData\Local\Temp\ccbV8Tbs.s 			page 73


 3029 0b48 FFF7FEFF 		bl	CPU_SR_Save
 3030              	.LVL358:
 3031 0b4c 0446     		mov	r4, r0
 3032              	.LVL359:
 665:../../source/src/user/OS_LIB/buddy.c **** 	//increase the space of the buddy
 666:../../source/src/user/OS_LIB/buddy.c **** 	current_used_buddy_ptr->current_page_num += 128 * PAGE_SIZE_KB;
 3033              		.loc 1 666 0
 3034 0b4e 074B     		ldr	r3, .L291
 667:../../source/src/user/OS_LIB/buddy.c **** 	_return_page(ptr,8);
 3035              		.loc 1 667 0
 3036 0b50 2846     		mov	r0, r5
 3037              	.LVL360:
 666:../../source/src/user/OS_LIB/buddy.c **** 	_return_page(ptr,8);
 3038              		.loc 1 666 0
 3039 0b52 1A68     		ldr	r2, [r3]
 3040              		.loc 1 667 0
 3041 0b54 0821     		movs	r1, #8
 666:../../source/src/user/OS_LIB/buddy.c **** 	_return_page(ptr,8);
 3042              		.loc 1 666 0
 3043 0b56 D369     		ldr	r3, [r2, #28]
 3044 0b58 8033     		adds	r3, r3, #128
 3045 0b5a D361     		str	r3, [r2, #28]
 3046              		.loc 1 667 0
 3047 0b5c FFF746FB 		bl	_return_page
 3048              	.LVL361:
 668:../../source/src/user/OS_LIB/buddy.c **** 	CPU_CRITICAL_EXIT();
 3049              		.loc 1 668 0
 3050 0b60 2046     		mov	r0, r4
 669:../../source/src/user/OS_LIB/buddy.c **** }
 3051              		.loc 1 669 0
 3052 0b62 BDE83840 		pop	{r3, r4, r5, lr}
 3053              	.LCFI44:
 3054              		.cfi_restore 14
 3055              		.cfi_restore 5
 3056              		.cfi_restore 4
 3057              		.cfi_restore 3
 3058              		.cfi_def_cfa_offset 0
 3059              	.LVL362:
 668:../../source/src/user/OS_LIB/buddy.c **** 	CPU_CRITICAL_EXIT();
 3060              		.loc 1 668 0
 3061 0b66 FFF7FEBF 		b	CPU_SR_Restore
 3062              	.LVL363:
 3063              	.L292:
 3064 0b6a 00BF     		.align	2
 3065              	.L291:
 3066 0b6c 00000000 		.word	.LANCHOR0
 3067              		.cfi_endproc
 3068              	.LFE41:
 3069              		.size	return_power8_page, .-return_power8_page
 3070              		.align	1
 3071              		.p2align 2,,3
 3072              		.global	return_power9_page
 3073              		.syntax unified
 3074              		.thumb
 3075              		.thumb_func
 3076              		.fpu softvfp
 3077              		.type	return_power9_page, %function
ARM GAS  G:\Users\Jaxb\AppData\Local\Temp\ccbV8Tbs.s 			page 74


 3078              	return_power9_page:
 3079              	.LFB42:
 670:../../source/src/user/OS_LIB/buddy.c **** 
 671:../../source/src/user/OS_LIB/buddy.c **** void return_power9_page(void *ptr)
 672:../../source/src/user/OS_LIB/buddy.c **** {
 3080              		.loc 1 672 0
 3081              		.cfi_startproc
 3082              		@ args = 0, pretend = 0, frame = 0
 3083              		@ frame_needed = 0, uses_anonymous_args = 0
 3084              	.LVL364:
 3085 0b70 38B5     		push	{r3, r4, r5, lr}
 3086              	.LCFI45:
 3087              		.cfi_def_cfa_offset 16
 3088              		.cfi_offset 3, -16
 3089              		.cfi_offset 4, -12
 3090              		.cfi_offset 5, -8
 3091              		.cfi_offset 14, -4
 3092              		.loc 1 672 0
 3093 0b72 0546     		mov	r5, r0
 673:../../source/src/user/OS_LIB/buddy.c **** 	CPU_SR_ALLOC();
 674:../../source/src/user/OS_LIB/buddy.c **** 	CPU_CRITICAL_ENTER();
 3094              		.loc 1 674 0
 3095 0b74 FFF7FEFF 		bl	CPU_SR_Save
 3096              	.LVL365:
 3097 0b78 0446     		mov	r4, r0
 3098              	.LVL366:
 675:../../source/src/user/OS_LIB/buddy.c **** 	//increase the space of the buddy
 676:../../source/src/user/OS_LIB/buddy.c **** 	current_used_buddy_ptr->current_page_num += 256 * PAGE_SIZE_KB;
 3099              		.loc 1 676 0
 3100 0b7a 074B     		ldr	r3, .L294
 677:../../source/src/user/OS_LIB/buddy.c **** 	_return_page(ptr,9);
 3101              		.loc 1 677 0
 3102 0b7c 2846     		mov	r0, r5
 3103              	.LVL367:
 676:../../source/src/user/OS_LIB/buddy.c **** 	_return_page(ptr,9);
 3104              		.loc 1 676 0
 3105 0b7e 1A68     		ldr	r2, [r3]
 3106              		.loc 1 677 0
 3107 0b80 0921     		movs	r1, #9
 676:../../source/src/user/OS_LIB/buddy.c **** 	_return_page(ptr,9);
 3108              		.loc 1 676 0
 3109 0b82 D369     		ldr	r3, [r2, #28]
 3110 0b84 03F58073 		add	r3, r3, #256
 3111 0b88 D361     		str	r3, [r2, #28]
 3112              		.loc 1 677 0
 3113 0b8a FFF72FFB 		bl	_return_page
 3114              	.LVL368:
 678:../../source/src/user/OS_LIB/buddy.c **** 	CPU_CRITICAL_EXIT();
 3115              		.loc 1 678 0
 3116 0b8e 2046     		mov	r0, r4
 679:../../source/src/user/OS_LIB/buddy.c **** }
 3117              		.loc 1 679 0
 3118 0b90 BDE83840 		pop	{r3, r4, r5, lr}
 3119              	.LCFI46:
 3120              		.cfi_restore 14
 3121              		.cfi_restore 5
 3122              		.cfi_restore 4
ARM GAS  G:\Users\Jaxb\AppData\Local\Temp\ccbV8Tbs.s 			page 75


 3123              		.cfi_restore 3
 3124              		.cfi_def_cfa_offset 0
 3125              	.LVL369:
 678:../../source/src/user/OS_LIB/buddy.c **** 	CPU_CRITICAL_EXIT();
 3126              		.loc 1 678 0
 3127 0b94 FFF7FEBF 		b	CPU_SR_Restore
 3128              	.LVL370:
 3129              	.L295:
 3130              		.align	2
 3131              	.L294:
 3132 0b98 00000000 		.word	.LANCHOR0
 3133              		.cfi_endproc
 3134              	.LFE42:
 3135              		.size	return_power9_page, .-return_power9_page
 3136              		.align	1
 3137              		.p2align 2,,3
 3138              		.global	return_power10_page
 3139              		.syntax unified
 3140              		.thumb
 3141              		.thumb_func
 3142              		.fpu softvfp
 3143              		.type	return_power10_page, %function
 3144              	return_power10_page:
 3145              	.LFB43:
 680:../../source/src/user/OS_LIB/buddy.c **** 
 681:../../source/src/user/OS_LIB/buddy.c **** void return_power10_page(void *ptr)
 682:../../source/src/user/OS_LIB/buddy.c **** {
 3146              		.loc 1 682 0
 3147              		.cfi_startproc
 3148              		@ args = 0, pretend = 0, frame = 0
 3149              		@ frame_needed = 0, uses_anonymous_args = 0
 3150              	.LVL371:
 3151 0b9c 38B5     		push	{r3, r4, r5, lr}
 3152              	.LCFI47:
 3153              		.cfi_def_cfa_offset 16
 3154              		.cfi_offset 3, -16
 3155              		.cfi_offset 4, -12
 3156              		.cfi_offset 5, -8
 3157              		.cfi_offset 14, -4
 3158              		.loc 1 682 0
 3159 0b9e 0546     		mov	r5, r0
 683:../../source/src/user/OS_LIB/buddy.c **** 	CPU_SR_ALLOC();
 684:../../source/src/user/OS_LIB/buddy.c **** 	CPU_CRITICAL_ENTER();
 3160              		.loc 1 684 0
 3161 0ba0 FFF7FEFF 		bl	CPU_SR_Save
 3162              	.LVL372:
 3163 0ba4 0446     		mov	r4, r0
 3164              	.LVL373:
 685:../../source/src/user/OS_LIB/buddy.c **** 	//increase the space of the buddy
 686:../../source/src/user/OS_LIB/buddy.c **** 	current_used_buddy_ptr->current_page_num += 512 * PAGE_SIZE_KB;
 3165              		.loc 1 686 0
 3166 0ba6 074B     		ldr	r3, .L297
 687:../../source/src/user/OS_LIB/buddy.c **** 	_return_page(ptr,10);
 3167              		.loc 1 687 0
 3168 0ba8 2846     		mov	r0, r5
 3169              	.LVL374:
 686:../../source/src/user/OS_LIB/buddy.c **** 	_return_page(ptr,10);
ARM GAS  G:\Users\Jaxb\AppData\Local\Temp\ccbV8Tbs.s 			page 76


 3170              		.loc 1 686 0
 3171 0baa 1A68     		ldr	r2, [r3]
 3172              		.loc 1 687 0
 3173 0bac 0A21     		movs	r1, #10
 686:../../source/src/user/OS_LIB/buddy.c **** 	_return_page(ptr,10);
 3174              		.loc 1 686 0
 3175 0bae D369     		ldr	r3, [r2, #28]
 3176 0bb0 03F50073 		add	r3, r3, #512
 3177 0bb4 D361     		str	r3, [r2, #28]
 3178              		.loc 1 687 0
 3179 0bb6 FFF719FB 		bl	_return_page
 3180              	.LVL375:
 688:../../source/src/user/OS_LIB/buddy.c **** 	CPU_CRITICAL_EXIT();
 3181              		.loc 1 688 0
 3182 0bba 2046     		mov	r0, r4
 689:../../source/src/user/OS_LIB/buddy.c **** }
 3183              		.loc 1 689 0
 3184 0bbc BDE83840 		pop	{r3, r4, r5, lr}
 3185              	.LCFI48:
 3186              		.cfi_restore 14
 3187              		.cfi_restore 5
 3188              		.cfi_restore 4
 3189              		.cfi_restore 3
 3190              		.cfi_def_cfa_offset 0
 3191              	.LVL376:
 688:../../source/src/user/OS_LIB/buddy.c **** 	CPU_CRITICAL_EXIT();
 3192              		.loc 1 688 0
 3193 0bc0 FFF7FEBF 		b	CPU_SR_Restore
 3194              	.LVL377:
 3195              	.L298:
 3196              		.align	2
 3197              	.L297:
 3198 0bc4 00000000 		.word	.LANCHOR0
 3199              		.cfi_endproc
 3200              	.LFE43:
 3201              		.size	return_power10_page, .-return_power10_page
 3202              		.align	1
 3203              		.p2align 2,,3
 3204              		.global	shell_buddy_debug
 3205              		.syntax unified
 3206              		.thumb
 3207              		.thumb_func
 3208              		.fpu softvfp
 3209              		.type	shell_buddy_debug, %function
 3210              	shell_buddy_debug:
 3211              	.LFB48:
 690:../../source/src/user/OS_LIB/buddy.c **** 
 691:../../source/src/user/OS_LIB/buddy.c **** #if CONFIG_SHELL_EN
 692:../../source/src/user/OS_LIB/buddy.c **** static int _check_buddy_flag_level(unsigned int level,unsigned int offset)
 693:../../source/src/user/OS_LIB/buddy.c **** {
 694:../../source/src/user/OS_LIB/buddy.c **** 	//PRINTF("level is %d,offset is %d\n",level,offset);
 695:../../source/src/user/OS_LIB/buddy.c **** 	ASSERT((level>=1) && (level<=10));
 696:../../source/src/user/OS_LIB/buddy.c **** 	ASSERT((offset<((current_used_buddy_ptr->info.page_num>>1)/sizeof_level(level))));
 697:../../source/src/user/OS_LIB/buddy.c **** 	unsigned int num = 0;
 698:../../source/src/user/OS_LIB/buddy.c **** 	//int page_num = (0x00000001<<(level-1))<<offset -1;
 699:../../source/src/user/OS_LIB/buddy.c **** 	unsigned int page_num = sizeof_level(level)*2*offset;
 700:../../source/src/user/OS_LIB/buddy.c **** 	if(NOTHING == current_used_buddy_ptr->order_array[level-1])
ARM GAS  G:\Users\Jaxb\AppData\Local\Temp\ccbV8Tbs.s 			page 77


 701:../../source/src/user/OS_LIB/buddy.c **** 	{
 702:../../source/src/user/OS_LIB/buddy.c **** 		return -1;
 703:../../source/src/user/OS_LIB/buddy.c **** 	}
 704:../../source/src/user/OS_LIB/buddy.c **** 	struct order_link buffer = current_used_buddy_ptr->link_body[current_used_buddy_ptr->order_array[l
 705:../../source/src/user/OS_LIB/buddy.c **** 	while(buffer.next != NOTHING)
 706:../../source/src/user/OS_LIB/buddy.c **** 	{
 707:../../source/src/user/OS_LIB/buddy.c **** 		if((page_num == buffer.num) || (page_num+sizeof_level(level) == buffer.num))
 708:../../source/src/user/OS_LIB/buddy.c **** 		{
 709:../../source/src/user/OS_LIB/buddy.c **** 			++num;
 710:../../source/src/user/OS_LIB/buddy.c **** 			if(2 < num)
 711:../../source/src/user/OS_LIB/buddy.c **** 			{
 712:../../source/src/user/OS_LIB/buddy.c **** 				return -1;
 713:../../source/src/user/OS_LIB/buddy.c **** 			}
 714:../../source/src/user/OS_LIB/buddy.c **** 		}
 715:../../source/src/user/OS_LIB/buddy.c **** 		buffer = current_used_buddy_ptr->link_body[buffer.next];
 716:../../source/src/user/OS_LIB/buddy.c **** 	}
 717:../../source/src/user/OS_LIB/buddy.c **** 	if((page_num == buffer.num) || (page_num+sizeof_level(level) == buffer.num))
 718:../../source/src/user/OS_LIB/buddy.c **** 	{
 719:../../source/src/user/OS_LIB/buddy.c **** 		++num;
 720:../../source/src/user/OS_LIB/buddy.c **** 		if(num>=2)
 721:../../source/src/user/OS_LIB/buddy.c **** 		{
 722:../../source/src/user/OS_LIB/buddy.c **** 			return -1;
 723:../../source/src/user/OS_LIB/buddy.c **** 		}
 724:../../source/src/user/OS_LIB/buddy.c **** 	}
 725:../../source/src/user/OS_LIB/buddy.c **** 	if(1 == num)
 726:../../source/src/user/OS_LIB/buddy.c **** 	{
 727:../../source/src/user/OS_LIB/buddy.c **** 		return 0;
 728:../../source/src/user/OS_LIB/buddy.c **** 	}
 729:../../source/src/user/OS_LIB/buddy.c **** 	else
 730:../../source/src/user/OS_LIB/buddy.c **** 	{
 731:../../source/src/user/OS_LIB/buddy.c **** 		return -1;
 732:../../source/src/user/OS_LIB/buddy.c **** 	}
 733:../../source/src/user/OS_LIB/buddy.c **** }
 734:../../source/src/user/OS_LIB/buddy.c **** 
 735:../../source/src/user/OS_LIB/buddy.c **** static unsigned int _get_level(unsigned int array_index,unsigned int array_offset)
 736:../../source/src/user/OS_LIB/buddy.c **** {
 737:../../source/src/user/OS_LIB/buddy.c **** 	unsigned int num = array_index * 8 * sizeof(Flag_Type) + array_offset;
 738:../../source/src/user/OS_LIB/buddy.c **** 	ASSERT(num < 1024);
 739:../../source/src/user/OS_LIB/buddy.c **** 	unsigned int i;
 740:../../source/src/user/OS_LIB/buddy.c **** 	for(i=0;i<current_used_buddy_ptr->info.level_flag_base_size;++i)
 741:../../source/src/user/OS_LIB/buddy.c **** 	{
 742:../../source/src/user/OS_LIB/buddy.c **** 		if(num < current_used_buddy_ptr->level_flag_base[i])
 743:../../source/src/user/OS_LIB/buddy.c **** 		{
 744:../../source/src/user/OS_LIB/buddy.c **** 			return i;
 745:../../source/src/user/OS_LIB/buddy.c **** 		}
 746:../../source/src/user/OS_LIB/buddy.c **** 	}
 747:../../source/src/user/OS_LIB/buddy.c **** 	ASSERT(current_used_buddy_ptr->info.page_num - 2 == num);
 748:../../source/src/user/OS_LIB/buddy.c **** 	return current_used_buddy_ptr->info.max_level;
 749:../../source/src/user/OS_LIB/buddy.c **** }
 750:../../source/src/user/OS_LIB/buddy.c **** 
 751:../../source/src/user/OS_LIB/buddy.c **** static int _check_buddy_level_flag(void)
 752:../../source/src/user/OS_LIB/buddy.c **** {
 753:../../source/src/user/OS_LIB/buddy.c **** 	unsigned int i;
 754:../../source/src/user/OS_LIB/buddy.c **** 	unsigned int num;
 755:../../source/src/user/OS_LIB/buddy.c **** 	struct order_link buffer;
 756:../../source/src/user/OS_LIB/buddy.c **** 	unsigned int offset;
 757:../../source/src/user/OS_LIB/buddy.c **** 	for(i=0;i<current_used_buddy_ptr->info.max_level;++i) //each level
ARM GAS  G:\Users\Jaxb\AppData\Local\Temp\ccbV8Tbs.s 			page 78


 758:../../source/src/user/OS_LIB/buddy.c **** 	{
 759:../../source/src/user/OS_LIB/buddy.c **** 		if(NOTHING != current_used_buddy_ptr->order_array[i])
 760:../../source/src/user/OS_LIB/buddy.c **** 		{
 761:../../source/src/user/OS_LIB/buddy.c **** 			if(i != current_used_buddy_ptr->info.max_level-1)
 762:../../source/src/user/OS_LIB/buddy.c **** 			{
 763:../../source/src/user/OS_LIB/buddy.c **** 				buffer = current_used_buddy_ptr->link_body[current_used_buddy_ptr->order_array[i]];
 764:../../source/src/user/OS_LIB/buddy.c **** 				while(NOTHING != buffer.next)
 765:../../source/src/user/OS_LIB/buddy.c **** 				{
 766:../../source/src/user/OS_LIB/buddy.c **** 					num = buffer.num;
 767:../../source/src/user/OS_LIB/buddy.c **** 					offset = num>>(i+1);
 768:../../source/src/user/OS_LIB/buddy.c **** 					num = current_used_buddy_ptr->level_flag_base[i] + offset;
 769:../../source/src/user/OS_LIB/buddy.c **** 					//PRINTF("num is %d\n",num);
 770:../../source/src/user/OS_LIB/buddy.c **** 					if(!(0x01 & current_used_buddy_ptr->flag[num/(sizeof(Flag_Type)*8)]>>(sizeof(Flag_Type)*8 - nu
 771:../../source/src/user/OS_LIB/buddy.c **** 					{
 772:../../source/src/user/OS_LIB/buddy.c **** 						PRINTF("level %d,page_num %d error\n",i+1,num<<(i+1));
 773:../../source/src/user/OS_LIB/buddy.c **** 						return -1;
 774:../../source/src/user/OS_LIB/buddy.c **** 					}
 775:../../source/src/user/OS_LIB/buddy.c **** 					buffer = current_used_buddy_ptr->link_body[buffer.next];
 776:../../source/src/user/OS_LIB/buddy.c **** 				}
 777:../../source/src/user/OS_LIB/buddy.c **** 				num = buffer.num;
 778:../../source/src/user/OS_LIB/buddy.c **** 				offset = num>>(i+1);
 779:../../source/src/user/OS_LIB/buddy.c **** 				num = current_used_buddy_ptr->level_flag_base[i] + offset;
 780:../../source/src/user/OS_LIB/buddy.c **** 				//PRINTF("num is %d\n",num);
 781:../../source/src/user/OS_LIB/buddy.c **** 				if(!(0x01 & current_used_buddy_ptr->flag[num/(sizeof(Flag_Type)*8)]>>(31-(num%(sizeof(Flag_Type
 782:../../source/src/user/OS_LIB/buddy.c **** 				{
 783:../../source/src/user/OS_LIB/buddy.c **** 					PRINTF("level %d,page_num %d error\n",i+1,num<<(i+1));
 784:../../source/src/user/OS_LIB/buddy.c **** 					return -1;
 785:../../source/src/user/OS_LIB/buddy.c **** 				}
 786:../../source/src/user/OS_LIB/buddy.c **** 			}
 787:../../source/src/user/OS_LIB/buddy.c **** 			else
 788:../../source/src/user/OS_LIB/buddy.c **** 			{
 789:../../source/src/user/OS_LIB/buddy.c **** 				buffer = current_used_buddy_ptr->link_body[current_used_buddy_ptr->order_array[i]];
 790:../../source/src/user/OS_LIB/buddy.c **** 				num = buffer.num;
 791:../../source/src/user/OS_LIB/buddy.c **** 				offset = num>>(i+1);
 792:../../source/src/user/OS_LIB/buddy.c **** 				num = current_used_buddy_ptr->level_flag_base[i] + offset;
 793:../../source/src/user/OS_LIB/buddy.c **** 				if(NOTHING != buffer.next)
 794:../../source/src/user/OS_LIB/buddy.c **** 				{
 795:../../source/src/user/OS_LIB/buddy.c **** 					if(current_used_buddy_ptr->link_body[buffer.next].num != sizeof_level(current_used_buddy_ptr->
 796:../../source/src/user/OS_LIB/buddy.c **** 					{
 797:../../source/src/user/OS_LIB/buddy.c **** 						//PRINTF("here\n");
 798:../../source/src/user/OS_LIB/buddy.c **** 						PRINTF("level %d,page_num %d error\n",i+1,num);
 799:../../source/src/user/OS_LIB/buddy.c **** 						return -1;
 800:../../source/src/user/OS_LIB/buddy.c **** 					}
 801:../../source/src/user/OS_LIB/buddy.c **** 					if(0x01 & current_used_buddy_ptr->flag[num/(sizeof(Flag_Type)*8)]>>(31-(num%(sizeof(Flag_Type)
 802:../../source/src/user/OS_LIB/buddy.c **** 					{
 803:../../source/src/user/OS_LIB/buddy.c **** 						//PRINTF("there\n");
 804:../../source/src/user/OS_LIB/buddy.c **** 						PRINTF("level %d,page_num %d error\n",i+1,num);
 805:../../source/src/user/OS_LIB/buddy.c **** 						return -1;
 806:../../source/src/user/OS_LIB/buddy.c **** 					}
 807:../../source/src/user/OS_LIB/buddy.c **** 				}
 808:../../source/src/user/OS_LIB/buddy.c **** 				else
 809:../../source/src/user/OS_LIB/buddy.c **** 				{
 810:../../source/src/user/OS_LIB/buddy.c **** 					//PRINTF("num is %d\n",num);
 811:../../source/src/user/OS_LIB/buddy.c **** 					if(!(0x01 & current_used_buddy_ptr->flag[num/(sizeof(Flag_Type)*8)]>>(31-(num%(sizeof(Flag_Typ
 812:../../source/src/user/OS_LIB/buddy.c **** 					{
 813:../../source/src/user/OS_LIB/buddy.c **** 						PRINTF("level %d,page_num %d error\n",i+1,num);
 814:../../source/src/user/OS_LIB/buddy.c **** 						return -1;
ARM GAS  G:\Users\Jaxb\AppData\Local\Temp\ccbV8Tbs.s 			page 79


 815:../../source/src/user/OS_LIB/buddy.c **** 					}
 816:../../source/src/user/OS_LIB/buddy.c **** 				}
 817:../../source/src/user/OS_LIB/buddy.c **** 			}
 818:../../source/src/user/OS_LIB/buddy.c **** 		}
 819:../../source/src/user/OS_LIB/buddy.c **** 	}
 820:../../source/src/user/OS_LIB/buddy.c **** 	return 0;
 821:../../source/src/user/OS_LIB/buddy.c **** }
 822:../../source/src/user/OS_LIB/buddy.c **** 
 823:../../source/src/user/OS_LIB/buddy.c **** static int check_buddy(void)
 824:../../source/src/user/OS_LIB/buddy.c **** {
 825:../../source/src/user/OS_LIB/buddy.c **** 	unsigned int i,j;
 826:../../source/src/user/OS_LIB/buddy.c **** 	PRINTF("now going to step1:check from flag to level array\n");
 827:../../source/src/user/OS_LIB/buddy.c **** 	for(i=0;i<current_used_buddy_ptr->info.flag_array_num;++i)
 828:../../source/src/user/OS_LIB/buddy.c **** 	{
 829:../../source/src/user/OS_LIB/buddy.c **** 		if(0 != current_used_buddy_ptr->flag[i])
 830:../../source/src/user/OS_LIB/buddy.c **** 		{
 831:../../source/src/user/OS_LIB/buddy.c **** 			for(j=0;j<8*sizeof(Flag_Type);++j)
 832:../../source/src/user/OS_LIB/buddy.c **** 			{
 833:../../source/src/user/OS_LIB/buddy.c **** 				if(0x01 & (current_used_buddy_ptr->flag[i]>>(31-j))) // corresponding bit is setted
 834:../../source/src/user/OS_LIB/buddy.c **** 				{
 835:../../source/src/user/OS_LIB/buddy.c **** 					unsigned int level = _get_level(i,j);
 836:../../source/src/user/OS_LIB/buddy.c **** 					if(0 != _check_buddy_flag_level(level,i*sizeof(Flag_Type)*8+j-current_used_buddy_ptr->level_fl
 837:../../source/src/user/OS_LIB/buddy.c **** 					{
 838:../../source/src/user/OS_LIB/buddy.c **** 						PRINTF("num %d,level %d error!\n",i*8*sizeof(Flag_Type)+j,level);
 839:../../source/src/user/OS_LIB/buddy.c **** 						return -1;
 840:../../source/src/user/OS_LIB/buddy.c **** 					}
 841:../../source/src/user/OS_LIB/buddy.c **** 				}
 842:../../source/src/user/OS_LIB/buddy.c **** 			}
 843:../../source/src/user/OS_LIB/buddy.c **** 		}
 844:../../source/src/user/OS_LIB/buddy.c **** 	}
 845:../../source/src/user/OS_LIB/buddy.c **** 	PRINTF("Inspection step 1:check from flag to level array is completed.Nothing wrong\n");
 846:../../source/src/user/OS_LIB/buddy.c **** 	PRINTF("now going to step2:check from level array to flag\n");
 847:../../source/src/user/OS_LIB/buddy.c **** 
 848:../../source/src/user/OS_LIB/buddy.c **** 	//then check from level to flag
 849:../../source/src/user/OS_LIB/buddy.c **** 	return _check_buddy_level_flag();
 850:../../source/src/user/OS_LIB/buddy.c **** }
 851:../../source/src/user/OS_LIB/buddy.c **** 
 852:../../source/src/user/OS_LIB/buddy.c **** void shell_buddy_debug(int argc, char const *argv[])
 853:../../source/src/user/OS_LIB/buddy.c **** {
 3212              		.loc 1 853 0
 3213              		.cfi_startproc
 3214              		@ args = 0, pretend = 0, frame = 24
 3215              		@ frame_needed = 0, uses_anonymous_args = 0
 3216              	.LVL378:
 3217 0bc8 2DE9F04F 		push	{r4, r5, r6, r7, r8, r9, r10, fp, lr}
 3218              	.LCFI49:
 3219              		.cfi_def_cfa_offset 36
 3220              		.cfi_offset 4, -36
 3221              		.cfi_offset 5, -32
 3222              		.cfi_offset 6, -28
 3223              		.cfi_offset 7, -24
 3224              		.cfi_offset 8, -20
 3225              		.cfi_offset 9, -16
 3226              		.cfi_offset 10, -12
 3227              		.cfi_offset 11, -8
 3228              		.cfi_offset 14, -4
 3229              	.LBB177:
ARM GAS  G:\Users\Jaxb\AppData\Local\Temp\ccbV8Tbs.s 			page 80


 3230              	.LBB178:
  32:../../source/src/user/OS_LIB/buddy.c **** 	return (const struct buddy *)os_buddy_ptr_head;
 3231              		.loc 1 32 0
 3232 0bcc DFF890B3 		ldr	fp, .L400+88
 3233              	.LBE178:
 3234              	.LBE177:
 3235              		.loc 1 853 0
 3236 0bd0 87B0     		sub	sp, sp, #28
 3237              	.LCFI50:
 3238              		.cfi_def_cfa_offset 64
 3239              	.LBB180:
 3240              	.LBB179:
  32:../../source/src/user/OS_LIB/buddy.c **** 	return (const struct buddy *)os_buddy_ptr_head;
 3241              		.loc 1 32 0
 3242 0bd2 DBF80430 		ldr	r3, [fp, #4]
 3243 0bd6 0493     		str	r3, [sp, #16]
 3244 0bd8 CBF80030 		str	r3, [fp]
 3245              	.LBE179:
 3246              	.LBE180:
 854:../../source/src/user/OS_LIB/buddy.c **** 	(void)argc;
 855:../../source/src/user/OS_LIB/buddy.c **** 	(void)argv;
 856:../../source/src/user/OS_LIB/buddy.c **** 	unsigned int i;
 857:../../source/src/user/OS_LIB/buddy.c **** 	unsigned int j;
 858:../../source/src/user/OS_LIB/buddy.c **** 	struct order_link buffer;
 859:../../source/src/user/OS_LIB/buddy.c **** 	struct buddy *buddy_ptr = (struct buddy *)get_os_buddy_ptr_head();
 860:../../source/src/user/OS_LIB/buddy.c **** 	ASSERT(NULL != buddy_ptr);
 3247              		.loc 1 860 0
 3248 0bdc 002B     		cmp	r3, #0
 3249 0bde 00F04782 		beq	.L390
 3250 0be2 0123     		movs	r3, #1
 3251 0be4 0593     		str	r3, [sp, #20]
 3252              	.LVL379:
 3253              	.L300:
 861:../../source/src/user/OS_LIB/buddy.c **** 	j = 1;
 862:../../source/src/user/OS_LIB/buddy.c **** 	while(NULL != buddy_ptr)
 863:../../source/src/user/OS_LIB/buddy.c **** 	{
 864:../../source/src/user/OS_LIB/buddy.c **** 		PRINTF("NO.%u memory : \n",j++);
 3254              		.loc 1 864 0
 3255 0be6 0599     		ldr	r1, [sp, #20]
 3256 0be8 C748     		ldr	r0, .L400
 3257 0bea FFF7FEFF 		bl	ka_printf
 3258              	.LVL380:
 865:../../source/src/user/OS_LIB/buddy.c **** 		PRINTF("=====================================================\n");
 3259              		.loc 1 865 0
 3260 0bee C748     		ldr	r0, .L400+4
 3261 0bf0 FFF7FEFF 		bl	ka_printf
 3262              	.LVL381:
 866:../../source/src/user/OS_LIB/buddy.c **** 		PRINTF("the following informations are the buddy debug infomations\n");
 3263              		.loc 1 866 0
 3264 0bf4 C648     		ldr	r0, .L400+8
 3265 0bf6 FFF7FEFF 		bl	ka_printf
 3266              	.LVL382:
 3267              	.LBB181:
 3268              	.LBB182:
  50:../../source/src/user/OS_LIB/buddy.c **** 	unsigned int buffer = current_used_buddy_ptr->current_page_num;
 3269              		.loc 1 50 0
 3270 0bfa FFF7FEFF 		bl	CPU_SR_Save
ARM GAS  G:\Users\Jaxb\AppData\Local\Temp\ccbV8Tbs.s 			page 81


 3271              	.LVL383:
  51:../../source/src/user/OS_LIB/buddy.c **** 	CPU_CRITICAL_EXIT();
 3272              		.loc 1 51 0
 3273 0bfe DBF80030 		ldr	r3, [fp]
 3274 0c02 DC69     		ldr	r4, [r3, #28]
 3275              	.LVL384:
  52:../../source/src/user/OS_LIB/buddy.c **** 	return buffer;
 3276              		.loc 1 52 0
 3277 0c04 FFF7FEFF 		bl	CPU_SR_Restore
 3278              	.LVL385:
 3279              	.LBE182:
 3280              	.LBE181:
 867:../../source/src/user/OS_LIB/buddy.c **** 		PRINTF("rest buddy space is %u\n",get_current_buddy_space());
 3281              		.loc 1 867 0
 3282 0c08 2146     		mov	r1, r4
 3283 0c0a C248     		ldr	r0, .L400+12
 3284 0c0c FFF7FEFF 		bl	ka_printf
 3285              	.LVL386:
 868:../../source/src/user/OS_LIB/buddy.c **** 		PRINTF("the total space is %uKB\n",PAGE_SIZE_KB * current_used_buddy_ptr->info.page_num);
 3286              		.loc 1 868 0
 3287 0c10 DBF80030 		ldr	r3, [fp]
 3288 0c14 C048     		ldr	r0, .L400+16
 3289 0c16 596A     		ldr	r1, [r3, #36]
 3290 0c18 FFF7FEFF 		bl	ka_printf
 3291              	.LVL387:
 3292              	.LBB183:
 3293              	.LBB184:
  50:../../source/src/user/OS_LIB/buddy.c **** 	unsigned int buffer = current_used_buddy_ptr->current_page_num;
 3294              		.loc 1 50 0
 3295 0c1c FFF7FEFF 		bl	CPU_SR_Save
 3296              	.LVL388:
  51:../../source/src/user/OS_LIB/buddy.c **** 	CPU_CRITICAL_EXIT();
 3297              		.loc 1 51 0
 3298 0c20 DBF80030 		ldr	r3, [fp]
 3299 0c24 DC69     		ldr	r4, [r3, #28]
 3300              	.LVL389:
  52:../../source/src/user/OS_LIB/buddy.c **** 	return buffer;
 3301              		.loc 1 52 0
 3302 0c26 FFF7FEFF 		bl	CPU_SR_Restore
 3303              	.LVL390:
 3304              	.LBE184:
 3305              	.LBE183:
 869:../../source/src/user/OS_LIB/buddy.c **** 		PRINTF("now there are %u%% left\n",100*get_current_buddy_space()/(PAGE_SIZE_KB * current_used_bud
 3306              		.loc 1 869 0
 3307 0c2a 6423     		movs	r3, #100
 3308 0c2c DBF80020 		ldr	r2, [fp]
 3309 0c30 03FB04F3 		mul	r3, r3, r4
 3310 0c34 516A     		ldr	r1, [r2, #36]
 3311 0c36 B948     		ldr	r0, .L400+20
 3312 0c38 B3FBF1F1 		udiv	r1, r3, r1
 3313 0c3c FFF7FEFF 		bl	ka_printf
 3314              	.LVL391:
 870:../../source/src/user/OS_LIB/buddy.c **** 	//==========================================================================	
 871:../../source/src/user/OS_LIB/buddy.c **** 	//flag info
 872:../../source/src/user/OS_LIB/buddy.c **** 		PRINTF("=====================================================\n");
 3315              		.loc 1 872 0
 3316 0c40 B248     		ldr	r0, .L400+4
ARM GAS  G:\Users\Jaxb\AppData\Local\Temp\ccbV8Tbs.s 			page 82


 3317 0c42 FFF7FEFF 		bl	ka_printf
 3318              	.LVL392:
 873:../../source/src/user/OS_LIB/buddy.c **** 		PRINTF("buddy flag infomation :\n");
 3319              		.loc 1 873 0
 3320 0c46 B648     		ldr	r0, .L400+24
 3321 0c48 FFF7FEFF 		bl	ka_printf
 3322              	.LVL393:
 874:../../source/src/user/OS_LIB/buddy.c **** 		for(i=0;i<current_used_buddy_ptr->info.flag_array_num;++i)
 3323              		.loc 1 874 0
 3324 0c4c DBF80030 		ldr	r3, [fp]
 3325 0c50 1B6A     		ldr	r3, [r3, #32]
 3326 0c52 BBB1     		cbz	r3, .L302
 3327 0c54 1F25     		movs	r5, #31
 3328 0c56 0024     		movs	r4, #0
 875:../../source/src/user/OS_LIB/buddy.c **** 		{
 876:../../source/src/user/OS_LIB/buddy.c **** 			PRINTF("flag %d to %d:",i<<5,(i<<5)+31);
 3329              		.loc 1 876 0
 3330 0c58 B24F     		ldr	r7, .L400+28
 877:../../source/src/user/OS_LIB/buddy.c **** 			PRINTF("%x\n",current_used_buddy_ptr->flag[i]);
 3331              		.loc 1 877 0
 3332 0c5a B34E     		ldr	r6, .L400+32
 3333              	.LVL394:
 3334              	.L303:
 876:../../source/src/user/OS_LIB/buddy.c **** 			PRINTF("%x\n",current_used_buddy_ptr->flag[i]);
 3335              		.loc 1 876 0 discriminator 3
 3336 0c5c 2A46     		mov	r2, r5
 3337 0c5e 6101     		lsls	r1, r4, #5
 3338 0c60 3846     		mov	r0, r7
 3339 0c62 FFF7FEFF 		bl	ka_printf
 3340              	.LVL395:
 3341              		.loc 1 877 0 discriminator 3
 3342 0c66 DBF80030 		ldr	r3, [fp]
 3343 0c6a 3046     		mov	r0, r6
 3344 0c6c 1B68     		ldr	r3, [r3]
 3345 0c6e 2035     		adds	r5, r5, #32
 3346 0c70 53F82410 		ldr	r1, [r3, r4, lsl #2]
 3347 0c74 FFF7FEFF 		bl	ka_printf
 3348              	.LVL396:
 874:../../source/src/user/OS_LIB/buddy.c **** 		{
 3349              		.loc 1 874 0 discriminator 3
 3350 0c78 DBF80030 		ldr	r3, [fp]
 3351 0c7c 0134     		adds	r4, r4, #1
 3352              	.LVL397:
 3353 0c7e 1B6A     		ldr	r3, [r3, #32]
 3354 0c80 A342     		cmp	r3, r4
 3355 0c82 EBD8     		bhi	.L303
 3356              	.LVL398:
 3357              	.L302:
 878:../../source/src/user/OS_LIB/buddy.c **** 		}
 879:../../source/src/user/OS_LIB/buddy.c **** 	//==========================================================================		
 880:../../source/src/user/OS_LIB/buddy.c **** 	//level info
 881:../../source/src/user/OS_LIB/buddy.c **** 		PRINTF("=====================================================\n");
 882:../../source/src/user/OS_LIB/buddy.c **** 		PRINTF("each level's infomation :\n");
 883:../../source/src/user/OS_LIB/buddy.c **** 		for(i=0;i<current_used_buddy_ptr->info.max_level;++i)
 3358              		.loc 1 883 0
 3359 0c84 0026     		movs	r6, #0
 3360 0c86 3546     		mov	r5, r6
ARM GAS  G:\Users\Jaxb\AppData\Local\Temp\ccbV8Tbs.s 			page 83


 881:../../source/src/user/OS_LIB/buddy.c **** 		PRINTF("each level's infomation :\n");
 3361              		.loc 1 881 0
 3362 0c88 A048     		ldr	r0, .L400+4
 3363 0c8a FFF7FEFF 		bl	ka_printf
 3364              	.LVL399:
 882:../../source/src/user/OS_LIB/buddy.c **** 		for(i=0;i<current_used_buddy_ptr->info.max_level;++i)
 3365              		.loc 1 882 0
 3366 0c8e A748     		ldr	r0, .L400+36
 3367 0c90 FFF7FEFF 		bl	ka_printf
 3368              	.LVL400:
 3369              		.loc 1 883 0
 3370 0c94 DBF80030 		ldr	r3, [fp]
 884:../../source/src/user/OS_LIB/buddy.c **** 		{
 885:../../source/src/user/OS_LIB/buddy.c **** 			PRINTF("level %d : ---",i+1);
 3371              		.loc 1 885 0
 3372 0c98 A54F     		ldr	r7, .L400+40
 883:../../source/src/user/OS_LIB/buddy.c **** 		{
 3373              		.loc 1 883 0
 3374 0c9a 9B6A     		ldr	r3, [r3, #40]
 886:../../source/src/user/OS_LIB/buddy.c **** 			if(NOTHING == current_used_buddy_ptr->order_array[i])
 887:../../source/src/user/OS_LIB/buddy.c **** 			{
 888:../../source/src/user/OS_LIB/buddy.c **** 				PRINTF("nothing here\n");
 889:../../source/src/user/OS_LIB/buddy.c **** 			}
 890:../../source/src/user/OS_LIB/buddy.c **** 			else
 891:../../source/src/user/OS_LIB/buddy.c **** 			{
 892:../../source/src/user/OS_LIB/buddy.c **** 				buffer = current_used_buddy_ptr->link_body[current_used_buddy_ptr->order_array[i]];
 893:../../source/src/user/OS_LIB/buddy.c **** 				while(1)
 894:../../source/src/user/OS_LIB/buddy.c **** 				{
 895:../../source/src/user/OS_LIB/buddy.c **** 					PRINTF("num-%d--->",buffer.num);
 896:../../source/src/user/OS_LIB/buddy.c **** 					if(NOTHING == buffer.next)
 897:../../source/src/user/OS_LIB/buddy.c **** 					{
 898:../../source/src/user/OS_LIB/buddy.c **** 						PRINTF("end\n");
 3375              		.loc 1 898 0
 3376 0c9c DFF8C482 		ldr	r8, .L400+92
 3377              	.LVL401:
 883:../../source/src/user/OS_LIB/buddy.c **** 		{
 3378              		.loc 1 883 0
 3379 0ca0 AB42     		cmp	r3, r5
 3380 0ca2 2AD9     		bls	.L391
 3381              	.L309:
 886:../../source/src/user/OS_LIB/buddy.c **** 			if(NOTHING == current_used_buddy_ptr->order_array[i])
 3382              		.loc 1 886 0
 3383 0ca4 4FF6FF79 		movw	r9, #65535
 885:../../source/src/user/OS_LIB/buddy.c **** 			if(NOTHING == current_used_buddy_ptr->order_array[i])
 3384              		.loc 1 885 0
 3385 0ca8 0135     		adds	r5, r5, #1
 3386              	.LVL402:
 3387 0caa 2946     		mov	r1, r5
 3388 0cac 3846     		mov	r0, r7
 3389 0cae FFF7FEFF 		bl	ka_printf
 3390              	.LVL403:
 886:../../source/src/user/OS_LIB/buddy.c **** 			if(NOTHING == current_used_buddy_ptr->order_array[i])
 3391              		.loc 1 886 0
 3392 0cb2 DBF80020 		ldr	r2, [fp]
 3393 0cb6 1369     		ldr	r3, [r2, #16]
 3394 0cb8 9B5B     		ldrh	r3, [r3, r6]
 3395 0cba 4B45     		cmp	r3, r9
ARM GAS  G:\Users\Jaxb\AppData\Local\Temp\ccbV8Tbs.s 			page 84


 3396 0cbc 00F0A080 		beq	.L392
 892:../../source/src/user/OS_LIB/buddy.c **** 				while(1)
 3397              		.loc 1 892 0
 3398 0cc0 5268     		ldr	r2, [r2, #4]
 3399 0cc2 02EB8301 		add	r1, r2, r3, lsl #2
 3400 0cc6 4C88     		ldrh	r4, [r1, #2]
 3401 0cc8 32F82310 		ldrh	r1, [r2, r3, lsl #2]
 3402              	.LVL404:
 3403 0ccc 07E0     		b	.L308
 3404              	.LVL405:
 3405              	.L307:
 899:../../source/src/user/OS_LIB/buddy.c **** 						break ;
 900:../../source/src/user/OS_LIB/buddy.c **** 					}
 901:../../source/src/user/OS_LIB/buddy.c **** 					buffer = current_used_buddy_ptr->link_body[buffer.next];
 3406              		.loc 1 901 0
 3407 0cce DBF80030 		ldr	r3, [fp]
 3408 0cd2 5B68     		ldr	r3, [r3, #4]
 3409 0cd4 03EB8402 		add	r2, r3, r4, lsl #2
 3410 0cd8 33F82410 		ldrh	r1, [r3, r4, lsl #2]
 3411              	.LVL406:
 3412 0cdc 5488     		ldrh	r4, [r2, #2]
 3413              	.LVL407:
 3414              	.L308:
 895:../../source/src/user/OS_LIB/buddy.c **** 					if(NOTHING == buffer.next)
 3415              		.loc 1 895 0
 3416 0cde 9548     		ldr	r0, .L400+44
 3417 0ce0 FFF7FEFF 		bl	ka_printf
 3418              	.LVL408:
 896:../../source/src/user/OS_LIB/buddy.c **** 					{
 3419              		.loc 1 896 0
 3420 0ce4 4C45     		cmp	r4, r9
 3421 0ce6 F2D1     		bne	.L307
 898:../../source/src/user/OS_LIB/buddy.c **** 						break ;
 3422              		.loc 1 898 0
 3423 0ce8 4046     		mov	r0, r8
 3424 0cea FFF7FEFF 		bl	ka_printf
 3425              	.LVL409:
 3426              	.L306:
 883:../../source/src/user/OS_LIB/buddy.c **** 		{
 3427              		.loc 1 883 0 discriminator 1
 3428 0cee DBF80030 		ldr	r3, [fp]
 3429 0cf2 0236     		adds	r6, r6, #2
 3430              	.LVL410:
 3431 0cf4 9B6A     		ldr	r3, [r3, #40]
 3432 0cf6 AB42     		cmp	r3, r5
 3433 0cf8 D4D8     		bhi	.L309
 3434              	.L391:
 902:../../source/src/user/OS_LIB/buddy.c **** 				}
 903:../../source/src/user/OS_LIB/buddy.c **** 			}
 904:../../source/src/user/OS_LIB/buddy.c **** 		}
 905:../../source/src/user/OS_LIB/buddy.c **** 		PRINTF("=====================================================\n");
 3435              		.loc 1 905 0
 3436 0cfa 8448     		ldr	r0, .L400+4
 3437 0cfc FFF7FEFF 		bl	ka_printf
 3438              	.LVL411:
 906:../../source/src/user/OS_LIB/buddy.c **** 	//=========================================================================
 907:../../source/src/user/OS_LIB/buddy.c **** 	//start check the buddy info
ARM GAS  G:\Users\Jaxb\AppData\Local\Temp\ccbV8Tbs.s 			page 85


 908:../../source/src/user/OS_LIB/buddy.c **** 		PRINTF("\nnow going to check the buddy info.......\n");
 3439              		.loc 1 908 0
 3440 0d00 8D48     		ldr	r0, .L400+48
 3441 0d02 FFF7FEFF 		bl	ka_printf
 3442              	.LVL412:
 3443              	.LBB185:
 3444              	.LBB186:
 826:../../source/src/user/OS_LIB/buddy.c **** 	for(i=0;i<current_used_buddy_ptr->info.flag_array_num;++i)
 3445              		.loc 1 826 0
 3446 0d06 8D48     		ldr	r0, .L400+52
 3447 0d08 FFF7FEFF 		bl	ka_printf
 3448              	.LVL413:
 827:../../source/src/user/OS_LIB/buddy.c **** 	{
 3449              		.loc 1 827 0
 3450 0d0c DBF800C0 		ldr	ip, [fp]
 3451 0d10 DCF82030 		ldr	r3, [ip, #32]
 3452 0d14 93B1     		cbz	r3, .L310
 3453 0d16 0023     		movs	r3, #0
 3454              	.LBB187:
 3455              	.LBB188:
 3456              	.LBB189:
 700:../../source/src/user/OS_LIB/buddy.c **** 	{
 3457              		.loc 1 700 0
 3458 0d18 4FF6FF78 		movw	r8, #65535
 3459              	.LBE189:
 3460              	.LBE188:
 3461              	.LBE187:
 827:../../source/src/user/OS_LIB/buddy.c **** 	{
 3462              		.loc 1 827 0
 3463 0d1c 0093     		str	r3, [sp]
 3464              	.LVL414:
 3465              	.L331:
 829:../../source/src/user/OS_LIB/buddy.c **** 		{
 3466              		.loc 1 829 0
 3467 0d1e 0099     		ldr	r1, [sp]
 3468 0d20 DCF80030 		ldr	r3, [ip]
 3469 0d24 8A00     		lsls	r2, r1, #2
 3470 0d26 53F82130 		ldr	r3, [r3, r1, lsl #2]
 3471 0d2a 002B     		cmp	r3, #0
 3472 0d2c 6CD1     		bne	.L393
 3473              	.L311:
 827:../../source/src/user/OS_LIB/buddy.c **** 	{
 3474              		.loc 1 827 0
 3475 0d2e 009A     		ldr	r2, [sp]
 3476 0d30 DCF82030 		ldr	r3, [ip, #32]
 3477 0d34 0132     		adds	r2, r2, #1
 3478 0d36 9A42     		cmp	r2, r3
 3479 0d38 0092     		str	r2, [sp]
 3480              	.LVL415:
 3481 0d3a F0D3     		bcc	.L331
 3482              	.LVL416:
 3483              	.L310:
 845:../../source/src/user/OS_LIB/buddy.c **** 	PRINTF("now going to step2:check from level array to flag\n");
 3484              		.loc 1 845 0
 3485 0d3c 8048     		ldr	r0, .L400+56
 3486 0d3e FFF7FEFF 		bl	ka_printf
 3487              	.LVL417:
ARM GAS  G:\Users\Jaxb\AppData\Local\Temp\ccbV8Tbs.s 			page 86


 846:../../source/src/user/OS_LIB/buddy.c **** 
 3488              		.loc 1 846 0
 3489 0d42 8048     		ldr	r0, .L400+60
 3490 0d44 FFF7FEFF 		bl	ka_printf
 3491              	.LVL418:
 3492              	.LBB208:
 3493              	.LBB209:
 757:../../source/src/user/OS_LIB/buddy.c **** 	{
 3494              		.loc 1 757 0
 3495 0d48 DBF80080 		ldr	r8, [fp]
 3496 0d4c D8F82890 		ldr	r9, [r8, #40]
 3497 0d50 B9F1000F 		cmp	r9, #0
 3498 0d54 41D0     		beq	.L332
 3499 0d56 0020     		movs	r0, #0
 759:../../source/src/user/OS_LIB/buddy.c **** 		{
 3500              		.loc 1 759 0
 3501 0d58 4FF6FF76 		movw	r6, #65535
 3502 0d5c D8F81030 		ldr	r3, [r8, #16]
 761:../../source/src/user/OS_LIB/buddy.c **** 			{
 3503              		.loc 1 761 0
 3504 0d60 09F1FF3A 		add	r10, r9, #-1
 3505 0d64 A3F1020E 		sub	lr, r3, #2
 3506              	.LVL419:
 3507              	.L341:
 759:../../source/src/user/OS_LIB/buddy.c **** 		{
 3508              		.loc 1 759 0
 3509 0d68 3EF8024F 		ldrh	r4, [lr, #2]!
 3510 0d6c 411C     		adds	r1, r0, #1
 3511 0d6e B442     		cmp	r4, r6
 3512 0d70 30D0     		beq	.L333
 3513 0d72 D8F80450 		ldr	r5, [r8, #4]
 3514 0d76 D8F81430 		ldr	r3, [r8, #20]
 3515 0d7a 35F82420 		ldrh	r2, [r5, r4, lsl #2]
 3516 0d7e 33F81070 		ldrh	r7, [r3, r0, lsl #1]
 3517 0d82 CA40     		lsrs	r2, r2, r1
 3518 0d84 05EB8404 		add	r4, r5, r4, lsl #2
 761:../../source/src/user/OS_LIB/buddy.c **** 			{
 3519              		.loc 1 761 0
 3520 0d88 8245     		cmp	r10, r0
 3521 0d8a 6488     		ldrh	r4, [r4, #2]
 3522 0d8c 3A44     		add	r2, r2, r7
 3523 0d8e 00F03681 		beq	.L334
 3524              	.LVL420:
 3525 0d92 D8F80000 		ldr	r0, [r8]
 3526 0d96 5309     		lsrs	r3, r2, #5
 3527 0d98 6FEA020C 		mvn	ip, r2
 3528 0d9c 50F82330 		ldr	r3, [r0, r3, lsl #2]
 3529 0da0 0DE0     		b	.L386
 3530              	.LVL421:
 3531              	.L338:
 770:../../source/src/user/OS_LIB/buddy.c **** 					{
 3532              		.loc 1 770 0
 3533 0da2 002B     		cmp	r3, #0
 3534 0da4 00F05181 		beq	.L387
 3535              	.LVL422:
 775:../../source/src/user/OS_LIB/buddy.c **** 				}
 3536              		.loc 1 775 0
ARM GAS  G:\Users\Jaxb\AppData\Local\Temp\ccbV8Tbs.s 			page 87


 3537 0da8 A400     		lsls	r4, r4, #2
 3538              	.LVL423:
 3539 0daa 2A5B     		ldrh	r2, [r5, r4]
 3540 0dac 2C44     		add	r4, r4, r5
 3541              	.LVL424:
 3542 0dae CA40     		lsrs	r2, r2, r1
 3543 0db0 3A44     		add	r2, r2, r7
 3544 0db2 6FEA020C 		mvn	ip, r2
 3545 0db6 5309     		lsrs	r3, r2, #5
 3546 0db8 50F82330 		ldr	r3, [r0, r3, lsl #2]
 3547 0dbc 6488     		ldrh	r4, [r4, #2]
 3548              	.LVL425:
 3549              	.L386:
 3550 0dbe 0CF01F0C 		and	ip, ip, #31
 3551 0dc2 23FA0CF3 		lsr	r3, r3, ip
 764:../../source/src/user/OS_LIB/buddy.c **** 				{
 3552              		.loc 1 764 0
 3553 0dc6 B442     		cmp	r4, r6
 3554 0dc8 03F00103 		and	r3, r3, #1
 3555 0dcc E9D1     		bne	.L338
 781:../../source/src/user/OS_LIB/buddy.c **** 				{
 3556              		.loc 1 781 0
 3557 0dce 002B     		cmp	r3, #0
 3558 0dd0 00F03B81 		beq	.L387
 3559              	.LVL426:
 3560              	.L333:
 757:../../source/src/user/OS_LIB/buddy.c **** 	{
 3561              		.loc 1 757 0
 3562 0dd4 8945     		cmp	r9, r1
 3563 0dd6 0846     		mov	r0, r1
 3564 0dd8 C6D1     		bne	.L341
 3565              	.LVL427:
 3566              	.L332:
 3567              	.LBE209:
 3568              	.LBE208:
 3569              	.LBE186:
 3570              	.LBE185:
 909:../../source/src/user/OS_LIB/buddy.c **** 		if(0 == check_buddy())
 910:../../source/src/user/OS_LIB/buddy.c **** 		{
 911:../../source/src/user/OS_LIB/buddy.c **** 			PRINTF("correct!\n");
 3571              		.loc 1 911 0
 3572 0dda 5B48     		ldr	r0, .L400+64
 3573 0ddc FFF7FEFF 		bl	ka_printf
 3574              	.LVL428:
 3575              	.L342:
 912:../../source/src/user/OS_LIB/buddy.c **** 		}
 913:../../source/src/user/OS_LIB/buddy.c **** 		else
 914:../../source/src/user/OS_LIB/buddy.c **** 		{
 915:../../source/src/user/OS_LIB/buddy.c **** 			PRINTF("something wrong!\n");
 916:../../source/src/user/OS_LIB/buddy.c **** 		}
 917:../../source/src/user/OS_LIB/buddy.c **** 		PRINTF("\n\n");
 3576              		.loc 1 917 0
 3577 0de0 5A48     		ldr	r0, .L400+68
 3578 0de2 FFF7FEFF 		bl	ka_printf
 3579              	.LVL429:
 3580              	.LBB221:
 3581              	.LBB222:
ARM GAS  G:\Users\Jaxb\AppData\Local\Temp\ccbV8Tbs.s 			page 88


  38:../../source/src/user/OS_LIB/buddy.c **** 	{
 3582              		.loc 1 38 0
 3583 0de6 049B     		ldr	r3, [sp, #16]
 3584 0de8 5B6B     		ldr	r3, [r3, #52]
 3585 0dea 0493     		str	r3, [sp, #16]
 3586              	.LVL430:
 3587 0dec 002B     		cmp	r3, #0
 3588 0dee 00F02081 		beq	.L394
 3589              	.LBE222:
 3590              	.LBE221:
 864:../../source/src/user/OS_LIB/buddy.c **** 		PRINTF("=====================================================\n");
 3591              		.loc 1 864 0
 3592 0df2 059B     		ldr	r3, [sp, #20]
 3593 0df4 0133     		adds	r3, r3, #1
 3594 0df6 0593     		str	r3, [sp, #20]
 3595              	.LVL431:
 3596              	.LBB225:
 3597              	.LBB223:
  43:../../source/src/user/OS_LIB/buddy.c **** 	return (const struct buddy *)current_used_buddy_ptr;
 3598              		.loc 1 43 0
 3599 0df8 049B     		ldr	r3, [sp, #16]
 3600 0dfa CBF80030 		str	r3, [fp]
 3601              	.LVL432:
 3602 0dfe F2E6     		b	.L300
 3603              	.LVL433:
 3604              	.L392:
 3605              	.LBE223:
 3606              	.LBE225:
 888:../../source/src/user/OS_LIB/buddy.c **** 			}
 3607              		.loc 1 888 0
 3608 0e00 5348     		ldr	r0, .L400+72
 3609 0e02 FFF7FEFF 		bl	ka_printf
 3610              	.LVL434:
 3611 0e06 72E7     		b	.L306
 3612              	.LVL435:
 3613              	.L393:
 3614              	.LBB226:
 3615              	.LBB218:
 3616              	.LBB212:
 3617              	.LBB196:
 3618              	.LBB197:
 737:../../source/src/user/OS_LIB/buddy.c **** 	ASSERT(num < 1024);
 3619              		.loc 1 737 0
 3620 0e08 4B01     		lsls	r3, r1, #5
 3621 0e0a 4FF01F0A 		mov	r10, #31
 3622 0e0e 0193     		str	r3, [sp, #4]
 3623 0e10 1646     		mov	r6, r2
 3624 0e12 6046     		mov	r0, ip
 3625 0e14 03E0     		b	.L330
 3626              	.LVL436:
 3627              	.L312:
 3628              	.LBE197:
 3629              	.LBE196:
 3630              	.LBE212:
 831:../../source/src/user/OS_LIB/buddy.c **** 			{
 3631              		.loc 1 831 0
 3632 0e16 1AF1FF3A 		adds	r10, r10, #-1
ARM GAS  G:\Users\Jaxb\AppData\Local\Temp\ccbV8Tbs.s 			page 89


 3633              	.LVL437:
 3634 0e1a C0F0B080 		bcc	.L395
 3635              	.LVL438:
 3636              	.L330:
 833:../../source/src/user/OS_LIB/buddy.c **** 				{
 3637              		.loc 1 833 0
 3638 0e1e 0368     		ldr	r3, [r0]
 3639 0e20 9C59     		ldr	r4, [r3, r6]
 3640 0e22 24FA0AF4 		lsr	r4, r4, r10
 3641 0e26 14F00104 		ands	r4, r4, #1
 3642 0e2a F4D0     		beq	.L312
 3643              	.LVL439:
 3644 0e2c 019B     		ldr	r3, [sp, #4]
 3645 0e2e 03F11F09 		add	r9, r3, #31
 3646 0e32 A9EB0A09 		sub	r9, r9, r10
 3647              	.LVL440:
 3648              	.LBB213:
 3649              	.LBB200:
 3650              	.LBB198:
 738:../../source/src/user/OS_LIB/buddy.c **** 	unsigned int i;
 3651              		.loc 1 738 0
 3652 0e36 B9F5806F 		cmp	r9, #1024
 3653 0e3a 80F0C880 		bcs	.L396
 3654              	.L313:
 3655              	.LVL441:
 740:../../source/src/user/OS_LIB/buddy.c **** 	{
 3656              		.loc 1 740 0
 3657 0e3e 016B     		ldr	r1, [r0, #48]
 3658 0e40 71B1     		cbz	r1, .L314
 742:../../source/src/user/OS_LIB/buddy.c **** 		{
 3659              		.loc 1 742 0
 3660 0e42 4569     		ldr	r5, [r0, #20]
 3661 0e44 2B88     		ldrh	r3, [r5]
 3662 0e46 4B45     		cmp	r3, r9
 3663 0e48 00F29B80 		bhi	.L315
 3664 0e4c 2B46     		mov	r3, r5
 3665 0e4e 0027     		movs	r7, #0
 3666 0e50 03E0     		b	.L316
 3667              	.LVL442:
 3668              	.L318:
 3669 0e52 33F8022F 		ldrh	r2, [r3, #2]!
 3670 0e56 4A45     		cmp	r2, r9
 3671 0e58 0FD8     		bhi	.L317
 3672              	.LVL443:
 3673              	.L316:
 740:../../source/src/user/OS_LIB/buddy.c **** 	{
 3674              		.loc 1 740 0
 3675 0e5a 0137     		adds	r7, r7, #1
 3676              	.LVL444:
 3677 0e5c 8F42     		cmp	r7, r1
 3678 0e5e F8D1     		bne	.L318
 3679              	.LVL445:
 3680              	.L314:
 747:../../source/src/user/OS_LIB/buddy.c **** 	return current_used_buddy_ptr->info.max_level;
 3681              		.loc 1 747 0
 3682 0e60 436A     		ldr	r3, [r0, #36]
 3683 0e62 023B     		subs	r3, r3, #2
ARM GAS  G:\Users\Jaxb\AppData\Local\Temp\ccbV8Tbs.s 			page 90


 3684 0e64 4B45     		cmp	r3, r9
 3685 0e66 06D0     		beq	.L319
 3686 0e68 3A48     		ldr	r0, .L400+76
 3687 0e6a 40F2EB21 		movw	r1, #747
 3688 0e6e FFF7FEFF 		bl	_ASSERT
 3689              	.LVL446:
 3690 0e72 DBF80000 		ldr	r0, [fp]
 3691              	.L319:
 748:../../source/src/user/OS_LIB/buddy.c **** }
 3692              		.loc 1 748 0
 3693 0e76 876A     		ldr	r7, [r0, #40]
 3694 0e78 4569     		ldr	r5, [r0, #20]
 3695              	.L317:
 3696              	.LVL447:
 3697 0e7a 0224     		movs	r4, #2
 3698              	.LBE198:
 3699              	.LBE200:
 836:../../source/src/user/OS_LIB/buddy.c **** 					{
 3700              		.loc 1 836 0
 3701 0e7c 07F10043 		add	r3, r7, #-2147483648
 3702 0e80 013B     		subs	r3, r3, #1
 3703 0e82 35F81320 		ldrh	r2, [r5, r3, lsl #1]
 3704              	.LBB201:
 3705              	.LBB190:
 695:../../source/src/user/OS_LIB/buddy.c **** 	ASSERT((offset<((current_used_buddy_ptr->info.page_num>>1)/sizeof_level(level))));
 3706              		.loc 1 695 0
 3707 0e86 7D1E     		subs	r5, r7, #1
 3708 0e88 092D     		cmp	r5, #9
 3709              	.LBE190:
 3710              	.LBE201:
 836:../../source/src/user/OS_LIB/buddy.c **** 					{
 3711              		.loc 1 836 0
 3712 0e8a A9EB0202 		sub	r2, r9, r2
 3713              	.LVL448:
 3714 0e8e 4FEA4303 		lsl	r3, r3, #1
 3715 0e92 04FA05F4 		lsl	r4, r4, r5
 3716              	.LBB202:
 3717              	.LBB191:
 695:../../source/src/user/OS_LIB/buddy.c **** 	ASSERT((offset<((current_used_buddy_ptr->info.page_num>>1)/sizeof_level(level))));
 3718              		.loc 1 695 0
 3719 0e96 7DD8     		bhi	.L345
 696:../../source/src/user/OS_LIB/buddy.c **** 	unsigned int num = 0;
 3720              		.loc 1 696 0
 3721 0e98 416A     		ldr	r1, [r0, #36]
 3722 0e9a 4908     		lsrs	r1, r1, #1
 3723 0e9c E940     		lsrs	r1, r1, r5
 3724 0e9e 8A42     		cmp	r2, r1
 3725 0ea0 80F08980 		bcs	.L397
 3726              	.LVL449:
 3727              	.L321:
 700:../../source/src/user/OS_LIB/buddy.c **** 	{
 3728              		.loc 1 700 0
 3729 0ea4 0169     		ldr	r1, [r0, #16]
 699:../../source/src/user/OS_LIB/buddy.c **** 	if(NOTHING == current_used_buddy_ptr->order_array[level-1])
 3730              		.loc 1 699 0
 3731 0ea6 04FB02F4 		mul	r4, r4, r2
 3732              	.LVL450:
ARM GAS  G:\Users\Jaxb\AppData\Local\Temp\ccbV8Tbs.s 			page 91


 700:../../source/src/user/OS_LIB/buddy.c **** 	{
 3733              		.loc 1 700 0
 3734 0eaa C95A     		ldrh	r1, [r1, r3]
 3735 0eac 4145     		cmp	r1, r8
 3736 0eae 21D0     		beq	.L322
 704:../../source/src/user/OS_LIB/buddy.c **** 	while(buffer.next != NOTHING)
 3737              		.loc 1 704 0
 3738 0eb0 4268     		ldr	r2, [r0, #4]
 3739 0eb2 02EB8103 		add	r3, r2, r1, lsl #2
 3740 0eb6 5B88     		ldrh	r3, [r3, #2]
 3741 0eb8 32F82110 		ldrh	r1, [r2, r1, lsl #2]
 3742              	.LVL451:
 705:../../source/src/user/OS_LIB/buddy.c **** 	{
 3743              		.loc 1 705 0
 3744 0ebc 4345     		cmp	r3, r8
 3745 0ebe 00F09380 		beq	.L323
 707:../../source/src/user/OS_LIB/buddy.c **** 		{
 3746              		.loc 1 707 0
 3747 0ec2 4FF0010C 		mov	ip, #1
 3748 0ec6 0CFA05F5 		lsl	r5, ip, r5
 697:../../source/src/user/OS_LIB/buddy.c **** 	//int page_num = (0x00000001<<(level-1))<<offset -1;
 3749              		.loc 1 697 0
 3750 0eca 4FF0000E 		mov	lr, #0
 707:../../source/src/user/OS_LIB/buddy.c **** 		{
 3751              		.loc 1 707 0
 3752 0ece 2544     		add	r5, r5, r4
 3753 0ed0 07E0     		b	.L325
 3754              	.LVL452:
 3755              	.L399:
 3756 0ed2 A942     		cmp	r1, r5
 3757 0ed4 09D0     		beq	.L324
 3758              	.L344:
 715:../../source/src/user/OS_LIB/buddy.c **** 	}
 3759              		.loc 1 715 0
 3760 0ed6 32F82310 		ldrh	r1, [r2, r3, lsl #2]
 3761              	.LVL453:
 3762 0eda BCF80230 		ldrh	r3, [ip, #2]
 3763              	.LVL454:
 705:../../source/src/user/OS_LIB/buddy.c **** 	{
 3764              		.loc 1 705 0
 3765 0ede 4345     		cmp	r3, r8
 3766 0ee0 42D0     		beq	.L398
 3767              	.LVL455:
 3768              	.L325:
 707:../../source/src/user/OS_LIB/buddy.c **** 		{
 3769              		.loc 1 707 0
 3770 0ee2 8C42     		cmp	r4, r1
 715:../../source/src/user/OS_LIB/buddy.c **** 	}
 3771              		.loc 1 715 0
 3772 0ee4 02EB830C 		add	ip, r2, r3, lsl #2
 707:../../source/src/user/OS_LIB/buddy.c **** 		{
 3773              		.loc 1 707 0
 3774 0ee8 F3D1     		bne	.L399
 3775              	.L324:
 709:../../source/src/user/OS_LIB/buddy.c **** 			if(2 < num)
 3776              		.loc 1 709 0
 3777 0eea 0EF1010E 		add	lr, lr, #1
ARM GAS  G:\Users\Jaxb\AppData\Local\Temp\ccbV8Tbs.s 			page 92


 3778              	.LVL456:
 710:../../source/src/user/OS_LIB/buddy.c **** 			{
 3779              		.loc 1 710 0
 3780 0eee BEF1020F 		cmp	lr, #2
 3781 0ef2 F0D9     		bls	.L344
 3782              	.LVL457:
 3783              	.L322:
 3784              	.LBE191:
 3785              	.LBE202:
 838:../../source/src/user/OS_LIB/buddy.c **** 						return -1;
 3786              		.loc 1 838 0
 3787 0ef4 3A46     		mov	r2, r7
 3788 0ef6 4946     		mov	r1, r9
 3789 0ef8 1748     		ldr	r0, .L400+80
 3790 0efa FFF7FEFF 		bl	ka_printf
 3791              	.LVL458:
 3792              	.L329:
 3793              	.LBE213:
 3794              	.LBE218:
 3795              	.LBE226:
 915:../../source/src/user/OS_LIB/buddy.c **** 		}
 3796              		.loc 1 915 0
 3797 0efe 1748     		ldr	r0, .L400+84
 3798 0f00 FFF7FEFF 		bl	ka_printf
 3799              	.LVL459:
 3800 0f04 6CE7     		b	.L342
 3801              	.L401:
 3802 0f06 00BF     		.align	2
 3803              	.L400:
 3804 0f08 54000000 		.word	.LC3
 3805 0f0c 68000000 		.word	.LC4
 3806 0f10 A0000000 		.word	.LC5
 3807 0f14 DC000000 		.word	.LC6
 3808 0f18 F4000000 		.word	.LC7
 3809 0f1c 10010000 		.word	.LC8
 3810 0f20 2C010000 		.word	.LC9
 3811 0f24 48010000 		.word	.LC10
 3812 0f28 58010000 		.word	.LC11
 3813 0f2c 5C010000 		.word	.LC12
 3814 0f30 78010000 		.word	.LC13
 3815 0f34 98010000 		.word	.LC15
 3816 0f38 AC010000 		.word	.LC17
 3817 0f3c D8010000 		.word	.LC18
 3818 0f40 24020000 		.word	.LC20
 3819 0f44 74020000 		.word	.LC21
 3820 0f48 C4020000 		.word	.LC23
 3821 0f4c E4020000 		.word	.LC25
 3822 0f50 88010000 		.word	.LC14
 3823 0f54 00000000 		.word	.LC0
 3824 0f58 0C020000 		.word	.LC19
 3825 0f5c D0020000 		.word	.LC24
 3826 0f60 00000000 		.word	.LANCHOR0
 3827 0f64 A4010000 		.word	.LC16
 3828              	.LVL460:
 3829              	.L398:
 3830              	.LBB227:
 3831              	.LBB219:
ARM GAS  G:\Users\Jaxb\AppData\Local\Temp\ccbV8Tbs.s 			page 93


 3832              	.LBB214:
 3833              	.LBB203:
 3834              	.LBB192:
 717:../../source/src/user/OS_LIB/buddy.c **** 	{
 3835              		.loc 1 717 0
 3836 0f68 8C42     		cmp	r4, r1
 3837 0f6a 38D0     		beq	.L327
 3838 0f6c 8D42     		cmp	r5, r1
 3839 0f6e 36D0     		beq	.L327
 725:../../source/src/user/OS_LIB/buddy.c **** 	{
 3840              		.loc 1 725 0
 3841 0f70 BEF1010F 		cmp	lr, #1
 3842 0f74 BED1     		bne	.L322
 3843              	.LVL461:
 3844              	.LBE192:
 3845              	.LBE203:
 3846              	.LBE214:
 831:../../source/src/user/OS_LIB/buddy.c **** 			{
 3847              		.loc 1 831 0
 3848 0f76 1AF1FF3A 		adds	r10, r10, #-1
 3849              	.LVL462:
 3850 0f7a BFF450AF 		bcs	.L330
 3851              	.LVL463:
 3852              	.L395:
 3853 0f7e 8446     		mov	ip, r0
 3854 0f80 D5E6     		b	.L311
 3855              	.LVL464:
 3856              	.L315:
 3857              	.LBB215:
 836:../../source/src/user/OS_LIB/buddy.c **** 					{
 3858              		.loc 1 836 0
 3859 0f82 35F8022C 		ldrh	r2, [r5, #-2]
 3860 0f86 0027     		movs	r7, #0
 3861              	.LBB204:
 3862              	.LBB193:
 695:../../source/src/user/OS_LIB/buddy.c **** 	ASSERT((offset<((current_used_buddy_ptr->info.page_num>>1)/sizeof_level(level))));
 3863              		.loc 1 695 0
 3864 0f88 4FF0FF35 		mov	r5, #-1
 3865              	.LBE193:
 3866              	.LBE204:
 836:../../source/src/user/OS_LIB/buddy.c **** 					{
 3867              		.loc 1 836 0
 3868 0f8c 6FF00103 		mvn	r3, #1
 3869 0f90 A9EB0202 		sub	r2, r9, r2
 3870              	.LVL465:
 3871              	.L345:
 3872              	.LBB205:
 3873              	.LBB194:
 695:../../source/src/user/OS_LIB/buddy.c **** 	ASSERT((offset<((current_used_buddy_ptr->info.page_num>>1)/sizeof_level(level))));
 3874              		.loc 1 695 0
 3875 0f94 40F2B721 		movw	r1, #695
 3876 0f98 3848     		ldr	r0, .L402
 3877 0f9a CDE90223 		strd	r2, r3, [sp, #8]
 3878              	.LVL466:
 3879 0f9e FFF7FEFF 		bl	_ASSERT
 3880              	.LVL467:
 3881 0fa2 DDE90223 		ldrd	r2, r3, [sp, #8]
ARM GAS  G:\Users\Jaxb\AppData\Local\Temp\ccbV8Tbs.s 			page 94


 3882 0fa6 DBF80000 		ldr	r0, [fp]
 696:../../source/src/user/OS_LIB/buddy.c **** 	unsigned int num = 0;
 3883              		.loc 1 696 0
 3884 0faa 416A     		ldr	r1, [r0, #36]
 3885 0fac 4908     		lsrs	r1, r1, #1
 3886 0fae E940     		lsrs	r1, r1, r5
 3887 0fb0 8A42     		cmp	r2, r1
 3888 0fb2 FFF477AF 		bcc	.L321
 3889              	.LVL468:
 3890              	.L397:
 3891 0fb6 3148     		ldr	r0, .L402
 3892 0fb8 4FF42E71 		mov	r1, #696
 3893 0fbc CDE90223 		strd	r2, r3, [sp, #8]
 3894 0fc0 FFF7FEFF 		bl	_ASSERT
 3895              	.LVL469:
 3896 0fc4 DDE90223 		ldrd	r2, r3, [sp, #8]
 3897 0fc8 DBF80000 		ldr	r0, [fp]
 3898 0fcc 6AE7     		b	.L321
 3899              	.LVL470:
 3900              	.L396:
 3901              	.LBE194:
 3902              	.LBE205:
 3903              	.LBB206:
 3904              	.LBB199:
 738:../../source/src/user/OS_LIB/buddy.c **** 	unsigned int i;
 3905              		.loc 1 738 0
 3906 0fce 2B48     		ldr	r0, .L402
 3907 0fd0 40F2E221 		movw	r1, #738
 3908 0fd4 FFF7FEFF 		bl	_ASSERT
 3909              	.LVL471:
 3910 0fd8 DBF80000 		ldr	r0, [fp]
 3911 0fdc 2FE7     		b	.L313
 3912              	.LVL472:
 3913              	.L327:
 3914              	.LBE199:
 3915              	.LBE206:
 3916              	.LBB207:
 3917              	.LBB195:
 720:../../source/src/user/OS_LIB/buddy.c **** 		{
 3918              		.loc 1 720 0
 3919 0fde BEF1000F 		cmp	lr, #0
 3920 0fe2 3FF418AF 		beq	.L312
 3921 0fe6 85E7     		b	.L322
 3922              	.LVL473:
 3923              	.L323:
 717:../../source/src/user/OS_LIB/buddy.c **** 	{
 3924              		.loc 1 717 0
 3925 0fe8 8C42     		cmp	r4, r1
 3926 0fea 3FF414AF 		beq	.L312
 3927 0fee 0123     		movs	r3, #1
 3928              	.LVL474:
 3929 0ff0 03FA05F5 		lsl	r5, r3, r5
 3930 0ff4 2C44     		add	r4, r4, r5
 3931              	.LVL475:
 3932 0ff6 8C42     		cmp	r4, r1
 3933 0ff8 7FF47CAF 		bne	.L322
 3934 0ffc 0BE7     		b	.L312
ARM GAS  G:\Users\Jaxb\AppData\Local\Temp\ccbV8Tbs.s 			page 95


 3935              	.LVL476:
 3936              	.L334:
 3937              	.LBE195:
 3938              	.LBE207:
 3939              	.LBE215:
 3940              	.LBB216:
 3941              	.LBB210:
 793:../../source/src/user/OS_LIB/buddy.c **** 				{
