ARM GAS  G:\Users\Jaxb\AppData\Local\Temp\ccQSOq78.s 			page 1


   1              		.cpu cortex-m3
   2              		.eabi_attribute 20, 1
   3              		.eabi_attribute 21, 1
   4              		.eabi_attribute 23, 3
   5              		.eabi_attribute 24, 1
   6              		.eabi_attribute 25, 1
   7              		.eabi_attribute 26, 1
   8              		.eabi_attribute 30, 6
   9              		.eabi_attribute 34, 1
  10              		.eabi_attribute 18, 4
  11              		.file	"command_processor.c"
  12              		.text
  13              	.Ltext0:
  14              		.cfi_sections	.debug_frame
  15              		.align	1
  16              		.syntax unified
  17              		.thumb
  18              		.thumb_func
  19              		.fpu softvfp
  20              		.type	INIT_SINGLY_LIST_HEAD, %function
  21              	INIT_SINGLY_LIST_HEAD:
  22              	.LFB0:
  23              		.file 1 "../../source/include/os_lib/singly_linked_list.h"
   1:../../source/include/os_lib/singly_linked_list.h **** #ifndef _SINGLY_LINKED_LIST_H
   2:../../source/include/os_lib/singly_linked_list.h **** #define _SINGLY_LINKED_LIST_H
   3:../../source/include/os_lib/singly_linked_list.h **** 
   4:../../source/include/os_lib/singly_linked_list.h **** struct singly_list_head{
   5:../../source/include/os_lib/singly_linked_list.h **** 	struct singly_list_head *next;
   6:../../source/include/os_lib/singly_linked_list.h **** };
   7:../../source/include/os_lib/singly_linked_list.h **** 
   8:../../source/include/os_lib/singly_linked_list.h **** #define SINGLY_LIST_HEAD_INIT(name) { &(name) }
   9:../../source/include/os_lib/singly_linked_list.h **** 
  10:../../source/include/os_lib/singly_linked_list.h **** #define SINGLY_LIST_HEAD(name) \
  11:../../source/include/os_lib/singly_linked_list.h ****     struct singly_list_head name = SINGLY_LIST_HEAD_INIT(name)
  12:../../source/include/os_lib/singly_linked_list.h **** 
  13:../../source/include/os_lib/singly_linked_list.h **** static inline void INIT_SINGLY_LIST_HEAD(struct singly_list_head *list)
  14:../../source/include/os_lib/singly_linked_list.h **** {
  24              		.loc 1 14 0
  25              		.cfi_startproc
  26              		@ args = 0, pretend = 0, frame = 8
  27              		@ frame_needed = 1, uses_anonymous_args = 0
  28              		@ link register save eliminated.
  29 0000 80B4     		push	{r7}
  30              	.LCFI0:
  31              		.cfi_def_cfa_offset 4
  32              		.cfi_offset 7, -4
  33 0002 83B0     		sub	sp, sp, #12
  34              	.LCFI1:
  35              		.cfi_def_cfa_offset 16
  36 0004 00AF     		add	r7, sp, #0
  37              	.LCFI2:
  38              		.cfi_def_cfa_register 7
  39 0006 7860     		str	r0, [r7, #4]
  15:../../source/include/os_lib/singly_linked_list.h **** 	list->next = list;
  40              		.loc 1 15 0
  41 0008 7B68     		ldr	r3, [r7, #4]
  42 000a 7A68     		ldr	r2, [r7, #4]
ARM GAS  G:\Users\Jaxb\AppData\Local\Temp\ccQSOq78.s 			page 2


  43 000c 1A60     		str	r2, [r3]
  16:../../source/include/os_lib/singly_linked_list.h **** }
  44              		.loc 1 16 0
  45 000e 00BF     		nop
  46 0010 0C37     		adds	r7, r7, #12
  47              	.LCFI3:
  48              		.cfi_def_cfa_offset 4
  49 0012 BD46     		mov	sp, r7
  50              	.LCFI4:
  51              		.cfi_def_cfa_register 13
  52              		@ sp needed
  53 0014 80BC     		pop	{r7}
  54              	.LCFI5:
  55              		.cfi_restore 7
  56              		.cfi_def_cfa_offset 0
  57 0016 7047     		bx	lr
  58              		.cfi_endproc
  59              	.LFE0:
  60              		.size	INIT_SINGLY_LIST_HEAD, .-INIT_SINGLY_LIST_HEAD
  61              		.align	1
  62              		.syntax unified
  63              		.thumb
  64              		.thumb_func
  65              		.fpu softvfp
  66              		.type	singly_list_add, %function
  67              	singly_list_add:
  68              	.LFB1:
  17:../../source/include/os_lib/singly_linked_list.h **** 
  18:../../source/include/os_lib/singly_linked_list.h **** static inline void singly_list_add(struct singly_list_head *new,struct singly_list_head *head)
  19:../../source/include/os_lib/singly_linked_list.h **** {
  69              		.loc 1 19 0
  70              		.cfi_startproc
  71              		@ args = 0, pretend = 0, frame = 8
  72              		@ frame_needed = 1, uses_anonymous_args = 0
  73              		@ link register save eliminated.
  74 0018 80B4     		push	{r7}
  75              	.LCFI6:
  76              		.cfi_def_cfa_offset 4
  77              		.cfi_offset 7, -4
  78 001a 83B0     		sub	sp, sp, #12
  79              	.LCFI7:
  80              		.cfi_def_cfa_offset 16
  81 001c 00AF     		add	r7, sp, #0
  82              	.LCFI8:
  83              		.cfi_def_cfa_register 7
  84 001e 7860     		str	r0, [r7, #4]
  85 0020 3960     		str	r1, [r7]
  20:../../source/include/os_lib/singly_linked_list.h **** 	new->next = head->next;
  86              		.loc 1 20 0
  87 0022 3B68     		ldr	r3, [r7]
  88 0024 1A68     		ldr	r2, [r3]
  89 0026 7B68     		ldr	r3, [r7, #4]
  90 0028 1A60     		str	r2, [r3]
  21:../../source/include/os_lib/singly_linked_list.h **** 	head->next = new;
  91              		.loc 1 21 0
  92 002a 3B68     		ldr	r3, [r7]
  93 002c 7A68     		ldr	r2, [r7, #4]
ARM GAS  G:\Users\Jaxb\AppData\Local\Temp\ccQSOq78.s 			page 3


  94 002e 1A60     		str	r2, [r3]
  22:../../source/include/os_lib/singly_linked_list.h **** }
  95              		.loc 1 22 0
  96 0030 00BF     		nop
  97 0032 0C37     		adds	r7, r7, #12
  98              	.LCFI9:
  99              		.cfi_def_cfa_offset 4
 100 0034 BD46     		mov	sp, r7
 101              	.LCFI10:
 102              		.cfi_def_cfa_register 13
 103              		@ sp needed
 104 0036 80BC     		pop	{r7}
 105              	.LCFI11:
 106              		.cfi_restore 7
 107              		.cfi_def_cfa_offset 0
 108 0038 7047     		bx	lr
 109              		.cfi_endproc
 110              	.LFE1:
 111              		.size	singly_list_add, .-singly_list_add
 112              		.bss
 113              		.align	2
 114              	command_1_ptr_hash_array:
 115 0000 00000000 		.space	40
 115      00000000 
 115      00000000 
 115      00000000 
 115      00000000 
 116              		.size	command_1_ptr_hash_array, 40
 117              		.align	2
 118              	command_2_ptr_hash_array:
 119 0028 00000000 		.space	40
 119      00000000 
 119      00000000 
 119      00000000 
 119      00000000 
 120              		.size	command_2_ptr_hash_array, 40
 121              		.align	2
 122              	command_3_ptr_hash_array:
 123 0050 00000000 		.space	40
 123      00000000 
 123      00000000 
 123      00000000 
 123      00000000 
 124              		.size	command_3_ptr_hash_array, 40
 125              		.align	2
 126              	command_4_ptr_hash_array:
 127 0078 00000000 		.space	40
 127      00000000 
 127      00000000 
 127      00000000 
 127      00000000 
 128              		.size	command_4_ptr_hash_array, 40
 129              		.align	2
 130              	command_5_ptr_hash_array:
 131 00a0 00000000 		.space	40
 131      00000000 
 131      00000000 
ARM GAS  G:\Users\Jaxb\AppData\Local\Temp\ccQSOq78.s 			page 4


 131      00000000 
 131      00000000 
 132              		.size	command_5_ptr_hash_array, 40
 133              		.align	2
 134              	command_6_ptr_hash_array:
 135 00c8 00000000 		.space	40
 135      00000000 
 135      00000000 
 135      00000000 
 135      00000000 
 136              		.size	command_6_ptr_hash_array, 40
 137              		.align	2
 138              	command_7_ptr_hash_array:
 139 00f0 00000000 		.space	40
 139      00000000 
 139      00000000 
 139      00000000 
 139      00000000 
 140              		.size	command_7_ptr_hash_array, 40
 141              		.align	2
 142              	command_8_ptr_hash_array:
 143 0118 00000000 		.space	40
 143      00000000 
 143      00000000 
 143      00000000 
 143      00000000 
 144              		.size	command_8_ptr_hash_array, 40
 145              		.data
 146              		.align	2
 147              		.type	command_1_processer, %object
 148              		.size	command_1_processer, 8
 149              	command_1_processer:
 150 0000 01000000 		.word	1
 151 0004 00000000 		.word	command_1_ptr_hash_array
 152              		.align	2
 153              		.type	command_2_processer, %object
 154              		.size	command_2_processer, 8
 155              	command_2_processer:
 156 0008 02000000 		.word	2
 157 000c 28000000 		.word	command_2_ptr_hash_array
 158              		.align	2
 159              		.type	command_3_processer, %object
 160              		.size	command_3_processer, 8
 161              	command_3_processer:
 162 0010 03000000 		.word	3
 163 0014 50000000 		.word	command_3_ptr_hash_array
 164              		.align	2
 165              		.type	command_4_processer, %object
 166              		.size	command_4_processer, 8
 167              	command_4_processer:
 168 0018 04000000 		.word	4
 169 001c 78000000 		.word	command_4_ptr_hash_array
 170              		.align	2
 171              		.type	command_5_processer, %object
 172              		.size	command_5_processer, 8
 173              	command_5_processer:
 174 0020 05000000 		.word	5
ARM GAS  G:\Users\Jaxb\AppData\Local\Temp\ccQSOq78.s 			page 5


 175 0024 A0000000 		.word	command_5_ptr_hash_array
 176              		.align	2
 177              		.type	command_6_processer, %object
 178              		.size	command_6_processer, 8
 179              	command_6_processer:
 180 0028 06000000 		.word	6
 181 002c C8000000 		.word	command_6_ptr_hash_array
 182              		.align	2
 183              		.type	command_7_processer, %object
 184              		.size	command_7_processer, 8
 185              	command_7_processer:
 186 0030 07000000 		.word	7
 187 0034 F0000000 		.word	command_7_ptr_hash_array
 188              		.align	2
 189              		.type	command_8_processer, %object
 190              		.size	command_8_processer, 8
 191              	command_8_processer:
 192 0038 08000000 		.word	8
 193 003c 18010000 		.word	command_8_ptr_hash_array
 194              		.align	2
 195              		.type	command_processer_ptr_array, %object
 196              		.size	command_processer_ptr_array, 32
 197              	command_processer_ptr_array:
 198 0040 00000000 		.word	command_1_processer
 199 0044 08000000 		.word	command_2_processer
 200 0048 10000000 		.word	command_3_processer
 201 004c 18000000 		.word	command_4_processer
 202 0050 20000000 		.word	command_5_processer
 203 0054 28000000 		.word	command_6_processer
 204 0058 30000000 		.word	command_7_processer
 205 005c 38000000 		.word	command_8_processer
 206              		.text
 207              		.align	1
 208              		.global	_get_command_processer
 209              		.syntax unified
 210              		.thumb
 211              		.thumb_func
 212              		.fpu softvfp
 213              		.type	_get_command_processer, %function
 214              	_get_command_processer:
 215              	.LFB4:
 216              		.file 2 "../../source/src/kernel/SHELL/command_processor.c"
   1:../../source/src/kernel/SHELL/command_processor.c **** #include <command_processor.h>
   2:../../source/src/kernel/SHELL/command_processor.c **** #include <myassert.h>
   3:../../source/src/kernel/SHELL/command_processor.c **** #include <myMicroLIB.h>
   4:../../source/src/kernel/SHELL/command_processor.c **** #include <kakaosstdint.h>
   5:../../source/src/kernel/SHELL/command_processor.c **** 
   6:../../source/src/kernel/SHELL/command_processor.c **** #if CONFIG_SHELL_EN
   7:../../source/src/kernel/SHELL/command_processor.c **** 
   8:../../source/src/kernel/SHELL/command_processor.c **** /******
   9:../../source/src/kernel/SHELL/command_processor.c **** *if you need to add command:  step 1: add the following three place if necessary
  10:../../source/src/kernel/SHELL/command_processor.c **** *                             step 2: add struct command in shell.c
  11:../../source/src/kernel/SHELL/command_processor.c **** */
  12:../../source/src/kernel/SHELL/command_processor.c **** /*1.hash array to store command*/
  13:../../source/src/kernel/SHELL/command_processor.c **** static struct singly_list_head command_1_ptr_hash_array[ARRAY_SIZE];
  14:../../source/src/kernel/SHELL/command_processor.c **** static struct singly_list_head command_2_ptr_hash_array[ARRAY_SIZE];
  15:../../source/src/kernel/SHELL/command_processor.c **** static struct singly_list_head command_3_ptr_hash_array[ARRAY_SIZE];
ARM GAS  G:\Users\Jaxb\AppData\Local\Temp\ccQSOq78.s 			page 6


  16:../../source/src/kernel/SHELL/command_processor.c **** static struct singly_list_head command_4_ptr_hash_array[ARRAY_SIZE];
  17:../../source/src/kernel/SHELL/command_processor.c **** static struct singly_list_head command_5_ptr_hash_array[ARRAY_SIZE];
  18:../../source/src/kernel/SHELL/command_processor.c **** static struct singly_list_head command_6_ptr_hash_array[ARRAY_SIZE];
  19:../../source/src/kernel/SHELL/command_processor.c **** static struct singly_list_head command_7_ptr_hash_array[ARRAY_SIZE];
  20:../../source/src/kernel/SHELL/command_processor.c **** static struct singly_list_head command_8_ptr_hash_array[ARRAY_SIZE];
  21:../../source/src/kernel/SHELL/command_processor.c **** /*2.struct command_processer entity*/
  22:../../source/src/kernel/SHELL/command_processor.c **** static struct command_processer command_1_processer = {1,command_1_ptr_hash_array};
  23:../../source/src/kernel/SHELL/command_processor.c **** static struct command_processer command_2_processer = {2,command_2_ptr_hash_array};
  24:../../source/src/kernel/SHELL/command_processor.c **** static struct command_processer command_3_processer = {3,command_3_ptr_hash_array};
  25:../../source/src/kernel/SHELL/command_processor.c **** static struct command_processer command_4_processer = {4,command_4_ptr_hash_array};
  26:../../source/src/kernel/SHELL/command_processor.c **** static struct command_processer command_5_processer = {5,command_5_ptr_hash_array};
  27:../../source/src/kernel/SHELL/command_processor.c **** static struct command_processer command_6_processer = {6,command_6_ptr_hash_array};
  28:../../source/src/kernel/SHELL/command_processor.c **** static struct command_processer command_7_processer = {7,command_7_ptr_hash_array};
  29:../../source/src/kernel/SHELL/command_processor.c **** static struct command_processer command_8_processer = {8,command_8_ptr_hash_array};
  30:../../source/src/kernel/SHELL/command_processor.c **** /*3.array to store command_processor_ptr*/
  31:../../source/src/kernel/SHELL/command_processor.c **** static struct command_processer* command_processer_ptr_array[] = {&command_1_processer,&command_2_p
  32:../../source/src/kernel/SHELL/command_processor.c **** 	&command_3_processer,&command_4_processer,&command_5_processer,&command_6_processer,&command_7_pro
  33:../../source/src/kernel/SHELL/command_processor.c **** 	&command_8_processer};
  34:../../source/src/kernel/SHELL/command_processor.c **** 
  35:../../source/src/kernel/SHELL/command_processor.c **** struct command_processer *_get_command_processer(unsigned int num)
  36:../../source/src/kernel/SHELL/command_processor.c **** {
 217              		.loc 2 36 0
 218              		.cfi_startproc
 219              		@ args = 0, pretend = 0, frame = 8
 220              		@ frame_needed = 1, uses_anonymous_args = 0
 221              		@ link register save eliminated.
 222 003a 80B4     		push	{r7}
 223              	.LCFI12:
 224              		.cfi_def_cfa_offset 4
 225              		.cfi_offset 7, -4
 226 003c 83B0     		sub	sp, sp, #12
 227              	.LCFI13:
 228              		.cfi_def_cfa_offset 16
 229 003e 00AF     		add	r7, sp, #0
 230              	.LCFI14:
 231              		.cfi_def_cfa_register 7
 232 0040 7860     		str	r0, [r7, #4]
  37:../../source/src/kernel/SHELL/command_processor.c **** 	if(!(num <= sizeof(command_processer_ptr_array)/sizeof(struct command_processer *)) || (num<1))
 233              		.loc 2 37 0
 234 0042 7B68     		ldr	r3, [r7, #4]
 235 0044 082B     		cmp	r3, #8
 236 0046 02D8     		bhi	.L4
 237              		.loc 2 37 0 is_stmt 0 discriminator 1
 238 0048 7B68     		ldr	r3, [r7, #4]
 239 004a 002B     		cmp	r3, #0
 240 004c 01D1     		bne	.L5
 241              	.L4:
  38:../../source/src/kernel/SHELL/command_processor.c **** 	{
  39:../../source/src/kernel/SHELL/command_processor.c **** 		return NULL;
 242              		.loc 2 39 0 is_stmt 1
 243 004e 0023     		movs	r3, #0
 244 0050 04E0     		b	.L6
 245              	.L5:
  40:../../source/src/kernel/SHELL/command_processor.c **** 	}
  41:../../source/src/kernel/SHELL/command_processor.c **** 	return command_processer_ptr_array[num-1];
 246              		.loc 2 41 0
 247 0052 7B68     		ldr	r3, [r7, #4]
ARM GAS  G:\Users\Jaxb\AppData\Local\Temp\ccQSOq78.s 			page 7


 248 0054 013B     		subs	r3, r3, #1
 249 0056 044A     		ldr	r2, .L7
 250 0058 52F82330 		ldr	r3, [r2, r3, lsl #2]
 251              	.L6:
  42:../../source/src/kernel/SHELL/command_processor.c **** }
 252              		.loc 2 42 0
 253 005c 1846     		mov	r0, r3
 254 005e 0C37     		adds	r7, r7, #12
 255              	.LCFI15:
 256              		.cfi_def_cfa_offset 4
 257 0060 BD46     		mov	sp, r7
 258              	.LCFI16:
 259              		.cfi_def_cfa_register 13
 260              		@ sp needed
 261 0062 80BC     		pop	{r7}
 262              	.LCFI17:
 263              		.cfi_restore 7
 264              		.cfi_def_cfa_offset 0
 265 0064 7047     		bx	lr
 266              	.L8:
 267 0066 00BF     		.align	2
 268              	.L7:
 269 0068 40000000 		.word	command_processer_ptr_array
 270              		.cfi_endproc
 271              	.LFE4:
 272              		.size	_get_command_processer, .-_get_command_processer
 273              		.section	.rodata
 274              		.align	2
 275              	.LC0:
 276 0000 2E2E2F2E 		.ascii	"../../source/src/kernel/SHELL/command_processor.c\000"
 276      2E2F736F 
 276      75726365 
 276      2F737263 
 276      2F6B6572 
 277              		.text
 278              		.align	1
 279              		.syntax unified
 280              		.thumb
 281              		.thumb_func
 282              		.fpu softvfp
 283              		.type	command_list_hash, %function
 284              	command_list_hash:
 285              	.LFB5:
  43:../../source/src/kernel/SHELL/command_processor.c **** 
  44:../../source/src/kernel/SHELL/command_processor.c **** static unsigned int command_list_hash(const char *command_ptr)
  45:../../source/src/kernel/SHELL/command_processor.c **** {
 286              		.loc 2 45 0
 287              		.cfi_startproc
 288              		@ args = 0, pretend = 0, frame = 16
 289              		@ frame_needed = 1, uses_anonymous_args = 0
 290 006c 80B5     		push	{r7, lr}
 291              	.LCFI18:
 292              		.cfi_def_cfa_offset 8
 293              		.cfi_offset 7, -8
 294              		.cfi_offset 14, -4
 295 006e 84B0     		sub	sp, sp, #16
 296              	.LCFI19:
ARM GAS  G:\Users\Jaxb\AppData\Local\Temp\ccQSOq78.s 			page 8


 297              		.cfi_def_cfa_offset 24
 298 0070 00AF     		add	r7, sp, #0
 299              	.LCFI20:
 300              		.cfi_def_cfa_register 7
 301 0072 7860     		str	r0, [r7, #4]
  46:../../source/src/kernel/SHELL/command_processor.c **** 	unsigned int sum = 0;
 302              		.loc 2 46 0
 303 0074 0023     		movs	r3, #0
 304 0076 FB60     		str	r3, [r7, #12]
  47:../../source/src/kernel/SHELL/command_processor.c **** 	ASSERT(NULL != command_ptr);
 305              		.loc 2 47 0
 306 0078 7B68     		ldr	r3, [r7, #4]
 307 007a 002B     		cmp	r3, #0
 308 007c 0DD1     		bne	.L11
 309              		.loc 2 47 0 is_stmt 0 discriminator 1
 310 007e 2F21     		movs	r1, #47
 311 0080 1548     		ldr	r0, .L15
 312 0082 FFF7FEFF 		bl	_ASSERT
  48:../../source/src/kernel/SHELL/command_processor.c **** 	while((*command_ptr != ' ') && (*command_ptr != 0x0d) && (*command_ptr != 0x0a) && ('\0' != *comma
 313              		.loc 2 48 0 is_stmt 1 discriminator 1
 314 0086 08E0     		b	.L11
 315              	.L13:
  49:../../source/src/kernel/SHELL/command_processor.c **** 	{
  50:../../source/src/kernel/SHELL/command_processor.c **** 		sum += *command_ptr++ - 'a';
 316              		.loc 2 50 0
 317 0088 7B68     		ldr	r3, [r7, #4]
 318 008a 5A1C     		adds	r2, r3, #1
 319 008c 7A60     		str	r2, [r7, #4]
 320 008e 1B78     		ldrb	r3, [r3]	@ zero_extendqisi2
 321 0090 613B     		subs	r3, r3, #97
 322 0092 1A46     		mov	r2, r3
 323 0094 FB68     		ldr	r3, [r7, #12]
 324 0096 1344     		add	r3, r3, r2
 325 0098 FB60     		str	r3, [r7, #12]
 326              	.L11:
  48:../../source/src/kernel/SHELL/command_processor.c **** 	while((*command_ptr != ' ') && (*command_ptr != 0x0d) && (*command_ptr != 0x0a) && ('\0' != *comma
 327              		.loc 2 48 0
 328 009a 7B68     		ldr	r3, [r7, #4]
 329 009c 1B78     		ldrb	r3, [r3]	@ zero_extendqisi2
 330 009e 202B     		cmp	r3, #32
 331 00a0 0BD0     		beq	.L12
  48:../../source/src/kernel/SHELL/command_processor.c **** 	while((*command_ptr != ' ') && (*command_ptr != 0x0d) && (*command_ptr != 0x0a) && ('\0' != *comma
 332              		.loc 2 48 0 is_stmt 0 discriminator 1
 333 00a2 7B68     		ldr	r3, [r7, #4]
 334 00a4 1B78     		ldrb	r3, [r3]	@ zero_extendqisi2
 335 00a6 0D2B     		cmp	r3, #13
 336 00a8 07D0     		beq	.L12
  48:../../source/src/kernel/SHELL/command_processor.c **** 	while((*command_ptr != ' ') && (*command_ptr != 0x0d) && (*command_ptr != 0x0a) && ('\0' != *comma
 337              		.loc 2 48 0 discriminator 2
 338 00aa 7B68     		ldr	r3, [r7, #4]
 339 00ac 1B78     		ldrb	r3, [r3]	@ zero_extendqisi2
 340 00ae 0A2B     		cmp	r3, #10
 341 00b0 03D0     		beq	.L12
  48:../../source/src/kernel/SHELL/command_processor.c **** 	while((*command_ptr != ' ') && (*command_ptr != 0x0d) && (*command_ptr != 0x0a) && ('\0' != *comma
 342              		.loc 2 48 0 discriminator 3
 343 00b2 7B68     		ldr	r3, [r7, #4]
 344 00b4 1B78     		ldrb	r3, [r3]	@ zero_extendqisi2
ARM GAS  G:\Users\Jaxb\AppData\Local\Temp\ccQSOq78.s 			page 9


 345 00b6 002B     		cmp	r3, #0
 346 00b8 E6D1     		bne	.L13
 347              	.L12:
  51:../../source/src/kernel/SHELL/command_processor.c **** 	}
  52:../../source/src/kernel/SHELL/command_processor.c **** #if DEBUG_SHELL
  53:../../source/src/kernel/SHELL/command_processor.c **** 	ka_printf("hash is %u\n",sum % ARRAY_SIZE);
  54:../../source/src/kernel/SHELL/command_processor.c **** #endif
  55:../../source/src/kernel/SHELL/command_processor.c **** 	return sum % ARRAY_SIZE;
 348              		.loc 2 55 0 is_stmt 1
 349 00ba F968     		ldr	r1, [r7, #12]
 350 00bc 074B     		ldr	r3, .L15+4
 351 00be A3FB0123 		umull	r2, r3, r3, r1
 352 00c2 DA08     		lsrs	r2, r3, #3
 353 00c4 1346     		mov	r3, r2
 354 00c6 9B00     		lsls	r3, r3, #2
 355 00c8 1344     		add	r3, r3, r2
 356 00ca 5B00     		lsls	r3, r3, #1
 357 00cc CA1A     		subs	r2, r1, r3
 358 00ce 1346     		mov	r3, r2
  56:../../source/src/kernel/SHELL/command_processor.c **** }
 359              		.loc 2 56 0
 360 00d0 1846     		mov	r0, r3
 361 00d2 1037     		adds	r7, r7, #16
 362              	.LCFI21:
 363              		.cfi_def_cfa_offset 8
 364 00d4 BD46     		mov	sp, r7
 365              	.LCFI22:
 366              		.cfi_def_cfa_register 13
 367              		@ sp needed
 368 00d6 80BD     		pop	{r7, pc}
 369              	.L16:
 370              		.align	2
 371              	.L15:
 372 00d8 00000000 		.word	.LC0
 373 00dc CDCCCCCC 		.word	-858993459
 374              		.cfi_endproc
 375              	.LFE5:
 376              		.size	command_list_hash, .-command_list_hash
 377              		.align	1
 378              		.global	__init_command_n_ptr_hash_array
 379              		.syntax unified
 380              		.thumb
 381              		.thumb_func
 382              		.fpu softvfp
 383              		.type	__init_command_n_ptr_hash_array, %function
 384              	__init_command_n_ptr_hash_array:
 385              	.LFB6:
  57:../../source/src/kernel/SHELL/command_processor.c **** 
  58:../../source/src/kernel/SHELL/command_processor.c **** void __init_command_n_ptr_hash_array(void)
  59:../../source/src/kernel/SHELL/command_processor.c **** {
 386              		.loc 2 59 0
 387              		.cfi_startproc
 388              		@ args = 0, pretend = 0, frame = 8
 389              		@ frame_needed = 1, uses_anonymous_args = 0
 390 00e0 80B5     		push	{r7, lr}
 391              	.LCFI23:
 392              		.cfi_def_cfa_offset 8
ARM GAS  G:\Users\Jaxb\AppData\Local\Temp\ccQSOq78.s 			page 10


 393              		.cfi_offset 7, -8
 394              		.cfi_offset 14, -4
 395 00e2 82B0     		sub	sp, sp, #8
 396              	.LCFI24:
 397              		.cfi_def_cfa_offset 16
 398 00e4 00AF     		add	r7, sp, #0
 399              	.LCFI25:
 400              		.cfi_def_cfa_register 7
  60:../../source/src/kernel/SHELL/command_processor.c **** 	unsigned int i,j;
  61:../../source/src/kernel/SHELL/command_processor.c **** 	for(i=0;i<sizeof(command_processer_ptr_array)/sizeof(struct command_processer *);++i)
 401              		.loc 2 61 0
 402 00e6 0023     		movs	r3, #0
 403 00e8 7B60     		str	r3, [r7, #4]
 404 00ea 16E0     		b	.L18
 405              	.L21:
  62:../../source/src/kernel/SHELL/command_processor.c **** 	{
  63:../../source/src/kernel/SHELL/command_processor.c **** 		for(j=0;j<ARRAY_SIZE;++j)
 406              		.loc 2 63 0
 407 00ec 0023     		movs	r3, #0
 408 00ee 3B60     		str	r3, [r7]
 409 00f0 0DE0     		b	.L19
 410              	.L20:
  64:../../source/src/kernel/SHELL/command_processor.c **** 		{
  65:../../source/src/kernel/SHELL/command_processor.c **** 			INIT_SINGLY_LIST_HEAD(&(command_processer_ptr_array[i]->command_list_address[j]));
 411              		.loc 2 65 0 discriminator 3
 412 00f2 0D4A     		ldr	r2, .L22
 413 00f4 7B68     		ldr	r3, [r7, #4]
 414 00f6 52F82330 		ldr	r3, [r2, r3, lsl #2]
 415 00fa 5A68     		ldr	r2, [r3, #4]
 416 00fc 3B68     		ldr	r3, [r7]
 417 00fe 9B00     		lsls	r3, r3, #2
 418 0100 1344     		add	r3, r3, r2
 419 0102 1846     		mov	r0, r3
 420 0104 FFF77CFF 		bl	INIT_SINGLY_LIST_HEAD
  63:../../source/src/kernel/SHELL/command_processor.c **** 		{
 421              		.loc 2 63 0 discriminator 3
 422 0108 3B68     		ldr	r3, [r7]
 423 010a 0133     		adds	r3, r3, #1
 424 010c 3B60     		str	r3, [r7]
 425              	.L19:
  63:../../source/src/kernel/SHELL/command_processor.c **** 		{
 426              		.loc 2 63 0 is_stmt 0 discriminator 1
 427 010e 3B68     		ldr	r3, [r7]
 428 0110 092B     		cmp	r3, #9
 429 0112 EED9     		bls	.L20
  61:../../source/src/kernel/SHELL/command_processor.c **** 	{
 430              		.loc 2 61 0 is_stmt 1 discriminator 2
 431 0114 7B68     		ldr	r3, [r7, #4]
 432 0116 0133     		adds	r3, r3, #1
 433 0118 7B60     		str	r3, [r7, #4]
 434              	.L18:
  61:../../source/src/kernel/SHELL/command_processor.c **** 	{
 435              		.loc 2 61 0 is_stmt 0 discriminator 1
 436 011a 7B68     		ldr	r3, [r7, #4]
 437 011c 072B     		cmp	r3, #7
 438 011e E5D9     		bls	.L21
  66:../../source/src/kernel/SHELL/command_processor.c **** 		}
ARM GAS  G:\Users\Jaxb\AppData\Local\Temp\ccQSOq78.s 			page 11


  67:../../source/src/kernel/SHELL/command_processor.c **** 	}
  68:../../source/src/kernel/SHELL/command_processor.c **** }
 439              		.loc 2 68 0 is_stmt 1
 440 0120 00BF     		nop
 441 0122 0837     		adds	r7, r7, #8
 442              	.LCFI26:
 443              		.cfi_def_cfa_offset 8
 444 0124 BD46     		mov	sp, r7
 445              	.LCFI27:
 446              		.cfi_def_cfa_register 13
 447              		@ sp needed
 448 0126 80BD     		pop	{r7, pc}
 449              	.L23:
 450              		.align	2
 451              	.L22:
 452 0128 40000000 		.word	command_processer_ptr_array
 453              		.cfi_endproc
 454              	.LFE6:
 455              		.size	__init_command_n_ptr_hash_array, .-__init_command_n_ptr_hash_array
 456              		.section	.rodata
 457 0032 0000     		.align	2
 458              	.LC1:
 459 0034 636F6D6D 		.ascii	"command not found\000"
 459      616E6420 
 459      6E6F7420 
 459      666F756E 
 459      6400
 460 0046 0000     		.align	2
 461              	.LC2:
 462 0048 25730A00 		.ascii	"%s\012\000"
 463              		.align	2
 464              	.LC3:
 465 004c 7200     		.ascii	"r\000"
 466              		.text
 467              		.align	1
 468              		.global	_match_and_execute_command
 469              		.syntax unified
 470              		.thumb
 471              		.thumb_func
 472              		.fpu softvfp
 473              		.type	_match_and_execute_command, %function
 474              	_match_and_execute_command:
 475              	.LFB7:
  69:../../source/src/kernel/SHELL/command_processor.c **** 
  70:../../source/src/kernel/SHELL/command_processor.c **** int _match_and_execute_command(
  71:../../source/src/kernel/SHELL/command_processor.c **** 	int num,
  72:../../source/src/kernel/SHELL/command_processor.c **** 	char const *argv[],
  73:../../source/src/kernel/SHELL/command_processor.c **** 	struct command_processer * const command_processer_ptr)
  74:../../source/src/kernel/SHELL/command_processor.c **** {
 476              		.loc 2 74 0
 477              		.cfi_startproc
 478              		@ args = 0, pretend = 0, frame = 32
 479              		@ frame_needed = 1, uses_anonymous_args = 0
 480 012c 90B5     		push	{r4, r7, lr}
 481              	.LCFI28:
 482              		.cfi_def_cfa_offset 12
 483              		.cfi_offset 4, -12
ARM GAS  G:\Users\Jaxb\AppData\Local\Temp\ccQSOq78.s 			page 12


 484              		.cfi_offset 7, -8
 485              		.cfi_offset 14, -4
 486 012e 89B0     		sub	sp, sp, #36
 487              	.LCFI29:
 488              		.cfi_def_cfa_offset 48
 489 0130 00AF     		add	r7, sp, #0
 490              	.LCFI30:
 491              		.cfi_def_cfa_register 7
 492 0132 F860     		str	r0, [r7, #12]
 493 0134 B960     		str	r1, [r7, #8]
 494 0136 7A60     		str	r2, [r7, #4]
  75:../../source/src/kernel/SHELL/command_processor.c **** 	if(NULL == command_processer_ptr)
 495              		.loc 2 75 0
 496 0138 7B68     		ldr	r3, [r7, #4]
 497 013a 002B     		cmp	r3, #0
 498 013c 06D1     		bne	.L25
  76:../../source/src/kernel/SHELL/command_processor.c **** 	{
  77:../../source/src/kernel/SHELL/command_processor.c **** 		ka_printf("%s\n","command not found");
 499              		.loc 2 77 0
 500 013e 2849     		ldr	r1, .L31
 501 0140 2848     		ldr	r0, .L31+4
 502 0142 FFF7FEFF 		bl	ka_printf
  78:../../source/src/kernel/SHELL/command_processor.c **** 		return -1;
 503              		.loc 2 78 0
 504 0146 4FF0FF33 		mov	r3, #-1
 505 014a 45E0     		b	.L26
 506              	.L25:
  79:../../source/src/kernel/SHELL/command_processor.c **** 	}
  80:../../source/src/kernel/SHELL/command_processor.c **** 	struct command *struct_command_ptr;
  81:../../source/src/kernel/SHELL/command_processor.c **** 	struct singly_list_head *pos;
  82:../../source/src/kernel/SHELL/command_processor.c **** 	singly_list_for_each(pos,&command_processer_ptr->command_list_address[command_list_hash(argv[0])])
 507              		.loc 2 82 0
 508 014c 7B68     		ldr	r3, [r7, #4]
 509 014e 5C68     		ldr	r4, [r3, #4]
 510 0150 BB68     		ldr	r3, [r7, #8]
 511 0152 1B68     		ldr	r3, [r3]
 512 0154 1846     		mov	r0, r3
 513 0156 FFF789FF 		bl	command_list_hash
 514 015a 0346     		mov	r3, r0
 515 015c 9B00     		lsls	r3, r3, #2
 516 015e 2344     		add	r3, r3, r4
 517 0160 1B68     		ldr	r3, [r3]
 518 0162 FB61     		str	r3, [r7, #28]
 519 0164 25E0     		b	.L27
 520              	.L30:
 521              	.LBB2:
  83:../../source/src/kernel/SHELL/command_processor.c **** 	{
  84:../../source/src/kernel/SHELL/command_processor.c **** 		struct_command_ptr = singly_list_entry(pos,struct command,list);
 522              		.loc 2 84 0
 523 0166 FB69     		ldr	r3, [r7, #28]
 524 0168 BB61     		str	r3, [r7, #24]
 525 016a BB69     		ldr	r3, [r7, #24]
 526 016c 083B     		subs	r3, r3, #8
 527              	.LBE2:
 528 016e 7B61     		str	r3, [r7, #20]
  85:../../source/src/kernel/SHELL/command_processor.c **** 		if(0 == ka_strncmp(argv[0],struct_command_ptr->command_name,command_processer_ptr->command_length
 529              		.loc 2 85 0
ARM GAS  G:\Users\Jaxb\AppData\Local\Temp\ccQSOq78.s 			page 13


 530 0170 BB68     		ldr	r3, [r7, #8]
 531 0172 1868     		ldr	r0, [r3]
 532 0174 7B69     		ldr	r3, [r7, #20]
 533 0176 1968     		ldr	r1, [r3]
 534 0178 7B68     		ldr	r3, [r7, #4]
 535 017a 1B68     		ldr	r3, [r3]
 536 017c 1A46     		mov	r2, r3
 537 017e FFF7FEFF 		bl	ka_strncmp
 538 0182 0346     		mov	r3, r0
 539 0184 002B     		cmp	r3, #0
 540 0186 11D1     		bne	.L28
  86:../../source/src/kernel/SHELL/command_processor.c **** 		{
  87:../../source/src/kernel/SHELL/command_processor.c **** 			struct_command_ptr->f(num,argv);
 541              		.loc 2 87 0
 542 0188 7B69     		ldr	r3, [r7, #20]
 543 018a 5B68     		ldr	r3, [r3, #4]
 544 018c B968     		ldr	r1, [r7, #8]
 545 018e F868     		ldr	r0, [r7, #12]
 546 0190 9847     		blx	r3
 547              	.LVL0:
  88:../../source/src/kernel/SHELL/command_processor.c **** 			if(0 == ka_strcmp(argv[0],"r"))
 548              		.loc 2 88 0
 549 0192 BB68     		ldr	r3, [r7, #8]
 550 0194 1B68     		ldr	r3, [r3]
 551 0196 1449     		ldr	r1, .L31+8
 552 0198 1846     		mov	r0, r3
 553 019a FFF7FEFF 		bl	ka_strcmp
 554 019e 0346     		mov	r3, r0
 555 01a0 002B     		cmp	r3, #0
 556 01a2 01D1     		bne	.L29
  89:../../source/src/kernel/SHELL/command_processor.c **** 			{
  90:../../source/src/kernel/SHELL/command_processor.c **** 				return 1;
 557              		.loc 2 90 0
 558 01a4 0123     		movs	r3, #1
 559 01a6 17E0     		b	.L26
 560              	.L29:
  91:../../source/src/kernel/SHELL/command_processor.c **** 			}
  92:../../source/src/kernel/SHELL/command_processor.c **** 			return 0;
 561              		.loc 2 92 0
 562 01a8 0023     		movs	r3, #0
 563 01aa 15E0     		b	.L26
 564              	.L28:
  82:../../source/src/kernel/SHELL/command_processor.c **** 	{
 565              		.loc 2 82 0 discriminator 2
 566 01ac FB69     		ldr	r3, [r7, #28]
 567 01ae 1B68     		ldr	r3, [r3]
 568 01b0 FB61     		str	r3, [r7, #28]
 569              	.L27:
  82:../../source/src/kernel/SHELL/command_processor.c **** 	{
 570              		.loc 2 82 0 is_stmt 0 discriminator 1
 571 01b2 7B68     		ldr	r3, [r7, #4]
 572 01b4 5C68     		ldr	r4, [r3, #4]
 573 01b6 BB68     		ldr	r3, [r7, #8]
 574 01b8 1B68     		ldr	r3, [r3]
 575 01ba 1846     		mov	r0, r3
 576 01bc FFF756FF 		bl	command_list_hash
 577 01c0 0346     		mov	r3, r0
ARM GAS  G:\Users\Jaxb\AppData\Local\Temp\ccQSOq78.s 			page 14


 578 01c2 9B00     		lsls	r3, r3, #2
 579 01c4 2344     		add	r3, r3, r4
 580 01c6 FA69     		ldr	r2, [r7, #28]
 581 01c8 9A42     		cmp	r2, r3
 582 01ca CCD1     		bne	.L30
  93:../../source/src/kernel/SHELL/command_processor.c **** 		}
  94:../../source/src/kernel/SHELL/command_processor.c **** 	}
  95:../../source/src/kernel/SHELL/command_processor.c **** 	ka_printf("%s\n","command not found");
 583              		.loc 2 95 0 is_stmt 1
 584 01cc 0449     		ldr	r1, .L31
 585 01ce 0548     		ldr	r0, .L31+4
 586 01d0 FFF7FEFF 		bl	ka_printf
  96:../../source/src/kernel/SHELL/command_processor.c **** 	return -1;
 587              		.loc 2 96 0
 588 01d4 4FF0FF33 		mov	r3, #-1
 589              	.L26:
  97:../../source/src/kernel/SHELL/command_processor.c **** }
 590              		.loc 2 97 0
 591 01d8 1846     		mov	r0, r3
 592 01da 2437     		adds	r7, r7, #36
 593              	.LCFI31:
 594              		.cfi_def_cfa_offset 12
 595 01dc BD46     		mov	sp, r7
 596              	.LCFI32:
 597              		.cfi_def_cfa_register 13
 598              		@ sp needed
 599 01de 90BD     		pop	{r4, r7, pc}
 600              	.L32:
 601              		.align	2
 602              	.L31:
 603 01e0 34000000 		.word	.LC1
 604 01e4 48000000 		.word	.LC2
 605 01e8 4C000000 		.word	.LC3
 606              		.cfi_endproc
 607              	.LFE7:
 608              		.size	_match_and_execute_command, .-_match_and_execute_command
 609              		.align	1
 610              		.syntax unified
 611              		.thumb
 612              		.thumb_func
 613              		.fpu softvfp
 614              		.type	insert_struct_command, %function
 615              	insert_struct_command:
 616              	.LFB8:
  98:../../source/src/kernel/SHELL/command_processor.c **** 
  99:../../source/src/kernel/SHELL/command_processor.c **** inline static void insert_struct_command(struct command *command_ptr,struct singly_list_head *hash_
 100:../../source/src/kernel/SHELL/command_processor.c **** {
 617              		.loc 2 100 0
 618              		.cfi_startproc
 619              		@ args = 0, pretend = 0, frame = 16
 620              		@ frame_needed = 1, uses_anonymous_args = 0
 621 01ec 80B5     		push	{r7, lr}
 622              	.LCFI33:
 623              		.cfi_def_cfa_offset 8
 624              		.cfi_offset 7, -8
 625              		.cfi_offset 14, -4
 626 01ee 84B0     		sub	sp, sp, #16
ARM GAS  G:\Users\Jaxb\AppData\Local\Temp\ccQSOq78.s 			page 15


 627              	.LCFI34:
 628              		.cfi_def_cfa_offset 24
 629 01f0 00AF     		add	r7, sp, #0
 630              	.LCFI35:
 631              		.cfi_def_cfa_register 7
 632 01f2 7860     		str	r0, [r7, #4]
 633 01f4 3960     		str	r1, [r7]
 101:../../source/src/kernel/SHELL/command_processor.c **** 	ASSERT(NULL != command_ptr);
 634              		.loc 2 101 0
 635 01f6 7B68     		ldr	r3, [r7, #4]
 636 01f8 002B     		cmp	r3, #0
 637 01fa 03D1     		bne	.L34
 638              		.loc 2 101 0 is_stmt 0 discriminator 1
 639 01fc 6521     		movs	r1, #101
 640 01fe 0B48     		ldr	r0, .L35
 641 0200 FFF7FEFF 		bl	_ASSERT
 642              	.L34:
 102:../../source/src/kernel/SHELL/command_processor.c **** 	unsigned int hash = command_list_hash(command_ptr->command_name);
 643              		.loc 2 102 0 is_stmt 1
 644 0204 7B68     		ldr	r3, [r7, #4]
 645 0206 1B68     		ldr	r3, [r3]
 646 0208 1846     		mov	r0, r3
 647 020a FFF72FFF 		bl	command_list_hash
 648 020e F860     		str	r0, [r7, #12]
 103:../../source/src/kernel/SHELL/command_processor.c **** 	singly_list_add(&command_ptr->list,&hash_array[hash]);
 649              		.loc 2 103 0
 650 0210 7B68     		ldr	r3, [r7, #4]
 651 0212 03F10800 		add	r0, r3, #8
 652 0216 FB68     		ldr	r3, [r7, #12]
 653 0218 9B00     		lsls	r3, r3, #2
 654 021a 3A68     		ldr	r2, [r7]
 655 021c 1344     		add	r3, r3, r2
 656 021e 1946     		mov	r1, r3
 657 0220 FFF7FAFE 		bl	singly_list_add
 104:../../source/src/kernel/SHELL/command_processor.c **** }
 658              		.loc 2 104 0
 659 0224 00BF     		nop
 660 0226 1037     		adds	r7, r7, #16
 661              	.LCFI36:
 662              		.cfi_def_cfa_offset 8
 663 0228 BD46     		mov	sp, r7
 664              	.LCFI37:
 665              		.cfi_def_cfa_register 13
 666              		@ sp needed
 667 022a 80BD     		pop	{r7, pc}
 668              	.L36:
 669              		.align	2
 670              	.L35:
 671 022c 00000000 		.word	.LC0
 672              		.cfi_endproc
 673              	.LFE8:
 674              		.size	insert_struct_command, .-insert_struct_command
 675              		.align	1
 676              		.global	_insert_struct_command_1
 677              		.syntax unified
 678              		.thumb
 679              		.thumb_func
ARM GAS  G:\Users\Jaxb\AppData\Local\Temp\ccQSOq78.s 			page 16


 680              		.fpu softvfp
 681              		.type	_insert_struct_command_1, %function
 682              	_insert_struct_command_1:
 683              	.LFB9:
 105:../../source/src/kernel/SHELL/command_processor.c **** 
 106:../../source/src/kernel/SHELL/command_processor.c **** void _insert_struct_command_1(struct command *ptr)
 107:../../source/src/kernel/SHELL/command_processor.c **** {
 684              		.loc 2 107 0
 685              		.cfi_startproc
 686              		@ args = 0, pretend = 0, frame = 8
 687              		@ frame_needed = 1, uses_anonymous_args = 0
 688 0230 80B5     		push	{r7, lr}
 689              	.LCFI38:
 690              		.cfi_def_cfa_offset 8
 691              		.cfi_offset 7, -8
 692              		.cfi_offset 14, -4
 693 0232 82B0     		sub	sp, sp, #8
 694              	.LCFI39:
 695              		.cfi_def_cfa_offset 16
 696 0234 00AF     		add	r7, sp, #0
 697              	.LCFI40:
 698              		.cfi_def_cfa_register 7
 699 0236 7860     		str	r0, [r7, #4]
 108:../../source/src/kernel/SHELL/command_processor.c **** 	insert_struct_command(ptr,command_1_ptr_hash_array);
 700              		.loc 2 108 0
 701 0238 0349     		ldr	r1, .L38
 702 023a 7868     		ldr	r0, [r7, #4]
 703 023c FFF7D6FF 		bl	insert_struct_command
 109:../../source/src/kernel/SHELL/command_processor.c **** }
 704              		.loc 2 109 0
 705 0240 00BF     		nop
 706 0242 0837     		adds	r7, r7, #8
 707              	.LCFI41:
 708              		.cfi_def_cfa_offset 8
 709 0244 BD46     		mov	sp, r7
 710              	.LCFI42:
 711              		.cfi_def_cfa_register 13
 712              		@ sp needed
 713 0246 80BD     		pop	{r7, pc}
 714              	.L39:
 715              		.align	2
 716              	.L38:
 717 0248 00000000 		.word	command_1_ptr_hash_array
 718              		.cfi_endproc
 719              	.LFE9:
 720              		.size	_insert_struct_command_1, .-_insert_struct_command_1
 721              		.align	1
 722              		.global	_insert_struct_command_2
 723              		.syntax unified
 724              		.thumb
 725              		.thumb_func
 726              		.fpu softvfp
 727              		.type	_insert_struct_command_2, %function
 728              	_insert_struct_command_2:
 729              	.LFB10:
 110:../../source/src/kernel/SHELL/command_processor.c **** void _insert_struct_command_2(struct command *ptr)
 111:../../source/src/kernel/SHELL/command_processor.c **** {
ARM GAS  G:\Users\Jaxb\AppData\Local\Temp\ccQSOq78.s 			page 17


 730              		.loc 2 111 0
 731              		.cfi_startproc
 732              		@ args = 0, pretend = 0, frame = 8
 733              		@ frame_needed = 1, uses_anonymous_args = 0
 734 024c 80B5     		push	{r7, lr}
 735              	.LCFI43:
 736              		.cfi_def_cfa_offset 8
 737              		.cfi_offset 7, -8
 738              		.cfi_offset 14, -4
 739 024e 82B0     		sub	sp, sp, #8
 740              	.LCFI44:
 741              		.cfi_def_cfa_offset 16
 742 0250 00AF     		add	r7, sp, #0
 743              	.LCFI45:
 744              		.cfi_def_cfa_register 7
 745 0252 7860     		str	r0, [r7, #4]
 112:../../source/src/kernel/SHELL/command_processor.c **** 	insert_struct_command(ptr,command_2_ptr_hash_array);
 746              		.loc 2 112 0
 747 0254 0349     		ldr	r1, .L41
 748 0256 7868     		ldr	r0, [r7, #4]
 749 0258 FFF7C8FF 		bl	insert_struct_command
 113:../../source/src/kernel/SHELL/command_processor.c **** }
 750              		.loc 2 113 0
 751 025c 00BF     		nop
 752 025e 0837     		adds	r7, r7, #8
 753              	.LCFI46:
 754              		.cfi_def_cfa_offset 8
 755 0260 BD46     		mov	sp, r7
 756              	.LCFI47:
 757              		.cfi_def_cfa_register 13
 758              		@ sp needed
 759 0262 80BD     		pop	{r7, pc}
 760              	.L42:
 761              		.align	2
 762              	.L41:
 763 0264 28000000 		.word	command_2_ptr_hash_array
 764              		.cfi_endproc
 765              	.LFE10:
 766              		.size	_insert_struct_command_2, .-_insert_struct_command_2
 767              		.align	1
 768              		.global	_insert_struct_command_3
 769              		.syntax unified
 770              		.thumb
 771              		.thumb_func
 772              		.fpu softvfp
 773              		.type	_insert_struct_command_3, %function
 774              	_insert_struct_command_3:
 775              	.LFB11:
 114:../../source/src/kernel/SHELL/command_processor.c **** void _insert_struct_command_3(struct command *ptr)
 115:../../source/src/kernel/SHELL/command_processor.c **** {
 776              		.loc 2 115 0
 777              		.cfi_startproc
 778              		@ args = 0, pretend = 0, frame = 8
 779              		@ frame_needed = 1, uses_anonymous_args = 0
 780 0268 80B5     		push	{r7, lr}
 781              	.LCFI48:
 782              		.cfi_def_cfa_offset 8
ARM GAS  G:\Users\Jaxb\AppData\Local\Temp\ccQSOq78.s 			page 18


 783              		.cfi_offset 7, -8
 784              		.cfi_offset 14, -4
 785 026a 82B0     		sub	sp, sp, #8
 786              	.LCFI49:
 787              		.cfi_def_cfa_offset 16
 788 026c 00AF     		add	r7, sp, #0
 789              	.LCFI50:
 790              		.cfi_def_cfa_register 7
 791 026e 7860     		str	r0, [r7, #4]
 116:../../source/src/kernel/SHELL/command_processor.c **** 	insert_struct_command(ptr,command_3_ptr_hash_array);
 792              		.loc 2 116 0
 793 0270 0349     		ldr	r1, .L44
 794 0272 7868     		ldr	r0, [r7, #4]
 795 0274 FFF7BAFF 		bl	insert_struct_command
 117:../../source/src/kernel/SHELL/command_processor.c **** }
 796              		.loc 2 117 0
 797 0278 00BF     		nop
 798 027a 0837     		adds	r7, r7, #8
 799              	.LCFI51:
 800              		.cfi_def_cfa_offset 8
 801 027c BD46     		mov	sp, r7
 802              	.LCFI52:
 803              		.cfi_def_cfa_register 13
 804              		@ sp needed
 805 027e 80BD     		pop	{r7, pc}
 806              	.L45:
 807              		.align	2
 808              	.L44:
 809 0280 50000000 		.word	command_3_ptr_hash_array
 810              		.cfi_endproc
 811              	.LFE11:
 812              		.size	_insert_struct_command_3, .-_insert_struct_command_3
 813              		.align	1
 814              		.global	_insert_struct_command_4
 815              		.syntax unified
 816              		.thumb
 817              		.thumb_func
 818              		.fpu softvfp
 819              		.type	_insert_struct_command_4, %function
 820              	_insert_struct_command_4:
 821              	.LFB12:
 118:../../source/src/kernel/SHELL/command_processor.c **** void _insert_struct_command_4(struct command *ptr)
 119:../../source/src/kernel/SHELL/command_processor.c **** {
 822              		.loc 2 119 0
 823              		.cfi_startproc
 824              		@ args = 0, pretend = 0, frame = 8
 825              		@ frame_needed = 1, uses_anonymous_args = 0
 826 0284 80B5     		push	{r7, lr}
 827              	.LCFI53:
 828              		.cfi_def_cfa_offset 8
 829              		.cfi_offset 7, -8
 830              		.cfi_offset 14, -4
 831 0286 82B0     		sub	sp, sp, #8
 832              	.LCFI54:
 833              		.cfi_def_cfa_offset 16
 834 0288 00AF     		add	r7, sp, #0
 835              	.LCFI55:
ARM GAS  G:\Users\Jaxb\AppData\Local\Temp\ccQSOq78.s 			page 19


 836              		.cfi_def_cfa_register 7
 837 028a 7860     		str	r0, [r7, #4]
 120:../../source/src/kernel/SHELL/command_processor.c **** 	insert_struct_command(ptr,command_4_ptr_hash_array);
 838              		.loc 2 120 0
 839 028c 0349     		ldr	r1, .L47
 840 028e 7868     		ldr	r0, [r7, #4]
 841 0290 FFF7ACFF 		bl	insert_struct_command
 121:../../source/src/kernel/SHELL/command_processor.c **** }
 842              		.loc 2 121 0
 843 0294 00BF     		nop
 844 0296 0837     		adds	r7, r7, #8
 845              	.LCFI56:
 846              		.cfi_def_cfa_offset 8
 847 0298 BD46     		mov	sp, r7
 848              	.LCFI57:
 849              		.cfi_def_cfa_register 13
 850              		@ sp needed
 851 029a 80BD     		pop	{r7, pc}
 852              	.L48:
 853              		.align	2
 854              	.L47:
 855 029c 78000000 		.word	command_4_ptr_hash_array
 856              		.cfi_endproc
 857              	.LFE12:
 858              		.size	_insert_struct_command_4, .-_insert_struct_command_4
 859              		.align	1
 860              		.global	_insert_struct_command_5
 861              		.syntax unified
 862              		.thumb
 863              		.thumb_func
 864              		.fpu softvfp
 865              		.type	_insert_struct_command_5, %function
 866              	_insert_struct_command_5:
 867              	.LFB13:
 122:../../source/src/kernel/SHELL/command_processor.c **** 
 123:../../source/src/kernel/SHELL/command_processor.c **** void _insert_struct_command_5(struct command *ptr)
 124:../../source/src/kernel/SHELL/command_processor.c **** {
 868              		.loc 2 124 0
 869              		.cfi_startproc
 870              		@ args = 0, pretend = 0, frame = 8
 871              		@ frame_needed = 1, uses_anonymous_args = 0
 872 02a0 80B5     		push	{r7, lr}
 873              	.LCFI58:
 874              		.cfi_def_cfa_offset 8
 875              		.cfi_offset 7, -8
 876              		.cfi_offset 14, -4
 877 02a2 82B0     		sub	sp, sp, #8
 878              	.LCFI59:
 879              		.cfi_def_cfa_offset 16
 880 02a4 00AF     		add	r7, sp, #0
 881              	.LCFI60:
 882              		.cfi_def_cfa_register 7
 883 02a6 7860     		str	r0, [r7, #4]
 125:../../source/src/kernel/SHELL/command_processor.c **** 	insert_struct_command(ptr,command_5_ptr_hash_array);
 884              		.loc 2 125 0
 885 02a8 0349     		ldr	r1, .L50
 886 02aa 7868     		ldr	r0, [r7, #4]
ARM GAS  G:\Users\Jaxb\AppData\Local\Temp\ccQSOq78.s 			page 20


 887 02ac FFF79EFF 		bl	insert_struct_command
 126:../../source/src/kernel/SHELL/command_processor.c **** }
 888              		.loc 2 126 0
 889 02b0 00BF     		nop
 890 02b2 0837     		adds	r7, r7, #8
 891              	.LCFI61:
 892              		.cfi_def_cfa_offset 8
 893 02b4 BD46     		mov	sp, r7
 894              	.LCFI62:
 895              		.cfi_def_cfa_register 13
 896              		@ sp needed
 897 02b6 80BD     		pop	{r7, pc}
 898              	.L51:
 899              		.align	2
 900              	.L50:
 901 02b8 A0000000 		.word	command_5_ptr_hash_array
 902              		.cfi_endproc
 903              	.LFE13:
 904              		.size	_insert_struct_command_5, .-_insert_struct_command_5
 905              		.align	1
 906              		.global	_insert_struct_command_6
 907              		.syntax unified
 908              		.thumb
 909              		.thumb_func
 910              		.fpu softvfp
 911              		.type	_insert_struct_command_6, %function
 912              	_insert_struct_command_6:
 913              	.LFB14:
 127:../../source/src/kernel/SHELL/command_processor.c **** 
 128:../../source/src/kernel/SHELL/command_processor.c **** void _insert_struct_command_6(struct command *ptr)
 129:../../source/src/kernel/SHELL/command_processor.c **** {
 914              		.loc 2 129 0
 915              		.cfi_startproc
 916              		@ args = 0, pretend = 0, frame = 8
 917              		@ frame_needed = 1, uses_anonymous_args = 0
 918 02bc 80B5     		push	{r7, lr}
 919              	.LCFI63:
 920              		.cfi_def_cfa_offset 8
 921              		.cfi_offset 7, -8
 922              		.cfi_offset 14, -4
 923 02be 82B0     		sub	sp, sp, #8
 924              	.LCFI64:
 925              		.cfi_def_cfa_offset 16
 926 02c0 00AF     		add	r7, sp, #0
 927              	.LCFI65:
 928              		.cfi_def_cfa_register 7
 929 02c2 7860     		str	r0, [r7, #4]
 130:../../source/src/kernel/SHELL/command_processor.c **** 	insert_struct_command(ptr,command_6_ptr_hash_array);
 930              		.loc 2 130 0
 931 02c4 0349     		ldr	r1, .L53
 932 02c6 7868     		ldr	r0, [r7, #4]
 933 02c8 FFF790FF 		bl	insert_struct_command
 131:../../source/src/kernel/SHELL/command_processor.c **** }
 934              		.loc 2 131 0
 935 02cc 00BF     		nop
 936 02ce 0837     		adds	r7, r7, #8
 937              	.LCFI66:
ARM GAS  G:\Users\Jaxb\AppData\Local\Temp\ccQSOq78.s 			page 21


 938              		.cfi_def_cfa_offset 8
 939 02d0 BD46     		mov	sp, r7
 940              	.LCFI67:
 941              		.cfi_def_cfa_register 13
 942              		@ sp needed
 943 02d2 80BD     		pop	{r7, pc}
 944              	.L54:
 945              		.align	2
 946              	.L53:
 947 02d4 C8000000 		.word	command_6_ptr_hash_array
 948              		.cfi_endproc
 949              	.LFE14:
 950              		.size	_insert_struct_command_6, .-_insert_struct_command_6
 951              		.align	1
 952              		.global	_insert_struct_command_7
 953              		.syntax unified
 954              		.thumb
 955              		.thumb_func
 956              		.fpu softvfp
 957              		.type	_insert_struct_command_7, %function
 958              	_insert_struct_command_7:
 959              	.LFB15:
 132:../../source/src/kernel/SHELL/command_processor.c **** void _insert_struct_command_7(struct command *ptr)
 133:../../source/src/kernel/SHELL/command_processor.c **** {
 960              		.loc 2 133 0
 961              		.cfi_startproc
 962              		@ args = 0, pretend = 0, frame = 8
 963              		@ frame_needed = 1, uses_anonymous_args = 0
 964 02d8 80B5     		push	{r7, lr}
 965              	.LCFI68:
 966              		.cfi_def_cfa_offset 8
 967              		.cfi_offset 7, -8
 968              		.cfi_offset 14, -4
 969 02da 82B0     		sub	sp, sp, #8
 970              	.LCFI69:
 971              		.cfi_def_cfa_offset 16
 972 02dc 00AF     		add	r7, sp, #0
 973              	.LCFI70:
 974              		.cfi_def_cfa_register 7
 975 02de 7860     		str	r0, [r7, #4]
 134:../../source/src/kernel/SHELL/command_processor.c **** 	insert_struct_command(ptr,command_7_ptr_hash_array);
 976              		.loc 2 134 0
 977 02e0 0349     		ldr	r1, .L56
 978 02e2 7868     		ldr	r0, [r7, #4]
 979 02e4 FFF782FF 		bl	insert_struct_command
 135:../../source/src/kernel/SHELL/command_processor.c **** }
 980              		.loc 2 135 0
 981 02e8 00BF     		nop
 982 02ea 0837     		adds	r7, r7, #8
 983              	.LCFI71:
 984              		.cfi_def_cfa_offset 8
 985 02ec BD46     		mov	sp, r7
 986              	.LCFI72:
 987              		.cfi_def_cfa_register 13
 988              		@ sp needed
 989 02ee 80BD     		pop	{r7, pc}
 990              	.L57:
ARM GAS  G:\Users\Jaxb\AppData\Local\Temp\ccQSOq78.s 			page 22


 991              		.align	2
 992              	.L56:
 993 02f0 F0000000 		.word	command_7_ptr_hash_array
 994              		.cfi_endproc
 995              	.LFE15:
 996              		.size	_insert_struct_command_7, .-_insert_struct_command_7
 997              		.align	1
 998              		.global	_insert_struct_command_8
 999              		.syntax unified
 1000              		.thumb
 1001              		.thumb_func
 1002              		.fpu softvfp
 1003              		.type	_insert_struct_command_8, %function
 1004              	_insert_struct_command_8:
 1005              	.LFB16:
 136:../../source/src/kernel/SHELL/command_processor.c **** void _insert_struct_command_8(struct command *ptr)
 137:../../source/src/kernel/SHELL/command_processor.c **** {
 1006              		.loc 2 137 0
 1007              		.cfi_startproc
 1008              		@ args = 0, pretend = 0, frame = 8
 1009              		@ frame_needed = 1, uses_anonymous_args = 0
 1010 02f4 80B5     		push	{r7, lr}
 1011              	.LCFI73:
 1012              		.cfi_def_cfa_offset 8
 1013              		.cfi_offset 7, -8
 1014              		.cfi_offset 14, -4
 1015 02f6 82B0     		sub	sp, sp, #8
 1016              	.LCFI74:
 1017              		.cfi_def_cfa_offset 16
 1018 02f8 00AF     		add	r7, sp, #0
 1019              	.LCFI75:
 1020              		.cfi_def_cfa_register 7
 1021 02fa 7860     		str	r0, [r7, #4]
 138:../../source/src/kernel/SHELL/command_processor.c **** 	insert_struct_command(ptr,command_8_ptr_hash_array);
 1022              		.loc 2 138 0
 1023 02fc 0349     		ldr	r1, .L59
 1024 02fe 7868     		ldr	r0, [r7, #4]
 1025 0300 FFF774FF 		bl	insert_struct_command
 139:../../source/src/kernel/SHELL/command_processor.c **** }
 1026              		.loc 2 139 0
 1027 0304 00BF     		nop
 1028 0306 0837     		adds	r7, r7, #8
 1029              	.LCFI76:
 1030              		.cfi_def_cfa_offset 8
 1031 0308 BD46     		mov	sp, r7
 1032              	.LCFI77:
 1033              		.cfi_def_cfa_register 13
 1034              		@ sp needed
 1035 030a 80BD     		pop	{r7, pc}
 1036              	.L60:
 1037              		.align	2
 1038              	.L59:
 1039 030c 18010000 		.word	command_8_ptr_hash_array
 1040              		.cfi_endproc
 1041              	.LFE16:
 1042              		.size	_insert_struct_command_8, .-_insert_struct_command_8
 1043              	.Letext0:
ARM GAS  G:\Users\Jaxb\AppData\Local\Temp\ccQSOq78.s 			page 23


 1044              		.file 3 "../../source/include/shell/command_processor.h"
 1045              		.file 4 "../../source/include/os_cpu/kakaosstdint.h"
 1046              		.section	.debug_info,"",%progbits
 1047              	.Ldebug_info0:
 1048 0000 77050000 		.4byte	0x577
 1049 0004 0200     		.2byte	0x2
 1050 0006 00000000 		.4byte	.Ldebug_abbrev0
 1051 000a 04       		.byte	0x4
 1052 000b 01       		.uleb128 0x1
 1053 000c BC030000 		.4byte	.LASF54
 1054 0010 0C       		.byte	0xc
 1055 0011 F7020000 		.4byte	.LASF55
 1056 0015 C8040000 		.4byte	.LASF56
 1057 0019 00000000 		.4byte	.Ltext0
 1058 001d 10030000 		.4byte	.Letext0
 1059 0021 00000000 		.4byte	.Ldebug_line0
 1060 0025 02       		.uleb128 0x2
 1061 0026 E6020000 		.4byte	.LASF0
 1062 002a 04       		.byte	0x4
 1063 002b 01       		.byte	0x1
 1064 002c 04       		.byte	0x4
 1065 002d 40000000 		.4byte	0x40
 1066 0031 03       		.uleb128 0x3
 1067 0032 4B000000 		.4byte	.LASF2
 1068 0036 01       		.byte	0x1
 1069 0037 05       		.byte	0x5
 1070 0038 45000000 		.4byte	0x45
 1071 003c 02       		.byte	0x2
 1072 003d 23       		.byte	0x23
 1073 003e 00       		.uleb128 0
 1074 003f 00       		.byte	0
 1075 0040 04       		.uleb128 0x4
 1076 0041 25000000 		.4byte	0x25
 1077 0045 05       		.uleb128 0x5
 1078 0046 04       		.byte	0x4
 1079 0047 25000000 		.4byte	0x25
 1080 004b 02       		.uleb128 0x2
 1081 004c E4000000 		.4byte	.LASF1
 1082 0050 0C       		.byte	0xc
 1083 0051 03       		.byte	0x3
 1084 0052 0D       		.byte	0xd
 1085 0053 80000000 		.4byte	0x80
 1086 0057 03       		.uleb128 0x3
 1087 0058 DD010000 		.4byte	.LASF3
 1088 005c 03       		.byte	0x3
 1089 005d 0E       		.byte	0xe
 1090 005e 80000000 		.4byte	0x80
 1091 0062 02       		.byte	0x2
 1092 0063 23       		.byte	0x23
 1093 0064 00       		.uleb128 0
 1094 0065 06       		.uleb128 0x6
 1095 0066 6600     		.ascii	"f\000"
 1096 0068 03       		.byte	0x3
 1097 0069 0F       		.byte	0xf
 1098 006a B6000000 		.4byte	0xb6
 1099 006e 02       		.byte	0x2
 1100 006f 23       		.byte	0x23
ARM GAS  G:\Users\Jaxb\AppData\Local\Temp\ccQSOq78.s 			page 24


 1101 0070 04       		.uleb128 0x4
 1102 0071 03       		.uleb128 0x3
 1103 0072 03020000 		.4byte	.LASF4
 1104 0076 03       		.byte	0x3
 1105 0077 10       		.byte	0x10
 1106 0078 25000000 		.4byte	0x25
 1107 007c 02       		.byte	0x2
 1108 007d 23       		.byte	0x23
 1109 007e 08       		.uleb128 0x8
 1110 007f 00       		.byte	0
 1111 0080 05       		.uleb128 0x5
 1112 0081 04       		.byte	0x4
 1113 0082 8D000000 		.4byte	0x8d
 1114 0086 07       		.uleb128 0x7
 1115 0087 01       		.byte	0x1
 1116 0088 08       		.byte	0x8
 1117 0089 8D020000 		.4byte	.LASF5
 1118 008d 04       		.uleb128 0x4
 1119 008e 86000000 		.4byte	0x86
 1120 0092 08       		.uleb128 0x8
 1121 0093 01       		.byte	0x1
 1122 0094 A3000000 		.4byte	0xa3
 1123 0098 09       		.uleb128 0x9
 1124 0099 A3000000 		.4byte	0xa3
 1125 009d 09       		.uleb128 0x9
 1126 009e AA000000 		.4byte	0xaa
 1127 00a2 00       		.byte	0
 1128 00a3 0A       		.uleb128 0xa
 1129 00a4 04       		.byte	0x4
 1130 00a5 05       		.byte	0x5
 1131 00a6 696E7400 		.ascii	"int\000"
 1132 00aa 05       		.uleb128 0x5
 1133 00ab 04       		.byte	0x4
 1134 00ac 80000000 		.4byte	0x80
 1135 00b0 05       		.uleb128 0x5
 1136 00b1 04       		.byte	0x4
 1137 00b2 92000000 		.4byte	0x92
 1138 00b6 04       		.uleb128 0x4
 1139 00b7 B0000000 		.4byte	0xb0
 1140 00bb 02       		.uleb128 0x2
 1141 00bc EC000000 		.4byte	.LASF6
 1142 00c0 08       		.byte	0x8
 1143 00c1 03       		.byte	0x3
 1144 00c2 1F       		.byte	0x1f
 1145 00c3 E4000000 		.4byte	0xe4
 1146 00c7 03       		.uleb128 0x3
 1147 00c8 5D020000 		.4byte	.LASF7
 1148 00cc 03       		.byte	0x3
 1149 00cd 20       		.byte	0x20
 1150 00ce EB000000 		.4byte	0xeb
 1151 00d2 02       		.byte	0x2
 1152 00d3 23       		.byte	0x23
 1153 00d4 00       		.uleb128 0
 1154 00d5 03       		.uleb128 0x3
 1155 00d6 46010000 		.4byte	.LASF8
 1156 00da 03       		.byte	0x3
 1157 00db 21       		.byte	0x21
ARM GAS  G:\Users\Jaxb\AppData\Local\Temp\ccQSOq78.s 			page 25


 1158 00dc 45000000 		.4byte	0x45
 1159 00e0 02       		.byte	0x2
 1160 00e1 23       		.byte	0x23
 1161 00e2 04       		.uleb128 0x4
 1162 00e3 00       		.byte	0
 1163 00e4 07       		.uleb128 0x7
 1164 00e5 04       		.byte	0x4
 1165 00e6 07       		.byte	0x7
 1166 00e7 6C020000 		.4byte	.LASF9
 1167 00eb 04       		.uleb128 0x4
 1168 00ec E4000000 		.4byte	0xe4
 1169 00f0 07       		.uleb128 0x7
 1170 00f1 01       		.byte	0x1
 1171 00f2 06       		.byte	0x6
 1172 00f3 7B040000 		.4byte	.LASF10
 1173 00f7 07       		.uleb128 0x7
 1174 00f8 02       		.byte	0x2
 1175 00f9 05       		.byte	0x5
 1176 00fa 7E030000 		.4byte	.LASF11
 1177 00fe 07       		.uleb128 0x7
 1178 00ff 08       		.byte	0x8
 1179 0100 05       		.byte	0x5
 1180 0101 30030000 		.4byte	.LASF12
 1181 0105 07       		.uleb128 0x7
 1182 0106 01       		.byte	0x1
 1183 0107 08       		.byte	0x8
 1184 0108 A1010000 		.4byte	.LASF13
 1185 010c 07       		.uleb128 0x7
 1186 010d 02       		.byte	0x2
 1187 010e 07       		.byte	0x7
 1188 010f B8000000 		.4byte	.LASF14
 1189 0113 07       		.uleb128 0x7
 1190 0114 08       		.byte	0x8
 1191 0115 07       		.byte	0x7
 1192 0116 8A010000 		.4byte	.LASF15
 1193 011a 0B       		.uleb128 0xb
 1194 011b 08020000 		.4byte	.LASF57
 1195 011f 04       		.byte	0x4
 1196 0120 23       		.byte	0x23
 1197 0121 E4000000 		.4byte	0xe4
 1198 0125 0C       		.uleb128 0xc
 1199 0126 25000000 		.4byte	0x25
 1200 012a 35010000 		.4byte	0x135
 1201 012e 0D       		.uleb128 0xd
 1202 012f E4000000 		.4byte	0xe4
 1203 0133 09       		.byte	0x9
 1204 0134 00       		.byte	0
 1205 0135 0E       		.uleb128 0xe
 1206 0136 CB000000 		.4byte	.LASF16
 1207 013a 02       		.byte	0x2
 1208 013b 0D       		.byte	0xd
 1209 013c 25010000 		.4byte	0x125
 1210 0140 05       		.byte	0x5
 1211 0141 03       		.byte	0x3
 1212 0142 00000000 		.4byte	command_1_ptr_hash_array
 1213 0146 0E       		.uleb128 0xe
 1214 0147 21020000 		.4byte	.LASF17
ARM GAS  G:\Users\Jaxb\AppData\Local\Temp\ccQSOq78.s 			page 26


 1215 014b 02       		.byte	0x2
 1216 014c 0E       		.byte	0xe
 1217 014d 25010000 		.4byte	0x125
 1218 0151 05       		.byte	0x5
 1219 0152 03       		.byte	0x3
 1220 0153 28000000 		.4byte	command_2_ptr_hash_array
 1221 0157 0E       		.uleb128 0xe
 1222 0158 92020000 		.4byte	.LASF18
 1223 015c 02       		.byte	0x2
 1224 015d 0F       		.byte	0xf
 1225 015e 25010000 		.4byte	0x125
 1226 0162 05       		.byte	0x5
 1227 0163 03       		.byte	0x3
 1228 0164 50000000 		.4byte	command_3_ptr_hash_array
 1229 0168 0E       		.uleb128 0xe
 1230 0169 62040000 		.4byte	.LASF19
 1231 016d 02       		.byte	0x2
 1232 016e 10       		.byte	0x10
 1233 016f 25010000 		.4byte	0x125
 1234 0173 05       		.byte	0x5
 1235 0174 03       		.byte	0x3
 1236 0175 78000000 		.4byte	command_4_ptr_hash_array
 1237 0179 0E       		.uleb128 0xe
 1238 017a 64000000 		.4byte	.LASF20
 1239 017e 02       		.byte	0x2
 1240 017f 11       		.byte	0x11
 1241 0180 25010000 		.4byte	0x125
 1242 0184 05       		.byte	0x5
 1243 0185 03       		.byte	0x3
 1244 0186 A0000000 		.4byte	command_5_ptr_hash_array
 1245 018a 0E       		.uleb128 0xe
 1246 018b EA010000 		.4byte	.LASF21
 1247 018f 02       		.byte	0x2
 1248 0190 12       		.byte	0x12
 1249 0191 25010000 		.4byte	0x125
 1250 0195 05       		.byte	0x5
 1251 0196 03       		.byte	0x3
 1252 0197 C8000000 		.4byte	command_6_ptr_hash_array
 1253 019b 0E       		.uleb128 0xe
 1254 019c 44020000 		.4byte	.LASF22
 1255 01a0 02       		.byte	0x2
 1256 01a1 13       		.byte	0x13
 1257 01a2 25010000 		.4byte	0x125
 1258 01a6 05       		.byte	0x5
 1259 01a7 03       		.byte	0x3
 1260 01a8 F0000000 		.4byte	command_7_ptr_hash_array
 1261 01ac 0E       		.uleb128 0xe
 1262 01ad 88030000 		.4byte	.LASF23
 1263 01b1 02       		.byte	0x2
 1264 01b2 14       		.byte	0x14
 1265 01b3 25010000 		.4byte	0x125
 1266 01b7 05       		.byte	0x5
 1267 01b8 03       		.byte	0x3
 1268 01b9 18010000 		.4byte	command_8_ptr_hash_array
 1269 01bd 0E       		.uleb128 0xe
 1270 01be B4040000 		.4byte	.LASF24
 1271 01c2 02       		.byte	0x2
ARM GAS  G:\Users\Jaxb\AppData\Local\Temp\ccQSOq78.s 			page 27


 1272 01c3 16       		.byte	0x16
 1273 01c4 BB000000 		.4byte	0xbb
 1274 01c8 05       		.byte	0x5
 1275 01c9 03       		.byte	0x3
 1276 01ca 00000000 		.4byte	command_1_processer
 1277 01ce 0E       		.uleb128 0xe
 1278 01cf 79020000 		.4byte	.LASF25
 1279 01d3 02       		.byte	0x2
 1280 01d4 17       		.byte	0x17
 1281 01d5 BB000000 		.4byte	0xbb
 1282 01d9 05       		.byte	0x5
 1283 01da 03       		.byte	0x3
 1284 01db 08000000 		.4byte	command_2_processer
 1285 01df 0E       		.uleb128 0xe
 1286 01e0 50000000 		.4byte	.LASF26
 1287 01e4 02       		.byte	0x2
 1288 01e5 18       		.byte	0x18
 1289 01e6 BB000000 		.4byte	0xbb
 1290 01ea 05       		.byte	0x5
 1291 01eb 03       		.byte	0x3
 1292 01ec 10000000 		.4byte	command_3_processer
 1293 01f0 0E       		.uleb128 0xe
 1294 01f1 4A030000 		.4byte	.LASF27
 1295 01f5 02       		.byte	0x2
 1296 01f6 19       		.byte	0x19
 1297 01f7 BB000000 		.4byte	0xbb
 1298 01fb 05       		.byte	0x5
 1299 01fc 03       		.byte	0x3
 1300 01fd 18000000 		.4byte	command_4_processer
 1301 0201 0E       		.uleb128 0xe
 1302 0202 D2020000 		.4byte	.LASF28
 1303 0206 02       		.byte	0x2
 1304 0207 1A       		.byte	0x1a
 1305 0208 BB000000 		.4byte	0xbb
 1306 020c 05       		.byte	0x5
 1307 020d 03       		.byte	0x3
 1308 020e 20000000 		.4byte	command_5_processer
 1309 0212 0E       		.uleb128 0xe
 1310 0213 87040000 		.4byte	.LASF29
 1311 0217 02       		.byte	0x2
 1312 0218 1B       		.byte	0x1b
 1313 0219 BB000000 		.4byte	0xbb
 1314 021d 05       		.byte	0x5
 1315 021e 03       		.byte	0x3
 1316 021f 28000000 		.4byte	command_6_processer
 1317 0223 0E       		.uleb128 0xe
 1318 0224 A4000000 		.4byte	.LASF30
 1319 0228 02       		.byte	0x2
 1320 0229 1C       		.byte	0x1c
 1321 022a BB000000 		.4byte	0xbb
 1322 022e 05       		.byte	0x5
 1323 022f 03       		.byte	0x3
 1324 0230 30000000 		.4byte	command_7_processer
 1325 0234 0E       		.uleb128 0xe
 1326 0235 0F050000 		.4byte	.LASF31
 1327 0239 02       		.byte	0x2
 1328 023a 1D       		.byte	0x1d
ARM GAS  G:\Users\Jaxb\AppData\Local\Temp\ccQSOq78.s 			page 28


 1329 023b BB000000 		.4byte	0xbb
 1330 023f 05       		.byte	0x5
 1331 0240 03       		.byte	0x3
 1332 0241 38000000 		.4byte	command_8_processer
 1333 0245 0C       		.uleb128 0xc
 1334 0246 55020000 		.4byte	0x255
 1335 024a 55020000 		.4byte	0x255
 1336 024e 0D       		.uleb128 0xd
 1337 024f E4000000 		.4byte	0xe4
 1338 0253 07       		.byte	0x7
 1339 0254 00       		.byte	0
 1340 0255 05       		.uleb128 0x5
 1341 0256 04       		.byte	0x4
 1342 0257 BB000000 		.4byte	0xbb
 1343 025b 04       		.uleb128 0x4
 1344 025c 55020000 		.4byte	0x255
 1345 0260 0E       		.uleb128 0xe
 1346 0261 B6020000 		.4byte	.LASF32
 1347 0265 02       		.byte	0x2
 1348 0266 1F       		.byte	0x1f
 1349 0267 45020000 		.4byte	0x245
 1350 026b 05       		.byte	0x5
 1351 026c 03       		.byte	0x3
 1352 026d 40000000 		.4byte	command_processer_ptr_array
 1353 0271 0F       		.uleb128 0xf
 1354 0272 01       		.byte	0x1
 1355 0273 32000000 		.4byte	.LASF33
 1356 0277 02       		.byte	0x2
 1357 0278 88       		.byte	0x88
 1358 0279 01       		.byte	0x1
 1359 027a F4020000 		.4byte	.LFB16
 1360 027e 10030000 		.4byte	.LFE16
 1361 0282 00000000 		.4byte	.LLST14
 1362 0286 01       		.byte	0x1
 1363 0287 9A020000 		.4byte	0x29a
 1364 028b 10       		.uleb128 0x10
 1365 028c 70747200 		.ascii	"ptr\000"
 1366 0290 02       		.byte	0x2
 1367 0291 88       		.byte	0x88
 1368 0292 9A020000 		.4byte	0x29a
 1369 0296 02       		.byte	0x2
 1370 0297 91       		.byte	0x91
 1371 0298 74       		.sleb128 -12
 1372 0299 00       		.byte	0
 1373 029a 05       		.uleb128 0x5
 1374 029b 04       		.byte	0x4
 1375 029c 4B000000 		.4byte	0x4b
 1376 02a0 0F       		.uleb128 0xf
 1377 02a1 01       		.byte	0x1
 1378 02a2 19000000 		.4byte	.LASF34
 1379 02a6 02       		.byte	0x2
 1380 02a7 84       		.byte	0x84
 1381 02a8 01       		.byte	0x1
 1382 02a9 D8020000 		.4byte	.LFB15
 1383 02ad F4020000 		.4byte	.LFE15
 1384 02b1 50000000 		.4byte	.LLST13
 1385 02b5 01       		.byte	0x1
ARM GAS  G:\Users\Jaxb\AppData\Local\Temp\ccQSOq78.s 			page 29


 1386 02b6 C9020000 		.4byte	0x2c9
 1387 02ba 10       		.uleb128 0x10
 1388 02bb 70747200 		.ascii	"ptr\000"
 1389 02bf 02       		.byte	0x2
 1390 02c0 84       		.byte	0x84
 1391 02c1 9A020000 		.4byte	0x29a
 1392 02c5 02       		.byte	0x2
 1393 02c6 91       		.byte	0x91
 1394 02c7 74       		.sleb128 -12
 1395 02c8 00       		.byte	0
 1396 02c9 0F       		.uleb128 0xf
 1397 02ca 01       		.byte	0x1
 1398 02cb 00000000 		.4byte	.LASF35
 1399 02cf 02       		.byte	0x2
 1400 02d0 80       		.byte	0x80
 1401 02d1 01       		.byte	0x1
 1402 02d2 BC020000 		.4byte	.LFB14
 1403 02d6 D8020000 		.4byte	.LFE14
 1404 02da A0000000 		.4byte	.LLST12
 1405 02de 01       		.byte	0x1
 1406 02df F2020000 		.4byte	0x2f2
 1407 02e3 10       		.uleb128 0x10
 1408 02e4 70747200 		.ascii	"ptr\000"
 1409 02e8 02       		.byte	0x2
 1410 02e9 80       		.byte	0x80
 1411 02ea 9A020000 		.4byte	0x29a
 1412 02ee 02       		.byte	0x2
 1413 02ef 91       		.byte	0x91
 1414 02f0 74       		.sleb128 -12
 1415 02f1 00       		.byte	0
 1416 02f2 0F       		.uleb128 0xf
 1417 02f3 01       		.byte	0x1
 1418 02f4 71010000 		.4byte	.LASF36
 1419 02f8 02       		.byte	0x2
 1420 02f9 7B       		.byte	0x7b
 1421 02fa 01       		.byte	0x1
 1422 02fb A0020000 		.4byte	.LFB13
 1423 02ff BC020000 		.4byte	.LFE13
 1424 0303 F0000000 		.4byte	.LLST11
 1425 0307 01       		.byte	0x1
 1426 0308 1B030000 		.4byte	0x31b
 1427 030c 10       		.uleb128 0x10
 1428 030d 70747200 		.ascii	"ptr\000"
 1429 0311 02       		.byte	0x2
 1430 0312 7B       		.byte	0x7b
 1431 0313 9A020000 		.4byte	0x29a
 1432 0317 02       		.byte	0x2
 1433 0318 91       		.byte	0x91
 1434 0319 74       		.sleb128 -12
 1435 031a 00       		.byte	0
 1436 031b 0F       		.uleb128 0xf
 1437 031c 01       		.byte	0x1
 1438 031d F6040000 		.4byte	.LASF37
 1439 0321 02       		.byte	0x2
 1440 0322 76       		.byte	0x76
 1441 0323 01       		.byte	0x1
 1442 0324 84020000 		.4byte	.LFB12
ARM GAS  G:\Users\Jaxb\AppData\Local\Temp\ccQSOq78.s 			page 30


 1443 0328 A0020000 		.4byte	.LFE12
 1444 032c 40010000 		.4byte	.LLST10
 1445 0330 01       		.byte	0x1
 1446 0331 44030000 		.4byte	0x344
 1447 0335 10       		.uleb128 0x10
 1448 0336 70747200 		.ascii	"ptr\000"
 1449 033a 02       		.byte	0x2
 1450 033b 76       		.byte	0x76
 1451 033c 9A020000 		.4byte	0x29a
 1452 0340 02       		.byte	0x2
 1453 0341 91       		.byte	0x91
 1454 0342 74       		.sleb128 -12
 1455 0343 00       		.byte	0
 1456 0344 0F       		.uleb128 0xf
 1457 0345 01       		.byte	0x1
 1458 0346 2D010000 		.4byte	.LASF38
 1459 034a 02       		.byte	0x2
 1460 034b 72       		.byte	0x72
 1461 034c 01       		.byte	0x1
 1462 034d 68020000 		.4byte	.LFB11
 1463 0351 84020000 		.4byte	.LFE11
 1464 0355 90010000 		.4byte	.LLST9
 1465 0359 01       		.byte	0x1
 1466 035a 6D030000 		.4byte	0x36d
 1467 035e 10       		.uleb128 0x10
 1468 035f 70747200 		.ascii	"ptr\000"
 1469 0363 02       		.byte	0x2
 1470 0364 72       		.byte	0x72
 1471 0365 9A020000 		.4byte	0x29a
 1472 0369 02       		.byte	0x2
 1473 036a 91       		.byte	0x91
 1474 036b 74       		.sleb128 -12
 1475 036c 00       		.byte	0
 1476 036d 0F       		.uleb128 0xf
 1477 036e 01       		.byte	0x1
 1478 036f 14010000 		.4byte	.LASF39
 1479 0373 02       		.byte	0x2
 1480 0374 6E       		.byte	0x6e
 1481 0375 01       		.byte	0x1
 1482 0376 4C020000 		.4byte	.LFB10
 1483 037a 68020000 		.4byte	.LFE10
 1484 037e E0010000 		.4byte	.LLST8
 1485 0382 01       		.byte	0x1
 1486 0383 96030000 		.4byte	0x396
 1487 0387 10       		.uleb128 0x10
 1488 0388 70747200 		.ascii	"ptr\000"
 1489 038c 02       		.byte	0x2
 1490 038d 6E       		.byte	0x6e
 1491 038e 9A020000 		.4byte	0x29a
 1492 0392 02       		.byte	0x2
 1493 0393 91       		.byte	0x91
 1494 0394 74       		.sleb128 -12
 1495 0395 00       		.byte	0
 1496 0396 0F       		.uleb128 0xf
 1497 0397 01       		.byte	0x1
 1498 0398 9B040000 		.4byte	.LASF40
 1499 039c 02       		.byte	0x2
ARM GAS  G:\Users\Jaxb\AppData\Local\Temp\ccQSOq78.s 			page 31


 1500 039d 6A       		.byte	0x6a
 1501 039e 01       		.byte	0x1
 1502 039f 30020000 		.4byte	.LFB9
 1503 03a3 4C020000 		.4byte	.LFE9
 1504 03a7 30020000 		.4byte	.LLST7
 1505 03ab 01       		.byte	0x1
 1506 03ac BF030000 		.4byte	0x3bf
 1507 03b0 10       		.uleb128 0x10
 1508 03b1 70747200 		.ascii	"ptr\000"
 1509 03b5 02       		.byte	0x2
 1510 03b6 6A       		.byte	0x6a
 1511 03b7 9A020000 		.4byte	0x29a
 1512 03bb 02       		.byte	0x2
 1513 03bc 91       		.byte	0x91
 1514 03bd 74       		.sleb128 -12
 1515 03be 00       		.byte	0
 1516 03bf 11       		.uleb128 0x11
 1517 03c0 5B010000 		.4byte	.LASF51
 1518 03c4 02       		.byte	0x2
 1519 03c5 63       		.byte	0x63
 1520 03c6 01       		.byte	0x1
 1521 03c7 EC010000 		.4byte	.LFB8
 1522 03cb 30020000 		.4byte	.LFE8
 1523 03cf 80020000 		.4byte	.LLST6
 1524 03d3 01       		.byte	0x1
 1525 03d4 03040000 		.4byte	0x403
 1526 03d8 12       		.uleb128 0x12
 1527 03d9 3E030000 		.4byte	.LASF41
 1528 03dd 02       		.byte	0x2
 1529 03de 63       		.byte	0x63
 1530 03df 9A020000 		.4byte	0x29a
 1531 03e3 02       		.byte	0x2
 1532 03e4 91       		.byte	0x91
 1533 03e5 6C       		.sleb128 -20
 1534 03e6 12       		.uleb128 0x12
 1535 03e7 AB020000 		.4byte	.LASF42
 1536 03eb 02       		.byte	0x2
 1537 03ec 63       		.byte	0x63
 1538 03ed 45000000 		.4byte	0x45
 1539 03f1 02       		.byte	0x2
 1540 03f2 91       		.byte	0x91
 1541 03f3 68       		.sleb128 -24
 1542 03f4 0E       		.uleb128 0xe
 1543 03f5 3A020000 		.4byte	.LASF43
 1544 03f9 02       		.byte	0x2
 1545 03fa 66       		.byte	0x66
 1546 03fb E4000000 		.4byte	0xe4
 1547 03ff 02       		.byte	0x2
 1548 0400 91       		.byte	0x91
 1549 0401 74       		.sleb128 -12
 1550 0402 00       		.byte	0
 1551 0403 13       		.uleb128 0x13
 1552 0404 01       		.byte	0x1
 1553 0405 C2010000 		.4byte	.LASF49
 1554 0409 02       		.byte	0x2
 1555 040a 46       		.byte	0x46
 1556 040b 01       		.byte	0x1
ARM GAS  G:\Users\Jaxb\AppData\Local\Temp\ccQSOq78.s 			page 32


 1557 040c A3000000 		.4byte	0xa3
 1558 0410 2C010000 		.4byte	.LFB7
 1559 0414 EC010000 		.4byte	.LFE7
 1560 0418 D0020000 		.4byte	.LLST5
 1561 041c 01       		.byte	0x1
 1562 041d 80040000 		.4byte	0x480
 1563 0421 10       		.uleb128 0x10
 1564 0422 6E756D00 		.ascii	"num\000"
 1565 0426 02       		.byte	0x2
 1566 0427 47       		.byte	0x47
 1567 0428 A3000000 		.4byte	0xa3
 1568 042c 02       		.byte	0x2
 1569 042d 91       		.byte	0x91
 1570 042e 5C       		.sleb128 -36
 1571 042f 12       		.uleb128 0x12
 1572 0430 B7030000 		.4byte	.LASF44
 1573 0434 02       		.byte	0x2
 1574 0435 48       		.byte	0x48
 1575 0436 AA000000 		.4byte	0xaa
 1576 043a 02       		.byte	0x2
 1577 043b 91       		.byte	0x91
 1578 043c 58       		.sleb128 -40
 1579 043d 12       		.uleb128 0x12
 1580 043e FE000000 		.4byte	.LASF45
 1581 0442 02       		.byte	0x2
 1582 0443 49       		.byte	0x49
 1583 0444 5B020000 		.4byte	0x25b
 1584 0448 02       		.byte	0x2
 1585 0449 91       		.byte	0x91
 1586 044a 54       		.sleb128 -44
 1587 044b 0E       		.uleb128 0xe
 1588 044c AF010000 		.4byte	.LASF46
 1589 0450 02       		.byte	0x2
 1590 0451 50       		.byte	0x50
 1591 0452 9A020000 		.4byte	0x29a
 1592 0456 02       		.byte	0x2
 1593 0457 91       		.byte	0x91
 1594 0458 64       		.sleb128 -28
 1595 0459 14       		.uleb128 0x14
 1596 045a 706F7300 		.ascii	"pos\000"
 1597 045e 02       		.byte	0x2
 1598 045f 51       		.byte	0x51
 1599 0460 45000000 		.4byte	0x45
 1600 0464 02       		.byte	0x2
 1601 0465 91       		.byte	0x91
 1602 0466 6C       		.sleb128 -20
 1603 0467 15       		.uleb128 0x15
 1604 0468 66010000 		.4byte	.LBB2
 1605 046c 6E010000 		.4byte	.LBE2
 1606 0470 0E       		.uleb128 0xe
 1607 0471 29030000 		.4byte	.LASF47
 1608 0475 02       		.byte	0x2
 1609 0476 54       		.byte	0x54
 1610 0477 80040000 		.4byte	0x480
 1611 047b 02       		.byte	0x2
 1612 047c 91       		.byte	0x91
 1613 047d 68       		.sleb128 -24
ARM GAS  G:\Users\Jaxb\AppData\Local\Temp\ccQSOq78.s 			page 33


 1614 047e 00       		.byte	0
 1615 047f 00       		.byte	0
 1616 0480 05       		.uleb128 0x5
 1617 0481 04       		.byte	0x4
 1618 0482 40000000 		.4byte	0x40
 1619 0486 0F       		.uleb128 0xf
 1620 0487 01       		.byte	0x1
 1621 0488 5E030000 		.4byte	.LASF48
 1622 048c 02       		.byte	0x2
 1623 048d 3A       		.byte	0x3a
 1624 048e 01       		.byte	0x1
 1625 048f E0000000 		.4byte	.LFB6
 1626 0493 2C010000 		.4byte	.LFE6
 1627 0497 20030000 		.4byte	.LLST4
 1628 049b 01       		.byte	0x1
 1629 049c B9040000 		.4byte	0x4b9
 1630 04a0 14       		.uleb128 0x14
 1631 04a1 6900     		.ascii	"i\000"
 1632 04a3 02       		.byte	0x2
 1633 04a4 3C       		.byte	0x3c
 1634 04a5 E4000000 		.4byte	0xe4
 1635 04a9 02       		.byte	0x2
 1636 04aa 91       		.byte	0x91
 1637 04ab 74       		.sleb128 -12
 1638 04ac 14       		.uleb128 0x14
 1639 04ad 6A00     		.ascii	"j\000"
 1640 04af 02       		.byte	0x2
 1641 04b0 3C       		.byte	0x3c
 1642 04b1 E4000000 		.4byte	0xe4
 1643 04b5 02       		.byte	0x2
 1644 04b6 91       		.byte	0x91
 1645 04b7 70       		.sleb128 -16
 1646 04b8 00       		.byte	0
 1647 04b9 16       		.uleb128 0x16
 1648 04ba 0F020000 		.4byte	.LASF58
 1649 04be 02       		.byte	0x2
 1650 04bf 2C       		.byte	0x2c
 1651 04c0 01       		.byte	0x1
 1652 04c1 E4000000 		.4byte	0xe4
 1653 04c5 6C000000 		.4byte	.LFB5
 1654 04c9 E0000000 		.4byte	.LFE5
 1655 04cd 70030000 		.4byte	.LLST3
 1656 04d1 01       		.byte	0x1
 1657 04d2 F3040000 		.4byte	0x4f3
 1658 04d6 12       		.uleb128 0x12
 1659 04d7 3E030000 		.4byte	.LASF41
 1660 04db 02       		.byte	0x2
 1661 04dc 2C       		.byte	0x2c
 1662 04dd 80000000 		.4byte	0x80
 1663 04e1 02       		.byte	0x2
 1664 04e2 91       		.byte	0x91
 1665 04e3 6C       		.sleb128 -20
 1666 04e4 14       		.uleb128 0x14
 1667 04e5 73756D00 		.ascii	"sum\000"
 1668 04e9 02       		.byte	0x2
 1669 04ea 2E       		.byte	0x2e
 1670 04eb E4000000 		.4byte	0xe4
ARM GAS  G:\Users\Jaxb\AppData\Local\Temp\ccQSOq78.s 			page 34


 1671 04ef 02       		.byte	0x2
 1672 04f0 91       		.byte	0x91
 1673 04f1 74       		.sleb128 -12
 1674 04f2 00       		.byte	0
 1675 04f3 17       		.uleb128 0x17
 1676 04f4 01       		.byte	0x1
 1677 04f5 8D000000 		.4byte	.LASF50
 1678 04f9 02       		.byte	0x2
 1679 04fa 23       		.byte	0x23
 1680 04fb 01       		.byte	0x1
 1681 04fc 55020000 		.4byte	0x255
 1682 0500 3A000000 		.4byte	.LFB4
 1683 0504 6C000000 		.4byte	.LFE4
 1684 0508 C0030000 		.4byte	.LLST2
 1685 050c 01       		.byte	0x1
 1686 050d 20050000 		.4byte	0x520
 1687 0511 10       		.uleb128 0x10
 1688 0512 6E756D00 		.ascii	"num\000"
 1689 0516 02       		.byte	0x2
 1690 0517 23       		.byte	0x23
 1691 0518 E4000000 		.4byte	0xe4
 1692 051c 02       		.byte	0x2
 1693 051d 91       		.byte	0x91
 1694 051e 74       		.sleb128 -12
 1695 051f 00       		.byte	0
 1696 0520 18       		.uleb128 0x18
 1697 0521 7D000000 		.4byte	.LASF52
 1698 0525 01       		.byte	0x1
 1699 0526 12       		.byte	0x12
 1700 0527 01       		.byte	0x1
 1701 0528 18000000 		.4byte	.LFB1
 1702 052c 3A000000 		.4byte	.LFE1
 1703 0530 1C040000 		.4byte	.LLST1
 1704 0534 01       		.byte	0x1
 1705 0535 56050000 		.4byte	0x556
 1706 0539 10       		.uleb128 0x10
 1707 053a 6E657700 		.ascii	"new\000"
 1708 053e 01       		.byte	0x1
 1709 053f 12       		.byte	0x12
 1710 0540 45000000 		.4byte	0x45
 1711 0544 02       		.byte	0x2
 1712 0545 91       		.byte	0x91
 1713 0546 74       		.sleb128 -12
 1714 0547 12       		.uleb128 0x12
 1715 0548 3F020000 		.4byte	.LASF53
 1716 054c 01       		.byte	0x1
 1717 054d 12       		.byte	0x12
 1718 054e 45000000 		.4byte	0x45
 1719 0552 02       		.byte	0x2
 1720 0553 91       		.byte	0x91
 1721 0554 70       		.sleb128 -16
 1722 0555 00       		.byte	0
 1723 0556 19       		.uleb128 0x19
 1724 0557 A1030000 		.4byte	.LASF59
 1725 055b 01       		.byte	0x1
 1726 055c 0D       		.byte	0xd
 1727 055d 01       		.byte	0x1
ARM GAS  G:\Users\Jaxb\AppData\Local\Temp\ccQSOq78.s 			page 35


 1728 055e 00000000 		.4byte	.LFB0
 1729 0562 18000000 		.4byte	.LFE0
 1730 0566 78040000 		.4byte	.LLST0
 1731 056a 01       		.byte	0x1
 1732 056b 12       		.uleb128 0x12
 1733 056c 03020000 		.4byte	.LASF4
 1734 0570 01       		.byte	0x1
 1735 0571 0D       		.byte	0xd
 1736 0572 45000000 		.4byte	0x45
 1737 0576 02       		.byte	0x2
 1738 0577 91       		.byte	0x91
 1739 0578 74       		.sleb128 -12
 1740 0579 00       		.byte	0
 1741 057a 00       		.byte	0
 1742              		.section	.debug_abbrev,"",%progbits
 1743              	.Ldebug_abbrev0:
 1744 0000 01       		.uleb128 0x1
 1745 0001 11       		.uleb128 0x11
 1746 0002 01       		.byte	0x1
 1747 0003 25       		.uleb128 0x25
 1748 0004 0E       		.uleb128 0xe
 1749 0005 13       		.uleb128 0x13
 1750 0006 0B       		.uleb128 0xb
 1751 0007 03       		.uleb128 0x3
 1752 0008 0E       		.uleb128 0xe
 1753 0009 1B       		.uleb128 0x1b
 1754 000a 0E       		.uleb128 0xe
 1755 000b 11       		.uleb128 0x11
 1756 000c 01       		.uleb128 0x1
 1757 000d 12       		.uleb128 0x12
 1758 000e 01       		.uleb128 0x1
 1759 000f 10       		.uleb128 0x10
 1760 0010 06       		.uleb128 0x6
 1761 0011 00       		.byte	0
 1762 0012 00       		.byte	0
 1763 0013 02       		.uleb128 0x2
 1764 0014 13       		.uleb128 0x13
 1765 0015 01       		.byte	0x1
 1766 0016 03       		.uleb128 0x3
 1767 0017 0E       		.uleb128 0xe
 1768 0018 0B       		.uleb128 0xb
 1769 0019 0B       		.uleb128 0xb
 1770 001a 3A       		.uleb128 0x3a
 1771 001b 0B       		.uleb128 0xb
 1772 001c 3B       		.uleb128 0x3b
 1773 001d 0B       		.uleb128 0xb
 1774 001e 01       		.uleb128 0x1
 1775 001f 13       		.uleb128 0x13
 1776 0020 00       		.byte	0
 1777 0021 00       		.byte	0
 1778 0022 03       		.uleb128 0x3
 1779 0023 0D       		.uleb128 0xd
 1780 0024 00       		.byte	0
 1781 0025 03       		.uleb128 0x3
 1782 0026 0E       		.uleb128 0xe
 1783 0027 3A       		.uleb128 0x3a
 1784 0028 0B       		.uleb128 0xb
ARM GAS  G:\Users\Jaxb\AppData\Local\Temp\ccQSOq78.s 			page 36


 1785 0029 3B       		.uleb128 0x3b
 1786 002a 0B       		.uleb128 0xb
 1787 002b 49       		.uleb128 0x49
 1788 002c 13       		.uleb128 0x13
 1789 002d 38       		.uleb128 0x38
 1790 002e 0A       		.uleb128 0xa
 1791 002f 00       		.byte	0
 1792 0030 00       		.byte	0
 1793 0031 04       		.uleb128 0x4
 1794 0032 26       		.uleb128 0x26
 1795 0033 00       		.byte	0
 1796 0034 49       		.uleb128 0x49
 1797 0035 13       		.uleb128 0x13
 1798 0036 00       		.byte	0
 1799 0037 00       		.byte	0
 1800 0038 05       		.uleb128 0x5
 1801 0039 0F       		.uleb128 0xf
 1802 003a 00       		.byte	0
 1803 003b 0B       		.uleb128 0xb
 1804 003c 0B       		.uleb128 0xb
 1805 003d 49       		.uleb128 0x49
 1806 003e 13       		.uleb128 0x13
 1807 003f 00       		.byte	0
 1808 0040 00       		.byte	0
 1809 0041 06       		.uleb128 0x6
 1810 0042 0D       		.uleb128 0xd
 1811 0043 00       		.byte	0
 1812 0044 03       		.uleb128 0x3
 1813 0045 08       		.uleb128 0x8
 1814 0046 3A       		.uleb128 0x3a
 1815 0047 0B       		.uleb128 0xb
 1816 0048 3B       		.uleb128 0x3b
 1817 0049 0B       		.uleb128 0xb
 1818 004a 49       		.uleb128 0x49
 1819 004b 13       		.uleb128 0x13
 1820 004c 38       		.uleb128 0x38
 1821 004d 0A       		.uleb128 0xa
 1822 004e 00       		.byte	0
 1823 004f 00       		.byte	0
 1824 0050 07       		.uleb128 0x7
 1825 0051 24       		.uleb128 0x24
 1826 0052 00       		.byte	0
 1827 0053 0B       		.uleb128 0xb
 1828 0054 0B       		.uleb128 0xb
 1829 0055 3E       		.uleb128 0x3e
 1830 0056 0B       		.uleb128 0xb
 1831 0057 03       		.uleb128 0x3
 1832 0058 0E       		.uleb128 0xe
 1833 0059 00       		.byte	0
 1834 005a 00       		.byte	0
 1835 005b 08       		.uleb128 0x8
 1836 005c 15       		.uleb128 0x15
 1837 005d 01       		.byte	0x1
 1838 005e 27       		.uleb128 0x27
 1839 005f 0C       		.uleb128 0xc
 1840 0060 01       		.uleb128 0x1
 1841 0061 13       		.uleb128 0x13
ARM GAS  G:\Users\Jaxb\AppData\Local\Temp\ccQSOq78.s 			page 37


 1842 0062 00       		.byte	0
 1843 0063 00       		.byte	0
 1844 0064 09       		.uleb128 0x9
 1845 0065 05       		.uleb128 0x5
 1846 0066 00       		.byte	0
 1847 0067 49       		.uleb128 0x49
 1848 0068 13       		.uleb128 0x13
 1849 0069 00       		.byte	0
 1850 006a 00       		.byte	0
 1851 006b 0A       		.uleb128 0xa
 1852 006c 24       		.uleb128 0x24
 1853 006d 00       		.byte	0
 1854 006e 0B       		.uleb128 0xb
 1855 006f 0B       		.uleb128 0xb
 1856 0070 3E       		.uleb128 0x3e
 1857 0071 0B       		.uleb128 0xb
 1858 0072 03       		.uleb128 0x3
 1859 0073 08       		.uleb128 0x8
 1860 0074 00       		.byte	0
 1861 0075 00       		.byte	0
 1862 0076 0B       		.uleb128 0xb
 1863 0077 16       		.uleb128 0x16
 1864 0078 00       		.byte	0
 1865 0079 03       		.uleb128 0x3
 1866 007a 0E       		.uleb128 0xe
 1867 007b 3A       		.uleb128 0x3a
 1868 007c 0B       		.uleb128 0xb
 1869 007d 3B       		.uleb128 0x3b
 1870 007e 0B       		.uleb128 0xb
 1871 007f 49       		.uleb128 0x49
 1872 0080 13       		.uleb128 0x13
 1873 0081 00       		.byte	0
 1874 0082 00       		.byte	0
 1875 0083 0C       		.uleb128 0xc
 1876 0084 01       		.uleb128 0x1
 1877 0085 01       		.byte	0x1
 1878 0086 49       		.uleb128 0x49
 1879 0087 13       		.uleb128 0x13
 1880 0088 01       		.uleb128 0x1
 1881 0089 13       		.uleb128 0x13
 1882 008a 00       		.byte	0
 1883 008b 00       		.byte	0
 1884 008c 0D       		.uleb128 0xd
 1885 008d 21       		.uleb128 0x21
 1886 008e 00       		.byte	0
 1887 008f 49       		.uleb128 0x49
 1888 0090 13       		.uleb128 0x13
 1889 0091 2F       		.uleb128 0x2f
 1890 0092 0B       		.uleb128 0xb
 1891 0093 00       		.byte	0
 1892 0094 00       		.byte	0
 1893 0095 0E       		.uleb128 0xe
 1894 0096 34       		.uleb128 0x34
 1895 0097 00       		.byte	0
 1896 0098 03       		.uleb128 0x3
 1897 0099 0E       		.uleb128 0xe
 1898 009a 3A       		.uleb128 0x3a
ARM GAS  G:\Users\Jaxb\AppData\Local\Temp\ccQSOq78.s 			page 38


 1899 009b 0B       		.uleb128 0xb
 1900 009c 3B       		.uleb128 0x3b
 1901 009d 0B       		.uleb128 0xb
 1902 009e 49       		.uleb128 0x49
 1903 009f 13       		.uleb128 0x13
 1904 00a0 02       		.uleb128 0x2
 1905 00a1 0A       		.uleb128 0xa
 1906 00a2 00       		.byte	0
 1907 00a3 00       		.byte	0
 1908 00a4 0F       		.uleb128 0xf
 1909 00a5 2E       		.uleb128 0x2e
 1910 00a6 01       		.byte	0x1
 1911 00a7 3F       		.uleb128 0x3f
 1912 00a8 0C       		.uleb128 0xc
 1913 00a9 03       		.uleb128 0x3
 1914 00aa 0E       		.uleb128 0xe
 1915 00ab 3A       		.uleb128 0x3a
 1916 00ac 0B       		.uleb128 0xb
 1917 00ad 3B       		.uleb128 0x3b
 1918 00ae 0B       		.uleb128 0xb
 1919 00af 27       		.uleb128 0x27
 1920 00b0 0C       		.uleb128 0xc
 1921 00b1 11       		.uleb128 0x11
 1922 00b2 01       		.uleb128 0x1
 1923 00b3 12       		.uleb128 0x12
 1924 00b4 01       		.uleb128 0x1
 1925 00b5 40       		.uleb128 0x40
 1926 00b6 06       		.uleb128 0x6
 1927 00b7 9642     		.uleb128 0x2116
 1928 00b9 0C       		.uleb128 0xc
 1929 00ba 01       		.uleb128 0x1
 1930 00bb 13       		.uleb128 0x13
 1931 00bc 00       		.byte	0
 1932 00bd 00       		.byte	0
 1933 00be 10       		.uleb128 0x10
 1934 00bf 05       		.uleb128 0x5
 1935 00c0 00       		.byte	0
 1936 00c1 03       		.uleb128 0x3
 1937 00c2 08       		.uleb128 0x8
 1938 00c3 3A       		.uleb128 0x3a
 1939 00c4 0B       		.uleb128 0xb
 1940 00c5 3B       		.uleb128 0x3b
 1941 00c6 0B       		.uleb128 0xb
 1942 00c7 49       		.uleb128 0x49
 1943 00c8 13       		.uleb128 0x13
 1944 00c9 02       		.uleb128 0x2
 1945 00ca 0A       		.uleb128 0xa
 1946 00cb 00       		.byte	0
 1947 00cc 00       		.byte	0
 1948 00cd 11       		.uleb128 0x11
 1949 00ce 2E       		.uleb128 0x2e
 1950 00cf 01       		.byte	0x1
 1951 00d0 03       		.uleb128 0x3
 1952 00d1 0E       		.uleb128 0xe
 1953 00d2 3A       		.uleb128 0x3a
 1954 00d3 0B       		.uleb128 0xb
 1955 00d4 3B       		.uleb128 0x3b
ARM GAS  G:\Users\Jaxb\AppData\Local\Temp\ccQSOq78.s 			page 39


 1956 00d5 0B       		.uleb128 0xb
 1957 00d6 27       		.uleb128 0x27
 1958 00d7 0C       		.uleb128 0xc
 1959 00d8 11       		.uleb128 0x11
 1960 00d9 01       		.uleb128 0x1
 1961 00da 12       		.uleb128 0x12
 1962 00db 01       		.uleb128 0x1
 1963 00dc 40       		.uleb128 0x40
 1964 00dd 06       		.uleb128 0x6
 1965 00de 9642     		.uleb128 0x2116
 1966 00e0 0C       		.uleb128 0xc
 1967 00e1 01       		.uleb128 0x1
 1968 00e2 13       		.uleb128 0x13
 1969 00e3 00       		.byte	0
 1970 00e4 00       		.byte	0
 1971 00e5 12       		.uleb128 0x12
 1972 00e6 05       		.uleb128 0x5
 1973 00e7 00       		.byte	0
 1974 00e8 03       		.uleb128 0x3
 1975 00e9 0E       		.uleb128 0xe
 1976 00ea 3A       		.uleb128 0x3a
 1977 00eb 0B       		.uleb128 0xb
 1978 00ec 3B       		.uleb128 0x3b
 1979 00ed 0B       		.uleb128 0xb
 1980 00ee 49       		.uleb128 0x49
 1981 00ef 13       		.uleb128 0x13
 1982 00f0 02       		.uleb128 0x2
 1983 00f1 0A       		.uleb128 0xa
 1984 00f2 00       		.byte	0
 1985 00f3 00       		.byte	0
 1986 00f4 13       		.uleb128 0x13
 1987 00f5 2E       		.uleb128 0x2e
 1988 00f6 01       		.byte	0x1
 1989 00f7 3F       		.uleb128 0x3f
 1990 00f8 0C       		.uleb128 0xc
 1991 00f9 03       		.uleb128 0x3
 1992 00fa 0E       		.uleb128 0xe
 1993 00fb 3A       		.uleb128 0x3a
 1994 00fc 0B       		.uleb128 0xb
 1995 00fd 3B       		.uleb128 0x3b
 1996 00fe 0B       		.uleb128 0xb
 1997 00ff 27       		.uleb128 0x27
 1998 0100 0C       		.uleb128 0xc
 1999 0101 49       		.uleb128 0x49
 2000 0102 13       		.uleb128 0x13
 2001 0103 11       		.uleb128 0x11
 2002 0104 01       		.uleb128 0x1
 2003 0105 12       		.uleb128 0x12
 2004 0106 01       		.uleb128 0x1
 2005 0107 40       		.uleb128 0x40
 2006 0108 06       		.uleb128 0x6
 2007 0109 9642     		.uleb128 0x2116
 2008 010b 0C       		.uleb128 0xc
 2009 010c 01       		.uleb128 0x1
 2010 010d 13       		.uleb128 0x13
 2011 010e 00       		.byte	0
 2012 010f 00       		.byte	0
ARM GAS  G:\Users\Jaxb\AppData\Local\Temp\ccQSOq78.s 			page 40


 2013 0110 14       		.uleb128 0x14
 2014 0111 34       		.uleb128 0x34
 2015 0112 00       		.byte	0
 2016 0113 03       		.uleb128 0x3
 2017 0114 08       		.uleb128 0x8
 2018 0115 3A       		.uleb128 0x3a
 2019 0116 0B       		.uleb128 0xb
 2020 0117 3B       		.uleb128 0x3b
 2021 0118 0B       		.uleb128 0xb
 2022 0119 49       		.uleb128 0x49
 2023 011a 13       		.uleb128 0x13
 2024 011b 02       		.uleb128 0x2
 2025 011c 0A       		.uleb128 0xa
 2026 011d 00       		.byte	0
 2027 011e 00       		.byte	0
 2028 011f 15       		.uleb128 0x15
 2029 0120 0B       		.uleb128 0xb
 2030 0121 01       		.byte	0x1
 2031 0122 11       		.uleb128 0x11
 2032 0123 01       		.uleb128 0x1
 2033 0124 12       		.uleb128 0x12
 2034 0125 01       		.uleb128 0x1
 2035 0126 00       		.byte	0
 2036 0127 00       		.byte	0
 2037 0128 16       		.uleb128 0x16
 2038 0129 2E       		.uleb128 0x2e
 2039 012a 01       		.byte	0x1
 2040 012b 03       		.uleb128 0x3
 2041 012c 0E       		.uleb128 0xe
 2042 012d 3A       		.uleb128 0x3a
 2043 012e 0B       		.uleb128 0xb
 2044 012f 3B       		.uleb128 0x3b
 2045 0130 0B       		.uleb128 0xb
 2046 0131 27       		.uleb128 0x27
 2047 0132 0C       		.uleb128 0xc
 2048 0133 49       		.uleb128 0x49
 2049 0134 13       		.uleb128 0x13
 2050 0135 11       		.uleb128 0x11
 2051 0136 01       		.uleb128 0x1
 2052 0137 12       		.uleb128 0x12
 2053 0138 01       		.uleb128 0x1
 2054 0139 40       		.uleb128 0x40
 2055 013a 06       		.uleb128 0x6
 2056 013b 9642     		.uleb128 0x2116
 2057 013d 0C       		.uleb128 0xc
 2058 013e 01       		.uleb128 0x1
 2059 013f 13       		.uleb128 0x13
 2060 0140 00       		.byte	0
 2061 0141 00       		.byte	0
 2062 0142 17       		.uleb128 0x17
 2063 0143 2E       		.uleb128 0x2e
 2064 0144 01       		.byte	0x1
 2065 0145 3F       		.uleb128 0x3f
 2066 0146 0C       		.uleb128 0xc
 2067 0147 03       		.uleb128 0x3
 2068 0148 0E       		.uleb128 0xe
 2069 0149 3A       		.uleb128 0x3a
ARM GAS  G:\Users\Jaxb\AppData\Local\Temp\ccQSOq78.s 			page 41


 2070 014a 0B       		.uleb128 0xb
 2071 014b 3B       		.uleb128 0x3b
 2072 014c 0B       		.uleb128 0xb
 2073 014d 27       		.uleb128 0x27
 2074 014e 0C       		.uleb128 0xc
 2075 014f 49       		.uleb128 0x49
 2076 0150 13       		.uleb128 0x13
 2077 0151 11       		.uleb128 0x11
 2078 0152 01       		.uleb128 0x1
 2079 0153 12       		.uleb128 0x12
 2080 0154 01       		.uleb128 0x1
 2081 0155 40       		.uleb128 0x40
 2082 0156 06       		.uleb128 0x6
 2083 0157 9742     		.uleb128 0x2117
 2084 0159 0C       		.uleb128 0xc
 2085 015a 01       		.uleb128 0x1
 2086 015b 13       		.uleb128 0x13
 2087 015c 00       		.byte	0
 2088 015d 00       		.byte	0
 2089 015e 18       		.uleb128 0x18
 2090 015f 2E       		.uleb128 0x2e
 2091 0160 01       		.byte	0x1
 2092 0161 03       		.uleb128 0x3
 2093 0162 0E       		.uleb128 0xe
 2094 0163 3A       		.uleb128 0x3a
 2095 0164 0B       		.uleb128 0xb
 2096 0165 3B       		.uleb128 0x3b
 2097 0166 0B       		.uleb128 0xb
 2098 0167 27       		.uleb128 0x27
 2099 0168 0C       		.uleb128 0xc
 2100 0169 11       		.uleb128 0x11
 2101 016a 01       		.uleb128 0x1
 2102 016b 12       		.uleb128 0x12
 2103 016c 01       		.uleb128 0x1
 2104 016d 40       		.uleb128 0x40
 2105 016e 06       		.uleb128 0x6
 2106 016f 9742     		.uleb128 0x2117
 2107 0171 0C       		.uleb128 0xc
 2108 0172 01       		.uleb128 0x1
 2109 0173 13       		.uleb128 0x13
 2110 0174 00       		.byte	0
 2111 0175 00       		.byte	0
 2112 0176 19       		.uleb128 0x19
 2113 0177 2E       		.uleb128 0x2e
 2114 0178 01       		.byte	0x1
 2115 0179 03       		.uleb128 0x3
 2116 017a 0E       		.uleb128 0xe
 2117 017b 3A       		.uleb128 0x3a
 2118 017c 0B       		.uleb128 0xb
 2119 017d 3B       		.uleb128 0x3b
 2120 017e 0B       		.uleb128 0xb
 2121 017f 27       		.uleb128 0x27
 2122 0180 0C       		.uleb128 0xc
 2123 0181 11       		.uleb128 0x11
 2124 0182 01       		.uleb128 0x1
 2125 0183 12       		.uleb128 0x12
 2126 0184 01       		.uleb128 0x1
ARM GAS  G:\Users\Jaxb\AppData\Local\Temp\ccQSOq78.s 			page 42


 2127 0185 40       		.uleb128 0x40
 2128 0186 06       		.uleb128 0x6
 2129 0187 9742     		.uleb128 0x2117
 2130 0189 0C       		.uleb128 0xc
 2131 018a 00       		.byte	0
 2132 018b 00       		.byte	0
 2133 018c 00       		.byte	0
 2134              		.section	.debug_loc,"",%progbits
 2135              	.Ldebug_loc0:
 2136              	.LLST14:
 2137 0000 F4020000 		.4byte	.LFB16-.Ltext0
 2138 0004 F6020000 		.4byte	.LCFI73-.Ltext0
 2139 0008 0200     		.2byte	0x2
 2140 000a 7D       		.byte	0x7d
 2141 000b 00       		.sleb128 0
 2142 000c F6020000 		.4byte	.LCFI73-.Ltext0
 2143 0010 F8020000 		.4byte	.LCFI74-.Ltext0
 2144 0014 0200     		.2byte	0x2
 2145 0016 7D       		.byte	0x7d
 2146 0017 08       		.sleb128 8
 2147 0018 F8020000 		.4byte	.LCFI74-.Ltext0
 2148 001c FA020000 		.4byte	.LCFI75-.Ltext0
 2149 0020 0200     		.2byte	0x2
 2150 0022 7D       		.byte	0x7d
 2151 0023 10       		.sleb128 16
 2152 0024 FA020000 		.4byte	.LCFI75-.Ltext0
 2153 0028 08030000 		.4byte	.LCFI76-.Ltext0
 2154 002c 0200     		.2byte	0x2
 2155 002e 77       		.byte	0x77
 2156 002f 10       		.sleb128 16
 2157 0030 08030000 		.4byte	.LCFI76-.Ltext0
 2158 0034 0A030000 		.4byte	.LCFI77-.Ltext0
 2159 0038 0200     		.2byte	0x2
 2160 003a 77       		.byte	0x77
 2161 003b 08       		.sleb128 8
 2162 003c 0A030000 		.4byte	.LCFI77-.Ltext0
 2163 0040 10030000 		.4byte	.LFE16-.Ltext0
 2164 0044 0200     		.2byte	0x2
 2165 0046 7D       		.byte	0x7d
 2166 0047 08       		.sleb128 8
 2167 0048 00000000 		.4byte	0
 2168 004c 00000000 		.4byte	0
 2169              	.LLST13:
 2170 0050 D8020000 		.4byte	.LFB15-.Ltext0
 2171 0054 DA020000 		.4byte	.LCFI68-.Ltext0
 2172 0058 0200     		.2byte	0x2
 2173 005a 7D       		.byte	0x7d
 2174 005b 00       		.sleb128 0
 2175 005c DA020000 		.4byte	.LCFI68-.Ltext0
 2176 0060 DC020000 		.4byte	.LCFI69-.Ltext0
 2177 0064 0200     		.2byte	0x2
 2178 0066 7D       		.byte	0x7d
 2179 0067 08       		.sleb128 8
 2180 0068 DC020000 		.4byte	.LCFI69-.Ltext0
 2181 006c DE020000 		.4byte	.LCFI70-.Ltext0
 2182 0070 0200     		.2byte	0x2
 2183 0072 7D       		.byte	0x7d
ARM GAS  G:\Users\Jaxb\AppData\Local\Temp\ccQSOq78.s 			page 43


 2184 0073 10       		.sleb128 16
 2185 0074 DE020000 		.4byte	.LCFI70-.Ltext0
 2186 0078 EC020000 		.4byte	.LCFI71-.Ltext0
 2187 007c 0200     		.2byte	0x2
 2188 007e 77       		.byte	0x77
 2189 007f 10       		.sleb128 16
 2190 0080 EC020000 		.4byte	.LCFI71-.Ltext0
 2191 0084 EE020000 		.4byte	.LCFI72-.Ltext0
 2192 0088 0200     		.2byte	0x2
 2193 008a 77       		.byte	0x77
 2194 008b 08       		.sleb128 8
 2195 008c EE020000 		.4byte	.LCFI72-.Ltext0
 2196 0090 F4020000 		.4byte	.LFE15-.Ltext0
 2197 0094 0200     		.2byte	0x2
 2198 0096 7D       		.byte	0x7d
 2199 0097 08       		.sleb128 8
 2200 0098 00000000 		.4byte	0
 2201 009c 00000000 		.4byte	0
 2202              	.LLST12:
 2203 00a0 BC020000 		.4byte	.LFB14-.Ltext0
 2204 00a4 BE020000 		.4byte	.LCFI63-.Ltext0
 2205 00a8 0200     		.2byte	0x2
 2206 00aa 7D       		.byte	0x7d
 2207 00ab 00       		.sleb128 0
 2208 00ac BE020000 		.4byte	.LCFI63-.Ltext0
 2209 00b0 C0020000 		.4byte	.LCFI64-.Ltext0
 2210 00b4 0200     		.2byte	0x2
 2211 00b6 7D       		.byte	0x7d
 2212 00b7 08       		.sleb128 8
 2213 00b8 C0020000 		.4byte	.LCFI64-.Ltext0
 2214 00bc C2020000 		.4byte	.LCFI65-.Ltext0
 2215 00c0 0200     		.2byte	0x2
 2216 00c2 7D       		.byte	0x7d
 2217 00c3 10       		.sleb128 16
 2218 00c4 C2020000 		.4byte	.LCFI65-.Ltext0
 2219 00c8 D0020000 		.4byte	.LCFI66-.Ltext0
 2220 00cc 0200     		.2byte	0x2
 2221 00ce 77       		.byte	0x77
 2222 00cf 10       		.sleb128 16
 2223 00d0 D0020000 		.4byte	.LCFI66-.Ltext0
 2224 00d4 D2020000 		.4byte	.LCFI67-.Ltext0
 2225 00d8 0200     		.2byte	0x2
 2226 00da 77       		.byte	0x77
 2227 00db 08       		.sleb128 8
 2228 00dc D2020000 		.4byte	.LCFI67-.Ltext0
 2229 00e0 D8020000 		.4byte	.LFE14-.Ltext0
 2230 00e4 0200     		.2byte	0x2
 2231 00e6 7D       		.byte	0x7d
 2232 00e7 08       		.sleb128 8
 2233 00e8 00000000 		.4byte	0
 2234 00ec 00000000 		.4byte	0
 2235              	.LLST11:
 2236 00f0 A0020000 		.4byte	.LFB13-.Ltext0
 2237 00f4 A2020000 		.4byte	.LCFI58-.Ltext0
 2238 00f8 0200     		.2byte	0x2
 2239 00fa 7D       		.byte	0x7d
 2240 00fb 00       		.sleb128 0
ARM GAS  G:\Users\Jaxb\AppData\Local\Temp\ccQSOq78.s 			page 44


 2241 00fc A2020000 		.4byte	.LCFI58-.Ltext0
 2242 0100 A4020000 		.4byte	.LCFI59-.Ltext0
 2243 0104 0200     		.2byte	0x2
 2244 0106 7D       		.byte	0x7d
 2245 0107 08       		.sleb128 8
 2246 0108 A4020000 		.4byte	.LCFI59-.Ltext0
 2247 010c A6020000 		.4byte	.LCFI60-.Ltext0
 2248 0110 0200     		.2byte	0x2
 2249 0112 7D       		.byte	0x7d
 2250 0113 10       		.sleb128 16
 2251 0114 A6020000 		.4byte	.LCFI60-.Ltext0
 2252 0118 B4020000 		.4byte	.LCFI61-.Ltext0
 2253 011c 0200     		.2byte	0x2
 2254 011e 77       		.byte	0x77
 2255 011f 10       		.sleb128 16
 2256 0120 B4020000 		.4byte	.LCFI61-.Ltext0
 2257 0124 B6020000 		.4byte	.LCFI62-.Ltext0
 2258 0128 0200     		.2byte	0x2
 2259 012a 77       		.byte	0x77
 2260 012b 08       		.sleb128 8
 2261 012c B6020000 		.4byte	.LCFI62-.Ltext0
 2262 0130 BC020000 		.4byte	.LFE13-.Ltext0
 2263 0134 0200     		.2byte	0x2
 2264 0136 7D       		.byte	0x7d
 2265 0137 08       		.sleb128 8
 2266 0138 00000000 		.4byte	0
 2267 013c 00000000 		.4byte	0
 2268              	.LLST10:
 2269 0140 84020000 		.4byte	.LFB12-.Ltext0
 2270 0144 86020000 		.4byte	.LCFI53-.Ltext0
 2271 0148 0200     		.2byte	0x2
 2272 014a 7D       		.byte	0x7d
 2273 014b 00       		.sleb128 0
 2274 014c 86020000 		.4byte	.LCFI53-.Ltext0
 2275 0150 88020000 		.4byte	.LCFI54-.Ltext0
 2276 0154 0200     		.2byte	0x2
 2277 0156 7D       		.byte	0x7d
 2278 0157 08       		.sleb128 8
 2279 0158 88020000 		.4byte	.LCFI54-.Ltext0
 2280 015c 8A020000 		.4byte	.LCFI55-.Ltext0
 2281 0160 0200     		.2byte	0x2
 2282 0162 7D       		.byte	0x7d
 2283 0163 10       		.sleb128 16
 2284 0164 8A020000 		.4byte	.LCFI55-.Ltext0
 2285 0168 98020000 		.4byte	.LCFI56-.Ltext0
 2286 016c 0200     		.2byte	0x2
 2287 016e 77       		.byte	0x77
 2288 016f 10       		.sleb128 16
 2289 0170 98020000 		.4byte	.LCFI56-.Ltext0
 2290 0174 9A020000 		.4byte	.LCFI57-.Ltext0
 2291 0178 0200     		.2byte	0x2
 2292 017a 77       		.byte	0x77
 2293 017b 08       		.sleb128 8
 2294 017c 9A020000 		.4byte	.LCFI57-.Ltext0
 2295 0180 A0020000 		.4byte	.LFE12-.Ltext0
 2296 0184 0200     		.2byte	0x2
 2297 0186 7D       		.byte	0x7d
ARM GAS  G:\Users\Jaxb\AppData\Local\Temp\ccQSOq78.s 			page 45


 2298 0187 08       		.sleb128 8
 2299 0188 00000000 		.4byte	0
 2300 018c 00000000 		.4byte	0
 2301              	.LLST9:
 2302 0190 68020000 		.4byte	.LFB11-.Ltext0
 2303 0194 6A020000 		.4byte	.LCFI48-.Ltext0
 2304 0198 0200     		.2byte	0x2
 2305 019a 7D       		.byte	0x7d
 2306 019b 00       		.sleb128 0
 2307 019c 6A020000 		.4byte	.LCFI48-.Ltext0
 2308 01a0 6C020000 		.4byte	.LCFI49-.Ltext0
 2309 01a4 0200     		.2byte	0x2
 2310 01a6 7D       		.byte	0x7d
 2311 01a7 08       		.sleb128 8
 2312 01a8 6C020000 		.4byte	.LCFI49-.Ltext0
 2313 01ac 6E020000 		.4byte	.LCFI50-.Ltext0
 2314 01b0 0200     		.2byte	0x2
 2315 01b2 7D       		.byte	0x7d
 2316 01b3 10       		.sleb128 16
 2317 01b4 6E020000 		.4byte	.LCFI50-.Ltext0
 2318 01b8 7C020000 		.4byte	.LCFI51-.Ltext0
 2319 01bc 0200     		.2byte	0x2
 2320 01be 77       		.byte	0x77
 2321 01bf 10       		.sleb128 16
 2322 01c0 7C020000 		.4byte	.LCFI51-.Ltext0
 2323 01c4 7E020000 		.4byte	.LCFI52-.Ltext0
 2324 01c8 0200     		.2byte	0x2
 2325 01ca 77       		.byte	0x77
 2326 01cb 08       		.sleb128 8
 2327 01cc 7E020000 		.4byte	.LCFI52-.Ltext0
 2328 01d0 84020000 		.4byte	.LFE11-.Ltext0
 2329 01d4 0200     		.2byte	0x2
 2330 01d6 7D       		.byte	0x7d
 2331 01d7 08       		.sleb128 8
 2332 01d8 00000000 		.4byte	0
 2333 01dc 00000000 		.4byte	0
 2334              	.LLST8:
 2335 01e0 4C020000 		.4byte	.LFB10-.Ltext0
 2336 01e4 4E020000 		.4byte	.LCFI43-.Ltext0
 2337 01e8 0200     		.2byte	0x2
 2338 01ea 7D       		.byte	0x7d
 2339 01eb 00       		.sleb128 0
 2340 01ec 4E020000 		.4byte	.LCFI43-.Ltext0
 2341 01f0 50020000 		.4byte	.LCFI44-.Ltext0
 2342 01f4 0200     		.2byte	0x2
 2343 01f6 7D       		.byte	0x7d
 2344 01f7 08       		.sleb128 8
 2345 01f8 50020000 		.4byte	.LCFI44-.Ltext0
 2346 01fc 52020000 		.4byte	.LCFI45-.Ltext0
 2347 0200 0200     		.2byte	0x2
 2348 0202 7D       		.byte	0x7d
 2349 0203 10       		.sleb128 16
 2350 0204 52020000 		.4byte	.LCFI45-.Ltext0
 2351 0208 60020000 		.4byte	.LCFI46-.Ltext0
 2352 020c 0200     		.2byte	0x2
 2353 020e 77       		.byte	0x77
 2354 020f 10       		.sleb128 16
ARM GAS  G:\Users\Jaxb\AppData\Local\Temp\ccQSOq78.s 			page 46


 2355 0210 60020000 		.4byte	.LCFI46-.Ltext0
 2356 0214 62020000 		.4byte	.LCFI47-.Ltext0
 2357 0218 0200     		.2byte	0x2
 2358 021a 77       		.byte	0x77
 2359 021b 08       		.sleb128 8
 2360 021c 62020000 		.4byte	.LCFI47-.Ltext0
 2361 0220 68020000 		.4byte	.LFE10-.Ltext0
 2362 0224 0200     		.2byte	0x2
 2363 0226 7D       		.byte	0x7d
 2364 0227 08       		.sleb128 8
 2365 0228 00000000 		.4byte	0
 2366 022c 00000000 		.4byte	0
 2367              	.LLST7:
 2368 0230 30020000 		.4byte	.LFB9-.Ltext0
 2369 0234 32020000 		.4byte	.LCFI38-.Ltext0
 2370 0238 0200     		.2byte	0x2
 2371 023a 7D       		.byte	0x7d
 2372 023b 00       		.sleb128 0
 2373 023c 32020000 		.4byte	.LCFI38-.Ltext0
 2374 0240 34020000 		.4byte	.LCFI39-.Ltext0
 2375 0244 0200     		.2byte	0x2
 2376 0246 7D       		.byte	0x7d
 2377 0247 08       		.sleb128 8
 2378 0248 34020000 		.4byte	.LCFI39-.Ltext0
 2379 024c 36020000 		.4byte	.LCFI40-.Ltext0
 2380 0250 0200     		.2byte	0x2
 2381 0252 7D       		.byte	0x7d
 2382 0253 10       		.sleb128 16
 2383 0254 36020000 		.4byte	.LCFI40-.Ltext0
 2384 0258 44020000 		.4byte	.LCFI41-.Ltext0
 2385 025c 0200     		.2byte	0x2
 2386 025e 77       		.byte	0x77
 2387 025f 10       		.sleb128 16
 2388 0260 44020000 		.4byte	.LCFI41-.Ltext0
 2389 0264 46020000 		.4byte	.LCFI42-.Ltext0
 2390 0268 0200     		.2byte	0x2
 2391 026a 77       		.byte	0x77
 2392 026b 08       		.sleb128 8
 2393 026c 46020000 		.4byte	.LCFI42-.Ltext0
 2394 0270 4C020000 		.4byte	.LFE9-.Ltext0
 2395 0274 0200     		.2byte	0x2
 2396 0276 7D       		.byte	0x7d
 2397 0277 08       		.sleb128 8
 2398 0278 00000000 		.4byte	0
 2399 027c 00000000 		.4byte	0
 2400              	.LLST6:
 2401 0280 EC010000 		.4byte	.LFB8-.Ltext0
 2402 0284 EE010000 		.4byte	.LCFI33-.Ltext0
 2403 0288 0200     		.2byte	0x2
 2404 028a 7D       		.byte	0x7d
 2405 028b 00       		.sleb128 0
 2406 028c EE010000 		.4byte	.LCFI33-.Ltext0
 2407 0290 F0010000 		.4byte	.LCFI34-.Ltext0
 2408 0294 0200     		.2byte	0x2
 2409 0296 7D       		.byte	0x7d
 2410 0297 08       		.sleb128 8
 2411 0298 F0010000 		.4byte	.LCFI34-.Ltext0
ARM GAS  G:\Users\Jaxb\AppData\Local\Temp\ccQSOq78.s 			page 47


 2412 029c F2010000 		.4byte	.LCFI35-.Ltext0
 2413 02a0 0200     		.2byte	0x2
 2414 02a2 7D       		.byte	0x7d
 2415 02a3 18       		.sleb128 24
 2416 02a4 F2010000 		.4byte	.LCFI35-.Ltext0
 2417 02a8 28020000 		.4byte	.LCFI36-.Ltext0
 2418 02ac 0200     		.2byte	0x2
 2419 02ae 77       		.byte	0x77
 2420 02af 18       		.sleb128 24
 2421 02b0 28020000 		.4byte	.LCFI36-.Ltext0
 2422 02b4 2A020000 		.4byte	.LCFI37-.Ltext0
 2423 02b8 0200     		.2byte	0x2
 2424 02ba 77       		.byte	0x77
 2425 02bb 08       		.sleb128 8
 2426 02bc 2A020000 		.4byte	.LCFI37-.Ltext0
 2427 02c0 30020000 		.4byte	.LFE8-.Ltext0
 2428 02c4 0200     		.2byte	0x2
 2429 02c6 7D       		.byte	0x7d
 2430 02c7 08       		.sleb128 8
 2431 02c8 00000000 		.4byte	0
 2432 02cc 00000000 		.4byte	0
 2433              	.LLST5:
 2434 02d0 2C010000 		.4byte	.LFB7-.Ltext0
 2435 02d4 2E010000 		.4byte	.LCFI28-.Ltext0
 2436 02d8 0200     		.2byte	0x2
 2437 02da 7D       		.byte	0x7d
 2438 02db 00       		.sleb128 0
 2439 02dc 2E010000 		.4byte	.LCFI28-.Ltext0
 2440 02e0 30010000 		.4byte	.LCFI29-.Ltext0
 2441 02e4 0200     		.2byte	0x2
 2442 02e6 7D       		.byte	0x7d
 2443 02e7 0C       		.sleb128 12
 2444 02e8 30010000 		.4byte	.LCFI29-.Ltext0
 2445 02ec 32010000 		.4byte	.LCFI30-.Ltext0
 2446 02f0 0200     		.2byte	0x2
 2447 02f2 7D       		.byte	0x7d
 2448 02f3 30       		.sleb128 48
 2449 02f4 32010000 		.4byte	.LCFI30-.Ltext0
 2450 02f8 DC010000 		.4byte	.LCFI31-.Ltext0
 2451 02fc 0200     		.2byte	0x2
 2452 02fe 77       		.byte	0x77
 2453 02ff 30       		.sleb128 48
 2454 0300 DC010000 		.4byte	.LCFI31-.Ltext0
 2455 0304 DE010000 		.4byte	.LCFI32-.Ltext0
 2456 0308 0200     		.2byte	0x2
 2457 030a 77       		.byte	0x77
 2458 030b 0C       		.sleb128 12
 2459 030c DE010000 		.4byte	.LCFI32-.Ltext0
 2460 0310 EC010000 		.4byte	.LFE7-.Ltext0
 2461 0314 0200     		.2byte	0x2
 2462 0316 7D       		.byte	0x7d
 2463 0317 0C       		.sleb128 12
 2464 0318 00000000 		.4byte	0
 2465 031c 00000000 		.4byte	0
 2466              	.LLST4:
 2467 0320 E0000000 		.4byte	.LFB6-.Ltext0
 2468 0324 E2000000 		.4byte	.LCFI23-.Ltext0
ARM GAS  G:\Users\Jaxb\AppData\Local\Temp\ccQSOq78.s 			page 48


 2469 0328 0200     		.2byte	0x2
 2470 032a 7D       		.byte	0x7d
 2471 032b 00       		.sleb128 0
 2472 032c E2000000 		.4byte	.LCFI23-.Ltext0
 2473 0330 E4000000 		.4byte	.LCFI24-.Ltext0
 2474 0334 0200     		.2byte	0x2
 2475 0336 7D       		.byte	0x7d
 2476 0337 08       		.sleb128 8
 2477 0338 E4000000 		.4byte	.LCFI24-.Ltext0
 2478 033c E6000000 		.4byte	.LCFI25-.Ltext0
 2479 0340 0200     		.2byte	0x2
 2480 0342 7D       		.byte	0x7d
 2481 0343 10       		.sleb128 16
 2482 0344 E6000000 		.4byte	.LCFI25-.Ltext0
 2483 0348 24010000 		.4byte	.LCFI26-.Ltext0
 2484 034c 0200     		.2byte	0x2
 2485 034e 77       		.byte	0x77
 2486 034f 10       		.sleb128 16
 2487 0350 24010000 		.4byte	.LCFI26-.Ltext0
 2488 0354 26010000 		.4byte	.LCFI27-.Ltext0
 2489 0358 0200     		.2byte	0x2
 2490 035a 77       		.byte	0x77
 2491 035b 08       		.sleb128 8
 2492 035c 26010000 		.4byte	.LCFI27-.Ltext0
 2493 0360 2C010000 		.4byte	.LFE6-.Ltext0
 2494 0364 0200     		.2byte	0x2
 2495 0366 7D       		.byte	0x7d
 2496 0367 08       		.sleb128 8
 2497 0368 00000000 		.4byte	0
 2498 036c 00000000 		.4byte	0
 2499              	.LLST3:
 2500 0370 6C000000 		.4byte	.LFB5-.Ltext0
 2501 0374 6E000000 		.4byte	.LCFI18-.Ltext0
 2502 0378 0200     		.2byte	0x2
 2503 037a 7D       		.byte	0x7d
 2504 037b 00       		.sleb128 0
 2505 037c 6E000000 		.4byte	.LCFI18-.Ltext0
 2506 0380 70000000 		.4byte	.LCFI19-.Ltext0
 2507 0384 0200     		.2byte	0x2
 2508 0386 7D       		.byte	0x7d
 2509 0387 08       		.sleb128 8
 2510 0388 70000000 		.4byte	.LCFI19-.Ltext0
 2511 038c 72000000 		.4byte	.LCFI20-.Ltext0
 2512 0390 0200     		.2byte	0x2
 2513 0392 7D       		.byte	0x7d
 2514 0393 18       		.sleb128 24
 2515 0394 72000000 		.4byte	.LCFI20-.Ltext0
 2516 0398 D4000000 		.4byte	.LCFI21-.Ltext0
 2517 039c 0200     		.2byte	0x2
 2518 039e 77       		.byte	0x77
 2519 039f 18       		.sleb128 24
 2520 03a0 D4000000 		.4byte	.LCFI21-.Ltext0
 2521 03a4 D6000000 		.4byte	.LCFI22-.Ltext0
 2522 03a8 0200     		.2byte	0x2
 2523 03aa 77       		.byte	0x77
 2524 03ab 08       		.sleb128 8
 2525 03ac D6000000 		.4byte	.LCFI22-.Ltext0
ARM GAS  G:\Users\Jaxb\AppData\Local\Temp\ccQSOq78.s 			page 49


 2526 03b0 E0000000 		.4byte	.LFE5-.Ltext0
 2527 03b4 0200     		.2byte	0x2
 2528 03b6 7D       		.byte	0x7d
 2529 03b7 08       		.sleb128 8
 2530 03b8 00000000 		.4byte	0
 2531 03bc 00000000 		.4byte	0
 2532              	.LLST2:
 2533 03c0 3A000000 		.4byte	.LFB4-.Ltext0
 2534 03c4 3C000000 		.4byte	.LCFI12-.Ltext0
 2535 03c8 0200     		.2byte	0x2
 2536 03ca 7D       		.byte	0x7d
 2537 03cb 00       		.sleb128 0
 2538 03cc 3C000000 		.4byte	.LCFI12-.Ltext0
 2539 03d0 3E000000 		.4byte	.LCFI13-.Ltext0
 2540 03d4 0200     		.2byte	0x2
 2541 03d6 7D       		.byte	0x7d
 2542 03d7 04       		.sleb128 4
 2543 03d8 3E000000 		.4byte	.LCFI13-.Ltext0
 2544 03dc 40000000 		.4byte	.LCFI14-.Ltext0
 2545 03e0 0200     		.2byte	0x2
 2546 03e2 7D       		.byte	0x7d
 2547 03e3 10       		.sleb128 16
 2548 03e4 40000000 		.4byte	.LCFI14-.Ltext0
 2549 03e8 60000000 		.4byte	.LCFI15-.Ltext0
 2550 03ec 0200     		.2byte	0x2
 2551 03ee 77       		.byte	0x77
 2552 03ef 10       		.sleb128 16
 2553 03f0 60000000 		.4byte	.LCFI15-.Ltext0
 2554 03f4 62000000 		.4byte	.LCFI16-.Ltext0
 2555 03f8 0200     		.2byte	0x2
 2556 03fa 77       		.byte	0x77
 2557 03fb 04       		.sleb128 4
 2558 03fc 62000000 		.4byte	.LCFI16-.Ltext0
 2559 0400 64000000 		.4byte	.LCFI17-.Ltext0
 2560 0404 0200     		.2byte	0x2
 2561 0406 7D       		.byte	0x7d
 2562 0407 04       		.sleb128 4
 2563 0408 64000000 		.4byte	.LCFI17-.Ltext0
 2564 040c 6C000000 		.4byte	.LFE4-.Ltext0
 2565 0410 0200     		.2byte	0x2
 2566 0412 7D       		.byte	0x7d
 2567 0413 00       		.sleb128 0
 2568 0414 00000000 		.4byte	0
 2569 0418 00000000 		.4byte	0
 2570              	.LLST1:
 2571 041c 18000000 		.4byte	.LFB1-.Ltext0
 2572 0420 1A000000 		.4byte	.LCFI6-.Ltext0
 2573 0424 0200     		.2byte	0x2
 2574 0426 7D       		.byte	0x7d
 2575 0427 00       		.sleb128 0
 2576 0428 1A000000 		.4byte	.LCFI6-.Ltext0
 2577 042c 1C000000 		.4byte	.LCFI7-.Ltext0
 2578 0430 0200     		.2byte	0x2
 2579 0432 7D       		.byte	0x7d
 2580 0433 04       		.sleb128 4
 2581 0434 1C000000 		.4byte	.LCFI7-.Ltext0
 2582 0438 1E000000 		.4byte	.LCFI8-.Ltext0
ARM GAS  G:\Users\Jaxb\AppData\Local\Temp\ccQSOq78.s 			page 50


 2583 043c 0200     		.2byte	0x2
 2584 043e 7D       		.byte	0x7d
 2585 043f 10       		.sleb128 16
 2586 0440 1E000000 		.4byte	.LCFI8-.Ltext0
 2587 0444 34000000 		.4byte	.LCFI9-.Ltext0
 2588 0448 0200     		.2byte	0x2
 2589 044a 77       		.byte	0x77
 2590 044b 10       		.sleb128 16
 2591 044c 34000000 		.4byte	.LCFI9-.Ltext0
 2592 0450 36000000 		.4byte	.LCFI10-.Ltext0
 2593 0454 0200     		.2byte	0x2
 2594 0456 77       		.byte	0x77
 2595 0457 04       		.sleb128 4
 2596 0458 36000000 		.4byte	.LCFI10-.Ltext0
 2597 045c 38000000 		.4byte	.LCFI11-.Ltext0
 2598 0460 0200     		.2byte	0x2
 2599 0462 7D       		.byte	0x7d
 2600 0463 04       		.sleb128 4
 2601 0464 38000000 		.4byte	.LCFI11-.Ltext0
 2602 0468 3A000000 		.4byte	.LFE1-.Ltext0
 2603 046c 0200     		.2byte	0x2
 2604 046e 7D       		.byte	0x7d
 2605 046f 00       		.sleb128 0
 2606 0470 00000000 		.4byte	0
 2607 0474 00000000 		.4byte	0
 2608              	.LLST0:
 2609 0478 00000000 		.4byte	.LFB0-.Ltext0
 2610 047c 02000000 		.4byte	.LCFI0-.Ltext0
 2611 0480 0200     		.2byte	0x2
 2612 0482 7D       		.byte	0x7d
 2613 0483 00       		.sleb128 0
 2614 0484 02000000 		.4byte	.LCFI0-.Ltext0
 2615 0488 04000000 		.4byte	.LCFI1-.Ltext0
 2616 048c 0200     		.2byte	0x2
 2617 048e 7D       		.byte	0x7d
 2618 048f 04       		.sleb128 4
 2619 0490 04000000 		.4byte	.LCFI1-.Ltext0
 2620 0494 06000000 		.4byte	.LCFI2-.Ltext0
 2621 0498 0200     		.2byte	0x2
 2622 049a 7D       		.byte	0x7d
 2623 049b 10       		.sleb128 16
 2624 049c 06000000 		.4byte	.LCFI2-.Ltext0
 2625 04a0 12000000 		.4byte	.LCFI3-.Ltext0
 2626 04a4 0200     		.2byte	0x2
 2627 04a6 77       		.byte	0x77
 2628 04a7 10       		.sleb128 16
 2629 04a8 12000000 		.4byte	.LCFI3-.Ltext0
 2630 04ac 14000000 		.4byte	.LCFI4-.Ltext0
 2631 04b0 0200     		.2byte	0x2
 2632 04b2 77       		.byte	0x77
 2633 04b3 04       		.sleb128 4
 2634 04b4 14000000 		.4byte	.LCFI4-.Ltext0
 2635 04b8 16000000 		.4byte	.LCFI5-.Ltext0
 2636 04bc 0200     		.2byte	0x2
 2637 04be 7D       		.byte	0x7d
 2638 04bf 04       		.sleb128 4
 2639 04c0 16000000 		.4byte	.LCFI5-.Ltext0
ARM GAS  G:\Users\Jaxb\AppData\Local\Temp\ccQSOq78.s 			page 51


 2640 04c4 18000000 		.4byte	.LFE0-.Ltext0
 2641 04c8 0200     		.2byte	0x2
 2642 04ca 7D       		.byte	0x7d
 2643 04cb 00       		.sleb128 0
 2644 04cc 00000000 		.4byte	0
 2645 04d0 00000000 		.4byte	0
 2646              		.section	.debug_aranges,"",%progbits
 2647 0000 1C000000 		.4byte	0x1c
 2648 0004 0200     		.2byte	0x2
 2649 0006 00000000 		.4byte	.Ldebug_info0
 2650 000a 04       		.byte	0x4
 2651 000b 00       		.byte	0
 2652 000c 0000     		.2byte	0
 2653 000e 0000     		.2byte	0
 2654 0010 00000000 		.4byte	.Ltext0
 2655 0014 10030000 		.4byte	.Letext0-.Ltext0
 2656 0018 00000000 		.4byte	0
 2657 001c 00000000 		.4byte	0
 2658              		.section	.debug_line,"",%progbits
 2659              	.Ldebug_line0:
 2660 0000 8E010000 		.section	.debug_str,"MS",%progbits,1
 2660      0200DC00 
 2660      00000201 
 2660      FB0E0D00 
 2660      01010101 
 2661              	.LASF35:
 2662 0000 5F696E73 		.ascii	"_insert_struct_command_6\000"
 2662      6572745F 
 2662      73747275 
 2662      63745F63 
 2662      6F6D6D61 
 2663              	.LASF34:
 2664 0019 5F696E73 		.ascii	"_insert_struct_command_7\000"
 2664      6572745F 
 2664      73747275 
 2664      63745F63 
 2664      6F6D6D61 
 2665              	.LASF33:
 2666 0032 5F696E73 		.ascii	"_insert_struct_command_8\000"
 2666      6572745F 
 2666      73747275 
 2666      63745F63 
 2666      6F6D6D61 
 2667              	.LASF2:
 2668 004b 6E657874 		.ascii	"next\000"
 2668      00
 2669              	.LASF26:
 2670 0050 636F6D6D 		.ascii	"command_3_processer\000"
 2670      616E645F 
 2670      335F7072 
 2670      6F636573 
 2670      73657200 
 2671              	.LASF20:
 2672 0064 636F6D6D 		.ascii	"command_5_ptr_hash_array\000"
 2672      616E645F 
 2672      355F7074 
 2672      725F6861 
ARM GAS  G:\Users\Jaxb\AppData\Local\Temp\ccQSOq78.s 			page 52


 2672      73685F61 
 2673              	.LASF52:
 2674 007d 73696E67 		.ascii	"singly_list_add\000"
 2674      6C795F6C 
 2674      6973745F 
 2674      61646400 
 2675              	.LASF50:
 2676 008d 5F676574 		.ascii	"_get_command_processer\000"
 2676      5F636F6D 
 2676      6D616E64 
 2676      5F70726F 
 2676      63657373 
 2677              	.LASF30:
 2678 00a4 636F6D6D 		.ascii	"command_7_processer\000"
 2678      616E645F 
 2678      375F7072 
 2678      6F636573 
 2678      73657200 
 2679              	.LASF14:
 2680 00b8 73686F72 		.ascii	"short unsigned int\000"
 2680      7420756E 
 2680      7369676E 
 2680      65642069 
 2680      6E7400
 2681              	.LASF16:
 2682 00cb 636F6D6D 		.ascii	"command_1_ptr_hash_array\000"
 2682      616E645F 
 2682      315F7074 
 2682      725F6861 
 2682      73685F61 
 2683              	.LASF1:
 2684 00e4 636F6D6D 		.ascii	"command\000"
 2684      616E6400 
 2685              	.LASF6:
 2686 00ec 636F6D6D 		.ascii	"command_processer\000"
 2686      616E645F 
 2686      70726F63 
 2686      65737365 
 2686      7200
 2687              	.LASF45:
 2688 00fe 636F6D6D 		.ascii	"command_processer_ptr\000"
 2688      616E645F 
 2688      70726F63 
 2688      65737365 
 2688      725F7074 
 2689              	.LASF39:
 2690 0114 5F696E73 		.ascii	"_insert_struct_command_2\000"
 2690      6572745F 
 2690      73747275 
 2690      63745F63 
 2690      6F6D6D61 
 2691              	.LASF38:
 2692 012d 5F696E73 		.ascii	"_insert_struct_command_3\000"
 2692      6572745F 
 2692      73747275 
 2692      63745F63 
 2692      6F6D6D61 
ARM GAS  G:\Users\Jaxb\AppData\Local\Temp\ccQSOq78.s 			page 53


 2693              	.LASF8:
 2694 0146 636F6D6D 		.ascii	"command_list_address\000"
 2694      616E645F 
 2694      6C697374 
 2694      5F616464 
 2694      72657373 
 2695              	.LASF51:
 2696 015b 696E7365 		.ascii	"insert_struct_command\000"
 2696      72745F73 
 2696      74727563 
 2696      745F636F 
 2696      6D6D616E 
 2697              	.LASF36:
 2698 0171 5F696E73 		.ascii	"_insert_struct_command_5\000"
 2698      6572745F 
 2698      73747275 
 2698      63745F63 
 2698      6F6D6D61 
 2699              	.LASF15:
 2700 018a 6C6F6E67 		.ascii	"long long unsigned int\000"
 2700      206C6F6E 
 2700      6720756E 
 2700      7369676E 
 2700      65642069 
 2701              	.LASF13:
 2702 01a1 756E7369 		.ascii	"unsigned char\000"
 2702      676E6564 
 2702      20636861 
 2702      7200
 2703              	.LASF46:
 2704 01af 73747275 		.ascii	"struct_command_ptr\000"
 2704      63745F63 
 2704      6F6D6D61 
 2704      6E645F70 
 2704      747200
 2705              	.LASF49:
 2706 01c2 5F6D6174 		.ascii	"_match_and_execute_command\000"
 2706      63685F61 
 2706      6E645F65 
 2706      78656375 
 2706      74655F63 
 2707              	.LASF3:
 2708 01dd 636F6D6D 		.ascii	"command_name\000"
 2708      616E645F 
 2708      6E616D65 
 2708      00
 2709              	.LASF21:
 2710 01ea 636F6D6D 		.ascii	"command_6_ptr_hash_array\000"
 2710      616E645F 
 2710      365F7074 
 2710      725F6861 
 2710      73685F61 
 2711              	.LASF4:
 2712 0203 6C697374 		.ascii	"list\000"
 2712      00
 2713              	.LASF57:
 2714 0208 73697A65 		.ascii	"size_t\000"
ARM GAS  G:\Users\Jaxb\AppData\Local\Temp\ccQSOq78.s 			page 54


 2714      5F7400
 2715              	.LASF58:
 2716 020f 636F6D6D 		.ascii	"command_list_hash\000"
 2716      616E645F 
 2716      6C697374 
 2716      5F686173 
 2716      6800
 2717              	.LASF17:
 2718 0221 636F6D6D 		.ascii	"command_2_ptr_hash_array\000"
 2718      616E645F 
 2718      325F7074 
 2718      725F6861 
 2718      73685F61 
 2719              	.LASF43:
 2720 023a 68617368 		.ascii	"hash\000"
 2720      00
 2721              	.LASF53:
 2722 023f 68656164 		.ascii	"head\000"
 2722      00
 2723              	.LASF22:
 2724 0244 636F6D6D 		.ascii	"command_7_ptr_hash_array\000"
 2724      616E645F 
 2724      375F7074 
 2724      725F6861 
 2724      73685F61 
 2725              	.LASF7:
 2726 025d 636F6D6D 		.ascii	"command_length\000"
 2726      616E645F 
 2726      6C656E67 
 2726      746800
 2727              	.LASF9:
 2728 026c 756E7369 		.ascii	"unsigned int\000"
 2728      676E6564 
 2728      20696E74 
 2728      00
 2729              	.LASF25:
 2730 0279 636F6D6D 		.ascii	"command_2_processer\000"
 2730      616E645F 
 2730      325F7072 
 2730      6F636573 
 2730      73657200 
 2731              	.LASF5:
 2732 028d 63686172 		.ascii	"char\000"
 2732      00
 2733              	.LASF18:
 2734 0292 636F6D6D 		.ascii	"command_3_ptr_hash_array\000"
 2734      616E645F 
 2734      335F7074 
 2734      725F6861 
 2734      73685F61 
 2735              	.LASF42:
 2736 02ab 68617368 		.ascii	"hash_array\000"
 2736      5F617272 
 2736      617900
 2737              	.LASF32:
 2738 02b6 636F6D6D 		.ascii	"command_processer_ptr_array\000"
 2738      616E645F 
ARM GAS  G:\Users\Jaxb\AppData\Local\Temp\ccQSOq78.s 			page 55


 2738      70726F63 
 2738      65737365 
 2738      725F7074 
 2739              	.LASF28:
 2740 02d2 636F6D6D 		.ascii	"command_5_processer\000"
 2740      616E645F 
 2740      355F7072 
 2740      6F636573 
 2740      73657200 
 2741              	.LASF0:
 2742 02e6 73696E67 		.ascii	"singly_list_head\000"
 2742      6C795F6C 
 2742      6973745F 
 2742      68656164 
 2742      00
 2743              	.LASF55:
 2744 02f7 2E2E2F2E 		.ascii	"../../source/src/kernel/SHELL/command_processor.c\000"
 2744      2E2F736F 
 2744      75726365 
 2744      2F737263 
 2744      2F6B6572 
 2745              	.LASF47:
 2746 0329 5F5F6D70 		.ascii	"__mptr\000"
 2746      747200
 2747              	.LASF12:
 2748 0330 6C6F6E67 		.ascii	"long long int\000"
 2748      206C6F6E 
 2748      6720696E 
 2748      7400
 2749              	.LASF41:
 2750 033e 636F6D6D 		.ascii	"command_ptr\000"
 2750      616E645F 
 2750      70747200 
 2751              	.LASF27:
 2752 034a 636F6D6D 		.ascii	"command_4_processer\000"
 2752      616E645F 
 2752      345F7072 
 2752      6F636573 
 2752      73657200 
 2753              	.LASF48:
 2754 035e 5F5F696E 		.ascii	"__init_command_n_ptr_hash_array\000"
 2754      69745F63 
 2754      6F6D6D61 
 2754      6E645F6E 
 2754      5F707472 
 2755              	.LASF11:
 2756 037e 73686F72 		.ascii	"short int\000"
 2756      7420696E 
 2756      7400
 2757              	.LASF23:
 2758 0388 636F6D6D 		.ascii	"command_8_ptr_hash_array\000"
 2758      616E645F 
 2758      385F7074 
 2758      725F6861 
 2758      73685F61 
 2759              	.LASF59:
 2760 03a1 494E4954 		.ascii	"INIT_SINGLY_LIST_HEAD\000"
ARM GAS  G:\Users\Jaxb\AppData\Local\Temp\ccQSOq78.s 			page 56


 2760      5F53494E 
 2760      474C595F 
 2760      4C495354 
 2760      5F484541 
 2761              	.LASF44:
 2762 03b7 61726776 		.ascii	"argv\000"
 2762      00
 2763              	.LASF54:
 2764 03bc 474E5520 		.ascii	"GNU C11 7.3.1 20180622 (release) [ARM/embedded-7-br"
 2764      43313120 
 2764      372E332E 
 2764      31203230 
 2764      31383036 
 2765 03ef 616E6368 		.ascii	"anch revision 261907] -mcpu=cortex-m3 -mthumb -mapc"
 2765      20726576 
 2765      6973696F 
 2765      6E203236 
 2765      31393037 
 2766 0422 732D6672 		.ascii	"s-frame -mthumb-interwork -mcpu=cortex-m3 -mthumb -"
 2766      616D6520 
 2766      2D6D7468 
 2766      756D622D 
 2766      696E7465 
 2767 0455 67647761 		.ascii	"gdwarf-2 -O0\000"
 2767      72662D32 
 2767      202D4F30 
 2767      00
 2768              	.LASF19:
 2769 0462 636F6D6D 		.ascii	"command_4_ptr_hash_array\000"
 2769      616E645F 
 2769      345F7074 
 2769      725F6861 
 2769      73685F61 
 2770              	.LASF10:
 2771 047b 7369676E 		.ascii	"signed char\000"
 2771      65642063 
 2771      68617200 
 2772              	.LASF29:
 2773 0487 636F6D6D 		.ascii	"command_6_processer\000"
 2773      616E645F 
 2773      365F7072 
 2773      6F636573 
 2773      73657200 
 2774              	.LASF40:
 2775 049b 5F696E73 		.ascii	"_insert_struct_command_1\000"
 2775      6572745F 
 2775      73747275 
 2775      63745F63 
 2775      6F6D6D61 
 2776              	.LASF24:
 2777 04b4 636F6D6D 		.ascii	"command_1_processer\000"
 2777      616E645F 
 2777      315F7072 
 2777      6F636573 
 2777      73657200 
 2778              	.LASF56:
 2779 04c8 463A5C6B 		.ascii	"F:\\kaka\\KAKAOS\\C\\windows\\Project\\RVMDK\243\250"
ARM GAS  G:\Users\Jaxb\AppData\Local\Temp\ccQSOq78.s 			page 57


 2779      616B615C 
 2779      4B414B41 
 2779      4F535C43 
 2779      5C77696E 
 2780 04f0 757635A3 		.ascii	"uv5\243\251\000"
 2780      A900
 2781              	.LASF37:
 2782 04f6 5F696E73 		.ascii	"_insert_struct_command_4\000"
 2782      6572745F 
 2782      73747275 
 2782      63745F63 
 2782      6F6D6D61 
 2783              	.LASF31:
 2784 050f 636F6D6D 		.ascii	"command_8_processer\000"
 2784      616E645F 
 2784      385F7072 
 2784      6F636573 
 2784      73657200 
 2785              		.ident	"GCC: (GNU Tools for Arm Embedded Processors 7-2018-q2-update) 7.3.1 20180622 (release) [AR
ARM GAS  G:\Users\Jaxb\AppData\Local\Temp\ccQSOq78.s 			page 58


DEFINED SYMBOLS
                            *ABS*:00000000 command_processor.c
G:\Users\Jaxb\AppData\Local\Temp\ccQSOq78.s:15     .text:00000000 $t
G:\Users\Jaxb\AppData\Local\Temp\ccQSOq78.s:21     .text:00000000 INIT_SINGLY_LIST_HEAD
G:\Users\Jaxb\AppData\Local\Temp\ccQSOq78.s:67     .text:00000018 singly_list_add
G:\Users\Jaxb\AppData\Local\Temp\ccQSOq78.s:113    .bss:00000000 $d
G:\Users\Jaxb\AppData\Local\Temp\ccQSOq78.s:114    .bss:00000000 command_1_ptr_hash_array
G:\Users\Jaxb\AppData\Local\Temp\ccQSOq78.s:118    .bss:00000028 command_2_ptr_hash_array
G:\Users\Jaxb\AppData\Local\Temp\ccQSOq78.s:122    .bss:00000050 command_3_ptr_hash_array
G:\Users\Jaxb\AppData\Local\Temp\ccQSOq78.s:126    .bss:00000078 command_4_ptr_hash_array
G:\Users\Jaxb\AppData\Local\Temp\ccQSOq78.s:130    .bss:000000a0 command_5_ptr_hash_array
G:\Users\Jaxb\AppData\Local\Temp\ccQSOq78.s:134    .bss:000000c8 command_6_ptr_hash_array
G:\Users\Jaxb\AppData\Local\Temp\ccQSOq78.s:138    .bss:000000f0 command_7_ptr_hash_array
G:\Users\Jaxb\AppData\Local\Temp\ccQSOq78.s:142    .bss:00000118 command_8_ptr_hash_array
G:\Users\Jaxb\AppData\Local\Temp\ccQSOq78.s:146    .data:00000000 $d
G:\Users\Jaxb\AppData\Local\Temp\ccQSOq78.s:149    .data:00000000 command_1_processer
G:\Users\Jaxb\AppData\Local\Temp\ccQSOq78.s:155    .data:00000008 command_2_processer
G:\Users\Jaxb\AppData\Local\Temp\ccQSOq78.s:161    .data:00000010 command_3_processer
G:\Users\Jaxb\AppData\Local\Temp\ccQSOq78.s:167    .data:00000018 command_4_processer
G:\Users\Jaxb\AppData\Local\Temp\ccQSOq78.s:173    .data:00000020 command_5_processer
G:\Users\Jaxb\AppData\Local\Temp\ccQSOq78.s:179    .data:00000028 command_6_processer
G:\Users\Jaxb\AppData\Local\Temp\ccQSOq78.s:185    .data:00000030 command_7_processer
G:\Users\Jaxb\AppData\Local\Temp\ccQSOq78.s:191    .data:00000038 command_8_processer
G:\Users\Jaxb\AppData\Local\Temp\ccQSOq78.s:197    .data:00000040 command_processer_ptr_array
G:\Users\Jaxb\AppData\Local\Temp\ccQSOq78.s:214    .text:0000003a _get_command_processer
G:\Users\Jaxb\AppData\Local\Temp\ccQSOq78.s:269    .text:00000068 $d
G:\Users\Jaxb\AppData\Local\Temp\ccQSOq78.s:274    .rodata:00000000 $d
G:\Users\Jaxb\AppData\Local\Temp\ccQSOq78.s:278    .text:0000006c $t
G:\Users\Jaxb\AppData\Local\Temp\ccQSOq78.s:284    .text:0000006c command_list_hash
G:\Users\Jaxb\AppData\Local\Temp\ccQSOq78.s:372    .text:000000d8 $d
G:\Users\Jaxb\AppData\Local\Temp\ccQSOq78.s:377    .text:000000e0 $t
G:\Users\Jaxb\AppData\Local\Temp\ccQSOq78.s:384    .text:000000e0 __init_command_n_ptr_hash_array
G:\Users\Jaxb\AppData\Local\Temp\ccQSOq78.s:452    .text:00000128 $d
G:\Users\Jaxb\AppData\Local\Temp\ccQSOq78.s:467    .text:0000012c $t
G:\Users\Jaxb\AppData\Local\Temp\ccQSOq78.s:474    .text:0000012c _match_and_execute_command
G:\Users\Jaxb\AppData\Local\Temp\ccQSOq78.s:603    .text:000001e0 $d
G:\Users\Jaxb\AppData\Local\Temp\ccQSOq78.s:609    .text:000001ec $t
G:\Users\Jaxb\AppData\Local\Temp\ccQSOq78.s:615    .text:000001ec insert_struct_command
G:\Users\Jaxb\AppData\Local\Temp\ccQSOq78.s:671    .text:0000022c $d
G:\Users\Jaxb\AppData\Local\Temp\ccQSOq78.s:675    .text:00000230 $t
G:\Users\Jaxb\AppData\Local\Temp\ccQSOq78.s:682    .text:00000230 _insert_struct_command_1
G:\Users\Jaxb\AppData\Local\Temp\ccQSOq78.s:717    .text:00000248 $d
G:\Users\Jaxb\AppData\Local\Temp\ccQSOq78.s:721    .text:0000024c $t
G:\Users\Jaxb\AppData\Local\Temp\ccQSOq78.s:728    .text:0000024c _insert_struct_command_2
G:\Users\Jaxb\AppData\Local\Temp\ccQSOq78.s:763    .text:00000264 $d
G:\Users\Jaxb\AppData\Local\Temp\ccQSOq78.s:767    .text:00000268 $t
G:\Users\Jaxb\AppData\Local\Temp\ccQSOq78.s:774    .text:00000268 _insert_struct_command_3
G:\Users\Jaxb\AppData\Local\Temp\ccQSOq78.s:809    .text:00000280 $d
G:\Users\Jaxb\AppData\Local\Temp\ccQSOq78.s:813    .text:00000284 $t
G:\Users\Jaxb\AppData\Local\Temp\ccQSOq78.s:820    .text:00000284 _insert_struct_command_4
G:\Users\Jaxb\AppData\Local\Temp\ccQSOq78.s:855    .text:0000029c $d
G:\Users\Jaxb\AppData\Local\Temp\ccQSOq78.s:859    .text:000002a0 $t
G:\Users\Jaxb\AppData\Local\Temp\ccQSOq78.s:866    .text:000002a0 _insert_struct_command_5
G:\Users\Jaxb\AppData\Local\Temp\ccQSOq78.s:901    .text:000002b8 $d
G:\Users\Jaxb\AppData\Local\Temp\ccQSOq78.s:905    .text:000002bc $t
G:\Users\Jaxb\AppData\Local\Temp\ccQSOq78.s:912    .text:000002bc _insert_struct_command_6
G:\Users\Jaxb\AppData\Local\Temp\ccQSOq78.s:947    .text:000002d4 $d
ARM GAS  G:\Users\Jaxb\AppData\Local\Temp\ccQSOq78.s 			page 59


G:\Users\Jaxb\AppData\Local\Temp\ccQSOq78.s:951    .text:000002d8 $t
G:\Users\Jaxb\AppData\Local\Temp\ccQSOq78.s:958    .text:000002d8 _insert_struct_command_7
G:\Users\Jaxb\AppData\Local\Temp\ccQSOq78.s:993    .text:000002f0 $d
G:\Users\Jaxb\AppData\Local\Temp\ccQSOq78.s:997    .text:000002f4 $t
G:\Users\Jaxb\AppData\Local\Temp\ccQSOq78.s:1004   .text:000002f4 _insert_struct_command_8
G:\Users\Jaxb\AppData\Local\Temp\ccQSOq78.s:1039   .text:0000030c $d

UNDEFINED SYMBOLS
_ASSERT
ka_printf
ka_strncmp
ka_strcmp
