ARM GAS  G:\Users\Jaxb\AppData\Local\Temp\ccdrZdTQ.s 			page 1


   1              		.cpu cortex-m3
   2              		.eabi_attribute 20, 1
   3              		.eabi_attribute 21, 1
   4              		.eabi_attribute 23, 3
   5              		.eabi_attribute 24, 1
   6              		.eabi_attribute 25, 1
   7              		.eabi_attribute 26, 1
   8              		.eabi_attribute 30, 2
   9              		.eabi_attribute 34, 1
  10              		.eabi_attribute 18, 4
  11              		.file	"command_processor.c"
  12              		.text
  13              	.Ltext0:
  14              		.cfi_sections	.debug_frame
  15              		.align	1
  16              		.p2align 2,,3
  17              		.syntax unified
  18              		.thumb
  19              		.thumb_func
  20              		.fpu softvfp
  21              		.type	command_list_hash, %function
  22              	command_list_hash:
  23              	.LFB5:
  24              		.file 1 "../../source/src/kernel/SHELL/command_processor.c"
   1:../../source/src/kernel/SHELL/command_processor.c **** #include <command_processor.h>
   2:../../source/src/kernel/SHELL/command_processor.c **** #include <myassert.h>
   3:../../source/src/kernel/SHELL/command_processor.c **** #include <myMicroLIB.h>
   4:../../source/src/kernel/SHELL/command_processor.c **** #include <kakaosstdint.h>
   5:../../source/src/kernel/SHELL/command_processor.c **** 
   6:../../source/src/kernel/SHELL/command_processor.c **** #if CONFIG_SHELL_EN
   7:../../source/src/kernel/SHELL/command_processor.c **** 
   8:../../source/src/kernel/SHELL/command_processor.c **** /******
   9:../../source/src/kernel/SHELL/command_processor.c **** *if you need to add command:  step 1: add the following three place if necessary
  10:../../source/src/kernel/SHELL/command_processor.c **** *                             step 2: add struct command in shell.c
  11:../../source/src/kernel/SHELL/command_processor.c **** */
  12:../../source/src/kernel/SHELL/command_processor.c **** //1.hash array to store command
  13:../../source/src/kernel/SHELL/command_processor.c **** static struct singly_list_head command_1_ptr_hash_array[ARRAY_SIZE];
  14:../../source/src/kernel/SHELL/command_processor.c **** static struct singly_list_head command_2_ptr_hash_array[ARRAY_SIZE];
  15:../../source/src/kernel/SHELL/command_processor.c **** static struct singly_list_head command_3_ptr_hash_array[ARRAY_SIZE];
  16:../../source/src/kernel/SHELL/command_processor.c **** static struct singly_list_head command_4_ptr_hash_array[ARRAY_SIZE];
  17:../../source/src/kernel/SHELL/command_processor.c **** static struct singly_list_head command_5_ptr_hash_array[ARRAY_SIZE];
  18:../../source/src/kernel/SHELL/command_processor.c **** static struct singly_list_head command_6_ptr_hash_array[ARRAY_SIZE];
  19:../../source/src/kernel/SHELL/command_processor.c **** static struct singly_list_head command_7_ptr_hash_array[ARRAY_SIZE];
  20:../../source/src/kernel/SHELL/command_processor.c **** static struct singly_list_head command_8_ptr_hash_array[ARRAY_SIZE];
  21:../../source/src/kernel/SHELL/command_processor.c **** //2.struct command_processer entity
  22:../../source/src/kernel/SHELL/command_processor.c **** static struct command_processer command_1_processer = {1,command_1_ptr_hash_array};
  23:../../source/src/kernel/SHELL/command_processor.c **** static struct command_processer command_2_processer = {2,command_2_ptr_hash_array};
  24:../../source/src/kernel/SHELL/command_processor.c **** static struct command_processer command_3_processer = {3,command_3_ptr_hash_array};
  25:../../source/src/kernel/SHELL/command_processor.c **** static struct command_processer command_4_processer = {4,command_4_ptr_hash_array};
  26:../../source/src/kernel/SHELL/command_processor.c **** static struct command_processer command_5_processer = {5,command_5_ptr_hash_array};
  27:../../source/src/kernel/SHELL/command_processor.c **** static struct command_processer command_6_processer = {6,command_6_ptr_hash_array};
  28:../../source/src/kernel/SHELL/command_processor.c **** static struct command_processer command_7_processer = {7,command_7_ptr_hash_array};
  29:../../source/src/kernel/SHELL/command_processor.c **** static struct command_processer command_8_processer = {8,command_8_ptr_hash_array};
  30:../../source/src/kernel/SHELL/command_processor.c **** //3.array to store command_processor_ptr
  31:../../source/src/kernel/SHELL/command_processor.c **** static struct command_processer* command_processer_ptr_array[] = {&command_1_processer,&command_2_p
  32:../../source/src/kernel/SHELL/command_processor.c **** 	&command_3_processer,&command_4_processer,&command_5_processer,&command_6_processer,&command_7_pro
  33:../../source/src/kernel/SHELL/command_processor.c **** 	&command_8_processer};
ARM GAS  G:\Users\Jaxb\AppData\Local\Temp\ccdrZdTQ.s 			page 2


  34:../../source/src/kernel/SHELL/command_processor.c **** 
  35:../../source/src/kernel/SHELL/command_processor.c **** struct command_processer *get_command_processer(unsigned int num)
  36:../../source/src/kernel/SHELL/command_processor.c **** {
  37:../../source/src/kernel/SHELL/command_processor.c **** 	if(!(num <= sizeof(command_processer_ptr_array)/sizeof(struct command_processer *)) || (num<1))
  38:../../source/src/kernel/SHELL/command_processor.c **** 	{
  39:../../source/src/kernel/SHELL/command_processor.c **** 		return NULL;
  40:../../source/src/kernel/SHELL/command_processor.c **** 	}
  41:../../source/src/kernel/SHELL/command_processor.c **** 	return command_processer_ptr_array[num-1];
  42:../../source/src/kernel/SHELL/command_processor.c **** }
  43:../../source/src/kernel/SHELL/command_processor.c **** 
  44:../../source/src/kernel/SHELL/command_processor.c **** static unsigned int command_list_hash(const char *command_ptr)
  45:../../source/src/kernel/SHELL/command_processor.c **** {
  25              		.loc 1 45 0
  26              		.cfi_startproc
  27              		@ args = 0, pretend = 0, frame = 0
  28              		@ frame_needed = 0, uses_anonymous_args = 0
  29              	.LVL0:
  30 0000 10B5     		push	{r4, lr}
  31              	.LCFI0:
  32              		.cfi_def_cfa_offset 8
  33              		.cfi_offset 4, -8
  34              		.cfi_offset 14, -4
  46:../../source/src/kernel/SHELL/command_processor.c **** 	unsigned int sum = 0;
  47:../../source/src/kernel/SHELL/command_processor.c **** 	ASSERT(NULL != command_ptr);
  35              		.loc 1 47 0
  36 0002 0446     		mov	r4, r0
  37 0004 F0B1     		cbz	r0, .L14
  48:../../source/src/kernel/SHELL/command_processor.c **** 	while((*command_ptr != ' ') && (*command_ptr != 0x0d) && (*command_ptr != 0x0a) && ('\0' != *comma
  38              		.loc 1 48 0
  39 0006 0378     		ldrb	r3, [r0]	@ zero_extendqisi2
  40 0008 0D2B     		cmp	r3, #13
  41 000a 21D0     		beq	.L8
  42 000c 0A2B     		cmp	r3, #10
  43 000e 1FD0     		beq	.L8
  44 0010 13F0DF00 		ands	r0, r3, #223
  45              	.LVL1:
  46 0014 15D0     		beq	.L1
  47 0016 0022     		movs	r2, #0
  48 0018 04E0     		b	.L6
  49              	.LVL2:
  50              	.L4:
  51              		.loc 1 48 0 is_stmt 0 discriminator 2
  52 001a 0A2B     		cmp	r3, #10
  53 001c 09D0     		beq	.L12
  54              		.loc 1 48 0 discriminator 3
  55 001e 13F0DF0F 		tst	r3, #223
  56 0022 06D0     		beq	.L12
  57              	.LVL3:
  58              	.L6:
  49:../../source/src/kernel/SHELL/command_processor.c **** 	{
  50:../../source/src/kernel/SHELL/command_processor.c **** 		sum += *command_ptr++ - 'a';
  59              		.loc 1 50 0 is_stmt 1
  60 0024 A3F16101 		sub	r1, r3, #97
  48:../../source/src/kernel/SHELL/command_processor.c **** 	while((*command_ptr != ' ') && (*command_ptr != 0x0d) && (*command_ptr != 0x0a) && ('\0' != *comma
  61              		.loc 1 48 0
  62 0028 14F8013F 		ldrb	r3, [r4, #1]!	@ zero_extendqisi2
  63              	.LVL4:
ARM GAS  G:\Users\Jaxb\AppData\Local\Temp\ccdrZdTQ.s 			page 3


  64              		.loc 1 50 0
  65 002c 0A44     		add	r2, r2, r1
  66              	.LVL5:
  48:../../source/src/kernel/SHELL/command_processor.c **** 	while((*command_ptr != ' ') && (*command_ptr != 0x0d) && (*command_ptr != 0x0a) && ('\0' != *comma
  67              		.loc 1 48 0
  68 002e 0D2B     		cmp	r3, #13
  69 0030 F3D1     		bne	.L4
  70              	.L12:
  71 0032 0848     		ldr	r0, .L15
  72 0034 A0FB0230 		umull	r3, r0, r0, r2
  73 0038 C008     		lsrs	r0, r0, #3
  74 003a 00EB8000 		add	r0, r0, r0, lsl #2
  75 003e A2EB4000 		sub	r0, r2, r0, lsl #1
  76              	.LVL6:
  77              	.L1:
  51:../../source/src/kernel/SHELL/command_processor.c **** 	}
  52:../../source/src/kernel/SHELL/command_processor.c **** #if DEBUG_SHELL
  53:../../source/src/kernel/SHELL/command_processor.c **** 	ka_printf("hash is %u\n",sum % ARRAY_SIZE);
  54:../../source/src/kernel/SHELL/command_processor.c **** #endif
  55:../../source/src/kernel/SHELL/command_processor.c **** 	return sum % ARRAY_SIZE;
  56:../../source/src/kernel/SHELL/command_processor.c **** }
  78              		.loc 1 56 0
  79 0042 10BD     		pop	{r4, pc}
  80              	.LVL7:
  81              	.L14:
  47:../../source/src/kernel/SHELL/command_processor.c **** 	while((*command_ptr != ' ') && (*command_ptr != 0x0d) && (*command_ptr != 0x0a) && ('\0' != *comma
  82              		.loc 1 47 0 discriminator 1
  83 0044 2F21     		movs	r1, #47
  84 0046 0448     		ldr	r0, .L15+4
  85              	.LVL8:
  86 0048 FFF7FEFF 		bl	_ASSERT
  87              	.LVL9:
  48:../../source/src/kernel/SHELL/command_processor.c **** 	{
  88              		.loc 1 48 0 discriminator 1
  89 004c 2378     		ldrb	r3, [r4]	@ zero_extendqisi2
  90 004e FFDE     		.inst	0xdeff
  91              	.LVL10:
  92              	.L8:
  48:../../source/src/kernel/SHELL/command_processor.c **** 	{
  93              		.loc 1 48 0 is_stmt 0
  94 0050 0020     		movs	r0, #0
  95              	.LVL11:
  96              		.loc 1 56 0 is_stmt 1
  97 0052 10BD     		pop	{r4, pc}
  98              	.LVL12:
  99              	.L16:
 100              		.align	2
 101              	.L15:
 102 0054 CDCCCCCC 		.word	-858993459
 103 0058 00000000 		.word	.LC0
 104              		.cfi_endproc
 105              	.LFE5:
 106              		.size	command_list_hash, .-command_list_hash
 107              		.align	1
 108              		.p2align 2,,3
 109              		.global	get_command_processer
 110              		.syntax unified
ARM GAS  G:\Users\Jaxb\AppData\Local\Temp\ccdrZdTQ.s 			page 4


 111              		.thumb
 112              		.thumb_func
 113              		.fpu softvfp
 114              		.type	get_command_processer, %function
 115              	get_command_processer:
 116              	.LFB4:
  36:../../source/src/kernel/SHELL/command_processor.c **** 	if(!(num <= sizeof(command_processer_ptr_array)/sizeof(struct command_processer *)) || (num<1))
 117              		.loc 1 36 0
 118              		.cfi_startproc
 119              		@ args = 0, pretend = 0, frame = 0
 120              		@ frame_needed = 0, uses_anonymous_args = 0
 121              		@ link register save eliminated.
 122              	.LVL13:
  37:../../source/src/kernel/SHELL/command_processor.c **** 	{
 123              		.loc 1 37 0
 124 005c 0138     		subs	r0, r0, #1
 125              	.LVL14:
 126 005e 0728     		cmp	r0, #7
  41:../../source/src/kernel/SHELL/command_processor.c **** }
 127              		.loc 1 41 0
 128 0060 9ABF     		itte	ls
 129 0062 024B     		ldrls	r3, .L20
 130 0064 53F82000 		ldrls	r0, [r3, r0, lsl #2]
 131              	.LVL15:
  39:../../source/src/kernel/SHELL/command_processor.c **** 	}
 132              		.loc 1 39 0
 133 0068 0020     		movhi	r0, #0
  42:../../source/src/kernel/SHELL/command_processor.c **** 
 134              		.loc 1 42 0
 135 006a 7047     		bx	lr
 136              	.L21:
 137              		.align	2
 138              	.L20:
 139 006c 00000000 		.word	.LANCHOR0
 140              		.cfi_endproc
 141              	.LFE4:
 142              		.size	get_command_processer, .-get_command_processer
 143              		.align	1
 144              		.p2align 2,,3
 145              		.global	__init_command_n_ptr_hash_array
 146              		.syntax unified
 147              		.thumb
 148              		.thumb_func
 149              		.fpu softvfp
 150              		.type	__init_command_n_ptr_hash_array, %function
 151              	__init_command_n_ptr_hash_array:
 152              	.LFB6:
  57:../../source/src/kernel/SHELL/command_processor.c **** 
  58:../../source/src/kernel/SHELL/command_processor.c **** void __init_command_n_ptr_hash_array(void)
  59:../../source/src/kernel/SHELL/command_processor.c **** {
 153              		.loc 1 59 0
 154              		.cfi_startproc
 155              		@ args = 0, pretend = 0, frame = 0
 156              		@ frame_needed = 0, uses_anonymous_args = 0
 157              		@ link register save eliminated.
 158              	.LVL16:
 159 0070 0849     		ldr	r1, .L27
ARM GAS  G:\Users\Jaxb\AppData\Local\Temp\ccdrZdTQ.s 			page 5


 160              		.loc 1 59 0
 161 0072 094B     		ldr	r3, .L27+4
 162 0074 01F11C00 		add	r0, r1, #28
 163              	.LVL17:
 164              	.L23:
 165 0078 5B68     		ldr	r3, [r3, #4]
 166 007a 03F12802 		add	r2, r3, #40
 167              	.LVL18:
 168              	.L24:
 169              	.LBB6:
 170              	.LBB7:
 171              		.file 2 "../../source/include/os_lib/singly_linked_list.h"
   1:../../source/include/os_lib/singly_linked_list.h **** #ifndef _SINGLY_LINKED_LIST_H
   2:../../source/include/os_lib/singly_linked_list.h **** #define _SINGLY_LINKED_LIST_H
   3:../../source/include/os_lib/singly_linked_list.h **** 
   4:../../source/include/os_lib/singly_linked_list.h **** struct singly_list_head{
   5:../../source/include/os_lib/singly_linked_list.h **** 	struct singly_list_head *next;
   6:../../source/include/os_lib/singly_linked_list.h **** };
   7:../../source/include/os_lib/singly_linked_list.h **** 
   8:../../source/include/os_lib/singly_linked_list.h **** #define SINGLY_LIST_HEAD_INIT(name) { &(name) }
   9:../../source/include/os_lib/singly_linked_list.h **** 
  10:../../source/include/os_lib/singly_linked_list.h **** #define SINGLY_LIST_HEAD(name) \
  11:../../source/include/os_lib/singly_linked_list.h ****     struct singly_list_head name = SINGLY_LIST_HEAD_INIT(name)
  12:../../source/include/os_lib/singly_linked_list.h **** 
  13:../../source/include/os_lib/singly_linked_list.h **** static inline void INIT_SINGLY_LIST_HEAD(struct singly_list_head *list)
  14:../../source/include/os_lib/singly_linked_list.h **** {
  15:../../source/include/os_lib/singly_linked_list.h **** 	list->next = list;
 172              		.loc 2 15 0 discriminator 3
 173 007e 1B60     		str	r3, [r3]
 174 0080 0433     		adds	r3, r3, #4
 175              	.LVL19:
 176              	.LBE7:
 177              	.LBE6:
  60:../../source/src/kernel/SHELL/command_processor.c **** 	unsigned int i,j;
  61:../../source/src/kernel/SHELL/command_processor.c **** 	for(i=0;i<sizeof(command_processer_ptr_array)/sizeof(struct command_processer *);++i)
  62:../../source/src/kernel/SHELL/command_processor.c **** 	{
  63:../../source/src/kernel/SHELL/command_processor.c **** 		for(j=0;j<ARRAY_SIZE;++j)
 178              		.loc 1 63 0 discriminator 3
 179 0082 9342     		cmp	r3, r2
 180 0084 FBD1     		bne	.L24
  61:../../source/src/kernel/SHELL/command_processor.c **** 	{
 181              		.loc 1 61 0 discriminator 2
 182 0086 8142     		cmp	r1, r0
 183 0088 02D0     		beq	.L22
 184 008a 51F8043B 		ldr	r3, [r1], #4
 185 008e F3E7     		b	.L23
 186              	.L22:
  64:../../source/src/kernel/SHELL/command_processor.c **** 		{
  65:../../source/src/kernel/SHELL/command_processor.c **** 			INIT_SINGLY_LIST_HEAD(&(command_processer_ptr_array[i]->command_list_address[j]));
  66:../../source/src/kernel/SHELL/command_processor.c **** 		}
  67:../../source/src/kernel/SHELL/command_processor.c **** 	}
  68:../../source/src/kernel/SHELL/command_processor.c **** }
 187              		.loc 1 68 0
 188 0090 7047     		bx	lr
 189              	.L28:
 190 0092 00BF     		.align	2
 191              	.L27:
ARM GAS  G:\Users\Jaxb\AppData\Local\Temp\ccdrZdTQ.s 			page 6


 192 0094 04000000 		.word	.LANCHOR0+4
 193 0098 00000000 		.word	.LANCHOR1
 194              		.cfi_endproc
 195              	.LFE6:
 196              		.size	__init_command_n_ptr_hash_array, .-__init_command_n_ptr_hash_array
 197              		.align	1
 198              		.p2align 2,,3
 199              		.global	match_and_execute_command
 200              		.syntax unified
 201              		.thumb
 202              		.thumb_func
 203              		.fpu softvfp
 204              		.type	match_and_execute_command, %function
 205              	match_and_execute_command:
 206              	.LFB7:
  69:../../source/src/kernel/SHELL/command_processor.c **** 
  70:../../source/src/kernel/SHELL/command_processor.c **** int match_and_execute_command(
  71:../../source/src/kernel/SHELL/command_processor.c **** 	int num,
  72:../../source/src/kernel/SHELL/command_processor.c **** 	char const *argv[],
  73:../../source/src/kernel/SHELL/command_processor.c **** 	struct command_processer * const command_processer_ptr)
  74:../../source/src/kernel/SHELL/command_processor.c **** {
 207              		.loc 1 74 0
 208              		.cfi_startproc
 209              		@ args = 0, pretend = 0, frame = 0
 210              		@ frame_needed = 0, uses_anonymous_args = 0
 211              	.LVL20:
 212 009c 2DE9F041 		push	{r4, r5, r6, r7, r8, lr}
 213              	.LCFI1:
 214              		.cfi_def_cfa_offset 24
 215              		.cfi_offset 4, -24
 216              		.cfi_offset 5, -20
 217              		.cfi_offset 6, -16
 218              		.cfi_offset 7, -12
 219              		.cfi_offset 8, -8
 220              		.cfi_offset 14, -4
 221              		.loc 1 74 0
 222 00a0 8046     		mov	r8, r0
 223 00a2 0F46     		mov	r7, r1
  75:../../source/src/kernel/SHELL/command_processor.c **** 	if(NULL == command_processer_ptr)
 224              		.loc 1 75 0
 225 00a4 1646     		mov	r6, r2
 226 00a6 B2B1     		cbz	r2, .L35
  76:../../source/src/kernel/SHELL/command_processor.c **** 	{
  77:../../source/src/kernel/SHELL/command_processor.c **** 		ka_printf("%s\n","command not found");
  78:../../source/src/kernel/SHELL/command_processor.c **** 		return -1;
  79:../../source/src/kernel/SHELL/command_processor.c **** 	}
  80:../../source/src/kernel/SHELL/command_processor.c **** 	struct command *struct_command_ptr;
  81:../../source/src/kernel/SHELL/command_processor.c **** 	struct singly_list_head *pos;
  82:../../source/src/kernel/SHELL/command_processor.c **** 	singly_list_for_each(pos,&command_processer_ptr->command_list_address[command_list_hash(argv[0])])
 227              		.loc 1 82 0
 228 00a8 0868     		ldr	r0, [r1]
 229              	.LVL21:
 230 00aa 5468     		ldr	r4, [r2, #4]
 231 00ac FFF7A8FF 		bl	command_list_hash
 232              	.LVL22:
 233 00b0 54F82050 		ldr	r5, [r4, r0, lsl #2]
 234              	.LVL23:
ARM GAS  G:\Users\Jaxb\AppData\Local\Temp\ccdrZdTQ.s 			page 7


 235 00b4 07E0     		b	.L32
 236              	.LVL24:
 237              	.L34:
  83:../../source/src/kernel/SHELL/command_processor.c **** 	{
  84:../../source/src/kernel/SHELL/command_processor.c **** 		struct_command_ptr = singly_list_entry(pos,struct command,list);
  85:../../source/src/kernel/SHELL/command_processor.c **** 		if(0 == ka_strncmp(argv[0],struct_command_ptr->command_name,command_processer_ptr->command_length
 238              		.loc 1 85 0
 239 00b6 3268     		ldr	r2, [r6]
 240 00b8 55F8081C 		ldr	r1, [r5, #-8]
 241 00bc 3868     		ldr	r0, [r7]
 242 00be FFF7FEFF 		bl	ka_strncmp
 243              	.LVL25:
 244 00c2 80B1     		cbz	r0, .L36
  82:../../source/src/kernel/SHELL/command_processor.c **** 	{
 245              		.loc 1 82 0 discriminator 2
 246 00c4 2D68     		ldr	r5, [r5]
 247              	.LVL26:
 248              	.L32:
  82:../../source/src/kernel/SHELL/command_processor.c **** 	{
 249              		.loc 1 82 0 is_stmt 0 discriminator 1
 250 00c6 3868     		ldr	r0, [r7]
 251 00c8 7468     		ldr	r4, [r6, #4]
 252 00ca FFF799FF 		bl	command_list_hash
 253              	.LVL27:
 254 00ce 04EB8000 		add	r0, r4, r0, lsl #2
 255 00d2 8542     		cmp	r5, r0
 256 00d4 EFD1     		bne	.L34
 257              	.LVL28:
 258              	.L35:
  77:../../source/src/kernel/SHELL/command_processor.c **** 		return -1;
 259              		.loc 1 77 0 is_stmt 1
 260 00d6 0B49     		ldr	r1, .L37
 261 00d8 0B48     		ldr	r0, .L37+4
 262 00da FFF7FEFF 		bl	ka_printf
 263              	.LVL29:
  78:../../source/src/kernel/SHELL/command_processor.c **** 	}
 264              		.loc 1 78 0
 265 00de 4FF0FF30 		mov	r0, #-1
  86:../../source/src/kernel/SHELL/command_processor.c **** 		{
  87:../../source/src/kernel/SHELL/command_processor.c **** 			struct_command_ptr->f(num,argv);
  88:../../source/src/kernel/SHELL/command_processor.c **** 			if(0 == ka_strcmp(argv[0],"r"))
  89:../../source/src/kernel/SHELL/command_processor.c **** 			{
  90:../../source/src/kernel/SHELL/command_processor.c **** 				return 1;
  91:../../source/src/kernel/SHELL/command_processor.c **** 			}
  92:../../source/src/kernel/SHELL/command_processor.c **** 			return 0;
  93:../../source/src/kernel/SHELL/command_processor.c **** 		}
  94:../../source/src/kernel/SHELL/command_processor.c **** 	}
  95:../../source/src/kernel/SHELL/command_processor.c **** 	ka_printf("%s\n","command not found");
  96:../../source/src/kernel/SHELL/command_processor.c **** 	return -1;
  97:../../source/src/kernel/SHELL/command_processor.c **** }
 266              		.loc 1 97 0
 267 00e2 BDE8F081 		pop	{r4, r5, r6, r7, r8, pc}
 268              	.LVL30:
 269              	.L36:
  87:../../source/src/kernel/SHELL/command_processor.c **** 			if(0 == ka_strcmp(argv[0],"r"))
 270              		.loc 1 87 0
 271 00e6 55F8043C 		ldr	r3, [r5, #-4]
ARM GAS  G:\Users\Jaxb\AppData\Local\Temp\ccdrZdTQ.s 			page 8


 272 00ea 4046     		mov	r0, r8
 273 00ec 3946     		mov	r1, r7
 274 00ee 9847     		blx	r3
 275              	.LVL31:
  88:../../source/src/kernel/SHELL/command_processor.c **** 			{
 276              		.loc 1 88 0
 277 00f0 3868     		ldr	r0, [r7]
 278 00f2 0649     		ldr	r1, .L37+8
 279 00f4 FFF7FEFF 		bl	ka_strcmp
 280              	.LVL32:
 281 00f8 B0FA80F0 		clz	r0, r0
 282 00fc 4009     		lsrs	r0, r0, #5
 283              		.loc 1 97 0
 284 00fe BDE8F081 		pop	{r4, r5, r6, r7, r8, pc}
 285              	.LVL33:
 286              	.L38:
 287 0102 00BF     		.align	2
 288              	.L37:
 289 0104 34000000 		.word	.LC1
 290 0108 48000000 		.word	.LC2
 291 010c 4C000000 		.word	.LC3
 292              		.cfi_endproc
 293              	.LFE7:
 294              		.size	match_and_execute_command, .-match_and_execute_command
 295              		.align	1
 296              		.p2align 2,,3
 297              		.global	insert_struct_command_1
 298              		.syntax unified
 299              		.thumb
 300              		.thumb_func
 301              		.fpu softvfp
 302              		.type	insert_struct_command_1, %function
 303              	insert_struct_command_1:
 304              	.LFB9:
  98:../../source/src/kernel/SHELL/command_processor.c **** 
  99:../../source/src/kernel/SHELL/command_processor.c **** inline static void insert_struct_command(struct command *command_ptr,struct singly_list_head *hash_
 100:../../source/src/kernel/SHELL/command_processor.c **** {
 101:../../source/src/kernel/SHELL/command_processor.c **** 	ASSERT(NULL != command_ptr);
 102:../../source/src/kernel/SHELL/command_processor.c **** 	unsigned int hash = command_list_hash(command_ptr->command_name);
 103:../../source/src/kernel/SHELL/command_processor.c **** 	singly_list_add(&command_ptr->list,&hash_array[hash]);
 104:../../source/src/kernel/SHELL/command_processor.c **** }
 105:../../source/src/kernel/SHELL/command_processor.c **** 
 106:../../source/src/kernel/SHELL/command_processor.c **** void insert_struct_command_1(struct command *ptr)
 107:../../source/src/kernel/SHELL/command_processor.c **** {
 305              		.loc 1 107 0
 306              		.cfi_startproc
 307              		@ args = 0, pretend = 0, frame = 0
 308              		@ frame_needed = 0, uses_anonymous_args = 0
 309              	.LVL34:
 310 0110 10B5     		push	{r4, lr}
 311              	.LCFI2:
 312              		.cfi_def_cfa_offset 8
 313              		.cfi_offset 4, -8
 314              		.cfi_offset 14, -4
 315              	.LBB12:
 316              	.LBB13:
 101:../../source/src/kernel/SHELL/command_processor.c **** 	unsigned int hash = command_list_hash(command_ptr->command_name);
ARM GAS  G:\Users\Jaxb\AppData\Local\Temp\ccdrZdTQ.s 			page 9


 317              		.loc 1 101 0
 318 0112 0446     		mov	r4, r0
 319 0114 50B1     		cbz	r0, .L41
 320              	.LVL35:
 321              	.L40:
 102:../../source/src/kernel/SHELL/command_processor.c **** 	singly_list_add(&command_ptr->list,&hash_array[hash]);
 322              		.loc 1 102 0
 323 0116 2068     		ldr	r0, [r4]
 324 0118 FFF772FF 		bl	command_list_hash
 325              	.LVL36:
 103:../../source/src/kernel/SHELL/command_processor.c **** }
 326              		.loc 1 103 0
 327 011c 064B     		ldr	r3, .L42
 328              	.LVL37:
 329              	.LBB14:
 330              	.LBB15:
  16:../../source/include/os_lib/singly_linked_list.h **** }
  17:../../source/include/os_lib/singly_linked_list.h **** 
  18:../../source/include/os_lib/singly_linked_list.h **** static inline void singly_list_add(struct singly_list_head *new,struct singly_list_head *head)
  19:../../source/include/os_lib/singly_linked_list.h **** {
  20:../../source/include/os_lib/singly_linked_list.h **** 	new->next = head->next;
 331              		.loc 2 20 0
 332 011e 53F82020 		ldr	r2, [r3, r0, lsl #2]
 333 0122 44F8082F 		str	r2, [r4, #8]!
 334              	.LVL38:
  21:../../source/include/os_lib/singly_linked_list.h **** 	head->next = new;
 335              		.loc 2 21 0
 336 0126 43F82040 		str	r4, [r3, r0, lsl #2]
 337              	.LVL39:
 338              	.LBE15:
 339              	.LBE14:
 340              	.LBE13:
 341              	.LBE12:
 108:../../source/src/kernel/SHELL/command_processor.c **** 	insert_struct_command(ptr,command_1_ptr_hash_array);
 109:../../source/src/kernel/SHELL/command_processor.c **** }
 342              		.loc 1 109 0
 343 012a 10BD     		pop	{r4, pc}
 344              	.LVL40:
 345              	.L41:
 346              	.LBB17:
 347              	.LBB16:
 101:../../source/src/kernel/SHELL/command_processor.c **** 	unsigned int hash = command_list_hash(command_ptr->command_name);
 348              		.loc 1 101 0
 349 012c 6521     		movs	r1, #101
 350 012e 0348     		ldr	r0, .L42+4
 351              	.LVL41:
 352 0130 FFF7FEFF 		bl	_ASSERT
 353              	.LVL42:
 354 0134 EFE7     		b	.L40
 355              	.L43:
 356 0136 00BF     		.align	2
 357              	.L42:
 358 0138 00000000 		.word	.LANCHOR2
 359 013c 00000000 		.word	.LC0
 360              	.LBE16:
 361              	.LBE17:
 362              		.cfi_endproc
ARM GAS  G:\Users\Jaxb\AppData\Local\Temp\ccdrZdTQ.s 			page 10


 363              	.LFE9:
 364              		.size	insert_struct_command_1, .-insert_struct_command_1
 365              		.align	1
 366              		.p2align 2,,3
 367              		.global	insert_struct_command_2
 368              		.syntax unified
 369              		.thumb
 370              		.thumb_func
 371              		.fpu softvfp
 372              		.type	insert_struct_command_2, %function
 373              	insert_struct_command_2:
 374              	.LFB10:
 110:../../source/src/kernel/SHELL/command_processor.c **** void insert_struct_command_2(struct command *ptr)
 111:../../source/src/kernel/SHELL/command_processor.c **** {
 375              		.loc 1 111 0
 376              		.cfi_startproc
 377              		@ args = 0, pretend = 0, frame = 0
 378              		@ frame_needed = 0, uses_anonymous_args = 0
 379              	.LVL43:
 380 0140 10B5     		push	{r4, lr}
 381              	.LCFI3:
 382              		.cfi_def_cfa_offset 8
 383              		.cfi_offset 4, -8
 384              		.cfi_offset 14, -4
 385              	.LBB22:
 386              	.LBB23:
 101:../../source/src/kernel/SHELL/command_processor.c **** 	unsigned int hash = command_list_hash(command_ptr->command_name);
 387              		.loc 1 101 0
 388 0142 0446     		mov	r4, r0
 389 0144 50B1     		cbz	r0, .L46
 390              	.LVL44:
 391              	.L45:
 102:../../source/src/kernel/SHELL/command_processor.c **** 	singly_list_add(&command_ptr->list,&hash_array[hash]);
 392              		.loc 1 102 0
 393 0146 2068     		ldr	r0, [r4]
 394 0148 FFF75AFF 		bl	command_list_hash
 395              	.LVL45:
 103:../../source/src/kernel/SHELL/command_processor.c **** }
 396              		.loc 1 103 0
 397 014c 064B     		ldr	r3, .L47
 398              	.LVL46:
 399              	.LBB24:
 400              	.LBB25:
  20:../../source/include/os_lib/singly_linked_list.h **** 	head->next = new;
 401              		.loc 2 20 0
 402 014e 53F82020 		ldr	r2, [r3, r0, lsl #2]
 403 0152 44F8082F 		str	r2, [r4, #8]!
 404              	.LVL47:
 405              		.loc 2 21 0
 406 0156 43F82040 		str	r4, [r3, r0, lsl #2]
 407              	.LVL48:
 408              	.LBE25:
 409              	.LBE24:
 410              	.LBE23:
 411              	.LBE22:
 112:../../source/src/kernel/SHELL/command_processor.c **** 	insert_struct_command(ptr,command_2_ptr_hash_array);
 113:../../source/src/kernel/SHELL/command_processor.c **** }
ARM GAS  G:\Users\Jaxb\AppData\Local\Temp\ccdrZdTQ.s 			page 11


 412              		.loc 1 113 0
 413 015a 10BD     		pop	{r4, pc}
 414              	.LVL49:
 415              	.L46:
 416              	.LBB27:
 417              	.LBB26:
 101:../../source/src/kernel/SHELL/command_processor.c **** 	unsigned int hash = command_list_hash(command_ptr->command_name);
 418              		.loc 1 101 0
 419 015c 6521     		movs	r1, #101
 420 015e 0348     		ldr	r0, .L47+4
 421              	.LVL50:
 422 0160 FFF7FEFF 		bl	_ASSERT
 423              	.LVL51:
 424 0164 EFE7     		b	.L45
 425              	.L48:
 426 0166 00BF     		.align	2
 427              	.L47:
 428 0168 28000000 		.word	.LANCHOR2+40
 429 016c 00000000 		.word	.LC0
 430              	.LBE26:
 431              	.LBE27:
 432              		.cfi_endproc
 433              	.LFE10:
 434              		.size	insert_struct_command_2, .-insert_struct_command_2
 435              		.align	1
 436              		.p2align 2,,3
 437              		.global	insert_struct_command_3
 438              		.syntax unified
 439              		.thumb
 440              		.thumb_func
 441              		.fpu softvfp
 442              		.type	insert_struct_command_3, %function
 443              	insert_struct_command_3:
 444              	.LFB11:
 114:../../source/src/kernel/SHELL/command_processor.c **** void insert_struct_command_3(struct command *ptr)
 115:../../source/src/kernel/SHELL/command_processor.c **** {
 445              		.loc 1 115 0
 446              		.cfi_startproc
 447              		@ args = 0, pretend = 0, frame = 0
 448              		@ frame_needed = 0, uses_anonymous_args = 0
 449              	.LVL52:
 450 0170 10B5     		push	{r4, lr}
 451              	.LCFI4:
 452              		.cfi_def_cfa_offset 8
 453              		.cfi_offset 4, -8
 454              		.cfi_offset 14, -4
 455              	.LBB32:
 456              	.LBB33:
 101:../../source/src/kernel/SHELL/command_processor.c **** 	unsigned int hash = command_list_hash(command_ptr->command_name);
 457              		.loc 1 101 0
 458 0172 0446     		mov	r4, r0
 459 0174 50B1     		cbz	r0, .L51
 460              	.LVL53:
 461              	.L50:
 102:../../source/src/kernel/SHELL/command_processor.c **** 	singly_list_add(&command_ptr->list,&hash_array[hash]);
 462              		.loc 1 102 0
 463 0176 2068     		ldr	r0, [r4]
ARM GAS  G:\Users\Jaxb\AppData\Local\Temp\ccdrZdTQ.s 			page 12


 464 0178 FFF742FF 		bl	command_list_hash
 465              	.LVL54:
 103:../../source/src/kernel/SHELL/command_processor.c **** }
 466              		.loc 1 103 0
 467 017c 064B     		ldr	r3, .L52
 468              	.LVL55:
 469              	.LBB34:
 470              	.LBB35:
  20:../../source/include/os_lib/singly_linked_list.h **** 	head->next = new;
 471              		.loc 2 20 0
 472 017e 53F82020 		ldr	r2, [r3, r0, lsl #2]
 473 0182 44F8082F 		str	r2, [r4, #8]!
 474              	.LVL56:
 475              		.loc 2 21 0
 476 0186 43F82040 		str	r4, [r3, r0, lsl #2]
 477              	.LVL57:
 478              	.LBE35:
 479              	.LBE34:
 480              	.LBE33:
 481              	.LBE32:
 116:../../source/src/kernel/SHELL/command_processor.c **** 	insert_struct_command(ptr,command_3_ptr_hash_array);
 117:../../source/src/kernel/SHELL/command_processor.c **** }
 482              		.loc 1 117 0
 483 018a 10BD     		pop	{r4, pc}
 484              	.LVL58:
 485              	.L51:
 486              	.LBB37:
 487              	.LBB36:
 101:../../source/src/kernel/SHELL/command_processor.c **** 	unsigned int hash = command_list_hash(command_ptr->command_name);
 488              		.loc 1 101 0
 489 018c 6521     		movs	r1, #101
 490 018e 0348     		ldr	r0, .L52+4
 491              	.LVL59:
 492 0190 FFF7FEFF 		bl	_ASSERT
 493              	.LVL60:
 494 0194 EFE7     		b	.L50
 495              	.L53:
 496 0196 00BF     		.align	2
 497              	.L52:
 498 0198 50000000 		.word	.LANCHOR2+80
 499 019c 00000000 		.word	.LC0
 500              	.LBE36:
 501              	.LBE37:
 502              		.cfi_endproc
 503              	.LFE11:
 504              		.size	insert_struct_command_3, .-insert_struct_command_3
 505              		.align	1
 506              		.p2align 2,,3
 507              		.global	insert_struct_command_4
 508              		.syntax unified
 509              		.thumb
 510              		.thumb_func
 511              		.fpu softvfp
 512              		.type	insert_struct_command_4, %function
 513              	insert_struct_command_4:
 514              	.LFB12:
 118:../../source/src/kernel/SHELL/command_processor.c **** void insert_struct_command_4(struct command *ptr)
ARM GAS  G:\Users\Jaxb\AppData\Local\Temp\ccdrZdTQ.s 			page 13


 119:../../source/src/kernel/SHELL/command_processor.c **** {
 515              		.loc 1 119 0
 516              		.cfi_startproc
 517              		@ args = 0, pretend = 0, frame = 0
 518              		@ frame_needed = 0, uses_anonymous_args = 0
 519              	.LVL61:
 520 01a0 10B5     		push	{r4, lr}
 521              	.LCFI5:
 522              		.cfi_def_cfa_offset 8
 523              		.cfi_offset 4, -8
 524              		.cfi_offset 14, -4
 525              	.LBB42:
 526              	.LBB43:
 101:../../source/src/kernel/SHELL/command_processor.c **** 	unsigned int hash = command_list_hash(command_ptr->command_name);
 527              		.loc 1 101 0
 528 01a2 0446     		mov	r4, r0
 529 01a4 50B1     		cbz	r0, .L56
 530              	.LVL62:
 531              	.L55:
 102:../../source/src/kernel/SHELL/command_processor.c **** 	singly_list_add(&command_ptr->list,&hash_array[hash]);
 532              		.loc 1 102 0
 533 01a6 2068     		ldr	r0, [r4]
 534 01a8 FFF72AFF 		bl	command_list_hash
 535              	.LVL63:
 103:../../source/src/kernel/SHELL/command_processor.c **** }
 536              		.loc 1 103 0
 537 01ac 064B     		ldr	r3, .L57
 538              	.LVL64:
 539              	.LBB44:
 540              	.LBB45:
  20:../../source/include/os_lib/singly_linked_list.h **** 	head->next = new;
 541              		.loc 2 20 0
 542 01ae 53F82020 		ldr	r2, [r3, r0, lsl #2]
 543 01b2 44F8082F 		str	r2, [r4, #8]!
 544              	.LVL65:
 545              		.loc 2 21 0
 546 01b6 43F82040 		str	r4, [r3, r0, lsl #2]
 547              	.LVL66:
 548              	.LBE45:
 549              	.LBE44:
 550              	.LBE43:
 551              	.LBE42:
 120:../../source/src/kernel/SHELL/command_processor.c **** 	insert_struct_command(ptr,command_4_ptr_hash_array);
 121:../../source/src/kernel/SHELL/command_processor.c **** }
 552              		.loc 1 121 0
 553 01ba 10BD     		pop	{r4, pc}
 554              	.LVL67:
 555              	.L56:
 556              	.LBB47:
 557              	.LBB46:
 101:../../source/src/kernel/SHELL/command_processor.c **** 	unsigned int hash = command_list_hash(command_ptr->command_name);
 558              		.loc 1 101 0
 559 01bc 6521     		movs	r1, #101
 560 01be 0348     		ldr	r0, .L57+4
 561              	.LVL68:
 562 01c0 FFF7FEFF 		bl	_ASSERT
 563              	.LVL69:
ARM GAS  G:\Users\Jaxb\AppData\Local\Temp\ccdrZdTQ.s 			page 14


 564 01c4 EFE7     		b	.L55
 565              	.L58:
 566 01c6 00BF     		.align	2
 567              	.L57:
 568 01c8 78000000 		.word	.LANCHOR2+120
 569 01cc 00000000 		.word	.LC0
 570              	.LBE46:
 571              	.LBE47:
 572              		.cfi_endproc
 573              	.LFE12:
 574              		.size	insert_struct_command_4, .-insert_struct_command_4
 575              		.align	1
 576              		.p2align 2,,3
 577              		.global	insert_struct_command_5
 578              		.syntax unified
 579              		.thumb
 580              		.thumb_func
 581              		.fpu softvfp
 582              		.type	insert_struct_command_5, %function
 583              	insert_struct_command_5:
 584              	.LFB13:
 122:../../source/src/kernel/SHELL/command_processor.c **** 
 123:../../source/src/kernel/SHELL/command_processor.c **** void insert_struct_command_5(struct command *ptr)
 124:../../source/src/kernel/SHELL/command_processor.c **** {
 585              		.loc 1 124 0
 586              		.cfi_startproc
 587              		@ args = 0, pretend = 0, frame = 0
 588              		@ frame_needed = 0, uses_anonymous_args = 0
 589              	.LVL70:
 590 01d0 10B5     		push	{r4, lr}
 591              	.LCFI6:
 592              		.cfi_def_cfa_offset 8
 593              		.cfi_offset 4, -8
 594              		.cfi_offset 14, -4
 595              	.LBB52:
 596              	.LBB53:
 101:../../source/src/kernel/SHELL/command_processor.c **** 	unsigned int hash = command_list_hash(command_ptr->command_name);
 597              		.loc 1 101 0
 598 01d2 0446     		mov	r4, r0
 599 01d4 50B1     		cbz	r0, .L61
 600              	.LVL71:
 601              	.L60:
 102:../../source/src/kernel/SHELL/command_processor.c **** 	singly_list_add(&command_ptr->list,&hash_array[hash]);
 602              		.loc 1 102 0
 603 01d6 2068     		ldr	r0, [r4]
 604 01d8 FFF712FF 		bl	command_list_hash
 605              	.LVL72:
 103:../../source/src/kernel/SHELL/command_processor.c **** }
 606              		.loc 1 103 0
 607 01dc 064B     		ldr	r3, .L62
 608              	.LVL73:
 609              	.LBB54:
 610              	.LBB55:
  20:../../source/include/os_lib/singly_linked_list.h **** 	head->next = new;
 611              		.loc 2 20 0
 612 01de 53F82020 		ldr	r2, [r3, r0, lsl #2]
 613 01e2 44F8082F 		str	r2, [r4, #8]!
ARM GAS  G:\Users\Jaxb\AppData\Local\Temp\ccdrZdTQ.s 			page 15


 614              	.LVL74:
 615              		.loc 2 21 0
 616 01e6 43F82040 		str	r4, [r3, r0, lsl #2]
 617              	.LVL75:
 618              	.LBE55:
 619              	.LBE54:
 620              	.LBE53:
 621              	.LBE52:
 125:../../source/src/kernel/SHELL/command_processor.c **** 	insert_struct_command(ptr,command_5_ptr_hash_array);
 126:../../source/src/kernel/SHELL/command_processor.c **** }
 622              		.loc 1 126 0
 623 01ea 10BD     		pop	{r4, pc}
 624              	.LVL76:
 625              	.L61:
 626              	.LBB57:
 627              	.LBB56:
 101:../../source/src/kernel/SHELL/command_processor.c **** 	unsigned int hash = command_list_hash(command_ptr->command_name);
 628              		.loc 1 101 0
 629 01ec 6521     		movs	r1, #101
 630 01ee 0348     		ldr	r0, .L62+4
 631              	.LVL77:
 632 01f0 FFF7FEFF 		bl	_ASSERT
 633              	.LVL78:
 634 01f4 EFE7     		b	.L60
 635              	.L63:
 636 01f6 00BF     		.align	2
 637              	.L62:
 638 01f8 A0000000 		.word	.LANCHOR2+160
 639 01fc 00000000 		.word	.LC0
 640              	.LBE56:
 641              	.LBE57:
 642              		.cfi_endproc
 643              	.LFE13:
 644              		.size	insert_struct_command_5, .-insert_struct_command_5
 645              		.align	1
 646              		.p2align 2,,3
 647              		.global	insert_struct_command_6
 648              		.syntax unified
 649              		.thumb
 650              		.thumb_func
 651              		.fpu softvfp
 652              		.type	insert_struct_command_6, %function
 653              	insert_struct_command_6:
 654              	.LFB14:
 127:../../source/src/kernel/SHELL/command_processor.c **** 
 128:../../source/src/kernel/SHELL/command_processor.c **** void insert_struct_command_6(struct command *ptr)
 129:../../source/src/kernel/SHELL/command_processor.c **** {
 655              		.loc 1 129 0
 656              		.cfi_startproc
 657              		@ args = 0, pretend = 0, frame = 0
 658              		@ frame_needed = 0, uses_anonymous_args = 0
 659              	.LVL79:
 660 0200 10B5     		push	{r4, lr}
 661              	.LCFI7:
 662              		.cfi_def_cfa_offset 8
 663              		.cfi_offset 4, -8
 664              		.cfi_offset 14, -4
ARM GAS  G:\Users\Jaxb\AppData\Local\Temp\ccdrZdTQ.s 			page 16


 665              	.LBB62:
 666              	.LBB63:
 101:../../source/src/kernel/SHELL/command_processor.c **** 	unsigned int hash = command_list_hash(command_ptr->command_name);
 667              		.loc 1 101 0
 668 0202 0446     		mov	r4, r0
 669 0204 50B1     		cbz	r0, .L66
 670              	.LVL80:
 671              	.L65:
 102:../../source/src/kernel/SHELL/command_processor.c **** 	singly_list_add(&command_ptr->list,&hash_array[hash]);
 672              		.loc 1 102 0
 673 0206 2068     		ldr	r0, [r4]
 674 0208 FFF7FAFE 		bl	command_list_hash
 675              	.LVL81:
 103:../../source/src/kernel/SHELL/command_processor.c **** }
 676              		.loc 1 103 0
 677 020c 064B     		ldr	r3, .L67
 678              	.LVL82:
 679              	.LBB64:
 680              	.LBB65:
  20:../../source/include/os_lib/singly_linked_list.h **** 	head->next = new;
 681              		.loc 2 20 0
 682 020e 53F82020 		ldr	r2, [r3, r0, lsl #2]
 683 0212 44F8082F 		str	r2, [r4, #8]!
 684              	.LVL83:
 685              		.loc 2 21 0
 686 0216 43F82040 		str	r4, [r3, r0, lsl #2]
 687              	.LVL84:
 688              	.LBE65:
 689              	.LBE64:
 690              	.LBE63:
 691              	.LBE62:
 130:../../source/src/kernel/SHELL/command_processor.c **** 	insert_struct_command(ptr,command_6_ptr_hash_array);
 131:../../source/src/kernel/SHELL/command_processor.c **** }
 692              		.loc 1 131 0
 693 021a 10BD     		pop	{r4, pc}
 694              	.LVL85:
 695              	.L66:
 696              	.LBB67:
 697              	.LBB66:
 101:../../source/src/kernel/SHELL/command_processor.c **** 	unsigned int hash = command_list_hash(command_ptr->command_name);
 698              		.loc 1 101 0
 699 021c 6521     		movs	r1, #101
 700 021e 0348     		ldr	r0, .L67+4
 701              	.LVL86:
 702 0220 FFF7FEFF 		bl	_ASSERT
 703              	.LVL87:
 704 0224 EFE7     		b	.L65
 705              	.L68:
 706 0226 00BF     		.align	2
 707              	.L67:
 708 0228 C8000000 		.word	.LANCHOR2+200
 709 022c 00000000 		.word	.LC0
 710              	.LBE66:
 711              	.LBE67:
 712              		.cfi_endproc
 713              	.LFE14:
 714              		.size	insert_struct_command_6, .-insert_struct_command_6
ARM GAS  G:\Users\Jaxb\AppData\Local\Temp\ccdrZdTQ.s 			page 17


 715              		.align	1
 716              		.p2align 2,,3
 717              		.global	insert_struct_command_7
 718              		.syntax unified
 719              		.thumb
 720              		.thumb_func
 721              		.fpu softvfp
 722              		.type	insert_struct_command_7, %function
 723              	insert_struct_command_7:
 724              	.LFB15:
 132:../../source/src/kernel/SHELL/command_processor.c **** void insert_struct_command_7(struct command *ptr)
 133:../../source/src/kernel/SHELL/command_processor.c **** {
 725              		.loc 1 133 0
 726              		.cfi_startproc
 727              		@ args = 0, pretend = 0, frame = 0
 728              		@ frame_needed = 0, uses_anonymous_args = 0
 729              	.LVL88:
 730 0230 10B5     		push	{r4, lr}
 731              	.LCFI8:
 732              		.cfi_def_cfa_offset 8
 733              		.cfi_offset 4, -8
 734              		.cfi_offset 14, -4
 735              	.LBB72:
 736              	.LBB73:
 101:../../source/src/kernel/SHELL/command_processor.c **** 	unsigned int hash = command_list_hash(command_ptr->command_name);
 737              		.loc 1 101 0
 738 0232 0446     		mov	r4, r0
 739 0234 50B1     		cbz	r0, .L71
 740              	.LVL89:
 741              	.L70:
 102:../../source/src/kernel/SHELL/command_processor.c **** 	singly_list_add(&command_ptr->list,&hash_array[hash]);
 742              		.loc 1 102 0
 743 0236 2068     		ldr	r0, [r4]
 744 0238 FFF7E2FE 		bl	command_list_hash
 745              	.LVL90:
 103:../../source/src/kernel/SHELL/command_processor.c **** }
 746              		.loc 1 103 0
 747 023c 064B     		ldr	r3, .L72
 748              	.LVL91:
 749              	.LBB74:
 750              	.LBB75:
  20:../../source/include/os_lib/singly_linked_list.h **** 	head->next = new;
 751              		.loc 2 20 0
 752 023e 53F82020 		ldr	r2, [r3, r0, lsl #2]
 753 0242 44F8082F 		str	r2, [r4, #8]!
 754              	.LVL92:
 755              		.loc 2 21 0
 756 0246 43F82040 		str	r4, [r3, r0, lsl #2]
 757              	.LVL93:
 758              	.LBE75:
 759              	.LBE74:
 760              	.LBE73:
 761              	.LBE72:
 134:../../source/src/kernel/SHELL/command_processor.c **** 	insert_struct_command(ptr,command_7_ptr_hash_array);
 135:../../source/src/kernel/SHELL/command_processor.c **** }
 762              		.loc 1 135 0
 763 024a 10BD     		pop	{r4, pc}
ARM GAS  G:\Users\Jaxb\AppData\Local\Temp\ccdrZdTQ.s 			page 18


 764              	.LVL94:
 765              	.L71:
 766              	.LBB77:
 767              	.LBB76:
 101:../../source/src/kernel/SHELL/command_processor.c **** 	unsigned int hash = command_list_hash(command_ptr->command_name);
 768              		.loc 1 101 0
 769 024c 6521     		movs	r1, #101
 770 024e 0348     		ldr	r0, .L72+4
 771              	.LVL95:
 772 0250 FFF7FEFF 		bl	_ASSERT
 773              	.LVL96:
 774 0254 EFE7     		b	.L70
 775              	.L73:
 776 0256 00BF     		.align	2
 777              	.L72:
 778 0258 F0000000 		.word	.LANCHOR2+240
 779 025c 00000000 		.word	.LC0
 780              	.LBE76:
 781              	.LBE77:
 782              		.cfi_endproc
 783              	.LFE15:
 784              		.size	insert_struct_command_7, .-insert_struct_command_7
 785              		.align	1
 786              		.p2align 2,,3
 787              		.global	insert_struct_command_8
 788              		.syntax unified
 789              		.thumb
 790              		.thumb_func
 791              		.fpu softvfp
 792              		.type	insert_struct_command_8, %function
 793              	insert_struct_command_8:
 794              	.LFB16:
 136:../../source/src/kernel/SHELL/command_processor.c **** void insert_struct_command_8(struct command *ptr)
 137:../../source/src/kernel/SHELL/command_processor.c **** {
 795              		.loc 1 137 0
 796              		.cfi_startproc
 797              		@ args = 0, pretend = 0, frame = 0
 798              		@ frame_needed = 0, uses_anonymous_args = 0
 799              	.LVL97:
 800 0260 10B5     		push	{r4, lr}
 801              	.LCFI9:
 802              		.cfi_def_cfa_offset 8
 803              		.cfi_offset 4, -8
 804              		.cfi_offset 14, -4
 805              	.LBB82:
 806              	.LBB83:
 101:../../source/src/kernel/SHELL/command_processor.c **** 	unsigned int hash = command_list_hash(command_ptr->command_name);
 807              		.loc 1 101 0
 808 0262 0446     		mov	r4, r0
 809 0264 50B1     		cbz	r0, .L76
 810              	.LVL98:
 811              	.L75:
 102:../../source/src/kernel/SHELL/command_processor.c **** 	singly_list_add(&command_ptr->list,&hash_array[hash]);
 812              		.loc 1 102 0
 813 0266 2068     		ldr	r0, [r4]
 814 0268 FFF7CAFE 		bl	command_list_hash
 815              	.LVL99:
ARM GAS  G:\Users\Jaxb\AppData\Local\Temp\ccdrZdTQ.s 			page 19


 103:../../source/src/kernel/SHELL/command_processor.c **** }
 816              		.loc 1 103 0
 817 026c 064B     		ldr	r3, .L77
 818              	.LVL100:
 819              	.LBB84:
 820              	.LBB85:
  20:../../source/include/os_lib/singly_linked_list.h **** 	head->next = new;
 821              		.loc 2 20 0
 822 026e 53F82020 		ldr	r2, [r3, r0, lsl #2]
 823 0272 44F8082F 		str	r2, [r4, #8]!
 824              	.LVL101:
 825              		.loc 2 21 0
 826 0276 43F82040 		str	r4, [r3, r0, lsl #2]
 827              	.LVL102:
 828              	.LBE85:
 829              	.LBE84:
 830              	.LBE83:
 831              	.LBE82:
 138:../../source/src/kernel/SHELL/command_processor.c **** 	insert_struct_command(ptr,command_8_ptr_hash_array);
 139:../../source/src/kernel/SHELL/command_processor.c **** }
 832              		.loc 1 139 0
 833 027a 10BD     		pop	{r4, pc}
 834              	.LVL103:
 835              	.L76:
 836              	.LBB87:
 837              	.LBB86:
 101:../../source/src/kernel/SHELL/command_processor.c **** 	unsigned int hash = command_list_hash(command_ptr->command_name);
 838              		.loc 1 101 0
 839 027c 6521     		movs	r1, #101
 840 027e 0348     		ldr	r0, .L77+4
 841              	.LVL104:
 842 0280 FFF7FEFF 		bl	_ASSERT
 843              	.LVL105:
 844 0284 EFE7     		b	.L75
 845              	.L78:
 846 0286 00BF     		.align	2
 847              	.L77:
 848 0288 18010000 		.word	.LANCHOR2+280
 849 028c 00000000 		.word	.LC0
 850              	.LBE86:
 851              	.LBE87:
 852              		.cfi_endproc
 853              	.LFE16:
 854              		.size	insert_struct_command_8, .-insert_struct_command_8
 855              		.section	.rodata
 856              		.align	2
 857              		.set	.LANCHOR0,. + 0
 858              		.type	command_processer_ptr_array, %object
 859              		.size	command_processer_ptr_array, 32
 860              	command_processer_ptr_array:
 861 0000 00000000 		.word	command_1_processer
 862 0004 38000000 		.word	command_2_processer
 863 0008 30000000 		.word	command_3_processer
 864 000c 28000000 		.word	command_4_processer
 865 0010 20000000 		.word	command_5_processer
 866 0014 18000000 		.word	command_6_processer
 867 0018 10000000 		.word	command_7_processer
ARM GAS  G:\Users\Jaxb\AppData\Local\Temp\ccdrZdTQ.s 			page 20


 868 001c 08000000 		.word	command_8_processer
 869              		.data
 870              		.align	2
 871              		.set	.LANCHOR1,. + 0
 872              		.type	command_1_processer, %object
 873              		.size	command_1_processer, 8
 874              	command_1_processer:
 875 0000 01000000 		.word	1
 876 0004 00000000 		.word	command_1_ptr_hash_array
 877              		.type	command_8_processer, %object
 878              		.size	command_8_processer, 8
 879              	command_8_processer:
 880 0008 08000000 		.word	8
 881 000c 18010000 		.word	command_8_ptr_hash_array
 882              		.type	command_7_processer, %object
 883              		.size	command_7_processer, 8
 884              	command_7_processer:
 885 0010 07000000 		.word	7
 886 0014 F0000000 		.word	command_7_ptr_hash_array
 887              		.type	command_6_processer, %object
 888              		.size	command_6_processer, 8
 889              	command_6_processer:
 890 0018 06000000 		.word	6
 891 001c C8000000 		.word	command_6_ptr_hash_array
 892              		.type	command_5_processer, %object
 893              		.size	command_5_processer, 8
 894              	command_5_processer:
 895 0020 05000000 		.word	5
 896 0024 A0000000 		.word	command_5_ptr_hash_array
 897              		.type	command_4_processer, %object
 898              		.size	command_4_processer, 8
 899              	command_4_processer:
 900 0028 04000000 		.word	4
 901 002c 78000000 		.word	command_4_ptr_hash_array
 902              		.type	command_3_processer, %object
 903              		.size	command_3_processer, 8
 904              	command_3_processer:
 905 0030 03000000 		.word	3
 906 0034 50000000 		.word	command_3_ptr_hash_array
 907              		.type	command_2_processer, %object
 908              		.size	command_2_processer, 8
 909              	command_2_processer:
 910 0038 02000000 		.word	2
 911 003c 28000000 		.word	command_2_ptr_hash_array
 912              		.bss
 913              		.align	2
 914              		.set	.LANCHOR2,. + 0
 915              		.type	command_1_ptr_hash_array, %object
 916              		.size	command_1_ptr_hash_array, 40
 917              	command_1_ptr_hash_array:
 918 0000 00000000 		.space	40
 918      00000000 
 918      00000000 
 918      00000000 
 918      00000000 
 919              		.type	command_2_ptr_hash_array, %object
 920              		.size	command_2_ptr_hash_array, 40
ARM GAS  G:\Users\Jaxb\AppData\Local\Temp\ccdrZdTQ.s 			page 21


 921              	command_2_ptr_hash_array:
 922 0028 00000000 		.space	40
 922      00000000 
 922      00000000 
 922      00000000 
 922      00000000 
 923              		.type	command_3_ptr_hash_array, %object
 924              		.size	command_3_ptr_hash_array, 40
 925              	command_3_ptr_hash_array:
 926 0050 00000000 		.space	40
 926      00000000 
 926      00000000 
 926      00000000 
 926      00000000 
 927              		.type	command_4_ptr_hash_array, %object
 928              		.size	command_4_ptr_hash_array, 40
 929              	command_4_ptr_hash_array:
 930 0078 00000000 		.space	40
 930      00000000 
 930      00000000 
 930      00000000 
 930      00000000 
 931              		.type	command_5_ptr_hash_array, %object
 932              		.size	command_5_ptr_hash_array, 40
 933              	command_5_ptr_hash_array:
 934 00a0 00000000 		.space	40
 934      00000000 
 934      00000000 
 934      00000000 
 934      00000000 
 935              		.type	command_6_ptr_hash_array, %object
 936              		.size	command_6_ptr_hash_array, 40
 937              	command_6_ptr_hash_array:
 938 00c8 00000000 		.space	40
 938      00000000 
 938      00000000 
 938      00000000 
 938      00000000 
 939              		.type	command_7_ptr_hash_array, %object
 940              		.size	command_7_ptr_hash_array, 40
 941              	command_7_ptr_hash_array:
 942 00f0 00000000 		.space	40
 942      00000000 
 942      00000000 
 942      00000000 
 942      00000000 
 943              		.type	command_8_ptr_hash_array, %object
 944              		.size	command_8_ptr_hash_array, 40
 945              	command_8_ptr_hash_array:
 946 0118 00000000 		.space	40
 946      00000000 
 946      00000000 
 946      00000000 
 946      00000000 
 947              		.section	.rodata.str1.4,"aMS",%progbits,1
 948              		.align	2
 949              	.LC0:
ARM GAS  G:\Users\Jaxb\AppData\Local\Temp\ccdrZdTQ.s 			page 22


 950 0000 2E2E2F2E 		.ascii	"../../source/src/kernel/SHELL/command_processor.c\000"
 950      2E2F736F 
 950      75726365 
 950      2F737263 
 950      2F6B6572 
 951 0032 0000     		.space	2
 952              	.LC1:
 953 0034 636F6D6D 		.ascii	"command not found\000"
 953      616E6420 
 953      6E6F7420 
 953      666F756E 
 953      6400
 954 0046 0000     		.space	2
 955              	.LC2:
 956 0048 25730A00 		.ascii	"%s\012\000"
 957              	.LC3:
 958 004c 7200     		.ascii	"r\000"
 959              		.text
 960              	.Letext0:
 961              		.file 3 "../../source/include/shell/command_processor.h"
 962              		.file 4 "../../source/include/os_lib/myassert.h"
 963              		.file 5 "../../source/include/os_lib/myMicroLIB.h"
 964              		.file 6 "../../source/include/os_cpu/kakaosstdint.h"