ARM GAS  G:\Users\Jaxb\AppData\Local\Temp\cccIH5Mc.s 			page 1


   1              		.cpu cortex-m3
   2              		.eabi_attribute 20, 1
   3              		.eabi_attribute 21, 1
   4              		.eabi_attribute 23, 3
   5              		.eabi_attribute 24, 1
   6              		.eabi_attribute 25, 1
   7              		.eabi_attribute 26, 1
   8              		.eabi_attribute 30, 2
   9              		.eabi_attribute 34, 1
  10              		.eabi_attribute 18, 4
  11              		.file	"core_cm3.c"
  12              		.text
  13              	.Ltext0:
  14              		.cfi_sections	.debug_frame
  15              		.align	1
  16              		.p2align 2,,3
  17              		.global	__get_PSP
  18              		.syntax unified
  19              		.thumb
  20              		.thumb_func
  21              		.fpu softvfp
  22              		.type	__get_PSP, %function
  23              	__get_PSP:
  24              	.LFB0:
  25              		.file 1 "../../source/src/CMSIS/core_cm3.c"
   1:../../source/src/CMSIS/core_cm3.c **** /**************************************************************************//**
   2:../../source/src/CMSIS/core_cm3.c ****  * @file     core_cm3.c
   3:../../source/src/CMSIS/core_cm3.c ****  * @brief    CMSIS Cortex-M3 Core Peripheral Access Layer Source File
   4:../../source/src/CMSIS/core_cm3.c ****  * @version  V1.30
   5:../../source/src/CMSIS/core_cm3.c ****  * @date     30. October 2009
   6:../../source/src/CMSIS/core_cm3.c ****  *
   7:../../source/src/CMSIS/core_cm3.c ****  * @note
   8:../../source/src/CMSIS/core_cm3.c ****  * Copyright (C) 2009 ARM Limited. All rights reserved.
   9:../../source/src/CMSIS/core_cm3.c ****  *
  10:../../source/src/CMSIS/core_cm3.c ****  * @par
  11:../../source/src/CMSIS/core_cm3.c ****  * ARM Limited (ARM) is supplying this software for use with Cortex-M 
  12:../../source/src/CMSIS/core_cm3.c ****  * processor based microcontrollers.  This file can be freely distributed 
  13:../../source/src/CMSIS/core_cm3.c ****  * within development tools that are supporting such ARM based processors. 
  14:../../source/src/CMSIS/core_cm3.c ****  *
  15:../../source/src/CMSIS/core_cm3.c ****  * @par
  16:../../source/src/CMSIS/core_cm3.c ****  * THIS SOFTWARE IS PROVIDED "AS IS".  NO WARRANTIES, WHETHER EXPRESS, IMPLIED
  17:../../source/src/CMSIS/core_cm3.c ****  * OR STATUTORY, INCLUDING, BUT NOT LIMITED TO, IMPLIED WARRANTIES OF
  18:../../source/src/CMSIS/core_cm3.c ****  * MERCHANTABILITY AND FITNESS FOR A PARTICULAR PURPOSE APPLY TO THIS SOFTWARE.
  19:../../source/src/CMSIS/core_cm3.c ****  * ARM SHALL NOT, IN ANY CIRCUMSTANCES, BE LIABLE FOR SPECIAL, INCIDENTAL, OR
  20:../../source/src/CMSIS/core_cm3.c ****  * CONSEQUENTIAL DAMAGES, FOR ANY REASON WHATSOEVER.
  21:../../source/src/CMSIS/core_cm3.c ****  *
  22:../../source/src/CMSIS/core_cm3.c ****  ******************************************************************************/
  23:../../source/src/CMSIS/core_cm3.c **** 
  24:../../source/src/CMSIS/core_cm3.c **** #include <stdint.h>
  25:../../source/src/CMSIS/core_cm3.c **** 
  26:../../source/src/CMSIS/core_cm3.c **** /* define compiler specific symbols */
  27:../../source/src/CMSIS/core_cm3.c **** #if defined ( __CC_ARM   )
  28:../../source/src/CMSIS/core_cm3.c ****   #define __ASM            __asm                                      /*!< asm keyword for ARM Comp
  29:../../source/src/CMSIS/core_cm3.c ****   #define __INLINE         __inline                                   /*!< inline keyword for ARM C
  30:../../source/src/CMSIS/core_cm3.c **** 
  31:../../source/src/CMSIS/core_cm3.c **** #elif defined ( __ICCARM__ )
  32:../../source/src/CMSIS/core_cm3.c ****   #define __ASM           __asm                                       /*!< asm keyword for IAR Comp
ARM GAS  G:\Users\Jaxb\AppData\Local\Temp\cccIH5Mc.s 			page 2


  33:../../source/src/CMSIS/core_cm3.c ****   #define __INLINE        inline                                      /*!< inline keyword for IAR C
  34:../../source/src/CMSIS/core_cm3.c **** 
  35:../../source/src/CMSIS/core_cm3.c **** #elif defined   (  __GNUC__  )
  36:../../source/src/CMSIS/core_cm3.c ****   #define __ASM            __asm                                      /*!< asm keyword for GNU Comp
  37:../../source/src/CMSIS/core_cm3.c ****   #define __INLINE         inline                                     /*!< inline keyword for GNU C
  38:../../source/src/CMSIS/core_cm3.c **** 
  39:../../source/src/CMSIS/core_cm3.c **** #elif defined   (  __TASKING__  )
  40:../../source/src/CMSIS/core_cm3.c ****   #define __ASM            __asm                                      /*!< asm keyword for TASKING 
  41:../../source/src/CMSIS/core_cm3.c ****   #define __INLINE         inline                                     /*!< inline keyword for TASKI
  42:../../source/src/CMSIS/core_cm3.c **** 
  43:../../source/src/CMSIS/core_cm3.c **** #endif
  44:../../source/src/CMSIS/core_cm3.c **** 
  45:../../source/src/CMSIS/core_cm3.c **** 
  46:../../source/src/CMSIS/core_cm3.c **** /* ###################  Compiler specific Intrinsics  ########################### */
  47:../../source/src/CMSIS/core_cm3.c **** 
  48:../../source/src/CMSIS/core_cm3.c **** #if defined ( __CC_ARM   ) /*------------------RealView Compiler -----------------*/
  49:../../source/src/CMSIS/core_cm3.c **** /* ARM armcc specific functions */
  50:../../source/src/CMSIS/core_cm3.c **** 
  51:../../source/src/CMSIS/core_cm3.c **** /**
  52:../../source/src/CMSIS/core_cm3.c ****  * @brief  Return the Process Stack Pointer
  53:../../source/src/CMSIS/core_cm3.c ****  *
  54:../../source/src/CMSIS/core_cm3.c ****  * @return ProcessStackPointer
  55:../../source/src/CMSIS/core_cm3.c ****  *
  56:../../source/src/CMSIS/core_cm3.c ****  * Return the actual process stack pointer
  57:../../source/src/CMSIS/core_cm3.c ****  */
  58:../../source/src/CMSIS/core_cm3.c **** __ASM uint32_t __get_PSP(void)
  59:../../source/src/CMSIS/core_cm3.c **** {
  60:../../source/src/CMSIS/core_cm3.c ****   mrs r0, psp
  61:../../source/src/CMSIS/core_cm3.c ****   bx lr
  62:../../source/src/CMSIS/core_cm3.c **** }
  63:../../source/src/CMSIS/core_cm3.c **** 
  64:../../source/src/CMSIS/core_cm3.c **** /**
  65:../../source/src/CMSIS/core_cm3.c ****  * @brief  Set the Process Stack Pointer
  66:../../source/src/CMSIS/core_cm3.c ****  *
  67:../../source/src/CMSIS/core_cm3.c ****  * @param  topOfProcStack  Process Stack Pointer
  68:../../source/src/CMSIS/core_cm3.c ****  *
  69:../../source/src/CMSIS/core_cm3.c ****  * Assign the value ProcessStackPointer to the MSP 
  70:../../source/src/CMSIS/core_cm3.c ****  * (process stack pointer) Cortex processor register
  71:../../source/src/CMSIS/core_cm3.c ****  */
  72:../../source/src/CMSIS/core_cm3.c **** __ASM void __set_PSP(uint32_t topOfProcStack)
  73:../../source/src/CMSIS/core_cm3.c **** {
  74:../../source/src/CMSIS/core_cm3.c ****   msr psp, r0
  75:../../source/src/CMSIS/core_cm3.c ****   bx lr
  76:../../source/src/CMSIS/core_cm3.c **** }
  77:../../source/src/CMSIS/core_cm3.c **** 
  78:../../source/src/CMSIS/core_cm3.c **** /**
  79:../../source/src/CMSIS/core_cm3.c ****  * @brief  Return the Main Stack Pointer
  80:../../source/src/CMSIS/core_cm3.c ****  *
  81:../../source/src/CMSIS/core_cm3.c ****  * @return Main Stack Pointer
  82:../../source/src/CMSIS/core_cm3.c ****  *
  83:../../source/src/CMSIS/core_cm3.c ****  * Return the current value of the MSP (main stack pointer)
  84:../../source/src/CMSIS/core_cm3.c ****  * Cortex processor register
  85:../../source/src/CMSIS/core_cm3.c ****  */
  86:../../source/src/CMSIS/core_cm3.c **** __ASM uint32_t __get_MSP(void)
  87:../../source/src/CMSIS/core_cm3.c **** {
  88:../../source/src/CMSIS/core_cm3.c ****   mrs r0, msp
  89:../../source/src/CMSIS/core_cm3.c ****   bx lr
ARM GAS  G:\Users\Jaxb\AppData\Local\Temp\cccIH5Mc.s 			page 3


  90:../../source/src/CMSIS/core_cm3.c **** }
  91:../../source/src/CMSIS/core_cm3.c **** 
  92:../../source/src/CMSIS/core_cm3.c **** /**
  93:../../source/src/CMSIS/core_cm3.c ****  * @brief  Set the Main Stack Pointer
  94:../../source/src/CMSIS/core_cm3.c ****  *
  95:../../source/src/CMSIS/core_cm3.c ****  * @param  topOfMainStack  Main Stack Pointer
  96:../../source/src/CMSIS/core_cm3.c ****  *
  97:../../source/src/CMSIS/core_cm3.c ****  * Assign the value mainStackPointer to the MSP 
  98:../../source/src/CMSIS/core_cm3.c ****  * (main stack pointer) Cortex processor register
  99:../../source/src/CMSIS/core_cm3.c ****  */
 100:../../source/src/CMSIS/core_cm3.c **** __ASM void __set_MSP(uint32_t mainStackPointer)
 101:../../source/src/CMSIS/core_cm3.c **** {
 102:../../source/src/CMSIS/core_cm3.c ****   msr msp, r0
 103:../../source/src/CMSIS/core_cm3.c ****   bx lr
 104:../../source/src/CMSIS/core_cm3.c **** }
 105:../../source/src/CMSIS/core_cm3.c **** 
 106:../../source/src/CMSIS/core_cm3.c **** /**
 107:../../source/src/CMSIS/core_cm3.c ****  * @brief  Reverse byte order in unsigned short value
 108:../../source/src/CMSIS/core_cm3.c ****  *
 109:../../source/src/CMSIS/core_cm3.c ****  * @param   value  value to reverse
 110:../../source/src/CMSIS/core_cm3.c ****  * @return         reversed value
 111:../../source/src/CMSIS/core_cm3.c ****  *
 112:../../source/src/CMSIS/core_cm3.c ****  * Reverse byte order in unsigned short value
 113:../../source/src/CMSIS/core_cm3.c ****  */
 114:../../source/src/CMSIS/core_cm3.c **** __ASM uint32_t __REV16(uint16_t value)
 115:../../source/src/CMSIS/core_cm3.c **** {
 116:../../source/src/CMSIS/core_cm3.c ****   rev16 r0, r0
 117:../../source/src/CMSIS/core_cm3.c ****   bx lr
 118:../../source/src/CMSIS/core_cm3.c **** }
 119:../../source/src/CMSIS/core_cm3.c **** 
 120:../../source/src/CMSIS/core_cm3.c **** /**
 121:../../source/src/CMSIS/core_cm3.c ****  * @brief  Reverse byte order in signed short value with sign extension to integer
 122:../../source/src/CMSIS/core_cm3.c ****  *
 123:../../source/src/CMSIS/core_cm3.c ****  * @param   value  value to reverse
 124:../../source/src/CMSIS/core_cm3.c ****  * @return         reversed value
 125:../../source/src/CMSIS/core_cm3.c ****  *
 126:../../source/src/CMSIS/core_cm3.c ****  * Reverse byte order in signed short value with sign extension to integer
 127:../../source/src/CMSIS/core_cm3.c ****  */
 128:../../source/src/CMSIS/core_cm3.c **** __ASM int32_t __REVSH(int16_t value)
 129:../../source/src/CMSIS/core_cm3.c **** {
 130:../../source/src/CMSIS/core_cm3.c ****   revsh r0, r0
 131:../../source/src/CMSIS/core_cm3.c ****   bx lr
 132:../../source/src/CMSIS/core_cm3.c **** }
 133:../../source/src/CMSIS/core_cm3.c **** 
 134:../../source/src/CMSIS/core_cm3.c **** 
 135:../../source/src/CMSIS/core_cm3.c **** #if (__ARMCC_VERSION < 400000)
 136:../../source/src/CMSIS/core_cm3.c **** 
 137:../../source/src/CMSIS/core_cm3.c **** /**
 138:../../source/src/CMSIS/core_cm3.c ****  * @brief  Remove the exclusive lock created by ldrex
 139:../../source/src/CMSIS/core_cm3.c ****  *
 140:../../source/src/CMSIS/core_cm3.c ****  * Removes the exclusive lock which is created by ldrex.
 141:../../source/src/CMSIS/core_cm3.c ****  */
 142:../../source/src/CMSIS/core_cm3.c **** __ASM void __CLREX(void)
 143:../../source/src/CMSIS/core_cm3.c **** {
 144:../../source/src/CMSIS/core_cm3.c ****   clrex
 145:../../source/src/CMSIS/core_cm3.c **** }
 146:../../source/src/CMSIS/core_cm3.c **** 
ARM GAS  G:\Users\Jaxb\AppData\Local\Temp\cccIH5Mc.s 			page 4


 147:../../source/src/CMSIS/core_cm3.c **** /**
 148:../../source/src/CMSIS/core_cm3.c ****  * @brief  Return the Base Priority value
 149:../../source/src/CMSIS/core_cm3.c ****  *
 150:../../source/src/CMSIS/core_cm3.c ****  * @return BasePriority
 151:../../source/src/CMSIS/core_cm3.c ****  *
 152:../../source/src/CMSIS/core_cm3.c ****  * Return the content of the base priority register
 153:../../source/src/CMSIS/core_cm3.c ****  */
 154:../../source/src/CMSIS/core_cm3.c **** __ASM uint32_t  __get_BASEPRI(void)
 155:../../source/src/CMSIS/core_cm3.c **** {
 156:../../source/src/CMSIS/core_cm3.c ****   mrs r0, basepri
 157:../../source/src/CMSIS/core_cm3.c ****   bx lr
 158:../../source/src/CMSIS/core_cm3.c **** }
 159:../../source/src/CMSIS/core_cm3.c **** 
 160:../../source/src/CMSIS/core_cm3.c **** /**
 161:../../source/src/CMSIS/core_cm3.c ****  * @brief  Set the Base Priority value
 162:../../source/src/CMSIS/core_cm3.c ****  *
 163:../../source/src/CMSIS/core_cm3.c ****  * @param  basePri  BasePriority
 164:../../source/src/CMSIS/core_cm3.c ****  *
 165:../../source/src/CMSIS/core_cm3.c ****  * Set the base priority register
 166:../../source/src/CMSIS/core_cm3.c ****  */
 167:../../source/src/CMSIS/core_cm3.c **** __ASM void __set_BASEPRI(uint32_t basePri)
 168:../../source/src/CMSIS/core_cm3.c **** {
 169:../../source/src/CMSIS/core_cm3.c ****   msr basepri, r0
 170:../../source/src/CMSIS/core_cm3.c ****   bx lr
 171:../../source/src/CMSIS/core_cm3.c **** }
 172:../../source/src/CMSIS/core_cm3.c **** 
 173:../../source/src/CMSIS/core_cm3.c **** /**
 174:../../source/src/CMSIS/core_cm3.c ****  * @brief  Return the Priority Mask value
 175:../../source/src/CMSIS/core_cm3.c ****  *
 176:../../source/src/CMSIS/core_cm3.c ****  * @return PriMask
 177:../../source/src/CMSIS/core_cm3.c ****  *
 178:../../source/src/CMSIS/core_cm3.c ****  * Return state of the priority mask bit from the priority mask register
 179:../../source/src/CMSIS/core_cm3.c ****  */
 180:../../source/src/CMSIS/core_cm3.c **** __ASM uint32_t __get_PRIMASK(void)
 181:../../source/src/CMSIS/core_cm3.c **** {
 182:../../source/src/CMSIS/core_cm3.c ****   mrs r0, primask
 183:../../source/src/CMSIS/core_cm3.c ****   bx lr
 184:../../source/src/CMSIS/core_cm3.c **** }
 185:../../source/src/CMSIS/core_cm3.c **** 
 186:../../source/src/CMSIS/core_cm3.c **** /**
 187:../../source/src/CMSIS/core_cm3.c ****  * @brief  Set the Priority Mask value
 188:../../source/src/CMSIS/core_cm3.c ****  *
 189:../../source/src/CMSIS/core_cm3.c ****  * @param  priMask  PriMask
 190:../../source/src/CMSIS/core_cm3.c ****  *
 191:../../source/src/CMSIS/core_cm3.c ****  * Set the priority mask bit in the priority mask register
 192:../../source/src/CMSIS/core_cm3.c ****  */
 193:../../source/src/CMSIS/core_cm3.c **** __ASM void __set_PRIMASK(uint32_t priMask)
 194:../../source/src/CMSIS/core_cm3.c **** {
 195:../../source/src/CMSIS/core_cm3.c ****   msr primask, r0
 196:../../source/src/CMSIS/core_cm3.c ****   bx lr
 197:../../source/src/CMSIS/core_cm3.c **** }
 198:../../source/src/CMSIS/core_cm3.c **** 
 199:../../source/src/CMSIS/core_cm3.c **** /**
 200:../../source/src/CMSIS/core_cm3.c ****  * @brief  Return the Fault Mask value
 201:../../source/src/CMSIS/core_cm3.c ****  *
 202:../../source/src/CMSIS/core_cm3.c ****  * @return FaultMask
 203:../../source/src/CMSIS/core_cm3.c ****  *
ARM GAS  G:\Users\Jaxb\AppData\Local\Temp\cccIH5Mc.s 			page 5


 204:../../source/src/CMSIS/core_cm3.c ****  * Return the content of the fault mask register
 205:../../source/src/CMSIS/core_cm3.c ****  */
 206:../../source/src/CMSIS/core_cm3.c **** __ASM uint32_t  __get_FAULTMASK(void)
 207:../../source/src/CMSIS/core_cm3.c **** {
 208:../../source/src/CMSIS/core_cm3.c ****   mrs r0, faultmask
 209:../../source/src/CMSIS/core_cm3.c ****   bx lr
 210:../../source/src/CMSIS/core_cm3.c **** }
 211:../../source/src/CMSIS/core_cm3.c **** 
 212:../../source/src/CMSIS/core_cm3.c **** /**
 213:../../source/src/CMSIS/core_cm3.c ****  * @brief  Set the Fault Mask value
 214:../../source/src/CMSIS/core_cm3.c ****  *
 215:../../source/src/CMSIS/core_cm3.c ****  * @param  faultMask  faultMask value
 216:../../source/src/CMSIS/core_cm3.c ****  *
 217:../../source/src/CMSIS/core_cm3.c ****  * Set the fault mask register
 218:../../source/src/CMSIS/core_cm3.c ****  */
 219:../../source/src/CMSIS/core_cm3.c **** __ASM void __set_FAULTMASK(uint32_t faultMask)
 220:../../source/src/CMSIS/core_cm3.c **** {
 221:../../source/src/CMSIS/core_cm3.c ****   msr faultmask, r0
 222:../../source/src/CMSIS/core_cm3.c ****   bx lr
 223:../../source/src/CMSIS/core_cm3.c **** }
 224:../../source/src/CMSIS/core_cm3.c **** 
 225:../../source/src/CMSIS/core_cm3.c **** /**
 226:../../source/src/CMSIS/core_cm3.c ****  * @brief  Return the Control Register value
 227:../../source/src/CMSIS/core_cm3.c ****  * 
 228:../../source/src/CMSIS/core_cm3.c ****  * @return Control value
 229:../../source/src/CMSIS/core_cm3.c ****  *
 230:../../source/src/CMSIS/core_cm3.c ****  * Return the content of the control register
 231:../../source/src/CMSIS/core_cm3.c ****  */
 232:../../source/src/CMSIS/core_cm3.c **** __ASM uint32_t __get_CONTROL(void)
 233:../../source/src/CMSIS/core_cm3.c **** {
 234:../../source/src/CMSIS/core_cm3.c ****   mrs r0, control
 235:../../source/src/CMSIS/core_cm3.c ****   bx lr
 236:../../source/src/CMSIS/core_cm3.c **** }
 237:../../source/src/CMSIS/core_cm3.c **** 
 238:../../source/src/CMSIS/core_cm3.c **** /**
 239:../../source/src/CMSIS/core_cm3.c ****  * @brief  Set the Control Register value
 240:../../source/src/CMSIS/core_cm3.c ****  *
 241:../../source/src/CMSIS/core_cm3.c ****  * @param  control  Control value
 242:../../source/src/CMSIS/core_cm3.c ****  *
 243:../../source/src/CMSIS/core_cm3.c ****  * Set the control register
 244:../../source/src/CMSIS/core_cm3.c ****  */
 245:../../source/src/CMSIS/core_cm3.c **** __ASM void __set_CONTROL(uint32_t control)
 246:../../source/src/CMSIS/core_cm3.c **** {
 247:../../source/src/CMSIS/core_cm3.c ****   msr control, r0
 248:../../source/src/CMSIS/core_cm3.c ****   bx lr
 249:../../source/src/CMSIS/core_cm3.c **** }
 250:../../source/src/CMSIS/core_cm3.c **** 
 251:../../source/src/CMSIS/core_cm3.c **** #endif /* __ARMCC_VERSION  */ 
 252:../../source/src/CMSIS/core_cm3.c **** 
 253:../../source/src/CMSIS/core_cm3.c **** 
 254:../../source/src/CMSIS/core_cm3.c **** 
 255:../../source/src/CMSIS/core_cm3.c **** #elif (defined (__ICCARM__)) /*------------------ ICC Compiler -------------------*/
 256:../../source/src/CMSIS/core_cm3.c **** /* IAR iccarm specific functions */
 257:../../source/src/CMSIS/core_cm3.c **** #pragma diag_suppress=Pe940
 258:../../source/src/CMSIS/core_cm3.c **** 
 259:../../source/src/CMSIS/core_cm3.c **** /**
 260:../../source/src/CMSIS/core_cm3.c ****  * @brief  Return the Process Stack Pointer
ARM GAS  G:\Users\Jaxb\AppData\Local\Temp\cccIH5Mc.s 			page 6


 261:../../source/src/CMSIS/core_cm3.c ****  *
 262:../../source/src/CMSIS/core_cm3.c ****  * @return ProcessStackPointer
 263:../../source/src/CMSIS/core_cm3.c ****  *
 264:../../source/src/CMSIS/core_cm3.c ****  * Return the actual process stack pointer
 265:../../source/src/CMSIS/core_cm3.c ****  */
 266:../../source/src/CMSIS/core_cm3.c **** uint32_t __get_PSP(void)
 267:../../source/src/CMSIS/core_cm3.c **** {
 268:../../source/src/CMSIS/core_cm3.c ****   __ASM("mrs r0, psp");
 269:../../source/src/CMSIS/core_cm3.c ****   __ASM("bx lr");
 270:../../source/src/CMSIS/core_cm3.c **** }
 271:../../source/src/CMSIS/core_cm3.c **** 
 272:../../source/src/CMSIS/core_cm3.c **** /**
 273:../../source/src/CMSIS/core_cm3.c ****  * @brief  Set the Process Stack Pointer
 274:../../source/src/CMSIS/core_cm3.c ****  *
 275:../../source/src/CMSIS/core_cm3.c ****  * @param  topOfProcStack  Process Stack Pointer
 276:../../source/src/CMSIS/core_cm3.c ****  *
 277:../../source/src/CMSIS/core_cm3.c ****  * Assign the value ProcessStackPointer to the MSP 
 278:../../source/src/CMSIS/core_cm3.c ****  * (process stack pointer) Cortex processor register
 279:../../source/src/CMSIS/core_cm3.c ****  */
 280:../../source/src/CMSIS/core_cm3.c **** void __set_PSP(uint32_t topOfProcStack)
 281:../../source/src/CMSIS/core_cm3.c **** {
 282:../../source/src/CMSIS/core_cm3.c ****   __ASM("msr psp, r0");
 283:../../source/src/CMSIS/core_cm3.c ****   __ASM("bx lr");
 284:../../source/src/CMSIS/core_cm3.c **** }
 285:../../source/src/CMSIS/core_cm3.c **** 
 286:../../source/src/CMSIS/core_cm3.c **** /**
 287:../../source/src/CMSIS/core_cm3.c ****  * @brief  Return the Main Stack Pointer
 288:../../source/src/CMSIS/core_cm3.c ****  *
 289:../../source/src/CMSIS/core_cm3.c ****  * @return Main Stack Pointer
 290:../../source/src/CMSIS/core_cm3.c ****  *
 291:../../source/src/CMSIS/core_cm3.c ****  * Return the current value of the MSP (main stack pointer)
 292:../../source/src/CMSIS/core_cm3.c ****  * Cortex processor register
 293:../../source/src/CMSIS/core_cm3.c ****  */
 294:../../source/src/CMSIS/core_cm3.c **** uint32_t __get_MSP(void)
 295:../../source/src/CMSIS/core_cm3.c **** {
 296:../../source/src/CMSIS/core_cm3.c ****   __ASM("mrs r0, msp");
 297:../../source/src/CMSIS/core_cm3.c ****   __ASM("bx lr");
 298:../../source/src/CMSIS/core_cm3.c **** }
 299:../../source/src/CMSIS/core_cm3.c **** 
 300:../../source/src/CMSIS/core_cm3.c **** /**
 301:../../source/src/CMSIS/core_cm3.c ****  * @brief  Set the Main Stack Pointer
 302:../../source/src/CMSIS/core_cm3.c ****  *
 303:../../source/src/CMSIS/core_cm3.c ****  * @param  topOfMainStack  Main Stack Pointer
 304:../../source/src/CMSIS/core_cm3.c ****  *
 305:../../source/src/CMSIS/core_cm3.c ****  * Assign the value mainStackPointer to the MSP 
 306:../../source/src/CMSIS/core_cm3.c ****  * (main stack pointer) Cortex processor register
 307:../../source/src/CMSIS/core_cm3.c ****  */
 308:../../source/src/CMSIS/core_cm3.c **** void __set_MSP(uint32_t topOfMainStack)
 309:../../source/src/CMSIS/core_cm3.c **** {
 310:../../source/src/CMSIS/core_cm3.c ****   __ASM("msr msp, r0");
 311:../../source/src/CMSIS/core_cm3.c ****   __ASM("bx lr");
 312:../../source/src/CMSIS/core_cm3.c **** }
 313:../../source/src/CMSIS/core_cm3.c **** 
 314:../../source/src/CMSIS/core_cm3.c **** /**
 315:../../source/src/CMSIS/core_cm3.c ****  * @brief  Reverse byte order in unsigned short value
 316:../../source/src/CMSIS/core_cm3.c ****  *
 317:../../source/src/CMSIS/core_cm3.c ****  * @param  value  value to reverse
ARM GAS  G:\Users\Jaxb\AppData\Local\Temp\cccIH5Mc.s 			page 7


 318:../../source/src/CMSIS/core_cm3.c ****  * @return        reversed value
 319:../../source/src/CMSIS/core_cm3.c ****  *
 320:../../source/src/CMSIS/core_cm3.c ****  * Reverse byte order in unsigned short value
 321:../../source/src/CMSIS/core_cm3.c ****  */
 322:../../source/src/CMSIS/core_cm3.c **** uint32_t __REV16(uint16_t value)
 323:../../source/src/CMSIS/core_cm3.c **** {
 324:../../source/src/CMSIS/core_cm3.c ****   __ASM("rev16 r0, r0");
 325:../../source/src/CMSIS/core_cm3.c ****   __ASM("bx lr");
 326:../../source/src/CMSIS/core_cm3.c **** }
 327:../../source/src/CMSIS/core_cm3.c **** 
 328:../../source/src/CMSIS/core_cm3.c **** /**
 329:../../source/src/CMSIS/core_cm3.c ****  * @brief  Reverse bit order of value
 330:../../source/src/CMSIS/core_cm3.c ****  *
 331:../../source/src/CMSIS/core_cm3.c ****  * @param  value  value to reverse
 332:../../source/src/CMSIS/core_cm3.c ****  * @return        reversed value
 333:../../source/src/CMSIS/core_cm3.c ****  *
 334:../../source/src/CMSIS/core_cm3.c ****  * Reverse bit order of value
 335:../../source/src/CMSIS/core_cm3.c ****  */
 336:../../source/src/CMSIS/core_cm3.c **** uint32_t __RBIT(uint32_t value)
 337:../../source/src/CMSIS/core_cm3.c **** {
 338:../../source/src/CMSIS/core_cm3.c ****   __ASM("rbit r0, r0");
 339:../../source/src/CMSIS/core_cm3.c ****   __ASM("bx lr");
 340:../../source/src/CMSIS/core_cm3.c **** }
 341:../../source/src/CMSIS/core_cm3.c **** 
 342:../../source/src/CMSIS/core_cm3.c **** /**
 343:../../source/src/CMSIS/core_cm3.c ****  * @brief  LDR Exclusive (8 bit)
 344:../../source/src/CMSIS/core_cm3.c ****  *
 345:../../source/src/CMSIS/core_cm3.c ****  * @param  *addr  address pointer
 346:../../source/src/CMSIS/core_cm3.c ****  * @return        value of (*address)
 347:../../source/src/CMSIS/core_cm3.c ****  *
 348:../../source/src/CMSIS/core_cm3.c ****  * Exclusive LDR command for 8 bit values)
 349:../../source/src/CMSIS/core_cm3.c ****  */
 350:../../source/src/CMSIS/core_cm3.c **** uint8_t __LDREXB(uint8_t *addr)
 351:../../source/src/CMSIS/core_cm3.c **** {
 352:../../source/src/CMSIS/core_cm3.c ****   __ASM("ldrexb r0, [r0]");
 353:../../source/src/CMSIS/core_cm3.c ****   __ASM("bx lr"); 
 354:../../source/src/CMSIS/core_cm3.c **** }
 355:../../source/src/CMSIS/core_cm3.c **** 
 356:../../source/src/CMSIS/core_cm3.c **** /**
 357:../../source/src/CMSIS/core_cm3.c ****  * @brief  LDR Exclusive (16 bit)
 358:../../source/src/CMSIS/core_cm3.c ****  *
 359:../../source/src/CMSIS/core_cm3.c ****  * @param  *addr  address pointer
 360:../../source/src/CMSIS/core_cm3.c ****  * @return        value of (*address)
 361:../../source/src/CMSIS/core_cm3.c ****  *
 362:../../source/src/CMSIS/core_cm3.c ****  * Exclusive LDR command for 16 bit values
 363:../../source/src/CMSIS/core_cm3.c ****  */
 364:../../source/src/CMSIS/core_cm3.c **** uint16_t __LDREXH(uint16_t *addr)
 365:../../source/src/CMSIS/core_cm3.c **** {
 366:../../source/src/CMSIS/core_cm3.c ****   __ASM("ldrexh r0, [r0]");
 367:../../source/src/CMSIS/core_cm3.c ****   __ASM("bx lr");
 368:../../source/src/CMSIS/core_cm3.c **** }
 369:../../source/src/CMSIS/core_cm3.c **** 
 370:../../source/src/CMSIS/core_cm3.c **** /**
 371:../../source/src/CMSIS/core_cm3.c ****  * @brief  LDR Exclusive (32 bit)
 372:../../source/src/CMSIS/core_cm3.c ****  *
 373:../../source/src/CMSIS/core_cm3.c ****  * @param  *addr  address pointer
 374:../../source/src/CMSIS/core_cm3.c ****  * @return        value of (*address)
ARM GAS  G:\Users\Jaxb\AppData\Local\Temp\cccIH5Mc.s 			page 8


 375:../../source/src/CMSIS/core_cm3.c ****  *
 376:../../source/src/CMSIS/core_cm3.c ****  * Exclusive LDR command for 32 bit values
 377:../../source/src/CMSIS/core_cm3.c ****  */
 378:../../source/src/CMSIS/core_cm3.c **** uint32_t __LDREXW(uint32_t *addr)
 379:../../source/src/CMSIS/core_cm3.c **** {
 380:../../source/src/CMSIS/core_cm3.c ****   __ASM("ldrex r0, [r0]");
 381:../../source/src/CMSIS/core_cm3.c ****   __ASM("bx lr");
 382:../../source/src/CMSIS/core_cm3.c **** }
 383:../../source/src/CMSIS/core_cm3.c **** 
 384:../../source/src/CMSIS/core_cm3.c **** /**
 385:../../source/src/CMSIS/core_cm3.c ****  * @brief  STR Exclusive (8 bit)
 386:../../source/src/CMSIS/core_cm3.c ****  *
 387:../../source/src/CMSIS/core_cm3.c ****  * @param  value  value to store
 388:../../source/src/CMSIS/core_cm3.c ****  * @param  *addr  address pointer
 389:../../source/src/CMSIS/core_cm3.c ****  * @return        successful / failed
 390:../../source/src/CMSIS/core_cm3.c ****  *
 391:../../source/src/CMSIS/core_cm3.c ****  * Exclusive STR command for 8 bit values
 392:../../source/src/CMSIS/core_cm3.c ****  */
 393:../../source/src/CMSIS/core_cm3.c **** uint32_t __STREXB(uint8_t value, uint8_t *addr)
 394:../../source/src/CMSIS/core_cm3.c **** {
 395:../../source/src/CMSIS/core_cm3.c ****   __ASM("strexb r0, r0, [r1]");
 396:../../source/src/CMSIS/core_cm3.c ****   __ASM("bx lr");
 397:../../source/src/CMSIS/core_cm3.c **** }
 398:../../source/src/CMSIS/core_cm3.c **** 
 399:../../source/src/CMSIS/core_cm3.c **** /**
 400:../../source/src/CMSIS/core_cm3.c ****  * @brief  STR Exclusive (16 bit)
 401:../../source/src/CMSIS/core_cm3.c ****  *
 402:../../source/src/CMSIS/core_cm3.c ****  * @param  value  value to store
 403:../../source/src/CMSIS/core_cm3.c ****  * @param  *addr  address pointer
 404:../../source/src/CMSIS/core_cm3.c ****  * @return        successful / failed
 405:../../source/src/CMSIS/core_cm3.c ****  *
 406:../../source/src/CMSIS/core_cm3.c ****  * Exclusive STR command for 16 bit values
 407:../../source/src/CMSIS/core_cm3.c ****  */
 408:../../source/src/CMSIS/core_cm3.c **** uint32_t __STREXH(uint16_t value, uint16_t *addr)
 409:../../source/src/CMSIS/core_cm3.c **** {
 410:../../source/src/CMSIS/core_cm3.c ****   __ASM("strexh r0, r0, [r1]");
 411:../../source/src/CMSIS/core_cm3.c ****   __ASM("bx lr");
 412:../../source/src/CMSIS/core_cm3.c **** }
 413:../../source/src/CMSIS/core_cm3.c **** 
 414:../../source/src/CMSIS/core_cm3.c **** /**
 415:../../source/src/CMSIS/core_cm3.c ****  * @brief  STR Exclusive (32 bit)
 416:../../source/src/CMSIS/core_cm3.c ****  *
 417:../../source/src/CMSIS/core_cm3.c ****  * @param  value  value to store
 418:../../source/src/CMSIS/core_cm3.c ****  * @param  *addr  address pointer
 419:../../source/src/CMSIS/core_cm3.c ****  * @return        successful / failed
 420:../../source/src/CMSIS/core_cm3.c ****  *
 421:../../source/src/CMSIS/core_cm3.c ****  * Exclusive STR command for 32 bit values
 422:../../source/src/CMSIS/core_cm3.c ****  */
 423:../../source/src/CMSIS/core_cm3.c **** uint32_t __STREXW(uint32_t value, uint32_t *addr)
 424:../../source/src/CMSIS/core_cm3.c **** {
 425:../../source/src/CMSIS/core_cm3.c ****   __ASM("strex r0, r0, [r1]");
 426:../../source/src/CMSIS/core_cm3.c ****   __ASM("bx lr");
 427:../../source/src/CMSIS/core_cm3.c **** }
 428:../../source/src/CMSIS/core_cm3.c **** 
 429:../../source/src/CMSIS/core_cm3.c **** #pragma diag_default=Pe940
 430:../../source/src/CMSIS/core_cm3.c **** 
 431:../../source/src/CMSIS/core_cm3.c **** 
ARM GAS  G:\Users\Jaxb\AppData\Local\Temp\cccIH5Mc.s 			page 9


 432:../../source/src/CMSIS/core_cm3.c **** #elif (defined (__GNUC__)) /*------------------ GNU Compiler ---------------------*/
 433:../../source/src/CMSIS/core_cm3.c **** /* GNU gcc specific functions */
 434:../../source/src/CMSIS/core_cm3.c **** 
 435:../../source/src/CMSIS/core_cm3.c **** /**
 436:../../source/src/CMSIS/core_cm3.c ****  * @brief  Return the Process Stack Pointer
 437:../../source/src/CMSIS/core_cm3.c ****  *
 438:../../source/src/CMSIS/core_cm3.c ****  * @return ProcessStackPointer
 439:../../source/src/CMSIS/core_cm3.c ****  *
 440:../../source/src/CMSIS/core_cm3.c ****  * Return the actual process stack pointer
 441:../../source/src/CMSIS/core_cm3.c ****  */
 442:../../source/src/CMSIS/core_cm3.c **** uint32_t __get_PSP(void) __attribute__( ( naked ) );
 443:../../source/src/CMSIS/core_cm3.c **** uint32_t __get_PSP(void)
 444:../../source/src/CMSIS/core_cm3.c **** {
  26              		.loc 1 444 0
  27              		.cfi_startproc
  28              		@ Naked Function: prologue and epilogue provided by programmer.
  29              		@ args = 0, pretend = 0, frame = 0
  30              		@ frame_needed = 0, uses_anonymous_args = 0
  31              	.LVL0:
 445:../../source/src/CMSIS/core_cm3.c ****   uint32_t result=0;
 446:../../source/src/CMSIS/core_cm3.c **** 
 447:../../source/src/CMSIS/core_cm3.c ****   __ASM volatile ("MRS %0, psp\r\n\t" 
  32              		.loc 1 447 0
  33              		.syntax unified
  34              	@ 447 "../../source/src/CMSIS/core_cm3.c" 1
  35 0000 EFF30980 		MRS r0, psp
  36 0004 0046     	
  37 0006 7047     		MOV r0, r0 
  38              	
  39              		BX  lr     
  40              	
 448:../../source/src/CMSIS/core_cm3.c ****                   "MOV r0, %0 \r\n\t"
 449:../../source/src/CMSIS/core_cm3.c ****                   "BX  lr     \r\n\t"  : "=r" (result) );
 450:../../source/src/CMSIS/core_cm3.c ****   return(result);
 451:../../source/src/CMSIS/core_cm3.c **** }
  41              		
  42              	@ 0 "" 2
  43              	.LVL1:
  44              		.loc 1 451 0
  45              		.thumb
  46              		.syntax unified
  47              		.cfi_endproc
  48              	.LFE0:
  49              		.size	__get_PSP, .-__get_PSP
  50              		.align	1
  51              		.p2align 2,,3
  52              		.global	__set_PSP
  53              		.syntax unified
  54              		.thumb
  55              		.thumb_func
  56              		.fpu softvfp
 452:../../source/src/CMSIS/core_cm3.c **** 
 453:../../source/src/CMSIS/core_cm3.c **** /**
 454:../../source/src/CMSIS/core_cm3.c ****  * @brief  Set the Process Stack Pointer
 455:../../source/src/CMSIS/core_cm3.c ****  *
 456:../../source/src/CMSIS/core_cm3.c ****  * @param  topOfProcStack  Process Stack Pointer
 457:../../source/src/CMSIS/core_cm3.c ****  *
ARM GAS  G:\Users\Jaxb\AppData\Local\Temp\cccIH5Mc.s 			page 10


 458:../../source/src/CMSIS/core_cm3.c ****  * Assign the value ProcessStackPointer to the MSP 
 459:../../source/src/CMSIS/core_cm3.c ****  * (process stack pointer) Cortex processor register
 460:../../source/src/CMSIS/core_cm3.c ****  */
 461:../../source/src/CMSIS/core_cm3.c **** void __set_PSP(uint32_t topOfProcStack) __attribute__( ( naked ) );
 462:../../source/src/CMSIS/core_cm3.c **** void __set_PSP(uint32_t topOfProcStack)
 463:../../source/src/CMSIS/core_cm3.c **** {
  57              		.type	__set_PSP, %function
  58              	__set_PSP:
  59              	.LFB1:
  60              		.loc 1 463 0
  61              		.cfi_startproc
  62              		@ Naked Function: prologue and epilogue provided by programmer.
 464:../../source/src/CMSIS/core_cm3.c ****   __ASM volatile ("MSR psp, %0\r\n\t"
  63              		@ args = 0, pretend = 0, frame = 0
  64              		@ frame_needed = 0, uses_anonymous_args = 0
  65              	.LVL2:
  66 0008 80F30988 		.loc 1 464 0
  67 000c 7047     		.syntax unified
  68              	@ 464 "../../source/src/CMSIS/core_cm3.c" 1
  69              		MSR psp, r0
 465:../../source/src/CMSIS/core_cm3.c ****                   "BX  lr     \r\n\t" : : "r" (topOfProcStack) );
 466:../../source/src/CMSIS/core_cm3.c **** }
  70              	
  71              		BX  lr     
  72              	
  73              		
  74              	@ 0 "" 2
  75              		.loc 1 466 0
  76              		.thumb
  77 000e 00BF     		.syntax unified
  78              		.cfi_endproc
  79              	.LFE1:
  80              		.size	__set_PSP, .-__set_PSP
  81              		.align	1
  82              		.p2align 2,,3
  83              		.global	__get_MSP
  84              		.syntax unified
  85              		.thumb
 467:../../source/src/CMSIS/core_cm3.c **** 
 468:../../source/src/CMSIS/core_cm3.c **** /**
 469:../../source/src/CMSIS/core_cm3.c ****  * @brief  Return the Main Stack Pointer
 470:../../source/src/CMSIS/core_cm3.c ****  *
 471:../../source/src/CMSIS/core_cm3.c ****  * @return Main Stack Pointer
 472:../../source/src/CMSIS/core_cm3.c ****  *
 473:../../source/src/CMSIS/core_cm3.c ****  * Return the current value of the MSP (main stack pointer)
 474:../../source/src/CMSIS/core_cm3.c ****  * Cortex processor register
 475:../../source/src/CMSIS/core_cm3.c ****  */
 476:../../source/src/CMSIS/core_cm3.c **** uint32_t __get_MSP(void) __attribute__( ( naked ) );
 477:../../source/src/CMSIS/core_cm3.c **** uint32_t __get_MSP(void)
 478:../../source/src/CMSIS/core_cm3.c **** {
  86              		.thumb_func
  87              		.fpu softvfp
  88              		.type	__get_MSP, %function
  89              	__get_MSP:
  90              	.LFB2:
  91              		.loc 1 478 0
 479:../../source/src/CMSIS/core_cm3.c ****   uint32_t result=0;
ARM GAS  G:\Users\Jaxb\AppData\Local\Temp\cccIH5Mc.s 			page 11


 480:../../source/src/CMSIS/core_cm3.c **** 
 481:../../source/src/CMSIS/core_cm3.c ****   __ASM volatile ("MRS %0, msp\r\n\t" 
  92              		.cfi_startproc
  93              		@ Naked Function: prologue and epilogue provided by programmer.
  94              		@ args = 0, pretend = 0, frame = 0
  95 0010 EFF30880 		@ frame_needed = 0, uses_anonymous_args = 0
  96 0014 0046     	.LVL3:
  97 0016 7047     		.loc 1 481 0
  98              		.syntax unified
  99              	@ 481 "../../source/src/CMSIS/core_cm3.c" 1
 100              		MRS r0, msp
 482:../../source/src/CMSIS/core_cm3.c ****                   "MOV r0, %0 \r\n\t"
 483:../../source/src/CMSIS/core_cm3.c ****                   "BX  lr     \r\n\t"  : "=r" (result) );
 484:../../source/src/CMSIS/core_cm3.c ****   return(result);
 485:../../source/src/CMSIS/core_cm3.c **** }
 101              	
 102              		MOV r0, r0 
 103              	
 104              		BX  lr     
 105              	
 106              		
 107              	@ 0 "" 2
 108              	.LVL4:
 109              		.loc 1 485 0
 110              		.thumb
 111              		.syntax unified
 112              		.cfi_endproc
 113              	.LFE2:
 114              		.size	__get_MSP, .-__get_MSP
 115              		.align	1
 116              		.p2align 2,,3
 486:../../source/src/CMSIS/core_cm3.c **** 
 487:../../source/src/CMSIS/core_cm3.c **** /**
 488:../../source/src/CMSIS/core_cm3.c ****  * @brief  Set the Main Stack Pointer
 489:../../source/src/CMSIS/core_cm3.c ****  *
 490:../../source/src/CMSIS/core_cm3.c ****  * @param  topOfMainStack  Main Stack Pointer
 491:../../source/src/CMSIS/core_cm3.c ****  *
 492:../../source/src/CMSIS/core_cm3.c ****  * Assign the value mainStackPointer to the MSP 
 493:../../source/src/CMSIS/core_cm3.c ****  * (main stack pointer) Cortex processor register
 494:../../source/src/CMSIS/core_cm3.c ****  */
 495:../../source/src/CMSIS/core_cm3.c **** void __set_MSP(uint32_t topOfMainStack) __attribute__( ( naked ) );
 496:../../source/src/CMSIS/core_cm3.c **** void __set_MSP(uint32_t topOfMainStack)
 497:../../source/src/CMSIS/core_cm3.c **** {
 117              		.global	__set_MSP
 118              		.syntax unified
 119              		.thumb
 120              		.thumb_func
 121              		.fpu softvfp
 122              		.type	__set_MSP, %function
 498:../../source/src/CMSIS/core_cm3.c ****   __ASM volatile ("MSR msp, %0\r\n\t"
 123              	__set_MSP:
 124              	.LFB3:
 125              		.loc 1 497 0
 126 0018 80F30888 		.cfi_startproc
 127 001c 7047     		@ Naked Function: prologue and epilogue provided by programmer.
 128              		@ args = 0, pretend = 0, frame = 0
 129              		@ frame_needed = 0, uses_anonymous_args = 0
ARM GAS  G:\Users\Jaxb\AppData\Local\Temp\cccIH5Mc.s 			page 12


 499:../../source/src/CMSIS/core_cm3.c ****                   "BX  lr     \r\n\t" : : "r" (topOfMainStack) );
 500:../../source/src/CMSIS/core_cm3.c **** }
 130              	.LVL5:
 131              		.loc 1 498 0
 132              		.syntax unified
 133              	@ 498 "../../source/src/CMSIS/core_cm3.c" 1
 134              		MSR msp, r0
 135              	
 136              		BX  lr     
 137 001e 00BF     	
 138              		
 139              	@ 0 "" 2
 140              		.loc 1 500 0
 141              		.thumb
 142              		.syntax unified
 143              		.cfi_endproc
 144              	.LFE3:
 145              		.size	__set_MSP, .-__set_MSP
 501:../../source/src/CMSIS/core_cm3.c **** 
 502:../../source/src/CMSIS/core_cm3.c **** /**
 503:../../source/src/CMSIS/core_cm3.c ****  * @brief  Return the Base Priority value
 504:../../source/src/CMSIS/core_cm3.c ****  *
 505:../../source/src/CMSIS/core_cm3.c ****  * @return BasePriority
 506:../../source/src/CMSIS/core_cm3.c ****  *
 507:../../source/src/CMSIS/core_cm3.c ****  * Return the content of the base priority register
 508:../../source/src/CMSIS/core_cm3.c ****  */
 509:../../source/src/CMSIS/core_cm3.c **** uint32_t __get_BASEPRI(void)
 510:../../source/src/CMSIS/core_cm3.c **** {
 146              		.align	1
 147              		.p2align 2,,3
 148              		.global	__get_BASEPRI
 149              		.syntax unified
 150              		.thumb
 151              		.thumb_func
 511:../../source/src/CMSIS/core_cm3.c ****   uint32_t result=0;
 512:../../source/src/CMSIS/core_cm3.c ****   
 513:../../source/src/CMSIS/core_cm3.c ****   __ASM volatile ("MRS %0, basepri_max" : "=r" (result) );
 152              		.fpu softvfp
 153              		.type	__get_BASEPRI, %function
 154              	__get_BASEPRI:
 155 0020 EFF31280 	.LFB4:
 156              		.loc 1 510 0
 157              		.cfi_startproc
 514:../../source/src/CMSIS/core_cm3.c ****   return(result);
 515:../../source/src/CMSIS/core_cm3.c **** }
 158              		@ args = 0, pretend = 0, frame = 0
 159              		@ frame_needed = 0, uses_anonymous_args = 0
 160              		@ link register save eliminated.
 161 0024 7047     	.LVL6:
 162              		.loc 1 513 0
 163              		.syntax unified
 164              	@ 513 "../../source/src/CMSIS/core_cm3.c" 1
 165              		MRS r0, basepri_max
 166 0026 00BF     	@ 0 "" 2
 167              	.LVL7:
 168              		.loc 1 515 0
 169              		.thumb
ARM GAS  G:\Users\Jaxb\AppData\Local\Temp\cccIH5Mc.s 			page 13


 170              		.syntax unified
 171              		bx	lr
 172              		.cfi_endproc
 173              	.LFE4:
 174              		.size	__get_BASEPRI, .-__get_BASEPRI
 516:../../source/src/CMSIS/core_cm3.c **** 
 517:../../source/src/CMSIS/core_cm3.c **** /**
 518:../../source/src/CMSIS/core_cm3.c ****  * @brief  Set the Base Priority value
 519:../../source/src/CMSIS/core_cm3.c ****  *
 520:../../source/src/CMSIS/core_cm3.c ****  * @param  basePri  BasePriority
 521:../../source/src/CMSIS/core_cm3.c ****  *
 522:../../source/src/CMSIS/core_cm3.c ****  * Set the base priority register
 523:../../source/src/CMSIS/core_cm3.c ****  */
 524:../../source/src/CMSIS/core_cm3.c **** void __set_BASEPRI(uint32_t value)
 525:../../source/src/CMSIS/core_cm3.c **** {
 175              		.align	1
 176              		.p2align 2,,3
 177              		.global	__set_BASEPRI
 178              		.syntax unified
 179              		.thumb
 180              		.thumb_func
 526:../../source/src/CMSIS/core_cm3.c ****   __ASM volatile ("MSR basepri, %0" : : "r" (value) );
 181              		.fpu softvfp
 182              		.type	__set_BASEPRI, %function
 183              	__set_BASEPRI:
 184 0028 80F31188 	.LFB5:
 185              		.loc 1 525 0
 527:../../source/src/CMSIS/core_cm3.c **** }
 186              		.cfi_startproc
 187              		@ args = 0, pretend = 0, frame = 0
 188              		@ frame_needed = 0, uses_anonymous_args = 0
 189 002c 7047     		@ link register save eliminated.
 190              	.LVL8:
 191              		.loc 1 526 0
 192              		.syntax unified
 193              	@ 526 "../../source/src/CMSIS/core_cm3.c" 1
 194 002e 00BF     		MSR basepri, r0
 195              	@ 0 "" 2
 196              		.loc 1 527 0
 197              		.thumb
 198              		.syntax unified
 199              		bx	lr
 200              		.cfi_endproc
 201              	.LFE5:
 202              		.size	__set_BASEPRI, .-__set_BASEPRI
 528:../../source/src/CMSIS/core_cm3.c **** 
 529:../../source/src/CMSIS/core_cm3.c **** /**
 530:../../source/src/CMSIS/core_cm3.c ****  * @brief  Return the Priority Mask value
 531:../../source/src/CMSIS/core_cm3.c ****  *
 532:../../source/src/CMSIS/core_cm3.c ****  * @return PriMask
 533:../../source/src/CMSIS/core_cm3.c ****  *
 534:../../source/src/CMSIS/core_cm3.c ****  * Return state of the priority mask bit from the priority mask register
 535:../../source/src/CMSIS/core_cm3.c ****  */
 536:../../source/src/CMSIS/core_cm3.c **** uint32_t __get_PRIMASK(void)
 537:../../source/src/CMSIS/core_cm3.c **** {
 203              		.align	1
 204              		.p2align 2,,3
ARM GAS  G:\Users\Jaxb\AppData\Local\Temp\cccIH5Mc.s 			page 14


 205              		.global	__get_PRIMASK
 206              		.syntax unified
 207              		.thumb
 208              		.thumb_func
 538:../../source/src/CMSIS/core_cm3.c ****   uint32_t result=0;
 539:../../source/src/CMSIS/core_cm3.c **** 
 540:../../source/src/CMSIS/core_cm3.c ****   __ASM volatile ("MRS %0, primask" : "=r" (result) );
 209              		.fpu softvfp
 210              		.type	__get_PRIMASK, %function
 211              	__get_PRIMASK:
 212 0030 EFF31080 	.LFB6:
 213              		.loc 1 537 0
 214              		.cfi_startproc
 541:../../source/src/CMSIS/core_cm3.c ****   return(result);
 542:../../source/src/CMSIS/core_cm3.c **** }
 215              		@ args = 0, pretend = 0, frame = 0
 216              		@ frame_needed = 0, uses_anonymous_args = 0
 217              		@ link register save eliminated.
 218 0034 7047     	.LVL9:
 219              		.loc 1 540 0
 220              		.syntax unified
 221              	@ 540 "../../source/src/CMSIS/core_cm3.c" 1
 222              		MRS r0, primask
 223 0036 00BF     	@ 0 "" 2
 224              	.LVL10:
 225              		.loc 1 542 0
 226              		.thumb
 227              		.syntax unified
 228              		bx	lr
 229              		.cfi_endproc
 230              	.LFE6:
 231              		.size	__get_PRIMASK, .-__get_PRIMASK
 543:../../source/src/CMSIS/core_cm3.c **** 
 544:../../source/src/CMSIS/core_cm3.c **** /**
 545:../../source/src/CMSIS/core_cm3.c ****  * @brief  Set the Priority Mask value
 546:../../source/src/CMSIS/core_cm3.c ****  *
 547:../../source/src/CMSIS/core_cm3.c ****  * @param  priMask  PriMask
 548:../../source/src/CMSIS/core_cm3.c ****  *
 549:../../source/src/CMSIS/core_cm3.c ****  * Set the priority mask bit in the priority mask register
 550:../../source/src/CMSIS/core_cm3.c ****  */
 551:../../source/src/CMSIS/core_cm3.c **** void __set_PRIMASK(uint32_t priMask)
 552:../../source/src/CMSIS/core_cm3.c **** {
 232              		.align	1
 233              		.p2align 2,,3
 234              		.global	__set_PRIMASK
 235              		.syntax unified
 236              		.thumb
 237              		.thumb_func
 553:../../source/src/CMSIS/core_cm3.c ****   __ASM volatile ("MSR primask, %0" : : "r" (priMask) );
 238              		.fpu softvfp
 239              		.type	__set_PRIMASK, %function
 240              	__set_PRIMASK:
 241 0038 80F31088 	.LFB7:
 242              		.loc 1 552 0
 554:../../source/src/CMSIS/core_cm3.c **** }
 243              		.cfi_startproc
 244              		@ args = 0, pretend = 0, frame = 0
ARM GAS  G:\Users\Jaxb\AppData\Local\Temp\cccIH5Mc.s 			page 15


 245              		@ frame_needed = 0, uses_anonymous_args = 0
 246 003c 7047     		@ link register save eliminated.
 247              	.LVL11:
 248              		.loc 1 553 0
 249              		.syntax unified
 250              	@ 553 "../../source/src/CMSIS/core_cm3.c" 1
 251 003e 00BF     		MSR primask, r0
 252              	@ 0 "" 2
 253              		.loc 1 554 0
 254              		.thumb
 255              		.syntax unified
 256              		bx	lr
 257              		.cfi_endproc
 258              	.LFE7:
 259              		.size	__set_PRIMASK, .-__set_PRIMASK
 555:../../source/src/CMSIS/core_cm3.c **** 
 556:../../source/src/CMSIS/core_cm3.c **** /**
 557:../../source/src/CMSIS/core_cm3.c ****  * @brief  Return the Fault Mask value
 558:../../source/src/CMSIS/core_cm3.c ****  *
 559:../../source/src/CMSIS/core_cm3.c ****  * @return FaultMask
 560:../../source/src/CMSIS/core_cm3.c ****  *
 561:../../source/src/CMSIS/core_cm3.c ****  * Return the content of the fault mask register
 562:../../source/src/CMSIS/core_cm3.c ****  */
 563:../../source/src/CMSIS/core_cm3.c **** uint32_t __get_FAULTMASK(void)
 564:../../source/src/CMSIS/core_cm3.c **** {
 260              		.align	1
 261              		.p2align 2,,3
 262              		.global	__get_FAULTMASK
 263              		.syntax unified
 264              		.thumb
 265              		.thumb_func
 565:../../source/src/CMSIS/core_cm3.c ****   uint32_t result=0;
 566:../../source/src/CMSIS/core_cm3.c ****   
 567:../../source/src/CMSIS/core_cm3.c ****   __ASM volatile ("MRS %0, faultmask" : "=r" (result) );
 266              		.fpu softvfp
 267              		.type	__get_FAULTMASK, %function
 268              	__get_FAULTMASK:
 269 0040 EFF31380 	.LFB8:
 270              		.loc 1 564 0
 271              		.cfi_startproc
 568:../../source/src/CMSIS/core_cm3.c ****   return(result);
 569:../../source/src/CMSIS/core_cm3.c **** }
 272              		@ args = 0, pretend = 0, frame = 0
 273              		@ frame_needed = 0, uses_anonymous_args = 0
 274              		@ link register save eliminated.
 275 0044 7047     	.LVL12:
 276              		.loc 1 567 0
 277              		.syntax unified
 278              	@ 567 "../../source/src/CMSIS/core_cm3.c" 1
 279              		MRS r0, faultmask
 280 0046 00BF     	@ 0 "" 2
 281              	.LVL13:
 282              		.loc 1 569 0
 283              		.thumb
 284              		.syntax unified
 285              		bx	lr
 286              		.cfi_endproc
ARM GAS  G:\Users\Jaxb\AppData\Local\Temp\cccIH5Mc.s 			page 16


 287              	.LFE8:
 288              		.size	__get_FAULTMASK, .-__get_FAULTMASK
 570:../../source/src/CMSIS/core_cm3.c **** 
 571:../../source/src/CMSIS/core_cm3.c **** /**
 572:../../source/src/CMSIS/core_cm3.c ****  * @brief  Set the Fault Mask value
 573:../../source/src/CMSIS/core_cm3.c ****  *
 574:../../source/src/CMSIS/core_cm3.c ****  * @param  faultMask  faultMask value
 575:../../source/src/CMSIS/core_cm3.c ****  *
 576:../../source/src/CMSIS/core_cm3.c ****  * Set the fault mask register
 577:../../source/src/CMSIS/core_cm3.c ****  */
 578:../../source/src/CMSIS/core_cm3.c **** void __set_FAULTMASK(uint32_t faultMask)
 579:../../source/src/CMSIS/core_cm3.c **** {
 289              		.align	1
 290              		.p2align 2,,3
 291              		.global	__set_FAULTMASK
 292              		.syntax unified
 293              		.thumb
 294              		.thumb_func
 580:../../source/src/CMSIS/core_cm3.c ****   __ASM volatile ("MSR faultmask, %0" : : "r" (faultMask) );
 295              		.fpu softvfp
 296              		.type	__set_FAULTMASK, %function
 297              	__set_FAULTMASK:
 298 0048 80F31388 	.LFB9:
 299              		.loc 1 579 0
 581:../../source/src/CMSIS/core_cm3.c **** }
 300              		.cfi_startproc
 301              		@ args = 0, pretend = 0, frame = 0
 302              		@ frame_needed = 0, uses_anonymous_args = 0
 303 004c 7047     		@ link register save eliminated.
 304              	.LVL14:
 305              		.loc 1 580 0
 306              		.syntax unified
 307              	@ 580 "../../source/src/CMSIS/core_cm3.c" 1
 308 004e 00BF     		MSR faultmask, r0
 309              	@ 0 "" 2
 310              		.loc 1 581 0
 311              		.thumb
 312              		.syntax unified
 313              		bx	lr
 314              		.cfi_endproc
 315              	.LFE9:
 316              		.size	__set_FAULTMASK, .-__set_FAULTMASK
 582:../../source/src/CMSIS/core_cm3.c **** 
 583:../../source/src/CMSIS/core_cm3.c **** /**
 584:../../source/src/CMSIS/core_cm3.c ****  * @brief  Return the Control Register value
 585:../../source/src/CMSIS/core_cm3.c **** * 
 586:../../source/src/CMSIS/core_cm3.c **** *  @return Control value
 587:../../source/src/CMSIS/core_cm3.c ****  *
 588:../../source/src/CMSIS/core_cm3.c ****  * Return the content of the control register
 589:../../source/src/CMSIS/core_cm3.c ****  */
 590:../../source/src/CMSIS/core_cm3.c **** uint32_t __get_CONTROL(void)
 591:../../source/src/CMSIS/core_cm3.c **** {
 317              		.align	1
 318              		.p2align 2,,3
 319              		.global	__get_CONTROL
 320              		.syntax unified
 321              		.thumb
ARM GAS  G:\Users\Jaxb\AppData\Local\Temp\cccIH5Mc.s 			page 17


 322              		.thumb_func
 592:../../source/src/CMSIS/core_cm3.c ****   uint32_t result=0;
 593:../../source/src/CMSIS/core_cm3.c **** 
 594:../../source/src/CMSIS/core_cm3.c ****   __ASM volatile ("MRS %0, control" : "=r" (result) );
 323              		.fpu softvfp
 324              		.type	__get_CONTROL, %function
 325              	__get_CONTROL:
 326 0050 EFF31480 	.LFB10:
 327              		.loc 1 591 0
 328              		.cfi_startproc
 595:../../source/src/CMSIS/core_cm3.c ****   return(result);
 596:../../source/src/CMSIS/core_cm3.c **** }
 329              		@ args = 0, pretend = 0, frame = 0
 330              		@ frame_needed = 0, uses_anonymous_args = 0
 331              		@ link register save eliminated.
 332 0054 7047     	.LVL15:
 333              		.loc 1 594 0
 334              		.syntax unified
 335              	@ 594 "../../source/src/CMSIS/core_cm3.c" 1
 336              		MRS r0, control
 337 0056 00BF     	@ 0 "" 2
 338              	.LVL16:
 339              		.loc 1 596 0
 340              		.thumb
 341              		.syntax unified
 342              		bx	lr
 343              		.cfi_endproc
 344              	.LFE10:
 345              		.size	__get_CONTROL, .-__get_CONTROL
 597:../../source/src/CMSIS/core_cm3.c **** 
 598:../../source/src/CMSIS/core_cm3.c **** /**
 599:../../source/src/CMSIS/core_cm3.c ****  * @brief  Set the Control Register value
 600:../../source/src/CMSIS/core_cm3.c ****  *
 601:../../source/src/CMSIS/core_cm3.c ****  * @param  control  Control value
 602:../../source/src/CMSIS/core_cm3.c ****  *
 603:../../source/src/CMSIS/core_cm3.c ****  * Set the control register
 604:../../source/src/CMSIS/core_cm3.c ****  */
 605:../../source/src/CMSIS/core_cm3.c **** void __set_CONTROL(uint32_t control)
 606:../../source/src/CMSIS/core_cm3.c **** {
 346              		.align	1
 347              		.p2align 2,,3
 348              		.global	__set_CONTROL
 349              		.syntax unified
 350              		.thumb
 351              		.thumb_func
 607:../../source/src/CMSIS/core_cm3.c ****   __ASM volatile ("MSR control, %0" : : "r" (control) );
 352              		.fpu softvfp
 353              		.type	__set_CONTROL, %function
 354              	__set_CONTROL:
 355 0058 80F31488 	.LFB11:
 356              		.loc 1 606 0
 608:../../source/src/CMSIS/core_cm3.c **** }
 357              		.cfi_startproc
 358              		@ args = 0, pretend = 0, frame = 0
 359              		@ frame_needed = 0, uses_anonymous_args = 0
 360 005c 7047     		@ link register save eliminated.
 361              	.LVL17:
ARM GAS  G:\Users\Jaxb\AppData\Local\Temp\cccIH5Mc.s 			page 18


 362              		.loc 1 607 0
 363              		.syntax unified
 364              	@ 607 "../../source/src/CMSIS/core_cm3.c" 1
 365 005e 00BF     		MSR control, r0
 366              	@ 0 "" 2
 367              		.loc 1 608 0
 368              		.thumb
 369              		.syntax unified
 370              		bx	lr
 371              		.cfi_endproc
 372              	.LFE11:
 373              		.size	__set_CONTROL, .-__set_CONTROL
 609:../../source/src/CMSIS/core_cm3.c **** 
 610:../../source/src/CMSIS/core_cm3.c **** 
 611:../../source/src/CMSIS/core_cm3.c **** /**
 612:../../source/src/CMSIS/core_cm3.c ****  * @brief  Reverse byte order in integer value
 613:../../source/src/CMSIS/core_cm3.c ****  *
 614:../../source/src/CMSIS/core_cm3.c ****  * @param  value  value to reverse
 615:../../source/src/CMSIS/core_cm3.c ****  * @return        reversed value
 616:../../source/src/CMSIS/core_cm3.c ****  *
 617:../../source/src/CMSIS/core_cm3.c ****  * Reverse byte order in integer value
 618:../../source/src/CMSIS/core_cm3.c ****  */
 619:../../source/src/CMSIS/core_cm3.c **** uint32_t __REV(uint32_t value)
 620:../../source/src/CMSIS/core_cm3.c **** {
 374              		.align	1
 375              		.p2align 2,,3
 376              		.global	__REV
 377              		.syntax unified
 378              		.thumb
 379              		.thumb_func
 621:../../source/src/CMSIS/core_cm3.c ****   uint32_t result=0;
 622:../../source/src/CMSIS/core_cm3.c ****   
 623:../../source/src/CMSIS/core_cm3.c ****   __ASM volatile ("rev %0, %1" : "=r" (result) : "r" (value) );
 380              		.fpu softvfp
 381              		.type	__REV, %function
 382              	__REV:
 383 0060 00BA     	.LFB12:
 384              		.loc 1 620 0
 385              		.cfi_startproc
 624:../../source/src/CMSIS/core_cm3.c ****   return(result);
 625:../../source/src/CMSIS/core_cm3.c **** }
 386              		@ args = 0, pretend = 0, frame = 0
 387              		@ frame_needed = 0, uses_anonymous_args = 0
 388              		@ link register save eliminated.
 389 0062 7047     	.LVL18:
 390              		.loc 1 623 0
 391              		.syntax unified
 392              	@ 623 "../../source/src/CMSIS/core_cm3.c" 1
 393              		rev r0, r0
 394              	@ 0 "" 2
 395              	.LVL19:
 396              		.loc 1 625 0
 397              		.thumb
 398              		.syntax unified
 399              		bx	lr
 400              		.cfi_endproc
 401              	.LFE12:
ARM GAS  G:\Users\Jaxb\AppData\Local\Temp\cccIH5Mc.s 			page 19


 402              		.size	__REV, .-__REV
 626:../../source/src/CMSIS/core_cm3.c **** 
 627:../../source/src/CMSIS/core_cm3.c **** /**
 628:../../source/src/CMSIS/core_cm3.c ****  * @brief  Reverse byte order in unsigned short value
 629:../../source/src/CMSIS/core_cm3.c ****  *
 630:../../source/src/CMSIS/core_cm3.c ****  * @param  value  value to reverse
 631:../../source/src/CMSIS/core_cm3.c ****  * @return        reversed value
 632:../../source/src/CMSIS/core_cm3.c ****  *
 633:../../source/src/CMSIS/core_cm3.c ****  * Reverse byte order in unsigned short value
 634:../../source/src/CMSIS/core_cm3.c ****  */
 635:../../source/src/CMSIS/core_cm3.c **** uint32_t __REV16(uint16_t value)
 636:../../source/src/CMSIS/core_cm3.c **** {
 403              		.align	1
 404              		.p2align 2,,3
 405              		.global	__REV16
 406              		.syntax unified
 407              		.thumb
 408              		.thumb_func
 637:../../source/src/CMSIS/core_cm3.c ****   uint32_t result=0;
 638:../../source/src/CMSIS/core_cm3.c ****   
 639:../../source/src/CMSIS/core_cm3.c ****   __ASM volatile ("rev16 %0, %1" : "=r" (result) : "r" (value) );
 409              		.fpu softvfp
 410              		.type	__REV16, %function
 411              	__REV16:
 412 0064 40BA     	.LFB13:
 413              		.loc 1 636 0
 414              		.cfi_startproc
 640:../../source/src/CMSIS/core_cm3.c ****   return(result);
 641:../../source/src/CMSIS/core_cm3.c **** }
 415              		@ args = 0, pretend = 0, frame = 0
 416              		@ frame_needed = 0, uses_anonymous_args = 0
 417              		@ link register save eliminated.
 418 0066 7047     	.LVL20:
 419              		.loc 1 639 0
 420              		.syntax unified
 421              	@ 639 "../../source/src/CMSIS/core_cm3.c" 1
 422              		rev16 r0, r0
 423              	@ 0 "" 2
 424              	.LVL21:
 425              		.loc 1 641 0
 426              		.thumb
 427              		.syntax unified
 428              		bx	lr
 429              		.cfi_endproc
 430              	.LFE13:
 431              		.size	__REV16, .-__REV16
 642:../../source/src/CMSIS/core_cm3.c **** 
 643:../../source/src/CMSIS/core_cm3.c **** /**
 644:../../source/src/CMSIS/core_cm3.c ****  * @brief  Reverse byte order in signed short value with sign extension to integer
 645:../../source/src/CMSIS/core_cm3.c ****  *
 646:../../source/src/CMSIS/core_cm3.c ****  * @param  value  value to reverse
 647:../../source/src/CMSIS/core_cm3.c ****  * @return        reversed value
 648:../../source/src/CMSIS/core_cm3.c ****  *
 649:../../source/src/CMSIS/core_cm3.c ****  * Reverse byte order in signed short value with sign extension to integer
 650:../../source/src/CMSIS/core_cm3.c ****  */
 651:../../source/src/CMSIS/core_cm3.c **** int32_t __REVSH(int16_t value)
 652:../../source/src/CMSIS/core_cm3.c **** {
ARM GAS  G:\Users\Jaxb\AppData\Local\Temp\cccIH5Mc.s 			page 20


 432              		.align	1
 433              		.p2align 2,,3
 434              		.global	__REVSH
 435              		.syntax unified
 436              		.thumb
 437              		.thumb_func
 653:../../source/src/CMSIS/core_cm3.c ****   uint32_t result=0;
 654:../../source/src/CMSIS/core_cm3.c ****   
 655:../../source/src/CMSIS/core_cm3.c ****   __ASM volatile ("revsh %0, %1" : "=r" (result) : "r" (value) );
 438              		.fpu softvfp
 439              		.type	__REVSH, %function
 440              	__REVSH:
 441 0068 C0BA     	.LFB14:
 442              		.loc 1 652 0
 443              		.cfi_startproc
 656:../../source/src/CMSIS/core_cm3.c ****   return(result);
 657:../../source/src/CMSIS/core_cm3.c **** }
 444              		@ args = 0, pretend = 0, frame = 0
 445              		@ frame_needed = 0, uses_anonymous_args = 0
 446              		@ link register save eliminated.
 447 006a 7047     	.LVL22:
 448              		.loc 1 655 0
 449              		.syntax unified
 450              	@ 655 "../../source/src/CMSIS/core_cm3.c" 1
 451              		revsh r0, r0
 452              	@ 0 "" 2
 453              	.LVL23:
 454              		.loc 1 657 0
 455              		.thumb
 456              		.syntax unified
 457              		bx	lr
 458              		.cfi_endproc
 459              	.LFE14:
 460              		.size	__REVSH, .-__REVSH
 658:../../source/src/CMSIS/core_cm3.c **** 
 659:../../source/src/CMSIS/core_cm3.c **** /**
 660:../../source/src/CMSIS/core_cm3.c ****  * @brief  Reverse bit order of value
 661:../../source/src/CMSIS/core_cm3.c ****  *
 662:../../source/src/CMSIS/core_cm3.c ****  * @param  value  value to reverse
 663:../../source/src/CMSIS/core_cm3.c ****  * @return        reversed value
 664:../../source/src/CMSIS/core_cm3.c ****  *
 665:../../source/src/CMSIS/core_cm3.c ****  * Reverse bit order of value
 666:../../source/src/CMSIS/core_cm3.c ****  */
 667:../../source/src/CMSIS/core_cm3.c **** uint32_t __RBIT(uint32_t value)
 668:../../source/src/CMSIS/core_cm3.c **** {
 461              		.align	1
 462              		.p2align 2,,3
 463              		.global	__RBIT
 464              		.syntax unified
 465              		.thumb
 466              		.thumb_func
 669:../../source/src/CMSIS/core_cm3.c ****   uint32_t result=0;
 670:../../source/src/CMSIS/core_cm3.c ****   
 671:../../source/src/CMSIS/core_cm3.c ****    __ASM volatile ("rbit %0, %1" : "=r" (result) : "r" (value) );
 467              		.fpu softvfp
 468              		.type	__RBIT, %function
 469              	__RBIT:
ARM GAS  G:\Users\Jaxb\AppData\Local\Temp\cccIH5Mc.s 			page 21


 470 006c 90FAA0F0 	.LFB15:
 471              		.loc 1 668 0
 472              		.cfi_startproc
 672:../../source/src/CMSIS/core_cm3.c ****    return(result);
 673:../../source/src/CMSIS/core_cm3.c **** }
 473              		@ args = 0, pretend = 0, frame = 0
 474              		@ frame_needed = 0, uses_anonymous_args = 0
 475              		@ link register save eliminated.
 476 0070 7047     	.LVL24:
 477              		.loc 1 671 0
 478              		.syntax unified
 479              	@ 671 "../../source/src/CMSIS/core_cm3.c" 1
 480              		rbit r0, r0
 481 0072 00BF     	@ 0 "" 2
 482              	.LVL25:
 483              		.loc 1 673 0
 484              		.thumb
 485              		.syntax unified
 486              		bx	lr
 487              		.cfi_endproc
 488              	.LFE15:
 489              		.size	__RBIT, .-__RBIT
 674:../../source/src/CMSIS/core_cm3.c **** 
 675:../../source/src/CMSIS/core_cm3.c **** /**
 676:../../source/src/CMSIS/core_cm3.c ****  * @brief  LDR Exclusive (8 bit)
 677:../../source/src/CMSIS/core_cm3.c ****  *
 678:../../source/src/CMSIS/core_cm3.c ****  * @param  *addr  address pointer
 679:../../source/src/CMSIS/core_cm3.c ****  * @return        value of (*address)
 680:../../source/src/CMSIS/core_cm3.c ****  *
 681:../../source/src/CMSIS/core_cm3.c ****  * Exclusive LDR command for 8 bit value
 682:../../source/src/CMSIS/core_cm3.c ****  */
 683:../../source/src/CMSIS/core_cm3.c **** uint8_t __LDREXB(uint8_t *addr)
 684:../../source/src/CMSIS/core_cm3.c **** {
 490              		.align	1
 491              		.p2align 2,,3
 492              		.global	__LDREXB
 493              		.syntax unified
 494              		.thumb
 495              		.thumb_func
 685:../../source/src/CMSIS/core_cm3.c ****     uint8_t result=0;
 686:../../source/src/CMSIS/core_cm3.c ****   
 687:../../source/src/CMSIS/core_cm3.c ****    __ASM volatile ("ldrexb %0, [%1]" : "=r" (result) : "r" (addr) );
 496              		.fpu softvfp
 497              		.type	__LDREXB, %function
 498              	__LDREXB:
 499 0074 D0E84F0F 	.LFB16:
 500              		.loc 1 684 0
 501              		.cfi_startproc
 688:../../source/src/CMSIS/core_cm3.c ****    return(result);
 689:../../source/src/CMSIS/core_cm3.c **** }
 502              		@ args = 0, pretend = 0, frame = 0
 503              		@ frame_needed = 0, uses_anonymous_args = 0
 504              		@ link register save eliminated.
 505 0078 C0B2     	.LVL26:
 506 007a 7047     		.loc 1 687 0
 507              		.syntax unified
 508              	@ 687 "../../source/src/CMSIS/core_cm3.c" 1
ARM GAS  G:\Users\Jaxb\AppData\Local\Temp\cccIH5Mc.s 			page 22


 509              		ldrexb r0, [r0]
 510              	@ 0 "" 2
 511              	.LVL27:
 512              		.loc 1 689 0
 513              		.thumb
 514              		.syntax unified
 515              		uxtb	r0, r0
 516              		bx	lr
 517              		.cfi_endproc
 518              	.LFE16:
 519              		.size	__LDREXB, .-__LDREXB
 690:../../source/src/CMSIS/core_cm3.c **** 
 691:../../source/src/CMSIS/core_cm3.c **** /**
 692:../../source/src/CMSIS/core_cm3.c ****  * @brief  LDR Exclusive (16 bit)
 693:../../source/src/CMSIS/core_cm3.c ****  *
 694:../../source/src/CMSIS/core_cm3.c ****  * @param  *addr  address pointer
 695:../../source/src/CMSIS/core_cm3.c ****  * @return        value of (*address)
 696:../../source/src/CMSIS/core_cm3.c ****  *
 697:../../source/src/CMSIS/core_cm3.c ****  * Exclusive LDR command for 16 bit values
 698:../../source/src/CMSIS/core_cm3.c ****  */
 699:../../source/src/CMSIS/core_cm3.c **** uint16_t __LDREXH(uint16_t *addr)
 700:../../source/src/CMSIS/core_cm3.c **** {
 520              		.align	1
 521              		.p2align 2,,3
 522              		.global	__LDREXH
 523              		.syntax unified
 524              		.thumb
 525              		.thumb_func
 701:../../source/src/CMSIS/core_cm3.c ****     uint16_t result=0;
 702:../../source/src/CMSIS/core_cm3.c ****   
 703:../../source/src/CMSIS/core_cm3.c ****    __ASM volatile ("ldrexh %0, [%1]" : "=r" (result) : "r" (addr) );
 526              		.fpu softvfp
 527              		.type	__LDREXH, %function
 528              	__LDREXH:
 529 007c D0E85F0F 	.LFB17:
 530              		.loc 1 700 0
 531              		.cfi_startproc
 704:../../source/src/CMSIS/core_cm3.c ****    return(result);
 705:../../source/src/CMSIS/core_cm3.c **** }
 532              		@ args = 0, pretend = 0, frame = 0
 533              		@ frame_needed = 0, uses_anonymous_args = 0
 534              		@ link register save eliminated.
 535 0080 80B2     	.LVL28:
 536 0082 7047     		.loc 1 703 0
 537              		.syntax unified
 538              	@ 703 "../../source/src/CMSIS/core_cm3.c" 1
 539              		ldrexh r0, [r0]
 540              	@ 0 "" 2
 541              	.LVL29:
 542              		.loc 1 705 0
 543              		.thumb
 544              		.syntax unified
 545              		uxth	r0, r0
 546              		bx	lr
 547              		.cfi_endproc
 548              	.LFE17:
 549              		.size	__LDREXH, .-__LDREXH
ARM GAS  G:\Users\Jaxb\AppData\Local\Temp\cccIH5Mc.s 			page 23


 706:../../source/src/CMSIS/core_cm3.c **** 
 707:../../source/src/CMSIS/core_cm3.c **** /**
 708:../../source/src/CMSIS/core_cm3.c ****  * @brief  LDR Exclusive (32 bit)
 709:../../source/src/CMSIS/core_cm3.c ****  *
 710:../../source/src/CMSIS/core_cm3.c ****  * @param  *addr  address pointer
 711:../../source/src/CMSIS/core_cm3.c ****  * @return        value of (*address)
 712:../../source/src/CMSIS/core_cm3.c ****  *
 713:../../source/src/CMSIS/core_cm3.c ****  * Exclusive LDR command for 32 bit values
 714:../../source/src/CMSIS/core_cm3.c ****  */
 715:../../source/src/CMSIS/core_cm3.c **** uint32_t __LDREXW(uint32_t *addr)
 716:../../source/src/CMSIS/core_cm3.c **** {
 550              		.align	1
 551              		.p2align 2,,3
 552              		.global	__LDREXW
 553              		.syntax unified
 554              		.thumb
 555              		.thumb_func
 717:../../source/src/CMSIS/core_cm3.c ****     uint32_t result=0;
 718:../../source/src/CMSIS/core_cm3.c ****   
 719:../../source/src/CMSIS/core_cm3.c ****    __ASM volatile ("ldrex %0, [%1]" : "=r" (result) : "r" (addr) );
 556              		.fpu softvfp
 557              		.type	__LDREXW, %function
 558              	__LDREXW:
 559 0084 50E8000F 	.LFB18:
 560              		.loc 1 716 0
 561              		.cfi_startproc
 720:../../source/src/CMSIS/core_cm3.c ****    return(result);
 721:../../source/src/CMSIS/core_cm3.c **** }
 562              		@ args = 0, pretend = 0, frame = 0
 563              		@ frame_needed = 0, uses_anonymous_args = 0
 564              		@ link register save eliminated.
 565 0088 7047     	.LVL30:
 566              		.loc 1 719 0
 567              		.syntax unified
 568              	@ 719 "../../source/src/CMSIS/core_cm3.c" 1
 569              		ldrex r0, [r0]
 570 008a 00BF     	@ 0 "" 2
 571              	.LVL31:
 572              		.loc 1 721 0
 573              		.thumb
 574              		.syntax unified
 575              		bx	lr
 576              		.cfi_endproc
 577              	.LFE18:
 578              		.size	__LDREXW, .-__LDREXW
 722:../../source/src/CMSIS/core_cm3.c **** 
 723:../../source/src/CMSIS/core_cm3.c **** /**
 724:../../source/src/CMSIS/core_cm3.c ****  * @brief  STR Exclusive (8 bit)
 725:../../source/src/CMSIS/core_cm3.c ****  *
 726:../../source/src/CMSIS/core_cm3.c ****  * @param  value  value to store
 727:../../source/src/CMSIS/core_cm3.c ****  * @param  *addr  address pointer
 728:../../source/src/CMSIS/core_cm3.c ****  * @return        successful / failed
 729:../../source/src/CMSIS/core_cm3.c ****  *
 730:../../source/src/CMSIS/core_cm3.c ****  * Exclusive STR command for 8 bit values
 731:../../source/src/CMSIS/core_cm3.c ****  */
 732:../../source/src/CMSIS/core_cm3.c **** uint32_t __STREXB(uint8_t value, uint8_t *addr)
 733:../../source/src/CMSIS/core_cm3.c **** {
ARM GAS  G:\Users\Jaxb\AppData\Local\Temp\cccIH5Mc.s 			page 24


 579              		.align	1
 580              		.p2align 2,,3
 581              		.global	__STREXB
 582              		.syntax unified
 583              		.thumb
 584              		.thumb_func
 734:../../source/src/CMSIS/core_cm3.c ****    uint32_t result=0;
 735:../../source/src/CMSIS/core_cm3.c ****   
 736:../../source/src/CMSIS/core_cm3.c ****    __ASM volatile ("strexb %0, %2, [%1]" : "=&r" (result) : "r" (addr), "r" (value) );
 585              		.fpu softvfp
 586              		.type	__STREXB, %function
 587              	__STREXB:
 588 008c C1E8430F 	.LFB19:
 589              		.loc 1 733 0
 590              		.cfi_startproc
 591              		@ args = 0, pretend = 0, frame = 0
 592              		@ frame_needed = 0, uses_anonymous_args = 0
 593 0090 1846     		@ link register save eliminated.
 594              	.LVL32:
 737:../../source/src/CMSIS/core_cm3.c ****    return(result);
 738:../../source/src/CMSIS/core_cm3.c **** }
 595              		.loc 1 736 0
 596 0092 7047     		.syntax unified
 597              	@ 736 "../../source/src/CMSIS/core_cm3.c" 1
 598              		strexb r3, r0, [r1]
 599              	@ 0 "" 2
 600              	.LVL33:
 601              		.thumb
 602              		.syntax unified
 603              		mov	r0, r3
 604              	.LVL34:
 605              		.loc 1 738 0
 606              		bx	lr
 607              		.cfi_endproc
 608              	.LFE19:
 609              		.size	__STREXB, .-__STREXB
 739:../../source/src/CMSIS/core_cm3.c **** 
 740:../../source/src/CMSIS/core_cm3.c **** /**
 741:../../source/src/CMSIS/core_cm3.c ****  * @brief  STR Exclusive (16 bit)
 742:../../source/src/CMSIS/core_cm3.c ****  *
 743:../../source/src/CMSIS/core_cm3.c ****  * @param  value  value to store
 744:../../source/src/CMSIS/core_cm3.c ****  * @param  *addr  address pointer
 745:../../source/src/CMSIS/core_cm3.c ****  * @return        successful / failed
 746:../../source/src/CMSIS/core_cm3.c ****  *
 747:../../source/src/CMSIS/core_cm3.c ****  * Exclusive STR command for 16 bit values
 748:../../source/src/CMSIS/core_cm3.c ****  */
 749:../../source/src/CMSIS/core_cm3.c **** uint32_t __STREXH(uint16_t value, uint16_t *addr)
 750:../../source/src/CMSIS/core_cm3.c **** {
 610              		.align	1
 611              		.p2align 2,,3
 612              		.global	__STREXH
 613              		.syntax unified
 614              		.thumb
 615              		.thumb_func
 751:../../source/src/CMSIS/core_cm3.c ****    uint32_t result=0;
 752:../../source/src/CMSIS/core_cm3.c ****   
 753:../../source/src/CMSIS/core_cm3.c ****    __ASM volatile ("strexh %0, %2, [%1]" : "=&r" (result) : "r" (addr), "r" (value) );
ARM GAS  G:\Users\Jaxb\AppData\Local\Temp\cccIH5Mc.s 			page 25


 616              		.fpu softvfp
 617              		.type	__STREXH, %function
 618              	__STREXH:
 619 0094 C1E8530F 	.LFB20:
 620              		.loc 1 750 0
 621              		.cfi_startproc
 622              		@ args = 0, pretend = 0, frame = 0
 623              		@ frame_needed = 0, uses_anonymous_args = 0
 624 0098 1846     		@ link register save eliminated.
 625              	.LVL35:
 754:../../source/src/CMSIS/core_cm3.c ****    return(result);
 755:../../source/src/CMSIS/core_cm3.c **** }
 626              		.loc 1 753 0
 627 009a 7047     		.syntax unified
 628              	@ 753 "../../source/src/CMSIS/core_cm3.c" 1
 629              		strexh r3, r0, [r1]
 630              	@ 0 "" 2
 631              	.LVL36:
 632              		.thumb
 633              		.syntax unified
 634              		mov	r0, r3
 635              	.LVL37:
 636              		.loc 1 755 0
 637              		bx	lr
 638              		.cfi_endproc
 639              	.LFE20:
 640              		.size	__STREXH, .-__STREXH
 756:../../source/src/CMSIS/core_cm3.c **** 
 757:../../source/src/CMSIS/core_cm3.c **** /**
 758:../../source/src/CMSIS/core_cm3.c ****  * @brief  STR Exclusive (32 bit)
 759:../../source/src/CMSIS/core_cm3.c ****  *
 760:../../source/src/CMSIS/core_cm3.c ****  * @param  value  value to store
 761:../../source/src/CMSIS/core_cm3.c ****  * @param  *addr  address pointer
 762:../../source/src/CMSIS/core_cm3.c ****  * @return        successful / failed
 763:../../source/src/CMSIS/core_cm3.c ****  *
 764:../../source/src/CMSIS/core_cm3.c ****  * Exclusive STR command for 32 bit values
 765:../../source/src/CMSIS/core_cm3.c ****  */
 766:../../source/src/CMSIS/core_cm3.c **** uint32_t __STREXW(uint32_t value, uint32_t *addr)
 767:../../source/src/CMSIS/core_cm3.c **** {
 641              		.align	1
 642              		.p2align 2,,3
 643              		.global	__STREXW
 644              		.syntax unified
 645              		.thumb
 646              		.thumb_func
 768:../../source/src/CMSIS/core_cm3.c ****    uint32_t result=0;
 769:../../source/src/CMSIS/core_cm3.c ****   
 770:../../source/src/CMSIS/core_cm3.c ****    __ASM volatile ("strex %0, %2, [%1]" : "=r" (result) : "r" (addr), "r" (value) );
 647              		.fpu softvfp
 648              		.type	__STREXW, %function
 649              	__STREXW:
 650 009c 41E80000 	.LFB21:
 651              		.loc 1 767 0
 652              		.cfi_startproc
 771:../../source/src/CMSIS/core_cm3.c ****    return(result);
 772:../../source/src/CMSIS/core_cm3.c **** }
 653              		@ args = 0, pretend = 0, frame = 0
ARM GAS  G:\Users\Jaxb\AppData\Local\Temp\cccIH5Mc.s 			page 26


 654              		@ frame_needed = 0, uses_anonymous_args = 0
 655              		@ link register save eliminated.
 656 00a0 7047     	.LVL38:
 657              		.loc 1 770 0
 658              		.syntax unified
 659              	@ 770 "../../source/src/CMSIS/core_cm3.c" 1
 660              		strex r0, r0, [r1]
 661              	@ 0 "" 2
 662              	.LVL39:
 663 00a2 00BF     		.loc 1 772 0
 664              		.thumb
 665 0000 98050000 		.syntax unified
 666 0004 0200     		bx	lr
 667 0006 00000000 		.cfi_endproc
 668 000a 04       	.LFE21:
 669 000b 01       		.size	__STREXW, .-__STREXW
 670 000c 06020000 	.Letext0:
 671 0010 0C       		.file 2 "f:\\arm\\gcc2018\\arm-none-eabi\\include\\machine\\_default_types.h"
 672 0011 23010000 		.file 3 "f:\\arm\\gcc2018\\arm-none-eabi\\include\\sys\\_stdint.h"