ARM GAS  G:\Users\Jaxb\AppData\Local\Temp\ccdZeC8x.s 			page 1


   1              		.cpu cortex-m3
   2              		.eabi_attribute 20, 1
   3              		.eabi_attribute 21, 1
   4              		.eabi_attribute 23, 3
   5              		.eabi_attribute 24, 1
   6              		.eabi_attribute 25, 1
   7              		.eabi_attribute 26, 1
   8              		.eabi_attribute 30, 6
   9              		.eabi_attribute 34, 1
  10              		.eabi_attribute 18, 4
  11              		.file	"export.c"
  12              		.text
  13              	.Ltext0:
  14              		.cfi_sections	.debug_frame
  15              		.section	.rodata
  16              		.align	2
  17              	.LC0:
  18 0000 2E2E2F2E 		.ascii	"../../source/src/kernel/OS_CORE/export.c\000"
  18      2E2F736F 
  18      75726365 
  18      2F737263 
  18      2F6B6572 
  19              		.text
  20              		.align	1
  21              		.global	get_export_function_addr
  22              		.syntax unified
  23              		.thumb
  24              		.thumb_func
  25              		.fpu softvfp
  26              		.type	get_export_function_addr, %function
  27              	get_export_function_addr:
  28              	.LFB0:
  29              		.file 1 "../../source/src/kernel/OS_CORE/export.c"
   1:../../source/src/kernel/OS_CORE/export.c **** #include <export.h>
   2:../../source/src/kernel/OS_CORE/export.c **** #include <myMicroLIB.h>
   3:../../source/src/kernel/OS_CORE/export.c **** #include <myassert.h>
   4:../../source/src/kernel/OS_CORE/export.c **** 
   5:../../source/src/kernel/OS_CORE/export.c **** extern unsigned long _ka_module_symtab_begin;
   6:../../source/src/kernel/OS_CORE/export.c **** extern unsigned long _ka_module_symtab_end;
   7:../../source/src/kernel/OS_CORE/export.c **** 
   8:../../source/src/kernel/OS_CORE/export.c **** UINT32 get_export_function_addr(const char *fun_name)
   9:../../source/src/kernel/OS_CORE/export.c **** {
  30              		.loc 1 9 0
  31              		.cfi_startproc
  32              		@ args = 0, pretend = 0, frame = 16
  33              		@ frame_needed = 1, uses_anonymous_args = 0
  34 0000 80B5     		push	{r7, lr}
  35              	.LCFI0:
  36              		.cfi_def_cfa_offset 8
  37              		.cfi_offset 7, -8
  38              		.cfi_offset 14, -4
  39 0002 84B0     		sub	sp, sp, #16
  40              	.LCFI1:
  41              		.cfi_def_cfa_offset 24
  42 0004 00AF     		add	r7, sp, #0
  43              	.LCFI2:
  44              		.cfi_def_cfa_register 7
ARM GAS  G:\Users\Jaxb\AppData\Local\Temp\ccdZeC8x.s 			page 2


  45 0006 7860     		str	r0, [r7, #4]
  10:../../source/src/kernel/OS_CORE/export.c **** 	ASSERT(NULL != fun_name);
  46              		.loc 1 10 0
  47 0008 7B68     		ldr	r3, [r7, #4]
  48 000a 002B     		cmp	r3, #0
  49 000c 03D1     		bne	.L2
  50              		.loc 1 10 0 is_stmt 0 discriminator 1
  51 000e 0A21     		movs	r1, #10
  52 0010 0E48     		ldr	r0, .L7
  53 0012 FFF7FEFF 		bl	_ASSERT
  54              	.L2:
  11:../../source/src/kernel/OS_CORE/export.c **** 	struct ka_module_symtab *index;
  12:../../source/src/kernel/OS_CORE/export.c **** 
  13:../../source/src/kernel/OS_CORE/export.c ****     for (index = (struct ka_module_symtab *)(&_ka_module_symtab_begin);
  55              		.loc 1 13 0 is_stmt 1
  56 0016 0E4B     		ldr	r3, .L7+4
  57 0018 FB60     		str	r3, [r7, #12]
  58 001a 0EE0     		b	.L3
  59              	.L6:
  14:../../source/src/kernel/OS_CORE/export.c ****             index != (struct ka_module_symtab *)(&_ka_module_symtab_end); index ++)
  15:../../source/src/kernel/OS_CORE/export.c ****     {
  16:../../source/src/kernel/OS_CORE/export.c ****         if (0 == ka_strcmp(index->name, fun_name))
  60              		.loc 1 16 0
  61 001c FB68     		ldr	r3, [r7, #12]
  62 001e 5B68     		ldr	r3, [r3, #4]
  63 0020 7968     		ldr	r1, [r7, #4]
  64 0022 1846     		mov	r0, r3
  65 0024 FFF7FEFF 		bl	ka_strcmp
  66 0028 0346     		mov	r3, r0
  67 002a 002B     		cmp	r3, #0
  68 002c 02D1     		bne	.L4
  17:../../source/src/kernel/OS_CORE/export.c ****             return (UINT32)index->addr;
  69              		.loc 1 17 0
  70 002e FB68     		ldr	r3, [r7, #12]
  71 0030 1B68     		ldr	r3, [r3]
  72 0032 07E0     		b	.L5
  73              	.L4:
  14:../../source/src/kernel/OS_CORE/export.c ****             index != (struct ka_module_symtab *)(&_ka_module_symtab_end); index ++)
  74              		.loc 1 14 0
  75 0034 FB68     		ldr	r3, [r7, #12]
  76 0036 0833     		adds	r3, r3, #8
  77 0038 FB60     		str	r3, [r7, #12]
  78              	.L3:
  13:../../source/src/kernel/OS_CORE/export.c ****             index != (struct ka_module_symtab *)(&_ka_module_symtab_end); index ++)
  79              		.loc 1 13 0 discriminator 1
  80 003a FB68     		ldr	r3, [r7, #12]
  81 003c 054A     		ldr	r2, .L7+8
  82 003e 9342     		cmp	r3, r2
  83 0040 ECD1     		bne	.L6
  18:../../source/src/kernel/OS_CORE/export.c ****     }
  19:../../source/src/kernel/OS_CORE/export.c **** 
  20:../../source/src/kernel/OS_CORE/export.c ****     return 0;
  84              		.loc 1 20 0
  85 0042 0023     		movs	r3, #0
  86              	.L5:
  21:../../source/src/kernel/OS_CORE/export.c **** }
  87              		.loc 1 21 0
ARM GAS  G:\Users\Jaxb\AppData\Local\Temp\ccdZeC8x.s 			page 3


  88 0044 1846     		mov	r0, r3
  89 0046 1037     		adds	r7, r7, #16
  90              	.LCFI3:
  91              		.cfi_def_cfa_offset 8
  92 0048 BD46     		mov	sp, r7
  93              	.LCFI4:
  94              		.cfi_def_cfa_register 13
  95              		@ sp needed
  96 004a 80BD     		pop	{r7, pc}
  97              	.L8:
  98              		.align	2
  99              	.L7:
 100 004c 00000000 		.word	.LC0
 101 0050 00000000 		.word	_ka_module_symtab_begin
 102 0054 00000000 		.word	_ka_module_symtab_end
 103              		.cfi_endproc
 104              	.LFE0:
 105              		.size	get_export_function_addr, .-get_export_function_addr
 106              	.Letext0:
 107              		.file 2 "../../source/include/os_core/export.h"
 108              		.file 3 "../../source/include/os_cpu/kakaosstdint.h"