ARM GAS  G:\Users\Jaxb\AppData\Local\Temp\ccRxvwjH.s 			page 1


   1              		.cpu cortex-m3
   2              		.eabi_attribute 20, 1
   3              		.eabi_attribute 21, 1
   4              		.eabi_attribute 23, 3
   5              		.eabi_attribute 24, 1
   6              		.eabi_attribute 25, 1
   7              		.eabi_attribute 26, 1
   8              		.eabi_attribute 30, 6
   9              		.eabi_attribute 34, 1
  10              		.eabi_attribute 18, 4
  11              		.file	"export.c"
  12              		.text
  13              	.Ltext0:
  14              		.cfi_sections	.debug_frame
  15              		.section	.rodata
  16              		.align	2
  17              	.LC0:
  18 0000 2E2E2F2E 		.ascii	"../../source/src/kernel/OS_CORE/dmodule/export.c\000"
  18      2E2F736F 
  18      75726365 
  18      2F737263 
  18      2F6B6572 
  19              		.text
  20              		.align	1
  21              		.global	_get_sys_export_function_addr
  22              		.syntax unified
  23              		.thumb
  24              		.thumb_func
  25              		.fpu softvfp
  26              		.type	_get_sys_export_function_addr, %function
  27              	_get_sys_export_function_addr:
  28              	.LFB0:
  29              		.file 1 "../../source/src/kernel/OS_CORE/dmodule/export.c"
   1:../../source/src/kernel/OS_CORE/dmodule/export.c **** #include <export.h>
   2:../../source/src/kernel/OS_CORE/dmodule/export.c **** #include <myMicroLIB.h>
   3:../../source/src/kernel/OS_CORE/dmodule/export.c **** #include <myassert.h>
   4:../../source/src/kernel/OS_CORE/dmodule/export.c **** #include <ka_configuration.h>
   5:../../source/src/kernel/OS_CORE/dmodule/export.c **** 
   6:../../source/src/kernel/OS_CORE/dmodule/export.c **** #if CONFIG_MODULE
   7:../../source/src/kernel/OS_CORE/dmodule/export.c **** 
   8:../../source/src/kernel/OS_CORE/dmodule/export.c **** extern unsigned long _ka_module_symtab_begin;
   9:../../source/src/kernel/OS_CORE/dmodule/export.c **** extern unsigned long _ka_module_symtab_end;
  10:../../source/src/kernel/OS_CORE/dmodule/export.c **** 
  11:../../source/src/kernel/OS_CORE/dmodule/export.c **** UINT32 _get_sys_export_function_addr(const char *fun_name)
  12:../../source/src/kernel/OS_CORE/dmodule/export.c **** {
  30              		.loc 1 12 0
  31              		.cfi_startproc
  32              		@ args = 0, pretend = 0, frame = 16
  33              		@ frame_needed = 1, uses_anonymous_args = 0
  34 0000 80B5     		push	{r7, lr}
  35              	.LCFI0:
  36              		.cfi_def_cfa_offset 8
  37              		.cfi_offset 7, -8
  38              		.cfi_offset 14, -4
  39 0002 84B0     		sub	sp, sp, #16
  40              	.LCFI1:
  41              		.cfi_def_cfa_offset 24
ARM GAS  G:\Users\Jaxb\AppData\Local\Temp\ccRxvwjH.s 			page 2


  42 0004 00AF     		add	r7, sp, #0
  43              	.LCFI2:
  44              		.cfi_def_cfa_register 7
  45 0006 7860     		str	r0, [r7, #4]
  13:../../source/src/kernel/OS_CORE/dmodule/export.c **** 	ASSERT(NULL != fun_name);
  46              		.loc 1 13 0
  47 0008 7B68     		ldr	r3, [r7, #4]
  48 000a 002B     		cmp	r3, #0
  49 000c 03D1     		bne	.L2
  50              		.loc 1 13 0 is_stmt 0 discriminator 1
  51 000e 0D21     		movs	r1, #13
  52 0010 0E48     		ldr	r0, .L7
  53 0012 FFF7FEFF 		bl	_ASSERT
  54              	.L2:
  14:../../source/src/kernel/OS_CORE/dmodule/export.c **** 	struct ka_module_symtab *index;
  15:../../source/src/kernel/OS_CORE/dmodule/export.c **** 
  16:../../source/src/kernel/OS_CORE/dmodule/export.c ****     for (index = (struct ka_module_symtab *)(&_ka_module_symtab_begin);
  55              		.loc 1 16 0 is_stmt 1
  56 0016 0E4B     		ldr	r3, .L7+4
  57 0018 FB60     		str	r3, [r7, #12]
  58 001a 0EE0     		b	.L3
  59              	.L6:
  17:../../source/src/kernel/OS_CORE/dmodule/export.c ****             index != (struct ka_module_symtab *)(&_ka_module_symtab_end); index++)
  18:../../source/src/kernel/OS_CORE/dmodule/export.c ****     {
  19:../../source/src/kernel/OS_CORE/dmodule/export.c ****         if (0 == ka_strcmp(index->name, fun_name))
  60              		.loc 1 19 0
  61 001c FB68     		ldr	r3, [r7, #12]
  62 001e 5B68     		ldr	r3, [r3, #4]
  63 0020 7968     		ldr	r1, [r7, #4]
  64 0022 1846     		mov	r0, r3
  65 0024 FFF7FEFF 		bl	ka_strcmp
  66 0028 0346     		mov	r3, r0
  67 002a 002B     		cmp	r3, #0
  68 002c 02D1     		bne	.L4
  20:../../source/src/kernel/OS_CORE/dmodule/export.c ****             return (UINT32)index->addr;
  69              		.loc 1 20 0
  70 002e FB68     		ldr	r3, [r7, #12]
  71 0030 1B68     		ldr	r3, [r3]
  72 0032 07E0     		b	.L5
  73              	.L4:
  17:../../source/src/kernel/OS_CORE/dmodule/export.c ****             index != (struct ka_module_symtab *)(&_ka_module_symtab_end); index++)
  74              		.loc 1 17 0
  75 0034 FB68     		ldr	r3, [r7, #12]
  76 0036 0833     		adds	r3, r3, #8
  77 0038 FB60     		str	r3, [r7, #12]
  78              	.L3:
  16:../../source/src/kernel/OS_CORE/dmodule/export.c ****             index != (struct ka_module_symtab *)(&_ka_module_symtab_end); index++)
  79              		.loc 1 16 0 discriminator 1
  80 003a FB68     		ldr	r3, [r7, #12]
  81 003c 054A     		ldr	r2, .L7+8
  82 003e 9342     		cmp	r3, r2
  83 0040 ECD1     		bne	.L6
  21:../../source/src/kernel/OS_CORE/dmodule/export.c ****     }
  22:../../source/src/kernel/OS_CORE/dmodule/export.c **** 
  23:../../source/src/kernel/OS_CORE/dmodule/export.c ****     return 0;
  84              		.loc 1 23 0
  85 0042 0023     		movs	r3, #0
ARM GAS  G:\Users\Jaxb\AppData\Local\Temp\ccRxvwjH.s 			page 3


  86              	.L5:
  24:../../source/src/kernel/OS_CORE/dmodule/export.c **** }
  87              		.loc 1 24 0
  88 0044 1846     		mov	r0, r3
  89 0046 1037     		adds	r7, r7, #16
  90              	.LCFI3:
  91              		.cfi_def_cfa_offset 8
  92 0048 BD46     		mov	sp, r7
  93              	.LCFI4:
  94              		.cfi_def_cfa_register 13
  95              		@ sp needed
  96 004a 80BD     		pop	{r7, pc}
  97              	.L8:
  98              		.align	2
  99              	.L7:
 100 004c 00000000 		.word	.LC0
 101 0050 00000000 		.word	_ka_module_symtab_begin
 102 0054 00000000 		.word	_ka_module_symtab_end
 103              		.cfi_endproc
 104              	.LFE0:
 105              		.size	_get_sys_export_function_addr, .-_get_sys_export_function_addr
 106              		.section	.rodata
 107 0031 000000   		.align	2
 108              	.LC1:
 109 0034 6578706F 		.ascii	"export symbol list:\012\000"
 109      72742073 
 109      796D626F 
 109      6C206C69 
 109      73743A0A 
 110 0049 000000   		.align	2
 111              	.LC2:
 112 004c 25730A00 		.ascii	"%s\012\000"
 113              		.text
 114              		.align	1
 115              		.global	shell_symbol_list_display
 116              		.syntax unified
 117              		.thumb
 118              		.thumb_func
 119              		.fpu softvfp
 120              		.type	shell_symbol_list_display, %function
 121              	shell_symbol_list_display:
 122              	.LFB1:
  25:../../source/src/kernel/OS_CORE/dmodule/export.c **** 
  26:../../source/src/kernel/OS_CORE/dmodule/export.c **** void shell_symbol_list_display(int argc, char const *argv[])
  27:../../source/src/kernel/OS_CORE/dmodule/export.c **** {
 123              		.loc 1 27 0
 124              		.cfi_startproc
 125              		@ args = 0, pretend = 0, frame = 16
 126              		@ frame_needed = 1, uses_anonymous_args = 0
 127 0058 80B5     		push	{r7, lr}
 128              	.LCFI5:
 129              		.cfi_def_cfa_offset 8
 130              		.cfi_offset 7, -8
 131              		.cfi_offset 14, -4
 132 005a 84B0     		sub	sp, sp, #16
 133              	.LCFI6:
 134              		.cfi_def_cfa_offset 24
ARM GAS  G:\Users\Jaxb\AppData\Local\Temp\ccRxvwjH.s 			page 4


 135 005c 00AF     		add	r7, sp, #0
 136              	.LCFI7:
 137              		.cfi_def_cfa_register 7
 138 005e 7860     		str	r0, [r7, #4]
 139 0060 3960     		str	r1, [r7]
  28:../../source/src/kernel/OS_CORE/dmodule/export.c **** 	(void)argc;
  29:../../source/src/kernel/OS_CORE/dmodule/export.c **** 	(void)argv;
  30:../../source/src/kernel/OS_CORE/dmodule/export.c **** 	struct ka_module_symtab *index;
  31:../../source/src/kernel/OS_CORE/dmodule/export.c **** 	ka_printf("export symbol list:\n");
 140              		.loc 1 31 0
 141 0062 0B48     		ldr	r0, .L12
 142 0064 FFF7FEFF 		bl	ka_printf
  32:../../source/src/kernel/OS_CORE/dmodule/export.c **** 	for (index = (struct ka_module_symtab *)(&_ka_module_symtab_begin);
 143              		.loc 1 32 0
 144 0068 0A4B     		ldr	r3, .L12+4
 145 006a FB60     		str	r3, [r7, #12]
 146 006c 08E0     		b	.L10
 147              	.L11:
  33:../../source/src/kernel/OS_CORE/dmodule/export.c ****             index != (struct ka_module_symtab *)(&_ka_module_symtab_end); index++)
  34:../../source/src/kernel/OS_CORE/dmodule/export.c **** 	{
  35:../../source/src/kernel/OS_CORE/dmodule/export.c **** 		ka_printf("%s\n",index->name);
 148              		.loc 1 35 0
 149 006e FB68     		ldr	r3, [r7, #12]
 150 0070 5B68     		ldr	r3, [r3, #4]
 151 0072 1946     		mov	r1, r3
 152 0074 0848     		ldr	r0, .L12+8
 153 0076 FFF7FEFF 		bl	ka_printf
  33:../../source/src/kernel/OS_CORE/dmodule/export.c ****             index != (struct ka_module_symtab *)(&_ka_module_symtab_end); index++)
 154              		.loc 1 33 0
 155 007a FB68     		ldr	r3, [r7, #12]
 156 007c 0833     		adds	r3, r3, #8
 157 007e FB60     		str	r3, [r7, #12]
 158              	.L10:
  32:../../source/src/kernel/OS_CORE/dmodule/export.c **** 	for (index = (struct ka_module_symtab *)(&_ka_module_symtab_begin);
 159              		.loc 1 32 0 discriminator 1
 160 0080 FB68     		ldr	r3, [r7, #12]
 161 0082 064A     		ldr	r2, .L12+12
 162 0084 9342     		cmp	r3, r2
 163 0086 F2D1     		bne	.L11
  36:../../source/src/kernel/OS_CORE/dmodule/export.c **** 	}
  37:../../source/src/kernel/OS_CORE/dmodule/export.c **** }
 164              		.loc 1 37 0
 165 0088 00BF     		nop
 166 008a 1037     		adds	r7, r7, #16
 167              	.LCFI8:
 168              		.cfi_def_cfa_offset 8
 169 008c BD46     		mov	sp, r7
 170              	.LCFI9:
 171              		.cfi_def_cfa_register 13
 172              		@ sp needed
 173 008e 80BD     		pop	{r7, pc}
 174              	.L13:
 175              		.align	2
 176              	.L12:
 177 0090 34000000 		.word	.LC1
 178 0094 00000000 		.word	_ka_module_symtab_begin
 179 0098 4C000000 		.word	.LC2
ARM GAS  G:\Users\Jaxb\AppData\Local\Temp\ccRxvwjH.s 			page 5


 180 009c 00000000 		.word	_ka_module_symtab_end
 181              		.cfi_endproc
 182              	.LFE1:
 183              		.size	shell_symbol_list_display, .-shell_symbol_list_display
 184              	.Letext0:
 185              		.file 2 "../../source/include/os_core/dmodule/export.h"
 186              		.file 3 "../../source/include/os_cpu/kakaosstdint.h"
 187              		.section	.debug_info,"",%progbits
 188              	.Ldebug_info0:
 189 0000 4B010000 		.4byte	0x14b
 190 0004 0200     		.2byte	0x2
 191 0006 00000000 		.4byte	.Ldebug_abbrev0
 192 000a 04       		.byte	0x4
 193 000b 01       		.uleb128 0x1
 194 000c 80010000 		.4byte	.LASF19
 195 0010 0C       		.byte	0xc
 196 0011 65000000 		.4byte	.LASF20
 197 0015 D7000000 		.4byte	.LASF21
 198 0019 00000000 		.4byte	.Ltext0
 199 001d A0000000 		.4byte	.Letext0
 200 0021 00000000 		.4byte	.Ldebug_line0
 201 0025 02       		.uleb128 0x2
 202 0026 01       		.byte	0x1
 203 0027 06       		.byte	0x6
 204 0028 4F010000 		.4byte	.LASF0
 205 002c 02       		.uleb128 0x2
 206 002d 02       		.byte	0x2
 207 002e 05       		.byte	0x5
 208 002f 76010000 		.4byte	.LASF1
 209 0033 03       		.uleb128 0x3
 210 0034 04       		.byte	0x4
 211 0035 05       		.byte	0x5
 212 0036 696E7400 		.ascii	"int\000"
 213 003a 02       		.uleb128 0x2
 214 003b 08       		.byte	0x8
 215 003c 05       		.byte	0x5
 216 003d 00000000 		.4byte	.LASF2
 217 0041 02       		.uleb128 0x2
 218 0042 01       		.byte	0x1
 219 0043 08       		.byte	0x8
 220 0044 C4000000 		.4byte	.LASF3
 221 0048 02       		.uleb128 0x2
 222 0049 02       		.byte	0x2
 223 004a 07       		.byte	0x7
 224 004b 3C010000 		.4byte	.LASF4
 225 004f 04       		.uleb128 0x4
 226 0050 1B000000 		.4byte	.LASF22
 227 0054 03       		.byte	0x3
 228 0055 0C       		.byte	0xc
 229 0056 5A000000 		.4byte	0x5a
 230 005a 02       		.uleb128 0x2
 231 005b 04       		.byte	0x4
 232 005c 07       		.byte	0x7
 233 005d 0E000000 		.4byte	.LASF5
 234 0061 02       		.uleb128 0x2
 235 0062 08       		.byte	0x8
 236 0063 07       		.byte	0x7
ARM GAS  G:\Users\Jaxb\AppData\Local\Temp\ccRxvwjH.s 			page 6


 237 0064 4E000000 		.4byte	.LASF6
 238 0068 05       		.uleb128 0x5
 239 0069 3D000000 		.4byte	.LASF23
 240 006d 08       		.byte	0x8
 241 006e 02       		.byte	0x2
 242 006f 08       		.byte	0x8
 243 0070 91000000 		.4byte	0x91
 244 0074 06       		.uleb128 0x6
 245 0075 96000000 		.4byte	.LASF7
 246 0079 02       		.byte	0x2
 247 007a 0A       		.byte	0xa
 248 007b 91000000 		.4byte	0x91
 249 007f 02       		.byte	0x2
 250 0080 23       		.byte	0x23
 251 0081 00       		.uleb128 0
 252 0082 06       		.uleb128 0x6
 253 0083 BF000000 		.4byte	.LASF8
 254 0087 02       		.byte	0x2
 255 0088 0B       		.byte	0xb
 256 0089 93000000 		.4byte	0x93
 257 008d 02       		.byte	0x2
 258 008e 23       		.byte	0x23
 259 008f 04       		.uleb128 0x4
 260 0090 00       		.byte	0
 261 0091 07       		.uleb128 0x7
 262 0092 04       		.byte	0x4
 263 0093 08       		.uleb128 0x8
 264 0094 04       		.byte	0x4
 265 0095 A0000000 		.4byte	0xa0
 266 0099 02       		.uleb128 0x2
 267 009a 01       		.byte	0x1
 268 009b 08       		.byte	0x8
 269 009c D2000000 		.4byte	.LASF9
 270 00a0 09       		.uleb128 0x9
 271 00a1 99000000 		.4byte	0x99
 272 00a5 0A       		.uleb128 0xa
 273 00a6 1F010000 		.4byte	.LASF11
 274 00aa 01       		.byte	0x1
 275 00ab 08       		.byte	0x8
 276 00ac B2000000 		.4byte	0xb2
 277 00b0 01       		.byte	0x1
 278 00b1 01       		.byte	0x1
 279 00b2 02       		.uleb128 0x2
 280 00b3 04       		.byte	0x4
 281 00b4 07       		.byte	0x7
 282 00b5 2B000000 		.4byte	.LASF10
 283 00b9 0A       		.uleb128 0xa
 284 00ba 5B010000 		.4byte	.LASF12
 285 00be 01       		.byte	0x1
 286 00bf 09       		.byte	0x9
 287 00c0 B2000000 		.4byte	0xb2
 288 00c4 01       		.byte	0x1
 289 00c5 01       		.byte	0x1
 290 00c6 0B       		.uleb128 0xb
 291 00c7 01       		.byte	0x1
 292 00c8 05010000 		.4byte	.LASF15
 293 00cc 01       		.byte	0x1
ARM GAS  G:\Users\Jaxb\AppData\Local\Temp\ccRxvwjH.s 			page 7


 294 00cd 1A       		.byte	0x1a
 295 00ce 01       		.byte	0x1
 296 00cf 58000000 		.4byte	.LFB1
 297 00d3 A0000000 		.4byte	.LFE1
 298 00d7 00000000 		.4byte	.LLST1
 299 00db 01       		.byte	0x1
 300 00dc 0B010000 		.4byte	0x10b
 301 00e0 0C       		.uleb128 0xc
 302 00e1 37010000 		.4byte	.LASF13
 303 00e5 01       		.byte	0x1
 304 00e6 1A       		.byte	0x1a
 305 00e7 33000000 		.4byte	0x33
 306 00eb 02       		.byte	0x2
 307 00ec 91       		.byte	0x91
 308 00ed 6C       		.sleb128 -20
 309 00ee 0C       		.uleb128 0xc
 310 00ef 71010000 		.4byte	.LASF14
 311 00f3 01       		.byte	0x1
 312 00f4 1A       		.byte	0x1a
 313 00f5 0B010000 		.4byte	0x10b
 314 00f9 02       		.byte	0x2
 315 00fa 91       		.byte	0x91
 316 00fb 68       		.sleb128 -24
 317 00fc 0D       		.uleb128 0xd
 318 00fd B9000000 		.4byte	.LASF18
 319 0101 01       		.byte	0x1
 320 0102 1E       		.byte	0x1e
 321 0103 11010000 		.4byte	0x111
 322 0107 02       		.byte	0x2
 323 0108 91       		.byte	0x91
 324 0109 74       		.sleb128 -12
 325 010a 00       		.byte	0
 326 010b 08       		.uleb128 0x8
 327 010c 04       		.byte	0x4
 328 010d 93000000 		.4byte	0x93
 329 0111 08       		.uleb128 0x8
 330 0112 04       		.byte	0x4
 331 0113 68000000 		.4byte	0x68
 332 0117 0E       		.uleb128 0xe
 333 0118 01       		.byte	0x1
 334 0119 9B000000 		.4byte	.LASF16
 335 011d 01       		.byte	0x1
 336 011e 0B       		.byte	0xb
 337 011f 01       		.byte	0x1
 338 0120 4F000000 		.4byte	0x4f
 339 0124 00000000 		.4byte	.LFB0
 340 0128 58000000 		.4byte	.LFE0
 341 012c 50000000 		.4byte	.LLST0
 342 0130 01       		.byte	0x1
 343 0131 0C       		.uleb128 0xc
 344 0132 22000000 		.4byte	.LASF17
 345 0136 01       		.byte	0x1
 346 0137 0B       		.byte	0xb
 347 0138 93000000 		.4byte	0x93
 348 013c 02       		.byte	0x2
 349 013d 91       		.byte	0x91
 350 013e 6C       		.sleb128 -20
ARM GAS  G:\Users\Jaxb\AppData\Local\Temp\ccRxvwjH.s 			page 8


 351 013f 0D       		.uleb128 0xd
 352 0140 B9000000 		.4byte	.LASF18
 353 0144 01       		.byte	0x1
 354 0145 0E       		.byte	0xe
 355 0146 11010000 		.4byte	0x111
 356 014a 02       		.byte	0x2
 357 014b 91       		.byte	0x91
 358 014c 74       		.sleb128 -12
 359 014d 00       		.byte	0
 360 014e 00       		.byte	0
 361              		.section	.debug_abbrev,"",%progbits
 362              	.Ldebug_abbrev0:
 363 0000 01       		.uleb128 0x1
 364 0001 11       		.uleb128 0x11
 365 0002 01       		.byte	0x1
 366 0003 25       		.uleb128 0x25
 367 0004 0E       		.uleb128 0xe
 368 0005 13       		.uleb128 0x13
 369 0006 0B       		.uleb128 0xb
 370 0007 03       		.uleb128 0x3
 371 0008 0E       		.uleb128 0xe
 372 0009 1B       		.uleb128 0x1b
 373 000a 0E       		.uleb128 0xe
 374 000b 11       		.uleb128 0x11
 375 000c 01       		.uleb128 0x1
 376 000d 12       		.uleb128 0x12
 377 000e 01       		.uleb128 0x1
 378 000f 10       		.uleb128 0x10
 379 0010 06       		.uleb128 0x6
 380 0011 00       		.byte	0
 381 0012 00       		.byte	0
 382 0013 02       		.uleb128 0x2
 383 0014 24       		.uleb128 0x24
 384 0015 00       		.byte	0
 385 0016 0B       		.uleb128 0xb
 386 0017 0B       		.uleb128 0xb
 387 0018 3E       		.uleb128 0x3e
 388 0019 0B       		.uleb128 0xb
 389 001a 03       		.uleb128 0x3
 390 001b 0E       		.uleb128 0xe
 391 001c 00       		.byte	0
 392 001d 00       		.byte	0
 393 001e 03       		.uleb128 0x3
 394 001f 24       		.uleb128 0x24
 395 0020 00       		.byte	0
 396 0021 0B       		.uleb128 0xb
 397 0022 0B       		.uleb128 0xb
 398 0023 3E       		.uleb128 0x3e
 399 0024 0B       		.uleb128 0xb
 400 0025 03       		.uleb128 0x3
 401 0026 08       		.uleb128 0x8
 402 0027 00       		.byte	0
 403 0028 00       		.byte	0
 404 0029 04       		.uleb128 0x4
 405 002a 16       		.uleb128 0x16
 406 002b 00       		.byte	0
 407 002c 03       		.uleb128 0x3
ARM GAS  G:\Users\Jaxb\AppData\Local\Temp\ccRxvwjH.s 			page 9


 408 002d 0E       		.uleb128 0xe
 409 002e 3A       		.uleb128 0x3a
 410 002f 0B       		.uleb128 0xb
 411 0030 3B       		.uleb128 0x3b
 412 0031 0B       		.uleb128 0xb
 413 0032 49       		.uleb128 0x49
 414 0033 13       		.uleb128 0x13
 415 0034 00       		.byte	0
 416 0035 00       		.byte	0
 417 0036 05       		.uleb128 0x5
 418 0037 13       		.uleb128 0x13
 419 0038 01       		.byte	0x1
 420 0039 03       		.uleb128 0x3
 421 003a 0E       		.uleb128 0xe
 422 003b 0B       		.uleb128 0xb
 423 003c 0B       		.uleb128 0xb
 424 003d 3A       		.uleb128 0x3a
 425 003e 0B       		.uleb128 0xb
 426 003f 3B       		.uleb128 0x3b
 427 0040 0B       		.uleb128 0xb
 428 0041 01       		.uleb128 0x1
 429 0042 13       		.uleb128 0x13
 430 0043 00       		.byte	0
 431 0044 00       		.byte	0
 432 0045 06       		.uleb128 0x6
 433 0046 0D       		.uleb128 0xd
 434 0047 00       		.byte	0
 435 0048 03       		.uleb128 0x3
 436 0049 0E       		.uleb128 0xe
 437 004a 3A       		.uleb128 0x3a
 438 004b 0B       		.uleb128 0xb
 439 004c 3B       		.uleb128 0x3b
 440 004d 0B       		.uleb128 0xb
 441 004e 49       		.uleb128 0x49
 442 004f 13       		.uleb128 0x13
 443 0050 38       		.uleb128 0x38
 444 0051 0A       		.uleb128 0xa
 445 0052 00       		.byte	0
 446 0053 00       		.byte	0
 447 0054 07       		.uleb128 0x7
 448 0055 0F       		.uleb128 0xf
 449 0056 00       		.byte	0
 450 0057 0B       		.uleb128 0xb
 451 0058 0B       		.uleb128 0xb
 452 0059 00       		.byte	0
 453 005a 00       		.byte	0
 454 005b 08       		.uleb128 0x8
 455 005c 0F       		.uleb128 0xf
 456 005d 00       		.byte	0
 457 005e 0B       		.uleb128 0xb
 458 005f 0B       		.uleb128 0xb
 459 0060 49       		.uleb128 0x49
 460 0061 13       		.uleb128 0x13
 461 0062 00       		.byte	0
 462 0063 00       		.byte	0
 463 0064 09       		.uleb128 0x9
 464 0065 26       		.uleb128 0x26
ARM GAS  G:\Users\Jaxb\AppData\Local\Temp\ccRxvwjH.s 			page 10


 465 0066 00       		.byte	0
 466 0067 49       		.uleb128 0x49
 467 0068 13       		.uleb128 0x13
 468 0069 00       		.byte	0
 469 006a 00       		.byte	0
 470 006b 0A       		.uleb128 0xa
 471 006c 34       		.uleb128 0x34
 472 006d 00       		.byte	0
 473 006e 03       		.uleb128 0x3
 474 006f 0E       		.uleb128 0xe
 475 0070 3A       		.uleb128 0x3a
 476 0071 0B       		.uleb128 0xb
 477 0072 3B       		.uleb128 0x3b
 478 0073 0B       		.uleb128 0xb
 479 0074 49       		.uleb128 0x49
 480 0075 13       		.uleb128 0x13
 481 0076 3F       		.uleb128 0x3f
 482 0077 0C       		.uleb128 0xc
 483 0078 3C       		.uleb128 0x3c
 484 0079 0C       		.uleb128 0xc
 485 007a 00       		.byte	0
 486 007b 00       		.byte	0
 487 007c 0B       		.uleb128 0xb
 488 007d 2E       		.uleb128 0x2e
 489 007e 01       		.byte	0x1
 490 007f 3F       		.uleb128 0x3f
 491 0080 0C       		.uleb128 0xc
 492 0081 03       		.uleb128 0x3
 493 0082 0E       		.uleb128 0xe
 494 0083 3A       		.uleb128 0x3a
 495 0084 0B       		.uleb128 0xb
 496 0085 3B       		.uleb128 0x3b
 497 0086 0B       		.uleb128 0xb
 498 0087 27       		.uleb128 0x27
 499 0088 0C       		.uleb128 0xc
 500 0089 11       		.uleb128 0x11
 501 008a 01       		.uleb128 0x1
 502 008b 12       		.uleb128 0x12
 503 008c 01       		.uleb128 0x1
 504 008d 40       		.uleb128 0x40
 505 008e 06       		.uleb128 0x6
 506 008f 9642     		.uleb128 0x2116
 507 0091 0C       		.uleb128 0xc
 508 0092 01       		.uleb128 0x1
 509 0093 13       		.uleb128 0x13
 510 0094 00       		.byte	0
 511 0095 00       		.byte	0
 512 0096 0C       		.uleb128 0xc
 513 0097 05       		.uleb128 0x5
 514 0098 00       		.byte	0
 515 0099 03       		.uleb128 0x3
 516 009a 0E       		.uleb128 0xe
 517 009b 3A       		.uleb128 0x3a
 518 009c 0B       		.uleb128 0xb
 519 009d 3B       		.uleb128 0x3b
 520 009e 0B       		.uleb128 0xb
 521 009f 49       		.uleb128 0x49
ARM GAS  G:\Users\Jaxb\AppData\Local\Temp\ccRxvwjH.s 			page 11


 522 00a0 13       		.uleb128 0x13
 523 00a1 02       		.uleb128 0x2
 524 00a2 0A       		.uleb128 0xa
 525 00a3 00       		.byte	0
 526 00a4 00       		.byte	0
 527 00a5 0D       		.uleb128 0xd
 528 00a6 34       		.uleb128 0x34
 529 00a7 00       		.byte	0
 530 00a8 03       		.uleb128 0x3
 531 00a9 0E       		.uleb128 0xe
 532 00aa 3A       		.uleb128 0x3a
 533 00ab 0B       		.uleb128 0xb
 534 00ac 3B       		.uleb128 0x3b
 535 00ad 0B       		.uleb128 0xb
 536 00ae 49       		.uleb128 0x49
 537 00af 13       		.uleb128 0x13
 538 00b0 02       		.uleb128 0x2
 539 00b1 0A       		.uleb128 0xa
 540 00b2 00       		.byte	0
 541 00b3 00       		.byte	0
 542 00b4 0E       		.uleb128 0xe
 543 00b5 2E       		.uleb128 0x2e
 544 00b6 01       		.byte	0x1
 545 00b7 3F       		.uleb128 0x3f
 546 00b8 0C       		.uleb128 0xc
 547 00b9 03       		.uleb128 0x3
 548 00ba 0E       		.uleb128 0xe
 549 00bb 3A       		.uleb128 0x3a
 550 00bc 0B       		.uleb128 0xb
 551 00bd 3B       		.uleb128 0x3b
 552 00be 0B       		.uleb128 0xb
 553 00bf 27       		.uleb128 0x27
 554 00c0 0C       		.uleb128 0xc
 555 00c1 49       		.uleb128 0x49
 556 00c2 13       		.uleb128 0x13
 557 00c3 11       		.uleb128 0x11
 558 00c4 01       		.uleb128 0x1
 559 00c5 12       		.uleb128 0x12
 560 00c6 01       		.uleb128 0x1
 561 00c7 40       		.uleb128 0x40
 562 00c8 06       		.uleb128 0x6
 563 00c9 9642     		.uleb128 0x2116
 564 00cb 0C       		.uleb128 0xc
 565 00cc 00       		.byte	0
 566 00cd 00       		.byte	0
 567 00ce 00       		.byte	0
 568              		.section	.debug_loc,"",%progbits
 569              	.Ldebug_loc0:
 570              	.LLST1:
 571 0000 58000000 		.4byte	.LFB1-.Ltext0
 572 0004 5A000000 		.4byte	.LCFI5-.Ltext0
 573 0008 0200     		.2byte	0x2
 574 000a 7D       		.byte	0x7d
 575 000b 00       		.sleb128 0
 576 000c 5A000000 		.4byte	.LCFI5-.Ltext0
 577 0010 5C000000 		.4byte	.LCFI6-.Ltext0
 578 0014 0200     		.2byte	0x2
ARM GAS  G:\Users\Jaxb\AppData\Local\Temp\ccRxvwjH.s 			page 12


 579 0016 7D       		.byte	0x7d
 580 0017 08       		.sleb128 8
 581 0018 5C000000 		.4byte	.LCFI6-.Ltext0
 582 001c 5E000000 		.4byte	.LCFI7-.Ltext0
 583 0020 0200     		.2byte	0x2
 584 0022 7D       		.byte	0x7d
 585 0023 18       		.sleb128 24
 586 0024 5E000000 		.4byte	.LCFI7-.Ltext0
 587 0028 8C000000 		.4byte	.LCFI8-.Ltext0
 588 002c 0200     		.2byte	0x2
 589 002e 77       		.byte	0x77
 590 002f 18       		.sleb128 24
 591 0030 8C000000 		.4byte	.LCFI8-.Ltext0
 592 0034 8E000000 		.4byte	.LCFI9-.Ltext0
 593 0038 0200     		.2byte	0x2
 594 003a 77       		.byte	0x77
 595 003b 08       		.sleb128 8
 596 003c 8E000000 		.4byte	.LCFI9-.Ltext0
 597 0040 A0000000 		.4byte	.LFE1-.Ltext0
 598 0044 0200     		.2byte	0x2
 599 0046 7D       		.byte	0x7d
 600 0047 08       		.sleb128 8
 601 0048 00000000 		.4byte	0
 602 004c 00000000 		.4byte	0
 603              	.LLST0:
 604 0050 00000000 		.4byte	.LFB0-.Ltext0
 605 0054 02000000 		.4byte	.LCFI0-.Ltext0
 606 0058 0200     		.2byte	0x2
 607 005a 7D       		.byte	0x7d
 608 005b 00       		.sleb128 0
 609 005c 02000000 		.4byte	.LCFI0-.Ltext0
 610 0060 04000000 		.4byte	.LCFI1-.Ltext0
 611 0064 0200     		.2byte	0x2
 612 0066 7D       		.byte	0x7d
 613 0067 08       		.sleb128 8
 614 0068 04000000 		.4byte	.LCFI1-.Ltext0
 615 006c 06000000 		.4byte	.LCFI2-.Ltext0
 616 0070 0200     		.2byte	0x2
 617 0072 7D       		.byte	0x7d
 618 0073 18       		.sleb128 24
 619 0074 06000000 		.4byte	.LCFI2-.Ltext0
 620 0078 48000000 		.4byte	.LCFI3-.Ltext0
 621 007c 0200     		.2byte	0x2
 622 007e 77       		.byte	0x77
 623 007f 18       		.sleb128 24
 624 0080 48000000 		.4byte	.LCFI3-.Ltext0
 625 0084 4A000000 		.4byte	.LCFI4-.Ltext0
 626 0088 0200     		.2byte	0x2
 627 008a 77       		.byte	0x77
 628 008b 08       		.sleb128 8
 629 008c 4A000000 		.4byte	.LCFI4-.Ltext0
 630 0090 58000000 		.4byte	.LFE0-.Ltext0
 631 0094 0200     		.2byte	0x2
 632 0096 7D       		.byte	0x7d
 633 0097 08       		.sleb128 8
 634 0098 00000000 		.4byte	0
 635 009c 00000000 		.4byte	0
ARM GAS  G:\Users\Jaxb\AppData\Local\Temp\ccRxvwjH.s 			page 13


 636              		.section	.debug_aranges,"",%progbits
 637 0000 1C000000 		.4byte	0x1c
 638 0004 0200     		.2byte	0x2
 639 0006 00000000 		.4byte	.Ldebug_info0
 640 000a 04       		.byte	0x4
 641 000b 00       		.byte	0
 642 000c 0000     		.2byte	0
 643 000e 0000     		.2byte	0
 644 0010 00000000 		.4byte	.Ltext0
 645 0014 A0000000 		.4byte	.Letext0-.Ltext0
 646 0018 00000000 		.4byte	0
 647 001c 00000000 		.4byte	0
 648              		.section	.debug_line,"",%progbits
 649              	.Ldebug_line0:
 650 0000 D9000000 		.section	.debug_str,"MS",%progbits,1
 650      0200A600 
 650      00000201 
 650      FB0E0D00 
 650      01010101 
 651              	.LASF2:
 652 0000 6C6F6E67 		.ascii	"long long int\000"
 652      206C6F6E 
 652      6720696E 
 652      7400
 653              	.LASF5:
 654 000e 756E7369 		.ascii	"unsigned int\000"
 654      676E6564 
 654      20696E74 
 654      00
 655              	.LASF22:
 656 001b 55494E54 		.ascii	"UINT32\000"
 656      333200
 657              	.LASF17:
 658 0022 66756E5F 		.ascii	"fun_name\000"
 658      6E616D65 
 658      00
 659              	.LASF10:
 660 002b 6C6F6E67 		.ascii	"long unsigned int\000"
 660      20756E73 
 660      69676E65 
 660      6420696E 
 660      7400
 661              	.LASF23:
 662 003d 6B615F6D 		.ascii	"ka_module_symtab\000"
 662      6F64756C 
 662      655F7379 
 662      6D746162 
 662      00
 663              	.LASF6:
 664 004e 6C6F6E67 		.ascii	"long long unsigned int\000"
 664      206C6F6E 
 664      6720756E 
 664      7369676E 
 664      65642069 
 665              	.LASF20:
 666 0065 2E2E2F2E 		.ascii	"../../source/src/kernel/OS_CORE/dmodule/export.c\000"
 666      2E2F736F 
ARM GAS  G:\Users\Jaxb\AppData\Local\Temp\ccRxvwjH.s 			page 14


 666      75726365 
 666      2F737263 
 666      2F6B6572 
 667              	.LASF7:
 668 0096 61646472 		.ascii	"addr\000"
 668      00
 669              	.LASF16:
 670 009b 5F676574 		.ascii	"_get_sys_export_function_addr\000"
 670      5F737973 
 670      5F657870 
 670      6F72745F 
 670      66756E63 
 671              	.LASF18:
 672 00b9 696E6465 		.ascii	"index\000"
 672      7800
 673              	.LASF8:
 674 00bf 6E616D65 		.ascii	"name\000"
 674      00
 675              	.LASF3:
 676 00c4 756E7369 		.ascii	"unsigned char\000"
 676      676E6564 
 676      20636861 
 676      7200
 677              	.LASF9:
 678 00d2 63686172 		.ascii	"char\000"
 678      00
 679              	.LASF21:
 680 00d7 463A5C6B 		.ascii	"F:\\kaka\\KAKAOS\\C\\windows\\Project\\RVMDK\243\250"
 680      616B615C 
 680      4B414B41 
 680      4F535C43 
 680      5C77696E 
 681 00ff 757635A3 		.ascii	"uv5\243\251\000"
 681      A900
 682              	.LASF15:
 683 0105 7368656C 		.ascii	"shell_symbol_list_display\000"
 683      6C5F7379 
 683      6D626F6C 
 683      5F6C6973 
 683      745F6469 
 684              	.LASF11:
 685 011f 5F6B615F 		.ascii	"_ka_module_symtab_begin\000"
 685      6D6F6475 
 685      6C655F73 
 685      796D7461 
 685      625F6265 
 686              	.LASF13:
 687 0137 61726763 		.ascii	"argc\000"
 687      00
 688              	.LASF4:
 689 013c 73686F72 		.ascii	"short unsigned int\000"
 689      7420756E 
 689      7369676E 
 689      65642069 
 689      6E7400
 690              	.LASF0:
 691 014f 7369676E 		.ascii	"signed char\000"
ARM GAS  G:\Users\Jaxb\AppData\Local\Temp\ccRxvwjH.s 			page 15


 691      65642063 
 691      68617200 
 692              	.LASF12:
 693 015b 5F6B615F 		.ascii	"_ka_module_symtab_end\000"
 693      6D6F6475 
 693      6C655F73 
 693      796D7461 
 693      625F656E 
 694              	.LASF14:
 695 0171 61726776 		.ascii	"argv\000"
 695      00
 696              	.LASF1:
 697 0176 73686F72 		.ascii	"short int\000"
 697      7420696E 
 697      7400
 698              	.LASF19:
 699 0180 474E5520 		.ascii	"GNU C11 7.3.1 20180622 (release) [ARM/embedded-7-br"
 699      43313120 
 699      372E332E 
 699      31203230 
 699      31383036 
 700 01b3 616E6368 		.ascii	"anch revision 261907] -mcpu=cortex-m3 -mthumb -mapc"
 700      20726576 
 700      6973696F 
 700      6E203236 
 700      31393037 
 701 01e6 732D6672 		.ascii	"s-frame -mthumb-interwork -mcpu=cortex-m3 -mthumb -"
 701      616D6520 
 701      2D6D7468 
 701      756D622D 
 701      696E7465 
 702 0219 67647761 		.ascii	"gdwarf-2 -O0\000"
 702      72662D32 
 702      202D4F30 
 702      00
 703              		.ident	"GCC: (GNU Tools for Arm Embedded Processors 7-2018-q2-update) 7.3.1 20180622 (release) [AR
ARM GAS  G:\Users\Jaxb\AppData\Local\Temp\ccRxvwjH.s 			page 16


DEFINED SYMBOLS
                            *ABS*:00000000 export.c
G:\Users\Jaxb\AppData\Local\Temp\ccRxvwjH.s:16     .rodata:00000000 $d
G:\Users\Jaxb\AppData\Local\Temp\ccRxvwjH.s:20     .text:00000000 $t
G:\Users\Jaxb\AppData\Local\Temp\ccRxvwjH.s:27     .text:00000000 _get_sys_export_function_addr
G:\Users\Jaxb\AppData\Local\Temp\ccRxvwjH.s:100    .text:0000004c $d
G:\Users\Jaxb\AppData\Local\Temp\ccRxvwjH.s:114    .text:00000058 $t
G:\Users\Jaxb\AppData\Local\Temp\ccRxvwjH.s:121    .text:00000058 shell_symbol_list_display
G:\Users\Jaxb\AppData\Local\Temp\ccRxvwjH.s:177    .text:00000090 $d

UNDEFINED SYMBOLS
_ASSERT
ka_strcmp
_ka_module_symtab_begin
_ka_module_symtab_end
ka_printf
