ARM GAS  G:\Users\Jaxb\AppData\Local\Temp\ccOPPqHN.s 			page 1


   1              		.cpu cortex-m3
   2              		.eabi_attribute 20, 1
   3              		.eabi_attribute 21, 1
   4              		.eabi_attribute 23, 3
   5              		.eabi_attribute 24, 1
   6              		.eabi_attribute 25, 1
   7              		.eabi_attribute 26, 1
   8              		.eabi_attribute 30, 6
   9              		.eabi_attribute 34, 1
  10              		.eabi_attribute 18, 4
  11              		.file	"heap_oo.c"
  12              		.text
  13              	.Ltext0:
  14              		.cfi_sections	.debug_frame
  15              		.align	1
  16              		.syntax unified
  17              		.thumb
  18              		.thumb_func
  19              		.fpu softvfp
  20              		.type	Vector_get_index_data, %function
  21              	Vector_get_index_data:
  22              	.LFB0:
  23              		.file 1 "../../source/include/os_lib/vector.h"
   1:../../source/include/os_lib/vector.h **** #ifndef _VECTOR_H
   2:../../source/include/os_lib/vector.h **** #define _VECTOR_H
   3:../../source/include/os_lib/vector.h **** 
   4:../../source/include/os_lib/vector.h **** #include <myMicroLIB.h>
   5:../../source/include/os_lib/vector.h **** 
   6:../../source/include/os_lib/vector.h **** #define f_free(ptr)				ka_free(ptr)
   7:../../source/include/os_lib/vector.h **** #define f_memcpy(des,src,size)	ka_memcpy(des,src,size)
   8:../../source/include/os_lib/vector.h **** #define f_malloc(size)			ka_malloc(size)
   9:../../source/include/os_lib/vector.h **** 
  10:../../source/include/os_lib/vector.h **** typedef struct vector
  11:../../source/include/os_lib/vector.h **** {
  12:../../source/include/os_lib/vector.h ****     void *data_ptr;
  13:../../source/include/os_lib/vector.h ****     unsigned int max_len;
  14:../../source/include/os_lib/vector.h ****     unsigned int cur_len;
  15:../../source/include/os_lib/vector.h ****     unsigned int data_size;
  16:../../source/include/os_lib/vector.h **** /*
  17:../../source/include/os_lib/vector.h **** 	if the highest bit is 1, multiply
  18:../../source/include/os_lib/vector.h **** 	if the highest bit is 0, add
  19:../../source/include/os_lib/vector.h **** 	use the following macro to produce this member:MKVFMUL  MKVFADD
  20:../../source/include/os_lib/vector.h ****  */
  21:../../source/include/os_lib/vector.h ****     unsigned int extension_factor;
  22:../../source/include/os_lib/vector.h **** }Vector;
  23:../../source/include/os_lib/vector.h **** 
  24:../../source/include/os_lib/vector.h **** #define ERROR_ALLOCATE_ROOM 1
  25:../../source/include/os_lib/vector.h **** #define ERROR_DATA_EMPTY    2
  26:../../source/include/os_lib/vector.h **** 
  27:../../source/include/os_lib/vector.h **** /*
  28:../../source/include/os_lib/vector.h **** get vector[index] data into *data_store_ptr
  29:../../source/include/os_lib/vector.h ****  */
  30:../../source/include/os_lib/vector.h **** static inline void Vector_get_index_data(Vector *vector_ptr,unsigned int index,void *data_store_ptr
  31:../../source/include/os_lib/vector.h **** {
  24              		.loc 1 31 0
  25              		.cfi_startproc
  26              		@ args = 0, pretend = 0, frame = 16
ARM GAS  G:\Users\Jaxb\AppData\Local\Temp\ccOPPqHN.s 			page 2


  27              		@ frame_needed = 1, uses_anonymous_args = 0
  28 0000 80B5     		push	{r7, lr}
  29              	.LCFI0:
  30              		.cfi_def_cfa_offset 8
  31              		.cfi_offset 7, -8
  32              		.cfi_offset 14, -4
  33 0002 84B0     		sub	sp, sp, #16
  34              	.LCFI1:
  35              		.cfi_def_cfa_offset 24
  36 0004 00AF     		add	r7, sp, #0
  37              	.LCFI2:
  38              		.cfi_def_cfa_register 7
  39 0006 F860     		str	r0, [r7, #12]
  40 0008 B960     		str	r1, [r7, #8]
  41 000a 7A60     		str	r2, [r7, #4]
  32:../../source/include/os_lib/vector.h **** 	f_memcpy(data_store_ptr,(char*)(vector_ptr->data_ptr) + index * vector_ptr->data_size,vector_ptr->
  42              		.loc 1 32 0
  43 000c FB68     		ldr	r3, [r7, #12]
  44 000e 1A68     		ldr	r2, [r3]
  45 0010 FB68     		ldr	r3, [r7, #12]
  46 0012 DB68     		ldr	r3, [r3, #12]
  47 0014 B968     		ldr	r1, [r7, #8]
  48 0016 01FB03F3 		mul	r3, r1, r3
  49 001a D118     		adds	r1, r2, r3
  50 001c FB68     		ldr	r3, [r7, #12]
  51 001e DB68     		ldr	r3, [r3, #12]
  52 0020 1A46     		mov	r2, r3
  53 0022 7868     		ldr	r0, [r7, #4]
  54 0024 FFF7FEFF 		bl	ka_memcpy
  33:../../source/include/os_lib/vector.h **** }
  55              		.loc 1 33 0
  56 0028 00BF     		nop
  57 002a 1037     		adds	r7, r7, #16
  58              	.LCFI3:
  59              		.cfi_def_cfa_offset 8
  60 002c BD46     		mov	sp, r7
  61              	.LCFI4:
  62              		.cfi_def_cfa_register 13
  63              		@ sp needed
  64 002e 80BD     		pop	{r7, pc}
  65              		.cfi_endproc
  66              	.LFE0:
  67              		.size	Vector_get_index_data, .-Vector_get_index_data
  68              		.align	1
  69              		.syntax unified
  70              		.thumb
  71              		.thumb_func
  72              		.fpu softvfp
  73              		.type	Vector_set_index_data, %function
  74              	Vector_set_index_data:
  75              	.LFB1:
  34:../../source/include/os_lib/vector.h **** 
  35:../../source/include/os_lib/vector.h **** /*
  36:../../source/include/os_lib/vector.h **** set vector[index] data with *data_store_ptr
  37:../../source/include/os_lib/vector.h ****  */
  38:../../source/include/os_lib/vector.h **** static inline void Vector_set_index_data(Vector *vector_ptr,unsigned int index,void *data_store_ptr
  39:../../source/include/os_lib/vector.h **** {
ARM GAS  G:\Users\Jaxb\AppData\Local\Temp\ccOPPqHN.s 			page 3


  76              		.loc 1 39 0
  77              		.cfi_startproc
  78              		@ args = 0, pretend = 0, frame = 16
  79              		@ frame_needed = 1, uses_anonymous_args = 0
  80 0030 80B5     		push	{r7, lr}
  81              	.LCFI5:
  82              		.cfi_def_cfa_offset 8
  83              		.cfi_offset 7, -8
  84              		.cfi_offset 14, -4
  85 0032 84B0     		sub	sp, sp, #16
  86              	.LCFI6:
  87              		.cfi_def_cfa_offset 24
  88 0034 00AF     		add	r7, sp, #0
  89              	.LCFI7:
  90              		.cfi_def_cfa_register 7
  91 0036 F860     		str	r0, [r7, #12]
  92 0038 B960     		str	r1, [r7, #8]
  93 003a 7A60     		str	r2, [r7, #4]
  40:../../source/include/os_lib/vector.h **** 	f_memcpy((char*)(vector_ptr->data_ptr) + index * vector_ptr->data_size,data_store_ptr,vector_ptr->
  94              		.loc 1 40 0
  95 003c FB68     		ldr	r3, [r7, #12]
  96 003e 1A68     		ldr	r2, [r3]
  97 0040 FB68     		ldr	r3, [r7, #12]
  98 0042 DB68     		ldr	r3, [r3, #12]
  99 0044 B968     		ldr	r1, [r7, #8]
 100 0046 01FB03F3 		mul	r3, r1, r3
 101 004a D018     		adds	r0, r2, r3
 102 004c FB68     		ldr	r3, [r7, #12]
 103 004e DB68     		ldr	r3, [r3, #12]
 104 0050 1A46     		mov	r2, r3
 105 0052 7968     		ldr	r1, [r7, #4]
 106 0054 FFF7FEFF 		bl	ka_memcpy
  41:../../source/include/os_lib/vector.h **** }
 107              		.loc 1 41 0
 108 0058 00BF     		nop
 109 005a 1037     		adds	r7, r7, #16
 110              	.LCFI8:
 111              		.cfi_def_cfa_offset 8
 112 005c BD46     		mov	sp, r7
 113              	.LCFI9:
 114              		.cfi_def_cfa_register 13
 115              		@ sp needed
 116 005e 80BD     		pop	{r7, pc}
 117              		.cfi_endproc
 118              	.LFE1:
 119              		.size	Vector_set_index_data, .-Vector_set_index_data
 120              		.align	1
 121              		.syntax unified
 122              		.thumb
 123              		.thumb_func
 124              		.fpu softvfp
 125              		.type	get_Vector_cur_len, %function
 126              	get_Vector_cur_len:
 127              	.LFB5:
  42:../../source/include/os_lib/vector.h **** 
  43:../../source/include/os_lib/vector.h **** /*
  44:../../source/include/os_lib/vector.h **** delete vector
ARM GAS  G:\Users\Jaxb\AppData\Local\Temp\ccOPPqHN.s 			page 4


  45:../../source/include/os_lib/vector.h ****  */
  46:../../source/include/os_lib/vector.h **** static inline void Vector_delete(Vector *vector_ptr)
  47:../../source/include/os_lib/vector.h **** {
  48:../../source/include/os_lib/vector.h **** 	f_free(vector_ptr->data_ptr);
  49:../../source/include/os_lib/vector.h **** }
  50:../../source/include/os_lib/vector.h **** 
  51:../../source/include/os_lib/vector.h **** static inline void Vector_get_index_address(Vector *vector_ptr,unsigned int index,void **data_add_p
  52:../../source/include/os_lib/vector.h **** {
  53:../../source/include/os_lib/vector.h **** 	*data_add_ptr = (void *)((char*)(vector_ptr->data_ptr) + index * vector_ptr->data_size);
  54:../../source/include/os_lib/vector.h **** }
  55:../../source/include/os_lib/vector.h **** 
  56:../../source/include/os_lib/vector.h **** int Vector_init(Vector *vector_ptr,unsigned int size,int len_per_data,unsigned int extension_factor
  57:../../source/include/os_lib/vector.h **** int Vector_push_back(Vector *vector_ptr,void *push_data_ptr);
  58:../../source/include/os_lib/vector.h **** int Vector_pop_back(Vector *vector_ptr,void *pop_data_ptr);
  59:../../source/include/os_lib/vector.h **** void Vector_set_index_data(Vector *vector_ptr,unsigned int index,void *data_store_ptr);
  60:../../source/include/os_lib/vector.h **** int Vector_erase_data(Vector *vector_ptr,unsigned int from,unsigned int to);
  61:../../source/include/os_lib/vector.h **** int Vector_remove_index_data(Vector *vector_ptr,unsigned int index,void *data_store_ptr);/*if data_
  62:../../source/include/os_lib/vector.h **** int Vector_set_inner(Vector *vector_ptr,unsigned int dest_index,unsigned int src_index);
  63:../../source/include/os_lib/vector.h **** int Vector_swap_inner(Vector *vector_ptr,unsigned int index1,unsigned int index2);
  64:../../source/include/os_lib/vector.h **** 
  65:../../source/include/os_lib/vector.h **** 
  66:../../source/include/os_lib/vector.h **** #define MKVFMUL(x) (0x80000000 | (x))
  67:../../source/include/os_lib/vector.h **** #define MKVFADD(x) (~0x80000000 & (x))
  68:../../source/include/os_lib/vector.h **** #define VFISMUL(x) (0x80000000 & (x))
  69:../../source/include/os_lib/vector.h **** #define VFISADD(x) (!(VFISMUL(x)))
  70:../../source/include/os_lib/vector.h **** #define GET_EXPENSION_FACTOR(x) (~0x80000000 & (x))
  71:../../source/include/os_lib/vector.h **** #define DECLARE_VECTOR(name,type,len,extension_factor) \
  72:../../source/include/os_lib/vector.h **** Vector name; \
  73:../../source/include/os_lib/vector.h **** do{ \
  74:../../source/include/os_lib/vector.h **** 	Vector_init(&(name),len,sizeof(type),extension_factor); \
  75:../../source/include/os_lib/vector.h **** }while(0)
  76:../../source/include/os_lib/vector.h **** 
  77:../../source/include/os_lib/vector.h **** static inline unsigned int get_Vector_size(Vector *vector_ptr)
  78:../../source/include/os_lib/vector.h **** {
  79:../../source/include/os_lib/vector.h **** 	return vector_ptr->max_len;
  80:../../source/include/os_lib/vector.h **** }
  81:../../source/include/os_lib/vector.h **** static inline unsigned int get_Vector_cur_len(Vector *vector_ptr)
  82:../../source/include/os_lib/vector.h **** {
 128              		.loc 1 82 0
 129              		.cfi_startproc
 130              		@ args = 0, pretend = 0, frame = 8
 131              		@ frame_needed = 1, uses_anonymous_args = 0
 132              		@ link register save eliminated.
 133 0060 80B4     		push	{r7}
 134              	.LCFI10:
 135              		.cfi_def_cfa_offset 4
 136              		.cfi_offset 7, -4
 137 0062 83B0     		sub	sp, sp, #12
 138              	.LCFI11:
 139              		.cfi_def_cfa_offset 16
 140 0064 00AF     		add	r7, sp, #0
 141              	.LCFI12:
 142              		.cfi_def_cfa_register 7
 143 0066 7860     		str	r0, [r7, #4]
  83:../../source/include/os_lib/vector.h **** 	return vector_ptr->cur_len;
 144              		.loc 1 83 0
 145 0068 7B68     		ldr	r3, [r7, #4]
ARM GAS  G:\Users\Jaxb\AppData\Local\Temp\ccOPPqHN.s 			page 5


 146 006a 9B68     		ldr	r3, [r3, #8]
  84:../../source/include/os_lib/vector.h **** }
 147              		.loc 1 84 0
 148 006c 1846     		mov	r0, r3
 149 006e 0C37     		adds	r7, r7, #12
 150              	.LCFI13:
 151              		.cfi_def_cfa_offset 4
 152 0070 BD46     		mov	sp, r7
 153              	.LCFI14:
 154              		.cfi_def_cfa_register 13
 155              		@ sp needed
 156 0072 80BC     		pop	{r7}
 157              	.LCFI15:
 158              		.cfi_restore 7
 159              		.cfi_def_cfa_offset 0
 160 0074 7047     		bx	lr
 161              		.cfi_endproc
 162              	.LFE5:
 163              		.size	get_Vector_cur_len, .-get_Vector_cur_len
 164              		.align	1
 165              		.syntax unified
 166              		.thumb
 167              		.thumb_func
 168              		.fpu softvfp
 169              		.type	heap_get_cur_len, %function
 170              	heap_get_cur_len:
 171              	.LFB8:
 172              		.file 2 "../../source/include/os_lib/heap_oo.h"
   1:../../source/include/os_lib/heap_oo.h **** #ifndef _HEAP_OO_H
   2:../../source/include/os_lib/heap_oo.h **** #define _HEAP_OO_H
   3:../../source/include/os_lib/heap_oo.h **** 
   4:../../source/include/os_lib/heap_oo.h **** #include <vector.h>
   5:../../source/include/os_lib/heap_oo.h **** 
   6:../../source/include/os_lib/heap_oo.h **** #define heap_remove_top(little_heap_ptr,data_store_ptr)  heap_remove_index_data((little_heap_ptr),1
   7:../../source/include/os_lib/heap_oo.h **** #define heap_get_top(little_heap_ptr,data_store_ptr)  heap_get_index_data((little_heap_ptr),(data_s
   8:../../source/include/os_lib/heap_oo.h **** #define heap_get_top_safe(little_heap_ptr,data_store_ptr)  heap_get_index_data_safe((little_heap_pt
   9:../../source/include/os_lib/heap_oo.h **** 
  10:../../source/include/os_lib/heap_oo.h **** struct little_heap
  11:../../source/include/os_lib/heap_oo.h **** {
  12:../../source/include/os_lib/heap_oo.h **** /*private*/
  13:../../source/include/os_lib/heap_oo.h **** 	Vector data;   /* use array to store the data , index start is 1*/
  14:../../source/include/os_lib/heap_oo.h **** 	/* return value <0 means data[index1] < data[index2] */
  15:../../source/include/os_lib/heap_oo.h **** 	int (*cmp)(Vector *Vector_ptr,unsigned int index1,unsigned int index2); /* object oriented*/
  16:../../source/include/os_lib/heap_oo.h **** 	/*auto used by heap_adjust(),if you do not need if,give a empty function to it*/
  17:../../source/include/os_lib/heap_oo.h **** 	void (*index_change_record)(Vector *Vector_ptr,int index);/* object oriented*/
  18:../../source/include/os_lib/heap_oo.h **** };
  19:../../source/include/os_lib/heap_oo.h **** 
  20:../../source/include/os_lib/heap_oo.h **** int heap_init(struct little_heap *const little_heap_ptr,
  21:../../source/include/os_lib/heap_oo.h **** 	unsigned int size,
  22:../../source/include/os_lib/heap_oo.h **** 	unsigned int len_per_data,
  23:../../source/include/os_lib/heap_oo.h **** 	int (*cmp)(Vector *Vector_ptr,unsigned int index1,unsigned int index2),
  24:../../source/include/os_lib/heap_oo.h **** 	void (*index_change_record)(Vector *Vector_ptr,int index));
  25:../../source/include/os_lib/heap_oo.h **** 
  26:../../source/include/os_lib/heap_oo.h **** static inline void heap_delete(struct little_heap *little_heap_ptr)
  27:../../source/include/os_lib/heap_oo.h **** {
  28:../../source/include/os_lib/heap_oo.h **** 	Vector_delete(&little_heap_ptr->data);
  29:../../source/include/os_lib/heap_oo.h **** }
ARM GAS  G:\Users\Jaxb\AppData\Local\Temp\ccOPPqHN.s 			page 6


  30:../../source/include/os_lib/heap_oo.h **** 
  31:../../source/include/os_lib/heap_oo.h **** /*get the data with index "index" and store it into *data_store_ptr*/
  32:../../source/include/os_lib/heap_oo.h **** static inline void heap_get_index_data(struct little_heap *little_heap_ptr,void *data_store_ptr,uns
  33:../../source/include/os_lib/heap_oo.h **** {
  34:../../source/include/os_lib/heap_oo.h **** 	Vector_get_index_data(&little_heap_ptr->data,index,data_store_ptr);
  35:../../source/include/os_lib/heap_oo.h **** }
  36:../../source/include/os_lib/heap_oo.h **** 
  37:../../source/include/os_lib/heap_oo.h **** static inline unsigned int heap_get_cur_len(struct little_heap *little_heap_ptr)
  38:../../source/include/os_lib/heap_oo.h **** {
 173              		.loc 2 38 0
 174              		.cfi_startproc
 175              		@ args = 0, pretend = 0, frame = 8
 176              		@ frame_needed = 1, uses_anonymous_args = 0
 177 0076 80B5     		push	{r7, lr}
 178              	.LCFI16:
 179              		.cfi_def_cfa_offset 8
 180              		.cfi_offset 7, -8
 181              		.cfi_offset 14, -4
 182 0078 82B0     		sub	sp, sp, #8
 183              	.LCFI17:
 184              		.cfi_def_cfa_offset 16
 185 007a 00AF     		add	r7, sp, #0
 186              	.LCFI18:
 187              		.cfi_def_cfa_register 7
 188 007c 7860     		str	r0, [r7, #4]
  39:../../source/include/os_lib/heap_oo.h **** 	return get_Vector_cur_len(&little_heap_ptr->data);
 189              		.loc 2 39 0
 190 007e 7B68     		ldr	r3, [r7, #4]
 191 0080 1846     		mov	r0, r3
 192 0082 FFF7EDFF 		bl	get_Vector_cur_len
 193 0086 0346     		mov	r3, r0
  40:../../source/include/os_lib/heap_oo.h **** }
 194              		.loc 2 40 0
 195 0088 1846     		mov	r0, r3
 196 008a 0837     		adds	r7, r7, #8
 197              	.LCFI19:
 198              		.cfi_def_cfa_offset 8
 199 008c BD46     		mov	sp, r7
 200              	.LCFI20:
 201              		.cfi_def_cfa_register 13
 202              		@ sp needed
 203 008e 80BD     		pop	{r7, pc}
 204              		.cfi_endproc
 205              	.LFE8:
 206              		.size	heap_get_cur_len, .-heap_get_cur_len
 207              		.section	.rodata
 208              		.align	2
 209              	.LC0:
 210 0000 2E2E2F2E 		.ascii	"../../source/src/kernel/OS_LIB/heap_oo.c\000"
 210      2E2F736F 
 210      75726365 
 210      2F737263 
 210      2F6B6572 
 211              		.text
 212              		.align	1
 213              		.global	heap_init
 214              		.syntax unified
ARM GAS  G:\Users\Jaxb\AppData\Local\Temp\ccOPPqHN.s 			page 7


 215              		.thumb
 216              		.thumb_func
 217              		.fpu softvfp
 218              		.type	heap_init, %function
 219              	heap_init:
 220              	.LFB9:
 221              		.file 3 "../../source/src/kernel/OS_LIB/heap_oo.c"
   1:../../source/src/kernel/OS_LIB/heap_oo.c **** #include <heap_oo.h>
   2:../../source/src/kernel/OS_LIB/heap_oo.c **** #include <myassert.h>
   3:../../source/src/kernel/OS_LIB/heap_oo.c **** #include <os_error.h>
   4:../../source/src/kernel/OS_LIB/heap_oo.c **** #include <myMicroLIB.h>
   5:../../source/src/kernel/OS_LIB/heap_oo.c **** #include <ka_configuration.h>
   6:../../source/src/kernel/OS_LIB/heap_oo.c **** #include <kakaosstdint.h>
   7:../../source/src/kernel/OS_LIB/heap_oo.c **** 
   8:../../source/src/kernel/OS_LIB/heap_oo.c **** #define MIN(a,b) ((a) < (b) ? (a) : (b))
   9:../../source/src/kernel/OS_LIB/heap_oo.c **** 
  10:../../source/src/kernel/OS_LIB/heap_oo.c **** int heap_init(struct little_heap *const little_heap_ptr,
  11:../../source/src/kernel/OS_LIB/heap_oo.c **** 	unsigned int size, /* parameter for vector*/
  12:../../source/src/kernel/OS_LIB/heap_oo.c **** 	unsigned int len_per_data, /* parameter for vector*/
  13:../../source/src/kernel/OS_LIB/heap_oo.c **** 	int (*cmp)(Vector *Vector_ptr,unsigned int index1,unsigned int index2),
  14:../../source/src/kernel/OS_LIB/heap_oo.c **** 	void (*index_change_record)(Vector *Vector_ptr,int index))
  15:../../source/src/kernel/OS_LIB/heap_oo.c **** {
 222              		.loc 3 15 0
 223              		.cfi_startproc
 224              		@ args = 4, pretend = 0, frame = 24
 225              		@ frame_needed = 1, uses_anonymous_args = 0
 226 0090 80B5     		push	{r7, lr}
 227              	.LCFI21:
 228              		.cfi_def_cfa_offset 8
 229              		.cfi_offset 7, -8
 230              		.cfi_offset 14, -4
 231 0092 86B0     		sub	sp, sp, #24
 232              	.LCFI22:
 233              		.cfi_def_cfa_offset 32
 234 0094 00AF     		add	r7, sp, #0
 235              	.LCFI23:
 236              		.cfi_def_cfa_register 7
 237 0096 F860     		str	r0, [r7, #12]
 238 0098 B960     		str	r1, [r7, #8]
 239 009a 7A60     		str	r2, [r7, #4]
 240 009c 3B60     		str	r3, [r7]
  16:../../source/src/kernel/OS_LIB/heap_oo.c **** 	int ret;
  17:../../source/src/kernel/OS_LIB/heap_oo.c **** 	ASSERT((NULL != little_heap_ptr) && (NULL != cmp));
 241              		.loc 3 17 0
 242 009e FB68     		ldr	r3, [r7, #12]
 243 00a0 002B     		cmp	r3, #0
 244 00a2 02D0     		beq	.L8
 245              		.loc 3 17 0 is_stmt 0 discriminator 1
 246 00a4 3B68     		ldr	r3, [r7]
 247 00a6 002B     		cmp	r3, #0
 248 00a8 03D1     		bne	.L9
 249              	.L8:
 250              		.loc 3 17 0 discriminator 3
 251 00aa 1121     		movs	r1, #17
 252 00ac 1148     		ldr	r0, .L13
 253 00ae FFF7FEFF 		bl	_ASSERT
 254              	.L9:
ARM GAS  G:\Users\Jaxb\AppData\Local\Temp\ccOPPqHN.s 			page 8


  18:../../source/src/kernel/OS_LIB/heap_oo.c **** 	ASSERT(len_per_data <= sizeof(long long));/* need consideration*/
 255              		.loc 3 18 0 is_stmt 1
 256 00b2 7B68     		ldr	r3, [r7, #4]
 257 00b4 082B     		cmp	r3, #8
 258 00b6 03D9     		bls	.L10
 259              		.loc 3 18 0 is_stmt 0 discriminator 1
 260 00b8 1221     		movs	r1, #18
 261 00ba 0E48     		ldr	r0, .L13
 262 00bc FFF7FEFF 		bl	_ASSERT
 263              	.L10:
  19:../../source/src/kernel/OS_LIB/heap_oo.c **** 	ret = Vector_init(&little_heap_ptr->data,size,len_per_data,MKVFMUL(2));
 264              		.loc 3 19 0 is_stmt 1
 265 00c0 F868     		ldr	r0, [r7, #12]
 266 00c2 7A68     		ldr	r2, [r7, #4]
 267 00c4 0C4B     		ldr	r3, .L13+4
 268 00c6 B968     		ldr	r1, [r7, #8]
 269 00c8 FFF7FEFF 		bl	Vector_init
 270 00cc 7861     		str	r0, [r7, #20]
  20:../../source/src/kernel/OS_LIB/heap_oo.c **** 	if(ret < 0)
 271              		.loc 3 20 0
 272 00ce 7B69     		ldr	r3, [r7, #20]
 273 00d0 002B     		cmp	r3, #0
 274 00d2 01DA     		bge	.L11
  21:../../source/src/kernel/OS_LIB/heap_oo.c **** 	{
  22:../../source/src/kernel/OS_LIB/heap_oo.c **** 		return ret;
 275              		.loc 3 22 0
 276 00d4 7B69     		ldr	r3, [r7, #20]
 277 00d6 09E0     		b	.L12
 278              	.L11:
  23:../../source/src/kernel/OS_LIB/heap_oo.c **** 	}
  24:../../source/src/kernel/OS_LIB/heap_oo.c **** 	little_heap_ptr->data.cur_len = 1;
 279              		.loc 3 24 0
 280 00d8 FB68     		ldr	r3, [r7, #12]
 281 00da 0122     		movs	r2, #1
 282 00dc 9A60     		str	r2, [r3, #8]
  25:../../source/src/kernel/OS_LIB/heap_oo.c **** 	little_heap_ptr->cmp = cmp;
 283              		.loc 3 25 0
 284 00de FB68     		ldr	r3, [r7, #12]
 285 00e0 3A68     		ldr	r2, [r7]
 286 00e2 5A61     		str	r2, [r3, #20]
  26:../../source/src/kernel/OS_LIB/heap_oo.c **** 	little_heap_ptr->index_change_record = index_change_record;
 287              		.loc 3 26 0
 288 00e4 FB68     		ldr	r3, [r7, #12]
 289 00e6 3A6A     		ldr	r2, [r7, #32]
 290 00e8 9A61     		str	r2, [r3, #24]
  27:../../source/src/kernel/OS_LIB/heap_oo.c **** 	return FUN_EXECUTE_SUCCESSFULLY;
 291              		.loc 3 27 0
 292 00ea 0023     		movs	r3, #0
 293              	.L12:
  28:../../source/src/kernel/OS_LIB/heap_oo.c **** }
 294              		.loc 3 28 0
 295 00ec 1846     		mov	r0, r3
 296 00ee 1837     		adds	r7, r7, #24
 297              	.LCFI24:
 298              		.cfi_def_cfa_offset 8
 299 00f0 BD46     		mov	sp, r7
 300              	.LCFI25:
ARM GAS  G:\Users\Jaxb\AppData\Local\Temp\ccOPPqHN.s 			page 9


 301              		.cfi_def_cfa_register 13
 302              		@ sp needed
 303 00f2 80BD     		pop	{r7, pc}
 304              	.L14:
 305              		.align	2
 306              	.L13:
 307 00f4 00000000 		.word	.LC0
 308 00f8 02000080 		.word	-2147483646
 309              		.cfi_endproc
 310              	.LFE9:
 311              		.size	heap_init, .-heap_init
 312              		.align	1
 313              		.syntax unified
 314              		.thumb
 315              		.thumb_func
 316              		.fpu softvfp
 317              		.type	heap_adjust, %function
 318              	heap_adjust:
 319              	.LFB10:
  29:../../source/src/kernel/OS_LIB/heap_oo.c **** 
  30:../../source/src/kernel/OS_LIB/heap_oo.c **** /*subfunction for heap sort*/
  31:../../source/src/kernel/OS_LIB/heap_oo.c **** static void heap_adjust(struct little_heap *little_heap_ptr,int index,int size)
  32:../../source/src/kernel/OS_LIB/heap_oo.c **** {
 320              		.loc 3 32 0
 321              		.cfi_startproc
 322              		@ args = 0, pretend = 0, frame = 24
 323              		@ frame_needed = 1, uses_anonymous_args = 0
 324 00fc 80B5     		push	{r7, lr}
 325              	.LCFI26:
 326              		.cfi_def_cfa_offset 8
 327              		.cfi_offset 7, -8
 328              		.cfi_offset 14, -4
 329 00fe 86B0     		sub	sp, sp, #24
 330              	.LCFI27:
 331              		.cfi_def_cfa_offset 32
 332 0100 00AF     		add	r7, sp, #0
 333              	.LCFI28:
 334              		.cfi_def_cfa_register 7
 335 0102 F860     		str	r0, [r7, #12]
 336 0104 B960     		str	r1, [r7, #8]
 337 0106 7A60     		str	r2, [r7, #4]
  33:../../source/src/kernel/OS_LIB/heap_oo.c **** 	int j;
  34:../../source/src/kernel/OS_LIB/heap_oo.c **** 	Vector *Vector_ptr = &little_heap_ptr->data;
 338              		.loc 3 34 0
 339 0108 FB68     		ldr	r3, [r7, #12]
 340 010a 3B61     		str	r3, [r7, #16]
  35:../../source/src/kernel/OS_LIB/heap_oo.c **** 	Vector_set_inner(Vector_ptr,0,index);
 341              		.loc 3 35 0
 342 010c BB68     		ldr	r3, [r7, #8]
 343 010e 1A46     		mov	r2, r3
 344 0110 0021     		movs	r1, #0
 345 0112 3869     		ldr	r0, [r7, #16]
 346 0114 FFF7FEFF 		bl	Vector_set_inner
  36:../../source/src/kernel/OS_LIB/heap_oo.c **** 	for(j=2*index;j<=size;j*=2)
 347              		.loc 3 36 0
 348 0118 BB68     		ldr	r3, [r7, #8]
 349 011a 5B00     		lsls	r3, r3, #1
ARM GAS  G:\Users\Jaxb\AppData\Local\Temp\ccOPPqHN.s 			page 10


 350 011c 7B61     		str	r3, [r7, #20]
 351 011e 2FE0     		b	.L16
 352              	.L21:
  37:../../source/src/kernel/OS_LIB/heap_oo.c **** 	{
  38:../../source/src/kernel/OS_LIB/heap_oo.c **** 		if(j<size && (little_heap_ptr->cmp(Vector_ptr,j+1,j) < 0))
 353              		.loc 3 38 0
 354 0120 7A69     		ldr	r2, [r7, #20]
 355 0122 7B68     		ldr	r3, [r7, #4]
 356 0124 9A42     		cmp	r2, r3
 357 0126 0DDA     		bge	.L17
 358              		.loc 3 38 0 is_stmt 0 discriminator 1
 359 0128 FB68     		ldr	r3, [r7, #12]
 360 012a 5B69     		ldr	r3, [r3, #20]
 361 012c 7A69     		ldr	r2, [r7, #20]
 362 012e 0132     		adds	r2, r2, #1
 363 0130 1146     		mov	r1, r2
 364 0132 7A69     		ldr	r2, [r7, #20]
 365 0134 3869     		ldr	r0, [r7, #16]
 366 0136 9847     		blx	r3
 367              	.LVL0:
 368 0138 0346     		mov	r3, r0
 369 013a 002B     		cmp	r3, #0
 370 013c 02DA     		bge	.L17
  39:../../source/src/kernel/OS_LIB/heap_oo.c **** 			++j;
 371              		.loc 3 39 0 is_stmt 1
 372 013e 7B69     		ldr	r3, [r7, #20]
 373 0140 0133     		adds	r3, r3, #1
 374 0142 7B61     		str	r3, [r7, #20]
 375              	.L17:
  40:../../source/src/kernel/OS_LIB/heap_oo.c **** 		if(little_heap_ptr->cmp(Vector_ptr,0,j) <= 0)
 376              		.loc 3 40 0
 377 0144 FB68     		ldr	r3, [r7, #12]
 378 0146 5B69     		ldr	r3, [r3, #20]
 379 0148 7A69     		ldr	r2, [r7, #20]
 380 014a 0021     		movs	r1, #0
 381 014c 3869     		ldr	r0, [r7, #16]
 382 014e 9847     		blx	r3
 383              	.LVL1:
 384 0150 0346     		mov	r3, r0
 385 0152 002B     		cmp	r3, #0
 386 0154 19DD     		ble	.L23
  41:../../source/src/kernel/OS_LIB/heap_oo.c **** 			break;
  42:../../source/src/kernel/OS_LIB/heap_oo.c **** 		Vector_set_inner(Vector_ptr,index,j);
 387              		.loc 3 42 0
 388 0156 BB68     		ldr	r3, [r7, #8]
 389 0158 7A69     		ldr	r2, [r7, #20]
 390 015a 1946     		mov	r1, r3
 391 015c 3869     		ldr	r0, [r7, #16]
 392 015e FFF7FEFF 		bl	Vector_set_inner
  43:../../source/src/kernel/OS_LIB/heap_oo.c **** 		if(little_heap_ptr->index_change_record)
 393              		.loc 3 43 0
 394 0162 FB68     		ldr	r3, [r7, #12]
 395 0164 9B69     		ldr	r3, [r3, #24]
 396 0166 002B     		cmp	r3, #0
 397 0168 05D0     		beq	.L20
  44:../../source/src/kernel/OS_LIB/heap_oo.c **** 		{
  45:../../source/src/kernel/OS_LIB/heap_oo.c **** 			little_heap_ptr->index_change_record(&little_heap_ptr->data,index);
ARM GAS  G:\Users\Jaxb\AppData\Local\Temp\ccOPPqHN.s 			page 11


 398              		.loc 3 45 0
 399 016a FB68     		ldr	r3, [r7, #12]
 400 016c 9B69     		ldr	r3, [r3, #24]
 401 016e FA68     		ldr	r2, [r7, #12]
 402 0170 B968     		ldr	r1, [r7, #8]
 403 0172 1046     		mov	r0, r2
 404 0174 9847     		blx	r3
 405              	.LVL2:
 406              	.L20:
  46:../../source/src/kernel/OS_LIB/heap_oo.c **** 		}
  47:../../source/src/kernel/OS_LIB/heap_oo.c **** 		index = j;
 407              		.loc 3 47 0 discriminator 2
 408 0176 7B69     		ldr	r3, [r7, #20]
 409 0178 BB60     		str	r3, [r7, #8]
  36:../../source/src/kernel/OS_LIB/heap_oo.c **** 	{
 410              		.loc 3 36 0 discriminator 2
 411 017a 7B69     		ldr	r3, [r7, #20]
 412 017c 5B00     		lsls	r3, r3, #1
 413 017e 7B61     		str	r3, [r7, #20]
 414              	.L16:
  36:../../source/src/kernel/OS_LIB/heap_oo.c **** 	{
 415              		.loc 3 36 0 is_stmt 0 discriminator 1
 416 0180 7A69     		ldr	r2, [r7, #20]
 417 0182 7B68     		ldr	r3, [r7, #4]
 418 0184 9A42     		cmp	r2, r3
 419 0186 CBDD     		ble	.L21
 420 0188 00E0     		b	.L19
 421              	.L23:
  41:../../source/src/kernel/OS_LIB/heap_oo.c **** 		Vector_set_inner(Vector_ptr,index,j);
 422              		.loc 3 41 0 is_stmt 1
 423 018a 00BF     		nop
 424              	.L19:
  48:../../source/src/kernel/OS_LIB/heap_oo.c **** 	}
  49:../../source/src/kernel/OS_LIB/heap_oo.c **** 	Vector_set_inner(Vector_ptr,index,0);
 425              		.loc 3 49 0
 426 018c BB68     		ldr	r3, [r7, #8]
 427 018e 0022     		movs	r2, #0
 428 0190 1946     		mov	r1, r3
 429 0192 3869     		ldr	r0, [r7, #16]
 430 0194 FFF7FEFF 		bl	Vector_set_inner
  50:../../source/src/kernel/OS_LIB/heap_oo.c **** 	if(little_heap_ptr->index_change_record)
 431              		.loc 3 50 0
 432 0198 FB68     		ldr	r3, [r7, #12]
 433 019a 9B69     		ldr	r3, [r3, #24]
 434 019c 002B     		cmp	r3, #0
 435 019e 05D0     		beq	.L24
  51:../../source/src/kernel/OS_LIB/heap_oo.c **** 	{
  52:../../source/src/kernel/OS_LIB/heap_oo.c **** 		little_heap_ptr->index_change_record(&little_heap_ptr->data,index);
 436              		.loc 3 52 0
 437 01a0 FB68     		ldr	r3, [r7, #12]
 438 01a2 9B69     		ldr	r3, [r3, #24]
 439 01a4 FA68     		ldr	r2, [r7, #12]
 440 01a6 B968     		ldr	r1, [r7, #8]
 441 01a8 1046     		mov	r0, r2
 442 01aa 9847     		blx	r3
 443              	.LVL3:
 444              	.L24:
ARM GAS  G:\Users\Jaxb\AppData\Local\Temp\ccOPPqHN.s 			page 12


  53:../../source/src/kernel/OS_LIB/heap_oo.c **** 	}
  54:../../source/src/kernel/OS_LIB/heap_oo.c **** }
 445              		.loc 3 54 0
 446 01ac 00BF     		nop
 447 01ae 1837     		adds	r7, r7, #24
 448              	.LCFI29:
 449              		.cfi_def_cfa_offset 8
 450 01b0 BD46     		mov	sp, r7
 451              	.LCFI30:
 452              		.cfi_def_cfa_register 13
 453              		@ sp needed
 454 01b2 80BD     		pop	{r7, pc}
 455              		.cfi_endproc
 456              	.LFE10:
 457              		.size	heap_adjust, .-heap_adjust
 458              		.align	1
 459              		.global	heap_push
 460              		.syntax unified
 461              		.thumb
 462              		.thumb_func
 463              		.fpu softvfp
 464              		.type	heap_push, %function
 465              	heap_push:
 466              	.LFB11:
  55:../../source/src/kernel/OS_LIB/heap_oo.c **** 
  56:../../source/src/kernel/OS_LIB/heap_oo.c **** /*add a data with *push_data_ptr, then adjust the heap */
  57:../../source/src/kernel/OS_LIB/heap_oo.c **** int heap_push(struct little_heap *little_heap_ptr,void *push_data_ptr)
  58:../../source/src/kernel/OS_LIB/heap_oo.c **** {
 467              		.loc 3 58 0
 468              		.cfi_startproc
 469              		@ args = 0, pretend = 0, frame = 24
 470              		@ frame_needed = 1, uses_anonymous_args = 0
 471 01b4 B0B5     		push	{r4, r5, r7, lr}
 472              	.LCFI31:
 473              		.cfi_def_cfa_offset 16
 474              		.cfi_offset 4, -16
 475              		.cfi_offset 5, -12
 476              		.cfi_offset 7, -8
 477              		.cfi_offset 14, -4
 478 01b6 86B0     		sub	sp, sp, #24
 479              	.LCFI32:
 480              		.cfi_def_cfa_offset 40
 481 01b8 00AF     		add	r7, sp, #0
 482              	.LCFI33:
 483              		.cfi_def_cfa_register 7
 484 01ba 7860     		str	r0, [r7, #4]
 485 01bc 3960     		str	r1, [r7]
  59:../../source/src/kernel/OS_LIB/heap_oo.c **** 	ASSERT((NULL != little_heap_ptr) && (NULL != push_data_ptr));
 486              		.loc 3 59 0
 487 01be 7B68     		ldr	r3, [r7, #4]
 488 01c0 002B     		cmp	r3, #0
 489 01c2 02D0     		beq	.L26
 490              		.loc 3 59 0 is_stmt 0 discriminator 1
 491 01c4 3B68     		ldr	r3, [r7]
 492 01c6 002B     		cmp	r3, #0
 493 01c8 03D1     		bne	.L27
 494              	.L26:
ARM GAS  G:\Users\Jaxb\AppData\Local\Temp\ccOPPqHN.s 			page 13


 495              		.loc 3 59 0 discriminator 3
 496 01ca 3B21     		movs	r1, #59
 497 01cc 2148     		ldr	r0, .L34
 498 01ce FFF7FEFF 		bl	_ASSERT
 499              	.L27:
  60:../../source/src/kernel/OS_LIB/heap_oo.c **** 	int ret,i,size;
  61:../../source/src/kernel/OS_LIB/heap_oo.c **** 	ret = Vector_push_back(&little_heap_ptr->data,push_data_ptr);
 500              		.loc 3 61 0 is_stmt 1
 501 01d2 7B68     		ldr	r3, [r7, #4]
 502 01d4 3968     		ldr	r1, [r7]
 503 01d6 1846     		mov	r0, r3
 504 01d8 FFF7FEFF 		bl	Vector_push_back
 505 01dc 3861     		str	r0, [r7, #16]
  62:../../source/src/kernel/OS_LIB/heap_oo.c **** 	if(little_heap_ptr->index_change_record)
 506              		.loc 3 62 0
 507 01de 7B68     		ldr	r3, [r7, #4]
 508 01e0 9B69     		ldr	r3, [r3, #24]
 509 01e2 002B     		cmp	r3, #0
 510 01e4 0AD0     		beq	.L28
  63:../../source/src/kernel/OS_LIB/heap_oo.c **** 	{
  64:../../source/src/kernel/OS_LIB/heap_oo.c **** 		little_heap_ptr->index_change_record(&little_heap_ptr->data,heap_get_cur_len(little_heap_ptr)-1);
 511              		.loc 3 64 0
 512 01e6 7B68     		ldr	r3, [r7, #4]
 513 01e8 9C69     		ldr	r4, [r3, #24]
 514 01ea 7D68     		ldr	r5, [r7, #4]
 515 01ec 7868     		ldr	r0, [r7, #4]
 516 01ee FFF742FF 		bl	heap_get_cur_len
 517 01f2 0346     		mov	r3, r0
 518 01f4 013B     		subs	r3, r3, #1
 519 01f6 1946     		mov	r1, r3
 520 01f8 2846     		mov	r0, r5
 521 01fa A047     		blx	r4
 522              	.LVL4:
 523              	.L28:
  65:../../source/src/kernel/OS_LIB/heap_oo.c **** 	}
  66:../../source/src/kernel/OS_LIB/heap_oo.c **** 	ASSERT(0 == ret);
 524              		.loc 3 66 0
 525 01fc 3B69     		ldr	r3, [r7, #16]
 526 01fe 002B     		cmp	r3, #0
 527 0200 03D0     		beq	.L29
 528              		.loc 3 66 0 is_stmt 0 discriminator 1
 529 0202 4221     		movs	r1, #66
 530 0204 1348     		ldr	r0, .L34
 531 0206 FFF7FEFF 		bl	_ASSERT
 532              	.L29:
  67:../../source/src/kernel/OS_LIB/heap_oo.c **** 	if(ret < 0)
 533              		.loc 3 67 0 is_stmt 1
 534 020a 3B69     		ldr	r3, [r7, #16]
 535 020c 002B     		cmp	r3, #0
 536 020e 01DA     		bge	.L30
  68:../../source/src/kernel/OS_LIB/heap_oo.c **** 		return ret;
 537              		.loc 3 68 0
 538 0210 3B69     		ldr	r3, [r7, #16]
 539 0212 1AE0     		b	.L31
 540              	.L30:
  69:../../source/src/kernel/OS_LIB/heap_oo.c **** 	size = get_Vector_cur_len(&little_heap_ptr->data) - 1;
 541              		.loc 3 69 0
ARM GAS  G:\Users\Jaxb\AppData\Local\Temp\ccOPPqHN.s 			page 14


 542 0214 7B68     		ldr	r3, [r7, #4]
 543 0216 1846     		mov	r0, r3
 544 0218 FFF722FF 		bl	get_Vector_cur_len
 545 021c 0346     		mov	r3, r0
 546 021e 013B     		subs	r3, r3, #1
 547 0220 FB60     		str	r3, [r7, #12]
  70:../../source/src/kernel/OS_LIB/heap_oo.c **** 	for(i=size/2;i>0;i/=2)
 548              		.loc 3 70 0
 549 0222 FB68     		ldr	r3, [r7, #12]
 550 0224 DA0F     		lsrs	r2, r3, #31
 551 0226 1344     		add	r3, r3, r2
 552 0228 5B10     		asrs	r3, r3, #1
 553 022a 7B61     		str	r3, [r7, #20]
 554 022c 09E0     		b	.L32
 555              	.L33:
  71:../../source/src/kernel/OS_LIB/heap_oo.c **** 	{
  72:../../source/src/kernel/OS_LIB/heap_oo.c **** 		heap_adjust(little_heap_ptr,i,size);
 556              		.loc 3 72 0 discriminator 3
 557 022e FA68     		ldr	r2, [r7, #12]
 558 0230 7969     		ldr	r1, [r7, #20]
 559 0232 7868     		ldr	r0, [r7, #4]
 560 0234 FFF762FF 		bl	heap_adjust
  70:../../source/src/kernel/OS_LIB/heap_oo.c **** 	for(i=size/2;i>0;i/=2)
 561              		.loc 3 70 0 discriminator 3
 562 0238 7B69     		ldr	r3, [r7, #20]
 563 023a DA0F     		lsrs	r2, r3, #31
 564 023c 1344     		add	r3, r3, r2
 565 023e 5B10     		asrs	r3, r3, #1
 566 0240 7B61     		str	r3, [r7, #20]
 567              	.L32:
  70:../../source/src/kernel/OS_LIB/heap_oo.c **** 	for(i=size/2;i>0;i/=2)
 568              		.loc 3 70 0 is_stmt 0 discriminator 1
 569 0242 7B69     		ldr	r3, [r7, #20]
 570 0244 002B     		cmp	r3, #0
 571 0246 F2DC     		bgt	.L33
  73:../../source/src/kernel/OS_LIB/heap_oo.c **** 	}
  74:../../source/src/kernel/OS_LIB/heap_oo.c **** 	return FUN_EXECUTE_SUCCESSFULLY;
 572              		.loc 3 74 0 is_stmt 1
 573 0248 0023     		movs	r3, #0
 574              	.L31:
  75:../../source/src/kernel/OS_LIB/heap_oo.c **** }
 575              		.loc 3 75 0
 576 024a 1846     		mov	r0, r3
 577 024c 1837     		adds	r7, r7, #24
 578              	.LCFI34:
 579              		.cfi_def_cfa_offset 16
 580 024e BD46     		mov	sp, r7
 581              	.LCFI35:
 582              		.cfi_def_cfa_register 13
 583              		@ sp needed
 584 0250 B0BD     		pop	{r4, r5, r7, pc}
 585              	.L35:
 586 0252 00BF     		.align	2
 587              	.L34:
 588 0254 00000000 		.word	.LC0
 589              		.cfi_endproc
 590              	.LFE11:
ARM GAS  G:\Users\Jaxb\AppData\Local\Temp\ccOPPqHN.s 			page 15


 591              		.size	heap_push, .-heap_push
 592              		.align	1
 593              		.global	heap_get_index_data_safe
 594              		.syntax unified
 595              		.thumb
 596              		.thumb_func
 597              		.fpu softvfp
 598              		.type	heap_get_index_data_safe, %function
 599              	heap_get_index_data_safe:
 600              	.LFB12:
  76:../../source/src/kernel/OS_LIB/heap_oo.c **** 
  77:../../source/src/kernel/OS_LIB/heap_oo.c **** int heap_get_index_data_safe(struct little_heap *little_heap_ptr,void *data_store_ptr,unsigned int 
  78:../../source/src/kernel/OS_LIB/heap_oo.c **** {
 601              		.loc 3 78 0
 602              		.cfi_startproc
 603              		@ args = 0, pretend = 0, frame = 16
 604              		@ frame_needed = 1, uses_anonymous_args = 0
 605 0258 80B5     		push	{r7, lr}
 606              	.LCFI36:
 607              		.cfi_def_cfa_offset 8
 608              		.cfi_offset 7, -8
 609              		.cfi_offset 14, -4
 610 025a 84B0     		sub	sp, sp, #16
 611              	.LCFI37:
 612              		.cfi_def_cfa_offset 24
 613 025c 00AF     		add	r7, sp, #0
 614              	.LCFI38:
 615              		.cfi_def_cfa_register 7
 616 025e F860     		str	r0, [r7, #12]
 617 0260 B960     		str	r1, [r7, #8]
 618 0262 7A60     		str	r2, [r7, #4]
  79:../../source/src/kernel/OS_LIB/heap_oo.c **** 	ASSERT((NULL != little_heap_ptr) && (NULL != data_store_ptr));
 619              		.loc 3 79 0
 620 0264 FB68     		ldr	r3, [r7, #12]
 621 0266 002B     		cmp	r3, #0
 622 0268 02D0     		beq	.L37
 623              		.loc 3 79 0 is_stmt 0 discriminator 1
 624 026a BB68     		ldr	r3, [r7, #8]
 625 026c 002B     		cmp	r3, #0
 626 026e 03D1     		bne	.L38
 627              	.L37:
 628              		.loc 3 79 0 discriminator 3
 629 0270 4F21     		movs	r1, #79
 630 0272 0C48     		ldr	r0, .L41
 631 0274 FFF7FEFF 		bl	_ASSERT
 632              	.L38:
  80:../../source/src/kernel/OS_LIB/heap_oo.c **** 	if(get_Vector_cur_len(&little_heap_ptr->data) <= index)
 633              		.loc 3 80 0 is_stmt 1
 634 0278 FB68     		ldr	r3, [r7, #12]
 635 027a 1846     		mov	r0, r3
 636 027c FFF7F0FE 		bl	get_Vector_cur_len
 637 0280 0246     		mov	r2, r0
 638 0282 7B68     		ldr	r3, [r7, #4]
 639 0284 9342     		cmp	r3, r2
 640 0286 02D3     		bcc	.L39
  81:../../source/src/kernel/OS_LIB/heap_oo.c **** 	{
  82:../../source/src/kernel/OS_LIB/heap_oo.c **** 		return -ERROR_VALUELESS_INPUT;
ARM GAS  G:\Users\Jaxb\AppData\Local\Temp\ccOPPqHN.s 			page 16


 641              		.loc 3 82 0
 642 0288 6FF0FD03 		mvn	r3, #253
 643 028c 06E0     		b	.L40
 644              	.L39:
  83:../../source/src/kernel/OS_LIB/heap_oo.c **** 	}
  84:../../source/src/kernel/OS_LIB/heap_oo.c **** 	Vector_get_index_data(&little_heap_ptr->data,index,data_store_ptr);
 645              		.loc 3 84 0
 646 028e FB68     		ldr	r3, [r7, #12]
 647 0290 BA68     		ldr	r2, [r7, #8]
 648 0292 7968     		ldr	r1, [r7, #4]
 649 0294 1846     		mov	r0, r3
 650 0296 FFF7B3FE 		bl	Vector_get_index_data
  85:../../source/src/kernel/OS_LIB/heap_oo.c **** 	return FUN_EXECUTE_SUCCESSFULLY;
 651              		.loc 3 85 0
 652 029a 0023     		movs	r3, #0
 653              	.L40:
  86:../../source/src/kernel/OS_LIB/heap_oo.c **** }
 654              		.loc 3 86 0
 655 029c 1846     		mov	r0, r3
 656 029e 1037     		adds	r7, r7, #16
 657              	.LCFI39:
 658              		.cfi_def_cfa_offset 8
 659 02a0 BD46     		mov	sp, r7
 660              	.LCFI40:
 661              		.cfi_def_cfa_register 13
 662              		@ sp needed
 663 02a2 80BD     		pop	{r7, pc}
 664              	.L42:
 665              		.align	2
 666              	.L41:
 667 02a4 00000000 		.word	.LC0
 668              		.cfi_endproc
 669              	.LFE12:
 670              		.size	heap_get_index_data_safe, .-heap_get_index_data_safe
 671              		.align	1
 672              		.global	heap_set_index_data
 673              		.syntax unified
 674              		.thumb
 675              		.thumb_func
 676              		.fpu softvfp
 677              		.type	heap_set_index_data, %function
 678              	heap_set_index_data:
 679              	.LFB13:
  87:../../source/src/kernel/OS_LIB/heap_oo.c **** 
  88:../../source/src/kernel/OS_LIB/heap_oo.c **** /*get the data with index "index" with data *data_store_ptr; then adjust the heap*/
  89:../../source/src/kernel/OS_LIB/heap_oo.c **** int heap_set_index_data(struct little_heap *little_heap_ptr,unsigned int index,void *data_store_ptr
  90:../../source/src/kernel/OS_LIB/heap_oo.c **** {
 680              		.loc 3 90 0
 681              		.cfi_startproc
 682              		@ args = 0, pretend = 0, frame = 24
 683              		@ frame_needed = 1, uses_anonymous_args = 0
 684 02a8 80B5     		push	{r7, lr}
 685              	.LCFI41:
 686              		.cfi_def_cfa_offset 8
 687              		.cfi_offset 7, -8
 688              		.cfi_offset 14, -4
 689 02aa 86B0     		sub	sp, sp, #24
ARM GAS  G:\Users\Jaxb\AppData\Local\Temp\ccOPPqHN.s 			page 17


 690              	.LCFI42:
 691              		.cfi_def_cfa_offset 32
 692 02ac 00AF     		add	r7, sp, #0
 693              	.LCFI43:
 694              		.cfi_def_cfa_register 7
 695 02ae F860     		str	r0, [r7, #12]
 696 02b0 B960     		str	r1, [r7, #8]
 697 02b2 7A60     		str	r2, [r7, #4]
  91:../../source/src/kernel/OS_LIB/heap_oo.c **** 	ASSERT((NULL != little_heap_ptr) && (NULL != data_store_ptr));
 698              		.loc 3 91 0
 699 02b4 FB68     		ldr	r3, [r7, #12]
 700 02b6 002B     		cmp	r3, #0
 701 02b8 02D0     		beq	.L44
 702              		.loc 3 91 0 is_stmt 0 discriminator 1
 703 02ba 7B68     		ldr	r3, [r7, #4]
 704 02bc 002B     		cmp	r3, #0
 705 02be 03D1     		bne	.L45
 706              	.L44:
 707              		.loc 3 91 0 discriminator 3
 708 02c0 5B21     		movs	r1, #91
 709 02c2 1448     		ldr	r0, .L49
 710 02c4 FFF7FEFF 		bl	_ASSERT
 711              	.L45:
  92:../../source/src/kernel/OS_LIB/heap_oo.c **** 	Vector_set_index_data(&little_heap_ptr->data,index,data_store_ptr);
 712              		.loc 3 92 0 is_stmt 1
 713 02c8 FB68     		ldr	r3, [r7, #12]
 714 02ca 7A68     		ldr	r2, [r7, #4]
 715 02cc B968     		ldr	r1, [r7, #8]
 716 02ce 1846     		mov	r0, r3
 717 02d0 FFF7AEFE 		bl	Vector_set_index_data
  93:../../source/src/kernel/OS_LIB/heap_oo.c **** 	unsigned int size = get_Vector_cur_len(&little_heap_ptr->data) - 1;
 718              		.loc 3 93 0
 719 02d4 FB68     		ldr	r3, [r7, #12]
 720 02d6 1846     		mov	r0, r3
 721 02d8 FFF7C2FE 		bl	get_Vector_cur_len
 722 02dc 0346     		mov	r3, r0
 723 02de 013B     		subs	r3, r3, #1
 724 02e0 3B61     		str	r3, [r7, #16]
  94:../../source/src/kernel/OS_LIB/heap_oo.c **** 	unsigned int i;
  95:../../source/src/kernel/OS_LIB/heap_oo.c **** 	for(i=MIN(index,size/2);i>0;--i)
 725              		.loc 3 95 0
 726 02e2 3B69     		ldr	r3, [r7, #16]
 727 02e4 5B08     		lsrs	r3, r3, #1
 728 02e6 BA68     		ldr	r2, [r7, #8]
 729 02e8 9342     		cmp	r3, r2
 730 02ea 28BF     		it	cs
 731 02ec 1346     		movcs	r3, r2
 732 02ee 7B61     		str	r3, [r7, #20]
 733 02f0 08E0     		b	.L46
 734              	.L47:
  96:../../source/src/kernel/OS_LIB/heap_oo.c **** 	{
  97:../../source/src/kernel/OS_LIB/heap_oo.c **** 		heap_adjust(little_heap_ptr,i,size);
 735              		.loc 3 97 0 discriminator 3
 736 02f2 7B69     		ldr	r3, [r7, #20]
 737 02f4 3A69     		ldr	r2, [r7, #16]
 738 02f6 1946     		mov	r1, r3
 739 02f8 F868     		ldr	r0, [r7, #12]
ARM GAS  G:\Users\Jaxb\AppData\Local\Temp\ccOPPqHN.s 			page 18


 740 02fa FFF7FFFE 		bl	heap_adjust
  95:../../source/src/kernel/OS_LIB/heap_oo.c **** 	{
 741              		.loc 3 95 0 discriminator 3
 742 02fe 7B69     		ldr	r3, [r7, #20]
 743 0300 013B     		subs	r3, r3, #1
 744 0302 7B61     		str	r3, [r7, #20]
 745              	.L46:
  95:../../source/src/kernel/OS_LIB/heap_oo.c **** 	{
 746              		.loc 3 95 0 is_stmt 0 discriminator 1
 747 0304 7B69     		ldr	r3, [r7, #20]
 748 0306 002B     		cmp	r3, #0
 749 0308 F3D1     		bne	.L47
  98:../../source/src/kernel/OS_LIB/heap_oo.c **** 	}
  99:../../source/src/kernel/OS_LIB/heap_oo.c **** 	return FUN_EXECUTE_SUCCESSFULLY;
 750              		.loc 3 99 0 is_stmt 1
 751 030a 0023     		movs	r3, #0
 100:../../source/src/kernel/OS_LIB/heap_oo.c **** }
 752              		.loc 3 100 0
 753 030c 1846     		mov	r0, r3
 754 030e 1837     		adds	r7, r7, #24
 755              	.LCFI44:
 756              		.cfi_def_cfa_offset 8
 757 0310 BD46     		mov	sp, r7
 758              	.LCFI45:
 759              		.cfi_def_cfa_register 13
 760              		@ sp needed
 761 0312 80BD     		pop	{r7, pc}
 762              	.L50:
 763              		.align	2
 764              	.L49:
 765 0314 00000000 		.word	.LC0
 766              		.cfi_endproc
 767              	.LFE13:
 768              		.size	heap_set_index_data, .-heap_set_index_data
 769              		.align	1
 770              		.global	heap_remove_index_data
 771              		.syntax unified
 772              		.thumb
 773              		.thumb_func
 774              		.fpu softvfp
 775              		.type	heap_remove_index_data, %function
 776              	heap_remove_index_data:
 777              	.LFB14:
 101:../../source/src/kernel/OS_LIB/heap_oo.c **** 
 102:../../source/src/kernel/OS_LIB/heap_oo.c **** /*remove the data with index "index" and store it into *data_store_ptr; then adjust the heap*/
 103:../../source/src/kernel/OS_LIB/heap_oo.c **** int heap_remove_index_data(struct little_heap *little_heap_ptr,unsigned int index,void *data_store_
 104:../../source/src/kernel/OS_LIB/heap_oo.c **** {
 778              		.loc 3 104 0
 779              		.cfi_startproc
 780              		@ args = 0, pretend = 0, frame = 32
 781              		@ frame_needed = 1, uses_anonymous_args = 0
 782 0318 80B5     		push	{r7, lr}
 783              	.LCFI46:
 784              		.cfi_def_cfa_offset 8
 785              		.cfi_offset 7, -8
 786              		.cfi_offset 14, -4
 787 031a 88B0     		sub	sp, sp, #32
ARM GAS  G:\Users\Jaxb\AppData\Local\Temp\ccOPPqHN.s 			page 19


 788              	.LCFI47:
 789              		.cfi_def_cfa_offset 40
 790 031c 00AF     		add	r7, sp, #0
 791              	.LCFI48:
 792              		.cfi_def_cfa_register 7
 793 031e F860     		str	r0, [r7, #12]
 794 0320 B960     		str	r1, [r7, #8]
 795 0322 7A60     		str	r2, [r7, #4]
 105:../../source/src/kernel/OS_LIB/heap_oo.c **** 	ASSERT(NULL != little_heap_ptr);
 796              		.loc 3 105 0
 797 0324 FB68     		ldr	r3, [r7, #12]
 798 0326 002B     		cmp	r3, #0
 799 0328 03D1     		bne	.L52
 800              		.loc 3 105 0 is_stmt 0 discriminator 1
 801 032a 6921     		movs	r1, #105
 802 032c 1948     		ldr	r0, .L58
 803 032e FFF7FEFF 		bl	_ASSERT
 804              	.L52:
 106:../../source/src/kernel/OS_LIB/heap_oo.c **** 	ASSERT(0 != index);
 805              		.loc 3 106 0 is_stmt 1
 806 0332 BB68     		ldr	r3, [r7, #8]
 807 0334 002B     		cmp	r3, #0
 808 0336 03D1     		bne	.L53
 809              		.loc 3 106 0 is_stmt 0 discriminator 1
 810 0338 6A21     		movs	r1, #106
 811 033a 1648     		ldr	r0, .L58
 812 033c FFF7FEFF 		bl	_ASSERT
 813              	.L53:
 107:../../source/src/kernel/OS_LIB/heap_oo.c **** 	int ret,i;
 108:../../source/src/kernel/OS_LIB/heap_oo.c **** 	ret = Vector_remove_index_data(&little_heap_ptr->data,index,data_store_ptr);
 814              		.loc 3 108 0 is_stmt 1
 815 0340 FB68     		ldr	r3, [r7, #12]
 816 0342 7A68     		ldr	r2, [r7, #4]
 817 0344 B968     		ldr	r1, [r7, #8]
 818 0346 1846     		mov	r0, r3
 819 0348 FFF7FEFF 		bl	Vector_remove_index_data
 820 034c B861     		str	r0, [r7, #24]
 109:../../source/src/kernel/OS_LIB/heap_oo.c **** 	if(ret < 0)
 821              		.loc 3 109 0
 822 034e BB69     		ldr	r3, [r7, #24]
 823 0350 002B     		cmp	r3, #0
 824 0352 01DA     		bge	.L54
 110:../../source/src/kernel/OS_LIB/heap_oo.c **** 	{
 111:../../source/src/kernel/OS_LIB/heap_oo.c **** 		return ret;
 825              		.loc 3 111 0
 826 0354 BB69     		ldr	r3, [r7, #24]
 827 0356 18E0     		b	.L55
 828              	.L54:
 112:../../source/src/kernel/OS_LIB/heap_oo.c **** 	}
 113:../../source/src/kernel/OS_LIB/heap_oo.c **** 	/*rebuild heap*/
 114:../../source/src/kernel/OS_LIB/heap_oo.c **** 	int size = get_Vector_cur_len(&little_heap_ptr->data) - 1;
 829              		.loc 3 114 0
 830 0358 FB68     		ldr	r3, [r7, #12]
 831 035a 1846     		mov	r0, r3
 832 035c FFF780FE 		bl	get_Vector_cur_len
 833 0360 0346     		mov	r3, r0
 834 0362 013B     		subs	r3, r3, #1
ARM GAS  G:\Users\Jaxb\AppData\Local\Temp\ccOPPqHN.s 			page 20


 835 0364 7B61     		str	r3, [r7, #20]
 115:../../source/src/kernel/OS_LIB/heap_oo.c **** 	for(i=size/2;i>0;--i)
 836              		.loc 3 115 0
 837 0366 7B69     		ldr	r3, [r7, #20]
 838 0368 DA0F     		lsrs	r2, r3, #31
 839 036a 1344     		add	r3, r3, r2
 840 036c 5B10     		asrs	r3, r3, #1
 841 036e FB61     		str	r3, [r7, #28]
 842 0370 07E0     		b	.L56
 843              	.L57:
 116:../../source/src/kernel/OS_LIB/heap_oo.c **** 	{
 117:../../source/src/kernel/OS_LIB/heap_oo.c **** 		heap_adjust(little_heap_ptr,i,size);
 844              		.loc 3 117 0 discriminator 3
 845 0372 7A69     		ldr	r2, [r7, #20]
 846 0374 F969     		ldr	r1, [r7, #28]
 847 0376 F868     		ldr	r0, [r7, #12]
 848 0378 FFF7C0FE 		bl	heap_adjust
 115:../../source/src/kernel/OS_LIB/heap_oo.c **** 	for(i=size/2;i>0;--i)
 849              		.loc 3 115 0 discriminator 3
 850 037c FB69     		ldr	r3, [r7, #28]
 851 037e 013B     		subs	r3, r3, #1
 852 0380 FB61     		str	r3, [r7, #28]
 853              	.L56:
 115:../../source/src/kernel/OS_LIB/heap_oo.c **** 	for(i=size/2;i>0;--i)
 854              		.loc 3 115 0 is_stmt 0 discriminator 1
 855 0382 FB69     		ldr	r3, [r7, #28]
 856 0384 002B     		cmp	r3, #0
 857 0386 F4DC     		bgt	.L57
 118:../../source/src/kernel/OS_LIB/heap_oo.c **** 	}
 119:../../source/src/kernel/OS_LIB/heap_oo.c **** 	return FUN_EXECUTE_SUCCESSFULLY;
 858              		.loc 3 119 0 is_stmt 1
 859 0388 0023     		movs	r3, #0
 860              	.L55:
 120:../../source/src/kernel/OS_LIB/heap_oo.c **** }
 861              		.loc 3 120 0
 862 038a 1846     		mov	r0, r3
 863 038c 2037     		adds	r7, r7, #32
 864              	.LCFI49:
 865              		.cfi_def_cfa_offset 8
 866 038e BD46     		mov	sp, r7
 867              	.LCFI50:
 868              		.cfi_def_cfa_register 13
 869              		@ sp needed
 870 0390 80BD     		pop	{r7, pc}
 871              	.L59:
 872 0392 00BF     		.align	2
 873              	.L58:
 874 0394 00000000 		.word	.LC0
 875              		.cfi_endproc
 876              	.LFE14:
 877              		.size	heap_remove_index_data, .-heap_remove_index_data
 878              		.align	1
 879              		.global	heap_erase_data
 880              		.syntax unified
 881              		.thumb
 882              		.thumb_func
 883              		.fpu softvfp
ARM GAS  G:\Users\Jaxb\AppData\Local\Temp\ccOPPqHN.s 			page 21


 884              		.type	heap_erase_data, %function
 885              	heap_erase_data:
 886              	.LFB15:
 121:../../source/src/kernel/OS_LIB/heap_oo.c **** 
 122:../../source/src/kernel/OS_LIB/heap_oo.c **** /*erase the data between index "from" to "to"; then adjust the heap*/
 123:../../source/src/kernel/OS_LIB/heap_oo.c **** int heap_erase_data(struct little_heap *little_heap_ptr,unsigned int from,unsigned int to)
 124:../../source/src/kernel/OS_LIB/heap_oo.c **** {
 887              		.loc 3 124 0
 888              		.cfi_startproc
 889              		@ args = 0, pretend = 0, frame = 32
 890              		@ frame_needed = 1, uses_anonymous_args = 0
 891 0398 80B5     		push	{r7, lr}
 892              	.LCFI51:
 893              		.cfi_def_cfa_offset 8
 894              		.cfi_offset 7, -8
 895              		.cfi_offset 14, -4
 896 039a 88B0     		sub	sp, sp, #32
 897              	.LCFI52:
 898              		.cfi_def_cfa_offset 40
 899 039c 00AF     		add	r7, sp, #0
 900              	.LCFI53:
 901              		.cfi_def_cfa_register 7
 902 039e F860     		str	r0, [r7, #12]
 903 03a0 B960     		str	r1, [r7, #8]
 904 03a2 7A60     		str	r2, [r7, #4]
 125:../../source/src/kernel/OS_LIB/heap_oo.c **** 	ASSERT(NULL != little_heap_ptr);
 905              		.loc 3 125 0
 906 03a4 FB68     		ldr	r3, [r7, #12]
 907 03a6 002B     		cmp	r3, #0
 908 03a8 03D1     		bne	.L61
 909              		.loc 3 125 0 is_stmt 0 discriminator 1
 910 03aa 7D21     		movs	r1, #125
 911 03ac 1548     		ldr	r0, .L66
 912 03ae FFF7FEFF 		bl	_ASSERT
 913              	.L61:
 126:../../source/src/kernel/OS_LIB/heap_oo.c **** 	int ret,i;
 127:../../source/src/kernel/OS_LIB/heap_oo.c **** 	ret = Vector_erase_data(&little_heap_ptr->data,from,to);
 914              		.loc 3 127 0 is_stmt 1
 915 03b2 FB68     		ldr	r3, [r7, #12]
 916 03b4 7A68     		ldr	r2, [r7, #4]
 917 03b6 B968     		ldr	r1, [r7, #8]
 918 03b8 1846     		mov	r0, r3
 919 03ba FFF7FEFF 		bl	Vector_erase_data
 920 03be B861     		str	r0, [r7, #24]
 128:../../source/src/kernel/OS_LIB/heap_oo.c **** 	if(ret < 0)
 921              		.loc 3 128 0
 922 03c0 BB69     		ldr	r3, [r7, #24]
 923 03c2 002B     		cmp	r3, #0
 924 03c4 01DA     		bge	.L62
 129:../../source/src/kernel/OS_LIB/heap_oo.c **** 	{
 130:../../source/src/kernel/OS_LIB/heap_oo.c **** 		return ret;
 925              		.loc 3 130 0
 926 03c6 BB69     		ldr	r3, [r7, #24]
 927 03c8 18E0     		b	.L63
 928              	.L62:
 131:../../source/src/kernel/OS_LIB/heap_oo.c **** 	}
 132:../../source/src/kernel/OS_LIB/heap_oo.c **** 	/*rebuild heap*/
ARM GAS  G:\Users\Jaxb\AppData\Local\Temp\ccOPPqHN.s 			page 22


 133:../../source/src/kernel/OS_LIB/heap_oo.c **** 	int size = get_Vector_cur_len(&little_heap_ptr->data) - 1;
 929              		.loc 3 133 0
 930 03ca FB68     		ldr	r3, [r7, #12]
 931 03cc 1846     		mov	r0, r3
 932 03ce FFF747FE 		bl	get_Vector_cur_len
 933 03d2 0346     		mov	r3, r0
 934 03d4 013B     		subs	r3, r3, #1
 935 03d6 7B61     		str	r3, [r7, #20]
 134:../../source/src/kernel/OS_LIB/heap_oo.c **** 	for(i=size/2;i>0;--i)
 936              		.loc 3 134 0
 937 03d8 7B69     		ldr	r3, [r7, #20]
 938 03da DA0F     		lsrs	r2, r3, #31
 939 03dc 1344     		add	r3, r3, r2
 940 03de 5B10     		asrs	r3, r3, #1
 941 03e0 FB61     		str	r3, [r7, #28]
 942 03e2 07E0     		b	.L64
 943              	.L65:
 135:../../source/src/kernel/OS_LIB/heap_oo.c **** 	{
 136:../../source/src/kernel/OS_LIB/heap_oo.c **** 		heap_adjust(little_heap_ptr,i,size);
 944              		.loc 3 136 0 discriminator 3
 945 03e4 7A69     		ldr	r2, [r7, #20]
 946 03e6 F969     		ldr	r1, [r7, #28]
 947 03e8 F868     		ldr	r0, [r7, #12]
 948 03ea FFF787FE 		bl	heap_adjust
 134:../../source/src/kernel/OS_LIB/heap_oo.c **** 	for(i=size/2;i>0;--i)
 949              		.loc 3 134 0 discriminator 3
 950 03ee FB69     		ldr	r3, [r7, #28]
 951 03f0 013B     		subs	r3, r3, #1
 952 03f2 FB61     		str	r3, [r7, #28]
 953              	.L64:
 134:../../source/src/kernel/OS_LIB/heap_oo.c **** 	for(i=size/2;i>0;--i)
 954              		.loc 3 134 0 is_stmt 0 discriminator 1
 955 03f4 FB69     		ldr	r3, [r7, #28]
 956 03f6 002B     		cmp	r3, #0
 957 03f8 F4DC     		bgt	.L65
 137:../../source/src/kernel/OS_LIB/heap_oo.c **** 	}
 138:../../source/src/kernel/OS_LIB/heap_oo.c **** 	return FUN_EXECUTE_SUCCESSFULLY;
 958              		.loc 3 138 0 is_stmt 1
 959 03fa 0023     		movs	r3, #0
 960              	.L63:
 139:../../source/src/kernel/OS_LIB/heap_oo.c **** }
 961              		.loc 3 139 0
 962 03fc 1846     		mov	r0, r3
 963 03fe 2037     		adds	r7, r7, #32
 964              	.LCFI54:
 965              		.cfi_def_cfa_offset 8
 966 0400 BD46     		mov	sp, r7
 967              	.LCFI55:
 968              		.cfi_def_cfa_register 13
 969              		@ sp needed
 970 0402 80BD     		pop	{r7, pc}
 971              	.L67:
 972              		.align	2
 973              	.L66:
 974 0404 00000000 		.word	.LC0
 975              		.cfi_endproc
 976              	.LFE15:
ARM GAS  G:\Users\Jaxb\AppData\Local\Temp\ccOPPqHN.s 			page 23


 977              		.size	heap_erase_data, .-heap_erase_data
 978              	.Letext0: