ARM GAS  G:\Users\Jaxb\AppData\Local\Temp\ccBcpwCd.s 			page 1


   1              		.cpu cortex-m3
   2              		.eabi_attribute 20, 1
   3              		.eabi_attribute 21, 1
   4              		.eabi_attribute 23, 3
   5              		.eabi_attribute 24, 1
   6              		.eabi_attribute 25, 1
   7              		.eabi_attribute 26, 1
   8              		.eabi_attribute 30, 6
   9              		.eabi_attribute 34, 1
  10              		.eabi_attribute 18, 4
  11              		.file	"heap_oo.c"
  12              		.text
  13              	.Ltext0:
  14              		.cfi_sections	.debug_frame
  15              		.align	1
  16              		.syntax unified
  17              		.thumb
  18              		.thumb_func
  19              		.fpu softvfp
  20              		.type	get_Vector_cur_len, %function
  21              	get_Vector_cur_len:
  22              	.LFB1:
  23              		.file 1 "../../source/include/os_lib/vector.h"
   1:../../source/include/os_lib/vector.h **** #ifndef _VECTOR_H
   2:../../source/include/os_lib/vector.h **** #define _VECTOR_H
   3:../../source/include/os_lib/vector.h **** 
   4:../../source/include/os_lib/vector.h **** #define f_free(ptr)				ka_free(ptr)
   5:../../source/include/os_lib/vector.h **** #define f_memcpy(des,src,size)	ka_memcpy(des,src,size)
   6:../../source/include/os_lib/vector.h **** #define f_malloc(size)			ka_malloc(size)
   7:../../source/include/os_lib/vector.h **** 
   8:../../source/include/os_lib/vector.h **** typedef struct vector
   9:../../source/include/os_lib/vector.h **** {
  10:../../source/include/os_lib/vector.h ****     void *data_ptr;
  11:../../source/include/os_lib/vector.h ****     unsigned int max_len;
  12:../../source/include/os_lib/vector.h ****     unsigned int cur_len;
  13:../../source/include/os_lib/vector.h ****     unsigned int data_size;
  14:../../source/include/os_lib/vector.h **** /*
  15:../../source/include/os_lib/vector.h **** 	if the highest bit is 1, multiply
  16:../../source/include/os_lib/vector.h **** 	if the highest bit is 0, add
  17:../../source/include/os_lib/vector.h **** 	use the following macro to produce this member:MKVFMUL  MKVFADD
  18:../../source/include/os_lib/vector.h ****  */
  19:../../source/include/os_lib/vector.h ****     unsigned int extension_factor;
  20:../../source/include/os_lib/vector.h **** }Vector;
  21:../../source/include/os_lib/vector.h **** 
  22:../../source/include/os_lib/vector.h **** #define ERROR_ALLOCATE_ROOM 1
  23:../../source/include/os_lib/vector.h **** #define ERROR_DATA_EMPTY    2
  24:../../source/include/os_lib/vector.h **** 
  25:../../source/include/os_lib/vector.h **** int Vector_init(Vector *const vector_ptr,unsigned int size,int len_per_data,unsigned int extension_
  26:../../source/include/os_lib/vector.h **** int Vector_push_back(Vector *const vector_ptr,void *push_data_ptr);
  27:../../source/include/os_lib/vector.h **** int Vector_pop_back(Vector *const vector_ptr,void *pop_data_ptr);
  28:../../source/include/os_lib/vector.h **** int Vector_get_index_data(Vector *const vector_ptr,unsigned int index,void *data_store_ptr);
  29:../../source/include/os_lib/vector.h **** int Vector_set_index_data(Vector *const vector_ptr,unsigned int index,void *data_store_ptr);
  30:../../source/include/os_lib/vector.h **** int Vector_get_index_address(Vector *const vector_ptr,unsigned int index,void **data_store_ptr);
  31:../../source/include/os_lib/vector.h **** int Vector_delete(Vector *const vector_ptr);
  32:../../source/include/os_lib/vector.h **** int Vector_erase_data(Vector *const vector_ptr,unsigned int from,unsigned int to);
  33:../../source/include/os_lib/vector.h **** int Vector_remove_index_data(Vector *const vector_ptr,unsigned int index,void *data_store_ptr);//if
  34:../../source/include/os_lib/vector.h **** int Vector_set_inner(Vector *const vector_ptr,unsigned int dest_index,unsigned int src_index);
ARM GAS  G:\Users\Jaxb\AppData\Local\Temp\ccBcpwCd.s 			page 2


  35:../../source/include/os_lib/vector.h **** int Vector_swap_inner(Vector *const vector_ptr,unsigned int index1,unsigned int index2);
  36:../../source/include/os_lib/vector.h **** 
  37:../../source/include/os_lib/vector.h **** 
  38:../../source/include/os_lib/vector.h **** #define MKVFMUL(x) (0x80000000 | (x))
  39:../../source/include/os_lib/vector.h **** #define MKVFADD(x) (~0x80000000 & (x))
  40:../../source/include/os_lib/vector.h **** #define VFISMUL(x) (0x80000000 & (x))
  41:../../source/include/os_lib/vector.h **** #define VFISADD(x) (!(VFISMUL(x)))
  42:../../source/include/os_lib/vector.h **** #define GET_EXPENSION_FACTOR(x) (~0x80000000 & (x))
  43:../../source/include/os_lib/vector.h **** #define DECLARE_VECTOR(name,type,len,extension_factor) \
  44:../../source/include/os_lib/vector.h **** Vector name; \
  45:../../source/include/os_lib/vector.h **** do{ \
  46:../../source/include/os_lib/vector.h **** 	Vector_init(&(name),len,sizeof(type),extension_factor); \
  47:../../source/include/os_lib/vector.h **** }while(0)
  48:../../source/include/os_lib/vector.h **** 
  49:../../source/include/os_lib/vector.h **** static inline unsigned int get_Vector_size(Vector *vector_ptr)
  50:../../source/include/os_lib/vector.h **** {
  51:../../source/include/os_lib/vector.h **** 	return vector_ptr->max_len;
  52:../../source/include/os_lib/vector.h **** }
  53:../../source/include/os_lib/vector.h **** static inline unsigned int get_Vector_cur_len(Vector *vector_ptr)
  54:../../source/include/os_lib/vector.h **** {
  24              		.loc 1 54 0
  25              		.cfi_startproc
  26              		@ args = 0, pretend = 0, frame = 8
  27              		@ frame_needed = 1, uses_anonymous_args = 0
  28              		@ link register save eliminated.
  29 0000 80B4     		push	{r7}
  30              	.LCFI0:
  31              		.cfi_def_cfa_offset 4
  32              		.cfi_offset 7, -4
  33 0002 83B0     		sub	sp, sp, #12
  34              	.LCFI1:
  35              		.cfi_def_cfa_offset 16
  36 0004 00AF     		add	r7, sp, #0
  37              	.LCFI2:
  38              		.cfi_def_cfa_register 7
  39 0006 7860     		str	r0, [r7, #4]
  55:../../source/include/os_lib/vector.h **** 	return vector_ptr->cur_len;
  40              		.loc 1 55 0
  41 0008 7B68     		ldr	r3, [r7, #4]
  42 000a 9B68     		ldr	r3, [r3, #8]
  56:../../source/include/os_lib/vector.h **** }
  43              		.loc 1 56 0
  44 000c 1846     		mov	r0, r3
  45 000e 0C37     		adds	r7, r7, #12
  46              	.LCFI3:
  47              		.cfi_def_cfa_offset 4
  48 0010 BD46     		mov	sp, r7
  49              	.LCFI4:
  50              		.cfi_def_cfa_register 13
  51              		@ sp needed
  52 0012 80BC     		pop	{r7}
  53              	.LCFI5:
  54              		.cfi_restore 7
  55              		.cfi_def_cfa_offset 0
  56 0014 7047     		bx	lr
  57              		.cfi_endproc
  58              	.LFE1:
ARM GAS  G:\Users\Jaxb\AppData\Local\Temp\ccBcpwCd.s 			page 3


  59              		.size	get_Vector_cur_len, .-get_Vector_cur_len
  60              		.section	.rodata
  61              		.align	2
  62              	.LC0:
  63 0000 2E2E2F2E 		.ascii	"../../source/src/kernel/OS_LIB/heap_oo.c\000"
  63      2E2F736F 
  63      75726365 
  63      2F737263 
  63      2F6B6572 
  64 0029 000000   		.align	2
  65              	.LC1:
  66 002c 6572726F 		.ascii	"error fun name : heap_init\012error para : little_h"
  66      72206675 
  66      6E206E61 
  66      6D65203A 
  66      20686561 
  67 005c 6561705F 		.ascii	"eap_ptr\012\000"
  67      7074720A 
  67      00
  68 0065 000000   		.align	2
  69              	.LC2:
  70 0068 6572726F 		.ascii	"error fun name : heap_init\012error para : cmp\012\000"
  70      72206675 
  70      6E206E61 
  70      6D65203A 
  70      20686561 
  71 0095 000000   		.align	2
  72              	.LC3:
  73 0098 6572726F 		.ascii	"error fun name : heap_init\012error para : len_per_"
  73      72206675 
  73      6E206E61 
  73      6D65203A 
  73      20686561 
  74 00c8 64617461 		.ascii	"data\012\000"
  74      0A00
  75              		.text
  76              		.align	1
  77              		.global	heap_init
  78              		.syntax unified
  79              		.thumb
  80              		.thumb_func
  81              		.fpu softvfp
  82              		.type	heap_init, %function
  83              	heap_init:
  84              	.LFB2:
  85              		.file 2 "../../source/src/kernel/OS_LIB/heap_oo.c"
   1:../../source/src/kernel/OS_LIB/heap_oo.c **** #include <heap_oo.h>
   2:../../source/src/kernel/OS_LIB/heap_oo.c **** #include <myassert.h>
   3:../../source/src/kernel/OS_LIB/heap_oo.c **** #include <os_error.h>
   4:../../source/src/kernel/OS_LIB/heap_oo.c **** #include <myMicroLIB.h>
   5:../../source/src/kernel/OS_LIB/heap_oo.c **** #include <ka_configuration.h>
   6:../../source/src/kernel/OS_LIB/heap_oo.c **** #include <kakaosstdint.h>
   7:../../source/src/kernel/OS_LIB/heap_oo.c **** 
   8:../../source/src/kernel/OS_LIB/heap_oo.c **** #define MIN(a,b) ((a) < (b) ? (a) : (b))
   9:../../source/src/kernel/OS_LIB/heap_oo.c **** 
  10:../../source/src/kernel/OS_LIB/heap_oo.c **** int heap_init(struct little_heap *const little_heap_ptr,
  11:../../source/src/kernel/OS_LIB/heap_oo.c **** 	unsigned int size, // parameter for vector
ARM GAS  G:\Users\Jaxb\AppData\Local\Temp\ccBcpwCd.s 			page 4


  12:../../source/src/kernel/OS_LIB/heap_oo.c **** 	unsigned int len_per_data, // parameter for vector
  13:../../source/src/kernel/OS_LIB/heap_oo.c **** 	int (*cmp)(Vector *Vector_ptr,unsigned int index1,unsigned int index2),
  14:../../source/src/kernel/OS_LIB/heap_oo.c **** 	void (*index_change_record)(Vector *Vector_ptr,int index))
  15:../../source/src/kernel/OS_LIB/heap_oo.c **** {
  86              		.loc 2 15 0
  87              		.cfi_startproc
  88              		@ args = 4, pretend = 0, frame = 24
  89              		@ frame_needed = 1, uses_anonymous_args = 0
  90 0016 80B5     		push	{r7, lr}
  91              	.LCFI6:
  92              		.cfi_def_cfa_offset 8
  93              		.cfi_offset 7, -8
  94              		.cfi_offset 14, -4
  95 0018 86B0     		sub	sp, sp, #24
  96              	.LCFI7:
  97              		.cfi_def_cfa_offset 32
  98 001a 00AF     		add	r7, sp, #0
  99              	.LCFI8:
 100              		.cfi_def_cfa_register 7
 101 001c F860     		str	r0, [r7, #12]
 102 001e B960     		str	r1, [r7, #8]
 103 0020 7A60     		str	r2, [r7, #4]
 104 0022 3B60     		str	r3, [r7]
  16:../../source/src/kernel/OS_LIB/heap_oo.c **** 	int ret;
  17:../../source/src/kernel/OS_LIB/heap_oo.c **** 	ASSERT((NULL != little_heap_ptr) && (NULL != cmp));
 105              		.loc 2 17 0
 106 0024 FB68     		ldr	r3, [r7, #12]
 107 0026 002B     		cmp	r3, #0
 108 0028 02D0     		beq	.L4
 109              		.loc 2 17 0 is_stmt 0 discriminator 1
 110 002a 3B68     		ldr	r3, [r7]
 111 002c 002B     		cmp	r3, #0
 112 002e 03D1     		bne	.L5
 113              	.L4:
 114              		.loc 2 17 0 discriminator 3
 115 0030 1121     		movs	r1, #17
 116 0032 1E48     		ldr	r0, .L12
 117 0034 FFF7FEFF 		bl	_ASSERT
 118              	.L5:
  18:../../source/src/kernel/OS_LIB/heap_oo.c **** 	ASSERT(len_per_data <= sizeof(long long));// need consideration
 119              		.loc 2 18 0 is_stmt 1
 120 0038 7B68     		ldr	r3, [r7, #4]
 121 003a 082B     		cmp	r3, #8
 122 003c 03D9     		bls	.L6
 123              		.loc 2 18 0 is_stmt 0 discriminator 1
 124 003e 1221     		movs	r1, #18
 125 0040 1A48     		ldr	r0, .L12
 126 0042 FFF7FEFF 		bl	_ASSERT
 127              	.L6:
  19:../../source/src/kernel/OS_LIB/heap_oo.c **** #if CONFIG_PARA_CHECK
  20:../../source/src/kernel/OS_LIB/heap_oo.c **** 	if((NULL == little_heap_ptr) || (NULL == cmp))
 128              		.loc 2 20 0 is_stmt 1
 129 0046 FB68     		ldr	r3, [r7, #12]
 130 0048 002B     		cmp	r3, #0
 131 004a 02D0     		beq	.L7
 132              		.loc 2 20 0 is_stmt 0 discriminator 1
 133 004c 3B68     		ldr	r3, [r7]
ARM GAS  G:\Users\Jaxb\AppData\Local\Temp\ccBcpwCd.s 			page 5


 134 004e 002B     		cmp	r3, #0
 135 0050 08D1     		bne	.L8
 136              	.L7:
  21:../../source/src/kernel/OS_LIB/heap_oo.c **** 	{
  22:../../source/src/kernel/OS_LIB/heap_oo.c **** 		OS_ERROR_PARA_MESSAGE_DISPLAY(heap_init,little_heap_ptr);
 137              		.loc 2 22 0 is_stmt 1
 138 0052 1748     		ldr	r0, .L12+4
 139 0054 FFF7FEFF 		bl	ka_printf
  23:../../source/src/kernel/OS_LIB/heap_oo.c **** 		OS_ERROR_PARA_MESSAGE_DISPLAY(heap_init,cmp);
 140              		.loc 2 23 0
 141 0058 1648     		ldr	r0, .L12+8
 142 005a FFF7FEFF 		bl	ka_printf
  24:../../source/src/kernel/OS_LIB/heap_oo.c **** 		return -ERROR_NULL_INPUT_PTR;
 143              		.loc 2 24 0
 144 005e 6FF0FE03 		mvn	r3, #254
 145 0062 1EE0     		b	.L9
 146              	.L8:
  25:../../source/src/kernel/OS_LIB/heap_oo.c **** 	}
  26:../../source/src/kernel/OS_LIB/heap_oo.c **** 	if(len_per_data > sizeof(long long)) // need consideration
 147              		.loc 2 26 0
 148 0064 7B68     		ldr	r3, [r7, #4]
 149 0066 082B     		cmp	r3, #8
 150 0068 05D9     		bls	.L10
  27:../../source/src/kernel/OS_LIB/heap_oo.c **** 	{
  28:../../source/src/kernel/OS_LIB/heap_oo.c **** 		OS_ERROR_PARA_MESSAGE_DISPLAY(heap_init,len_per_data);
 151              		.loc 2 28 0
 152 006a 1348     		ldr	r0, .L12+12
 153 006c FFF7FEFF 		bl	ka_printf
  29:../../source/src/kernel/OS_LIB/heap_oo.c **** 		return -ERROR_VALUELESS_INPUT;
 154              		.loc 2 29 0
 155 0070 6FF0FD03 		mvn	r3, #253
 156 0074 15E0     		b	.L9
 157              	.L10:
  30:../../source/src/kernel/OS_LIB/heap_oo.c **** 	}
  31:../../source/src/kernel/OS_LIB/heap_oo.c **** #endif
  32:../../source/src/kernel/OS_LIB/heap_oo.c **** 	ret = Vector_init(&little_heap_ptr->data,size,len_per_data,MKVFMUL(2));
 158              		.loc 2 32 0
 159 0076 F868     		ldr	r0, [r7, #12]
 160 0078 7A68     		ldr	r2, [r7, #4]
 161 007a 104B     		ldr	r3, .L12+16
 162 007c B968     		ldr	r1, [r7, #8]
 163 007e FFF7FEFF 		bl	Vector_init
 164 0082 7861     		str	r0, [r7, #20]
  33:../../source/src/kernel/OS_LIB/heap_oo.c **** 	if(ret < 0)
 165              		.loc 2 33 0
 166 0084 7B69     		ldr	r3, [r7, #20]
 167 0086 002B     		cmp	r3, #0
 168 0088 01DA     		bge	.L11
  34:../../source/src/kernel/OS_LIB/heap_oo.c **** 	{
  35:../../source/src/kernel/OS_LIB/heap_oo.c **** 		return ret;
 169              		.loc 2 35 0
 170 008a 7B69     		ldr	r3, [r7, #20]
 171 008c 09E0     		b	.L9
 172              	.L11:
  36:../../source/src/kernel/OS_LIB/heap_oo.c **** 	}
  37:../../source/src/kernel/OS_LIB/heap_oo.c **** 	little_heap_ptr->data.cur_len = 1;
 173              		.loc 2 37 0
ARM GAS  G:\Users\Jaxb\AppData\Local\Temp\ccBcpwCd.s 			page 6


 174 008e FB68     		ldr	r3, [r7, #12]
 175 0090 0122     		movs	r2, #1
 176 0092 9A60     		str	r2, [r3, #8]
  38:../../source/src/kernel/OS_LIB/heap_oo.c **** 	little_heap_ptr->cmp = cmp;
 177              		.loc 2 38 0
 178 0094 FB68     		ldr	r3, [r7, #12]
 179 0096 3A68     		ldr	r2, [r7]
 180 0098 5A61     		str	r2, [r3, #20]
  39:../../source/src/kernel/OS_LIB/heap_oo.c **** 	little_heap_ptr->index_change_record = index_change_record;
 181              		.loc 2 39 0
 182 009a FB68     		ldr	r3, [r7, #12]
 183 009c 3A6A     		ldr	r2, [r7, #32]
 184 009e 9A61     		str	r2, [r3, #24]
  40:../../source/src/kernel/OS_LIB/heap_oo.c **** 	return FUN_EXECUTE_SUCCESSFULLY;
 185              		.loc 2 40 0
 186 00a0 0023     		movs	r3, #0
 187              	.L9:
  41:../../source/src/kernel/OS_LIB/heap_oo.c **** }
 188              		.loc 2 41 0
 189 00a2 1846     		mov	r0, r3
 190 00a4 1837     		adds	r7, r7, #24
 191              	.LCFI9:
 192              		.cfi_def_cfa_offset 8
 193 00a6 BD46     		mov	sp, r7
 194              	.LCFI10:
 195              		.cfi_def_cfa_register 13
 196              		@ sp needed
 197 00a8 80BD     		pop	{r7, pc}
 198              	.L13:
 199 00aa 00BF     		.align	2
 200              	.L12:
 201 00ac 00000000 		.word	.LC0
 202 00b0 2C000000 		.word	.LC1
 203 00b4 68000000 		.word	.LC2
 204 00b8 98000000 		.word	.LC3
 205 00bc 02000080 		.word	-2147483646
 206              		.cfi_endproc
 207              	.LFE2:
 208              		.size	heap_init, .-heap_init
 209              		.section	.rodata
 210 00ce 0000     		.align	2
 211              	.LC4:
 212 00d0 6572726F 		.ascii	"error fun name : heap_delete\012error para : little"
 212      72206675 
 212      6E206E61 
 212      6D65203A 
 212      20686561 
 213 0100 5F686561 		.ascii	"_heap_ptr\012\000"
 213      705F7074 
 213      720A00
 214              		.text
 215              		.align	1
 216              		.global	heap_delete
 217              		.syntax unified
 218              		.thumb
 219              		.thumb_func
 220              		.fpu softvfp
ARM GAS  G:\Users\Jaxb\AppData\Local\Temp\ccBcpwCd.s 			page 7


 221              		.type	heap_delete, %function
 222              	heap_delete:
 223              	.LFB3:
  42:../../source/src/kernel/OS_LIB/heap_oo.c **** 
  43:../../source/src/kernel/OS_LIB/heap_oo.c **** inline int heap_delete(struct little_heap *little_heap_ptr)
  44:../../source/src/kernel/OS_LIB/heap_oo.c **** {
 224              		.loc 2 44 0
 225              		.cfi_startproc
 226              		@ args = 0, pretend = 0, frame = 8
 227              		@ frame_needed = 1, uses_anonymous_args = 0
 228 00c0 80B5     		push	{r7, lr}
 229              	.LCFI11:
 230              		.cfi_def_cfa_offset 8
 231              		.cfi_offset 7, -8
 232              		.cfi_offset 14, -4
 233 00c2 82B0     		sub	sp, sp, #8
 234              	.LCFI12:
 235              		.cfi_def_cfa_offset 16
 236 00c4 00AF     		add	r7, sp, #0
 237              	.LCFI13:
 238              		.cfi_def_cfa_register 7
 239 00c6 7860     		str	r0, [r7, #4]
  45:../../source/src/kernel/OS_LIB/heap_oo.c **** 	ASSERT(NULL != little_heap_ptr);
 240              		.loc 2 45 0
 241 00c8 7B68     		ldr	r3, [r7, #4]
 242 00ca 002B     		cmp	r3, #0
 243 00cc 03D1     		bne	.L15
 244              		.loc 2 45 0 is_stmt 0 discriminator 1
 245 00ce 2D21     		movs	r1, #45
 246 00d0 0A48     		ldr	r0, .L18
 247 00d2 FFF7FEFF 		bl	_ASSERT
 248              	.L15:
  46:../../source/src/kernel/OS_LIB/heap_oo.c **** #if CONFIG_PARA_CHECK
  47:../../source/src/kernel/OS_LIB/heap_oo.c **** 	if(NULL == little_heap_ptr)
 249              		.loc 2 47 0 is_stmt 1
 250 00d6 7B68     		ldr	r3, [r7, #4]
 251 00d8 002B     		cmp	r3, #0
 252 00da 05D1     		bne	.L16
  48:../../source/src/kernel/OS_LIB/heap_oo.c **** 	{
  49:../../source/src/kernel/OS_LIB/heap_oo.c **** 		OS_ERROR_PARA_MESSAGE_DISPLAY(heap_delete,little_heap_ptr);
 253              		.loc 2 49 0
 254 00dc 0848     		ldr	r0, .L18+4
 255 00de FFF7FEFF 		bl	ka_printf
  50:../../source/src/kernel/OS_LIB/heap_oo.c **** 		return -ERROR_NULL_INPUT_PTR;
 256              		.loc 2 50 0
 257 00e2 6FF0FE03 		mvn	r3, #254
 258 00e6 04E0     		b	.L17
 259              	.L16:
  51:../../source/src/kernel/OS_LIB/heap_oo.c **** 	}
  52:../../source/src/kernel/OS_LIB/heap_oo.c **** #endif
  53:../../source/src/kernel/OS_LIB/heap_oo.c **** 	return Vector_delete(&little_heap_ptr->data);
 260              		.loc 2 53 0
 261 00e8 7B68     		ldr	r3, [r7, #4]
 262 00ea 1846     		mov	r0, r3
 263 00ec FFF7FEFF 		bl	Vector_delete
 264 00f0 0346     		mov	r3, r0
 265              	.L17:
ARM GAS  G:\Users\Jaxb\AppData\Local\Temp\ccBcpwCd.s 			page 8


  54:../../source/src/kernel/OS_LIB/heap_oo.c **** }
 266              		.loc 2 54 0
 267 00f2 1846     		mov	r0, r3
 268 00f4 0837     		adds	r7, r7, #8
 269              	.LCFI14:
 270              		.cfi_def_cfa_offset 8
 271 00f6 BD46     		mov	sp, r7
 272              	.LCFI15:
 273              		.cfi_def_cfa_register 13
 274              		@ sp needed
 275 00f8 80BD     		pop	{r7, pc}
 276              	.L19:
 277 00fa 00BF     		.align	2
 278              	.L18:
 279 00fc 00000000 		.word	.LC0
 280 0100 D0000000 		.word	.LC4
 281              		.cfi_endproc
 282              	.LFE3:
 283              		.size	heap_delete, .-heap_delete
 284              		.align	1
 285              		.syntax unified
 286              		.thumb
 287              		.thumb_func
 288              		.fpu softvfp
 289              		.type	heap_adjust, %function
 290              	heap_adjust:
 291              	.LFB4:
  55:../../source/src/kernel/OS_LIB/heap_oo.c **** 
  56:../../source/src/kernel/OS_LIB/heap_oo.c **** //subfunction for heap sort
  57:../../source/src/kernel/OS_LIB/heap_oo.c **** static void heap_adjust(struct little_heap *little_heap_ptr,int index,int size)
  58:../../source/src/kernel/OS_LIB/heap_oo.c **** {
 292              		.loc 2 58 0
 293              		.cfi_startproc
 294              		@ args = 0, pretend = 0, frame = 24
 295              		@ frame_needed = 1, uses_anonymous_args = 0
 296 0104 80B5     		push	{r7, lr}
 297              	.LCFI16:
 298              		.cfi_def_cfa_offset 8
 299              		.cfi_offset 7, -8
 300              		.cfi_offset 14, -4
 301 0106 86B0     		sub	sp, sp, #24
 302              	.LCFI17:
 303              		.cfi_def_cfa_offset 32
 304 0108 00AF     		add	r7, sp, #0
 305              	.LCFI18:
 306              		.cfi_def_cfa_register 7
 307 010a F860     		str	r0, [r7, #12]
 308 010c B960     		str	r1, [r7, #8]
 309 010e 7A60     		str	r2, [r7, #4]
  59:../../source/src/kernel/OS_LIB/heap_oo.c **** 	int j;
  60:../../source/src/kernel/OS_LIB/heap_oo.c **** 	Vector *Vector_ptr = &little_heap_ptr->data;
 310              		.loc 2 60 0
 311 0110 FB68     		ldr	r3, [r7, #12]
 312 0112 3B61     		str	r3, [r7, #16]
  61:../../source/src/kernel/OS_LIB/heap_oo.c **** 	Vector_set_inner(Vector_ptr,0,index);
 313              		.loc 2 61 0
 314 0114 BB68     		ldr	r3, [r7, #8]
ARM GAS  G:\Users\Jaxb\AppData\Local\Temp\ccBcpwCd.s 			page 9


 315 0116 1A46     		mov	r2, r3
 316 0118 0021     		movs	r1, #0
 317 011a 3869     		ldr	r0, [r7, #16]
 318 011c FFF7FEFF 		bl	Vector_set_inner
  62:../../source/src/kernel/OS_LIB/heap_oo.c **** 	for(j=2*index;j<=size;j*=2)
 319              		.loc 2 62 0
 320 0120 BB68     		ldr	r3, [r7, #8]
 321 0122 5B00     		lsls	r3, r3, #1
 322 0124 7B61     		str	r3, [r7, #20]
 323 0126 2FE0     		b	.L21
 324              	.L26:
  63:../../source/src/kernel/OS_LIB/heap_oo.c **** 	{
  64:../../source/src/kernel/OS_LIB/heap_oo.c **** 		if(j<size && (little_heap_ptr->cmp(Vector_ptr,j+1,j) < 0))
 325              		.loc 2 64 0
 326 0128 7A69     		ldr	r2, [r7, #20]
 327 012a 7B68     		ldr	r3, [r7, #4]
 328 012c 9A42     		cmp	r2, r3
 329 012e 0DDA     		bge	.L22
 330              		.loc 2 64 0 is_stmt 0 discriminator 1
 331 0130 FB68     		ldr	r3, [r7, #12]
 332 0132 5B69     		ldr	r3, [r3, #20]
 333 0134 7A69     		ldr	r2, [r7, #20]
 334 0136 0132     		adds	r2, r2, #1
 335 0138 1146     		mov	r1, r2
 336 013a 7A69     		ldr	r2, [r7, #20]
 337 013c 3869     		ldr	r0, [r7, #16]
 338 013e 9847     		blx	r3
 339              	.LVL0:
 340 0140 0346     		mov	r3, r0
 341 0142 002B     		cmp	r3, #0
 342 0144 02DA     		bge	.L22
  65:../../source/src/kernel/OS_LIB/heap_oo.c **** 			++j;
 343              		.loc 2 65 0 is_stmt 1
 344 0146 7B69     		ldr	r3, [r7, #20]
 345 0148 0133     		adds	r3, r3, #1
 346 014a 7B61     		str	r3, [r7, #20]
 347              	.L22:
  66:../../source/src/kernel/OS_LIB/heap_oo.c **** 		if(little_heap_ptr->cmp(Vector_ptr,0,j) <= 0)
 348              		.loc 2 66 0
 349 014c FB68     		ldr	r3, [r7, #12]
 350 014e 5B69     		ldr	r3, [r3, #20]
 351 0150 7A69     		ldr	r2, [r7, #20]
 352 0152 0021     		movs	r1, #0
 353 0154 3869     		ldr	r0, [r7, #16]
 354 0156 9847     		blx	r3
 355              	.LVL1:
 356 0158 0346     		mov	r3, r0
 357 015a 002B     		cmp	r3, #0
 358 015c 19DD     		ble	.L28
  67:../../source/src/kernel/OS_LIB/heap_oo.c **** 			break;
  68:../../source/src/kernel/OS_LIB/heap_oo.c **** 		Vector_set_inner(Vector_ptr,index,j);
 359              		.loc 2 68 0
 360 015e BB68     		ldr	r3, [r7, #8]
 361 0160 7A69     		ldr	r2, [r7, #20]
 362 0162 1946     		mov	r1, r3
 363 0164 3869     		ldr	r0, [r7, #16]
 364 0166 FFF7FEFF 		bl	Vector_set_inner
ARM GAS  G:\Users\Jaxb\AppData\Local\Temp\ccBcpwCd.s 			page 10


  69:../../source/src/kernel/OS_LIB/heap_oo.c **** 		if(little_heap_ptr->index_change_record)
 365              		.loc 2 69 0
 366 016a FB68     		ldr	r3, [r7, #12]
 367 016c 9B69     		ldr	r3, [r3, #24]
 368 016e 002B     		cmp	r3, #0
 369 0170 05D0     		beq	.L25
  70:../../source/src/kernel/OS_LIB/heap_oo.c **** 		{
  71:../../source/src/kernel/OS_LIB/heap_oo.c **** 			little_heap_ptr->index_change_record(&little_heap_ptr->data,index);
 370              		.loc 2 71 0
 371 0172 FB68     		ldr	r3, [r7, #12]
 372 0174 9B69     		ldr	r3, [r3, #24]
 373 0176 FA68     		ldr	r2, [r7, #12]
 374 0178 B968     		ldr	r1, [r7, #8]
 375 017a 1046     		mov	r0, r2
 376 017c 9847     		blx	r3
 377              	.LVL2:
 378              	.L25:
  72:../../source/src/kernel/OS_LIB/heap_oo.c **** 		}
  73:../../source/src/kernel/OS_LIB/heap_oo.c **** 		index = j;
 379              		.loc 2 73 0 discriminator 2
 380 017e 7B69     		ldr	r3, [r7, #20]
 381 0180 BB60     		str	r3, [r7, #8]
  62:../../source/src/kernel/OS_LIB/heap_oo.c **** 	{
 382              		.loc 2 62 0 discriminator 2
 383 0182 7B69     		ldr	r3, [r7, #20]
 384 0184 5B00     		lsls	r3, r3, #1
 385 0186 7B61     		str	r3, [r7, #20]
 386              	.L21:
  62:../../source/src/kernel/OS_LIB/heap_oo.c **** 	{
 387              		.loc 2 62 0 is_stmt 0 discriminator 1
 388 0188 7A69     		ldr	r2, [r7, #20]
 389 018a 7B68     		ldr	r3, [r7, #4]
 390 018c 9A42     		cmp	r2, r3
 391 018e CBDD     		ble	.L26
 392 0190 00E0     		b	.L24
 393              	.L28:
  67:../../source/src/kernel/OS_LIB/heap_oo.c **** 		Vector_set_inner(Vector_ptr,index,j);
 394              		.loc 2 67 0 is_stmt 1
 395 0192 00BF     		nop
 396              	.L24:
  74:../../source/src/kernel/OS_LIB/heap_oo.c **** 	}
  75:../../source/src/kernel/OS_LIB/heap_oo.c **** 	Vector_set_inner(Vector_ptr,index,0);
 397              		.loc 2 75 0
 398 0194 BB68     		ldr	r3, [r7, #8]
 399 0196 0022     		movs	r2, #0
 400 0198 1946     		mov	r1, r3
 401 019a 3869     		ldr	r0, [r7, #16]
 402 019c FFF7FEFF 		bl	Vector_set_inner
  76:../../source/src/kernel/OS_LIB/heap_oo.c **** 	if(little_heap_ptr->index_change_record)
 403              		.loc 2 76 0
 404 01a0 FB68     		ldr	r3, [r7, #12]
 405 01a2 9B69     		ldr	r3, [r3, #24]
 406 01a4 002B     		cmp	r3, #0
 407 01a6 05D0     		beq	.L29
  77:../../source/src/kernel/OS_LIB/heap_oo.c **** 	{
  78:../../source/src/kernel/OS_LIB/heap_oo.c **** 		little_heap_ptr->index_change_record(&little_heap_ptr->data,index);
 408              		.loc 2 78 0
ARM GAS  G:\Users\Jaxb\AppData\Local\Temp\ccBcpwCd.s 			page 11


 409 01a8 FB68     		ldr	r3, [r7, #12]
 410 01aa 9B69     		ldr	r3, [r3, #24]
 411 01ac FA68     		ldr	r2, [r7, #12]
 412 01ae B968     		ldr	r1, [r7, #8]
 413 01b0 1046     		mov	r0, r2
 414 01b2 9847     		blx	r3
 415              	.LVL3:
 416              	.L29:
  79:../../source/src/kernel/OS_LIB/heap_oo.c **** 	}
  80:../../source/src/kernel/OS_LIB/heap_oo.c **** }
 417              		.loc 2 80 0
 418 01b4 00BF     		nop
 419 01b6 1837     		adds	r7, r7, #24
 420              	.LCFI19:
 421              		.cfi_def_cfa_offset 8
 422 01b8 BD46     		mov	sp, r7
 423              	.LCFI20:
 424              		.cfi_def_cfa_register 13
 425              		@ sp needed
 426 01ba 80BD     		pop	{r7, pc}
 427              		.cfi_endproc
 428              	.LFE4:
 429              		.size	heap_adjust, .-heap_adjust
 430              		.section	.rodata
 431 010b 00       		.align	2
 432              	.LC5:
 433 010c 6572726F 		.ascii	"error fun name : heap_push\012error para : little_h"
 433      72206675 
 433      6E206E61 
 433      6D65203A 
 433      20686561 
 434 013c 6561705F 		.ascii	"eap_ptr\012\000"
 434      7074720A 
 434      00
 435 0145 000000   		.align	2
 436              	.LC6:
 437 0148 6572726F 		.ascii	"error fun name : heap_push\012error para : push_dat"
 437      72206675 
 437      6E206E61 
 437      6D65203A 
 437      20686561 
 438 0178 615F7074 		.ascii	"a_ptr\012\000"
 438      720A00
 439              		.text
 440              		.align	1
 441              		.global	heap_push
 442              		.syntax unified
 443              		.thumb
 444              		.thumb_func
 445              		.fpu softvfp
 446              		.type	heap_push, %function
 447              	heap_push:
 448              	.LFB5:
  81:../../source/src/kernel/OS_LIB/heap_oo.c **** 
  82:../../source/src/kernel/OS_LIB/heap_oo.c **** //add a data with *push_data_ptr, then adjust the heap 
  83:../../source/src/kernel/OS_LIB/heap_oo.c **** int heap_push(struct little_heap *little_heap_ptr,void *push_data_ptr)
  84:../../source/src/kernel/OS_LIB/heap_oo.c **** {
ARM GAS  G:\Users\Jaxb\AppData\Local\Temp\ccBcpwCd.s 			page 12


 449              		.loc 2 84 0
 450              		.cfi_startproc
 451              		@ args = 0, pretend = 0, frame = 24
 452              		@ frame_needed = 1, uses_anonymous_args = 0
 453 01bc B0B5     		push	{r4, r5, r7, lr}
 454              	.LCFI21:
 455              		.cfi_def_cfa_offset 16
 456              		.cfi_offset 4, -16
 457              		.cfi_offset 5, -12
 458              		.cfi_offset 7, -8
 459              		.cfi_offset 14, -4
 460 01be 86B0     		sub	sp, sp, #24
 461              	.LCFI22:
 462              		.cfi_def_cfa_offset 40
 463 01c0 00AF     		add	r7, sp, #0
 464              	.LCFI23:
 465              		.cfi_def_cfa_register 7
 466 01c2 7860     		str	r0, [r7, #4]
 467 01c4 3960     		str	r1, [r7]
  85:../../source/src/kernel/OS_LIB/heap_oo.c **** 	ASSERT((NULL != little_heap_ptr) && (NULL != push_data_ptr));
 468              		.loc 2 85 0
 469 01c6 7B68     		ldr	r3, [r7, #4]
 470 01c8 002B     		cmp	r3, #0
 471 01ca 02D0     		beq	.L31
 472              		.loc 2 85 0 is_stmt 0 discriminator 1
 473 01cc 3B68     		ldr	r3, [r7]
 474 01ce 002B     		cmp	r3, #0
 475 01d0 03D1     		bne	.L32
 476              	.L31:
 477              		.loc 2 85 0 discriminator 3
 478 01d2 5521     		movs	r1, #85
 479 01d4 2848     		ldr	r0, .L41
 480 01d6 FFF7FEFF 		bl	_ASSERT
 481              	.L32:
  86:../../source/src/kernel/OS_LIB/heap_oo.c **** #if CONFIG_PARA_CHECK
  87:../../source/src/kernel/OS_LIB/heap_oo.c **** 	if((NULL == little_heap_ptr) || (NULL == push_data_ptr))
 482              		.loc 2 87 0 is_stmt 1
 483 01da 7B68     		ldr	r3, [r7, #4]
 484 01dc 002B     		cmp	r3, #0
 485 01de 02D0     		beq	.L33
 486              		.loc 2 87 0 is_stmt 0 discriminator 1
 487 01e0 3B68     		ldr	r3, [r7]
 488 01e2 002B     		cmp	r3, #0
 489 01e4 08D1     		bne	.L34
 490              	.L33:
  88:../../source/src/kernel/OS_LIB/heap_oo.c **** 	{
  89:../../source/src/kernel/OS_LIB/heap_oo.c **** 		OS_ERROR_PARA_MESSAGE_DISPLAY(heap_push,little_heap_ptr);
 491              		.loc 2 89 0 is_stmt 1
 492 01e6 2548     		ldr	r0, .L41+4
 493 01e8 FFF7FEFF 		bl	ka_printf
  90:../../source/src/kernel/OS_LIB/heap_oo.c **** 		OS_ERROR_PARA_MESSAGE_DISPLAY(heap_push,push_data_ptr);
 494              		.loc 2 90 0
 495 01ec 2448     		ldr	r0, .L41+8
 496 01ee FFF7FEFF 		bl	ka_printf
  91:../../source/src/kernel/OS_LIB/heap_oo.c **** 		return -ERROR_NULL_INPUT_PTR;
 497              		.loc 2 91 0
 498 01f2 6FF0FE03 		mvn	r3, #254
ARM GAS  G:\Users\Jaxb\AppData\Local\Temp\ccBcpwCd.s 			page 13


 499 01f6 3BE0     		b	.L35
 500              	.L34:
  92:../../source/src/kernel/OS_LIB/heap_oo.c **** 	}
  93:../../source/src/kernel/OS_LIB/heap_oo.c **** #endif
  94:../../source/src/kernel/OS_LIB/heap_oo.c **** 	int ret,i,size;
  95:../../source/src/kernel/OS_LIB/heap_oo.c **** 	ret = Vector_push_back(&little_heap_ptr->data,push_data_ptr);
 501              		.loc 2 95 0
 502 01f8 7B68     		ldr	r3, [r7, #4]
 503 01fa 3968     		ldr	r1, [r7]
 504 01fc 1846     		mov	r0, r3
 505 01fe FFF7FEFF 		bl	Vector_push_back
 506 0202 3861     		str	r0, [r7, #16]
  96:../../source/src/kernel/OS_LIB/heap_oo.c **** 	if(little_heap_ptr->index_change_record)
 507              		.loc 2 96 0
 508 0204 7B68     		ldr	r3, [r7, #4]
 509 0206 9B69     		ldr	r3, [r3, #24]
 510 0208 002B     		cmp	r3, #0
 511 020a 0AD0     		beq	.L36
  97:../../source/src/kernel/OS_LIB/heap_oo.c **** 	{
  98:../../source/src/kernel/OS_LIB/heap_oo.c **** 		little_heap_ptr->index_change_record(&little_heap_ptr->data,heap_get_cur_len(little_heap_ptr)-1);
 512              		.loc 2 98 0
 513 020c 7B68     		ldr	r3, [r7, #4]
 514 020e 9C69     		ldr	r4, [r3, #24]
 515 0210 7D68     		ldr	r5, [r7, #4]
 516 0212 7868     		ldr	r0, [r7, #4]
 517 0214 FFF7FEFF 		bl	heap_get_cur_len
 518 0218 0346     		mov	r3, r0
 519 021a 013B     		subs	r3, r3, #1
 520 021c 1946     		mov	r1, r3
 521 021e 2846     		mov	r0, r5
 522 0220 A047     		blx	r4
 523              	.LVL4:
 524              	.L36:
  99:../../source/src/kernel/OS_LIB/heap_oo.c **** 	}
 100:../../source/src/kernel/OS_LIB/heap_oo.c **** 	ASSERT(0 == ret);
 525              		.loc 2 100 0
 526 0222 3B69     		ldr	r3, [r7, #16]
 527 0224 002B     		cmp	r3, #0
 528 0226 03D0     		beq	.L37
 529              		.loc 2 100 0 is_stmt 0 discriminator 1
 530 0228 6421     		movs	r1, #100
 531 022a 1348     		ldr	r0, .L41
 532 022c FFF7FEFF 		bl	_ASSERT
 533              	.L37:
 101:../../source/src/kernel/OS_LIB/heap_oo.c **** 	if(ret < 0)
 534              		.loc 2 101 0 is_stmt 1
 535 0230 3B69     		ldr	r3, [r7, #16]
 536 0232 002B     		cmp	r3, #0
 537 0234 01DA     		bge	.L38
 102:../../source/src/kernel/OS_LIB/heap_oo.c **** 		return ret;
 538              		.loc 2 102 0
 539 0236 3B69     		ldr	r3, [r7, #16]
 540 0238 1AE0     		b	.L35
 541              	.L38:
 103:../../source/src/kernel/OS_LIB/heap_oo.c **** 	size = get_Vector_cur_len(&little_heap_ptr->data) - 1;
 542              		.loc 2 103 0
 543 023a 7B68     		ldr	r3, [r7, #4]
ARM GAS  G:\Users\Jaxb\AppData\Local\Temp\ccBcpwCd.s 			page 14


 544 023c 1846     		mov	r0, r3
 545 023e FFF7DFFE 		bl	get_Vector_cur_len
 546 0242 0346     		mov	r3, r0
 547 0244 013B     		subs	r3, r3, #1
 548 0246 FB60     		str	r3, [r7, #12]
 104:../../source/src/kernel/OS_LIB/heap_oo.c **** 	for(i=size/2;i>0;i/=2)
 549              		.loc 2 104 0
 550 0248 FB68     		ldr	r3, [r7, #12]
 551 024a DA0F     		lsrs	r2, r3, #31
 552 024c 1344     		add	r3, r3, r2
 553 024e 5B10     		asrs	r3, r3, #1
 554 0250 7B61     		str	r3, [r7, #20]
 555 0252 09E0     		b	.L39
 556              	.L40:
 105:../../source/src/kernel/OS_LIB/heap_oo.c **** 	{
 106:../../source/src/kernel/OS_LIB/heap_oo.c **** 		heap_adjust(little_heap_ptr,i,size);
 557              		.loc 2 106 0 discriminator 3
 558 0254 FA68     		ldr	r2, [r7, #12]
 559 0256 7969     		ldr	r1, [r7, #20]
 560 0258 7868     		ldr	r0, [r7, #4]
 561 025a FFF753FF 		bl	heap_adjust
 104:../../source/src/kernel/OS_LIB/heap_oo.c **** 	for(i=size/2;i>0;i/=2)
 562              		.loc 2 104 0 discriminator 3
 563 025e 7B69     		ldr	r3, [r7, #20]
 564 0260 DA0F     		lsrs	r2, r3, #31
 565 0262 1344     		add	r3, r3, r2
 566 0264 5B10     		asrs	r3, r3, #1
 567 0266 7B61     		str	r3, [r7, #20]
 568              	.L39:
 104:../../source/src/kernel/OS_LIB/heap_oo.c **** 	for(i=size/2;i>0;i/=2)
 569              		.loc 2 104 0 is_stmt 0 discriminator 1
 570 0268 7B69     		ldr	r3, [r7, #20]
 571 026a 002B     		cmp	r3, #0
 572 026c F2DC     		bgt	.L40
 107:../../source/src/kernel/OS_LIB/heap_oo.c **** 	}
 108:../../source/src/kernel/OS_LIB/heap_oo.c **** 	return FUN_EXECUTE_SUCCESSFULLY;
 573              		.loc 2 108 0 is_stmt 1
 574 026e 0023     		movs	r3, #0
 575              	.L35:
 109:../../source/src/kernel/OS_LIB/heap_oo.c **** }
 576              		.loc 2 109 0
 577 0270 1846     		mov	r0, r3
 578 0272 1837     		adds	r7, r7, #24
 579              	.LCFI24:
 580              		.cfi_def_cfa_offset 16
 581 0274 BD46     		mov	sp, r7
 582              	.LCFI25:
 583              		.cfi_def_cfa_register 13
 584              		@ sp needed
 585 0276 B0BD     		pop	{r4, r5, r7, pc}
 586              	.L42:
 587              		.align	2
 588              	.L41:
 589 0278 00000000 		.word	.LC0
 590 027c 0C010000 		.word	.LC5
 591 0280 48010000 		.word	.LC6
 592              		.cfi_endproc
ARM GAS  G:\Users\Jaxb\AppData\Local\Temp\ccBcpwCd.s 			page 15


 593              	.LFE5:
 594              		.size	heap_push, .-heap_push
 595              		.section	.rodata
 596 017f 00       		.align	2
 597              	.LC7:
 598 0180 6572726F 		.ascii	"error fun name : heap_get_index_data\012error para "
 598      72206675 
 598      6E206E61 
 598      6D65203A 
 598      20686561 
 599 01b0 3A206C69 		.ascii	": little_heap_ptr\012\000"
 599      74746C65 
 599      5F686561 
 599      705F7074 
 599      720A00
 600 01c3 00       		.align	2
 601              	.LC8:
 602 01c4 6572726F 		.ascii	"error fun name : heap_get_index_data\012error para "
 602      72206675 
 602      6E206E61 
 602      6D65203A 
 602      20686561 
 603 01f4 3A206461 		.ascii	": data_store_ptr\012\000"
 603      74615F73 
 603      746F7265 
 603      5F707472 
 603      0A00
 604              		.text
 605              		.align	1
 606              		.global	heap_get_index_data
 607              		.syntax unified
 608              		.thumb
 609              		.thumb_func
 610              		.fpu softvfp
 611              		.type	heap_get_index_data, %function
 612              	heap_get_index_data:
 613              	.LFB6:
 110:../../source/src/kernel/OS_LIB/heap_oo.c **** 
 111:../../source/src/kernel/OS_LIB/heap_oo.c **** 
 112:../../source/src/kernel/OS_LIB/heap_oo.c **** //get the data with index "index" and store it into *data_store_ptr
 113:../../source/src/kernel/OS_LIB/heap_oo.c **** inline int heap_get_index_data(struct little_heap *little_heap_ptr,void *data_store_ptr,unsigned in
 114:../../source/src/kernel/OS_LIB/heap_oo.c **** {
 614              		.loc 2 114 0
 615              		.cfi_startproc
 616              		@ args = 0, pretend = 0, frame = 16
 617              		@ frame_needed = 1, uses_anonymous_args = 0
 618 0284 80B5     		push	{r7, lr}
 619              	.LCFI26:
 620              		.cfi_def_cfa_offset 8
 621              		.cfi_offset 7, -8
 622              		.cfi_offset 14, -4
 623 0286 84B0     		sub	sp, sp, #16
 624              	.LCFI27:
 625              		.cfi_def_cfa_offset 24
 626 0288 00AF     		add	r7, sp, #0
 627              	.LCFI28:
 628              		.cfi_def_cfa_register 7
ARM GAS  G:\Users\Jaxb\AppData\Local\Temp\ccBcpwCd.s 			page 16


 629 028a F860     		str	r0, [r7, #12]
 630 028c B960     		str	r1, [r7, #8]
 631 028e 7A60     		str	r2, [r7, #4]
 115:../../source/src/kernel/OS_LIB/heap_oo.c **** 	ASSERT((NULL != little_heap_ptr) && (NULL != data_store_ptr));
 632              		.loc 2 115 0
 633 0290 FB68     		ldr	r3, [r7, #12]
 634 0292 002B     		cmp	r3, #0
 635 0294 02D0     		beq	.L44
 636              		.loc 2 115 0 is_stmt 0 discriminator 1
 637 0296 BB68     		ldr	r3, [r7, #8]
 638 0298 002B     		cmp	r3, #0
 639 029a 03D1     		bne	.L45
 640              	.L44:
 641              		.loc 2 115 0 discriminator 3
 642 029c 7321     		movs	r1, #115
 643 029e 0E48     		ldr	r0, .L49
 644 02a0 FFF7FEFF 		bl	_ASSERT
 645              	.L45:
 116:../../source/src/kernel/OS_LIB/heap_oo.c **** #if CONFIG_PARA_CHECK
 117:../../source/src/kernel/OS_LIB/heap_oo.c **** 	if((NULL == little_heap_ptr) || (NULL == data_store_ptr))
 646              		.loc 2 117 0 is_stmt 1
 647 02a4 FB68     		ldr	r3, [r7, #12]
 648 02a6 002B     		cmp	r3, #0
 649 02a8 02D0     		beq	.L46
 650              		.loc 2 117 0 is_stmt 0 discriminator 1
 651 02aa BB68     		ldr	r3, [r7, #8]
 652 02ac 002B     		cmp	r3, #0
 653 02ae 08D1     		bne	.L47
 654              	.L46:
 118:../../source/src/kernel/OS_LIB/heap_oo.c **** 	{
 119:../../source/src/kernel/OS_LIB/heap_oo.c **** 		OS_ERROR_PARA_MESSAGE_DISPLAY(heap_get_index_data,little_heap_ptr);
 655              		.loc 2 119 0 is_stmt 1
 656 02b0 0A48     		ldr	r0, .L49+4
 657 02b2 FFF7FEFF 		bl	ka_printf
 120:../../source/src/kernel/OS_LIB/heap_oo.c **** 		OS_ERROR_PARA_MESSAGE_DISPLAY(heap_get_index_data,data_store_ptr);
 658              		.loc 2 120 0
 659 02b6 0A48     		ldr	r0, .L49+8
 660 02b8 FFF7FEFF 		bl	ka_printf
 121:../../source/src/kernel/OS_LIB/heap_oo.c **** 		return -ERROR_NULL_INPUT_PTR;
 661              		.loc 2 121 0
 662 02bc 6FF0FE03 		mvn	r3, #254
 663 02c0 06E0     		b	.L48
 664              	.L47:
 122:../../source/src/kernel/OS_LIB/heap_oo.c **** 	}
 123:../../source/src/kernel/OS_LIB/heap_oo.c **** #endif
 124:../../source/src/kernel/OS_LIB/heap_oo.c **** 	return Vector_get_index_data(&little_heap_ptr->data,index,data_store_ptr);
 665              		.loc 2 124 0
 666 02c2 FB68     		ldr	r3, [r7, #12]
 667 02c4 BA68     		ldr	r2, [r7, #8]
 668 02c6 7968     		ldr	r1, [r7, #4]
 669 02c8 1846     		mov	r0, r3
 670 02ca FFF7FEFF 		bl	Vector_get_index_data
 671 02ce 0346     		mov	r3, r0
 672              	.L48:
 125:../../source/src/kernel/OS_LIB/heap_oo.c **** }
 673              		.loc 2 125 0
 674 02d0 1846     		mov	r0, r3
ARM GAS  G:\Users\Jaxb\AppData\Local\Temp\ccBcpwCd.s 			page 17


 675 02d2 1037     		adds	r7, r7, #16
 676              	.LCFI29:
 677              		.cfi_def_cfa_offset 8
 678 02d4 BD46     		mov	sp, r7
 679              	.LCFI30:
 680              		.cfi_def_cfa_register 13
 681              		@ sp needed
 682 02d6 80BD     		pop	{r7, pc}
 683              	.L50:
 684              		.align	2
 685              	.L49:
 686 02d8 00000000 		.word	.LC0
 687 02dc 80010000 		.word	.LC7
 688 02e0 C4010000 		.word	.LC8
 689              		.cfi_endproc
 690              	.LFE6:
 691              		.size	heap_get_index_data, .-heap_get_index_data
 692              		.section	.rodata
 693 0206 0000     		.align	2
 694              	.LC9:
 695 0208 6572726F 		.ascii	"error fun name : heap_get_index_data_safe\012error "
 695      72206675 
 695      6E206E61 
 695      6D65203A 
 695      20686561 
 696 0238 70617261 		.ascii	"para : little_heap_ptr\012\000"
 696      203A206C 
 696      6974746C 
 696      655F6865 
 696      61705F70 
 697              		.align	2
 698              	.LC10:
 699 0250 6572726F 		.ascii	"error fun name : heap_get_index_data_safe\012error "
 699      72206675 
 699      6E206E61 
 699      6D65203A 
 699      20686561 
 700 0280 70617261 		.ascii	"para : data_store_ptr\012\000"
 700      203A2064 
 700      6174615F 
 700      73746F72 
 700      655F7074 
 701              		.text
 702              		.align	1
 703              		.global	heap_get_index_data_safe
 704              		.syntax unified
 705              		.thumb
 706              		.thumb_func
 707              		.fpu softvfp
 708              		.type	heap_get_index_data_safe, %function
 709              	heap_get_index_data_safe:
 710              	.LFB7:
 126:../../source/src/kernel/OS_LIB/heap_oo.c **** 
 127:../../source/src/kernel/OS_LIB/heap_oo.c **** int heap_get_index_data_safe(struct little_heap *little_heap_ptr,void *data_store_ptr,unsigned int 
 128:../../source/src/kernel/OS_LIB/heap_oo.c **** {
 711              		.loc 2 128 0
 712              		.cfi_startproc
ARM GAS  G:\Users\Jaxb\AppData\Local\Temp\ccBcpwCd.s 			page 18


 713              		@ args = 0, pretend = 0, frame = 16
 714              		@ frame_needed = 1, uses_anonymous_args = 0
 715 02e4 80B5     		push	{r7, lr}
 716              	.LCFI31:
 717              		.cfi_def_cfa_offset 8
 718              		.cfi_offset 7, -8
 719              		.cfi_offset 14, -4
 720 02e6 84B0     		sub	sp, sp, #16
 721              	.LCFI32:
 722              		.cfi_def_cfa_offset 24
 723 02e8 00AF     		add	r7, sp, #0
 724              	.LCFI33:
 725              		.cfi_def_cfa_register 7
 726 02ea F860     		str	r0, [r7, #12]
 727 02ec B960     		str	r1, [r7, #8]
 728 02ee 7A60     		str	r2, [r7, #4]
 129:../../source/src/kernel/OS_LIB/heap_oo.c **** 	ASSERT((NULL != little_heap_ptr) && (NULL != data_store_ptr));
 729              		.loc 2 129 0
 730 02f0 FB68     		ldr	r3, [r7, #12]
 731 02f2 002B     		cmp	r3, #0
 732 02f4 02D0     		beq	.L52
 733              		.loc 2 129 0 is_stmt 0 discriminator 1
 734 02f6 BB68     		ldr	r3, [r7, #8]
 735 02f8 002B     		cmp	r3, #0
 736 02fa 03D1     		bne	.L53
 737              	.L52:
 738              		.loc 2 129 0 discriminator 3
 739 02fc 8121     		movs	r1, #129
 740 02fe 1448     		ldr	r0, .L58
 741 0300 FFF7FEFF 		bl	_ASSERT
 742              	.L53:
 130:../../source/src/kernel/OS_LIB/heap_oo.c **** #if CONFIG_PARA_CHECK
 131:../../source/src/kernel/OS_LIB/heap_oo.c **** 	if((NULL == little_heap_ptr) || (NULL == data_store_ptr))
 743              		.loc 2 131 0 is_stmt 1
 744 0304 FB68     		ldr	r3, [r7, #12]
 745 0306 002B     		cmp	r3, #0
 746 0308 02D0     		beq	.L54
 747              		.loc 2 131 0 is_stmt 0 discriminator 1
 748 030a BB68     		ldr	r3, [r7, #8]
 749 030c 002B     		cmp	r3, #0
 750 030e 08D1     		bne	.L55
 751              	.L54:
 132:../../source/src/kernel/OS_LIB/heap_oo.c **** 	{
 133:../../source/src/kernel/OS_LIB/heap_oo.c **** 		OS_ERROR_PARA_MESSAGE_DISPLAY(heap_get_index_data_safe,little_heap_ptr);
 752              		.loc 2 133 0 is_stmt 1
 753 0310 1048     		ldr	r0, .L58+4
 754 0312 FFF7FEFF 		bl	ka_printf
 134:../../source/src/kernel/OS_LIB/heap_oo.c **** 		OS_ERROR_PARA_MESSAGE_DISPLAY(heap_get_index_data_safe,data_store_ptr);
 755              		.loc 2 134 0
 756 0316 1048     		ldr	r0, .L58+8
 757 0318 FFF7FEFF 		bl	ka_printf
 135:../../source/src/kernel/OS_LIB/heap_oo.c **** 		return -ERROR_NULL_INPUT_PTR;
 758              		.loc 2 135 0
 759 031c 6FF0FE03 		mvn	r3, #254
 760 0320 11E0     		b	.L56
 761              	.L55:
 136:../../source/src/kernel/OS_LIB/heap_oo.c **** 	}
ARM GAS  G:\Users\Jaxb\AppData\Local\Temp\ccBcpwCd.s 			page 19


 137:../../source/src/kernel/OS_LIB/heap_oo.c **** #endif
 138:../../source/src/kernel/OS_LIB/heap_oo.c **** 	if(get_Vector_cur_len(&little_heap_ptr->data) <= index)
 762              		.loc 2 138 0
 763 0322 FB68     		ldr	r3, [r7, #12]
 764 0324 1846     		mov	r0, r3
 765 0326 FFF76BFE 		bl	get_Vector_cur_len
 766 032a 0246     		mov	r2, r0
 767 032c 7B68     		ldr	r3, [r7, #4]
 768 032e 9342     		cmp	r3, r2
 769 0330 02D3     		bcc	.L57
 139:../../source/src/kernel/OS_LIB/heap_oo.c **** 	{
 140:../../source/src/kernel/OS_LIB/heap_oo.c **** 		return -ERROR_VALUELESS_INPUT;
 770              		.loc 2 140 0
 771 0332 6FF0FD03 		mvn	r3, #253
 772 0336 06E0     		b	.L56
 773              	.L57:
 141:../../source/src/kernel/OS_LIB/heap_oo.c **** 	}
 142:../../source/src/kernel/OS_LIB/heap_oo.c **** 	return Vector_get_index_data(&little_heap_ptr->data,index,data_store_ptr);
 774              		.loc 2 142 0
 775 0338 FB68     		ldr	r3, [r7, #12]
 776 033a BA68     		ldr	r2, [r7, #8]
 777 033c 7968     		ldr	r1, [r7, #4]
 778 033e 1846     		mov	r0, r3
 779 0340 FFF7FEFF 		bl	Vector_get_index_data
 780 0344 0346     		mov	r3, r0
 781              	.L56:
 143:../../source/src/kernel/OS_LIB/heap_oo.c **** }
 782              		.loc 2 143 0
 783 0346 1846     		mov	r0, r3
 784 0348 1037     		adds	r7, r7, #16
 785              	.LCFI34:
 786              		.cfi_def_cfa_offset 8
 787 034a BD46     		mov	sp, r7
 788              	.LCFI35:
 789              		.cfi_def_cfa_register 13
 790              		@ sp needed
 791 034c 80BD     		pop	{r7, pc}
 792              	.L59:
 793 034e 00BF     		.align	2
 794              	.L58:
 795 0350 00000000 		.word	.LC0
 796 0354 08020000 		.word	.LC9
 797 0358 50020000 		.word	.LC10
 798              		.cfi_endproc
 799              	.LFE7:
 800              		.size	heap_get_index_data_safe, .-heap_get_index_data_safe
 801              		.section	.rodata
 802 0297 00       		.align	2
 803              	.LC11:
 804 0298 6572726F 		.ascii	"error fun name : heap_set_index_data\012error para "
 804      72206675 
 804      6E206E61 
 804      6D65203A 
 804      20686561 
 805 02c8 3A206C69 		.ascii	": little_heap_ptr\012\000"
 805      74746C65 
 805      5F686561 
ARM GAS  G:\Users\Jaxb\AppData\Local\Temp\ccBcpwCd.s 			page 20


 805      705F7074 
 805      720A00
 806 02db 00       		.align	2
 807              	.LC12:
 808 02dc 6572726F 		.ascii	"error fun name : heap_set_index_data\012error para "
 808      72206675 
 808      6E206E61 
 808      6D65203A 
 808      20686561 
 809 030c 3A206461 		.ascii	": data_store_ptr\012\000"
 809      74615F73 
 809      746F7265 
 809      5F707472 
 809      0A00
 810              		.text
 811              		.align	1
 812              		.global	heap_set_index_data
 813              		.syntax unified
 814              		.thumb
 815              		.thumb_func
 816              		.fpu softvfp
 817              		.type	heap_set_index_data, %function
 818              	heap_set_index_data:
 819              	.LFB8:
 144:../../source/src/kernel/OS_LIB/heap_oo.c **** 
 145:../../source/src/kernel/OS_LIB/heap_oo.c **** //get the data with index "index" with data *data_store_ptr; then adjust the heap
 146:../../source/src/kernel/OS_LIB/heap_oo.c **** int heap_set_index_data(struct little_heap *little_heap_ptr,unsigned int index,void *data_store_ptr
 147:../../source/src/kernel/OS_LIB/heap_oo.c **** {
 820              		.loc 2 147 0
 821              		.cfi_startproc
 822              		@ args = 0, pretend = 0, frame = 32
 823              		@ frame_needed = 1, uses_anonymous_args = 0
 824 035c 80B5     		push	{r7, lr}
 825              	.LCFI36:
 826              		.cfi_def_cfa_offset 8
 827              		.cfi_offset 7, -8
 828              		.cfi_offset 14, -4
 829 035e 88B0     		sub	sp, sp, #32
 830              	.LCFI37:
 831              		.cfi_def_cfa_offset 40
 832 0360 00AF     		add	r7, sp, #0
 833              	.LCFI38:
 834              		.cfi_def_cfa_register 7
 835 0362 F860     		str	r0, [r7, #12]
 836 0364 B960     		str	r1, [r7, #8]
 837 0366 7A60     		str	r2, [r7, #4]
 148:../../source/src/kernel/OS_LIB/heap_oo.c **** 	ASSERT((NULL != little_heap_ptr) && (NULL != data_store_ptr));
 838              		.loc 2 148 0
 839 0368 FB68     		ldr	r3, [r7, #12]
 840 036a 002B     		cmp	r3, #0
 841 036c 02D0     		beq	.L61
 842              		.loc 2 148 0 is_stmt 0 discriminator 1
 843 036e 7B68     		ldr	r3, [r7, #4]
 844 0370 002B     		cmp	r3, #0
 845 0372 03D1     		bne	.L62
 846              	.L61:
 847              		.loc 2 148 0 discriminator 3
ARM GAS  G:\Users\Jaxb\AppData\Local\Temp\ccBcpwCd.s 			page 21


 848 0374 9421     		movs	r1, #148
 849 0376 1F48     		ldr	r0, .L69
 850 0378 FFF7FEFF 		bl	_ASSERT
 851              	.L62:
 149:../../source/src/kernel/OS_LIB/heap_oo.c **** #if CONFIG_PARA_CHECK
 150:../../source/src/kernel/OS_LIB/heap_oo.c **** 	if((NULL == little_heap_ptr) || (NULL == data_store_ptr))
 852              		.loc 2 150 0 is_stmt 1
 853 037c FB68     		ldr	r3, [r7, #12]
 854 037e 002B     		cmp	r3, #0
 855 0380 02D0     		beq	.L63
 856              		.loc 2 150 0 is_stmt 0 discriminator 1
 857 0382 7B68     		ldr	r3, [r7, #4]
 858 0384 002B     		cmp	r3, #0
 859 0386 08D1     		bne	.L64
 860              	.L63:
 151:../../source/src/kernel/OS_LIB/heap_oo.c **** 	{
 152:../../source/src/kernel/OS_LIB/heap_oo.c **** 		OS_ERROR_PARA_MESSAGE_DISPLAY(heap_set_index_data,little_heap_ptr);
 861              		.loc 2 152 0 is_stmt 1
 862 0388 1B48     		ldr	r0, .L69+4
 863 038a FFF7FEFF 		bl	ka_printf
 153:../../source/src/kernel/OS_LIB/heap_oo.c **** 		OS_ERROR_PARA_MESSAGE_DISPLAY(heap_set_index_data,data_store_ptr);
 864              		.loc 2 153 0
 865 038e 1B48     		ldr	r0, .L69+8
 866 0390 FFF7FEFF 		bl	ka_printf
 154:../../source/src/kernel/OS_LIB/heap_oo.c **** 		return -ERROR_NULL_INPUT_PTR;
 867              		.loc 2 154 0
 868 0394 6FF0FE03 		mvn	r3, #254
 869 0398 27E0     		b	.L65
 870              	.L64:
 155:../../source/src/kernel/OS_LIB/heap_oo.c **** 	}
 156:../../source/src/kernel/OS_LIB/heap_oo.c **** #endif
 157:../../source/src/kernel/OS_LIB/heap_oo.c **** 	int ret =  Vector_set_index_data(&little_heap_ptr->data,index,data_store_ptr);
 871              		.loc 2 157 0
 872 039a FB68     		ldr	r3, [r7, #12]
 873 039c 7A68     		ldr	r2, [r7, #4]
 874 039e B968     		ldr	r1, [r7, #8]
 875 03a0 1846     		mov	r0, r3
 876 03a2 FFF7FEFF 		bl	Vector_set_index_data
 877 03a6 B861     		str	r0, [r7, #24]
 158:../../source/src/kernel/OS_LIB/heap_oo.c **** 	if(ret < 0)
 878              		.loc 2 158 0
 879 03a8 BB69     		ldr	r3, [r7, #24]
 880 03aa 002B     		cmp	r3, #0
 881 03ac 01DA     		bge	.L66
 159:../../source/src/kernel/OS_LIB/heap_oo.c **** 	{
 160:../../source/src/kernel/OS_LIB/heap_oo.c **** 		return ret;
 882              		.loc 2 160 0
 883 03ae BB69     		ldr	r3, [r7, #24]
 884 03b0 1BE0     		b	.L65
 885              	.L66:
 161:../../source/src/kernel/OS_LIB/heap_oo.c **** 	}
 162:../../source/src/kernel/OS_LIB/heap_oo.c **** 	unsigned int size = get_Vector_cur_len(&little_heap_ptr->data) - 1;
 886              		.loc 2 162 0
 887 03b2 FB68     		ldr	r3, [r7, #12]
 888 03b4 1846     		mov	r0, r3
 889 03b6 FFF723FE 		bl	get_Vector_cur_len
 890 03ba 0346     		mov	r3, r0
ARM GAS  G:\Users\Jaxb\AppData\Local\Temp\ccBcpwCd.s 			page 22


 891 03bc 013B     		subs	r3, r3, #1
 892 03be 7B61     		str	r3, [r7, #20]
 163:../../source/src/kernel/OS_LIB/heap_oo.c **** 	unsigned int i;
 164:../../source/src/kernel/OS_LIB/heap_oo.c **** 	for(i=MIN(index,size/2);i>0;--i)
 893              		.loc 2 164 0
 894 03c0 7B69     		ldr	r3, [r7, #20]
 895 03c2 5B08     		lsrs	r3, r3, #1
 896 03c4 BA68     		ldr	r2, [r7, #8]
 897 03c6 9342     		cmp	r3, r2
 898 03c8 28BF     		it	cs
 899 03ca 1346     		movcs	r3, r2
 900 03cc FB61     		str	r3, [r7, #28]
 901 03ce 08E0     		b	.L67
 902              	.L68:
 165:../../source/src/kernel/OS_LIB/heap_oo.c **** 	{
 166:../../source/src/kernel/OS_LIB/heap_oo.c **** 		heap_adjust(little_heap_ptr,i,size);
 903              		.loc 2 166 0 discriminator 3
 904 03d0 FB69     		ldr	r3, [r7, #28]
 905 03d2 7A69     		ldr	r2, [r7, #20]
 906 03d4 1946     		mov	r1, r3
 907 03d6 F868     		ldr	r0, [r7, #12]
 908 03d8 FFF794FE 		bl	heap_adjust
 164:../../source/src/kernel/OS_LIB/heap_oo.c **** 	{
 909              		.loc 2 164 0 discriminator 3
 910 03dc FB69     		ldr	r3, [r7, #28]
 911 03de 013B     		subs	r3, r3, #1
 912 03e0 FB61     		str	r3, [r7, #28]
 913              	.L67:
 164:../../source/src/kernel/OS_LIB/heap_oo.c **** 	{
 914              		.loc 2 164 0 is_stmt 0 discriminator 1
 915 03e2 FB69     		ldr	r3, [r7, #28]
 916 03e4 002B     		cmp	r3, #0
 917 03e6 F3D1     		bne	.L68
 167:../../source/src/kernel/OS_LIB/heap_oo.c **** 	}
 168:../../source/src/kernel/OS_LIB/heap_oo.c **** 	return FUN_EXECUTE_SUCCESSFULLY;
 918              		.loc 2 168 0 is_stmt 1
 919 03e8 0023     		movs	r3, #0
 920              	.L65:
 169:../../source/src/kernel/OS_LIB/heap_oo.c **** }
 921              		.loc 2 169 0
 922 03ea 1846     		mov	r0, r3
 923 03ec 2037     		adds	r7, r7, #32
 924              	.LCFI39:
 925              		.cfi_def_cfa_offset 8
 926 03ee BD46     		mov	sp, r7
 927              	.LCFI40:
 928              		.cfi_def_cfa_register 13
 929              		@ sp needed
 930 03f0 80BD     		pop	{r7, pc}
 931              	.L70:
 932 03f2 00BF     		.align	2
 933              	.L69:
 934 03f4 00000000 		.word	.LC0
 935 03f8 98020000 		.word	.LC11
 936 03fc DC020000 		.word	.LC12
 937              		.cfi_endproc
 938              	.LFE8:
ARM GAS  G:\Users\Jaxb\AppData\Local\Temp\ccBcpwCd.s 			page 23


 939              		.size	heap_set_index_data, .-heap_set_index_data
 940              		.section	.rodata
 941 031e 0000     		.align	2
 942              	.LC13:
 943 0320 6572726F 		.ascii	"error fun name : heap_remove_index_data\012error pa"
 943      72206675 
 943      6E206E61 
 943      6D65203A 
 943      20686561 
 944 0350 7261203A 		.ascii	"ra : little_heap_ptr\012\000"
 944      206C6974 
 944      746C655F 
 944      68656170 
 944      5F707472 
 945 0366 0000     		.align	2
 946              	.LC14:
 947 0368 6572726F 		.ascii	"error fun name : heap_remove_index_data\012error pa"
 947      72206675 
 947      6E206E61 
 947      6D65203A 
 947      20686561 
 948 0398 7261203A 		.ascii	"ra : index\012\000"
 948      20696E64 
 948      65780A00 
 949              		.text
 950              		.align	1
 951              		.global	heap_remove_index_data
 952              		.syntax unified
 953              		.thumb
 954              		.thumb_func
 955              		.fpu softvfp
 956              		.type	heap_remove_index_data, %function
 957              	heap_remove_index_data:
 958              	.LFB9:
 170:../../source/src/kernel/OS_LIB/heap_oo.c **** 
 171:../../source/src/kernel/OS_LIB/heap_oo.c **** //remove the data with index "index" and store it into *data_store_ptr; then adjust the heap
 172:../../source/src/kernel/OS_LIB/heap_oo.c **** int heap_remove_index_data(struct little_heap *little_heap_ptr,unsigned int index,void *data_store_
 173:../../source/src/kernel/OS_LIB/heap_oo.c **** {
 959              		.loc 2 173 0
 960              		.cfi_startproc
 961              		@ args = 0, pretend = 0, frame = 32
 962              		@ frame_needed = 1, uses_anonymous_args = 0
 963 0400 80B5     		push	{r7, lr}
 964              	.LCFI41:
 965              		.cfi_def_cfa_offset 8
 966              		.cfi_offset 7, -8
 967              		.cfi_offset 14, -4
 968 0402 88B0     		sub	sp, sp, #32
 969              	.LCFI42:
 970              		.cfi_def_cfa_offset 40
 971 0404 00AF     		add	r7, sp, #0
 972              	.LCFI43:
 973              		.cfi_def_cfa_register 7
 974 0406 F860     		str	r0, [r7, #12]
 975 0408 B960     		str	r1, [r7, #8]
 976 040a 7A60     		str	r2, [r7, #4]
 174:../../source/src/kernel/OS_LIB/heap_oo.c **** 	ASSERT(NULL != little_heap_ptr);
ARM GAS  G:\Users\Jaxb\AppData\Local\Temp\ccBcpwCd.s 			page 24


 977              		.loc 2 174 0
 978 040c FB68     		ldr	r3, [r7, #12]
 979 040e 002B     		cmp	r3, #0
 980 0410 03D1     		bne	.L72
 981              		.loc 2 174 0 is_stmt 0 discriminator 1
 982 0412 AE21     		movs	r1, #174
 983 0414 1E48     		ldr	r0, .L79
 984 0416 FFF7FEFF 		bl	_ASSERT
 985              	.L72:
 175:../../source/src/kernel/OS_LIB/heap_oo.c **** #if CONFIG_PARA_CHECK
 176:../../source/src/kernel/OS_LIB/heap_oo.c **** 	if(NULL == little_heap_ptr)
 986              		.loc 2 176 0 is_stmt 1
 987 041a FB68     		ldr	r3, [r7, #12]
 988 041c 002B     		cmp	r3, #0
 989 041e 05D1     		bne	.L73
 177:../../source/src/kernel/OS_LIB/heap_oo.c **** 	{
 178:../../source/src/kernel/OS_LIB/heap_oo.c **** 		OS_ERROR_PARA_MESSAGE_DISPLAY(heap_remove_index_data,little_heap_ptr);
 990              		.loc 2 178 0
 991 0420 1C48     		ldr	r0, .L79+4
 992 0422 FFF7FEFF 		bl	ka_printf
 179:../../source/src/kernel/OS_LIB/heap_oo.c **** 		return -ERROR_NULL_INPUT_PTR;
 993              		.loc 2 179 0
 994 0426 6FF0FE03 		mvn	r3, #254
 995 042a 2DE0     		b	.L74
 996              	.L73:
 180:../../source/src/kernel/OS_LIB/heap_oo.c **** 	}
 181:../../source/src/kernel/OS_LIB/heap_oo.c **** 	if(0 == index)
 997              		.loc 2 181 0
 998 042c BB68     		ldr	r3, [r7, #8]
 999 042e 002B     		cmp	r3, #0
 1000 0430 05D1     		bne	.L75
 182:../../source/src/kernel/OS_LIB/heap_oo.c **** 	{
 183:../../source/src/kernel/OS_LIB/heap_oo.c **** 		OS_ERROR_PARA_MESSAGE_DISPLAY(heap_remove_index_data,index);
 1001              		.loc 2 183 0
 1002 0432 1948     		ldr	r0, .L79+8
 1003 0434 FFF7FEFF 		bl	ka_printf
 184:../../source/src/kernel/OS_LIB/heap_oo.c **** 		return -ERROR_VALUELESS_INPUT;
 1004              		.loc 2 184 0
 1005 0438 6FF0FD03 		mvn	r3, #253
 1006 043c 24E0     		b	.L74
 1007              	.L75:
 185:../../source/src/kernel/OS_LIB/heap_oo.c **** 	}
 186:../../source/src/kernel/OS_LIB/heap_oo.c **** #endif
 187:../../source/src/kernel/OS_LIB/heap_oo.c **** 	int ret,i;
 188:../../source/src/kernel/OS_LIB/heap_oo.c **** 	ret = Vector_remove_index_data(&little_heap_ptr->data,index,data_store_ptr);
 1008              		.loc 2 188 0
 1009 043e FB68     		ldr	r3, [r7, #12]
 1010 0440 7A68     		ldr	r2, [r7, #4]
 1011 0442 B968     		ldr	r1, [r7, #8]
 1012 0444 1846     		mov	r0, r3
 1013 0446 FFF7FEFF 		bl	Vector_remove_index_data
 1014 044a B861     		str	r0, [r7, #24]
 189:../../source/src/kernel/OS_LIB/heap_oo.c **** 	if(ret < 0)
 1015              		.loc 2 189 0
 1016 044c BB69     		ldr	r3, [r7, #24]
 1017 044e 002B     		cmp	r3, #0
 1018 0450 01DA     		bge	.L76
ARM GAS  G:\Users\Jaxb\AppData\Local\Temp\ccBcpwCd.s 			page 25


 190:../../source/src/kernel/OS_LIB/heap_oo.c **** 	{
 191:../../source/src/kernel/OS_LIB/heap_oo.c **** 		return ret;
 1019              		.loc 2 191 0
 1020 0452 BB69     		ldr	r3, [r7, #24]
 1021 0454 18E0     		b	.L74
 1022              	.L76:
 192:../../source/src/kernel/OS_LIB/heap_oo.c **** 	}
 193:../../source/src/kernel/OS_LIB/heap_oo.c **** 	//rebuild heap
 194:../../source/src/kernel/OS_LIB/heap_oo.c **** 	int size = get_Vector_cur_len(&little_heap_ptr->data) - 1;
 1023              		.loc 2 194 0
 1024 0456 FB68     		ldr	r3, [r7, #12]
 1025 0458 1846     		mov	r0, r3
 1026 045a FFF7D1FD 		bl	get_Vector_cur_len
 1027 045e 0346     		mov	r3, r0
 1028 0460 013B     		subs	r3, r3, #1
 1029 0462 7B61     		str	r3, [r7, #20]
 195:../../source/src/kernel/OS_LIB/heap_oo.c **** 	for(i=size/2;i>0;--i)
 1030              		.loc 2 195 0
 1031 0464 7B69     		ldr	r3, [r7, #20]
 1032 0466 DA0F     		lsrs	r2, r3, #31
 1033 0468 1344     		add	r3, r3, r2
 1034 046a 5B10     		asrs	r3, r3, #1
 1035 046c FB61     		str	r3, [r7, #28]
 1036 046e 07E0     		b	.L77
 1037              	.L78:
 196:../../source/src/kernel/OS_LIB/heap_oo.c **** 	{
 197:../../source/src/kernel/OS_LIB/heap_oo.c **** 		heap_adjust(little_heap_ptr,i,size);
 1038              		.loc 2 197 0 discriminator 3
 1039 0470 7A69     		ldr	r2, [r7, #20]
 1040 0472 F969     		ldr	r1, [r7, #28]
 1041 0474 F868     		ldr	r0, [r7, #12]
 1042 0476 FFF745FE 		bl	heap_adjust
 195:../../source/src/kernel/OS_LIB/heap_oo.c **** 	for(i=size/2;i>0;--i)
 1043              		.loc 2 195 0 discriminator 3
 1044 047a FB69     		ldr	r3, [r7, #28]
 1045 047c 013B     		subs	r3, r3, #1
 1046 047e FB61     		str	r3, [r7, #28]
 1047              	.L77:
 195:../../source/src/kernel/OS_LIB/heap_oo.c **** 	for(i=size/2;i>0;--i)
 1048              		.loc 2 195 0 is_stmt 0 discriminator 1
 1049 0480 FB69     		ldr	r3, [r7, #28]
 1050 0482 002B     		cmp	r3, #0
 1051 0484 F4DC     		bgt	.L78
 198:../../source/src/kernel/OS_LIB/heap_oo.c **** 	}
 199:../../source/src/kernel/OS_LIB/heap_oo.c **** 	return FUN_EXECUTE_SUCCESSFULLY;
 1052              		.loc 2 199 0 is_stmt 1
 1053 0486 0023     		movs	r3, #0
 1054              	.L74:
 200:../../source/src/kernel/OS_LIB/heap_oo.c **** }
 1055              		.loc 2 200 0
 1056 0488 1846     		mov	r0, r3
 1057 048a 2037     		adds	r7, r7, #32
 1058              	.LCFI44:
 1059              		.cfi_def_cfa_offset 8
 1060 048c BD46     		mov	sp, r7
 1061              	.LCFI45:
 1062              		.cfi_def_cfa_register 13
ARM GAS  G:\Users\Jaxb\AppData\Local\Temp\ccBcpwCd.s 			page 26


 1063              		@ sp needed
 1064 048e 80BD     		pop	{r7, pc}
 1065              	.L80:
 1066              		.align	2
 1067              	.L79:
 1068 0490 00000000 		.word	.LC0
 1069 0494 20030000 		.word	.LC13
 1070 0498 68030000 		.word	.LC14
 1071              		.cfi_endproc
 1072              	.LFE9:
 1073              		.size	heap_remove_index_data, .-heap_remove_index_data
 1074              		.section	.rodata
 1075              		.align	2
 1076              	.LC15:
 1077 03a4 6572726F 		.ascii	"error fun name : heap_erase_data\012error para : li"
 1077      72206675 
 1077      6E206E61 
 1077      6D65203A 
 1077      20686561 
 1078 03d4 74746C65 		.ascii	"ttle_heap_ptr\012\000"
 1078      5F686561 
 1078      705F7074 
 1078      720A00
 1079              		.text
 1080              		.align	1
 1081              		.global	heap_erase_data
 1082              		.syntax unified
 1083              		.thumb
 1084              		.thumb_func
 1085              		.fpu softvfp
 1086              		.type	heap_erase_data, %function
 1087              	heap_erase_data:
 1088              	.LFB10:
 201:../../source/src/kernel/OS_LIB/heap_oo.c **** 
 202:../../source/src/kernel/OS_LIB/heap_oo.c **** //erase the data between index "from" to "to"; then adjust the heap
 203:../../source/src/kernel/OS_LIB/heap_oo.c **** int heap_erase_data(struct little_heap *little_heap_ptr,unsigned int from,unsigned int to)
 204:../../source/src/kernel/OS_LIB/heap_oo.c **** {
 1089              		.loc 2 204 0
 1090              		.cfi_startproc
 1091              		@ args = 0, pretend = 0, frame = 32
 1092              		@ frame_needed = 1, uses_anonymous_args = 0
 1093 049c 80B5     		push	{r7, lr}
 1094              	.LCFI46:
 1095              		.cfi_def_cfa_offset 8
 1096              		.cfi_offset 7, -8
 1097              		.cfi_offset 14, -4
 1098 049e 88B0     		sub	sp, sp, #32
 1099              	.LCFI47:
 1100              		.cfi_def_cfa_offset 40
 1101 04a0 00AF     		add	r7, sp, #0
 1102              	.LCFI48:
 1103              		.cfi_def_cfa_register 7
 1104 04a2 F860     		str	r0, [r7, #12]
 1105 04a4 B960     		str	r1, [r7, #8]
 1106 04a6 7A60     		str	r2, [r7, #4]
 205:../../source/src/kernel/OS_LIB/heap_oo.c **** 	ASSERT(NULL != little_heap_ptr);
 1107              		.loc 2 205 0
ARM GAS  G:\Users\Jaxb\AppData\Local\Temp\ccBcpwCd.s 			page 27


 1108 04a8 FB68     		ldr	r3, [r7, #12]
 1109 04aa 002B     		cmp	r3, #0
 1110 04ac 03D1     		bne	.L82
 1111              		.loc 2 205 0 is_stmt 0 discriminator 1
 1112 04ae CD21     		movs	r1, #205
 1113 04b0 1A48     		ldr	r0, .L88
 1114 04b2 FFF7FEFF 		bl	_ASSERT
 1115              	.L82:
 206:../../source/src/kernel/OS_LIB/heap_oo.c **** #if CONFIG_PARA_CHECK
 207:../../source/src/kernel/OS_LIB/heap_oo.c **** 	if(NULL == little_heap_ptr)
 1116              		.loc 2 207 0 is_stmt 1
 1117 04b6 FB68     		ldr	r3, [r7, #12]
 1118 04b8 002B     		cmp	r3, #0
 1119 04ba 05D1     		bne	.L83
 208:../../source/src/kernel/OS_LIB/heap_oo.c **** 	{
 209:../../source/src/kernel/OS_LIB/heap_oo.c **** 		OS_ERROR_PARA_MESSAGE_DISPLAY(heap_erase_data,little_heap_ptr);
 1120              		.loc 2 209 0
 1121 04bc 1848     		ldr	r0, .L88+4
 1122 04be FFF7FEFF 		bl	ka_printf
 210:../../source/src/kernel/OS_LIB/heap_oo.c **** 		return -ERROR_NULL_INPUT_PTR;
 1123              		.loc 2 210 0
 1124 04c2 6FF0FE03 		mvn	r3, #254
 1125 04c6 24E0     		b	.L84
 1126              	.L83:
 211:../../source/src/kernel/OS_LIB/heap_oo.c **** 	}
 212:../../source/src/kernel/OS_LIB/heap_oo.c **** #endif
 213:../../source/src/kernel/OS_LIB/heap_oo.c **** 	int ret,i;
 214:../../source/src/kernel/OS_LIB/heap_oo.c **** 	ret = Vector_erase_data(&little_heap_ptr->data,from,to);
 1127              		.loc 2 214 0
 1128 04c8 FB68     		ldr	r3, [r7, #12]
 1129 04ca 7A68     		ldr	r2, [r7, #4]
 1130 04cc B968     		ldr	r1, [r7, #8]
 1131 04ce 1846     		mov	r0, r3
 1132 04d0 FFF7FEFF 		bl	Vector_erase_data
 1133 04d4 B861     		str	r0, [r7, #24]
 215:../../source/src/kernel/OS_LIB/heap_oo.c **** 	if(ret < 0)
 1134              		.loc 2 215 0
 1135 04d6 BB69     		ldr	r3, [r7, #24]
 1136 04d8 002B     		cmp	r3, #0
 1137 04da 01DA     		bge	.L85
 216:../../source/src/kernel/OS_LIB/heap_oo.c **** 	{
 217:../../source/src/kernel/OS_LIB/heap_oo.c **** 		return ret;
 1138              		.loc 2 217 0
 1139 04dc BB69     		ldr	r3, [r7, #24]
 1140 04de 18E0     		b	.L84
 1141              	.L85:
 218:../../source/src/kernel/OS_LIB/heap_oo.c **** 	}
 219:../../source/src/kernel/OS_LIB/heap_oo.c **** 	//rebuild heap
 220:../../source/src/kernel/OS_LIB/heap_oo.c **** 	int size = get_Vector_cur_len(&little_heap_ptr->data) - 1;
 1142              		.loc 2 220 0
 1143 04e0 FB68     		ldr	r3, [r7, #12]
 1144 04e2 1846     		mov	r0, r3
 1145 04e4 FFF78CFD 		bl	get_Vector_cur_len
 1146 04e8 0346     		mov	r3, r0
 1147 04ea 013B     		subs	r3, r3, #1
 1148 04ec 7B61     		str	r3, [r7, #20]
 221:../../source/src/kernel/OS_LIB/heap_oo.c **** 	for(i=size/2;i>0;--i)
ARM GAS  G:\Users\Jaxb\AppData\Local\Temp\ccBcpwCd.s 			page 28


 1149              		.loc 2 221 0
 1150 04ee 7B69     		ldr	r3, [r7, #20]
 1151 04f0 DA0F     		lsrs	r2, r3, #31
 1152 04f2 1344     		add	r3, r3, r2
 1153 04f4 5B10     		asrs	r3, r3, #1
 1154 04f6 FB61     		str	r3, [r7, #28]
 1155 04f8 07E0     		b	.L86
 1156              	.L87:
 222:../../source/src/kernel/OS_LIB/heap_oo.c **** 	{
 223:../../source/src/kernel/OS_LIB/heap_oo.c **** 		heap_adjust(little_heap_ptr,i,size);
 1157              		.loc 2 223 0 discriminator 3
 1158 04fa 7A69     		ldr	r2, [r7, #20]
 1159 04fc F969     		ldr	r1, [r7, #28]
 1160 04fe F868     		ldr	r0, [r7, #12]
 1161 0500 FFF700FE 		bl	heap_adjust
 221:../../source/src/kernel/OS_LIB/heap_oo.c **** 	for(i=size/2;i>0;--i)
 1162              		.loc 2 221 0 discriminator 3
 1163 0504 FB69     		ldr	r3, [r7, #28]
 1164 0506 013B     		subs	r3, r3, #1
 1165 0508 FB61     		str	r3, [r7, #28]
 1166              	.L86:
 221:../../source/src/kernel/OS_LIB/heap_oo.c **** 	for(i=size/2;i>0;--i)
 1167              		.loc 2 221 0 is_stmt 0 discriminator 1
 1168 050a FB69     		ldr	r3, [r7, #28]
 1169 050c 002B     		cmp	r3, #0
 1170 050e F4DC     		bgt	.L87
 224:../../source/src/kernel/OS_LIB/heap_oo.c **** 	}
 225:../../source/src/kernel/OS_LIB/heap_oo.c **** 	return FUN_EXECUTE_SUCCESSFULLY;
 1171              		.loc 2 225 0 is_stmt 1
 1172 0510 0023     		movs	r3, #0
 1173              	.L84:
 226:../../source/src/kernel/OS_LIB/heap_oo.c **** }
 1174              		.loc 2 226 0
 1175 0512 1846     		mov	r0, r3
 1176 0514 2037     		adds	r7, r7, #32
 1177              	.LCFI49:
 1178              		.cfi_def_cfa_offset 8
 1179 0516 BD46     		mov	sp, r7
 1180              	.LCFI50:
 1181              		.cfi_def_cfa_register 13
 1182              		@ sp needed
 1183 0518 80BD     		pop	{r7, pc}
 1184              	.L89:
 1185 051a 00BF     		.align	2
 1186              	.L88:
 1187 051c 00000000 		.word	.LC0
 1188 0520 A4030000 		.word	.LC15
 1189              		.cfi_endproc
 1190              	.LFE10:
 1191              		.size	heap_erase_data, .-heap_erase_data
 1192              		.align	1
 1193              		.global	heap_get_cur_len
 1194              		.syntax unified
 1195              		.thumb
 1196              		.thumb_func
 1197              		.fpu softvfp
 1198              		.type	heap_get_cur_len, %function
ARM GAS  G:\Users\Jaxb\AppData\Local\Temp\ccBcpwCd.s 			page 29


 1199              	heap_get_cur_len:
 1200              	.LFB11:
 227:../../source/src/kernel/OS_LIB/heap_oo.c **** 
 228:../../source/src/kernel/OS_LIB/heap_oo.c **** inline unsigned int heap_get_cur_len(struct little_heap *little_heap_ptr)
 229:../../source/src/kernel/OS_LIB/heap_oo.c **** {
 1201              		.loc 2 229 0
 1202              		.cfi_startproc
 1203              		@ args = 0, pretend = 0, frame = 8
 1204              		@ frame_needed = 1, uses_anonymous_args = 0
 1205 0524 80B5     		push	{r7, lr}
 1206              	.LCFI51:
 1207              		.cfi_def_cfa_offset 8
 1208              		.cfi_offset 7, -8
 1209              		.cfi_offset 14, -4
 1210 0526 82B0     		sub	sp, sp, #8
 1211              	.LCFI52:
 1212              		.cfi_def_cfa_offset 16
 1213 0528 00AF     		add	r7, sp, #0
 1214              	.LCFI53:
 1215              		.cfi_def_cfa_register 7
 1216 052a 7860     		str	r0, [r7, #4]
 230:../../source/src/kernel/OS_LIB/heap_oo.c **** 	return get_Vector_cur_len(&little_heap_ptr->data);
 1217              		.loc 2 230 0
 1218 052c 7B68     		ldr	r3, [r7, #4]
 1219 052e 1846     		mov	r0, r3
 1220 0530 FFF766FD 		bl	get_Vector_cur_len
 1221 0534 0346     		mov	r3, r0
 231:../../source/src/kernel/OS_LIB/heap_oo.c **** }
 1222              		.loc 2 231 0
 1223 0536 1846     		mov	r0, r3
 1224 0538 0837     		adds	r7, r7, #8
 1225              	.LCFI54:
 1226              		.cfi_def_cfa_offset 8
 1227 053a BD46     		mov	sp, r7
 1228              	.LCFI55:
 1229              		.cfi_def_cfa_register 13
 1230              		@ sp needed
 1231 053c 80BD     		pop	{r7, pc}
 1232              		.cfi_endproc
 1233              	.LFE11:
 1234              		.size	heap_get_cur_len, .-heap_get_cur_len
 1235              	.Letext0:
 1236              		.file 3 "../../source/include/os_lib/heap_oo.h"
 1237 053e 00BF     		.section	.debug_info,"",%progbits
 1238              	.Ldebug_info0:
 1239 0000 D3040000 		.4byte	0x4d3
 1240 0004 0200     		.2byte	0x2
 1241 0006 00000000 		.4byte	.Ldebug_abbrev0
 1242 000a 04       		.byte	0x4
 1243 000b 01       		.uleb128 0x1
 1244 000c BC010000 		.4byte	.LASF36
 1245 0010 0C       		.byte	0xc
 1246 0011 7C010000 		.4byte	.LASF37
 1247 0015 A0020000 		.4byte	.LASF38
 1248 0019 00000000 		.4byte	.Ltext0
 1249 001d 3E050000 		.4byte	.Letext0
 1250 0021 00000000 		.4byte	.Ldebug_line0
ARM GAS  G:\Users\Jaxb\AppData\Local\Temp\ccBcpwCd.s 			page 30


 1251 0025 02       		.uleb128 0x2
 1252 0026 45010000 		.4byte	.LASF5
 1253 002a 14       		.byte	0x14
 1254 002b 01       		.byte	0x1
 1255 002c 08       		.byte	0x8
 1256 002d 78000000 		.4byte	0x78
 1257 0031 03       		.uleb128 0x3
 1258 0032 E2000000 		.4byte	.LASF0
 1259 0036 01       		.byte	0x1
 1260 0037 0A       		.byte	0xa
 1261 0038 78000000 		.4byte	0x78
 1262 003c 02       		.byte	0x2
 1263 003d 23       		.byte	0x23
 1264 003e 00       		.uleb128 0
 1265 003f 03       		.uleb128 0x3
 1266 0040 C6000000 		.4byte	.LASF1
 1267 0044 01       		.byte	0x1
 1268 0045 0B       		.byte	0xb
 1269 0046 7A000000 		.4byte	0x7a
 1270 004a 02       		.byte	0x2
 1271 004b 23       		.byte	0x23
 1272 004c 04       		.uleb128 0x4
 1273 004d 03       		.uleb128 0x3
 1274 004e BE000000 		.4byte	.LASF2
 1275 0052 01       		.byte	0x1
 1276 0053 0C       		.byte	0xc
 1277 0054 7A000000 		.4byte	0x7a
 1278 0058 02       		.byte	0x2
 1279 0059 23       		.byte	0x23
 1280 005a 08       		.uleb128 0x8
 1281 005b 03       		.uleb128 0x3
 1282 005c 2D000000 		.4byte	.LASF3
 1283 0060 01       		.byte	0x1
 1284 0061 0D       		.byte	0xd
 1285 0062 7A000000 		.4byte	0x7a
 1286 0066 02       		.byte	0x2
 1287 0067 23       		.byte	0x23
 1288 0068 0C       		.uleb128 0xc
 1289 0069 03       		.uleb128 0x3
 1290 006a 61010000 		.4byte	.LASF4
 1291 006e 01       		.byte	0x1
 1292 006f 13       		.byte	0x13
 1293 0070 7A000000 		.4byte	0x7a
 1294 0074 02       		.byte	0x2
 1295 0075 23       		.byte	0x23
 1296 0076 10       		.uleb128 0x10
 1297 0077 00       		.byte	0
 1298 0078 04       		.uleb128 0x4
 1299 0079 04       		.byte	0x4
 1300 007a 05       		.uleb128 0x5
 1301 007b 04       		.byte	0x4
 1302 007c 07       		.byte	0x7
 1303 007d 37000000 		.4byte	.LASF9
 1304 0081 06       		.uleb128 0x6
 1305 0082 25010000 		.4byte	.LASF39
 1306 0086 01       		.byte	0x1
 1307 0087 14       		.byte	0x14
ARM GAS  G:\Users\Jaxb\AppData\Local\Temp\ccBcpwCd.s 			page 31


 1308 0088 25000000 		.4byte	0x25
 1309 008c 02       		.uleb128 0x2
 1310 008d 54000000 		.4byte	.LASF6
 1311 0091 1C       		.byte	0x1c
 1312 0092 03       		.byte	0x3
 1313 0093 0A       		.byte	0xa
 1314 0094 C3000000 		.4byte	0xc3
 1315 0098 03       		.uleb128 0x3
 1316 0099 6C000000 		.4byte	.LASF7
 1317 009d 03       		.byte	0x3
 1318 009e 0D       		.byte	0xd
 1319 009f 81000000 		.4byte	0x81
 1320 00a3 02       		.byte	0x2
 1321 00a4 23       		.byte	0x23
 1322 00a5 00       		.uleb128 0
 1323 00a6 07       		.uleb128 0x7
 1324 00a7 636D7000 		.ascii	"cmp\000"
 1325 00ab 03       		.byte	0x3
 1326 00ac 10       		.byte	0x10
 1327 00ad EA000000 		.4byte	0xea
 1328 00b1 02       		.byte	0x2
 1329 00b2 23       		.byte	0x23
 1330 00b3 14       		.uleb128 0x14
 1331 00b4 03       		.uleb128 0x3
 1332 00b5 05000000 		.4byte	.LASF8
 1333 00b9 03       		.byte	0x3
 1334 00ba 12       		.byte	0x12
 1335 00bb 01010000 		.4byte	0x101
 1336 00bf 02       		.byte	0x2
 1337 00c0 23       		.byte	0x23
 1338 00c1 18       		.uleb128 0x18
 1339 00c2 00       		.byte	0
 1340 00c3 08       		.uleb128 0x8
 1341 00c4 01       		.byte	0x1
 1342 00c5 DD000000 		.4byte	0xdd
 1343 00c9 DD000000 		.4byte	0xdd
 1344 00cd 09       		.uleb128 0x9
 1345 00ce E4000000 		.4byte	0xe4
 1346 00d2 09       		.uleb128 0x9
 1347 00d3 7A000000 		.4byte	0x7a
 1348 00d7 09       		.uleb128 0x9
 1349 00d8 7A000000 		.4byte	0x7a
 1350 00dc 00       		.byte	0
 1351 00dd 0A       		.uleb128 0xa
 1352 00de 04       		.byte	0x4
 1353 00df 05       		.byte	0x5
 1354 00e0 696E7400 		.ascii	"int\000"
 1355 00e4 0B       		.uleb128 0xb
 1356 00e5 04       		.byte	0x4
 1357 00e6 81000000 		.4byte	0x81
 1358 00ea 0B       		.uleb128 0xb
 1359 00eb 04       		.byte	0x4
 1360 00ec C3000000 		.4byte	0xc3
 1361 00f0 0C       		.uleb128 0xc
 1362 00f1 01       		.byte	0x1
 1363 00f2 01010000 		.4byte	0x101
 1364 00f6 09       		.uleb128 0x9
ARM GAS  G:\Users\Jaxb\AppData\Local\Temp\ccBcpwCd.s 			page 32


 1365 00f7 E4000000 		.4byte	0xe4
 1366 00fb 09       		.uleb128 0x9
 1367 00fc DD000000 		.4byte	0xdd
 1368 0100 00       		.byte	0
 1369 0101 0B       		.uleb128 0xb
 1370 0102 04       		.byte	0x4
 1371 0103 F0000000 		.4byte	0xf0
 1372 0107 05       		.uleb128 0x5
 1373 0108 01       		.byte	0x1
 1374 0109 06       		.byte	0x6
 1375 010a 6C020000 		.4byte	.LASF10
 1376 010e 05       		.uleb128 0x5
 1377 010f 02       		.byte	0x2
 1378 0110 05       		.byte	0x5
 1379 0111 72010000 		.4byte	.LASF11
 1380 0115 05       		.uleb128 0x5
 1381 0116 08       		.byte	0x8
 1382 0117 05       		.byte	0x5
 1383 0118 37010000 		.4byte	.LASF12
 1384 011c 05       		.uleb128 0x5
 1385 011d 01       		.byte	0x1
 1386 011e 08       		.byte	0x8
 1387 011f 7E000000 		.4byte	.LASF13
 1388 0123 05       		.uleb128 0x5
 1389 0124 02       		.byte	0x2
 1390 0125 07       		.byte	0x7
 1391 0126 9D000000 		.4byte	.LASF14
 1392 012a 05       		.uleb128 0x5
 1393 012b 08       		.byte	0x8
 1394 012c 07       		.byte	0x7
 1395 012d EB000000 		.4byte	.LASF15
 1396 0131 0D       		.uleb128 0xd
 1397 0132 01       		.byte	0x1
 1398 0133 8C000000 		.4byte	.LASF16
 1399 0137 02       		.byte	0x2
 1400 0138 E4       		.byte	0xe4
 1401 0139 01       		.byte	0x1
 1402 013a 7A000000 		.4byte	0x7a
 1403 013e 24050000 		.4byte	.LFB11
 1404 0142 3E050000 		.4byte	.LFE11
 1405 0146 00000000 		.4byte	.LLST10
 1406 014a 01       		.byte	0x1
 1407 014b 5E010000 		.4byte	0x15e
 1408 014f 0E       		.uleb128 0xe
 1409 0150 44000000 		.4byte	.LASF18
 1410 0154 02       		.byte	0x2
 1411 0155 E4       		.byte	0xe4
 1412 0156 5E010000 		.4byte	0x15e
 1413 015a 02       		.byte	0x2
 1414 015b 91       		.byte	0x91
 1415 015c 74       		.sleb128 -12
 1416 015d 00       		.byte	0
 1417 015e 0B       		.uleb128 0xb
 1418 015f 04       		.byte	0x4
 1419 0160 8C000000 		.4byte	0x8c
 1420 0164 0F       		.uleb128 0xf
 1421 0165 5E010000 		.4byte	0x15e
ARM GAS  G:\Users\Jaxb\AppData\Local\Temp\ccBcpwCd.s 			page 33


 1422 0169 0D       		.uleb128 0xd
 1423 016a 01       		.byte	0x1
 1424 016b 90020000 		.4byte	.LASF17
 1425 016f 02       		.byte	0x2
 1426 0170 CB       		.byte	0xcb
 1427 0171 01       		.byte	0x1
 1428 0172 DD000000 		.4byte	0xdd
 1429 0176 9C040000 		.4byte	.LFB10
 1430 017a 24050000 		.4byte	.LFE10
 1431 017e 50000000 		.4byte	.LLST9
 1432 0182 01       		.byte	0x1
 1433 0183 D9010000 		.4byte	0x1d9
 1434 0187 0E       		.uleb128 0xe
 1435 0188 44000000 		.4byte	.LASF18
 1436 018c 02       		.byte	0x2
 1437 018d CB       		.byte	0xcb
 1438 018e 5E010000 		.4byte	0x15e
 1439 0192 02       		.byte	0x2
 1440 0193 91       		.byte	0x91
 1441 0194 64       		.sleb128 -28
 1442 0195 0E       		.uleb128 0xe
 1443 0196 00000000 		.4byte	.LASF19
 1444 019a 02       		.byte	0x2
 1445 019b CB       		.byte	0xcb
 1446 019c 7A000000 		.4byte	0x7a
 1447 01a0 02       		.byte	0x2
 1448 01a1 91       		.byte	0x91
 1449 01a2 60       		.sleb128 -32
 1450 01a3 10       		.uleb128 0x10
 1451 01a4 746F00   		.ascii	"to\000"
 1452 01a7 02       		.byte	0x2
 1453 01a8 CB       		.byte	0xcb
 1454 01a9 7A000000 		.4byte	0x7a
 1455 01ad 02       		.byte	0x2
 1456 01ae 91       		.byte	0x91
 1457 01af 5C       		.sleb128 -36
 1458 01b0 11       		.uleb128 0x11
 1459 01b1 72657400 		.ascii	"ret\000"
 1460 01b5 02       		.byte	0x2
 1461 01b6 D5       		.byte	0xd5
 1462 01b7 DD000000 		.4byte	0xdd
 1463 01bb 02       		.byte	0x2
 1464 01bc 91       		.byte	0x91
 1465 01bd 70       		.sleb128 -16
 1466 01be 11       		.uleb128 0x11
 1467 01bf 6900     		.ascii	"i\000"
 1468 01c1 02       		.byte	0x2
 1469 01c2 D5       		.byte	0xd5
 1470 01c3 DD000000 		.4byte	0xdd
 1471 01c7 02       		.byte	0x2
 1472 01c8 91       		.byte	0x91
 1473 01c9 74       		.sleb128 -12
 1474 01ca 12       		.uleb128 0x12
 1475 01cb 8B020000 		.4byte	.LASF20
 1476 01cf 02       		.byte	0x2
 1477 01d0 DC       		.byte	0xdc
 1478 01d1 DD000000 		.4byte	0xdd
ARM GAS  G:\Users\Jaxb\AppData\Local\Temp\ccBcpwCd.s 			page 34


 1479 01d5 02       		.byte	0x2
 1480 01d6 91       		.byte	0x91
 1481 01d7 6C       		.sleb128 -20
 1482 01d8 00       		.byte	0
 1483 01d9 0D       		.uleb128 0xd
 1484 01da 01       		.byte	0x1
 1485 01db CE020000 		.4byte	.LASF21
 1486 01df 02       		.byte	0x2
 1487 01e0 AC       		.byte	0xac
 1488 01e1 01       		.byte	0x1
 1489 01e2 DD000000 		.4byte	0xdd
 1490 01e6 00040000 		.4byte	.LFB9
 1491 01ea 9C040000 		.4byte	.LFE9
 1492 01ee A0000000 		.4byte	.LLST8
 1493 01f2 01       		.byte	0x1
 1494 01f3 4A020000 		.4byte	0x24a
 1495 01f7 0E       		.uleb128 0xe
 1496 01f8 44000000 		.4byte	.LASF18
 1497 01fc 02       		.byte	0x2
 1498 01fd AC       		.byte	0xac
 1499 01fe 5E010000 		.4byte	0x15e
 1500 0202 02       		.byte	0x2
 1501 0203 91       		.byte	0x91
 1502 0204 64       		.sleb128 -28
 1503 0205 0E       		.uleb128 0xe
 1504 0206 4C010000 		.4byte	.LASF22
 1505 020a 02       		.byte	0x2
 1506 020b AC       		.byte	0xac
 1507 020c 7A000000 		.4byte	0x7a
 1508 0210 02       		.byte	0x2
 1509 0211 91       		.byte	0x91
 1510 0212 60       		.sleb128 -32
 1511 0213 0E       		.uleb128 0xe
 1512 0214 52010000 		.4byte	.LASF23
 1513 0218 02       		.byte	0x2
 1514 0219 AC       		.byte	0xac
 1515 021a 78000000 		.4byte	0x78
 1516 021e 02       		.byte	0x2
 1517 021f 91       		.byte	0x91
 1518 0220 5C       		.sleb128 -36
 1519 0221 11       		.uleb128 0x11
 1520 0222 72657400 		.ascii	"ret\000"
 1521 0226 02       		.byte	0x2
 1522 0227 BB       		.byte	0xbb
 1523 0228 DD000000 		.4byte	0xdd
 1524 022c 02       		.byte	0x2
 1525 022d 91       		.byte	0x91
 1526 022e 70       		.sleb128 -16
 1527 022f 11       		.uleb128 0x11
 1528 0230 6900     		.ascii	"i\000"
 1529 0232 02       		.byte	0x2
 1530 0233 BB       		.byte	0xbb
 1531 0234 DD000000 		.4byte	0xdd
 1532 0238 02       		.byte	0x2
 1533 0239 91       		.byte	0x91
 1534 023a 74       		.sleb128 -12
 1535 023b 12       		.uleb128 0x12
ARM GAS  G:\Users\Jaxb\AppData\Local\Temp\ccBcpwCd.s 			page 35


 1536 023c 8B020000 		.4byte	.LASF20
 1537 0240 02       		.byte	0x2
 1538 0241 C2       		.byte	0xc2
 1539 0242 DD000000 		.4byte	0xdd
 1540 0246 02       		.byte	0x2
 1541 0247 91       		.byte	0x91
 1542 0248 6C       		.sleb128 -20
 1543 0249 00       		.byte	0
 1544 024a 0D       		.uleb128 0xd
 1545 024b 01       		.byte	0x1
 1546 024c 19000000 		.4byte	.LASF24
 1547 0250 02       		.byte	0x2
 1548 0251 92       		.byte	0x92
 1549 0252 01       		.byte	0x1
 1550 0253 DD000000 		.4byte	0xdd
 1551 0257 5C030000 		.4byte	.LFB8
 1552 025b 00040000 		.4byte	.LFE8
 1553 025f F0000000 		.4byte	.LLST7
 1554 0263 01       		.byte	0x1
 1555 0264 BB020000 		.4byte	0x2bb
 1556 0268 0E       		.uleb128 0xe
 1557 0269 44000000 		.4byte	.LASF18
 1558 026d 02       		.byte	0x2
 1559 026e 92       		.byte	0x92
 1560 026f 5E010000 		.4byte	0x15e
 1561 0273 02       		.byte	0x2
 1562 0274 91       		.byte	0x91
 1563 0275 64       		.sleb128 -28
 1564 0276 0E       		.uleb128 0xe
 1565 0277 4C010000 		.4byte	.LASF22
 1566 027b 02       		.byte	0x2
 1567 027c 92       		.byte	0x92
 1568 027d 7A000000 		.4byte	0x7a
 1569 0281 02       		.byte	0x2
 1570 0282 91       		.byte	0x91
 1571 0283 60       		.sleb128 -32
 1572 0284 0E       		.uleb128 0xe
 1573 0285 52010000 		.4byte	.LASF23
 1574 0289 02       		.byte	0x2
 1575 028a 92       		.byte	0x92
 1576 028b 78000000 		.4byte	0x78
 1577 028f 02       		.byte	0x2
 1578 0290 91       		.byte	0x91
 1579 0291 5C       		.sleb128 -36
 1580 0292 11       		.uleb128 0x11
 1581 0293 72657400 		.ascii	"ret\000"
 1582 0297 02       		.byte	0x2
 1583 0298 9D       		.byte	0x9d
 1584 0299 DD000000 		.4byte	0xdd
 1585 029d 02       		.byte	0x2
 1586 029e 91       		.byte	0x91
 1587 029f 70       		.sleb128 -16
 1588 02a0 12       		.uleb128 0x12
 1589 02a1 8B020000 		.4byte	.LASF20
 1590 02a5 02       		.byte	0x2
 1591 02a6 A2       		.byte	0xa2
 1592 02a7 7A000000 		.4byte	0x7a
ARM GAS  G:\Users\Jaxb\AppData\Local\Temp\ccBcpwCd.s 			page 36


 1593 02ab 02       		.byte	0x2
 1594 02ac 91       		.byte	0x91
 1595 02ad 6C       		.sleb128 -20
 1596 02ae 11       		.uleb128 0x11
 1597 02af 6900     		.ascii	"i\000"
 1598 02b1 02       		.byte	0x2
 1599 02b2 A3       		.byte	0xa3
 1600 02b3 7A000000 		.4byte	0x7a
 1601 02b7 02       		.byte	0x2
 1602 02b8 91       		.byte	0x91
 1603 02b9 74       		.sleb128 -12
 1604 02ba 00       		.byte	0
 1605 02bb 0D       		.uleb128 0xd
 1606 02bc 01       		.byte	0x1
 1607 02bd 02010000 		.4byte	.LASF25
 1608 02c1 02       		.byte	0x2
 1609 02c2 7F       		.byte	0x7f
 1610 02c3 01       		.byte	0x1
 1611 02c4 DD000000 		.4byte	0xdd
 1612 02c8 E4020000 		.4byte	.LFB7
 1613 02cc 5C030000 		.4byte	.LFE7
 1614 02d0 40010000 		.4byte	.LLST6
 1615 02d4 01       		.byte	0x1
 1616 02d5 04030000 		.4byte	0x304
 1617 02d9 0E       		.uleb128 0xe
 1618 02da 44000000 		.4byte	.LASF18
 1619 02de 02       		.byte	0x2
 1620 02df 7F       		.byte	0x7f
 1621 02e0 5E010000 		.4byte	0x15e
 1622 02e4 02       		.byte	0x2
 1623 02e5 91       		.byte	0x91
 1624 02e6 74       		.sleb128 -12
 1625 02e7 0E       		.uleb128 0xe
 1626 02e8 52010000 		.4byte	.LASF23
 1627 02ec 02       		.byte	0x2
 1628 02ed 7F       		.byte	0x7f
 1629 02ee 78000000 		.4byte	0x78
 1630 02f2 02       		.byte	0x2
 1631 02f3 91       		.byte	0x91
 1632 02f4 70       		.sleb128 -16
 1633 02f5 0E       		.uleb128 0xe
 1634 02f6 4C010000 		.4byte	.LASF22
 1635 02fa 02       		.byte	0x2
 1636 02fb 7F       		.byte	0x7f
 1637 02fc 7A000000 		.4byte	0x7a
 1638 0300 02       		.byte	0x2
 1639 0301 91       		.byte	0x91
 1640 0302 6C       		.sleb128 -20
 1641 0303 00       		.byte	0
 1642 0304 0D       		.uleb128 0xd
 1643 0305 01       		.byte	0x1
 1644 0306 CE000000 		.4byte	.LASF26
 1645 030a 02       		.byte	0x2
 1646 030b 71       		.byte	0x71
 1647 030c 01       		.byte	0x1
 1648 030d DD000000 		.4byte	0xdd
 1649 0311 84020000 		.4byte	.LFB6
ARM GAS  G:\Users\Jaxb\AppData\Local\Temp\ccBcpwCd.s 			page 37


 1650 0315 E4020000 		.4byte	.LFE6
 1651 0319 90010000 		.4byte	.LLST5
 1652 031d 01       		.byte	0x1
 1653 031e 4D030000 		.4byte	0x34d
 1654 0322 0E       		.uleb128 0xe
 1655 0323 44000000 		.4byte	.LASF18
 1656 0327 02       		.byte	0x2
 1657 0328 71       		.byte	0x71
 1658 0329 5E010000 		.4byte	0x15e
 1659 032d 02       		.byte	0x2
 1660 032e 91       		.byte	0x91
 1661 032f 74       		.sleb128 -12
 1662 0330 0E       		.uleb128 0xe
 1663 0331 52010000 		.4byte	.LASF23
 1664 0335 02       		.byte	0x2
 1665 0336 71       		.byte	0x71
 1666 0337 78000000 		.4byte	0x78
 1667 033b 02       		.byte	0x2
 1668 033c 91       		.byte	0x91
 1669 033d 70       		.sleb128 -16
 1670 033e 0E       		.uleb128 0xe
 1671 033f 4C010000 		.4byte	.LASF22
 1672 0343 02       		.byte	0x2
 1673 0344 71       		.byte	0x71
 1674 0345 7A000000 		.4byte	0x7a
 1675 0349 02       		.byte	0x2
 1676 034a 91       		.byte	0x91
 1677 034b 6C       		.sleb128 -20
 1678 034c 00       		.byte	0
 1679 034d 0D       		.uleb128 0xd
 1680 034e 01       		.byte	0x1
 1681 034f 62020000 		.4byte	.LASF27
 1682 0353 02       		.byte	0x2
 1683 0354 53       		.byte	0x53
 1684 0355 01       		.byte	0x1
 1685 0356 DD000000 		.4byte	0xdd
 1686 035a BC010000 		.4byte	.LFB5
 1687 035e 84020000 		.4byte	.LFE5
 1688 0362 E0010000 		.4byte	.LLST4
 1689 0366 01       		.byte	0x1
 1690 0367 B0030000 		.4byte	0x3b0
 1691 036b 0E       		.uleb128 0xe
 1692 036c 44000000 		.4byte	.LASF18
 1693 0370 02       		.byte	0x2
 1694 0371 53       		.byte	0x53
 1695 0372 5E010000 		.4byte	0x15e
 1696 0376 02       		.byte	0x2
 1697 0377 91       		.byte	0x91
 1698 0378 5C       		.sleb128 -36
 1699 0379 0E       		.uleb128 0xe
 1700 037a B0000000 		.4byte	.LASF28
 1701 037e 02       		.byte	0x2
 1702 037f 53       		.byte	0x53
 1703 0380 78000000 		.4byte	0x78
 1704 0384 02       		.byte	0x2
 1705 0385 91       		.byte	0x91
 1706 0386 58       		.sleb128 -40
ARM GAS  G:\Users\Jaxb\AppData\Local\Temp\ccBcpwCd.s 			page 38


 1707 0387 11       		.uleb128 0x11
 1708 0388 72657400 		.ascii	"ret\000"
 1709 038c 02       		.byte	0x2
 1710 038d 5E       		.byte	0x5e
 1711 038e DD000000 		.4byte	0xdd
 1712 0392 02       		.byte	0x2
 1713 0393 91       		.byte	0x91
 1714 0394 68       		.sleb128 -24
 1715 0395 11       		.uleb128 0x11
 1716 0396 6900     		.ascii	"i\000"
 1717 0398 02       		.byte	0x2
 1718 0399 5E       		.byte	0x5e
 1719 039a DD000000 		.4byte	0xdd
 1720 039e 02       		.byte	0x2
 1721 039f 91       		.byte	0x91
 1722 03a0 6C       		.sleb128 -20
 1723 03a1 12       		.uleb128 0x12
 1724 03a2 8B020000 		.4byte	.LASF20
 1725 03a6 02       		.byte	0x2
 1726 03a7 5E       		.byte	0x5e
 1727 03a8 DD000000 		.4byte	0xdd
 1728 03ac 02       		.byte	0x2
 1729 03ad 91       		.byte	0x91
 1730 03ae 64       		.sleb128 -28
 1731 03af 00       		.byte	0
 1732 03b0 13       		.uleb128 0x13
 1733 03b1 B0010000 		.4byte	.LASF33
 1734 03b5 02       		.byte	0x2
 1735 03b6 39       		.byte	0x39
 1736 03b7 01       		.byte	0x1
 1737 03b8 04010000 		.4byte	.LFB4
 1738 03bc BC010000 		.4byte	.LFE4
 1739 03c0 30020000 		.4byte	.LLST3
 1740 03c4 01       		.byte	0x1
 1741 03c5 0E040000 		.4byte	0x40e
 1742 03c9 0E       		.uleb128 0xe
 1743 03ca 44000000 		.4byte	.LASF18
 1744 03ce 02       		.byte	0x2
 1745 03cf 39       		.byte	0x39
 1746 03d0 5E010000 		.4byte	0x15e
 1747 03d4 02       		.byte	0x2
 1748 03d5 91       		.byte	0x91
 1749 03d6 6C       		.sleb128 -20
 1750 03d7 0E       		.uleb128 0xe
 1751 03d8 4C010000 		.4byte	.LASF22
 1752 03dc 02       		.byte	0x2
 1753 03dd 39       		.byte	0x39
 1754 03de DD000000 		.4byte	0xdd
 1755 03e2 02       		.byte	0x2
 1756 03e3 91       		.byte	0x91
 1757 03e4 68       		.sleb128 -24
 1758 03e5 0E       		.uleb128 0xe
 1759 03e6 8B020000 		.4byte	.LASF20
 1760 03ea 02       		.byte	0x2
 1761 03eb 39       		.byte	0x39
 1762 03ec DD000000 		.4byte	0xdd
 1763 03f0 02       		.byte	0x2
ARM GAS  G:\Users\Jaxb\AppData\Local\Temp\ccBcpwCd.s 			page 39


 1764 03f1 91       		.byte	0x91
 1765 03f2 64       		.sleb128 -28
 1766 03f3 11       		.uleb128 0x11
 1767 03f4 6A00     		.ascii	"j\000"
 1768 03f6 02       		.byte	0x2
 1769 03f7 3B       		.byte	0x3b
 1770 03f8 DD000000 		.4byte	0xdd
 1771 03fc 02       		.byte	0x2
 1772 03fd 91       		.byte	0x91
 1773 03fe 74       		.sleb128 -12
 1774 03ff 12       		.uleb128 0x12
 1775 0400 A5010000 		.4byte	.LASF29
 1776 0404 02       		.byte	0x2
 1777 0405 3C       		.byte	0x3c
 1778 0406 E4000000 		.4byte	0xe4
 1779 040a 02       		.byte	0x2
 1780 040b 91       		.byte	0x91
 1781 040c 70       		.sleb128 -16
 1782 040d 00       		.byte	0
 1783 040e 0D       		.uleb128 0xd
 1784 040f 01       		.byte	0x1
 1785 0410 60000000 		.4byte	.LASF30
 1786 0414 02       		.byte	0x2
 1787 0415 2B       		.byte	0x2b
 1788 0416 01       		.byte	0x1
 1789 0417 DD000000 		.4byte	0xdd
 1790 041b C0000000 		.4byte	.LFB3
 1791 041f 04010000 		.4byte	.LFE3
 1792 0423 80020000 		.4byte	.LLST2
 1793 0427 01       		.byte	0x1
 1794 0428 3B040000 		.4byte	0x43b
 1795 042c 0E       		.uleb128 0xe
 1796 042d 44000000 		.4byte	.LASF18
 1797 0431 02       		.byte	0x2
 1798 0432 2B       		.byte	0x2b
 1799 0433 5E010000 		.4byte	0x15e
 1800 0437 02       		.byte	0x2
 1801 0438 91       		.byte	0x91
 1802 0439 74       		.sleb128 -12
 1803 043a 00       		.byte	0
 1804 043b 0D       		.uleb128 0xd
 1805 043c 01       		.byte	0x1
 1806 043d 1B010000 		.4byte	.LASF31
 1807 0441 02       		.byte	0x2
 1808 0442 0A       		.byte	0xa
 1809 0443 01       		.byte	0x1
 1810 0444 DD000000 		.4byte	0xdd
 1811 0448 16000000 		.4byte	.LFB2
 1812 044c C0000000 		.4byte	.LFE2
 1813 0450 D0020000 		.4byte	.LLST1
 1814 0454 01       		.byte	0x1
 1815 0455 AE040000 		.4byte	0x4ae
 1816 0459 0E       		.uleb128 0xe
 1817 045a 44000000 		.4byte	.LASF18
 1818 045e 02       		.byte	0x2
 1819 045f 0A       		.byte	0xa
 1820 0460 64010000 		.4byte	0x164
ARM GAS  G:\Users\Jaxb\AppData\Local\Temp\ccBcpwCd.s 			page 40


 1821 0464 02       		.byte	0x2
 1822 0465 91       		.byte	0x91
 1823 0466 6C       		.sleb128 -20
 1824 0467 0E       		.uleb128 0xe
 1825 0468 8B020000 		.4byte	.LASF20
 1826 046c 02       		.byte	0x2
 1827 046d 0B       		.byte	0xb
 1828 046e 7A000000 		.4byte	0x7a
 1829 0472 02       		.byte	0x2
 1830 0473 91       		.byte	0x91
 1831 0474 68       		.sleb128 -24
 1832 0475 0E       		.uleb128 0xe
 1833 0476 71000000 		.4byte	.LASF32
 1834 047a 02       		.byte	0x2
 1835 047b 0C       		.byte	0xc
 1836 047c 7A000000 		.4byte	0x7a
 1837 0480 02       		.byte	0x2
 1838 0481 91       		.byte	0x91
 1839 0482 64       		.sleb128 -28
 1840 0483 10       		.uleb128 0x10
 1841 0484 636D7000 		.ascii	"cmp\000"
 1842 0488 02       		.byte	0x2
 1843 0489 0D       		.byte	0xd
 1844 048a EA000000 		.4byte	0xea
 1845 048e 02       		.byte	0x2
 1846 048f 91       		.byte	0x91
 1847 0490 60       		.sleb128 -32
 1848 0491 0E       		.uleb128 0xe
 1849 0492 05000000 		.4byte	.LASF8
 1850 0496 02       		.byte	0x2
 1851 0497 0E       		.byte	0xe
 1852 0498 01010000 		.4byte	0x101
 1853 049c 02       		.byte	0x2
 1854 049d 91       		.byte	0x91
 1855 049e 00       		.sleb128 0
 1856 049f 11       		.uleb128 0x11
 1857 04a0 72657400 		.ascii	"ret\000"
 1858 04a4 02       		.byte	0x2
 1859 04a5 10       		.byte	0x10
 1860 04a6 DD000000 		.4byte	0xdd
 1861 04aa 02       		.byte	0x2
 1862 04ab 91       		.byte	0x91
 1863 04ac 74       		.sleb128 -12
 1864 04ad 00       		.byte	0
 1865 04ae 14       		.uleb128 0x14
 1866 04af 78020000 		.4byte	.LASF34
 1867 04b3 01       		.byte	0x1
 1868 04b4 35       		.byte	0x35
 1869 04b5 01       		.byte	0x1
 1870 04b6 7A000000 		.4byte	0x7a
 1871 04ba 00000000 		.4byte	.LFB1
 1872 04be 16000000 		.4byte	.LFE1
 1873 04c2 20030000 		.4byte	.LLST0
 1874 04c6 01       		.byte	0x1
 1875 04c7 0E       		.uleb128 0xe
 1876 04c8 2C010000 		.4byte	.LASF35
 1877 04cc 01       		.byte	0x1
ARM GAS  G:\Users\Jaxb\AppData\Local\Temp\ccBcpwCd.s 			page 41


 1878 04cd 35       		.byte	0x35
 1879 04ce E4000000 		.4byte	0xe4
 1880 04d2 02       		.byte	0x2
 1881 04d3 91       		.byte	0x91
 1882 04d4 74       		.sleb128 -12
 1883 04d5 00       		.byte	0
 1884 04d6 00       		.byte	0
 1885              		.section	.debug_abbrev,"",%progbits
 1886              	.Ldebug_abbrev0:
 1887 0000 01       		.uleb128 0x1
 1888 0001 11       		.uleb128 0x11
 1889 0002 01       		.byte	0x1
 1890 0003 25       		.uleb128 0x25
 1891 0004 0E       		.uleb128 0xe
 1892 0005 13       		.uleb128 0x13
 1893 0006 0B       		.uleb128 0xb
 1894 0007 03       		.uleb128 0x3
 1895 0008 0E       		.uleb128 0xe
 1896 0009 1B       		.uleb128 0x1b
 1897 000a 0E       		.uleb128 0xe
 1898 000b 11       		.uleb128 0x11
 1899 000c 01       		.uleb128 0x1
 1900 000d 12       		.uleb128 0x12
 1901 000e 01       		.uleb128 0x1
 1902 000f 10       		.uleb128 0x10
 1903 0010 06       		.uleb128 0x6
 1904 0011 00       		.byte	0
 1905 0012 00       		.byte	0
 1906 0013 02       		.uleb128 0x2
 1907 0014 13       		.uleb128 0x13
 1908 0015 01       		.byte	0x1
 1909 0016 03       		.uleb128 0x3
 1910 0017 0E       		.uleb128 0xe
 1911 0018 0B       		.uleb128 0xb
 1912 0019 0B       		.uleb128 0xb
 1913 001a 3A       		.uleb128 0x3a
 1914 001b 0B       		.uleb128 0xb
 1915 001c 3B       		.uleb128 0x3b
 1916 001d 0B       		.uleb128 0xb
 1917 001e 01       		.uleb128 0x1
 1918 001f 13       		.uleb128 0x13
 1919 0020 00       		.byte	0
 1920 0021 00       		.byte	0
 1921 0022 03       		.uleb128 0x3
 1922 0023 0D       		.uleb128 0xd
 1923 0024 00       		.byte	0
 1924 0025 03       		.uleb128 0x3
 1925 0026 0E       		.uleb128 0xe
 1926 0027 3A       		.uleb128 0x3a
 1927 0028 0B       		.uleb128 0xb
 1928 0029 3B       		.uleb128 0x3b
 1929 002a 0B       		.uleb128 0xb
 1930 002b 49       		.uleb128 0x49
 1931 002c 13       		.uleb128 0x13
 1932 002d 38       		.uleb128 0x38
 1933 002e 0A       		.uleb128 0xa
 1934 002f 00       		.byte	0
ARM GAS  G:\Users\Jaxb\AppData\Local\Temp\ccBcpwCd.s 			page 42


 1935 0030 00       		.byte	0
 1936 0031 04       		.uleb128 0x4
 1937 0032 0F       		.uleb128 0xf
 1938 0033 00       		.byte	0
 1939 0034 0B       		.uleb128 0xb
 1940 0035 0B       		.uleb128 0xb
 1941 0036 00       		.byte	0
 1942 0037 00       		.byte	0
 1943 0038 05       		.uleb128 0x5
 1944 0039 24       		.uleb128 0x24
 1945 003a 00       		.byte	0
 1946 003b 0B       		.uleb128 0xb
 1947 003c 0B       		.uleb128 0xb
 1948 003d 3E       		.uleb128 0x3e
 1949 003e 0B       		.uleb128 0xb
 1950 003f 03       		.uleb128 0x3
 1951 0040 0E       		.uleb128 0xe
 1952 0041 00       		.byte	0
 1953 0042 00       		.byte	0
 1954 0043 06       		.uleb128 0x6
 1955 0044 16       		.uleb128 0x16
 1956 0045 00       		.byte	0
 1957 0046 03       		.uleb128 0x3
 1958 0047 0E       		.uleb128 0xe
 1959 0048 3A       		.uleb128 0x3a
 1960 0049 0B       		.uleb128 0xb
 1961 004a 3B       		.uleb128 0x3b
 1962 004b 0B       		.uleb128 0xb
 1963 004c 49       		.uleb128 0x49
 1964 004d 13       		.uleb128 0x13
 1965 004e 00       		.byte	0
 1966 004f 00       		.byte	0
 1967 0050 07       		.uleb128 0x7
 1968 0051 0D       		.uleb128 0xd
 1969 0052 00       		.byte	0
 1970 0053 03       		.uleb128 0x3
 1971 0054 08       		.uleb128 0x8
 1972 0055 3A       		.uleb128 0x3a
 1973 0056 0B       		.uleb128 0xb
 1974 0057 3B       		.uleb128 0x3b
 1975 0058 0B       		.uleb128 0xb
 1976 0059 49       		.uleb128 0x49
 1977 005a 13       		.uleb128 0x13
 1978 005b 38       		.uleb128 0x38
 1979 005c 0A       		.uleb128 0xa
 1980 005d 00       		.byte	0
 1981 005e 00       		.byte	0
 1982 005f 08       		.uleb128 0x8
 1983 0060 15       		.uleb128 0x15
 1984 0061 01       		.byte	0x1
 1985 0062 27       		.uleb128 0x27
 1986 0063 0C       		.uleb128 0xc
 1987 0064 49       		.uleb128 0x49
 1988 0065 13       		.uleb128 0x13
 1989 0066 01       		.uleb128 0x1
 1990 0067 13       		.uleb128 0x13
 1991 0068 00       		.byte	0
ARM GAS  G:\Users\Jaxb\AppData\Local\Temp\ccBcpwCd.s 			page 43


 1992 0069 00       		.byte	0
 1993 006a 09       		.uleb128 0x9
 1994 006b 05       		.uleb128 0x5
 1995 006c 00       		.byte	0
 1996 006d 49       		.uleb128 0x49
 1997 006e 13       		.uleb128 0x13
 1998 006f 00       		.byte	0
 1999 0070 00       		.byte	0
 2000 0071 0A       		.uleb128 0xa
 2001 0072 24       		.uleb128 0x24
 2002 0073 00       		.byte	0
 2003 0074 0B       		.uleb128 0xb
 2004 0075 0B       		.uleb128 0xb
 2005 0076 3E       		.uleb128 0x3e
 2006 0077 0B       		.uleb128 0xb
 2007 0078 03       		.uleb128 0x3
 2008 0079 08       		.uleb128 0x8
 2009 007a 00       		.byte	0
 2010 007b 00       		.byte	0
 2011 007c 0B       		.uleb128 0xb
 2012 007d 0F       		.uleb128 0xf
 2013 007e 00       		.byte	0
 2014 007f 0B       		.uleb128 0xb
 2015 0080 0B       		.uleb128 0xb
 2016 0081 49       		.uleb128 0x49
 2017 0082 13       		.uleb128 0x13
 2018 0083 00       		.byte	0
 2019 0084 00       		.byte	0
 2020 0085 0C       		.uleb128 0xc
 2021 0086 15       		.uleb128 0x15
 2022 0087 01       		.byte	0x1
 2023 0088 27       		.uleb128 0x27
 2024 0089 0C       		.uleb128 0xc
 2025 008a 01       		.uleb128 0x1
 2026 008b 13       		.uleb128 0x13
 2027 008c 00       		.byte	0
 2028 008d 00       		.byte	0
 2029 008e 0D       		.uleb128 0xd
 2030 008f 2E       		.uleb128 0x2e
 2031 0090 01       		.byte	0x1
 2032 0091 3F       		.uleb128 0x3f
 2033 0092 0C       		.uleb128 0xc
 2034 0093 03       		.uleb128 0x3
 2035 0094 0E       		.uleb128 0xe
 2036 0095 3A       		.uleb128 0x3a
 2037 0096 0B       		.uleb128 0xb
 2038 0097 3B       		.uleb128 0x3b
 2039 0098 0B       		.uleb128 0xb
 2040 0099 27       		.uleb128 0x27
 2041 009a 0C       		.uleb128 0xc
 2042 009b 49       		.uleb128 0x49
 2043 009c 13       		.uleb128 0x13
 2044 009d 11       		.uleb128 0x11
 2045 009e 01       		.uleb128 0x1
 2046 009f 12       		.uleb128 0x12
 2047 00a0 01       		.uleb128 0x1
 2048 00a1 40       		.uleb128 0x40
ARM GAS  G:\Users\Jaxb\AppData\Local\Temp\ccBcpwCd.s 			page 44


 2049 00a2 06       		.uleb128 0x6
 2050 00a3 9642     		.uleb128 0x2116
 2051 00a5 0C       		.uleb128 0xc
 2052 00a6 01       		.uleb128 0x1
 2053 00a7 13       		.uleb128 0x13
 2054 00a8 00       		.byte	0
 2055 00a9 00       		.byte	0
 2056 00aa 0E       		.uleb128 0xe
 2057 00ab 05       		.uleb128 0x5
 2058 00ac 00       		.byte	0
 2059 00ad 03       		.uleb128 0x3
 2060 00ae 0E       		.uleb128 0xe
 2061 00af 3A       		.uleb128 0x3a
 2062 00b0 0B       		.uleb128 0xb
 2063 00b1 3B       		.uleb128 0x3b
 2064 00b2 0B       		.uleb128 0xb
 2065 00b3 49       		.uleb128 0x49
 2066 00b4 13       		.uleb128 0x13
 2067 00b5 02       		.uleb128 0x2
 2068 00b6 0A       		.uleb128 0xa
 2069 00b7 00       		.byte	0
 2070 00b8 00       		.byte	0
 2071 00b9 0F       		.uleb128 0xf
 2072 00ba 26       		.uleb128 0x26
 2073 00bb 00       		.byte	0
 2074 00bc 49       		.uleb128 0x49
 2075 00bd 13       		.uleb128 0x13
 2076 00be 00       		.byte	0
 2077 00bf 00       		.byte	0
 2078 00c0 10       		.uleb128 0x10
 2079 00c1 05       		.uleb128 0x5
 2080 00c2 00       		.byte	0
 2081 00c3 03       		.uleb128 0x3
 2082 00c4 08       		.uleb128 0x8
 2083 00c5 3A       		.uleb128 0x3a
 2084 00c6 0B       		.uleb128 0xb
 2085 00c7 3B       		.uleb128 0x3b
 2086 00c8 0B       		.uleb128 0xb
 2087 00c9 49       		.uleb128 0x49
 2088 00ca 13       		.uleb128 0x13
 2089 00cb 02       		.uleb128 0x2
 2090 00cc 0A       		.uleb128 0xa
 2091 00cd 00       		.byte	0
 2092 00ce 00       		.byte	0
 2093 00cf 11       		.uleb128 0x11
 2094 00d0 34       		.uleb128 0x34
 2095 00d1 00       		.byte	0
 2096 00d2 03       		.uleb128 0x3
 2097 00d3 08       		.uleb128 0x8
 2098 00d4 3A       		.uleb128 0x3a
 2099 00d5 0B       		.uleb128 0xb
 2100 00d6 3B       		.uleb128 0x3b
 2101 00d7 0B       		.uleb128 0xb
 2102 00d8 49       		.uleb128 0x49
 2103 00d9 13       		.uleb128 0x13
 2104 00da 02       		.uleb128 0x2
 2105 00db 0A       		.uleb128 0xa
ARM GAS  G:\Users\Jaxb\AppData\Local\Temp\ccBcpwCd.s 			page 45


 2106 00dc 00       		.byte	0
 2107 00dd 00       		.byte	0
 2108 00de 12       		.uleb128 0x12
 2109 00df 34       		.uleb128 0x34
 2110 00e0 00       		.byte	0
 2111 00e1 03       		.uleb128 0x3
 2112 00e2 0E       		.uleb128 0xe
 2113 00e3 3A       		.uleb128 0x3a
 2114 00e4 0B       		.uleb128 0xb
 2115 00e5 3B       		.uleb128 0x3b
 2116 00e6 0B       		.uleb128 0xb
 2117 00e7 49       		.uleb128 0x49
 2118 00e8 13       		.uleb128 0x13
 2119 00e9 02       		.uleb128 0x2
 2120 00ea 0A       		.uleb128 0xa
 2121 00eb 00       		.byte	0
 2122 00ec 00       		.byte	0
 2123 00ed 13       		.uleb128 0x13
 2124 00ee 2E       		.uleb128 0x2e
 2125 00ef 01       		.byte	0x1
 2126 00f0 03       		.uleb128 0x3
 2127 00f1 0E       		.uleb128 0xe
 2128 00f2 3A       		.uleb128 0x3a
 2129 00f3 0B       		.uleb128 0xb
 2130 00f4 3B       		.uleb128 0x3b
 2131 00f5 0B       		.uleb128 0xb
 2132 00f6 27       		.uleb128 0x27
 2133 00f7 0C       		.uleb128 0xc
 2134 00f8 11       		.uleb128 0x11
 2135 00f9 01       		.uleb128 0x1
 2136 00fa 12       		.uleb128 0x12
 2137 00fb 01       		.uleb128 0x1
 2138 00fc 40       		.uleb128 0x40
 2139 00fd 06       		.uleb128 0x6
 2140 00fe 9642     		.uleb128 0x2116
 2141 0100 0C       		.uleb128 0xc
 2142 0101 01       		.uleb128 0x1
 2143 0102 13       		.uleb128 0x13
 2144 0103 00       		.byte	0
 2145 0104 00       		.byte	0
 2146 0105 14       		.uleb128 0x14
 2147 0106 2E       		.uleb128 0x2e
 2148 0107 01       		.byte	0x1
 2149 0108 03       		.uleb128 0x3
 2150 0109 0E       		.uleb128 0xe
 2151 010a 3A       		.uleb128 0x3a
 2152 010b 0B       		.uleb128 0xb
 2153 010c 3B       		.uleb128 0x3b
 2154 010d 0B       		.uleb128 0xb
 2155 010e 27       		.uleb128 0x27
 2156 010f 0C       		.uleb128 0xc
 2157 0110 49       		.uleb128 0x49
 2158 0111 13       		.uleb128 0x13
 2159 0112 11       		.uleb128 0x11
 2160 0113 01       		.uleb128 0x1
 2161 0114 12       		.uleb128 0x12
 2162 0115 01       		.uleb128 0x1
ARM GAS  G:\Users\Jaxb\AppData\Local\Temp\ccBcpwCd.s 			page 46


 2163 0116 40       		.uleb128 0x40
 2164 0117 06       		.uleb128 0x6
 2165 0118 9742     		.uleb128 0x2117
 2166 011a 0C       		.uleb128 0xc
 2167 011b 00       		.byte	0
 2168 011c 00       		.byte	0
 2169 011d 00       		.byte	0
 2170              		.section	.debug_loc,"",%progbits
 2171              	.Ldebug_loc0:
 2172              	.LLST10:
 2173 0000 24050000 		.4byte	.LFB11-.Ltext0
 2174 0004 26050000 		.4byte	.LCFI51-.Ltext0
 2175 0008 0200     		.2byte	0x2
 2176 000a 7D       		.byte	0x7d
 2177 000b 00       		.sleb128 0
 2178 000c 26050000 		.4byte	.LCFI51-.Ltext0
 2179 0010 28050000 		.4byte	.LCFI52-.Ltext0
 2180 0014 0200     		.2byte	0x2
 2181 0016 7D       		.byte	0x7d
 2182 0017 08       		.sleb128 8
 2183 0018 28050000 		.4byte	.LCFI52-.Ltext0
 2184 001c 2A050000 		.4byte	.LCFI53-.Ltext0
 2185 0020 0200     		.2byte	0x2
 2186 0022 7D       		.byte	0x7d
 2187 0023 10       		.sleb128 16
 2188 0024 2A050000 		.4byte	.LCFI53-.Ltext0
 2189 0028 3A050000 		.4byte	.LCFI54-.Ltext0
 2190 002c 0200     		.2byte	0x2
 2191 002e 77       		.byte	0x77
 2192 002f 10       		.sleb128 16
 2193 0030 3A050000 		.4byte	.LCFI54-.Ltext0
 2194 0034 3C050000 		.4byte	.LCFI55-.Ltext0
 2195 0038 0200     		.2byte	0x2
 2196 003a 77       		.byte	0x77
 2197 003b 08       		.sleb128 8
 2198 003c 3C050000 		.4byte	.LCFI55-.Ltext0
 2199 0040 3E050000 		.4byte	.LFE11-.Ltext0
 2200 0044 0200     		.2byte	0x2
 2201 0046 7D       		.byte	0x7d
 2202 0047 08       		.sleb128 8
 2203 0048 00000000 		.4byte	0
 2204 004c 00000000 		.4byte	0
 2205              	.LLST9:
 2206 0050 9C040000 		.4byte	.LFB10-.Ltext0
 2207 0054 9E040000 		.4byte	.LCFI46-.Ltext0
 2208 0058 0200     		.2byte	0x2
 2209 005a 7D       		.byte	0x7d
 2210 005b 00       		.sleb128 0
 2211 005c 9E040000 		.4byte	.LCFI46-.Ltext0
 2212 0060 A0040000 		.4byte	.LCFI47-.Ltext0
 2213 0064 0200     		.2byte	0x2
 2214 0066 7D       		.byte	0x7d
 2215 0067 08       		.sleb128 8
 2216 0068 A0040000 		.4byte	.LCFI47-.Ltext0
 2217 006c A2040000 		.4byte	.LCFI48-.Ltext0
 2218 0070 0200     		.2byte	0x2
 2219 0072 7D       		.byte	0x7d
ARM GAS  G:\Users\Jaxb\AppData\Local\Temp\ccBcpwCd.s 			page 47


 2220 0073 28       		.sleb128 40
 2221 0074 A2040000 		.4byte	.LCFI48-.Ltext0
 2222 0078 16050000 		.4byte	.LCFI49-.Ltext0
 2223 007c 0200     		.2byte	0x2
 2224 007e 77       		.byte	0x77
 2225 007f 28       		.sleb128 40
 2226 0080 16050000 		.4byte	.LCFI49-.Ltext0
 2227 0084 18050000 		.4byte	.LCFI50-.Ltext0
 2228 0088 0200     		.2byte	0x2
 2229 008a 77       		.byte	0x77
 2230 008b 08       		.sleb128 8
 2231 008c 18050000 		.4byte	.LCFI50-.Ltext0
 2232 0090 24050000 		.4byte	.LFE10-.Ltext0
 2233 0094 0200     		.2byte	0x2
 2234 0096 7D       		.byte	0x7d
 2235 0097 08       		.sleb128 8
 2236 0098 00000000 		.4byte	0
 2237 009c 00000000 		.4byte	0
 2238              	.LLST8:
 2239 00a0 00040000 		.4byte	.LFB9-.Ltext0
 2240 00a4 02040000 		.4byte	.LCFI41-.Ltext0
 2241 00a8 0200     		.2byte	0x2
 2242 00aa 7D       		.byte	0x7d
 2243 00ab 00       		.sleb128 0
 2244 00ac 02040000 		.4byte	.LCFI41-.Ltext0
 2245 00b0 04040000 		.4byte	.LCFI42-.Ltext0
 2246 00b4 0200     		.2byte	0x2
 2247 00b6 7D       		.byte	0x7d
 2248 00b7 08       		.sleb128 8
 2249 00b8 04040000 		.4byte	.LCFI42-.Ltext0
 2250 00bc 06040000 		.4byte	.LCFI43-.Ltext0
 2251 00c0 0200     		.2byte	0x2
 2252 00c2 7D       		.byte	0x7d
 2253 00c3 28       		.sleb128 40
 2254 00c4 06040000 		.4byte	.LCFI43-.Ltext0
 2255 00c8 8C040000 		.4byte	.LCFI44-.Ltext0
 2256 00cc 0200     		.2byte	0x2
 2257 00ce 77       		.byte	0x77
 2258 00cf 28       		.sleb128 40
 2259 00d0 8C040000 		.4byte	.LCFI44-.Ltext0
 2260 00d4 8E040000 		.4byte	.LCFI45-.Ltext0
 2261 00d8 0200     		.2byte	0x2
 2262 00da 77       		.byte	0x77
 2263 00db 08       		.sleb128 8
 2264 00dc 8E040000 		.4byte	.LCFI45-.Ltext0
 2265 00e0 9C040000 		.4byte	.LFE9-.Ltext0
 2266 00e4 0200     		.2byte	0x2
 2267 00e6 7D       		.byte	0x7d
 2268 00e7 08       		.sleb128 8
 2269 00e8 00000000 		.4byte	0
 2270 00ec 00000000 		.4byte	0
 2271              	.LLST7:
 2272 00f0 5C030000 		.4byte	.LFB8-.Ltext0
 2273 00f4 5E030000 		.4byte	.LCFI36-.Ltext0
 2274 00f8 0200     		.2byte	0x2
 2275 00fa 7D       		.byte	0x7d
 2276 00fb 00       		.sleb128 0
ARM GAS  G:\Users\Jaxb\AppData\Local\Temp\ccBcpwCd.s 			page 48


 2277 00fc 5E030000 		.4byte	.LCFI36-.Ltext0
 2278 0100 60030000 		.4byte	.LCFI37-.Ltext0
 2279 0104 0200     		.2byte	0x2
 2280 0106 7D       		.byte	0x7d
 2281 0107 08       		.sleb128 8
 2282 0108 60030000 		.4byte	.LCFI37-.Ltext0
 2283 010c 62030000 		.4byte	.LCFI38-.Ltext0
 2284 0110 0200     		.2byte	0x2
 2285 0112 7D       		.byte	0x7d
 2286 0113 28       		.sleb128 40
 2287 0114 62030000 		.4byte	.LCFI38-.Ltext0
 2288 0118 EE030000 		.4byte	.LCFI39-.Ltext0
 2289 011c 0200     		.2byte	0x2
 2290 011e 77       		.byte	0x77
 2291 011f 28       		.sleb128 40
 2292 0120 EE030000 		.4byte	.LCFI39-.Ltext0
 2293 0124 F0030000 		.4byte	.LCFI40-.Ltext0
 2294 0128 0200     		.2byte	0x2
 2295 012a 77       		.byte	0x77
 2296 012b 08       		.sleb128 8
 2297 012c F0030000 		.4byte	.LCFI40-.Ltext0
 2298 0130 00040000 		.4byte	.LFE8-.Ltext0
 2299 0134 0200     		.2byte	0x2
 2300 0136 7D       		.byte	0x7d
 2301 0137 08       		.sleb128 8
 2302 0138 00000000 		.4byte	0
 2303 013c 00000000 		.4byte	0
 2304              	.LLST6:
 2305 0140 E4020000 		.4byte	.LFB7-.Ltext0
 2306 0144 E6020000 		.4byte	.LCFI31-.Ltext0
 2307 0148 0200     		.2byte	0x2
 2308 014a 7D       		.byte	0x7d
 2309 014b 00       		.sleb128 0
 2310 014c E6020000 		.4byte	.LCFI31-.Ltext0
 2311 0150 E8020000 		.4byte	.LCFI32-.Ltext0
 2312 0154 0200     		.2byte	0x2
 2313 0156 7D       		.byte	0x7d
 2314 0157 08       		.sleb128 8
 2315 0158 E8020000 		.4byte	.LCFI32-.Ltext0
 2316 015c EA020000 		.4byte	.LCFI33-.Ltext0
 2317 0160 0200     		.2byte	0x2
 2318 0162 7D       		.byte	0x7d
 2319 0163 18       		.sleb128 24
 2320 0164 EA020000 		.4byte	.LCFI33-.Ltext0
 2321 0168 4A030000 		.4byte	.LCFI34-.Ltext0
 2322 016c 0200     		.2byte	0x2
 2323 016e 77       		.byte	0x77
 2324 016f 18       		.sleb128 24
 2325 0170 4A030000 		.4byte	.LCFI34-.Ltext0
 2326 0174 4C030000 		.4byte	.LCFI35-.Ltext0
 2327 0178 0200     		.2byte	0x2
 2328 017a 77       		.byte	0x77
 2329 017b 08       		.sleb128 8
 2330 017c 4C030000 		.4byte	.LCFI35-.Ltext0
 2331 0180 5C030000 		.4byte	.LFE7-.Ltext0
 2332 0184 0200     		.2byte	0x2
 2333 0186 7D       		.byte	0x7d
ARM GAS  G:\Users\Jaxb\AppData\Local\Temp\ccBcpwCd.s 			page 49


 2334 0187 08       		.sleb128 8
 2335 0188 00000000 		.4byte	0
 2336 018c 00000000 		.4byte	0
 2337              	.LLST5:
 2338 0190 84020000 		.4byte	.LFB6-.Ltext0
 2339 0194 86020000 		.4byte	.LCFI26-.Ltext0
 2340 0198 0200     		.2byte	0x2
 2341 019a 7D       		.byte	0x7d
 2342 019b 00       		.sleb128 0
 2343 019c 86020000 		.4byte	.LCFI26-.Ltext0
 2344 01a0 88020000 		.4byte	.LCFI27-.Ltext0
 2345 01a4 0200     		.2byte	0x2
 2346 01a6 7D       		.byte	0x7d
 2347 01a7 08       		.sleb128 8
 2348 01a8 88020000 		.4byte	.LCFI27-.Ltext0
 2349 01ac 8A020000 		.4byte	.LCFI28-.Ltext0
 2350 01b0 0200     		.2byte	0x2
 2351 01b2 7D       		.byte	0x7d
 2352 01b3 18       		.sleb128 24
 2353 01b4 8A020000 		.4byte	.LCFI28-.Ltext0
 2354 01b8 D4020000 		.4byte	.LCFI29-.Ltext0
 2355 01bc 0200     		.2byte	0x2
 2356 01be 77       		.byte	0x77
 2357 01bf 18       		.sleb128 24
 2358 01c0 D4020000 		.4byte	.LCFI29-.Ltext0
 2359 01c4 D6020000 		.4byte	.LCFI30-.Ltext0
 2360 01c8 0200     		.2byte	0x2
 2361 01ca 77       		.byte	0x77
 2362 01cb 08       		.sleb128 8
 2363 01cc D6020000 		.4byte	.LCFI30-.Ltext0
 2364 01d0 E4020000 		.4byte	.LFE6-.Ltext0
 2365 01d4 0200     		.2byte	0x2
 2366 01d6 7D       		.byte	0x7d
 2367 01d7 08       		.sleb128 8
 2368 01d8 00000000 		.4byte	0
 2369 01dc 00000000 		.4byte	0
 2370              	.LLST4:
 2371 01e0 BC010000 		.4byte	.LFB5-.Ltext0
 2372 01e4 BE010000 		.4byte	.LCFI21-.Ltext0
 2373 01e8 0200     		.2byte	0x2
 2374 01ea 7D       		.byte	0x7d
 2375 01eb 00       		.sleb128 0
 2376 01ec BE010000 		.4byte	.LCFI21-.Ltext0
 2377 01f0 C0010000 		.4byte	.LCFI22-.Ltext0
 2378 01f4 0200     		.2byte	0x2
 2379 01f6 7D       		.byte	0x7d
 2380 01f7 10       		.sleb128 16
 2381 01f8 C0010000 		.4byte	.LCFI22-.Ltext0
 2382 01fc C2010000 		.4byte	.LCFI23-.Ltext0
 2383 0200 0200     		.2byte	0x2
 2384 0202 7D       		.byte	0x7d
 2385 0203 28       		.sleb128 40
 2386 0204 C2010000 		.4byte	.LCFI23-.Ltext0
 2387 0208 74020000 		.4byte	.LCFI24-.Ltext0
 2388 020c 0200     		.2byte	0x2
 2389 020e 77       		.byte	0x77
 2390 020f 28       		.sleb128 40
ARM GAS  G:\Users\Jaxb\AppData\Local\Temp\ccBcpwCd.s 			page 50


 2391 0210 74020000 		.4byte	.LCFI24-.Ltext0
 2392 0214 76020000 		.4byte	.LCFI25-.Ltext0
 2393 0218 0200     		.2byte	0x2
 2394 021a 77       		.byte	0x77
 2395 021b 10       		.sleb128 16
 2396 021c 76020000 		.4byte	.LCFI25-.Ltext0
 2397 0220 84020000 		.4byte	.LFE5-.Ltext0
 2398 0224 0200     		.2byte	0x2
 2399 0226 7D       		.byte	0x7d
 2400 0227 10       		.sleb128 16
 2401 0228 00000000 		.4byte	0
 2402 022c 00000000 		.4byte	0
 2403              	.LLST3:
 2404 0230 04010000 		.4byte	.LFB4-.Ltext0
 2405 0234 06010000 		.4byte	.LCFI16-.Ltext0
 2406 0238 0200     		.2byte	0x2
 2407 023a 7D       		.byte	0x7d
 2408 023b 00       		.sleb128 0
 2409 023c 06010000 		.4byte	.LCFI16-.Ltext0
 2410 0240 08010000 		.4byte	.LCFI17-.Ltext0
 2411 0244 0200     		.2byte	0x2
 2412 0246 7D       		.byte	0x7d
 2413 0247 08       		.sleb128 8
 2414 0248 08010000 		.4byte	.LCFI17-.Ltext0
 2415 024c 0A010000 		.4byte	.LCFI18-.Ltext0
 2416 0250 0200     		.2byte	0x2
 2417 0252 7D       		.byte	0x7d
 2418 0253 20       		.sleb128 32
 2419 0254 0A010000 		.4byte	.LCFI18-.Ltext0
 2420 0258 B8010000 		.4byte	.LCFI19-.Ltext0
 2421 025c 0200     		.2byte	0x2
 2422 025e 77       		.byte	0x77
 2423 025f 20       		.sleb128 32
 2424 0260 B8010000 		.4byte	.LCFI19-.Ltext0
 2425 0264 BA010000 		.4byte	.LCFI20-.Ltext0
 2426 0268 0200     		.2byte	0x2
 2427 026a 77       		.byte	0x77
 2428 026b 08       		.sleb128 8
 2429 026c BA010000 		.4byte	.LCFI20-.Ltext0
 2430 0270 BC010000 		.4byte	.LFE4-.Ltext0
 2431 0274 0200     		.2byte	0x2
 2432 0276 7D       		.byte	0x7d
 2433 0277 08       		.sleb128 8
 2434 0278 00000000 		.4byte	0
 2435 027c 00000000 		.4byte	0
 2436              	.LLST2:
 2437 0280 C0000000 		.4byte	.LFB3-.Ltext0
 2438 0284 C2000000 		.4byte	.LCFI11-.Ltext0
 2439 0288 0200     		.2byte	0x2
 2440 028a 7D       		.byte	0x7d
 2441 028b 00       		.sleb128 0
 2442 028c C2000000 		.4byte	.LCFI11-.Ltext0
 2443 0290 C4000000 		.4byte	.LCFI12-.Ltext0
 2444 0294 0200     		.2byte	0x2
 2445 0296 7D       		.byte	0x7d
 2446 0297 08       		.sleb128 8
 2447 0298 C4000000 		.4byte	.LCFI12-.Ltext0
ARM GAS  G:\Users\Jaxb\AppData\Local\Temp\ccBcpwCd.s 			page 51


 2448 029c C6000000 		.4byte	.LCFI13-.Ltext0
 2449 02a0 0200     		.2byte	0x2
 2450 02a2 7D       		.byte	0x7d
 2451 02a3 10       		.sleb128 16
 2452 02a4 C6000000 		.4byte	.LCFI13-.Ltext0
 2453 02a8 F6000000 		.4byte	.LCFI14-.Ltext0
 2454 02ac 0200     		.2byte	0x2
 2455 02ae 77       		.byte	0x77
 2456 02af 10       		.sleb128 16
 2457 02b0 F6000000 		.4byte	.LCFI14-.Ltext0
 2458 02b4 F8000000 		.4byte	.LCFI15-.Ltext0
 2459 02b8 0200     		.2byte	0x2
 2460 02ba 77       		.byte	0x77
 2461 02bb 08       		.sleb128 8
 2462 02bc F8000000 		.4byte	.LCFI15-.Ltext0
 2463 02c0 04010000 		.4byte	.LFE3-.Ltext0
 2464 02c4 0200     		.2byte	0x2
 2465 02c6 7D       		.byte	0x7d
 2466 02c7 08       		.sleb128 8
 2467 02c8 00000000 		.4byte	0
 2468 02cc 00000000 		.4byte	0
 2469              	.LLST1:
 2470 02d0 16000000 		.4byte	.LFB2-.Ltext0
 2471 02d4 18000000 		.4byte	.LCFI6-.Ltext0
 2472 02d8 0200     		.2byte	0x2
 2473 02da 7D       		.byte	0x7d
 2474 02db 00       		.sleb128 0
 2475 02dc 18000000 		.4byte	.LCFI6-.Ltext0
 2476 02e0 1A000000 		.4byte	.LCFI7-.Ltext0
 2477 02e4 0200     		.2byte	0x2
 2478 02e6 7D       		.byte	0x7d
 2479 02e7 08       		.sleb128 8
 2480 02e8 1A000000 		.4byte	.LCFI7-.Ltext0
 2481 02ec 1C000000 		.4byte	.LCFI8-.Ltext0
 2482 02f0 0200     		.2byte	0x2
 2483 02f2 7D       		.byte	0x7d
 2484 02f3 20       		.sleb128 32
 2485 02f4 1C000000 		.4byte	.LCFI8-.Ltext0
 2486 02f8 A6000000 		.4byte	.LCFI9-.Ltext0
 2487 02fc 0200     		.2byte	0x2
 2488 02fe 77       		.byte	0x77
 2489 02ff 20       		.sleb128 32
 2490 0300 A6000000 		.4byte	.LCFI9-.Ltext0
 2491 0304 A8000000 		.4byte	.LCFI10-.Ltext0
 2492 0308 0200     		.2byte	0x2
 2493 030a 77       		.byte	0x77
 2494 030b 08       		.sleb128 8
 2495 030c A8000000 		.4byte	.LCFI10-.Ltext0
 2496 0310 C0000000 		.4byte	.LFE2-.Ltext0
 2497 0314 0200     		.2byte	0x2
 2498 0316 7D       		.byte	0x7d
 2499 0317 08       		.sleb128 8
 2500 0318 00000000 		.4byte	0
 2501 031c 00000000 		.4byte	0
 2502              	.LLST0:
 2503 0320 00000000 		.4byte	.LFB1-.Ltext0
 2504 0324 02000000 		.4byte	.LCFI0-.Ltext0
ARM GAS  G:\Users\Jaxb\AppData\Local\Temp\ccBcpwCd.s 			page 52


 2505 0328 0200     		.2byte	0x2
 2506 032a 7D       		.byte	0x7d
 2507 032b 00       		.sleb128 0
 2508 032c 02000000 		.4byte	.LCFI0-.Ltext0
 2509 0330 04000000 		.4byte	.LCFI1-.Ltext0
 2510 0334 0200     		.2byte	0x2
 2511 0336 7D       		.byte	0x7d
 2512 0337 04       		.sleb128 4
 2513 0338 04000000 		.4byte	.LCFI1-.Ltext0
 2514 033c 06000000 		.4byte	.LCFI2-.Ltext0
 2515 0340 0200     		.2byte	0x2
 2516 0342 7D       		.byte	0x7d
 2517 0343 10       		.sleb128 16
 2518 0344 06000000 		.4byte	.LCFI2-.Ltext0
 2519 0348 10000000 		.4byte	.LCFI3-.Ltext0
 2520 034c 0200     		.2byte	0x2
 2521 034e 77       		.byte	0x77
 2522 034f 10       		.sleb128 16
 2523 0350 10000000 		.4byte	.LCFI3-.Ltext0
 2524 0354 12000000 		.4byte	.LCFI4-.Ltext0
 2525 0358 0200     		.2byte	0x2
 2526 035a 77       		.byte	0x77
 2527 035b 04       		.sleb128 4
 2528 035c 12000000 		.4byte	.LCFI4-.Ltext0
 2529 0360 14000000 		.4byte	.LCFI5-.Ltext0
 2530 0364 0200     		.2byte	0x2
 2531 0366 7D       		.byte	0x7d
 2532 0367 04       		.sleb128 4
 2533 0368 14000000 		.4byte	.LCFI5-.Ltext0
 2534 036c 16000000 		.4byte	.LFE1-.Ltext0
 2535 0370 0200     		.2byte	0x2
 2536 0372 7D       		.byte	0x7d
 2537 0373 00       		.sleb128 0
 2538 0374 00000000 		.4byte	0
 2539 0378 00000000 		.4byte	0
 2540              		.section	.debug_aranges,"",%progbits
 2541 0000 1C000000 		.4byte	0x1c
 2542 0004 0200     		.2byte	0x2
 2543 0006 00000000 		.4byte	.Ldebug_info0
 2544 000a 04       		.byte	0x4
 2545 000b 00       		.byte	0
 2546 000c 0000     		.2byte	0
 2547 000e 0000     		.2byte	0
 2548 0010 00000000 		.4byte	.Ltext0
 2549 0014 3E050000 		.4byte	.Letext0-.Ltext0
 2550 0018 00000000 		.4byte	0
 2551 001c 00000000 		.4byte	0
 2552              		.section	.debug_line,"",%progbits
 2553              	.Ldebug_line0:
 2554 0000 E4010000 		.section	.debug_str,"MS",%progbits,1
 2554      02007400 
 2554      00000201 
 2554      FB0E0D00 
 2554      01010101 
 2555              	.LASF19:
 2556 0000 66726F6D 		.ascii	"from\000"
 2556      00
ARM GAS  G:\Users\Jaxb\AppData\Local\Temp\ccBcpwCd.s 			page 53


 2557              	.LASF8:
 2558 0005 696E6465 		.ascii	"index_change_record\000"
 2558      785F6368 
 2558      616E6765 
 2558      5F726563 
 2558      6F726400 
 2559              	.LASF24:
 2560 0019 68656170 		.ascii	"heap_set_index_data\000"
 2560      5F736574 
 2560      5F696E64 
 2560      65785F64 
 2560      61746100 
 2561              	.LASF3:
 2562 002d 64617461 		.ascii	"data_size\000"
 2562      5F73697A 
 2562      6500
 2563              	.LASF9:
 2564 0037 756E7369 		.ascii	"unsigned int\000"
 2564      676E6564 
 2564      20696E74 
 2564      00
 2565              	.LASF18:
 2566 0044 6C697474 		.ascii	"little_heap_ptr\000"
 2566      6C655F68 
 2566      6561705F 
 2566      70747200 
 2567              	.LASF6:
 2568 0054 6C697474 		.ascii	"little_heap\000"
 2568      6C655F68 
 2568      65617000 
 2569              	.LASF30:
 2570 0060 68656170 		.ascii	"heap_delete\000"
 2570      5F64656C 
 2570      65746500 
 2571              	.LASF7:
 2572 006c 64617461 		.ascii	"data\000"
 2572      00
 2573              	.LASF32:
 2574 0071 6C656E5F 		.ascii	"len_per_data\000"
 2574      7065725F 
 2574      64617461 
 2574      00
 2575              	.LASF13:
 2576 007e 756E7369 		.ascii	"unsigned char\000"
 2576      676E6564 
 2576      20636861 
 2576      7200
 2577              	.LASF16:
 2578 008c 68656170 		.ascii	"heap_get_cur_len\000"
 2578      5F676574 
 2578      5F637572 
 2578      5F6C656E 
 2578      00
 2579              	.LASF14:
 2580 009d 73686F72 		.ascii	"short unsigned int\000"
 2580      7420756E 
 2580      7369676E 
ARM GAS  G:\Users\Jaxb\AppData\Local\Temp\ccBcpwCd.s 			page 54


 2580      65642069 
 2580      6E7400
 2581              	.LASF28:
 2582 00b0 70757368 		.ascii	"push_data_ptr\000"
 2582      5F646174 
 2582      615F7074 
 2582      7200
 2583              	.LASF2:
 2584 00be 6375725F 		.ascii	"cur_len\000"
 2584      6C656E00 
 2585              	.LASF1:
 2586 00c6 6D61785F 		.ascii	"max_len\000"
 2586      6C656E00 
 2587              	.LASF26:
 2588 00ce 68656170 		.ascii	"heap_get_index_data\000"
 2588      5F676574 
 2588      5F696E64 
 2588      65785F64 
 2588      61746100 
 2589              	.LASF0:
 2590 00e2 64617461 		.ascii	"data_ptr\000"
 2590      5F707472 
 2590      00
 2591              	.LASF15:
 2592 00eb 6C6F6E67 		.ascii	"long long unsigned int\000"
 2592      206C6F6E 
 2592      6720756E 
 2592      7369676E 
 2592      65642069 
 2593              	.LASF25:
 2594 0102 68656170 		.ascii	"heap_get_index_data_safe\000"
 2594      5F676574 
 2594      5F696E64 
 2594      65785F64 
 2594      6174615F 
 2595              	.LASF31:
 2596 011b 68656170 		.ascii	"heap_init\000"
 2596      5F696E69 
 2596      7400
 2597              	.LASF39:
 2598 0125 56656374 		.ascii	"Vector\000"
 2598      6F7200
 2599              	.LASF35:
 2600 012c 76656374 		.ascii	"vector_ptr\000"
 2600      6F725F70 
 2600      747200
 2601              	.LASF12:
 2602 0137 6C6F6E67 		.ascii	"long long int\000"
 2602      206C6F6E 
 2602      6720696E 
 2602      7400
 2603              	.LASF5:
 2604 0145 76656374 		.ascii	"vector\000"
 2604      6F7200
 2605              	.LASF22:
 2606 014c 696E6465 		.ascii	"index\000"
 2606      7800
ARM GAS  G:\Users\Jaxb\AppData\Local\Temp\ccBcpwCd.s 			page 55


 2607              	.LASF23:
 2608 0152 64617461 		.ascii	"data_store_ptr\000"
 2608      5F73746F 
 2608      72655F70 
 2608      747200
 2609              	.LASF4:
 2610 0161 65787465 		.ascii	"extension_factor\000"
 2610      6E73696F 
 2610      6E5F6661 
 2610      63746F72 
 2610      00
 2611              	.LASF11:
 2612 0172 73686F72 		.ascii	"short int\000"
 2612      7420696E 
 2612      7400
 2613              	.LASF37:
 2614 017c 2E2E2F2E 		.ascii	"../../source/src/kernel/OS_LIB/heap_oo.c\000"
 2614      2E2F736F 
 2614      75726365 
 2614      2F737263 
 2614      2F6B6572 
 2615              	.LASF29:
 2616 01a5 56656374 		.ascii	"Vector_ptr\000"
 2616      6F725F70 
 2616      747200
 2617              	.LASF33:
 2618 01b0 68656170 		.ascii	"heap_adjust\000"
 2618      5F61646A 
 2618      75737400 
 2619              	.LASF36:
 2620 01bc 474E5520 		.ascii	"GNU C11 7.3.1 20180622 (release) [ARM/embedded-7-br"
 2620      43313120 
 2620      372E332E 
 2620      31203230 
 2620      31383036 
 2621 01ef 616E6368 		.ascii	"anch revision 261907] -mcpu=cortex-m3 -mthumb -mapc"
 2621      20726576 
 2621      6973696F 
 2621      6E203236 
 2621      31393037 
 2622 0222 732D6672 		.ascii	"s-frame -mthumb-interwork -mcpu=cortex-m3 -mthumb -"
 2622      616D6520 
 2622      2D6D7468 
 2622      756D622D 
 2622      696E7465 
 2623 0255 67647761 		.ascii	"gdwarf-2 -O0\000"
 2623      72662D32 
 2623      202D4F30 
 2623      00
 2624              	.LASF27:
 2625 0262 68656170 		.ascii	"heap_push\000"
 2625      5F707573 
 2625      6800
 2626              	.LASF10:
 2627 026c 7369676E 		.ascii	"signed char\000"
 2627      65642063 
 2627      68617200 
ARM GAS  G:\Users\Jaxb\AppData\Local\Temp\ccBcpwCd.s 			page 56


 2628              	.LASF34:
 2629 0278 6765745F 		.ascii	"get_Vector_cur_len\000"
 2629      56656374 
 2629      6F725F63 
 2629      75725F6C 
 2629      656E00
 2630              	.LASF20:
 2631 028b 73697A65 		.ascii	"size\000"
 2631      00
 2632              	.LASF17:
 2633 0290 68656170 		.ascii	"heap_erase_data\000"
 2633      5F657261 
 2633      73655F64 
 2633      61746100 
 2634              	.LASF38:
 2635 02a0 463A5C6B 		.ascii	"F:\\kaka\\KAKAOS\\C\\windows\\Project\\RVMDK\243\250"
 2635      616B615C 
 2635      4B414B41 
 2635      4F535C43 
 2635      5C77696E 
 2636 02c8 757635A3 		.ascii	"uv5\243\251\000"
 2636      A900
 2637              	.LASF21:
 2638 02ce 68656170 		.ascii	"heap_remove_index_data\000"
 2638      5F72656D 
 2638      6F76655F 
 2638      696E6465 
 2638      785F6461 
 2639              		.ident	"GCC: (GNU Tools for Arm Embedded Processors 7-2018-q2-update) 7.3.1 20180622 (release) [AR
ARM GAS  G:\Users\Jaxb\AppData\Local\Temp\ccBcpwCd.s 			page 57


DEFINED SYMBOLS
                            *ABS*:00000000 heap_oo.c
G:\Users\Jaxb\AppData\Local\Temp\ccBcpwCd.s:15     .text:00000000 $t
G:\Users\Jaxb\AppData\Local\Temp\ccBcpwCd.s:21     .text:00000000 get_Vector_cur_len
G:\Users\Jaxb\AppData\Local\Temp\ccBcpwCd.s:61     .rodata:00000000 $d
G:\Users\Jaxb\AppData\Local\Temp\ccBcpwCd.s:83     .text:00000016 heap_init
G:\Users\Jaxb\AppData\Local\Temp\ccBcpwCd.s:201    .text:000000ac $d
G:\Users\Jaxb\AppData\Local\Temp\ccBcpwCd.s:215    .text:000000c0 $t
G:\Users\Jaxb\AppData\Local\Temp\ccBcpwCd.s:222    .text:000000c0 heap_delete
G:\Users\Jaxb\AppData\Local\Temp\ccBcpwCd.s:279    .text:000000fc $d
G:\Users\Jaxb\AppData\Local\Temp\ccBcpwCd.s:284    .text:00000104 $t
G:\Users\Jaxb\AppData\Local\Temp\ccBcpwCd.s:290    .text:00000104 heap_adjust
G:\Users\Jaxb\AppData\Local\Temp\ccBcpwCd.s:447    .text:000001bc heap_push
G:\Users\Jaxb\AppData\Local\Temp\ccBcpwCd.s:1199   .text:00000524 heap_get_cur_len
G:\Users\Jaxb\AppData\Local\Temp\ccBcpwCd.s:589    .text:00000278 $d
G:\Users\Jaxb\AppData\Local\Temp\ccBcpwCd.s:605    .text:00000284 $t
G:\Users\Jaxb\AppData\Local\Temp\ccBcpwCd.s:612    .text:00000284 heap_get_index_data
G:\Users\Jaxb\AppData\Local\Temp\ccBcpwCd.s:686    .text:000002d8 $d
G:\Users\Jaxb\AppData\Local\Temp\ccBcpwCd.s:702    .text:000002e4 $t
G:\Users\Jaxb\AppData\Local\Temp\ccBcpwCd.s:709    .text:000002e4 heap_get_index_data_safe
G:\Users\Jaxb\AppData\Local\Temp\ccBcpwCd.s:795    .text:00000350 $d
G:\Users\Jaxb\AppData\Local\Temp\ccBcpwCd.s:811    .text:0000035c $t
G:\Users\Jaxb\AppData\Local\Temp\ccBcpwCd.s:818    .text:0000035c heap_set_index_data
G:\Users\Jaxb\AppData\Local\Temp\ccBcpwCd.s:934    .text:000003f4 $d
G:\Users\Jaxb\AppData\Local\Temp\ccBcpwCd.s:950    .text:00000400 $t
G:\Users\Jaxb\AppData\Local\Temp\ccBcpwCd.s:957    .text:00000400 heap_remove_index_data
G:\Users\Jaxb\AppData\Local\Temp\ccBcpwCd.s:1068   .text:00000490 $d
G:\Users\Jaxb\AppData\Local\Temp\ccBcpwCd.s:1080   .text:0000049c $t
G:\Users\Jaxb\AppData\Local\Temp\ccBcpwCd.s:1087   .text:0000049c heap_erase_data
G:\Users\Jaxb\AppData\Local\Temp\ccBcpwCd.s:1187   .text:0000051c $d
G:\Users\Jaxb\AppData\Local\Temp\ccBcpwCd.s:1192   .text:00000524 $t

UNDEFINED SYMBOLS
_ASSERT
ka_printf
Vector_init
Vector_delete
Vector_set_inner
Vector_push_back
Vector_get_index_data
Vector_set_index_data
Vector_remove_index_data
Vector_erase_data
