ARM GAS  G:\Users\Jaxb\AppData\Local\Temp\cc09mc5r.s 			page 1


   1              		.cpu cortex-m3
   2              		.eabi_attribute 20, 1
   3              		.eabi_attribute 21, 1
   4              		.eabi_attribute 23, 3
   5              		.eabi_attribute 24, 1
   6              		.eabi_attribute 25, 1
   7              		.eabi_attribute 26, 1
   8              		.eabi_attribute 30, 6
   9              		.eabi_attribute 34, 1
  10              		.eabi_attribute 18, 4
  11              		.file	"insert_sort_oo.c"
  12              		.text
  13              	.Ltext0:
  14              		.cfi_sections	.debug_frame
  15              		.align	1
  16              		.syntax unified
  17              		.thumb
  18              		.thumb_func
  19              		.fpu softvfp
  20              		.type	INIT_LIST_HEAD, %function
  21              	INIT_LIST_HEAD:
  22              	.LFB0:
  23              		.file 1 "../../source/include/os_lib/double_linked_list.h"
   1:../../source/include/os_lib/double_linked_list.h **** #ifndef _DOUBLE_LINKED_LIST_H
   2:../../source/include/os_lib/double_linked_list.h **** #define _DOUBLE_LINKED_LIST_H
   3:../../source/include/os_lib/double_linked_list.h **** 
   4:../../source/include/os_lib/double_linked_list.h **** struct list_head {
   5:../../source/include/os_lib/double_linked_list.h ****     struct list_head *next, *prev;
   6:../../source/include/os_lib/double_linked_list.h **** };
   7:../../source/include/os_lib/double_linked_list.h **** 
   8:../../source/include/os_lib/double_linked_list.h **** 
   9:../../source/include/os_lib/double_linked_list.h **** #define LIST_HEAD_INIT(name) { &(name), &(name) }
  10:../../source/include/os_lib/double_linked_list.h **** 
  11:../../source/include/os_lib/double_linked_list.h **** 
  12:../../source/include/os_lib/double_linked_list.h **** #define LIST_HEAD(name) \
  13:../../source/include/os_lib/double_linked_list.h ****     struct list_head name = LIST_HEAD_INIT(name)
  14:../../source/include/os_lib/double_linked_list.h **** 
  15:../../source/include/os_lib/double_linked_list.h **** 
  16:../../source/include/os_lib/double_linked_list.h **** static inline void INIT_LIST_HEAD(struct list_head *list)
  17:../../source/include/os_lib/double_linked_list.h **** {
  24              		.loc 1 17 0
  25              		.cfi_startproc
  26              		@ args = 0, pretend = 0, frame = 8
  27              		@ frame_needed = 1, uses_anonymous_args = 0
  28              		@ link register save eliminated.
  29 0000 80B4     		push	{r7}
  30              	.LCFI0:
  31              		.cfi_def_cfa_offset 4
  32              		.cfi_offset 7, -4
  33 0002 83B0     		sub	sp, sp, #12
  34              	.LCFI1:
  35              		.cfi_def_cfa_offset 16
  36 0004 00AF     		add	r7, sp, #0
  37              	.LCFI2:
  38              		.cfi_def_cfa_register 7
  39 0006 7860     		str	r0, [r7, #4]
  18:../../source/include/os_lib/double_linked_list.h ****     list->next = list;
ARM GAS  G:\Users\Jaxb\AppData\Local\Temp\cc09mc5r.s 			page 2


  40              		.loc 1 18 0
  41 0008 7B68     		ldr	r3, [r7, #4]
  42 000a 7A68     		ldr	r2, [r7, #4]
  43 000c 1A60     		str	r2, [r3]
  19:../../source/include/os_lib/double_linked_list.h ****     list->prev = list;
  44              		.loc 1 19 0
  45 000e 7B68     		ldr	r3, [r7, #4]
  46 0010 7A68     		ldr	r2, [r7, #4]
  47 0012 5A60     		str	r2, [r3, #4]
  20:../../source/include/os_lib/double_linked_list.h **** }
  48              		.loc 1 20 0
  49 0014 00BF     		nop
  50 0016 0C37     		adds	r7, r7, #12
  51              	.LCFI3:
  52              		.cfi_def_cfa_offset 4
  53 0018 BD46     		mov	sp, r7
  54              	.LCFI4:
  55              		.cfi_def_cfa_register 13
  56              		@ sp needed
  57 001a 80BC     		pop	{r7}
  58              	.LCFI5:
  59              		.cfi_restore 7
  60              		.cfi_def_cfa_offset 0
  61 001c 7047     		bx	lr
  62              		.cfi_endproc
  63              	.LFE0:
  64              		.size	INIT_LIST_HEAD, .-INIT_LIST_HEAD
  65              		.align	1
  66              		.syntax unified
  67              		.thumb
  68              		.thumb_func
  69              		.fpu softvfp
  70              		.type	__list_add, %function
  71              	__list_add:
  72              	.LFB1:
  21:../../source/include/os_lib/double_linked_list.h **** 
  22:../../source/include/os_lib/double_linked_list.h **** 
  23:../../source/include/os_lib/double_linked_list.h **** static inline void __list_add(struct list_head *new,
  24:../../source/include/os_lib/double_linked_list.h ****                   struct list_head *prev,
  25:../../source/include/os_lib/double_linked_list.h ****                   struct list_head *next)
  26:../../source/include/os_lib/double_linked_list.h **** {
  73              		.loc 1 26 0
  74              		.cfi_startproc
  75              		@ args = 0, pretend = 0, frame = 16
  76              		@ frame_needed = 1, uses_anonymous_args = 0
  77              		@ link register save eliminated.
  78 001e 80B4     		push	{r7}
  79              	.LCFI6:
  80              		.cfi_def_cfa_offset 4
  81              		.cfi_offset 7, -4
  82 0020 85B0     		sub	sp, sp, #20
  83              	.LCFI7:
  84              		.cfi_def_cfa_offset 24
  85 0022 00AF     		add	r7, sp, #0
  86              	.LCFI8:
  87              		.cfi_def_cfa_register 7
  88 0024 F860     		str	r0, [r7, #12]
ARM GAS  G:\Users\Jaxb\AppData\Local\Temp\cc09mc5r.s 			page 3


  89 0026 B960     		str	r1, [r7, #8]
  90 0028 7A60     		str	r2, [r7, #4]
  27:../../source/include/os_lib/double_linked_list.h ****     next->prev = new;
  91              		.loc 1 27 0
  92 002a 7B68     		ldr	r3, [r7, #4]
  93 002c FA68     		ldr	r2, [r7, #12]
  94 002e 5A60     		str	r2, [r3, #4]
  28:../../source/include/os_lib/double_linked_list.h ****     new->next = next;
  95              		.loc 1 28 0
  96 0030 FB68     		ldr	r3, [r7, #12]
  97 0032 7A68     		ldr	r2, [r7, #4]
  98 0034 1A60     		str	r2, [r3]
  29:../../source/include/os_lib/double_linked_list.h ****     new->prev = prev;
  99              		.loc 1 29 0
 100 0036 FB68     		ldr	r3, [r7, #12]
 101 0038 BA68     		ldr	r2, [r7, #8]
 102 003a 5A60     		str	r2, [r3, #4]
  30:../../source/include/os_lib/double_linked_list.h ****     prev->next = new;
 103              		.loc 1 30 0
 104 003c BB68     		ldr	r3, [r7, #8]
 105 003e FA68     		ldr	r2, [r7, #12]
 106 0040 1A60     		str	r2, [r3]
  31:../../source/include/os_lib/double_linked_list.h **** }
 107              		.loc 1 31 0
 108 0042 00BF     		nop
 109 0044 1437     		adds	r7, r7, #20
 110              	.LCFI9:
 111              		.cfi_def_cfa_offset 4
 112 0046 BD46     		mov	sp, r7
 113              	.LCFI10:
 114              		.cfi_def_cfa_register 13
 115              		@ sp needed
 116 0048 80BC     		pop	{r7}
 117              	.LCFI11:
 118              		.cfi_restore 7
 119              		.cfi_def_cfa_offset 0
 120 004a 7047     		bx	lr
 121              		.cfi_endproc
 122              	.LFE1:
 123              		.size	__list_add, .-__list_add
 124              		.align	1
 125              		.syntax unified
 126              		.thumb
 127              		.thumb_func
 128              		.fpu softvfp
 129              		.type	list_add_tail, %function
 130              	list_add_tail:
 131              	.LFB3:
  32:../../source/include/os_lib/double_linked_list.h **** 
  33:../../source/include/os_lib/double_linked_list.h **** 
  34:../../source/include/os_lib/double_linked_list.h **** static inline void list_add(struct list_head *new, struct list_head *head)
  35:../../source/include/os_lib/double_linked_list.h **** {
  36:../../source/include/os_lib/double_linked_list.h ****     __list_add(new, head, head->next);
  37:../../source/include/os_lib/double_linked_list.h **** }
  38:../../source/include/os_lib/double_linked_list.h **** 
  39:../../source/include/os_lib/double_linked_list.h **** 
  40:../../source/include/os_lib/double_linked_list.h **** static inline void list_add_tail(struct list_head *new, struct list_head *head)
ARM GAS  G:\Users\Jaxb\AppData\Local\Temp\cc09mc5r.s 			page 4


  41:../../source/include/os_lib/double_linked_list.h **** {
 132              		.loc 1 41 0
 133              		.cfi_startproc
 134              		@ args = 0, pretend = 0, frame = 8
 135              		@ frame_needed = 1, uses_anonymous_args = 0
 136 004c 80B5     		push	{r7, lr}
 137              	.LCFI12:
 138              		.cfi_def_cfa_offset 8
 139              		.cfi_offset 7, -8
 140              		.cfi_offset 14, -4
 141 004e 82B0     		sub	sp, sp, #8
 142              	.LCFI13:
 143              		.cfi_def_cfa_offset 16
 144 0050 00AF     		add	r7, sp, #0
 145              	.LCFI14:
 146              		.cfi_def_cfa_register 7
 147 0052 7860     		str	r0, [r7, #4]
 148 0054 3960     		str	r1, [r7]
  42:../../source/include/os_lib/double_linked_list.h ****     __list_add(new, head->prev, head);
 149              		.loc 1 42 0
 150 0056 3B68     		ldr	r3, [r7]
 151 0058 5B68     		ldr	r3, [r3, #4]
 152 005a 3A68     		ldr	r2, [r7]
 153 005c 1946     		mov	r1, r3
 154 005e 7868     		ldr	r0, [r7, #4]
 155 0060 FFF7DDFF 		bl	__list_add
  43:../../source/include/os_lib/double_linked_list.h **** }
 156              		.loc 1 43 0
 157 0064 00BF     		nop
 158 0066 0837     		adds	r7, r7, #8
 159              	.LCFI15:
 160              		.cfi_def_cfa_offset 8
 161 0068 BD46     		mov	sp, r7
 162              	.LCFI16:
 163              		.cfi_def_cfa_register 13
 164              		@ sp needed
 165 006a 80BD     		pop	{r7, pc}
 166              		.cfi_endproc
 167              	.LFE3:
 168              		.size	list_add_tail, .-list_add_tail
 169              		.align	1
 170              		.syntax unified
 171              		.thumb
 172              		.thumb_func
 173              		.fpu softvfp
 174              		.type	__list_del, %function
 175              	__list_del:
 176              	.LFB4:
  44:../../source/include/os_lib/double_linked_list.h **** 
  45:../../source/include/os_lib/double_linked_list.h **** 
  46:../../source/include/os_lib/double_linked_list.h **** static inline void __list_del(struct list_head * prev, struct list_head * next)
  47:../../source/include/os_lib/double_linked_list.h **** {
 177              		.loc 1 47 0
 178              		.cfi_startproc
 179              		@ args = 0, pretend = 0, frame = 8
 180              		@ frame_needed = 1, uses_anonymous_args = 0
 181              		@ link register save eliminated.
ARM GAS  G:\Users\Jaxb\AppData\Local\Temp\cc09mc5r.s 			page 5


 182 006c 80B4     		push	{r7}
 183              	.LCFI17:
 184              		.cfi_def_cfa_offset 4
 185              		.cfi_offset 7, -4
 186 006e 83B0     		sub	sp, sp, #12
 187              	.LCFI18:
 188              		.cfi_def_cfa_offset 16
 189 0070 00AF     		add	r7, sp, #0
 190              	.LCFI19:
 191              		.cfi_def_cfa_register 7
 192 0072 7860     		str	r0, [r7, #4]
 193 0074 3960     		str	r1, [r7]
  48:../../source/include/os_lib/double_linked_list.h ****     next->prev = prev;
 194              		.loc 1 48 0
 195 0076 3B68     		ldr	r3, [r7]
 196 0078 7A68     		ldr	r2, [r7, #4]
 197 007a 5A60     		str	r2, [r3, #4]
  49:../../source/include/os_lib/double_linked_list.h ****     prev->next = next;
 198              		.loc 1 49 0
 199 007c 7B68     		ldr	r3, [r7, #4]
 200 007e 3A68     		ldr	r2, [r7]
 201 0080 1A60     		str	r2, [r3]
  50:../../source/include/os_lib/double_linked_list.h **** }
 202              		.loc 1 50 0
 203 0082 00BF     		nop
 204 0084 0C37     		adds	r7, r7, #12
 205              	.LCFI20:
 206              		.cfi_def_cfa_offset 4
 207 0086 BD46     		mov	sp, r7
 208              	.LCFI21:
 209              		.cfi_def_cfa_register 13
 210              		@ sp needed
 211 0088 80BC     		pop	{r7}
 212              	.LCFI22:
 213              		.cfi_restore 7
 214              		.cfi_def_cfa_offset 0
 215 008a 7047     		bx	lr
 216              		.cfi_endproc
 217              	.LFE4:
 218              		.size	__list_del, .-__list_del
 219              		.align	1
 220              		.syntax unified
 221              		.thumb
 222              		.thumb_func
 223              		.fpu softvfp
 224              		.type	list_del, %function
 225              	list_del:
 226              	.LFB5:
  51:../../source/include/os_lib/double_linked_list.h **** 
  52:../../source/include/os_lib/double_linked_list.h **** 
  53:../../source/include/os_lib/double_linked_list.h **** static inline void list_del(struct list_head *entry)
  54:../../source/include/os_lib/double_linked_list.h **** {
 227              		.loc 1 54 0
 228              		.cfi_startproc
 229              		@ args = 0, pretend = 0, frame = 8
 230              		@ frame_needed = 1, uses_anonymous_args = 0
 231 008c 80B5     		push	{r7, lr}
ARM GAS  G:\Users\Jaxb\AppData\Local\Temp\cc09mc5r.s 			page 6


 232              	.LCFI23:
 233              		.cfi_def_cfa_offset 8
 234              		.cfi_offset 7, -8
 235              		.cfi_offset 14, -4
 236 008e 82B0     		sub	sp, sp, #8
 237              	.LCFI24:
 238              		.cfi_def_cfa_offset 16
 239 0090 00AF     		add	r7, sp, #0
 240              	.LCFI25:
 241              		.cfi_def_cfa_register 7
 242 0092 7860     		str	r0, [r7, #4]
  55:../../source/include/os_lib/double_linked_list.h ****     __list_del(entry->prev, entry->next);
 243              		.loc 1 55 0
 244 0094 7B68     		ldr	r3, [r7, #4]
 245 0096 5A68     		ldr	r2, [r3, #4]
 246 0098 7B68     		ldr	r3, [r7, #4]
 247 009a 1B68     		ldr	r3, [r3]
 248 009c 1946     		mov	r1, r3
 249 009e 1046     		mov	r0, r2
 250 00a0 FFF7E4FF 		bl	__list_del
  56:../../source/include/os_lib/double_linked_list.h **** }
 251              		.loc 1 56 0
 252 00a4 00BF     		nop
 253 00a6 0837     		adds	r7, r7, #8
 254              	.LCFI26:
 255              		.cfi_def_cfa_offset 8
 256 00a8 BD46     		mov	sp, r7
 257              	.LCFI27:
 258              		.cfi_def_cfa_register 13
 259              		@ sp needed
 260 00aa 80BD     		pop	{r7, pc}
 261              		.cfi_endproc
 262              	.LFE5:
 263              		.size	list_del, .-list_del
 264              		.align	1
 265              		.syntax unified
 266              		.thumb
 267              		.thumb_func
 268              		.fpu softvfp
 269              		.type	list_empty, %function
 270              	list_empty:
 271              	.LFB9:
  57:../../source/include/os_lib/double_linked_list.h **** 
  58:../../source/include/os_lib/double_linked_list.h **** 
  59:../../source/include/os_lib/double_linked_list.h **** static inline void __list_del_entry(struct list_head *entry)
  60:../../source/include/os_lib/double_linked_list.h **** {
  61:../../source/include/os_lib/double_linked_list.h ****     __list_del(entry->prev, entry->next);
  62:../../source/include/os_lib/double_linked_list.h **** }
  63:../../source/include/os_lib/double_linked_list.h **** 
  64:../../source/include/os_lib/double_linked_list.h **** 
  65:../../source/include/os_lib/double_linked_list.h **** static inline void list_del_init(struct list_head *entry)
  66:../../source/include/os_lib/double_linked_list.h **** {
  67:../../source/include/os_lib/double_linked_list.h ****     __list_del_entry(entry);
  68:../../source/include/os_lib/double_linked_list.h ****     INIT_LIST_HEAD(entry);
  69:../../source/include/os_lib/double_linked_list.h **** }
  70:../../source/include/os_lib/double_linked_list.h **** 
  71:../../source/include/os_lib/double_linked_list.h **** 
ARM GAS  G:\Users\Jaxb\AppData\Local\Temp\cc09mc5r.s 			page 7


  72:../../source/include/os_lib/double_linked_list.h **** static inline void list_replace(struct list_head *old,
  73:../../source/include/os_lib/double_linked_list.h ****                 struct list_head *new)
  74:../../source/include/os_lib/double_linked_list.h **** {
  75:../../source/include/os_lib/double_linked_list.h ****     new->next = old->next;
  76:../../source/include/os_lib/double_linked_list.h ****     new->next->prev = new;
  77:../../source/include/os_lib/double_linked_list.h ****     new->prev = old->prev;
  78:../../source/include/os_lib/double_linked_list.h ****     new->prev->next = new;
  79:../../source/include/os_lib/double_linked_list.h **** }
  80:../../source/include/os_lib/double_linked_list.h **** 
  81:../../source/include/os_lib/double_linked_list.h **** 
  82:../../source/include/os_lib/double_linked_list.h **** static inline int list_empty(const struct list_head *head)
  83:../../source/include/os_lib/double_linked_list.h **** {
 272              		.loc 1 83 0
 273              		.cfi_startproc
 274              		@ args = 0, pretend = 0, frame = 8
 275              		@ frame_needed = 1, uses_anonymous_args = 0
 276              		@ link register save eliminated.
 277 00ac 80B4     		push	{r7}
 278              	.LCFI28:
 279              		.cfi_def_cfa_offset 4
 280              		.cfi_offset 7, -4
 281 00ae 83B0     		sub	sp, sp, #12
 282              	.LCFI29:
 283              		.cfi_def_cfa_offset 16
 284 00b0 00AF     		add	r7, sp, #0
 285              	.LCFI30:
 286              		.cfi_def_cfa_register 7
 287 00b2 7860     		str	r0, [r7, #4]
  84:../../source/include/os_lib/double_linked_list.h ****     return head->next == head;
 288              		.loc 1 84 0
 289 00b4 7B68     		ldr	r3, [r7, #4]
 290 00b6 1B68     		ldr	r3, [r3]
 291 00b8 7A68     		ldr	r2, [r7, #4]
 292 00ba 9A42     		cmp	r2, r3
 293 00bc 0CBF     		ite	eq
 294 00be 0123     		moveq	r3, #1
 295 00c0 0023     		movne	r3, #0
 296 00c2 DBB2     		uxtb	r3, r3
  85:../../source/include/os_lib/double_linked_list.h **** }
 297              		.loc 1 85 0
 298 00c4 1846     		mov	r0, r3
 299 00c6 0C37     		adds	r7, r7, #12
 300              	.LCFI31:
 301              		.cfi_def_cfa_offset 4
 302 00c8 BD46     		mov	sp, r7
 303              	.LCFI32:
 304              		.cfi_def_cfa_register 13
 305              		@ sp needed
 306 00ca 80BC     		pop	{r7}
 307              	.LCFI33:
 308              		.cfi_restore 7
 309              		.cfi_def_cfa_offset 0
 310 00cc 7047     		bx	lr
 311              		.cfi_endproc
 312              	.LFE9:
 313              		.size	list_empty, .-list_empty
 314              		.section	.rodata
ARM GAS  G:\Users\Jaxb\AppData\Local\Temp\cc09mc5r.s 			page 8


 315              		.align	2
 316              	.LC0:
 317 0000 2E2E2F2E 		.ascii	"../../source/src/kernel/OS_LIB/insert_sort_oo.c\000"
 317      2E2F736F 
 317      75726365 
 317      2F737263 
 317      2F6B6572 
 318              		.align	2
 319              	.LC1:
 320 0030 6572726F 		.ascii	"error fun name : insert_sort_insert_into\012error p"
 320      72206675 
 320      6E206E61 
 320      6D65203A 
 320      20696E73 
 321 0060 61726120 		.ascii	"ara : data_ptr\012\000"
 321      3A206461 
 321      74615F70 
 321      74720A00 
 322              		.align	2
 323              	.LC2:
 324 0070 6572726F 		.ascii	"error fun name : insert_sort_insert_into\012error p"
 324      72206675 
 324      6E206E61 
 324      6D65203A 
 324      20696E73 
 325 00a0 61726120 		.ascii	"ara : insert_sort_entity_ptr\012\000"
 325      3A20696E 
 325      73657274 
 325      5F736F72 
 325      745F656E 
 326              		.text
 327              		.align	1
 328              		.global	insert_sort_insert_into
 329              		.syntax unified
 330              		.thumb
 331              		.thumb_func
 332              		.fpu softvfp
 333              		.type	insert_sort_insert_into, %function
 334              	insert_sort_insert_into:
 335              	.LFB10:
 336              		.file 2 "../../source/src/kernel/OS_LIB/insert_sort_oo.c"
   1:../../source/src/kernel/OS_LIB/insert_sort_oo.c **** #include <insert_sort_oo.h>
   2:../../source/src/kernel/OS_LIB/insert_sort_oo.c **** #include <myassert.h>
   3:../../source/src/kernel/OS_LIB/insert_sort_oo.c **** #include <ka_configuration.h>
   4:../../source/src/kernel/OS_LIB/insert_sort_oo.c **** #include <os_error.h>
   5:../../source/src/kernel/OS_LIB/insert_sort_oo.c **** 
   6:../../source/src/kernel/OS_LIB/insert_sort_oo.c **** //public function for insert sort
   7:../../source/src/kernel/OS_LIB/insert_sort_oo.c **** int insert_sort_insert_into(struct insert_sort_data *data_ptr,struct insert_sort_entity *insert_sor
   8:../../source/src/kernel/OS_LIB/insert_sort_oo.c **** {
 337              		.loc 2 8 0
 338              		.cfi_startproc
 339              		@ args = 0, pretend = 0, frame = 24
 340              		@ frame_needed = 1, uses_anonymous_args = 0
 341 00ce 80B5     		push	{r7, lr}
 342              	.LCFI34:
 343              		.cfi_def_cfa_offset 8
 344              		.cfi_offset 7, -8
ARM GAS  G:\Users\Jaxb\AppData\Local\Temp\cc09mc5r.s 			page 9


 345              		.cfi_offset 14, -4
 346 00d0 86B0     		sub	sp, sp, #24
 347              	.LCFI35:
 348              		.cfi_def_cfa_offset 32
 349 00d2 00AF     		add	r7, sp, #0
 350              	.LCFI36:
 351              		.cfi_def_cfa_register 7
 352 00d4 7860     		str	r0, [r7, #4]
 353 00d6 3960     		str	r1, [r7]
   9:../../source/src/kernel/OS_LIB/insert_sort_oo.c **** 	ASSERT(NULL != data_ptr);
 354              		.loc 2 9 0
 355 00d8 7B68     		ldr	r3, [r7, #4]
 356 00da 002B     		cmp	r3, #0
 357 00dc 03D1     		bne	.L9
 358              		.loc 2 9 0 is_stmt 0 discriminator 1
 359 00de 0921     		movs	r1, #9
 360 00e0 2E48     		ldr	r0, .L19
 361 00e2 FFF7FEFF 		bl	_ASSERT
 362              	.L9:
  10:../../source/src/kernel/OS_LIB/insert_sort_oo.c **** 	ASSERT(NULL != insert_sort_entity_ptr);
 363              		.loc 2 10 0 is_stmt 1
 364 00e6 3B68     		ldr	r3, [r7]
 365 00e8 002B     		cmp	r3, #0
 366 00ea 03D1     		bne	.L10
 367              		.loc 2 10 0 is_stmt 0 discriminator 1
 368 00ec 0A21     		movs	r1, #10
 369 00ee 2B48     		ldr	r0, .L19
 370 00f0 FFF7FEFF 		bl	_ASSERT
 371              	.L10:
  11:../../source/src/kernel/OS_LIB/insert_sort_oo.c **** #if CONFIG_PARA_CHECK
  12:../../source/src/kernel/OS_LIB/insert_sort_oo.c **** 	if((NULL == data_ptr) || (NULL == insert_sort_entity_ptr))
 372              		.loc 2 12 0 is_stmt 1
 373 00f4 7B68     		ldr	r3, [r7, #4]
 374 00f6 002B     		cmp	r3, #0
 375 00f8 02D0     		beq	.L11
 376              		.loc 2 12 0 is_stmt 0 discriminator 1
 377 00fa 3B68     		ldr	r3, [r7]
 378 00fc 002B     		cmp	r3, #0
 379 00fe 08D1     		bne	.L12
 380              	.L11:
  13:../../source/src/kernel/OS_LIB/insert_sort_oo.c **** 	{
  14:../../source/src/kernel/OS_LIB/insert_sort_oo.c **** 		OS_ERROR_PARA_MESSAGE_DISPLAY(insert_sort_insert_into,data_ptr);
 381              		.loc 2 14 0 is_stmt 1
 382 0100 2748     		ldr	r0, .L19+4
 383 0102 FFF7FEFF 		bl	ka_printf
  15:../../source/src/kernel/OS_LIB/insert_sort_oo.c **** 		OS_ERROR_PARA_MESSAGE_DISPLAY(insert_sort_insert_into,insert_sort_entity_ptr);
 384              		.loc 2 15 0
 385 0106 2748     		ldr	r0, .L19+8
 386 0108 FFF7FEFF 		bl	ka_printf
  16:../../source/src/kernel/OS_LIB/insert_sort_oo.c **** 		return -ERROR_NULL_INPUT_PTR;
 387              		.loc 2 16 0
 388 010c 6FF0FE03 		mvn	r3, #254
 389 0110 40E0     		b	.L13
 390              	.L12:
  17:../../source/src/kernel/OS_LIB/insert_sort_oo.c **** 	}
  18:../../source/src/kernel/OS_LIB/insert_sort_oo.c **** #endif
  19:../../source/src/kernel/OS_LIB/insert_sort_oo.c **** 	struct insert_sort_data *buffer;
ARM GAS  G:\Users\Jaxb\AppData\Local\Temp\cc09mc5r.s 			page 10


  20:../../source/src/kernel/OS_LIB/insert_sort_oo.c **** 	struct list_head *pos;
  21:../../source/src/kernel/OS_LIB/insert_sort_oo.c **** 	// find a suitable position to insert it
  22:../../source/src/kernel/OS_LIB/insert_sort_oo.c **** 	list_for_each(pos,&insert_sort_entity_ptr->data_list_head)
 391              		.loc 2 22 0
 392 0112 3B68     		ldr	r3, [r7]
 393 0114 1B68     		ldr	r3, [r3]
 394 0116 7B61     		str	r3, [r7, #20]
 395 0118 24E0     		b	.L14
 396              	.L17:
 397              	.LBB2:
  23:../../source/src/kernel/OS_LIB/insert_sort_oo.c **** 	{
  24:../../source/src/kernel/OS_LIB/insert_sort_oo.c **** 		buffer = list_entry(pos,struct insert_sort_data,data_list);
 398              		.loc 2 24 0
 399 011a 7B69     		ldr	r3, [r7, #20]
 400 011c 3B61     		str	r3, [r7, #16]
 401 011e 3B69     		ldr	r3, [r7, #16]
 402 0120 103B     		subs	r3, r3, #16
 403              	.LBE2:
 404 0122 FB60     		str	r3, [r7, #12]
  25:../../source/src/kernel/OS_LIB/insert_sort_oo.c **** 		if(insert_sort_entity_ptr->compare(buffer,data_ptr) > 0) // data_ptr<=buffer
 405              		.loc 2 25 0
 406 0124 3B68     		ldr	r3, [r7]
 407 0126 DB68     		ldr	r3, [r3, #12]
 408 0128 7968     		ldr	r1, [r7, #4]
 409 012a F868     		ldr	r0, [r7, #12]
 410 012c 9847     		blx	r3
 411              	.LVL0:
 412 012e 0346     		mov	r3, r0
 413 0130 002B     		cmp	r3, #0
 414 0132 14DD     		ble	.L15
  26:../../source/src/kernel/OS_LIB/insert_sort_oo.c **** 		{
  27:../../source/src/kernel/OS_LIB/insert_sort_oo.c **** 			//insert it here
  28:../../source/src/kernel/OS_LIB/insert_sort_oo.c **** 			list_add_tail(&data_ptr->data_list,pos);
 415              		.loc 2 28 0
 416 0134 7B68     		ldr	r3, [r7, #4]
 417 0136 1033     		adds	r3, r3, #16
 418 0138 7969     		ldr	r1, [r7, #20]
 419 013a 1846     		mov	r0, r3
 420 013c FFF786FF 		bl	list_add_tail
  29:../../source/src/kernel/OS_LIB/insert_sort_oo.c **** 			++(insert_sort_entity_ptr->data_num);
 421              		.loc 2 29 0
 422 0140 3B68     		ldr	r3, [r7]
 423 0142 9B68     		ldr	r3, [r3, #8]
 424 0144 5A1C     		adds	r2, r3, #1
 425 0146 3B68     		ldr	r3, [r7]
 426 0148 9A60     		str	r2, [r3, #8]
  30:../../source/src/kernel/OS_LIB/insert_sort_oo.c **** 			ASSERT(insert_sort_entity_ptr->data_num > 0);
 427              		.loc 2 30 0
 428 014a 3B68     		ldr	r3, [r7]
 429 014c 9B68     		ldr	r3, [r3, #8]
 430 014e 002B     		cmp	r3, #0
 431 0150 03D1     		bne	.L16
 432              		.loc 2 30 0 is_stmt 0 discriminator 1
 433 0152 1E21     		movs	r1, #30
 434 0154 1148     		ldr	r0, .L19
 435 0156 FFF7FEFF 		bl	_ASSERT
 436              	.L16:
ARM GAS  G:\Users\Jaxb\AppData\Local\Temp\cc09mc5r.s 			page 11


  31:../../source/src/kernel/OS_LIB/insert_sort_oo.c **** 			return FUN_EXECUTE_SUCCESSFULLY;
 437              		.loc 2 31 0 is_stmt 1
 438 015a 0023     		movs	r3, #0
 439 015c 1AE0     		b	.L13
 440              	.L15:
  22:../../source/src/kernel/OS_LIB/insert_sort_oo.c **** 	{
 441              		.loc 2 22 0 discriminator 2
 442 015e 7B69     		ldr	r3, [r7, #20]
 443 0160 1B68     		ldr	r3, [r3]
 444 0162 7B61     		str	r3, [r7, #20]
 445              	.L14:
  22:../../source/src/kernel/OS_LIB/insert_sort_oo.c **** 	{
 446              		.loc 2 22 0 is_stmt 0 discriminator 1
 447 0164 3B68     		ldr	r3, [r7]
 448 0166 7A69     		ldr	r2, [r7, #20]
 449 0168 9A42     		cmp	r2, r3
 450 016a D6D1     		bne	.L17
  32:../../source/src/kernel/OS_LIB/insert_sort_oo.c **** 		}
  33:../../source/src/kernel/OS_LIB/insert_sort_oo.c **** 	}
  34:../../source/src/kernel/OS_LIB/insert_sort_oo.c **** 	//insert it at the end
  35:../../source/src/kernel/OS_LIB/insert_sort_oo.c **** 	list_add_tail(&data_ptr->data_list,pos);
 451              		.loc 2 35 0 is_stmt 1
 452 016c 7B68     		ldr	r3, [r7, #4]
 453 016e 1033     		adds	r3, r3, #16
 454 0170 7969     		ldr	r1, [r7, #20]
 455 0172 1846     		mov	r0, r3
 456 0174 FFF76AFF 		bl	list_add_tail
  36:../../source/src/kernel/OS_LIB/insert_sort_oo.c **** 	++(insert_sort_entity_ptr->data_num);
 457              		.loc 2 36 0
 458 0178 3B68     		ldr	r3, [r7]
 459 017a 9B68     		ldr	r3, [r3, #8]
 460 017c 5A1C     		adds	r2, r3, #1
 461 017e 3B68     		ldr	r3, [r7]
 462 0180 9A60     		str	r2, [r3, #8]
  37:../../source/src/kernel/OS_LIB/insert_sort_oo.c **** 	ASSERT(insert_sort_entity_ptr->data_num > 0);
 463              		.loc 2 37 0
 464 0182 3B68     		ldr	r3, [r7]
 465 0184 9B68     		ldr	r3, [r3, #8]
 466 0186 002B     		cmp	r3, #0
 467 0188 03D1     		bne	.L18
 468              		.loc 2 37 0 is_stmt 0 discriminator 1
 469 018a 2521     		movs	r1, #37
 470 018c 0348     		ldr	r0, .L19
 471 018e FFF7FEFF 		bl	_ASSERT
 472              	.L18:
  38:../../source/src/kernel/OS_LIB/insert_sort_oo.c **** 	return FUN_EXECUTE_SUCCESSFULLY;
 473              		.loc 2 38 0 is_stmt 1
 474 0192 0023     		movs	r3, #0
 475              	.L13:
  39:../../source/src/kernel/OS_LIB/insert_sort_oo.c **** }
 476              		.loc 2 39 0
 477 0194 1846     		mov	r0, r3
 478 0196 1837     		adds	r7, r7, #24
 479              	.LCFI37:
 480              		.cfi_def_cfa_offset 8
 481 0198 BD46     		mov	sp, r7
 482              	.LCFI38:
ARM GAS  G:\Users\Jaxb\AppData\Local\Temp\cc09mc5r.s 			page 12


 483              		.cfi_def_cfa_register 13
 484              		@ sp needed
 485 019a 80BD     		pop	{r7, pc}
 486              	.L20:
 487              		.align	2
 488              	.L19:
 489 019c 00000000 		.word	.LC0
 490 01a0 30000000 		.word	.LC1
 491 01a4 70000000 		.word	.LC2
 492              		.cfi_endproc
 493              	.LFE10:
 494              		.size	insert_sort_insert_into, .-insert_sort_insert_into
 495              		.section	.rodata
 496 00be 0000     		.align	2
 497              	.LC3:
 498 00c0 6572726F 		.ascii	"error fun name : insert_sort_find_data\012error par"
 498      72206675 
 498      6E206E61 
 498      6D65203A 
 498      20696E73 
 499 00f0 61203A20 		.ascii	"a : data_ptr\012\000"
 499      64617461 
 499      5F707472 
 499      0A00
 500 00fe 0000     		.align	2
 501              	.LC4:
 502 0100 6572726F 		.ascii	"error fun name : insert_sort_find_data\012error par"
 502      72206675 
 502      6E206E61 
 502      6D65203A 
 502      20696E73 
 503 0130 61203A20 		.ascii	"a : insert_sort_entity_ptr\012\000"
 503      696E7365 
 503      72745F73 
 503      6F72745F 
 503      656E7469 
 504              		.text
 505              		.align	1
 506              		.global	insert_sort_find_data
 507              		.syntax unified
 508              		.thumb
 509              		.thumb_func
 510              		.fpu softvfp
 511              		.type	insert_sort_find_data, %function
 512              	insert_sort_find_data:
 513              	.LFB11:
  40:../../source/src/kernel/OS_LIB/insert_sort_oo.c **** 
  41:../../source/src/kernel/OS_LIB/insert_sort_oo.c **** //if (*data_ptr) is found(no need to match id),return it's struct insert_sort_data's ptr
  42:../../source/src/kernel/OS_LIB/insert_sort_oo.c **** //else , return NULL
  43:../../source/src/kernel/OS_LIB/insert_sort_oo.c **** struct insert_sort_data * insert_sort_find_data(struct insert_sort_entity *insert_sort_entity_ptr,v
  44:../../source/src/kernel/OS_LIB/insert_sort_oo.c **** {
 514              		.loc 2 44 0
 515              		.cfi_startproc
 516              		@ args = 0, pretend = 0, frame = 24
 517              		@ frame_needed = 1, uses_anonymous_args = 0
 518 01a8 80B5     		push	{r7, lr}
 519              	.LCFI39:
ARM GAS  G:\Users\Jaxb\AppData\Local\Temp\cc09mc5r.s 			page 13


 520              		.cfi_def_cfa_offset 8
 521              		.cfi_offset 7, -8
 522              		.cfi_offset 14, -4
 523 01aa 86B0     		sub	sp, sp, #24
 524              	.LCFI40:
 525              		.cfi_def_cfa_offset 32
 526 01ac 00AF     		add	r7, sp, #0
 527              	.LCFI41:
 528              		.cfi_def_cfa_register 7
 529 01ae 7860     		str	r0, [r7, #4]
 530 01b0 3960     		str	r1, [r7]
  45:../../source/src/kernel/OS_LIB/insert_sort_oo.c **** 	ASSERT(NULL != data_ptr);
 531              		.loc 2 45 0
 532 01b2 3B68     		ldr	r3, [r7]
 533 01b4 002B     		cmp	r3, #0
 534 01b6 03D1     		bne	.L22
 535              		.loc 2 45 0 is_stmt 0 discriminator 1
 536 01b8 2D21     		movs	r1, #45
 537 01ba 1C48     		ldr	r0, .L30
 538 01bc FFF7FEFF 		bl	_ASSERT
 539              	.L22:
  46:../../source/src/kernel/OS_LIB/insert_sort_oo.c **** 	ASSERT(NULL != insert_sort_entity_ptr);
 540              		.loc 2 46 0 is_stmt 1
 541 01c0 7B68     		ldr	r3, [r7, #4]
 542 01c2 002B     		cmp	r3, #0
 543 01c4 03D1     		bne	.L23
 544              		.loc 2 46 0 is_stmt 0 discriminator 1
 545 01c6 2E21     		movs	r1, #46
 546 01c8 1848     		ldr	r0, .L30
 547 01ca FFF7FEFF 		bl	_ASSERT
 548              	.L23:
  47:../../source/src/kernel/OS_LIB/insert_sort_oo.c **** #if CONFIG_PARA_CHECK
  48:../../source/src/kernel/OS_LIB/insert_sort_oo.c **** 	if((NULL == data_ptr) || (NULL == insert_sort_entity_ptr))
 549              		.loc 2 48 0 is_stmt 1
 550 01ce 3B68     		ldr	r3, [r7]
 551 01d0 002B     		cmp	r3, #0
 552 01d2 02D0     		beq	.L24
 553              		.loc 2 48 0 is_stmt 0 discriminator 1
 554 01d4 7B68     		ldr	r3, [r7, #4]
 555 01d6 002B     		cmp	r3, #0
 556 01d8 07D1     		bne	.L25
 557              	.L24:
  49:../../source/src/kernel/OS_LIB/insert_sort_oo.c **** 	{
  50:../../source/src/kernel/OS_LIB/insert_sort_oo.c **** 		OS_ERROR_PARA_MESSAGE_DISPLAY(insert_sort_find_data,data_ptr);
 558              		.loc 2 50 0 is_stmt 1
 559 01da 1548     		ldr	r0, .L30+4
 560 01dc FFF7FEFF 		bl	ka_printf
  51:../../source/src/kernel/OS_LIB/insert_sort_oo.c **** 		OS_ERROR_PARA_MESSAGE_DISPLAY(insert_sort_find_data,insert_sort_entity_ptr);
 561              		.loc 2 51 0
 562 01e0 1448     		ldr	r0, .L30+8
 563 01e2 FFF7FEFF 		bl	ka_printf
  52:../../source/src/kernel/OS_LIB/insert_sort_oo.c **** 		return NULL;
 564              		.loc 2 52 0
 565 01e6 0023     		movs	r3, #0
 566 01e8 1CE0     		b	.L26
 567              	.L25:
  53:../../source/src/kernel/OS_LIB/insert_sort_oo.c **** 	}
ARM GAS  G:\Users\Jaxb\AppData\Local\Temp\cc09mc5r.s 			page 14


  54:../../source/src/kernel/OS_LIB/insert_sort_oo.c **** #endif
  55:../../source/src/kernel/OS_LIB/insert_sort_oo.c **** 	struct list_head *pos;
  56:../../source/src/kernel/OS_LIB/insert_sort_oo.c **** 	struct insert_sort_data *buffer;
  57:../../source/src/kernel/OS_LIB/insert_sort_oo.c **** 	//find from start to the end
  58:../../source/src/kernel/OS_LIB/insert_sort_oo.c **** 	list_for_each(pos,&insert_sort_entity_ptr->data_list_head)
 568              		.loc 2 58 0
 569 01ea 7B68     		ldr	r3, [r7, #4]
 570 01ec 1B68     		ldr	r3, [r3]
 571 01ee 7B61     		str	r3, [r7, #20]
 572 01f0 13E0     		b	.L27
 573              	.L29:
 574              	.LBB3:
  59:../../source/src/kernel/OS_LIB/insert_sort_oo.c **** 	{
  60:../../source/src/kernel/OS_LIB/insert_sort_oo.c **** 		buffer = list_entry(pos,struct insert_sort_data,data_list);
 575              		.loc 2 60 0
 576 01f2 7B69     		ldr	r3, [r7, #20]
 577 01f4 3B61     		str	r3, [r7, #16]
 578 01f6 3B69     		ldr	r3, [r7, #16]
 579 01f8 103B     		subs	r3, r3, #16
 580              	.LBE3:
 581 01fa FB60     		str	r3, [r7, #12]
  61:../../source/src/kernel/OS_LIB/insert_sort_oo.c **** 		if(0 == insert_sort_entity_ptr->value_cmp(buffer->data_ptr,data_ptr))
 582              		.loc 2 61 0
 583 01fc 7B68     		ldr	r3, [r7, #4]
 584 01fe 5B69     		ldr	r3, [r3, #20]
 585 0200 FA68     		ldr	r2, [r7, #12]
 586 0202 1268     		ldr	r2, [r2]
 587 0204 3968     		ldr	r1, [r7]
 588 0206 1046     		mov	r0, r2
 589 0208 9847     		blx	r3
 590              	.LVL1:
 591 020a 0346     		mov	r3, r0
 592 020c 002B     		cmp	r3, #0
 593 020e 01D1     		bne	.L28
  62:../../source/src/kernel/OS_LIB/insert_sort_oo.c **** 		{
  63:../../source/src/kernel/OS_LIB/insert_sort_oo.c **** 			return buffer;
 594              		.loc 2 63 0
 595 0210 FB68     		ldr	r3, [r7, #12]
 596 0212 07E0     		b	.L26
 597              	.L28:
  58:../../source/src/kernel/OS_LIB/insert_sort_oo.c **** 	{
 598              		.loc 2 58 0 discriminator 2
 599 0214 7B69     		ldr	r3, [r7, #20]
 600 0216 1B68     		ldr	r3, [r3]
 601 0218 7B61     		str	r3, [r7, #20]
 602              	.L27:
  58:../../source/src/kernel/OS_LIB/insert_sort_oo.c **** 	{
 603              		.loc 2 58 0 is_stmt 0 discriminator 1
 604 021a 7B68     		ldr	r3, [r7, #4]
 605 021c 7A69     		ldr	r2, [r7, #20]
 606 021e 9A42     		cmp	r2, r3
 607 0220 E7D1     		bne	.L29
  64:../../source/src/kernel/OS_LIB/insert_sort_oo.c **** 		}
  65:../../source/src/kernel/OS_LIB/insert_sort_oo.c **** 	}
  66:../../source/src/kernel/OS_LIB/insert_sort_oo.c **** 	return NULL;
 608              		.loc 2 66 0 is_stmt 1
 609 0222 0023     		movs	r3, #0
ARM GAS  G:\Users\Jaxb\AppData\Local\Temp\cc09mc5r.s 			page 15


 610              	.L26:
  67:../../source/src/kernel/OS_LIB/insert_sort_oo.c **** }
 611              		.loc 2 67 0
 612 0224 1846     		mov	r0, r3
 613 0226 1837     		adds	r7, r7, #24
 614              	.LCFI42:
 615              		.cfi_def_cfa_offset 8
 616 0228 BD46     		mov	sp, r7
 617              	.LCFI43:
 618              		.cfi_def_cfa_register 13
 619              		@ sp needed
 620 022a 80BD     		pop	{r7, pc}
 621              	.L31:
 622              		.align	2
 623              	.L30:
 624 022c 00000000 		.word	.LC0
 625 0230 C0000000 		.word	.LC3
 626 0234 00010000 		.word	.LC4
 627              		.cfi_endproc
 628              	.LFE11:
 629              		.size	insert_sort_find_data, .-insert_sort_find_data
 630              		.section	.rodata
 631              		.align	2
 632              	.LC5:
 633 014c 6572726F 		.ascii	"error fun name : insert_sort_find_data_with_id\012e"
 633      72206675 
 633      6E206E61 
 633      6D65203A 
 633      20696E73 
 634 017c 72726F72 		.ascii	"rror para : data_ptr\012\000"
 634      20706172 
 634      61203A20 
 634      64617461 
 634      5F707472 
 635 0192 0000     		.align	2
 636              	.LC6:
 637 0194 6572726F 		.ascii	"error fun name : insert_sort_find_data_with_id\012e"
 637      72206675 
 637      6E206E61 
 637      6D65203A 
 637      20696E73 
 638 01c4 72726F72 		.ascii	"rror para : insert_sort_entity_ptr\012\000"
 638      20706172 
 638      61203A20 
 638      696E7365 
 638      72745F73 
 639              		.text
 640              		.align	1
 641              		.global	insert_sort_find_data_with_id
 642              		.syntax unified
 643              		.thumb
 644              		.thumb_func
 645              		.fpu softvfp
 646              		.type	insert_sort_find_data_with_id, %function
 647              	insert_sort_find_data_with_id:
 648              	.LFB12:
  68:../../source/src/kernel/OS_LIB/insert_sort_oo.c **** 
ARM GAS  G:\Users\Jaxb\AppData\Local\Temp\cc09mc5r.s 			page 16


  69:../../source/src/kernel/OS_LIB/insert_sort_oo.c **** //the same function with insert_sort_find_data() but also match id
  70:../../source/src/kernel/OS_LIB/insert_sort_oo.c **** struct insert_sort_data * insert_sort_find_data_with_id(struct insert_sort_entity *insert_sort_enti
  71:../../source/src/kernel/OS_LIB/insert_sort_oo.c **** {
 649              		.loc 2 71 0
 650              		.cfi_startproc
 651              		@ args = 0, pretend = 0, frame = 32
 652              		@ frame_needed = 1, uses_anonymous_args = 0
 653 0238 90B5     		push	{r4, r7, lr}
 654              	.LCFI44:
 655              		.cfi_def_cfa_offset 12
 656              		.cfi_offset 4, -12
 657              		.cfi_offset 7, -8
 658              		.cfi_offset 14, -4
 659 023a 89B0     		sub	sp, sp, #36
 660              	.LCFI45:
 661              		.cfi_def_cfa_offset 48
 662 023c 00AF     		add	r7, sp, #0
 663              	.LCFI46:
 664              		.cfi_def_cfa_register 7
 665 023e F860     		str	r0, [r7, #12]
 666 0240 B960     		str	r1, [r7, #8]
 667 0242 C7E90023 		strd	r2, [r7]
  72:../../source/src/kernel/OS_LIB/insert_sort_oo.c **** 	ASSERT(NULL != data_ptr);
 668              		.loc 2 72 0
 669 0246 BB68     		ldr	r3, [r7, #8]
 670 0248 002B     		cmp	r3, #0
 671 024a 03D1     		bne	.L33
 672              		.loc 2 72 0 is_stmt 0 discriminator 1
 673 024c 4821     		movs	r1, #72
 674 024e 2248     		ldr	r0, .L41
 675 0250 FFF7FEFF 		bl	_ASSERT
 676              	.L33:
  73:../../source/src/kernel/OS_LIB/insert_sort_oo.c **** 	ASSERT(NULL != insert_sort_entity_ptr);
 677              		.loc 2 73 0 is_stmt 1
 678 0254 FB68     		ldr	r3, [r7, #12]
 679 0256 002B     		cmp	r3, #0
 680 0258 03D1     		bne	.L34
 681              		.loc 2 73 0 is_stmt 0 discriminator 1
 682 025a 4921     		movs	r1, #73
 683 025c 1E48     		ldr	r0, .L41
 684 025e FFF7FEFF 		bl	_ASSERT
 685              	.L34:
  74:../../source/src/kernel/OS_LIB/insert_sort_oo.c **** #if CONFIG_PARA_CHECK
  75:../../source/src/kernel/OS_LIB/insert_sort_oo.c **** 	if((NULL == data_ptr) || (NULL == insert_sort_entity_ptr))
 686              		.loc 2 75 0 is_stmt 1
 687 0262 BB68     		ldr	r3, [r7, #8]
 688 0264 002B     		cmp	r3, #0
 689 0266 02D0     		beq	.L35
 690              		.loc 2 75 0 is_stmt 0 discriminator 1
 691 0268 FB68     		ldr	r3, [r7, #12]
 692 026a 002B     		cmp	r3, #0
 693 026c 07D1     		bne	.L36
 694              	.L35:
  76:../../source/src/kernel/OS_LIB/insert_sort_oo.c **** 	{
  77:../../source/src/kernel/OS_LIB/insert_sort_oo.c **** 		OS_ERROR_PARA_MESSAGE_DISPLAY(insert_sort_find_data_with_id,data_ptr);
 695              		.loc 2 77 0 is_stmt 1
 696 026e 1B48     		ldr	r0, .L41+4
ARM GAS  G:\Users\Jaxb\AppData\Local\Temp\cc09mc5r.s 			page 17


 697 0270 FFF7FEFF 		bl	ka_printf
  78:../../source/src/kernel/OS_LIB/insert_sort_oo.c **** 		OS_ERROR_PARA_MESSAGE_DISPLAY(insert_sort_find_data_with_id,insert_sort_entity_ptr);
 698              		.loc 2 78 0
 699 0274 1A48     		ldr	r0, .L41+8
 700 0276 FFF7FEFF 		bl	ka_printf
  79:../../source/src/kernel/OS_LIB/insert_sort_oo.c **** 		return NULL;
 701              		.loc 2 79 0
 702 027a 0023     		movs	r3, #0
 703 027c 27E0     		b	.L37
 704              	.L36:
  80:../../source/src/kernel/OS_LIB/insert_sort_oo.c **** 	}
  81:../../source/src/kernel/OS_LIB/insert_sort_oo.c **** #endif
  82:../../source/src/kernel/OS_LIB/insert_sort_oo.c **** 	struct list_head *pos;
  83:../../source/src/kernel/OS_LIB/insert_sort_oo.c **** 	struct insert_sort_data *buffer;
  84:../../source/src/kernel/OS_LIB/insert_sort_oo.c **** 	list_for_each(pos,&insert_sort_entity_ptr->data_list_head)
 705              		.loc 2 84 0
 706 027e FB68     		ldr	r3, [r7, #12]
 707 0280 1B68     		ldr	r3, [r3]
 708 0282 FB61     		str	r3, [r7, #28]
 709 0284 1EE0     		b	.L38
 710              	.L40:
 711              	.LBB4:
  85:../../source/src/kernel/OS_LIB/insert_sort_oo.c **** 	{
  86:../../source/src/kernel/OS_LIB/insert_sort_oo.c **** 		buffer = list_entry(pos,struct insert_sort_data,data_list);
 712              		.loc 2 86 0
 713 0286 FB69     		ldr	r3, [r7, #28]
 714 0288 BB61     		str	r3, [r7, #24]
 715 028a BB69     		ldr	r3, [r7, #24]
 716 028c 103B     		subs	r3, r3, #16
 717              	.LBE4:
 718 028e 7B61     		str	r3, [r7, #20]
  87:../../source/src/kernel/OS_LIB/insert_sort_oo.c **** 		if((0 == insert_sort_entity_ptr->value_cmp(buffer->data_ptr,data_ptr)) && (buffer->identify_data 
 719              		.loc 2 87 0
 720 0290 FB68     		ldr	r3, [r7, #12]
 721 0292 5B69     		ldr	r3, [r3, #20]
 722 0294 7A69     		ldr	r2, [r7, #20]
 723 0296 1268     		ldr	r2, [r2]
 724 0298 B968     		ldr	r1, [r7, #8]
 725 029a 1046     		mov	r0, r2
 726 029c 9847     		blx	r3
 727              	.LVL2:
 728 029e 0346     		mov	r3, r0
 729 02a0 002B     		cmp	r3, #0
 730 02a2 0CD1     		bne	.L39
 731              		.loc 2 87 0 is_stmt 0 discriminator 1
 732 02a4 7B69     		ldr	r3, [r7, #20]
 733 02a6 03F10804 		add	r4, r3, #8
 734 02aa D4E90034 		ldrd	r3, [r4]
 735 02ae D7E90012 		ldrd	r1, [r7]
 736 02b2 A242     		cmp	r2, r4
 737 02b4 08BF     		it	eq
 738 02b6 9942     		cmpeq	r1, r3
 739 02b8 01D1     		bne	.L39
  88:../../source/src/kernel/OS_LIB/insert_sort_oo.c **** 		{
  89:../../source/src/kernel/OS_LIB/insert_sort_oo.c **** 			return buffer;
 740              		.loc 2 89 0 is_stmt 1
 741 02ba 7B69     		ldr	r3, [r7, #20]
ARM GAS  G:\Users\Jaxb\AppData\Local\Temp\cc09mc5r.s 			page 18


 742 02bc 07E0     		b	.L37
 743              	.L39:
  84:../../source/src/kernel/OS_LIB/insert_sort_oo.c **** 	{
 744              		.loc 2 84 0 discriminator 2
 745 02be FB69     		ldr	r3, [r7, #28]
 746 02c0 1B68     		ldr	r3, [r3]
 747 02c2 FB61     		str	r3, [r7, #28]
 748              	.L38:
  84:../../source/src/kernel/OS_LIB/insert_sort_oo.c **** 	{
 749              		.loc 2 84 0 is_stmt 0 discriminator 1
 750 02c4 FB68     		ldr	r3, [r7, #12]
 751 02c6 FA69     		ldr	r2, [r7, #28]
 752 02c8 9A42     		cmp	r2, r3
 753 02ca DCD1     		bne	.L40
  90:../../source/src/kernel/OS_LIB/insert_sort_oo.c **** 		}
  91:../../source/src/kernel/OS_LIB/insert_sort_oo.c **** 	}
  92:../../source/src/kernel/OS_LIB/insert_sort_oo.c **** 	return NULL;
 754              		.loc 2 92 0 is_stmt 1
 755 02cc 0023     		movs	r3, #0
 756              	.L37:
  93:../../source/src/kernel/OS_LIB/insert_sort_oo.c **** }
 757              		.loc 2 93 0
 758 02ce 1846     		mov	r0, r3
 759 02d0 2437     		adds	r7, r7, #36
 760              	.LCFI47:
 761              		.cfi_def_cfa_offset 12
 762 02d2 BD46     		mov	sp, r7
 763              	.LCFI48:
 764              		.cfi_def_cfa_register 13
 765              		@ sp needed
 766 02d4 90BD     		pop	{r4, r7, pc}
 767              	.L42:
 768 02d6 00BF     		.align	2
 769              	.L41:
 770 02d8 00000000 		.word	.LC0
 771 02dc 4C010000 		.word	.LC5
 772 02e0 94010000 		.word	.LC6
 773              		.cfi_endproc
 774              	.LFE12:
 775              		.size	insert_sort_find_data_with_id, .-insert_sort_find_data_with_id
 776              		.section	.rodata
 777              		.align	2
 778              	.LC7:
 779 01e8 6572726F 		.ascii	"error fun name : insert_sort_delete_head\012error p"
 779      72206675 
 779      6E206E61 
 779      6D65203A 
 779      20696E73 
 780 0218 61726120 		.ascii	"ara : insert_sort_entity_ptr\012\000"
 780      3A20696E 
 780      73657274 
 780      5F736F72 
 780      745F656E 
 781              		.text
 782              		.align	1
 783              		.global	insert_sort_delete_head
 784              		.syntax unified
ARM GAS  G:\Users\Jaxb\AppData\Local\Temp\cc09mc5r.s 			page 19


 785              		.thumb
 786              		.thumb_func
 787              		.fpu softvfp
 788              		.type	insert_sort_delete_head, %function
 789              	insert_sort_delete_head:
 790              	.LFB13:
  94:../../source/src/kernel/OS_LIB/insert_sort_oo.c **** 
  95:../../source/src/kernel/OS_LIB/insert_sort_oo.c **** //remove the first(smallest) data from the list and return it's struct insert_sort_data's ptr
  96:../../source/src/kernel/OS_LIB/insert_sort_oo.c **** //if there is no data in the list , then return NULL
  97:../../source/src/kernel/OS_LIB/insert_sort_oo.c **** struct insert_sort_data * insert_sort_delete_head(struct insert_sort_entity *insert_sort_entity_ptr
  98:../../source/src/kernel/OS_LIB/insert_sort_oo.c **** {
 791              		.loc 2 98 0
 792              		.cfi_startproc
 793              		@ args = 0, pretend = 0, frame = 16
 794              		@ frame_needed = 1, uses_anonymous_args = 0
 795 02e4 80B5     		push	{r7, lr}
 796              	.LCFI49:
 797              		.cfi_def_cfa_offset 8
 798              		.cfi_offset 7, -8
 799              		.cfi_offset 14, -4
 800 02e6 84B0     		sub	sp, sp, #16
 801              	.LCFI50:
 802              		.cfi_def_cfa_offset 24
 803 02e8 00AF     		add	r7, sp, #0
 804              	.LCFI51:
 805              		.cfi_def_cfa_register 7
 806 02ea 7860     		str	r0, [r7, #4]
  99:../../source/src/kernel/OS_LIB/insert_sort_oo.c **** 	ASSERT(NULL != insert_sort_entity_ptr);
 807              		.loc 2 99 0
 808 02ec 7B68     		ldr	r3, [r7, #4]
 809 02ee 002B     		cmp	r3, #0
 810 02f0 03D1     		bne	.L44
 811              		.loc 2 99 0 is_stmt 0 discriminator 1
 812 02f2 6321     		movs	r1, #99
 813 02f4 1748     		ldr	r0, .L49
 814 02f6 FFF7FEFF 		bl	_ASSERT
 815              	.L44:
 100:../../source/src/kernel/OS_LIB/insert_sort_oo.c **** #if CONFIG_PARA_CHECK
 101:../../source/src/kernel/OS_LIB/insert_sort_oo.c **** 	if(NULL == insert_sort_entity_ptr)
 816              		.loc 2 101 0 is_stmt 1
 817 02fa 7B68     		ldr	r3, [r7, #4]
 818 02fc 002B     		cmp	r3, #0
 819 02fe 04D1     		bne	.L45
 102:../../source/src/kernel/OS_LIB/insert_sort_oo.c **** 	{
 103:../../source/src/kernel/OS_LIB/insert_sort_oo.c **** 		OS_ERROR_PARA_MESSAGE_DISPLAY(insert_sort_delete_head,insert_sort_entity_ptr);
 820              		.loc 2 103 0
 821 0300 1548     		ldr	r0, .L49+4
 822 0302 FFF7FEFF 		bl	ka_printf
 104:../../source/src/kernel/OS_LIB/insert_sort_oo.c **** 		return NULL;
 823              		.loc 2 104 0
 824 0306 0023     		movs	r3, #0
 825 0308 20E0     		b	.L46
 826              	.L45:
 105:../../source/src/kernel/OS_LIB/insert_sort_oo.c **** 	}
 106:../../source/src/kernel/OS_LIB/insert_sort_oo.c **** #endif
 107:../../source/src/kernel/OS_LIB/insert_sort_oo.c **** 	if(list_empty(&insert_sort_entity_ptr->data_list_head))
 827              		.loc 2 107 0
ARM GAS  G:\Users\Jaxb\AppData\Local\Temp\cc09mc5r.s 			page 20


 828 030a 7B68     		ldr	r3, [r7, #4]
 829 030c 1846     		mov	r0, r3
 830 030e FFF7CDFE 		bl	list_empty
 831 0312 0346     		mov	r3, r0
 832 0314 002B     		cmp	r3, #0
 833 0316 01D0     		beq	.L47
 108:../../source/src/kernel/OS_LIB/insert_sort_oo.c **** 	{
 109:../../source/src/kernel/OS_LIB/insert_sort_oo.c **** 		return NULL;
 834              		.loc 2 109 0
 835 0318 0023     		movs	r3, #0
 836 031a 17E0     		b	.L46
 837              	.L47:
 110:../../source/src/kernel/OS_LIB/insert_sort_oo.c **** 	}
 111:../../source/src/kernel/OS_LIB/insert_sort_oo.c **** 	struct list_head *pos;
 112:../../source/src/kernel/OS_LIB/insert_sort_oo.c **** 	pos = insert_sort_entity_ptr->data_list_head.next;
 838              		.loc 2 112 0
 839 031c 7B68     		ldr	r3, [r7, #4]
 840 031e 1B68     		ldr	r3, [r3]
 841 0320 FB60     		str	r3, [r7, #12]
 113:../../source/src/kernel/OS_LIB/insert_sort_oo.c **** 	list_del(pos);
 842              		.loc 2 113 0
 843 0322 F868     		ldr	r0, [r7, #12]
 844 0324 FFF7B2FE 		bl	list_del
 114:../../source/src/kernel/OS_LIB/insert_sort_oo.c **** 	ASSERT(insert_sort_entity_ptr->data_num > 0);
 845              		.loc 2 114 0
 846 0328 7B68     		ldr	r3, [r7, #4]
 847 032a 9B68     		ldr	r3, [r3, #8]
 848 032c 002B     		cmp	r3, #0
 849 032e 03D1     		bne	.L48
 850              		.loc 2 114 0 is_stmt 0 discriminator 1
 851 0330 7221     		movs	r1, #114
 852 0332 0848     		ldr	r0, .L49
 853 0334 FFF7FEFF 		bl	_ASSERT
 854              	.L48:
 115:../../source/src/kernel/OS_LIB/insert_sort_oo.c **** 	--(insert_sort_entity_ptr->data_num);
 855              		.loc 2 115 0 is_stmt 1
 856 0338 7B68     		ldr	r3, [r7, #4]
 857 033a 9B68     		ldr	r3, [r3, #8]
 858 033c 5A1E     		subs	r2, r3, #1
 859 033e 7B68     		ldr	r3, [r7, #4]
 860 0340 9A60     		str	r2, [r3, #8]
 861              	.LBB5:
 116:../../source/src/kernel/OS_LIB/insert_sort_oo.c **** 	return list_entry(pos,struct insert_sort_data,data_list);
 862              		.loc 2 116 0
 863 0342 FB68     		ldr	r3, [r7, #12]
 864 0344 BB60     		str	r3, [r7, #8]
 865 0346 BB68     		ldr	r3, [r7, #8]
 866 0348 103B     		subs	r3, r3, #16
 867              	.LBE5:
 868 034a 00BF     		nop
 869              	.L46:
 117:../../source/src/kernel/OS_LIB/insert_sort_oo.c **** }
 870              		.loc 2 117 0
 871 034c 1846     		mov	r0, r3
 872 034e 1037     		adds	r7, r7, #16
 873              	.LCFI52:
 874              		.cfi_def_cfa_offset 8
ARM GAS  G:\Users\Jaxb\AppData\Local\Temp\cc09mc5r.s 			page 21


 875 0350 BD46     		mov	sp, r7
 876              	.LCFI53:
 877              		.cfi_def_cfa_register 13
 878              		@ sp needed
 879 0352 80BD     		pop	{r7, pc}
 880              	.L50:
 881              		.align	2
 882              	.L49:
 883 0354 00000000 		.word	.LC0
 884 0358 E8010000 		.word	.LC7
 885              		.cfi_endproc
 886              	.LFE13:
 887              		.size	insert_sort_delete_head, .-insert_sort_delete_head
 888              		.section	.rodata
 889 0236 0000     		.align	2
 890              	.LC8:
 891 0238 6572726F 		.ascii	"error fun name : insert_sort_delete_data\012error p"
 891      72206675 
 891      6E206E61 
 891      6D65203A 
 891      20696E73 
 892 0268 61726120 		.ascii	"ara : insert_sort_entity_ptr\012\000"
 892      3A20696E 
 892      73657274 
 892      5F736F72 
 892      745F656E 
 893              		.text
 894              		.align	1
 895              		.global	insert_sort_delete_data
 896              		.syntax unified
 897              		.thumb
 898              		.thumb_func
 899              		.fpu softvfp
 900              		.type	insert_sort_delete_data, %function
 901              	insert_sort_delete_data:
 902              	.LFB14:
 118:../../source/src/kernel/OS_LIB/insert_sort_oo.c **** 
 119:../../source/src/kernel/OS_LIB/insert_sort_oo.c **** //remove the data match value (*data_ptr) from the list and return it's struct insert_sort_data's p
 120:../../source/src/kernel/OS_LIB/insert_sort_oo.c **** //if there is no data matched , then return NULL
 121:../../source/src/kernel/OS_LIB/insert_sort_oo.c **** struct insert_sort_data * insert_sort_delete_data(struct insert_sort_entity *insert_sort_entity_ptr
 122:../../source/src/kernel/OS_LIB/insert_sort_oo.c **** {
 903              		.loc 2 122 0
 904              		.cfi_startproc
 905              		@ args = 0, pretend = 0, frame = 16
 906              		@ frame_needed = 1, uses_anonymous_args = 0
 907 035c 80B5     		push	{r7, lr}
 908              	.LCFI54:
 909              		.cfi_def_cfa_offset 8
 910              		.cfi_offset 7, -8
 911              		.cfi_offset 14, -4
 912 035e 84B0     		sub	sp, sp, #16
 913              	.LCFI55:
 914              		.cfi_def_cfa_offset 24
 915 0360 00AF     		add	r7, sp, #0
 916              	.LCFI56:
 917              		.cfi_def_cfa_register 7
 918 0362 7860     		str	r0, [r7, #4]
ARM GAS  G:\Users\Jaxb\AppData\Local\Temp\cc09mc5r.s 			page 22


 919 0364 3960     		str	r1, [r7]
 123:../../source/src/kernel/OS_LIB/insert_sort_oo.c **** 	ASSERT(NULL != insert_sort_entity_ptr);
 920              		.loc 2 123 0
 921 0366 7B68     		ldr	r3, [r7, #4]
 922 0368 002B     		cmp	r3, #0
 923 036a 03D1     		bne	.L52
 924              		.loc 2 123 0 is_stmt 0 discriminator 1
 925 036c 7B21     		movs	r1, #123
 926 036e 1648     		ldr	r0, .L57
 927 0370 FFF7FEFF 		bl	_ASSERT
 928              	.L52:
 124:../../source/src/kernel/OS_LIB/insert_sort_oo.c **** #if CONFIG_PARA_CHECK
 125:../../source/src/kernel/OS_LIB/insert_sort_oo.c **** 	if(NULL == insert_sort_entity_ptr)
 929              		.loc 2 125 0 is_stmt 1
 930 0374 7B68     		ldr	r3, [r7, #4]
 931 0376 002B     		cmp	r3, #0
 932 0378 04D1     		bne	.L53
 126:../../source/src/kernel/OS_LIB/insert_sort_oo.c **** 	{
 127:../../source/src/kernel/OS_LIB/insert_sort_oo.c **** 		OS_ERROR_PARA_MESSAGE_DISPLAY(insert_sort_delete_data,insert_sort_entity_ptr);
 933              		.loc 2 127 0
 934 037a 1448     		ldr	r0, .L57+4
 935 037c FFF7FEFF 		bl	ka_printf
 128:../../source/src/kernel/OS_LIB/insert_sort_oo.c **** 		return NULL;
 936              		.loc 2 128 0
 937 0380 0023     		movs	r3, #0
 938 0382 1CE0     		b	.L54
 939              	.L53:
 129:../../source/src/kernel/OS_LIB/insert_sort_oo.c **** 	}
 130:../../source/src/kernel/OS_LIB/insert_sort_oo.c **** #endif
 131:../../source/src/kernel/OS_LIB/insert_sort_oo.c **** 	struct insert_sort_data *buffer_ptr;
 132:../../source/src/kernel/OS_LIB/insert_sort_oo.c **** 	buffer_ptr = insert_sort_find_data(insert_sort_entity_ptr,data_ptr);
 940              		.loc 2 132 0
 941 0384 3968     		ldr	r1, [r7]
 942 0386 7868     		ldr	r0, [r7, #4]
 943 0388 FFF7FEFF 		bl	insert_sort_find_data
 944 038c F860     		str	r0, [r7, #12]
 133:../../source/src/kernel/OS_LIB/insert_sort_oo.c **** 	if(NULL == buffer_ptr)//no such data
 945              		.loc 2 133 0
 946 038e FB68     		ldr	r3, [r7, #12]
 947 0390 002B     		cmp	r3, #0
 948 0392 01D1     		bne	.L55
 134:../../source/src/kernel/OS_LIB/insert_sort_oo.c **** 	{
 135:../../source/src/kernel/OS_LIB/insert_sort_oo.c **** 		return NULL;
 949              		.loc 2 135 0
 950 0394 0023     		movs	r3, #0
 951 0396 12E0     		b	.L54
 952              	.L55:
 136:../../source/src/kernel/OS_LIB/insert_sort_oo.c **** 	}
 137:../../source/src/kernel/OS_LIB/insert_sort_oo.c **** 	else
 138:../../source/src/kernel/OS_LIB/insert_sort_oo.c **** 	{
 139:../../source/src/kernel/OS_LIB/insert_sort_oo.c **** 		list_del(&buffer_ptr->data_list);
 953              		.loc 2 139 0
 954 0398 FB68     		ldr	r3, [r7, #12]
 955 039a 1033     		adds	r3, r3, #16
 956 039c 1846     		mov	r0, r3
 957 039e FFF775FE 		bl	list_del
 140:../../source/src/kernel/OS_LIB/insert_sort_oo.c **** 		ASSERT(insert_sort_entity_ptr->data_num > 0);
ARM GAS  G:\Users\Jaxb\AppData\Local\Temp\cc09mc5r.s 			page 23


 958              		.loc 2 140 0
 959 03a2 7B68     		ldr	r3, [r7, #4]
 960 03a4 9B68     		ldr	r3, [r3, #8]
 961 03a6 002B     		cmp	r3, #0
 962 03a8 03D1     		bne	.L56
 963              		.loc 2 140 0 is_stmt 0 discriminator 1
 964 03aa 8C21     		movs	r1, #140
 965 03ac 0648     		ldr	r0, .L57
 966 03ae FFF7FEFF 		bl	_ASSERT
 967              	.L56:
 141:../../source/src/kernel/OS_LIB/insert_sort_oo.c **** 		--(insert_sort_entity_ptr->data_num);
 968              		.loc 2 141 0 is_stmt 1
 969 03b2 7B68     		ldr	r3, [r7, #4]
 970 03b4 9B68     		ldr	r3, [r3, #8]
 971 03b6 5A1E     		subs	r2, r3, #1
 972 03b8 7B68     		ldr	r3, [r7, #4]
 973 03ba 9A60     		str	r2, [r3, #8]
 142:../../source/src/kernel/OS_LIB/insert_sort_oo.c **** 		return buffer_ptr;
 974              		.loc 2 142 0
 975 03bc FB68     		ldr	r3, [r7, #12]
 976              	.L54:
 143:../../source/src/kernel/OS_LIB/insert_sort_oo.c **** 	}
 144:../../source/src/kernel/OS_LIB/insert_sort_oo.c **** }
 977              		.loc 2 144 0
 978 03be 1846     		mov	r0, r3
 979 03c0 1037     		adds	r7, r7, #16
 980              	.LCFI57:
 981              		.cfi_def_cfa_offset 8
 982 03c2 BD46     		mov	sp, r7
 983              	.LCFI58:
 984              		.cfi_def_cfa_register 13
 985              		@ sp needed
 986 03c4 80BD     		pop	{r7, pc}
 987              	.L58:
 988 03c6 00BF     		.align	2
 989              	.L57:
 990 03c8 00000000 		.word	.LC0
 991 03cc 38020000 		.word	.LC8
 992              		.cfi_endproc
 993              	.LFE14:
 994              		.size	insert_sort_delete_data, .-insert_sort_delete_data
 995              		.section	.rodata
 996 0286 0000     		.align	2
 997              	.LC9:
 998 0288 6572726F 		.ascii	"error fun name : insert_sort_delete_data_with_id\012"
 998      72206675 
 998      6E206E61 
 998      6D65203A 
 998      20696E73 
 999 02b9 6572726F 		.ascii	"error para : insert_sort_entity_ptr\012\000"
 999      72207061 
 999      7261203A 
 999      20696E73 
 999      6572745F 
 1000              		.text
 1001              		.align	1
 1002              		.global	insert_sort_delete_data_with_id
ARM GAS  G:\Users\Jaxb\AppData\Local\Temp\cc09mc5r.s 			page 24


 1003              		.syntax unified
 1004              		.thumb
 1005              		.thumb_func
 1006              		.fpu softvfp
 1007              		.type	insert_sort_delete_data_with_id, %function
 1008              	insert_sort_delete_data_with_id:
 1009              	.LFB15:
 145:../../source/src/kernel/OS_LIB/insert_sort_oo.c **** 
 146:../../source/src/kernel/OS_LIB/insert_sort_oo.c **** //the same as function insert_sort_delete_data() but also match id
 147:../../source/src/kernel/OS_LIB/insert_sort_oo.c **** struct insert_sort_data * insert_sort_delete_data_with_id(
 148:../../source/src/kernel/OS_LIB/insert_sort_oo.c **** 	struct insert_sort_entity *insert_sort_entity_ptr,
 149:../../source/src/kernel/OS_LIB/insert_sort_oo.c **** 	void *data_ptr,
 150:../../source/src/kernel/OS_LIB/insert_sort_oo.c **** 	id_type identify_data)
 151:../../source/src/kernel/OS_LIB/insert_sort_oo.c **** {
 1010              		.loc 2 151 0
 1011              		.cfi_startproc
 1012              		@ args = 0, pretend = 0, frame = 24
 1013              		@ frame_needed = 1, uses_anonymous_args = 0
 1014 03d0 80B5     		push	{r7, lr}
 1015              	.LCFI59:
 1016              		.cfi_def_cfa_offset 8
 1017              		.cfi_offset 7, -8
 1018              		.cfi_offset 14, -4
 1019 03d2 86B0     		sub	sp, sp, #24
 1020              	.LCFI60:
 1021              		.cfi_def_cfa_offset 32
 1022 03d4 00AF     		add	r7, sp, #0
 1023              	.LCFI61:
 1024              		.cfi_def_cfa_register 7
 1025 03d6 F860     		str	r0, [r7, #12]
 1026 03d8 B960     		str	r1, [r7, #8]
 1027 03da C7E90023 		strd	r2, [r7]
 152:../../source/src/kernel/OS_LIB/insert_sort_oo.c **** 	ASSERT(NULL != insert_sort_entity_ptr);
 1028              		.loc 2 152 0
 1029 03de FB68     		ldr	r3, [r7, #12]
 1030 03e0 002B     		cmp	r3, #0
 1031 03e2 03D1     		bne	.L60
 1032              		.loc 2 152 0 is_stmt 0 discriminator 1
 1033 03e4 9821     		movs	r1, #152
 1034 03e6 1748     		ldr	r0, .L65
 1035 03e8 FFF7FEFF 		bl	_ASSERT
 1036              	.L60:
 153:../../source/src/kernel/OS_LIB/insert_sort_oo.c **** #if CONFIG_PARA_CHECK
 154:../../source/src/kernel/OS_LIB/insert_sort_oo.c **** 	if(NULL == insert_sort_entity_ptr)
 1037              		.loc 2 154 0 is_stmt 1
 1038 03ec FB68     		ldr	r3, [r7, #12]
 1039 03ee 002B     		cmp	r3, #0
 1040 03f0 04D1     		bne	.L61
 155:../../source/src/kernel/OS_LIB/insert_sort_oo.c **** 	{
 156:../../source/src/kernel/OS_LIB/insert_sort_oo.c **** 		OS_ERROR_PARA_MESSAGE_DISPLAY(insert_sort_delete_data_with_id,insert_sort_entity_ptr);
 1041              		.loc 2 156 0
 1042 03f2 1548     		ldr	r0, .L65+4
 1043 03f4 FFF7FEFF 		bl	ka_printf
 157:../../source/src/kernel/OS_LIB/insert_sort_oo.c **** 		return NULL;
 1044              		.loc 2 157 0
 1045 03f8 0023     		movs	r3, #0
 1046 03fa 1EE0     		b	.L62
ARM GAS  G:\Users\Jaxb\AppData\Local\Temp\cc09mc5r.s 			page 25


 1047              	.L61:
 158:../../source/src/kernel/OS_LIB/insert_sort_oo.c **** 	}
 159:../../source/src/kernel/OS_LIB/insert_sort_oo.c **** #endif
 160:../../source/src/kernel/OS_LIB/insert_sort_oo.c **** 	struct insert_sort_data *buffer_ptr;
 161:../../source/src/kernel/OS_LIB/insert_sort_oo.c **** 	buffer_ptr = insert_sort_find_data_with_id(insert_sort_entity_ptr,data_ptr,identify_data);
 1048              		.loc 2 161 0
 1049 03fc D7E90023 		ldrd	r2, [r7]
 1050 0400 B968     		ldr	r1, [r7, #8]
 1051 0402 F868     		ldr	r0, [r7, #12]
 1052 0404 FFF7FEFF 		bl	insert_sort_find_data_with_id
 1053 0408 7861     		str	r0, [r7, #20]
 162:../../source/src/kernel/OS_LIB/insert_sort_oo.c **** 	if(NULL == buffer_ptr)//no such data
 1054              		.loc 2 162 0
 1055 040a 7B69     		ldr	r3, [r7, #20]
 1056 040c 002B     		cmp	r3, #0
 1057 040e 01D1     		bne	.L63
 163:../../source/src/kernel/OS_LIB/insert_sort_oo.c **** 	{
 164:../../source/src/kernel/OS_LIB/insert_sort_oo.c **** 		return NULL;
 1058              		.loc 2 164 0
 1059 0410 0023     		movs	r3, #0
 1060 0412 12E0     		b	.L62
 1061              	.L63:
 165:../../source/src/kernel/OS_LIB/insert_sort_oo.c **** 	}
 166:../../source/src/kernel/OS_LIB/insert_sort_oo.c **** 	else
 167:../../source/src/kernel/OS_LIB/insert_sort_oo.c **** 	{
 168:../../source/src/kernel/OS_LIB/insert_sort_oo.c **** 		list_del(&buffer_ptr->data_list);
 1062              		.loc 2 168 0
 1063 0414 7B69     		ldr	r3, [r7, #20]
 1064 0416 1033     		adds	r3, r3, #16
 1065 0418 1846     		mov	r0, r3
 1066 041a FFF737FE 		bl	list_del
 169:../../source/src/kernel/OS_LIB/insert_sort_oo.c **** 		ASSERT(insert_sort_entity_ptr->data_num > 0);
 1067              		.loc 2 169 0
 1068 041e FB68     		ldr	r3, [r7, #12]
 1069 0420 9B68     		ldr	r3, [r3, #8]
 1070 0422 002B     		cmp	r3, #0
 1071 0424 03D1     		bne	.L64
 1072              		.loc 2 169 0 is_stmt 0 discriminator 1
 1073 0426 A921     		movs	r1, #169
 1074 0428 0648     		ldr	r0, .L65
 1075 042a FFF7FEFF 		bl	_ASSERT
 1076              	.L64:
 170:../../source/src/kernel/OS_LIB/insert_sort_oo.c **** 		--(insert_sort_entity_ptr->data_num);
 1077              		.loc 2 170 0 is_stmt 1
 1078 042e FB68     		ldr	r3, [r7, #12]
 1079 0430 9B68     		ldr	r3, [r3, #8]
 1080 0432 5A1E     		subs	r2, r3, #1
 1081 0434 FB68     		ldr	r3, [r7, #12]
 1082 0436 9A60     		str	r2, [r3, #8]
 171:../../source/src/kernel/OS_LIB/insert_sort_oo.c **** 		return buffer_ptr;
 1083              		.loc 2 171 0
 1084 0438 7B69     		ldr	r3, [r7, #20]
 1085              	.L62:
 172:../../source/src/kernel/OS_LIB/insert_sort_oo.c **** 	}
 173:../../source/src/kernel/OS_LIB/insert_sort_oo.c **** }
 1086              		.loc 2 173 0
 1087 043a 1846     		mov	r0, r3
ARM GAS  G:\Users\Jaxb\AppData\Local\Temp\cc09mc5r.s 			page 26


 1088 043c 1837     		adds	r7, r7, #24
 1089              	.LCFI62:
 1090              		.cfi_def_cfa_offset 8
 1091 043e BD46     		mov	sp, r7
 1092              	.LCFI63:
 1093              		.cfi_def_cfa_register 13
 1094              		@ sp needed
 1095 0440 80BD     		pop	{r7, pc}
 1096              	.L66:
 1097 0442 00BF     		.align	2
 1098              	.L65:
 1099 0444 00000000 		.word	.LC0
 1100 0448 88020000 		.word	.LC9
 1101              		.cfi_endproc
 1102              	.LFE15:
 1103              		.size	insert_sort_delete_data_with_id, .-insert_sort_delete_data_with_id
 1104              		.align	1
 1105              		.global	init_insert_sort_data
 1106              		.syntax unified
 1107              		.thumb
 1108              		.thumb_func
 1109              		.fpu softvfp
 1110              		.type	init_insert_sort_data, %function
 1111              	init_insert_sort_data:
 1112              	.LFB16:
 174:../../source/src/kernel/OS_LIB/insert_sort_oo.c **** 
 175:../../source/src/kernel/OS_LIB/insert_sort_oo.c **** //initialize the struct insert_sort_data with data (*data_ptr)
 176:../../source/src/kernel/OS_LIB/insert_sort_oo.c **** void init_insert_sort_data(struct insert_sort_data *insert_sort_data_ptr,void *data_ptr)
 177:../../source/src/kernel/OS_LIB/insert_sort_oo.c **** {
 1113              		.loc 2 177 0
 1114              		.cfi_startproc
 1115              		@ args = 0, pretend = 0, frame = 8
 1116              		@ frame_needed = 1, uses_anonymous_args = 0
 1117 044c 80B5     		push	{r7, lr}
 1118              	.LCFI64:
 1119              		.cfi_def_cfa_offset 8
 1120              		.cfi_offset 7, -8
 1121              		.cfi_offset 14, -4
 1122 044e 82B0     		sub	sp, sp, #8
 1123              	.LCFI65:
 1124              		.cfi_def_cfa_offset 16
 1125 0450 00AF     		add	r7, sp, #0
 1126              	.LCFI66:
 1127              		.cfi_def_cfa_register 7
 1128 0452 7860     		str	r0, [r7, #4]
 1129 0454 3960     		str	r1, [r7]
 178:../../source/src/kernel/OS_LIB/insert_sort_oo.c **** 	ASSERT(NULL != insert_sort_data_ptr);
 1130              		.loc 2 178 0
 1131 0456 7B68     		ldr	r3, [r7, #4]
 1132 0458 002B     		cmp	r3, #0
 1133 045a 03D1     		bne	.L68
 1134              		.loc 2 178 0 is_stmt 0 discriminator 1
 1135 045c B221     		movs	r1, #178
 1136 045e 0B48     		ldr	r0, .L70
 1137 0460 FFF7FEFF 		bl	_ASSERT
 1138              	.L68:
 179:../../source/src/kernel/OS_LIB/insert_sort_oo.c **** 	ASSERT(NULL != data_ptr);
ARM GAS  G:\Users\Jaxb\AppData\Local\Temp\cc09mc5r.s 			page 27


 1139              		.loc 2 179 0 is_stmt 1
 1140 0464 3B68     		ldr	r3, [r7]
 1141 0466 002B     		cmp	r3, #0
 1142 0468 03D1     		bne	.L69
 1143              		.loc 2 179 0 is_stmt 0 discriminator 1
 1144 046a B321     		movs	r1, #179
 1145 046c 0748     		ldr	r0, .L70
 1146 046e FFF7FEFF 		bl	_ASSERT
 1147              	.L69:
 180:../../source/src/kernel/OS_LIB/insert_sort_oo.c **** 	insert_sort_data_ptr->data_ptr = data_ptr;
 1148              		.loc 2 180 0 is_stmt 1
 1149 0472 7B68     		ldr	r3, [r7, #4]
 1150 0474 3A68     		ldr	r2, [r7]
 1151 0476 1A60     		str	r2, [r3]
 181:../../source/src/kernel/OS_LIB/insert_sort_oo.c **** 	INIT_LIST_HEAD(&insert_sort_data_ptr->data_list);
 1152              		.loc 2 181 0
 1153 0478 7B68     		ldr	r3, [r7, #4]
 1154 047a 1033     		adds	r3, r3, #16
 1155 047c 1846     		mov	r0, r3
 1156 047e FFF7BFFD 		bl	INIT_LIST_HEAD
 182:../../source/src/kernel/OS_LIB/insert_sort_oo.c **** }
 1157              		.loc 2 182 0
 1158 0482 00BF     		nop
 1159 0484 0837     		adds	r7, r7, #8
 1160              	.LCFI67:
 1161              		.cfi_def_cfa_offset 8
 1162 0486 BD46     		mov	sp, r7
 1163              	.LCFI68:
 1164              		.cfi_def_cfa_register 13
 1165              		@ sp needed
 1166 0488 80BD     		pop	{r7, pc}
 1167              	.L71:
 1168 048a 00BF     		.align	2
 1169              	.L70:
 1170 048c 00000000 		.word	.LC0
 1171              		.cfi_endproc
 1172              	.LFE16:
 1173              		.size	init_insert_sort_data, .-init_insert_sort_data
 1174              		.align	1
 1175              		.global	init_insert_sort_data_with_id
 1176              		.syntax unified
 1177              		.thumb
 1178              		.thumb_func
 1179              		.fpu softvfp
 1180              		.type	init_insert_sort_data_with_id, %function
 1181              	init_insert_sort_data_with_id:
 1182              	.LFB17:
 183:../../source/src/kernel/OS_LIB/insert_sort_oo.c **** 
 184:../../source/src/kernel/OS_LIB/insert_sort_oo.c **** //initialize the struct insert_sort_data with data (*data_ptr) and id
 185:../../source/src/kernel/OS_LIB/insert_sort_oo.c **** void init_insert_sort_data_with_id(struct insert_sort_data *insert_sort_data_ptr,void *data_ptr,id_
 186:../../source/src/kernel/OS_LIB/insert_sort_oo.c **** {
 1183              		.loc 2 186 0
 1184              		.cfi_startproc
 1185              		@ args = 0, pretend = 0, frame = 16
 1186              		@ frame_needed = 1, uses_anonymous_args = 0
 1187 0490 90B5     		push	{r4, r7, lr}
 1188              	.LCFI69:
ARM GAS  G:\Users\Jaxb\AppData\Local\Temp\cc09mc5r.s 			page 28


 1189              		.cfi_def_cfa_offset 12
 1190              		.cfi_offset 4, -12
 1191              		.cfi_offset 7, -8
 1192              		.cfi_offset 14, -4
 1193 0492 85B0     		sub	sp, sp, #20
 1194              	.LCFI70:
 1195              		.cfi_def_cfa_offset 32
 1196 0494 00AF     		add	r7, sp, #0
 1197              	.LCFI71:
 1198              		.cfi_def_cfa_register 7
 1199 0496 F860     		str	r0, [r7, #12]
 1200 0498 B960     		str	r1, [r7, #8]
 1201 049a C7E90023 		strd	r2, [r7]
 187:../../source/src/kernel/OS_LIB/insert_sort_oo.c **** 	init_insert_sort_data(insert_sort_data_ptr,data_ptr);
 1202              		.loc 2 187 0
 1203 049e B968     		ldr	r1, [r7, #8]
 1204 04a0 F868     		ldr	r0, [r7, #12]
 1205 04a2 FFF7FEFF 		bl	init_insert_sort_data
 188:../../source/src/kernel/OS_LIB/insert_sort_oo.c **** 	insert_sort_data_ptr->identify_data = identify_data;
 1206              		.loc 2 188 0
 1207 04a6 FA68     		ldr	r2, [r7, #12]
 1208 04a8 D7E90034 		ldrd	r3, [r7]
 1209 04ac C2E90234 		strd	r3, [r2, #8]
 189:../../source/src/kernel/OS_LIB/insert_sort_oo.c **** }
 1210              		.loc 2 189 0
 1211 04b0 00BF     		nop
 1212 04b2 1437     		adds	r7, r7, #20
 1213              	.LCFI72:
 1214              		.cfi_def_cfa_offset 12
 1215 04b4 BD46     		mov	sp, r7
 1216              	.LCFI73:
 1217              		.cfi_def_cfa_register 13
 1218              		@ sp needed
 1219 04b6 90BD     		pop	{r4, r7, pc}
 1220              		.cfi_endproc
 1221              	.LFE17:
 1222              		.size	init_insert_sort_data_with_id, .-init_insert_sort_data_with_id
 1223              		.align	1
 1224              		.global	init_insert_sort_entity
 1225              		.syntax unified
 1226              		.thumb
 1227              		.thumb_func
 1228              		.fpu softvfp
 1229              		.type	init_insert_sort_entity, %function
 1230              	init_insert_sort_entity:
 1231              	.LFB18:
 190:../../source/src/kernel/OS_LIB/insert_sort_oo.c **** 
 191:../../source/src/kernel/OS_LIB/insert_sort_oo.c **** //initialize the struct insert_sort_entity
 192:../../source/src/kernel/OS_LIB/insert_sort_oo.c **** //user have to realize three funtion in the following parameter
 193:../../source/src/kernel/OS_LIB/insert_sort_oo.c **** int init_insert_sort_entity(
 194:../../source/src/kernel/OS_LIB/insert_sort_oo.c **** 	struct insert_sort_entity *insert_sort_entity_ptr,
 195:../../source/src/kernel/OS_LIB/insert_sort_oo.c **** 	int (*compare)(struct insert_sort_data *data1,struct insert_sort_data *data2),
 196:../../source/src/kernel/OS_LIB/insert_sort_oo.c **** 	int (*get_data_ptr)(struct insert_sort_data *insert_sort_data_ptrm,void *data_ptr),
 197:../../source/src/kernel/OS_LIB/insert_sort_oo.c **** 	int (*value_cmp)(void *data1,void *data2)
 198:../../source/src/kernel/OS_LIB/insert_sort_oo.c **** )
 199:../../source/src/kernel/OS_LIB/insert_sort_oo.c **** {
 1232              		.loc 2 199 0
ARM GAS  G:\Users\Jaxb\AppData\Local\Temp\cc09mc5r.s 			page 29


 1233              		.cfi_startproc
 1234              		@ args = 0, pretend = 0, frame = 16
 1235              		@ frame_needed = 1, uses_anonymous_args = 0
 1236 04b8 80B5     		push	{r7, lr}
 1237              	.LCFI74:
 1238              		.cfi_def_cfa_offset 8
 1239              		.cfi_offset 7, -8
 1240              		.cfi_offset 14, -4
 1241 04ba 84B0     		sub	sp, sp, #16
 1242              	.LCFI75:
 1243              		.cfi_def_cfa_offset 24
 1244 04bc 00AF     		add	r7, sp, #0
 1245              	.LCFI76:
 1246              		.cfi_def_cfa_register 7
 1247 04be F860     		str	r0, [r7, #12]
 1248 04c0 B960     		str	r1, [r7, #8]
 1249 04c2 7A60     		str	r2, [r7, #4]
 1250 04c4 3B60     		str	r3, [r7]
 200:../../source/src/kernel/OS_LIB/insert_sort_oo.c **** 	ASSERT(NULL != insert_sort_entity_ptr);
 1251              		.loc 2 200 0
 1252 04c6 FB68     		ldr	r3, [r7, #12]
 1253 04c8 002B     		cmp	r3, #0
 1254 04ca 03D1     		bne	.L74
 1255              		.loc 2 200 0 is_stmt 0 discriminator 1
 1256 04cc C821     		movs	r1, #200
 1257 04ce 0F48     		ldr	r0, .L77
 1258 04d0 FFF7FEFF 		bl	_ASSERT
 1259              	.L74:
 201:../../source/src/kernel/OS_LIB/insert_sort_oo.c **** 	if(NULL == insert_sort_entity_ptr)
 1260              		.loc 2 201 0 is_stmt 1
 1261 04d4 FB68     		ldr	r3, [r7, #12]
 1262 04d6 002B     		cmp	r3, #0
 1263 04d8 02D1     		bne	.L75
 202:../../source/src/kernel/OS_LIB/insert_sort_oo.c **** 	{
 203:../../source/src/kernel/OS_LIB/insert_sort_oo.c **** 		return -ERROR_NULL_INPUT_PTR;
 1264              		.loc 2 203 0
 1265 04da 6FF0FE03 		mvn	r3, #254
 1266 04de 10E0     		b	.L76
 1267              	.L75:
 204:../../source/src/kernel/OS_LIB/insert_sort_oo.c **** 	}
 205:../../source/src/kernel/OS_LIB/insert_sort_oo.c **** PRIVATE
 206:../../source/src/kernel/OS_LIB/insert_sort_oo.c **** 	insert_sort_entity_ptr->data_num             = 0;
 1268              		.loc 2 206 0
 1269 04e0 FB68     		ldr	r3, [r7, #12]
 1270 04e2 0022     		movs	r2, #0
 1271 04e4 9A60     		str	r2, [r3, #8]
 207:../../source/src/kernel/OS_LIB/insert_sort_oo.c **** 	insert_sort_entity_ptr->compare              = compare;
 1272              		.loc 2 207 0
 1273 04e6 FB68     		ldr	r3, [r7, #12]
 1274 04e8 BA68     		ldr	r2, [r7, #8]
 1275 04ea DA60     		str	r2, [r3, #12]
 208:../../source/src/kernel/OS_LIB/insert_sort_oo.c **** 	insert_sort_entity_ptr->get_data_ptr         = get_data_ptr;
 1276              		.loc 2 208 0
 1277 04ec FB68     		ldr	r3, [r7, #12]
 1278 04ee 7A68     		ldr	r2, [r7, #4]
 1279 04f0 1A61     		str	r2, [r3, #16]
 209:../../source/src/kernel/OS_LIB/insert_sort_oo.c **** 	insert_sort_entity_ptr->value_cmp            = value_cmp;
ARM GAS  G:\Users\Jaxb\AppData\Local\Temp\cc09mc5r.s 			page 30


 1280              		.loc 2 209 0
 1281 04f2 FB68     		ldr	r3, [r7, #12]
 1282 04f4 3A68     		ldr	r2, [r7]
 1283 04f6 5A61     		str	r2, [r3, #20]
 210:../../source/src/kernel/OS_LIB/insert_sort_oo.c **** 	INIT_LIST_HEAD(&insert_sort_entity_ptr->data_list_head);
 1284              		.loc 2 210 0
 1285 04f8 FB68     		ldr	r3, [r7, #12]
 1286 04fa 1846     		mov	r0, r3
 1287 04fc FFF780FD 		bl	INIT_LIST_HEAD
 211:../../source/src/kernel/OS_LIB/insert_sort_oo.c **** 	return FUN_EXECUTE_SUCCESSFULLY;
 1288              		.loc 2 211 0
 1289 0500 0023     		movs	r3, #0
 1290              	.L76:
 212:../../source/src/kernel/OS_LIB/insert_sort_oo.c **** }
 1291              		.loc 2 212 0
 1292 0502 1846     		mov	r0, r3
 1293 0504 1037     		adds	r7, r7, #16
 1294              	.LCFI77:
 1295              		.cfi_def_cfa_offset 8
 1296 0506 BD46     		mov	sp, r7
 1297              	.LCFI78:
 1298              		.cfi_def_cfa_register 13
 1299              		@ sp needed
 1300 0508 80BD     		pop	{r7, pc}
 1301              	.L78:
 1302 050a 00BF     		.align	2
 1303              	.L77:
 1304 050c 00000000 		.word	.LC0
 1305              		.cfi_endproc
 1306              	.LFE18:
 1307              		.size	init_insert_sort_entity, .-init_insert_sort_entity
 1308              		.section	.rodata
 1309 02de 0000     		.align	2
 1310              	.LC10:
 1311 02e0 6572726F 		.ascii	"error fun name : insert_sort_get_first_data_ptr\012"
 1311      72206675 
 1311      6E206E61 
 1311      6D65203A 
 1311      20696E73 
 1312 0310 6572726F 		.ascii	"error para : insert_sort_entity_ptr\012\000"
 1312      72207061 
 1312      7261203A 
 1312      20696E73 
 1312      6572745F 
 1313              		.text
 1314              		.align	1
 1315              		.global	insert_sort_get_first_data_ptr
 1316              		.syntax unified
 1317              		.thumb
 1318              		.thumb_func
 1319              		.fpu softvfp
 1320              		.type	insert_sort_get_first_data_ptr, %function
 1321              	insert_sort_get_first_data_ptr:
 1322              	.LFB19:
 213:../../source/src/kernel/OS_LIB/insert_sort_oo.c **** 
 214:../../source/src/kernel/OS_LIB/insert_sort_oo.c **** 
 215:../../source/src/kernel/OS_LIB/insert_sort_oo.c **** inline struct insert_sort_data * insert_sort_get_first_data_ptr(struct insert_sort_entity *insert_s
ARM GAS  G:\Users\Jaxb\AppData\Local\Temp\cc09mc5r.s 			page 31


 216:../../source/src/kernel/OS_LIB/insert_sort_oo.c **** {
 1323              		.loc 2 216 0
 1324              		.cfi_startproc
 1325              		@ args = 0, pretend = 0, frame = 16
 1326              		@ frame_needed = 1, uses_anonymous_args = 0
 1327 0510 80B5     		push	{r7, lr}
 1328              	.LCFI79:
 1329              		.cfi_def_cfa_offset 8
 1330              		.cfi_offset 7, -8
 1331              		.cfi_offset 14, -4
 1332 0512 84B0     		sub	sp, sp, #16
 1333              	.LCFI80:
 1334              		.cfi_def_cfa_offset 24
 1335 0514 00AF     		add	r7, sp, #0
 1336              	.LCFI81:
 1337              		.cfi_def_cfa_register 7
 1338 0516 7860     		str	r0, [r7, #4]
 217:../../source/src/kernel/OS_LIB/insert_sort_oo.c **** 	ASSERT(NULL != insert_sort_entity_ptr);
 1339              		.loc 2 217 0
 1340 0518 7B68     		ldr	r3, [r7, #4]
 1341 051a 002B     		cmp	r3, #0
 1342 051c 03D1     		bne	.L80
 1343              		.loc 2 217 0 is_stmt 0 discriminator 1
 1344 051e D921     		movs	r1, #217
 1345 0520 0E48     		ldr	r0, .L84
 1346 0522 FFF7FEFF 		bl	_ASSERT
 1347              	.L80:
 218:../../source/src/kernel/OS_LIB/insert_sort_oo.c **** #if CONFIG_PARA_CHECK
 219:../../source/src/kernel/OS_LIB/insert_sort_oo.c **** 	if(NULL == insert_sort_entity_ptr)
 1348              		.loc 2 219 0 is_stmt 1
 1349 0526 7B68     		ldr	r3, [r7, #4]
 1350 0528 002B     		cmp	r3, #0
 1351 052a 04D1     		bne	.L81
 220:../../source/src/kernel/OS_LIB/insert_sort_oo.c **** 	{
 221:../../source/src/kernel/OS_LIB/insert_sort_oo.c **** 		OS_ERROR_PARA_MESSAGE_DISPLAY(insert_sort_get_first_data_ptr,insert_sort_entity_ptr);
 1352              		.loc 2 221 0
 1353 052c 0C48     		ldr	r0, .L84+4
 1354 052e FFF7FEFF 		bl	ka_printf
 222:../../source/src/kernel/OS_LIB/insert_sort_oo.c **** 		return NULL;
 1355              		.loc 2 222 0
 1356 0532 0023     		movs	r3, #0
 1357 0534 0EE0     		b	.L82
 1358              	.L81:
 223:../../source/src/kernel/OS_LIB/insert_sort_oo.c **** 	}
 224:../../source/src/kernel/OS_LIB/insert_sort_oo.c **** #endif
 225:../../source/src/kernel/OS_LIB/insert_sort_oo.c **** 	if(list_empty(&insert_sort_entity_ptr->data_list_head))
 1359              		.loc 2 225 0
 1360 0536 7B68     		ldr	r3, [r7, #4]
 1361 0538 1846     		mov	r0, r3
 1362 053a FFF7B7FD 		bl	list_empty
 1363 053e 0346     		mov	r3, r0
 1364 0540 002B     		cmp	r3, #0
 1365 0542 01D0     		beq	.L83
 226:../../source/src/kernel/OS_LIB/insert_sort_oo.c **** 	{
 227:../../source/src/kernel/OS_LIB/insert_sort_oo.c **** 		return NULL;
 1366              		.loc 2 227 0
 1367 0544 0023     		movs	r3, #0
ARM GAS  G:\Users\Jaxb\AppData\Local\Temp\cc09mc5r.s 			page 32


 1368 0546 05E0     		b	.L82
 1369              	.L83:
 1370              	.LBB6:
 228:../../source/src/kernel/OS_LIB/insert_sort_oo.c **** 	}
 229:../../source/src/kernel/OS_LIB/insert_sort_oo.c **** 	return list_entry(insert_sort_entity_ptr->data_list_head.next,struct insert_sort_data,data_list);
 1371              		.loc 2 229 0
 1372 0548 7B68     		ldr	r3, [r7, #4]
 1373 054a 1B68     		ldr	r3, [r3]
 1374 054c FB60     		str	r3, [r7, #12]
 1375 054e FB68     		ldr	r3, [r7, #12]
 1376 0550 103B     		subs	r3, r3, #16
 1377              	.LBE6:
 1378 0552 00BF     		nop
 1379              	.L82:
 230:../../source/src/kernel/OS_LIB/insert_sort_oo.c **** }
 1380              		.loc 2 230 0
 1381 0554 1846     		mov	r0, r3
 1382 0556 1037     		adds	r7, r7, #16
 1383              	.LCFI82:
 1384              		.cfi_def_cfa_offset 8
 1385 0558 BD46     		mov	sp, r7
 1386              	.LCFI83:
 1387              		.cfi_def_cfa_register 13
 1388              		@ sp needed
 1389 055a 80BD     		pop	{r7, pc}
 1390              	.L85:
 1391              		.align	2
 1392              	.L84:
 1393 055c 00000000 		.word	.LC0
 1394 0560 E0020000 		.word	.LC10
 1395              		.cfi_endproc
 1396              	.LFE19:
 1397              		.size	insert_sort_get_first_data_ptr, .-insert_sort_get_first_data_ptr
 1398              	.Letext0:
 1399              		.file 3 "../../source/include/os_cpu/kakaosstdint.h"
 1400              		.file 4 "../../source/include/os_lib/insert_sort_oo.h"
 1401              		.section	.debug_info,"",%progbits
 1402              	.Ldebug_info0:
 1403 0000 2C060000 		.4byte	0x62c
 1404 0004 0200     		.2byte	0x2
 1405 0006 00000000 		.4byte	.Ldebug_abbrev0
 1406 000a 04       		.byte	0x4
 1407 000b 01       		.uleb128 0x1
 1408 000c B8020000 		.4byte	.LASF45
 1409 0010 0C       		.byte	0xc
 1410 0011 7F020000 		.4byte	.LASF46
 1411 0015 88030000 		.4byte	.LASF47
 1412 0019 00000000 		.4byte	.Ltext0
 1413 001d 64050000 		.4byte	.Letext0
 1414 0021 00000000 		.4byte	.Ldebug_line0
 1415 0025 02       		.uleb128 0x2
 1416 0026 25020000 		.4byte	.LASF12
 1417 002a 08       		.byte	0x8
 1418 002b 01       		.byte	0x1
 1419 002c 04       		.byte	0x4
 1420 002d 4E000000 		.4byte	0x4e
 1421 0031 03       		.uleb128 0x3
ARM GAS  G:\Users\Jaxb\AppData\Local\Temp\cc09mc5r.s 			page 33


 1422 0032 24000000 		.4byte	.LASF0
 1423 0036 01       		.byte	0x1
 1424 0037 05       		.byte	0x5
 1425 0038 53000000 		.4byte	0x53
 1426 003c 02       		.byte	0x2
 1427 003d 23       		.byte	0x23
 1428 003e 00       		.uleb128 0
 1429 003f 03       		.uleb128 0x3
 1430 0040 83030000 		.4byte	.LASF1
 1431 0044 01       		.byte	0x1
 1432 0045 05       		.byte	0x5
 1433 0046 53000000 		.4byte	0x53
 1434 004a 02       		.byte	0x2
 1435 004b 23       		.byte	0x23
 1436 004c 04       		.uleb128 0x4
 1437 004d 00       		.byte	0
 1438 004e 04       		.uleb128 0x4
 1439 004f 25000000 		.4byte	0x25
 1440 0053 05       		.uleb128 0x5
 1441 0054 04       		.byte	0x4
 1442 0055 25000000 		.4byte	0x25
 1443 0059 06       		.uleb128 0x6
 1444 005a 01       		.byte	0x1
 1445 005b 06       		.byte	0x6
 1446 005c 5E030000 		.4byte	.LASF2
 1447 0060 06       		.uleb128 0x6
 1448 0061 02       		.byte	0x2
 1449 0062 05       		.byte	0x5
 1450 0063 63020000 		.4byte	.LASF3
 1451 0067 07       		.uleb128 0x7
 1452 0068 04       		.byte	0x4
 1453 0069 05       		.byte	0x5
 1454 006a 696E7400 		.ascii	"int\000"
 1455 006e 06       		.uleb128 0x6
 1456 006f 08       		.byte	0x8
 1457 0070 05       		.byte	0x5
 1458 0071 2F020000 		.4byte	.LASF4
 1459 0075 06       		.uleb128 0x6
 1460 0076 01       		.byte	0x1
 1461 0077 08       		.byte	0x8
 1462 0078 F5000000 		.4byte	.LASF5
 1463 007c 06       		.uleb128 0x6
 1464 007d 02       		.byte	0x2
 1465 007e 07       		.byte	0x7
 1466 007f 29010000 		.4byte	.LASF6
 1467 0083 06       		.uleb128 0x6
 1468 0084 04       		.byte	0x4
 1469 0085 07       		.byte	0x7
 1470 0086 CC010000 		.4byte	.LASF7
 1471 008a 08       		.uleb128 0x8
 1472 008b 19010000 		.4byte	.LASF9
 1473 008f 03       		.byte	0x3
 1474 0090 0D       		.byte	0xd
 1475 0091 95000000 		.4byte	0x95
 1476 0095 06       		.uleb128 0x6
 1477 0096 08       		.byte	0x8
 1478 0097 07       		.byte	0x7
ARM GAS  G:\Users\Jaxb\AppData\Local\Temp\cc09mc5r.s 			page 34


 1479 0098 D9010000 		.4byte	.LASF8
 1480 009c 08       		.uleb128 0x8
 1481 009d 1D000000 		.4byte	.LASF10
 1482 00a1 03       		.byte	0x3
 1483 00a2 23       		.byte	0x23
 1484 00a3 83000000 		.4byte	0x83
 1485 00a7 08       		.uleb128 0x8
 1486 00a8 0E020000 		.4byte	.LASF11
 1487 00ac 04       		.byte	0x4
 1488 00ad 0D       		.byte	0xd
 1489 00ae 8A000000 		.4byte	0x8a
 1490 00b2 02       		.uleb128 0x2
 1491 00b3 29000000 		.4byte	.LASF13
 1492 00b7 18       		.byte	0x18
 1493 00b8 04       		.byte	0x4
 1494 00b9 0F       		.byte	0xf
 1495 00ba E9000000 		.4byte	0xe9
 1496 00be 03       		.uleb128 0x3
 1497 00bf AF020000 		.4byte	.LASF14
 1498 00c3 04       		.byte	0x4
 1499 00c4 11       		.byte	0x11
 1500 00c5 E9000000 		.4byte	0xe9
 1501 00c9 02       		.byte	0x2
 1502 00ca 23       		.byte	0x23
 1503 00cb 00       		.uleb128 0
 1504 00cc 03       		.uleb128 0x3
 1505 00cd 8D000000 		.4byte	.LASF15
 1506 00d1 04       		.byte	0x4
 1507 00d2 12       		.byte	0x12
 1508 00d3 A7000000 		.4byte	0xa7
 1509 00d7 02       		.byte	0x2
 1510 00d8 23       		.byte	0x23
 1511 00d9 08       		.uleb128 0x8
 1512 00da 03       		.uleb128 0x3
 1513 00db 52000000 		.4byte	.LASF16
 1514 00df 04       		.byte	0x4
 1515 00e0 13       		.byte	0x13
 1516 00e1 25000000 		.4byte	0x25
 1517 00e5 02       		.byte	0x2
 1518 00e6 23       		.byte	0x23
 1519 00e7 10       		.uleb128 0x10
 1520 00e8 00       		.byte	0
 1521 00e9 09       		.uleb128 0x9
 1522 00ea 04       		.byte	0x4
 1523 00eb 02       		.uleb128 0x2
 1524 00ec 71000000 		.4byte	.LASF17
 1525 00f0 18       		.byte	0x18
 1526 00f1 04       		.byte	0x4
 1527 00f2 1D       		.byte	0x1d
 1528 00f3 3E010000 		.4byte	0x13e
 1529 00f7 03       		.uleb128 0x3
 1530 00f8 16020000 		.4byte	.LASF18
 1531 00fc 04       		.byte	0x4
 1532 00fd 27       		.byte	0x27
 1533 00fe 25000000 		.4byte	0x25
 1534 0102 02       		.byte	0x2
 1535 0103 23       		.byte	0x23
ARM GAS  G:\Users\Jaxb\AppData\Local\Temp\cc09mc5r.s 			page 35


 1536 0104 00       		.uleb128 0
 1537 0105 03       		.uleb128 0x3
 1538 0106 20010000 		.4byte	.LASF19
 1539 010a 04       		.byte	0x4
 1540 010b 28       		.byte	0x28
 1541 010c 83000000 		.4byte	0x83
 1542 0110 02       		.byte	0x2
 1543 0111 23       		.byte	0x23
 1544 0112 08       		.uleb128 0x8
 1545 0113 03       		.uleb128 0x3
 1546 0114 6A030000 		.4byte	.LASF20
 1547 0118 04       		.byte	0x4
 1548 0119 2C       		.byte	0x2c
 1549 011a 59010000 		.4byte	0x159
 1550 011e 02       		.byte	0x2
 1551 011f 23       		.byte	0x23
 1552 0120 0C       		.uleb128 0xc
 1553 0121 03       		.uleb128 0x3
 1554 0122 AF010000 		.4byte	.LASF21
 1555 0126 04       		.byte	0x4
 1556 0127 2D       		.byte	0x2d
 1557 0128 74010000 		.4byte	0x174
 1558 012c 02       		.byte	0x2
 1559 012d 23       		.byte	0x23
 1560 012e 10       		.uleb128 0x10
 1561 012f 03       		.uleb128 0x3
 1562 0130 67000000 		.4byte	.LASF22
 1563 0134 04       		.byte	0x4
 1564 0135 2E       		.byte	0x2e
 1565 0136 8F010000 		.4byte	0x18f
 1566 013a 02       		.byte	0x2
 1567 013b 23       		.byte	0x23
 1568 013c 14       		.uleb128 0x14
 1569 013d 00       		.byte	0
 1570 013e 0A       		.uleb128 0xa
 1571 013f 01       		.byte	0x1
 1572 0140 67000000 		.4byte	0x67
 1573 0144 53010000 		.4byte	0x153
 1574 0148 0B       		.uleb128 0xb
 1575 0149 53010000 		.4byte	0x153
 1576 014d 0B       		.uleb128 0xb
 1577 014e 53010000 		.4byte	0x153
 1578 0152 00       		.byte	0
 1579 0153 05       		.uleb128 0x5
 1580 0154 04       		.byte	0x4
 1581 0155 B2000000 		.4byte	0xb2
 1582 0159 05       		.uleb128 0x5
 1583 015a 04       		.byte	0x4
 1584 015b 3E010000 		.4byte	0x13e
 1585 015f 0A       		.uleb128 0xa
 1586 0160 01       		.byte	0x1
 1587 0161 67000000 		.4byte	0x67
 1588 0165 74010000 		.4byte	0x174
 1589 0169 0B       		.uleb128 0xb
 1590 016a 53010000 		.4byte	0x153
 1591 016e 0B       		.uleb128 0xb
 1592 016f E9000000 		.4byte	0xe9
ARM GAS  G:\Users\Jaxb\AppData\Local\Temp\cc09mc5r.s 			page 36


 1593 0173 00       		.byte	0
 1594 0174 05       		.uleb128 0x5
 1595 0175 04       		.byte	0x4
 1596 0176 5F010000 		.4byte	0x15f
 1597 017a 0A       		.uleb128 0xa
 1598 017b 01       		.byte	0x1
 1599 017c 67000000 		.4byte	0x67
 1600 0180 8F010000 		.4byte	0x18f
 1601 0184 0B       		.uleb128 0xb
 1602 0185 E9000000 		.4byte	0xe9
 1603 0189 0B       		.uleb128 0xb
 1604 018a E9000000 		.4byte	0xe9
 1605 018e 00       		.byte	0
 1606 018f 05       		.uleb128 0x5
 1607 0190 04       		.byte	0x4
 1608 0191 7A010000 		.4byte	0x17a
 1609 0195 0C       		.uleb128 0xc
 1610 0196 01       		.byte	0x1
 1611 0197 9B000000 		.4byte	.LASF23
 1612 019b 02       		.byte	0x2
 1613 019c D7       		.byte	0xd7
 1614 019d 01       		.byte	0x1
 1615 019e 53010000 		.4byte	0x153
 1616 01a2 10050000 		.4byte	.LFB19
 1617 01a6 64050000 		.4byte	.LFE19
 1618 01aa 00000000 		.4byte	.LLST15
 1619 01ae 01       		.byte	0x1
 1620 01af DA010000 		.4byte	0x1da
 1621 01b3 0D       		.uleb128 0xd
 1622 01b4 3D020000 		.4byte	.LASF25
 1623 01b8 02       		.byte	0x2
 1624 01b9 D7       		.byte	0xd7
 1625 01ba DA010000 		.4byte	0x1da
 1626 01be 02       		.byte	0x2
 1627 01bf 91       		.byte	0x91
 1628 01c0 6C       		.sleb128 -20
 1629 01c1 0E       		.uleb128 0xe
 1630 01c2 48050000 		.4byte	.LBB6
 1631 01c6 52050000 		.4byte	.LBE6
 1632 01ca 0F       		.uleb128 0xf
 1633 01cb 3C010000 		.4byte	.LASF30
 1634 01cf 02       		.byte	0x2
 1635 01d0 E5       		.byte	0xe5
 1636 01d1 E0010000 		.4byte	0x1e0
 1637 01d5 02       		.byte	0x2
 1638 01d6 91       		.byte	0x91
 1639 01d7 74       		.sleb128 -12
 1640 01d8 00       		.byte	0
 1641 01d9 00       		.byte	0
 1642 01da 05       		.uleb128 0x5
 1643 01db 04       		.byte	0x4
 1644 01dc EB000000 		.4byte	0xeb
 1645 01e0 05       		.uleb128 0x5
 1646 01e1 04       		.byte	0x4
 1647 01e2 4E000000 		.4byte	0x4e
 1648 01e6 0C       		.uleb128 0xc
 1649 01e7 01       		.byte	0x1
ARM GAS  G:\Users\Jaxb\AppData\Local\Temp\cc09mc5r.s 			page 37


 1650 01e8 97010000 		.4byte	.LASF24
 1651 01ec 02       		.byte	0x2
 1652 01ed C1       		.byte	0xc1
 1653 01ee 01       		.byte	0x1
 1654 01ef 67000000 		.4byte	0x67
 1655 01f3 B8040000 		.4byte	.LFB18
 1656 01f7 10050000 		.4byte	.LFE18
 1657 01fb 50000000 		.4byte	.LLST14
 1658 01ff 01       		.byte	0x1
 1659 0200 3D020000 		.4byte	0x23d
 1660 0204 0D       		.uleb128 0xd
 1661 0205 3D020000 		.4byte	.LASF25
 1662 0209 02       		.byte	0x2
 1663 020a C2       		.byte	0xc2
 1664 020b DA010000 		.4byte	0x1da
 1665 020f 02       		.byte	0x2
 1666 0210 91       		.byte	0x91
 1667 0211 74       		.sleb128 -12
 1668 0212 0D       		.uleb128 0xd
 1669 0213 6A030000 		.4byte	.LASF20
 1670 0217 02       		.byte	0x2
 1671 0218 C3       		.byte	0xc3
 1672 0219 59010000 		.4byte	0x159
 1673 021d 02       		.byte	0x2
 1674 021e 91       		.byte	0x91
 1675 021f 70       		.sleb128 -16
 1676 0220 0D       		.uleb128 0xd
 1677 0221 AF010000 		.4byte	.LASF21
 1678 0225 02       		.byte	0x2
 1679 0226 C4       		.byte	0xc4
 1680 0227 74010000 		.4byte	0x174
 1681 022b 02       		.byte	0x2
 1682 022c 91       		.byte	0x91
 1683 022d 6C       		.sleb128 -20
 1684 022e 0D       		.uleb128 0xd
 1685 022f 67000000 		.4byte	.LASF22
 1686 0233 02       		.byte	0x2
 1687 0234 C5       		.byte	0xc5
 1688 0235 8F010000 		.4byte	0x18f
 1689 0239 02       		.byte	0x2
 1690 023a 91       		.byte	0x91
 1691 023b 68       		.sleb128 -24
 1692 023c 00       		.byte	0
 1693 023d 10       		.uleb128 0x10
 1694 023e 01       		.byte	0x1
 1695 023f 43010000 		.4byte	.LASF27
 1696 0243 02       		.byte	0x2
 1697 0244 B9       		.byte	0xb9
 1698 0245 01       		.byte	0x1
 1699 0246 90040000 		.4byte	.LFB17
 1700 024a B8040000 		.4byte	.LFE17
 1701 024e A0000000 		.4byte	.LLST13
 1702 0252 01       		.byte	0x1
 1703 0253 82020000 		.4byte	0x282
 1704 0257 0D       		.uleb128 0xd
 1705 0258 BA000000 		.4byte	.LASF26
 1706 025c 02       		.byte	0x2
ARM GAS  G:\Users\Jaxb\AppData\Local\Temp\cc09mc5r.s 			page 38


 1707 025d B9       		.byte	0xb9
 1708 025e 53010000 		.4byte	0x153
 1709 0262 02       		.byte	0x2
 1710 0263 91       		.byte	0x91
 1711 0264 6C       		.sleb128 -20
 1712 0265 0D       		.uleb128 0xd
 1713 0266 AF020000 		.4byte	.LASF14
 1714 026a 02       		.byte	0x2
 1715 026b B9       		.byte	0xb9
 1716 026c E9000000 		.4byte	0xe9
 1717 0270 02       		.byte	0x2
 1718 0271 91       		.byte	0x91
 1719 0272 68       		.sleb128 -24
 1720 0273 0D       		.uleb128 0xd
 1721 0274 8D000000 		.4byte	.LASF15
 1722 0278 02       		.byte	0x2
 1723 0279 B9       		.byte	0xb9
 1724 027a A7000000 		.4byte	0xa7
 1725 027e 02       		.byte	0x2
 1726 027f 91       		.byte	0x91
 1727 0280 60       		.sleb128 -32
 1728 0281 00       		.byte	0
 1729 0282 10       		.uleb128 0x10
 1730 0283 01       		.byte	0x1
 1731 0284 03010000 		.4byte	.LASF28
 1732 0288 02       		.byte	0x2
 1733 0289 B0       		.byte	0xb0
 1734 028a 01       		.byte	0x1
 1735 028b 4C040000 		.4byte	.LFB16
 1736 028f 90040000 		.4byte	.LFE16
 1737 0293 F0000000 		.4byte	.LLST12
 1738 0297 01       		.byte	0x1
 1739 0298 B9020000 		.4byte	0x2b9
 1740 029c 0D       		.uleb128 0xd
 1741 029d BA000000 		.4byte	.LASF26
 1742 02a1 02       		.byte	0x2
 1743 02a2 B0       		.byte	0xb0
 1744 02a3 53010000 		.4byte	0x153
 1745 02a7 02       		.byte	0x2
 1746 02a8 91       		.byte	0x91
 1747 02a9 74       		.sleb128 -12
 1748 02aa 0D       		.uleb128 0xd
 1749 02ab AF020000 		.4byte	.LASF14
 1750 02af 02       		.byte	0x2
 1751 02b0 B0       		.byte	0xb0
 1752 02b1 E9000000 		.4byte	0xe9
 1753 02b5 02       		.byte	0x2
 1754 02b6 91       		.byte	0x91
 1755 02b7 70       		.sleb128 -16
 1756 02b8 00       		.byte	0
 1757 02b9 0C       		.uleb128 0xc
 1758 02ba 01       		.byte	0x1
 1759 02bb 77010000 		.4byte	.LASF29
 1760 02bf 02       		.byte	0x2
 1761 02c0 93       		.byte	0x93
 1762 02c1 01       		.byte	0x1
 1763 02c2 53010000 		.4byte	0x153
ARM GAS  G:\Users\Jaxb\AppData\Local\Temp\cc09mc5r.s 			page 39


 1764 02c6 D0030000 		.4byte	.LFB15
 1765 02ca 4C040000 		.4byte	.LFE15
 1766 02ce 40010000 		.4byte	.LLST11
 1767 02d2 01       		.byte	0x1
 1768 02d3 10030000 		.4byte	0x310
 1769 02d7 0D       		.uleb128 0xd
 1770 02d8 3D020000 		.4byte	.LASF25
 1771 02dc 02       		.byte	0x2
 1772 02dd 94       		.byte	0x94
 1773 02de DA010000 		.4byte	0x1da
 1774 02e2 02       		.byte	0x2
 1775 02e3 91       		.byte	0x91
 1776 02e4 6C       		.sleb128 -20
 1777 02e5 0D       		.uleb128 0xd
 1778 02e6 AF020000 		.4byte	.LASF14
 1779 02ea 02       		.byte	0x2
 1780 02eb 95       		.byte	0x95
 1781 02ec E9000000 		.4byte	0xe9
 1782 02f0 02       		.byte	0x2
 1783 02f1 91       		.byte	0x91
 1784 02f2 68       		.sleb128 -24
 1785 02f3 0D       		.uleb128 0xd
 1786 02f4 8D000000 		.4byte	.LASF15
 1787 02f8 02       		.byte	0x2
 1788 02f9 96       		.byte	0x96
 1789 02fa A7000000 		.4byte	0xa7
 1790 02fe 02       		.byte	0x2
 1791 02ff 91       		.byte	0x91
 1792 0300 60       		.sleb128 -32
 1793 0301 0F       		.uleb128 0xf
 1794 0302 72030000 		.4byte	.LASF31
 1795 0306 02       		.byte	0x2
 1796 0307 A0       		.byte	0xa0
 1797 0308 53010000 		.4byte	0x153
 1798 030c 02       		.byte	0x2
 1799 030d 91       		.byte	0x91
 1800 030e 74       		.sleb128 -12
 1801 030f 00       		.byte	0
 1802 0310 0C       		.uleb128 0xc
 1803 0311 01       		.byte	0x1
 1804 0312 05000000 		.4byte	.LASF32
 1805 0316 02       		.byte	0x2
 1806 0317 79       		.byte	0x79
 1807 0318 01       		.byte	0x1
 1808 0319 53010000 		.4byte	0x153
 1809 031d 5C030000 		.4byte	.LFB14
 1810 0321 D0030000 		.4byte	.LFE14
 1811 0325 90010000 		.4byte	.LLST10
 1812 0329 01       		.byte	0x1
 1813 032a 59030000 		.4byte	0x359
 1814 032e 0D       		.uleb128 0xd
 1815 032f 3D020000 		.4byte	.LASF25
 1816 0333 02       		.byte	0x2
 1817 0334 79       		.byte	0x79
 1818 0335 DA010000 		.4byte	0x1da
 1819 0339 02       		.byte	0x2
 1820 033a 91       		.byte	0x91
ARM GAS  G:\Users\Jaxb\AppData\Local\Temp\cc09mc5r.s 			page 40


 1821 033b 6C       		.sleb128 -20
 1822 033c 0D       		.uleb128 0xd
 1823 033d AF020000 		.4byte	.LASF14
 1824 0341 02       		.byte	0x2
 1825 0342 79       		.byte	0x79
 1826 0343 E9000000 		.4byte	0xe9
 1827 0347 02       		.byte	0x2
 1828 0348 91       		.byte	0x91
 1829 0349 68       		.sleb128 -24
 1830 034a 0F       		.uleb128 0xf
 1831 034b 72030000 		.4byte	.LASF31
 1832 034f 02       		.byte	0x2
 1833 0350 83       		.byte	0x83
 1834 0351 53010000 		.4byte	0x153
 1835 0355 02       		.byte	0x2
 1836 0356 91       		.byte	0x91
 1837 0357 74       		.sleb128 -12
 1838 0358 00       		.byte	0
 1839 0359 0C       		.uleb128 0xc
 1840 035a 01       		.byte	0x1
 1841 035b CF000000 		.4byte	.LASF33
 1842 035f 02       		.byte	0x2
 1843 0360 61       		.byte	0x61
 1844 0361 01       		.byte	0x1
 1845 0362 53010000 		.4byte	0x153
 1846 0366 E4020000 		.4byte	.LFB13
 1847 036a 5C030000 		.4byte	.LFE13
 1848 036e E0010000 		.4byte	.LLST9
 1849 0372 01       		.byte	0x1
 1850 0373 AC030000 		.4byte	0x3ac
 1851 0377 0D       		.uleb128 0xd
 1852 0378 3D020000 		.4byte	.LASF25
 1853 037c 02       		.byte	0x2
 1854 037d 61       		.byte	0x61
 1855 037e DA010000 		.4byte	0x1da
 1856 0382 02       		.byte	0x2
 1857 0383 91       		.byte	0x91
 1858 0384 6C       		.sleb128 -20
 1859 0385 11       		.uleb128 0x11
 1860 0386 706F7300 		.ascii	"pos\000"
 1861 038a 02       		.byte	0x2
 1862 038b 6F       		.byte	0x6f
 1863 038c 53000000 		.4byte	0x53
 1864 0390 02       		.byte	0x2
 1865 0391 91       		.byte	0x91
 1866 0392 74       		.sleb128 -12
 1867 0393 0E       		.uleb128 0xe
 1868 0394 42030000 		.4byte	.LBB5
 1869 0398 4A030000 		.4byte	.LBE5
 1870 039c 0F       		.uleb128 0xf
 1871 039d 3C010000 		.4byte	.LASF30
 1872 03a1 02       		.byte	0x2
 1873 03a2 74       		.byte	0x74
 1874 03a3 E0010000 		.4byte	0x1e0
 1875 03a7 02       		.byte	0x2
 1876 03a8 91       		.byte	0x91
 1877 03a9 70       		.sleb128 -16
ARM GAS  G:\Users\Jaxb\AppData\Local\Temp\cc09mc5r.s 			page 41


 1878 03aa 00       		.byte	0
 1879 03ab 00       		.byte	0
 1880 03ac 0C       		.uleb128 0xc
 1881 03ad 01       		.byte	0x1
 1882 03ae F0010000 		.4byte	.LASF34
 1883 03b2 02       		.byte	0x2
 1884 03b3 46       		.byte	0x46
 1885 03b4 01       		.byte	0x1
 1886 03b5 53010000 		.4byte	0x153
 1887 03b9 38020000 		.4byte	.LFB12
 1888 03bd E4020000 		.4byte	.LFE12
 1889 03c1 30020000 		.4byte	.LLST8
 1890 03c5 01       		.byte	0x1
 1891 03c6 29040000 		.4byte	0x429
 1892 03ca 0D       		.uleb128 0xd
 1893 03cb 3D020000 		.4byte	.LASF25
 1894 03cf 02       		.byte	0x2
 1895 03d0 46       		.byte	0x46
 1896 03d1 DA010000 		.4byte	0x1da
 1897 03d5 02       		.byte	0x2
 1898 03d6 91       		.byte	0x91
 1899 03d7 5C       		.sleb128 -36
 1900 03d8 0D       		.uleb128 0xd
 1901 03d9 AF020000 		.4byte	.LASF14
 1902 03dd 02       		.byte	0x2
 1903 03de 46       		.byte	0x46
 1904 03df E9000000 		.4byte	0xe9
 1905 03e3 02       		.byte	0x2
 1906 03e4 91       		.byte	0x91
 1907 03e5 58       		.sleb128 -40
 1908 03e6 0D       		.uleb128 0xd
 1909 03e7 8D000000 		.4byte	.LASF15
 1910 03eb 02       		.byte	0x2
 1911 03ec 46       		.byte	0x46
 1912 03ed A7000000 		.4byte	0xa7
 1913 03f1 02       		.byte	0x2
 1914 03f2 91       		.byte	0x91
 1915 03f3 50       		.sleb128 -48
 1916 03f4 11       		.uleb128 0x11
 1917 03f5 706F7300 		.ascii	"pos\000"
 1918 03f9 02       		.byte	0x2
 1919 03fa 52       		.byte	0x52
 1920 03fb 53000000 		.4byte	0x53
 1921 03ff 02       		.byte	0x2
 1922 0400 91       		.byte	0x91
 1923 0401 6C       		.sleb128 -20
 1924 0402 0F       		.uleb128 0xf
 1925 0403 6D020000 		.4byte	.LASF35
 1926 0407 02       		.byte	0x2
 1927 0408 53       		.byte	0x53
 1928 0409 53010000 		.4byte	0x153
 1929 040d 02       		.byte	0x2
 1930 040e 91       		.byte	0x91
 1931 040f 64       		.sleb128 -28
 1932 0410 0E       		.uleb128 0xe
 1933 0411 86020000 		.4byte	.LBB4
 1934 0415 8E020000 		.4byte	.LBE4
ARM GAS  G:\Users\Jaxb\AppData\Local\Temp\cc09mc5r.s 			page 42


 1935 0419 0F       		.uleb128 0xf
 1936 041a 3C010000 		.4byte	.LASF30
 1937 041e 02       		.byte	0x2
 1938 041f 56       		.byte	0x56
 1939 0420 E0010000 		.4byte	0x1e0
 1940 0424 02       		.byte	0x2
 1941 0425 91       		.byte	0x91
 1942 0426 68       		.sleb128 -24
 1943 0427 00       		.byte	0
 1944 0428 00       		.byte	0
 1945 0429 0C       		.uleb128 0xc
 1946 042a 01       		.byte	0x1
 1947 042b 61010000 		.4byte	.LASF36
 1948 042f 02       		.byte	0x2
 1949 0430 2B       		.byte	0x2b
 1950 0431 01       		.byte	0x1
 1951 0432 53010000 		.4byte	0x153
 1952 0436 A8010000 		.4byte	.LFB11
 1953 043a 38020000 		.4byte	.LFE11
 1954 043e 80020000 		.4byte	.LLST7
 1955 0442 01       		.byte	0x1
 1956 0443 98040000 		.4byte	0x498
 1957 0447 0D       		.uleb128 0xd
 1958 0448 3D020000 		.4byte	.LASF25
 1959 044c 02       		.byte	0x2
 1960 044d 2B       		.byte	0x2b
 1961 044e DA010000 		.4byte	0x1da
 1962 0452 02       		.byte	0x2
 1963 0453 91       		.byte	0x91
 1964 0454 64       		.sleb128 -28
 1965 0455 0D       		.uleb128 0xd
 1966 0456 AF020000 		.4byte	.LASF14
 1967 045a 02       		.byte	0x2
 1968 045b 2B       		.byte	0x2b
 1969 045c E9000000 		.4byte	0xe9
 1970 0460 02       		.byte	0x2
 1971 0461 91       		.byte	0x91
 1972 0462 60       		.sleb128 -32
 1973 0463 11       		.uleb128 0x11
 1974 0464 706F7300 		.ascii	"pos\000"
 1975 0468 02       		.byte	0x2
 1976 0469 37       		.byte	0x37
 1977 046a 53000000 		.4byte	0x53
 1978 046e 02       		.byte	0x2
 1979 046f 91       		.byte	0x91
 1980 0470 74       		.sleb128 -12
 1981 0471 0F       		.uleb128 0xf
 1982 0472 6D020000 		.4byte	.LASF35
 1983 0476 02       		.byte	0x2
 1984 0477 38       		.byte	0x38
 1985 0478 53010000 		.4byte	0x153
 1986 047c 02       		.byte	0x2
 1987 047d 91       		.byte	0x91
 1988 047e 6C       		.sleb128 -20
 1989 047f 0E       		.uleb128 0xe
 1990 0480 F2010000 		.4byte	.LBB3
 1991 0484 FA010000 		.4byte	.LBE3
ARM GAS  G:\Users\Jaxb\AppData\Local\Temp\cc09mc5r.s 			page 43


 1992 0488 0F       		.uleb128 0xf
 1993 0489 3C010000 		.4byte	.LASF30
 1994 048d 02       		.byte	0x2
 1995 048e 3C       		.byte	0x3c
 1996 048f E0010000 		.4byte	0x1e0
 1997 0493 02       		.byte	0x2
 1998 0494 91       		.byte	0x91
 1999 0495 70       		.sleb128 -16
 2000 0496 00       		.byte	0
 2001 0497 00       		.byte	0
 2002 0498 0C       		.uleb128 0xc
 2003 0499 01       		.byte	0x1
 2004 049a 3A000000 		.4byte	.LASF37
 2005 049e 02       		.byte	0x2
 2006 049f 07       		.byte	0x7
 2007 04a0 01       		.byte	0x1
 2008 04a1 67000000 		.4byte	0x67
 2009 04a5 CE000000 		.4byte	.LFB10
 2010 04a9 A8010000 		.4byte	.LFE10
 2011 04ad D0020000 		.4byte	.LLST6
 2012 04b1 01       		.byte	0x1
 2013 04b2 07050000 		.4byte	0x507
 2014 04b6 0D       		.uleb128 0xd
 2015 04b7 AF020000 		.4byte	.LASF14
 2016 04bb 02       		.byte	0x2
 2017 04bc 07       		.byte	0x7
 2018 04bd 53010000 		.4byte	0x153
 2019 04c1 02       		.byte	0x2
 2020 04c2 91       		.byte	0x91
 2021 04c3 64       		.sleb128 -28
 2022 04c4 0D       		.uleb128 0xd
 2023 04c5 3D020000 		.4byte	.LASF25
 2024 04c9 02       		.byte	0x2
 2025 04ca 07       		.byte	0x7
 2026 04cb DA010000 		.4byte	0x1da
 2027 04cf 02       		.byte	0x2
 2028 04d0 91       		.byte	0x91
 2029 04d1 60       		.sleb128 -32
 2030 04d2 0F       		.uleb128 0xf
 2031 04d3 6D020000 		.4byte	.LASF35
 2032 04d7 02       		.byte	0x2
 2033 04d8 13       		.byte	0x13
 2034 04d9 53010000 		.4byte	0x153
 2035 04dd 02       		.byte	0x2
 2036 04de 91       		.byte	0x91
 2037 04df 6C       		.sleb128 -20
 2038 04e0 11       		.uleb128 0x11
 2039 04e1 706F7300 		.ascii	"pos\000"
 2040 04e5 02       		.byte	0x2
 2041 04e6 14       		.byte	0x14
 2042 04e7 53000000 		.4byte	0x53
 2043 04eb 02       		.byte	0x2
 2044 04ec 91       		.byte	0x91
 2045 04ed 74       		.sleb128 -12
 2046 04ee 0E       		.uleb128 0xe
 2047 04ef 1A010000 		.4byte	.LBB2
 2048 04f3 22010000 		.4byte	.LBE2
ARM GAS  G:\Users\Jaxb\AppData\Local\Temp\cc09mc5r.s 			page 44


 2049 04f7 0F       		.uleb128 0xf
 2050 04f8 3C010000 		.4byte	.LASF30
 2051 04fc 02       		.byte	0x2
 2052 04fd 18       		.byte	0x18
 2053 04fe E0010000 		.4byte	0x1e0
 2054 0502 02       		.byte	0x2
 2055 0503 91       		.byte	0x91
 2056 0504 70       		.sleb128 -16
 2057 0505 00       		.byte	0
 2058 0506 00       		.byte	0
 2059 0507 12       		.uleb128 0x12
 2060 0508 5C000000 		.4byte	.LASF48
 2061 050c 01       		.byte	0x1
 2062 050d 52       		.byte	0x52
 2063 050e 01       		.byte	0x1
 2064 050f 67000000 		.4byte	0x67
 2065 0513 AC000000 		.4byte	.LFB9
 2066 0517 CE000000 		.4byte	.LFE9
 2067 051b 20030000 		.4byte	.LLST5
 2068 051f 01       		.byte	0x1
 2069 0520 33050000 		.4byte	0x533
 2070 0524 0D       		.uleb128 0xd
 2071 0525 C7010000 		.4byte	.LASF38
 2072 0529 01       		.byte	0x1
 2073 052a 52       		.byte	0x52
 2074 052b E0010000 		.4byte	0x1e0
 2075 052f 02       		.byte	0x2
 2076 0530 91       		.byte	0x91
 2077 0531 74       		.sleb128 -12
 2078 0532 00       		.byte	0
 2079 0533 13       		.uleb128 0x13
 2080 0534 84000000 		.4byte	.LASF40
 2081 0538 01       		.byte	0x1
 2082 0539 35       		.byte	0x35
 2083 053a 01       		.byte	0x1
 2084 053b 8C000000 		.4byte	.LFB5
 2085 053f AC000000 		.4byte	.LFE5
 2086 0543 7C030000 		.4byte	.LLST4
 2087 0547 01       		.byte	0x1
 2088 0548 5B050000 		.4byte	0x55b
 2089 054c 0D       		.uleb128 0xd
 2090 054d 7D030000 		.4byte	.LASF39
 2091 0551 01       		.byte	0x1
 2092 0552 35       		.byte	0x35
 2093 0553 53000000 		.4byte	0x53
 2094 0557 02       		.byte	0x2
 2095 0558 91       		.byte	0x91
 2096 0559 74       		.sleb128 -12
 2097 055a 00       		.byte	0
 2098 055b 14       		.uleb128 0x14
 2099 055c BC010000 		.4byte	.LASF41
 2100 0560 01       		.byte	0x1
 2101 0561 2E       		.byte	0x2e
 2102 0562 01       		.byte	0x1
 2103 0563 6C000000 		.4byte	.LFB4
 2104 0567 8C000000 		.4byte	.LFE4
 2105 056b CC030000 		.4byte	.LLST3
ARM GAS  G:\Users\Jaxb\AppData\Local\Temp\cc09mc5r.s 			page 45


 2106 056f 01       		.byte	0x1
 2107 0570 91050000 		.4byte	0x591
 2108 0574 0D       		.uleb128 0xd
 2109 0575 83030000 		.4byte	.LASF1
 2110 0579 01       		.byte	0x1
 2111 057a 2E       		.byte	0x2e
 2112 057b 53000000 		.4byte	0x53
 2113 057f 02       		.byte	0x2
 2114 0580 91       		.byte	0x91
 2115 0581 74       		.sleb128 -12
 2116 0582 0D       		.uleb128 0xd
 2117 0583 24000000 		.4byte	.LASF0
 2118 0587 01       		.byte	0x1
 2119 0588 2E       		.byte	0x2e
 2120 0589 53000000 		.4byte	0x53
 2121 058d 02       		.byte	0x2
 2122 058e 91       		.byte	0x91
 2123 058f 70       		.sleb128 -16
 2124 0590 00       		.byte	0
 2125 0591 13       		.uleb128 0x13
 2126 0592 E7000000 		.4byte	.LASF42
 2127 0596 01       		.byte	0x1
 2128 0597 28       		.byte	0x28
 2129 0598 01       		.byte	0x1
 2130 0599 4C000000 		.4byte	.LFB3
 2131 059d 6C000000 		.4byte	.LFE3
 2132 05a1 28040000 		.4byte	.LLST2
 2133 05a5 01       		.byte	0x1
 2134 05a6 C7050000 		.4byte	0x5c7
 2135 05aa 15       		.uleb128 0x15
 2136 05ab 6E657700 		.ascii	"new\000"
 2137 05af 01       		.byte	0x1
 2138 05b0 28       		.byte	0x28
 2139 05b1 53000000 		.4byte	0x53
 2140 05b5 02       		.byte	0x2
 2141 05b6 91       		.byte	0x91
 2142 05b7 74       		.sleb128 -12
 2143 05b8 0D       		.uleb128 0xd
 2144 05b9 C7010000 		.4byte	.LASF38
 2145 05bd 01       		.byte	0x1
 2146 05be 28       		.byte	0x28
 2147 05bf 53000000 		.4byte	0x53
 2148 05c3 02       		.byte	0x2
 2149 05c4 91       		.byte	0x91
 2150 05c5 70       		.sleb128 -16
 2151 05c6 00       		.byte	0
 2152 05c7 14       		.uleb128 0x14
 2153 05c8 74020000 		.4byte	.LASF43
 2154 05cc 01       		.byte	0x1
 2155 05cd 17       		.byte	0x17
 2156 05ce 01       		.byte	0x1
 2157 05cf 1E000000 		.4byte	.LFB1
 2158 05d3 4C000000 		.4byte	.LFE1
 2159 05d7 78040000 		.4byte	.LLST1
 2160 05db 01       		.byte	0x1
 2161 05dc 0B060000 		.4byte	0x60b
 2162 05e0 15       		.uleb128 0x15
ARM GAS  G:\Users\Jaxb\AppData\Local\Temp\cc09mc5r.s 			page 46


 2163 05e1 6E657700 		.ascii	"new\000"
 2164 05e5 01       		.byte	0x1
 2165 05e6 17       		.byte	0x17
 2166 05e7 53000000 		.4byte	0x53
 2167 05eb 02       		.byte	0x2
 2168 05ec 91       		.byte	0x91
 2169 05ed 74       		.sleb128 -12
 2170 05ee 0D       		.uleb128 0xd
 2171 05ef 83030000 		.4byte	.LASF1
 2172 05f3 01       		.byte	0x1
 2173 05f4 18       		.byte	0x18
 2174 05f5 53000000 		.4byte	0x53
 2175 05f9 02       		.byte	0x2
 2176 05fa 91       		.byte	0x91
 2177 05fb 70       		.sleb128 -16
 2178 05fc 0D       		.uleb128 0xd
 2179 05fd 24000000 		.4byte	.LASF0
 2180 0601 01       		.byte	0x1
 2181 0602 19       		.byte	0x19
 2182 0603 53000000 		.4byte	0x53
 2183 0607 02       		.byte	0x2
 2184 0608 91       		.byte	0x91
 2185 0609 6C       		.sleb128 -20
 2186 060a 00       		.byte	0
 2187 060b 16       		.uleb128 0x16
 2188 060c 54020000 		.4byte	.LASF49
 2189 0610 01       		.byte	0x1
 2190 0611 10       		.byte	0x10
 2191 0612 01       		.byte	0x1
 2192 0613 00000000 		.4byte	.LFB0
 2193 0617 1E000000 		.4byte	.LFE0
 2194 061b D4040000 		.4byte	.LLST0
 2195 061f 01       		.byte	0x1
 2196 0620 0D       		.uleb128 0xd
 2197 0621 00000000 		.4byte	.LASF44
 2198 0625 01       		.byte	0x1
 2199 0626 10       		.byte	0x10
 2200 0627 53000000 		.4byte	0x53
 2201 062b 02       		.byte	0x2
 2202 062c 91       		.byte	0x91
 2203 062d 74       		.sleb128 -12
 2204 062e 00       		.byte	0
 2205 062f 00       		.byte	0
 2206              		.section	.debug_abbrev,"",%progbits
 2207              	.Ldebug_abbrev0:
 2208 0000 01       		.uleb128 0x1
 2209 0001 11       		.uleb128 0x11
 2210 0002 01       		.byte	0x1
 2211 0003 25       		.uleb128 0x25
 2212 0004 0E       		.uleb128 0xe
 2213 0005 13       		.uleb128 0x13
 2214 0006 0B       		.uleb128 0xb
 2215 0007 03       		.uleb128 0x3
 2216 0008 0E       		.uleb128 0xe
 2217 0009 1B       		.uleb128 0x1b
 2218 000a 0E       		.uleb128 0xe
 2219 000b 11       		.uleb128 0x11
ARM GAS  G:\Users\Jaxb\AppData\Local\Temp\cc09mc5r.s 			page 47


 2220 000c 01       		.uleb128 0x1
 2221 000d 12       		.uleb128 0x12
 2222 000e 01       		.uleb128 0x1
 2223 000f 10       		.uleb128 0x10
 2224 0010 06       		.uleb128 0x6
 2225 0011 00       		.byte	0
 2226 0012 00       		.byte	0
 2227 0013 02       		.uleb128 0x2
 2228 0014 13       		.uleb128 0x13
 2229 0015 01       		.byte	0x1
 2230 0016 03       		.uleb128 0x3
 2231 0017 0E       		.uleb128 0xe
 2232 0018 0B       		.uleb128 0xb
 2233 0019 0B       		.uleb128 0xb
 2234 001a 3A       		.uleb128 0x3a
 2235 001b 0B       		.uleb128 0xb
 2236 001c 3B       		.uleb128 0x3b
 2237 001d 0B       		.uleb128 0xb
 2238 001e 01       		.uleb128 0x1
 2239 001f 13       		.uleb128 0x13
 2240 0020 00       		.byte	0
 2241 0021 00       		.byte	0
 2242 0022 03       		.uleb128 0x3
 2243 0023 0D       		.uleb128 0xd
 2244 0024 00       		.byte	0
 2245 0025 03       		.uleb128 0x3
 2246 0026 0E       		.uleb128 0xe
 2247 0027 3A       		.uleb128 0x3a
 2248 0028 0B       		.uleb128 0xb
 2249 0029 3B       		.uleb128 0x3b
 2250 002a 0B       		.uleb128 0xb
 2251 002b 49       		.uleb128 0x49
 2252 002c 13       		.uleb128 0x13
 2253 002d 38       		.uleb128 0x38
 2254 002e 0A       		.uleb128 0xa
 2255 002f 00       		.byte	0
 2256 0030 00       		.byte	0
 2257 0031 04       		.uleb128 0x4
 2258 0032 26       		.uleb128 0x26
 2259 0033 00       		.byte	0
 2260 0034 49       		.uleb128 0x49
 2261 0035 13       		.uleb128 0x13
 2262 0036 00       		.byte	0
 2263 0037 00       		.byte	0
 2264 0038 05       		.uleb128 0x5
 2265 0039 0F       		.uleb128 0xf
 2266 003a 00       		.byte	0
 2267 003b 0B       		.uleb128 0xb
 2268 003c 0B       		.uleb128 0xb
 2269 003d 49       		.uleb128 0x49
 2270 003e 13       		.uleb128 0x13
 2271 003f 00       		.byte	0
 2272 0040 00       		.byte	0
 2273 0041 06       		.uleb128 0x6
 2274 0042 24       		.uleb128 0x24
 2275 0043 00       		.byte	0
 2276 0044 0B       		.uleb128 0xb
ARM GAS  G:\Users\Jaxb\AppData\Local\Temp\cc09mc5r.s 			page 48


 2277 0045 0B       		.uleb128 0xb
 2278 0046 3E       		.uleb128 0x3e
 2279 0047 0B       		.uleb128 0xb
 2280 0048 03       		.uleb128 0x3
 2281 0049 0E       		.uleb128 0xe
 2282 004a 00       		.byte	0
 2283 004b 00       		.byte	0
 2284 004c 07       		.uleb128 0x7
 2285 004d 24       		.uleb128 0x24
 2286 004e 00       		.byte	0
 2287 004f 0B       		.uleb128 0xb
 2288 0050 0B       		.uleb128 0xb
 2289 0051 3E       		.uleb128 0x3e
 2290 0052 0B       		.uleb128 0xb
 2291 0053 03       		.uleb128 0x3
 2292 0054 08       		.uleb128 0x8
 2293 0055 00       		.byte	0
 2294 0056 00       		.byte	0
 2295 0057 08       		.uleb128 0x8
 2296 0058 16       		.uleb128 0x16
 2297 0059 00       		.byte	0
 2298 005a 03       		.uleb128 0x3
 2299 005b 0E       		.uleb128 0xe
 2300 005c 3A       		.uleb128 0x3a
 2301 005d 0B       		.uleb128 0xb
 2302 005e 3B       		.uleb128 0x3b
 2303 005f 0B       		.uleb128 0xb
 2304 0060 49       		.uleb128 0x49
 2305 0061 13       		.uleb128 0x13
 2306 0062 00       		.byte	0
 2307 0063 00       		.byte	0
 2308 0064 09       		.uleb128 0x9
 2309 0065 0F       		.uleb128 0xf
 2310 0066 00       		.byte	0
 2311 0067 0B       		.uleb128 0xb
 2312 0068 0B       		.uleb128 0xb
 2313 0069 00       		.byte	0
 2314 006a 00       		.byte	0
 2315 006b 0A       		.uleb128 0xa
 2316 006c 15       		.uleb128 0x15
 2317 006d 01       		.byte	0x1
 2318 006e 27       		.uleb128 0x27
 2319 006f 0C       		.uleb128 0xc
 2320 0070 49       		.uleb128 0x49
 2321 0071 13       		.uleb128 0x13
 2322 0072 01       		.uleb128 0x1
 2323 0073 13       		.uleb128 0x13
 2324 0074 00       		.byte	0
 2325 0075 00       		.byte	0
 2326 0076 0B       		.uleb128 0xb
 2327 0077 05       		.uleb128 0x5
 2328 0078 00       		.byte	0
 2329 0079 49       		.uleb128 0x49
 2330 007a 13       		.uleb128 0x13
 2331 007b 00       		.byte	0
 2332 007c 00       		.byte	0
 2333 007d 0C       		.uleb128 0xc
ARM GAS  G:\Users\Jaxb\AppData\Local\Temp\cc09mc5r.s 			page 49


 2334 007e 2E       		.uleb128 0x2e
 2335 007f 01       		.byte	0x1
 2336 0080 3F       		.uleb128 0x3f
 2337 0081 0C       		.uleb128 0xc
 2338 0082 03       		.uleb128 0x3
 2339 0083 0E       		.uleb128 0xe
 2340 0084 3A       		.uleb128 0x3a
 2341 0085 0B       		.uleb128 0xb
 2342 0086 3B       		.uleb128 0x3b
 2343 0087 0B       		.uleb128 0xb
 2344 0088 27       		.uleb128 0x27
 2345 0089 0C       		.uleb128 0xc
 2346 008a 49       		.uleb128 0x49
 2347 008b 13       		.uleb128 0x13
 2348 008c 11       		.uleb128 0x11
 2349 008d 01       		.uleb128 0x1
 2350 008e 12       		.uleb128 0x12
 2351 008f 01       		.uleb128 0x1
 2352 0090 40       		.uleb128 0x40
 2353 0091 06       		.uleb128 0x6
 2354 0092 9642     		.uleb128 0x2116
 2355 0094 0C       		.uleb128 0xc
 2356 0095 01       		.uleb128 0x1
 2357 0096 13       		.uleb128 0x13
 2358 0097 00       		.byte	0
 2359 0098 00       		.byte	0
 2360 0099 0D       		.uleb128 0xd
 2361 009a 05       		.uleb128 0x5
 2362 009b 00       		.byte	0
 2363 009c 03       		.uleb128 0x3
 2364 009d 0E       		.uleb128 0xe
 2365 009e 3A       		.uleb128 0x3a
 2366 009f 0B       		.uleb128 0xb
 2367 00a0 3B       		.uleb128 0x3b
 2368 00a1 0B       		.uleb128 0xb
 2369 00a2 49       		.uleb128 0x49
 2370 00a3 13       		.uleb128 0x13
 2371 00a4 02       		.uleb128 0x2
 2372 00a5 0A       		.uleb128 0xa
 2373 00a6 00       		.byte	0
 2374 00a7 00       		.byte	0
 2375 00a8 0E       		.uleb128 0xe
 2376 00a9 0B       		.uleb128 0xb
 2377 00aa 01       		.byte	0x1
 2378 00ab 11       		.uleb128 0x11
 2379 00ac 01       		.uleb128 0x1
 2380 00ad 12       		.uleb128 0x12
 2381 00ae 01       		.uleb128 0x1
 2382 00af 00       		.byte	0
 2383 00b0 00       		.byte	0
 2384 00b1 0F       		.uleb128 0xf
 2385 00b2 34       		.uleb128 0x34
 2386 00b3 00       		.byte	0
 2387 00b4 03       		.uleb128 0x3
 2388 00b5 0E       		.uleb128 0xe
 2389 00b6 3A       		.uleb128 0x3a
 2390 00b7 0B       		.uleb128 0xb
ARM GAS  G:\Users\Jaxb\AppData\Local\Temp\cc09mc5r.s 			page 50


 2391 00b8 3B       		.uleb128 0x3b
 2392 00b9 0B       		.uleb128 0xb
 2393 00ba 49       		.uleb128 0x49
 2394 00bb 13       		.uleb128 0x13
 2395 00bc 02       		.uleb128 0x2
 2396 00bd 0A       		.uleb128 0xa
 2397 00be 00       		.byte	0
 2398 00bf 00       		.byte	0
 2399 00c0 10       		.uleb128 0x10
 2400 00c1 2E       		.uleb128 0x2e
 2401 00c2 01       		.byte	0x1
 2402 00c3 3F       		.uleb128 0x3f
 2403 00c4 0C       		.uleb128 0xc
 2404 00c5 03       		.uleb128 0x3
 2405 00c6 0E       		.uleb128 0xe
 2406 00c7 3A       		.uleb128 0x3a
 2407 00c8 0B       		.uleb128 0xb
 2408 00c9 3B       		.uleb128 0x3b
 2409 00ca 0B       		.uleb128 0xb
 2410 00cb 27       		.uleb128 0x27
 2411 00cc 0C       		.uleb128 0xc
 2412 00cd 11       		.uleb128 0x11
 2413 00ce 01       		.uleb128 0x1
 2414 00cf 12       		.uleb128 0x12
 2415 00d0 01       		.uleb128 0x1
 2416 00d1 40       		.uleb128 0x40
 2417 00d2 06       		.uleb128 0x6
 2418 00d3 9642     		.uleb128 0x2116
 2419 00d5 0C       		.uleb128 0xc
 2420 00d6 01       		.uleb128 0x1
 2421 00d7 13       		.uleb128 0x13
 2422 00d8 00       		.byte	0
 2423 00d9 00       		.byte	0
 2424 00da 11       		.uleb128 0x11
 2425 00db 34       		.uleb128 0x34
 2426 00dc 00       		.byte	0
 2427 00dd 03       		.uleb128 0x3
 2428 00de 08       		.uleb128 0x8
 2429 00df 3A       		.uleb128 0x3a
 2430 00e0 0B       		.uleb128 0xb
 2431 00e1 3B       		.uleb128 0x3b
 2432 00e2 0B       		.uleb128 0xb
 2433 00e3 49       		.uleb128 0x49
 2434 00e4 13       		.uleb128 0x13
 2435 00e5 02       		.uleb128 0x2
 2436 00e6 0A       		.uleb128 0xa
 2437 00e7 00       		.byte	0
 2438 00e8 00       		.byte	0
 2439 00e9 12       		.uleb128 0x12
 2440 00ea 2E       		.uleb128 0x2e
 2441 00eb 01       		.byte	0x1
 2442 00ec 03       		.uleb128 0x3
 2443 00ed 0E       		.uleb128 0xe
 2444 00ee 3A       		.uleb128 0x3a
 2445 00ef 0B       		.uleb128 0xb
 2446 00f0 3B       		.uleb128 0x3b
 2447 00f1 0B       		.uleb128 0xb
ARM GAS  G:\Users\Jaxb\AppData\Local\Temp\cc09mc5r.s 			page 51


 2448 00f2 27       		.uleb128 0x27
 2449 00f3 0C       		.uleb128 0xc
 2450 00f4 49       		.uleb128 0x49
 2451 00f5 13       		.uleb128 0x13
 2452 00f6 11       		.uleb128 0x11
 2453 00f7 01       		.uleb128 0x1
 2454 00f8 12       		.uleb128 0x12
 2455 00f9 01       		.uleb128 0x1
 2456 00fa 40       		.uleb128 0x40
 2457 00fb 06       		.uleb128 0x6
 2458 00fc 9742     		.uleb128 0x2117
 2459 00fe 0C       		.uleb128 0xc
 2460 00ff 01       		.uleb128 0x1
 2461 0100 13       		.uleb128 0x13
 2462 0101 00       		.byte	0
 2463 0102 00       		.byte	0
 2464 0103 13       		.uleb128 0x13
 2465 0104 2E       		.uleb128 0x2e
 2466 0105 01       		.byte	0x1
 2467 0106 03       		.uleb128 0x3
 2468 0107 0E       		.uleb128 0xe
 2469 0108 3A       		.uleb128 0x3a
 2470 0109 0B       		.uleb128 0xb
 2471 010a 3B       		.uleb128 0x3b
 2472 010b 0B       		.uleb128 0xb
 2473 010c 27       		.uleb128 0x27
 2474 010d 0C       		.uleb128 0xc
 2475 010e 11       		.uleb128 0x11
 2476 010f 01       		.uleb128 0x1
 2477 0110 12       		.uleb128 0x12
 2478 0111 01       		.uleb128 0x1
 2479 0112 40       		.uleb128 0x40
 2480 0113 06       		.uleb128 0x6
 2481 0114 9642     		.uleb128 0x2116
 2482 0116 0C       		.uleb128 0xc
 2483 0117 01       		.uleb128 0x1
 2484 0118 13       		.uleb128 0x13
 2485 0119 00       		.byte	0
 2486 011a 00       		.byte	0
 2487 011b 14       		.uleb128 0x14
 2488 011c 2E       		.uleb128 0x2e
 2489 011d 01       		.byte	0x1
 2490 011e 03       		.uleb128 0x3
 2491 011f 0E       		.uleb128 0xe
 2492 0120 3A       		.uleb128 0x3a
 2493 0121 0B       		.uleb128 0xb
 2494 0122 3B       		.uleb128 0x3b
 2495 0123 0B       		.uleb128 0xb
 2496 0124 27       		.uleb128 0x27
 2497 0125 0C       		.uleb128 0xc
 2498 0126 11       		.uleb128 0x11
 2499 0127 01       		.uleb128 0x1
 2500 0128 12       		.uleb128 0x12
 2501 0129 01       		.uleb128 0x1
 2502 012a 40       		.uleb128 0x40
 2503 012b 06       		.uleb128 0x6
 2504 012c 9742     		.uleb128 0x2117
ARM GAS  G:\Users\Jaxb\AppData\Local\Temp\cc09mc5r.s 			page 52


 2505 012e 0C       		.uleb128 0xc
 2506 012f 01       		.uleb128 0x1
 2507 0130 13       		.uleb128 0x13
 2508 0131 00       		.byte	0
 2509 0132 00       		.byte	0
 2510 0133 15       		.uleb128 0x15
 2511 0134 05       		.uleb128 0x5
 2512 0135 00       		.byte	0
 2513 0136 03       		.uleb128 0x3
 2514 0137 08       		.uleb128 0x8
 2515 0138 3A       		.uleb128 0x3a
 2516 0139 0B       		.uleb128 0xb
 2517 013a 3B       		.uleb128 0x3b
 2518 013b 0B       		.uleb128 0xb
 2519 013c 49       		.uleb128 0x49
 2520 013d 13       		.uleb128 0x13
 2521 013e 02       		.uleb128 0x2
 2522 013f 0A       		.uleb128 0xa
 2523 0140 00       		.byte	0
 2524 0141 00       		.byte	0
 2525 0142 16       		.uleb128 0x16
 2526 0143 2E       		.uleb128 0x2e
 2527 0144 01       		.byte	0x1
 2528 0145 03       		.uleb128 0x3
 2529 0146 0E       		.uleb128 0xe
 2530 0147 3A       		.uleb128 0x3a
 2531 0148 0B       		.uleb128 0xb
 2532 0149 3B       		.uleb128 0x3b
 2533 014a 0B       		.uleb128 0xb
 2534 014b 27       		.uleb128 0x27
 2535 014c 0C       		.uleb128 0xc
 2536 014d 11       		.uleb128 0x11
 2537 014e 01       		.uleb128 0x1
 2538 014f 12       		.uleb128 0x12
 2539 0150 01       		.uleb128 0x1
 2540 0151 40       		.uleb128 0x40
 2541 0152 06       		.uleb128 0x6
 2542 0153 9742     		.uleb128 0x2117
 2543 0155 0C       		.uleb128 0xc
 2544 0156 00       		.byte	0
 2545 0157 00       		.byte	0
 2546 0158 00       		.byte	0
 2547              		.section	.debug_loc,"",%progbits
 2548              	.Ldebug_loc0:
 2549              	.LLST15:
 2550 0000 10050000 		.4byte	.LFB19-.Ltext0
 2551 0004 12050000 		.4byte	.LCFI79-.Ltext0
 2552 0008 0200     		.2byte	0x2
 2553 000a 7D       		.byte	0x7d
 2554 000b 00       		.sleb128 0
 2555 000c 12050000 		.4byte	.LCFI79-.Ltext0
 2556 0010 14050000 		.4byte	.LCFI80-.Ltext0
 2557 0014 0200     		.2byte	0x2
 2558 0016 7D       		.byte	0x7d
 2559 0017 08       		.sleb128 8
 2560 0018 14050000 		.4byte	.LCFI80-.Ltext0
 2561 001c 16050000 		.4byte	.LCFI81-.Ltext0
ARM GAS  G:\Users\Jaxb\AppData\Local\Temp\cc09mc5r.s 			page 53


 2562 0020 0200     		.2byte	0x2
 2563 0022 7D       		.byte	0x7d
 2564 0023 18       		.sleb128 24
 2565 0024 16050000 		.4byte	.LCFI81-.Ltext0
 2566 0028 58050000 		.4byte	.LCFI82-.Ltext0
 2567 002c 0200     		.2byte	0x2
 2568 002e 77       		.byte	0x77
 2569 002f 18       		.sleb128 24
 2570 0030 58050000 		.4byte	.LCFI82-.Ltext0
 2571 0034 5A050000 		.4byte	.LCFI83-.Ltext0
 2572 0038 0200     		.2byte	0x2
 2573 003a 77       		.byte	0x77
 2574 003b 08       		.sleb128 8
 2575 003c 5A050000 		.4byte	.LCFI83-.Ltext0
 2576 0040 64050000 		.4byte	.LFE19-.Ltext0
 2577 0044 0200     		.2byte	0x2
 2578 0046 7D       		.byte	0x7d
 2579 0047 08       		.sleb128 8
 2580 0048 00000000 		.4byte	0
 2581 004c 00000000 		.4byte	0
 2582              	.LLST14:
 2583 0050 B8040000 		.4byte	.LFB18-.Ltext0
 2584 0054 BA040000 		.4byte	.LCFI74-.Ltext0
 2585 0058 0200     		.2byte	0x2
 2586 005a 7D       		.byte	0x7d
 2587 005b 00       		.sleb128 0
 2588 005c BA040000 		.4byte	.LCFI74-.Ltext0
 2589 0060 BC040000 		.4byte	.LCFI75-.Ltext0
 2590 0064 0200     		.2byte	0x2
 2591 0066 7D       		.byte	0x7d
 2592 0067 08       		.sleb128 8
 2593 0068 BC040000 		.4byte	.LCFI75-.Ltext0
 2594 006c BE040000 		.4byte	.LCFI76-.Ltext0
 2595 0070 0200     		.2byte	0x2
 2596 0072 7D       		.byte	0x7d
 2597 0073 18       		.sleb128 24
 2598 0074 BE040000 		.4byte	.LCFI76-.Ltext0
 2599 0078 06050000 		.4byte	.LCFI77-.Ltext0
 2600 007c 0200     		.2byte	0x2
 2601 007e 77       		.byte	0x77
 2602 007f 18       		.sleb128 24
 2603 0080 06050000 		.4byte	.LCFI77-.Ltext0
 2604 0084 08050000 		.4byte	.LCFI78-.Ltext0
 2605 0088 0200     		.2byte	0x2
 2606 008a 77       		.byte	0x77
 2607 008b 08       		.sleb128 8
 2608 008c 08050000 		.4byte	.LCFI78-.Ltext0
 2609 0090 10050000 		.4byte	.LFE18-.Ltext0
 2610 0094 0200     		.2byte	0x2
 2611 0096 7D       		.byte	0x7d
 2612 0097 08       		.sleb128 8
 2613 0098 00000000 		.4byte	0
 2614 009c 00000000 		.4byte	0
 2615              	.LLST13:
 2616 00a0 90040000 		.4byte	.LFB17-.Ltext0
 2617 00a4 92040000 		.4byte	.LCFI69-.Ltext0
 2618 00a8 0200     		.2byte	0x2
ARM GAS  G:\Users\Jaxb\AppData\Local\Temp\cc09mc5r.s 			page 54


 2619 00aa 7D       		.byte	0x7d
 2620 00ab 00       		.sleb128 0
 2621 00ac 92040000 		.4byte	.LCFI69-.Ltext0
 2622 00b0 94040000 		.4byte	.LCFI70-.Ltext0
 2623 00b4 0200     		.2byte	0x2
 2624 00b6 7D       		.byte	0x7d
 2625 00b7 0C       		.sleb128 12
 2626 00b8 94040000 		.4byte	.LCFI70-.Ltext0
 2627 00bc 96040000 		.4byte	.LCFI71-.Ltext0
 2628 00c0 0200     		.2byte	0x2
 2629 00c2 7D       		.byte	0x7d
 2630 00c3 20       		.sleb128 32
 2631 00c4 96040000 		.4byte	.LCFI71-.Ltext0
 2632 00c8 B4040000 		.4byte	.LCFI72-.Ltext0
 2633 00cc 0200     		.2byte	0x2
 2634 00ce 77       		.byte	0x77
 2635 00cf 20       		.sleb128 32
 2636 00d0 B4040000 		.4byte	.LCFI72-.Ltext0
 2637 00d4 B6040000 		.4byte	.LCFI73-.Ltext0
 2638 00d8 0200     		.2byte	0x2
 2639 00da 77       		.byte	0x77
 2640 00db 0C       		.sleb128 12
 2641 00dc B6040000 		.4byte	.LCFI73-.Ltext0
 2642 00e0 B8040000 		.4byte	.LFE17-.Ltext0
 2643 00e4 0200     		.2byte	0x2
 2644 00e6 7D       		.byte	0x7d
 2645 00e7 0C       		.sleb128 12
 2646 00e8 00000000 		.4byte	0
 2647 00ec 00000000 		.4byte	0
 2648              	.LLST12:
 2649 00f0 4C040000 		.4byte	.LFB16-.Ltext0
 2650 00f4 4E040000 		.4byte	.LCFI64-.Ltext0
 2651 00f8 0200     		.2byte	0x2
 2652 00fa 7D       		.byte	0x7d
 2653 00fb 00       		.sleb128 0
 2654 00fc 4E040000 		.4byte	.LCFI64-.Ltext0
 2655 0100 50040000 		.4byte	.LCFI65-.Ltext0
 2656 0104 0200     		.2byte	0x2
 2657 0106 7D       		.byte	0x7d
 2658 0107 08       		.sleb128 8
 2659 0108 50040000 		.4byte	.LCFI65-.Ltext0
 2660 010c 52040000 		.4byte	.LCFI66-.Ltext0
 2661 0110 0200     		.2byte	0x2
 2662 0112 7D       		.byte	0x7d
 2663 0113 10       		.sleb128 16
 2664 0114 52040000 		.4byte	.LCFI66-.Ltext0
 2665 0118 86040000 		.4byte	.LCFI67-.Ltext0
 2666 011c 0200     		.2byte	0x2
 2667 011e 77       		.byte	0x77
 2668 011f 10       		.sleb128 16
 2669 0120 86040000 		.4byte	.LCFI67-.Ltext0
 2670 0124 88040000 		.4byte	.LCFI68-.Ltext0
 2671 0128 0200     		.2byte	0x2
 2672 012a 77       		.byte	0x77
 2673 012b 08       		.sleb128 8
 2674 012c 88040000 		.4byte	.LCFI68-.Ltext0
 2675 0130 90040000 		.4byte	.LFE16-.Ltext0
ARM GAS  G:\Users\Jaxb\AppData\Local\Temp\cc09mc5r.s 			page 55


 2676 0134 0200     		.2byte	0x2
 2677 0136 7D       		.byte	0x7d
 2678 0137 08       		.sleb128 8
 2679 0138 00000000 		.4byte	0
 2680 013c 00000000 		.4byte	0
 2681              	.LLST11:
 2682 0140 D0030000 		.4byte	.LFB15-.Ltext0
 2683 0144 D2030000 		.4byte	.LCFI59-.Ltext0
 2684 0148 0200     		.2byte	0x2
 2685 014a 7D       		.byte	0x7d
 2686 014b 00       		.sleb128 0
 2687 014c D2030000 		.4byte	.LCFI59-.Ltext0
 2688 0150 D4030000 		.4byte	.LCFI60-.Ltext0
 2689 0154 0200     		.2byte	0x2
 2690 0156 7D       		.byte	0x7d
 2691 0157 08       		.sleb128 8
 2692 0158 D4030000 		.4byte	.LCFI60-.Ltext0
 2693 015c D6030000 		.4byte	.LCFI61-.Ltext0
 2694 0160 0200     		.2byte	0x2
 2695 0162 7D       		.byte	0x7d
 2696 0163 20       		.sleb128 32
 2697 0164 D6030000 		.4byte	.LCFI61-.Ltext0
 2698 0168 3E040000 		.4byte	.LCFI62-.Ltext0
 2699 016c 0200     		.2byte	0x2
 2700 016e 77       		.byte	0x77
 2701 016f 20       		.sleb128 32
 2702 0170 3E040000 		.4byte	.LCFI62-.Ltext0
 2703 0174 40040000 		.4byte	.LCFI63-.Ltext0
 2704 0178 0200     		.2byte	0x2
 2705 017a 77       		.byte	0x77
 2706 017b 08       		.sleb128 8
 2707 017c 40040000 		.4byte	.LCFI63-.Ltext0
 2708 0180 4C040000 		.4byte	.LFE15-.Ltext0
 2709 0184 0200     		.2byte	0x2
 2710 0186 7D       		.byte	0x7d
 2711 0187 08       		.sleb128 8
 2712 0188 00000000 		.4byte	0
 2713 018c 00000000 		.4byte	0
 2714              	.LLST10:
 2715 0190 5C030000 		.4byte	.LFB14-.Ltext0
 2716 0194 5E030000 		.4byte	.LCFI54-.Ltext0
 2717 0198 0200     		.2byte	0x2
 2718 019a 7D       		.byte	0x7d
 2719 019b 00       		.sleb128 0
 2720 019c 5E030000 		.4byte	.LCFI54-.Ltext0
 2721 01a0 60030000 		.4byte	.LCFI55-.Ltext0
 2722 01a4 0200     		.2byte	0x2
 2723 01a6 7D       		.byte	0x7d
 2724 01a7 08       		.sleb128 8
 2725 01a8 60030000 		.4byte	.LCFI55-.Ltext0
 2726 01ac 62030000 		.4byte	.LCFI56-.Ltext0
 2727 01b0 0200     		.2byte	0x2
 2728 01b2 7D       		.byte	0x7d
 2729 01b3 18       		.sleb128 24
 2730 01b4 62030000 		.4byte	.LCFI56-.Ltext0
 2731 01b8 C2030000 		.4byte	.LCFI57-.Ltext0
 2732 01bc 0200     		.2byte	0x2
ARM GAS  G:\Users\Jaxb\AppData\Local\Temp\cc09mc5r.s 			page 56


 2733 01be 77       		.byte	0x77
 2734 01bf 18       		.sleb128 24
 2735 01c0 C2030000 		.4byte	.LCFI57-.Ltext0
 2736 01c4 C4030000 		.4byte	.LCFI58-.Ltext0
 2737 01c8 0200     		.2byte	0x2
 2738 01ca 77       		.byte	0x77
 2739 01cb 08       		.sleb128 8
 2740 01cc C4030000 		.4byte	.LCFI58-.Ltext0
 2741 01d0 D0030000 		.4byte	.LFE14-.Ltext0
 2742 01d4 0200     		.2byte	0x2
 2743 01d6 7D       		.byte	0x7d
 2744 01d7 08       		.sleb128 8
 2745 01d8 00000000 		.4byte	0
 2746 01dc 00000000 		.4byte	0
 2747              	.LLST9:
 2748 01e0 E4020000 		.4byte	.LFB13-.Ltext0
 2749 01e4 E6020000 		.4byte	.LCFI49-.Ltext0
 2750 01e8 0200     		.2byte	0x2
 2751 01ea 7D       		.byte	0x7d
 2752 01eb 00       		.sleb128 0
 2753 01ec E6020000 		.4byte	.LCFI49-.Ltext0
 2754 01f0 E8020000 		.4byte	.LCFI50-.Ltext0
 2755 01f4 0200     		.2byte	0x2
 2756 01f6 7D       		.byte	0x7d
 2757 01f7 08       		.sleb128 8
 2758 01f8 E8020000 		.4byte	.LCFI50-.Ltext0
 2759 01fc EA020000 		.4byte	.LCFI51-.Ltext0
 2760 0200 0200     		.2byte	0x2
 2761 0202 7D       		.byte	0x7d
 2762 0203 18       		.sleb128 24
 2763 0204 EA020000 		.4byte	.LCFI51-.Ltext0
 2764 0208 50030000 		.4byte	.LCFI52-.Ltext0
 2765 020c 0200     		.2byte	0x2
 2766 020e 77       		.byte	0x77
 2767 020f 18       		.sleb128 24
 2768 0210 50030000 		.4byte	.LCFI52-.Ltext0
 2769 0214 52030000 		.4byte	.LCFI53-.Ltext0
 2770 0218 0200     		.2byte	0x2
 2771 021a 77       		.byte	0x77
 2772 021b 08       		.sleb128 8
 2773 021c 52030000 		.4byte	.LCFI53-.Ltext0
 2774 0220 5C030000 		.4byte	.LFE13-.Ltext0
 2775 0224 0200     		.2byte	0x2
 2776 0226 7D       		.byte	0x7d
 2777 0227 08       		.sleb128 8
 2778 0228 00000000 		.4byte	0
 2779 022c 00000000 		.4byte	0
 2780              	.LLST8:
 2781 0230 38020000 		.4byte	.LFB12-.Ltext0
 2782 0234 3A020000 		.4byte	.LCFI44-.Ltext0
 2783 0238 0200     		.2byte	0x2
 2784 023a 7D       		.byte	0x7d
 2785 023b 00       		.sleb128 0
 2786 023c 3A020000 		.4byte	.LCFI44-.Ltext0
 2787 0240 3C020000 		.4byte	.LCFI45-.Ltext0
 2788 0244 0200     		.2byte	0x2
 2789 0246 7D       		.byte	0x7d
ARM GAS  G:\Users\Jaxb\AppData\Local\Temp\cc09mc5r.s 			page 57


 2790 0247 0C       		.sleb128 12
 2791 0248 3C020000 		.4byte	.LCFI45-.Ltext0
 2792 024c 3E020000 		.4byte	.LCFI46-.Ltext0
 2793 0250 0200     		.2byte	0x2
 2794 0252 7D       		.byte	0x7d
 2795 0253 30       		.sleb128 48
 2796 0254 3E020000 		.4byte	.LCFI46-.Ltext0
 2797 0258 D2020000 		.4byte	.LCFI47-.Ltext0
 2798 025c 0200     		.2byte	0x2
 2799 025e 77       		.byte	0x77
 2800 025f 30       		.sleb128 48
 2801 0260 D2020000 		.4byte	.LCFI47-.Ltext0
 2802 0264 D4020000 		.4byte	.LCFI48-.Ltext0
 2803 0268 0200     		.2byte	0x2
 2804 026a 77       		.byte	0x77
 2805 026b 0C       		.sleb128 12
 2806 026c D4020000 		.4byte	.LCFI48-.Ltext0
 2807 0270 E4020000 		.4byte	.LFE12-.Ltext0
 2808 0274 0200     		.2byte	0x2
 2809 0276 7D       		.byte	0x7d
 2810 0277 0C       		.sleb128 12
 2811 0278 00000000 		.4byte	0
 2812 027c 00000000 		.4byte	0
 2813              	.LLST7:
 2814 0280 A8010000 		.4byte	.LFB11-.Ltext0
 2815 0284 AA010000 		.4byte	.LCFI39-.Ltext0
 2816 0288 0200     		.2byte	0x2
 2817 028a 7D       		.byte	0x7d
 2818 028b 00       		.sleb128 0
 2819 028c AA010000 		.4byte	.LCFI39-.Ltext0
 2820 0290 AC010000 		.4byte	.LCFI40-.Ltext0
 2821 0294 0200     		.2byte	0x2
 2822 0296 7D       		.byte	0x7d
 2823 0297 08       		.sleb128 8
 2824 0298 AC010000 		.4byte	.LCFI40-.Ltext0
 2825 029c AE010000 		.4byte	.LCFI41-.Ltext0
 2826 02a0 0200     		.2byte	0x2
 2827 02a2 7D       		.byte	0x7d
 2828 02a3 20       		.sleb128 32
 2829 02a4 AE010000 		.4byte	.LCFI41-.Ltext0
 2830 02a8 28020000 		.4byte	.LCFI42-.Ltext0
 2831 02ac 0200     		.2byte	0x2
 2832 02ae 77       		.byte	0x77
 2833 02af 20       		.sleb128 32
 2834 02b0 28020000 		.4byte	.LCFI42-.Ltext0
 2835 02b4 2A020000 		.4byte	.LCFI43-.Ltext0
 2836 02b8 0200     		.2byte	0x2
 2837 02ba 77       		.byte	0x77
 2838 02bb 08       		.sleb128 8
 2839 02bc 2A020000 		.4byte	.LCFI43-.Ltext0
 2840 02c0 38020000 		.4byte	.LFE11-.Ltext0
 2841 02c4 0200     		.2byte	0x2
 2842 02c6 7D       		.byte	0x7d
 2843 02c7 08       		.sleb128 8
 2844 02c8 00000000 		.4byte	0
 2845 02cc 00000000 		.4byte	0
 2846              	.LLST6:
ARM GAS  G:\Users\Jaxb\AppData\Local\Temp\cc09mc5r.s 			page 58


 2847 02d0 CE000000 		.4byte	.LFB10-.Ltext0
 2848 02d4 D0000000 		.4byte	.LCFI34-.Ltext0
 2849 02d8 0200     		.2byte	0x2
 2850 02da 7D       		.byte	0x7d
 2851 02db 00       		.sleb128 0
 2852 02dc D0000000 		.4byte	.LCFI34-.Ltext0
 2853 02e0 D2000000 		.4byte	.LCFI35-.Ltext0
 2854 02e4 0200     		.2byte	0x2
 2855 02e6 7D       		.byte	0x7d
 2856 02e7 08       		.sleb128 8
 2857 02e8 D2000000 		.4byte	.LCFI35-.Ltext0
 2858 02ec D4000000 		.4byte	.LCFI36-.Ltext0
 2859 02f0 0200     		.2byte	0x2
 2860 02f2 7D       		.byte	0x7d
 2861 02f3 20       		.sleb128 32
 2862 02f4 D4000000 		.4byte	.LCFI36-.Ltext0
 2863 02f8 98010000 		.4byte	.LCFI37-.Ltext0
 2864 02fc 0200     		.2byte	0x2
 2865 02fe 77       		.byte	0x77
 2866 02ff 20       		.sleb128 32
 2867 0300 98010000 		.4byte	.LCFI37-.Ltext0
 2868 0304 9A010000 		.4byte	.LCFI38-.Ltext0
 2869 0308 0200     		.2byte	0x2
 2870 030a 77       		.byte	0x77
 2871 030b 08       		.sleb128 8
 2872 030c 9A010000 		.4byte	.LCFI38-.Ltext0
 2873 0310 A8010000 		.4byte	.LFE10-.Ltext0
 2874 0314 0200     		.2byte	0x2
 2875 0316 7D       		.byte	0x7d
 2876 0317 08       		.sleb128 8
 2877 0318 00000000 		.4byte	0
 2878 031c 00000000 		.4byte	0
 2879              	.LLST5:
 2880 0320 AC000000 		.4byte	.LFB9-.Ltext0
 2881 0324 AE000000 		.4byte	.LCFI28-.Ltext0
 2882 0328 0200     		.2byte	0x2
 2883 032a 7D       		.byte	0x7d
 2884 032b 00       		.sleb128 0
 2885 032c AE000000 		.4byte	.LCFI28-.Ltext0
 2886 0330 B0000000 		.4byte	.LCFI29-.Ltext0
 2887 0334 0200     		.2byte	0x2
 2888 0336 7D       		.byte	0x7d
 2889 0337 04       		.sleb128 4
 2890 0338 B0000000 		.4byte	.LCFI29-.Ltext0
 2891 033c B2000000 		.4byte	.LCFI30-.Ltext0
 2892 0340 0200     		.2byte	0x2
 2893 0342 7D       		.byte	0x7d
 2894 0343 10       		.sleb128 16
 2895 0344 B2000000 		.4byte	.LCFI30-.Ltext0
 2896 0348 C8000000 		.4byte	.LCFI31-.Ltext0
 2897 034c 0200     		.2byte	0x2
 2898 034e 77       		.byte	0x77
 2899 034f 10       		.sleb128 16
 2900 0350 C8000000 		.4byte	.LCFI31-.Ltext0
 2901 0354 CA000000 		.4byte	.LCFI32-.Ltext0
 2902 0358 0200     		.2byte	0x2
 2903 035a 77       		.byte	0x77
ARM GAS  G:\Users\Jaxb\AppData\Local\Temp\cc09mc5r.s 			page 59


 2904 035b 04       		.sleb128 4
 2905 035c CA000000 		.4byte	.LCFI32-.Ltext0
 2906 0360 CC000000 		.4byte	.LCFI33-.Ltext0
 2907 0364 0200     		.2byte	0x2
 2908 0366 7D       		.byte	0x7d
 2909 0367 04       		.sleb128 4
 2910 0368 CC000000 		.4byte	.LCFI33-.Ltext0
 2911 036c CE000000 		.4byte	.LFE9-.Ltext0
 2912 0370 0200     		.2byte	0x2
 2913 0372 7D       		.byte	0x7d
 2914 0373 00       		.sleb128 0
 2915 0374 00000000 		.4byte	0
 2916 0378 00000000 		.4byte	0
 2917              	.LLST4:
 2918 037c 8C000000 		.4byte	.LFB5-.Ltext0
 2919 0380 8E000000 		.4byte	.LCFI23-.Ltext0
 2920 0384 0200     		.2byte	0x2
 2921 0386 7D       		.byte	0x7d
 2922 0387 00       		.sleb128 0
 2923 0388 8E000000 		.4byte	.LCFI23-.Ltext0
 2924 038c 90000000 		.4byte	.LCFI24-.Ltext0
 2925 0390 0200     		.2byte	0x2
 2926 0392 7D       		.byte	0x7d
 2927 0393 08       		.sleb128 8
 2928 0394 90000000 		.4byte	.LCFI24-.Ltext0
 2929 0398 92000000 		.4byte	.LCFI25-.Ltext0
 2930 039c 0200     		.2byte	0x2
 2931 039e 7D       		.byte	0x7d
 2932 039f 10       		.sleb128 16
 2933 03a0 92000000 		.4byte	.LCFI25-.Ltext0
 2934 03a4 A8000000 		.4byte	.LCFI26-.Ltext0
 2935 03a8 0200     		.2byte	0x2
 2936 03aa 77       		.byte	0x77
 2937 03ab 10       		.sleb128 16
 2938 03ac A8000000 		.4byte	.LCFI26-.Ltext0
 2939 03b0 AA000000 		.4byte	.LCFI27-.Ltext0
 2940 03b4 0200     		.2byte	0x2
 2941 03b6 77       		.byte	0x77
 2942 03b7 08       		.sleb128 8
 2943 03b8 AA000000 		.4byte	.LCFI27-.Ltext0
 2944 03bc AC000000 		.4byte	.LFE5-.Ltext0
 2945 03c0 0200     		.2byte	0x2
 2946 03c2 7D       		.byte	0x7d
 2947 03c3 08       		.sleb128 8
 2948 03c4 00000000 		.4byte	0
 2949 03c8 00000000 		.4byte	0
 2950              	.LLST3:
 2951 03cc 6C000000 		.4byte	.LFB4-.Ltext0
 2952 03d0 6E000000 		.4byte	.LCFI17-.Ltext0
 2953 03d4 0200     		.2byte	0x2
 2954 03d6 7D       		.byte	0x7d
 2955 03d7 00       		.sleb128 0
 2956 03d8 6E000000 		.4byte	.LCFI17-.Ltext0
 2957 03dc 70000000 		.4byte	.LCFI18-.Ltext0
 2958 03e0 0200     		.2byte	0x2
 2959 03e2 7D       		.byte	0x7d
 2960 03e3 04       		.sleb128 4
ARM GAS  G:\Users\Jaxb\AppData\Local\Temp\cc09mc5r.s 			page 60


 2961 03e4 70000000 		.4byte	.LCFI18-.Ltext0
 2962 03e8 72000000 		.4byte	.LCFI19-.Ltext0
 2963 03ec 0200     		.2byte	0x2
 2964 03ee 7D       		.byte	0x7d
 2965 03ef 10       		.sleb128 16
 2966 03f0 72000000 		.4byte	.LCFI19-.Ltext0
 2967 03f4 86000000 		.4byte	.LCFI20-.Ltext0
 2968 03f8 0200     		.2byte	0x2
 2969 03fa 77       		.byte	0x77
 2970 03fb 10       		.sleb128 16
 2971 03fc 86000000 		.4byte	.LCFI20-.Ltext0
 2972 0400 88000000 		.4byte	.LCFI21-.Ltext0
 2973 0404 0200     		.2byte	0x2
 2974 0406 77       		.byte	0x77
 2975 0407 04       		.sleb128 4
 2976 0408 88000000 		.4byte	.LCFI21-.Ltext0
 2977 040c 8A000000 		.4byte	.LCFI22-.Ltext0
 2978 0410 0200     		.2byte	0x2
 2979 0412 7D       		.byte	0x7d
 2980 0413 04       		.sleb128 4
 2981 0414 8A000000 		.4byte	.LCFI22-.Ltext0
 2982 0418 8C000000 		.4byte	.LFE4-.Ltext0
 2983 041c 0200     		.2byte	0x2
 2984 041e 7D       		.byte	0x7d
 2985 041f 00       		.sleb128 0
 2986 0420 00000000 		.4byte	0
 2987 0424 00000000 		.4byte	0
 2988              	.LLST2:
 2989 0428 4C000000 		.4byte	.LFB3-.Ltext0
 2990 042c 4E000000 		.4byte	.LCFI12-.Ltext0
 2991 0430 0200     		.2byte	0x2
 2992 0432 7D       		.byte	0x7d
 2993 0433 00       		.sleb128 0
 2994 0434 4E000000 		.4byte	.LCFI12-.Ltext0
 2995 0438 50000000 		.4byte	.LCFI13-.Ltext0
 2996 043c 0200     		.2byte	0x2
 2997 043e 7D       		.byte	0x7d
 2998 043f 08       		.sleb128 8
 2999 0440 50000000 		.4byte	.LCFI13-.Ltext0
 3000 0444 52000000 		.4byte	.LCFI14-.Ltext0
 3001 0448 0200     		.2byte	0x2
 3002 044a 7D       		.byte	0x7d
 3003 044b 10       		.sleb128 16
 3004 044c 52000000 		.4byte	.LCFI14-.Ltext0
 3005 0450 68000000 		.4byte	.LCFI15-.Ltext0
 3006 0454 0200     		.2byte	0x2
 3007 0456 77       		.byte	0x77
 3008 0457 10       		.sleb128 16
 3009 0458 68000000 		.4byte	.LCFI15-.Ltext0
 3010 045c 6A000000 		.4byte	.LCFI16-.Ltext0
 3011 0460 0200     		.2byte	0x2
 3012 0462 77       		.byte	0x77
 3013 0463 08       		.sleb128 8
 3014 0464 6A000000 		.4byte	.LCFI16-.Ltext0
 3015 0468 6C000000 		.4byte	.LFE3-.Ltext0
 3016 046c 0200     		.2byte	0x2
 3017 046e 7D       		.byte	0x7d
ARM GAS  G:\Users\Jaxb\AppData\Local\Temp\cc09mc5r.s 			page 61


 3018 046f 08       		.sleb128 8
 3019 0470 00000000 		.4byte	0
 3020 0474 00000000 		.4byte	0
 3021              	.LLST1:
 3022 0478 1E000000 		.4byte	.LFB1-.Ltext0
 3023 047c 20000000 		.4byte	.LCFI6-.Ltext0
 3024 0480 0200     		.2byte	0x2
 3025 0482 7D       		.byte	0x7d
 3026 0483 00       		.sleb128 0
 3027 0484 20000000 		.4byte	.LCFI6-.Ltext0
 3028 0488 22000000 		.4byte	.LCFI7-.Ltext0
 3029 048c 0200     		.2byte	0x2
 3030 048e 7D       		.byte	0x7d
 3031 048f 04       		.sleb128 4
 3032 0490 22000000 		.4byte	.LCFI7-.Ltext0
 3033 0494 24000000 		.4byte	.LCFI8-.Ltext0
 3034 0498 0200     		.2byte	0x2
 3035 049a 7D       		.byte	0x7d
 3036 049b 18       		.sleb128 24
 3037 049c 24000000 		.4byte	.LCFI8-.Ltext0
 3038 04a0 46000000 		.4byte	.LCFI9-.Ltext0
 3039 04a4 0200     		.2byte	0x2
 3040 04a6 77       		.byte	0x77
 3041 04a7 18       		.sleb128 24
 3042 04a8 46000000 		.4byte	.LCFI9-.Ltext0
 3043 04ac 48000000 		.4byte	.LCFI10-.Ltext0
 3044 04b0 0200     		.2byte	0x2
 3045 04b2 77       		.byte	0x77
 3046 04b3 04       		.sleb128 4
 3047 04b4 48000000 		.4byte	.LCFI10-.Ltext0
 3048 04b8 4A000000 		.4byte	.LCFI11-.Ltext0
 3049 04bc 0200     		.2byte	0x2
 3050 04be 7D       		.byte	0x7d
 3051 04bf 04       		.sleb128 4
 3052 04c0 4A000000 		.4byte	.LCFI11-.Ltext0
 3053 04c4 4C000000 		.4byte	.LFE1-.Ltext0
 3054 04c8 0200     		.2byte	0x2
 3055 04ca 7D       		.byte	0x7d
 3056 04cb 00       		.sleb128 0
 3057 04cc 00000000 		.4byte	0
 3058 04d0 00000000 		.4byte	0
 3059              	.LLST0:
 3060 04d4 00000000 		.4byte	.LFB0-.Ltext0
 3061 04d8 02000000 		.4byte	.LCFI0-.Ltext0
 3062 04dc 0200     		.2byte	0x2
 3063 04de 7D       		.byte	0x7d
 3064 04df 00       		.sleb128 0
 3065 04e0 02000000 		.4byte	.LCFI0-.Ltext0
 3066 04e4 04000000 		.4byte	.LCFI1-.Ltext0
 3067 04e8 0200     		.2byte	0x2
 3068 04ea 7D       		.byte	0x7d
 3069 04eb 04       		.sleb128 4
 3070 04ec 04000000 		.4byte	.LCFI1-.Ltext0
 3071 04f0 06000000 		.4byte	.LCFI2-.Ltext0
 3072 04f4 0200     		.2byte	0x2
 3073 04f6 7D       		.byte	0x7d
 3074 04f7 10       		.sleb128 16
ARM GAS  G:\Users\Jaxb\AppData\Local\Temp\cc09mc5r.s 			page 62


 3075 04f8 06000000 		.4byte	.LCFI2-.Ltext0
 3076 04fc 18000000 		.4byte	.LCFI3-.Ltext0
 3077 0500 0200     		.2byte	0x2
 3078 0502 77       		.byte	0x77
 3079 0503 10       		.sleb128 16
 3080 0504 18000000 		.4byte	.LCFI3-.Ltext0
 3081 0508 1A000000 		.4byte	.LCFI4-.Ltext0
 3082 050c 0200     		.2byte	0x2
 3083 050e 77       		.byte	0x77
 3084 050f 04       		.sleb128 4
 3085 0510 1A000000 		.4byte	.LCFI4-.Ltext0
 3086 0514 1C000000 		.4byte	.LCFI5-.Ltext0
 3087 0518 0200     		.2byte	0x2
 3088 051a 7D       		.byte	0x7d
 3089 051b 04       		.sleb128 4
 3090 051c 1C000000 		.4byte	.LCFI5-.Ltext0
 3091 0520 1E000000 		.4byte	.LFE0-.Ltext0
 3092 0524 0200     		.2byte	0x2
 3093 0526 7D       		.byte	0x7d
 3094 0527 00       		.sleb128 0
 3095 0528 00000000 		.4byte	0
 3096 052c 00000000 		.4byte	0
 3097              		.section	.debug_aranges,"",%progbits
 3098 0000 1C000000 		.4byte	0x1c
 3099 0004 0200     		.2byte	0x2
 3100 0006 00000000 		.4byte	.Ldebug_info0
 3101 000a 04       		.byte	0x4
 3102 000b 00       		.byte	0
 3103 000c 0000     		.2byte	0
 3104 000e 0000     		.2byte	0
 3105 0010 00000000 		.4byte	.Ltext0
 3106 0014 64050000 		.4byte	.Letext0-.Ltext0
 3107 0018 00000000 		.4byte	0
 3108 001c 00000000 		.4byte	0
 3109              		.section	.debug_line,"",%progbits
 3110              	.Ldebug_line0:
 3111 0000 26020000 		.section	.debug_str,"MS",%progbits,1
 3111      0200BC00 
 3111      00000201 
 3111      FB0E0D00 
 3111      01010101 
 3112              	.LASF44:
 3113 0000 6C697374 		.ascii	"list\000"
 3113      00
 3114              	.LASF32:
 3115 0005 696E7365 		.ascii	"insert_sort_delete_data\000"
 3115      72745F73 
 3115      6F72745F 
 3115      64656C65 
 3115      74655F64 
 3116              	.LASF10:
 3117 001d 73697A65 		.ascii	"size_t\000"
 3117      5F7400
 3118              	.LASF0:
 3119 0024 6E657874 		.ascii	"next\000"
 3119      00
 3120              	.LASF13:
ARM GAS  G:\Users\Jaxb\AppData\Local\Temp\cc09mc5r.s 			page 63


 3121 0029 696E7365 		.ascii	"insert_sort_data\000"
 3121      72745F73 
 3121      6F72745F 
 3121      64617461 
 3121      00
 3122              	.LASF37:
 3123 003a 696E7365 		.ascii	"insert_sort_insert_into\000"
 3123      72745F73 
 3123      6F72745F 
 3123      696E7365 
 3123      72745F69 
 3124              	.LASF16:
 3125 0052 64617461 		.ascii	"data_list\000"
 3125      5F6C6973 
 3125      7400
 3126              	.LASF48:
 3127 005c 6C697374 		.ascii	"list_empty\000"
 3127      5F656D70 
 3127      747900
 3128              	.LASF22:
 3129 0067 76616C75 		.ascii	"value_cmp\000"
 3129      655F636D 
 3129      7000
 3130              	.LASF17:
 3131 0071 696E7365 		.ascii	"insert_sort_entity\000"
 3131      72745F73 
 3131      6F72745F 
 3131      656E7469 
 3131      747900
 3132              	.LASF40:
 3133 0084 6C697374 		.ascii	"list_del\000"
 3133      5F64656C 
 3133      00
 3134              	.LASF15:
 3135 008d 6964656E 		.ascii	"identify_data\000"
 3135      74696679 
 3135      5F646174 
 3135      6100
 3136              	.LASF23:
 3137 009b 696E7365 		.ascii	"insert_sort_get_first_data_ptr\000"
 3137      72745F73 
 3137      6F72745F 
 3137      6765745F 
 3137      66697273 
 3138              	.LASF26:
 3139 00ba 696E7365 		.ascii	"insert_sort_data_ptr\000"
 3139      72745F73 
 3139      6F72745F 
 3139      64617461 
 3139      5F707472 
 3140              	.LASF33:
 3141 00cf 696E7365 		.ascii	"insert_sort_delete_head\000"
 3141      72745F73 
 3141      6F72745F 
 3141      64656C65 
 3141      74655F68 
 3142              	.LASF42:
ARM GAS  G:\Users\Jaxb\AppData\Local\Temp\cc09mc5r.s 			page 64


 3143 00e7 6C697374 		.ascii	"list_add_tail\000"
 3143      5F616464 
 3143      5F746169 
 3143      6C00
 3144              	.LASF5:
 3145 00f5 756E7369 		.ascii	"unsigned char\000"
 3145      676E6564 
 3145      20636861 
 3145      7200
 3146              	.LASF28:
 3147 0103 696E6974 		.ascii	"init_insert_sort_data\000"
 3147      5F696E73 
 3147      6572745F 
 3147      736F7274 
 3147      5F646174 
 3148              	.LASF9:
 3149 0119 55494E54 		.ascii	"UINT64\000"
 3149      363400
 3150              	.LASF19:
 3151 0120 64617461 		.ascii	"data_num\000"
 3151      5F6E756D 
 3151      00
 3152              	.LASF6:
 3153 0129 73686F72 		.ascii	"short unsigned int\000"
 3153      7420756E 
 3153      7369676E 
 3153      65642069 
 3153      6E7400
 3154              	.LASF30:
 3155 013c 5F5F6D70 		.ascii	"__mptr\000"
 3155      747200
 3156              	.LASF27:
 3157 0143 696E6974 		.ascii	"init_insert_sort_data_with_id\000"
 3157      5F696E73 
 3157      6572745F 
 3157      736F7274 
 3157      5F646174 
 3158              	.LASF36:
 3159 0161 696E7365 		.ascii	"insert_sort_find_data\000"
 3159      72745F73 
 3159      6F72745F 
 3159      66696E64 
 3159      5F646174 
 3160              	.LASF29:
 3161 0177 696E7365 		.ascii	"insert_sort_delete_data_with_id\000"
 3161      72745F73 
 3161      6F72745F 
 3161      64656C65 
 3161      74655F64 
 3162              	.LASF24:
 3163 0197 696E6974 		.ascii	"init_insert_sort_entity\000"
 3163      5F696E73 
 3163      6572745F 
 3163      736F7274 
 3163      5F656E74 
 3164              	.LASF21:
 3165 01af 6765745F 		.ascii	"get_data_ptr\000"
ARM GAS  G:\Users\Jaxb\AppData\Local\Temp\cc09mc5r.s 			page 65


 3165      64617461 
 3165      5F707472 
 3165      00
 3166              	.LASF41:
 3167 01bc 5F5F6C69 		.ascii	"__list_del\000"
 3167      73745F64 
 3167      656C00
 3168              	.LASF38:
 3169 01c7 68656164 		.ascii	"head\000"
 3169      00
 3170              	.LASF7:
 3171 01cc 756E7369 		.ascii	"unsigned int\000"
 3171      676E6564 
 3171      20696E74 
 3171      00
 3172              	.LASF8:
 3173 01d9 6C6F6E67 		.ascii	"long long unsigned int\000"
 3173      206C6F6E 
 3173      6720756E 
 3173      7369676E 
 3173      65642069 
 3174              	.LASF34:
 3175 01f0 696E7365 		.ascii	"insert_sort_find_data_with_id\000"
 3175      72745F73 
 3175      6F72745F 
 3175      66696E64 
 3175      5F646174 
 3176              	.LASF11:
 3177 020e 69645F74 		.ascii	"id_type\000"
 3177      79706500 
 3178              	.LASF18:
 3179 0216 64617461 		.ascii	"data_list_head\000"
 3179      5F6C6973 
 3179      745F6865 
 3179      616400
 3180              	.LASF12:
 3181 0225 6C697374 		.ascii	"list_head\000"
 3181      5F686561 
 3181      6400
 3182              	.LASF4:
 3183 022f 6C6F6E67 		.ascii	"long long int\000"
 3183      206C6F6E 
 3183      6720696E 
 3183      7400
 3184              	.LASF25:
 3185 023d 696E7365 		.ascii	"insert_sort_entity_ptr\000"
 3185      72745F73 
 3185      6F72745F 
 3185      656E7469 
 3185      74795F70 
 3186              	.LASF49:
 3187 0254 494E4954 		.ascii	"INIT_LIST_HEAD\000"
 3187      5F4C4953 
 3187      545F4845 
 3187      414400
 3188              	.LASF3:
 3189 0263 73686F72 		.ascii	"short int\000"
ARM GAS  G:\Users\Jaxb\AppData\Local\Temp\cc09mc5r.s 			page 66


 3189      7420696E 
 3189      7400
 3190              	.LASF35:
 3191 026d 62756666 		.ascii	"buffer\000"
 3191      657200
 3192              	.LASF43:
 3193 0274 5F5F6C69 		.ascii	"__list_add\000"
 3193      73745F61 
 3193      646400
 3194              	.LASF46:
 3195 027f 2E2E2F2E 		.ascii	"../../source/src/kernel/OS_LIB/insert_sort_oo.c\000"
 3195      2E2F736F 
 3195      75726365 
 3195      2F737263 
 3195      2F6B6572 
 3196              	.LASF14:
 3197 02af 64617461 		.ascii	"data_ptr\000"
 3197      5F707472 
 3197      00
 3198              	.LASF45:
 3199 02b8 474E5520 		.ascii	"GNU C11 7.3.1 20180622 (release) [ARM/embedded-7-br"
 3199      43313120 
 3199      372E332E 
 3199      31203230 
 3199      31383036 
 3200 02eb 616E6368 		.ascii	"anch revision 261907] -mcpu=cortex-m3 -mthumb -mapc"
 3200      20726576 
 3200      6973696F 
 3200      6E203236 
 3200      31393037 
 3201 031e 732D6672 		.ascii	"s-frame -mthumb-interwork -mcpu=cortex-m3 -mthumb -"
 3201      616D6520 
 3201      2D6D7468 
 3201      756D622D 
 3201      696E7465 
 3202 0351 67647761 		.ascii	"gdwarf-2 -O0\000"
 3202      72662D32 
 3202      202D4F30 
 3202      00
 3203              	.LASF2:
 3204 035e 7369676E 		.ascii	"signed char\000"
 3204      65642063 
 3204      68617200 
 3205              	.LASF20:
 3206 036a 636F6D70 		.ascii	"compare\000"
 3206      61726500 
 3207              	.LASF31:
 3208 0372 62756666 		.ascii	"buffer_ptr\000"
 3208      65725F70 
 3208      747200
 3209              	.LASF39:
 3210 037d 656E7472 		.ascii	"entry\000"
 3210      7900
 3211              	.LASF1:
 3212 0383 70726576 		.ascii	"prev\000"
 3212      00
 3213              	.LASF47:
ARM GAS  G:\Users\Jaxb\AppData\Local\Temp\cc09mc5r.s 			page 67


 3214 0388 463A5C6B 		.ascii	"F:\\kaka\\KAKAOS\\C\\windows\\Project\\RVMDK\243\250"
 3214      616B615C 
 3214      4B414B41 
 3214      4F535C43 
 3214      5C77696E 
 3215 03b0 757635A3 		.ascii	"uv5\243\251\000"
 3215      A900
 3216              		.ident	"GCC: (GNU Tools for Arm Embedded Processors 7-2018-q2-update) 7.3.1 20180622 (release) [AR
ARM GAS  G:\Users\Jaxb\AppData\Local\Temp\cc09mc5r.s 			page 68


DEFINED SYMBOLS
                            *ABS*:00000000 insert_sort_oo.c
G:\Users\Jaxb\AppData\Local\Temp\cc09mc5r.s:15     .text:00000000 $t
G:\Users\Jaxb\AppData\Local\Temp\cc09mc5r.s:21     .text:00000000 INIT_LIST_HEAD
G:\Users\Jaxb\AppData\Local\Temp\cc09mc5r.s:71     .text:0000001e __list_add
G:\Users\Jaxb\AppData\Local\Temp\cc09mc5r.s:130    .text:0000004c list_add_tail
G:\Users\Jaxb\AppData\Local\Temp\cc09mc5r.s:175    .text:0000006c __list_del
G:\Users\Jaxb\AppData\Local\Temp\cc09mc5r.s:225    .text:0000008c list_del
G:\Users\Jaxb\AppData\Local\Temp\cc09mc5r.s:270    .text:000000ac list_empty
G:\Users\Jaxb\AppData\Local\Temp\cc09mc5r.s:315    .rodata:00000000 $d
G:\Users\Jaxb\AppData\Local\Temp\cc09mc5r.s:334    .text:000000ce insert_sort_insert_into
G:\Users\Jaxb\AppData\Local\Temp\cc09mc5r.s:489    .text:0000019c $d
G:\Users\Jaxb\AppData\Local\Temp\cc09mc5r.s:505    .text:000001a8 $t
G:\Users\Jaxb\AppData\Local\Temp\cc09mc5r.s:512    .text:000001a8 insert_sort_find_data
G:\Users\Jaxb\AppData\Local\Temp\cc09mc5r.s:624    .text:0000022c $d
G:\Users\Jaxb\AppData\Local\Temp\cc09mc5r.s:640    .text:00000238 $t
G:\Users\Jaxb\AppData\Local\Temp\cc09mc5r.s:647    .text:00000238 insert_sort_find_data_with_id
G:\Users\Jaxb\AppData\Local\Temp\cc09mc5r.s:770    .text:000002d8 $d
G:\Users\Jaxb\AppData\Local\Temp\cc09mc5r.s:782    .text:000002e4 $t
G:\Users\Jaxb\AppData\Local\Temp\cc09mc5r.s:789    .text:000002e4 insert_sort_delete_head
G:\Users\Jaxb\AppData\Local\Temp\cc09mc5r.s:883    .text:00000354 $d
G:\Users\Jaxb\AppData\Local\Temp\cc09mc5r.s:894    .text:0000035c $t
G:\Users\Jaxb\AppData\Local\Temp\cc09mc5r.s:901    .text:0000035c insert_sort_delete_data
G:\Users\Jaxb\AppData\Local\Temp\cc09mc5r.s:990    .text:000003c8 $d
G:\Users\Jaxb\AppData\Local\Temp\cc09mc5r.s:1001   .text:000003d0 $t
G:\Users\Jaxb\AppData\Local\Temp\cc09mc5r.s:1008   .text:000003d0 insert_sort_delete_data_with_id
G:\Users\Jaxb\AppData\Local\Temp\cc09mc5r.s:1099   .text:00000444 $d
G:\Users\Jaxb\AppData\Local\Temp\cc09mc5r.s:1104   .text:0000044c $t
G:\Users\Jaxb\AppData\Local\Temp\cc09mc5r.s:1111   .text:0000044c init_insert_sort_data
G:\Users\Jaxb\AppData\Local\Temp\cc09mc5r.s:1170   .text:0000048c $d
G:\Users\Jaxb\AppData\Local\Temp\cc09mc5r.s:1174   .text:00000490 $t
G:\Users\Jaxb\AppData\Local\Temp\cc09mc5r.s:1181   .text:00000490 init_insert_sort_data_with_id
G:\Users\Jaxb\AppData\Local\Temp\cc09mc5r.s:1230   .text:000004b8 init_insert_sort_entity
G:\Users\Jaxb\AppData\Local\Temp\cc09mc5r.s:1304   .text:0000050c $d
G:\Users\Jaxb\AppData\Local\Temp\cc09mc5r.s:1314   .text:00000510 $t
G:\Users\Jaxb\AppData\Local\Temp\cc09mc5r.s:1321   .text:00000510 insert_sort_get_first_data_ptr
G:\Users\Jaxb\AppData\Local\Temp\cc09mc5r.s:1393   .text:0000055c $d

UNDEFINED SYMBOLS
_ASSERT
ka_printf
