ARM GAS  G:\Users\Jaxb\AppData\Local\Temp\ccwNPxjY.s 			page 1


   1              		.cpu cortex-m3
   2              		.eabi_attribute 20, 1
   3              		.eabi_attribute 21, 1
   4              		.eabi_attribute 23, 3
   5              		.eabi_attribute 24, 1
   6              		.eabi_attribute 25, 1
   7              		.eabi_attribute 26, 1
   8              		.eabi_attribute 30, 2
   9              		.eabi_attribute 34, 1
  10              		.eabi_attribute 18, 4
  11              		.file	"insert_sort.c"
  12              		.text
  13              	.Ltext0:
  14              		.cfi_sections	.debug_frame
  15              		.align	1
  16              		.p2align 2,,3
  17              		.global	IL_init
  18              		.syntax unified
  19              		.thumb
  20              		.thumb_func
  21              		.fpu softvfp
  22              		.type	IL_init, %function
  23              	IL_init:
  24              	.LFB10:
  25              		.file 1 "../../source/src/user/OS_LIB/insert_sort.c"
   1:../../source/src/user/OS_LIB/insert_sort.c **** #include <insert_sort.h>
   2:../../source/src/user/OS_LIB/insert_sort.c **** #include <double_linked_list.h>
   3:../../source/src/user/OS_LIB/insert_sort.c **** #include <myassert.h>
   4:../../source/src/user/OS_LIB/insert_sort.c **** 
   5:../../source/src/user/OS_LIB/insert_sort.c **** #define TIME_FIRST_SMALLER_THAN_SECOND(first,second) ((INT64)(first)-(INT64)(second)<0)
   6:../../source/src/user/OS_LIB/insert_sort.c **** #define TIME_FIRST_NOT_BIGGER_THAN_SECOND(first,second) ((INT64)(second)-(INT64)(first)>=0)
   7:../../source/src/user/OS_LIB/insert_sort.c **** 
   8:../../source/src/user/OS_LIB/insert_sort.c **** inline void IL_init(IL *IL_ptr,COMPARE_TYPE prio)
   9:../../source/src/user/OS_LIB/insert_sort.c **** {
  26              		.loc 1 9 0
  27              		.cfi_startproc
  28              		@ args = 0, pretend = 0, frame = 0
  29              		@ frame_needed = 0, uses_anonymous_args = 0
  30              		@ link register save eliminated.
  31              	.LVL0:
  32              	.LBB35:
  33              	.LBB36:
  34              		.file 2 "../../source/include/os_lib/double_linked_list.h"
   1:../../source/include/os_lib/double_linked_list.h **** #ifndef _DOUBLE_LINKED_LIST_H
   2:../../source/include/os_lib/double_linked_list.h **** #define _DOUBLE_LINKED_LIST_H
   3:../../source/include/os_lib/double_linked_list.h **** 
   4:../../source/include/os_lib/double_linked_list.h **** struct list_head {
   5:../../source/include/os_lib/double_linked_list.h ****     struct list_head *next, *prev;
   6:../../source/include/os_lib/double_linked_list.h **** };
   7:../../source/include/os_lib/double_linked_list.h **** 
   8:../../source/include/os_lib/double_linked_list.h **** 
   9:../../source/include/os_lib/double_linked_list.h **** #define LIST_HEAD_INIT(name) { &(name), &(name) }
  10:../../source/include/os_lib/double_linked_list.h **** 
  11:../../source/include/os_lib/double_linked_list.h **** 
  12:../../source/include/os_lib/double_linked_list.h **** #define LIST_HEAD(name) \
  13:../../source/include/os_lib/double_linked_list.h ****     struct list_head name = LIST_HEAD_INIT(name)
  14:../../source/include/os_lib/double_linked_list.h **** 
ARM GAS  G:\Users\Jaxb\AppData\Local\Temp\ccwNPxjY.s 			page 2


  15:../../source/include/os_lib/double_linked_list.h **** 
  16:../../source/include/os_lib/double_linked_list.h **** static inline void INIT_LIST_HEAD(struct list_head *list)
  17:../../source/include/os_lib/double_linked_list.h **** {
  18:../../source/include/os_lib/double_linked_list.h ****     list->next = list;
  19:../../source/include/os_lib/double_linked_list.h ****     list->prev = list;
  35              		.loc 2 19 0
  36 0000 C0E90000 		strd	r0, r0, [r0]
  37              	.LVL1:
  38              	.LBE36:
  39              	.LBE35:
  10:../../source/src/user/OS_LIB/insert_sort.c **** 	INIT_LIST_HEAD(&IL_ptr->insert);
  11:../../source/src/user/OS_LIB/insert_sort.c **** 	IL_ptr->prio = prio;
  40              		.loc 1 11 0
  41 0004 8160     		str	r1, [r0, #8]
  12:../../source/src/user/OS_LIB/insert_sort.c **** }
  42              		.loc 1 12 0
  43 0006 7047     		bx	lr
  44              		.cfi_endproc
  45              	.LFE10:
  46              		.size	IL_init, .-IL_init
  47              		.align	1
  48              		.p2align 2,,3
  49              		.global	get_next_IL
  50              		.syntax unified
  51              		.thumb
  52              		.thumb_func
  53              		.fpu softvfp
  54              		.type	get_next_IL, %function
  55              	get_next_IL:
  56              	.LFB11:
  13:../../source/src/user/OS_LIB/insert_sort.c **** 
  14:../../source/src/user/OS_LIB/insert_sort.c **** IL *get_next_IL(IL *IL_ptr,struct list_head *head_ptr)
  15:../../source/src/user/OS_LIB/insert_sort.c **** {
  57              		.loc 1 15 0
  58              		.cfi_startproc
  59              		@ args = 0, pretend = 0, frame = 0
  60              		@ frame_needed = 0, uses_anonymous_args = 0
  61              	.LVL2:
  62 0008 38B5     		push	{r3, r4, r5, lr}
  63              	.LCFI0:
  64              		.cfi_def_cfa_offset 16
  65              		.cfi_offset 3, -16
  66              		.cfi_offset 4, -12
  67              		.cfi_offset 5, -8
  68              		.cfi_offset 14, -4
  69              		.loc 1 15 0
  70 000a 0D46     		mov	r5, r1
  16:../../source/src/user/OS_LIB/insert_sort.c **** 	ASSERT(NULL != IL_ptr);
  71              		.loc 1 16 0
  72 000c 0446     		mov	r4, r0
  73 000e 20B1     		cbz	r0, .L7
  74              	.LVL3:
  17:../../source/src/user/OS_LIB/insert_sort.c **** 	struct list_head *list_buffer;
  18:../../source/src/user/OS_LIB/insert_sort.c **** 	list_buffer = &IL_ptr->insert;
  19:../../source/src/user/OS_LIB/insert_sort.c **** 	list_buffer = list_buffer->next;
  75              		.loc 1 19 0
  76 0010 2068     		ldr	r0, [r4]
ARM GAS  G:\Users\Jaxb\AppData\Local\Temp\ccwNPxjY.s 			page 3


  77              	.LVL4:
  20:../../source/src/user/OS_LIB/insert_sort.c **** 	if(list_buffer == head_ptr)
  21:../../source/src/user/OS_LIB/insert_sort.c **** 	{
  22:../../source/src/user/OS_LIB/insert_sort.c **** 		return NULL;
  23:../../source/src/user/OS_LIB/insert_sort.c **** 	}
  24:../../source/src/user/OS_LIB/insert_sort.c **** 	return (list_entry(list_buffer,IL,insert));
  25:../../source/src/user/OS_LIB/insert_sort.c **** }
  78              		.loc 1 25 0
  79 0012 A842     		cmp	r0, r5
  80 0014 08BF     		it	eq
  81 0016 0020     		moveq	r0, #0
  82              	.LVL5:
  83 0018 38BD     		pop	{r3, r4, r5, pc}
  84              	.LVL6:
  85              	.L7:
  16:../../source/src/user/OS_LIB/insert_sort.c **** 	struct list_head *list_buffer;
  86              		.loc 1 16 0 discriminator 1
  87 001a 1021     		movs	r1, #16
  88              	.LVL7:
  89 001c 0348     		ldr	r0, .L8
  90              	.LVL8:
  91 001e FFF7FEFF 		bl	_ASSERT
  92              	.LVL9:
  19:../../source/src/user/OS_LIB/insert_sort.c **** 	if(list_buffer == head_ptr)
  93              		.loc 1 19 0 discriminator 1
  94 0022 2068     		ldr	r0, [r4]
  95              	.LVL10:
  96              		.loc 1 25 0 discriminator 1
  97 0024 A842     		cmp	r0, r5
  98 0026 08BF     		it	eq
  99 0028 0020     		moveq	r0, #0
 100              	.LVL11:
 101 002a 38BD     		pop	{r3, r4, r5, pc}
 102              	.LVL12:
 103              	.L9:
 104              		.align	2
 105              	.L8:
 106 002c 00000000 		.word	.LC0
 107              		.cfi_endproc
 108              	.LFE11:
 109              		.size	get_next_IL, .-get_next_IL
 110              		.align	1
 111              		.p2align 2,,3
 112              		.global	insert_chain
 113              		.syntax unified
 114              		.thumb
 115              		.thumb_func
 116              		.fpu softvfp
 117              		.type	insert_chain, %function
 118              	insert_chain:
 119              	.LFB12:
  26:../../source/src/user/OS_LIB/insert_sort.c **** 
  27:../../source/src/user/OS_LIB/insert_sort.c **** void 
  28:../../source/src/user/OS_LIB/insert_sort.c **** insert_chain(
  29:../../source/src/user/OS_LIB/insert_sort.c **** struct list_head *head,
  30:../../source/src/user/OS_LIB/insert_sort.c **** IL *insert_node
  31:../../source/src/user/OS_LIB/insert_sort.c **** )
ARM GAS  G:\Users\Jaxb\AppData\Local\Temp\ccwNPxjY.s 			page 4


  32:../../source/src/user/OS_LIB/insert_sort.c **** {
 120              		.loc 1 32 0
 121              		.cfi_startproc
 122              		@ args = 0, pretend = 0, frame = 0
 123              		@ frame_needed = 0, uses_anonymous_args = 0
 124              	.LVL13:
 125 0030 F8B5     		push	{r3, r4, r5, r6, r7, lr}
 126              	.LCFI1:
 127              		.cfi_def_cfa_offset 24
 128              		.cfi_offset 3, -24
 129              		.cfi_offset 4, -20
 130              		.cfi_offset 5, -16
 131              		.cfi_offset 6, -12
 132              		.cfi_offset 7, -8
 133              		.cfi_offset 14, -4
 134              		.loc 1 32 0
 135 0032 0D46     		mov	r5, r1
  33:../../source/src/user/OS_LIB/insert_sort.c **** 	struct list_head *pos,*next;
  34:../../source/src/user/OS_LIB/insert_sort.c ****   ASSERT(NULL != head);
 136              		.loc 1 34 0
 137 0034 0446     		mov	r4, r0
 138 0036 28B3     		cbz	r0, .L18
  35:../../source/src/user/OS_LIB/insert_sort.c ****   ASSERT(NULL != insert_node);
 139              		.loc 1 35 0
 140 0038 55B3     		cbz	r5, .L19
 141              	.LVL14:
 142              	.L12:
 143              	.LBB37:
 144              	.LBB38:
  20:../../source/include/os_lib/double_linked_list.h **** }
  21:../../source/include/os_lib/double_linked_list.h **** 
  22:../../source/include/os_lib/double_linked_list.h **** 
  23:../../source/include/os_lib/double_linked_list.h **** static inline void __list_add(struct list_head *new,
  24:../../source/include/os_lib/double_linked_list.h ****                   struct list_head *prev,
  25:../../source/include/os_lib/double_linked_list.h ****                   struct list_head *next)
  26:../../source/include/os_lib/double_linked_list.h **** {
  27:../../source/include/os_lib/double_linked_list.h ****     next->prev = new;
  28:../../source/include/os_lib/double_linked_list.h ****     new->next = next;
  29:../../source/include/os_lib/double_linked_list.h ****     new->prev = prev;
  30:../../source/include/os_lib/double_linked_list.h ****     prev->next = new;
  31:../../source/include/os_lib/double_linked_list.h **** }
  32:../../source/include/os_lib/double_linked_list.h **** 
  33:../../source/include/os_lib/double_linked_list.h **** 
  34:../../source/include/os_lib/double_linked_list.h **** static inline void list_add(struct list_head *new, struct list_head *head)
  35:../../source/include/os_lib/double_linked_list.h **** {
  36:../../source/include/os_lib/double_linked_list.h ****     __list_add(new, head, head->next);
  37:../../source/include/os_lib/double_linked_list.h **** }
  38:../../source/include/os_lib/double_linked_list.h **** 
  39:../../source/include/os_lib/double_linked_list.h **** 
  40:../../source/include/os_lib/double_linked_list.h **** static inline void list_add_tail(struct list_head *new, struct list_head *head)
  41:../../source/include/os_lib/double_linked_list.h **** {
  42:../../source/include/os_lib/double_linked_list.h ****     __list_add(new, head->prev, head);
  43:../../source/include/os_lib/double_linked_list.h **** }
  44:../../source/include/os_lib/double_linked_list.h **** 
  45:../../source/include/os_lib/double_linked_list.h **** 
  46:../../source/include/os_lib/double_linked_list.h **** static inline void __list_del(struct list_head * prev, struct list_head * next)
  47:../../source/include/os_lib/double_linked_list.h **** {
ARM GAS  G:\Users\Jaxb\AppData\Local\Temp\ccwNPxjY.s 			page 5


  48:../../source/include/os_lib/double_linked_list.h ****     next->prev = prev;
  49:../../source/include/os_lib/double_linked_list.h ****     prev->next = next;
  50:../../source/include/os_lib/double_linked_list.h **** }
  51:../../source/include/os_lib/double_linked_list.h **** 
  52:../../source/include/os_lib/double_linked_list.h **** 
  53:../../source/include/os_lib/double_linked_list.h **** static inline void list_del(struct list_head *entry)
  54:../../source/include/os_lib/double_linked_list.h **** {
  55:../../source/include/os_lib/double_linked_list.h ****     __list_del(entry->prev, entry->next);
  56:../../source/include/os_lib/double_linked_list.h **** }
  57:../../source/include/os_lib/double_linked_list.h **** 
  58:../../source/include/os_lib/double_linked_list.h **** 
  59:../../source/include/os_lib/double_linked_list.h **** static inline void __list_del_entry(struct list_head *entry)
  60:../../source/include/os_lib/double_linked_list.h **** {
  61:../../source/include/os_lib/double_linked_list.h ****     __list_del(entry->prev, entry->next);
  62:../../source/include/os_lib/double_linked_list.h **** }
  63:../../source/include/os_lib/double_linked_list.h **** 
  64:../../source/include/os_lib/double_linked_list.h **** 
  65:../../source/include/os_lib/double_linked_list.h **** static inline void list_del_init(struct list_head *entry)
  66:../../source/include/os_lib/double_linked_list.h **** {
  67:../../source/include/os_lib/double_linked_list.h ****     __list_del_entry(entry);
  68:../../source/include/os_lib/double_linked_list.h ****     INIT_LIST_HEAD(entry);
  69:../../source/include/os_lib/double_linked_list.h **** }
  70:../../source/include/os_lib/double_linked_list.h **** 
  71:../../source/include/os_lib/double_linked_list.h **** 
  72:../../source/include/os_lib/double_linked_list.h **** static inline void list_replace(struct list_head *old,
  73:../../source/include/os_lib/double_linked_list.h ****                 struct list_head *new)
  74:../../source/include/os_lib/double_linked_list.h **** {
  75:../../source/include/os_lib/double_linked_list.h ****     new->next = old->next;
  76:../../source/include/os_lib/double_linked_list.h ****     new->next->prev = new;
  77:../../source/include/os_lib/double_linked_list.h ****     new->prev = old->prev;
  78:../../source/include/os_lib/double_linked_list.h ****     new->prev->next = new;
  79:../../source/include/os_lib/double_linked_list.h **** }
  80:../../source/include/os_lib/double_linked_list.h **** 
  81:../../source/include/os_lib/double_linked_list.h **** 
  82:../../source/include/os_lib/double_linked_list.h **** static inline int list_empty(const struct list_head *head)
  83:../../source/include/os_lib/double_linked_list.h **** {
  84:../../source/include/os_lib/double_linked_list.h ****     return head->next == head;
 145              		.loc 2 84 0
 146 003a 2368     		ldr	r3, [r4]
 147              	.LVL15:
 148              	.LBE38:
 149              	.LBE37:
  36:../../source/src/user/OS_LIB/insert_sort.c **** 
  37:../../source/src/user/OS_LIB/insert_sort.c **** 	if(list_empty(head))
 150              		.loc 1 37 0
 151 003c 9C42     		cmp	r4, r3
 152 003e 1CD0     		beq	.L20
 153              	.LVL16:
 154 0040 AE68     		ldr	r6, [r5, #8]
  38:../../source/src/user/OS_LIB/insert_sort.c **** 	{
  39:../../source/src/user/OS_LIB/insert_sort.c **** 		list_add(&insert_node->insert,head);
  40:../../source/src/user/OS_LIB/insert_sort.c **** 		return;
  41:../../source/src/user/OS_LIB/insert_sort.c **** 	}
  42:../../source/src/user/OS_LIB/insert_sort.c **** 	
  43:../../source/src/user/OS_LIB/insert_sort.c ****   COMPARE_TYPE prio = insert_node->prio;
  44:../../source/src/user/OS_LIB/insert_sort.c **** 	IL *IL_ptr;
  45:../../source/src/user/OS_LIB/insert_sort.c **** 	list_for_each_safe(pos,next,head)
ARM GAS  G:\Users\Jaxb\AppData\Local\Temp\ccwNPxjY.s 			page 6


 155              		.loc 1 45 0
 156 0042 1A68     		ldr	r2, [r3]
 157              	.LVL17:
 158 0044 0027     		movs	r7, #0
 159 0046 00E0     		b	.L16
 160              	.LVL18:
 161              	.L17:
 162 0048 0A46     		mov	r2, r1
 163              	.LVL19:
 164              	.L16:
  46:../../source/src/user/OS_LIB/insert_sort.c **** 	{
  47:../../source/src/user/OS_LIB/insert_sort.c **** 		IL_ptr = list_entry(pos,IL,insert);
  48:../../source/src/user/OS_LIB/insert_sort.c **** 		//if(prio < IL_ptr->prio)
  49:../../source/src/user/OS_LIB/insert_sort.c **** 		if(TIME_FIRST_SMALLER_THAN_SECOND(prio,IL_ptr->prio))
 165              		.loc 1 49 0
 166 004a 9968     		ldr	r1, [r3, #8]
 167 004c 701A     		subs	r0, r6, r1
 168 004e 67F10001 		sbc	r1, r7, #0
 169 0052 0028     		cmp	r0, #0
 170 0054 71F10001 		sbcs	r1, r1, #0
 171 0058 09DB     		blt	.L21
  45:../../source/src/user/OS_LIB/insert_sort.c **** 	{
 172              		.loc 1 45 0 discriminator 2
 173 005a 9442     		cmp	r4, r2
 174 005c 1168     		ldr	r1, [r2]
 175              	.LVL20:
 176 005e 1346     		mov	r3, r2
 177              	.LVL21:
 178 0060 F2D1     		bne	.L17
 179              	.LVL22:
 180              	.LBB39:
 181              	.LBB40:
  42:../../source/include/os_lib/double_linked_list.h **** }
 182              		.loc 2 42 0
 183 0062 6368     		ldr	r3, [r4, #4]
 184              	.LVL23:
 185              	.LBB41:
 186              	.LBB42:
  27:../../source/include/os_lib/double_linked_list.h ****     new->next = next;
 187              		.loc 2 27 0
 188 0064 6560     		str	r5, [r4, #4]
  28:../../source/include/os_lib/double_linked_list.h ****     new->prev = prev;
 189              		.loc 2 28 0
 190 0066 C5E90043 		strd	r4, r3, [r5]
  30:../../source/include/os_lib/double_linked_list.h **** }
 191              		.loc 2 30 0
 192 006a 1D60     		str	r5, [r3]
 193              	.LVL24:
 194              	.LBE42:
 195              	.LBE41:
 196              	.LBE40:
 197              	.LBE39:
  50:../../source/src/user/OS_LIB/insert_sort.c **** 		{
  51:../../source/src/user/OS_LIB/insert_sort.c **** 			list_add_tail(&insert_node->insert,pos);
  52:../../source/src/user/OS_LIB/insert_sort.c **** 			return ;
  53:../../source/src/user/OS_LIB/insert_sort.c **** 		}
  54:../../source/src/user/OS_LIB/insert_sort.c **** 
ARM GAS  G:\Users\Jaxb\AppData\Local\Temp\ccwNPxjY.s 			page 7


  55:../../source/src/user/OS_LIB/insert_sort.c **** 	}
  56:../../source/src/user/OS_LIB/insert_sort.c **** 	list_add_tail(&insert_node->insert,head);
  57:../../source/src/user/OS_LIB/insert_sort.c **** 	return ;
  58:../../source/src/user/OS_LIB/insert_sort.c **** }
 198              		.loc 1 58 0
 199 006c F8BD     		pop	{r3, r4, r5, r6, r7, pc}
 200              	.LVL25:
 201              	.L21:
 202              	.LBB43:
 203              	.LBB44:
  42:../../source/include/os_lib/double_linked_list.h **** }
 204              		.loc 2 42 0
 205 006e 5A68     		ldr	r2, [r3, #4]
 206              	.LVL26:
 207              	.LBB45:
 208              	.LBB46:
  27:../../source/include/os_lib/double_linked_list.h ****     new->next = next;
 209              		.loc 2 27 0
 210 0070 5D60     		str	r5, [r3, #4]
  28:../../source/include/os_lib/double_linked_list.h ****     new->prev = prev;
 211              		.loc 2 28 0
 212 0072 C5E90032 		strd	r3, r2, [r5]
  30:../../source/include/os_lib/double_linked_list.h **** }
 213              		.loc 2 30 0
 214 0076 1560     		str	r5, [r2]
 215              	.LVL27:
 216              	.LBE46:
 217              	.LBE45:
 218              	.LBE44:
 219              	.LBE43:
 220              		.loc 1 58 0
 221 0078 F8BD     		pop	{r3, r4, r5, r6, r7, pc}
 222              	.LVL28:
 223              	.L20:
 224              	.LBB47:
 225              	.LBB48:
 226              	.LBB49:
  27:../../source/include/os_lib/double_linked_list.h ****     new->next = next;
 227              		.loc 2 27 0
 228 007a 6560     		str	r5, [r4, #4]
  29:../../source/include/os_lib/double_linked_list.h ****     prev->next = new;
 229              		.loc 2 29 0
 230 007c C5E90044 		strd	r4, r4, [r5]
  30:../../source/include/os_lib/double_linked_list.h **** }
 231              		.loc 2 30 0
 232 0080 2560     		str	r5, [r4]
 233              	.LVL29:
 234              	.LBE49:
 235              	.LBE48:
 236              	.LBE47:
 237              		.loc 1 58 0
 238 0082 F8BD     		pop	{r3, r4, r5, r6, r7, pc}
 239              	.LVL30:
 240              	.L18:
  34:../../source/src/user/OS_LIB/insert_sort.c ****   ASSERT(NULL != insert_node);
 241              		.loc 1 34 0 discriminator 1
 242 0084 2221     		movs	r1, #34
ARM GAS  G:\Users\Jaxb\AppData\Local\Temp\ccwNPxjY.s 			page 8


 243              	.LVL31:
 244 0086 0548     		ldr	r0, .L22
 245              	.LVL32:
 246 0088 FFF7FEFF 		bl	_ASSERT
 247              	.LVL33:
  35:../../source/src/user/OS_LIB/insert_sort.c **** 
 248              		.loc 1 35 0 discriminator 1
 249 008c 002D     		cmp	r5, #0
 250 008e D4D1     		bne	.L12
 251              	.L19:
 252 0090 2321     		movs	r1, #35
 253 0092 0248     		ldr	r0, .L22
 254 0094 FFF7FEFF 		bl	_ASSERT
 255              	.LVL34:
 256 0098 CFE7     		b	.L12
 257              	.L23:
 258 009a 00BF     		.align	2
 259              	.L22:
 260 009c 00000000 		.word	.LC0
 261              		.cfi_endproc
 262              	.LFE12:
 263              		.size	insert_chain, .-insert_chain
 264              		.align	1
 265              		.p2align 2,,3
 266              		.global	find_in_chain
 267              		.syntax unified
 268              		.thumb
 269              		.thumb_func
 270              		.fpu softvfp
 271              		.type	find_in_chain, %function
 272              	find_in_chain:
 273              	.LFB13:
  59:../../source/src/user/OS_LIB/insert_sort.c **** 
  60:../../source/src/user/OS_LIB/insert_sort.c **** IL *find_in_chain(struct list_head *head,COMPARE_TYPE prio) // polymorphic
  61:../../source/src/user/OS_LIB/insert_sort.c **** {
 274              		.loc 1 61 0
 275              		.cfi_startproc
 276              		@ args = 0, pretend = 0, frame = 0
 277              		@ frame_needed = 0, uses_anonymous_args = 0
 278              		@ link register save eliminated.
 279              	.LVL35:
  62:../../source/src/user/OS_LIB/insert_sort.c **** 	struct list_head *pos, *next;
  63:../../source/src/user/OS_LIB/insert_sort.c **** 	IL *IL_ptr;
  64:../../source/src/user/OS_LIB/insert_sort.c **** 	list_for_each_safe(pos, next, head)
 280              		.loc 1 64 0
 281 00a0 0268     		ldr	r2, [r0]
 282              	.LVL36:
  61:../../source/src/user/OS_LIB/insert_sort.c **** 	struct list_head *pos, *next;
 283              		.loc 1 61 0
 284 00a2 10B4     		push	{r4}
 285              	.LCFI2:
 286              		.cfi_def_cfa_offset 4
 287              		.cfi_offset 4, -4
 288              		.loc 1 64 0
 289 00a4 9042     		cmp	r0, r2
 290 00a6 1368     		ldr	r3, [r2]
 291              	.LVL37:
ARM GAS  G:\Users\Jaxb\AppData\Local\Temp\ccwNPxjY.s 			page 9


 292 00a8 0AD0     		beq	.L28
 293              	.LVL38:
  65:../../source/src/user/OS_LIB/insert_sort.c **** 	{
  66:../../source/src/user/OS_LIB/insert_sort.c ****       IL_ptr = list_entry(pos,IL,insert);
  67:../../source/src/user/OS_LIB/insert_sort.c ****       if(prio == IL_ptr->prio)
 294              		.loc 1 67 0
 295 00aa 9468     		ldr	r4, [r2, #8]
 296 00ac A142     		cmp	r1, r4
 297 00ae 04D1     		bne	.L26
 298 00b0 0AE0     		b	.L30
 299              	.LVL39:
 300              	.L27:
 301 00b2 9C68     		ldr	r4, [r3, #8]
 302 00b4 8C42     		cmp	r4, r1
 303 00b6 04D0     		beq	.L24
  64:../../source/src/user/OS_LIB/insert_sort.c **** 	{
 304              		.loc 1 64 0
 305 00b8 1346     		mov	r3, r2
 306              	.LVL40:
 307              	.L26:
  64:../../source/src/user/OS_LIB/insert_sort.c **** 	{
 308              		.loc 1 64 0 is_stmt 0 discriminator 2
 309 00ba 9842     		cmp	r0, r3
 310 00bc 1A68     		ldr	r2, [r3]
 311              	.LVL41:
 312 00be F8D1     		bne	.L27
 313              	.LVL42:
 314              	.L28:
  68:../../source/src/user/OS_LIB/insert_sort.c ****       {
  69:../../source/src/user/OS_LIB/insert_sort.c ****       	return IL_ptr;
  70:../../source/src/user/OS_LIB/insert_sort.c ****       }
  71:../../source/src/user/OS_LIB/insert_sort.c **** 	}
  72:../../source/src/user/OS_LIB/insert_sort.c **** 	return NULL;
 315              		.loc 1 72 0 is_stmt 1
 316 00c0 0023     		movs	r3, #0
 317              	.L24:
  73:../../source/src/user/OS_LIB/insert_sort.c **** }
 318              		.loc 1 73 0
 319 00c2 1846     		mov	r0, r3
 320              	.LVL43:
 321 00c4 10BC     		pop	{r4}
 322              	.LCFI3:
 323              		.cfi_remember_state
 324              		.cfi_restore 4
 325              		.cfi_def_cfa_offset 0
 326 00c6 7047     		bx	lr
 327              	.LVL44:
 328              	.L30:
 329              	.LCFI4:
 330              		.cfi_restore_state
  67:../../source/src/user/OS_LIB/insert_sort.c ****       {
 331              		.loc 1 67 0
 332 00c8 1346     		mov	r3, r2
 333              	.LVL45:
 334 00ca FAE7     		b	.L24
 335              		.cfi_endproc
 336              	.LFE13:
ARM GAS  G:\Users\Jaxb\AppData\Local\Temp\ccwNPxjY.s 			page 10


 337              		.size	find_in_chain, .-find_in_chain
 338              		.align	1
 339              		.p2align 2,,3
 340              		.global	delete_from_chain
 341              		.syntax unified
 342              		.thumb
 343              		.thumb_func
 344              		.fpu softvfp
 345              		.type	delete_from_chain, %function
 346              	delete_from_chain:
 347              	.LFB14:
  74:../../source/src/user/OS_LIB/insert_sort.c **** 
  75:../../source/src/user/OS_LIB/insert_sort.c **** IL *delete_from_chain(struct list_head *head,COMPARE_TYPE prio)
  76:../../source/src/user/OS_LIB/insert_sort.c **** {
 348              		.loc 1 76 0
 349              		.cfi_startproc
 350              		@ args = 0, pretend = 0, frame = 0
 351              		@ frame_needed = 0, uses_anonymous_args = 0
 352              		@ link register save eliminated.
 353              	.LVL46:
 354 00cc 10B4     		push	{r4}
 355              	.LCFI5:
 356              		.cfi_def_cfa_offset 4
 357              		.cfi_offset 4, -4
  77:../../source/src/user/OS_LIB/insert_sort.c **** 	struct list_head *pos, *next;
  78:../../source/src/user/OS_LIB/insert_sort.c **** 	IL *IL_ptr;
  79:../../source/src/user/OS_LIB/insert_sort.c **** 	list_for_each_safe(pos, next, head)
 358              		.loc 1 79 0
 359 00ce 0468     		ldr	r4, [r0]
 360              	.LVL47:
 361 00d0 A042     		cmp	r0, r4
 362 00d2 2368     		ldr	r3, [r4]
 363              	.LVL48:
 364 00d4 0AD0     		beq	.L36
 365              	.LVL49:
  80:../../source/src/user/OS_LIB/insert_sort.c **** 	{
  81:../../source/src/user/OS_LIB/insert_sort.c ****       IL_ptr = list_entry(pos,IL,insert);
  82:../../source/src/user/OS_LIB/insert_sort.c ****       if(prio == IL_ptr->prio)
 366              		.loc 1 82 0
 367 00d6 A268     		ldr	r2, [r4, #8]
 368 00d8 9142     		cmp	r1, r2
 369 00da 04D1     		bne	.L34
 370 00dc 0AE0     		b	.L39
 371              	.LVL50:
 372              	.L35:
 373 00de 9C68     		ldr	r4, [r3, #8]
 374 00e0 8C42     		cmp	r4, r1
 375 00e2 09D0     		beq	.L33
  79:../../source/src/user/OS_LIB/insert_sort.c **** 	{
 376              		.loc 1 79 0
 377 00e4 1346     		mov	r3, r2
 378              	.LVL51:
 379              	.L34:
  79:../../source/src/user/OS_LIB/insert_sort.c **** 	{
 380              		.loc 1 79 0 is_stmt 0 discriminator 2
 381 00e6 9842     		cmp	r0, r3
 382 00e8 1A68     		ldr	r2, [r3]
ARM GAS  G:\Users\Jaxb\AppData\Local\Temp\ccwNPxjY.s 			page 11


 383              	.LVL52:
 384 00ea F8D1     		bne	.L35
 385              	.LVL53:
 386              	.L36:
  83:../../source/src/user/OS_LIB/insert_sort.c ****       {
  84:../../source/src/user/OS_LIB/insert_sort.c ****       	list_del(pos);
  85:../../source/src/user/OS_LIB/insert_sort.c ****       	return IL_ptr;
  86:../../source/src/user/OS_LIB/insert_sort.c ****       }
  87:../../source/src/user/OS_LIB/insert_sort.c **** 	}
  88:../../source/src/user/OS_LIB/insert_sort.c **** 	return NULL;
 387              		.loc 1 88 0 is_stmt 1
 388 00ec 0023     		movs	r3, #0
  89:../../source/src/user/OS_LIB/insert_sort.c **** }
 389              		.loc 1 89 0
 390 00ee 10BC     		pop	{r4}
 391              	.LCFI6:
 392              		.cfi_remember_state
 393              		.cfi_restore 4
 394              		.cfi_def_cfa_offset 0
 395 00f0 1846     		mov	r0, r3
 396              	.LVL54:
 397 00f2 7047     		bx	lr
 398              	.LVL55:
 399              	.L39:
 400              	.LCFI7:
 401              		.cfi_restore_state
  82:../../source/src/user/OS_LIB/insert_sort.c ****       {
 402              		.loc 1 82 0
 403 00f4 1A46     		mov	r2, r3
 404 00f6 2346     		mov	r3, r4
 405              	.LVL56:
 406              	.L33:
 407              	.LBB50:
 408              	.LBB51:
  55:../../source/include/os_lib/double_linked_list.h **** }
 409              		.loc 2 55 0
 410 00f8 5968     		ldr	r1, [r3, #4]
 411              	.LVL57:
 412              	.LBE51:
 413              	.LBE50:
 414              		.loc 1 89 0
 415 00fa 1846     		mov	r0, r3
 416              	.LVL58:
 417              	.LBB58:
 418              	.LBB56:
 419              	.LBB52:
 420              	.LBB53:
  48:../../source/include/os_lib/double_linked_list.h ****     prev->next = next;
 421              		.loc 2 48 0
 422 00fc 5160     		str	r1, [r2, #4]
 423              	.LBE53:
 424              	.LBE52:
 425              	.LBE56:
 426              	.LBE58:
 427              		.loc 1 89 0
 428 00fe 10BC     		pop	{r4}
 429              	.LCFI8:
ARM GAS  G:\Users\Jaxb\AppData\Local\Temp\ccwNPxjY.s 			page 12


 430              		.cfi_restore 4
 431              		.cfi_def_cfa_offset 0
 432              	.LBB59:
 433              	.LBB57:
 434              	.LBB55:
 435              	.LBB54:
  49:../../source/include/os_lib/double_linked_list.h **** }
 436              		.loc 2 49 0
 437 0100 0A60     		str	r2, [r1]
 438              	.LVL59:
 439              	.LBE54:
 440              	.LBE55:
 441              	.LBE57:
 442              	.LBE59:
 443              		.loc 1 89 0
 444 0102 7047     		bx	lr
 445              		.cfi_endproc
 446              	.LFE14:
 447              		.size	delete_from_chain, .-delete_from_chain
 448              		.align	1
 449              		.p2align 2,,3
 450              		.global	delete_first_in_chain
 451              		.syntax unified
 452              		.thumb
 453              		.thumb_func
 454              		.fpu softvfp
 455              		.type	delete_first_in_chain, %function
 456              	delete_first_in_chain:
 457              	.LFB15:
  90:../../source/src/user/OS_LIB/insert_sort.c **** 
  91:../../source/src/user/OS_LIB/insert_sort.c **** IL *delete_first_in_chain(struct list_head *head)
  92:../../source/src/user/OS_LIB/insert_sort.c **** {
 458              		.loc 1 92 0
 459              		.cfi_startproc
 460              		@ args = 0, pretend = 0, frame = 0
 461              		@ frame_needed = 0, uses_anonymous_args = 0
 462              		@ link register save eliminated.
 463              	.LVL60:
  93:../../source/src/user/OS_LIB/insert_sort.c **** 	struct list_head *pos;
  94:../../source/src/user/OS_LIB/insert_sort.c **** 	IL *IL_ptr;
  95:../../source/src/user/OS_LIB/insert_sort.c **** 	//ASSERT(!list_empty(head));
  96:../../source/src/user/OS_LIB/insert_sort.c **** 	pos = head->next;
 464              		.loc 1 96 0
 465 0104 0368     		ldr	r3, [r0]
 466              	.LVL61:
  97:../../source/src/user/OS_LIB/insert_sort.c **** 	if(pos == head)
 467              		.loc 1 97 0
 468 0106 9842     		cmp	r0, r3
 469              	.LVL62:
  98:../../source/src/user/OS_LIB/insert_sort.c **** 	{
  99:../../source/src/user/OS_LIB/insert_sort.c **** 		return NULL;
 470              		.loc 1 99 0
 471 0108 0CBF     		ite	eq
 472 010a 0023     		moveq	r3, #0
 473              	.LVL63:
 474              	.LBB60:
 475              	.LBB61:
ARM GAS  G:\Users\Jaxb\AppData\Local\Temp\ccwNPxjY.s 			page 13


  55:../../source/include/os_lib/double_linked_list.h **** }
 476              		.loc 2 55 0
 477 010c D3E90012 		ldrdne	r1, r2, [r3]
 478              	.LVL64:
 479              	.LBE61:
 480              	.LBE60:
 100:../../source/src/user/OS_LIB/insert_sort.c **** 	}
 101:../../source/src/user/OS_LIB/insert_sort.c **** 		
 102:../../source/src/user/OS_LIB/insert_sort.c **** 	IL_ptr = list_entry(pos,IL,insert);
 103:../../source/src/user/OS_LIB/insert_sort.c **** 	list_del(pos);
 104:../../source/src/user/OS_LIB/insert_sort.c **** 	return IL_ptr;
 105:../../source/src/user/OS_LIB/insert_sort.c **** }
 481              		.loc 1 105 0
 482 0110 1846     		mov	r0, r3
 483              	.LVL65:
 484              	.LBB65:
 485              	.LBB64:
 486              	.LBB62:
 487              	.LBB63:
  48:../../source/include/os_lib/double_linked_list.h ****     prev->next = next;
 488              		.loc 2 48 0
 489 0112 1CBF     		itt	ne
 490 0114 4A60     		strne	r2, [r1, #4]
  49:../../source/include/os_lib/double_linked_list.h **** }
 491              		.loc 2 49 0
 492 0116 1160     		strne	r1, [r2]
 493              	.LVL66:
 494              	.LBE63:
 495              	.LBE62:
 496              	.LBE64:
 497              	.LBE65:
 498              		.loc 1 105 0
 499 0118 7047     		bx	lr
 500              		.cfi_endproc
 501              	.LFE15:
 502              		.size	delete_first_in_chain, .-delete_first_in_chain
 503              		.align	1
 504 011a 00BF     		.p2align 2,,3
 505              		.global	find_first_bigger_IL
 506              		.syntax unified
 507              		.thumb
 508              		.thumb_func
 509              		.fpu softvfp
 510              		.type	find_first_bigger_IL, %function
 511              	find_first_bigger_IL:
 512              	.LFB16:
 106:../../source/src/user/OS_LIB/insert_sort.c **** 
 107:../../source/src/user/OS_LIB/insert_sort.c **** IL *find_first_bigger_IL(struct list_head *head,unsigned int prio)// polymorphic
 108:../../source/src/user/OS_LIB/insert_sort.c **** {
 513              		.loc 1 108 0
 514              		.cfi_startproc
 515              		@ args = 0, pretend = 0, frame = 0
 516              		@ frame_needed = 0, uses_anonymous_args = 0
 517              		@ link register save eliminated.
 518              	.LVL67:
 109:../../source/src/user/OS_LIB/insert_sort.c **** 	struct list_head *pos, *next;
 110:../../source/src/user/OS_LIB/insert_sort.c **** 	IL *IL_ptr;
ARM GAS  G:\Users\Jaxb\AppData\Local\Temp\ccwNPxjY.s 			page 14


 111:../../source/src/user/OS_LIB/insert_sort.c **** 	list_for_each_safe(pos, next, head)
 519              		.loc 1 111 0
 520 011c 0268     		ldr	r2, [r0]
 521              	.LVL68:
 108:../../source/src/user/OS_LIB/insert_sort.c **** 	struct list_head *pos, *next;
 522              		.loc 1 108 0
 523 011e 10B4     		push	{r4}
 524              	.LCFI9:
 525              		.cfi_def_cfa_offset 4
 526              		.cfi_offset 4, -4
 527              		.loc 1 111 0
 528 0120 9042     		cmp	r0, r2
 529 0122 1368     		ldr	r3, [r2]
 530              	.LVL69:
 531 0124 0AD0     		beq	.L47
 532              	.LVL70:
 112:../../source/src/user/OS_LIB/insert_sort.c **** 	{
 113:../../source/src/user/OS_LIB/insert_sort.c ****       IL_ptr = list_entry(pos,IL,insert);
 114:../../source/src/user/OS_LIB/insert_sort.c ****       if(prio <= IL_ptr->prio)
 533              		.loc 1 114 0
 534 0126 9468     		ldr	r4, [r2, #8]
 535 0128 A142     		cmp	r1, r4
 536 012a 04D8     		bhi	.L45
 537 012c 0AE0     		b	.L49
 538              	.LVL71:
 539              	.L46:
 540 012e 9C68     		ldr	r4, [r3, #8]
 541 0130 8C42     		cmp	r4, r1
 542 0132 04D2     		bcs	.L43
 111:../../source/src/user/OS_LIB/insert_sort.c **** 	{
 543              		.loc 1 111 0
 544 0134 1346     		mov	r3, r2
 545              	.LVL72:
 546              	.L45:
 111:../../source/src/user/OS_LIB/insert_sort.c **** 	{
 547              		.loc 1 111 0 is_stmt 0 discriminator 2
 548 0136 9842     		cmp	r0, r3
 549 0138 1A68     		ldr	r2, [r3]
 550              	.LVL73:
 551 013a F8D1     		bne	.L46
 552              	.LVL74:
 553              	.L47:
 115:../../source/src/user/OS_LIB/insert_sort.c ****       {
 116:../../source/src/user/OS_LIB/insert_sort.c ****       	return IL_ptr;
 117:../../source/src/user/OS_LIB/insert_sort.c ****       }
 118:../../source/src/user/OS_LIB/insert_sort.c **** 	}
 119:../../source/src/user/OS_LIB/insert_sort.c **** 	return NULL;
 554              		.loc 1 119 0 is_stmt 1
 555 013c 0023     		movs	r3, #0
 556              	.L43:
 120:../../source/src/user/OS_LIB/insert_sort.c **** }
 557              		.loc 1 120 0
 558 013e 1846     		mov	r0, r3
 559              	.LVL75:
 560 0140 10BC     		pop	{r4}
 561              	.LCFI10:
 562              		.cfi_remember_state
ARM GAS  G:\Users\Jaxb\AppData\Local\Temp\ccwNPxjY.s 			page 15


 563              		.cfi_restore 4
 564              		.cfi_def_cfa_offset 0
 565 0142 7047     		bx	lr
 566              	.LVL76:
 567              	.L49:
 568              	.LCFI11:
 569              		.cfi_restore_state
 114:../../source/src/user/OS_LIB/insert_sort.c ****       {
 570              		.loc 1 114 0
 571 0144 1346     		mov	r3, r2
 572              	.LVL77:
 573 0146 FAE7     		b	.L43
 574              		.cfi_endproc
 575              	.LFE16:
 576              		.size	find_first_bigger_IL, .-find_first_bigger_IL
 577              		.section	.rodata.str1.4,"aMS",%progbits,1
 578              		.align	2
 579              	.LC0:
 580 0000 2E2E2F2E 		.ascii	"../../source/src/user/OS_LIB/insert_sort.c\000"
 580      2E2F736F 
 580      75726365 
 580      2F737263 
 580      2F757365 
 581              		.text
 582              	.Letext0:
 583              		.file 3 "../../source/include/os_cpu/kakaosstdint.h"
 584              		.file 4 "../../source/include/os_lib/insert_sort.h"
 585              		.file 5 "../../source/include/os_lib/myassert.h"
 586              		.section	.debug_info,"",%progbits
 587              	.Ldebug_info0:
 588 0000 B5060000 		.4byte	0x6b5
 589 0004 0200     		.2byte	0x2
 590 0006 00000000 		.4byte	.Ldebug_abbrev0
 591 000a 04       		.byte	0x4
 592 000b 01       		.uleb128 0x1
 593 000c C2010000 		.4byte	.LASF38
 594 0010 0C       		.byte	0xc
 595 0011 0A000000 		.4byte	.LASF39
 596 0015 8A020000 		.4byte	.LASF40
 597 0019 00000000 		.4byte	.Ltext0
 598 001d 48010000 		.4byte	.Letext0
 599 0021 00000000 		.4byte	.Ldebug_line0
 600 0025 02       		.uleb128 0x2
 601 0026 01       		.byte	0x1
 602 0027 06       		.byte	0x6
 603 0028 70020000 		.4byte	.LASF0
 604 002c 02       		.uleb128 0x2
 605 002d 02       		.byte	0x2
 606 002e 05       		.byte	0x5
 607 002f 91010000 		.4byte	.LASF1
 608 0033 03       		.uleb128 0x3
 609 0034 04       		.byte	0x4
 610 0035 05       		.byte	0x5
 611 0036 696E7400 		.ascii	"int\000"
 612 003a 04       		.uleb128 0x4
 613 003b 94000000 		.4byte	.LASF5
 614 003f 03       		.byte	0x3
ARM GAS  G:\Users\Jaxb\AppData\Local\Temp\ccwNPxjY.s 			page 16


 615 0040 08       		.byte	0x8
 616 0041 45000000 		.4byte	0x45
 617 0045 02       		.uleb128 0x2
 618 0046 08       		.byte	0x8
 619 0047 05       		.byte	0x5
 620 0048 6F010000 		.4byte	.LASF2
 621 004c 02       		.uleb128 0x2
 622 004d 01       		.byte	0x1
 623 004e 08       		.byte	0x8
 624 004f A6000000 		.4byte	.LASF3
 625 0053 02       		.uleb128 0x2
 626 0054 02       		.byte	0x2
 627 0055 07       		.byte	0x7
 628 0056 D2000000 		.4byte	.LASF4
 629 005a 04       		.uleb128 0x4
 630 005b 7D010000 		.4byte	.LASF6
 631 005f 03       		.byte	0x3
 632 0060 0C       		.byte	0xc
 633 0061 65000000 		.4byte	0x65
 634 0065 02       		.uleb128 0x2
 635 0066 04       		.byte	0x4
 636 0067 07       		.byte	0x7
 637 0068 0B010000 		.4byte	.LASF7
 638 006c 02       		.uleb128 0x2
 639 006d 08       		.byte	0x8
 640 006e 07       		.byte	0x7
 641 006f 2A010000 		.4byte	.LASF8
 642 0073 04       		.uleb128 0x4
 643 0074 E5000000 		.4byte	.LASF9
 644 0078 03       		.byte	0x3
 645 0079 23       		.byte	0x23
 646 007a 65000000 		.4byte	0x65
 647 007e 05       		.uleb128 0x5
 648 007f 65010000 		.4byte	.LASF13
 649 0083 08       		.byte	0x8
 650 0084 02       		.byte	0x2
 651 0085 04       		.byte	0x4
 652 0086 A7000000 		.4byte	0xa7
 653 008a 06       		.uleb128 0x6
 654 008b 35000000 		.4byte	.LASF10
 655 008f 02       		.byte	0x2
 656 0090 05       		.byte	0x5
 657 0091 AC000000 		.4byte	0xac
 658 0095 02       		.byte	0x2
 659 0096 23       		.byte	0x23
 660 0097 00       		.uleb128 0
 661 0098 06       		.uleb128 0x6
 662 0099 7C020000 		.4byte	.LASF11
 663 009d 02       		.byte	0x2
 664 009e 05       		.byte	0x5
 665 009f AC000000 		.4byte	0xac
 666 00a3 02       		.byte	0x2
 667 00a4 23       		.byte	0x23
 668 00a5 04       		.uleb128 0x4
 669 00a6 00       		.byte	0
 670 00a7 07       		.uleb128 0x7
 671 00a8 7E000000 		.4byte	0x7e
ARM GAS  G:\Users\Jaxb\AppData\Local\Temp\ccwNPxjY.s 			page 17


 672 00ac 08       		.uleb128 0x8
 673 00ad 04       		.byte	0x4
 674 00ae 7E000000 		.4byte	0x7e
 675 00b2 04       		.uleb128 0x4
 676 00b3 87000000 		.4byte	.LASF12
 677 00b7 04       		.byte	0x4
 678 00b8 07       		.byte	0x7
 679 00b9 5A000000 		.4byte	0x5a
 680 00bd 05       		.uleb128 0x5
 681 00be 9B010000 		.4byte	.LASF14
 682 00c2 0C       		.byte	0xc
 683 00c3 04       		.byte	0x4
 684 00c4 09       		.byte	0x9
 685 00c5 E6000000 		.4byte	0xe6
 686 00c9 06       		.uleb128 0x6
 687 00ca 41010000 		.4byte	.LASF15
 688 00ce 04       		.byte	0x4
 689 00cf 0A       		.byte	0xa
 690 00d0 7E000000 		.4byte	0x7e
 691 00d4 02       		.byte	0x2
 692 00d5 23       		.byte	0x23
 693 00d6 00       		.uleb128 0
 694 00d7 06       		.uleb128 0x6
 695 00d8 05000000 		.4byte	.LASF16
 696 00dc 04       		.byte	0x4
 697 00dd 0B       		.byte	0xb
 698 00de B2000000 		.4byte	0xb2
 699 00e2 02       		.byte	0x2
 700 00e3 23       		.byte	0x23
 701 00e4 08       		.uleb128 0x8
 702 00e5 00       		.byte	0
 703 00e6 09       		.uleb128 0x9
 704 00e7 494C00   		.ascii	"IL\000"
 705 00ea 04       		.byte	0x4
 706 00eb 0C       		.byte	0xc
 707 00ec BD000000 		.4byte	0xbd
 708 00f0 0A       		.uleb128 0xa
 709 00f1 01       		.byte	0x1
 710 00f2 50010000 		.4byte	.LASF19
 711 00f6 01       		.byte	0x1
 712 00f7 6B       		.byte	0x6b
 713 00f8 01       		.byte	0x1
 714 00f9 65010000 		.4byte	0x165
 715 00fd 1C010000 		.4byte	.LFB16
 716 0101 48010000 		.4byte	.LFE16
 717 0105 00000000 		.4byte	.LLST48
 718 0109 01       		.byte	0x1
 719 010a 65010000 		.4byte	0x165
 720 010e 0B       		.uleb128 0xb
 721 010f 06010000 		.4byte	.LASF17
 722 0113 01       		.byte	0x1
 723 0114 6B       		.byte	0x6b
 724 0115 AC000000 		.4byte	0xac
 725 0119 38000000 		.4byte	.LLST49
 726 011d 0C       		.uleb128 0xc
 727 011e 05000000 		.4byte	.LASF16
 728 0122 01       		.byte	0x1
ARM GAS  G:\Users\Jaxb\AppData\Local\Temp\ccwNPxjY.s 			page 18


 729 0123 6B       		.byte	0x6b
 730 0124 65000000 		.4byte	0x65
 731 0128 01       		.byte	0x1
 732 0129 51       		.byte	0x51
 733 012a 0D       		.uleb128 0xd
 734 012b 706F7300 		.ascii	"pos\000"
 735 012f 01       		.byte	0x1
 736 0130 6D       		.byte	0x6d
 737 0131 AC000000 		.4byte	0xac
 738 0135 64000000 		.4byte	.LLST50
 739 0139 0E       		.uleb128 0xe
 740 013a 35000000 		.4byte	.LASF10
 741 013e 01       		.byte	0x1
 742 013f 6D       		.byte	0x6d
 743 0140 AC000000 		.4byte	0xac
 744 0144 8D000000 		.4byte	.LLST51
 745 0148 0E       		.uleb128 0xe
 746 0149 B2010000 		.4byte	.LASF18
 747 014d 01       		.byte	0x1
 748 014e 6E       		.byte	0x6e
 749 014f 65010000 		.4byte	0x165
 750 0153 D8000000 		.4byte	.LLST52
 751 0157 0F       		.uleb128 0xf
 752 0158 10       		.uleb128 0x10
 753 0159 CB000000 		.4byte	.LASF21
 754 015d 01       		.byte	0x1
 755 015e 71       		.byte	0x71
 756 015f 6B010000 		.4byte	0x16b
 757 0163 00       		.byte	0
 758 0164 00       		.byte	0
 759 0165 08       		.uleb128 0x8
 760 0166 04       		.byte	0x4
 761 0167 E6000000 		.4byte	0xe6
 762 016b 08       		.uleb128 0x8
 763 016c 04       		.byte	0x4
 764 016d A7000000 		.4byte	0xa7
 765 0171 11       		.uleb128 0x11
 766 0172 01       		.byte	0x1
 767 0173 51000000 		.4byte	.LASF20
 768 0177 01       		.byte	0x1
 769 0178 5B       		.byte	0x5b
 770 0179 01       		.byte	0x1
 771 017a 65010000 		.4byte	0x165
 772 017e 04010000 		.4byte	.LFB15
 773 0182 1A010000 		.4byte	.LFE15
 774 0186 02       		.byte	0x2
 775 0187 7D       		.byte	0x7d
 776 0188 00       		.sleb128 0
 777 0189 01       		.byte	0x1
 778 018a 08020000 		.4byte	0x208
 779 018e 0B       		.uleb128 0xb
 780 018f 06010000 		.4byte	.LASF17
 781 0193 01       		.byte	0x1
 782 0194 5B       		.byte	0x5b
 783 0195 AC000000 		.4byte	0xac
 784 0199 02010000 		.4byte	.LLST42
 785 019d 0D       		.uleb128 0xd
ARM GAS  G:\Users\Jaxb\AppData\Local\Temp\ccwNPxjY.s 			page 19


 786 019e 706F7300 		.ascii	"pos\000"
 787 01a2 01       		.byte	0x1
 788 01a3 5D       		.byte	0x5d
 789 01a4 AC000000 		.4byte	0xac
 790 01a8 23010000 		.4byte	.LLST43
 791 01ac 0E       		.uleb128 0xe
 792 01ad B2010000 		.4byte	.LASF18
 793 01b1 01       		.byte	0x1
 794 01b2 5E       		.byte	0x5e
 795 01b3 65010000 		.4byte	0x165
 796 01b7 4F010000 		.4byte	.LLST44
 797 01bb 12       		.uleb128 0x12
 798 01bc CC010000 		.4byte	0x1cc
 799 01c0 10       		.uleb128 0x10
 800 01c1 CB000000 		.4byte	.LASF21
 801 01c5 01       		.byte	0x1
 802 01c6 66       		.byte	0x66
 803 01c7 6B010000 		.4byte	0x16b
 804 01cb 00       		.byte	0
 805 01cc 13       		.uleb128 0x13
 806 01cd DE050000 		.4byte	0x5de
 807 01d1 0C010000 		.4byte	.LBB60
 808 01d5 38000000 		.4byte	.Ldebug_ranges0+0x38
 809 01d9 01       		.byte	0x1
 810 01da 67       		.byte	0x67
 811 01db 14       		.uleb128 0x14
 812 01dc EB050000 		.4byte	0x5eb
 813 01e0 7B010000 		.4byte	.LLST45
 814 01e4 15       		.uleb128 0x15
 815 01e5 F7050000 		.4byte	0x5f7
 816 01e9 12010000 		.4byte	.LBB62
 817 01ed 18010000 		.4byte	.LBE62
 818 01f1 02       		.byte	0x2
 819 01f2 37       		.byte	0x37
 820 01f3 14       		.uleb128 0x14
 821 01f4 0F060000 		.4byte	0x60f
 822 01f8 A7010000 		.4byte	.LLST46
 823 01fc 14       		.uleb128 0x14
 824 01fd 04060000 		.4byte	0x604
 825 0201 BA010000 		.4byte	.LLST47
 826 0205 00       		.byte	0
 827 0206 00       		.byte	0
 828 0207 00       		.byte	0
 829 0208 0A       		.uleb128 0xa
 830 0209 01       		.byte	0x1
 831 020a 18010000 		.4byte	.LASF22
 832 020e 01       		.byte	0x1
 833 020f 4B       		.byte	0x4b
 834 0210 01       		.byte	0x1
 835 0211 65010000 		.4byte	0x165
 836 0215 CC000000 		.4byte	.LFB14
 837 0219 04010000 		.4byte	.LFE14
 838 021d CD010000 		.4byte	.LLST33
 839 0221 01       		.byte	0x1
 840 0222 BE020000 		.4byte	0x2be
 841 0226 0B       		.uleb128 0xb
 842 0227 06010000 		.4byte	.LASF17
ARM GAS  G:\Users\Jaxb\AppData\Local\Temp\ccwNPxjY.s 			page 20


 843 022b 01       		.byte	0x1
 844 022c 4B       		.byte	0x4b
 845 022d AC000000 		.4byte	0xac
 846 0231 11020000 		.4byte	.LLST34
 847 0235 0B       		.uleb128 0xb
 848 0236 05000000 		.4byte	.LASF16
 849 023a 01       		.byte	0x1
 850 023b 4B       		.byte	0x4b
 851 023c B2000000 		.4byte	0xb2
 852 0240 4B020000 		.4byte	.LLST35
 853 0244 0D       		.uleb128 0xd
 854 0245 706F7300 		.ascii	"pos\000"
 855 0249 01       		.byte	0x1
 856 024a 4D       		.byte	0x4d
 857 024b AC000000 		.4byte	0xac
 858 024f 6C020000 		.4byte	.LLST36
 859 0253 0E       		.uleb128 0xe
 860 0254 35000000 		.4byte	.LASF10
 861 0258 01       		.byte	0x1
 862 0259 4D       		.byte	0x4d
 863 025a AC000000 		.4byte	0xac
 864 025e 97020000 		.4byte	.LLST37
 865 0262 0E       		.uleb128 0xe
 866 0263 B2010000 		.4byte	.LASF18
 867 0267 01       		.byte	0x1
 868 0268 4E       		.byte	0x4e
 869 0269 65010000 		.4byte	0x165
 870 026d E1020000 		.4byte	.LLST38
 871 0271 12       		.uleb128 0x12
 872 0272 82020000 		.4byte	0x282
 873 0276 10       		.uleb128 0x10
 874 0277 CB000000 		.4byte	.LASF21
 875 027b 01       		.byte	0x1
 876 027c 51       		.byte	0x51
 877 027d 6B010000 		.4byte	0x16b
 878 0281 00       		.byte	0
 879 0282 13       		.uleb128 0x13
 880 0283 DE050000 		.4byte	0x5de
 881 0287 F8000000 		.4byte	.LBB50
 882 028b 00000000 		.4byte	.Ldebug_ranges0+0
 883 028f 01       		.byte	0x1
 884 0290 54       		.byte	0x54
 885 0291 14       		.uleb128 0x14
 886 0292 EB050000 		.4byte	0x5eb
 887 0296 0E030000 		.4byte	.LLST39
 888 029a 13       		.uleb128 0x13
 889 029b F7050000 		.4byte	0x5f7
 890 029f FC000000 		.4byte	.LBB52
 891 02a3 20000000 		.4byte	.Ldebug_ranges0+0x20
 892 02a7 02       		.byte	0x2
 893 02a8 37       		.byte	0x37
 894 02a9 14       		.uleb128 0x14
 895 02aa 0F060000 		.4byte	0x60f
 896 02ae 21030000 		.4byte	.LLST40
 897 02b2 14       		.uleb128 0x14
 898 02b3 04060000 		.4byte	0x604
 899 02b7 35030000 		.4byte	.LLST41
ARM GAS  G:\Users\Jaxb\AppData\Local\Temp\ccwNPxjY.s 			page 21


 900 02bb 00       		.byte	0
 901 02bc 00       		.byte	0
 902 02bd 00       		.byte	0
 903 02be 0A       		.uleb128 0xa
 904 02bf 01       		.byte	0x1
 905 02c0 79000000 		.4byte	.LASF23
 906 02c4 01       		.byte	0x1
 907 02c5 3C       		.byte	0x3c
 908 02c6 01       		.byte	0x1
 909 02c7 65010000 		.4byte	0x165
 910 02cb A0000000 		.4byte	.LFB13
 911 02cf CC000000 		.4byte	.LFE13
 912 02d3 48030000 		.4byte	.LLST28
 913 02d7 01       		.byte	0x1
 914 02d8 33030000 		.4byte	0x333
 915 02dc 0B       		.uleb128 0xb
 916 02dd 06010000 		.4byte	.LASF17
 917 02e1 01       		.byte	0x1
 918 02e2 3C       		.byte	0x3c
 919 02e3 AC000000 		.4byte	0xac
 920 02e7 80030000 		.4byte	.LLST29
 921 02eb 0C       		.uleb128 0xc
 922 02ec 05000000 		.4byte	.LASF16
 923 02f0 01       		.byte	0x1
 924 02f1 3C       		.byte	0x3c
 925 02f2 B2000000 		.4byte	0xb2
 926 02f6 01       		.byte	0x1
 927 02f7 51       		.byte	0x51
 928 02f8 0D       		.uleb128 0xd
 929 02f9 706F7300 		.ascii	"pos\000"
 930 02fd 01       		.byte	0x1
 931 02fe 3E       		.byte	0x3e
 932 02ff AC000000 		.4byte	0xac
 933 0303 AC030000 		.4byte	.LLST30
 934 0307 0E       		.uleb128 0xe
 935 0308 35000000 		.4byte	.LASF10
 936 030c 01       		.byte	0x1
 937 030d 3E       		.byte	0x3e
 938 030e AC000000 		.4byte	0xac
 939 0312 D5030000 		.4byte	.LLST31
 940 0316 0E       		.uleb128 0xe
 941 0317 B2010000 		.4byte	.LASF18
 942 031b 01       		.byte	0x1
 943 031c 3F       		.byte	0x3f
 944 031d 65010000 		.4byte	0x165
 945 0321 20040000 		.4byte	.LLST32
 946 0325 0F       		.uleb128 0xf
 947 0326 10       		.uleb128 0x10
 948 0327 CB000000 		.4byte	.LASF21
 949 032b 01       		.byte	0x1
 950 032c 42       		.byte	0x42
 951 032d 6B010000 		.4byte	0x16b
 952 0331 00       		.byte	0
 953 0332 00       		.byte	0
 954 0333 16       		.uleb128 0x16
 955 0334 01       		.byte	0x1
 956 0335 84010000 		.4byte	.LASF28
ARM GAS  G:\Users\Jaxb\AppData\Local\Temp\ccwNPxjY.s 			page 22


 957 0339 01       		.byte	0x1
 958 033a 1C       		.byte	0x1c
 959 033b 01       		.byte	0x1
 960 033c 30000000 		.4byte	.LFB12
 961 0340 A0000000 		.4byte	.LFE12
 962 0344 4A040000 		.4byte	.LLST5
 963 0348 01       		.byte	0x1
 964 0349 FF040000 		.4byte	0x4ff
 965 034d 0B       		.uleb128 0xb
 966 034e 06010000 		.4byte	.LASF17
 967 0352 01       		.byte	0x1
 968 0353 1D       		.byte	0x1d
 969 0354 AC000000 		.4byte	0xac
 970 0358 6A040000 		.4byte	.LLST6
 971 035c 0B       		.uleb128 0xb
 972 035d 9A000000 		.4byte	.LASF24
 973 0361 01       		.byte	0x1
 974 0362 1E       		.byte	0x1e
 975 0363 65010000 		.4byte	0x165
 976 0367 9E040000 		.4byte	.LLST7
 977 036b 0D       		.uleb128 0xd
 978 036c 706F7300 		.ascii	"pos\000"
 979 0370 01       		.byte	0x1
 980 0371 21       		.byte	0x21
 981 0372 AC000000 		.4byte	0xac
 982 0376 D2040000 		.4byte	.LLST8
 983 037a 0E       		.uleb128 0xe
 984 037b 35000000 		.4byte	.LASF10
 985 037f 01       		.byte	0x1
 986 0380 21       		.byte	0x21
 987 0381 AC000000 		.4byte	0xac
 988 0385 F0040000 		.4byte	.LLST9
 989 0389 0E       		.uleb128 0xe
 990 038a 05000000 		.4byte	.LASF16
 991 038e 01       		.byte	0x1
 992 038f 2B       		.byte	0x2b
 993 0390 B2000000 		.4byte	0xb2
 994 0394 2F050000 		.4byte	.LLST10
 995 0398 0E       		.uleb128 0xe
 996 0399 B2010000 		.4byte	.LASF18
 997 039d 01       		.byte	0x1
 998 039e 2C       		.byte	0x2c
 999 039f 65010000 		.4byte	0x165
 1000 03a3 4E050000 		.4byte	.LLST11
 1001 03a7 12       		.uleb128 0x12
 1002 03a8 B8030000 		.4byte	0x3b8
 1003 03ac 10       		.uleb128 0x10
 1004 03ad CB000000 		.4byte	.LASF21
 1005 03b1 01       		.byte	0x1
 1006 03b2 2F       		.byte	0x2f
 1007 03b3 6B010000 		.4byte	0x16b
 1008 03b7 00       		.byte	0
 1009 03b8 17       		.uleb128 0x17
 1010 03b9 C1050000 		.4byte	0x5c1
 1011 03bd 3A000000 		.4byte	.LBB37
 1012 03c1 3C000000 		.4byte	.LBE37
 1013 03c5 01       		.byte	0x1
ARM GAS  G:\Users\Jaxb\AppData\Local\Temp\ccwNPxjY.s 			page 23


 1014 03c6 25       		.byte	0x25
 1015 03c7 D5030000 		.4byte	0x3d5
 1016 03cb 14       		.uleb128 0x14
 1017 03cc D2050000 		.4byte	0x5d2
 1018 03d0 6C050000 		.4byte	.LLST12
 1019 03d4 00       		.byte	0
 1020 03d5 17       		.uleb128 0x17
 1021 03d6 1B060000 		.4byte	0x61b
 1022 03da 62000000 		.4byte	.LBB39
 1023 03de 6C000000 		.4byte	.LBE39
 1024 03e2 01       		.byte	0x1
 1025 03e3 38       		.byte	0x38
 1026 03e4 26040000 		.4byte	0x426
 1027 03e8 14       		.uleb128 0x14
 1028 03e9 33060000 		.4byte	0x633
 1029 03ed 7F050000 		.4byte	.LLST13
 1030 03f1 14       		.uleb128 0x14
 1031 03f2 28060000 		.4byte	0x628
 1032 03f6 92050000 		.4byte	.LLST14
 1033 03fa 15       		.uleb128 0x15
 1034 03fb 63060000 		.4byte	0x663
 1035 03ff 64000000 		.4byte	.LBB41
 1036 0403 6C000000 		.4byte	.LBE41
 1037 0407 02       		.byte	0x2
 1038 0408 2A       		.byte	0x2a
 1039 0409 14       		.uleb128 0x14
 1040 040a 86060000 		.4byte	0x686
 1041 040e A5050000 		.4byte	.LLST15
 1042 0412 14       		.uleb128 0x14
 1043 0413 7B060000 		.4byte	0x67b
 1044 0417 B8050000 		.4byte	.LLST16
 1045 041b 14       		.uleb128 0x14
 1046 041c 70060000 		.4byte	0x670
 1047 0420 CB050000 		.4byte	.LLST17
 1048 0424 00       		.byte	0
 1049 0425 00       		.byte	0
 1050 0426 17       		.uleb128 0x17
 1051 0427 1B060000 		.4byte	0x61b
 1052 042b 6E000000 		.4byte	.LBB43
 1053 042f 78000000 		.4byte	.LBE43
 1054 0433 01       		.byte	0x1
 1055 0434 33       		.byte	0x33
 1056 0435 77040000 		.4byte	0x477
 1057 0439 14       		.uleb128 0x14
 1058 043a 33060000 		.4byte	0x633
 1059 043e DE050000 		.4byte	.LLST18
 1060 0442 14       		.uleb128 0x14
 1061 0443 28060000 		.4byte	0x628
 1062 0447 F1050000 		.4byte	.LLST19
 1063 044b 15       		.uleb128 0x15
 1064 044c 63060000 		.4byte	0x663
 1065 0450 70000000 		.4byte	.LBB45
 1066 0454 78000000 		.4byte	.LBE45
 1067 0458 02       		.byte	0x2
 1068 0459 2A       		.byte	0x2a
 1069 045a 14       		.uleb128 0x14
 1070 045b 86060000 		.4byte	0x686
ARM GAS  G:\Users\Jaxb\AppData\Local\Temp\ccwNPxjY.s 			page 24


 1071 045f 04060000 		.4byte	.LLST20
 1072 0463 14       		.uleb128 0x14
 1073 0464 7B060000 		.4byte	0x67b
 1074 0468 17060000 		.4byte	.LLST21
 1075 046c 14       		.uleb128 0x14
 1076 046d 70060000 		.4byte	0x670
 1077 0471 2A060000 		.4byte	.LLST22
 1078 0475 00       		.byte	0
 1079 0476 00       		.byte	0
 1080 0477 17       		.uleb128 0x17
 1081 0478 3F060000 		.4byte	0x63f
 1082 047c 7A000000 		.4byte	.LBB47
 1083 0480 82000000 		.4byte	.LBE47
 1084 0484 01       		.byte	0x1
 1085 0485 27       		.byte	0x27
 1086 0486 C8040000 		.4byte	0x4c8
 1087 048a 14       		.uleb128 0x14
 1088 048b 57060000 		.4byte	0x657
 1089 048f 3D060000 		.4byte	.LLST23
 1090 0493 14       		.uleb128 0x14
 1091 0494 4C060000 		.4byte	0x64c
 1092 0498 50060000 		.4byte	.LLST24
 1093 049c 15       		.uleb128 0x15
 1094 049d 63060000 		.4byte	0x663
 1095 04a1 7A000000 		.4byte	.LBB48
 1096 04a5 82000000 		.4byte	.LBE48
 1097 04a9 02       		.byte	0x2
 1098 04aa 24       		.byte	0x24
 1099 04ab 14       		.uleb128 0x14
 1100 04ac 86060000 		.4byte	0x686
 1101 04b0 63060000 		.4byte	.LLST25
 1102 04b4 14       		.uleb128 0x14
 1103 04b5 7B060000 		.4byte	0x67b
 1104 04b9 63060000 		.4byte	.LLST25
 1105 04bd 14       		.uleb128 0x14
 1106 04be 70060000 		.4byte	0x670
 1107 04c2 76060000 		.4byte	.LLST27
 1108 04c6 00       		.byte	0
 1109 04c7 00       		.byte	0
 1110 04c8 18       		.uleb128 0x18
 1111 04c9 8C000000 		.4byte	.LVL33
 1112 04cd AB060000 		.4byte	0x6ab
 1113 04d1 E5040000 		.4byte	0x4e5
 1114 04d5 19       		.uleb128 0x19
 1115 04d6 01       		.byte	0x1
 1116 04d7 50       		.byte	0x50
 1117 04d8 05       		.byte	0x5
 1118 04d9 03       		.byte	0x3
 1119 04da 00000000 		.4byte	.LC0
 1120 04de 19       		.uleb128 0x19
 1121 04df 01       		.byte	0x1
 1122 04e0 51       		.byte	0x51
 1123 04e1 02       		.byte	0x2
 1124 04e2 08       		.byte	0x8
 1125 04e3 22       		.byte	0x22
 1126 04e4 00       		.byte	0
 1127 04e5 1A       		.uleb128 0x1a
ARM GAS  G:\Users\Jaxb\AppData\Local\Temp\ccwNPxjY.s 			page 25


 1128 04e6 98000000 		.4byte	.LVL34
 1129 04ea AB060000 		.4byte	0x6ab
 1130 04ee 19       		.uleb128 0x19
 1131 04ef 01       		.byte	0x1
 1132 04f0 50       		.byte	0x50
 1133 04f1 05       		.byte	0x5
 1134 04f2 03       		.byte	0x3
 1135 04f3 00000000 		.4byte	.LC0
 1136 04f7 19       		.uleb128 0x19
 1137 04f8 01       		.byte	0x1
 1138 04f9 51       		.byte	0x51
 1139 04fa 02       		.byte	0x2
 1140 04fb 08       		.byte	0x8
 1141 04fc 23       		.byte	0x23
 1142 04fd 00       		.byte	0
 1143 04fe 00       		.byte	0
 1144 04ff 0A       		.uleb128 0xa
 1145 0500 01       		.byte	0x1
 1146 0501 3A000000 		.4byte	.LASF25
 1147 0505 01       		.byte	0x1
 1148 0506 0E       		.byte	0xe
 1149 0507 01       		.byte	0x1
 1150 0508 65010000 		.4byte	0x165
 1151 050c 08000000 		.4byte	.LFB11
 1152 0510 30000000 		.4byte	.LFE11
 1153 0514 89060000 		.4byte	.LLST1
 1154 0518 01       		.byte	0x1
 1155 0519 74050000 		.4byte	0x574
 1156 051d 0B       		.uleb128 0xb
 1157 051e B2010000 		.4byte	.LASF18
 1158 0522 01       		.byte	0x1
 1159 0523 0E       		.byte	0xe
 1160 0524 65010000 		.4byte	0x165
 1161 0528 A9060000 		.4byte	.LLST2
 1162 052c 0B       		.uleb128 0xb
 1163 052d B9010000 		.4byte	.LASF26
 1164 0531 01       		.byte	0x1
 1165 0532 0E       		.byte	0xe
 1166 0533 AC000000 		.4byte	0xac
 1167 0537 EB060000 		.4byte	.LLST3
 1168 053b 0E       		.uleb128 0xe
 1169 053c 67000000 		.4byte	.LASF27
 1170 0540 01       		.byte	0x1
 1171 0541 11       		.byte	0x11
 1172 0542 AC000000 		.4byte	0xac
 1173 0546 17070000 		.4byte	.LLST4
 1174 054a 12       		.uleb128 0x12
 1175 054b 5B050000 		.4byte	0x55b
 1176 054f 10       		.uleb128 0x10
 1177 0550 CB000000 		.4byte	.LASF21
 1178 0554 01       		.byte	0x1
 1179 0555 18       		.byte	0x18
 1180 0556 6B010000 		.4byte	0x16b
 1181 055a 00       		.byte	0
 1182 055b 1A       		.uleb128 0x1a
 1183 055c 22000000 		.4byte	.LVL9
 1184 0560 AB060000 		.4byte	0x6ab
ARM GAS  G:\Users\Jaxb\AppData\Local\Temp\ccwNPxjY.s 			page 26


 1185 0564 19       		.uleb128 0x19
 1186 0565 01       		.byte	0x1
 1187 0566 50       		.byte	0x50
 1188 0567 05       		.byte	0x5
 1189 0568 03       		.byte	0x3
 1190 0569 00000000 		.4byte	.LC0
 1191 056d 19       		.uleb128 0x19
 1192 056e 01       		.byte	0x1
 1193 056f 51       		.byte	0x51
 1194 0570 01       		.byte	0x1
 1195 0571 40       		.byte	0x40
 1196 0572 00       		.byte	0
 1197 0573 00       		.byte	0
 1198 0574 1B       		.uleb128 0x1b
 1199 0575 01       		.byte	0x1
 1200 0576 48010000 		.4byte	.LASF29
 1201 057a 01       		.byte	0x1
 1202 057b 08       		.byte	0x8
 1203 057c 01       		.byte	0x1
 1204 057d 00000000 		.4byte	.LFB10
 1205 0581 08000000 		.4byte	.LFE10
 1206 0585 02       		.byte	0x2
 1207 0586 7D       		.byte	0x7d
 1208 0587 00       		.sleb128 0
 1209 0588 01       		.byte	0x1
 1210 0589 C1050000 		.4byte	0x5c1
 1211 058d 0C       		.uleb128 0xc
 1212 058e B2010000 		.4byte	.LASF18
 1213 0592 01       		.byte	0x1
 1214 0593 08       		.byte	0x8
 1215 0594 65010000 		.4byte	0x165
 1216 0598 01       		.byte	0x1
 1217 0599 50       		.byte	0x50
 1218 059a 0C       		.uleb128 0xc
 1219 059b 05000000 		.4byte	.LASF16
 1220 059f 01       		.byte	0x1
 1221 05a0 08       		.byte	0x8
 1222 05a1 B2000000 		.4byte	0xb2
 1223 05a5 01       		.byte	0x1
 1224 05a6 51       		.byte	0x51
 1225 05a7 15       		.uleb128 0x15
 1226 05a8 92060000 		.4byte	0x692
 1227 05ac 00000000 		.4byte	.LBB35
 1228 05b0 04000000 		.4byte	.LBE35
 1229 05b4 01       		.byte	0x1
 1230 05b5 0A       		.byte	0xa
 1231 05b6 14       		.uleb128 0x14
 1232 05b7 9F060000 		.4byte	0x69f
 1233 05bb 65070000 		.4byte	.LLST0
 1234 05bf 00       		.byte	0
 1235 05c0 00       		.byte	0
 1236 05c1 1C       		.uleb128 0x1c
 1237 05c2 46000000 		.4byte	.LASF41
 1238 05c6 02       		.byte	0x2
 1239 05c7 52       		.byte	0x52
 1240 05c8 01       		.byte	0x1
 1241 05c9 33000000 		.4byte	0x33
ARM GAS  G:\Users\Jaxb\AppData\Local\Temp\ccwNPxjY.s 			page 27


 1242 05cd 03       		.byte	0x3
 1243 05ce DE050000 		.4byte	0x5de
 1244 05d2 1D       		.uleb128 0x1d
 1245 05d3 06010000 		.4byte	.LASF17
 1246 05d7 02       		.byte	0x2
 1247 05d8 52       		.byte	0x52
 1248 05d9 6B010000 		.4byte	0x16b
 1249 05dd 00       		.byte	0
 1250 05de 1E       		.uleb128 0x1e
 1251 05df 81020000 		.4byte	.LASF31
 1252 05e3 02       		.byte	0x2
 1253 05e4 35       		.byte	0x35
 1254 05e5 01       		.byte	0x1
 1255 05e6 03       		.byte	0x3
 1256 05e7 F7050000 		.4byte	0x5f7
 1257 05eb 1D       		.uleb128 0x1d
 1258 05ec 73000000 		.4byte	.LASF30
 1259 05f0 02       		.byte	0x2
 1260 05f1 35       		.byte	0x35
 1261 05f2 AC000000 		.4byte	0xac
 1262 05f6 00       		.byte	0
 1263 05f7 1E       		.uleb128 0x1e
 1264 05f8 EC000000 		.4byte	.LASF32
 1265 05fc 02       		.byte	0x2
 1266 05fd 2E       		.byte	0x2e
 1267 05fe 01       		.byte	0x1
 1268 05ff 03       		.byte	0x3
 1269 0600 1B060000 		.4byte	0x61b
 1270 0604 1D       		.uleb128 0x1d
 1271 0605 7C020000 		.4byte	.LASF11
 1272 0609 02       		.byte	0x2
 1273 060a 2E       		.byte	0x2e
 1274 060b AC000000 		.4byte	0xac
 1275 060f 1D       		.uleb128 0x1d
 1276 0610 35000000 		.4byte	.LASF10
 1277 0614 02       		.byte	0x2
 1278 0615 2E       		.byte	0x2e
 1279 0616 AC000000 		.4byte	0xac
 1280 061a 00       		.byte	0
 1281 061b 1E       		.uleb128 0x1e
 1282 061c B4000000 		.4byte	.LASF33
 1283 0620 02       		.byte	0x2
 1284 0621 28       		.byte	0x28
 1285 0622 01       		.byte	0x1
 1286 0623 03       		.byte	0x3
 1287 0624 3F060000 		.4byte	0x63f
 1288 0628 1F       		.uleb128 0x1f
 1289 0629 6E657700 		.ascii	"new\000"
 1290 062d 02       		.byte	0x2
 1291 062e 28       		.byte	0x28
 1292 062f AC000000 		.4byte	0xac
 1293 0633 1D       		.uleb128 0x1d
 1294 0634 06010000 		.4byte	.LASF17
 1295 0638 02       		.byte	0x2
 1296 0639 28       		.byte	0x28
 1297 063a AC000000 		.4byte	0xac
 1298 063e 00       		.byte	0
ARM GAS  G:\Users\Jaxb\AppData\Local\Temp\ccwNPxjY.s 			page 28


 1299 063f 1E       		.uleb128 0x1e
 1300 0640 C2000000 		.4byte	.LASF34
 1301 0644 02       		.byte	0x2
 1302 0645 22       		.byte	0x22
 1303 0646 01       		.byte	0x1
 1304 0647 03       		.byte	0x3
 1305 0648 63060000 		.4byte	0x663
 1306 064c 1F       		.uleb128 0x1f
 1307 064d 6E657700 		.ascii	"new\000"
 1308 0651 02       		.byte	0x2
 1309 0652 22       		.byte	0x22
 1310 0653 AC000000 		.4byte	0xac
 1311 0657 1D       		.uleb128 0x1d
 1312 0658 06010000 		.4byte	.LASF17
 1313 065c 02       		.byte	0x2
 1314 065d 22       		.byte	0x22
 1315 065e AC000000 		.4byte	0xac
 1316 0662 00       		.byte	0
 1317 0663 1E       		.uleb128 0x1e
 1318 0664 A7010000 		.4byte	.LASF35
 1319 0668 02       		.byte	0x2
 1320 0669 17       		.byte	0x17
 1321 066a 01       		.byte	0x1
 1322 066b 03       		.byte	0x3
 1323 066c 92060000 		.4byte	0x692
 1324 0670 1F       		.uleb128 0x1f
 1325 0671 6E657700 		.ascii	"new\000"
 1326 0675 02       		.byte	0x2
 1327 0676 17       		.byte	0x17
 1328 0677 AC000000 		.4byte	0xac
 1329 067b 1D       		.uleb128 0x1d
 1330 067c 7C020000 		.4byte	.LASF11
 1331 0680 02       		.byte	0x2
 1332 0681 18       		.byte	0x18
 1333 0682 AC000000 		.4byte	0xac
 1334 0686 1D       		.uleb128 0x1d
 1335 0687 35000000 		.4byte	.LASF10
 1336 068b 02       		.byte	0x2
 1337 068c 19       		.byte	0x19
 1338 068d AC000000 		.4byte	0xac
 1339 0691 00       		.byte	0
 1340 0692 1E       		.uleb128 0x1e
 1341 0693 F7000000 		.4byte	.LASF36
 1342 0697 02       		.byte	0x2
 1343 0698 10       		.byte	0x10
 1344 0699 01       		.byte	0x1
 1345 069a 03       		.byte	0x3
 1346 069b AB060000 		.4byte	0x6ab
 1347 069f 1D       		.uleb128 0x1d
 1348 06a0 00000000 		.4byte	.LASF37
 1349 06a4 02       		.byte	0x2
 1350 06a5 10       		.byte	0x10
 1351 06a6 AC000000 		.4byte	0xac
 1352 06aa 00       		.byte	0
 1353 06ab 20       		.uleb128 0x20
 1354 06ac 01       		.byte	0x1
 1355 06ad 01       		.byte	0x1
ARM GAS  G:\Users\Jaxb\AppData\Local\Temp\ccwNPxjY.s 			page 29


 1356 06ae 68020000 		.4byte	.LASF42
 1357 06b2 68020000 		.4byte	.LASF42
 1358 06b6 05       		.byte	0x5
 1359 06b7 06       		.byte	0x6
 1360 06b8 00       		.byte	0
 1361              		.section	.debug_abbrev,"",%progbits
 1362              	.Ldebug_abbrev0:
 1363 0000 01       		.uleb128 0x1
 1364 0001 11       		.uleb128 0x11
 1365 0002 01       		.byte	0x1
 1366 0003 25       		.uleb128 0x25
 1367 0004 0E       		.uleb128 0xe
 1368 0005 13       		.uleb128 0x13
 1369 0006 0B       		.uleb128 0xb
 1370 0007 03       		.uleb128 0x3
 1371 0008 0E       		.uleb128 0xe
 1372 0009 1B       		.uleb128 0x1b
 1373 000a 0E       		.uleb128 0xe
 1374 000b 11       		.uleb128 0x11
 1375 000c 01       		.uleb128 0x1
 1376 000d 12       		.uleb128 0x12
 1377 000e 01       		.uleb128 0x1
 1378 000f 10       		.uleb128 0x10
 1379 0010 06       		.uleb128 0x6
 1380 0011 00       		.byte	0
 1381 0012 00       		.byte	0
 1382 0013 02       		.uleb128 0x2
 1383 0014 24       		.uleb128 0x24
 1384 0015 00       		.byte	0
 1385 0016 0B       		.uleb128 0xb
 1386 0017 0B       		.uleb128 0xb
 1387 0018 3E       		.uleb128 0x3e
 1388 0019 0B       		.uleb128 0xb
 1389 001a 03       		.uleb128 0x3
 1390 001b 0E       		.uleb128 0xe
 1391 001c 00       		.byte	0
 1392 001d 00       		.byte	0
 1393 001e 03       		.uleb128 0x3
 1394 001f 24       		.uleb128 0x24
 1395 0020 00       		.byte	0
 1396 0021 0B       		.uleb128 0xb
 1397 0022 0B       		.uleb128 0xb
 1398 0023 3E       		.uleb128 0x3e
 1399 0024 0B       		.uleb128 0xb
 1400 0025 03       		.uleb128 0x3
 1401 0026 08       		.uleb128 0x8
 1402 0027 00       		.byte	0
 1403 0028 00       		.byte	0
 1404 0029 04       		.uleb128 0x4
 1405 002a 16       		.uleb128 0x16
 1406 002b 00       		.byte	0
 1407 002c 03       		.uleb128 0x3
 1408 002d 0E       		.uleb128 0xe
 1409 002e 3A       		.uleb128 0x3a
 1410 002f 0B       		.uleb128 0xb
 1411 0030 3B       		.uleb128 0x3b
 1412 0031 0B       		.uleb128 0xb
ARM GAS  G:\Users\Jaxb\AppData\Local\Temp\ccwNPxjY.s 			page 30


 1413 0032 49       		.uleb128 0x49
 1414 0033 13       		.uleb128 0x13
 1415 0034 00       		.byte	0
 1416 0035 00       		.byte	0
 1417 0036 05       		.uleb128 0x5
 1418 0037 13       		.uleb128 0x13
 1419 0038 01       		.byte	0x1
 1420 0039 03       		.uleb128 0x3
 1421 003a 0E       		.uleb128 0xe
 1422 003b 0B       		.uleb128 0xb
 1423 003c 0B       		.uleb128 0xb
 1424 003d 3A       		.uleb128 0x3a
 1425 003e 0B       		.uleb128 0xb
 1426 003f 3B       		.uleb128 0x3b
 1427 0040 0B       		.uleb128 0xb
 1428 0041 01       		.uleb128 0x1
 1429 0042 13       		.uleb128 0x13
 1430 0043 00       		.byte	0
 1431 0044 00       		.byte	0
 1432 0045 06       		.uleb128 0x6
 1433 0046 0D       		.uleb128 0xd
 1434 0047 00       		.byte	0
 1435 0048 03       		.uleb128 0x3
 1436 0049 0E       		.uleb128 0xe
 1437 004a 3A       		.uleb128 0x3a
 1438 004b 0B       		.uleb128 0xb
 1439 004c 3B       		.uleb128 0x3b
 1440 004d 0B       		.uleb128 0xb
 1441 004e 49       		.uleb128 0x49
 1442 004f 13       		.uleb128 0x13
 1443 0050 38       		.uleb128 0x38
 1444 0051 0A       		.uleb128 0xa
 1445 0052 00       		.byte	0
 1446 0053 00       		.byte	0
 1447 0054 07       		.uleb128 0x7
 1448 0055 26       		.uleb128 0x26
 1449 0056 00       		.byte	0
 1450 0057 49       		.uleb128 0x49
 1451 0058 13       		.uleb128 0x13
 1452 0059 00       		.byte	0
 1453 005a 00       		.byte	0
 1454 005b 08       		.uleb128 0x8
 1455 005c 0F       		.uleb128 0xf
 1456 005d 00       		.byte	0
 1457 005e 0B       		.uleb128 0xb
 1458 005f 0B       		.uleb128 0xb
 1459 0060 49       		.uleb128 0x49
 1460 0061 13       		.uleb128 0x13
 1461 0062 00       		.byte	0
 1462 0063 00       		.byte	0
 1463 0064 09       		.uleb128 0x9
 1464 0065 16       		.uleb128 0x16
 1465 0066 00       		.byte	0
 1466 0067 03       		.uleb128 0x3
 1467 0068 08       		.uleb128 0x8
 1468 0069 3A       		.uleb128 0x3a
 1469 006a 0B       		.uleb128 0xb
ARM GAS  G:\Users\Jaxb\AppData\Local\Temp\ccwNPxjY.s 			page 31


 1470 006b 3B       		.uleb128 0x3b
 1471 006c 0B       		.uleb128 0xb
 1472 006d 49       		.uleb128 0x49
 1473 006e 13       		.uleb128 0x13
 1474 006f 00       		.byte	0
 1475 0070 00       		.byte	0
 1476 0071 0A       		.uleb128 0xa
 1477 0072 2E       		.uleb128 0x2e
 1478 0073 01       		.byte	0x1
 1479 0074 3F       		.uleb128 0x3f
 1480 0075 0C       		.uleb128 0xc
 1481 0076 03       		.uleb128 0x3
 1482 0077 0E       		.uleb128 0xe
 1483 0078 3A       		.uleb128 0x3a
 1484 0079 0B       		.uleb128 0xb
 1485 007a 3B       		.uleb128 0x3b
 1486 007b 0B       		.uleb128 0xb
 1487 007c 27       		.uleb128 0x27
 1488 007d 0C       		.uleb128 0xc
 1489 007e 49       		.uleb128 0x49
 1490 007f 13       		.uleb128 0x13
 1491 0080 11       		.uleb128 0x11
 1492 0081 01       		.uleb128 0x1
 1493 0082 12       		.uleb128 0x12
 1494 0083 01       		.uleb128 0x1
 1495 0084 40       		.uleb128 0x40
 1496 0085 06       		.uleb128 0x6
 1497 0086 9742     		.uleb128 0x2117
 1498 0088 0C       		.uleb128 0xc
 1499 0089 01       		.uleb128 0x1
 1500 008a 13       		.uleb128 0x13
 1501 008b 00       		.byte	0
 1502 008c 00       		.byte	0
 1503 008d 0B       		.uleb128 0xb
 1504 008e 05       		.uleb128 0x5
 1505 008f 00       		.byte	0
 1506 0090 03       		.uleb128 0x3
 1507 0091 0E       		.uleb128 0xe
 1508 0092 3A       		.uleb128 0x3a
 1509 0093 0B       		.uleb128 0xb
 1510 0094 3B       		.uleb128 0x3b
 1511 0095 0B       		.uleb128 0xb
 1512 0096 49       		.uleb128 0x49
 1513 0097 13       		.uleb128 0x13
 1514 0098 02       		.uleb128 0x2
 1515 0099 06       		.uleb128 0x6
 1516 009a 00       		.byte	0
 1517 009b 00       		.byte	0
 1518 009c 0C       		.uleb128 0xc
 1519 009d 05       		.uleb128 0x5
 1520 009e 00       		.byte	0
 1521 009f 03       		.uleb128 0x3
 1522 00a0 0E       		.uleb128 0xe
 1523 00a1 3A       		.uleb128 0x3a
 1524 00a2 0B       		.uleb128 0xb
 1525 00a3 3B       		.uleb128 0x3b
 1526 00a4 0B       		.uleb128 0xb
ARM GAS  G:\Users\Jaxb\AppData\Local\Temp\ccwNPxjY.s 			page 32


 1527 00a5 49       		.uleb128 0x49
 1528 00a6 13       		.uleb128 0x13
 1529 00a7 02       		.uleb128 0x2
 1530 00a8 0A       		.uleb128 0xa
 1531 00a9 00       		.byte	0
 1532 00aa 00       		.byte	0
 1533 00ab 0D       		.uleb128 0xd
 1534 00ac 34       		.uleb128 0x34
 1535 00ad 00       		.byte	0
 1536 00ae 03       		.uleb128 0x3
 1537 00af 08       		.uleb128 0x8
 1538 00b0 3A       		.uleb128 0x3a
 1539 00b1 0B       		.uleb128 0xb
 1540 00b2 3B       		.uleb128 0x3b
 1541 00b3 0B       		.uleb128 0xb
 1542 00b4 49       		.uleb128 0x49
 1543 00b5 13       		.uleb128 0x13
 1544 00b6 02       		.uleb128 0x2
 1545 00b7 06       		.uleb128 0x6
 1546 00b8 00       		.byte	0
 1547 00b9 00       		.byte	0
 1548 00ba 0E       		.uleb128 0xe
 1549 00bb 34       		.uleb128 0x34
 1550 00bc 00       		.byte	0
 1551 00bd 03       		.uleb128 0x3
 1552 00be 0E       		.uleb128 0xe
 1553 00bf 3A       		.uleb128 0x3a
 1554 00c0 0B       		.uleb128 0xb
 1555 00c1 3B       		.uleb128 0x3b
 1556 00c2 0B       		.uleb128 0xb
 1557 00c3 49       		.uleb128 0x49
 1558 00c4 13       		.uleb128 0x13
 1559 00c5 02       		.uleb128 0x2
 1560 00c6 06       		.uleb128 0x6
 1561 00c7 00       		.byte	0
 1562 00c8 00       		.byte	0
 1563 00c9 0F       		.uleb128 0xf
 1564 00ca 0B       		.uleb128 0xb
 1565 00cb 01       		.byte	0x1
 1566 00cc 00       		.byte	0
 1567 00cd 00       		.byte	0
 1568 00ce 10       		.uleb128 0x10
 1569 00cf 34       		.uleb128 0x34
 1570 00d0 00       		.byte	0
 1571 00d1 03       		.uleb128 0x3
 1572 00d2 0E       		.uleb128 0xe
 1573 00d3 3A       		.uleb128 0x3a
 1574 00d4 0B       		.uleb128 0xb
 1575 00d5 3B       		.uleb128 0x3b
 1576 00d6 0B       		.uleb128 0xb
 1577 00d7 49       		.uleb128 0x49
 1578 00d8 13       		.uleb128 0x13
 1579 00d9 00       		.byte	0
 1580 00da 00       		.byte	0
 1581 00db 11       		.uleb128 0x11
 1582 00dc 2E       		.uleb128 0x2e
 1583 00dd 01       		.byte	0x1
ARM GAS  G:\Users\Jaxb\AppData\Local\Temp\ccwNPxjY.s 			page 33


 1584 00de 3F       		.uleb128 0x3f
 1585 00df 0C       		.uleb128 0xc
 1586 00e0 03       		.uleb128 0x3
 1587 00e1 0E       		.uleb128 0xe
 1588 00e2 3A       		.uleb128 0x3a
 1589 00e3 0B       		.uleb128 0xb
 1590 00e4 3B       		.uleb128 0x3b
 1591 00e5 0B       		.uleb128 0xb
 1592 00e6 27       		.uleb128 0x27
 1593 00e7 0C       		.uleb128 0xc
 1594 00e8 49       		.uleb128 0x49
 1595 00e9 13       		.uleb128 0x13
 1596 00ea 11       		.uleb128 0x11
 1597 00eb 01       		.uleb128 0x1
 1598 00ec 12       		.uleb128 0x12
 1599 00ed 01       		.uleb128 0x1
 1600 00ee 40       		.uleb128 0x40
 1601 00ef 0A       		.uleb128 0xa
 1602 00f0 9742     		.uleb128 0x2117
 1603 00f2 0C       		.uleb128 0xc
 1604 00f3 01       		.uleb128 0x1
 1605 00f4 13       		.uleb128 0x13
 1606 00f5 00       		.byte	0
 1607 00f6 00       		.byte	0
 1608 00f7 12       		.uleb128 0x12
 1609 00f8 0B       		.uleb128 0xb
 1610 00f9 01       		.byte	0x1
 1611 00fa 01       		.uleb128 0x1
 1612 00fb 13       		.uleb128 0x13
 1613 00fc 00       		.byte	0
 1614 00fd 00       		.byte	0
 1615 00fe 13       		.uleb128 0x13
 1616 00ff 1D       		.uleb128 0x1d
 1617 0100 01       		.byte	0x1
 1618 0101 31       		.uleb128 0x31
 1619 0102 13       		.uleb128 0x13
 1620 0103 52       		.uleb128 0x52
 1621 0104 01       		.uleb128 0x1
 1622 0105 55       		.uleb128 0x55
 1623 0106 06       		.uleb128 0x6
 1624 0107 58       		.uleb128 0x58
 1625 0108 0B       		.uleb128 0xb
 1626 0109 59       		.uleb128 0x59
 1627 010a 0B       		.uleb128 0xb
 1628 010b 00       		.byte	0
 1629 010c 00       		.byte	0
 1630 010d 14       		.uleb128 0x14
 1631 010e 05       		.uleb128 0x5
 1632 010f 00       		.byte	0
 1633 0110 31       		.uleb128 0x31
 1634 0111 13       		.uleb128 0x13
 1635 0112 02       		.uleb128 0x2
 1636 0113 06       		.uleb128 0x6
 1637 0114 00       		.byte	0
 1638 0115 00       		.byte	0
 1639 0116 15       		.uleb128 0x15
 1640 0117 1D       		.uleb128 0x1d
ARM GAS  G:\Users\Jaxb\AppData\Local\Temp\ccwNPxjY.s 			page 34


 1641 0118 01       		.byte	0x1
 1642 0119 31       		.uleb128 0x31
 1643 011a 13       		.uleb128 0x13
 1644 011b 11       		.uleb128 0x11
 1645 011c 01       		.uleb128 0x1
 1646 011d 12       		.uleb128 0x12
 1647 011e 01       		.uleb128 0x1
 1648 011f 58       		.uleb128 0x58
 1649 0120 0B       		.uleb128 0xb
 1650 0121 59       		.uleb128 0x59
 1651 0122 0B       		.uleb128 0xb
 1652 0123 00       		.byte	0
 1653 0124 00       		.byte	0
 1654 0125 16       		.uleb128 0x16
 1655 0126 2E       		.uleb128 0x2e
 1656 0127 01       		.byte	0x1
 1657 0128 3F       		.uleb128 0x3f
 1658 0129 0C       		.uleb128 0xc
 1659 012a 03       		.uleb128 0x3
 1660 012b 0E       		.uleb128 0xe
 1661 012c 3A       		.uleb128 0x3a
 1662 012d 0B       		.uleb128 0xb
 1663 012e 3B       		.uleb128 0x3b
 1664 012f 0B       		.uleb128 0xb
 1665 0130 27       		.uleb128 0x27
 1666 0131 0C       		.uleb128 0xc
 1667 0132 11       		.uleb128 0x11
 1668 0133 01       		.uleb128 0x1
 1669 0134 12       		.uleb128 0x12
 1670 0135 01       		.uleb128 0x1
 1671 0136 40       		.uleb128 0x40
 1672 0137 06       		.uleb128 0x6
 1673 0138 9742     		.uleb128 0x2117
 1674 013a 0C       		.uleb128 0xc
 1675 013b 01       		.uleb128 0x1
 1676 013c 13       		.uleb128 0x13
 1677 013d 00       		.byte	0
 1678 013e 00       		.byte	0
 1679 013f 17       		.uleb128 0x17
 1680 0140 1D       		.uleb128 0x1d
 1681 0141 01       		.byte	0x1
 1682 0142 31       		.uleb128 0x31
 1683 0143 13       		.uleb128 0x13
 1684 0144 11       		.uleb128 0x11
 1685 0145 01       		.uleb128 0x1
 1686 0146 12       		.uleb128 0x12
 1687 0147 01       		.uleb128 0x1
 1688 0148 58       		.uleb128 0x58
 1689 0149 0B       		.uleb128 0xb
 1690 014a 59       		.uleb128 0x59
 1691 014b 0B       		.uleb128 0xb
 1692 014c 01       		.uleb128 0x1
 1693 014d 13       		.uleb128 0x13
 1694 014e 00       		.byte	0
 1695 014f 00       		.byte	0
 1696 0150 18       		.uleb128 0x18
 1697 0151 898201   		.uleb128 0x4109
ARM GAS  G:\Users\Jaxb\AppData\Local\Temp\ccwNPxjY.s 			page 35


 1698 0154 01       		.byte	0x1
 1699 0155 11       		.uleb128 0x11
 1700 0156 01       		.uleb128 0x1
 1701 0157 31       		.uleb128 0x31
 1702 0158 13       		.uleb128 0x13
 1703 0159 01       		.uleb128 0x1
 1704 015a 13       		.uleb128 0x13
 1705 015b 00       		.byte	0
 1706 015c 00       		.byte	0
 1707 015d 19       		.uleb128 0x19
 1708 015e 8A8201   		.uleb128 0x410a
 1709 0161 00       		.byte	0
 1710 0162 02       		.uleb128 0x2
 1711 0163 0A       		.uleb128 0xa
 1712 0164 9142     		.uleb128 0x2111
 1713 0166 0A       		.uleb128 0xa
 1714 0167 00       		.byte	0
 1715 0168 00       		.byte	0
 1716 0169 1A       		.uleb128 0x1a
 1717 016a 898201   		.uleb128 0x4109
 1718 016d 01       		.byte	0x1
 1719 016e 11       		.uleb128 0x11
 1720 016f 01       		.uleb128 0x1
 1721 0170 31       		.uleb128 0x31
 1722 0171 13       		.uleb128 0x13
 1723 0172 00       		.byte	0
 1724 0173 00       		.byte	0
 1725 0174 1B       		.uleb128 0x1b
 1726 0175 2E       		.uleb128 0x2e
 1727 0176 01       		.byte	0x1
 1728 0177 3F       		.uleb128 0x3f
 1729 0178 0C       		.uleb128 0xc
 1730 0179 03       		.uleb128 0x3
 1731 017a 0E       		.uleb128 0xe
 1732 017b 3A       		.uleb128 0x3a
 1733 017c 0B       		.uleb128 0xb
 1734 017d 3B       		.uleb128 0x3b
 1735 017e 0B       		.uleb128 0xb
 1736 017f 27       		.uleb128 0x27
 1737 0180 0C       		.uleb128 0xc
 1738 0181 11       		.uleb128 0x11
 1739 0182 01       		.uleb128 0x1
 1740 0183 12       		.uleb128 0x12
 1741 0184 01       		.uleb128 0x1
 1742 0185 40       		.uleb128 0x40
 1743 0186 0A       		.uleb128 0xa
 1744 0187 9742     		.uleb128 0x2117
 1745 0189 0C       		.uleb128 0xc
 1746 018a 01       		.uleb128 0x1
 1747 018b 13       		.uleb128 0x13
 1748 018c 00       		.byte	0
 1749 018d 00       		.byte	0
 1750 018e 1C       		.uleb128 0x1c
 1751 018f 2E       		.uleb128 0x2e
 1752 0190 01       		.byte	0x1
 1753 0191 03       		.uleb128 0x3
 1754 0192 0E       		.uleb128 0xe
ARM GAS  G:\Users\Jaxb\AppData\Local\Temp\ccwNPxjY.s 			page 36


 1755 0193 3A       		.uleb128 0x3a
 1756 0194 0B       		.uleb128 0xb
 1757 0195 3B       		.uleb128 0x3b
 1758 0196 0B       		.uleb128 0xb
 1759 0197 27       		.uleb128 0x27
 1760 0198 0C       		.uleb128 0xc
 1761 0199 49       		.uleb128 0x49
 1762 019a 13       		.uleb128 0x13
 1763 019b 20       		.uleb128 0x20
 1764 019c 0B       		.uleb128 0xb
 1765 019d 01       		.uleb128 0x1
 1766 019e 13       		.uleb128 0x13
 1767 019f 00       		.byte	0
 1768 01a0 00       		.byte	0
 1769 01a1 1D       		.uleb128 0x1d
 1770 01a2 05       		.uleb128 0x5
 1771 01a3 00       		.byte	0
 1772 01a4 03       		.uleb128 0x3
 1773 01a5 0E       		.uleb128 0xe
 1774 01a6 3A       		.uleb128 0x3a
 1775 01a7 0B       		.uleb128 0xb
 1776 01a8 3B       		.uleb128 0x3b
 1777 01a9 0B       		.uleb128 0xb
 1778 01aa 49       		.uleb128 0x49
 1779 01ab 13       		.uleb128 0x13
 1780 01ac 00       		.byte	0
 1781 01ad 00       		.byte	0
 1782 01ae 1E       		.uleb128 0x1e
 1783 01af 2E       		.uleb128 0x2e
 1784 01b0 01       		.byte	0x1
 1785 01b1 03       		.uleb128 0x3
 1786 01b2 0E       		.uleb128 0xe
 1787 01b3 3A       		.uleb128 0x3a
 1788 01b4 0B       		.uleb128 0xb
 1789 01b5 3B       		.uleb128 0x3b
 1790 01b6 0B       		.uleb128 0xb
 1791 01b7 27       		.uleb128 0x27
 1792 01b8 0C       		.uleb128 0xc
 1793 01b9 20       		.uleb128 0x20
 1794 01ba 0B       		.uleb128 0xb
 1795 01bb 01       		.uleb128 0x1
 1796 01bc 13       		.uleb128 0x13
 1797 01bd 00       		.byte	0
 1798 01be 00       		.byte	0
 1799 01bf 1F       		.uleb128 0x1f
 1800 01c0 05       		.uleb128 0x5
 1801 01c1 00       		.byte	0
 1802 01c2 03       		.uleb128 0x3
 1803 01c3 08       		.uleb128 0x8
 1804 01c4 3A       		.uleb128 0x3a
 1805 01c5 0B       		.uleb128 0xb
 1806 01c6 3B       		.uleb128 0x3b
 1807 01c7 0B       		.uleb128 0xb
 1808 01c8 49       		.uleb128 0x49
 1809 01c9 13       		.uleb128 0x13
 1810 01ca 00       		.byte	0
 1811 01cb 00       		.byte	0
ARM GAS  G:\Users\Jaxb\AppData\Local\Temp\ccwNPxjY.s 			page 37


 1812 01cc 20       		.uleb128 0x20
 1813 01cd 2E       		.uleb128 0x2e
 1814 01ce 00       		.byte	0
 1815 01cf 3F       		.uleb128 0x3f
 1816 01d0 0C       		.uleb128 0xc
 1817 01d1 3C       		.uleb128 0x3c
 1818 01d2 0C       		.uleb128 0xc
 1819 01d3 8740     		.uleb128 0x2007
 1820 01d5 0E       		.uleb128 0xe
 1821 01d6 03       		.uleb128 0x3
 1822 01d7 0E       		.uleb128 0xe
 1823 01d8 3A       		.uleb128 0x3a
 1824 01d9 0B       		.uleb128 0xb
 1825 01da 3B       		.uleb128 0x3b
 1826 01db 0B       		.uleb128 0xb
 1827 01dc 00       		.byte	0
 1828 01dd 00       		.byte	0
 1829 01de 00       		.byte	0
 1830              		.section	.debug_loc,"",%progbits
 1831              	.Ldebug_loc0:
 1832              	.LLST48:
 1833 0000 1C010000 		.4byte	.LFB16-.Ltext0
 1834 0004 20010000 		.4byte	.LCFI9-.Ltext0
 1835 0008 0200     		.2byte	0x2
 1836 000a 7D       		.byte	0x7d
 1837 000b 00       		.sleb128 0
 1838 000c 20010000 		.4byte	.LCFI9-.Ltext0
 1839 0010 42010000 		.4byte	.LCFI10-.Ltext0
 1840 0014 0200     		.2byte	0x2
 1841 0016 7D       		.byte	0x7d
 1842 0017 04       		.sleb128 4
 1843 0018 42010000 		.4byte	.LCFI10-.Ltext0
 1844 001c 44010000 		.4byte	.LCFI11-.Ltext0
 1845 0020 0200     		.2byte	0x2
 1846 0022 7D       		.byte	0x7d
 1847 0023 00       		.sleb128 0
 1848 0024 44010000 		.4byte	.LCFI11-.Ltext0
 1849 0028 48010000 		.4byte	.LFE16-.Ltext0
 1850 002c 0200     		.2byte	0x2
 1851 002e 7D       		.byte	0x7d
 1852 002f 04       		.sleb128 4
 1853 0030 00000000 		.4byte	0
 1854 0034 00000000 		.4byte	0
 1855              	.LLST49:
 1856 0038 1C010000 		.4byte	.LVL67-.Ltext0
 1857 003c 40010000 		.4byte	.LVL75-.Ltext0
 1858 0040 0100     		.2byte	0x1
 1859 0042 50       		.byte	0x50
 1860 0043 40010000 		.4byte	.LVL75-.Ltext0
 1861 0047 44010000 		.4byte	.LVL76-.Ltext0
 1862 004b 0400     		.2byte	0x4
 1863 004d F3       		.byte	0xf3
 1864 004e 01       		.uleb128 0x1
 1865 004f 50       		.byte	0x50
 1866 0050 9F       		.byte	0x9f
 1867 0051 44010000 		.4byte	.LVL76-.Ltext0
 1868 0055 48010000 		.4byte	.LFE16-.Ltext0
ARM GAS  G:\Users\Jaxb\AppData\Local\Temp\ccwNPxjY.s 			page 38


 1869 0059 0100     		.2byte	0x1
 1870 005b 50       		.byte	0x50
 1871 005c 00000000 		.4byte	0
 1872 0060 00000000 		.4byte	0
 1873              	.LLST50:
 1874 0064 1E010000 		.4byte	.LVL68-.Ltext0
 1875 0068 2E010000 		.4byte	.LVL71-.Ltext0
 1876 006c 0100     		.2byte	0x1
 1877 006e 52       		.byte	0x52
 1878 006f 2E010000 		.4byte	.LVL71-.Ltext0
 1879 0073 3C010000 		.4byte	.LVL74-.Ltext0
 1880 0077 0100     		.2byte	0x1
 1881 0079 53       		.byte	0x53
 1882 007a 44010000 		.4byte	.LVL76-.Ltext0
 1883 007e 48010000 		.4byte	.LFE16-.Ltext0
 1884 0082 0100     		.2byte	0x1
 1885 0084 52       		.byte	0x52
 1886 0085 00000000 		.4byte	0
 1887 0089 00000000 		.4byte	0
 1888              	.LLST51:
 1889 008d 24010000 		.4byte	.LVL69-.Ltext0
 1890 0091 2E010000 		.4byte	.LVL71-.Ltext0
 1891 0095 0100     		.2byte	0x1
 1892 0097 53       		.byte	0x53
 1893 0098 2E010000 		.4byte	.LVL71-.Ltext0
 1894 009c 36010000 		.4byte	.LVL72-.Ltext0
 1895 00a0 0100     		.2byte	0x1
 1896 00a2 52       		.byte	0x52
 1897 00a3 36010000 		.4byte	.LVL72-.Ltext0
 1898 00a7 3A010000 		.4byte	.LVL73-.Ltext0
 1899 00ab 0100     		.2byte	0x1
 1900 00ad 53       		.byte	0x53
 1901 00ae 3A010000 		.4byte	.LVL73-.Ltext0
 1902 00b2 3C010000 		.4byte	.LVL74-.Ltext0
 1903 00b6 0100     		.2byte	0x1
 1904 00b8 52       		.byte	0x52
 1905 00b9 44010000 		.4byte	.LVL76-.Ltext0
 1906 00bd 46010000 		.4byte	.LVL77-.Ltext0
 1907 00c1 0100     		.2byte	0x1
 1908 00c3 53       		.byte	0x53
 1909 00c4 46010000 		.4byte	.LVL77-.Ltext0
 1910 00c8 48010000 		.4byte	.LFE16-.Ltext0
 1911 00cc 0200     		.2byte	0x2
 1912 00ce 72       		.byte	0x72
 1913 00cf 00       		.sleb128 0
 1914 00d0 00000000 		.4byte	0
 1915 00d4 00000000 		.4byte	0
 1916              	.LLST52:
 1917 00d8 26010000 		.4byte	.LVL70-.Ltext0
 1918 00dc 2E010000 		.4byte	.LVL71-.Ltext0
 1919 00e0 0100     		.2byte	0x1
 1920 00e2 52       		.byte	0x52
 1921 00e3 2E010000 		.4byte	.LVL71-.Ltext0
 1922 00e7 3C010000 		.4byte	.LVL74-.Ltext0
 1923 00eb 0200     		.2byte	0x2
 1924 00ed 70       		.byte	0x70
 1925 00ee 00       		.sleb128 0
ARM GAS  G:\Users\Jaxb\AppData\Local\Temp\ccwNPxjY.s 			page 39


 1926 00ef 44010000 		.4byte	.LVL76-.Ltext0
 1927 00f3 48010000 		.4byte	.LFE16-.Ltext0
 1928 00f7 0100     		.2byte	0x1
 1929 00f9 52       		.byte	0x52
 1930 00fa 00000000 		.4byte	0
 1931 00fe 00000000 		.4byte	0
 1932              	.LLST42:
 1933 0102 04010000 		.4byte	.LVL60-.Ltext0
 1934 0106 12010000 		.4byte	.LVL65-.Ltext0
 1935 010a 0100     		.2byte	0x1
 1936 010c 50       		.byte	0x50
 1937 010d 12010000 		.4byte	.LVL65-.Ltext0
 1938 0111 1A010000 		.4byte	.LFE15-.Ltext0
 1939 0115 0400     		.2byte	0x4
 1940 0117 F3       		.byte	0xf3
 1941 0118 01       		.uleb128 0x1
 1942 0119 50       		.byte	0x50
 1943 011a 9F       		.byte	0x9f
 1944 011b 00000000 		.4byte	0
 1945 011f 00000000 		.4byte	0
 1946              	.LLST43:
 1947 0123 06010000 		.4byte	.LVL61-.Ltext0
 1948 0127 0C010000 		.4byte	.LVL63-.Ltext0
 1949 012b 0100     		.2byte	0x1
 1950 012d 53       		.byte	0x53
 1951 012e 0C010000 		.4byte	.LVL63-.Ltext0
 1952 0132 12010000 		.4byte	.LVL65-.Ltext0
 1953 0136 0200     		.2byte	0x2
 1954 0138 70       		.byte	0x70
 1955 0139 00       		.sleb128 0
 1956 013a 12010000 		.4byte	.LVL65-.Ltext0
 1957 013e 18010000 		.4byte	.LVL66-.Ltext0
 1958 0142 0300     		.2byte	0x3
 1959 0144 F3       		.byte	0xf3
 1960 0145 01       		.uleb128 0x1
 1961 0146 50       		.byte	0x50
 1962 0147 00000000 		.4byte	0
 1963 014b 00000000 		.4byte	0
 1964              	.LLST44:
 1965 014f 08010000 		.4byte	.LVL62-.Ltext0
 1966 0153 0C010000 		.4byte	.LVL63-.Ltext0
 1967 0157 0100     		.2byte	0x1
 1968 0159 53       		.byte	0x53
 1969 015a 0C010000 		.4byte	.LVL63-.Ltext0
 1970 015e 12010000 		.4byte	.LVL65-.Ltext0
 1971 0162 0200     		.2byte	0x2
 1972 0164 70       		.byte	0x70
 1973 0165 00       		.sleb128 0
 1974 0166 12010000 		.4byte	.LVL65-.Ltext0
 1975 016a 18010000 		.4byte	.LVL66-.Ltext0
 1976 016e 0300     		.2byte	0x3
 1977 0170 F3       		.byte	0xf3
 1978 0171 01       		.uleb128 0x1
 1979 0172 50       		.byte	0x50
 1980 0173 00000000 		.4byte	0
 1981 0177 00000000 		.4byte	0
 1982              	.LLST45:
ARM GAS  G:\Users\Jaxb\AppData\Local\Temp\ccwNPxjY.s 			page 40


 1983 017b 08010000 		.4byte	.LVL62-.Ltext0
 1984 017f 0C010000 		.4byte	.LVL63-.Ltext0
 1985 0183 0100     		.2byte	0x1
 1986 0185 53       		.byte	0x53
 1987 0186 0C010000 		.4byte	.LVL63-.Ltext0
 1988 018a 12010000 		.4byte	.LVL65-.Ltext0
 1989 018e 0200     		.2byte	0x2
 1990 0190 70       		.byte	0x70
 1991 0191 00       		.sleb128 0
 1992 0192 12010000 		.4byte	.LVL65-.Ltext0
 1993 0196 18010000 		.4byte	.LVL66-.Ltext0
 1994 019a 0300     		.2byte	0x3
 1995 019c F3       		.byte	0xf3
 1996 019d 01       		.uleb128 0x1
 1997 019e 50       		.byte	0x50
 1998 019f 00000000 		.4byte	0
 1999 01a3 00000000 		.4byte	0
 2000              	.LLST46:
 2001 01a7 10010000 		.4byte	.LVL64-.Ltext0
 2002 01ab 18010000 		.4byte	.LVL66-.Ltext0
 2003 01af 0100     		.2byte	0x1
 2004 01b1 51       		.byte	0x51
 2005 01b2 00000000 		.4byte	0
 2006 01b6 00000000 		.4byte	0
 2007              	.LLST47:
 2008 01ba 10010000 		.4byte	.LVL64-.Ltext0
 2009 01be 18010000 		.4byte	.LVL66-.Ltext0
 2010 01c2 0100     		.2byte	0x1
 2011 01c4 52       		.byte	0x52
 2012 01c5 00000000 		.4byte	0
 2013 01c9 00000000 		.4byte	0
 2014              	.LLST33:
 2015 01cd CC000000 		.4byte	.LFB14-.Ltext0
 2016 01d1 CE000000 		.4byte	.LCFI5-.Ltext0
 2017 01d5 0200     		.2byte	0x2
 2018 01d7 7D       		.byte	0x7d
 2019 01d8 00       		.sleb128 0
 2020 01d9 CE000000 		.4byte	.LCFI5-.Ltext0
 2021 01dd F0000000 		.4byte	.LCFI6-.Ltext0
 2022 01e1 0200     		.2byte	0x2
 2023 01e3 7D       		.byte	0x7d
 2024 01e4 04       		.sleb128 4
 2025 01e5 F0000000 		.4byte	.LCFI6-.Ltext0
 2026 01e9 F4000000 		.4byte	.LCFI7-.Ltext0
 2027 01ed 0200     		.2byte	0x2
 2028 01ef 7D       		.byte	0x7d
 2029 01f0 00       		.sleb128 0
 2030 01f1 F4000000 		.4byte	.LCFI7-.Ltext0
 2031 01f5 00010000 		.4byte	.LCFI8-.Ltext0
 2032 01f9 0200     		.2byte	0x2
 2033 01fb 7D       		.byte	0x7d
 2034 01fc 04       		.sleb128 4
 2035 01fd 00010000 		.4byte	.LCFI8-.Ltext0
 2036 0201 04010000 		.4byte	.LFE14-.Ltext0
 2037 0205 0200     		.2byte	0x2
 2038 0207 7D       		.byte	0x7d
 2039 0208 00       		.sleb128 0
ARM GAS  G:\Users\Jaxb\AppData\Local\Temp\ccwNPxjY.s 			page 41


 2040 0209 00000000 		.4byte	0
 2041 020d 00000000 		.4byte	0
 2042              	.LLST34:
 2043 0211 CC000000 		.4byte	.LVL46-.Ltext0
 2044 0215 F2000000 		.4byte	.LVL54-.Ltext0
 2045 0219 0100     		.2byte	0x1
 2046 021b 50       		.byte	0x50
 2047 021c F2000000 		.4byte	.LVL54-.Ltext0
 2048 0220 F4000000 		.4byte	.LVL55-.Ltext0
 2049 0224 0400     		.2byte	0x4
 2050 0226 F3       		.byte	0xf3
 2051 0227 01       		.uleb128 0x1
 2052 0228 50       		.byte	0x50
 2053 0229 9F       		.byte	0x9f
 2054 022a F4000000 		.4byte	.LVL55-.Ltext0
 2055 022e FC000000 		.4byte	.LVL58-.Ltext0
 2056 0232 0100     		.2byte	0x1
 2057 0234 50       		.byte	0x50
 2058 0235 FC000000 		.4byte	.LVL58-.Ltext0
 2059 0239 04010000 		.4byte	.LFE14-.Ltext0
 2060 023d 0400     		.2byte	0x4
 2061 023f F3       		.byte	0xf3
 2062 0240 01       		.uleb128 0x1
 2063 0241 50       		.byte	0x50
 2064 0242 9F       		.byte	0x9f
 2065 0243 00000000 		.4byte	0
 2066 0247 00000000 		.4byte	0
 2067              	.LLST35:
 2068 024b CC000000 		.4byte	.LVL46-.Ltext0
 2069 024f FA000000 		.4byte	.LVL57-.Ltext0
 2070 0253 0100     		.2byte	0x1
 2071 0255 51       		.byte	0x51
 2072 0256 FA000000 		.4byte	.LVL57-.Ltext0
 2073 025a 04010000 		.4byte	.LFE14-.Ltext0
 2074 025e 0400     		.2byte	0x4
 2075 0260 F3       		.byte	0xf3
 2076 0261 01       		.uleb128 0x1
 2077 0262 51       		.byte	0x51
 2078 0263 9F       		.byte	0x9f
 2079 0264 00000000 		.4byte	0
 2080 0268 00000000 		.4byte	0
 2081              	.LLST36:
 2082 026c D0000000 		.4byte	.LVL47-.Ltext0
 2083 0270 DE000000 		.4byte	.LVL50-.Ltext0
 2084 0274 0200     		.2byte	0x2
 2085 0276 70       		.byte	0x70
 2086 0277 00       		.sleb128 0
 2087 0278 DE000000 		.4byte	.LVL50-.Ltext0
 2088 027c EC000000 		.4byte	.LVL53-.Ltext0
 2089 0280 0100     		.2byte	0x1
 2090 0282 53       		.byte	0x53
 2091 0283 F4000000 		.4byte	.LVL55-.Ltext0
 2092 0287 F8000000 		.4byte	.LVL56-.Ltext0
 2093 028b 0200     		.2byte	0x2
 2094 028d 70       		.byte	0x70
 2095 028e 00       		.sleb128 0
 2096 028f 00000000 		.4byte	0
ARM GAS  G:\Users\Jaxb\AppData\Local\Temp\ccwNPxjY.s 			page 42


 2097 0293 00000000 		.4byte	0
 2098              	.LLST37:
 2099 0297 D4000000 		.4byte	.LVL48-.Ltext0
 2100 029b DE000000 		.4byte	.LVL50-.Ltext0
 2101 029f 0100     		.2byte	0x1
 2102 02a1 53       		.byte	0x53
 2103 02a2 DE000000 		.4byte	.LVL50-.Ltext0
 2104 02a6 E6000000 		.4byte	.LVL51-.Ltext0
 2105 02aa 0100     		.2byte	0x1
 2106 02ac 52       		.byte	0x52
 2107 02ad E6000000 		.4byte	.LVL51-.Ltext0
 2108 02b1 EA000000 		.4byte	.LVL52-.Ltext0
 2109 02b5 0100     		.2byte	0x1
 2110 02b7 53       		.byte	0x53
 2111 02b8 EA000000 		.4byte	.LVL52-.Ltext0
 2112 02bc EC000000 		.4byte	.LVL53-.Ltext0
 2113 02c0 0100     		.2byte	0x1
 2114 02c2 52       		.byte	0x52
 2115 02c3 F4000000 		.4byte	.LVL55-.Ltext0
 2116 02c7 F8000000 		.4byte	.LVL56-.Ltext0
 2117 02cb 0100     		.2byte	0x1
 2118 02cd 53       		.byte	0x53
 2119 02ce F8000000 		.4byte	.LVL56-.Ltext0
 2120 02d2 04010000 		.4byte	.LFE14-.Ltext0
 2121 02d6 0100     		.2byte	0x1
 2122 02d8 52       		.byte	0x52
 2123 02d9 00000000 		.4byte	0
 2124 02dd 00000000 		.4byte	0
 2125              	.LLST38:
 2126 02e1 D6000000 		.4byte	.LVL49-.Ltext0
 2127 02e5 EC000000 		.4byte	.LVL53-.Ltext0
 2128 02e9 0200     		.2byte	0x2
 2129 02eb 70       		.byte	0x70
 2130 02ec 00       		.sleb128 0
 2131 02ed F4000000 		.4byte	.LVL55-.Ltext0
 2132 02f1 FC000000 		.4byte	.LVL58-.Ltext0
 2133 02f5 0200     		.2byte	0x2
 2134 02f7 70       		.byte	0x70
 2135 02f8 00       		.sleb128 0
 2136 02f9 FC000000 		.4byte	.LVL58-.Ltext0
 2137 02fd 02010000 		.4byte	.LVL59-.Ltext0
 2138 0301 0300     		.2byte	0x3
 2139 0303 F3       		.byte	0xf3
 2140 0304 01       		.uleb128 0x1
 2141 0305 50       		.byte	0x50
 2142 0306 00000000 		.4byte	0
 2143 030a 00000000 		.4byte	0
 2144              	.LLST39:
 2145 030e F8000000 		.4byte	.LVL56-.Ltext0
 2146 0312 02010000 		.4byte	.LVL59-.Ltext0
 2147 0316 0100     		.2byte	0x1
 2148 0318 53       		.byte	0x53
 2149 0319 00000000 		.4byte	0
 2150 031d 00000000 		.4byte	0
 2151              	.LLST40:
 2152 0321 FA000000 		.4byte	.LVL57-.Ltext0
 2153 0325 02010000 		.4byte	.LVL59-.Ltext0
ARM GAS  G:\Users\Jaxb\AppData\Local\Temp\ccwNPxjY.s 			page 43


 2154 0329 0200     		.2byte	0x2
 2155 032b 73       		.byte	0x73
 2156 032c 00       		.sleb128 0
 2157 032d 00000000 		.4byte	0
 2158 0331 00000000 		.4byte	0
 2159              	.LLST41:
 2160 0335 FA000000 		.4byte	.LVL57-.Ltext0
 2161 0339 02010000 		.4byte	.LVL59-.Ltext0
 2162 033d 0100     		.2byte	0x1
 2163 033f 51       		.byte	0x51
 2164 0340 00000000 		.4byte	0
 2165 0344 00000000 		.4byte	0
 2166              	.LLST28:
 2167 0348 A0000000 		.4byte	.LFB13-.Ltext0
 2168 034c A4000000 		.4byte	.LCFI2-.Ltext0
 2169 0350 0200     		.2byte	0x2
 2170 0352 7D       		.byte	0x7d
 2171 0353 00       		.sleb128 0
 2172 0354 A4000000 		.4byte	.LCFI2-.Ltext0
 2173 0358 C6000000 		.4byte	.LCFI3-.Ltext0
 2174 035c 0200     		.2byte	0x2
 2175 035e 7D       		.byte	0x7d
 2176 035f 04       		.sleb128 4
 2177 0360 C6000000 		.4byte	.LCFI3-.Ltext0
 2178 0364 C8000000 		.4byte	.LCFI4-.Ltext0
 2179 0368 0200     		.2byte	0x2
 2180 036a 7D       		.byte	0x7d
 2181 036b 00       		.sleb128 0
 2182 036c C8000000 		.4byte	.LCFI4-.Ltext0
 2183 0370 CC000000 		.4byte	.LFE13-.Ltext0
 2184 0374 0200     		.2byte	0x2
 2185 0376 7D       		.byte	0x7d
 2186 0377 04       		.sleb128 4
 2187 0378 00000000 		.4byte	0
 2188 037c 00000000 		.4byte	0
 2189              	.LLST29:
 2190 0380 A0000000 		.4byte	.LVL35-.Ltext0
 2191 0384 C4000000 		.4byte	.LVL43-.Ltext0
 2192 0388 0100     		.2byte	0x1
 2193 038a 50       		.byte	0x50
 2194 038b C4000000 		.4byte	.LVL43-.Ltext0
 2195 038f C8000000 		.4byte	.LVL44-.Ltext0
 2196 0393 0400     		.2byte	0x4
 2197 0395 F3       		.byte	0xf3
 2198 0396 01       		.uleb128 0x1
 2199 0397 50       		.byte	0x50
 2200 0398 9F       		.byte	0x9f
 2201 0399 C8000000 		.4byte	.LVL44-.Ltext0
 2202 039d CC000000 		.4byte	.LFE13-.Ltext0
 2203 03a1 0100     		.2byte	0x1
 2204 03a3 50       		.byte	0x50
 2205 03a4 00000000 		.4byte	0
 2206 03a8 00000000 		.4byte	0
 2207              	.LLST30:
 2208 03ac A2000000 		.4byte	.LVL36-.Ltext0
 2209 03b0 B2000000 		.4byte	.LVL39-.Ltext0
 2210 03b4 0100     		.2byte	0x1
ARM GAS  G:\Users\Jaxb\AppData\Local\Temp\ccwNPxjY.s 			page 44


 2211 03b6 52       		.byte	0x52
 2212 03b7 B2000000 		.4byte	.LVL39-.Ltext0
 2213 03bb C0000000 		.4byte	.LVL42-.Ltext0
 2214 03bf 0100     		.2byte	0x1
 2215 03c1 53       		.byte	0x53
 2216 03c2 C8000000 		.4byte	.LVL44-.Ltext0
 2217 03c6 CC000000 		.4byte	.LFE13-.Ltext0
 2218 03ca 0100     		.2byte	0x1
 2219 03cc 52       		.byte	0x52
 2220 03cd 00000000 		.4byte	0
 2221 03d1 00000000 		.4byte	0
 2222              	.LLST31:
 2223 03d5 A8000000 		.4byte	.LVL37-.Ltext0
 2224 03d9 B2000000 		.4byte	.LVL39-.Ltext0
 2225 03dd 0100     		.2byte	0x1
 2226 03df 53       		.byte	0x53
 2227 03e0 B2000000 		.4byte	.LVL39-.Ltext0
 2228 03e4 BA000000 		.4byte	.LVL40-.Ltext0
 2229 03e8 0100     		.2byte	0x1
 2230 03ea 52       		.byte	0x52
 2231 03eb BA000000 		.4byte	.LVL40-.Ltext0
 2232 03ef BE000000 		.4byte	.LVL41-.Ltext0
 2233 03f3 0100     		.2byte	0x1
 2234 03f5 53       		.byte	0x53
 2235 03f6 BE000000 		.4byte	.LVL41-.Ltext0
 2236 03fa C0000000 		.4byte	.LVL42-.Ltext0
 2237 03fe 0100     		.2byte	0x1
 2238 0400 52       		.byte	0x52
 2239 0401 C8000000 		.4byte	.LVL44-.Ltext0
 2240 0405 CA000000 		.4byte	.LVL45-.Ltext0
 2241 0409 0100     		.2byte	0x1
 2242 040b 53       		.byte	0x53
 2243 040c CA000000 		.4byte	.LVL45-.Ltext0
 2244 0410 CC000000 		.4byte	.LFE13-.Ltext0
 2245 0414 0200     		.2byte	0x2
 2246 0416 72       		.byte	0x72
 2247 0417 00       		.sleb128 0
 2248 0418 00000000 		.4byte	0
 2249 041c 00000000 		.4byte	0
 2250              	.LLST32:
 2251 0420 AA000000 		.4byte	.LVL38-.Ltext0
 2252 0424 B2000000 		.4byte	.LVL39-.Ltext0
 2253 0428 0100     		.2byte	0x1
 2254 042a 52       		.byte	0x52
 2255 042b B2000000 		.4byte	.LVL39-.Ltext0
 2256 042f C0000000 		.4byte	.LVL42-.Ltext0
 2257 0433 0200     		.2byte	0x2
 2258 0435 70       		.byte	0x70
 2259 0436 00       		.sleb128 0
 2260 0437 C8000000 		.4byte	.LVL44-.Ltext0
 2261 043b CC000000 		.4byte	.LFE13-.Ltext0
 2262 043f 0100     		.2byte	0x1
 2263 0441 52       		.byte	0x52
 2264 0442 00000000 		.4byte	0
 2265 0446 00000000 		.4byte	0
 2266              	.LLST5:
 2267 044a 30000000 		.4byte	.LFB12-.Ltext0
ARM GAS  G:\Users\Jaxb\AppData\Local\Temp\ccwNPxjY.s 			page 45


 2268 044e 32000000 		.4byte	.LCFI1-.Ltext0
 2269 0452 0200     		.2byte	0x2
 2270 0454 7D       		.byte	0x7d
 2271 0455 00       		.sleb128 0
 2272 0456 32000000 		.4byte	.LCFI1-.Ltext0
 2273 045a A0000000 		.4byte	.LFE12-.Ltext0
 2274 045e 0200     		.2byte	0x2
 2275 0460 7D       		.byte	0x7d
 2276 0461 18       		.sleb128 24
 2277 0462 00000000 		.4byte	0
 2278 0466 00000000 		.4byte	0
 2279              	.LLST6:
 2280 046a 30000000 		.4byte	.LVL13-.Ltext0
 2281 046e 3A000000 		.4byte	.LVL14-.Ltext0
 2282 0472 0100     		.2byte	0x1
 2283 0474 50       		.byte	0x50
 2284 0475 3A000000 		.4byte	.LVL14-.Ltext0
 2285 0479 84000000 		.4byte	.LVL30-.Ltext0
 2286 047d 0100     		.2byte	0x1
 2287 047f 54       		.byte	0x54
 2288 0480 84000000 		.4byte	.LVL30-.Ltext0
 2289 0484 88000000 		.4byte	.LVL32-.Ltext0
 2290 0488 0100     		.2byte	0x1
 2291 048a 50       		.byte	0x50
 2292 048b 88000000 		.4byte	.LVL32-.Ltext0
 2293 048f A0000000 		.4byte	.LFE12-.Ltext0
 2294 0493 0100     		.2byte	0x1
 2295 0495 54       		.byte	0x54
 2296 0496 00000000 		.4byte	0
 2297 049a 00000000 		.4byte	0
 2298              	.LLST7:
 2299 049e 30000000 		.4byte	.LVL13-.Ltext0
 2300 04a2 3A000000 		.4byte	.LVL14-.Ltext0
 2301 04a6 0100     		.2byte	0x1
 2302 04a8 51       		.byte	0x51
 2303 04a9 3A000000 		.4byte	.LVL14-.Ltext0
 2304 04ad 84000000 		.4byte	.LVL30-.Ltext0
 2305 04b1 0100     		.2byte	0x1
 2306 04b3 55       		.byte	0x55
 2307 04b4 84000000 		.4byte	.LVL30-.Ltext0
 2308 04b8 86000000 		.4byte	.LVL31-.Ltext0
 2309 04bc 0100     		.2byte	0x1
 2310 04be 51       		.byte	0x51
 2311 04bf 86000000 		.4byte	.LVL31-.Ltext0
 2312 04c3 A0000000 		.4byte	.LFE12-.Ltext0
 2313 04c7 0100     		.2byte	0x1
 2314 04c9 55       		.byte	0x55
 2315 04ca 00000000 		.4byte	0
 2316 04ce 00000000 		.4byte	0
 2317              	.LLST8:
 2318 04d2 40000000 		.4byte	.LVL16-.Ltext0
 2319 04d6 48000000 		.4byte	.LVL18-.Ltext0
 2320 04da 0100     		.2byte	0x1
 2321 04dc 53       		.byte	0x53
 2322 04dd 48000000 		.4byte	.LVL18-.Ltext0
 2323 04e1 70000000 		.4byte	.LVL26-.Ltext0
 2324 04e5 0100     		.2byte	0x1
ARM GAS  G:\Users\Jaxb\AppData\Local\Temp\ccwNPxjY.s 			page 46


 2325 04e7 52       		.byte	0x52
 2326 04e8 00000000 		.4byte	0
 2327 04ec 00000000 		.4byte	0
 2328              	.LLST9:
 2329 04f0 44000000 		.4byte	.LVL17-.Ltext0
 2330 04f4 48000000 		.4byte	.LVL18-.Ltext0
 2331 04f8 0100     		.2byte	0x1
 2332 04fa 52       		.byte	0x52
 2333 04fb 48000000 		.4byte	.LVL18-.Ltext0
 2334 04ff 4A000000 		.4byte	.LVL19-.Ltext0
 2335 0503 0100     		.2byte	0x1
 2336 0505 51       		.byte	0x51
 2337 0506 4A000000 		.4byte	.LVL19-.Ltext0
 2338 050a 5E000000 		.4byte	.LVL20-.Ltext0
 2339 050e 0100     		.2byte	0x1
 2340 0510 52       		.byte	0x52
 2341 0511 5E000000 		.4byte	.LVL20-.Ltext0
 2342 0515 6E000000 		.4byte	.LVL25-.Ltext0
 2343 0519 0100     		.2byte	0x1
 2344 051b 51       		.byte	0x51
 2345 051c 6E000000 		.4byte	.LVL25-.Ltext0
 2346 0520 70000000 		.4byte	.LVL26-.Ltext0
 2347 0524 0100     		.2byte	0x1
 2348 0526 52       		.byte	0x52
 2349 0527 00000000 		.4byte	0
 2350 052b 00000000 		.4byte	0
 2351              	.LLST10:
 2352 052f 40000000 		.4byte	.LVL16-.Ltext0
 2353 0533 48000000 		.4byte	.LVL18-.Ltext0
 2354 0537 0200     		.2byte	0x2
 2355 0539 75       		.byte	0x75
 2356 053a 08       		.sleb128 8
 2357 053b 48000000 		.4byte	.LVL18-.Ltext0
 2358 053f 7A000000 		.4byte	.LVL28-.Ltext0
 2359 0543 0100     		.2byte	0x1
 2360 0545 56       		.byte	0x56
 2361 0546 00000000 		.4byte	0
 2362 054a 00000000 		.4byte	0
 2363              	.LLST11:
 2364 054e 4A000000 		.4byte	.LVL19-.Ltext0
 2365 0552 60000000 		.4byte	.LVL21-.Ltext0
 2366 0556 0100     		.2byte	0x1
 2367 0558 53       		.byte	0x53
 2368 0559 6E000000 		.4byte	.LVL25-.Ltext0
 2369 055d 7A000000 		.4byte	.LVL28-.Ltext0
 2370 0561 0100     		.2byte	0x1
 2371 0563 53       		.byte	0x53
 2372 0564 00000000 		.4byte	0
 2373 0568 00000000 		.4byte	0
 2374              	.LLST12:
 2375 056c 3A000000 		.4byte	.LVL14-.Ltext0
 2376 0570 3C000000 		.4byte	.LVL15-.Ltext0
 2377 0574 0100     		.2byte	0x1
 2378 0576 54       		.byte	0x54
 2379 0577 00000000 		.4byte	0
 2380 057b 00000000 		.4byte	0
 2381              	.LLST13:
ARM GAS  G:\Users\Jaxb\AppData\Local\Temp\ccwNPxjY.s 			page 47


 2382 057f 62000000 		.4byte	.LVL22-.Ltext0
 2383 0583 6E000000 		.4byte	.LVL25-.Ltext0
 2384 0587 0100     		.2byte	0x1
 2385 0589 54       		.byte	0x54
 2386 058a 00000000 		.4byte	0
 2387 058e 00000000 		.4byte	0
 2388              	.LLST14:
 2389 0592 62000000 		.4byte	.LVL22-.Ltext0
 2390 0596 6E000000 		.4byte	.LVL25-.Ltext0
 2391 059a 0100     		.2byte	0x1
 2392 059c 55       		.byte	0x55
 2393 059d 00000000 		.4byte	0
 2394 05a1 00000000 		.4byte	0
 2395              	.LLST15:
 2396 05a5 64000000 		.4byte	.LVL23-.Ltext0
 2397 05a9 6C000000 		.4byte	.LVL24-.Ltext0
 2398 05ad 0100     		.2byte	0x1
 2399 05af 54       		.byte	0x54
 2400 05b0 00000000 		.4byte	0
 2401 05b4 00000000 		.4byte	0
 2402              	.LLST16:
 2403 05b8 64000000 		.4byte	.LVL23-.Ltext0
 2404 05bc 6C000000 		.4byte	.LVL24-.Ltext0
 2405 05c0 0100     		.2byte	0x1
 2406 05c2 53       		.byte	0x53
 2407 05c3 00000000 		.4byte	0
 2408 05c7 00000000 		.4byte	0
 2409              	.LLST17:
 2410 05cb 64000000 		.4byte	.LVL23-.Ltext0
 2411 05cf 6C000000 		.4byte	.LVL24-.Ltext0
 2412 05d3 0100     		.2byte	0x1
 2413 05d5 55       		.byte	0x55
 2414 05d6 00000000 		.4byte	0
 2415 05da 00000000 		.4byte	0
 2416              	.LLST18:
 2417 05de 6E000000 		.4byte	.LVL25-.Ltext0
 2418 05e2 7A000000 		.4byte	.LVL28-.Ltext0
 2419 05e6 0100     		.2byte	0x1
 2420 05e8 53       		.byte	0x53
 2421 05e9 00000000 		.4byte	0
 2422 05ed 00000000 		.4byte	0
 2423              	.LLST19:
 2424 05f1 6E000000 		.4byte	.LVL25-.Ltext0
 2425 05f5 7A000000 		.4byte	.LVL28-.Ltext0
 2426 05f9 0100     		.2byte	0x1
 2427 05fb 55       		.byte	0x55
 2428 05fc 00000000 		.4byte	0
 2429 0600 00000000 		.4byte	0
 2430              	.LLST20:
 2431 0604 70000000 		.4byte	.LVL26-.Ltext0
 2432 0608 78000000 		.4byte	.LVL27-.Ltext0
 2433 060c 0100     		.2byte	0x1
 2434 060e 53       		.byte	0x53
 2435 060f 00000000 		.4byte	0
 2436 0613 00000000 		.4byte	0
 2437              	.LLST21:
 2438 0617 70000000 		.4byte	.LVL26-.Ltext0
ARM GAS  G:\Users\Jaxb\AppData\Local\Temp\ccwNPxjY.s 			page 48


 2439 061b 78000000 		.4byte	.LVL27-.Ltext0
 2440 061f 0100     		.2byte	0x1
 2441 0621 52       		.byte	0x52
 2442 0622 00000000 		.4byte	0
 2443 0626 00000000 		.4byte	0
 2444              	.LLST22:
 2445 062a 70000000 		.4byte	.LVL26-.Ltext0
 2446 062e 78000000 		.4byte	.LVL27-.Ltext0
 2447 0632 0100     		.2byte	0x1
 2448 0634 55       		.byte	0x55
 2449 0635 00000000 		.4byte	0
 2450 0639 00000000 		.4byte	0
 2451              	.LLST23:
 2452 063d 7A000000 		.4byte	.LVL28-.Ltext0
 2453 0641 84000000 		.4byte	.LVL30-.Ltext0
 2454 0645 0100     		.2byte	0x1
 2455 0647 54       		.byte	0x54
 2456 0648 00000000 		.4byte	0
 2457 064c 00000000 		.4byte	0
 2458              	.LLST24:
 2459 0650 7A000000 		.4byte	.LVL28-.Ltext0
 2460 0654 84000000 		.4byte	.LVL30-.Ltext0
 2461 0658 0100     		.2byte	0x1
 2462 065a 55       		.byte	0x55
 2463 065b 00000000 		.4byte	0
 2464 065f 00000000 		.4byte	0
 2465              	.LLST25:
 2466 0663 7A000000 		.4byte	.LVL28-.Ltext0
 2467 0667 82000000 		.4byte	.LVL29-.Ltext0
 2468 066b 0100     		.2byte	0x1
 2469 066d 54       		.byte	0x54
 2470 066e 00000000 		.4byte	0
 2471 0672 00000000 		.4byte	0
 2472              	.LLST27:
 2473 0676 7A000000 		.4byte	.LVL28-.Ltext0
 2474 067a 82000000 		.4byte	.LVL29-.Ltext0
 2475 067e 0100     		.2byte	0x1
 2476 0680 55       		.byte	0x55
 2477 0681 00000000 		.4byte	0
 2478 0685 00000000 		.4byte	0
 2479              	.LLST1:
 2480 0689 08000000 		.4byte	.LFB11-.Ltext0
 2481 068d 0A000000 		.4byte	.LCFI0-.Ltext0
 2482 0691 0200     		.2byte	0x2
 2483 0693 7D       		.byte	0x7d
 2484 0694 00       		.sleb128 0
 2485 0695 0A000000 		.4byte	.LCFI0-.Ltext0
 2486 0699 30000000 		.4byte	.LFE11-.Ltext0
 2487 069d 0200     		.2byte	0x2
 2488 069f 7D       		.byte	0x7d
 2489 06a0 10       		.sleb128 16
 2490 06a1 00000000 		.4byte	0
 2491 06a5 00000000 		.4byte	0
 2492              	.LLST2:
 2493 06a9 08000000 		.4byte	.LVL2-.Ltext0
 2494 06ad 12000000 		.4byte	.LVL4-.Ltext0
 2495 06b1 0100     		.2byte	0x1
ARM GAS  G:\Users\Jaxb\AppData\Local\Temp\ccwNPxjY.s 			page 49


 2496 06b3 50       		.byte	0x50
 2497 06b4 12000000 		.4byte	.LVL4-.Ltext0
 2498 06b8 1A000000 		.4byte	.LVL6-.Ltext0
 2499 06bc 0100     		.2byte	0x1
 2500 06be 54       		.byte	0x54
 2501 06bf 1A000000 		.4byte	.LVL6-.Ltext0
 2502 06c3 1E000000 		.4byte	.LVL8-.Ltext0
 2503 06c7 0100     		.2byte	0x1
 2504 06c9 50       		.byte	0x50
 2505 06ca 1E000000 		.4byte	.LVL8-.Ltext0
 2506 06ce 2C000000 		.4byte	.LVL12-.Ltext0
 2507 06d2 0100     		.2byte	0x1
 2508 06d4 54       		.byte	0x54
 2509 06d5 2C000000 		.4byte	.LVL12-.Ltext0
 2510 06d9 30000000 		.4byte	.LFE11-.Ltext0
 2511 06dd 0400     		.2byte	0x4
 2512 06df F3       		.byte	0xf3
 2513 06e0 01       		.uleb128 0x1
 2514 06e1 50       		.byte	0x50
 2515 06e2 9F       		.byte	0x9f
 2516 06e3 00000000 		.4byte	0
 2517 06e7 00000000 		.4byte	0
 2518              	.LLST3:
 2519 06eb 08000000 		.4byte	.LVL2-.Ltext0
 2520 06ef 1C000000 		.4byte	.LVL7-.Ltext0
 2521 06f3 0100     		.2byte	0x1
 2522 06f5 51       		.byte	0x51
 2523 06f6 1C000000 		.4byte	.LVL7-.Ltext0
 2524 06fa 2C000000 		.4byte	.LVL12-.Ltext0
 2525 06fe 0100     		.2byte	0x1
 2526 0700 55       		.byte	0x55
 2527 0701 2C000000 		.4byte	.LVL12-.Ltext0
 2528 0705 30000000 		.4byte	.LFE11-.Ltext0
 2529 0709 0400     		.2byte	0x4
 2530 070b F3       		.byte	0xf3
 2531 070c 01       		.uleb128 0x1
 2532 070d 51       		.byte	0x51
 2533 070e 9F       		.byte	0x9f
 2534 070f 00000000 		.4byte	0
 2535 0713 00000000 		.4byte	0
 2536              	.LLST4:
 2537 0717 10000000 		.4byte	.LVL3-.Ltext0
 2538 071b 18000000 		.4byte	.LVL5-.Ltext0
 2539 071f 0100     		.2byte	0x1
 2540 0721 50       		.byte	0x50
 2541 0722 18000000 		.4byte	.LVL5-.Ltext0
 2542 0726 1A000000 		.4byte	.LVL6-.Ltext0
 2543 072a 0200     		.2byte	0x2
 2544 072c 74       		.byte	0x74
 2545 072d 00       		.sleb128 0
 2546 072e 22000000 		.4byte	.LVL9-.Ltext0
 2547 0732 24000000 		.4byte	.LVL10-.Ltext0
 2548 0736 0100     		.2byte	0x1
 2549 0738 54       		.byte	0x54
 2550 0739 24000000 		.4byte	.LVL10-.Ltext0
 2551 073d 2A000000 		.4byte	.LVL11-.Ltext0
 2552 0741 0100     		.2byte	0x1
ARM GAS  G:\Users\Jaxb\AppData\Local\Temp\ccwNPxjY.s 			page 50


 2553 0743 50       		.byte	0x50
 2554 0744 2A000000 		.4byte	.LVL11-.Ltext0
 2555 0748 2C000000 		.4byte	.LVL12-.Ltext0
 2556 074c 0200     		.2byte	0x2
 2557 074e 74       		.byte	0x74
 2558 074f 00       		.sleb128 0
 2559 0750 2C000000 		.4byte	.LVL12-.Ltext0
 2560 0754 30000000 		.4byte	.LFE11-.Ltext0
 2561 0758 0300     		.2byte	0x3
 2562 075a F3       		.byte	0xf3
 2563 075b 01       		.uleb128 0x1
 2564 075c 50       		.byte	0x50
 2565 075d 00000000 		.4byte	0
 2566 0761 00000000 		.4byte	0
 2567              	.LLST0:
 2568 0765 00000000 		.4byte	.LVL0-.Ltext0
 2569 0769 04000000 		.4byte	.LVL1-.Ltext0
 2570 076d 0100     		.2byte	0x1
 2571 076f 50       		.byte	0x50
 2572 0770 00000000 		.4byte	0
 2573 0774 00000000 		.4byte	0
 2574              		.section	.debug_aranges,"",%progbits
 2575 0000 1C000000 		.4byte	0x1c
 2576 0004 0200     		.2byte	0x2
 2577 0006 00000000 		.4byte	.Ldebug_info0
 2578 000a 04       		.byte	0x4
 2579 000b 00       		.byte	0
 2580 000c 0000     		.2byte	0
 2581 000e 0000     		.2byte	0
 2582 0010 00000000 		.4byte	.Ltext0
 2583 0014 48010000 		.4byte	.Letext0-.Ltext0
 2584 0018 00000000 		.4byte	0
 2585 001c 00000000 		.4byte	0
 2586              		.section	.debug_ranges,"",%progbits
 2587              	.Ldebug_ranges0:
 2588 0000 F8000000 		.4byte	.LBB50-.Ltext0
 2589 0004 FA000000 		.4byte	.LBE50-.Ltext0
 2590 0008 FC000000 		.4byte	.LBB58-.Ltext0
 2591 000c FE000000 		.4byte	.LBE58-.Ltext0
 2592 0010 00010000 		.4byte	.LBB59-.Ltext0
 2593 0014 02010000 		.4byte	.LBE59-.Ltext0
 2594 0018 00000000 		.4byte	0
 2595 001c 00000000 		.4byte	0
 2596 0020 FC000000 		.4byte	.LBB52-.Ltext0
 2597 0024 FE000000 		.4byte	.LBE52-.Ltext0
 2598 0028 00010000 		.4byte	.LBB55-.Ltext0
 2599 002c 02010000 		.4byte	.LBE55-.Ltext0
 2600 0030 00000000 		.4byte	0
 2601 0034 00000000 		.4byte	0
 2602 0038 0C010000 		.4byte	.LBB60-.Ltext0
 2603 003c 10010000 		.4byte	.LBE60-.Ltext0
 2604 0040 12010000 		.4byte	.LBB65-.Ltext0
 2605 0044 18010000 		.4byte	.LBE65-.Ltext0
 2606 0048 00000000 		.4byte	0
 2607 004c 00000000 		.4byte	0
 2608              		.section	.debug_line,"",%progbits
 2609              	.Ldebug_line0:
ARM GAS  G:\Users\Jaxb\AppData\Local\Temp\ccwNPxjY.s 			page 51


 2610 0000 B0010000 		.section	.debug_str,"MS",%progbits,1
 2610      0200C200 
 2610      00000201 
 2610      FB0E0D00 
 2610      01010101 
 2611              	.LASF37:
 2612 0000 6C697374 		.ascii	"list\000"
 2612      00
 2613              	.LASF16:
 2614 0005 7072696F 		.ascii	"prio\000"
 2614      00
 2615              	.LASF39:
 2616 000a 2E2E2F2E 		.ascii	"../../source/src/user/OS_LIB/insert_sort.c\000"
 2616      2E2F736F 
 2616      75726365 
 2616      2F737263 
 2616      2F757365 
 2617              	.LASF10:
 2618 0035 6E657874 		.ascii	"next\000"
 2618      00
 2619              	.LASF25:
 2620 003a 6765745F 		.ascii	"get_next_IL\000"
 2620      6E657874 
 2620      5F494C00 
 2621              	.LASF41:
 2622 0046 6C697374 		.ascii	"list_empty\000"
 2622      5F656D70 
 2622      747900
 2623              	.LASF20:
 2624 0051 64656C65 		.ascii	"delete_first_in_chain\000"
 2624      74655F66 
 2624      69727374 
 2624      5F696E5F 
 2624      63686169 
 2625              	.LASF27:
 2626 0067 6C697374 		.ascii	"list_buffer\000"
 2626      5F627566 
 2626      66657200 
 2627              	.LASF30:
 2628 0073 656E7472 		.ascii	"entry\000"
 2628      7900
 2629              	.LASF23:
 2630 0079 66696E64 		.ascii	"find_in_chain\000"
 2630      5F696E5F 
 2630      63686169 
 2630      6E00
 2631              	.LASF12:
 2632 0087 434F4D50 		.ascii	"COMPARE_TYPE\000"
 2632      4152455F 
 2632      54595045 
 2632      00
 2633              	.LASF5:
 2634 0094 494E5436 		.ascii	"INT64\000"
 2634      3400
 2635              	.LASF24:
 2636 009a 696E7365 		.ascii	"insert_node\000"
 2636      72745F6E 
ARM GAS  G:\Users\Jaxb\AppData\Local\Temp\ccwNPxjY.s 			page 52


 2636      6F646500 
 2637              	.LASF3:
 2638 00a6 756E7369 		.ascii	"unsigned char\000"
 2638      676E6564 
 2638      20636861 
 2638      7200
 2639              	.LASF33:
 2640 00b4 6C697374 		.ascii	"list_add_tail\000"
 2640      5F616464 
 2640      5F746169 
 2640      6C00
 2641              	.LASF34:
 2642 00c2 6C697374 		.ascii	"list_add\000"
 2642      5F616464 
 2642      00
 2643              	.LASF21:
 2644 00cb 5F5F6D70 		.ascii	"__mptr\000"
 2644      747200
 2645              	.LASF4:
 2646 00d2 73686F72 		.ascii	"short unsigned int\000"
 2646      7420756E 
 2646      7369676E 
 2646      65642069 
 2646      6E7400
 2647              	.LASF9:
 2648 00e5 73697A65 		.ascii	"size_t\000"
 2648      5F7400
 2649              	.LASF32:
 2650 00ec 5F5F6C69 		.ascii	"__list_del\000"
 2650      73745F64 
 2650      656C00
 2651              	.LASF36:
 2652 00f7 494E4954 		.ascii	"INIT_LIST_HEAD\000"
 2652      5F4C4953 
 2652      545F4845 
 2652      414400
 2653              	.LASF17:
 2654 0106 68656164 		.ascii	"head\000"
 2654      00
 2655              	.LASF7:
 2656 010b 756E7369 		.ascii	"unsigned int\000"
 2656      676E6564 
 2656      20696E74 
 2656      00
 2657              	.LASF22:
 2658 0118 64656C65 		.ascii	"delete_from_chain\000"
 2658      74655F66 
 2658      726F6D5F 
 2658      63686169 
 2658      6E00
 2659              	.LASF8:
 2660 012a 6C6F6E67 		.ascii	"long long unsigned int\000"
 2660      206C6F6E 
 2660      6720756E 
 2660      7369676E 
 2660      65642069 
 2661              	.LASF15:
ARM GAS  G:\Users\Jaxb\AppData\Local\Temp\ccwNPxjY.s 			page 53


 2662 0141 696E7365 		.ascii	"insert\000"
 2662      727400
 2663              	.LASF29:
 2664 0148 494C5F69 		.ascii	"IL_init\000"
 2664      6E697400 
 2665              	.LASF19:
 2666 0150 66696E64 		.ascii	"find_first_bigger_IL\000"
 2666      5F666972 
 2666      73745F62 
 2666      69676765 
 2666      725F494C 
 2667              	.LASF13:
 2668 0165 6C697374 		.ascii	"list_head\000"
 2668      5F686561 
 2668      6400
 2669              	.LASF2:
 2670 016f 6C6F6E67 		.ascii	"long long int\000"
 2670      206C6F6E 
 2670      6720696E 
 2670      7400
 2671              	.LASF6:
 2672 017d 55494E54 		.ascii	"UINT32\000"
 2672      333200
 2673              	.LASF28:
 2674 0184 696E7365 		.ascii	"insert_chain\000"
 2674      72745F63 
 2674      6861696E 
 2674      00
 2675              	.LASF1:
 2676 0191 73686F72 		.ascii	"short int\000"
 2676      7420696E 
 2676      7400
 2677              	.LASF14:
 2678 019b 696E7365 		.ascii	"insert_list\000"
 2678      72745F6C 
 2678      69737400 
 2679              	.LASF35:
 2680 01a7 5F5F6C69 		.ascii	"__list_add\000"
 2680      73745F61 
 2680      646400
 2681              	.LASF18:
 2682 01b2 494C5F70 		.ascii	"IL_ptr\000"
 2682      747200
 2683              	.LASF26:
 2684 01b9 68656164 		.ascii	"head_ptr\000"
 2684      5F707472 
 2684      00
 2685              	.LASF38:
 2686 01c2 474E5520 		.ascii	"GNU C11 7.3.1 20180622 (release) [ARM/embedded-7-br"
 2686      43313120 
 2686      372E332E 
 2686      31203230 
 2686      31383036 
 2687 01f5 616E6368 		.ascii	"anch revision 261907] -mcpu=cortex-m3 -mthumb -mapc"
 2687      20726576 
 2687      6973696F 
 2687      6E203236 
ARM GAS  G:\Users\Jaxb\AppData\Local\Temp\ccwNPxjY.s 			page 54


 2687      31393037 
 2688 0228 732D6672 		.ascii	"s-frame -mthumb-interwork -mcpu=cortex-m3 -mthumb -"
 2688      616D6520 
 2688      2D6D7468 
 2688      756D622D 
 2688      696E7465 
 2689 025b 67647761 		.ascii	"gdwarf-2 -O2\000"
 2689      72662D32 
 2689      202D4F32 
 2689      00
 2690              	.LASF42:
 2691 0268 5F415353 		.ascii	"_ASSERT\000"
 2691      45525400 
 2692              	.LASF0:
 2693 0270 7369676E 		.ascii	"signed char\000"
 2693      65642063 
 2693      68617200 
 2694              	.LASF11:
 2695 027c 70726576 		.ascii	"prev\000"
 2695      00
 2696              	.LASF31:
 2697 0281 6C697374 		.ascii	"list_del\000"
 2697      5F64656C 
 2697      00
 2698              	.LASF40:
 2699 028a 473A5C55 		.ascii	"G:\\Users\\Jaxb\\Desktop\\KAKAOS-0.07  2019.2.21  f"
 2699      73657273 
 2699      5C4A6178 
 2699      625C4465 
 2699      736B746F 
 2700 02b9 6F722067 		.ascii	"or gcc\\Project\\RVMDK\243\250uv5\243\251\000"
 2700      63635C50 
 2700      726F6A65 
 2700      63745C52 
 2700      564D444B 
 2701              		.ident	"GCC: (GNU Tools for Arm Embedded Processors 7-2018-q2-update) 7.3.1 20180622 (release) [AR
ARM GAS  G:\Users\Jaxb\AppData\Local\Temp\ccwNPxjY.s 			page 55


DEFINED SYMBOLS
                            *ABS*:00000000 insert_sort.c
G:\Users\Jaxb\AppData\Local\Temp\ccwNPxjY.s:15     .text:00000000 $t
G:\Users\Jaxb\AppData\Local\Temp\ccwNPxjY.s:23     .text:00000000 IL_init
G:\Users\Jaxb\AppData\Local\Temp\ccwNPxjY.s:55     .text:00000008 get_next_IL
G:\Users\Jaxb\AppData\Local\Temp\ccwNPxjY.s:106    .text:0000002c $d
G:\Users\Jaxb\AppData\Local\Temp\ccwNPxjY.s:110    .text:00000030 $t
G:\Users\Jaxb\AppData\Local\Temp\ccwNPxjY.s:118    .text:00000030 insert_chain
G:\Users\Jaxb\AppData\Local\Temp\ccwNPxjY.s:260    .text:0000009c $d
G:\Users\Jaxb\AppData\Local\Temp\ccwNPxjY.s:264    .text:000000a0 $t
G:\Users\Jaxb\AppData\Local\Temp\ccwNPxjY.s:272    .text:000000a0 find_in_chain
G:\Users\Jaxb\AppData\Local\Temp\ccwNPxjY.s:346    .text:000000cc delete_from_chain
G:\Users\Jaxb\AppData\Local\Temp\ccwNPxjY.s:456    .text:00000104 delete_first_in_chain
G:\Users\Jaxb\AppData\Local\Temp\ccwNPxjY.s:511    .text:0000011c find_first_bigger_IL
G:\Users\Jaxb\AppData\Local\Temp\ccwNPxjY.s:578    .rodata.str1.4:00000000 $d

UNDEFINED SYMBOLS
_ASSERT
