ARM GAS  G:\Users\Jaxb\AppData\Local\Temp\ccwNPxjY.s 			page 1


   1              		.cpu cortex-m3
   2              		.eabi_attribute 20, 1
   3              		.eabi_attribute 21, 1
   4              		.eabi_attribute 23, 3
   5              		.eabi_attribute 24, 1
   6              		.eabi_attribute 25, 1
   7              		.eabi_attribute 26, 1
   8              		.eabi_attribute 30, 2
   9              		.eabi_attribute 34, 1
  10              		.eabi_attribute 18, 4
  11              		.file	"insert_sort.c"
  12              		.text
  13              	.Ltext0:
  14              		.cfi_sections	.debug_frame
  15              		.align	1
  16              		.p2align 2,,3
  17              		.global	IL_init
  18              		.syntax unified
  19              		.thumb
  20              		.thumb_func
  21              		.fpu softvfp
  22              		.type	IL_init, %function
  23              	IL_init:
  24              	.LFB10:
  25              		.file 1 "../../source/src/user/OS_LIB/insert_sort.c"
   1:../../source/src/user/OS_LIB/insert_sort.c **** #include <insert_sort.h>
   2:../../source/src/user/OS_LIB/insert_sort.c **** #include <double_linked_list.h>
   3:../../source/src/user/OS_LIB/insert_sort.c **** #include <myassert.h>
   4:../../source/src/user/OS_LIB/insert_sort.c **** 
   5:../../source/src/user/OS_LIB/insert_sort.c **** #define TIME_FIRST_SMALLER_THAN_SECOND(first,second) ((INT64)(first)-(INT64)(second)<0)
   6:../../source/src/user/OS_LIB/insert_sort.c **** #define TIME_FIRST_NOT_BIGGER_THAN_SECOND(first,second) ((INT64)(second)-(INT64)(first)>=0)
   7:../../source/src/user/OS_LIB/insert_sort.c **** 
   8:../../source/src/user/OS_LIB/insert_sort.c **** inline void IL_init(IL *IL_ptr,COMPARE_TYPE prio)
   9:../../source/src/user/OS_LIB/insert_sort.c **** {
  26              		.loc 1 9 0
  27              		.cfi_startproc
  28              		@ args = 0, pretend = 0, frame = 0
  29              		@ frame_needed = 0, uses_anonymous_args = 0
  30              		@ link register save eliminated.
  31              	.LVL0:
  32              	.LBB35:
  33              	.LBB36:
  34              		.file 2 "../../source/include/os_lib/double_linked_list.h"
   1:../../source/include/os_lib/double_linked_list.h **** #ifndef _DOUBLE_LINKED_LIST_H
   2:../../source/include/os_lib/double_linked_list.h **** #define _DOUBLE_LINKED_LIST_H
   3:../../source/include/os_lib/double_linked_list.h **** 
   4:../../source/include/os_lib/double_linked_list.h **** struct list_head {
   5:../../source/include/os_lib/double_linked_list.h ****     struct list_head *next, *prev;
   6:../../source/include/os_lib/double_linked_list.h **** };
   7:../../source/include/os_lib/double_linked_list.h **** 
   8:../../source/include/os_lib/double_linked_list.h **** 
   9:../../source/include/os_lib/double_linked_list.h **** #define LIST_HEAD_INIT(name) { &(name), &(name) }
  10:../../source/include/os_lib/double_linked_list.h **** 
  11:../../source/include/os_lib/double_linked_list.h **** 
  12:../../source/include/os_lib/double_linked_list.h **** #define LIST_HEAD(name) \
  13:../../source/include/os_lib/double_linked_list.h ****     struct list_head name = LIST_HEAD_INIT(name)
  14:../../source/include/os_lib/double_linked_list.h **** 
ARM GAS  G:\Users\Jaxb\AppData\Local\Temp\ccwNPxjY.s 			page 2


  15:../../source/include/os_lib/double_linked_list.h **** 
  16:../../source/include/os_lib/double_linked_list.h **** static inline void INIT_LIST_HEAD(struct list_head *list)
  17:../../source/include/os_lib/double_linked_list.h **** {
  18:../../source/include/os_lib/double_linked_list.h ****     list->next = list;
  19:../../source/include/os_lib/double_linked_list.h ****     list->prev = list;
  35              		.loc 2 19 0
  36 0000 C0E90000 		strd	r0, r0, [r0]
  37              	.LVL1:
  38              	.LBE36:
  39              	.LBE35:
  10:../../source/src/user/OS_LIB/insert_sort.c **** 	INIT_LIST_HEAD(&IL_ptr->insert);
  11:../../source/src/user/OS_LIB/insert_sort.c **** 	IL_ptr->prio = prio;
  40              		.loc 1 11 0
  41 0004 8160     		str	r1, [r0, #8]
  12:../../source/src/user/OS_LIB/insert_sort.c **** }
  42              		.loc 1 12 0
  43 0006 7047     		bx	lr
  44              		.cfi_endproc
  45              	.LFE10:
  46              		.size	IL_init, .-IL_init
  47              		.align	1
  48              		.p2align 2,,3
  49              		.global	get_next_IL
  50              		.syntax unified
  51              		.thumb
  52              		.thumb_func
  53              		.fpu softvfp
  54              		.type	get_next_IL, %function
  55              	get_next_IL:
  56              	.LFB11:
  13:../../source/src/user/OS_LIB/insert_sort.c **** 
  14:../../source/src/user/OS_LIB/insert_sort.c **** IL *get_next_IL(IL *IL_ptr,struct list_head *head_ptr)
  15:../../source/src/user/OS_LIB/insert_sort.c **** {
  57              		.loc 1 15 0
  58              		.cfi_startproc
  59              		@ args = 0, pretend = 0, frame = 0
  60              		@ frame_needed = 0, uses_anonymous_args = 0
  61              	.LVL2:
  62 0008 38B5     		push	{r3, r4, r5, lr}
  63              	.LCFI0:
  64              		.cfi_def_cfa_offset 16
  65              		.cfi_offset 3, -16
  66              		.cfi_offset 4, -12
  67              		.cfi_offset 5, -8
  68              		.cfi_offset 14, -4
  69              		.loc 1 15 0
  70 000a 0D46     		mov	r5, r1
  16:../../source/src/user/OS_LIB/insert_sort.c **** 	ASSERT(NULL != IL_ptr);
  71              		.loc 1 16 0
  72 000c 0446     		mov	r4, r0
  73 000e 20B1     		cbz	r0, .L7
  74              	.LVL3:
  17:../../source/src/user/OS_LIB/insert_sort.c **** 	struct list_head *list_buffer;
  18:../../source/src/user/OS_LIB/insert_sort.c **** 	list_buffer = &IL_ptr->insert;
  19:../../source/src/user/OS_LIB/insert_sort.c **** 	list_buffer = list_buffer->next;
  75              		.loc 1 19 0
  76 0010 2068     		ldr	r0, [r4]
ARM GAS  G:\Users\Jaxb\AppData\Local\Temp\ccwNPxjY.s 			page 3


  77              	.LVL4:
  20:../../source/src/user/OS_LIB/insert_sort.c **** 	if(list_buffer == head_ptr)
  21:../../source/src/user/OS_LIB/insert_sort.c **** 	{
  22:../../source/src/user/OS_LIB/insert_sort.c **** 		return NULL;
  23:../../source/src/user/OS_LIB/insert_sort.c **** 	}
  24:../../source/src/user/OS_LIB/insert_sort.c **** 	return (list_entry(list_buffer,IL,insert));
  25:../../source/src/user/OS_LIB/insert_sort.c **** }
  78              		.loc 1 25 0
  79 0012 A842     		cmp	r0, r5
  80 0014 08BF     		it	eq
  81 0016 0020     		moveq	r0, #0
  82              	.LVL5:
  83 0018 38BD     		pop	{r3, r4, r5, pc}
  84              	.LVL6:
  85              	.L7:
  16:../../source/src/user/OS_LIB/insert_sort.c **** 	struct list_head *list_buffer;
  86              		.loc 1 16 0 discriminator 1
  87 001a 1021     		movs	r1, #16
  88              	.LVL7:
  89 001c 0348     		ldr	r0, .L8
  90              	.LVL8:
  91 001e FFF7FEFF 		bl	_ASSERT
  92              	.LVL9:
  19:../../source/src/user/OS_LIB/insert_sort.c **** 	if(list_buffer == head_ptr)
  93              		.loc 1 19 0 discriminator 1
  94 0022 2068     		ldr	r0, [r4]
  95              	.LVL10:
  96              		.loc 1 25 0 discriminator 1
  97 0024 A842     		cmp	r0, r5
  98 0026 08BF     		it	eq
  99 0028 0020     		moveq	r0, #0
 100              	.LVL11:
 101 002a 38BD     		pop	{r3, r4, r5, pc}
 102              	.LVL12:
 103              	.L9:
 104              		.align	2
 105              	.L8:
 106 002c 00000000 		.word	.LC0
 107              		.cfi_endproc
 108              	.LFE11:
 109              		.size	get_next_IL, .-get_next_IL
 110              		.align	1
 111              		.p2align 2,,3
 112              		.global	insert_chain
 113              		.syntax unified
 114              		.thumb
 115              		.thumb_func
 116              		.fpu softvfp
 117              		.type	insert_chain, %function
 118              	insert_chain:
 119              	.LFB12:
  26:../../source/src/user/OS_LIB/insert_sort.c **** 
  27:../../source/src/user/OS_LIB/insert_sort.c **** void 
  28:../../source/src/user/OS_LIB/insert_sort.c **** insert_chain(
  29:../../source/src/user/OS_LIB/insert_sort.c **** struct list_head *head,
  30:../../source/src/user/OS_LIB/insert_sort.c **** IL *insert_node
  31:../../source/src/user/OS_LIB/insert_sort.c **** )
ARM GAS  G:\Users\Jaxb\AppData\Local\Temp\ccwNPxjY.s 			page 4


  32:../../source/src/user/OS_LIB/insert_sort.c **** {
 120              		.loc 1 32 0
 121              		.cfi_startproc
 122              		@ args = 0, pretend = 0, frame = 0
 123              		@ frame_needed = 0, uses_anonymous_args = 0
 124              	.LVL13:
 125 0030 F8B5     		push	{r3, r4, r5, r6, r7, lr}
 126              	.LCFI1:
 127              		.cfi_def_cfa_offset 24
 128              		.cfi_offset 3, -24
 129              		.cfi_offset 4, -20
 130              		.cfi_offset 5, -16
 131              		.cfi_offset 6, -12
 132              		.cfi_offset 7, -8
 133              		.cfi_offset 14, -4
 134              		.loc 1 32 0
 135 0032 0D46     		mov	r5, r1
  33:../../source/src/user/OS_LIB/insert_sort.c **** 	struct list_head *pos,*next;
  34:../../source/src/user/OS_LIB/insert_sort.c ****   ASSERT(NULL != head);
 136              		.loc 1 34 0
 137 0034 0446     		mov	r4, r0
 138 0036 28B3     		cbz	r0, .L18
  35:../../source/src/user/OS_LIB/insert_sort.c ****   ASSERT(NULL != insert_node);
 139              		.loc 1 35 0
 140 0038 55B3     		cbz	r5, .L19
 141              	.LVL14:
 142              	.L12:
 143              	.LBB37:
 144              	.LBB38:
  20:../../source/include/os_lib/double_linked_list.h **** }
  21:../../source/include/os_lib/double_linked_list.h **** 
  22:../../source/include/os_lib/double_linked_list.h **** 
  23:../../source/include/os_lib/double_linked_list.h **** static inline void __list_add(struct list_head *new,
  24:../../source/include/os_lib/double_linked_list.h ****                   struct list_head *prev,
  25:../../source/include/os_lib/double_linked_list.h ****                   struct list_head *next)
  26:../../source/include/os_lib/double_linked_list.h **** {
  27:../../source/include/os_lib/double_linked_list.h ****     next->prev = new;
  28:../../source/include/os_lib/double_linked_list.h ****     new->next = next;
  29:../../source/include/os_lib/double_linked_list.h ****     new->prev = prev;
  30:../../source/include/os_lib/double_linked_list.h ****     prev->next = new;
  31:../../source/include/os_lib/double_linked_list.h **** }
  32:../../source/include/os_lib/double_linked_list.h **** 
  33:../../source/include/os_lib/double_linked_list.h **** 
  34:../../source/include/os_lib/double_linked_list.h **** static inline void list_add(struct list_head *new, struct list_head *head)
  35:../../source/include/os_lib/double_linked_list.h **** {
  36:../../source/include/os_lib/double_linked_list.h ****     __list_add(new, head, head->next);
  37:../../source/include/os_lib/double_linked_list.h **** }
  38:../../source/include/os_lib/double_linked_list.h **** 
  39:../../source/include/os_lib/double_linked_list.h **** 
  40:../../source/include/os_lib/double_linked_list.h **** static inline void list_add_tail(struct list_head *new, struct list_head *head)
  41:../../source/include/os_lib/double_linked_list.h **** {
  42:../../source/include/os_lib/double_linked_list.h ****     __list_add(new, head->prev, head);
  43:../../source/include/os_lib/double_linked_list.h **** }
  44:../../source/include/os_lib/double_linked_list.h **** 
  45:../../source/include/os_lib/double_linked_list.h **** 
  46:../../source/include/os_lib/double_linked_list.h **** static inline void __list_del(struct list_head * prev, struct list_head * next)
  47:../../source/include/os_lib/double_linked_list.h **** {
ARM GAS  G:\Users\Jaxb\AppData\Local\Temp\ccwNPxjY.s 			page 5


  48:../../source/include/os_lib/double_linked_list.h ****     next->prev = prev;
  49:../../source/include/os_lib/double_linked_list.h ****     prev->next = next;
  50:../../source/include/os_lib/double_linked_list.h **** }
  51:../../source/include/os_lib/double_linked_list.h **** 
  52:../../source/include/os_lib/double_linked_list.h **** 
  53:../../source/include/os_lib/double_linked_list.h **** static inline void list_del(struct list_head *entry)
  54:../../source/include/os_lib/double_linked_list.h **** {
  55:../../source/include/os_lib/double_linked_list.h ****     __list_del(entry->prev, entry->next);
  56:../../source/include/os_lib/double_linked_list.h **** }
  57:../../source/include/os_lib/double_linked_list.h **** 
  58:../../source/include/os_lib/double_linked_list.h **** 
  59:../../source/include/os_lib/double_linked_list.h **** static inline void __list_del_entry(struct list_head *entry)
  60:../../source/include/os_lib/double_linked_list.h **** {
  61:../../source/include/os_lib/double_linked_list.h ****     __list_del(entry->prev, entry->next);
  62:../../source/include/os_lib/double_linked_list.h **** }
  63:../../source/include/os_lib/double_linked_list.h **** 
  64:../../source/include/os_lib/double_linked_list.h **** 
  65:../../source/include/os_lib/double_linked_list.h **** static inline void list_del_init(struct list_head *entry)
  66:../../source/include/os_lib/double_linked_list.h **** {
  67:../../source/include/os_lib/double_linked_list.h ****     __list_del_entry(entry);
  68:../../source/include/os_lib/double_linked_list.h ****     INIT_LIST_HEAD(entry);
  69:../../source/include/os_lib/double_linked_list.h **** }
  70:../../source/include/os_lib/double_linked_list.h **** 
  71:../../source/include/os_lib/double_linked_list.h **** 
  72:../../source/include/os_lib/double_linked_list.h **** static inline void list_replace(struct list_head *old,
  73:../../source/include/os_lib/double_linked_list.h ****                 struct list_head *new)
  74:../../source/include/os_lib/double_linked_list.h **** {
  75:../../source/include/os_lib/double_linked_list.h ****     new->next = old->next;
  76:../../source/include/os_lib/double_linked_list.h ****     new->next->prev = new;
  77:../../source/include/os_lib/double_linked_list.h ****     new->prev = old->prev;
  78:../../source/include/os_lib/double_linked_list.h ****     new->prev->next = new;
  79:../../source/include/os_lib/double_linked_list.h **** }
  80:../../source/include/os_lib/double_linked_list.h **** 
  81:../../source/include/os_lib/double_linked_list.h **** 
  82:../../source/include/os_lib/double_linked_list.h **** static inline int list_empty(const struct list_head *head)
  83:../../source/include/os_lib/double_linked_list.h **** {
  84:../../source/include/os_lib/double_linked_list.h ****     return head->next == head;
 145              		.loc 2 84 0
 146 003a 2368     		ldr	r3, [r4]
 147              	.LVL15:
 148              	.LBE38:
 149              	.LBE37:
  36:../../source/src/user/OS_LIB/insert_sort.c **** 
  37:../../source/src/user/OS_LIB/insert_sort.c **** 	if(list_empty(head))
 150              		.loc 1 37 0
 151 003c 9C42     		cmp	r4, r3
 152 003e 1CD0     		beq	.L20
 153              	.LVL16:
 154 0040 AE68     		ldr	r6, [r5, #8]
  38:../../source/src/user/OS_LIB/insert_sort.c **** 	{
  39:../../source/src/user/OS_LIB/insert_sort.c **** 		list_add(&insert_node->insert,head);
  40:../../source/src/user/OS_LIB/insert_sort.c **** 		return;
  41:../../source/src/user/OS_LIB/insert_sort.c **** 	}
  42:../../source/src/user/OS_LIB/insert_sort.c **** 	
  43:../../source/src/user/OS_LIB/insert_sort.c ****   COMPARE_TYPE prio = insert_node->prio;
  44:../../source/src/user/OS_LIB/insert_sort.c **** 	IL *IL_ptr;
  45:../../source/src/user/OS_LIB/insert_sort.c **** 	list_for_each_safe(pos,next,head)
ARM GAS  G:\Users\Jaxb\AppData\Local\Temp\ccwNPxjY.s 			page 6


 155              		.loc 1 45 0
 156 0042 1A68     		ldr	r2, [r3]
 157              	.LVL17:
 158 0044 0027     		movs	r7, #0
 159 0046 00E0     		b	.L16
 160              	.LVL18:
 161              	.L17:
 162 0048 0A46     		mov	r2, r1
 163              	.LVL19:
 164              	.L16:
  46:../../source/src/user/OS_LIB/insert_sort.c **** 	{
  47:../../source/src/user/OS_LIB/insert_sort.c **** 		IL_ptr = list_entry(pos,IL,insert);
  48:../../source/src/user/OS_LIB/insert_sort.c **** 		//if(prio < IL_ptr->prio)
  49:../../source/src/user/OS_LIB/insert_sort.c **** 		if(TIME_FIRST_SMALLER_THAN_SECOND(prio,IL_ptr->prio))
 165              		.loc 1 49 0
 166 004a 9968     		ldr	r1, [r3, #8]
 167 004c 701A     		subs	r0, r6, r1
 168 004e 67F10001 		sbc	r1, r7, #0
 169 0052 0028     		cmp	r0, #0
 170 0054 71F10001 		sbcs	r1, r1, #0
 171 0058 09DB     		blt	.L21
  45:../../source/src/user/OS_LIB/insert_sort.c **** 	{
 172              		.loc 1 45 0 discriminator 2
 173 005a 9442     		cmp	r4, r2
 174 005c 1168     		ldr	r1, [r2]
 175              	.LVL20:
 176 005e 1346     		mov	r3, r2
 177              	.LVL21:
 178 0060 F2D1     		bne	.L17
 179              	.LVL22:
 180              	.LBB39:
 181              	.LBB40:
  42:../../source/include/os_lib/double_linked_list.h **** }
 182              		.loc 2 42 0
 183 0062 6368     		ldr	r3, [r4, #4]
 184              	.LVL23:
 185              	.LBB41:
 186              	.LBB42:
  27:../../source/include/os_lib/double_linked_list.h ****     new->next = next;
 187              		.loc 2 27 0
 188 0064 6560     		str	r5, [r4, #4]
  28:../../source/include/os_lib/double_linked_list.h ****     new->prev = prev;
 189              		.loc 2 28 0
 190 0066 C5E90043 		strd	r4, r3, [r5]
  30:../../source/include/os_lib/double_linked_list.h **** }
 191              		.loc 2 30 0
 192 006a 1D60     		str	r5, [r3]
 193              	.LVL24:
 194              	.LBE42:
 195              	.LBE41:
 196              	.LBE40:
 197              	.LBE39:
  50:../../source/src/user/OS_LIB/insert_sort.c **** 		{
  51:../../source/src/user/OS_LIB/insert_sort.c **** 			list_add_tail(&insert_node->insert,pos);
  52:../../source/src/user/OS_LIB/insert_sort.c **** 			return ;
  53:../../source/src/user/OS_LIB/insert_sort.c **** 		}
  54:../../source/src/user/OS_LIB/insert_sort.c **** 
ARM GAS  G:\Users\Jaxb\AppData\Local\Temp\ccwNPxjY.s 			page 7


  55:../../source/src/user/OS_LIB/insert_sort.c **** 	}
  56:../../source/src/user/OS_LIB/insert_sort.c **** 	list_add_tail(&insert_node->insert,head);
  57:../../source/src/user/OS_LIB/insert_sort.c **** 	return ;
  58:../../source/src/user/OS_LIB/insert_sort.c **** }
 198              		.loc 1 58 0
 199 006c F8BD     		pop	{r3, r4, r5, r6, r7, pc}
 200              	.LVL25:
 201              	.L21:
 202              	.LBB43:
 203              	.LBB44:
  42:../../source/include/os_lib/double_linked_list.h **** }
 204              		.loc 2 42 0
 205 006e 5A68     		ldr	r2, [r3, #4]
 206              	.LVL26:
 207              	.LBB45:
 208              	.LBB46:
  27:../../source/include/os_lib/double_linked_list.h ****     new->next = next;
 209              		.loc 2 27 0
 210 0070 5D60     		str	r5, [r3, #4]
  28:../../source/include/os_lib/double_linked_list.h ****     new->prev = prev;
 211              		.loc 2 28 0
 212 0072 C5E90032 		strd	r3, r2, [r5]
  30:../../source/include/os_lib/double_linked_list.h **** }
 213              		.loc 2 30 0
 214 0076 1560     		str	r5, [r2]
 215              	.LVL27:
 216              	.LBE46:
 217              	.LBE45:
 218              	.LBE44:
 219              	.LBE43:
 220              		.loc 1 58 0
 221 0078 F8BD     		pop	{r3, r4, r5, r6, r7, pc}
 222              	.LVL28:
 223              	.L20:
 224              	.LBB47:
 225              	.LBB48:
 226              	.LBB49:
  27:../../source/include/os_lib/double_linked_list.h ****     new->next = next;
 227              		.loc 2 27 0
 228 007a 6560     		str	r5, [r4, #4]
  29:../../source/include/os_lib/double_linked_list.h ****     prev->next = new;
 229              		.loc 2 29 0
 230 007c C5E90044 		strd	r4, r4, [r5]
  30:../../source/include/os_lib/double_linked_list.h **** }
 231              		.loc 2 30 0
 232 0080 2560     		str	r5, [r4]
 233              	.LVL29:
 234              	.LBE49:
 235              	.LBE48:
 236              	.LBE47:
 237              		.loc 1 58 0
 238 0082 F8BD     		pop	{r3, r4, r5, r6, r7, pc}
 239              	.LVL30:
 240              	.L18:
  34:../../source/src/user/OS_LIB/insert_sort.c ****   ASSERT(NULL != insert_node);
 241              		.loc 1 34 0 discriminator 1
 242 0084 2221     		movs	r1, #34
ARM GAS  G:\Users\Jaxb\AppData\Local\Temp\ccwNPxjY.s 			page 8


 243              	.LVL31:
 244 0086 0548     		ldr	r0, .L22
 245              	.LVL32:
 246 0088 FFF7FEFF 		bl	_ASSERT
 247              	.LVL33:
  35:../../source/src/user/OS_LIB/insert_sort.c **** 
 248              		.loc 1 35 0 discriminator 1
 249 008c 002D     		cmp	r5, #0
 250 008e D4D1     		bne	.L12
 251              	.L19:
 252 0090 2321     		movs	r1, #35
 253 0092 0248     		ldr	r0, .L22
 254 0094 FFF7FEFF 		bl	_ASSERT
 255              	.LVL34:
 256 0098 CFE7     		b	.L12
 257              	.L23:
 258 009a 00BF     		.align	2
 259              	.L22:
 260 009c 00000000 		.word	.LC0
 261              		.cfi_endproc
 262              	.LFE12:
 263              		.size	insert_chain, .-insert_chain
 264              		.align	1
 265              		.p2align 2,,3
 266              		.global	find_in_chain
 267              		.syntax unified
 268              		.thumb
 269              		.thumb_func
 270              		.fpu softvfp
 271              		.type	find_in_chain, %function
 272              	find_in_chain:
 273              	.LFB13:
  59:../../source/src/user/OS_LIB/insert_sort.c **** 
  60:../../source/src/user/OS_LIB/insert_sort.c **** IL *find_in_chain(struct list_head *head,COMPARE_TYPE prio) // polymorphic
  61:../../source/src/user/OS_LIB/insert_sort.c **** {
 274              		.loc 1 61 0
 275              		.cfi_startproc
 276              		@ args = 0, pretend = 0, frame = 0
 277              		@ frame_needed = 0, uses_anonymous_args = 0
 278              		@ link register save eliminated.
 279              	.LVL35:
  62:../../source/src/user/OS_LIB/insert_sort.c **** 	struct list_head *pos, *next;
  63:../../source/src/user/OS_LIB/insert_sort.c **** 	IL *IL_ptr;
  64:../../source/src/user/OS_LIB/insert_sort.c **** 	list_for_each_safe(pos, next, head)
 280              		.loc 1 64 0
 281 00a0 0268     		ldr	r2, [r0]
 282              	.LVL36:
  61:../../source/src/user/OS_LIB/insert_sort.c **** 	struct list_head *pos, *next;
 283              		.loc 1 61 0
 284 00a2 10B4     		push	{r4}
 285              	.LCFI2:
 286              		.cfi_def_cfa_offset 4
 287              		.cfi_offset 4, -4
 288              		.loc 1 64 0
 289 00a4 9042     		cmp	r0, r2
 290 00a6 1368     		ldr	r3, [r2]
 291              	.LVL37:
ARM GAS  G:\Users\Jaxb\AppData\Local\Temp\ccwNPxjY.s 			page 9


 292 00a8 0AD0     		beq	.L28
 293              	.LVL38:
  65:../../source/src/user/OS_LIB/insert_sort.c **** 	{
  66:../../source/src/user/OS_LIB/insert_sort.c ****       IL_ptr = list_entry(pos,IL,insert);
  67:../../source/src/user/OS_LIB/insert_sort.c ****       if(prio == IL_ptr->prio)
 294              		.loc 1 67 0
 295 00aa 9468     		ldr	r4, [r2, #8]
 296 00ac A142     		cmp	r1, r4
 297 00ae 04D1     		bne	.L26
 298 00b0 0AE0     		b	.L30
 299              	.LVL39:
 300              	.L27:
 301 00b2 9C68     		ldr	r4, [r3, #8]
 302 00b4 8C42     		cmp	r4, r1
 303 00b6 04D0     		beq	.L24
  64:../../source/src/user/OS_LIB/insert_sort.c **** 	{
 304              		.loc 1 64 0
 305 00b8 1346     		mov	r3, r2
 306              	.LVL40:
 307              	.L26:
  64:../../source/src/user/OS_LIB/insert_sort.c **** 	{
 308              		.loc 1 64 0 is_stmt 0 discriminator 2
 309 00ba 9842     		cmp	r0, r3
 310 00bc 1A68     		ldr	r2, [r3]
 311              	.LVL41:
 312 00be F8D1     		bne	.L27
 313              	.LVL42:
 314              	.L28:
  68:../../source/src/user/OS_LIB/insert_sort.c ****       {
  69:../../source/src/user/OS_LIB/insert_sort.c ****       	return IL_ptr;
  70:../../source/src/user/OS_LIB/insert_sort.c ****       }
  71:../../source/src/user/OS_LIB/insert_sort.c **** 	}
  72:../../source/src/user/OS_LIB/insert_sort.c **** 	return NULL;
 315              		.loc 1 72 0 is_stmt 1
 316 00c0 0023     		movs	r3, #0
 317              	.L24:
  73:../../source/src/user/OS_LIB/insert_sort.c **** }
 318              		.loc 1 73 0
 319 00c2 1846     		mov	r0, r3
 320              	.LVL43:
 321 00c4 10BC     		pop	{r4}
 322              	.LCFI3:
 323              		.cfi_remember_state
 324              		.cfi_restore 4
 325              		.cfi_def_cfa_offset 0
 326 00c6 7047     		bx	lr
 327              	.LVL44:
 328              	.L30:
 329              	.LCFI4:
 330              		.cfi_restore_state
  67:../../source/src/user/OS_LIB/insert_sort.c ****       {
 331              		.loc 1 67 0
 332 00c8 1346     		mov	r3, r2
 333              	.LVL45:
 334 00ca FAE7     		b	.L24
 335              		.cfi_endproc
 336              	.LFE13:
ARM GAS  G:\Users\Jaxb\AppData\Local\Temp\ccwNPxjY.s 			page 10


 337              		.size	find_in_chain, .-find_in_chain
 338              		.align	1
 339              		.p2align 2,,3
 340              		.global	delete_from_chain
 341              		.syntax unified
 342              		.thumb
 343              		.thumb_func
 344              		.fpu softvfp
 345              		.type	delete_from_chain, %function
 346              	delete_from_chain:
 347              	.LFB14:
  74:../../source/src/user/OS_LIB/insert_sort.c **** 
  75:../../source/src/user/OS_LIB/insert_sort.c **** IL *delete_from_chain(struct list_head *head,COMPARE_TYPE prio)
  76:../../source/src/user/OS_LIB/insert_sort.c **** {
 348              		.loc 1 76 0
 349              		.cfi_startproc
 350              		@ args = 0, pretend = 0, frame = 0
 351              		@ frame_needed = 0, uses_anonymous_args = 0
 352              		@ link register save eliminated.
 353              	.LVL46:
 354 00cc 10B4     		push	{r4}
 355              	.LCFI5:
 356              		.cfi_def_cfa_offset 4
 357              		.cfi_offset 4, -4
  77:../../source/src/user/OS_LIB/insert_sort.c **** 	struct list_head *pos, *next;
  78:../../source/src/user/OS_LIB/insert_sort.c **** 	IL *IL_ptr;
  79:../../source/src/user/OS_LIB/insert_sort.c **** 	list_for_each_safe(pos, next, head)
 358              		.loc 1 79 0
 359 00ce 0468     		ldr	r4, [r0]
 360              	.LVL47:
 361 00d0 A042     		cmp	r0, r4
 362 00d2 2368     		ldr	r3, [r4]
 363              	.LVL48:
 364 00d4 0AD0     		beq	.L36
 365              	.LVL49:
  80:../../source/src/user/OS_LIB/insert_sort.c **** 	{
  81:../../source/src/user/OS_LIB/insert_sort.c ****       IL_ptr = list_entry(pos,IL,insert);
  82:../../source/src/user/OS_LIB/insert_sort.c ****       if(prio == IL_ptr->prio)
 366              		.loc 1 82 0
 367 00d6 A268     		ldr	r2, [r4, #8]
 368 00d8 9142     		cmp	r1, r2
 369 00da 04D1     		bne	.L34
 370 00dc 0AE0     		b	.L39
 371              	.LVL50:
 372              	.L35:
 373 00de 9C68     		ldr	r4, [r3, #8]
 374 00e0 8C42     		cmp	r4, r1
 375 00e2 09D0     		beq	.L33
  79:../../source/src/user/OS_LIB/insert_sort.c **** 	{
 376              		.loc 1 79 0
 377 00e4 1346     		mov	r3, r2
 378              	.LVL51:
 379              	.L34:
  79:../../source/src/user/OS_LIB/insert_sort.c **** 	{
 380              		.loc 1 79 0 is_stmt 0 discriminator 2
 381 00e6 9842     		cmp	r0, r3
 382 00e8 1A68     		ldr	r2, [r3]
ARM GAS  G:\Users\Jaxb\AppData\Local\Temp\ccwNPxjY.s 			page 11


 383              	.LVL52:
 384 00ea F8D1     		bne	.L35
 385              	.LVL53:
 386              	.L36:
  83:../../source/src/user/OS_LIB/insert_sort.c ****       {
  84:../../source/src/user/OS_LIB/insert_sort.c ****       	list_del(pos);
  85:../../source/src/user/OS_LIB/insert_sort.c ****       	return IL_ptr;
  86:../../source/src/user/OS_LIB/insert_sort.c ****       }
  87:../../source/src/user/OS_LIB/insert_sort.c **** 	}
  88:../../source/src/user/OS_LIB/insert_sort.c **** 	return NULL;
 387              		.loc 1 88 0 is_stmt 1
 388 00ec 0023     		movs	r3, #0
  89:../../source/src/user/OS_LIB/insert_sort.c **** }
 389              		.loc 1 89 0
 390 00ee 10BC     		pop	{r4}
 391              	.LCFI6:
 392              		.cfi_remember_state
 393              		.cfi_restore 4
 394              		.cfi_def_cfa_offset 0
 395 00f0 1846     		mov	r0, r3
 396              	.LVL54:
 397 00f2 7047     		bx	lr
 398              	.LVL55:
 399              	.L39:
 400              	.LCFI7:
 401              		.cfi_restore_state
  82:../../source/src/user/OS_LIB/insert_sort.c ****       {
 402              		.loc 1 82 0
 403 00f4 1A46     		mov	r2, r3
 404 00f6 2346     		mov	r3, r4
 405              	.LVL56:
 406              	.L33:
 407              	.LBB50:
 408              	.LBB51:
  55:../../source/include/os_lib/double_linked_list.h **** }
 409              		.loc 2 55 0
 410 00f8 5968     		ldr	r1, [r3, #4]
 411              	.LVL57:
 412              	.LBE51:
 413              	.LBE50:
 414              		.loc 1 89 0
 415 00fa 1846     		mov	r0, r3
 416              	.LVL58:
 417              	.LBB58:
 418              	.LBB56:
 419              	.LBB52:
 420              	.LBB53:
  48:../../source/include/os_lib/double_linked_list.h ****     prev->next = next;
 421              		.loc 2 48 0
 422 00fc 5160     		str	r1, [r2, #4]
 423              	.LBE53:
 424              	.LBE52:
 425              	.LBE56:
 426              	.LBE58:
 427              		.loc 1 89 0
 428 00fe 10BC     		pop	{r4}
 429              	.LCFI8:
ARM GAS  G:\Users\Jaxb\AppData\Local\Temp\ccwNPxjY.s 			page 12


 430              		.cfi_restore 4
 431              		.cfi_def_cfa_offset 0
 432              	.LBB59:
 433              	.LBB57:
 434              	.LBB55:
 435              	.LBB54:
  49:../../source/include/os_lib/double_linked_list.h **** }
 436              		.loc 2 49 0
 437 0100 0A60     		str	r2, [r1]
 438              	.LVL59:
 439              	.LBE54:
 440              	.LBE55:
 441              	.LBE57:
 442              	.LBE59:
 443              		.loc 1 89 0
 444 0102 7047     		bx	lr
 445              		.cfi_endproc
 446              	.LFE14:
 447              		.size	delete_from_chain, .-delete_from_chain
 448              		.align	1
 449              		.p2align 2,,3
 450              		.global	delete_first_in_chain
 451              		.syntax unified
 452              		.thumb
 453              		.thumb_func
 454              		.fpu softvfp
 455              		.type	delete_first_in_chain, %function
 456              	delete_first_in_chain:
 457              	.LFB15:
  90:../../source/src/user/OS_LIB/insert_sort.c **** 
  91:../../source/src/user/OS_LIB/insert_sort.c **** IL *delete_first_in_chain(struct list_head *head)
  92:../../source/src/user/OS_LIB/insert_sort.c **** {
 458              		.loc 1 92 0
 459              		.cfi_startproc
 460              		@ args = 0, pretend = 0, frame = 0
 461              		@ frame_needed = 0, uses_anonymous_args = 0
 462              		@ link register save eliminated.
 463              	.LVL60:
  93:../../source/src/user/OS_LIB/insert_sort.c **** 	struct list_head *pos;
  94:../../source/src/user/OS_LIB/insert_sort.c **** 	IL *IL_ptr;
  95:../../source/src/user/OS_LIB/insert_sort.c **** 	//ASSERT(!list_empty(head));
  96:../../source/src/user/OS_LIB/insert_sort.c **** 	pos = head->next;
 464              		.loc 1 96 0
 465 0104 0368     		ldr	r3, [r0]
 466              	.LVL61:
  97:../../source/src/user/OS_LIB/insert_sort.c **** 	if(pos == head)
 467              		.loc 1 97 0
 468 0106 9842     		cmp	r0, r3
 469              	.LVL62:
  98:../../source/src/user/OS_LIB/insert_sort.c **** 	{
  99:../../source/src/user/OS_LIB/insert_sort.c **** 		return NULL;
 470              		.loc 1 99 0
 471 0108 0CBF     		ite	eq
 472 010a 0023     		moveq	r3, #0
 473              	.LVL63:
 474              	.LBB60:
 475              	.LBB61:
ARM GAS  G:\Users\Jaxb\AppData\Local\Temp\ccwNPxjY.s 			page 13


  55:../../source/include/os_lib/double_linked_list.h **** }
 476              		.loc 2 55 0
 477 010c D3E90012 		ldrdne	r1, r2, [r3]
 478              	.LVL64:
 479              	.LBE61:
 480              	.LBE60:
 100:../../source/src/user/OS_LIB/insert_sort.c **** 	}
 101:../../source/src/user/OS_LIB/insert_sort.c **** 		
 102:../../source/src/user/OS_LIB/insert_sort.c **** 	IL_ptr = list_entry(pos,IL,insert);
 103:../../source/src/user/OS_LIB/insert_sort.c **** 	list_del(pos);
 104:../../source/src/user/OS_LIB/insert_sort.c **** 	return IL_ptr;
 105:../../source/src/user/OS_LIB/insert_sort.c **** }
 481              		.loc 1 105 0
 482 0110 1846     		mov	r0, r3
 483              	.LVL65:
 484              	.LBB65:
 485              	.LBB64:
 486              	.LBB62:
 487              	.LBB63:
  48:../../source/include/os_lib/double_linked_list.h ****     prev->next = next;
 488              		.loc 2 48 0
 489 0112 1CBF     		itt	ne
 490 0114 4A60     		strne	r2, [r1, #4]
  49:../../source/include/os_lib/double_linked_list.h **** }
 491              		.loc 2 49 0
 492 0116 1160     		strne	r1, [r2]
 493              	.LVL66:
 494              	.LBE63:
 495              	.LBE62:
 496              	.LBE64:
 497              	.LBE65:
 498              		.loc 1 105 0
 499 0118 7047     		bx	lr
 500              		.cfi_endproc
 501              	.LFE15:
 502              		.size	delete_first_in_chain, .-delete_first_in_chain
 503              		.align	1
 504 011a 00BF     		.p2align 2,,3
 505              		.global	find_first_bigger_IL
 506              		.syntax unified
 507              		.thumb
 508              		.thumb_func
 509              		.fpu softvfp
 510              		.type	find_first_bigger_IL, %function
 511              	find_first_bigger_IL:
 512              	.LFB16:
 106:../../source/src/user/OS_LIB/insert_sort.c **** 
 107:../../source/src/user/OS_LIB/insert_sort.c **** IL *find_first_bigger_IL(struct list_head *head,unsigned int prio)// polymorphic
 108:../../source/src/user/OS_LIB/insert_sort.c **** {
 513              		.loc 1 108 0
 514              		.cfi_startproc
 515              		@ args = 0, pretend = 0, frame = 0
 516              		@ frame_needed = 0, uses_anonymous_args = 0
 517              		@ link register save eliminated.
 518              	.LVL67:
 109:../../source/src/user/OS_LIB/insert_sort.c **** 	struct list_head *pos, *next;
 110:../../source/src/user/OS_LIB/insert_sort.c **** 	IL *IL_ptr;
ARM GAS  G:\Users\Jaxb\AppData\Local\Temp\ccwNPxjY.s 			page 14


 111:../../source/src/user/OS_LIB/insert_sort.c **** 	list_for_each_safe(pos, next, head)
 519              		.loc 1 111 0
 520 011c 0268     		ldr	r2, [r0]
 521              	.LVL68:
 108:../../source/src/user/OS_LIB/insert_sort.c **** 	struct list_head *pos, *next;
 522              		.loc 1 108 0
 523 011e 10B4     		push	{r4}
 524              	.LCFI9:
 525              		.cfi_def_cfa_offset 4
 526              		.cfi_offset 4, -4
 527              		.loc 1 111 0
 528 0120 9042     		cmp	r0, r2
 529 0122 1368     		ldr	r3, [r2]
 530              	.LVL69:
 531 0124 0AD0     		beq	.L47
 532              	.LVL70:
 112:../../source/src/user/OS_LIB/insert_sort.c **** 	{
 113:../../source/src/user/OS_LIB/insert_sort.c ****       IL_ptr = list_entry(pos,IL,insert);
 114:../../source/src/user/OS_LIB/insert_sort.c ****       if(prio <= IL_ptr->prio)
 533              		.loc 1 114 0
 534 0126 9468     		ldr	r4, [r2, #8]
 535 0128 A142     		cmp	r1, r4
 536 012a 04D8     		bhi	.L45
 537 012c 0AE0     		b	.L49
 538              	.LVL71:
 539              	.L46:
 540 012e 9C68     		ldr	r4, [r3, #8]
 541 0130 8C42     		cmp	r4, r1
 542 0132 04D2     		bcs	.L43
 111:../../source/src/user/OS_LIB/insert_sort.c **** 	{
 543              		.loc 1 111 0
 544 0134 1346     		mov	r3, r2
 545              	.LVL72:
 546              	.L45:
 111:../../source/src/user/OS_LIB/insert_sort.c **** 	{
 547              		.loc 1 111 0 is_stmt 0 discriminator 2
 548 0136 9842     		cmp	r0, r3
 549 0138 1A68     		ldr	r2, [r3]
 550              	.LVL73:
 551 013a F8D1     		bne	.L46
 552              	.LVL74:
 553              	.L47:
 115:../../source/src/user/OS_LIB/insert_sort.c ****       {
 116:../../source/src/user/OS_LIB/insert_sort.c ****       	return IL_ptr;
 117:../../source/src/user/OS_LIB/insert_sort.c ****       }
 118:../../source/src/user/OS_LIB/insert_sort.c **** 	}
 119:../../source/src/user/OS_LIB/insert_sort.c **** 	return NULL;
 554              		.loc 1 119 0 is_stmt 1
 555 013c 0023     		movs	r3, #0
 556              	.L43:
 120:../../source/src/user/OS_LIB/insert_sort.c **** }
 557              		.loc 1 120 0
 558 013e 1846     		mov	r0, r3
 559              	.LVL75:
 560 0140 10BC     		pop	{r4}
 561              	.LCFI10:
 562              		.cfi_remember_state
ARM GAS  G:\Users\Jaxb\AppData\Local\Temp\ccwNPxjY.s 			page 15


 563              		.cfi_restore 4
 564              		.cfi_def_cfa_offset 0
 565 0142 7047     		bx	lr
 566              	.LVL76:
 567              	.L49:
 568              	.LCFI11:
 569              		.cfi_restore_state
 114:../../source/src/user/OS_LIB/insert_sort.c ****       {
 570              		.loc 1 114 0
 571 0144 1346     		mov	r3, r2
 572              	.LVL77:
 573 0146 FAE7     		b	.L43
 574              		.cfi_endproc
 575              	.LFE16:
 576              		.size	find_first_bigger_IL, .-find_first_bigger_IL
 577              		.section	.rodata.str1.4,"aMS",%progbits,1
 578              		.align	2
 579              	.LC0:
 580 0000 2E2E2F2E 		.ascii	"../../source/src/user/OS_LIB/insert_sort.c\000"
 580      2E2F736F 
 580      75726365 
 580      2F737263 
 580      2F757365 
 581              		.text
 582              	.Letext0:
 583              		.file 3 "../../source/include/os_cpu/kakaosstdint.h"
 584              		.file 4 "../../source/include/os_lib/insert_sort.h"
 585              		.file 5 "../../source/include/os_lib/myassert.h"