ARM GAS  G:\Users\Jaxb\AppData\Local\Temp\cc22GpwV.s 			page 1


   1              		.cpu cortex-m3
   2              		.eabi_attribute 20, 1
   3              		.eabi_attribute 21, 1
   4              		.eabi_attribute 23, 3
   5              		.eabi_attribute 24, 1
   6              		.eabi_attribute 25, 1
   7              		.eabi_attribute 26, 1
   8              		.eabi_attribute 30, 2
   9              		.eabi_attribute 34, 1
  10              		.eabi_attribute 18, 4
  11              		.file	"insert_sort_oo.c"
  12              		.text
  13              	.Ltext0:
  14              		.cfi_sections	.debug_frame
  15              		.align	1
  16              		.p2align 2,,3
  17              		.global	insert_sort_insert_into
  18              		.syntax unified
  19              		.thumb
  20              		.thumb_func
  21              		.fpu softvfp
  22              		.type	insert_sort_insert_into, %function
  23              	insert_sort_insert_into:
  24              	.LFB10:
  25              		.file 1 "../../source/src/kernel/OS_LIB/insert_sort_oo.c"
   1:../../source/src/kernel/OS_LIB/insert_sort_oo.c **** #include <insert_sort_oo.h>
   2:../../source/src/kernel/OS_LIB/insert_sort_oo.c **** #include <myassert.h>
   3:../../source/src/kernel/OS_LIB/insert_sort_oo.c **** #include <ka_configuration.h>
   4:../../source/src/kernel/OS_LIB/insert_sort_oo.c **** #include <os_error.h>
   5:../../source/src/kernel/OS_LIB/insert_sort_oo.c **** 
   6:../../source/src/kernel/OS_LIB/insert_sort_oo.c **** //public function for insert sort
   7:../../source/src/kernel/OS_LIB/insert_sort_oo.c **** int insert_sort_insert_into(struct insert_sort_data *data_ptr,struct insert_sort_entity *insert_sor
   8:../../source/src/kernel/OS_LIB/insert_sort_oo.c **** {
  26              		.loc 1 8 0
  27              		.cfi_startproc
  28              		@ args = 0, pretend = 0, frame = 0
  29              		@ frame_needed = 0, uses_anonymous_args = 0
  30              	.LVL0:
  31 0000 F8B5     		push	{r3, r4, r5, r6, r7, lr}
  32              	.LCFI0:
  33              		.cfi_def_cfa_offset 24
  34              		.cfi_offset 3, -24
  35              		.cfi_offset 4, -20
  36              		.cfi_offset 5, -16
  37              		.cfi_offset 6, -12
  38              		.cfi_offset 7, -8
  39              		.cfi_offset 14, -4
  40              		.loc 1 8 0
  41 0002 0D46     		mov	r5, r1
   9:../../source/src/kernel/OS_LIB/insert_sort_oo.c **** 	ASSERT(NULL != data_ptr);
  42              		.loc 1 9 0
  43 0004 0646     		mov	r6, r0
  44 0006 0028     		cmp	r0, #0
  45 0008 34D0     		beq	.L14
  10:../../source/src/kernel/OS_LIB/insert_sort_oo.c **** 	ASSERT(NULL != insert_sort_entity_ptr);
  46              		.loc 1 10 0
  47 000a 0029     		cmp	r1, #0
ARM GAS  G:\Users\Jaxb\AppData\Local\Temp\cc22GpwV.s 			page 2


  48 000c 37D0     		beq	.L11
  11:../../source/src/kernel/OS_LIB/insert_sort_oo.c **** #if CONFIG_PARA_CHECK
  12:../../source/src/kernel/OS_LIB/insert_sort_oo.c **** 	if((NULL == data_ptr) || (NULL == insert_sort_entity_ptr))
  13:../../source/src/kernel/OS_LIB/insert_sort_oo.c **** 	{
  14:../../source/src/kernel/OS_LIB/insert_sort_oo.c **** 		OS_ERROR_PARA_MESSAGE_DISPLAY(insert_sort_insert_into,data_ptr);
  15:../../source/src/kernel/OS_LIB/insert_sort_oo.c **** 		OS_ERROR_PARA_MESSAGE_DISPLAY(insert_sort_insert_into,insert_sort_entity_ptr);
  16:../../source/src/kernel/OS_LIB/insert_sort_oo.c **** 		return -ERROR_NULL_INPUT_PTR;
  17:../../source/src/kernel/OS_LIB/insert_sort_oo.c **** 	}
  18:../../source/src/kernel/OS_LIB/insert_sort_oo.c **** #endif
  19:../../source/src/kernel/OS_LIB/insert_sort_oo.c **** 	struct insert_sort_data *buffer;
  20:../../source/src/kernel/OS_LIB/insert_sort_oo.c **** 	struct list_head *pos;
  21:../../source/src/kernel/OS_LIB/insert_sort_oo.c **** 	// find a suitable position to insert it
  22:../../source/src/kernel/OS_LIB/insert_sort_oo.c **** 	list_for_each(pos,&insert_sort_entity_ptr->data_list_head)
  49              		.loc 1 22 0
  50 000e 2C68     		ldr	r4, [r5]
  51              	.LVL1:
  52 0010 AC42     		cmp	r4, r5
  53 0012 03D1     		bne	.L8
  54 0014 16E0     		b	.L5
  55              	.LVL2:
  56              	.L6:
  57              		.loc 1 22 0 is_stmt 0 discriminator 2
  58 0016 2468     		ldr	r4, [r4]
  59              	.LVL3:
  60 0018 AC42     		cmp	r4, r5
  61 001a 13D0     		beq	.L5
  62              	.L8:
  63              	.LVL4:
  23:../../source/src/kernel/OS_LIB/insert_sort_oo.c **** 	{
  24:../../source/src/kernel/OS_LIB/insert_sort_oo.c **** 		buffer = list_entry(pos,struct insert_sort_data,data_list);
  25:../../source/src/kernel/OS_LIB/insert_sort_oo.c **** 		if(insert_sort_entity_ptr->compare(buffer,data_ptr) > 0) // data_ptr<=buffer
  64              		.loc 1 25 0 is_stmt 1
  65 001c EB68     		ldr	r3, [r5, #12]
  66 001e 3146     		mov	r1, r6
  67 0020 A4F11000 		sub	r0, r4, #16
  68              	.LVL5:
  69 0024 9847     		blx	r3
  70              	.LVL6:
  71 0026 0028     		cmp	r0, #0
  72 0028 F5DD     		ble	.L6
  26:../../source/src/kernel/OS_LIB/insert_sort_oo.c **** 		{
  27:../../source/src/kernel/OS_LIB/insert_sort_oo.c **** 			//insert it here
  28:../../source/src/kernel/OS_LIB/insert_sort_oo.c **** 			list_add_tail(&data_ptr->data_list,pos);
  29:../../source/src/kernel/OS_LIB/insert_sort_oo.c **** 			++(insert_sort_entity_ptr->data_num);
  73              		.loc 1 29 0
  74 002a A868     		ldr	r0, [r5, #8]
  75              	.LBB39:
  76              	.LBB40:
  77              		.file 2 "../../source/include/os_lib/double_linked_list.h"
   1:../../source/include/os_lib/double_linked_list.h **** #ifndef _DOUBLE_LINKED_LIST_H
   2:../../source/include/os_lib/double_linked_list.h **** #define _DOUBLE_LINKED_LIST_H
   3:../../source/include/os_lib/double_linked_list.h **** 
   4:../../source/include/os_lib/double_linked_list.h **** struct list_head {
   5:../../source/include/os_lib/double_linked_list.h ****     struct list_head *next, *prev;
   6:../../source/include/os_lib/double_linked_list.h **** };
   7:../../source/include/os_lib/double_linked_list.h **** 
   8:../../source/include/os_lib/double_linked_list.h **** 
ARM GAS  G:\Users\Jaxb\AppData\Local\Temp\cc22GpwV.s 			page 3


   9:../../source/include/os_lib/double_linked_list.h **** #define LIST_HEAD_INIT(name) { &(name), &(name) }
  10:../../source/include/os_lib/double_linked_list.h **** 
  11:../../source/include/os_lib/double_linked_list.h **** 
  12:../../source/include/os_lib/double_linked_list.h **** #define LIST_HEAD(name) \
  13:../../source/include/os_lib/double_linked_list.h ****     struct list_head name = LIST_HEAD_INIT(name)
  14:../../source/include/os_lib/double_linked_list.h **** 
  15:../../source/include/os_lib/double_linked_list.h **** 
  16:../../source/include/os_lib/double_linked_list.h **** static inline void INIT_LIST_HEAD(struct list_head *list)
  17:../../source/include/os_lib/double_linked_list.h **** {
  18:../../source/include/os_lib/double_linked_list.h ****     list->next = list;
  19:../../source/include/os_lib/double_linked_list.h ****     list->prev = list;
  20:../../source/include/os_lib/double_linked_list.h **** }
  21:../../source/include/os_lib/double_linked_list.h **** 
  22:../../source/include/os_lib/double_linked_list.h **** 
  23:../../source/include/os_lib/double_linked_list.h **** static inline void __list_add(struct list_head *new,
  24:../../source/include/os_lib/double_linked_list.h ****                   struct list_head *prev,
  25:../../source/include/os_lib/double_linked_list.h ****                   struct list_head *next)
  26:../../source/include/os_lib/double_linked_list.h **** {
  27:../../source/include/os_lib/double_linked_list.h ****     next->prev = new;
  28:../../source/include/os_lib/double_linked_list.h ****     new->next = next;
  29:../../source/include/os_lib/double_linked_list.h ****     new->prev = prev;
  30:../../source/include/os_lib/double_linked_list.h ****     prev->next = new;
  31:../../source/include/os_lib/double_linked_list.h **** }
  32:../../source/include/os_lib/double_linked_list.h **** 
  33:../../source/include/os_lib/double_linked_list.h **** 
  34:../../source/include/os_lib/double_linked_list.h **** static inline void list_add(struct list_head *new, struct list_head *head)
  35:../../source/include/os_lib/double_linked_list.h **** {
  36:../../source/include/os_lib/double_linked_list.h ****     __list_add(new, head, head->next);
  37:../../source/include/os_lib/double_linked_list.h **** }
  38:../../source/include/os_lib/double_linked_list.h **** 
  39:../../source/include/os_lib/double_linked_list.h **** 
  40:../../source/include/os_lib/double_linked_list.h **** static inline void list_add_tail(struct list_head *new, struct list_head *head)
  41:../../source/include/os_lib/double_linked_list.h **** {
  42:../../source/include/os_lib/double_linked_list.h ****     __list_add(new, head->prev, head);
  78              		.loc 2 42 0
  79 002c 6368     		ldr	r3, [r4, #4]
  80              	.LBE40:
  81              	.LBE39:
  28:../../source/src/kernel/OS_LIB/insert_sort_oo.c **** 			++(insert_sort_entity_ptr->data_num);
  82              		.loc 1 28 0
  83 002e 06F11002 		add	r2, r6, #16
  84              	.LVL7:
  85              		.loc 1 29 0
  86 0032 471C     		adds	r7, r0, #1
  87              	.LBB44:
  88              	.LBB43:
  89              	.LBB41:
  90              	.LBB42:
  27:../../source/include/os_lib/double_linked_list.h ****     new->next = next;
  91              		.loc 2 27 0
  92 0034 6260     		str	r2, [r4, #4]
  28:../../source/include/os_lib/double_linked_list.h ****     new->prev = prev;
  93              		.loc 2 28 0
  94 0036 C6E90443 		strd	r4, r3, [r6, #16]
  30:../../source/include/os_lib/double_linked_list.h **** }
  95              		.loc 2 30 0
  96 003a 1A60     		str	r2, [r3]
ARM GAS  G:\Users\Jaxb\AppData\Local\Temp\cc22GpwV.s 			page 4


  97              	.LVL8:
  98              	.LBE42:
  99              	.LBE41:
 100              	.LBE43:
 101              	.LBE44:
 102              		.loc 1 29 0
 103 003c AF60     		str	r7, [r5, #8]
  30:../../source/src/kernel/OS_LIB/insert_sort_oo.c **** 			ASSERT(insert_sort_entity_ptr->data_num > 0);
 104              		.loc 1 30 0
 105 003e 9FB1     		cbz	r7, .L7
 106              	.LVL9:
 107              	.L9:
  31:../../source/src/kernel/OS_LIB/insert_sort_oo.c **** 			return FUN_EXECUTE_SUCCESSFULLY;
 108              		.loc 1 31 0
 109 0040 0020     		movs	r0, #0
  32:../../source/src/kernel/OS_LIB/insert_sort_oo.c **** 		}
  33:../../source/src/kernel/OS_LIB/insert_sort_oo.c **** 	}
  34:../../source/src/kernel/OS_LIB/insert_sort_oo.c **** 	//insert it at the end
  35:../../source/src/kernel/OS_LIB/insert_sort_oo.c **** 	list_add_tail(&data_ptr->data_list,pos);
  36:../../source/src/kernel/OS_LIB/insert_sort_oo.c **** 	++(insert_sort_entity_ptr->data_num);
  37:../../source/src/kernel/OS_LIB/insert_sort_oo.c **** 	ASSERT(insert_sort_entity_ptr->data_num > 0);
  38:../../source/src/kernel/OS_LIB/insert_sort_oo.c **** 	return FUN_EXECUTE_SUCCESSFULLY;
  39:../../source/src/kernel/OS_LIB/insert_sort_oo.c **** }
 110              		.loc 1 39 0
 111 0042 F8BD     		pop	{r3, r4, r5, r6, r7, pc}
 112              	.LVL10:
 113              	.L5:
 114              	.LBB45:
 115              	.LBB46:
 116              		.loc 2 42 0
 117 0044 D5E90130 		ldrd	r3, r0, [r5, #4]
 118              	.LBE46:
 119              	.LBE45:
  35:../../source/src/kernel/OS_LIB/insert_sort_oo.c **** 	++(insert_sort_entity_ptr->data_num);
 120              		.loc 1 35 0
 121 0048 06F11002 		add	r2, r6, #16
 122              	.LVL11:
  36:../../source/src/kernel/OS_LIB/insert_sort_oo.c **** 	ASSERT(insert_sort_entity_ptr->data_num > 0);
 123              		.loc 1 36 0
 124 004c 441C     		adds	r4, r0, #1
 125              	.LVL12:
 126              	.LBB50:
 127              	.LBB49:
 128              	.LBB47:
 129              	.LBB48:
  27:../../source/include/os_lib/double_linked_list.h ****     new->next = next;
 130              		.loc 2 27 0
 131 004e 6A60     		str	r2, [r5, #4]
  28:../../source/include/os_lib/double_linked_list.h ****     new->prev = prev;
 132              		.loc 2 28 0
 133 0050 C6E90453 		strd	r5, r3, [r6, #16]
  30:../../source/include/os_lib/double_linked_list.h **** }
 134              		.loc 2 30 0
 135 0054 1A60     		str	r2, [r3]
 136              	.LVL13:
 137              	.LBE48:
 138              	.LBE47:
ARM GAS  G:\Users\Jaxb\AppData\Local\Temp\cc22GpwV.s 			page 5


 139              	.LBE49:
 140              	.LBE50:
  36:../../source/src/kernel/OS_LIB/insert_sort_oo.c **** 	ASSERT(insert_sort_entity_ptr->data_num > 0);
 141              		.loc 1 36 0
 142 0056 AC60     		str	r4, [r5, #8]
  37:../../source/src/kernel/OS_LIB/insert_sort_oo.c **** 	return FUN_EXECUTE_SUCCESSFULLY;
 143              		.loc 1 37 0
 144 0058 002C     		cmp	r4, #0
 145 005a F1D1     		bne	.L9
  37:../../source/src/kernel/OS_LIB/insert_sort_oo.c **** 	return FUN_EXECUTE_SUCCESSFULLY;
 146              		.loc 1 37 0 is_stmt 0 discriminator 1
 147 005c 2521     		movs	r1, #37
 148 005e 0E48     		ldr	r0, .L15
 149 0060 FFF7FEFF 		bl	_ASSERT
 150              	.LVL14:
  38:../../source/src/kernel/OS_LIB/insert_sort_oo.c **** }
 151              		.loc 1 38 0 is_stmt 1 discriminator 1
 152 0064 2046     		mov	r0, r4
 153              		.loc 1 39 0 discriminator 1
 154 0066 F8BD     		pop	{r3, r4, r5, r6, r7, pc}
 155              	.LVL15:
 156              	.L7:
  30:../../source/src/kernel/OS_LIB/insert_sort_oo.c **** 			return FUN_EXECUTE_SUCCESSFULLY;
 157              		.loc 1 30 0 discriminator 1
 158 0068 1E21     		movs	r1, #30
 159 006a 0B48     		ldr	r0, .L15
 160 006c FFF7FEFF 		bl	_ASSERT
 161              	.LVL16:
  31:../../source/src/kernel/OS_LIB/insert_sort_oo.c **** 		}
 162              		.loc 1 31 0 discriminator 1
 163 0070 3846     		mov	r0, r7
 164              		.loc 1 39 0 discriminator 1
 165 0072 F8BD     		pop	{r3, r4, r5, r6, r7, pc}
 166              	.LVL17:
 167              	.L14:
   9:../../source/src/kernel/OS_LIB/insert_sort_oo.c **** 	ASSERT(NULL != insert_sort_entity_ptr);
 168              		.loc 1 9 0 discriminator 1
 169 0074 0921     		movs	r1, #9
 170              	.LVL18:
 171 0076 0848     		ldr	r0, .L15
 172              	.LVL19:
 173 0078 FFF7FEFF 		bl	_ASSERT
 174              	.LVL20:
  10:../../source/src/kernel/OS_LIB/insert_sort_oo.c **** #if CONFIG_PARA_CHECK
 175              		.loc 1 10 0 discriminator 1
 176 007c 1DB9     		cbnz	r5, .L3
 177              	.L11:
  10:../../source/src/kernel/OS_LIB/insert_sort_oo.c **** #if CONFIG_PARA_CHECK
 178              		.loc 1 10 0 is_stmt 0
 179 007e 0A21     		movs	r1, #10
 180 0080 0548     		ldr	r0, .L15
 181 0082 FFF7FEFF 		bl	_ASSERT
 182              	.LVL21:
 183              	.L3:
  14:../../source/src/kernel/OS_LIB/insert_sort_oo.c **** 		OS_ERROR_PARA_MESSAGE_DISPLAY(insert_sort_insert_into,insert_sort_entity_ptr);
 184              		.loc 1 14 0 is_stmt 1
 185 0086 0548     		ldr	r0, .L15+4
ARM GAS  G:\Users\Jaxb\AppData\Local\Temp\cc22GpwV.s 			page 6


 186 0088 FFF7FEFF 		bl	ka_printf
 187              	.LVL22:
  15:../../source/src/kernel/OS_LIB/insert_sort_oo.c **** 		return -ERROR_NULL_INPUT_PTR;
 188              		.loc 1 15 0
 189 008c 0448     		ldr	r0, .L15+8
 190 008e FFF7FEFF 		bl	ka_printf
 191              	.LVL23:
  16:../../source/src/kernel/OS_LIB/insert_sort_oo.c **** 	}
 192              		.loc 1 16 0
 193 0092 6FF0FE00 		mvn	r0, #254
 194              		.loc 1 39 0
 195 0096 F8BD     		pop	{r3, r4, r5, r6, r7, pc}
 196              	.LVL24:
 197              	.L16:
 198              		.align	2
 199              	.L15:
 200 0098 00000000 		.word	.LC0
 201 009c 30000000 		.word	.LC1
 202 00a0 70000000 		.word	.LC2
 203              		.cfi_endproc
 204              	.LFE10:
 205              		.size	insert_sort_insert_into, .-insert_sort_insert_into
 206              		.align	1
 207              		.p2align 2,,3
 208              		.global	insert_sort_find_data
 209              		.syntax unified
 210              		.thumb
 211              		.thumb_func
 212              		.fpu softvfp
 213              		.type	insert_sort_find_data, %function
 214              	insert_sort_find_data:
 215              	.LFB11:
  40:../../source/src/kernel/OS_LIB/insert_sort_oo.c **** 
  41:../../source/src/kernel/OS_LIB/insert_sort_oo.c **** //if (*data_ptr) is found(no need to match id),return it's struct insert_sort_data's ptr
  42:../../source/src/kernel/OS_LIB/insert_sort_oo.c **** //else , return NULL
  43:../../source/src/kernel/OS_LIB/insert_sort_oo.c **** struct insert_sort_data * insert_sort_find_data(struct insert_sort_entity *insert_sort_entity_ptr,v
  44:../../source/src/kernel/OS_LIB/insert_sort_oo.c **** {
 216              		.loc 1 44 0
 217              		.cfi_startproc
 218              		@ args = 0, pretend = 0, frame = 0
 219              		@ frame_needed = 0, uses_anonymous_args = 0
 220              	.LVL25:
 221 00a4 70B5     		push	{r4, r5, r6, lr}
 222              	.LCFI1:
 223              		.cfi_def_cfa_offset 16
 224              		.cfi_offset 4, -16
 225              		.cfi_offset 5, -12
 226              		.cfi_offset 6, -8
 227              		.cfi_offset 14, -4
 228              		.loc 1 44 0
 229 00a6 0546     		mov	r5, r0
  45:../../source/src/kernel/OS_LIB/insert_sort_oo.c **** 	ASSERT(NULL != data_ptr);
 230              		.loc 1 45 0
 231 00a8 0E46     		mov	r6, r1
 232 00aa 99B1     		cbz	r1, .L27
  46:../../source/src/kernel/OS_LIB/insert_sort_oo.c **** 	ASSERT(NULL != insert_sort_entity_ptr);
 233              		.loc 1 46 0
ARM GAS  G:\Users\Jaxb\AppData\Local\Temp\cc22GpwV.s 			page 7


 234 00ac B8B1     		cbz	r0, .L25
  47:../../source/src/kernel/OS_LIB/insert_sort_oo.c **** #if CONFIG_PARA_CHECK
  48:../../source/src/kernel/OS_LIB/insert_sort_oo.c **** 	if((NULL == data_ptr) || (NULL == insert_sort_entity_ptr))
  49:../../source/src/kernel/OS_LIB/insert_sort_oo.c **** 	{
  50:../../source/src/kernel/OS_LIB/insert_sort_oo.c **** 		OS_ERROR_PARA_MESSAGE_DISPLAY(insert_sort_find_data,data_ptr);
  51:../../source/src/kernel/OS_LIB/insert_sort_oo.c **** 		OS_ERROR_PARA_MESSAGE_DISPLAY(insert_sort_find_data,insert_sort_entity_ptr);
  52:../../source/src/kernel/OS_LIB/insert_sort_oo.c **** 		return NULL;
  53:../../source/src/kernel/OS_LIB/insert_sort_oo.c **** 	}
  54:../../source/src/kernel/OS_LIB/insert_sort_oo.c **** #endif
  55:../../source/src/kernel/OS_LIB/insert_sort_oo.c **** 	struct list_head *pos;
  56:../../source/src/kernel/OS_LIB/insert_sort_oo.c **** 	struct insert_sort_data *buffer;
  57:../../source/src/kernel/OS_LIB/insert_sort_oo.c **** 	//find from start to the end
  58:../../source/src/kernel/OS_LIB/insert_sort_oo.c **** 	list_for_each(pos,&insert_sort_entity_ptr->data_list_head)
 235              		.loc 1 58 0
 236 00ae 2C68     		ldr	r4, [r5]
 237              	.LVL26:
 238 00b0 A542     		cmp	r5, r4
 239 00b2 03D1     		bne	.L23
 240 00b4 0CE0     		b	.L21
 241              	.LVL27:
 242              	.L22:
 243              		.loc 1 58 0 is_stmt 0 discriminator 2
 244 00b6 2468     		ldr	r4, [r4]
 245              	.LVL28:
 246 00b8 A542     		cmp	r5, r4
 247 00ba 09D0     		beq	.L21
 248              	.L23:
 249              	.LVL29:
  59:../../source/src/kernel/OS_LIB/insert_sort_oo.c **** 	{
  60:../../source/src/kernel/OS_LIB/insert_sort_oo.c **** 		buffer = list_entry(pos,struct insert_sort_data,data_list);
  61:../../source/src/kernel/OS_LIB/insert_sort_oo.c **** 		if(0 == insert_sort_entity_ptr->value_cmp(buffer->data_ptr,data_ptr))
 250              		.loc 1 61 0 is_stmt 1
 251 00bc 6B69     		ldr	r3, [r5, #20]
 252 00be 3146     		mov	r1, r6
 253 00c0 54F8100C 		ldr	r0, [r4, #-16]
 254 00c4 9847     		blx	r3
 255              	.LVL30:
 256 00c6 0028     		cmp	r0, #0
 257 00c8 F5D1     		bne	.L22
 258              	.LBB55:
  60:../../source/src/kernel/OS_LIB/insert_sort_oo.c **** 		if(0 == insert_sort_entity_ptr->value_cmp(buffer->data_ptr,data_ptr))
 259              		.loc 1 60 0
 260 00ca A4F11000 		sub	r0, r4, #16
 261              	.LVL31:
 262              	.LBE55:
  62:../../source/src/kernel/OS_LIB/insert_sort_oo.c **** 		{
  63:../../source/src/kernel/OS_LIB/insert_sort_oo.c **** 			return buffer;
  64:../../source/src/kernel/OS_LIB/insert_sort_oo.c **** 		}
  65:../../source/src/kernel/OS_LIB/insert_sort_oo.c **** 	}
  66:../../source/src/kernel/OS_LIB/insert_sort_oo.c **** 	return NULL;
  67:../../source/src/kernel/OS_LIB/insert_sort_oo.c **** }
 263              		.loc 1 67 0
 264 00ce 70BD     		pop	{r4, r5, r6, pc}
 265              	.LVL32:
 266              	.L21:
  66:../../source/src/kernel/OS_LIB/insert_sort_oo.c **** }
 267              		.loc 1 66 0
ARM GAS  G:\Users\Jaxb\AppData\Local\Temp\cc22GpwV.s 			page 8


 268 00d0 0020     		movs	r0, #0
 269              		.loc 1 67 0
 270 00d2 70BD     		pop	{r4, r5, r6, pc}
 271              	.LVL33:
 272              	.L27:
  45:../../source/src/kernel/OS_LIB/insert_sort_oo.c **** 	ASSERT(NULL != insert_sort_entity_ptr);
 273              		.loc 1 45 0 discriminator 1
 274 00d4 2D21     		movs	r1, #45
 275              	.LVL34:
 276 00d6 0848     		ldr	r0, .L28
 277              	.LVL35:
 278 00d8 FFF7FEFF 		bl	_ASSERT
 279              	.LVL36:
  46:../../source/src/kernel/OS_LIB/insert_sort_oo.c **** #if CONFIG_PARA_CHECK
 280              		.loc 1 46 0 discriminator 1
 281 00dc 1DB9     		cbnz	r5, .L19
 282              	.L25:
  46:../../source/src/kernel/OS_LIB/insert_sort_oo.c **** #if CONFIG_PARA_CHECK
 283              		.loc 1 46 0 is_stmt 0
 284 00de 2E21     		movs	r1, #46
 285 00e0 0548     		ldr	r0, .L28
 286 00e2 FFF7FEFF 		bl	_ASSERT
 287              	.LVL37:
 288              	.L19:
 289              	.LBB56:
 290              	.LBB57:
  50:../../source/src/kernel/OS_LIB/insert_sort_oo.c **** 		OS_ERROR_PARA_MESSAGE_DISPLAY(insert_sort_find_data,insert_sort_entity_ptr);
 291              		.loc 1 50 0 is_stmt 1
 292 00e6 0548     		ldr	r0, .L28+4
 293 00e8 FFF7FEFF 		bl	ka_printf
 294              	.LVL38:
  51:../../source/src/kernel/OS_LIB/insert_sort_oo.c **** 		return NULL;
 295              		.loc 1 51 0
 296 00ec 0448     		ldr	r0, .L28+8
 297 00ee FFF7FEFF 		bl	ka_printf
 298              	.LVL39:
 299 00f2 0020     		movs	r0, #0
 300              	.LBE57:
 301              	.LBE56:
 302              		.loc 1 67 0
 303 00f4 70BD     		pop	{r4, r5, r6, pc}
 304              	.LVL40:
 305              	.L29:
 306 00f6 00BF     		.align	2
 307              	.L28:
 308 00f8 00000000 		.word	.LC0
 309 00fc C0000000 		.word	.LC3
 310 0100 00010000 		.word	.LC4
 311              		.cfi_endproc
 312              	.LFE11:
 313              		.size	insert_sort_find_data, .-insert_sort_find_data
 314              		.align	1
 315              		.p2align 2,,3
 316              		.global	insert_sort_find_data_with_id
 317              		.syntax unified
 318              		.thumb
 319              		.thumb_func
ARM GAS  G:\Users\Jaxb\AppData\Local\Temp\cc22GpwV.s 			page 9


 320              		.fpu softvfp
 321              		.type	insert_sort_find_data_with_id, %function
 322              	insert_sort_find_data_with_id:
 323              	.LFB12:
  68:../../source/src/kernel/OS_LIB/insert_sort_oo.c **** 
  69:../../source/src/kernel/OS_LIB/insert_sort_oo.c **** //the same function with insert_sort_find_data() but also match id
  70:../../source/src/kernel/OS_LIB/insert_sort_oo.c **** struct insert_sort_data * insert_sort_find_data_with_id(struct insert_sort_entity *insert_sort_enti
  71:../../source/src/kernel/OS_LIB/insert_sort_oo.c **** {
 324              		.loc 1 71 0
 325              		.cfi_startproc
 326              		@ args = 0, pretend = 0, frame = 0
 327              		@ frame_needed = 0, uses_anonymous_args = 0
 328              	.LVL41:
 329 0104 2DE9F041 		push	{r4, r5, r6, r7, r8, lr}
 330              	.LCFI2:
 331              		.cfi_def_cfa_offset 24
 332              		.cfi_offset 4, -24
 333              		.cfi_offset 5, -20
 334              		.cfi_offset 6, -16
 335              		.cfi_offset 7, -12
 336              		.cfi_offset 8, -8
 337              		.cfi_offset 14, -4
 338              		.loc 1 71 0
 339 0108 0546     		mov	r5, r0
 340 010a 1646     		mov	r6, r2
 341 010c 1F46     		mov	r7, r3
  72:../../source/src/kernel/OS_LIB/insert_sort_oo.c **** 	ASSERT(NULL != data_ptr);
 342              		.loc 1 72 0
 343 010e 8846     		mov	r8, r1
 344 0110 C9B1     		cbz	r1, .L40
  73:../../source/src/kernel/OS_LIB/insert_sort_oo.c **** 	ASSERT(NULL != insert_sort_entity_ptr);
 345              		.loc 1 73 0
 346 0112 E8B1     		cbz	r0, .L38
  74:../../source/src/kernel/OS_LIB/insert_sort_oo.c **** #if CONFIG_PARA_CHECK
  75:../../source/src/kernel/OS_LIB/insert_sort_oo.c **** 	if((NULL == data_ptr) || (NULL == insert_sort_entity_ptr))
  76:../../source/src/kernel/OS_LIB/insert_sort_oo.c **** 	{
  77:../../source/src/kernel/OS_LIB/insert_sort_oo.c **** 		OS_ERROR_PARA_MESSAGE_DISPLAY(insert_sort_find_data_with_id,data_ptr);
  78:../../source/src/kernel/OS_LIB/insert_sort_oo.c **** 		OS_ERROR_PARA_MESSAGE_DISPLAY(insert_sort_find_data_with_id,insert_sort_entity_ptr);
  79:../../source/src/kernel/OS_LIB/insert_sort_oo.c **** 		return NULL;
  80:../../source/src/kernel/OS_LIB/insert_sort_oo.c **** 	}
  81:../../source/src/kernel/OS_LIB/insert_sort_oo.c **** #endif
  82:../../source/src/kernel/OS_LIB/insert_sort_oo.c **** 	struct list_head *pos;
  83:../../source/src/kernel/OS_LIB/insert_sort_oo.c **** 	struct insert_sort_data *buffer;
  84:../../source/src/kernel/OS_LIB/insert_sort_oo.c **** 	list_for_each(pos,&insert_sort_entity_ptr->data_list_head)
 347              		.loc 1 84 0
 348 0114 2C68     		ldr	r4, [r5]
 349              	.LVL42:
 350 0116 A542     		cmp	r5, r4
 351 0118 0ED0     		beq	.L34
 352              	.LVL43:
 353              	.L36:
  85:../../source/src/kernel/OS_LIB/insert_sort_oo.c **** 	{
  86:../../source/src/kernel/OS_LIB/insert_sort_oo.c **** 		buffer = list_entry(pos,struct insert_sort_data,data_list);
  87:../../source/src/kernel/OS_LIB/insert_sort_oo.c **** 		if((0 == insert_sort_entity_ptr->value_cmp(buffer->data_ptr,data_ptr)) && (buffer->identify_data 
 354              		.loc 1 87 0
 355 011a 6B69     		ldr	r3, [r5, #20]
 356 011c 4146     		mov	r1, r8
ARM GAS  G:\Users\Jaxb\AppData\Local\Temp\cc22GpwV.s 			page 10


 357 011e 54F8100C 		ldr	r0, [r4, #-16]
 358 0122 9847     		blx	r3
 359              	.LVL44:
 360 0124 28B9     		cbnz	r0, .L35
 361              		.loc 1 87 0 is_stmt 0 discriminator 1
 362 0126 54E90223 		ldrd	r2, [r4, #-8]
 363 012a BB42     		cmp	r3, r7
 364 012c 08BF     		it	eq
 365 012e B242     		cmpeq	r2, r6
 366 0130 05D0     		beq	.L41
 367              	.L35:
  84:../../source/src/kernel/OS_LIB/insert_sort_oo.c **** 	{
 368              		.loc 1 84 0 is_stmt 1 discriminator 2
 369 0132 2468     		ldr	r4, [r4]
 370              	.LVL45:
 371 0134 A542     		cmp	r5, r4
 372 0136 F0D1     		bne	.L36
 373              	.L34:
  88:../../source/src/kernel/OS_LIB/insert_sort_oo.c **** 		{
  89:../../source/src/kernel/OS_LIB/insert_sort_oo.c **** 			return buffer;
  90:../../source/src/kernel/OS_LIB/insert_sort_oo.c **** 		}
  91:../../source/src/kernel/OS_LIB/insert_sort_oo.c **** 	}
  92:../../source/src/kernel/OS_LIB/insert_sort_oo.c **** 	return NULL;
 374              		.loc 1 92 0
 375 0138 0020     		movs	r0, #0
 376              	.LVL46:
 377              	.L30:
  93:../../source/src/kernel/OS_LIB/insert_sort_oo.c **** }
 378              		.loc 1 93 0
 379 013a BDE8F081 		pop	{r4, r5, r6, r7, r8, pc}
 380              	.LVL47:
 381              	.L41:
 382              	.LBB62:
  86:../../source/src/kernel/OS_LIB/insert_sort_oo.c **** 		if((0 == insert_sort_entity_ptr->value_cmp(buffer->data_ptr,data_ptr)) && (buffer->identify_data 
 383              		.loc 1 86 0
 384 013e A4F11000 		sub	r0, r4, #16
 385              	.LBE62:
 386              		.loc 1 93 0
 387 0142 BDE8F081 		pop	{r4, r5, r6, r7, r8, pc}
 388              	.LVL48:
 389              	.L40:
  72:../../source/src/kernel/OS_LIB/insert_sort_oo.c **** 	ASSERT(NULL != insert_sort_entity_ptr);
 390              		.loc 1 72 0 discriminator 1
 391 0146 4821     		movs	r1, #72
 392              	.LVL49:
 393 0148 0748     		ldr	r0, .L42
 394              	.LVL50:
 395 014a FFF7FEFF 		bl	_ASSERT
 396              	.LVL51:
  73:../../source/src/kernel/OS_LIB/insert_sort_oo.c **** #if CONFIG_PARA_CHECK
 397              		.loc 1 73 0 discriminator 1
 398 014e 1DB9     		cbnz	r5, .L32
 399              	.L38:
  73:../../source/src/kernel/OS_LIB/insert_sort_oo.c **** #if CONFIG_PARA_CHECK
 400              		.loc 1 73 0 is_stmt 0
 401 0150 4921     		movs	r1, #73
 402 0152 0548     		ldr	r0, .L42
ARM GAS  G:\Users\Jaxb\AppData\Local\Temp\cc22GpwV.s 			page 11


 403 0154 FFF7FEFF 		bl	_ASSERT
 404              	.LVL52:
 405              	.L32:
 406              	.LBB63:
 407              	.LBB64:
  77:../../source/src/kernel/OS_LIB/insert_sort_oo.c **** 		OS_ERROR_PARA_MESSAGE_DISPLAY(insert_sort_find_data_with_id,insert_sort_entity_ptr);
 408              		.loc 1 77 0 is_stmt 1
 409 0158 0448     		ldr	r0, .L42+4
 410 015a FFF7FEFF 		bl	ka_printf
 411              	.LVL53:
  78:../../source/src/kernel/OS_LIB/insert_sort_oo.c **** 		return NULL;
 412              		.loc 1 78 0
 413 015e 0448     		ldr	r0, .L42+8
 414 0160 FFF7FEFF 		bl	ka_printf
 415              	.LVL54:
 416 0164 0020     		movs	r0, #0
 417 0166 E8E7     		b	.L30
 418              	.L43:
 419              		.align	2
 420              	.L42:
 421 0168 00000000 		.word	.LC0
 422 016c 4C010000 		.word	.LC5
 423 0170 94010000 		.word	.LC6
 424              	.LBE64:
 425              	.LBE63:
 426              		.cfi_endproc
 427              	.LFE12:
 428              		.size	insert_sort_find_data_with_id, .-insert_sort_find_data_with_id
 429              		.align	1
 430              		.p2align 2,,3
 431              		.global	insert_sort_delete_head
 432              		.syntax unified
 433              		.thumb
 434              		.thumb_func
 435              		.fpu softvfp
 436              		.type	insert_sort_delete_head, %function
 437              	insert_sort_delete_head:
 438              	.LFB13:
  94:../../source/src/kernel/OS_LIB/insert_sort_oo.c **** 
  95:../../source/src/kernel/OS_LIB/insert_sort_oo.c **** //remove the first(smallest) data from the list and return it's struct insert_sort_data's ptr
  96:../../source/src/kernel/OS_LIB/insert_sort_oo.c **** //if there is no data in the list , then return NULL
  97:../../source/src/kernel/OS_LIB/insert_sort_oo.c **** struct insert_sort_data * insert_sort_delete_head(struct insert_sort_entity *insert_sort_entity_ptr
  98:../../source/src/kernel/OS_LIB/insert_sort_oo.c **** {
 439              		.loc 1 98 0
 440              		.cfi_startproc
 441              		@ args = 0, pretend = 0, frame = 0
 442              		@ frame_needed = 0, uses_anonymous_args = 0
 443              	.LVL55:
 444 0174 38B5     		push	{r3, r4, r5, lr}
 445              	.LCFI3:
 446              		.cfi_def_cfa_offset 16
 447              		.cfi_offset 3, -16
 448              		.cfi_offset 4, -12
 449              		.cfi_offset 5, -8
 450              		.cfi_offset 14, -4
  99:../../source/src/kernel/OS_LIB/insert_sort_oo.c **** 	ASSERT(NULL != insert_sort_entity_ptr);
 451              		.loc 1 99 0
ARM GAS  G:\Users\Jaxb\AppData\Local\Temp\cc22GpwV.s 			page 12


 452 0176 0446     		mov	r4, r0
 453 0178 98B1     		cbz	r0, .L51
 454              	.LVL56:
 455              	.LBB65:
 456              	.LBB66:
  43:../../source/include/os_lib/double_linked_list.h **** }
  44:../../source/include/os_lib/double_linked_list.h **** 
  45:../../source/include/os_lib/double_linked_list.h **** 
  46:../../source/include/os_lib/double_linked_list.h **** static inline void __list_del(struct list_head * prev, struct list_head * next)
  47:../../source/include/os_lib/double_linked_list.h **** {
  48:../../source/include/os_lib/double_linked_list.h ****     next->prev = prev;
  49:../../source/include/os_lib/double_linked_list.h ****     prev->next = next;
  50:../../source/include/os_lib/double_linked_list.h **** }
  51:../../source/include/os_lib/double_linked_list.h **** 
  52:../../source/include/os_lib/double_linked_list.h **** 
  53:../../source/include/os_lib/double_linked_list.h **** static inline void list_del(struct list_head *entry)
  54:../../source/include/os_lib/double_linked_list.h **** {
  55:../../source/include/os_lib/double_linked_list.h ****     __list_del(entry->prev, entry->next);
  56:../../source/include/os_lib/double_linked_list.h **** }
  57:../../source/include/os_lib/double_linked_list.h **** 
  58:../../source/include/os_lib/double_linked_list.h **** 
  59:../../source/include/os_lib/double_linked_list.h **** static inline void __list_del_entry(struct list_head *entry)
  60:../../source/include/os_lib/double_linked_list.h **** {
  61:../../source/include/os_lib/double_linked_list.h ****     __list_del(entry->prev, entry->next);
  62:../../source/include/os_lib/double_linked_list.h **** }
  63:../../source/include/os_lib/double_linked_list.h **** 
  64:../../source/include/os_lib/double_linked_list.h **** 
  65:../../source/include/os_lib/double_linked_list.h **** static inline void list_del_init(struct list_head *entry)
  66:../../source/include/os_lib/double_linked_list.h **** {
  67:../../source/include/os_lib/double_linked_list.h ****     __list_del_entry(entry);
  68:../../source/include/os_lib/double_linked_list.h ****     INIT_LIST_HEAD(entry);
  69:../../source/include/os_lib/double_linked_list.h **** }
  70:../../source/include/os_lib/double_linked_list.h **** 
  71:../../source/include/os_lib/double_linked_list.h **** 
  72:../../source/include/os_lib/double_linked_list.h **** static inline void list_replace(struct list_head *old,
  73:../../source/include/os_lib/double_linked_list.h ****                 struct list_head *new)
  74:../../source/include/os_lib/double_linked_list.h **** {
  75:../../source/include/os_lib/double_linked_list.h ****     new->next = old->next;
  76:../../source/include/os_lib/double_linked_list.h ****     new->next->prev = new;
  77:../../source/include/os_lib/double_linked_list.h ****     new->prev = old->prev;
  78:../../source/include/os_lib/double_linked_list.h ****     new->prev->next = new;
  79:../../source/include/os_lib/double_linked_list.h **** }
  80:../../source/include/os_lib/double_linked_list.h **** 
  81:../../source/include/os_lib/double_linked_list.h **** 
  82:../../source/include/os_lib/double_linked_list.h **** static inline int list_empty(const struct list_head *head)
  83:../../source/include/os_lib/double_linked_list.h **** {
  84:../../source/include/os_lib/double_linked_list.h ****     return head->next == head;
 457              		.loc 2 84 0
 458 017a 0568     		ldr	r5, [r0]
 459              	.LVL57:
 460              	.LBE66:
 461              	.LBE65:
 100:../../source/src/kernel/OS_LIB/insert_sort_oo.c **** #if CONFIG_PARA_CHECK
 101:../../source/src/kernel/OS_LIB/insert_sort_oo.c **** 	if(NULL == insert_sort_entity_ptr)
 102:../../source/src/kernel/OS_LIB/insert_sort_oo.c **** 	{
 103:../../source/src/kernel/OS_LIB/insert_sort_oo.c **** 		OS_ERROR_PARA_MESSAGE_DISPLAY(insert_sort_delete_head,insert_sort_entity_ptr);
 104:../../source/src/kernel/OS_LIB/insert_sort_oo.c **** 		return NULL;
ARM GAS  G:\Users\Jaxb\AppData\Local\Temp\cc22GpwV.s 			page 13


 105:../../source/src/kernel/OS_LIB/insert_sort_oo.c **** 	}
 106:../../source/src/kernel/OS_LIB/insert_sort_oo.c **** #endif
 107:../../source/src/kernel/OS_LIB/insert_sort_oo.c **** 	if(list_empty(&insert_sort_entity_ptr->data_list_head))
 462              		.loc 1 107 0
 463 017c A842     		cmp	r0, r5
 464 017e 19D0     		beq	.L52
 465              	.LVL58:
 466              	.LBB67:
 467              	.LBB68:
  55:../../source/include/os_lib/double_linked_list.h **** }
 468              		.loc 2 55 0
 469 0180 D5E90012 		ldrd	r1, r2, [r5]
 470              	.LVL59:
 471              	.LBE68:
 472              	.LBE67:
 108:../../source/src/kernel/OS_LIB/insert_sort_oo.c **** 	{
 109:../../source/src/kernel/OS_LIB/insert_sort_oo.c **** 		return NULL;
 110:../../source/src/kernel/OS_LIB/insert_sort_oo.c **** 	}
 111:../../source/src/kernel/OS_LIB/insert_sort_oo.c **** 	struct list_head *pos;
 112:../../source/src/kernel/OS_LIB/insert_sort_oo.c **** 	pos = insert_sort_entity_ptr->data_list_head.next;
 113:../../source/src/kernel/OS_LIB/insert_sort_oo.c **** 	list_del(pos);
 114:../../source/src/kernel/OS_LIB/insert_sort_oo.c **** 	ASSERT(insert_sort_entity_ptr->data_num > 0);
 473              		.loc 1 114 0
 474 0184 A368     		ldr	r3, [r4, #8]
 475              	.LBB72:
 476              	.LBB71:
 477              	.LBB69:
 478              	.LBB70:
  48:../../source/include/os_lib/double_linked_list.h ****     prev->next = next;
 479              		.loc 2 48 0
 480 0186 4A60     		str	r2, [r1, #4]
  49:../../source/include/os_lib/double_linked_list.h **** }
 481              		.loc 2 49 0
 482 0188 1160     		str	r1, [r2]
 483              	.LVL60:
 484              	.LBE70:
 485              	.LBE69:
 486              	.LBE71:
 487              	.LBE72:
 488              		.loc 1 114 0
 489 018a 23B1     		cbz	r3, .L53
 490              	.LVL61:
 491              	.L47:
 115:../../source/src/kernel/OS_LIB/insert_sort_oo.c **** 	--(insert_sort_entity_ptr->data_num);
 492              		.loc 1 115 0
 493 018c 013B     		subs	r3, r3, #1
 494 018e A360     		str	r3, [r4, #8]
 495              	.LVL62:
 496              	.LBB73:
 116:../../source/src/kernel/OS_LIB/insert_sort_oo.c **** 	return list_entry(pos,struct insert_sort_data,data_list);
 497              		.loc 1 116 0
 498 0190 A5F11000 		sub	r0, r5, #16
 499              	.LBE73:
 117:../../source/src/kernel/OS_LIB/insert_sort_oo.c **** }
 500              		.loc 1 117 0
 501 0194 38BD     		pop	{r3, r4, r5, pc}
 502              	.LVL63:
ARM GAS  G:\Users\Jaxb\AppData\Local\Temp\cc22GpwV.s 			page 14


 503              	.L53:
 114:../../source/src/kernel/OS_LIB/insert_sort_oo.c **** 	--(insert_sort_entity_ptr->data_num);
 504              		.loc 1 114 0 discriminator 1
 505 0196 7221     		movs	r1, #114
 506 0198 0748     		ldr	r0, .L54
 507              	.LVL64:
 508 019a FFF7FEFF 		bl	_ASSERT
 509              	.LVL65:
 510 019e A368     		ldr	r3, [r4, #8]
 511 01a0 F4E7     		b	.L47
 512              	.LVL66:
 513              	.L51:
  99:../../source/src/kernel/OS_LIB/insert_sort_oo.c **** #if CONFIG_PARA_CHECK
 514              		.loc 1 99 0 discriminator 1
 515 01a2 6321     		movs	r1, #99
 516 01a4 0448     		ldr	r0, .L54
 517              	.LVL67:
 518 01a6 FFF7FEFF 		bl	_ASSERT
 519              	.LVL68:
 103:../../source/src/kernel/OS_LIB/insert_sort_oo.c **** 		return NULL;
 520              		.loc 1 103 0 discriminator 1
 521 01aa 0448     		ldr	r0, .L54+4
 522 01ac FFF7FEFF 		bl	ka_printf
 523              	.LVL69:
 104:../../source/src/kernel/OS_LIB/insert_sort_oo.c **** 	}
 524              		.loc 1 104 0 discriminator 1
 525 01b0 2046     		mov	r0, r4
 526              		.loc 1 117 0 discriminator 1
 527 01b2 38BD     		pop	{r3, r4, r5, pc}
 528              	.LVL70:
 529              	.L52:
 109:../../source/src/kernel/OS_LIB/insert_sort_oo.c **** 	}
 530              		.loc 1 109 0
 531 01b4 0020     		movs	r0, #0
 532              	.LVL71:
 533              		.loc 1 117 0
 534 01b6 38BD     		pop	{r3, r4, r5, pc}
 535              	.LVL72:
 536              	.L55:
 537              		.align	2
 538              	.L54:
 539 01b8 00000000 		.word	.LC0
 540 01bc E8010000 		.word	.LC7
 541              		.cfi_endproc
 542              	.LFE13:
 543              		.size	insert_sort_delete_head, .-insert_sort_delete_head
 544              		.align	1
 545              		.p2align 2,,3
 546              		.global	insert_sort_delete_data
 547              		.syntax unified
 548              		.thumb
 549              		.thumb_func
 550              		.fpu softvfp
 551              		.type	insert_sort_delete_data, %function
 552              	insert_sort_delete_data:
 553              	.LFB14:
 118:../../source/src/kernel/OS_LIB/insert_sort_oo.c **** 
ARM GAS  G:\Users\Jaxb\AppData\Local\Temp\cc22GpwV.s 			page 15


 119:../../source/src/kernel/OS_LIB/insert_sort_oo.c **** //remove the data match value (*data_ptr) from the list and return it's struct insert_sort_data's p
 120:../../source/src/kernel/OS_LIB/insert_sort_oo.c **** //if there is no data matched , then return NULL
 121:../../source/src/kernel/OS_LIB/insert_sort_oo.c **** struct insert_sort_data * insert_sort_delete_data(struct insert_sort_entity *insert_sort_entity_ptr
 122:../../source/src/kernel/OS_LIB/insert_sort_oo.c **** {
 554              		.loc 1 122 0
 555              		.cfi_startproc
 556              		@ args = 0, pretend = 0, frame = 0
 557              		@ frame_needed = 0, uses_anonymous_args = 0
 558              	.LVL73:
 559 01c0 38B5     		push	{r3, r4, r5, lr}
 560              	.LCFI4:
 561              		.cfi_def_cfa_offset 16
 562              		.cfi_offset 3, -16
 563              		.cfi_offset 4, -12
 564              		.cfi_offset 5, -8
 565              		.cfi_offset 14, -4
 123:../../source/src/kernel/OS_LIB/insert_sort_oo.c **** 	ASSERT(NULL != insert_sort_entity_ptr);
 566              		.loc 1 123 0
 567 01c2 0546     		mov	r5, r0
 568 01c4 98B1     		cbz	r0, .L65
 124:../../source/src/kernel/OS_LIB/insert_sort_oo.c **** #if CONFIG_PARA_CHECK
 125:../../source/src/kernel/OS_LIB/insert_sort_oo.c **** 	if(NULL == insert_sort_entity_ptr)
 126:../../source/src/kernel/OS_LIB/insert_sort_oo.c **** 	{
 127:../../source/src/kernel/OS_LIB/insert_sort_oo.c **** 		OS_ERROR_PARA_MESSAGE_DISPLAY(insert_sort_delete_data,insert_sort_entity_ptr);
 128:../../source/src/kernel/OS_LIB/insert_sort_oo.c **** 		return NULL;
 129:../../source/src/kernel/OS_LIB/insert_sort_oo.c **** 	}
 130:../../source/src/kernel/OS_LIB/insert_sort_oo.c **** #endif
 131:../../source/src/kernel/OS_LIB/insert_sort_oo.c **** 	struct insert_sort_data *buffer_ptr;
 132:../../source/src/kernel/OS_LIB/insert_sort_oo.c **** 	buffer_ptr = insert_sort_find_data(insert_sort_entity_ptr,data_ptr);
 569              		.loc 1 132 0
 570 01c6 FFF7FEFF 		bl	insert_sort_find_data
 571              	.LVL74:
 133:../../source/src/kernel/OS_LIB/insert_sort_oo.c **** 	if(NULL == buffer_ptr)//no such data
 572              		.loc 1 133 0
 573 01ca 0446     		mov	r4, r0
 574 01cc 38B1     		cbz	r0, .L56
 575              	.LVL75:
 576              	.LBB74:
 577              	.LBB75:
  55:../../source/include/os_lib/double_linked_list.h **** }
 578              		.loc 2 55 0
 579 01ce D4E90412 		ldrd	r1, r2, [r4, #16]
 580              	.LVL76:
 581              	.LBE75:
 582              	.LBE74:
 134:../../source/src/kernel/OS_LIB/insert_sort_oo.c **** 	{
 135:../../source/src/kernel/OS_LIB/insert_sort_oo.c **** 		return NULL;
 136:../../source/src/kernel/OS_LIB/insert_sort_oo.c **** 	}
 137:../../source/src/kernel/OS_LIB/insert_sort_oo.c **** 	else
 138:../../source/src/kernel/OS_LIB/insert_sort_oo.c **** 	{
 139:../../source/src/kernel/OS_LIB/insert_sort_oo.c **** 		list_del(&buffer_ptr->data_list);
 140:../../source/src/kernel/OS_LIB/insert_sort_oo.c **** 		ASSERT(insert_sort_entity_ptr->data_num > 0);
 583              		.loc 1 140 0
 584 01d2 AB68     		ldr	r3, [r5, #8]
 585              	.LBB79:
 586              	.LBB78:
 587              	.LBB76:
ARM GAS  G:\Users\Jaxb\AppData\Local\Temp\cc22GpwV.s 			page 16


 588              	.LBB77:
  48:../../source/include/os_lib/double_linked_list.h ****     prev->next = next;
 589              		.loc 2 48 0
 590 01d4 4A60     		str	r2, [r1, #4]
  49:../../source/include/os_lib/double_linked_list.h **** }
 591              		.loc 2 49 0
 592 01d6 1160     		str	r1, [r2]
 593              	.LVL77:
 594              	.LBE77:
 595              	.LBE76:
 596              	.LBE78:
 597              	.LBE79:
 598              		.loc 1 140 0
 599 01d8 1BB1     		cbz	r3, .L66
 600              	.LVL78:
 601              	.L59:
 141:../../source/src/kernel/OS_LIB/insert_sort_oo.c **** 		--(insert_sort_entity_ptr->data_num);
 602              		.loc 1 141 0
 603 01da 013B     		subs	r3, r3, #1
 604 01dc AB60     		str	r3, [r5, #8]
 605              	.L56:
 142:../../source/src/kernel/OS_LIB/insert_sort_oo.c **** 		return buffer_ptr;
 143:../../source/src/kernel/OS_LIB/insert_sort_oo.c **** 	}
 144:../../source/src/kernel/OS_LIB/insert_sort_oo.c **** }
 606              		.loc 1 144 0
 607 01de 2046     		mov	r0, r4
 608 01e0 38BD     		pop	{r3, r4, r5, pc}
 609              	.LVL79:
 610              	.L66:
 140:../../source/src/kernel/OS_LIB/insert_sort_oo.c **** 		--(insert_sort_entity_ptr->data_num);
 611              		.loc 1 140 0 discriminator 1
 612 01e2 8C21     		movs	r1, #140
 613 01e4 0748     		ldr	r0, .L67
 614              	.LVL80:
 615 01e6 FFF7FEFF 		bl	_ASSERT
 616              	.LVL81:
 617 01ea AB68     		ldr	r3, [r5, #8]
 618 01ec F5E7     		b	.L59
 619              	.LVL82:
 620              	.L65:
 128:../../source/src/kernel/OS_LIB/insert_sort_oo.c **** 	}
 621              		.loc 1 128 0 discriminator 1
 622 01ee 2C46     		mov	r4, r5
 123:../../source/src/kernel/OS_LIB/insert_sort_oo.c **** #if CONFIG_PARA_CHECK
 623              		.loc 1 123 0 discriminator 1
 624 01f0 7B21     		movs	r1, #123
 625              	.LVL83:
 626 01f2 0448     		ldr	r0, .L67
 627              	.LVL84:
 628 01f4 FFF7FEFF 		bl	_ASSERT
 629              	.LVL85:
 127:../../source/src/kernel/OS_LIB/insert_sort_oo.c **** 		return NULL;
 630              		.loc 1 127 0 discriminator 1
 631 01f8 0348     		ldr	r0, .L67+4
 632 01fa FFF7FEFF 		bl	ka_printf
 633              	.LVL86:
 634              		.loc 1 144 0 discriminator 1
ARM GAS  G:\Users\Jaxb\AppData\Local\Temp\cc22GpwV.s 			page 17


 635 01fe 2046     		mov	r0, r4
 636 0200 38BD     		pop	{r3, r4, r5, pc}
 637              	.LVL87:
 638              	.L68:
 639 0202 00BF     		.align	2
 640              	.L67:
 641 0204 00000000 		.word	.LC0
 642 0208 38020000 		.word	.LC8
 643              		.cfi_endproc
 644              	.LFE14:
 645              		.size	insert_sort_delete_data, .-insert_sort_delete_data
 646              		.align	1
 647              		.p2align 2,,3
 648              		.global	insert_sort_delete_data_with_id
 649              		.syntax unified
 650              		.thumb
 651              		.thumb_func
 652              		.fpu softvfp
 653              		.type	insert_sort_delete_data_with_id, %function
 654              	insert_sort_delete_data_with_id:
 655              	.LFB15:
 145:../../source/src/kernel/OS_LIB/insert_sort_oo.c **** 
 146:../../source/src/kernel/OS_LIB/insert_sort_oo.c **** //the same as function insert_sort_delete_data() but also match id
 147:../../source/src/kernel/OS_LIB/insert_sort_oo.c **** struct insert_sort_data * insert_sort_delete_data_with_id(
 148:../../source/src/kernel/OS_LIB/insert_sort_oo.c **** 	struct insert_sort_entity *insert_sort_entity_ptr,
 149:../../source/src/kernel/OS_LIB/insert_sort_oo.c **** 	void *data_ptr,
 150:../../source/src/kernel/OS_LIB/insert_sort_oo.c **** 	id_type identify_data)
 151:../../source/src/kernel/OS_LIB/insert_sort_oo.c **** {
 656              		.loc 1 151 0
 657              		.cfi_startproc
 658              		@ args = 0, pretend = 0, frame = 0
 659              		@ frame_needed = 0, uses_anonymous_args = 0
 660              	.LVL88:
 661 020c 38B5     		push	{r3, r4, r5, lr}
 662              	.LCFI5:
 663              		.cfi_def_cfa_offset 16
 664              		.cfi_offset 3, -16
 665              		.cfi_offset 4, -12
 666              		.cfi_offset 5, -8
 667              		.cfi_offset 14, -4
 152:../../source/src/kernel/OS_LIB/insert_sort_oo.c **** 	ASSERT(NULL != insert_sort_entity_ptr);
 668              		.loc 1 152 0
 669 020e 0546     		mov	r5, r0
 670 0210 98B1     		cbz	r0, .L78
 153:../../source/src/kernel/OS_LIB/insert_sort_oo.c **** #if CONFIG_PARA_CHECK
 154:../../source/src/kernel/OS_LIB/insert_sort_oo.c **** 	if(NULL == insert_sort_entity_ptr)
 155:../../source/src/kernel/OS_LIB/insert_sort_oo.c **** 	{
 156:../../source/src/kernel/OS_LIB/insert_sort_oo.c **** 		OS_ERROR_PARA_MESSAGE_DISPLAY(insert_sort_delete_data_with_id,insert_sort_entity_ptr);
 157:../../source/src/kernel/OS_LIB/insert_sort_oo.c **** 		return NULL;
 158:../../source/src/kernel/OS_LIB/insert_sort_oo.c **** 	}
 159:../../source/src/kernel/OS_LIB/insert_sort_oo.c **** #endif
 160:../../source/src/kernel/OS_LIB/insert_sort_oo.c **** 	struct insert_sort_data *buffer_ptr;
 161:../../source/src/kernel/OS_LIB/insert_sort_oo.c **** 	buffer_ptr = insert_sort_find_data_with_id(insert_sort_entity_ptr,data_ptr,identify_data);
 671              		.loc 1 161 0
 672 0212 FFF7FEFF 		bl	insert_sort_find_data_with_id
 673              	.LVL89:
 162:../../source/src/kernel/OS_LIB/insert_sort_oo.c **** 	if(NULL == buffer_ptr)//no such data
ARM GAS  G:\Users\Jaxb\AppData\Local\Temp\cc22GpwV.s 			page 18


 674              		.loc 1 162 0
 675 0216 0446     		mov	r4, r0
 676 0218 38B1     		cbz	r0, .L69
 677              	.LVL90:
 678              	.LBB80:
 679              	.LBB81:
  55:../../source/include/os_lib/double_linked_list.h **** }
 680              		.loc 2 55 0
 681 021a D4E90412 		ldrd	r1, r2, [r4, #16]
 682              	.LVL91:
 683              	.LBE81:
 684              	.LBE80:
 163:../../source/src/kernel/OS_LIB/insert_sort_oo.c **** 	{
 164:../../source/src/kernel/OS_LIB/insert_sort_oo.c **** 		return NULL;
 165:../../source/src/kernel/OS_LIB/insert_sort_oo.c **** 	}
 166:../../source/src/kernel/OS_LIB/insert_sort_oo.c **** 	else
 167:../../source/src/kernel/OS_LIB/insert_sort_oo.c **** 	{
 168:../../source/src/kernel/OS_LIB/insert_sort_oo.c **** 		list_del(&buffer_ptr->data_list);
 169:../../source/src/kernel/OS_LIB/insert_sort_oo.c **** 		ASSERT(insert_sort_entity_ptr->data_num > 0);
 685              		.loc 1 169 0
 686 021e AB68     		ldr	r3, [r5, #8]
 687              	.LBB85:
 688              	.LBB84:
 689              	.LBB82:
 690              	.LBB83:
  48:../../source/include/os_lib/double_linked_list.h ****     prev->next = next;
 691              		.loc 2 48 0
 692 0220 4A60     		str	r2, [r1, #4]
  49:../../source/include/os_lib/double_linked_list.h **** }
 693              		.loc 2 49 0
 694 0222 1160     		str	r1, [r2]
 695              	.LVL92:
 696              	.LBE83:
 697              	.LBE82:
 698              	.LBE84:
 699              	.LBE85:
 700              		.loc 1 169 0
 701 0224 1BB1     		cbz	r3, .L79
 702              	.LVL93:
 703              	.L72:
 170:../../source/src/kernel/OS_LIB/insert_sort_oo.c **** 		--(insert_sort_entity_ptr->data_num);
 704              		.loc 1 170 0
 705 0226 013B     		subs	r3, r3, #1
 706 0228 AB60     		str	r3, [r5, #8]
 707              	.L69:
 171:../../source/src/kernel/OS_LIB/insert_sort_oo.c **** 		return buffer_ptr;
 172:../../source/src/kernel/OS_LIB/insert_sort_oo.c **** 	}
 173:../../source/src/kernel/OS_LIB/insert_sort_oo.c **** }
 708              		.loc 1 173 0
 709 022a 2046     		mov	r0, r4
 710 022c 38BD     		pop	{r3, r4, r5, pc}
 711              	.LVL94:
 712              	.L79:
 169:../../source/src/kernel/OS_LIB/insert_sort_oo.c **** 		--(insert_sort_entity_ptr->data_num);
 713              		.loc 1 169 0 discriminator 1
 714 022e A921     		movs	r1, #169
 715 0230 0748     		ldr	r0, .L80
ARM GAS  G:\Users\Jaxb\AppData\Local\Temp\cc22GpwV.s 			page 19


 716              	.LVL95:
 717 0232 FFF7FEFF 		bl	_ASSERT
 718              	.LVL96:
 719 0236 AB68     		ldr	r3, [r5, #8]
 720 0238 F5E7     		b	.L72
 721              	.LVL97:
 722              	.L78:
 157:../../source/src/kernel/OS_LIB/insert_sort_oo.c **** 	}
 723              		.loc 1 157 0 discriminator 1
 724 023a 2C46     		mov	r4, r5
 152:../../source/src/kernel/OS_LIB/insert_sort_oo.c **** #if CONFIG_PARA_CHECK
 725              		.loc 1 152 0 discriminator 1
 726 023c 9821     		movs	r1, #152
 727              	.LVL98:
 728 023e 0448     		ldr	r0, .L80
 729              	.LVL99:
 730 0240 FFF7FEFF 		bl	_ASSERT
 731              	.LVL100:
 156:../../source/src/kernel/OS_LIB/insert_sort_oo.c **** 		return NULL;
 732              		.loc 1 156 0 discriminator 1
 733 0244 0348     		ldr	r0, .L80+4
 734 0246 FFF7FEFF 		bl	ka_printf
 735              	.LVL101:
 736              		.loc 1 173 0 discriminator 1
 737 024a 2046     		mov	r0, r4
 738 024c 38BD     		pop	{r3, r4, r5, pc}
 739              	.LVL102:
 740              	.L81:
 741 024e 00BF     		.align	2
 742              	.L80:
 743 0250 00000000 		.word	.LC0
 744 0254 88020000 		.word	.LC9
 745              		.cfi_endproc
 746              	.LFE15:
 747              		.size	insert_sort_delete_data_with_id, .-insert_sort_delete_data_with_id
 748              		.align	1
 749              		.p2align 2,,3
 750              		.global	init_insert_sort_data
 751              		.syntax unified
 752              		.thumb
 753              		.thumb_func
 754              		.fpu softvfp
 755              		.type	init_insert_sort_data, %function
 756              	init_insert_sort_data:
 757              	.LFB16:
 174:../../source/src/kernel/OS_LIB/insert_sort_oo.c **** 
 175:../../source/src/kernel/OS_LIB/insert_sort_oo.c **** //initialize the struct insert_sort_data with data (*data_ptr)
 176:../../source/src/kernel/OS_LIB/insert_sort_oo.c **** void init_insert_sort_data(struct insert_sort_data *insert_sort_data_ptr,void *data_ptr)
 177:../../source/src/kernel/OS_LIB/insert_sort_oo.c **** {
 758              		.loc 1 177 0
 759              		.cfi_startproc
 760              		@ args = 0, pretend = 0, frame = 0
 761              		@ frame_needed = 0, uses_anonymous_args = 0
 762              	.LVL103:
 763 0258 38B5     		push	{r3, r4, r5, lr}
 764              	.LCFI6:
 765              		.cfi_def_cfa_offset 16
ARM GAS  G:\Users\Jaxb\AppData\Local\Temp\cc22GpwV.s 			page 20


 766              		.cfi_offset 3, -16
 767              		.cfi_offset 4, -12
 768              		.cfi_offset 5, -8
 769              		.cfi_offset 14, -4
 770              		.loc 1 177 0
 771 025a 0D46     		mov	r5, r1
 178:../../source/src/kernel/OS_LIB/insert_sort_oo.c **** 	ASSERT(NULL != insert_sort_data_ptr);
 772              		.loc 1 178 0
 773 025c 0446     		mov	r4, r0
 774 025e 30B1     		cbz	r0, .L85
 179:../../source/src/kernel/OS_LIB/insert_sort_oo.c **** 	ASSERT(NULL != data_ptr);
 775              		.loc 1 179 0
 776 0260 5DB1     		cbz	r5, .L86
 777              	.LVL104:
 778              	.L84:
 180:../../source/src/kernel/OS_LIB/insert_sort_oo.c **** 	insert_sort_data_ptr->data_ptr = data_ptr;
 779              		.loc 1 180 0
 780 0262 2346     		mov	r3, r4
 781 0264 43F8105B 		str	r5, [r3], #16
 782              	.LVL105:
 783              	.LBB86:
 784              	.LBB87:
  19:../../source/include/os_lib/double_linked_list.h **** }
 785              		.loc 2 19 0
 786 0268 C4E90433 		strd	r3, r3, [r4, #16]
 787              	.LVL106:
 788              	.LBE87:
 789              	.LBE86:
 181:../../source/src/kernel/OS_LIB/insert_sort_oo.c **** 	INIT_LIST_HEAD(&insert_sort_data_ptr->data_list);
 182:../../source/src/kernel/OS_LIB/insert_sort_oo.c **** }
 790              		.loc 1 182 0
 791 026c 38BD     		pop	{r3, r4, r5, pc}
 792              	.LVL107:
 793              	.L85:
 178:../../source/src/kernel/OS_LIB/insert_sort_oo.c **** 	ASSERT(NULL != data_ptr);
 794              		.loc 1 178 0 discriminator 1
 795 026e B221     		movs	r1, #178
 796              	.LVL108:
 797 0270 0748     		ldr	r0, .L87
 798              	.LVL109:
 799 0272 FFF7FEFF 		bl	_ASSERT
 800              	.LVL110:
 179:../../source/src/kernel/OS_LIB/insert_sort_oo.c **** 	insert_sort_data_ptr->data_ptr = data_ptr;
 801              		.loc 1 179 0 discriminator 1
 802 0276 002D     		cmp	r5, #0
 803 0278 F3D1     		bne	.L84
 804              	.L86:
 805 027a B321     		movs	r1, #179
 806 027c 0448     		ldr	r0, .L87
 807 027e FFF7FEFF 		bl	_ASSERT
 808              	.LVL111:
 180:../../source/src/kernel/OS_LIB/insert_sort_oo.c **** 	INIT_LIST_HEAD(&insert_sort_data_ptr->data_list);
 809              		.loc 1 180 0 discriminator 1
 810 0282 2346     		mov	r3, r4
 811 0284 43F8105B 		str	r5, [r3], #16
 812              	.LVL112:
 813              	.LBB89:
ARM GAS  G:\Users\Jaxb\AppData\Local\Temp\cc22GpwV.s 			page 21


 814              	.LBB88:
  19:../../source/include/os_lib/double_linked_list.h **** }
 815              		.loc 2 19 0 discriminator 1
 816 0288 C4E90433 		strd	r3, r3, [r4, #16]
 817              	.LVL113:
 818              	.LBE88:
 819              	.LBE89:
 820              		.loc 1 182 0 discriminator 1
 821 028c 38BD     		pop	{r3, r4, r5, pc}
 822              	.LVL114:
 823              	.L88:
 824 028e 00BF     		.align	2
 825              	.L87:
 826 0290 00000000 		.word	.LC0
 827              		.cfi_endproc
 828              	.LFE16:
 829              		.size	init_insert_sort_data, .-init_insert_sort_data
 830              		.align	1
 831              		.p2align 2,,3
 832              		.global	init_insert_sort_data_with_id
 833              		.syntax unified
 834              		.thumb
 835              		.thumb_func
 836              		.fpu softvfp
 837              		.type	init_insert_sort_data_with_id, %function
 838              	init_insert_sort_data_with_id:
 839              	.LFB17:
 183:../../source/src/kernel/OS_LIB/insert_sort_oo.c **** 
 184:../../source/src/kernel/OS_LIB/insert_sort_oo.c **** //initialize the struct insert_sort_data with data (*data_ptr) and id
 185:../../source/src/kernel/OS_LIB/insert_sort_oo.c **** void init_insert_sort_data_with_id(struct insert_sort_data *insert_sort_data_ptr,void *data_ptr,id_
 186:../../source/src/kernel/OS_LIB/insert_sort_oo.c **** {
 840              		.loc 1 186 0
 841              		.cfi_startproc
 842              		@ args = 0, pretend = 0, frame = 0
 843              		@ frame_needed = 0, uses_anonymous_args = 0
 844              	.LVL115:
 845 0294 D0B5     		push	{r4, r6, r7, lr}
 846              	.LCFI7:
 847              		.cfi_def_cfa_offset 16
 848              		.cfi_offset 4, -16
 849              		.cfi_offset 6, -12
 850              		.cfi_offset 7, -8
 851              		.cfi_offset 14, -4
 852              		.loc 1 186 0
 853 0296 1646     		mov	r6, r2
 854 0298 1F46     		mov	r7, r3
 855 029a 0446     		mov	r4, r0
 187:../../source/src/kernel/OS_LIB/insert_sort_oo.c **** 	init_insert_sort_data(insert_sort_data_ptr,data_ptr);
 856              		.loc 1 187 0
 857 029c FFF7FEFF 		bl	init_insert_sort_data
 858              	.LVL116:
 188:../../source/src/kernel/OS_LIB/insert_sort_oo.c **** 	insert_sort_data_ptr->identify_data = identify_data;
 859              		.loc 1 188 0
 860 02a0 C4E90267 		strd	r6, [r4, #8]
 189:../../source/src/kernel/OS_LIB/insert_sort_oo.c **** }
 861              		.loc 1 189 0
 862 02a4 D0BD     		pop	{r4, r6, r7, pc}
ARM GAS  G:\Users\Jaxb\AppData\Local\Temp\cc22GpwV.s 			page 22


 863              		.cfi_endproc
 864              	.LFE17:
 865              		.size	init_insert_sort_data_with_id, .-init_insert_sort_data_with_id
 866              		.align	1
 867 02a6 00BF     		.p2align 2,,3
 868              		.global	init_insert_sort_entity
 869              		.syntax unified
 870              		.thumb
 871              		.thumb_func
 872              		.fpu softvfp
 873              		.type	init_insert_sort_entity, %function
 874              	init_insert_sort_entity:
 875              	.LFB18:
 190:../../source/src/kernel/OS_LIB/insert_sort_oo.c **** 
 191:../../source/src/kernel/OS_LIB/insert_sort_oo.c **** //initialize the struct insert_sort_entity
 192:../../source/src/kernel/OS_LIB/insert_sort_oo.c **** //user have to realize three funtion in the following parameter
 193:../../source/src/kernel/OS_LIB/insert_sort_oo.c **** int init_insert_sort_entity(
 194:../../source/src/kernel/OS_LIB/insert_sort_oo.c **** 	struct insert_sort_entity *insert_sort_entity_ptr,
 195:../../source/src/kernel/OS_LIB/insert_sort_oo.c **** 	int (*compare)(struct insert_sort_data *data1,struct insert_sort_data *data2),
 196:../../source/src/kernel/OS_LIB/insert_sort_oo.c **** 	int (*get_data_ptr)(struct insert_sort_data *insert_sort_data_ptrm,void *data_ptr),
 197:../../source/src/kernel/OS_LIB/insert_sort_oo.c **** 	int (*value_cmp)(void *data1,void *data2)
 198:../../source/src/kernel/OS_LIB/insert_sort_oo.c **** )
 199:../../source/src/kernel/OS_LIB/insert_sort_oo.c **** {
 876              		.loc 1 199 0
 877              		.cfi_startproc
 878              		@ args = 0, pretend = 0, frame = 0
 879              		@ frame_needed = 0, uses_anonymous_args = 0
 880              	.LVL117:
 881 02a8 38B5     		push	{r3, r4, r5, lr}
 882              	.LCFI8:
 883              		.cfi_def_cfa_offset 16
 884              		.cfi_offset 3, -16
 885              		.cfi_offset 4, -12
 886              		.cfi_offset 5, -8
 887              		.cfi_offset 14, -4
 200:../../source/src/kernel/OS_LIB/insert_sort_oo.c **** 	ASSERT(NULL != insert_sort_entity_ptr);
 888              		.loc 1 200 0
 889 02aa 48B1     		cbz	r0, .L93
 201:../../source/src/kernel/OS_LIB/insert_sort_oo.c **** 	if(NULL == insert_sort_entity_ptr)
 202:../../source/src/kernel/OS_LIB/insert_sort_oo.c **** 	{
 203:../../source/src/kernel/OS_LIB/insert_sort_oo.c **** 		return -ERROR_NULL_INPUT_PTR;
 204:../../source/src/kernel/OS_LIB/insert_sort_oo.c **** 	}
 205:../../source/src/kernel/OS_LIB/insert_sort_oo.c **** PRIVATE
 206:../../source/src/kernel/OS_LIB/insert_sort_oo.c **** 	insert_sort_entity_ptr->data_num             = 0;
 890              		.loc 1 206 0
 891 02ac 0024     		movs	r4, #0
 207:../../source/src/kernel/OS_LIB/insert_sort_oo.c **** 	insert_sort_entity_ptr->compare              = compare;
 208:../../source/src/kernel/OS_LIB/insert_sort_oo.c **** 	insert_sort_entity_ptr->get_data_ptr         = get_data_ptr;
 209:../../source/src/kernel/OS_LIB/insert_sort_oo.c **** 	insert_sort_entity_ptr->value_cmp            = value_cmp;
 210:../../source/src/kernel/OS_LIB/insert_sort_oo.c **** 	INIT_LIST_HEAD(&insert_sort_entity_ptr->data_list_head);
 211:../../source/src/kernel/OS_LIB/insert_sort_oo.c **** 	return FUN_EXECUTE_SUCCESSFULLY;
 892              		.loc 1 211 0
 893 02ae 2546     		mov	r5, r4
 208:../../source/src/kernel/OS_LIB/insert_sort_oo.c **** 	insert_sort_entity_ptr->value_cmp            = value_cmp;
 894              		.loc 1 208 0
 895 02b0 C0E90312 		strd	r1, r2, [r0, #12]
 209:../../source/src/kernel/OS_LIB/insert_sort_oo.c **** 	INIT_LIST_HEAD(&insert_sort_entity_ptr->data_list_head);
ARM GAS  G:\Users\Jaxb\AppData\Local\Temp\cc22GpwV.s 			page 23


 896              		.loc 1 209 0
 897 02b4 4361     		str	r3, [r0, #20]
 898              	.LVL118:
 899              	.LBB90:
 900              	.LBB91:
  19:../../source/include/os_lib/double_linked_list.h **** }
 901              		.loc 2 19 0
 902 02b6 C0E90000 		strd	r0, r0, [r0]
 903              	.LVL119:
 904              	.LBE91:
 905              	.LBE90:
 206:../../source/src/kernel/OS_LIB/insert_sort_oo.c **** 	insert_sort_entity_ptr->compare              = compare;
 906              		.loc 1 206 0
 907 02ba 8460     		str	r4, [r0, #8]
 212:../../source/src/kernel/OS_LIB/insert_sort_oo.c **** }
 908              		.loc 1 212 0
 909 02bc 2846     		mov	r0, r5
 910              	.LVL120:
 911 02be 38BD     		pop	{r3, r4, r5, pc}
 912              	.LVL121:
 913              	.L93:
 203:../../source/src/kernel/OS_LIB/insert_sort_oo.c **** 	}
 914              		.loc 1 203 0 discriminator 1
 915 02c0 6FF0FE05 		mvn	r5, #254
 200:../../source/src/kernel/OS_LIB/insert_sort_oo.c **** 	if(NULL == insert_sort_entity_ptr)
 916              		.loc 1 200 0 discriminator 1
 917 02c4 C821     		movs	r1, #200
 918              	.LVL122:
 919 02c6 0248     		ldr	r0, .L94
 920              	.LVL123:
 921 02c8 FFF7FEFF 		bl	_ASSERT
 922              	.LVL124:
 923              		.loc 1 212 0 discriminator 1
 924 02cc 2846     		mov	r0, r5
 925 02ce 38BD     		pop	{r3, r4, r5, pc}
 926              	.L95:
 927              		.align	2
 928              	.L94:
 929 02d0 00000000 		.word	.LC0
 930              		.cfi_endproc
 931              	.LFE18:
 932              		.size	init_insert_sort_entity, .-init_insert_sort_entity
 933              		.align	1
 934              		.p2align 2,,3
 935              		.global	insert_sort_get_first_data_ptr
 936              		.syntax unified
 937              		.thumb
 938              		.thumb_func
 939              		.fpu softvfp
 940              		.type	insert_sort_get_first_data_ptr, %function
 941              	insert_sort_get_first_data_ptr:
 942              	.LFB19:
 213:../../source/src/kernel/OS_LIB/insert_sort_oo.c **** 
 214:../../source/src/kernel/OS_LIB/insert_sort_oo.c **** 
 215:../../source/src/kernel/OS_LIB/insert_sort_oo.c **** inline struct insert_sort_data * insert_sort_get_first_data_ptr(struct insert_sort_entity *insert_s
 216:../../source/src/kernel/OS_LIB/insert_sort_oo.c **** {
 943              		.loc 1 216 0
ARM GAS  G:\Users\Jaxb\AppData\Local\Temp\cc22GpwV.s 			page 24


 944              		.cfi_startproc
 945              		@ args = 0, pretend = 0, frame = 0
 946              		@ frame_needed = 0, uses_anonymous_args = 0
 947              	.LVL125:
 948 02d4 10B5     		push	{r4, lr}
 949              	.LCFI9:
 950              		.cfi_def_cfa_offset 8
 951              		.cfi_offset 4, -8
 952              		.cfi_offset 14, -4
 217:../../source/src/kernel/OS_LIB/insert_sort_oo.c **** 	ASSERT(NULL != insert_sort_entity_ptr);
 953              		.loc 1 217 0
 954 02d6 0446     		mov	r4, r0
 955 02d8 28B1     		cbz	r0, .L102
 956              	.LVL126:
 957              	.LBB92:
 958              	.LBB93:
 959              		.loc 2 84 0
 960 02da 0068     		ldr	r0, [r0]
 961              	.LVL127:
 962              	.LBE93:
 963              	.LBE92:
 218:../../source/src/kernel/OS_LIB/insert_sort_oo.c **** #if CONFIG_PARA_CHECK
 219:../../source/src/kernel/OS_LIB/insert_sort_oo.c **** 	if(NULL == insert_sort_entity_ptr)
 220:../../source/src/kernel/OS_LIB/insert_sort_oo.c **** 	{
 221:../../source/src/kernel/OS_LIB/insert_sort_oo.c **** 		OS_ERROR_PARA_MESSAGE_DISPLAY(insert_sort_get_first_data_ptr,insert_sort_entity_ptr);
 222:../../source/src/kernel/OS_LIB/insert_sort_oo.c **** 		return NULL;
 223:../../source/src/kernel/OS_LIB/insert_sort_oo.c **** 	}
 224:../../source/src/kernel/OS_LIB/insert_sort_oo.c **** #endif
 225:../../source/src/kernel/OS_LIB/insert_sort_oo.c **** 	if(list_empty(&insert_sort_entity_ptr->data_list_head))
 964              		.loc 1 225 0
 965 02dc 8442     		cmp	r4, r0
 966              	.LBB94:
 226:../../source/src/kernel/OS_LIB/insert_sort_oo.c **** 	{
 227:../../source/src/kernel/OS_LIB/insert_sort_oo.c **** 		return NULL;
 228:../../source/src/kernel/OS_LIB/insert_sort_oo.c **** 	}
 229:../../source/src/kernel/OS_LIB/insert_sort_oo.c **** 	return list_entry(insert_sort_entity_ptr->data_list_head.next,struct insert_sort_data,data_list);
 967              		.loc 1 229 0
 968 02de 18BF     		it	ne
 969 02e0 1038     		subne	r0, r0, #16
 970              	.LBE94:
 225:../../source/src/kernel/OS_LIB/insert_sort_oo.c **** 	{
 971              		.loc 1 225 0
 972 02e2 09D0     		beq	.L103
 230:../../source/src/kernel/OS_LIB/insert_sort_oo.c **** }
 973              		.loc 1 230 0
 974 02e4 10BD     		pop	{r4, pc}
 975              	.LVL128:
 976              	.L102:
 217:../../source/src/kernel/OS_LIB/insert_sort_oo.c **** #if CONFIG_PARA_CHECK
 977              		.loc 1 217 0 discriminator 1
 978 02e6 D921     		movs	r1, #217
 979 02e8 0448     		ldr	r0, .L104
 980              	.LVL129:
 981 02ea FFF7FEFF 		bl	_ASSERT
 982              	.LVL130:
 221:../../source/src/kernel/OS_LIB/insert_sort_oo.c **** 		return NULL;
 983              		.loc 1 221 0 discriminator 1
ARM GAS  G:\Users\Jaxb\AppData\Local\Temp\cc22GpwV.s 			page 25


 984 02ee 0448     		ldr	r0, .L104+4
 985 02f0 FFF7FEFF 		bl	ka_printf
 986              	.LVL131:
 222:../../source/src/kernel/OS_LIB/insert_sort_oo.c **** 	}
 987              		.loc 1 222 0 discriminator 1
 988 02f4 2046     		mov	r0, r4
 989              		.loc 1 230 0 discriminator 1
 990 02f6 10BD     		pop	{r4, pc}
 991              	.LVL132:
 992              	.L103:
 227:../../source/src/kernel/OS_LIB/insert_sort_oo.c **** 	}
 993              		.loc 1 227 0
 994 02f8 0020     		movs	r0, #0
 995              		.loc 1 230 0
 996 02fa 10BD     		pop	{r4, pc}
 997              	.LVL133:
 998              	.L105:
 999              		.align	2
 1000              	.L104:
 1001 02fc 00000000 		.word	.LC0
 1002 0300 E0020000 		.word	.LC10
 1003              		.cfi_endproc
 1004              	.LFE19:
 1005              		.size	insert_sort_get_first_data_ptr, .-insert_sort_get_first_data_ptr
 1006              		.section	.rodata.str1.4,"aMS",%progbits,1
 1007              		.align	2
 1008              	.LC0:
 1009 0000 2E2E2F2E 		.ascii	"../../source/src/kernel/OS_LIB/insert_sort_oo.c\000"
 1009      2E2F736F 
 1009      75726365 
 1009      2F737263 
 1009      2F6B6572 
 1010              	.LC1:
 1011 0030 6572726F 		.ascii	"error fun name : insert_sort_insert_into\012error p"
 1011      72206675 
 1011      6E206E61 
 1011      6D65203A 
 1011      20696E73 
 1012 0060 61726120 		.ascii	"ara : data_ptr\012\000"
 1012      3A206461 
 1012      74615F70 
 1012      74720A00 
 1013              	.LC2:
 1014 0070 6572726F 		.ascii	"error fun name : insert_sort_insert_into\012error p"
 1014      72206675 
 1014      6E206E61 
 1014      6D65203A 
 1014      20696E73 
 1015 00a0 61726120 		.ascii	"ara : insert_sort_entity_ptr\012\000"
 1015      3A20696E 
 1015      73657274 
 1015      5F736F72 
 1015      745F656E 
 1016 00be 0000     		.space	2
 1017              	.LC3:
 1018 00c0 6572726F 		.ascii	"error fun name : insert_sort_find_data\012error par"
 1018      72206675 
ARM GAS  G:\Users\Jaxb\AppData\Local\Temp\cc22GpwV.s 			page 26


 1018      6E206E61 
 1018      6D65203A 
 1018      20696E73 
 1019 00f0 61203A20 		.ascii	"a : data_ptr\012\000"
 1019      64617461 
 1019      5F707472 
 1019      0A00
 1020 00fe 0000     		.space	2
 1021              	.LC4:
 1022 0100 6572726F 		.ascii	"error fun name : insert_sort_find_data\012error par"
 1022      72206675 
 1022      6E206E61 
 1022      6D65203A 
 1022      20696E73 
 1023 0130 61203A20 		.ascii	"a : insert_sort_entity_ptr\012\000"
 1023      696E7365 
 1023      72745F73 
 1023      6F72745F 
 1023      656E7469 
 1024              	.LC5:
 1025 014c 6572726F 		.ascii	"error fun name : insert_sort_find_data_with_id\012e"
 1025      72206675 
 1025      6E206E61 
 1025      6D65203A 
 1025      20696E73 
 1026 017c 72726F72 		.ascii	"rror para : data_ptr\012\000"
 1026      20706172 
 1026      61203A20 
 1026      64617461 
 1026      5F707472 
 1027 0192 0000     		.space	2
 1028              	.LC6:
 1029 0194 6572726F 		.ascii	"error fun name : insert_sort_find_data_with_id\012e"
 1029      72206675 
 1029      6E206E61 
 1029      6D65203A 
 1029      20696E73 
 1030 01c4 72726F72 		.ascii	"rror para : insert_sort_entity_ptr\012\000"
 1030      20706172 
 1030      61203A20 
 1030      696E7365 
 1030      72745F73 
 1031              	.LC7:
 1032 01e8 6572726F 		.ascii	"error fun name : insert_sort_delete_head\012error p"
 1032      72206675 
 1032      6E206E61 
 1032      6D65203A 
 1032      20696E73 
 1033 0218 61726120 		.ascii	"ara : insert_sort_entity_ptr\012\000"
 1033      3A20696E 
 1033      73657274 
 1033      5F736F72 
 1033      745F656E 
 1034 0236 0000     		.space	2
 1035              	.LC8:
 1036 0238 6572726F 		.ascii	"error fun name : insert_sort_delete_data\012error p"
 1036      72206675 
ARM GAS  G:\Users\Jaxb\AppData\Local\Temp\cc22GpwV.s 			page 27


 1036      6E206E61 
 1036      6D65203A 
 1036      20696E73 
 1037 0268 61726120 		.ascii	"ara : insert_sort_entity_ptr\012\000"
 1037      3A20696E 
 1037      73657274 
 1037      5F736F72 
 1037      745F656E 
 1038 0286 0000     		.space	2
 1039              	.LC9:
 1040 0288 6572726F 		.ascii	"error fun name : insert_sort_delete_data_with_id\012"
 1040      72206675 
 1040      6E206E61 
 1040      6D65203A 
 1040      20696E73 
 1041 02b9 6572726F 		.ascii	"error para : insert_sort_entity_ptr\012\000"
 1041      72207061 
 1041      7261203A 
 1041      20696E73 
 1041      6572745F 
 1042 02de 0000     		.space	2
 1043              	.LC10:
 1044 02e0 6572726F 		.ascii	"error fun name : insert_sort_get_first_data_ptr\012"
 1044      72206675 
 1044      6E206E61 
 1044      6D65203A 
 1044      20696E73 
 1045 0310 6572726F 		.ascii	"error para : insert_sort_entity_ptr\012\000"
 1045      72207061 
 1045      7261203A 
 1045      20696E73 
 1045      6572745F 
 1046              		.text
 1047              	.Letext0:
 1048              		.file 3 "../../source/include/os_cpu/kakaosstdint.h"
 1049              		.file 4 "../../source/include/os_lib/insert_sort_oo.h"
 1050              		.file 5 "../../source/include/os_lib/myassert.h"
 1051              		.file 6 "../../source/include/os_lib/myMicroLIB.h"
 1052              		.section	.debug_info,"",%progbits
 1053              	.Ldebug_info0:
 1054 0000 FC0B0000 		.4byte	0xbfc
 1055 0004 0200     		.2byte	0x2
 1056 0006 00000000 		.4byte	.Ldebug_abbrev0
 1057 000a 04       		.byte	0x4
 1058 000b 01       		.uleb128 0x1
 1059 000c C2020000 		.4byte	.LASF30
 1060 0010 0C       		.byte	0xc
 1061 0011 89020000 		.4byte	.LASF31
 1062 0015 9A030000 		.4byte	.LASF32
 1063 0019 00000000 		.4byte	.Ltext0
 1064 001d 04030000 		.4byte	.Letext0
 1065 0021 00000000 		.4byte	.Ldebug_line0
 1066 0025 02       		.uleb128 0x2
 1067 0026 08       		.byte	0x8
 1068 0027 07       		.byte	0x7
 1069 0028 E3010000 		.4byte	.LASF2
 1070 002c 03       		.uleb128 0x3
ARM GAS  G:\Users\Jaxb\AppData\Local\Temp\cc22GpwV.s 			page 28


 1071 002d 2F020000 		.4byte	.LASF12
 1072 0031 08       		.byte	0x8
 1073 0032 02       		.byte	0x2
 1074 0033 04       		.byte	0x4
 1075 0034 55000000 		.4byte	0x55
 1076 0038 04       		.uleb128 0x4
 1077 0039 24000000 		.4byte	.LASF0
 1078 003d 02       		.byte	0x2
 1079 003e 05       		.byte	0x5
 1080 003f 5A000000 		.4byte	0x5a
 1081 0043 02       		.byte	0x2
 1082 0044 23       		.byte	0x23
 1083 0045 00       		.uleb128 0
 1084 0046 04       		.uleb128 0x4
 1085 0047 95030000 		.4byte	.LASF1
 1086 004b 02       		.byte	0x2
 1087 004c 05       		.byte	0x5
 1088 004d 5A000000 		.4byte	0x5a
 1089 0051 02       		.byte	0x2
 1090 0052 23       		.byte	0x23
 1091 0053 04       		.uleb128 0x4
 1092 0054 00       		.byte	0
 1093 0055 05       		.uleb128 0x5
 1094 0056 2C000000 		.4byte	0x2c
 1095 005a 06       		.uleb128 0x6
 1096 005b 04       		.byte	0x4
 1097 005c 2C000000 		.4byte	0x2c
 1098 0060 02       		.uleb128 0x2
 1099 0061 01       		.byte	0x1
 1100 0062 06       		.byte	0x6
 1101 0063 70030000 		.4byte	.LASF3
 1102 0067 02       		.uleb128 0x2
 1103 0068 02       		.byte	0x2
 1104 0069 05       		.byte	0x5
 1105 006a 6D020000 		.4byte	.LASF4
 1106 006e 07       		.uleb128 0x7
 1107 006f 04       		.byte	0x4
 1108 0070 05       		.byte	0x5
 1109 0071 696E7400 		.ascii	"int\000"
 1110 0075 02       		.uleb128 0x2
 1111 0076 08       		.byte	0x8
 1112 0077 05       		.byte	0x5
 1113 0078 39020000 		.4byte	.LASF5
 1114 007c 02       		.uleb128 0x2
 1115 007d 01       		.byte	0x1
 1116 007e 08       		.byte	0x8
 1117 007f F5000000 		.4byte	.LASF6
 1118 0083 02       		.uleb128 0x2
 1119 0084 02       		.byte	0x2
 1120 0085 07       		.byte	0x7
 1121 0086 29010000 		.4byte	.LASF7
 1122 008a 02       		.uleb128 0x2
 1123 008b 04       		.byte	0x4
 1124 008c 07       		.byte	0x7
 1125 008d D6010000 		.4byte	.LASF8
 1126 0091 08       		.uleb128 0x8
 1127 0092 19010000 		.4byte	.LASF9
ARM GAS  G:\Users\Jaxb\AppData\Local\Temp\cc22GpwV.s 			page 29


 1128 0096 03       		.byte	0x3
 1129 0097 0D       		.byte	0xd
 1130 0098 25000000 		.4byte	0x25
 1131 009c 08       		.uleb128 0x8
 1132 009d 1D000000 		.4byte	.LASF10
 1133 00a1 03       		.byte	0x3
 1134 00a2 23       		.byte	0x23
 1135 00a3 8A000000 		.4byte	0x8a
 1136 00a7 08       		.uleb128 0x8
 1137 00a8 18020000 		.4byte	.LASF11
 1138 00ac 04       		.byte	0x4
 1139 00ad 0D       		.byte	0xd
 1140 00ae 91000000 		.4byte	0x91
 1141 00b2 03       		.uleb128 0x3
 1142 00b3 29000000 		.4byte	.LASF13
 1143 00b7 18       		.byte	0x18
 1144 00b8 04       		.byte	0x4
 1145 00b9 0F       		.byte	0xf
 1146 00ba E9000000 		.4byte	0xe9
 1147 00be 04       		.uleb128 0x4
 1148 00bf B9020000 		.4byte	.LASF14
 1149 00c3 04       		.byte	0x4
 1150 00c4 11       		.byte	0x11
 1151 00c5 E9000000 		.4byte	0xe9
 1152 00c9 02       		.byte	0x2
 1153 00ca 23       		.byte	0x23
 1154 00cb 00       		.uleb128 0
 1155 00cc 04       		.uleb128 0x4
 1156 00cd 8D000000 		.4byte	.LASF15
 1157 00d1 04       		.byte	0x4
 1158 00d2 12       		.byte	0x12
 1159 00d3 A7000000 		.4byte	0xa7
 1160 00d7 02       		.byte	0x2
 1161 00d8 23       		.byte	0x23
 1162 00d9 08       		.uleb128 0x8
 1163 00da 04       		.uleb128 0x4
 1164 00db 52000000 		.4byte	.LASF16
 1165 00df 04       		.byte	0x4
 1166 00e0 13       		.byte	0x13
 1167 00e1 2C000000 		.4byte	0x2c
 1168 00e5 02       		.byte	0x2
 1169 00e6 23       		.byte	0x23
 1170 00e7 10       		.uleb128 0x10
 1171 00e8 00       		.byte	0
 1172 00e9 09       		.uleb128 0x9
 1173 00ea 04       		.byte	0x4
 1174 00eb 03       		.uleb128 0x3
 1175 00ec 71000000 		.4byte	.LASF17
 1176 00f0 18       		.byte	0x18
 1177 00f1 04       		.byte	0x4
 1178 00f2 1D       		.byte	0x1d
 1179 00f3 3E010000 		.4byte	0x13e
 1180 00f7 04       		.uleb128 0x4
 1181 00f8 20020000 		.4byte	.LASF18
 1182 00fc 04       		.byte	0x4
 1183 00fd 27       		.byte	0x27
 1184 00fe 2C000000 		.4byte	0x2c
ARM GAS  G:\Users\Jaxb\AppData\Local\Temp\cc22GpwV.s 			page 30


 1185 0102 02       		.byte	0x2
 1186 0103 23       		.byte	0x23
 1187 0104 00       		.uleb128 0
 1188 0105 04       		.uleb128 0x4
 1189 0106 20010000 		.4byte	.LASF19
 1190 010a 04       		.byte	0x4
 1191 010b 28       		.byte	0x28
 1192 010c 8A000000 		.4byte	0x8a
 1193 0110 02       		.byte	0x2
 1194 0111 23       		.byte	0x23
 1195 0112 08       		.uleb128 0x8
 1196 0113 04       		.uleb128 0x4
 1197 0114 7C030000 		.4byte	.LASF20
 1198 0118 04       		.byte	0x4
 1199 0119 2C       		.byte	0x2c
 1200 011a 59010000 		.4byte	0x159
 1201 011e 02       		.byte	0x2
 1202 011f 23       		.byte	0x23
 1203 0120 0C       		.uleb128 0xc
 1204 0121 04       		.uleb128 0x4
 1205 0122 B9010000 		.4byte	.LASF21
 1206 0126 04       		.byte	0x4
 1207 0127 2D       		.byte	0x2d
 1208 0128 74010000 		.4byte	0x174
 1209 012c 02       		.byte	0x2
 1210 012d 23       		.byte	0x23
 1211 012e 10       		.uleb128 0x10
 1212 012f 04       		.uleb128 0x4
 1213 0130 67000000 		.4byte	.LASF22
 1214 0134 04       		.byte	0x4
 1215 0135 2E       		.byte	0x2e
 1216 0136 8F010000 		.4byte	0x18f
 1217 013a 02       		.byte	0x2
 1218 013b 23       		.byte	0x23
 1219 013c 14       		.uleb128 0x14
 1220 013d 00       		.byte	0
 1221 013e 0A       		.uleb128 0xa
 1222 013f 01       		.byte	0x1
 1223 0140 6E000000 		.4byte	0x6e
 1224 0144 53010000 		.4byte	0x153
 1225 0148 0B       		.uleb128 0xb
 1226 0149 53010000 		.4byte	0x153
 1227 014d 0B       		.uleb128 0xb
 1228 014e 53010000 		.4byte	0x153
 1229 0152 00       		.byte	0
 1230 0153 06       		.uleb128 0x6
 1231 0154 04       		.byte	0x4
 1232 0155 B2000000 		.4byte	0xb2
 1233 0159 06       		.uleb128 0x6
 1234 015a 04       		.byte	0x4
 1235 015b 3E010000 		.4byte	0x13e
 1236 015f 0A       		.uleb128 0xa
 1237 0160 01       		.byte	0x1
 1238 0161 6E000000 		.4byte	0x6e
 1239 0165 74010000 		.4byte	0x174
 1240 0169 0B       		.uleb128 0xb
 1241 016a 53010000 		.4byte	0x153
ARM GAS  G:\Users\Jaxb\AppData\Local\Temp\cc22GpwV.s 			page 31


 1242 016e 0B       		.uleb128 0xb
 1243 016f E9000000 		.4byte	0xe9
 1244 0173 00       		.byte	0
 1245 0174 06       		.uleb128 0x6
 1246 0175 04       		.byte	0x4
 1247 0176 5F010000 		.4byte	0x15f
 1248 017a 0A       		.uleb128 0xa
 1249 017b 01       		.byte	0x1
 1250 017c 6E000000 		.4byte	0x6e
 1251 0180 8F010000 		.4byte	0x18f
 1252 0184 0B       		.uleb128 0xb
 1253 0185 E9000000 		.4byte	0xe9
 1254 0189 0B       		.uleb128 0xb
 1255 018a E9000000 		.4byte	0xe9
 1256 018e 00       		.byte	0
 1257 018f 06       		.uleb128 0x6
 1258 0190 04       		.byte	0x4
 1259 0191 7A010000 		.4byte	0x17a
 1260 0195 0C       		.uleb128 0xc
 1261 0196 01       		.byte	0x1
 1262 0197 9B000000 		.4byte	.LASF23
 1263 019b 01       		.byte	0x1
 1264 019c D7       		.byte	0xd7
 1265 019d 01       		.byte	0x1
 1266 019e 53010000 		.4byte	0x153
 1267 01a2 D4020000 		.4byte	.LFB19
 1268 01a6 04030000 		.4byte	.LFE19
 1269 01aa 00000000 		.4byte	.LLST70
 1270 01ae 01       		.byte	0x1
 1271 01af 29020000 		.4byte	0x229
 1272 01b3 0D       		.uleb128 0xd
 1273 01b4 47020000 		.4byte	.LASF25
 1274 01b8 01       		.byte	0x1
 1275 01b9 D7       		.byte	0xd7
 1276 01ba 29020000 		.4byte	0x229
 1277 01be 20000000 		.4byte	.LLST71
 1278 01c2 0E       		.uleb128 0xe
 1279 01c3 DE020000 		.4byte	.LBB94
 1280 01c7 E2020000 		.4byte	.LBE94
 1281 01cb DB010000 		.4byte	0x1db
 1282 01cf 0F       		.uleb128 0xf
 1283 01d0 3C010000 		.4byte	.LASF36
 1284 01d4 01       		.byte	0x1
 1285 01d5 E5       		.byte	0xe5
 1286 01d6 2F020000 		.4byte	0x22f
 1287 01da 00       		.byte	0
 1288 01db 10       		.uleb128 0x10
 1289 01dc 19090000 		.4byte	0x919
 1290 01e0 DA020000 		.4byte	.LBB92
 1291 01e4 DC020000 		.4byte	.LBE92
 1292 01e8 01       		.byte	0x1
 1293 01e9 E1       		.byte	0xe1
 1294 01ea F8010000 		.4byte	0x1f8
 1295 01ee 11       		.uleb128 0x11
 1296 01ef 2A090000 		.4byte	0x92a
 1297 01f3 62000000 		.4byte	.LLST72
 1298 01f7 00       		.byte	0
ARM GAS  G:\Users\Jaxb\AppData\Local\Temp\cc22GpwV.s 			page 32


 1299 01f8 12       		.uleb128 0x12
 1300 01f9 EE020000 		.4byte	.LVL130
 1301 01fd E50B0000 		.4byte	0xbe5
 1302 0201 15020000 		.4byte	0x215
 1303 0205 13       		.uleb128 0x13
 1304 0206 01       		.byte	0x1
 1305 0207 50       		.byte	0x50
 1306 0208 05       		.byte	0x5
 1307 0209 03       		.byte	0x3
 1308 020a 00000000 		.4byte	.LC0
 1309 020e 13       		.uleb128 0x13
 1310 020f 01       		.byte	0x1
 1311 0210 51       		.byte	0x51
 1312 0211 02       		.byte	0x2
 1313 0212 08       		.byte	0x8
 1314 0213 D9       		.byte	0xd9
 1315 0214 00       		.byte	0
 1316 0215 14       		.uleb128 0x14
 1317 0216 F4020000 		.4byte	.LVL131
 1318 021a F20B0000 		.4byte	0xbf2
 1319 021e 13       		.uleb128 0x13
 1320 021f 01       		.byte	0x1
 1321 0220 50       		.byte	0x50
 1322 0221 05       		.byte	0x5
 1323 0222 03       		.byte	0x3
 1324 0223 E0020000 		.4byte	.LC10
 1325 0227 00       		.byte	0
 1326 0228 00       		.byte	0
 1327 0229 06       		.uleb128 0x6
 1328 022a 04       		.byte	0x4
 1329 022b EB000000 		.4byte	0xeb
 1330 022f 06       		.uleb128 0x6
 1331 0230 04       		.byte	0x4
 1332 0231 55000000 		.4byte	0x55
 1333 0235 0C       		.uleb128 0xc
 1334 0236 01       		.byte	0x1
 1335 0237 A1010000 		.4byte	.LASF24
 1336 023b 01       		.byte	0x1
 1337 023c C1       		.byte	0xc1
 1338 023d 01       		.byte	0x1
 1339 023e 6E000000 		.4byte	0x6e
 1340 0242 A8020000 		.4byte	.LFB18
 1341 0246 D4020000 		.4byte	.LFE18
 1342 024a 75000000 		.4byte	.LLST64
 1343 024e 01       		.byte	0x1
 1344 024f C6020000 		.4byte	0x2c6
 1345 0253 0D       		.uleb128 0xd
 1346 0254 47020000 		.4byte	.LASF25
 1347 0258 01       		.byte	0x1
 1348 0259 C2       		.byte	0xc2
 1349 025a 29020000 		.4byte	0x229
 1350 025e 95000000 		.4byte	.LLST65
 1351 0262 0D       		.uleb128 0xd
 1352 0263 7C030000 		.4byte	.LASF20
 1353 0267 01       		.byte	0x1
 1354 0268 C3       		.byte	0xc3
 1355 0269 59010000 		.4byte	0x159
ARM GAS  G:\Users\Jaxb\AppData\Local\Temp\cc22GpwV.s 			page 33


 1356 026d CF000000 		.4byte	.LLST66
 1357 0271 0D       		.uleb128 0xd
 1358 0272 B9010000 		.4byte	.LASF21
 1359 0276 01       		.byte	0x1
 1360 0277 C4       		.byte	0xc4
 1361 0278 74010000 		.4byte	0x174
 1362 027c F0000000 		.4byte	.LLST67
 1363 0280 0D       		.uleb128 0xd
 1364 0281 67000000 		.4byte	.LASF22
 1365 0285 01       		.byte	0x1
 1366 0286 C5       		.byte	0xc5
 1367 0287 8F010000 		.4byte	0x18f
 1368 028b 11010000 		.4byte	.LLST68
 1369 028f 10       		.uleb128 0x10
 1370 0290 C6090000 		.4byte	0x9c6
 1371 0294 B6020000 		.4byte	.LBB90
 1372 0298 BA020000 		.4byte	.LBE90
 1373 029c 01       		.byte	0x1
 1374 029d D2       		.byte	0xd2
 1375 029e AC020000 		.4byte	0x2ac
 1376 02a2 11       		.uleb128 0x11
 1377 02a3 D3090000 		.4byte	0x9d3
 1378 02a7 3D010000 		.4byte	.LLST69
 1379 02ab 00       		.byte	0
 1380 02ac 14       		.uleb128 0x14
 1381 02ad CC020000 		.4byte	.LVL124
 1382 02b1 E50B0000 		.4byte	0xbe5
 1383 02b5 13       		.uleb128 0x13
 1384 02b6 01       		.byte	0x1
 1385 02b7 50       		.byte	0x50
 1386 02b8 05       		.byte	0x5
 1387 02b9 03       		.byte	0x3
 1388 02ba 00000000 		.4byte	.LC0
 1389 02be 13       		.uleb128 0x13
 1390 02bf 01       		.byte	0x1
 1391 02c0 51       		.byte	0x51
 1392 02c1 02       		.byte	0x2
 1393 02c2 08       		.byte	0x8
 1394 02c3 C8       		.byte	0xc8
 1395 02c4 00       		.byte	0
 1396 02c5 00       		.byte	0
 1397 02c6 15       		.uleb128 0x15
 1398 02c7 01       		.byte	0x1
 1399 02c8 43010000 		.4byte	.LASF27
 1400 02cc 01       		.byte	0x1
 1401 02cd B9       		.byte	0xb9
 1402 02ce 01       		.byte	0x1
 1403 02cf 94020000 		.4byte	.LFB17
 1404 02d3 A6020000 		.4byte	.LFE17
 1405 02d7 50010000 		.4byte	.LLST60
 1406 02db 01       		.byte	0x1
 1407 02dc 25030000 		.4byte	0x325
 1408 02e0 0D       		.uleb128 0xd
 1409 02e1 BA000000 		.4byte	.LASF26
 1410 02e5 01       		.byte	0x1
 1411 02e6 B9       		.byte	0xb9
 1412 02e7 53010000 		.4byte	0x153
ARM GAS  G:\Users\Jaxb\AppData\Local\Temp\cc22GpwV.s 			page 34


 1413 02eb 70010000 		.4byte	.LLST61
 1414 02ef 0D       		.uleb128 0xd
 1415 02f0 B9020000 		.4byte	.LASF14
 1416 02f4 01       		.byte	0x1
 1417 02f5 B9       		.byte	0xb9
 1418 02f6 E9000000 		.4byte	0xe9
 1419 02fa 8E010000 		.4byte	.LLST62
 1420 02fe 0D       		.uleb128 0xd
 1421 02ff 8D000000 		.4byte	.LASF15
 1422 0303 01       		.byte	0x1
 1423 0304 B9       		.byte	0xb9
 1424 0305 A7000000 		.4byte	0xa7
 1425 0309 AF010000 		.4byte	.LLST63
 1426 030d 14       		.uleb128 0x14
 1427 030e A0020000 		.4byte	.LVL116
 1428 0312 25030000 		.4byte	0x325
 1429 0316 13       		.uleb128 0x13
 1430 0317 01       		.byte	0x1
 1431 0318 50       		.byte	0x50
 1432 0319 02       		.byte	0x2
 1433 031a 74       		.byte	0x74
 1434 031b 00       		.sleb128 0
 1435 031c 13       		.uleb128 0x13
 1436 031d 01       		.byte	0x1
 1437 031e 51       		.byte	0x51
 1438 031f 03       		.byte	0x3
 1439 0320 F3       		.byte	0xf3
 1440 0321 01       		.uleb128 0x1
 1441 0322 51       		.byte	0x51
 1442 0323 00       		.byte	0
 1443 0324 00       		.byte	0
 1444 0325 15       		.uleb128 0x15
 1445 0326 01       		.byte	0x1
 1446 0327 03010000 		.4byte	.LASF28
 1447 032b 01       		.byte	0x1
 1448 032c B0       		.byte	0xb0
 1449 032d 01       		.byte	0x1
 1450 032e 58020000 		.4byte	.LFB16
 1451 0332 94020000 		.4byte	.LFE16
 1452 0336 D7010000 		.4byte	.LLST56
 1453 033a 01       		.byte	0x1
 1454 033b B1030000 		.4byte	0x3b1
 1455 033f 0D       		.uleb128 0xd
 1456 0340 BA000000 		.4byte	.LASF26
 1457 0344 01       		.byte	0x1
 1458 0345 B0       		.byte	0xb0
 1459 0346 53010000 		.4byte	0x153
 1460 034a F7010000 		.4byte	.LLST57
 1461 034e 0D       		.uleb128 0xd
 1462 034f B9020000 		.4byte	.LASF14
 1463 0353 01       		.byte	0x1
 1464 0354 B0       		.byte	0xb0
 1465 0355 E9000000 		.4byte	0xe9
 1466 0359 39020000 		.4byte	.LLST58
 1467 035d 16       		.uleb128 0x16
 1468 035e C6090000 		.4byte	0x9c6
 1469 0362 68020000 		.4byte	.LBB86
ARM GAS  G:\Users\Jaxb\AppData\Local\Temp\cc22GpwV.s 			page 35


 1470 0366 78000000 		.4byte	.Ldebug_ranges0+0x78
 1471 036a 01       		.byte	0x1
 1472 036b B5       		.byte	0xb5
 1473 036c 7A030000 		.4byte	0x37a
 1474 0370 11       		.uleb128 0x11
 1475 0371 D3090000 		.4byte	0x9d3
 1476 0375 7A020000 		.4byte	.LLST59
 1477 0379 00       		.byte	0
 1478 037a 12       		.uleb128 0x12
 1479 037b 76020000 		.4byte	.LVL110
 1480 037f E50B0000 		.4byte	0xbe5
 1481 0383 97030000 		.4byte	0x397
 1482 0387 13       		.uleb128 0x13
 1483 0388 01       		.byte	0x1
 1484 0389 50       		.byte	0x50
 1485 038a 05       		.byte	0x5
 1486 038b 03       		.byte	0x3
 1487 038c 00000000 		.4byte	.LC0
 1488 0390 13       		.uleb128 0x13
 1489 0391 01       		.byte	0x1
 1490 0392 51       		.byte	0x51
 1491 0393 02       		.byte	0x2
 1492 0394 08       		.byte	0x8
 1493 0395 B2       		.byte	0xb2
 1494 0396 00       		.byte	0
 1495 0397 14       		.uleb128 0x14
 1496 0398 82020000 		.4byte	.LVL111
 1497 039c E50B0000 		.4byte	0xbe5
 1498 03a0 13       		.uleb128 0x13
 1499 03a1 01       		.byte	0x1
 1500 03a2 50       		.byte	0x50
 1501 03a3 05       		.byte	0x5
 1502 03a4 03       		.byte	0x3
 1503 03a5 00000000 		.4byte	.LC0
 1504 03a9 13       		.uleb128 0x13
 1505 03aa 01       		.byte	0x1
 1506 03ab 51       		.byte	0x51
 1507 03ac 02       		.byte	0x2
 1508 03ad 08       		.byte	0x8
 1509 03ae B3       		.byte	0xb3
 1510 03af 00       		.byte	0
 1511 03b0 00       		.byte	0
 1512 03b1 0C       		.uleb128 0xc
 1513 03b2 01       		.byte	0x1
 1514 03b3 77010000 		.4byte	.LASF29
 1515 03b7 01       		.byte	0x1
 1516 03b8 93       		.byte	0x93
 1517 03b9 01       		.byte	0x1
 1518 03ba 53010000 		.4byte	0x153
 1519 03be 0C020000 		.4byte	.LFB15
 1520 03c2 58020000 		.4byte	.LFE15
 1521 03c6 98020000 		.4byte	.LLST48
 1522 03ca 01       		.byte	0x1
 1523 03cb C1040000 		.4byte	0x4c1
 1524 03cf 0D       		.uleb128 0xd
 1525 03d0 47020000 		.4byte	.LASF25
 1526 03d4 01       		.byte	0x1
ARM GAS  G:\Users\Jaxb\AppData\Local\Temp\cc22GpwV.s 			page 36


 1527 03d5 94       		.byte	0x94
 1528 03d6 29020000 		.4byte	0x229
 1529 03da B8020000 		.4byte	.LLST49
 1530 03de 0D       		.uleb128 0xd
 1531 03df B9020000 		.4byte	.LASF14
 1532 03e3 01       		.byte	0x1
 1533 03e4 95       		.byte	0x95
 1534 03e5 E9000000 		.4byte	0xe9
 1535 03e9 F7020000 		.4byte	.LLST50
 1536 03ed 0D       		.uleb128 0xd
 1537 03ee 8D000000 		.4byte	.LASF15
 1538 03f2 01       		.byte	0x1
 1539 03f3 96       		.byte	0x96
 1540 03f4 A7000000 		.4byte	0xa7
 1541 03f8 31030000 		.4byte	.LLST51
 1542 03fc 17       		.uleb128 0x17
 1543 03fd 84030000 		.4byte	.LASF34
 1544 0401 01       		.byte	0x1
 1545 0402 A0       		.byte	0xa0
 1546 0403 53010000 		.4byte	0x153
 1547 0407 79030000 		.4byte	.LLST52
 1548 040b 16       		.uleb128 0x16
 1549 040c 36090000 		.4byte	0x936
 1550 0410 1A020000 		.4byte	.LBB80
 1551 0414 60000000 		.4byte	.Ldebug_ranges0+0x60
 1552 0418 01       		.byte	0x1
 1553 0419 A8       		.byte	0xa8
 1554 041a 4A040000 		.4byte	0x44a
 1555 041e 11       		.uleb128 0x11
 1556 041f 43090000 		.4byte	0x943
 1557 0423 AD030000 		.4byte	.LLST53
 1558 0427 18       		.uleb128 0x18
 1559 0428 4F090000 		.4byte	0x94f
 1560 042c 20020000 		.4byte	.LBB82
 1561 0430 24020000 		.4byte	.LBE82
 1562 0434 02       		.byte	0x2
 1563 0435 37       		.byte	0x37
 1564 0436 11       		.uleb128 0x11
 1565 0437 67090000 		.4byte	0x967
 1566 043b C2030000 		.4byte	.LLST54
 1567 043f 11       		.uleb128 0x11
 1568 0440 5C090000 		.4byte	0x95c
 1569 0444 D5030000 		.4byte	.LLST55
 1570 0448 00       		.byte	0
 1571 0449 00       		.byte	0
 1572 044a 12       		.uleb128 0x12
 1573 044b 16020000 		.4byte	.LVL89
 1574 044f B7060000 		.4byte	0x6b7
 1575 0453 73040000 		.4byte	0x473
 1576 0457 13       		.uleb128 0x13
 1577 0458 01       		.byte	0x1
 1578 0459 50       		.byte	0x50
 1579 045a 02       		.byte	0x2
 1580 045b 75       		.byte	0x75
 1581 045c 00       		.sleb128 0
 1582 045d 13       		.uleb128 0x13
 1583 045e 01       		.byte	0x1
ARM GAS  G:\Users\Jaxb\AppData\Local\Temp\cc22GpwV.s 			page 37


 1584 045f 51       		.byte	0x51
 1585 0460 03       		.byte	0x3
 1586 0461 F3       		.byte	0xf3
 1587 0462 01       		.uleb128 0x1
 1588 0463 51       		.byte	0x51
 1589 0464 13       		.uleb128 0x13
 1590 0465 06       		.byte	0x6
 1591 0466 52       		.byte	0x52
 1592 0467 93       		.byte	0x93
 1593 0468 04       		.uleb128 0x4
 1594 0469 53       		.byte	0x53
 1595 046a 93       		.byte	0x93
 1596 046b 04       		.uleb128 0x4
 1597 046c 05       		.byte	0x5
 1598 046d F3       		.byte	0xf3
 1599 046e 03       		.uleb128 0x3
 1600 046f F5       		.byte	0xf5
 1601 0470 02       		.uleb128 0x2
 1602 0471 25       		.uleb128 0x25
 1603 0472 00       		.byte	0
 1604 0473 12       		.uleb128 0x12
 1605 0474 36020000 		.4byte	.LVL96
 1606 0478 E50B0000 		.4byte	0xbe5
 1607 047c 90040000 		.4byte	0x490
 1608 0480 13       		.uleb128 0x13
 1609 0481 01       		.byte	0x1
 1610 0482 50       		.byte	0x50
 1611 0483 05       		.byte	0x5
 1612 0484 03       		.byte	0x3
 1613 0485 00000000 		.4byte	.LC0
 1614 0489 13       		.uleb128 0x13
 1615 048a 01       		.byte	0x1
 1616 048b 51       		.byte	0x51
 1617 048c 02       		.byte	0x2
 1618 048d 08       		.byte	0x8
 1619 048e A9       		.byte	0xa9
 1620 048f 00       		.byte	0
 1621 0490 12       		.uleb128 0x12
 1622 0491 44020000 		.4byte	.LVL100
 1623 0495 E50B0000 		.4byte	0xbe5
 1624 0499 AD040000 		.4byte	0x4ad
 1625 049d 13       		.uleb128 0x13
 1626 049e 01       		.byte	0x1
 1627 049f 50       		.byte	0x50
 1628 04a0 05       		.byte	0x5
 1629 04a1 03       		.byte	0x3
 1630 04a2 00000000 		.4byte	.LC0
 1631 04a6 13       		.uleb128 0x13
 1632 04a7 01       		.byte	0x1
 1633 04a8 51       		.byte	0x51
 1634 04a9 02       		.byte	0x2
 1635 04aa 08       		.byte	0x8
 1636 04ab 98       		.byte	0x98
 1637 04ac 00       		.byte	0
 1638 04ad 14       		.uleb128 0x14
 1639 04ae 4A020000 		.4byte	.LVL101
 1640 04b2 F20B0000 		.4byte	0xbf2
ARM GAS  G:\Users\Jaxb\AppData\Local\Temp\cc22GpwV.s 			page 38


 1641 04b6 13       		.uleb128 0x13
 1642 04b7 01       		.byte	0x1
 1643 04b8 50       		.byte	0x50
 1644 04b9 05       		.byte	0x5
 1645 04ba 03       		.byte	0x3
 1646 04bb 88020000 		.4byte	.LC9
 1647 04bf 00       		.byte	0
 1648 04c0 00       		.byte	0
 1649 04c1 0C       		.uleb128 0xc
 1650 04c2 01       		.byte	0x1
 1651 04c3 05000000 		.4byte	.LASF33
 1652 04c7 01       		.byte	0x1
 1653 04c8 79       		.byte	0x79
 1654 04c9 01       		.byte	0x1
 1655 04ca 53010000 		.4byte	0x153
 1656 04ce C0010000 		.4byte	.LFB14
 1657 04d2 0C020000 		.4byte	.LFE14
 1658 04d6 E8030000 		.4byte	.LLST41
 1659 04da 01       		.byte	0x1
 1660 04db B4050000 		.4byte	0x5b4
 1661 04df 0D       		.uleb128 0xd
 1662 04e0 47020000 		.4byte	.LASF25
 1663 04e4 01       		.byte	0x1
 1664 04e5 79       		.byte	0x79
 1665 04e6 29020000 		.4byte	0x229
 1666 04ea 08040000 		.4byte	.LLST42
 1667 04ee 0D       		.uleb128 0xd
 1668 04ef B9020000 		.4byte	.LASF14
 1669 04f3 01       		.byte	0x1
 1670 04f4 79       		.byte	0x79
 1671 04f5 E9000000 		.4byte	0xe9
 1672 04f9 47040000 		.4byte	.LLST43
 1673 04fd 17       		.uleb128 0x17
 1674 04fe 84030000 		.4byte	.LASF34
 1675 0502 01       		.byte	0x1
 1676 0503 83       		.byte	0x83
 1677 0504 53010000 		.4byte	0x153
 1678 0508 81040000 		.4byte	.LLST44
 1679 050c 16       		.uleb128 0x16
 1680 050d 36090000 		.4byte	0x936
 1681 0511 CE010000 		.4byte	.LBB74
 1682 0515 48000000 		.4byte	.Ldebug_ranges0+0x48
 1683 0519 01       		.byte	0x1
 1684 051a 8B       		.byte	0x8b
 1685 051b 4B050000 		.4byte	0x54b
 1686 051f 11       		.uleb128 0x11
 1687 0520 43090000 		.4byte	0x943
 1688 0524 B5040000 		.4byte	.LLST45
 1689 0528 18       		.uleb128 0x18
 1690 0529 4F090000 		.4byte	0x94f
 1691 052d D4010000 		.4byte	.LBB76
 1692 0531 D8010000 		.4byte	.LBE76
 1693 0535 02       		.byte	0x2
 1694 0536 37       		.byte	0x37
 1695 0537 11       		.uleb128 0x11
 1696 0538 67090000 		.4byte	0x967
 1697 053c CA040000 		.4byte	.LLST46
ARM GAS  G:\Users\Jaxb\AppData\Local\Temp\cc22GpwV.s 			page 39


 1698 0540 11       		.uleb128 0x11
 1699 0541 5C090000 		.4byte	0x95c
 1700 0545 DD040000 		.4byte	.LLST47
 1701 0549 00       		.byte	0
 1702 054a 00       		.byte	0
 1703 054b 12       		.uleb128 0x12
 1704 054c CA010000 		.4byte	.LVL74
 1705 0550 0E070000 		.4byte	0x70e
 1706 0554 66050000 		.4byte	0x566
 1707 0558 13       		.uleb128 0x13
 1708 0559 01       		.byte	0x1
 1709 055a 50       		.byte	0x50
 1710 055b 02       		.byte	0x2
 1711 055c 75       		.byte	0x75
 1712 055d 00       		.sleb128 0
 1713 055e 13       		.uleb128 0x13
 1714 055f 01       		.byte	0x1
 1715 0560 51       		.byte	0x51
 1716 0561 03       		.byte	0x3
 1717 0562 F3       		.byte	0xf3
 1718 0563 01       		.uleb128 0x1
 1719 0564 51       		.byte	0x51
 1720 0565 00       		.byte	0
 1721 0566 12       		.uleb128 0x12
 1722 0567 EA010000 		.4byte	.LVL81
 1723 056b E50B0000 		.4byte	0xbe5
 1724 056f 83050000 		.4byte	0x583
 1725 0573 13       		.uleb128 0x13
 1726 0574 01       		.byte	0x1
 1727 0575 50       		.byte	0x50
 1728 0576 05       		.byte	0x5
 1729 0577 03       		.byte	0x3
 1730 0578 00000000 		.4byte	.LC0
 1731 057c 13       		.uleb128 0x13
 1732 057d 01       		.byte	0x1
 1733 057e 51       		.byte	0x51
 1734 057f 02       		.byte	0x2
 1735 0580 08       		.byte	0x8
 1736 0581 8C       		.byte	0x8c
 1737 0582 00       		.byte	0
 1738 0583 12       		.uleb128 0x12
 1739 0584 F8010000 		.4byte	.LVL85
 1740 0588 E50B0000 		.4byte	0xbe5
 1741 058c A0050000 		.4byte	0x5a0
 1742 0590 13       		.uleb128 0x13
 1743 0591 01       		.byte	0x1
 1744 0592 50       		.byte	0x50
 1745 0593 05       		.byte	0x5
 1746 0594 03       		.byte	0x3
 1747 0595 00000000 		.4byte	.LC0
 1748 0599 13       		.uleb128 0x13
 1749 059a 01       		.byte	0x1
 1750 059b 51       		.byte	0x51
 1751 059c 02       		.byte	0x2
 1752 059d 08       		.byte	0x8
 1753 059e 7B       		.byte	0x7b
 1754 059f 00       		.byte	0
ARM GAS  G:\Users\Jaxb\AppData\Local\Temp\cc22GpwV.s 			page 40


 1755 05a0 14       		.uleb128 0x14
 1756 05a1 FE010000 		.4byte	.LVL86
 1757 05a5 F20B0000 		.4byte	0xbf2
 1758 05a9 13       		.uleb128 0x13
 1759 05aa 01       		.byte	0x1
 1760 05ab 50       		.byte	0x50
 1761 05ac 05       		.byte	0x5
 1762 05ad 03       		.byte	0x3
 1763 05ae 38020000 		.4byte	.LC8
 1764 05b2 00       		.byte	0
 1765 05b3 00       		.byte	0
 1766 05b4 0C       		.uleb128 0xc
 1767 05b5 01       		.byte	0x1
 1768 05b6 CF000000 		.4byte	.LASF35
 1769 05ba 01       		.byte	0x1
 1770 05bb 61       		.byte	0x61
 1771 05bc 01       		.byte	0x1
 1772 05bd 53010000 		.4byte	0x153
 1773 05c1 74010000 		.4byte	.LFB13
 1774 05c5 C0010000 		.4byte	.LFE13
 1775 05c9 F0040000 		.4byte	.LLST33
 1776 05cd 01       		.byte	0x1
 1777 05ce B7060000 		.4byte	0x6b7
 1778 05d2 0D       		.uleb128 0xd
 1779 05d3 47020000 		.4byte	.LASF25
 1780 05d7 01       		.byte	0x1
 1781 05d8 61       		.byte	0x61
 1782 05d9 29020000 		.4byte	0x229
 1783 05dd 10050000 		.4byte	.LLST34
 1784 05e1 19       		.uleb128 0x19
 1785 05e2 706F7300 		.ascii	"pos\000"
 1786 05e6 01       		.byte	0x1
 1787 05e7 6F       		.byte	0x6f
 1788 05e8 5A000000 		.4byte	0x5a
 1789 05ec 7E050000 		.4byte	.LLST35
 1790 05f0 0E       		.uleb128 0xe
 1791 05f1 90010000 		.4byte	.LBB73
 1792 05f5 94010000 		.4byte	.LBE73
 1793 05f9 0D060000 		.4byte	0x60d
 1794 05fd 17       		.uleb128 0x17
 1795 05fe 3C010000 		.4byte	.LASF36
 1796 0602 01       		.byte	0x1
 1797 0603 74       		.byte	0x74
 1798 0604 2F020000 		.4byte	0x22f
 1799 0608 91050000 		.4byte	.LLST40
 1800 060c 00       		.byte	0
 1801 060d 10       		.uleb128 0x10
 1802 060e 19090000 		.4byte	0x919
 1803 0612 7A010000 		.4byte	.LBB65
 1804 0616 7C010000 		.4byte	.LBE65
 1805 061a 01       		.byte	0x1
 1806 061b 6B       		.byte	0x6b
 1807 061c 2A060000 		.4byte	0x62a
 1808 0620 11       		.uleb128 0x11
 1809 0621 2A090000 		.4byte	0x92a
 1810 0625 A4050000 		.4byte	.LLST36
 1811 0629 00       		.byte	0
ARM GAS  G:\Users\Jaxb\AppData\Local\Temp\cc22GpwV.s 			page 41


 1812 062a 16       		.uleb128 0x16
 1813 062b 36090000 		.4byte	0x936
 1814 062f 80010000 		.4byte	.LBB67
 1815 0633 30000000 		.4byte	.Ldebug_ranges0+0x30
 1816 0637 01       		.byte	0x1
 1817 0638 71       		.byte	0x71
 1818 0639 69060000 		.4byte	0x669
 1819 063d 11       		.uleb128 0x11
 1820 063e 43090000 		.4byte	0x943
 1821 0642 B7050000 		.4byte	.LLST37
 1822 0646 18       		.uleb128 0x18
 1823 0647 4F090000 		.4byte	0x94f
 1824 064b 86010000 		.4byte	.LBB69
 1825 064f 8A010000 		.4byte	.LBE69
 1826 0653 02       		.byte	0x2
 1827 0654 37       		.byte	0x37
 1828 0655 11       		.uleb128 0x11
 1829 0656 67090000 		.4byte	0x967
 1830 065a CA050000 		.4byte	.LLST38
 1831 065e 11       		.uleb128 0x11
 1832 065f 5C090000 		.4byte	0x95c
 1833 0663 DD050000 		.4byte	.LLST39
 1834 0667 00       		.byte	0
 1835 0668 00       		.byte	0
 1836 0669 12       		.uleb128 0x12
 1837 066a 9E010000 		.4byte	.LVL65
 1838 066e E50B0000 		.4byte	0xbe5
 1839 0672 86060000 		.4byte	0x686
 1840 0676 13       		.uleb128 0x13
 1841 0677 01       		.byte	0x1
 1842 0678 50       		.byte	0x50
 1843 0679 05       		.byte	0x5
 1844 067a 03       		.byte	0x3
 1845 067b 00000000 		.4byte	.LC0
 1846 067f 13       		.uleb128 0x13
 1847 0680 01       		.byte	0x1
 1848 0681 51       		.byte	0x51
 1849 0682 02       		.byte	0x2
 1850 0683 08       		.byte	0x8
 1851 0684 72       		.byte	0x72
 1852 0685 00       		.byte	0
 1853 0686 12       		.uleb128 0x12
 1854 0687 AA010000 		.4byte	.LVL68
 1855 068b E50B0000 		.4byte	0xbe5
 1856 068f A3060000 		.4byte	0x6a3
 1857 0693 13       		.uleb128 0x13
 1858 0694 01       		.byte	0x1
 1859 0695 50       		.byte	0x50
 1860 0696 05       		.byte	0x5
 1861 0697 03       		.byte	0x3
 1862 0698 00000000 		.4byte	.LC0
 1863 069c 13       		.uleb128 0x13
 1864 069d 01       		.byte	0x1
 1865 069e 51       		.byte	0x51
 1866 069f 02       		.byte	0x2
 1867 06a0 08       		.byte	0x8
 1868 06a1 63       		.byte	0x63
ARM GAS  G:\Users\Jaxb\AppData\Local\Temp\cc22GpwV.s 			page 42


 1869 06a2 00       		.byte	0
 1870 06a3 14       		.uleb128 0x14
 1871 06a4 B0010000 		.4byte	.LVL69
 1872 06a8 F20B0000 		.4byte	0xbf2
 1873 06ac 13       		.uleb128 0x13
 1874 06ad 01       		.byte	0x1
 1875 06ae 50       		.byte	0x50
 1876 06af 05       		.byte	0x5
 1877 06b0 03       		.byte	0x3
 1878 06b1 E8010000 		.4byte	.LC7
 1879 06b5 00       		.byte	0
 1880 06b6 00       		.byte	0
 1881 06b7 1A       		.uleb128 0x1a
 1882 06b8 01       		.byte	0x1
 1883 06b9 FA010000 		.4byte	.LASF38
 1884 06bd 01       		.byte	0x1
 1885 06be 46       		.byte	0x46
 1886 06bf 01       		.byte	0x1
 1887 06c0 53010000 		.4byte	0x153
 1888 06c4 01       		.byte	0x1
 1889 06c5 0E070000 		.4byte	0x70e
 1890 06c9 1B       		.uleb128 0x1b
 1891 06ca 47020000 		.4byte	.LASF25
 1892 06ce 01       		.byte	0x1
 1893 06cf 46       		.byte	0x46
 1894 06d0 29020000 		.4byte	0x229
 1895 06d4 1B       		.uleb128 0x1b
 1896 06d5 B9020000 		.4byte	.LASF14
 1897 06d9 01       		.byte	0x1
 1898 06da 46       		.byte	0x46
 1899 06db E9000000 		.4byte	0xe9
 1900 06df 1B       		.uleb128 0x1b
 1901 06e0 8D000000 		.4byte	.LASF15
 1902 06e4 01       		.byte	0x1
 1903 06e5 46       		.byte	0x46
 1904 06e6 A7000000 		.4byte	0xa7
 1905 06ea 1C       		.uleb128 0x1c
 1906 06eb 706F7300 		.ascii	"pos\000"
 1907 06ef 01       		.byte	0x1
 1908 06f0 52       		.byte	0x52
 1909 06f1 5A000000 		.4byte	0x5a
 1910 06f5 0F       		.uleb128 0xf
 1911 06f6 77020000 		.4byte	.LASF37
 1912 06fa 01       		.byte	0x1
 1913 06fb 53       		.byte	0x53
 1914 06fc 53010000 		.4byte	0x153
 1915 0700 1D       		.uleb128 0x1d
 1916 0701 0F       		.uleb128 0xf
 1917 0702 3C010000 		.4byte	.LASF36
 1918 0706 01       		.byte	0x1
 1919 0707 56       		.byte	0x56
 1920 0708 2F020000 		.4byte	0x22f
 1921 070c 00       		.byte	0
 1922 070d 00       		.byte	0
 1923 070e 1A       		.uleb128 0x1a
 1924 070f 01       		.byte	0x1
 1925 0710 61010000 		.4byte	.LASF39
ARM GAS  G:\Users\Jaxb\AppData\Local\Temp\cc22GpwV.s 			page 43


 1926 0714 01       		.byte	0x1
 1927 0715 2B       		.byte	0x2b
 1928 0716 01       		.byte	0x1
 1929 0717 53010000 		.4byte	0x153
 1930 071b 01       		.byte	0x1
 1931 071c 5A070000 		.4byte	0x75a
 1932 0720 1B       		.uleb128 0x1b
 1933 0721 47020000 		.4byte	.LASF25
 1934 0725 01       		.byte	0x1
 1935 0726 2B       		.byte	0x2b
 1936 0727 29020000 		.4byte	0x229
 1937 072b 1B       		.uleb128 0x1b
 1938 072c B9020000 		.4byte	.LASF14
 1939 0730 01       		.byte	0x1
 1940 0731 2B       		.byte	0x2b
 1941 0732 E9000000 		.4byte	0xe9
 1942 0736 1C       		.uleb128 0x1c
 1943 0737 706F7300 		.ascii	"pos\000"
 1944 073b 01       		.byte	0x1
 1945 073c 37       		.byte	0x37
 1946 073d 5A000000 		.4byte	0x5a
 1947 0741 0F       		.uleb128 0xf
 1948 0742 77020000 		.4byte	.LASF37
 1949 0746 01       		.byte	0x1
 1950 0747 38       		.byte	0x38
 1951 0748 53010000 		.4byte	0x153
 1952 074c 1D       		.uleb128 0x1d
 1953 074d 0F       		.uleb128 0xf
 1954 074e 3C010000 		.4byte	.LASF36
 1955 0752 01       		.byte	0x1
 1956 0753 3C       		.byte	0x3c
 1957 0754 2F020000 		.4byte	0x22f
 1958 0758 00       		.byte	0
 1959 0759 00       		.byte	0
 1960 075a 0C       		.uleb128 0xc
 1961 075b 01       		.byte	0x1
 1962 075c 3A000000 		.4byte	.LASF40
 1963 0760 01       		.byte	0x1
 1964 0761 07       		.byte	0x7
 1965 0762 01       		.byte	0x1
 1966 0763 6E000000 		.4byte	0x6e
 1967 0767 00000000 		.4byte	.LFB10
 1968 076b A4000000 		.4byte	.LFE10
 1969 076f F0050000 		.4byte	.LLST0
 1970 0773 01       		.byte	0x1
 1971 0774 19090000 		.4byte	0x919
 1972 0778 0D       		.uleb128 0xd
 1973 0779 B9020000 		.4byte	.LASF14
 1974 077d 01       		.byte	0x1
 1975 077e 07       		.byte	0x7
 1976 077f 53010000 		.4byte	0x153
 1977 0783 10060000 		.4byte	.LLST1
 1978 0787 0D       		.uleb128 0xd
 1979 0788 47020000 		.4byte	.LASF25
 1980 078c 01       		.byte	0x1
 1981 078d 07       		.byte	0x7
 1982 078e 29020000 		.4byte	0x229
ARM GAS  G:\Users\Jaxb\AppData\Local\Temp\cc22GpwV.s 			page 44


 1983 0792 52060000 		.4byte	.LLST2
 1984 0796 17       		.uleb128 0x17
 1985 0797 77020000 		.4byte	.LASF37
 1986 079b 01       		.byte	0x1
 1987 079c 13       		.byte	0x13
 1988 079d 53010000 		.4byte	0x153
 1989 07a1 94060000 		.4byte	.LLST3
 1990 07a5 19       		.uleb128 0x19
 1991 07a6 706F7300 		.ascii	"pos\000"
 1992 07aa 01       		.byte	0x1
 1993 07ab 14       		.byte	0x14
 1994 07ac 5A000000 		.4byte	0x5a
 1995 07b0 DB060000 		.4byte	.LLST4
 1996 07b4 1E       		.uleb128 0x1e
 1997 07b5 C5070000 		.4byte	0x7c5
 1998 07b9 0F       		.uleb128 0xf
 1999 07ba 3C010000 		.4byte	.LASF36
 2000 07be 01       		.byte	0x1
 2001 07bf 18       		.byte	0x18
 2002 07c0 2F020000 		.4byte	0x22f
 2003 07c4 00       		.byte	0
 2004 07c5 16       		.uleb128 0x16
 2005 07c6 73090000 		.4byte	0x973
 2006 07ca 2C000000 		.4byte	.LBB39
 2007 07ce 00000000 		.4byte	.Ldebug_ranges0+0
 2008 07d2 01       		.byte	0x1
 2009 07d3 1C       		.byte	0x1c
 2010 07d4 16080000 		.4byte	0x816
 2011 07d8 11       		.uleb128 0x11
 2012 07d9 8B090000 		.4byte	0x98b
 2013 07dd 04070000 		.4byte	.LLST5
 2014 07e1 11       		.uleb128 0x11
 2015 07e2 80090000 		.4byte	0x980
 2016 07e6 17070000 		.4byte	.LLST6
 2017 07ea 18       		.uleb128 0x18
 2018 07eb 97090000 		.4byte	0x997
 2019 07ef 34000000 		.4byte	.LBB41
 2020 07f3 3C000000 		.4byte	.LBE41
 2021 07f7 02       		.byte	0x2
 2022 07f8 2A       		.byte	0x2a
 2023 07f9 11       		.uleb128 0x11
 2024 07fa BA090000 		.4byte	0x9ba
 2025 07fe 04070000 		.4byte	.LLST5
 2026 0802 11       		.uleb128 0x11
 2027 0803 AF090000 		.4byte	0x9af
 2028 0807 2A070000 		.4byte	.LLST8
 2029 080b 11       		.uleb128 0x11
 2030 080c A4090000 		.4byte	0x9a4
 2031 0810 17070000 		.4byte	.LLST6
 2032 0814 00       		.byte	0
 2033 0815 00       		.byte	0
 2034 0816 16       		.uleb128 0x16
 2035 0817 73090000 		.4byte	0x973
 2036 081b 44000000 		.4byte	.LBB45
 2037 081f 18000000 		.4byte	.Ldebug_ranges0+0x18
 2038 0823 01       		.byte	0x1
 2039 0824 23       		.byte	0x23
ARM GAS  G:\Users\Jaxb\AppData\Local\Temp\cc22GpwV.s 			page 45


 2040 0825 67080000 		.4byte	0x867
 2041 0829 11       		.uleb128 0x11
 2042 082a 8B090000 		.4byte	0x98b
 2043 082e 3D070000 		.4byte	.LLST10
 2044 0832 11       		.uleb128 0x11
 2045 0833 80090000 		.4byte	0x980
 2046 0837 50070000 		.4byte	.LLST11
 2047 083b 18       		.uleb128 0x18
 2048 083c 97090000 		.4byte	0x997
 2049 0840 4E000000 		.4byte	.LBB47
 2050 0844 56000000 		.4byte	.LBE47
 2051 0848 02       		.byte	0x2
 2052 0849 2A       		.byte	0x2a
 2053 084a 11       		.uleb128 0x11
 2054 084b BA090000 		.4byte	0x9ba
 2055 084f 3D070000 		.4byte	.LLST10
 2056 0853 11       		.uleb128 0x11
 2057 0854 AF090000 		.4byte	0x9af
 2058 0858 63070000 		.4byte	.LLST13
 2059 085c 11       		.uleb128 0x11
 2060 085d A4090000 		.4byte	0x9a4
 2061 0861 50070000 		.4byte	.LLST11
 2062 0865 00       		.byte	0
 2063 0866 00       		.byte	0
 2064 0867 1F       		.uleb128 0x1f
 2065 0868 26000000 		.4byte	.LVL6
 2066 086c 7D080000 		.4byte	0x87d
 2067 0870 13       		.uleb128 0x13
 2068 0871 01       		.byte	0x1
 2069 0872 50       		.byte	0x50
 2070 0873 02       		.byte	0x2
 2071 0874 74       		.byte	0x74
 2072 0875 70       		.sleb128 -16
 2073 0876 13       		.uleb128 0x13
 2074 0877 01       		.byte	0x1
 2075 0878 51       		.byte	0x51
 2076 0879 02       		.byte	0x2
 2077 087a 76       		.byte	0x76
 2078 087b 00       		.sleb128 0
 2079 087c 00       		.byte	0
 2080 087d 12       		.uleb128 0x12
 2081 087e 64000000 		.4byte	.LVL14
 2082 0882 E50B0000 		.4byte	0xbe5
 2083 0886 9A080000 		.4byte	0x89a
 2084 088a 13       		.uleb128 0x13
 2085 088b 01       		.byte	0x1
 2086 088c 50       		.byte	0x50
 2087 088d 05       		.byte	0x5
 2088 088e 03       		.byte	0x3
 2089 088f 00000000 		.4byte	.LC0
 2090 0893 13       		.uleb128 0x13
 2091 0894 01       		.byte	0x1
 2092 0895 51       		.byte	0x51
 2093 0896 02       		.byte	0x2
 2094 0897 08       		.byte	0x8
 2095 0898 25       		.byte	0x25
 2096 0899 00       		.byte	0
ARM GAS  G:\Users\Jaxb\AppData\Local\Temp\cc22GpwV.s 			page 46


 2097 089a 12       		.uleb128 0x12
 2098 089b 70000000 		.4byte	.LVL16
 2099 089f E50B0000 		.4byte	0xbe5
 2100 08a3 B6080000 		.4byte	0x8b6
 2101 08a7 13       		.uleb128 0x13
 2102 08a8 01       		.byte	0x1
 2103 08a9 50       		.byte	0x50
 2104 08aa 05       		.byte	0x5
 2105 08ab 03       		.byte	0x3
 2106 08ac 00000000 		.4byte	.LC0
 2107 08b0 13       		.uleb128 0x13
 2108 08b1 01       		.byte	0x1
 2109 08b2 51       		.byte	0x51
 2110 08b3 01       		.byte	0x1
 2111 08b4 4E       		.byte	0x4e
 2112 08b5 00       		.byte	0
 2113 08b6 12       		.uleb128 0x12
 2114 08b7 7C000000 		.4byte	.LVL20
 2115 08bb E50B0000 		.4byte	0xbe5
 2116 08bf D2080000 		.4byte	0x8d2
 2117 08c3 13       		.uleb128 0x13
 2118 08c4 01       		.byte	0x1
 2119 08c5 50       		.byte	0x50
 2120 08c6 05       		.byte	0x5
 2121 08c7 03       		.byte	0x3
 2122 08c8 00000000 		.4byte	.LC0
 2123 08cc 13       		.uleb128 0x13
 2124 08cd 01       		.byte	0x1
 2125 08ce 51       		.byte	0x51
 2126 08cf 01       		.byte	0x1
 2127 08d0 39       		.byte	0x39
 2128 08d1 00       		.byte	0
 2129 08d2 12       		.uleb128 0x12
 2130 08d3 86000000 		.4byte	.LVL21
 2131 08d7 E50B0000 		.4byte	0xbe5
 2132 08db EE080000 		.4byte	0x8ee
 2133 08df 13       		.uleb128 0x13
 2134 08e0 01       		.byte	0x1
 2135 08e1 50       		.byte	0x50
 2136 08e2 05       		.byte	0x5
 2137 08e3 03       		.byte	0x3
 2138 08e4 00000000 		.4byte	.LC0
 2139 08e8 13       		.uleb128 0x13
 2140 08e9 01       		.byte	0x1
 2141 08ea 51       		.byte	0x51
 2142 08eb 01       		.byte	0x1
 2143 08ec 3A       		.byte	0x3a
 2144 08ed 00       		.byte	0
 2145 08ee 12       		.uleb128 0x12
 2146 08ef 8C000000 		.4byte	.LVL22
 2147 08f3 F20B0000 		.4byte	0xbf2
 2148 08f7 05090000 		.4byte	0x905
 2149 08fb 13       		.uleb128 0x13
 2150 08fc 01       		.byte	0x1
 2151 08fd 50       		.byte	0x50
 2152 08fe 05       		.byte	0x5
 2153 08ff 03       		.byte	0x3
ARM GAS  G:\Users\Jaxb\AppData\Local\Temp\cc22GpwV.s 			page 47


 2154 0900 30000000 		.4byte	.LC1
 2155 0904 00       		.byte	0
 2156 0905 14       		.uleb128 0x14
 2157 0906 92000000 		.4byte	.LVL23
 2158 090a F20B0000 		.4byte	0xbf2
 2159 090e 13       		.uleb128 0x13
 2160 090f 01       		.byte	0x1
 2161 0910 50       		.byte	0x50
 2162 0911 05       		.byte	0x5
 2163 0912 03       		.byte	0x3
 2164 0913 70000000 		.4byte	.LC2
 2165 0917 00       		.byte	0
 2166 0918 00       		.byte	0
 2167 0919 20       		.uleb128 0x20
 2168 091a 5C000000 		.4byte	.LASF51
 2169 091e 02       		.byte	0x2
 2170 091f 52       		.byte	0x52
 2171 0920 01       		.byte	0x1
 2172 0921 6E000000 		.4byte	0x6e
 2173 0925 03       		.byte	0x3
 2174 0926 36090000 		.4byte	0x936
 2175 092a 1B       		.uleb128 0x1b
 2176 092b D1010000 		.4byte	.LASF41
 2177 092f 02       		.byte	0x2
 2178 0930 52       		.byte	0x52
 2179 0931 2F020000 		.4byte	0x22f
 2180 0935 00       		.byte	0
 2181 0936 21       		.uleb128 0x21
 2182 0937 84000000 		.4byte	.LASF43
 2183 093b 02       		.byte	0x2
 2184 093c 35       		.byte	0x35
 2185 093d 01       		.byte	0x1
 2186 093e 03       		.byte	0x3
 2187 093f 4F090000 		.4byte	0x94f
 2188 0943 1B       		.uleb128 0x1b
 2189 0944 8F030000 		.4byte	.LASF42
 2190 0948 02       		.byte	0x2
 2191 0949 35       		.byte	0x35
 2192 094a 5A000000 		.4byte	0x5a
 2193 094e 00       		.byte	0
 2194 094f 21       		.uleb128 0x21
 2195 0950 C6010000 		.4byte	.LASF44
 2196 0954 02       		.byte	0x2
 2197 0955 2E       		.byte	0x2e
 2198 0956 01       		.byte	0x1
 2199 0957 03       		.byte	0x3
 2200 0958 73090000 		.4byte	0x973
 2201 095c 1B       		.uleb128 0x1b
 2202 095d 95030000 		.4byte	.LASF1
 2203 0961 02       		.byte	0x2
 2204 0962 2E       		.byte	0x2e
 2205 0963 5A000000 		.4byte	0x5a
 2206 0967 1B       		.uleb128 0x1b
 2207 0968 24000000 		.4byte	.LASF0
 2208 096c 02       		.byte	0x2
 2209 096d 2E       		.byte	0x2e
 2210 096e 5A000000 		.4byte	0x5a
ARM GAS  G:\Users\Jaxb\AppData\Local\Temp\cc22GpwV.s 			page 48


 2211 0972 00       		.byte	0
 2212 0973 21       		.uleb128 0x21
 2213 0974 E7000000 		.4byte	.LASF45
 2214 0978 02       		.byte	0x2
 2215 0979 28       		.byte	0x28
 2216 097a 01       		.byte	0x1
 2217 097b 03       		.byte	0x3
 2218 097c 97090000 		.4byte	0x997
 2219 0980 22       		.uleb128 0x22
 2220 0981 6E657700 		.ascii	"new\000"
 2221 0985 02       		.byte	0x2
 2222 0986 28       		.byte	0x28
 2223 0987 5A000000 		.4byte	0x5a
 2224 098b 1B       		.uleb128 0x1b
 2225 098c D1010000 		.4byte	.LASF41
 2226 0990 02       		.byte	0x2
 2227 0991 28       		.byte	0x28
 2228 0992 5A000000 		.4byte	0x5a
 2229 0996 00       		.byte	0
 2230 0997 21       		.uleb128 0x21
 2231 0998 7E020000 		.4byte	.LASF46
 2232 099c 02       		.byte	0x2
 2233 099d 17       		.byte	0x17
 2234 099e 01       		.byte	0x1
 2235 099f 03       		.byte	0x3
 2236 09a0 C6090000 		.4byte	0x9c6
 2237 09a4 22       		.uleb128 0x22
 2238 09a5 6E657700 		.ascii	"new\000"
 2239 09a9 02       		.byte	0x2
 2240 09aa 17       		.byte	0x17
 2241 09ab 5A000000 		.4byte	0x5a
 2242 09af 1B       		.uleb128 0x1b
 2243 09b0 95030000 		.4byte	.LASF1
 2244 09b4 02       		.byte	0x2
 2245 09b5 18       		.byte	0x18
 2246 09b6 5A000000 		.4byte	0x5a
 2247 09ba 1B       		.uleb128 0x1b
 2248 09bb 24000000 		.4byte	.LASF0
 2249 09bf 02       		.byte	0x2
 2250 09c0 19       		.byte	0x19
 2251 09c1 5A000000 		.4byte	0x5a
 2252 09c5 00       		.byte	0
 2253 09c6 21       		.uleb128 0x21
 2254 09c7 5E020000 		.4byte	.LASF47
 2255 09cb 02       		.byte	0x2
 2256 09cc 10       		.byte	0x10
 2257 09cd 01       		.byte	0x1
 2258 09ce 03       		.byte	0x3
 2259 09cf DF090000 		.4byte	0x9df
 2260 09d3 1B       		.uleb128 0x1b
 2261 09d4 00000000 		.4byte	.LASF48
 2262 09d8 02       		.byte	0x2
 2263 09d9 10       		.byte	0x10
 2264 09da 5A000000 		.4byte	0x5a
 2265 09de 00       		.byte	0
 2266 09df 23       		.uleb128 0x23
 2267 09e0 0E070000 		.4byte	0x70e
ARM GAS  G:\Users\Jaxb\AppData\Local\Temp\cc22GpwV.s 			page 49


 2268 09e4 A4000000 		.4byte	.LFB11
 2269 09e8 04010000 		.4byte	.LFE11
 2270 09ec 76070000 		.4byte	.LLST15
 2271 09f0 01       		.byte	0x1
 2272 09f1 D90A0000 		.4byte	0xad9
 2273 09f5 11       		.uleb128 0x11
 2274 09f6 20070000 		.4byte	0x720
 2275 09fa 96070000 		.4byte	.LLST16
 2276 09fe 11       		.uleb128 0x11
 2277 09ff 2B070000 		.4byte	0x72b
 2278 0a03 D8070000 		.4byte	.LLST17
 2279 0a07 24       		.uleb128 0x24
 2280 0a08 36070000 		.4byte	0x736
 2281 0a0c 1A080000 		.4byte	.LLST18
 2282 0a10 24       		.uleb128 0x24
 2283 0a11 41070000 		.4byte	0x741
 2284 0a15 2D080000 		.4byte	.LLST19
 2285 0a19 0E       		.uleb128 0xe
 2286 0a1a CA000000 		.4byte	.LBB55
 2287 0a1e CE000000 		.4byte	.LBE55
 2288 0a22 300A0000 		.4byte	0xa30
 2289 0a26 24       		.uleb128 0x24
 2290 0a27 4D070000 		.4byte	0x74d
 2291 0a2b 5A080000 		.4byte	.LLST20
 2292 0a2f 00       		.byte	0
 2293 0a30 25       		.uleb128 0x25
 2294 0a31 0E070000 		.4byte	0x70e
 2295 0a35 E6000000 		.4byte	.LBB56
 2296 0a39 F4000000 		.4byte	.LBE56
 2297 0a3d 920A0000 		.4byte	0xa92
 2298 0a41 11       		.uleb128 0x11
 2299 0a42 20070000 		.4byte	0x720
 2300 0a46 78080000 		.4byte	.LLST21
 2301 0a4a 11       		.uleb128 0x11
 2302 0a4b 2B070000 		.4byte	0x72b
 2303 0a4f 8B080000 		.4byte	.LLST22
 2304 0a53 26       		.uleb128 0x26
 2305 0a54 E6000000 		.4byte	.LBB57
 2306 0a58 F4000000 		.4byte	.LBE57
 2307 0a5c 27       		.uleb128 0x27
 2308 0a5d 070A0000 		.4byte	0xa07
 2309 0a61 27       		.uleb128 0x27
 2310 0a62 100A0000 		.4byte	0xa10
 2311 0a66 12       		.uleb128 0x12
 2312 0a67 EC000000 		.4byte	.LVL38
 2313 0a6b F20B0000 		.4byte	0xbf2
 2314 0a6f 7D0A0000 		.4byte	0xa7d
 2315 0a73 13       		.uleb128 0x13
 2316 0a74 01       		.byte	0x1
 2317 0a75 50       		.byte	0x50
 2318 0a76 05       		.byte	0x5
 2319 0a77 03       		.byte	0x3
 2320 0a78 C0000000 		.4byte	.LC3
 2321 0a7c 00       		.byte	0
 2322 0a7d 14       		.uleb128 0x14
 2323 0a7e F2000000 		.4byte	.LVL39
 2324 0a82 F20B0000 		.4byte	0xbf2
ARM GAS  G:\Users\Jaxb\AppData\Local\Temp\cc22GpwV.s 			page 50


 2325 0a86 13       		.uleb128 0x13
 2326 0a87 01       		.byte	0x1
 2327 0a88 50       		.byte	0x50
 2328 0a89 05       		.byte	0x5
 2329 0a8a 03       		.byte	0x3
 2330 0a8b 00010000 		.4byte	.LC4
 2331 0a8f 00       		.byte	0
 2332 0a90 00       		.byte	0
 2333 0a91 00       		.byte	0
 2334 0a92 1F       		.uleb128 0x1f
 2335 0a93 C6000000 		.4byte	.LVL30
 2336 0a97 A20A0000 		.4byte	0xaa2
 2337 0a9b 13       		.uleb128 0x13
 2338 0a9c 01       		.byte	0x1
 2339 0a9d 51       		.byte	0x51
 2340 0a9e 02       		.byte	0x2
 2341 0a9f 76       		.byte	0x76
 2342 0aa0 00       		.sleb128 0
 2343 0aa1 00       		.byte	0
 2344 0aa2 12       		.uleb128 0x12
 2345 0aa3 DC000000 		.4byte	.LVL36
 2346 0aa7 E50B0000 		.4byte	0xbe5
 2347 0aab BF0A0000 		.4byte	0xabf
 2348 0aaf 13       		.uleb128 0x13
 2349 0ab0 01       		.byte	0x1
 2350 0ab1 50       		.byte	0x50
 2351 0ab2 05       		.byte	0x5
 2352 0ab3 03       		.byte	0x3
 2353 0ab4 00000000 		.4byte	.LC0
 2354 0ab8 13       		.uleb128 0x13
 2355 0ab9 01       		.byte	0x1
 2356 0aba 51       		.byte	0x51
 2357 0abb 02       		.byte	0x2
 2358 0abc 08       		.byte	0x8
 2359 0abd 2D       		.byte	0x2d
 2360 0abe 00       		.byte	0
 2361 0abf 14       		.uleb128 0x14
 2362 0ac0 E6000000 		.4byte	.LVL37
 2363 0ac4 E50B0000 		.4byte	0xbe5
 2364 0ac8 13       		.uleb128 0x13
 2365 0ac9 01       		.byte	0x1
 2366 0aca 50       		.byte	0x50
 2367 0acb 05       		.byte	0x5
 2368 0acc 03       		.byte	0x3
 2369 0acd 00000000 		.4byte	.LC0
 2370 0ad1 13       		.uleb128 0x13
 2371 0ad2 01       		.byte	0x1
 2372 0ad3 51       		.byte	0x51
 2373 0ad4 02       		.byte	0x2
 2374 0ad5 08       		.byte	0x8
 2375 0ad6 2E       		.byte	0x2e
 2376 0ad7 00       		.byte	0
 2377 0ad8 00       		.byte	0
 2378 0ad9 23       		.uleb128 0x23
 2379 0ada B7060000 		.4byte	0x6b7
 2380 0ade 04010000 		.4byte	.LFB12
 2381 0ae2 74010000 		.4byte	.LFE12
ARM GAS  G:\Users\Jaxb\AppData\Local\Temp\cc22GpwV.s 			page 51


 2382 0ae6 9E080000 		.4byte	.LLST23
 2383 0aea 01       		.byte	0x1
 2384 0aeb E50B0000 		.4byte	0xbe5
 2385 0aef 11       		.uleb128 0x11
 2386 0af0 C9060000 		.4byte	0x6c9
 2387 0af4 BE080000 		.4byte	.LLST24
 2388 0af8 11       		.uleb128 0x11
 2389 0af9 D4060000 		.4byte	0x6d4
 2390 0afd F2080000 		.4byte	.LLST25
 2391 0b01 11       		.uleb128 0x11
 2392 0b02 DF060000 		.4byte	0x6df
 2393 0b06 26090000 		.4byte	.LLST26
 2394 0b0a 24       		.uleb128 0x24
 2395 0b0b EA060000 		.4byte	0x6ea
 2396 0b0f 6E090000 		.4byte	.LLST27
 2397 0b13 24       		.uleb128 0x24
 2398 0b14 F5060000 		.4byte	0x6f5
 2399 0b18 8C090000 		.4byte	.LLST28
 2400 0b1c 0E       		.uleb128 0xe
 2401 0b1d 3E010000 		.4byte	.LBB62
 2402 0b21 42010000 		.4byte	.LBE62
 2403 0b25 330B0000 		.4byte	0xb33
 2404 0b29 24       		.uleb128 0x24
 2405 0b2a 01070000 		.4byte	0x701
 2406 0b2e AE090000 		.4byte	.LLST29
 2407 0b32 00       		.byte	0
 2408 0b33 25       		.uleb128 0x25
 2409 0b34 B7060000 		.4byte	0x6b7
 2410 0b38 58010000 		.4byte	.LBB63
 2411 0b3c 74010000 		.4byte	.LBE63
 2412 0b40 9E0B0000 		.4byte	0xb9e
 2413 0b44 11       		.uleb128 0x11
 2414 0b45 C9060000 		.4byte	0x6c9
 2415 0b49 CC090000 		.4byte	.LLST30
 2416 0b4d 11       		.uleb128 0x11
 2417 0b4e D4060000 		.4byte	0x6d4
 2418 0b52 DF090000 		.4byte	.LLST31
 2419 0b56 11       		.uleb128 0x11
 2420 0b57 DF060000 		.4byte	0x6df
 2421 0b5b F2090000 		.4byte	.LLST32
 2422 0b5f 26       		.uleb128 0x26
 2423 0b60 58010000 		.4byte	.LBB64
 2424 0b64 74010000 		.4byte	.LBE64
 2425 0b68 27       		.uleb128 0x27
 2426 0b69 0A0B0000 		.4byte	0xb0a
 2427 0b6d 27       		.uleb128 0x27
 2428 0b6e 130B0000 		.4byte	0xb13
 2429 0b72 12       		.uleb128 0x12
 2430 0b73 5E010000 		.4byte	.LVL53
 2431 0b77 F20B0000 		.4byte	0xbf2
 2432 0b7b 890B0000 		.4byte	0xb89
 2433 0b7f 13       		.uleb128 0x13
 2434 0b80 01       		.byte	0x1
 2435 0b81 50       		.byte	0x50
 2436 0b82 05       		.byte	0x5
 2437 0b83 03       		.byte	0x3
 2438 0b84 4C010000 		.4byte	.LC5
ARM GAS  G:\Users\Jaxb\AppData\Local\Temp\cc22GpwV.s 			page 52


 2439 0b88 00       		.byte	0
 2440 0b89 14       		.uleb128 0x14
 2441 0b8a 64010000 		.4byte	.LVL54
 2442 0b8e F20B0000 		.4byte	0xbf2
 2443 0b92 13       		.uleb128 0x13
 2444 0b93 01       		.byte	0x1
 2445 0b94 50       		.byte	0x50
 2446 0b95 05       		.byte	0x5
 2447 0b96 03       		.byte	0x3
 2448 0b97 94010000 		.4byte	.LC6
 2449 0b9b 00       		.byte	0
 2450 0b9c 00       		.byte	0
 2451 0b9d 00       		.byte	0
 2452 0b9e 1F       		.uleb128 0x1f
 2453 0b9f 24010000 		.4byte	.LVL44
 2454 0ba3 AE0B0000 		.4byte	0xbae
 2455 0ba7 13       		.uleb128 0x13
 2456 0ba8 01       		.byte	0x1
 2457 0ba9 51       		.byte	0x51
 2458 0baa 02       		.byte	0x2
 2459 0bab 78       		.byte	0x78
 2460 0bac 00       		.sleb128 0
 2461 0bad 00       		.byte	0
 2462 0bae 12       		.uleb128 0x12
 2463 0baf 4E010000 		.4byte	.LVL51
 2464 0bb3 E50B0000 		.4byte	0xbe5
 2465 0bb7 CB0B0000 		.4byte	0xbcb
 2466 0bbb 13       		.uleb128 0x13
 2467 0bbc 01       		.byte	0x1
 2468 0bbd 50       		.byte	0x50
 2469 0bbe 05       		.byte	0x5
 2470 0bbf 03       		.byte	0x3
 2471 0bc0 00000000 		.4byte	.LC0
 2472 0bc4 13       		.uleb128 0x13
 2473 0bc5 01       		.byte	0x1
 2474 0bc6 51       		.byte	0x51
 2475 0bc7 02       		.byte	0x2
 2476 0bc8 08       		.byte	0x8
 2477 0bc9 48       		.byte	0x48
 2478 0bca 00       		.byte	0
 2479 0bcb 14       		.uleb128 0x14
 2480 0bcc 58010000 		.4byte	.LVL52
 2481 0bd0 E50B0000 		.4byte	0xbe5
 2482 0bd4 13       		.uleb128 0x13
 2483 0bd5 01       		.byte	0x1
 2484 0bd6 50       		.byte	0x50
 2485 0bd7 05       		.byte	0x5
 2486 0bd8 03       		.byte	0x3
 2487 0bd9 00000000 		.4byte	.LC0
 2488 0bdd 13       		.uleb128 0x13
 2489 0bde 01       		.byte	0x1
 2490 0bdf 51       		.byte	0x51
 2491 0be0 02       		.byte	0x2
 2492 0be1 08       		.byte	0x8
 2493 0be2 49       		.byte	0x49
 2494 0be3 00       		.byte	0
 2495 0be4 00       		.byte	0
ARM GAS  G:\Users\Jaxb\AppData\Local\Temp\cc22GpwV.s 			page 53


 2496 0be5 28       		.uleb128 0x28
 2497 0be6 01       		.byte	0x1
 2498 0be7 01       		.byte	0x1
 2499 0be8 68030000 		.4byte	.LASF49
 2500 0bec 68030000 		.4byte	.LASF49
 2501 0bf0 05       		.byte	0x5
 2502 0bf1 06       		.byte	0x6
 2503 0bf2 28       		.uleb128 0x28
 2504 0bf3 01       		.byte	0x1
 2505 0bf4 01       		.byte	0x1
 2506 0bf5 97010000 		.4byte	.LASF50
 2507 0bf9 97010000 		.4byte	.LASF50
 2508 0bfd 06       		.byte	0x6
 2509 0bfe 0C       		.byte	0xc
 2510 0bff 00       		.byte	0
 2511              		.section	.debug_abbrev,"",%progbits
 2512              	.Ldebug_abbrev0:
 2513 0000 01       		.uleb128 0x1
 2514 0001 11       		.uleb128 0x11
 2515 0002 01       		.byte	0x1
 2516 0003 25       		.uleb128 0x25
 2517 0004 0E       		.uleb128 0xe
 2518 0005 13       		.uleb128 0x13
 2519 0006 0B       		.uleb128 0xb
 2520 0007 03       		.uleb128 0x3
 2521 0008 0E       		.uleb128 0xe
 2522 0009 1B       		.uleb128 0x1b
 2523 000a 0E       		.uleb128 0xe
 2524 000b 11       		.uleb128 0x11
 2525 000c 01       		.uleb128 0x1
 2526 000d 12       		.uleb128 0x12
 2527 000e 01       		.uleb128 0x1
 2528 000f 10       		.uleb128 0x10
 2529 0010 06       		.uleb128 0x6
 2530 0011 00       		.byte	0
 2531 0012 00       		.byte	0
 2532 0013 02       		.uleb128 0x2
 2533 0014 24       		.uleb128 0x24
 2534 0015 00       		.byte	0
 2535 0016 0B       		.uleb128 0xb
 2536 0017 0B       		.uleb128 0xb
 2537 0018 3E       		.uleb128 0x3e
 2538 0019 0B       		.uleb128 0xb
 2539 001a 03       		.uleb128 0x3
 2540 001b 0E       		.uleb128 0xe
 2541 001c 00       		.byte	0
 2542 001d 00       		.byte	0
 2543 001e 03       		.uleb128 0x3
 2544 001f 13       		.uleb128 0x13
 2545 0020 01       		.byte	0x1
 2546 0021 03       		.uleb128 0x3
 2547 0022 0E       		.uleb128 0xe
 2548 0023 0B       		.uleb128 0xb
 2549 0024 0B       		.uleb128 0xb
 2550 0025 3A       		.uleb128 0x3a
 2551 0026 0B       		.uleb128 0xb
 2552 0027 3B       		.uleb128 0x3b
ARM GAS  G:\Users\Jaxb\AppData\Local\Temp\cc22GpwV.s 			page 54


 2553 0028 0B       		.uleb128 0xb
 2554 0029 01       		.uleb128 0x1
 2555 002a 13       		.uleb128 0x13
 2556 002b 00       		.byte	0
 2557 002c 00       		.byte	0
 2558 002d 04       		.uleb128 0x4
 2559 002e 0D       		.uleb128 0xd
 2560 002f 00       		.byte	0
 2561 0030 03       		.uleb128 0x3
 2562 0031 0E       		.uleb128 0xe
 2563 0032 3A       		.uleb128 0x3a
 2564 0033 0B       		.uleb128 0xb
 2565 0034 3B       		.uleb128 0x3b
 2566 0035 0B       		.uleb128 0xb
 2567 0036 49       		.uleb128 0x49
 2568 0037 13       		.uleb128 0x13
 2569 0038 38       		.uleb128 0x38
 2570 0039 0A       		.uleb128 0xa
 2571 003a 00       		.byte	0
 2572 003b 00       		.byte	0
 2573 003c 05       		.uleb128 0x5
 2574 003d 26       		.uleb128 0x26
 2575 003e 00       		.byte	0
 2576 003f 49       		.uleb128 0x49
 2577 0040 13       		.uleb128 0x13
 2578 0041 00       		.byte	0
 2579 0042 00       		.byte	0
 2580 0043 06       		.uleb128 0x6
 2581 0044 0F       		.uleb128 0xf
 2582 0045 00       		.byte	0
 2583 0046 0B       		.uleb128 0xb
 2584 0047 0B       		.uleb128 0xb
 2585 0048 49       		.uleb128 0x49
 2586 0049 13       		.uleb128 0x13
 2587 004a 00       		.byte	0
 2588 004b 00       		.byte	0
 2589 004c 07       		.uleb128 0x7
 2590 004d 24       		.uleb128 0x24
 2591 004e 00       		.byte	0
 2592 004f 0B       		.uleb128 0xb
 2593 0050 0B       		.uleb128 0xb
 2594 0051 3E       		.uleb128 0x3e
 2595 0052 0B       		.uleb128 0xb
 2596 0053 03       		.uleb128 0x3
 2597 0054 08       		.uleb128 0x8
 2598 0055 00       		.byte	0
 2599 0056 00       		.byte	0
 2600 0057 08       		.uleb128 0x8
 2601 0058 16       		.uleb128 0x16
 2602 0059 00       		.byte	0
 2603 005a 03       		.uleb128 0x3
 2604 005b 0E       		.uleb128 0xe
 2605 005c 3A       		.uleb128 0x3a
 2606 005d 0B       		.uleb128 0xb
 2607 005e 3B       		.uleb128 0x3b
 2608 005f 0B       		.uleb128 0xb
 2609 0060 49       		.uleb128 0x49
ARM GAS  G:\Users\Jaxb\AppData\Local\Temp\cc22GpwV.s 			page 55


 2610 0061 13       		.uleb128 0x13
 2611 0062 00       		.byte	0
 2612 0063 00       		.byte	0
 2613 0064 09       		.uleb128 0x9
 2614 0065 0F       		.uleb128 0xf
 2615 0066 00       		.byte	0
 2616 0067 0B       		.uleb128 0xb
 2617 0068 0B       		.uleb128 0xb
 2618 0069 00       		.byte	0
 2619 006a 00       		.byte	0
 2620 006b 0A       		.uleb128 0xa
 2621 006c 15       		.uleb128 0x15
 2622 006d 01       		.byte	0x1
 2623 006e 27       		.uleb128 0x27
 2624 006f 0C       		.uleb128 0xc
 2625 0070 49       		.uleb128 0x49
 2626 0071 13       		.uleb128 0x13
 2627 0072 01       		.uleb128 0x1
 2628 0073 13       		.uleb128 0x13
 2629 0074 00       		.byte	0
 2630 0075 00       		.byte	0
 2631 0076 0B       		.uleb128 0xb
 2632 0077 05       		.uleb128 0x5
 2633 0078 00       		.byte	0
 2634 0079 49       		.uleb128 0x49
 2635 007a 13       		.uleb128 0x13
 2636 007b 00       		.byte	0
 2637 007c 00       		.byte	0
 2638 007d 0C       		.uleb128 0xc
 2639 007e 2E       		.uleb128 0x2e
 2640 007f 01       		.byte	0x1
 2641 0080 3F       		.uleb128 0x3f
 2642 0081 0C       		.uleb128 0xc
 2643 0082 03       		.uleb128 0x3
 2644 0083 0E       		.uleb128 0xe
 2645 0084 3A       		.uleb128 0x3a
 2646 0085 0B       		.uleb128 0xb
 2647 0086 3B       		.uleb128 0x3b
 2648 0087 0B       		.uleb128 0xb
 2649 0088 27       		.uleb128 0x27
 2650 0089 0C       		.uleb128 0xc
 2651 008a 49       		.uleb128 0x49
 2652 008b 13       		.uleb128 0x13
 2653 008c 11       		.uleb128 0x11
 2654 008d 01       		.uleb128 0x1
 2655 008e 12       		.uleb128 0x12
 2656 008f 01       		.uleb128 0x1
 2657 0090 40       		.uleb128 0x40
 2658 0091 06       		.uleb128 0x6
 2659 0092 9742     		.uleb128 0x2117
 2660 0094 0C       		.uleb128 0xc
 2661 0095 01       		.uleb128 0x1
 2662 0096 13       		.uleb128 0x13
 2663 0097 00       		.byte	0
 2664 0098 00       		.byte	0
 2665 0099 0D       		.uleb128 0xd
 2666 009a 05       		.uleb128 0x5
ARM GAS  G:\Users\Jaxb\AppData\Local\Temp\cc22GpwV.s 			page 56


 2667 009b 00       		.byte	0
 2668 009c 03       		.uleb128 0x3
 2669 009d 0E       		.uleb128 0xe
 2670 009e 3A       		.uleb128 0x3a
 2671 009f 0B       		.uleb128 0xb
 2672 00a0 3B       		.uleb128 0x3b
 2673 00a1 0B       		.uleb128 0xb
 2674 00a2 49       		.uleb128 0x49
 2675 00a3 13       		.uleb128 0x13
 2676 00a4 02       		.uleb128 0x2
 2677 00a5 06       		.uleb128 0x6
 2678 00a6 00       		.byte	0
 2679 00a7 00       		.byte	0
 2680 00a8 0E       		.uleb128 0xe
 2681 00a9 0B       		.uleb128 0xb
 2682 00aa 01       		.byte	0x1
 2683 00ab 11       		.uleb128 0x11
 2684 00ac 01       		.uleb128 0x1
 2685 00ad 12       		.uleb128 0x12
 2686 00ae 01       		.uleb128 0x1
 2687 00af 01       		.uleb128 0x1
 2688 00b0 13       		.uleb128 0x13
 2689 00b1 00       		.byte	0
 2690 00b2 00       		.byte	0
 2691 00b3 0F       		.uleb128 0xf
 2692 00b4 34       		.uleb128 0x34
 2693 00b5 00       		.byte	0
 2694 00b6 03       		.uleb128 0x3
 2695 00b7 0E       		.uleb128 0xe
 2696 00b8 3A       		.uleb128 0x3a
 2697 00b9 0B       		.uleb128 0xb
 2698 00ba 3B       		.uleb128 0x3b
 2699 00bb 0B       		.uleb128 0xb
 2700 00bc 49       		.uleb128 0x49
 2701 00bd 13       		.uleb128 0x13
 2702 00be 00       		.byte	0
 2703 00bf 00       		.byte	0
 2704 00c0 10       		.uleb128 0x10
 2705 00c1 1D       		.uleb128 0x1d
 2706 00c2 01       		.byte	0x1
 2707 00c3 31       		.uleb128 0x31
 2708 00c4 13       		.uleb128 0x13
 2709 00c5 11       		.uleb128 0x11
 2710 00c6 01       		.uleb128 0x1
 2711 00c7 12       		.uleb128 0x12
 2712 00c8 01       		.uleb128 0x1
 2713 00c9 58       		.uleb128 0x58
 2714 00ca 0B       		.uleb128 0xb
 2715 00cb 59       		.uleb128 0x59
 2716 00cc 0B       		.uleb128 0xb
 2717 00cd 01       		.uleb128 0x1
 2718 00ce 13       		.uleb128 0x13
 2719 00cf 00       		.byte	0
 2720 00d0 00       		.byte	0
 2721 00d1 11       		.uleb128 0x11
 2722 00d2 05       		.uleb128 0x5
 2723 00d3 00       		.byte	0
ARM GAS  G:\Users\Jaxb\AppData\Local\Temp\cc22GpwV.s 			page 57


 2724 00d4 31       		.uleb128 0x31
 2725 00d5 13       		.uleb128 0x13
 2726 00d6 02       		.uleb128 0x2
 2727 00d7 06       		.uleb128 0x6
 2728 00d8 00       		.byte	0
 2729 00d9 00       		.byte	0
 2730 00da 12       		.uleb128 0x12
 2731 00db 898201   		.uleb128 0x4109
 2732 00de 01       		.byte	0x1
 2733 00df 11       		.uleb128 0x11
 2734 00e0 01       		.uleb128 0x1
 2735 00e1 31       		.uleb128 0x31
 2736 00e2 13       		.uleb128 0x13
 2737 00e3 01       		.uleb128 0x1
 2738 00e4 13       		.uleb128 0x13
 2739 00e5 00       		.byte	0
 2740 00e6 00       		.byte	0
 2741 00e7 13       		.uleb128 0x13
 2742 00e8 8A8201   		.uleb128 0x410a
 2743 00eb 00       		.byte	0
 2744 00ec 02       		.uleb128 0x2
 2745 00ed 0A       		.uleb128 0xa
 2746 00ee 9142     		.uleb128 0x2111
 2747 00f0 0A       		.uleb128 0xa
 2748 00f1 00       		.byte	0
 2749 00f2 00       		.byte	0
 2750 00f3 14       		.uleb128 0x14
 2751 00f4 898201   		.uleb128 0x4109
 2752 00f7 01       		.byte	0x1
 2753 00f8 11       		.uleb128 0x11
 2754 00f9 01       		.uleb128 0x1
 2755 00fa 31       		.uleb128 0x31
 2756 00fb 13       		.uleb128 0x13
 2757 00fc 00       		.byte	0
 2758 00fd 00       		.byte	0
 2759 00fe 15       		.uleb128 0x15
 2760 00ff 2E       		.uleb128 0x2e
 2761 0100 01       		.byte	0x1
 2762 0101 3F       		.uleb128 0x3f
 2763 0102 0C       		.uleb128 0xc
 2764 0103 03       		.uleb128 0x3
 2765 0104 0E       		.uleb128 0xe
 2766 0105 3A       		.uleb128 0x3a
 2767 0106 0B       		.uleb128 0xb
 2768 0107 3B       		.uleb128 0x3b
 2769 0108 0B       		.uleb128 0xb
 2770 0109 27       		.uleb128 0x27
 2771 010a 0C       		.uleb128 0xc
 2772 010b 11       		.uleb128 0x11
 2773 010c 01       		.uleb128 0x1
 2774 010d 12       		.uleb128 0x12
 2775 010e 01       		.uleb128 0x1
 2776 010f 40       		.uleb128 0x40
 2777 0110 06       		.uleb128 0x6
 2778 0111 9742     		.uleb128 0x2117
 2779 0113 0C       		.uleb128 0xc
 2780 0114 01       		.uleb128 0x1
ARM GAS  G:\Users\Jaxb\AppData\Local\Temp\cc22GpwV.s 			page 58


 2781 0115 13       		.uleb128 0x13
 2782 0116 00       		.byte	0
 2783 0117 00       		.byte	0
 2784 0118 16       		.uleb128 0x16
 2785 0119 1D       		.uleb128 0x1d
 2786 011a 01       		.byte	0x1
 2787 011b 31       		.uleb128 0x31
 2788 011c 13       		.uleb128 0x13
 2789 011d 52       		.uleb128 0x52
 2790 011e 01       		.uleb128 0x1
 2791 011f 55       		.uleb128 0x55
 2792 0120 06       		.uleb128 0x6
 2793 0121 58       		.uleb128 0x58
 2794 0122 0B       		.uleb128 0xb
 2795 0123 59       		.uleb128 0x59
 2796 0124 0B       		.uleb128 0xb
 2797 0125 01       		.uleb128 0x1
 2798 0126 13       		.uleb128 0x13
 2799 0127 00       		.byte	0
 2800 0128 00       		.byte	0
 2801 0129 17       		.uleb128 0x17
 2802 012a 34       		.uleb128 0x34
 2803 012b 00       		.byte	0
 2804 012c 03       		.uleb128 0x3
 2805 012d 0E       		.uleb128 0xe
 2806 012e 3A       		.uleb128 0x3a
 2807 012f 0B       		.uleb128 0xb
 2808 0130 3B       		.uleb128 0x3b
 2809 0131 0B       		.uleb128 0xb
 2810 0132 49       		.uleb128 0x49
 2811 0133 13       		.uleb128 0x13
 2812 0134 02       		.uleb128 0x2
 2813 0135 06       		.uleb128 0x6
 2814 0136 00       		.byte	0
 2815 0137 00       		.byte	0
 2816 0138 18       		.uleb128 0x18
 2817 0139 1D       		.uleb128 0x1d
 2818 013a 01       		.byte	0x1
 2819 013b 31       		.uleb128 0x31
 2820 013c 13       		.uleb128 0x13
 2821 013d 11       		.uleb128 0x11
 2822 013e 01       		.uleb128 0x1
 2823 013f 12       		.uleb128 0x12
 2824 0140 01       		.uleb128 0x1
 2825 0141 58       		.uleb128 0x58
 2826 0142 0B       		.uleb128 0xb
 2827 0143 59       		.uleb128 0x59
 2828 0144 0B       		.uleb128 0xb
 2829 0145 00       		.byte	0
 2830 0146 00       		.byte	0
 2831 0147 19       		.uleb128 0x19
 2832 0148 34       		.uleb128 0x34
 2833 0149 00       		.byte	0
 2834 014a 03       		.uleb128 0x3
 2835 014b 08       		.uleb128 0x8
 2836 014c 3A       		.uleb128 0x3a
 2837 014d 0B       		.uleb128 0xb
ARM GAS  G:\Users\Jaxb\AppData\Local\Temp\cc22GpwV.s 			page 59


 2838 014e 3B       		.uleb128 0x3b
 2839 014f 0B       		.uleb128 0xb
 2840 0150 49       		.uleb128 0x49
 2841 0151 13       		.uleb128 0x13
 2842 0152 02       		.uleb128 0x2
 2843 0153 06       		.uleb128 0x6
 2844 0154 00       		.byte	0
 2845 0155 00       		.byte	0
 2846 0156 1A       		.uleb128 0x1a
 2847 0157 2E       		.uleb128 0x2e
 2848 0158 01       		.byte	0x1
 2849 0159 3F       		.uleb128 0x3f
 2850 015a 0C       		.uleb128 0xc
 2851 015b 03       		.uleb128 0x3
 2852 015c 0E       		.uleb128 0xe
 2853 015d 3A       		.uleb128 0x3a
 2854 015e 0B       		.uleb128 0xb
 2855 015f 3B       		.uleb128 0x3b
 2856 0160 0B       		.uleb128 0xb
 2857 0161 27       		.uleb128 0x27
 2858 0162 0C       		.uleb128 0xc
 2859 0163 49       		.uleb128 0x49
 2860 0164 13       		.uleb128 0x13
 2861 0165 20       		.uleb128 0x20
 2862 0166 0B       		.uleb128 0xb
 2863 0167 01       		.uleb128 0x1
 2864 0168 13       		.uleb128 0x13
 2865 0169 00       		.byte	0
 2866 016a 00       		.byte	0
 2867 016b 1B       		.uleb128 0x1b
 2868 016c 05       		.uleb128 0x5
 2869 016d 00       		.byte	0
 2870 016e 03       		.uleb128 0x3
 2871 016f 0E       		.uleb128 0xe
 2872 0170 3A       		.uleb128 0x3a
 2873 0171 0B       		.uleb128 0xb
 2874 0172 3B       		.uleb128 0x3b
 2875 0173 0B       		.uleb128 0xb
 2876 0174 49       		.uleb128 0x49
 2877 0175 13       		.uleb128 0x13
 2878 0176 00       		.byte	0
 2879 0177 00       		.byte	0
 2880 0178 1C       		.uleb128 0x1c
 2881 0179 34       		.uleb128 0x34
 2882 017a 00       		.byte	0
 2883 017b 03       		.uleb128 0x3
 2884 017c 08       		.uleb128 0x8
 2885 017d 3A       		.uleb128 0x3a
 2886 017e 0B       		.uleb128 0xb
 2887 017f 3B       		.uleb128 0x3b
 2888 0180 0B       		.uleb128 0xb
 2889 0181 49       		.uleb128 0x49
 2890 0182 13       		.uleb128 0x13
 2891 0183 00       		.byte	0
 2892 0184 00       		.byte	0
 2893 0185 1D       		.uleb128 0x1d
 2894 0186 0B       		.uleb128 0xb
ARM GAS  G:\Users\Jaxb\AppData\Local\Temp\cc22GpwV.s 			page 60


 2895 0187 01       		.byte	0x1
 2896 0188 00       		.byte	0
 2897 0189 00       		.byte	0
 2898 018a 1E       		.uleb128 0x1e
 2899 018b 0B       		.uleb128 0xb
 2900 018c 01       		.byte	0x1
 2901 018d 01       		.uleb128 0x1
 2902 018e 13       		.uleb128 0x13
 2903 018f 00       		.byte	0
 2904 0190 00       		.byte	0
 2905 0191 1F       		.uleb128 0x1f
 2906 0192 898201   		.uleb128 0x4109
 2907 0195 01       		.byte	0x1
 2908 0196 11       		.uleb128 0x11
 2909 0197 01       		.uleb128 0x1
 2910 0198 01       		.uleb128 0x1
 2911 0199 13       		.uleb128 0x13
 2912 019a 00       		.byte	0
 2913 019b 00       		.byte	0
 2914 019c 20       		.uleb128 0x20
 2915 019d 2E       		.uleb128 0x2e
 2916 019e 01       		.byte	0x1
 2917 019f 03       		.uleb128 0x3
 2918 01a0 0E       		.uleb128 0xe
 2919 01a1 3A       		.uleb128 0x3a
 2920 01a2 0B       		.uleb128 0xb
 2921 01a3 3B       		.uleb128 0x3b
 2922 01a4 0B       		.uleb128 0xb
 2923 01a5 27       		.uleb128 0x27
 2924 01a6 0C       		.uleb128 0xc
 2925 01a7 49       		.uleb128 0x49
 2926 01a8 13       		.uleb128 0x13
 2927 01a9 20       		.uleb128 0x20
 2928 01aa 0B       		.uleb128 0xb
 2929 01ab 01       		.uleb128 0x1
 2930 01ac 13       		.uleb128 0x13
 2931 01ad 00       		.byte	0
 2932 01ae 00       		.byte	0
 2933 01af 21       		.uleb128 0x21
 2934 01b0 2E       		.uleb128 0x2e
 2935 01b1 01       		.byte	0x1
 2936 01b2 03       		.uleb128 0x3
 2937 01b3 0E       		.uleb128 0xe
 2938 01b4 3A       		.uleb128 0x3a
 2939 01b5 0B       		.uleb128 0xb
 2940 01b6 3B       		.uleb128 0x3b
 2941 01b7 0B       		.uleb128 0xb
 2942 01b8 27       		.uleb128 0x27
 2943 01b9 0C       		.uleb128 0xc
 2944 01ba 20       		.uleb128 0x20
 2945 01bb 0B       		.uleb128 0xb
 2946 01bc 01       		.uleb128 0x1
 2947 01bd 13       		.uleb128 0x13
 2948 01be 00       		.byte	0
 2949 01bf 00       		.byte	0
 2950 01c0 22       		.uleb128 0x22
 2951 01c1 05       		.uleb128 0x5
ARM GAS  G:\Users\Jaxb\AppData\Local\Temp\cc22GpwV.s 			page 61


 2952 01c2 00       		.byte	0
 2953 01c3 03       		.uleb128 0x3
 2954 01c4 08       		.uleb128 0x8
 2955 01c5 3A       		.uleb128 0x3a
 2956 01c6 0B       		.uleb128 0xb
 2957 01c7 3B       		.uleb128 0x3b
 2958 01c8 0B       		.uleb128 0xb
 2959 01c9 49       		.uleb128 0x49
 2960 01ca 13       		.uleb128 0x13
 2961 01cb 00       		.byte	0
 2962 01cc 00       		.byte	0
 2963 01cd 23       		.uleb128 0x23
 2964 01ce 2E       		.uleb128 0x2e
 2965 01cf 01       		.byte	0x1
 2966 01d0 31       		.uleb128 0x31
 2967 01d1 13       		.uleb128 0x13
 2968 01d2 11       		.uleb128 0x11
 2969 01d3 01       		.uleb128 0x1
 2970 01d4 12       		.uleb128 0x12
 2971 01d5 01       		.uleb128 0x1
 2972 01d6 40       		.uleb128 0x40
 2973 01d7 06       		.uleb128 0x6
 2974 01d8 9742     		.uleb128 0x2117
 2975 01da 0C       		.uleb128 0xc
 2976 01db 01       		.uleb128 0x1
 2977 01dc 13       		.uleb128 0x13
 2978 01dd 00       		.byte	0
 2979 01de 00       		.byte	0
 2980 01df 24       		.uleb128 0x24
 2981 01e0 34       		.uleb128 0x34
 2982 01e1 00       		.byte	0
 2983 01e2 31       		.uleb128 0x31
 2984 01e3 13       		.uleb128 0x13
 2985 01e4 02       		.uleb128 0x2
 2986 01e5 06       		.uleb128 0x6
 2987 01e6 00       		.byte	0
 2988 01e7 00       		.byte	0
 2989 01e8 25       		.uleb128 0x25
 2990 01e9 0B       		.uleb128 0xb
 2991 01ea 01       		.byte	0x1
 2992 01eb 31       		.uleb128 0x31
 2993 01ec 13       		.uleb128 0x13
 2994 01ed 11       		.uleb128 0x11
 2995 01ee 01       		.uleb128 0x1
 2996 01ef 12       		.uleb128 0x12
 2997 01f0 01       		.uleb128 0x1
 2998 01f1 01       		.uleb128 0x1
 2999 01f2 13       		.uleb128 0x13
 3000 01f3 00       		.byte	0
 3001 01f4 00       		.byte	0
 3002 01f5 26       		.uleb128 0x26
 3003 01f6 0B       		.uleb128 0xb
 3004 01f7 01       		.byte	0x1
 3005 01f8 11       		.uleb128 0x11
 3006 01f9 01       		.uleb128 0x1
 3007 01fa 12       		.uleb128 0x12
 3008 01fb 01       		.uleb128 0x1
ARM GAS  G:\Users\Jaxb\AppData\Local\Temp\cc22GpwV.s 			page 62


 3009 01fc 00       		.byte	0
 3010 01fd 00       		.byte	0
 3011 01fe 27       		.uleb128 0x27
 3012 01ff 34       		.uleb128 0x34
 3013 0200 00       		.byte	0
 3014 0201 31       		.uleb128 0x31
 3015 0202 13       		.uleb128 0x13
 3016 0203 00       		.byte	0
 3017 0204 00       		.byte	0
 3018 0205 28       		.uleb128 0x28
 3019 0206 2E       		.uleb128 0x2e
 3020 0207 00       		.byte	0
 3021 0208 3F       		.uleb128 0x3f
 3022 0209 0C       		.uleb128 0xc
 3023 020a 3C       		.uleb128 0x3c
 3024 020b 0C       		.uleb128 0xc
 3025 020c 8740     		.uleb128 0x2007
 3026 020e 0E       		.uleb128 0xe
 3027 020f 03       		.uleb128 0x3
 3028 0210 0E       		.uleb128 0xe
 3029 0211 3A       		.uleb128 0x3a
 3030 0212 0B       		.uleb128 0xb
 3031 0213 3B       		.uleb128 0x3b
 3032 0214 0B       		.uleb128 0xb
 3033 0215 00       		.byte	0
 3034 0216 00       		.byte	0
 3035 0217 00       		.byte	0
 3036              		.section	.debug_loc,"",%progbits
 3037              	.Ldebug_loc0:
 3038              	.LLST70:
 3039 0000 D4020000 		.4byte	.LFB19-.Ltext0
 3040 0004 D6020000 		.4byte	.LCFI9-.Ltext0
 3041 0008 0200     		.2byte	0x2
 3042 000a 7D       		.byte	0x7d
 3043 000b 00       		.sleb128 0
 3044 000c D6020000 		.4byte	.LCFI9-.Ltext0
 3045 0010 04030000 		.4byte	.LFE19-.Ltext0
 3046 0014 0200     		.2byte	0x2
 3047 0016 7D       		.byte	0x7d
 3048 0017 08       		.sleb128 8
 3049 0018 00000000 		.4byte	0
 3050 001c 00000000 		.4byte	0
 3051              	.LLST71:
 3052 0020 D4020000 		.4byte	.LVL125-.Ltext0
 3053 0024 DC020000 		.4byte	.LVL127-.Ltext0
 3054 0028 0100     		.2byte	0x1
 3055 002a 50       		.byte	0x50
 3056 002b DC020000 		.4byte	.LVL127-.Ltext0
 3057 002f E6020000 		.4byte	.LVL128-.Ltext0
 3058 0033 0100     		.2byte	0x1
 3059 0035 54       		.byte	0x54
 3060 0036 E6020000 		.4byte	.LVL128-.Ltext0
 3061 003a EA020000 		.4byte	.LVL129-.Ltext0
 3062 003e 0100     		.2byte	0x1
 3063 0040 50       		.byte	0x50
 3064 0041 EA020000 		.4byte	.LVL129-.Ltext0
 3065 0045 FC020000 		.4byte	.LVL133-.Ltext0
ARM GAS  G:\Users\Jaxb\AppData\Local\Temp\cc22GpwV.s 			page 63


 3066 0049 0100     		.2byte	0x1
 3067 004b 54       		.byte	0x54
 3068 004c FC020000 		.4byte	.LVL133-.Ltext0
 3069 0050 04030000 		.4byte	.LFE19-.Ltext0
 3070 0054 0400     		.2byte	0x4
 3071 0056 F3       		.byte	0xf3
 3072 0057 01       		.uleb128 0x1
 3073 0058 50       		.byte	0x50
 3074 0059 9F       		.byte	0x9f
 3075 005a 00000000 		.4byte	0
 3076 005e 00000000 		.4byte	0
 3077              	.LLST72:
 3078 0062 DA020000 		.4byte	.LVL126-.Ltext0
 3079 0066 DC020000 		.4byte	.LVL127-.Ltext0
 3080 006a 0100     		.2byte	0x1
 3081 006c 50       		.byte	0x50
 3082 006d 00000000 		.4byte	0
 3083 0071 00000000 		.4byte	0
 3084              	.LLST64:
 3085 0075 A8020000 		.4byte	.LFB18-.Ltext0
 3086 0079 AA020000 		.4byte	.LCFI8-.Ltext0
 3087 007d 0200     		.2byte	0x2
 3088 007f 7D       		.byte	0x7d
 3089 0080 00       		.sleb128 0
 3090 0081 AA020000 		.4byte	.LCFI8-.Ltext0
 3091 0085 D4020000 		.4byte	.LFE18-.Ltext0
 3092 0089 0200     		.2byte	0x2
 3093 008b 7D       		.byte	0x7d
 3094 008c 10       		.sleb128 16
 3095 008d 00000000 		.4byte	0
 3096 0091 00000000 		.4byte	0
 3097              	.LLST65:
 3098 0095 A8020000 		.4byte	.LVL117-.Ltext0
 3099 0099 BE020000 		.4byte	.LVL120-.Ltext0
 3100 009d 0100     		.2byte	0x1
 3101 009f 50       		.byte	0x50
 3102 00a0 BE020000 		.4byte	.LVL120-.Ltext0
 3103 00a4 C0020000 		.4byte	.LVL121-.Ltext0
 3104 00a8 0400     		.2byte	0x4
 3105 00aa F3       		.byte	0xf3
 3106 00ab 01       		.uleb128 0x1
 3107 00ac 50       		.byte	0x50
 3108 00ad 9F       		.byte	0x9f
 3109 00ae C0020000 		.4byte	.LVL121-.Ltext0
 3110 00b2 C8020000 		.4byte	.LVL123-.Ltext0
 3111 00b6 0100     		.2byte	0x1
 3112 00b8 50       		.byte	0x50
 3113 00b9 C8020000 		.4byte	.LVL123-.Ltext0
 3114 00bd D4020000 		.4byte	.LFE18-.Ltext0
 3115 00c1 0400     		.2byte	0x4
 3116 00c3 F3       		.byte	0xf3
 3117 00c4 01       		.uleb128 0x1
 3118 00c5 50       		.byte	0x50
 3119 00c6 9F       		.byte	0x9f
 3120 00c7 00000000 		.4byte	0
 3121 00cb 00000000 		.4byte	0
 3122              	.LLST66:
ARM GAS  G:\Users\Jaxb\AppData\Local\Temp\cc22GpwV.s 			page 64


 3123 00cf A8020000 		.4byte	.LVL117-.Ltext0
 3124 00d3 C6020000 		.4byte	.LVL122-.Ltext0
 3125 00d7 0100     		.2byte	0x1
 3126 00d9 51       		.byte	0x51
 3127 00da C6020000 		.4byte	.LVL122-.Ltext0
 3128 00de D4020000 		.4byte	.LFE18-.Ltext0
 3129 00e2 0400     		.2byte	0x4
 3130 00e4 F3       		.byte	0xf3
 3131 00e5 01       		.uleb128 0x1
 3132 00e6 51       		.byte	0x51
 3133 00e7 9F       		.byte	0x9f
 3134 00e8 00000000 		.4byte	0
 3135 00ec 00000000 		.4byte	0
 3136              	.LLST67:
 3137 00f0 A8020000 		.4byte	.LVL117-.Ltext0
 3138 00f4 CB020000 		.4byte	.LVL124-1-.Ltext0
 3139 00f8 0100     		.2byte	0x1
 3140 00fa 52       		.byte	0x52
 3141 00fb CB020000 		.4byte	.LVL124-1-.Ltext0
 3142 00ff D4020000 		.4byte	.LFE18-.Ltext0
 3143 0103 0400     		.2byte	0x4
 3144 0105 F3       		.byte	0xf3
 3145 0106 01       		.uleb128 0x1
 3146 0107 52       		.byte	0x52
 3147 0108 9F       		.byte	0x9f
 3148 0109 00000000 		.4byte	0
 3149 010d 00000000 		.4byte	0
 3150              	.LLST68:
 3151 0111 A8020000 		.4byte	.LVL117-.Ltext0
 3152 0115 C0020000 		.4byte	.LVL121-.Ltext0
 3153 0119 0100     		.2byte	0x1
 3154 011b 53       		.byte	0x53
 3155 011c C0020000 		.4byte	.LVL121-.Ltext0
 3156 0120 CB020000 		.4byte	.LVL124-1-.Ltext0
 3157 0124 0100     		.2byte	0x1
 3158 0126 53       		.byte	0x53
 3159 0127 CB020000 		.4byte	.LVL124-1-.Ltext0
 3160 012b D4020000 		.4byte	.LFE18-.Ltext0
 3161 012f 0400     		.2byte	0x4
 3162 0131 F3       		.byte	0xf3
 3163 0132 01       		.uleb128 0x1
 3164 0133 53       		.byte	0x53
 3165 0134 9F       		.byte	0x9f
 3166 0135 00000000 		.4byte	0
 3167 0139 00000000 		.4byte	0
 3168              	.LLST69:
 3169 013d B6020000 		.4byte	.LVL118-.Ltext0
 3170 0141 BA020000 		.4byte	.LVL119-.Ltext0
 3171 0145 0100     		.2byte	0x1
 3172 0147 50       		.byte	0x50
 3173 0148 00000000 		.4byte	0
 3174 014c 00000000 		.4byte	0
 3175              	.LLST60:
 3176 0150 94020000 		.4byte	.LFB17-.Ltext0
 3177 0154 96020000 		.4byte	.LCFI7-.Ltext0
 3178 0158 0200     		.2byte	0x2
 3179 015a 7D       		.byte	0x7d
ARM GAS  G:\Users\Jaxb\AppData\Local\Temp\cc22GpwV.s 			page 65


 3180 015b 00       		.sleb128 0
 3181 015c 96020000 		.4byte	.LCFI7-.Ltext0
 3182 0160 A6020000 		.4byte	.LFE17-.Ltext0
 3183 0164 0200     		.2byte	0x2
 3184 0166 7D       		.byte	0x7d
 3185 0167 10       		.sleb128 16
 3186 0168 00000000 		.4byte	0
 3187 016c 00000000 		.4byte	0
 3188              	.LLST61:
 3189 0170 94020000 		.4byte	.LVL115-.Ltext0
 3190 0174 9F020000 		.4byte	.LVL116-1-.Ltext0
 3191 0178 0100     		.2byte	0x1
 3192 017a 50       		.byte	0x50
 3193 017b 9F020000 		.4byte	.LVL116-1-.Ltext0
 3194 017f A6020000 		.4byte	.LFE17-.Ltext0
 3195 0183 0100     		.2byte	0x1
 3196 0185 54       		.byte	0x54
 3197 0186 00000000 		.4byte	0
 3198 018a 00000000 		.4byte	0
 3199              	.LLST62:
 3200 018e 94020000 		.4byte	.LVL115-.Ltext0
 3201 0192 9F020000 		.4byte	.LVL116-1-.Ltext0
 3202 0196 0100     		.2byte	0x1
 3203 0198 51       		.byte	0x51
 3204 0199 9F020000 		.4byte	.LVL116-1-.Ltext0
 3205 019d A6020000 		.4byte	.LFE17-.Ltext0
 3206 01a1 0400     		.2byte	0x4
 3207 01a3 F3       		.byte	0xf3
 3208 01a4 01       		.uleb128 0x1
 3209 01a5 51       		.byte	0x51
 3210 01a6 9F       		.byte	0x9f
 3211 01a7 00000000 		.4byte	0
 3212 01ab 00000000 		.4byte	0
 3213              	.LLST63:
 3214 01af 94020000 		.4byte	.LVL115-.Ltext0
 3215 01b3 9F020000 		.4byte	.LVL116-1-.Ltext0
 3216 01b7 0600     		.2byte	0x6
 3217 01b9 52       		.byte	0x52
 3218 01ba 93       		.byte	0x93
 3219 01bb 04       		.uleb128 0x4
 3220 01bc 53       		.byte	0x53
 3221 01bd 93       		.byte	0x93
 3222 01be 04       		.uleb128 0x4
 3223 01bf 9F020000 		.4byte	.LVL116-1-.Ltext0
 3224 01c3 A6020000 		.4byte	.LFE17-.Ltext0
 3225 01c7 0600     		.2byte	0x6
 3226 01c9 F3       		.byte	0xf3
 3227 01ca 03       		.uleb128 0x3
 3228 01cb F5       		.byte	0xf5
 3229 01cc 02       		.uleb128 0x2
 3230 01cd 25       		.uleb128 0x25
 3231 01ce 9F       		.byte	0x9f
 3232 01cf 00000000 		.4byte	0
 3233 01d3 00000000 		.4byte	0
 3234              	.LLST56:
 3235 01d7 58020000 		.4byte	.LFB16-.Ltext0
 3236 01db 5A020000 		.4byte	.LCFI6-.Ltext0
ARM GAS  G:\Users\Jaxb\AppData\Local\Temp\cc22GpwV.s 			page 66


 3237 01df 0200     		.2byte	0x2
 3238 01e1 7D       		.byte	0x7d
 3239 01e2 00       		.sleb128 0
 3240 01e3 5A020000 		.4byte	.LCFI6-.Ltext0
 3241 01e7 94020000 		.4byte	.LFE16-.Ltext0
 3242 01eb 0200     		.2byte	0x2
 3243 01ed 7D       		.byte	0x7d
 3244 01ee 10       		.sleb128 16
 3245 01ef 00000000 		.4byte	0
 3246 01f3 00000000 		.4byte	0
 3247              	.LLST57:
 3248 01f7 58020000 		.4byte	.LVL103-.Ltext0
 3249 01fb 62020000 		.4byte	.LVL104-.Ltext0
 3250 01ff 0100     		.2byte	0x1
 3251 0201 50       		.byte	0x50
 3252 0202 62020000 		.4byte	.LVL104-.Ltext0
 3253 0206 6E020000 		.4byte	.LVL107-.Ltext0
 3254 020a 0100     		.2byte	0x1
 3255 020c 54       		.byte	0x54
 3256 020d 6E020000 		.4byte	.LVL107-.Ltext0
 3257 0211 72020000 		.4byte	.LVL109-.Ltext0
 3258 0215 0100     		.2byte	0x1
 3259 0217 50       		.byte	0x50
 3260 0218 72020000 		.4byte	.LVL109-.Ltext0
 3261 021c 8E020000 		.4byte	.LVL114-.Ltext0
 3262 0220 0100     		.2byte	0x1
 3263 0222 54       		.byte	0x54
 3264 0223 8E020000 		.4byte	.LVL114-.Ltext0
 3265 0227 94020000 		.4byte	.LFE16-.Ltext0
 3266 022b 0400     		.2byte	0x4
 3267 022d F3       		.byte	0xf3
 3268 022e 01       		.uleb128 0x1
 3269 022f 50       		.byte	0x50
 3270 0230 9F       		.byte	0x9f
 3271 0231 00000000 		.4byte	0
 3272 0235 00000000 		.4byte	0
 3273              	.LLST58:
 3274 0239 58020000 		.4byte	.LVL103-.Ltext0
 3275 023d 62020000 		.4byte	.LVL104-.Ltext0
 3276 0241 0100     		.2byte	0x1
 3277 0243 51       		.byte	0x51
 3278 0244 62020000 		.4byte	.LVL104-.Ltext0
 3279 0248 6E020000 		.4byte	.LVL107-.Ltext0
 3280 024c 0100     		.2byte	0x1
 3281 024e 55       		.byte	0x55
 3282 024f 6E020000 		.4byte	.LVL107-.Ltext0
 3283 0253 70020000 		.4byte	.LVL108-.Ltext0
 3284 0257 0100     		.2byte	0x1
 3285 0259 51       		.byte	0x51
 3286 025a 70020000 		.4byte	.LVL108-.Ltext0
 3287 025e 8E020000 		.4byte	.LVL114-.Ltext0
 3288 0262 0100     		.2byte	0x1
 3289 0264 55       		.byte	0x55
 3290 0265 8E020000 		.4byte	.LVL114-.Ltext0
 3291 0269 94020000 		.4byte	.LFE16-.Ltext0
 3292 026d 0300     		.2byte	0x3
 3293 026f F3       		.byte	0xf3
ARM GAS  G:\Users\Jaxb\AppData\Local\Temp\cc22GpwV.s 			page 67


 3294 0270 01       		.uleb128 0x1
 3295 0271 50       		.byte	0x50
 3296 0272 00000000 		.4byte	0
 3297 0276 00000000 		.4byte	0
 3298              	.LLST59:
 3299 027a 68020000 		.4byte	.LVL105-.Ltext0
 3300 027e 6C020000 		.4byte	.LVL106-.Ltext0
 3301 0282 0100     		.2byte	0x1
 3302 0284 53       		.byte	0x53
 3303 0285 88020000 		.4byte	.LVL112-.Ltext0
 3304 0289 8C020000 		.4byte	.LVL113-.Ltext0
 3305 028d 0100     		.2byte	0x1
 3306 028f 53       		.byte	0x53
 3307 0290 00000000 		.4byte	0
 3308 0294 00000000 		.4byte	0
 3309              	.LLST48:
 3310 0298 0C020000 		.4byte	.LFB15-.Ltext0
 3311 029c 0E020000 		.4byte	.LCFI5-.Ltext0
 3312 02a0 0200     		.2byte	0x2
 3313 02a2 7D       		.byte	0x7d
 3314 02a3 00       		.sleb128 0
 3315 02a4 0E020000 		.4byte	.LCFI5-.Ltext0
 3316 02a8 58020000 		.4byte	.LFE15-.Ltext0
 3317 02ac 0200     		.2byte	0x2
 3318 02ae 7D       		.byte	0x7d
 3319 02af 10       		.sleb128 16
 3320 02b0 00000000 		.4byte	0
 3321 02b4 00000000 		.4byte	0
 3322              	.LLST49:
 3323 02b8 0C020000 		.4byte	.LVL88-.Ltext0
 3324 02bc 15020000 		.4byte	.LVL89-1-.Ltext0
 3325 02c0 0100     		.2byte	0x1
 3326 02c2 50       		.byte	0x50
 3327 02c3 15020000 		.4byte	.LVL89-1-.Ltext0
 3328 02c7 3A020000 		.4byte	.LVL97-.Ltext0
 3329 02cb 0100     		.2byte	0x1
 3330 02cd 55       		.byte	0x55
 3331 02ce 3A020000 		.4byte	.LVL97-.Ltext0
 3332 02d2 40020000 		.4byte	.LVL99-.Ltext0
 3333 02d6 0100     		.2byte	0x1
 3334 02d8 50       		.byte	0x50
 3335 02d9 40020000 		.4byte	.LVL99-.Ltext0
 3336 02dd 4E020000 		.4byte	.LVL102-.Ltext0
 3337 02e1 0100     		.2byte	0x1
 3338 02e3 55       		.byte	0x55
 3339 02e4 4E020000 		.4byte	.LVL102-.Ltext0
 3340 02e8 58020000 		.4byte	.LFE15-.Ltext0
 3341 02ec 0100     		.2byte	0x1
 3342 02ee 50       		.byte	0x50
 3343 02ef 00000000 		.4byte	0
 3344 02f3 00000000 		.4byte	0
 3345              	.LLST50:
 3346 02f7 0C020000 		.4byte	.LVL88-.Ltext0
 3347 02fb 15020000 		.4byte	.LVL89-1-.Ltext0
 3348 02ff 0100     		.2byte	0x1
 3349 0301 51       		.byte	0x51
 3350 0302 15020000 		.4byte	.LVL89-1-.Ltext0
ARM GAS  G:\Users\Jaxb\AppData\Local\Temp\cc22GpwV.s 			page 68


 3351 0306 3A020000 		.4byte	.LVL97-.Ltext0
 3352 030a 0400     		.2byte	0x4
 3353 030c F3       		.byte	0xf3
 3354 030d 01       		.uleb128 0x1
 3355 030e 51       		.byte	0x51
 3356 030f 9F       		.byte	0x9f
 3357 0310 3A020000 		.4byte	.LVL97-.Ltext0
 3358 0314 3E020000 		.4byte	.LVL98-.Ltext0
 3359 0318 0100     		.2byte	0x1
 3360 031a 51       		.byte	0x51
 3361 031b 3E020000 		.4byte	.LVL98-.Ltext0
 3362 031f 58020000 		.4byte	.LFE15-.Ltext0
 3363 0323 0400     		.2byte	0x4
 3364 0325 F3       		.byte	0xf3
 3365 0326 01       		.uleb128 0x1
 3366 0327 51       		.byte	0x51
 3367 0328 9F       		.byte	0x9f
 3368 0329 00000000 		.4byte	0
 3369 032d 00000000 		.4byte	0
 3370              	.LLST51:
 3371 0331 0C020000 		.4byte	.LVL88-.Ltext0
 3372 0335 15020000 		.4byte	.LVL89-1-.Ltext0
 3373 0339 0600     		.2byte	0x6
 3374 033b 52       		.byte	0x52
 3375 033c 93       		.byte	0x93
 3376 033d 04       		.uleb128 0x4
 3377 033e 53       		.byte	0x53
 3378 033f 93       		.byte	0x93
 3379 0340 04       		.uleb128 0x4
 3380 0341 15020000 		.4byte	.LVL89-1-.Ltext0
 3381 0345 3A020000 		.4byte	.LVL97-.Ltext0
 3382 0349 0600     		.2byte	0x6
 3383 034b F3       		.byte	0xf3
 3384 034c 03       		.uleb128 0x3
 3385 034d F5       		.byte	0xf5
 3386 034e 02       		.uleb128 0x2
 3387 034f 25       		.uleb128 0x25
 3388 0350 9F       		.byte	0x9f
 3389 0351 3A020000 		.4byte	.LVL97-.Ltext0
 3390 0355 43020000 		.4byte	.LVL100-1-.Ltext0
 3391 0359 0600     		.2byte	0x6
 3392 035b 52       		.byte	0x52
 3393 035c 93       		.byte	0x93
 3394 035d 04       		.uleb128 0x4
 3395 035e 53       		.byte	0x53
 3396 035f 93       		.byte	0x93
 3397 0360 04       		.uleb128 0x4
 3398 0361 43020000 		.4byte	.LVL100-1-.Ltext0
 3399 0365 58020000 		.4byte	.LFE15-.Ltext0
 3400 0369 0600     		.2byte	0x6
 3401 036b F3       		.byte	0xf3
 3402 036c 03       		.uleb128 0x3
 3403 036d F5       		.byte	0xf5
 3404 036e 02       		.uleb128 0x2
 3405 036f 25       		.uleb128 0x25
 3406 0370 9F       		.byte	0x9f
 3407 0371 00000000 		.4byte	0
ARM GAS  G:\Users\Jaxb\AppData\Local\Temp\cc22GpwV.s 			page 69


 3408 0375 00000000 		.4byte	0
 3409              	.LLST52:
 3410 0379 16020000 		.4byte	.LVL89-.Ltext0
 3411 037d 26020000 		.4byte	.LVL93-.Ltext0
 3412 0381 0100     		.2byte	0x1
 3413 0383 50       		.byte	0x50
 3414 0384 26020000 		.4byte	.LVL93-.Ltext0
 3415 0388 2E020000 		.4byte	.LVL94-.Ltext0
 3416 038c 0100     		.2byte	0x1
 3417 038e 54       		.byte	0x54
 3418 038f 2E020000 		.4byte	.LVL94-.Ltext0
 3419 0393 32020000 		.4byte	.LVL95-.Ltext0
 3420 0397 0100     		.2byte	0x1
 3421 0399 50       		.byte	0x50
 3422 039a 32020000 		.4byte	.LVL95-.Ltext0
 3423 039e 3A020000 		.4byte	.LVL97-.Ltext0
 3424 03a2 0100     		.2byte	0x1
 3425 03a4 54       		.byte	0x54
 3426 03a5 00000000 		.4byte	0
 3427 03a9 00000000 		.4byte	0
 3428              	.LLST53:
 3429 03ad 1A020000 		.4byte	.LVL90-.Ltext0
 3430 03b1 24020000 		.4byte	.LVL92-.Ltext0
 3431 03b5 0300     		.2byte	0x3
 3432 03b7 70       		.byte	0x70
 3433 03b8 10       		.sleb128 16
 3434 03b9 9F       		.byte	0x9f
 3435 03ba 00000000 		.4byte	0
 3436 03be 00000000 		.4byte	0
 3437              	.LLST54:
 3438 03c2 1E020000 		.4byte	.LVL91-.Ltext0
 3439 03c6 24020000 		.4byte	.LVL92-.Ltext0
 3440 03ca 0100     		.2byte	0x1
 3441 03cc 51       		.byte	0x51
 3442 03cd 00000000 		.4byte	0
 3443 03d1 00000000 		.4byte	0
 3444              	.LLST55:
 3445 03d5 1E020000 		.4byte	.LVL91-.Ltext0
 3446 03d9 24020000 		.4byte	.LVL92-.Ltext0
 3447 03dd 0100     		.2byte	0x1
 3448 03df 52       		.byte	0x52
 3449 03e0 00000000 		.4byte	0
 3450 03e4 00000000 		.4byte	0
 3451              	.LLST41:
 3452 03e8 C0010000 		.4byte	.LFB14-.Ltext0
 3453 03ec C2010000 		.4byte	.LCFI4-.Ltext0
 3454 03f0 0200     		.2byte	0x2
 3455 03f2 7D       		.byte	0x7d
 3456 03f3 00       		.sleb128 0
 3457 03f4 C2010000 		.4byte	.LCFI4-.Ltext0
 3458 03f8 0C020000 		.4byte	.LFE14-.Ltext0
 3459 03fc 0200     		.2byte	0x2
 3460 03fe 7D       		.byte	0x7d
 3461 03ff 10       		.sleb128 16
 3462 0400 00000000 		.4byte	0
 3463 0404 00000000 		.4byte	0
 3464              	.LLST42:
ARM GAS  G:\Users\Jaxb\AppData\Local\Temp\cc22GpwV.s 			page 70


 3465 0408 C0010000 		.4byte	.LVL73-.Ltext0
 3466 040c C9010000 		.4byte	.LVL74-1-.Ltext0
 3467 0410 0100     		.2byte	0x1
 3468 0412 50       		.byte	0x50
 3469 0413 C9010000 		.4byte	.LVL74-1-.Ltext0
 3470 0417 EE010000 		.4byte	.LVL82-.Ltext0
 3471 041b 0100     		.2byte	0x1
 3472 041d 55       		.byte	0x55
 3473 041e EE010000 		.4byte	.LVL82-.Ltext0
 3474 0422 F4010000 		.4byte	.LVL84-.Ltext0
 3475 0426 0100     		.2byte	0x1
 3476 0428 50       		.byte	0x50
 3477 0429 F4010000 		.4byte	.LVL84-.Ltext0
 3478 042d 02020000 		.4byte	.LVL87-.Ltext0
 3479 0431 0100     		.2byte	0x1
 3480 0433 55       		.byte	0x55
 3481 0434 02020000 		.4byte	.LVL87-.Ltext0
 3482 0438 0C020000 		.4byte	.LFE14-.Ltext0
 3483 043c 0100     		.2byte	0x1
 3484 043e 50       		.byte	0x50
 3485 043f 00000000 		.4byte	0
 3486 0443 00000000 		.4byte	0
 3487              	.LLST43:
 3488 0447 C0010000 		.4byte	.LVL73-.Ltext0
 3489 044b C9010000 		.4byte	.LVL74-1-.Ltext0
 3490 044f 0100     		.2byte	0x1
 3491 0451 51       		.byte	0x51
 3492 0452 C9010000 		.4byte	.LVL74-1-.Ltext0
 3493 0456 EE010000 		.4byte	.LVL82-.Ltext0
 3494 045a 0400     		.2byte	0x4
 3495 045c F3       		.byte	0xf3
 3496 045d 01       		.uleb128 0x1
 3497 045e 51       		.byte	0x51
 3498 045f 9F       		.byte	0x9f
 3499 0460 EE010000 		.4byte	.LVL82-.Ltext0
 3500 0464 F2010000 		.4byte	.LVL83-.Ltext0
 3501 0468 0100     		.2byte	0x1
 3502 046a 51       		.byte	0x51
 3503 046b F2010000 		.4byte	.LVL83-.Ltext0
 3504 046f 0C020000 		.4byte	.LFE14-.Ltext0
 3505 0473 0400     		.2byte	0x4
 3506 0475 F3       		.byte	0xf3
 3507 0476 01       		.uleb128 0x1
 3508 0477 51       		.byte	0x51
 3509 0478 9F       		.byte	0x9f
 3510 0479 00000000 		.4byte	0
 3511 047d 00000000 		.4byte	0
 3512              	.LLST44:
 3513 0481 CA010000 		.4byte	.LVL74-.Ltext0
 3514 0485 DA010000 		.4byte	.LVL78-.Ltext0
 3515 0489 0100     		.2byte	0x1
 3516 048b 50       		.byte	0x50
 3517 048c DA010000 		.4byte	.LVL78-.Ltext0
 3518 0490 E2010000 		.4byte	.LVL79-.Ltext0
 3519 0494 0100     		.2byte	0x1
 3520 0496 54       		.byte	0x54
 3521 0497 E2010000 		.4byte	.LVL79-.Ltext0
ARM GAS  G:\Users\Jaxb\AppData\Local\Temp\cc22GpwV.s 			page 71


 3522 049b E6010000 		.4byte	.LVL80-.Ltext0
 3523 049f 0100     		.2byte	0x1
 3524 04a1 50       		.byte	0x50
 3525 04a2 E6010000 		.4byte	.LVL80-.Ltext0
 3526 04a6 EE010000 		.4byte	.LVL82-.Ltext0
 3527 04aa 0100     		.2byte	0x1
 3528 04ac 54       		.byte	0x54
 3529 04ad 00000000 		.4byte	0
 3530 04b1 00000000 		.4byte	0
 3531              	.LLST45:
 3532 04b5 CE010000 		.4byte	.LVL75-.Ltext0
 3533 04b9 D8010000 		.4byte	.LVL77-.Ltext0
 3534 04bd 0300     		.2byte	0x3
 3535 04bf 70       		.byte	0x70
 3536 04c0 10       		.sleb128 16
 3537 04c1 9F       		.byte	0x9f
 3538 04c2 00000000 		.4byte	0
 3539 04c6 00000000 		.4byte	0
 3540              	.LLST46:
 3541 04ca D2010000 		.4byte	.LVL76-.Ltext0
 3542 04ce D8010000 		.4byte	.LVL77-.Ltext0
 3543 04d2 0100     		.2byte	0x1
 3544 04d4 51       		.byte	0x51
 3545 04d5 00000000 		.4byte	0
 3546 04d9 00000000 		.4byte	0
 3547              	.LLST47:
 3548 04dd D2010000 		.4byte	.LVL76-.Ltext0
 3549 04e1 D8010000 		.4byte	.LVL77-.Ltext0
 3550 04e5 0100     		.2byte	0x1
 3551 04e7 52       		.byte	0x52
 3552 04e8 00000000 		.4byte	0
 3553 04ec 00000000 		.4byte	0
 3554              	.LLST33:
 3555 04f0 74010000 		.4byte	.LFB13-.Ltext0
 3556 04f4 76010000 		.4byte	.LCFI3-.Ltext0
 3557 04f8 0200     		.2byte	0x2
 3558 04fa 7D       		.byte	0x7d
 3559 04fb 00       		.sleb128 0
 3560 04fc 76010000 		.4byte	.LCFI3-.Ltext0
 3561 0500 C0010000 		.4byte	.LFE13-.Ltext0
 3562 0504 0200     		.2byte	0x2
 3563 0506 7D       		.byte	0x7d
 3564 0507 10       		.sleb128 16
 3565 0508 00000000 		.4byte	0
 3566 050c 00000000 		.4byte	0
 3567              	.LLST34:
 3568 0510 74010000 		.4byte	.LVL55-.Ltext0
 3569 0514 8C010000 		.4byte	.LVL61-.Ltext0
 3570 0518 0100     		.2byte	0x1
 3571 051a 50       		.byte	0x50
 3572 051b 8C010000 		.4byte	.LVL61-.Ltext0
 3573 051f 96010000 		.4byte	.LVL63-.Ltext0
 3574 0523 0100     		.2byte	0x1
 3575 0525 54       		.byte	0x54
 3576 0526 96010000 		.4byte	.LVL63-.Ltext0
 3577 052a 9A010000 		.4byte	.LVL64-.Ltext0
 3578 052e 0100     		.2byte	0x1
ARM GAS  G:\Users\Jaxb\AppData\Local\Temp\cc22GpwV.s 			page 72


 3579 0530 50       		.byte	0x50
 3580 0531 9A010000 		.4byte	.LVL64-.Ltext0
 3581 0535 A2010000 		.4byte	.LVL66-.Ltext0
 3582 0539 0100     		.2byte	0x1
 3583 053b 54       		.byte	0x54
 3584 053c A2010000 		.4byte	.LVL66-.Ltext0
 3585 0540 A6010000 		.4byte	.LVL67-.Ltext0
 3586 0544 0100     		.2byte	0x1
 3587 0546 50       		.byte	0x50
 3588 0547 A6010000 		.4byte	.LVL67-.Ltext0
 3589 054b B4010000 		.4byte	.LVL70-.Ltext0
 3590 054f 0100     		.2byte	0x1
 3591 0551 54       		.byte	0x54
 3592 0552 B4010000 		.4byte	.LVL70-.Ltext0
 3593 0556 B6010000 		.4byte	.LVL71-.Ltext0
 3594 055a 0100     		.2byte	0x1
 3595 055c 50       		.byte	0x50
 3596 055d B6010000 		.4byte	.LVL71-.Ltext0
 3597 0561 B8010000 		.4byte	.LVL72-.Ltext0
 3598 0565 0100     		.2byte	0x1
 3599 0567 54       		.byte	0x54
 3600 0568 B8010000 		.4byte	.LVL72-.Ltext0
 3601 056c C0010000 		.4byte	.LFE13-.Ltext0
 3602 0570 0400     		.2byte	0x4
 3603 0572 F3       		.byte	0xf3
 3604 0573 01       		.uleb128 0x1
 3605 0574 50       		.byte	0x50
 3606 0575 9F       		.byte	0x9f
 3607 0576 00000000 		.4byte	0
 3608 057a 00000000 		.4byte	0
 3609              	.LLST35:
 3610 057e 80010000 		.4byte	.LVL58-.Ltext0
 3611 0582 A2010000 		.4byte	.LVL66-.Ltext0
 3612 0586 0100     		.2byte	0x1
 3613 0588 55       		.byte	0x55
 3614 0589 00000000 		.4byte	0
 3615 058d 00000000 		.4byte	0
 3616              	.LLST40:
 3617 0591 90010000 		.4byte	.LVL62-.Ltext0
 3618 0595 96010000 		.4byte	.LVL63-.Ltext0
 3619 0599 0100     		.2byte	0x1
 3620 059b 55       		.byte	0x55
 3621 059c 00000000 		.4byte	0
 3622 05a0 00000000 		.4byte	0
 3623              	.LLST36:
 3624 05a4 7A010000 		.4byte	.LVL56-.Ltext0
 3625 05a8 7C010000 		.4byte	.LVL57-.Ltext0
 3626 05ac 0100     		.2byte	0x1
 3627 05ae 50       		.byte	0x50
 3628 05af 00000000 		.4byte	0
 3629 05b3 00000000 		.4byte	0
 3630              	.LLST37:
 3631 05b7 80010000 		.4byte	.LVL58-.Ltext0
 3632 05bb 8A010000 		.4byte	.LVL60-.Ltext0
 3633 05bf 0100     		.2byte	0x1
 3634 05c1 55       		.byte	0x55
 3635 05c2 00000000 		.4byte	0
ARM GAS  G:\Users\Jaxb\AppData\Local\Temp\cc22GpwV.s 			page 73


 3636 05c6 00000000 		.4byte	0
 3637              	.LLST38:
 3638 05ca 84010000 		.4byte	.LVL59-.Ltext0
 3639 05ce 8A010000 		.4byte	.LVL60-.Ltext0
 3640 05d2 0100     		.2byte	0x1
 3641 05d4 51       		.byte	0x51
 3642 05d5 00000000 		.4byte	0
 3643 05d9 00000000 		.4byte	0
 3644              	.LLST39:
 3645 05dd 84010000 		.4byte	.LVL59-.Ltext0
 3646 05e1 8A010000 		.4byte	.LVL60-.Ltext0
 3647 05e5 0100     		.2byte	0x1
 3648 05e7 52       		.byte	0x52
 3649 05e8 00000000 		.4byte	0
 3650 05ec 00000000 		.4byte	0
 3651              	.LLST0:
 3652 05f0 00000000 		.4byte	.LFB10-.Ltext0
 3653 05f4 02000000 		.4byte	.LCFI0-.Ltext0
 3654 05f8 0200     		.2byte	0x2
 3655 05fa 7D       		.byte	0x7d
 3656 05fb 00       		.sleb128 0
 3657 05fc 02000000 		.4byte	.LCFI0-.Ltext0
 3658 0600 A4000000 		.4byte	.LFE10-.Ltext0
 3659 0604 0200     		.2byte	0x2
 3660 0606 7D       		.byte	0x7d
 3661 0607 18       		.sleb128 24
 3662 0608 00000000 		.4byte	0
 3663 060c 00000000 		.4byte	0
 3664              	.LLST1:
 3665 0610 00000000 		.4byte	.LVL0-.Ltext0
 3666 0614 16000000 		.4byte	.LVL2-.Ltext0
 3667 0618 0100     		.2byte	0x1
 3668 061a 50       		.byte	0x50
 3669 061b 16000000 		.4byte	.LVL2-.Ltext0
 3670 061f 74000000 		.4byte	.LVL17-.Ltext0
 3671 0623 0100     		.2byte	0x1
 3672 0625 56       		.byte	0x56
 3673 0626 74000000 		.4byte	.LVL17-.Ltext0
 3674 062a 78000000 		.4byte	.LVL19-.Ltext0
 3675 062e 0100     		.2byte	0x1
 3676 0630 50       		.byte	0x50
 3677 0631 78000000 		.4byte	.LVL19-.Ltext0
 3678 0635 98000000 		.4byte	.LVL24-.Ltext0
 3679 0639 0100     		.2byte	0x1
 3680 063b 56       		.byte	0x56
 3681 063c 98000000 		.4byte	.LVL24-.Ltext0
 3682 0640 A4000000 		.4byte	.LFE10-.Ltext0
 3683 0644 0400     		.2byte	0x4
 3684 0646 F3       		.byte	0xf3
 3685 0647 01       		.uleb128 0x1
 3686 0648 50       		.byte	0x50
 3687 0649 9F       		.byte	0x9f
 3688 064a 00000000 		.4byte	0
 3689 064e 00000000 		.4byte	0
 3690              	.LLST2:
 3691 0652 00000000 		.4byte	.LVL0-.Ltext0
 3692 0656 16000000 		.4byte	.LVL2-.Ltext0
ARM GAS  G:\Users\Jaxb\AppData\Local\Temp\cc22GpwV.s 			page 74


 3693 065a 0100     		.2byte	0x1
 3694 065c 51       		.byte	0x51
 3695 065d 16000000 		.4byte	.LVL2-.Ltext0
 3696 0661 74000000 		.4byte	.LVL17-.Ltext0
 3697 0665 0100     		.2byte	0x1
 3698 0667 55       		.byte	0x55
 3699 0668 74000000 		.4byte	.LVL17-.Ltext0
 3700 066c 76000000 		.4byte	.LVL18-.Ltext0
 3701 0670 0100     		.2byte	0x1
 3702 0672 51       		.byte	0x51
 3703 0673 76000000 		.4byte	.LVL18-.Ltext0
 3704 0677 98000000 		.4byte	.LVL24-.Ltext0
 3705 067b 0100     		.2byte	0x1
 3706 067d 55       		.byte	0x55
 3707 067e 98000000 		.4byte	.LVL24-.Ltext0
 3708 0682 A4000000 		.4byte	.LFE10-.Ltext0
 3709 0686 0400     		.2byte	0x4
 3710 0688 F3       		.byte	0xf3
 3711 0689 01       		.uleb128 0x1
 3712 068a 51       		.byte	0x51
 3713 068b 9F       		.byte	0x9f
 3714 068c 00000000 		.4byte	0
 3715 0690 00000000 		.4byte	0
 3716              	.LLST3:
 3717 0694 16000000 		.4byte	.LVL2-.Ltext0
 3718 0698 18000000 		.4byte	.LVL3-.Ltext0
 3719 069c 0300     		.2byte	0x3
 3720 069e 74       		.byte	0x74
 3721 069f 70       		.sleb128 -16
 3722 06a0 9F       		.byte	0x9f
 3723 06a1 1C000000 		.4byte	.LVL4-.Ltext0
 3724 06a5 24000000 		.4byte	.LVL5-.Ltext0
 3725 06a9 0300     		.2byte	0x3
 3726 06ab 74       		.byte	0x74
 3727 06ac 70       		.sleb128 -16
 3728 06ad 9F       		.byte	0x9f
 3729 06ae 24000000 		.4byte	.LVL5-.Ltext0
 3730 06b2 25000000 		.4byte	.LVL6-1-.Ltext0
 3731 06b6 0100     		.2byte	0x1
 3732 06b8 50       		.byte	0x50
 3733 06b9 25000000 		.4byte	.LVL6-1-.Ltext0
 3734 06bd 40000000 		.4byte	.LVL9-.Ltext0
 3735 06c1 0300     		.2byte	0x3
 3736 06c3 74       		.byte	0x74
 3737 06c4 70       		.sleb128 -16
 3738 06c5 9F       		.byte	0x9f
 3739 06c6 68000000 		.4byte	.LVL15-.Ltext0
 3740 06ca 74000000 		.4byte	.LVL17-.Ltext0
 3741 06ce 0300     		.2byte	0x3
 3742 06d0 74       		.byte	0x74
 3743 06d1 70       		.sleb128 -16
 3744 06d2 9F       		.byte	0x9f
 3745 06d3 00000000 		.4byte	0
 3746 06d7 00000000 		.4byte	0
 3747              	.LLST4:
 3748 06db 10000000 		.4byte	.LVL1-.Ltext0
 3749 06df 40000000 		.4byte	.LVL9-.Ltext0
ARM GAS  G:\Users\Jaxb\AppData\Local\Temp\cc22GpwV.s 			page 75


 3750 06e3 0100     		.2byte	0x1
 3751 06e5 54       		.byte	0x54
 3752 06e6 44000000 		.4byte	.LVL10-.Ltext0
 3753 06ea 4E000000 		.4byte	.LVL12-.Ltext0
 3754 06ee 0100     		.2byte	0x1
 3755 06f0 54       		.byte	0x54
 3756 06f1 68000000 		.4byte	.LVL15-.Ltext0
 3757 06f5 74000000 		.4byte	.LVL17-.Ltext0
 3758 06f9 0100     		.2byte	0x1
 3759 06fb 54       		.byte	0x54
 3760 06fc 00000000 		.4byte	0
 3761 0700 00000000 		.4byte	0
 3762              	.LLST5:
 3763 0704 32000000 		.4byte	.LVL7-.Ltext0
 3764 0708 3C000000 		.4byte	.LVL8-.Ltext0
 3765 070c 0100     		.2byte	0x1
 3766 070e 54       		.byte	0x54
 3767 070f 00000000 		.4byte	0
 3768 0713 00000000 		.4byte	0
 3769              	.LLST6:
 3770 0717 32000000 		.4byte	.LVL7-.Ltext0
 3771 071b 3C000000 		.4byte	.LVL8-.Ltext0
 3772 071f 0100     		.2byte	0x1
 3773 0721 52       		.byte	0x52
 3774 0722 00000000 		.4byte	0
 3775 0726 00000000 		.4byte	0
 3776              	.LLST8:
 3777 072a 32000000 		.4byte	.LVL7-.Ltext0
 3778 072e 3C000000 		.4byte	.LVL8-.Ltext0
 3779 0732 0100     		.2byte	0x1
 3780 0734 53       		.byte	0x53
 3781 0735 00000000 		.4byte	0
 3782 0739 00000000 		.4byte	0
 3783              	.LLST10:
 3784 073d 4C000000 		.4byte	.LVL11-.Ltext0
 3785 0741 56000000 		.4byte	.LVL13-.Ltext0
 3786 0745 0100     		.2byte	0x1
 3787 0747 55       		.byte	0x55
 3788 0748 00000000 		.4byte	0
 3789 074c 00000000 		.4byte	0
 3790              	.LLST11:
 3791 0750 4C000000 		.4byte	.LVL11-.Ltext0
 3792 0754 56000000 		.4byte	.LVL13-.Ltext0
 3793 0758 0100     		.2byte	0x1
 3794 075a 52       		.byte	0x52
 3795 075b 00000000 		.4byte	0
 3796 075f 00000000 		.4byte	0
 3797              	.LLST13:
 3798 0763 4C000000 		.4byte	.LVL11-.Ltext0
 3799 0767 56000000 		.4byte	.LVL13-.Ltext0
 3800 076b 0100     		.2byte	0x1
 3801 076d 53       		.byte	0x53
 3802 076e 00000000 		.4byte	0
 3803 0772 00000000 		.4byte	0
 3804              	.LLST15:
 3805 0776 A4000000 		.4byte	.LFB11-.Ltext0
 3806 077a A6000000 		.4byte	.LCFI1-.Ltext0
ARM GAS  G:\Users\Jaxb\AppData\Local\Temp\cc22GpwV.s 			page 76


 3807 077e 0200     		.2byte	0x2
 3808 0780 7D       		.byte	0x7d
 3809 0781 00       		.sleb128 0
 3810 0782 A6000000 		.4byte	.LCFI1-.Ltext0
 3811 0786 04010000 		.4byte	.LFE11-.Ltext0
 3812 078a 0200     		.2byte	0x2
 3813 078c 7D       		.byte	0x7d
 3814 078d 10       		.sleb128 16
 3815 078e 00000000 		.4byte	0
 3816 0792 00000000 		.4byte	0
 3817              	.LLST16:
 3818 0796 A4000000 		.4byte	.LVL25-.Ltext0
 3819 079a B6000000 		.4byte	.LVL27-.Ltext0
 3820 079e 0100     		.2byte	0x1
 3821 07a0 50       		.byte	0x50
 3822 07a1 B6000000 		.4byte	.LVL27-.Ltext0
 3823 07a5 D4000000 		.4byte	.LVL33-.Ltext0
 3824 07a9 0100     		.2byte	0x1
 3825 07ab 55       		.byte	0x55
 3826 07ac D4000000 		.4byte	.LVL33-.Ltext0
 3827 07b0 D8000000 		.4byte	.LVL35-.Ltext0
 3828 07b4 0100     		.2byte	0x1
 3829 07b6 50       		.byte	0x50
 3830 07b7 D8000000 		.4byte	.LVL35-.Ltext0
 3831 07bb F6000000 		.4byte	.LVL40-.Ltext0
 3832 07bf 0100     		.2byte	0x1
 3833 07c1 55       		.byte	0x55
 3834 07c2 F6000000 		.4byte	.LVL40-.Ltext0
 3835 07c6 04010000 		.4byte	.LFE11-.Ltext0
 3836 07ca 0400     		.2byte	0x4
 3837 07cc F3       		.byte	0xf3
 3838 07cd 01       		.uleb128 0x1
 3839 07ce 50       		.byte	0x50
 3840 07cf 9F       		.byte	0x9f
 3841 07d0 00000000 		.4byte	0
 3842 07d4 00000000 		.4byte	0
 3843              	.LLST17:
 3844 07d8 A4000000 		.4byte	.LVL25-.Ltext0
 3845 07dc B6000000 		.4byte	.LVL27-.Ltext0
 3846 07e0 0100     		.2byte	0x1
 3847 07e2 51       		.byte	0x51
 3848 07e3 B6000000 		.4byte	.LVL27-.Ltext0
 3849 07e7 D4000000 		.4byte	.LVL33-.Ltext0
 3850 07eb 0100     		.2byte	0x1
 3851 07ed 56       		.byte	0x56
 3852 07ee D4000000 		.4byte	.LVL33-.Ltext0
 3853 07f2 D6000000 		.4byte	.LVL34-.Ltext0
 3854 07f6 0100     		.2byte	0x1
 3855 07f8 51       		.byte	0x51
 3856 07f9 D6000000 		.4byte	.LVL34-.Ltext0
 3857 07fd F6000000 		.4byte	.LVL40-.Ltext0
 3858 0801 0100     		.2byte	0x1
 3859 0803 56       		.byte	0x56
 3860 0804 F6000000 		.4byte	.LVL40-.Ltext0
 3861 0808 04010000 		.4byte	.LFE11-.Ltext0
 3862 080c 0400     		.2byte	0x4
 3863 080e F3       		.byte	0xf3
ARM GAS  G:\Users\Jaxb\AppData\Local\Temp\cc22GpwV.s 			page 77


 3864 080f 01       		.uleb128 0x1
 3865 0810 51       		.byte	0x51
 3866 0811 9F       		.byte	0x9f
 3867 0812 00000000 		.4byte	0
 3868 0816 00000000 		.4byte	0
 3869              	.LLST18:
 3870 081a B0000000 		.4byte	.LVL26-.Ltext0
 3871 081e D4000000 		.4byte	.LVL33-.Ltext0
 3872 0822 0100     		.2byte	0x1
 3873 0824 54       		.byte	0x54
 3874 0825 00000000 		.4byte	0
 3875 0829 00000000 		.4byte	0
 3876              	.LLST19:
 3877 082d B6000000 		.4byte	.LVL27-.Ltext0
 3878 0831 B8000000 		.4byte	.LVL28-.Ltext0
 3879 0835 0300     		.2byte	0x3
 3880 0837 74       		.byte	0x74
 3881 0838 70       		.sleb128 -16
 3882 0839 9F       		.byte	0x9f
 3883 083a BC000000 		.4byte	.LVL29-.Ltext0
 3884 083e CE000000 		.4byte	.LVL31-.Ltext0
 3885 0842 0300     		.2byte	0x3
 3886 0844 74       		.byte	0x74
 3887 0845 70       		.sleb128 -16
 3888 0846 9F       		.byte	0x9f
 3889 0847 CE000000 		.4byte	.LVL31-.Ltext0
 3890 084b D0000000 		.4byte	.LVL32-.Ltext0
 3891 084f 0100     		.2byte	0x1
 3892 0851 50       		.byte	0x50
 3893 0852 00000000 		.4byte	0
 3894 0856 00000000 		.4byte	0
 3895              	.LLST20:
 3896 085a B6000000 		.4byte	.LVL27-.Ltext0
 3897 085e B8000000 		.4byte	.LVL28-.Ltext0
 3898 0862 0100     		.2byte	0x1
 3899 0864 54       		.byte	0x54
 3900 0865 BC000000 		.4byte	.LVL29-.Ltext0
 3901 0869 D0000000 		.4byte	.LVL32-.Ltext0
 3902 086d 0100     		.2byte	0x1
 3903 086f 54       		.byte	0x54
 3904 0870 00000000 		.4byte	0
 3905 0874 00000000 		.4byte	0
 3906              	.LLST21:
 3907 0878 E6000000 		.4byte	.LVL37-.Ltext0
 3908 087c F2000000 		.4byte	.LVL39-.Ltext0
 3909 0880 0100     		.2byte	0x1
 3910 0882 55       		.byte	0x55
 3911 0883 00000000 		.4byte	0
 3912 0887 00000000 		.4byte	0
 3913              	.LLST22:
 3914 088b E6000000 		.4byte	.LVL37-.Ltext0
 3915 088f F2000000 		.4byte	.LVL39-.Ltext0
 3916 0893 0100     		.2byte	0x1
 3917 0895 56       		.byte	0x56
 3918 0896 00000000 		.4byte	0
 3919 089a 00000000 		.4byte	0
 3920              	.LLST23:
ARM GAS  G:\Users\Jaxb\AppData\Local\Temp\cc22GpwV.s 			page 78


 3921 089e 04010000 		.4byte	.LFB12-.Ltext0
 3922 08a2 08010000 		.4byte	.LCFI2-.Ltext0
 3923 08a6 0200     		.2byte	0x2
 3924 08a8 7D       		.byte	0x7d
 3925 08a9 00       		.sleb128 0
 3926 08aa 08010000 		.4byte	.LCFI2-.Ltext0
 3927 08ae 74010000 		.4byte	.LFE12-.Ltext0
 3928 08b2 0200     		.2byte	0x2
 3929 08b4 7D       		.byte	0x7d
 3930 08b5 18       		.sleb128 24
 3931 08b6 00000000 		.4byte	0
 3932 08ba 00000000 		.4byte	0
 3933              	.LLST24:
 3934 08be 04010000 		.4byte	.LVL41-.Ltext0
 3935 08c2 1A010000 		.4byte	.LVL43-.Ltext0
 3936 08c6 0100     		.2byte	0x1
 3937 08c8 50       		.byte	0x50
 3938 08c9 1A010000 		.4byte	.LVL43-.Ltext0
 3939 08cd 46010000 		.4byte	.LVL48-.Ltext0
 3940 08d1 0100     		.2byte	0x1
 3941 08d3 55       		.byte	0x55
 3942 08d4 46010000 		.4byte	.LVL48-.Ltext0
 3943 08d8 4A010000 		.4byte	.LVL50-.Ltext0
 3944 08dc 0100     		.2byte	0x1
 3945 08de 50       		.byte	0x50
 3946 08df 4A010000 		.4byte	.LVL50-.Ltext0
 3947 08e3 74010000 		.4byte	.LFE12-.Ltext0
 3948 08e7 0100     		.2byte	0x1
 3949 08e9 55       		.byte	0x55
 3950 08ea 00000000 		.4byte	0
 3951 08ee 00000000 		.4byte	0
 3952              	.LLST25:
 3953 08f2 04010000 		.4byte	.LVL41-.Ltext0
 3954 08f6 1A010000 		.4byte	.LVL43-.Ltext0
 3955 08fa 0100     		.2byte	0x1
 3956 08fc 51       		.byte	0x51
 3957 08fd 1A010000 		.4byte	.LVL43-.Ltext0
 3958 0901 46010000 		.4byte	.LVL48-.Ltext0
 3959 0905 0100     		.2byte	0x1
 3960 0907 58       		.byte	0x58
 3961 0908 46010000 		.4byte	.LVL48-.Ltext0
 3962 090c 48010000 		.4byte	.LVL49-.Ltext0
 3963 0910 0100     		.2byte	0x1
 3964 0912 51       		.byte	0x51
 3965 0913 48010000 		.4byte	.LVL49-.Ltext0
 3966 0917 74010000 		.4byte	.LFE12-.Ltext0
 3967 091b 0100     		.2byte	0x1
 3968 091d 58       		.byte	0x58
 3969 091e 00000000 		.4byte	0
 3970 0922 00000000 		.4byte	0
 3971              	.LLST26:
 3972 0926 04010000 		.4byte	.LVL41-.Ltext0
 3973 092a 1A010000 		.4byte	.LVL43-.Ltext0
 3974 092e 0600     		.2byte	0x6
 3975 0930 52       		.byte	0x52
 3976 0931 93       		.byte	0x93
 3977 0932 04       		.uleb128 0x4
ARM GAS  G:\Users\Jaxb\AppData\Local\Temp\cc22GpwV.s 			page 79


 3978 0933 53       		.byte	0x53
 3979 0934 93       		.byte	0x93
 3980 0935 04       		.uleb128 0x4
 3981 0936 1A010000 		.4byte	.LVL43-.Ltext0
 3982 093a 46010000 		.4byte	.LVL48-.Ltext0
 3983 093e 0600     		.2byte	0x6
 3984 0940 F3       		.byte	0xf3
 3985 0941 03       		.uleb128 0x3
 3986 0942 F5       		.byte	0xf5
 3987 0943 02       		.uleb128 0x2
 3988 0944 25       		.uleb128 0x25
 3989 0945 9F       		.byte	0x9f
 3990 0946 46010000 		.4byte	.LVL48-.Ltext0
 3991 094a 4D010000 		.4byte	.LVL51-1-.Ltext0
 3992 094e 0600     		.2byte	0x6
 3993 0950 52       		.byte	0x52
 3994 0951 93       		.byte	0x93
 3995 0952 04       		.uleb128 0x4
 3996 0953 53       		.byte	0x53
 3997 0954 93       		.byte	0x93
 3998 0955 04       		.uleb128 0x4
 3999 0956 4D010000 		.4byte	.LVL51-1-.Ltext0
 4000 095a 74010000 		.4byte	.LFE12-.Ltext0
 4001 095e 0600     		.2byte	0x6
 4002 0960 F3       		.byte	0xf3
 4003 0961 03       		.uleb128 0x3
 4004 0962 F5       		.byte	0xf5
 4005 0963 02       		.uleb128 0x2
 4006 0964 25       		.uleb128 0x25
 4007 0965 9F       		.byte	0x9f
 4008 0966 00000000 		.4byte	0
 4009 096a 00000000 		.4byte	0
 4010              	.LLST27:
 4011 096e 16010000 		.4byte	.LVL42-.Ltext0
 4012 0972 3A010000 		.4byte	.LVL46-.Ltext0
 4013 0976 0100     		.2byte	0x1
 4014 0978 54       		.byte	0x54
 4015 0979 3E010000 		.4byte	.LVL47-.Ltext0
 4016 097d 46010000 		.4byte	.LVL48-.Ltext0
 4017 0981 0100     		.2byte	0x1
 4018 0983 54       		.byte	0x54
 4019 0984 00000000 		.4byte	0
 4020 0988 00000000 		.4byte	0
 4021              	.LLST28:
 4022 098c 1A010000 		.4byte	.LVL43-.Ltext0
 4023 0990 34010000 		.4byte	.LVL45-.Ltext0
 4024 0994 0300     		.2byte	0x3
 4025 0996 74       		.byte	0x74
 4026 0997 70       		.sleb128 -16
 4027 0998 9F       		.byte	0x9f
 4028 0999 3E010000 		.4byte	.LVL47-.Ltext0
 4029 099d 46010000 		.4byte	.LVL48-.Ltext0
 4030 09a1 0300     		.2byte	0x3
 4031 09a3 74       		.byte	0x74
 4032 09a4 70       		.sleb128 -16
 4033 09a5 9F       		.byte	0x9f
 4034 09a6 00000000 		.4byte	0
ARM GAS  G:\Users\Jaxb\AppData\Local\Temp\cc22GpwV.s 			page 80


 4035 09aa 00000000 		.4byte	0
 4036              	.LLST29:
 4037 09ae 1A010000 		.4byte	.LVL43-.Ltext0
 4038 09b2 34010000 		.4byte	.LVL45-.Ltext0
 4039 09b6 0100     		.2byte	0x1
 4040 09b8 54       		.byte	0x54
 4041 09b9 3E010000 		.4byte	.LVL47-.Ltext0
 4042 09bd 46010000 		.4byte	.LVL48-.Ltext0
 4043 09c1 0100     		.2byte	0x1
 4044 09c3 54       		.byte	0x54
 4045 09c4 00000000 		.4byte	0
 4046 09c8 00000000 		.4byte	0
 4047              	.LLST30:
 4048 09cc 58010000 		.4byte	.LVL52-.Ltext0
 4049 09d0 64010000 		.4byte	.LVL54-.Ltext0
 4050 09d4 0100     		.2byte	0x1
 4051 09d6 55       		.byte	0x55
 4052 09d7 00000000 		.4byte	0
 4053 09db 00000000 		.4byte	0
 4054              	.LLST31:
 4055 09df 58010000 		.4byte	.LVL52-.Ltext0
 4056 09e3 64010000 		.4byte	.LVL54-.Ltext0
 4057 09e7 0100     		.2byte	0x1
 4058 09e9 58       		.byte	0x58
 4059 09ea 00000000 		.4byte	0
 4060 09ee 00000000 		.4byte	0
 4061              	.LLST32:
 4062 09f2 58010000 		.4byte	.LVL52-.Ltext0
 4063 09f6 64010000 		.4byte	.LVL54-.Ltext0
 4064 09fa 0600     		.2byte	0x6
 4065 09fc F3       		.byte	0xf3
 4066 09fd 03       		.uleb128 0x3
 4067 09fe F5       		.byte	0xf5
 4068 09ff 02       		.uleb128 0x2
 4069 0a00 25       		.uleb128 0x25
 4070 0a01 9F       		.byte	0x9f
 4071 0a02 00000000 		.4byte	0
 4072 0a06 00000000 		.4byte	0
 4073              		.section	.debug_aranges,"",%progbits
 4074 0000 1C000000 		.4byte	0x1c
 4075 0004 0200     		.2byte	0x2
 4076 0006 00000000 		.4byte	.Ldebug_info0
 4077 000a 04       		.byte	0x4
 4078 000b 00       		.byte	0
 4079 000c 0000     		.2byte	0
 4080 000e 0000     		.2byte	0
 4081 0010 00000000 		.4byte	.Ltext0
 4082 0014 04030000 		.4byte	.Letext0-.Ltext0
 4083 0018 00000000 		.4byte	0
 4084 001c 00000000 		.4byte	0
 4085              		.section	.debug_ranges,"",%progbits
 4086              	.Ldebug_ranges0:
 4087 0000 2C000000 		.4byte	.LBB39-.Ltext0
 4088 0004 2E000000 		.4byte	.LBE39-.Ltext0
 4089 0008 34000000 		.4byte	.LBB44-.Ltext0
 4090 000c 3C000000 		.4byte	.LBE44-.Ltext0
 4091 0010 00000000 		.4byte	0
ARM GAS  G:\Users\Jaxb\AppData\Local\Temp\cc22GpwV.s 			page 81


 4092 0014 00000000 		.4byte	0
 4093 0018 44000000 		.4byte	.LBB45-.Ltext0
 4094 001c 48000000 		.4byte	.LBE45-.Ltext0
 4095 0020 4E000000 		.4byte	.LBB50-.Ltext0
 4096 0024 56000000 		.4byte	.LBE50-.Ltext0
 4097 0028 00000000 		.4byte	0
 4098 002c 00000000 		.4byte	0
 4099 0030 80010000 		.4byte	.LBB67-.Ltext0
 4100 0034 84010000 		.4byte	.LBE67-.Ltext0
 4101 0038 86010000 		.4byte	.LBB72-.Ltext0
 4102 003c 8A010000 		.4byte	.LBE72-.Ltext0
 4103 0040 00000000 		.4byte	0
 4104 0044 00000000 		.4byte	0
 4105 0048 CE010000 		.4byte	.LBB74-.Ltext0
 4106 004c D2010000 		.4byte	.LBE74-.Ltext0
 4107 0050 D4010000 		.4byte	.LBB79-.Ltext0
 4108 0054 D8010000 		.4byte	.LBE79-.Ltext0
 4109 0058 00000000 		.4byte	0
 4110 005c 00000000 		.4byte	0
 4111 0060 1A020000 		.4byte	.LBB80-.Ltext0
 4112 0064 1E020000 		.4byte	.LBE80-.Ltext0
 4113 0068 20020000 		.4byte	.LBB85-.Ltext0
 4114 006c 24020000 		.4byte	.LBE85-.Ltext0
 4115 0070 00000000 		.4byte	0
 4116 0074 00000000 		.4byte	0
 4117 0078 68020000 		.4byte	.LBB86-.Ltext0
 4118 007c 6C020000 		.4byte	.LBE86-.Ltext0
 4119 0080 88020000 		.4byte	.LBB89-.Ltext0
 4120 0084 8C020000 		.4byte	.LBE89-.Ltext0
 4121 0088 00000000 		.4byte	0
 4122 008c 00000000 		.4byte	0
 4123              		.section	.debug_line,"",%progbits
 4124              	.Ldebug_line0:
 4125 0000 FE020000 		.section	.debug_str,"MS",%progbits,1
 4125      0200DA00 
 4125      00000201 
 4125      FB0E0D00 
 4125      01010101 
 4126              	.LASF48:
 4127 0000 6C697374 		.ascii	"list\000"
 4127      00
 4128              	.LASF33:
 4129 0005 696E7365 		.ascii	"insert_sort_delete_data\000"
 4129      72745F73 
 4129      6F72745F 
 4129      64656C65 
 4129      74655F64 
 4130              	.LASF10:
 4131 001d 73697A65 		.ascii	"size_t\000"
 4131      5F7400
 4132              	.LASF0:
 4133 0024 6E657874 		.ascii	"next\000"
 4133      00
 4134              	.LASF13:
 4135 0029 696E7365 		.ascii	"insert_sort_data\000"
 4135      72745F73 
 4135      6F72745F 
ARM GAS  G:\Users\Jaxb\AppData\Local\Temp\cc22GpwV.s 			page 82


 4135      64617461 
 4135      00
 4136              	.LASF40:
 4137 003a 696E7365 		.ascii	"insert_sort_insert_into\000"
 4137      72745F73 
 4137      6F72745F 
 4137      696E7365 
 4137      72745F69 
 4138              	.LASF16:
 4139 0052 64617461 		.ascii	"data_list\000"
 4139      5F6C6973 
 4139      7400
 4140              	.LASF51:
 4141 005c 6C697374 		.ascii	"list_empty\000"
 4141      5F656D70 
 4141      747900
 4142              	.LASF22:
 4143 0067 76616C75 		.ascii	"value_cmp\000"
 4143      655F636D 
 4143      7000
 4144              	.LASF17:
 4145 0071 696E7365 		.ascii	"insert_sort_entity\000"
 4145      72745F73 
 4145      6F72745F 
 4145      656E7469 
 4145      747900
 4146              	.LASF43:
 4147 0084 6C697374 		.ascii	"list_del\000"
 4147      5F64656C 
 4147      00
 4148              	.LASF15:
 4149 008d 6964656E 		.ascii	"identify_data\000"
 4149      74696679 
 4149      5F646174 
 4149      6100
 4150              	.LASF23:
 4151 009b 696E7365 		.ascii	"insert_sort_get_first_data_ptr\000"
 4151      72745F73 
 4151      6F72745F 
 4151      6765745F 
 4151      66697273 
 4152              	.LASF26:
 4153 00ba 696E7365 		.ascii	"insert_sort_data_ptr\000"
 4153      72745F73 
 4153      6F72745F 
 4153      64617461 
 4153      5F707472 
 4154              	.LASF35:
 4155 00cf 696E7365 		.ascii	"insert_sort_delete_head\000"
 4155      72745F73 
 4155      6F72745F 
 4155      64656C65 
 4155      74655F68 
 4156              	.LASF45:
 4157 00e7 6C697374 		.ascii	"list_add_tail\000"
 4157      5F616464 
 4157      5F746169 
ARM GAS  G:\Users\Jaxb\AppData\Local\Temp\cc22GpwV.s 			page 83


 4157      6C00
 4158              	.LASF6:
 4159 00f5 756E7369 		.ascii	"unsigned char\000"
 4159      676E6564 
 4159      20636861 
 4159      7200
 4160              	.LASF28:
 4161 0103 696E6974 		.ascii	"init_insert_sort_data\000"
 4161      5F696E73 
 4161      6572745F 
 4161      736F7274 
 4161      5F646174 
 4162              	.LASF9:
 4163 0119 55494E54 		.ascii	"UINT64\000"
 4163      363400
 4164              	.LASF19:
 4165 0120 64617461 		.ascii	"data_num\000"
 4165      5F6E756D 
 4165      00
 4166              	.LASF7:
 4167 0129 73686F72 		.ascii	"short unsigned int\000"
 4167      7420756E 
 4167      7369676E 
 4167      65642069 
 4167      6E7400
 4168              	.LASF36:
 4169 013c 5F5F6D70 		.ascii	"__mptr\000"
 4169      747200
 4170              	.LASF27:
 4171 0143 696E6974 		.ascii	"init_insert_sort_data_with_id\000"
 4171      5F696E73 
 4171      6572745F 
 4171      736F7274 
 4171      5F646174 
 4172              	.LASF39:
 4173 0161 696E7365 		.ascii	"insert_sort_find_data\000"
 4173      72745F73 
 4173      6F72745F 
 4173      66696E64 
 4173      5F646174 
 4174              	.LASF29:
 4175 0177 696E7365 		.ascii	"insert_sort_delete_data_with_id\000"
 4175      72745F73 
 4175      6F72745F 
 4175      64656C65 
 4175      74655F64 
 4176              	.LASF50:
 4177 0197 6B615F70 		.ascii	"ka_printf\000"
 4177      72696E74 
 4177      6600
 4178              	.LASF24:
 4179 01a1 696E6974 		.ascii	"init_insert_sort_entity\000"
 4179      5F696E73 
 4179      6572745F 
 4179      736F7274 
 4179      5F656E74 
 4180              	.LASF21:
ARM GAS  G:\Users\Jaxb\AppData\Local\Temp\cc22GpwV.s 			page 84


 4181 01b9 6765745F 		.ascii	"get_data_ptr\000"
 4181      64617461 
 4181      5F707472 
 4181      00
 4182              	.LASF44:
 4183 01c6 5F5F6C69 		.ascii	"__list_del\000"
 4183      73745F64 
 4183      656C00
 4184              	.LASF41:
 4185 01d1 68656164 		.ascii	"head\000"
 4185      00
 4186              	.LASF8:
 4187 01d6 756E7369 		.ascii	"unsigned int\000"
 4187      676E6564 
 4187      20696E74 
 4187      00
 4188              	.LASF2:
 4189 01e3 6C6F6E67 		.ascii	"long long unsigned int\000"
 4189      206C6F6E 
 4189      6720756E 
 4189      7369676E 
 4189      65642069 
 4190              	.LASF38:
 4191 01fa 696E7365 		.ascii	"insert_sort_find_data_with_id\000"
 4191      72745F73 
 4191      6F72745F 
 4191      66696E64 
 4191      5F646174 
 4192              	.LASF11:
 4193 0218 69645F74 		.ascii	"id_type\000"
 4193      79706500 
 4194              	.LASF18:
 4195 0220 64617461 		.ascii	"data_list_head\000"
 4195      5F6C6973 
 4195      745F6865 
 4195      616400
 4196              	.LASF12:
 4197 022f 6C697374 		.ascii	"list_head\000"
 4197      5F686561 
 4197      6400
 4198              	.LASF5:
 4199 0239 6C6F6E67 		.ascii	"long long int\000"
 4199      206C6F6E 
 4199      6720696E 
 4199      7400
 4200              	.LASF25:
 4201 0247 696E7365 		.ascii	"insert_sort_entity_ptr\000"
 4201      72745F73 
 4201      6F72745F 
 4201      656E7469 
 4201      74795F70 
 4202              	.LASF47:
 4203 025e 494E4954 		.ascii	"INIT_LIST_HEAD\000"
 4203      5F4C4953 
 4203      545F4845 
 4203      414400
 4204              	.LASF4:
ARM GAS  G:\Users\Jaxb\AppData\Local\Temp\cc22GpwV.s 			page 85


 4205 026d 73686F72 		.ascii	"short int\000"
 4205      7420696E 
 4205      7400
 4206              	.LASF37:
 4207 0277 62756666 		.ascii	"buffer\000"
 4207      657200
 4208              	.LASF46:
 4209 027e 5F5F6C69 		.ascii	"__list_add\000"
 4209      73745F61 
 4209      646400
 4210              	.LASF31:
 4211 0289 2E2E2F2E 		.ascii	"../../source/src/kernel/OS_LIB/insert_sort_oo.c\000"
 4211      2E2F736F 
 4211      75726365 
 4211      2F737263 
 4211      2F6B6572 
 4212              	.LASF14:
 4213 02b9 64617461 		.ascii	"data_ptr\000"
 4213      5F707472 
 4213      00
 4214              	.LASF30:
 4215 02c2 474E5520 		.ascii	"GNU C11 7.3.1 20180622 (release) [ARM/embedded-7-br"
 4215      43313120 
 4215      372E332E 
 4215      31203230 
 4215      31383036 
 4216 02f5 616E6368 		.ascii	"anch revision 261907] -mcpu=cortex-m3 -mthumb -mapc"
 4216      20726576 
 4216      6973696F 
 4216      6E203236 
 4216      31393037 
 4217 0328 732D6672 		.ascii	"s-frame -mthumb-interwork -mcpu=cortex-m3 -mthumb -"
 4217      616D6520 
 4217      2D6D7468 
 4217      756D622D 
 4217      696E7465 
 4218 035b 67647761 		.ascii	"gdwarf-2 -O2\000"
 4218      72662D32 
 4218      202D4F32 
 4218      00
 4219              	.LASF49:
 4220 0368 5F415353 		.ascii	"_ASSERT\000"
 4220      45525400 
 4221              	.LASF3:
 4222 0370 7369676E 		.ascii	"signed char\000"
 4222      65642063 
 4222      68617200 
 4223              	.LASF20:
 4224 037c 636F6D70 		.ascii	"compare\000"
 4224      61726500 
 4225              	.LASF34:
 4226 0384 62756666 		.ascii	"buffer_ptr\000"
 4226      65725F70 
 4226      747200
 4227              	.LASF42:
 4228 038f 656E7472 		.ascii	"entry\000"
 4228      7900
ARM GAS  G:\Users\Jaxb\AppData\Local\Temp\cc22GpwV.s 			page 86


 4229              	.LASF1:
 4230 0395 70726576 		.ascii	"prev\000"
 4230      00
 4231              	.LASF32:
 4232 039a 463A5C6B 		.ascii	"F:\\kaka\\KAKAOS\\C\\windows\\Project\\RVMDK\243\250"
 4232      616B615C 
 4232      4B414B41 
 4232      4F535C43 
 4232      5C77696E 
 4233 03c2 757635A3 		.ascii	"uv5\243\251\000"
 4233      A900
 4234              		.ident	"GCC: (GNU Tools for Arm Embedded Processors 7-2018-q2-update) 7.3.1 20180622 (release) [AR
ARM GAS  G:\Users\Jaxb\AppData\Local\Temp\cc22GpwV.s 			page 87


DEFINED SYMBOLS
                            *ABS*:00000000 insert_sort_oo.c
G:\Users\Jaxb\AppData\Local\Temp\cc22GpwV.s:15     .text:00000000 $t
G:\Users\Jaxb\AppData\Local\Temp\cc22GpwV.s:23     .text:00000000 insert_sort_insert_into
G:\Users\Jaxb\AppData\Local\Temp\cc22GpwV.s:200    .text:00000098 $d
G:\Users\Jaxb\AppData\Local\Temp\cc22GpwV.s:206    .text:000000a4 $t
G:\Users\Jaxb\AppData\Local\Temp\cc22GpwV.s:214    .text:000000a4 insert_sort_find_data
G:\Users\Jaxb\AppData\Local\Temp\cc22GpwV.s:308    .text:000000f8 $d
G:\Users\Jaxb\AppData\Local\Temp\cc22GpwV.s:314    .text:00000104 $t
G:\Users\Jaxb\AppData\Local\Temp\cc22GpwV.s:322    .text:00000104 insert_sort_find_data_with_id
G:\Users\Jaxb\AppData\Local\Temp\cc22GpwV.s:421    .text:00000168 $d
G:\Users\Jaxb\AppData\Local\Temp\cc22GpwV.s:429    .text:00000174 $t
G:\Users\Jaxb\AppData\Local\Temp\cc22GpwV.s:437    .text:00000174 insert_sort_delete_head
G:\Users\Jaxb\AppData\Local\Temp\cc22GpwV.s:539    .text:000001b8 $d
G:\Users\Jaxb\AppData\Local\Temp\cc22GpwV.s:544    .text:000001c0 $t
G:\Users\Jaxb\AppData\Local\Temp\cc22GpwV.s:552    .text:000001c0 insert_sort_delete_data
G:\Users\Jaxb\AppData\Local\Temp\cc22GpwV.s:641    .text:00000204 $d
G:\Users\Jaxb\AppData\Local\Temp\cc22GpwV.s:646    .text:0000020c $t
G:\Users\Jaxb\AppData\Local\Temp\cc22GpwV.s:654    .text:0000020c insert_sort_delete_data_with_id
G:\Users\Jaxb\AppData\Local\Temp\cc22GpwV.s:743    .text:00000250 $d
G:\Users\Jaxb\AppData\Local\Temp\cc22GpwV.s:748    .text:00000258 $t
G:\Users\Jaxb\AppData\Local\Temp\cc22GpwV.s:756    .text:00000258 init_insert_sort_data
G:\Users\Jaxb\AppData\Local\Temp\cc22GpwV.s:826    .text:00000290 $d
G:\Users\Jaxb\AppData\Local\Temp\cc22GpwV.s:830    .text:00000294 $t
G:\Users\Jaxb\AppData\Local\Temp\cc22GpwV.s:838    .text:00000294 init_insert_sort_data_with_id
G:\Users\Jaxb\AppData\Local\Temp\cc22GpwV.s:874    .text:000002a8 init_insert_sort_entity
G:\Users\Jaxb\AppData\Local\Temp\cc22GpwV.s:929    .text:000002d0 $d
G:\Users\Jaxb\AppData\Local\Temp\cc22GpwV.s:933    .text:000002d4 $t
G:\Users\Jaxb\AppData\Local\Temp\cc22GpwV.s:941    .text:000002d4 insert_sort_get_first_data_ptr
G:\Users\Jaxb\AppData\Local\Temp\cc22GpwV.s:1001   .text:000002fc $d
G:\Users\Jaxb\AppData\Local\Temp\cc22GpwV.s:1007   .rodata.str1.4:00000000 $d

UNDEFINED SYMBOLS
_ASSERT
ka_printf
