ARM GAS  G:\Users\Jaxb\AppData\Local\Temp\ccaY7iov.s 			page 1


   1              		.cpu cortex-m3
   2              		.eabi_attribute 20, 1
   3              		.eabi_attribute 21, 1
   4              		.eabi_attribute 23, 3
   5              		.eabi_attribute 24, 1
   6              		.eabi_attribute 25, 1
   7              		.eabi_attribute 26, 1
   8              		.eabi_attribute 30, 6
   9              		.eabi_attribute 34, 1
  10              		.eabi_attribute 18, 4
  11              		.file	"insert_sort.c"
  12              		.text
  13              	.Ltext0:
  14              		.cfi_sections	.debug_frame
  15              		.align	1
  16              		.syntax unified
  17              		.thumb
  18              		.thumb_func
  19              		.fpu softvfp
  20              		.type	INIT_LIST_HEAD, %function
  21              	INIT_LIST_HEAD:
  22              	.LFB0:
  23              		.file 1 "../../source/include/os_lib/double_linked_list.h"
   1:../../source/include/os_lib/double_linked_list.h **** #ifndef _DOUBLE_LINKED_LIST_H
   2:../../source/include/os_lib/double_linked_list.h **** #define _DOUBLE_LINKED_LIST_H
   3:../../source/include/os_lib/double_linked_list.h **** 
   4:../../source/include/os_lib/double_linked_list.h **** struct list_head {
   5:../../source/include/os_lib/double_linked_list.h ****     struct list_head *next, *prev;
   6:../../source/include/os_lib/double_linked_list.h **** };
   7:../../source/include/os_lib/double_linked_list.h **** 
   8:../../source/include/os_lib/double_linked_list.h **** 
   9:../../source/include/os_lib/double_linked_list.h **** #define LIST_HEAD_INIT(name) { &(name), &(name) }
  10:../../source/include/os_lib/double_linked_list.h **** 
  11:../../source/include/os_lib/double_linked_list.h **** 
  12:../../source/include/os_lib/double_linked_list.h **** #define LIST_HEAD(name) \
  13:../../source/include/os_lib/double_linked_list.h ****     struct list_head name = LIST_HEAD_INIT(name)
  14:../../source/include/os_lib/double_linked_list.h **** 
  15:../../source/include/os_lib/double_linked_list.h **** 
  16:../../source/include/os_lib/double_linked_list.h **** static inline void INIT_LIST_HEAD(struct list_head *list)
  17:../../source/include/os_lib/double_linked_list.h **** {
  24              		.loc 1 17 0
  25              		.cfi_startproc
  26              		@ args = 0, pretend = 0, frame = 8
  27              		@ frame_needed = 1, uses_anonymous_args = 0
  28              		@ link register save eliminated.
  29 0000 80B4     		push	{r7}
  30              	.LCFI0:
  31              		.cfi_def_cfa_offset 4
  32              		.cfi_offset 7, -4
  33 0002 83B0     		sub	sp, sp, #12
  34              	.LCFI1:
  35              		.cfi_def_cfa_offset 16
  36 0004 00AF     		add	r7, sp, #0
  37              	.LCFI2:
  38              		.cfi_def_cfa_register 7
  39 0006 7860     		str	r0, [r7, #4]
  18:../../source/include/os_lib/double_linked_list.h ****     list->next = list;
ARM GAS  G:\Users\Jaxb\AppData\Local\Temp\ccaY7iov.s 			page 2


  40              		.loc 1 18 0
  41 0008 7B68     		ldr	r3, [r7, #4]
  42 000a 7A68     		ldr	r2, [r7, #4]
  43 000c 1A60     		str	r2, [r3]
  19:../../source/include/os_lib/double_linked_list.h ****     list->prev = list;
  44              		.loc 1 19 0
  45 000e 7B68     		ldr	r3, [r7, #4]
  46 0010 7A68     		ldr	r2, [r7, #4]
  47 0012 5A60     		str	r2, [r3, #4]
  20:../../source/include/os_lib/double_linked_list.h **** }
  48              		.loc 1 20 0
  49 0014 00BF     		nop
  50 0016 0C37     		adds	r7, r7, #12
  51              	.LCFI3:
  52              		.cfi_def_cfa_offset 4
  53 0018 BD46     		mov	sp, r7
  54              	.LCFI4:
  55              		.cfi_def_cfa_register 13
  56              		@ sp needed
  57 001a 80BC     		pop	{r7}
  58              	.LCFI5:
  59              		.cfi_restore 7
  60              		.cfi_def_cfa_offset 0
  61 001c 7047     		bx	lr
  62              		.cfi_endproc
  63              	.LFE0:
  64              		.size	INIT_LIST_HEAD, .-INIT_LIST_HEAD
  65              		.align	1
  66              		.syntax unified
  67              		.thumb
  68              		.thumb_func
  69              		.fpu softvfp
  70              		.type	__list_add, %function
  71              	__list_add:
  72              	.LFB1:
  21:../../source/include/os_lib/double_linked_list.h **** 
  22:../../source/include/os_lib/double_linked_list.h **** 
  23:../../source/include/os_lib/double_linked_list.h **** static inline void __list_add(struct list_head *new,
  24:../../source/include/os_lib/double_linked_list.h ****                   struct list_head *prev,
  25:../../source/include/os_lib/double_linked_list.h ****                   struct list_head *next)
  26:../../source/include/os_lib/double_linked_list.h **** {
  73              		.loc 1 26 0
  74              		.cfi_startproc
  75              		@ args = 0, pretend = 0, frame = 16
  76              		@ frame_needed = 1, uses_anonymous_args = 0
  77              		@ link register save eliminated.
  78 001e 80B4     		push	{r7}
  79              	.LCFI6:
  80              		.cfi_def_cfa_offset 4
  81              		.cfi_offset 7, -4
  82 0020 85B0     		sub	sp, sp, #20
  83              	.LCFI7:
  84              		.cfi_def_cfa_offset 24
  85 0022 00AF     		add	r7, sp, #0
  86              	.LCFI8:
  87              		.cfi_def_cfa_register 7
  88 0024 F860     		str	r0, [r7, #12]
ARM GAS  G:\Users\Jaxb\AppData\Local\Temp\ccaY7iov.s 			page 3


  89 0026 B960     		str	r1, [r7, #8]
  90 0028 7A60     		str	r2, [r7, #4]
  27:../../source/include/os_lib/double_linked_list.h ****     next->prev = new;
  91              		.loc 1 27 0
  92 002a 7B68     		ldr	r3, [r7, #4]
  93 002c FA68     		ldr	r2, [r7, #12]
  94 002e 5A60     		str	r2, [r3, #4]
  28:../../source/include/os_lib/double_linked_list.h ****     new->next = next;
  95              		.loc 1 28 0
  96 0030 FB68     		ldr	r3, [r7, #12]
  97 0032 7A68     		ldr	r2, [r7, #4]
  98 0034 1A60     		str	r2, [r3]
  29:../../source/include/os_lib/double_linked_list.h ****     new->prev = prev;
  99              		.loc 1 29 0
 100 0036 FB68     		ldr	r3, [r7, #12]
 101 0038 BA68     		ldr	r2, [r7, #8]
 102 003a 5A60     		str	r2, [r3, #4]
  30:../../source/include/os_lib/double_linked_list.h ****     prev->next = new;
 103              		.loc 1 30 0
 104 003c BB68     		ldr	r3, [r7, #8]
 105 003e FA68     		ldr	r2, [r7, #12]
 106 0040 1A60     		str	r2, [r3]
  31:../../source/include/os_lib/double_linked_list.h **** }
 107              		.loc 1 31 0
 108 0042 00BF     		nop
 109 0044 1437     		adds	r7, r7, #20
 110              	.LCFI9:
 111              		.cfi_def_cfa_offset 4
 112 0046 BD46     		mov	sp, r7
 113              	.LCFI10:
 114              		.cfi_def_cfa_register 13
 115              		@ sp needed
 116 0048 80BC     		pop	{r7}
 117              	.LCFI11:
 118              		.cfi_restore 7
 119              		.cfi_def_cfa_offset 0
 120 004a 7047     		bx	lr
 121              		.cfi_endproc
 122              	.LFE1:
 123              		.size	__list_add, .-__list_add
 124              		.align	1
 125              		.syntax unified
 126              		.thumb
 127              		.thumb_func
 128              		.fpu softvfp
 129              		.type	list_add, %function
 130              	list_add:
 131              	.LFB2:
  32:../../source/include/os_lib/double_linked_list.h **** 
  33:../../source/include/os_lib/double_linked_list.h **** 
  34:../../source/include/os_lib/double_linked_list.h **** static inline void list_add(struct list_head *new, struct list_head *head)
  35:../../source/include/os_lib/double_linked_list.h **** {
 132              		.loc 1 35 0
 133              		.cfi_startproc
 134              		@ args = 0, pretend = 0, frame = 8
 135              		@ frame_needed = 1, uses_anonymous_args = 0
 136 004c 80B5     		push	{r7, lr}
ARM GAS  G:\Users\Jaxb\AppData\Local\Temp\ccaY7iov.s 			page 4


 137              	.LCFI12:
 138              		.cfi_def_cfa_offset 8
 139              		.cfi_offset 7, -8
 140              		.cfi_offset 14, -4
 141 004e 82B0     		sub	sp, sp, #8
 142              	.LCFI13:
 143              		.cfi_def_cfa_offset 16
 144 0050 00AF     		add	r7, sp, #0
 145              	.LCFI14:
 146              		.cfi_def_cfa_register 7
 147 0052 7860     		str	r0, [r7, #4]
 148 0054 3960     		str	r1, [r7]
  36:../../source/include/os_lib/double_linked_list.h ****     __list_add(new, head, head->next);
 149              		.loc 1 36 0
 150 0056 3B68     		ldr	r3, [r7]
 151 0058 1B68     		ldr	r3, [r3]
 152 005a 1A46     		mov	r2, r3
 153 005c 3968     		ldr	r1, [r7]
 154 005e 7868     		ldr	r0, [r7, #4]
 155 0060 FFF7DDFF 		bl	__list_add
  37:../../source/include/os_lib/double_linked_list.h **** }
 156              		.loc 1 37 0
 157 0064 00BF     		nop
 158 0066 0837     		adds	r7, r7, #8
 159              	.LCFI15:
 160              		.cfi_def_cfa_offset 8
 161 0068 BD46     		mov	sp, r7
 162              	.LCFI16:
 163              		.cfi_def_cfa_register 13
 164              		@ sp needed
 165 006a 80BD     		pop	{r7, pc}
 166              		.cfi_endproc
 167              	.LFE2:
 168              		.size	list_add, .-list_add
 169              		.align	1
 170              		.syntax unified
 171              		.thumb
 172              		.thumb_func
 173              		.fpu softvfp
 174              		.type	list_add_tail, %function
 175              	list_add_tail:
 176              	.LFB3:
  38:../../source/include/os_lib/double_linked_list.h **** 
  39:../../source/include/os_lib/double_linked_list.h **** 
  40:../../source/include/os_lib/double_linked_list.h **** static inline void list_add_tail(struct list_head *new, struct list_head *head)
  41:../../source/include/os_lib/double_linked_list.h **** {
 177              		.loc 1 41 0
 178              		.cfi_startproc
 179              		@ args = 0, pretend = 0, frame = 8
 180              		@ frame_needed = 1, uses_anonymous_args = 0
 181 006c 80B5     		push	{r7, lr}
 182              	.LCFI17:
 183              		.cfi_def_cfa_offset 8
 184              		.cfi_offset 7, -8
 185              		.cfi_offset 14, -4
 186 006e 82B0     		sub	sp, sp, #8
 187              	.LCFI18:
ARM GAS  G:\Users\Jaxb\AppData\Local\Temp\ccaY7iov.s 			page 5


 188              		.cfi_def_cfa_offset 16
 189 0070 00AF     		add	r7, sp, #0
 190              	.LCFI19:
 191              		.cfi_def_cfa_register 7
 192 0072 7860     		str	r0, [r7, #4]
 193 0074 3960     		str	r1, [r7]
  42:../../source/include/os_lib/double_linked_list.h ****     __list_add(new, head->prev, head);
 194              		.loc 1 42 0
 195 0076 3B68     		ldr	r3, [r7]
 196 0078 5B68     		ldr	r3, [r3, #4]
 197 007a 3A68     		ldr	r2, [r7]
 198 007c 1946     		mov	r1, r3
 199 007e 7868     		ldr	r0, [r7, #4]
 200 0080 FFF7CDFF 		bl	__list_add
  43:../../source/include/os_lib/double_linked_list.h **** }
 201              		.loc 1 43 0
 202 0084 00BF     		nop
 203 0086 0837     		adds	r7, r7, #8
 204              	.LCFI20:
 205              		.cfi_def_cfa_offset 8
 206 0088 BD46     		mov	sp, r7
 207              	.LCFI21:
 208              		.cfi_def_cfa_register 13
 209              		@ sp needed
 210 008a 80BD     		pop	{r7, pc}
 211              		.cfi_endproc
 212              	.LFE3:
 213              		.size	list_add_tail, .-list_add_tail
 214              		.align	1
 215              		.syntax unified
 216              		.thumb
 217              		.thumb_func
 218              		.fpu softvfp
 219              		.type	__list_del, %function
 220              	__list_del:
 221              	.LFB4:
  44:../../source/include/os_lib/double_linked_list.h **** 
  45:../../source/include/os_lib/double_linked_list.h **** 
  46:../../source/include/os_lib/double_linked_list.h **** static inline void __list_del(struct list_head * prev, struct list_head * next)
  47:../../source/include/os_lib/double_linked_list.h **** {
 222              		.loc 1 47 0
 223              		.cfi_startproc
 224              		@ args = 0, pretend = 0, frame = 8
 225              		@ frame_needed = 1, uses_anonymous_args = 0
 226              		@ link register save eliminated.
 227 008c 80B4     		push	{r7}
 228              	.LCFI22:
 229              		.cfi_def_cfa_offset 4
 230              		.cfi_offset 7, -4
 231 008e 83B0     		sub	sp, sp, #12
 232              	.LCFI23:
 233              		.cfi_def_cfa_offset 16
 234 0090 00AF     		add	r7, sp, #0
 235              	.LCFI24:
 236              		.cfi_def_cfa_register 7
 237 0092 7860     		str	r0, [r7, #4]
 238 0094 3960     		str	r1, [r7]
ARM GAS  G:\Users\Jaxb\AppData\Local\Temp\ccaY7iov.s 			page 6


  48:../../source/include/os_lib/double_linked_list.h ****     next->prev = prev;
 239              		.loc 1 48 0
 240 0096 3B68     		ldr	r3, [r7]
 241 0098 7A68     		ldr	r2, [r7, #4]
 242 009a 5A60     		str	r2, [r3, #4]
  49:../../source/include/os_lib/double_linked_list.h ****     prev->next = next;
 243              		.loc 1 49 0
 244 009c 7B68     		ldr	r3, [r7, #4]
 245 009e 3A68     		ldr	r2, [r7]
 246 00a0 1A60     		str	r2, [r3]
  50:../../source/include/os_lib/double_linked_list.h **** }
 247              		.loc 1 50 0
 248 00a2 00BF     		nop
 249 00a4 0C37     		adds	r7, r7, #12
 250              	.LCFI25:
 251              		.cfi_def_cfa_offset 4
 252 00a6 BD46     		mov	sp, r7
 253              	.LCFI26:
 254              		.cfi_def_cfa_register 13
 255              		@ sp needed
 256 00a8 80BC     		pop	{r7}
 257              	.LCFI27:
 258              		.cfi_restore 7
 259              		.cfi_def_cfa_offset 0
 260 00aa 7047     		bx	lr
 261              		.cfi_endproc
 262              	.LFE4:
 263              		.size	__list_del, .-__list_del
 264              		.align	1
 265              		.syntax unified
 266              		.thumb
 267              		.thumb_func
 268              		.fpu softvfp
 269              		.type	list_del, %function
 270              	list_del:
 271              	.LFB5:
  51:../../source/include/os_lib/double_linked_list.h **** 
  52:../../source/include/os_lib/double_linked_list.h **** 
  53:../../source/include/os_lib/double_linked_list.h **** static inline void list_del(struct list_head *entry)
  54:../../source/include/os_lib/double_linked_list.h **** {
 272              		.loc 1 54 0
 273              		.cfi_startproc
 274              		@ args = 0, pretend = 0, frame = 8
 275              		@ frame_needed = 1, uses_anonymous_args = 0
 276 00ac 80B5     		push	{r7, lr}
 277              	.LCFI28:
 278              		.cfi_def_cfa_offset 8
 279              		.cfi_offset 7, -8
 280              		.cfi_offset 14, -4
 281 00ae 82B0     		sub	sp, sp, #8
 282              	.LCFI29:
 283              		.cfi_def_cfa_offset 16
 284 00b0 00AF     		add	r7, sp, #0
 285              	.LCFI30:
 286              		.cfi_def_cfa_register 7
 287 00b2 7860     		str	r0, [r7, #4]
  55:../../source/include/os_lib/double_linked_list.h ****     __list_del(entry->prev, entry->next);
ARM GAS  G:\Users\Jaxb\AppData\Local\Temp\ccaY7iov.s 			page 7


 288              		.loc 1 55 0
 289 00b4 7B68     		ldr	r3, [r7, #4]
 290 00b6 5A68     		ldr	r2, [r3, #4]
 291 00b8 7B68     		ldr	r3, [r7, #4]
 292 00ba 1B68     		ldr	r3, [r3]
 293 00bc 1946     		mov	r1, r3
 294 00be 1046     		mov	r0, r2
 295 00c0 FFF7E4FF 		bl	__list_del
  56:../../source/include/os_lib/double_linked_list.h **** }
 296              		.loc 1 56 0
 297 00c4 00BF     		nop
 298 00c6 0837     		adds	r7, r7, #8
 299              	.LCFI31:
 300              		.cfi_def_cfa_offset 8
 301 00c8 BD46     		mov	sp, r7
 302              	.LCFI32:
 303              		.cfi_def_cfa_register 13
 304              		@ sp needed
 305 00ca 80BD     		pop	{r7, pc}
 306              		.cfi_endproc
 307              	.LFE5:
 308              		.size	list_del, .-list_del
 309              		.align	1
 310              		.syntax unified
 311              		.thumb
 312              		.thumb_func
 313              		.fpu softvfp
 314              		.type	list_empty, %function
 315              	list_empty:
 316              	.LFB9:
  57:../../source/include/os_lib/double_linked_list.h **** 
  58:../../source/include/os_lib/double_linked_list.h **** 
  59:../../source/include/os_lib/double_linked_list.h **** static inline void __list_del_entry(struct list_head *entry)
  60:../../source/include/os_lib/double_linked_list.h **** {
  61:../../source/include/os_lib/double_linked_list.h ****     __list_del(entry->prev, entry->next);
  62:../../source/include/os_lib/double_linked_list.h **** }
  63:../../source/include/os_lib/double_linked_list.h **** 
  64:../../source/include/os_lib/double_linked_list.h **** 
  65:../../source/include/os_lib/double_linked_list.h **** static inline void list_del_init(struct list_head *entry)
  66:../../source/include/os_lib/double_linked_list.h **** {
  67:../../source/include/os_lib/double_linked_list.h ****     __list_del_entry(entry);
  68:../../source/include/os_lib/double_linked_list.h ****     INIT_LIST_HEAD(entry);
  69:../../source/include/os_lib/double_linked_list.h **** }
  70:../../source/include/os_lib/double_linked_list.h **** 
  71:../../source/include/os_lib/double_linked_list.h **** 
  72:../../source/include/os_lib/double_linked_list.h **** static inline void list_replace(struct list_head *old,
  73:../../source/include/os_lib/double_linked_list.h ****                 struct list_head *new)
  74:../../source/include/os_lib/double_linked_list.h **** {
  75:../../source/include/os_lib/double_linked_list.h ****     new->next = old->next;
  76:../../source/include/os_lib/double_linked_list.h ****     new->next->prev = new;
  77:../../source/include/os_lib/double_linked_list.h ****     new->prev = old->prev;
  78:../../source/include/os_lib/double_linked_list.h ****     new->prev->next = new;
  79:../../source/include/os_lib/double_linked_list.h **** }
  80:../../source/include/os_lib/double_linked_list.h **** 
  81:../../source/include/os_lib/double_linked_list.h **** 
  82:../../source/include/os_lib/double_linked_list.h **** static inline int list_empty(const struct list_head *head)
  83:../../source/include/os_lib/double_linked_list.h **** {
ARM GAS  G:\Users\Jaxb\AppData\Local\Temp\ccaY7iov.s 			page 8


 317              		.loc 1 83 0
 318              		.cfi_startproc
 319              		@ args = 0, pretend = 0, frame = 8
 320              		@ frame_needed = 1, uses_anonymous_args = 0
 321              		@ link register save eliminated.
 322 00cc 80B4     		push	{r7}
 323              	.LCFI33:
 324              		.cfi_def_cfa_offset 4
 325              		.cfi_offset 7, -4
 326 00ce 83B0     		sub	sp, sp, #12
 327              	.LCFI34:
 328              		.cfi_def_cfa_offset 16
 329 00d0 00AF     		add	r7, sp, #0
 330              	.LCFI35:
 331              		.cfi_def_cfa_register 7
 332 00d2 7860     		str	r0, [r7, #4]
  84:../../source/include/os_lib/double_linked_list.h ****     return head->next == head;
 333              		.loc 1 84 0
 334 00d4 7B68     		ldr	r3, [r7, #4]
 335 00d6 1B68     		ldr	r3, [r3]
 336 00d8 7A68     		ldr	r2, [r7, #4]
 337 00da 9A42     		cmp	r2, r3
 338 00dc 0CBF     		ite	eq
 339 00de 0123     		moveq	r3, #1
 340 00e0 0023     		movne	r3, #0
 341 00e2 DBB2     		uxtb	r3, r3
  85:../../source/include/os_lib/double_linked_list.h **** }
 342              		.loc 1 85 0
 343 00e4 1846     		mov	r0, r3
 344 00e6 0C37     		adds	r7, r7, #12
 345              	.LCFI36:
 346              		.cfi_def_cfa_offset 4
 347 00e8 BD46     		mov	sp, r7
 348              	.LCFI37:
 349              		.cfi_def_cfa_register 13
 350              		@ sp needed
 351 00ea 80BC     		pop	{r7}
 352              	.LCFI38:
 353              		.cfi_restore 7
 354              		.cfi_def_cfa_offset 0
 355 00ec 7047     		bx	lr
 356              		.cfi_endproc
 357              	.LFE9:
 358              		.size	list_empty, .-list_empty
 359              		.align	1
 360              		.global	IL_init
 361              		.syntax unified
 362              		.thumb
 363              		.thumb_func
 364              		.fpu softvfp
 365              		.type	IL_init, %function
 366              	IL_init:
 367              	.LFB10:
 368              		.file 2 "../../source/src/kernel/OS_LIB/insert_sort.c"
   1:../../source/src/kernel/OS_LIB/insert_sort.c **** #include <insert_sort.h>
   2:../../source/src/kernel/OS_LIB/insert_sort.c **** #include <double_linked_list.h>
   3:../../source/src/kernel/OS_LIB/insert_sort.c **** #include <myassert.h>
ARM GAS  G:\Users\Jaxb\AppData\Local\Temp\ccaY7iov.s 			page 9


   4:../../source/src/kernel/OS_LIB/insert_sort.c **** 
   5:../../source/src/kernel/OS_LIB/insert_sort.c **** #define TIME_FIRST_SMALLER_THAN_SECOND(first,second) ((INT64)(first)-(INT64)(second)<0)
   6:../../source/src/kernel/OS_LIB/insert_sort.c **** #define TIME_FIRST_NOT_BIGGER_THAN_SECOND(first,second) ((INT64)(second)-(INT64)(first)>=0)
   7:../../source/src/kernel/OS_LIB/insert_sort.c **** 
   8:../../source/src/kernel/OS_LIB/insert_sort.c **** inline void IL_init(IL *IL_ptr,COMPARE_TYPE prio)
   9:../../source/src/kernel/OS_LIB/insert_sort.c **** {
 369              		.loc 2 9 0
 370              		.cfi_startproc
 371              		@ args = 0, pretend = 0, frame = 8
 372              		@ frame_needed = 1, uses_anonymous_args = 0
 373 00ee 80B5     		push	{r7, lr}
 374              	.LCFI39:
 375              		.cfi_def_cfa_offset 8
 376              		.cfi_offset 7, -8
 377              		.cfi_offset 14, -4
 378 00f0 82B0     		sub	sp, sp, #8
 379              	.LCFI40:
 380              		.cfi_def_cfa_offset 16
 381 00f2 00AF     		add	r7, sp, #0
 382              	.LCFI41:
 383              		.cfi_def_cfa_register 7
 384 00f4 7860     		str	r0, [r7, #4]
 385 00f6 3960     		str	r1, [r7]
  10:../../source/src/kernel/OS_LIB/insert_sort.c **** 	INIT_LIST_HEAD(&IL_ptr->insert);
 386              		.loc 2 10 0
 387 00f8 7B68     		ldr	r3, [r7, #4]
 388 00fa 1846     		mov	r0, r3
 389 00fc FFF780FF 		bl	INIT_LIST_HEAD
  11:../../source/src/kernel/OS_LIB/insert_sort.c **** 	IL_ptr->prio = prio;
 390              		.loc 2 11 0
 391 0100 7B68     		ldr	r3, [r7, #4]
 392 0102 3A68     		ldr	r2, [r7]
 393 0104 9A60     		str	r2, [r3, #8]
  12:../../source/src/kernel/OS_LIB/insert_sort.c **** }
 394              		.loc 2 12 0
 395 0106 00BF     		nop
 396 0108 0837     		adds	r7, r7, #8
 397              	.LCFI42:
 398              		.cfi_def_cfa_offset 8
 399 010a BD46     		mov	sp, r7
 400              	.LCFI43:
 401              		.cfi_def_cfa_register 13
 402              		@ sp needed
 403 010c 80BD     		pop	{r7, pc}
 404              		.cfi_endproc
 405              	.LFE10:
 406              		.size	IL_init, .-IL_init
 407              		.section	.rodata
 408              		.align	2
 409              	.LC0:
 410 0000 2E2E2F2E 		.ascii	"../../source/src/kernel/OS_LIB/insert_sort.c\000"
 410      2E2F736F 
 410      75726365 
 410      2F737263 
 410      2F6B6572 
 411              		.text
 412              		.align	1
ARM GAS  G:\Users\Jaxb\AppData\Local\Temp\ccaY7iov.s 			page 10


 413              		.global	get_next_IL
 414              		.syntax unified
 415              		.thumb
 416              		.thumb_func
 417              		.fpu softvfp
 418              		.type	get_next_IL, %function
 419              	get_next_IL:
 420              	.LFB11:
  13:../../source/src/kernel/OS_LIB/insert_sort.c **** 
  14:../../source/src/kernel/OS_LIB/insert_sort.c **** IL *get_next_IL(IL *IL_ptr,struct list_head *head_ptr)
  15:../../source/src/kernel/OS_LIB/insert_sort.c **** {
 421              		.loc 2 15 0
 422              		.cfi_startproc
 423              		@ args = 0, pretend = 0, frame = 16
 424              		@ frame_needed = 1, uses_anonymous_args = 0
 425 010e 80B5     		push	{r7, lr}
 426              	.LCFI44:
 427              		.cfi_def_cfa_offset 8
 428              		.cfi_offset 7, -8
 429              		.cfi_offset 14, -4
 430 0110 84B0     		sub	sp, sp, #16
 431              	.LCFI45:
 432              		.cfi_def_cfa_offset 24
 433 0112 00AF     		add	r7, sp, #0
 434              	.LCFI46:
 435              		.cfi_def_cfa_register 7
 436 0114 7860     		str	r0, [r7, #4]
 437 0116 3960     		str	r1, [r7]
  16:../../source/src/kernel/OS_LIB/insert_sort.c **** 	ASSERT(NULL != IL_ptr);
 438              		.loc 2 16 0
 439 0118 7B68     		ldr	r3, [r7, #4]
 440 011a 002B     		cmp	r3, #0
 441 011c 03D1     		bne	.L11
 442              		.loc 2 16 0 is_stmt 0 discriminator 1
 443 011e 1021     		movs	r1, #16
 444 0120 0A48     		ldr	r0, .L14
 445 0122 FFF7FEFF 		bl	_ASSERT
 446              	.L11:
  17:../../source/src/kernel/OS_LIB/insert_sort.c **** 	struct list_head *list_buffer;
  18:../../source/src/kernel/OS_LIB/insert_sort.c **** 	list_buffer = &IL_ptr->insert;
 447              		.loc 2 18 0 is_stmt 1
 448 0126 7B68     		ldr	r3, [r7, #4]
 449 0128 FB60     		str	r3, [r7, #12]
  19:../../source/src/kernel/OS_LIB/insert_sort.c **** 	list_buffer = list_buffer->next;
 450              		.loc 2 19 0
 451 012a FB68     		ldr	r3, [r7, #12]
 452 012c 1B68     		ldr	r3, [r3]
 453 012e FB60     		str	r3, [r7, #12]
  20:../../source/src/kernel/OS_LIB/insert_sort.c **** 	if(list_buffer == head_ptr)
 454              		.loc 2 20 0
 455 0130 FA68     		ldr	r2, [r7, #12]
 456 0132 3B68     		ldr	r3, [r7]
 457 0134 9A42     		cmp	r2, r3
 458 0136 01D1     		bne	.L12
  21:../../source/src/kernel/OS_LIB/insert_sort.c **** 	{
  22:../../source/src/kernel/OS_LIB/insert_sort.c **** 		return NULL;
 459              		.loc 2 22 0
ARM GAS  G:\Users\Jaxb\AppData\Local\Temp\ccaY7iov.s 			page 11


 460 0138 0023     		movs	r3, #0
 461 013a 03E0     		b	.L13
 462              	.L12:
 463              	.LBB2:
  23:../../source/src/kernel/OS_LIB/insert_sort.c **** 	}
  24:../../source/src/kernel/OS_LIB/insert_sort.c **** 	return (list_entry(list_buffer,IL,insert));
 464              		.loc 2 24 0
 465 013c FB68     		ldr	r3, [r7, #12]
 466 013e BB60     		str	r3, [r7, #8]
 467 0140 BB68     		ldr	r3, [r7, #8]
 468              	.LBE2:
 469 0142 00BF     		nop
 470              	.L13:
  25:../../source/src/kernel/OS_LIB/insert_sort.c **** }
 471              		.loc 2 25 0
 472 0144 1846     		mov	r0, r3
 473 0146 1037     		adds	r7, r7, #16
 474              	.LCFI47:
 475              		.cfi_def_cfa_offset 8
 476 0148 BD46     		mov	sp, r7
 477              	.LCFI48:
 478              		.cfi_def_cfa_register 13
 479              		@ sp needed
 480 014a 80BD     		pop	{r7, pc}
 481              	.L15:
 482              		.align	2
 483              	.L14:
 484 014c 00000000 		.word	.LC0
 485              		.cfi_endproc
 486              	.LFE11:
 487              		.size	get_next_IL, .-get_next_IL
 488              		.align	1
 489              		.global	insert_chain
 490              		.syntax unified
 491              		.thumb
 492              		.thumb_func
 493              		.fpu softvfp
 494              		.type	insert_chain, %function
 495              	insert_chain:
 496              	.LFB12:
  26:../../source/src/kernel/OS_LIB/insert_sort.c **** 
  27:../../source/src/kernel/OS_LIB/insert_sort.c **** void 
  28:../../source/src/kernel/OS_LIB/insert_sort.c **** insert_chain(
  29:../../source/src/kernel/OS_LIB/insert_sort.c **** struct list_head *head,
  30:../../source/src/kernel/OS_LIB/insert_sort.c **** IL *insert_node
  31:../../source/src/kernel/OS_LIB/insert_sort.c **** )
  32:../../source/src/kernel/OS_LIB/insert_sort.c **** {
 497              		.loc 2 32 0
 498              		.cfi_startproc
 499              		@ args = 0, pretend = 0, frame = 32
 500              		@ frame_needed = 1, uses_anonymous_args = 0
 501 0150 2DE99048 		push	{r4, r7, fp, lr}
 502              	.LCFI49:
 503              		.cfi_def_cfa_offset 16
 504              		.cfi_offset 4, -16
 505              		.cfi_offset 7, -12
 506              		.cfi_offset 11, -8
ARM GAS  G:\Users\Jaxb\AppData\Local\Temp\ccaY7iov.s 			page 12


 507              		.cfi_offset 14, -4
 508 0154 88B0     		sub	sp, sp, #32
 509              	.LCFI50:
 510              		.cfi_def_cfa_offset 48
 511 0156 00AF     		add	r7, sp, #0
 512              	.LCFI51:
 513              		.cfi_def_cfa_register 7
 514 0158 7860     		str	r0, [r7, #4]
 515 015a 3960     		str	r1, [r7]
  33:../../source/src/kernel/OS_LIB/insert_sort.c **** 	struct list_head *pos,*next;
  34:../../source/src/kernel/OS_LIB/insert_sort.c ****   ASSERT(NULL != head);
 516              		.loc 2 34 0
 517 015c 7B68     		ldr	r3, [r7, #4]
 518 015e 002B     		cmp	r3, #0
 519 0160 03D1     		bne	.L17
 520              		.loc 2 34 0 is_stmt 0 discriminator 1
 521 0162 2221     		movs	r1, #34
 522 0164 2748     		ldr	r0, .L24
 523 0166 FFF7FEFF 		bl	_ASSERT
 524              	.L17:
  35:../../source/src/kernel/OS_LIB/insert_sort.c ****   ASSERT(NULL != insert_node);
 525              		.loc 2 35 0 is_stmt 1
 526 016a 3B68     		ldr	r3, [r7]
 527 016c 002B     		cmp	r3, #0
 528 016e 03D1     		bne	.L18
 529              		.loc 2 35 0 is_stmt 0 discriminator 1
 530 0170 2321     		movs	r1, #35
 531 0172 2448     		ldr	r0, .L24
 532 0174 FFF7FEFF 		bl	_ASSERT
 533              	.L18:
  36:../../source/src/kernel/OS_LIB/insert_sort.c **** 
  37:../../source/src/kernel/OS_LIB/insert_sort.c **** 	if(list_empty(head))
 534              		.loc 2 37 0 is_stmt 1
 535 0178 7868     		ldr	r0, [r7, #4]
 536 017a FFF7A7FF 		bl	list_empty
 537 017e 0346     		mov	r3, r0
 538 0180 002B     		cmp	r3, #0
 539 0182 05D0     		beq	.L19
  38:../../source/src/kernel/OS_LIB/insert_sort.c **** 	{
  39:../../source/src/kernel/OS_LIB/insert_sort.c **** 		list_add(&insert_node->insert,head);
 540              		.loc 2 39 0
 541 0184 3B68     		ldr	r3, [r7]
 542 0186 7968     		ldr	r1, [r7, #4]
 543 0188 1846     		mov	r0, r3
 544 018a FFF75FFF 		bl	list_add
  40:../../source/src/kernel/OS_LIB/insert_sort.c **** 		return;
 545              		.loc 2 40 0
 546 018e 35E0     		b	.L16
 547              	.L19:
  41:../../source/src/kernel/OS_LIB/insert_sort.c **** 	}
  42:../../source/src/kernel/OS_LIB/insert_sort.c **** 	
  43:../../source/src/kernel/OS_LIB/insert_sort.c ****   COMPARE_TYPE prio = insert_node->prio;
 548              		.loc 2 43 0
 549 0190 3B68     		ldr	r3, [r7]
 550 0192 9B68     		ldr	r3, [r3, #8]
 551 0194 7B61     		str	r3, [r7, #20]
  44:../../source/src/kernel/OS_LIB/insert_sort.c **** 	IL *IL_ptr;
ARM GAS  G:\Users\Jaxb\AppData\Local\Temp\ccaY7iov.s 			page 13


  45:../../source/src/kernel/OS_LIB/insert_sort.c **** 	list_for_each_safe(pos,next,head)
 552              		.loc 2 45 0
 553 0196 7B68     		ldr	r3, [r7, #4]
 554 0198 1B68     		ldr	r3, [r3]
 555 019a FB61     		str	r3, [r7, #28]
 556 019c FB69     		ldr	r3, [r7, #28]
 557 019e 1B68     		ldr	r3, [r3]
 558 01a0 BB61     		str	r3, [r7, #24]
 559 01a2 21E0     		b	.L21
 560              	.L23:
 561              	.LBB3:
  46:../../source/src/kernel/OS_LIB/insert_sort.c **** 	{
  47:../../source/src/kernel/OS_LIB/insert_sort.c **** 		IL_ptr = list_entry(pos,IL,insert);
 562              		.loc 2 47 0
 563 01a4 FB69     		ldr	r3, [r7, #28]
 564 01a6 3B61     		str	r3, [r7, #16]
 565 01a8 3B69     		ldr	r3, [r7, #16]
 566              	.LBE3:
 567 01aa FB60     		str	r3, [r7, #12]
  48:../../source/src/kernel/OS_LIB/insert_sort.c **** 		/*if(prio < IL_ptr->prio)*/
  49:../../source/src/kernel/OS_LIB/insert_sort.c **** 		if(TIME_FIRST_SMALLER_THAN_SECOND(prio,IL_ptr->prio))
 568              		.loc 2 49 0
 569 01ac 7B69     		ldr	r3, [r7, #20]
 570 01ae 1946     		mov	r1, r3
 571 01b0 4FF00002 		mov	r2, #0
 572 01b4 FB68     		ldr	r3, [r7, #12]
 573 01b6 9B68     		ldr	r3, [r3, #8]
 574 01b8 9B46     		mov	fp, r3
 575 01ba 4FF0000C 		mov	ip, #0
 576 01be 0B46     		mov	r3, r1
 577 01c0 1446     		mov	r4, r2
 578 01c2 B3EB0B03 		subs	r3, r3, fp
 579 01c6 64EB0C04 		sbc	r4, r4, ip
 580 01ca 002B     		cmp	r3, #0
 581 01cc 74F10003 		sbcs	r3, r4, #0
 582 01d0 05DA     		bge	.L22
  50:../../source/src/kernel/OS_LIB/insert_sort.c **** 		{
  51:../../source/src/kernel/OS_LIB/insert_sort.c **** 			list_add_tail(&insert_node->insert,pos);
 583              		.loc 2 51 0
 584 01d2 3B68     		ldr	r3, [r7]
 585 01d4 F969     		ldr	r1, [r7, #28]
 586 01d6 1846     		mov	r0, r3
 587 01d8 FFF748FF 		bl	list_add_tail
  52:../../source/src/kernel/OS_LIB/insert_sort.c **** 			return ;
 588              		.loc 2 52 0
 589 01dc 0EE0     		b	.L16
 590              	.L22:
  45:../../source/src/kernel/OS_LIB/insert_sort.c **** 	{
 591              		.loc 2 45 0 discriminator 2
 592 01de BB69     		ldr	r3, [r7, #24]
 593 01e0 FB61     		str	r3, [r7, #28]
 594 01e2 FB69     		ldr	r3, [r7, #28]
 595 01e4 1B68     		ldr	r3, [r3]
 596 01e6 BB61     		str	r3, [r7, #24]
 597              	.L21:
  45:../../source/src/kernel/OS_LIB/insert_sort.c **** 	{
 598              		.loc 2 45 0 is_stmt 0 discriminator 1
ARM GAS  G:\Users\Jaxb\AppData\Local\Temp\ccaY7iov.s 			page 14


 599 01e8 FA69     		ldr	r2, [r7, #28]
 600 01ea 7B68     		ldr	r3, [r7, #4]
 601 01ec 9A42     		cmp	r2, r3
 602 01ee D9D1     		bne	.L23
  53:../../source/src/kernel/OS_LIB/insert_sort.c **** 		}
  54:../../source/src/kernel/OS_LIB/insert_sort.c **** 
  55:../../source/src/kernel/OS_LIB/insert_sort.c **** 	}
  56:../../source/src/kernel/OS_LIB/insert_sort.c **** 	list_add_tail(&insert_node->insert,head);
 603              		.loc 2 56 0 is_stmt 1
 604 01f0 3B68     		ldr	r3, [r7]
 605 01f2 7968     		ldr	r1, [r7, #4]
 606 01f4 1846     		mov	r0, r3
 607 01f6 FFF739FF 		bl	list_add_tail
  57:../../source/src/kernel/OS_LIB/insert_sort.c **** 	return ;
 608              		.loc 2 57 0
 609 01fa 00BF     		nop
 610              	.L16:
  58:../../source/src/kernel/OS_LIB/insert_sort.c **** }
 611              		.loc 2 58 0
 612 01fc 2037     		adds	r7, r7, #32
 613              	.LCFI52:
 614              		.cfi_def_cfa_offset 16
 615 01fe BD46     		mov	sp, r7
 616              	.LCFI53:
 617              		.cfi_def_cfa_register 13
 618              		@ sp needed
 619 0200 BDE89088 		pop	{r4, r7, fp, pc}
 620              	.L25:
 621              		.align	2
 622              	.L24:
 623 0204 00000000 		.word	.LC0
 624              		.cfi_endproc
 625              	.LFE12:
 626              		.size	insert_chain, .-insert_chain
 627              		.align	1
 628              		.global	find_in_chain
 629              		.syntax unified
 630              		.thumb
 631              		.thumb_func
 632              		.fpu softvfp
 633              		.type	find_in_chain, %function
 634              	find_in_chain:
 635              	.LFB13:
  59:../../source/src/kernel/OS_LIB/insert_sort.c **** 
  60:../../source/src/kernel/OS_LIB/insert_sort.c **** IL *find_in_chain(struct list_head *head,COMPARE_TYPE prio) /* polymorphic*/
  61:../../source/src/kernel/OS_LIB/insert_sort.c **** {
 636              		.loc 2 61 0
 637              		.cfi_startproc
 638              		@ args = 0, pretend = 0, frame = 24
 639              		@ frame_needed = 1, uses_anonymous_args = 0
 640              		@ link register save eliminated.
 641 0208 80B4     		push	{r7}
 642              	.LCFI54:
 643              		.cfi_def_cfa_offset 4
 644              		.cfi_offset 7, -4
 645 020a 87B0     		sub	sp, sp, #28
 646              	.LCFI55:
ARM GAS  G:\Users\Jaxb\AppData\Local\Temp\ccaY7iov.s 			page 15


 647              		.cfi_def_cfa_offset 32
 648 020c 00AF     		add	r7, sp, #0
 649              	.LCFI56:
 650              		.cfi_def_cfa_register 7
 651 020e 7860     		str	r0, [r7, #4]
 652 0210 3960     		str	r1, [r7]
  62:../../source/src/kernel/OS_LIB/insert_sort.c **** 	struct list_head *pos, *next;
  63:../../source/src/kernel/OS_LIB/insert_sort.c **** 	IL *IL_ptr;
  64:../../source/src/kernel/OS_LIB/insert_sort.c **** 	list_for_each_safe(pos, next, head)
 653              		.loc 2 64 0
 654 0212 7B68     		ldr	r3, [r7, #4]
 655 0214 1B68     		ldr	r3, [r3]
 656 0216 7B61     		str	r3, [r7, #20]
 657 0218 7B69     		ldr	r3, [r7, #20]
 658 021a 1B68     		ldr	r3, [r3]
 659 021c 3B61     		str	r3, [r7, #16]
 660 021e 0FE0     		b	.L27
 661              	.L30:
 662              	.LBB4:
  65:../../source/src/kernel/OS_LIB/insert_sort.c **** 	{
  66:../../source/src/kernel/OS_LIB/insert_sort.c ****       IL_ptr = list_entry(pos,IL,insert);
 663              		.loc 2 66 0
 664 0220 7B69     		ldr	r3, [r7, #20]
 665 0222 FB60     		str	r3, [r7, #12]
 666 0224 FB68     		ldr	r3, [r7, #12]
 667              	.LBE4:
 668 0226 BB60     		str	r3, [r7, #8]
  67:../../source/src/kernel/OS_LIB/insert_sort.c ****       if(prio == IL_ptr->prio)
 669              		.loc 2 67 0
 670 0228 BB68     		ldr	r3, [r7, #8]
 671 022a 9B68     		ldr	r3, [r3, #8]
 672 022c 3A68     		ldr	r2, [r7]
 673 022e 9A42     		cmp	r2, r3
 674 0230 01D1     		bne	.L28
  68:../../source/src/kernel/OS_LIB/insert_sort.c ****       {
  69:../../source/src/kernel/OS_LIB/insert_sort.c ****       	return IL_ptr;
 675              		.loc 2 69 0
 676 0232 BB68     		ldr	r3, [r7, #8]
 677 0234 09E0     		b	.L29
 678              	.L28:
  64:../../source/src/kernel/OS_LIB/insert_sort.c **** 	{
 679              		.loc 2 64 0 discriminator 2
 680 0236 3B69     		ldr	r3, [r7, #16]
 681 0238 7B61     		str	r3, [r7, #20]
 682 023a 7B69     		ldr	r3, [r7, #20]
 683 023c 1B68     		ldr	r3, [r3]
 684 023e 3B61     		str	r3, [r7, #16]
 685              	.L27:
  64:../../source/src/kernel/OS_LIB/insert_sort.c **** 	{
 686              		.loc 2 64 0 is_stmt 0 discriminator 1
 687 0240 7A69     		ldr	r2, [r7, #20]
 688 0242 7B68     		ldr	r3, [r7, #4]
 689 0244 9A42     		cmp	r2, r3
 690 0246 EBD1     		bne	.L30
  70:../../source/src/kernel/OS_LIB/insert_sort.c ****       }
  71:../../source/src/kernel/OS_LIB/insert_sort.c **** 	}
  72:../../source/src/kernel/OS_LIB/insert_sort.c **** 	return NULL;
ARM GAS  G:\Users\Jaxb\AppData\Local\Temp\ccaY7iov.s 			page 16


 691              		.loc 2 72 0 is_stmt 1
 692 0248 0023     		movs	r3, #0
 693              	.L29:
  73:../../source/src/kernel/OS_LIB/insert_sort.c **** }
 694              		.loc 2 73 0
 695 024a 1846     		mov	r0, r3
 696 024c 1C37     		adds	r7, r7, #28
 697              	.LCFI57:
 698              		.cfi_def_cfa_offset 4
 699 024e BD46     		mov	sp, r7
 700              	.LCFI58:
 701              		.cfi_def_cfa_register 13
 702              		@ sp needed
 703 0250 80BC     		pop	{r7}
 704              	.LCFI59:
 705              		.cfi_restore 7
 706              		.cfi_def_cfa_offset 0
 707 0252 7047     		bx	lr
 708              		.cfi_endproc
 709              	.LFE13:
 710              		.size	find_in_chain, .-find_in_chain
 711              		.align	1
 712              		.global	delete_from_chain
 713              		.syntax unified
 714              		.thumb
 715              		.thumb_func
 716              		.fpu softvfp
 717              		.type	delete_from_chain, %function
 718              	delete_from_chain:
 719              	.LFB14:
  74:../../source/src/kernel/OS_LIB/insert_sort.c **** 
  75:../../source/src/kernel/OS_LIB/insert_sort.c **** IL *delete_from_chain(struct list_head *head,COMPARE_TYPE prio)
  76:../../source/src/kernel/OS_LIB/insert_sort.c **** {
 720              		.loc 2 76 0
 721              		.cfi_startproc
 722              		@ args = 0, pretend = 0, frame = 24
 723              		@ frame_needed = 1, uses_anonymous_args = 0
 724 0254 80B5     		push	{r7, lr}
 725              	.LCFI60:
 726              		.cfi_def_cfa_offset 8
 727              		.cfi_offset 7, -8
 728              		.cfi_offset 14, -4
 729 0256 86B0     		sub	sp, sp, #24
 730              	.LCFI61:
 731              		.cfi_def_cfa_offset 32
 732 0258 00AF     		add	r7, sp, #0
 733              	.LCFI62:
 734              		.cfi_def_cfa_register 7
 735 025a 7860     		str	r0, [r7, #4]
 736 025c 3960     		str	r1, [r7]
  77:../../source/src/kernel/OS_LIB/insert_sort.c **** 	struct list_head *pos, *next;
  78:../../source/src/kernel/OS_LIB/insert_sort.c **** 	IL *IL_ptr;
  79:../../source/src/kernel/OS_LIB/insert_sort.c **** 	list_for_each_safe(pos, next, head)
 737              		.loc 2 79 0
 738 025e 7B68     		ldr	r3, [r7, #4]
 739 0260 1B68     		ldr	r3, [r3]
 740 0262 7B61     		str	r3, [r7, #20]
ARM GAS  G:\Users\Jaxb\AppData\Local\Temp\ccaY7iov.s 			page 17


 741 0264 7B69     		ldr	r3, [r7, #20]
 742 0266 1B68     		ldr	r3, [r3]
 743 0268 3B61     		str	r3, [r7, #16]
 744 026a 12E0     		b	.L32
 745              	.L35:
 746              	.LBB5:
  80:../../source/src/kernel/OS_LIB/insert_sort.c **** 	{
  81:../../source/src/kernel/OS_LIB/insert_sort.c ****       IL_ptr = list_entry(pos,IL,insert);
 747              		.loc 2 81 0
 748 026c 7B69     		ldr	r3, [r7, #20]
 749 026e FB60     		str	r3, [r7, #12]
 750 0270 FB68     		ldr	r3, [r7, #12]
 751              	.LBE5:
 752 0272 BB60     		str	r3, [r7, #8]
  82:../../source/src/kernel/OS_LIB/insert_sort.c ****       if(prio == IL_ptr->prio)
 753              		.loc 2 82 0
 754 0274 BB68     		ldr	r3, [r7, #8]
 755 0276 9B68     		ldr	r3, [r3, #8]
 756 0278 3A68     		ldr	r2, [r7]
 757 027a 9A42     		cmp	r2, r3
 758 027c 04D1     		bne	.L33
  83:../../source/src/kernel/OS_LIB/insert_sort.c ****       {
  84:../../source/src/kernel/OS_LIB/insert_sort.c ****       	list_del(pos);
 759              		.loc 2 84 0
 760 027e 7869     		ldr	r0, [r7, #20]
 761 0280 FFF714FF 		bl	list_del
  85:../../source/src/kernel/OS_LIB/insert_sort.c ****       	return IL_ptr;
 762              		.loc 2 85 0
 763 0284 BB68     		ldr	r3, [r7, #8]
 764 0286 09E0     		b	.L34
 765              	.L33:
  79:../../source/src/kernel/OS_LIB/insert_sort.c **** 	{
 766              		.loc 2 79 0 discriminator 2
 767 0288 3B69     		ldr	r3, [r7, #16]
 768 028a 7B61     		str	r3, [r7, #20]
 769 028c 7B69     		ldr	r3, [r7, #20]
 770 028e 1B68     		ldr	r3, [r3]
 771 0290 3B61     		str	r3, [r7, #16]
 772              	.L32:
  79:../../source/src/kernel/OS_LIB/insert_sort.c **** 	{
 773              		.loc 2 79 0 is_stmt 0 discriminator 1
 774 0292 7A69     		ldr	r2, [r7, #20]
 775 0294 7B68     		ldr	r3, [r7, #4]
 776 0296 9A42     		cmp	r2, r3
 777 0298 E8D1     		bne	.L35
  86:../../source/src/kernel/OS_LIB/insert_sort.c ****       }
  87:../../source/src/kernel/OS_LIB/insert_sort.c **** 	}
  88:../../source/src/kernel/OS_LIB/insert_sort.c **** 	return NULL;
 778              		.loc 2 88 0 is_stmt 1
 779 029a 0023     		movs	r3, #0
 780              	.L34:
  89:../../source/src/kernel/OS_LIB/insert_sort.c **** }
 781              		.loc 2 89 0
 782 029c 1846     		mov	r0, r3
 783 029e 1837     		adds	r7, r7, #24
 784              	.LCFI63:
 785              		.cfi_def_cfa_offset 8
ARM GAS  G:\Users\Jaxb\AppData\Local\Temp\ccaY7iov.s 			page 18


 786 02a0 BD46     		mov	sp, r7
 787              	.LCFI64:
 788              		.cfi_def_cfa_register 13
 789              		@ sp needed
 790 02a2 80BD     		pop	{r7, pc}
 791              		.cfi_endproc
 792              	.LFE14:
 793              		.size	delete_from_chain, .-delete_from_chain
 794              		.align	1
 795              		.global	delete_first_in_chain
 796              		.syntax unified
 797              		.thumb
 798              		.thumb_func
 799              		.fpu softvfp
 800              		.type	delete_first_in_chain, %function
 801              	delete_first_in_chain:
 802              	.LFB15:
  90:../../source/src/kernel/OS_LIB/insert_sort.c **** 
  91:../../source/src/kernel/OS_LIB/insert_sort.c **** IL *delete_first_in_chain(struct list_head *head)
  92:../../source/src/kernel/OS_LIB/insert_sort.c **** {
 803              		.loc 2 92 0
 804              		.cfi_startproc
 805              		@ args = 0, pretend = 0, frame = 24
 806              		@ frame_needed = 1, uses_anonymous_args = 0
 807 02a4 80B5     		push	{r7, lr}
 808              	.LCFI65:
 809              		.cfi_def_cfa_offset 8
 810              		.cfi_offset 7, -8
 811              		.cfi_offset 14, -4
 812 02a6 86B0     		sub	sp, sp, #24
 813              	.LCFI66:
 814              		.cfi_def_cfa_offset 32
 815 02a8 00AF     		add	r7, sp, #0
 816              	.LCFI67:
 817              		.cfi_def_cfa_register 7
 818 02aa 7860     		str	r0, [r7, #4]
  93:../../source/src/kernel/OS_LIB/insert_sort.c **** 	struct list_head *pos;
  94:../../source/src/kernel/OS_LIB/insert_sort.c **** 	IL *IL_ptr;
  95:../../source/src/kernel/OS_LIB/insert_sort.c **** 	pos = head->next;
 819              		.loc 2 95 0
 820 02ac 7B68     		ldr	r3, [r7, #4]
 821 02ae 1B68     		ldr	r3, [r3]
 822 02b0 7B61     		str	r3, [r7, #20]
  96:../../source/src/kernel/OS_LIB/insert_sort.c **** 	if(pos == head)
 823              		.loc 2 96 0
 824 02b2 7A69     		ldr	r2, [r7, #20]
 825 02b4 7B68     		ldr	r3, [r7, #4]
 826 02b6 9A42     		cmp	r2, r3
 827 02b8 01D1     		bne	.L37
  97:../../source/src/kernel/OS_LIB/insert_sort.c **** 	{
  98:../../source/src/kernel/OS_LIB/insert_sort.c **** 		return NULL;
 828              		.loc 2 98 0
 829 02ba 0023     		movs	r3, #0
 830 02bc 07E0     		b	.L38
 831              	.L37:
 832              	.LBB6:
  99:../../source/src/kernel/OS_LIB/insert_sort.c **** 	}
ARM GAS  G:\Users\Jaxb\AppData\Local\Temp\ccaY7iov.s 			page 19


 100:../../source/src/kernel/OS_LIB/insert_sort.c **** 		
 101:../../source/src/kernel/OS_LIB/insert_sort.c **** 	IL_ptr = list_entry(pos,IL,insert);
 833              		.loc 2 101 0
 834 02be 7B69     		ldr	r3, [r7, #20]
 835 02c0 3B61     		str	r3, [r7, #16]
 836 02c2 3B69     		ldr	r3, [r7, #16]
 837              	.LBE6:
 838 02c4 FB60     		str	r3, [r7, #12]
 102:../../source/src/kernel/OS_LIB/insert_sort.c **** 	list_del(pos);
 839              		.loc 2 102 0
 840 02c6 7869     		ldr	r0, [r7, #20]
 841 02c8 FFF7F0FE 		bl	list_del
 103:../../source/src/kernel/OS_LIB/insert_sort.c **** 	return IL_ptr;
 842              		.loc 2 103 0
 843 02cc FB68     		ldr	r3, [r7, #12]
 844              	.L38:
 104:../../source/src/kernel/OS_LIB/insert_sort.c **** }
 845              		.loc 2 104 0
 846 02ce 1846     		mov	r0, r3
 847 02d0 1837     		adds	r7, r7, #24
 848              	.LCFI68:
 849              		.cfi_def_cfa_offset 8
 850 02d2 BD46     		mov	sp, r7
 851              	.LCFI69:
 852              		.cfi_def_cfa_register 13
 853              		@ sp needed
 854 02d4 80BD     		pop	{r7, pc}
 855              		.cfi_endproc
 856              	.LFE15:
 857              		.size	delete_first_in_chain, .-delete_first_in_chain
 858              		.align	1
 859              		.global	find_first_bigger_IL
 860              		.syntax unified
 861              		.thumb
 862              		.thumb_func
 863              		.fpu softvfp
 864              		.type	find_first_bigger_IL, %function
 865              	find_first_bigger_IL:
 866              	.LFB16:
 105:../../source/src/kernel/OS_LIB/insert_sort.c **** 
 106:../../source/src/kernel/OS_LIB/insert_sort.c **** IL *find_first_bigger_IL(struct list_head *head,unsigned int prio)/* polymorphic*/
 107:../../source/src/kernel/OS_LIB/insert_sort.c **** {
 867              		.loc 2 107 0
 868              		.cfi_startproc
 869              		@ args = 0, pretend = 0, frame = 24
 870              		@ frame_needed = 1, uses_anonymous_args = 0
 871              		@ link register save eliminated.
 872 02d6 80B4     		push	{r7}
 873              	.LCFI70:
 874              		.cfi_def_cfa_offset 4
 875              		.cfi_offset 7, -4
 876 02d8 87B0     		sub	sp, sp, #28
 877              	.LCFI71:
 878              		.cfi_def_cfa_offset 32
 879 02da 00AF     		add	r7, sp, #0
 880              	.LCFI72:
 881              		.cfi_def_cfa_register 7
ARM GAS  G:\Users\Jaxb\AppData\Local\Temp\ccaY7iov.s 			page 20


 882 02dc 7860     		str	r0, [r7, #4]
 883 02de 3960     		str	r1, [r7]
 108:../../source/src/kernel/OS_LIB/insert_sort.c **** 	struct list_head *pos, *next;
 109:../../source/src/kernel/OS_LIB/insert_sort.c **** 	IL *IL_ptr;
 110:../../source/src/kernel/OS_LIB/insert_sort.c **** 	list_for_each_safe(pos, next, head)
 884              		.loc 2 110 0
 885 02e0 7B68     		ldr	r3, [r7, #4]
 886 02e2 1B68     		ldr	r3, [r3]
 887 02e4 7B61     		str	r3, [r7, #20]
 888 02e6 7B69     		ldr	r3, [r7, #20]
 889 02e8 1B68     		ldr	r3, [r3]
 890 02ea 3B61     		str	r3, [r7, #16]
 891 02ec 0FE0     		b	.L40
 892              	.L43:
 893              	.LBB7:
 111:../../source/src/kernel/OS_LIB/insert_sort.c **** 	{
 112:../../source/src/kernel/OS_LIB/insert_sort.c ****       IL_ptr = list_entry(pos,IL,insert);
 894              		.loc 2 112 0
 895 02ee 7B69     		ldr	r3, [r7, #20]
 896 02f0 FB60     		str	r3, [r7, #12]
 897 02f2 FB68     		ldr	r3, [r7, #12]
 898              	.LBE7:
 899 02f4 BB60     		str	r3, [r7, #8]
 113:../../source/src/kernel/OS_LIB/insert_sort.c ****       if(prio <= IL_ptr->prio)
 900              		.loc 2 113 0
 901 02f6 BB68     		ldr	r3, [r7, #8]
 902 02f8 9B68     		ldr	r3, [r3, #8]
 903 02fa 3A68     		ldr	r2, [r7]
 904 02fc 9A42     		cmp	r2, r3
 905 02fe 01D8     		bhi	.L41
 114:../../source/src/kernel/OS_LIB/insert_sort.c ****       {
 115:../../source/src/kernel/OS_LIB/insert_sort.c ****       	return IL_ptr;
 906              		.loc 2 115 0
 907 0300 BB68     		ldr	r3, [r7, #8]
 908 0302 09E0     		b	.L42
 909              	.L41:
 110:../../source/src/kernel/OS_LIB/insert_sort.c **** 	{
 910              		.loc 2 110 0 discriminator 2
 911 0304 3B69     		ldr	r3, [r7, #16]
 912 0306 7B61     		str	r3, [r7, #20]
 913 0308 7B69     		ldr	r3, [r7, #20]
 914 030a 1B68     		ldr	r3, [r3]
 915 030c 3B61     		str	r3, [r7, #16]
 916              	.L40:
 110:../../source/src/kernel/OS_LIB/insert_sort.c **** 	{
 917              		.loc 2 110 0 is_stmt 0 discriminator 1
 918 030e 7A69     		ldr	r2, [r7, #20]
 919 0310 7B68     		ldr	r3, [r7, #4]
 920 0312 9A42     		cmp	r2, r3
 921 0314 EBD1     		bne	.L43
 116:../../source/src/kernel/OS_LIB/insert_sort.c ****       }
 117:../../source/src/kernel/OS_LIB/insert_sort.c **** 	}
 118:../../source/src/kernel/OS_LIB/insert_sort.c **** 	return NULL;
 922              		.loc 2 118 0 is_stmt 1
 923 0316 0023     		movs	r3, #0
 924              	.L42:
 119:../../source/src/kernel/OS_LIB/insert_sort.c **** }
ARM GAS  G:\Users\Jaxb\AppData\Local\Temp\ccaY7iov.s 			page 21


 925              		.loc 2 119 0
 926 0318 1846     		mov	r0, r3
 927 031a 1C37     		adds	r7, r7, #28
 928              	.LCFI73:
 929              		.cfi_def_cfa_offset 4
 930 031c BD46     		mov	sp, r7
 931              	.LCFI74:
 932              		.cfi_def_cfa_register 13
 933              		@ sp needed
 934 031e 80BC     		pop	{r7}
 935              	.LCFI75:
 936              		.cfi_restore 7
 937              		.cfi_def_cfa_offset 0
 938 0320 7047     		bx	lr
 939              		.cfi_endproc
 940              	.LFE16:
 941              		.size	find_first_bigger_IL, .-find_first_bigger_IL
 942              	.Letext0:
 943              		.file 3 "../../source/include/os_cpu/kakaosstdint.h"
 944              		.file 4 "../../source/include/os_lib/insert_sort.h"
 945 0322 00BF     		.section	.debug_info,"",%progbits
 946              	.Ldebug_info0:
 947 0000 4E050000 		.4byte	0x54e
 948 0004 0200     		.2byte	0x2
 949 0006 00000000 		.4byte	.Ldebug_abbrev0
 950 000a 04       		.byte	0x4
 951 000b 01       		.uleb128 0x1
 952 000c 97010000 		.4byte	.LASF37
 953 0010 0C       		.byte	0xc
 954 0011 85020000 		.4byte	.LASF38
 955 0015 57020000 		.4byte	.LASF39
 956 0019 00000000 		.4byte	.Ltext0
 957 001d 22030000 		.4byte	.Letext0
 958 0021 00000000 		.4byte	.Ldebug_line0
 959 0025 02       		.uleb128 0x2
 960 0026 01       		.byte	0x1
 961 0027 06       		.byte	0x6
 962 0028 46020000 		.4byte	.LASF0
 963 002c 02       		.uleb128 0x2
 964 002d 02       		.byte	0x2
 965 002e 05       		.byte	0x5
 966 002f 6F010000 		.4byte	.LASF1
 967 0033 03       		.uleb128 0x3
 968 0034 04       		.byte	0x4
 969 0035 05       		.byte	0x5
 970 0036 696E7400 		.ascii	"int\000"
 971 003a 04       		.uleb128 0x4
 972 003b 79000000 		.4byte	.LASF5
 973 003f 03       		.byte	0x3
 974 0040 08       		.byte	0x8
 975 0041 45000000 		.4byte	0x45
 976 0045 02       		.uleb128 0x2
 977 0046 08       		.byte	0x8
 978 0047 05       		.byte	0x5
 979 0048 4D010000 		.4byte	.LASF2
 980 004c 02       		.uleb128 0x2
 981 004d 01       		.byte	0x1
ARM GAS  G:\Users\Jaxb\AppData\Local\Temp\ccaY7iov.s 			page 22


 982 004e 08       		.byte	0x8
 983 004f 8B000000 		.4byte	.LASF3
 984 0053 02       		.uleb128 0x2
 985 0054 02       		.byte	0x2
 986 0055 07       		.byte	0x7
 987 0056 B0000000 		.4byte	.LASF4
 988 005a 04       		.uleb128 0x4
 989 005b 5B010000 		.4byte	.LASF6
 990 005f 03       		.byte	0x3
 991 0060 0C       		.byte	0xc
 992 0061 65000000 		.4byte	0x65
 993 0065 02       		.uleb128 0x2
 994 0066 04       		.byte	0x4
 995 0067 07       		.byte	0x7
 996 0068 E9000000 		.4byte	.LASF7
 997 006c 02       		.uleb128 0x2
 998 006d 08       		.byte	0x8
 999 006e 07       		.byte	0x7
 1000 006f 08010000 		.4byte	.LASF8
 1001 0073 04       		.uleb128 0x4
 1002 0074 0A000000 		.4byte	.LASF9
 1003 0078 03       		.byte	0x3
 1004 0079 23       		.byte	0x23
 1005 007a 65000000 		.4byte	0x65
 1006 007e 05       		.uleb128 0x5
 1007 007f 43010000 		.4byte	.LASF13
 1008 0083 08       		.byte	0x8
 1009 0084 01       		.byte	0x1
 1010 0085 04       		.byte	0x4
 1011 0086 A7000000 		.4byte	0xa7
 1012 008a 06       		.uleb128 0x6
 1013 008b 11000000 		.4byte	.LASF10
 1014 008f 01       		.byte	0x1
 1015 0090 05       		.byte	0x5
 1016 0091 AC000000 		.4byte	0xac
 1017 0095 02       		.byte	0x2
 1018 0096 23       		.byte	0x23
 1019 0097 00       		.uleb128 0
 1020 0098 06       		.uleb128 0x6
 1021 0099 52020000 		.4byte	.LASF11
 1022 009d 01       		.byte	0x1
 1023 009e 05       		.byte	0x5
 1024 009f AC000000 		.4byte	0xac
 1025 00a3 02       		.byte	0x2
 1026 00a4 23       		.byte	0x23
 1027 00a5 04       		.uleb128 0x4
 1028 00a6 00       		.byte	0
 1029 00a7 07       		.uleb128 0x7
 1030 00a8 7E000000 		.4byte	0x7e
 1031 00ac 08       		.uleb128 0x8
 1032 00ad 04       		.byte	0x4
 1033 00ae 7E000000 		.4byte	0x7e
 1034 00b2 04       		.uleb128 0x4
 1035 00b3 6C000000 		.4byte	.LASF12
 1036 00b7 04       		.byte	0x4
 1037 00b8 07       		.byte	0x7
 1038 00b9 5A000000 		.4byte	0x5a
ARM GAS  G:\Users\Jaxb\AppData\Local\Temp\ccaY7iov.s 			page 23


 1039 00bd 05       		.uleb128 0x5
 1040 00be 79010000 		.4byte	.LASF14
 1041 00c2 0C       		.byte	0xc
 1042 00c3 04       		.byte	0x4
 1043 00c4 09       		.byte	0x9
 1044 00c5 E6000000 		.4byte	0xe6
 1045 00c9 06       		.uleb128 0x6
 1046 00ca 1F010000 		.4byte	.LASF15
 1047 00ce 04       		.byte	0x4
 1048 00cf 0A       		.byte	0xa
 1049 00d0 7E000000 		.4byte	0x7e
 1050 00d4 02       		.byte	0x2
 1051 00d5 23       		.byte	0x23
 1052 00d6 00       		.uleb128 0
 1053 00d7 06       		.uleb128 0x6
 1054 00d8 05000000 		.4byte	.LASF16
 1055 00dc 04       		.byte	0x4
 1056 00dd 0B       		.byte	0xb
 1057 00de B2000000 		.4byte	0xb2
 1058 00e2 02       		.byte	0x2
 1059 00e3 23       		.byte	0x23
 1060 00e4 08       		.uleb128 0x8
 1061 00e5 00       		.byte	0
 1062 00e6 09       		.uleb128 0x9
 1063 00e7 494C00   		.ascii	"IL\000"
 1064 00ea 04       		.byte	0x4
 1065 00eb 0C       		.byte	0xc
 1066 00ec BD000000 		.4byte	0xbd
 1067 00f0 0A       		.uleb128 0xa
 1068 00f1 01       		.byte	0x1
 1069 00f2 2E010000 		.4byte	.LASF20
 1070 00f6 02       		.byte	0x2
 1071 00f7 6A       		.byte	0x6a
 1072 00f8 01       		.byte	0x1
 1073 00f9 6D010000 		.4byte	0x16d
 1074 00fd D6020000 		.4byte	.LFB16
 1075 0101 22030000 		.4byte	.LFE16
 1076 0105 00000000 		.4byte	.LLST13
 1077 0109 01       		.byte	0x1
 1078 010a 6D010000 		.4byte	0x16d
 1079 010e 0B       		.uleb128 0xb
 1080 010f E4000000 		.4byte	.LASF17
 1081 0113 02       		.byte	0x2
 1082 0114 6A       		.byte	0x6a
 1083 0115 AC000000 		.4byte	0xac
 1084 0119 02       		.byte	0x2
 1085 011a 91       		.byte	0x91
 1086 011b 64       		.sleb128 -28
 1087 011c 0B       		.uleb128 0xb
 1088 011d 05000000 		.4byte	.LASF16
 1089 0121 02       		.byte	0x2
 1090 0122 6A       		.byte	0x6a
 1091 0123 65000000 		.4byte	0x65
 1092 0127 02       		.byte	0x2
 1093 0128 91       		.byte	0x91
 1094 0129 60       		.sleb128 -32
 1095 012a 0C       		.uleb128 0xc
ARM GAS  G:\Users\Jaxb\AppData\Local\Temp\ccaY7iov.s 			page 24


 1096 012b 706F7300 		.ascii	"pos\000"
 1097 012f 02       		.byte	0x2
 1098 0130 6C       		.byte	0x6c
 1099 0131 AC000000 		.4byte	0xac
 1100 0135 02       		.byte	0x2
 1101 0136 91       		.byte	0x91
 1102 0137 74       		.sleb128 -12
 1103 0138 0D       		.uleb128 0xd
 1104 0139 11000000 		.4byte	.LASF10
 1105 013d 02       		.byte	0x2
 1106 013e 6C       		.byte	0x6c
 1107 013f AC000000 		.4byte	0xac
 1108 0143 02       		.byte	0x2
 1109 0144 91       		.byte	0x91
 1110 0145 70       		.sleb128 -16
 1111 0146 0D       		.uleb128 0xd
 1112 0147 90010000 		.4byte	.LASF18
 1113 014b 02       		.byte	0x2
 1114 014c 6D       		.byte	0x6d
 1115 014d 6D010000 		.4byte	0x16d
 1116 0151 02       		.byte	0x2
 1117 0152 91       		.byte	0x91
 1118 0153 68       		.sleb128 -24
 1119 0154 0E       		.uleb128 0xe
 1120 0155 EE020000 		.4byte	.LBB7
 1121 0159 F4020000 		.4byte	.LBE7
 1122 015d 0D       		.uleb128 0xd
 1123 015e C3000000 		.4byte	.LASF19
 1124 0162 02       		.byte	0x2
 1125 0163 70       		.byte	0x70
 1126 0164 73010000 		.4byte	0x173
 1127 0168 02       		.byte	0x2
 1128 0169 91       		.byte	0x91
 1129 016a 6C       		.sleb128 -20
 1130 016b 00       		.byte	0
 1131 016c 00       		.byte	0
 1132 016d 08       		.uleb128 0x8
 1133 016e 04       		.byte	0x4
 1134 016f E6000000 		.4byte	0xe6
 1135 0173 08       		.uleb128 0x8
 1136 0174 04       		.byte	0x4
 1137 0175 A7000000 		.4byte	0xa7
 1138 0179 0F       		.uleb128 0xf
 1139 017a 01       		.byte	0x1
 1140 017b 36000000 		.4byte	.LASF21
 1141 017f 02       		.byte	0x2
 1142 0180 5B       		.byte	0x5b
 1143 0181 01       		.byte	0x1
 1144 0182 6D010000 		.4byte	0x16d
 1145 0186 A4020000 		.4byte	.LFB15
 1146 018a D6020000 		.4byte	.LFE15
 1147 018e 5C000000 		.4byte	.LLST12
 1148 0192 01       		.byte	0x1
 1149 0193 DA010000 		.4byte	0x1da
 1150 0197 0B       		.uleb128 0xb
 1151 0198 E4000000 		.4byte	.LASF17
 1152 019c 02       		.byte	0x2
ARM GAS  G:\Users\Jaxb\AppData\Local\Temp\ccaY7iov.s 			page 25


 1153 019d 5B       		.byte	0x5b
 1154 019e AC000000 		.4byte	0xac
 1155 01a2 02       		.byte	0x2
 1156 01a3 91       		.byte	0x91
 1157 01a4 64       		.sleb128 -28
 1158 01a5 0C       		.uleb128 0xc
 1159 01a6 706F7300 		.ascii	"pos\000"
 1160 01aa 02       		.byte	0x2
 1161 01ab 5D       		.byte	0x5d
 1162 01ac AC000000 		.4byte	0xac
 1163 01b0 02       		.byte	0x2
 1164 01b1 91       		.byte	0x91
 1165 01b2 74       		.sleb128 -12
 1166 01b3 0D       		.uleb128 0xd
 1167 01b4 90010000 		.4byte	.LASF18
 1168 01b8 02       		.byte	0x2
 1169 01b9 5E       		.byte	0x5e
 1170 01ba 6D010000 		.4byte	0x16d
 1171 01be 02       		.byte	0x2
 1172 01bf 91       		.byte	0x91
 1173 01c0 6C       		.sleb128 -20
 1174 01c1 0E       		.uleb128 0xe
 1175 01c2 BE020000 		.4byte	.LBB6
 1176 01c6 C4020000 		.4byte	.LBE6
 1177 01ca 0D       		.uleb128 0xd
 1178 01cb C3000000 		.4byte	.LASF19
 1179 01cf 02       		.byte	0x2
 1180 01d0 65       		.byte	0x65
 1181 01d1 73010000 		.4byte	0x173
 1182 01d5 02       		.byte	0x2
 1183 01d6 91       		.byte	0x91
 1184 01d7 70       		.sleb128 -16
 1185 01d8 00       		.byte	0
 1186 01d9 00       		.byte	0
 1187 01da 0F       		.uleb128 0xf
 1188 01db 01       		.byte	0x1
 1189 01dc F6000000 		.4byte	.LASF22
 1190 01e0 02       		.byte	0x2
 1191 01e1 4B       		.byte	0x4b
 1192 01e2 01       		.byte	0x1
 1193 01e3 6D010000 		.4byte	0x16d
 1194 01e7 54020000 		.4byte	.LFB14
 1195 01eb A4020000 		.4byte	.LFE14
 1196 01ef AC000000 		.4byte	.LLST11
 1197 01f3 01       		.byte	0x1
 1198 01f4 57020000 		.4byte	0x257
 1199 01f8 0B       		.uleb128 0xb
 1200 01f9 E4000000 		.4byte	.LASF17
 1201 01fd 02       		.byte	0x2
 1202 01fe 4B       		.byte	0x4b
 1203 01ff AC000000 		.4byte	0xac
 1204 0203 02       		.byte	0x2
 1205 0204 91       		.byte	0x91
 1206 0205 64       		.sleb128 -28
 1207 0206 0B       		.uleb128 0xb
 1208 0207 05000000 		.4byte	.LASF16
 1209 020b 02       		.byte	0x2
ARM GAS  G:\Users\Jaxb\AppData\Local\Temp\ccaY7iov.s 			page 26


 1210 020c 4B       		.byte	0x4b
 1211 020d B2000000 		.4byte	0xb2
 1212 0211 02       		.byte	0x2
 1213 0212 91       		.byte	0x91
 1214 0213 60       		.sleb128 -32
 1215 0214 0C       		.uleb128 0xc
 1216 0215 706F7300 		.ascii	"pos\000"
 1217 0219 02       		.byte	0x2
 1218 021a 4D       		.byte	0x4d
 1219 021b AC000000 		.4byte	0xac
 1220 021f 02       		.byte	0x2
 1221 0220 91       		.byte	0x91
 1222 0221 74       		.sleb128 -12
 1223 0222 0D       		.uleb128 0xd
 1224 0223 11000000 		.4byte	.LASF10
 1225 0227 02       		.byte	0x2
 1226 0228 4D       		.byte	0x4d
 1227 0229 AC000000 		.4byte	0xac
 1228 022d 02       		.byte	0x2
 1229 022e 91       		.byte	0x91
 1230 022f 70       		.sleb128 -16
 1231 0230 0D       		.uleb128 0xd
 1232 0231 90010000 		.4byte	.LASF18
 1233 0235 02       		.byte	0x2
 1234 0236 4E       		.byte	0x4e
 1235 0237 6D010000 		.4byte	0x16d
 1236 023b 02       		.byte	0x2
 1237 023c 91       		.byte	0x91
 1238 023d 68       		.sleb128 -24
 1239 023e 0E       		.uleb128 0xe
 1240 023f 6C020000 		.4byte	.LBB5
 1241 0243 72020000 		.4byte	.LBE5
 1242 0247 0D       		.uleb128 0xd
 1243 0248 C3000000 		.4byte	.LASF19
 1244 024c 02       		.byte	0x2
 1245 024d 51       		.byte	0x51
 1246 024e 73010000 		.4byte	0x173
 1247 0252 02       		.byte	0x2
 1248 0253 91       		.byte	0x91
 1249 0254 6C       		.sleb128 -20
 1250 0255 00       		.byte	0
 1251 0256 00       		.byte	0
 1252 0257 0A       		.uleb128 0xa
 1253 0258 01       		.byte	0x1
 1254 0259 5E000000 		.4byte	.LASF23
 1255 025d 02       		.byte	0x2
 1256 025e 3C       		.byte	0x3c
 1257 025f 01       		.byte	0x1
 1258 0260 6D010000 		.4byte	0x16d
 1259 0264 08020000 		.4byte	.LFB13
 1260 0268 54020000 		.4byte	.LFE13
 1261 026c FC000000 		.4byte	.LLST10
 1262 0270 01       		.byte	0x1
 1263 0271 D4020000 		.4byte	0x2d4
 1264 0275 0B       		.uleb128 0xb
 1265 0276 E4000000 		.4byte	.LASF17
 1266 027a 02       		.byte	0x2
ARM GAS  G:\Users\Jaxb\AppData\Local\Temp\ccaY7iov.s 			page 27


 1267 027b 3C       		.byte	0x3c
 1268 027c AC000000 		.4byte	0xac
 1269 0280 02       		.byte	0x2
 1270 0281 91       		.byte	0x91
 1271 0282 64       		.sleb128 -28
 1272 0283 0B       		.uleb128 0xb
 1273 0284 05000000 		.4byte	.LASF16
 1274 0288 02       		.byte	0x2
 1275 0289 3C       		.byte	0x3c
 1276 028a B2000000 		.4byte	0xb2
 1277 028e 02       		.byte	0x2
 1278 028f 91       		.byte	0x91
 1279 0290 60       		.sleb128 -32
 1280 0291 0C       		.uleb128 0xc
 1281 0292 706F7300 		.ascii	"pos\000"
 1282 0296 02       		.byte	0x2
 1283 0297 3E       		.byte	0x3e
 1284 0298 AC000000 		.4byte	0xac
 1285 029c 02       		.byte	0x2
 1286 029d 91       		.byte	0x91
 1287 029e 74       		.sleb128 -12
 1288 029f 0D       		.uleb128 0xd
 1289 02a0 11000000 		.4byte	.LASF10
 1290 02a4 02       		.byte	0x2
 1291 02a5 3E       		.byte	0x3e
 1292 02a6 AC000000 		.4byte	0xac
 1293 02aa 02       		.byte	0x2
 1294 02ab 91       		.byte	0x91
 1295 02ac 70       		.sleb128 -16
 1296 02ad 0D       		.uleb128 0xd
 1297 02ae 90010000 		.4byte	.LASF18
 1298 02b2 02       		.byte	0x2
 1299 02b3 3F       		.byte	0x3f
 1300 02b4 6D010000 		.4byte	0x16d
 1301 02b8 02       		.byte	0x2
 1302 02b9 91       		.byte	0x91
 1303 02ba 68       		.sleb128 -24
 1304 02bb 0E       		.uleb128 0xe
 1305 02bc 20020000 		.4byte	.LBB4
 1306 02c0 26020000 		.4byte	.LBE4
 1307 02c4 0D       		.uleb128 0xd
 1308 02c5 C3000000 		.4byte	.LASF19
 1309 02c9 02       		.byte	0x2
 1310 02ca 42       		.byte	0x42
 1311 02cb 73010000 		.4byte	0x173
 1312 02cf 02       		.byte	0x2
 1313 02d0 91       		.byte	0x91
 1314 02d1 6C       		.sleb128 -20
 1315 02d2 00       		.byte	0
 1316 02d3 00       		.byte	0
 1317 02d4 10       		.uleb128 0x10
 1318 02d5 01       		.byte	0x1
 1319 02d6 62010000 		.4byte	.LASF28
 1320 02da 02       		.byte	0x2
 1321 02db 1C       		.byte	0x1c
 1322 02dc 01       		.byte	0x1
 1323 02dd 50010000 		.4byte	.LFB12
ARM GAS  G:\Users\Jaxb\AppData\Local\Temp\ccaY7iov.s 			page 28


 1324 02e1 08020000 		.4byte	.LFE12
 1325 02e5 58010000 		.4byte	.LLST9
 1326 02e9 01       		.byte	0x1
 1327 02ea 5B030000 		.4byte	0x35b
 1328 02ee 0B       		.uleb128 0xb
 1329 02ef E4000000 		.4byte	.LASF17
 1330 02f3 02       		.byte	0x2
 1331 02f4 1D       		.byte	0x1d
 1332 02f5 AC000000 		.4byte	0xac
 1333 02f9 02       		.byte	0x2
 1334 02fa 91       		.byte	0x91
 1335 02fb 54       		.sleb128 -44
 1336 02fc 0B       		.uleb128 0xb
 1337 02fd 7F000000 		.4byte	.LASF24
 1338 0301 02       		.byte	0x2
 1339 0302 1E       		.byte	0x1e
 1340 0303 6D010000 		.4byte	0x16d
 1341 0307 02       		.byte	0x2
 1342 0308 91       		.byte	0x91
 1343 0309 50       		.sleb128 -48
 1344 030a 0C       		.uleb128 0xc
 1345 030b 706F7300 		.ascii	"pos\000"
 1346 030f 02       		.byte	0x2
 1347 0310 21       		.byte	0x21
 1348 0311 AC000000 		.4byte	0xac
 1349 0315 02       		.byte	0x2
 1350 0316 91       		.byte	0x91
 1351 0317 6C       		.sleb128 -20
 1352 0318 0D       		.uleb128 0xd
 1353 0319 11000000 		.4byte	.LASF10
 1354 031d 02       		.byte	0x2
 1355 031e 21       		.byte	0x21
 1356 031f AC000000 		.4byte	0xac
 1357 0323 02       		.byte	0x2
 1358 0324 91       		.byte	0x91
 1359 0325 68       		.sleb128 -24
 1360 0326 0D       		.uleb128 0xd
 1361 0327 05000000 		.4byte	.LASF16
 1362 032b 02       		.byte	0x2
 1363 032c 2B       		.byte	0x2b
 1364 032d B2000000 		.4byte	0xb2
 1365 0331 02       		.byte	0x2
 1366 0332 91       		.byte	0x91
 1367 0333 64       		.sleb128 -28
 1368 0334 0D       		.uleb128 0xd
 1369 0335 90010000 		.4byte	.LASF18
 1370 0339 02       		.byte	0x2
 1371 033a 2C       		.byte	0x2c
 1372 033b 6D010000 		.4byte	0x16d
 1373 033f 02       		.byte	0x2
 1374 0340 91       		.byte	0x91
 1375 0341 5C       		.sleb128 -36
 1376 0342 0E       		.uleb128 0xe
 1377 0343 A4010000 		.4byte	.LBB3
 1378 0347 AA010000 		.4byte	.LBE3
 1379 034b 0D       		.uleb128 0xd
 1380 034c C3000000 		.4byte	.LASF19
ARM GAS  G:\Users\Jaxb\AppData\Local\Temp\ccaY7iov.s 			page 29


 1381 0350 02       		.byte	0x2
 1382 0351 2F       		.byte	0x2f
 1383 0352 73010000 		.4byte	0x173
 1384 0356 02       		.byte	0x2
 1385 0357 91       		.byte	0x91
 1386 0358 60       		.sleb128 -32
 1387 0359 00       		.byte	0
 1388 035a 00       		.byte	0
 1389 035b 0F       		.uleb128 0xf
 1390 035c 01       		.byte	0x1
 1391 035d 16000000 		.4byte	.LASF25
 1392 0361 02       		.byte	0x2
 1393 0362 0E       		.byte	0xe
 1394 0363 01       		.byte	0x1
 1395 0364 6D010000 		.4byte	0x16d
 1396 0368 0E010000 		.4byte	.LFB11
 1397 036c 50010000 		.4byte	.LFE11
 1398 0370 A8010000 		.4byte	.LLST8
 1399 0374 01       		.byte	0x1
 1400 0375 BC030000 		.4byte	0x3bc
 1401 0379 0B       		.uleb128 0xb
 1402 037a 90010000 		.4byte	.LASF18
 1403 037e 02       		.byte	0x2
 1404 037f 0E       		.byte	0xe
 1405 0380 6D010000 		.4byte	0x16d
 1406 0384 02       		.byte	0x2
 1407 0385 91       		.byte	0x91
 1408 0386 6C       		.sleb128 -20
 1409 0387 0B       		.uleb128 0xb
 1410 0388 3D020000 		.4byte	.LASF26
 1411 038c 02       		.byte	0x2
 1412 038d 0E       		.byte	0xe
 1413 038e AC000000 		.4byte	0xac
 1414 0392 02       		.byte	0x2
 1415 0393 91       		.byte	0x91
 1416 0394 68       		.sleb128 -24
 1417 0395 0D       		.uleb128 0xd
 1418 0396 4C000000 		.4byte	.LASF27
 1419 039a 02       		.byte	0x2
 1420 039b 11       		.byte	0x11
 1421 039c AC000000 		.4byte	0xac
 1422 03a0 02       		.byte	0x2
 1423 03a1 91       		.byte	0x91
 1424 03a2 74       		.sleb128 -12
 1425 03a3 0E       		.uleb128 0xe
 1426 03a4 3C010000 		.4byte	.LBB2
 1427 03a8 42010000 		.4byte	.LBE2
 1428 03ac 0D       		.uleb128 0xd
 1429 03ad C3000000 		.4byte	.LASF19
 1430 03b1 02       		.byte	0x2
 1431 03b2 18       		.byte	0x18
 1432 03b3 73010000 		.4byte	0x173
 1433 03b7 02       		.byte	0x2
 1434 03b8 91       		.byte	0x91
 1435 03b9 70       		.sleb128 -16
 1436 03ba 00       		.byte	0
 1437 03bb 00       		.byte	0
ARM GAS  G:\Users\Jaxb\AppData\Local\Temp\ccaY7iov.s 			page 30


 1438 03bc 10       		.uleb128 0x10
 1439 03bd 01       		.byte	0x1
 1440 03be 26010000 		.4byte	.LASF29
 1441 03c2 02       		.byte	0x2
 1442 03c3 08       		.byte	0x8
 1443 03c4 01       		.byte	0x1
 1444 03c5 EE000000 		.4byte	.LFB10
 1445 03c9 0E010000 		.4byte	.LFE10
 1446 03cd F8010000 		.4byte	.LLST7
 1447 03d1 01       		.byte	0x1
 1448 03d2 F3030000 		.4byte	0x3f3
 1449 03d6 0B       		.uleb128 0xb
 1450 03d7 90010000 		.4byte	.LASF18
 1451 03db 02       		.byte	0x2
 1452 03dc 08       		.byte	0x8
 1453 03dd 6D010000 		.4byte	0x16d
 1454 03e1 02       		.byte	0x2
 1455 03e2 91       		.byte	0x91
 1456 03e3 74       		.sleb128 -12
 1457 03e4 0B       		.uleb128 0xb
 1458 03e5 05000000 		.4byte	.LASF16
 1459 03e9 02       		.byte	0x2
 1460 03ea 08       		.byte	0x8
 1461 03eb B2000000 		.4byte	0xb2
 1462 03ef 02       		.byte	0x2
 1463 03f0 91       		.byte	0x91
 1464 03f1 70       		.sleb128 -16
 1465 03f2 00       		.byte	0
 1466 03f3 11       		.uleb128 0x11
 1467 03f4 2B000000 		.4byte	.LASF40
 1468 03f8 01       		.byte	0x1
 1469 03f9 52       		.byte	0x52
 1470 03fa 01       		.byte	0x1
 1471 03fb 33000000 		.4byte	0x33
 1472 03ff CC000000 		.4byte	.LFB9
 1473 0403 EE000000 		.4byte	.LFE9
 1474 0407 48020000 		.4byte	.LLST6
 1475 040b 01       		.byte	0x1
 1476 040c 1F040000 		.4byte	0x41f
 1477 0410 0B       		.uleb128 0xb
 1478 0411 E4000000 		.4byte	.LASF17
 1479 0415 01       		.byte	0x1
 1480 0416 52       		.byte	0x52
 1481 0417 73010000 		.4byte	0x173
 1482 041b 02       		.byte	0x2
 1483 041c 91       		.byte	0x91
 1484 041d 74       		.sleb128 -12
 1485 041e 00       		.byte	0
 1486 041f 12       		.uleb128 0x12
 1487 0420 22000000 		.4byte	.LASF31
 1488 0424 01       		.byte	0x1
 1489 0425 35       		.byte	0x35
 1490 0426 01       		.byte	0x1
 1491 0427 AC000000 		.4byte	.LFB5
 1492 042b CC000000 		.4byte	.LFE5
 1493 042f A4020000 		.4byte	.LLST5
 1494 0433 01       		.byte	0x1
ARM GAS  G:\Users\Jaxb\AppData\Local\Temp\ccaY7iov.s 			page 31


 1495 0434 47040000 		.4byte	0x447
 1496 0438 0B       		.uleb128 0xb
 1497 0439 58000000 		.4byte	.LASF30
 1498 043d 01       		.byte	0x1
 1499 043e 35       		.byte	0x35
 1500 043f AC000000 		.4byte	0xac
 1501 0443 02       		.byte	0x2
 1502 0444 91       		.byte	0x91
 1503 0445 74       		.sleb128 -12
 1504 0446 00       		.byte	0
 1505 0447 13       		.uleb128 0x13
 1506 0448 CA000000 		.4byte	.LASF32
 1507 044c 01       		.byte	0x1
 1508 044d 2E       		.byte	0x2e
 1509 044e 01       		.byte	0x1
 1510 044f 8C000000 		.4byte	.LFB4
 1511 0453 AC000000 		.4byte	.LFE4
 1512 0457 F4020000 		.4byte	.LLST4
 1513 045b 01       		.byte	0x1
 1514 045c 7D040000 		.4byte	0x47d
 1515 0460 0B       		.uleb128 0xb
 1516 0461 52020000 		.4byte	.LASF11
 1517 0465 01       		.byte	0x1
 1518 0466 2E       		.byte	0x2e
 1519 0467 AC000000 		.4byte	0xac
 1520 046b 02       		.byte	0x2
 1521 046c 91       		.byte	0x91
 1522 046d 74       		.sleb128 -12
 1523 046e 0B       		.uleb128 0xb
 1524 046f 11000000 		.4byte	.LASF10
 1525 0473 01       		.byte	0x1
 1526 0474 2E       		.byte	0x2e
 1527 0475 AC000000 		.4byte	0xac
 1528 0479 02       		.byte	0x2
 1529 047a 91       		.byte	0x91
 1530 047b 70       		.sleb128 -16
 1531 047c 00       		.byte	0
 1532 047d 12       		.uleb128 0x12
 1533 047e 99000000 		.4byte	.LASF33
 1534 0482 01       		.byte	0x1
 1535 0483 28       		.byte	0x28
 1536 0484 01       		.byte	0x1
 1537 0485 6C000000 		.4byte	.LFB3
 1538 0489 8C000000 		.4byte	.LFE3
 1539 048d 50030000 		.4byte	.LLST3
 1540 0491 01       		.byte	0x1
 1541 0492 B3040000 		.4byte	0x4b3
 1542 0496 14       		.uleb128 0x14
 1543 0497 6E657700 		.ascii	"new\000"
 1544 049b 01       		.byte	0x1
 1545 049c 28       		.byte	0x28
 1546 049d AC000000 		.4byte	0xac
 1547 04a1 02       		.byte	0x2
 1548 04a2 91       		.byte	0x91
 1549 04a3 74       		.sleb128 -12
 1550 04a4 0B       		.uleb128 0xb
 1551 04a5 E4000000 		.4byte	.LASF17
ARM GAS  G:\Users\Jaxb\AppData\Local\Temp\ccaY7iov.s 			page 32


 1552 04a9 01       		.byte	0x1
 1553 04aa 28       		.byte	0x28
 1554 04ab AC000000 		.4byte	0xac
 1555 04af 02       		.byte	0x2
 1556 04b0 91       		.byte	0x91
 1557 04b1 70       		.sleb128 -16
 1558 04b2 00       		.byte	0
 1559 04b3 12       		.uleb128 0x12
 1560 04b4 A7000000 		.4byte	.LASF34
 1561 04b8 01       		.byte	0x1
 1562 04b9 22       		.byte	0x22
 1563 04ba 01       		.byte	0x1
 1564 04bb 4C000000 		.4byte	.LFB2
 1565 04bf 6C000000 		.4byte	.LFE2
 1566 04c3 A0030000 		.4byte	.LLST2
 1567 04c7 01       		.byte	0x1
 1568 04c8 E9040000 		.4byte	0x4e9
 1569 04cc 14       		.uleb128 0x14
 1570 04cd 6E657700 		.ascii	"new\000"
 1571 04d1 01       		.byte	0x1
 1572 04d2 22       		.byte	0x22
 1573 04d3 AC000000 		.4byte	0xac
 1574 04d7 02       		.byte	0x2
 1575 04d8 91       		.byte	0x91
 1576 04d9 74       		.sleb128 -12
 1577 04da 0B       		.uleb128 0xb
 1578 04db E4000000 		.4byte	.LASF17
 1579 04df 01       		.byte	0x1
 1580 04e0 22       		.byte	0x22
 1581 04e1 AC000000 		.4byte	0xac
 1582 04e5 02       		.byte	0x2
 1583 04e6 91       		.byte	0x91
 1584 04e7 70       		.sleb128 -16
 1585 04e8 00       		.byte	0
 1586 04e9 13       		.uleb128 0x13
 1587 04ea 85010000 		.4byte	.LASF35
 1588 04ee 01       		.byte	0x1
 1589 04ef 17       		.byte	0x17
 1590 04f0 01       		.byte	0x1
 1591 04f1 1E000000 		.4byte	.LFB1
 1592 04f5 4C000000 		.4byte	.LFE1
 1593 04f9 F0030000 		.4byte	.LLST1
 1594 04fd 01       		.byte	0x1
 1595 04fe 2D050000 		.4byte	0x52d
 1596 0502 14       		.uleb128 0x14
 1597 0503 6E657700 		.ascii	"new\000"
 1598 0507 01       		.byte	0x1
 1599 0508 17       		.byte	0x17
 1600 0509 AC000000 		.4byte	0xac
 1601 050d 02       		.byte	0x2
 1602 050e 91       		.byte	0x91
 1603 050f 74       		.sleb128 -12
 1604 0510 0B       		.uleb128 0xb
 1605 0511 52020000 		.4byte	.LASF11
 1606 0515 01       		.byte	0x1
 1607 0516 18       		.byte	0x18
 1608 0517 AC000000 		.4byte	0xac
ARM GAS  G:\Users\Jaxb\AppData\Local\Temp\ccaY7iov.s 			page 33


 1609 051b 02       		.byte	0x2
 1610 051c 91       		.byte	0x91
 1611 051d 70       		.sleb128 -16
 1612 051e 0B       		.uleb128 0xb
 1613 051f 11000000 		.4byte	.LASF10
 1614 0523 01       		.byte	0x1
 1615 0524 19       		.byte	0x19
 1616 0525 AC000000 		.4byte	0xac
 1617 0529 02       		.byte	0x2
 1618 052a 91       		.byte	0x91
 1619 052b 6C       		.sleb128 -20
 1620 052c 00       		.byte	0
 1621 052d 15       		.uleb128 0x15
 1622 052e D5000000 		.4byte	.LASF41
 1623 0532 01       		.byte	0x1
 1624 0533 10       		.byte	0x10
 1625 0534 01       		.byte	0x1
 1626 0535 00000000 		.4byte	.LFB0
 1627 0539 1E000000 		.4byte	.LFE0
 1628 053d 4C040000 		.4byte	.LLST0
 1629 0541 01       		.byte	0x1
 1630 0542 0B       		.uleb128 0xb
 1631 0543 00000000 		.4byte	.LASF36
 1632 0547 01       		.byte	0x1
 1633 0548 10       		.byte	0x10
 1634 0549 AC000000 		.4byte	0xac
 1635 054d 02       		.byte	0x2
 1636 054e 91       		.byte	0x91
 1637 054f 74       		.sleb128 -12
 1638 0550 00       		.byte	0
 1639 0551 00       		.byte	0
 1640              		.section	.debug_abbrev,"",%progbits
 1641              	.Ldebug_abbrev0:
 1642 0000 01       		.uleb128 0x1
 1643 0001 11       		.uleb128 0x11
 1644 0002 01       		.byte	0x1
 1645 0003 25       		.uleb128 0x25
 1646 0004 0E       		.uleb128 0xe
 1647 0005 13       		.uleb128 0x13
 1648 0006 0B       		.uleb128 0xb
 1649 0007 03       		.uleb128 0x3
 1650 0008 0E       		.uleb128 0xe
 1651 0009 1B       		.uleb128 0x1b
 1652 000a 0E       		.uleb128 0xe
 1653 000b 11       		.uleb128 0x11
 1654 000c 01       		.uleb128 0x1
 1655 000d 12       		.uleb128 0x12
 1656 000e 01       		.uleb128 0x1
 1657 000f 10       		.uleb128 0x10
 1658 0010 06       		.uleb128 0x6
 1659 0011 00       		.byte	0
 1660 0012 00       		.byte	0
 1661 0013 02       		.uleb128 0x2
 1662 0014 24       		.uleb128 0x24
 1663 0015 00       		.byte	0
 1664 0016 0B       		.uleb128 0xb
 1665 0017 0B       		.uleb128 0xb
ARM GAS  G:\Users\Jaxb\AppData\Local\Temp\ccaY7iov.s 			page 34


 1666 0018 3E       		.uleb128 0x3e
 1667 0019 0B       		.uleb128 0xb
 1668 001a 03       		.uleb128 0x3
 1669 001b 0E       		.uleb128 0xe
 1670 001c 00       		.byte	0
 1671 001d 00       		.byte	0
 1672 001e 03       		.uleb128 0x3
 1673 001f 24       		.uleb128 0x24
 1674 0020 00       		.byte	0
 1675 0021 0B       		.uleb128 0xb
 1676 0022 0B       		.uleb128 0xb
 1677 0023 3E       		.uleb128 0x3e
 1678 0024 0B       		.uleb128 0xb
 1679 0025 03       		.uleb128 0x3
 1680 0026 08       		.uleb128 0x8
 1681 0027 00       		.byte	0
 1682 0028 00       		.byte	0
 1683 0029 04       		.uleb128 0x4
 1684 002a 16       		.uleb128 0x16
 1685 002b 00       		.byte	0
 1686 002c 03       		.uleb128 0x3
 1687 002d 0E       		.uleb128 0xe
 1688 002e 3A       		.uleb128 0x3a
 1689 002f 0B       		.uleb128 0xb
 1690 0030 3B       		.uleb128 0x3b
 1691 0031 0B       		.uleb128 0xb
 1692 0032 49       		.uleb128 0x49
 1693 0033 13       		.uleb128 0x13
 1694 0034 00       		.byte	0
 1695 0035 00       		.byte	0
 1696 0036 05       		.uleb128 0x5
 1697 0037 13       		.uleb128 0x13
 1698 0038 01       		.byte	0x1
 1699 0039 03       		.uleb128 0x3
 1700 003a 0E       		.uleb128 0xe
 1701 003b 0B       		.uleb128 0xb
 1702 003c 0B       		.uleb128 0xb
 1703 003d 3A       		.uleb128 0x3a
 1704 003e 0B       		.uleb128 0xb
 1705 003f 3B       		.uleb128 0x3b
 1706 0040 0B       		.uleb128 0xb
 1707 0041 01       		.uleb128 0x1
 1708 0042 13       		.uleb128 0x13
 1709 0043 00       		.byte	0
 1710 0044 00       		.byte	0
 1711 0045 06       		.uleb128 0x6
 1712 0046 0D       		.uleb128 0xd
 1713 0047 00       		.byte	0
 1714 0048 03       		.uleb128 0x3
 1715 0049 0E       		.uleb128 0xe
 1716 004a 3A       		.uleb128 0x3a
 1717 004b 0B       		.uleb128 0xb
 1718 004c 3B       		.uleb128 0x3b
 1719 004d 0B       		.uleb128 0xb
 1720 004e 49       		.uleb128 0x49
 1721 004f 13       		.uleb128 0x13
 1722 0050 38       		.uleb128 0x38
ARM GAS  G:\Users\Jaxb\AppData\Local\Temp\ccaY7iov.s 			page 35


 1723 0051 0A       		.uleb128 0xa
 1724 0052 00       		.byte	0
 1725 0053 00       		.byte	0
 1726 0054 07       		.uleb128 0x7
 1727 0055 26       		.uleb128 0x26
 1728 0056 00       		.byte	0
 1729 0057 49       		.uleb128 0x49
 1730 0058 13       		.uleb128 0x13
 1731 0059 00       		.byte	0
 1732 005a 00       		.byte	0
 1733 005b 08       		.uleb128 0x8
 1734 005c 0F       		.uleb128 0xf
 1735 005d 00       		.byte	0
 1736 005e 0B       		.uleb128 0xb
 1737 005f 0B       		.uleb128 0xb
 1738 0060 49       		.uleb128 0x49
 1739 0061 13       		.uleb128 0x13
 1740 0062 00       		.byte	0
 1741 0063 00       		.byte	0
 1742 0064 09       		.uleb128 0x9
 1743 0065 16       		.uleb128 0x16
 1744 0066 00       		.byte	0
 1745 0067 03       		.uleb128 0x3
 1746 0068 08       		.uleb128 0x8
 1747 0069 3A       		.uleb128 0x3a
 1748 006a 0B       		.uleb128 0xb
 1749 006b 3B       		.uleb128 0x3b
 1750 006c 0B       		.uleb128 0xb
 1751 006d 49       		.uleb128 0x49
 1752 006e 13       		.uleb128 0x13
 1753 006f 00       		.byte	0
 1754 0070 00       		.byte	0
 1755 0071 0A       		.uleb128 0xa
 1756 0072 2E       		.uleb128 0x2e
 1757 0073 01       		.byte	0x1
 1758 0074 3F       		.uleb128 0x3f
 1759 0075 0C       		.uleb128 0xc
 1760 0076 03       		.uleb128 0x3
 1761 0077 0E       		.uleb128 0xe
 1762 0078 3A       		.uleb128 0x3a
 1763 0079 0B       		.uleb128 0xb
 1764 007a 3B       		.uleb128 0x3b
 1765 007b 0B       		.uleb128 0xb
 1766 007c 27       		.uleb128 0x27
 1767 007d 0C       		.uleb128 0xc
 1768 007e 49       		.uleb128 0x49
 1769 007f 13       		.uleb128 0x13
 1770 0080 11       		.uleb128 0x11
 1771 0081 01       		.uleb128 0x1
 1772 0082 12       		.uleb128 0x12
 1773 0083 01       		.uleb128 0x1
 1774 0084 40       		.uleb128 0x40
 1775 0085 06       		.uleb128 0x6
 1776 0086 9742     		.uleb128 0x2117
 1777 0088 0C       		.uleb128 0xc
 1778 0089 01       		.uleb128 0x1
 1779 008a 13       		.uleb128 0x13
ARM GAS  G:\Users\Jaxb\AppData\Local\Temp\ccaY7iov.s 			page 36


 1780 008b 00       		.byte	0
 1781 008c 00       		.byte	0
 1782 008d 0B       		.uleb128 0xb
 1783 008e 05       		.uleb128 0x5
 1784 008f 00       		.byte	0
 1785 0090 03       		.uleb128 0x3
 1786 0091 0E       		.uleb128 0xe
 1787 0092 3A       		.uleb128 0x3a
 1788 0093 0B       		.uleb128 0xb
 1789 0094 3B       		.uleb128 0x3b
 1790 0095 0B       		.uleb128 0xb
 1791 0096 49       		.uleb128 0x49
 1792 0097 13       		.uleb128 0x13
 1793 0098 02       		.uleb128 0x2
 1794 0099 0A       		.uleb128 0xa
 1795 009a 00       		.byte	0
 1796 009b 00       		.byte	0
 1797 009c 0C       		.uleb128 0xc
 1798 009d 34       		.uleb128 0x34
 1799 009e 00       		.byte	0
 1800 009f 03       		.uleb128 0x3
 1801 00a0 08       		.uleb128 0x8
 1802 00a1 3A       		.uleb128 0x3a
 1803 00a2 0B       		.uleb128 0xb
 1804 00a3 3B       		.uleb128 0x3b
 1805 00a4 0B       		.uleb128 0xb
 1806 00a5 49       		.uleb128 0x49
 1807 00a6 13       		.uleb128 0x13
 1808 00a7 02       		.uleb128 0x2
 1809 00a8 0A       		.uleb128 0xa
 1810 00a9 00       		.byte	0
 1811 00aa 00       		.byte	0
 1812 00ab 0D       		.uleb128 0xd
 1813 00ac 34       		.uleb128 0x34
 1814 00ad 00       		.byte	0
 1815 00ae 03       		.uleb128 0x3
 1816 00af 0E       		.uleb128 0xe
 1817 00b0 3A       		.uleb128 0x3a
 1818 00b1 0B       		.uleb128 0xb
 1819 00b2 3B       		.uleb128 0x3b
 1820 00b3 0B       		.uleb128 0xb
 1821 00b4 49       		.uleb128 0x49
 1822 00b5 13       		.uleb128 0x13
 1823 00b6 02       		.uleb128 0x2
 1824 00b7 0A       		.uleb128 0xa
 1825 00b8 00       		.byte	0
 1826 00b9 00       		.byte	0
 1827 00ba 0E       		.uleb128 0xe
 1828 00bb 0B       		.uleb128 0xb
 1829 00bc 01       		.byte	0x1
 1830 00bd 11       		.uleb128 0x11
 1831 00be 01       		.uleb128 0x1
 1832 00bf 12       		.uleb128 0x12
 1833 00c0 01       		.uleb128 0x1
 1834 00c1 00       		.byte	0
 1835 00c2 00       		.byte	0
 1836 00c3 0F       		.uleb128 0xf
ARM GAS  G:\Users\Jaxb\AppData\Local\Temp\ccaY7iov.s 			page 37


 1837 00c4 2E       		.uleb128 0x2e
 1838 00c5 01       		.byte	0x1
 1839 00c6 3F       		.uleb128 0x3f
 1840 00c7 0C       		.uleb128 0xc
 1841 00c8 03       		.uleb128 0x3
 1842 00c9 0E       		.uleb128 0xe
 1843 00ca 3A       		.uleb128 0x3a
 1844 00cb 0B       		.uleb128 0xb
 1845 00cc 3B       		.uleb128 0x3b
 1846 00cd 0B       		.uleb128 0xb
 1847 00ce 27       		.uleb128 0x27
 1848 00cf 0C       		.uleb128 0xc
 1849 00d0 49       		.uleb128 0x49
 1850 00d1 13       		.uleb128 0x13
 1851 00d2 11       		.uleb128 0x11
 1852 00d3 01       		.uleb128 0x1
 1853 00d4 12       		.uleb128 0x12
 1854 00d5 01       		.uleb128 0x1
 1855 00d6 40       		.uleb128 0x40
 1856 00d7 06       		.uleb128 0x6
 1857 00d8 9642     		.uleb128 0x2116
 1858 00da 0C       		.uleb128 0xc
 1859 00db 01       		.uleb128 0x1
 1860 00dc 13       		.uleb128 0x13
 1861 00dd 00       		.byte	0
 1862 00de 00       		.byte	0
 1863 00df 10       		.uleb128 0x10
 1864 00e0 2E       		.uleb128 0x2e
 1865 00e1 01       		.byte	0x1
 1866 00e2 3F       		.uleb128 0x3f
 1867 00e3 0C       		.uleb128 0xc
 1868 00e4 03       		.uleb128 0x3
 1869 00e5 0E       		.uleb128 0xe
 1870 00e6 3A       		.uleb128 0x3a
 1871 00e7 0B       		.uleb128 0xb
 1872 00e8 3B       		.uleb128 0x3b
 1873 00e9 0B       		.uleb128 0xb
 1874 00ea 27       		.uleb128 0x27
 1875 00eb 0C       		.uleb128 0xc
 1876 00ec 11       		.uleb128 0x11
 1877 00ed 01       		.uleb128 0x1
 1878 00ee 12       		.uleb128 0x12
 1879 00ef 01       		.uleb128 0x1
 1880 00f0 40       		.uleb128 0x40
 1881 00f1 06       		.uleb128 0x6
 1882 00f2 9642     		.uleb128 0x2116
 1883 00f4 0C       		.uleb128 0xc
 1884 00f5 01       		.uleb128 0x1
 1885 00f6 13       		.uleb128 0x13
 1886 00f7 00       		.byte	0
 1887 00f8 00       		.byte	0
 1888 00f9 11       		.uleb128 0x11
 1889 00fa 2E       		.uleb128 0x2e
 1890 00fb 01       		.byte	0x1
 1891 00fc 03       		.uleb128 0x3
 1892 00fd 0E       		.uleb128 0xe
 1893 00fe 3A       		.uleb128 0x3a
ARM GAS  G:\Users\Jaxb\AppData\Local\Temp\ccaY7iov.s 			page 38


 1894 00ff 0B       		.uleb128 0xb
 1895 0100 3B       		.uleb128 0x3b
 1896 0101 0B       		.uleb128 0xb
 1897 0102 27       		.uleb128 0x27
 1898 0103 0C       		.uleb128 0xc
 1899 0104 49       		.uleb128 0x49
 1900 0105 13       		.uleb128 0x13
 1901 0106 11       		.uleb128 0x11
 1902 0107 01       		.uleb128 0x1
 1903 0108 12       		.uleb128 0x12
 1904 0109 01       		.uleb128 0x1
 1905 010a 40       		.uleb128 0x40
 1906 010b 06       		.uleb128 0x6
 1907 010c 9742     		.uleb128 0x2117
 1908 010e 0C       		.uleb128 0xc
 1909 010f 01       		.uleb128 0x1
 1910 0110 13       		.uleb128 0x13
 1911 0111 00       		.byte	0
 1912 0112 00       		.byte	0
 1913 0113 12       		.uleb128 0x12
 1914 0114 2E       		.uleb128 0x2e
 1915 0115 01       		.byte	0x1
 1916 0116 03       		.uleb128 0x3
 1917 0117 0E       		.uleb128 0xe
 1918 0118 3A       		.uleb128 0x3a
 1919 0119 0B       		.uleb128 0xb
 1920 011a 3B       		.uleb128 0x3b
 1921 011b 0B       		.uleb128 0xb
 1922 011c 27       		.uleb128 0x27
 1923 011d 0C       		.uleb128 0xc
 1924 011e 11       		.uleb128 0x11
 1925 011f 01       		.uleb128 0x1
 1926 0120 12       		.uleb128 0x12
 1927 0121 01       		.uleb128 0x1
 1928 0122 40       		.uleb128 0x40
 1929 0123 06       		.uleb128 0x6
 1930 0124 9642     		.uleb128 0x2116
 1931 0126 0C       		.uleb128 0xc
 1932 0127 01       		.uleb128 0x1
 1933 0128 13       		.uleb128 0x13
 1934 0129 00       		.byte	0
 1935 012a 00       		.byte	0
 1936 012b 13       		.uleb128 0x13
 1937 012c 2E       		.uleb128 0x2e
 1938 012d 01       		.byte	0x1
 1939 012e 03       		.uleb128 0x3
 1940 012f 0E       		.uleb128 0xe
 1941 0130 3A       		.uleb128 0x3a
 1942 0131 0B       		.uleb128 0xb
 1943 0132 3B       		.uleb128 0x3b
 1944 0133 0B       		.uleb128 0xb
 1945 0134 27       		.uleb128 0x27
 1946 0135 0C       		.uleb128 0xc
 1947 0136 11       		.uleb128 0x11
 1948 0137 01       		.uleb128 0x1
 1949 0138 12       		.uleb128 0x12
 1950 0139 01       		.uleb128 0x1
ARM GAS  G:\Users\Jaxb\AppData\Local\Temp\ccaY7iov.s 			page 39


 1951 013a 40       		.uleb128 0x40
 1952 013b 06       		.uleb128 0x6
 1953 013c 9742     		.uleb128 0x2117
 1954 013e 0C       		.uleb128 0xc
 1955 013f 01       		.uleb128 0x1
 1956 0140 13       		.uleb128 0x13
 1957 0141 00       		.byte	0
 1958 0142 00       		.byte	0
 1959 0143 14       		.uleb128 0x14
 1960 0144 05       		.uleb128 0x5
 1961 0145 00       		.byte	0
 1962 0146 03       		.uleb128 0x3
 1963 0147 08       		.uleb128 0x8
 1964 0148 3A       		.uleb128 0x3a
 1965 0149 0B       		.uleb128 0xb
 1966 014a 3B       		.uleb128 0x3b
 1967 014b 0B       		.uleb128 0xb
 1968 014c 49       		.uleb128 0x49
 1969 014d 13       		.uleb128 0x13
 1970 014e 02       		.uleb128 0x2
 1971 014f 0A       		.uleb128 0xa
 1972 0150 00       		.byte	0
 1973 0151 00       		.byte	0
 1974 0152 15       		.uleb128 0x15
 1975 0153 2E       		.uleb128 0x2e
 1976 0154 01       		.byte	0x1
 1977 0155 03       		.uleb128 0x3
 1978 0156 0E       		.uleb128 0xe
 1979 0157 3A       		.uleb128 0x3a
 1980 0158 0B       		.uleb128 0xb
 1981 0159 3B       		.uleb128 0x3b
 1982 015a 0B       		.uleb128 0xb
 1983 015b 27       		.uleb128 0x27
 1984 015c 0C       		.uleb128 0xc
 1985 015d 11       		.uleb128 0x11
 1986 015e 01       		.uleb128 0x1
 1987 015f 12       		.uleb128 0x12
 1988 0160 01       		.uleb128 0x1
 1989 0161 40       		.uleb128 0x40
 1990 0162 06       		.uleb128 0x6
 1991 0163 9742     		.uleb128 0x2117
 1992 0165 0C       		.uleb128 0xc
 1993 0166 00       		.byte	0
 1994 0167 00       		.byte	0
 1995 0168 00       		.byte	0
 1996              		.section	.debug_loc,"",%progbits
 1997              	.Ldebug_loc0:
 1998              	.LLST13:
 1999 0000 D6020000 		.4byte	.LFB16-.Ltext0
 2000 0004 D8020000 		.4byte	.LCFI70-.Ltext0
 2001 0008 0200     		.2byte	0x2
 2002 000a 7D       		.byte	0x7d
 2003 000b 00       		.sleb128 0
 2004 000c D8020000 		.4byte	.LCFI70-.Ltext0
 2005 0010 DA020000 		.4byte	.LCFI71-.Ltext0
 2006 0014 0200     		.2byte	0x2
 2007 0016 7D       		.byte	0x7d
ARM GAS  G:\Users\Jaxb\AppData\Local\Temp\ccaY7iov.s 			page 40


 2008 0017 04       		.sleb128 4
 2009 0018 DA020000 		.4byte	.LCFI71-.Ltext0
 2010 001c DC020000 		.4byte	.LCFI72-.Ltext0
 2011 0020 0200     		.2byte	0x2
 2012 0022 7D       		.byte	0x7d
 2013 0023 20       		.sleb128 32
 2014 0024 DC020000 		.4byte	.LCFI72-.Ltext0
 2015 0028 1C030000 		.4byte	.LCFI73-.Ltext0
 2016 002c 0200     		.2byte	0x2
 2017 002e 77       		.byte	0x77
 2018 002f 20       		.sleb128 32
 2019 0030 1C030000 		.4byte	.LCFI73-.Ltext0
 2020 0034 1E030000 		.4byte	.LCFI74-.Ltext0
 2021 0038 0200     		.2byte	0x2
 2022 003a 77       		.byte	0x77
 2023 003b 04       		.sleb128 4
 2024 003c 1E030000 		.4byte	.LCFI74-.Ltext0
 2025 0040 20030000 		.4byte	.LCFI75-.Ltext0
 2026 0044 0200     		.2byte	0x2
 2027 0046 7D       		.byte	0x7d
 2028 0047 04       		.sleb128 4
 2029 0048 20030000 		.4byte	.LCFI75-.Ltext0
 2030 004c 22030000 		.4byte	.LFE16-.Ltext0
 2031 0050 0200     		.2byte	0x2
 2032 0052 7D       		.byte	0x7d
 2033 0053 00       		.sleb128 0
 2034 0054 00000000 		.4byte	0
 2035 0058 00000000 		.4byte	0
 2036              	.LLST12:
 2037 005c A4020000 		.4byte	.LFB15-.Ltext0
 2038 0060 A6020000 		.4byte	.LCFI65-.Ltext0
 2039 0064 0200     		.2byte	0x2
 2040 0066 7D       		.byte	0x7d
 2041 0067 00       		.sleb128 0
 2042 0068 A6020000 		.4byte	.LCFI65-.Ltext0
 2043 006c A8020000 		.4byte	.LCFI66-.Ltext0
 2044 0070 0200     		.2byte	0x2
 2045 0072 7D       		.byte	0x7d
 2046 0073 08       		.sleb128 8
 2047 0074 A8020000 		.4byte	.LCFI66-.Ltext0
 2048 0078 AA020000 		.4byte	.LCFI67-.Ltext0
 2049 007c 0200     		.2byte	0x2
 2050 007e 7D       		.byte	0x7d
 2051 007f 20       		.sleb128 32
 2052 0080 AA020000 		.4byte	.LCFI67-.Ltext0
 2053 0084 D2020000 		.4byte	.LCFI68-.Ltext0
 2054 0088 0200     		.2byte	0x2
 2055 008a 77       		.byte	0x77
 2056 008b 20       		.sleb128 32
 2057 008c D2020000 		.4byte	.LCFI68-.Ltext0
 2058 0090 D4020000 		.4byte	.LCFI69-.Ltext0
 2059 0094 0200     		.2byte	0x2
 2060 0096 77       		.byte	0x77
 2061 0097 08       		.sleb128 8
 2062 0098 D4020000 		.4byte	.LCFI69-.Ltext0
 2063 009c D6020000 		.4byte	.LFE15-.Ltext0
 2064 00a0 0200     		.2byte	0x2
ARM GAS  G:\Users\Jaxb\AppData\Local\Temp\ccaY7iov.s 			page 41


 2065 00a2 7D       		.byte	0x7d
 2066 00a3 08       		.sleb128 8
 2067 00a4 00000000 		.4byte	0
 2068 00a8 00000000 		.4byte	0
 2069              	.LLST11:
 2070 00ac 54020000 		.4byte	.LFB14-.Ltext0
 2071 00b0 56020000 		.4byte	.LCFI60-.Ltext0
 2072 00b4 0200     		.2byte	0x2
 2073 00b6 7D       		.byte	0x7d
 2074 00b7 00       		.sleb128 0
 2075 00b8 56020000 		.4byte	.LCFI60-.Ltext0
 2076 00bc 58020000 		.4byte	.LCFI61-.Ltext0
 2077 00c0 0200     		.2byte	0x2
 2078 00c2 7D       		.byte	0x7d
 2079 00c3 08       		.sleb128 8
 2080 00c4 58020000 		.4byte	.LCFI61-.Ltext0
 2081 00c8 5A020000 		.4byte	.LCFI62-.Ltext0
 2082 00cc 0200     		.2byte	0x2
 2083 00ce 7D       		.byte	0x7d
 2084 00cf 20       		.sleb128 32
 2085 00d0 5A020000 		.4byte	.LCFI62-.Ltext0
 2086 00d4 A0020000 		.4byte	.LCFI63-.Ltext0
 2087 00d8 0200     		.2byte	0x2
 2088 00da 77       		.byte	0x77
 2089 00db 20       		.sleb128 32
 2090 00dc A0020000 		.4byte	.LCFI63-.Ltext0
 2091 00e0 A2020000 		.4byte	.LCFI64-.Ltext0
 2092 00e4 0200     		.2byte	0x2
 2093 00e6 77       		.byte	0x77
 2094 00e7 08       		.sleb128 8
 2095 00e8 A2020000 		.4byte	.LCFI64-.Ltext0
 2096 00ec A4020000 		.4byte	.LFE14-.Ltext0
 2097 00f0 0200     		.2byte	0x2
 2098 00f2 7D       		.byte	0x7d
 2099 00f3 08       		.sleb128 8
 2100 00f4 00000000 		.4byte	0
 2101 00f8 00000000 		.4byte	0
 2102              	.LLST10:
 2103 00fc 08020000 		.4byte	.LFB13-.Ltext0
 2104 0100 0A020000 		.4byte	.LCFI54-.Ltext0
 2105 0104 0200     		.2byte	0x2
 2106 0106 7D       		.byte	0x7d
 2107 0107 00       		.sleb128 0
 2108 0108 0A020000 		.4byte	.LCFI54-.Ltext0
 2109 010c 0C020000 		.4byte	.LCFI55-.Ltext0
 2110 0110 0200     		.2byte	0x2
 2111 0112 7D       		.byte	0x7d
 2112 0113 04       		.sleb128 4
 2113 0114 0C020000 		.4byte	.LCFI55-.Ltext0
 2114 0118 0E020000 		.4byte	.LCFI56-.Ltext0
 2115 011c 0200     		.2byte	0x2
 2116 011e 7D       		.byte	0x7d
 2117 011f 20       		.sleb128 32
 2118 0120 0E020000 		.4byte	.LCFI56-.Ltext0
 2119 0124 4E020000 		.4byte	.LCFI57-.Ltext0
 2120 0128 0200     		.2byte	0x2
 2121 012a 77       		.byte	0x77
ARM GAS  G:\Users\Jaxb\AppData\Local\Temp\ccaY7iov.s 			page 42


 2122 012b 20       		.sleb128 32
 2123 012c 4E020000 		.4byte	.LCFI57-.Ltext0
 2124 0130 50020000 		.4byte	.LCFI58-.Ltext0
 2125 0134 0200     		.2byte	0x2
 2126 0136 77       		.byte	0x77
 2127 0137 04       		.sleb128 4
 2128 0138 50020000 		.4byte	.LCFI58-.Ltext0
 2129 013c 52020000 		.4byte	.LCFI59-.Ltext0
 2130 0140 0200     		.2byte	0x2
 2131 0142 7D       		.byte	0x7d
 2132 0143 04       		.sleb128 4
 2133 0144 52020000 		.4byte	.LCFI59-.Ltext0
 2134 0148 54020000 		.4byte	.LFE13-.Ltext0
 2135 014c 0200     		.2byte	0x2
 2136 014e 7D       		.byte	0x7d
 2137 014f 00       		.sleb128 0
 2138 0150 00000000 		.4byte	0
 2139 0154 00000000 		.4byte	0
 2140              	.LLST9:
 2141 0158 50010000 		.4byte	.LFB12-.Ltext0
 2142 015c 54010000 		.4byte	.LCFI49-.Ltext0
 2143 0160 0200     		.2byte	0x2
 2144 0162 7D       		.byte	0x7d
 2145 0163 00       		.sleb128 0
 2146 0164 54010000 		.4byte	.LCFI49-.Ltext0
 2147 0168 56010000 		.4byte	.LCFI50-.Ltext0
 2148 016c 0200     		.2byte	0x2
 2149 016e 7D       		.byte	0x7d
 2150 016f 10       		.sleb128 16
 2151 0170 56010000 		.4byte	.LCFI50-.Ltext0
 2152 0174 58010000 		.4byte	.LCFI51-.Ltext0
 2153 0178 0200     		.2byte	0x2
 2154 017a 7D       		.byte	0x7d
 2155 017b 30       		.sleb128 48
 2156 017c 58010000 		.4byte	.LCFI51-.Ltext0
 2157 0180 FE010000 		.4byte	.LCFI52-.Ltext0
 2158 0184 0200     		.2byte	0x2
 2159 0186 77       		.byte	0x77
 2160 0187 30       		.sleb128 48
 2161 0188 FE010000 		.4byte	.LCFI52-.Ltext0
 2162 018c 00020000 		.4byte	.LCFI53-.Ltext0
 2163 0190 0200     		.2byte	0x2
 2164 0192 77       		.byte	0x77
 2165 0193 10       		.sleb128 16
 2166 0194 00020000 		.4byte	.LCFI53-.Ltext0
 2167 0198 08020000 		.4byte	.LFE12-.Ltext0
 2168 019c 0200     		.2byte	0x2
 2169 019e 7D       		.byte	0x7d
 2170 019f 10       		.sleb128 16
 2171 01a0 00000000 		.4byte	0
 2172 01a4 00000000 		.4byte	0
 2173              	.LLST8:
 2174 01a8 0E010000 		.4byte	.LFB11-.Ltext0
 2175 01ac 10010000 		.4byte	.LCFI44-.Ltext0
 2176 01b0 0200     		.2byte	0x2
 2177 01b2 7D       		.byte	0x7d
 2178 01b3 00       		.sleb128 0
ARM GAS  G:\Users\Jaxb\AppData\Local\Temp\ccaY7iov.s 			page 43


 2179 01b4 10010000 		.4byte	.LCFI44-.Ltext0
 2180 01b8 12010000 		.4byte	.LCFI45-.Ltext0
 2181 01bc 0200     		.2byte	0x2
 2182 01be 7D       		.byte	0x7d
 2183 01bf 08       		.sleb128 8
 2184 01c0 12010000 		.4byte	.LCFI45-.Ltext0
 2185 01c4 14010000 		.4byte	.LCFI46-.Ltext0
 2186 01c8 0200     		.2byte	0x2
 2187 01ca 7D       		.byte	0x7d
 2188 01cb 18       		.sleb128 24
 2189 01cc 14010000 		.4byte	.LCFI46-.Ltext0
 2190 01d0 48010000 		.4byte	.LCFI47-.Ltext0
 2191 01d4 0200     		.2byte	0x2
 2192 01d6 77       		.byte	0x77
 2193 01d7 18       		.sleb128 24
 2194 01d8 48010000 		.4byte	.LCFI47-.Ltext0
 2195 01dc 4A010000 		.4byte	.LCFI48-.Ltext0
 2196 01e0 0200     		.2byte	0x2
 2197 01e2 77       		.byte	0x77
 2198 01e3 08       		.sleb128 8
 2199 01e4 4A010000 		.4byte	.LCFI48-.Ltext0
 2200 01e8 50010000 		.4byte	.LFE11-.Ltext0
 2201 01ec 0200     		.2byte	0x2
 2202 01ee 7D       		.byte	0x7d
 2203 01ef 08       		.sleb128 8
 2204 01f0 00000000 		.4byte	0
 2205 01f4 00000000 		.4byte	0
 2206              	.LLST7:
 2207 01f8 EE000000 		.4byte	.LFB10-.Ltext0
 2208 01fc F0000000 		.4byte	.LCFI39-.Ltext0
 2209 0200 0200     		.2byte	0x2
 2210 0202 7D       		.byte	0x7d
 2211 0203 00       		.sleb128 0
 2212 0204 F0000000 		.4byte	.LCFI39-.Ltext0
 2213 0208 F2000000 		.4byte	.LCFI40-.Ltext0
 2214 020c 0200     		.2byte	0x2
 2215 020e 7D       		.byte	0x7d
 2216 020f 08       		.sleb128 8
 2217 0210 F2000000 		.4byte	.LCFI40-.Ltext0
 2218 0214 F4000000 		.4byte	.LCFI41-.Ltext0
 2219 0218 0200     		.2byte	0x2
 2220 021a 7D       		.byte	0x7d
 2221 021b 10       		.sleb128 16
 2222 021c F4000000 		.4byte	.LCFI41-.Ltext0
 2223 0220 0A010000 		.4byte	.LCFI42-.Ltext0
 2224 0224 0200     		.2byte	0x2
 2225 0226 77       		.byte	0x77
 2226 0227 10       		.sleb128 16
 2227 0228 0A010000 		.4byte	.LCFI42-.Ltext0
 2228 022c 0C010000 		.4byte	.LCFI43-.Ltext0
 2229 0230 0200     		.2byte	0x2
 2230 0232 77       		.byte	0x77
 2231 0233 08       		.sleb128 8
 2232 0234 0C010000 		.4byte	.LCFI43-.Ltext0
 2233 0238 0E010000 		.4byte	.LFE10-.Ltext0
 2234 023c 0200     		.2byte	0x2
 2235 023e 7D       		.byte	0x7d
ARM GAS  G:\Users\Jaxb\AppData\Local\Temp\ccaY7iov.s 			page 44


 2236 023f 08       		.sleb128 8
 2237 0240 00000000 		.4byte	0
 2238 0244 00000000 		.4byte	0
 2239              	.LLST6:
 2240 0248 CC000000 		.4byte	.LFB9-.Ltext0
 2241 024c CE000000 		.4byte	.LCFI33-.Ltext0
 2242 0250 0200     		.2byte	0x2
 2243 0252 7D       		.byte	0x7d
 2244 0253 00       		.sleb128 0
 2245 0254 CE000000 		.4byte	.LCFI33-.Ltext0
 2246 0258 D0000000 		.4byte	.LCFI34-.Ltext0
 2247 025c 0200     		.2byte	0x2
 2248 025e 7D       		.byte	0x7d
 2249 025f 04       		.sleb128 4
 2250 0260 D0000000 		.4byte	.LCFI34-.Ltext0
 2251 0264 D2000000 		.4byte	.LCFI35-.Ltext0
 2252 0268 0200     		.2byte	0x2
 2253 026a 7D       		.byte	0x7d
 2254 026b 10       		.sleb128 16
 2255 026c D2000000 		.4byte	.LCFI35-.Ltext0
 2256 0270 E8000000 		.4byte	.LCFI36-.Ltext0
 2257 0274 0200     		.2byte	0x2
 2258 0276 77       		.byte	0x77
 2259 0277 10       		.sleb128 16
 2260 0278 E8000000 		.4byte	.LCFI36-.Ltext0
 2261 027c EA000000 		.4byte	.LCFI37-.Ltext0
 2262 0280 0200     		.2byte	0x2
 2263 0282 77       		.byte	0x77
 2264 0283 04       		.sleb128 4
 2265 0284 EA000000 		.4byte	.LCFI37-.Ltext0
 2266 0288 EC000000 		.4byte	.LCFI38-.Ltext0
 2267 028c 0200     		.2byte	0x2
 2268 028e 7D       		.byte	0x7d
 2269 028f 04       		.sleb128 4
 2270 0290 EC000000 		.4byte	.LCFI38-.Ltext0
 2271 0294 EE000000 		.4byte	.LFE9-.Ltext0
 2272 0298 0200     		.2byte	0x2
 2273 029a 7D       		.byte	0x7d
 2274 029b 00       		.sleb128 0
 2275 029c 00000000 		.4byte	0
 2276 02a0 00000000 		.4byte	0
 2277              	.LLST5:
 2278 02a4 AC000000 		.4byte	.LFB5-.Ltext0
 2279 02a8 AE000000 		.4byte	.LCFI28-.Ltext0
 2280 02ac 0200     		.2byte	0x2
 2281 02ae 7D       		.byte	0x7d
 2282 02af 00       		.sleb128 0
 2283 02b0 AE000000 		.4byte	.LCFI28-.Ltext0
 2284 02b4 B0000000 		.4byte	.LCFI29-.Ltext0
 2285 02b8 0200     		.2byte	0x2
 2286 02ba 7D       		.byte	0x7d
 2287 02bb 08       		.sleb128 8
 2288 02bc B0000000 		.4byte	.LCFI29-.Ltext0
 2289 02c0 B2000000 		.4byte	.LCFI30-.Ltext0
 2290 02c4 0200     		.2byte	0x2
 2291 02c6 7D       		.byte	0x7d
 2292 02c7 10       		.sleb128 16
ARM GAS  G:\Users\Jaxb\AppData\Local\Temp\ccaY7iov.s 			page 45


 2293 02c8 B2000000 		.4byte	.LCFI30-.Ltext0
 2294 02cc C8000000 		.4byte	.LCFI31-.Ltext0
 2295 02d0 0200     		.2byte	0x2
 2296 02d2 77       		.byte	0x77
 2297 02d3 10       		.sleb128 16
 2298 02d4 C8000000 		.4byte	.LCFI31-.Ltext0
 2299 02d8 CA000000 		.4byte	.LCFI32-.Ltext0
 2300 02dc 0200     		.2byte	0x2
 2301 02de 77       		.byte	0x77
 2302 02df 08       		.sleb128 8
 2303 02e0 CA000000 		.4byte	.LCFI32-.Ltext0
 2304 02e4 CC000000 		.4byte	.LFE5-.Ltext0
 2305 02e8 0200     		.2byte	0x2
 2306 02ea 7D       		.byte	0x7d
 2307 02eb 08       		.sleb128 8
 2308 02ec 00000000 		.4byte	0
 2309 02f0 00000000 		.4byte	0
 2310              	.LLST4:
 2311 02f4 8C000000 		.4byte	.LFB4-.Ltext0
 2312 02f8 8E000000 		.4byte	.LCFI22-.Ltext0
 2313 02fc 0200     		.2byte	0x2
 2314 02fe 7D       		.byte	0x7d
 2315 02ff 00       		.sleb128 0
 2316 0300 8E000000 		.4byte	.LCFI22-.Ltext0
 2317 0304 90000000 		.4byte	.LCFI23-.Ltext0
 2318 0308 0200     		.2byte	0x2
 2319 030a 7D       		.byte	0x7d
 2320 030b 04       		.sleb128 4
 2321 030c 90000000 		.4byte	.LCFI23-.Ltext0
 2322 0310 92000000 		.4byte	.LCFI24-.Ltext0
 2323 0314 0200     		.2byte	0x2
 2324 0316 7D       		.byte	0x7d
 2325 0317 10       		.sleb128 16
 2326 0318 92000000 		.4byte	.LCFI24-.Ltext0
 2327 031c A6000000 		.4byte	.LCFI25-.Ltext0
 2328 0320 0200     		.2byte	0x2
 2329 0322 77       		.byte	0x77
 2330 0323 10       		.sleb128 16
 2331 0324 A6000000 		.4byte	.LCFI25-.Ltext0
 2332 0328 A8000000 		.4byte	.LCFI26-.Ltext0
 2333 032c 0200     		.2byte	0x2
 2334 032e 77       		.byte	0x77
 2335 032f 04       		.sleb128 4
 2336 0330 A8000000 		.4byte	.LCFI26-.Ltext0
 2337 0334 AA000000 		.4byte	.LCFI27-.Ltext0
 2338 0338 0200     		.2byte	0x2
 2339 033a 7D       		.byte	0x7d
 2340 033b 04       		.sleb128 4
 2341 033c AA000000 		.4byte	.LCFI27-.Ltext0
 2342 0340 AC000000 		.4byte	.LFE4-.Ltext0
 2343 0344 0200     		.2byte	0x2
 2344 0346 7D       		.byte	0x7d
 2345 0347 00       		.sleb128 0
 2346 0348 00000000 		.4byte	0
 2347 034c 00000000 		.4byte	0
 2348              	.LLST3:
 2349 0350 6C000000 		.4byte	.LFB3-.Ltext0
ARM GAS  G:\Users\Jaxb\AppData\Local\Temp\ccaY7iov.s 			page 46


 2350 0354 6E000000 		.4byte	.LCFI17-.Ltext0
 2351 0358 0200     		.2byte	0x2
 2352 035a 7D       		.byte	0x7d
 2353 035b 00       		.sleb128 0
 2354 035c 6E000000 		.4byte	.LCFI17-.Ltext0
 2355 0360 70000000 		.4byte	.LCFI18-.Ltext0
 2356 0364 0200     		.2byte	0x2
 2357 0366 7D       		.byte	0x7d
 2358 0367 08       		.sleb128 8
 2359 0368 70000000 		.4byte	.LCFI18-.Ltext0
 2360 036c 72000000 		.4byte	.LCFI19-.Ltext0
 2361 0370 0200     		.2byte	0x2
 2362 0372 7D       		.byte	0x7d
 2363 0373 10       		.sleb128 16
 2364 0374 72000000 		.4byte	.LCFI19-.Ltext0
 2365 0378 88000000 		.4byte	.LCFI20-.Ltext0
 2366 037c 0200     		.2byte	0x2
 2367 037e 77       		.byte	0x77
 2368 037f 10       		.sleb128 16
 2369 0380 88000000 		.4byte	.LCFI20-.Ltext0
 2370 0384 8A000000 		.4byte	.LCFI21-.Ltext0
 2371 0388 0200     		.2byte	0x2
 2372 038a 77       		.byte	0x77
 2373 038b 08       		.sleb128 8
 2374 038c 8A000000 		.4byte	.LCFI21-.Ltext0
 2375 0390 8C000000 		.4byte	.LFE3-.Ltext0
 2376 0394 0200     		.2byte	0x2
 2377 0396 7D       		.byte	0x7d
 2378 0397 08       		.sleb128 8
 2379 0398 00000000 		.4byte	0
 2380 039c 00000000 		.4byte	0
 2381              	.LLST2:
 2382 03a0 4C000000 		.4byte	.LFB2-.Ltext0
 2383 03a4 4E000000 		.4byte	.LCFI12-.Ltext0
 2384 03a8 0200     		.2byte	0x2
 2385 03aa 7D       		.byte	0x7d
 2386 03ab 00       		.sleb128 0
 2387 03ac 4E000000 		.4byte	.LCFI12-.Ltext0
 2388 03b0 50000000 		.4byte	.LCFI13-.Ltext0
 2389 03b4 0200     		.2byte	0x2
 2390 03b6 7D       		.byte	0x7d
 2391 03b7 08       		.sleb128 8
 2392 03b8 50000000 		.4byte	.LCFI13-.Ltext0
 2393 03bc 52000000 		.4byte	.LCFI14-.Ltext0
 2394 03c0 0200     		.2byte	0x2
 2395 03c2 7D       		.byte	0x7d
 2396 03c3 10       		.sleb128 16
 2397 03c4 52000000 		.4byte	.LCFI14-.Ltext0
 2398 03c8 68000000 		.4byte	.LCFI15-.Ltext0
 2399 03cc 0200     		.2byte	0x2
 2400 03ce 77       		.byte	0x77
 2401 03cf 10       		.sleb128 16
 2402 03d0 68000000 		.4byte	.LCFI15-.Ltext0
 2403 03d4 6A000000 		.4byte	.LCFI16-.Ltext0
 2404 03d8 0200     		.2byte	0x2
 2405 03da 77       		.byte	0x77
 2406 03db 08       		.sleb128 8
ARM GAS  G:\Users\Jaxb\AppData\Local\Temp\ccaY7iov.s 			page 47


 2407 03dc 6A000000 		.4byte	.LCFI16-.Ltext0
 2408 03e0 6C000000 		.4byte	.LFE2-.Ltext0
 2409 03e4 0200     		.2byte	0x2
 2410 03e6 7D       		.byte	0x7d
 2411 03e7 08       		.sleb128 8
 2412 03e8 00000000 		.4byte	0
 2413 03ec 00000000 		.4byte	0
 2414              	.LLST1:
 2415 03f0 1E000000 		.4byte	.LFB1-.Ltext0
 2416 03f4 20000000 		.4byte	.LCFI6-.Ltext0
 2417 03f8 0200     		.2byte	0x2
 2418 03fa 7D       		.byte	0x7d
 2419 03fb 00       		.sleb128 0
 2420 03fc 20000000 		.4byte	.LCFI6-.Ltext0
 2421 0400 22000000 		.4byte	.LCFI7-.Ltext0
 2422 0404 0200     		.2byte	0x2
 2423 0406 7D       		.byte	0x7d
 2424 0407 04       		.sleb128 4
 2425 0408 22000000 		.4byte	.LCFI7-.Ltext0
 2426 040c 24000000 		.4byte	.LCFI8-.Ltext0
 2427 0410 0200     		.2byte	0x2
 2428 0412 7D       		.byte	0x7d
 2429 0413 18       		.sleb128 24
 2430 0414 24000000 		.4byte	.LCFI8-.Ltext0
 2431 0418 46000000 		.4byte	.LCFI9-.Ltext0
 2432 041c 0200     		.2byte	0x2
 2433 041e 77       		.byte	0x77
 2434 041f 18       		.sleb128 24
 2435 0420 46000000 		.4byte	.LCFI9-.Ltext0
 2436 0424 48000000 		.4byte	.LCFI10-.Ltext0
 2437 0428 0200     		.2byte	0x2
 2438 042a 77       		.byte	0x77
 2439 042b 04       		.sleb128 4
 2440 042c 48000000 		.4byte	.LCFI10-.Ltext0
 2441 0430 4A000000 		.4byte	.LCFI11-.Ltext0
 2442 0434 0200     		.2byte	0x2
 2443 0436 7D       		.byte	0x7d
 2444 0437 04       		.sleb128 4
 2445 0438 4A000000 		.4byte	.LCFI11-.Ltext0
 2446 043c 4C000000 		.4byte	.LFE1-.Ltext0
 2447 0440 0200     		.2byte	0x2
 2448 0442 7D       		.byte	0x7d
 2449 0443 00       		.sleb128 0
 2450 0444 00000000 		.4byte	0
 2451 0448 00000000 		.4byte	0
 2452              	.LLST0:
 2453 044c 00000000 		.4byte	.LFB0-.Ltext0
 2454 0450 02000000 		.4byte	.LCFI0-.Ltext0
 2455 0454 0200     		.2byte	0x2
 2456 0456 7D       		.byte	0x7d
 2457 0457 00       		.sleb128 0
 2458 0458 02000000 		.4byte	.LCFI0-.Ltext0
 2459 045c 04000000 		.4byte	.LCFI1-.Ltext0
 2460 0460 0200     		.2byte	0x2
 2461 0462 7D       		.byte	0x7d
 2462 0463 04       		.sleb128 4
 2463 0464 04000000 		.4byte	.LCFI1-.Ltext0
ARM GAS  G:\Users\Jaxb\AppData\Local\Temp\ccaY7iov.s 			page 48


 2464 0468 06000000 		.4byte	.LCFI2-.Ltext0
 2465 046c 0200     		.2byte	0x2
 2466 046e 7D       		.byte	0x7d
 2467 046f 10       		.sleb128 16
 2468 0470 06000000 		.4byte	.LCFI2-.Ltext0
 2469 0474 18000000 		.4byte	.LCFI3-.Ltext0
 2470 0478 0200     		.2byte	0x2
 2471 047a 77       		.byte	0x77
 2472 047b 10       		.sleb128 16
 2473 047c 18000000 		.4byte	.LCFI3-.Ltext0
 2474 0480 1A000000 		.4byte	.LCFI4-.Ltext0
 2475 0484 0200     		.2byte	0x2
 2476 0486 77       		.byte	0x77
 2477 0487 04       		.sleb128 4
 2478 0488 1A000000 		.4byte	.LCFI4-.Ltext0
 2479 048c 1C000000 		.4byte	.LCFI5-.Ltext0
 2480 0490 0200     		.2byte	0x2
 2481 0492 7D       		.byte	0x7d
 2482 0493 04       		.sleb128 4
 2483 0494 1C000000 		.4byte	.LCFI5-.Ltext0
 2484 0498 1E000000 		.4byte	.LFE0-.Ltext0
 2485 049c 0200     		.2byte	0x2
 2486 049e 7D       		.byte	0x7d
 2487 049f 00       		.sleb128 0
 2488 04a0 00000000 		.4byte	0
 2489 04a4 00000000 		.4byte	0
 2490              		.section	.debug_aranges,"",%progbits
 2491 0000 1C000000 		.4byte	0x1c
 2492 0004 0200     		.2byte	0x2
 2493 0006 00000000 		.4byte	.Ldebug_info0
 2494 000a 04       		.byte	0x4
 2495 000b 00       		.byte	0
 2496 000c 0000     		.2byte	0
 2497 000e 0000     		.2byte	0
 2498 0010 00000000 		.4byte	.Ltext0
 2499 0014 22030000 		.4byte	.Letext0-.Ltext0
 2500 0018 00000000 		.4byte	0
 2501 001c 00000000 		.4byte	0
 2502              		.section	.debug_line,"",%progbits
 2503              	.Ldebug_line0:
 2504 0000 72010000 		.section	.debug_str,"MS",%progbits,1
 2504      0200B600 
 2504      00000201 
 2504      FB0E0D00 
 2504      01010101 
 2505              	.LASF36:
 2506 0000 6C697374 		.ascii	"list\000"
 2506      00
 2507              	.LASF16:
 2508 0005 7072696F 		.ascii	"prio\000"
 2508      00
 2509              	.LASF9:
 2510 000a 73697A65 		.ascii	"size_t\000"
 2510      5F7400
 2511              	.LASF10:
 2512 0011 6E657874 		.ascii	"next\000"
 2512      00
ARM GAS  G:\Users\Jaxb\AppData\Local\Temp\ccaY7iov.s 			page 49


 2513              	.LASF25:
 2514 0016 6765745F 		.ascii	"get_next_IL\000"
 2514      6E657874 
 2514      5F494C00 
 2515              	.LASF31:
 2516 0022 6C697374 		.ascii	"list_del\000"
 2516      5F64656C 
 2516      00
 2517              	.LASF40:
 2518 002b 6C697374 		.ascii	"list_empty\000"
 2518      5F656D70 
 2518      747900
 2519              	.LASF21:
 2520 0036 64656C65 		.ascii	"delete_first_in_chain\000"
 2520      74655F66 
 2520      69727374 
 2520      5F696E5F 
 2520      63686169 
 2521              	.LASF27:
 2522 004c 6C697374 		.ascii	"list_buffer\000"
 2522      5F627566 
 2522      66657200 
 2523              	.LASF30:
 2524 0058 656E7472 		.ascii	"entry\000"
 2524      7900
 2525              	.LASF23:
 2526 005e 66696E64 		.ascii	"find_in_chain\000"
 2526      5F696E5F 
 2526      63686169 
 2526      6E00
 2527              	.LASF12:
 2528 006c 434F4D50 		.ascii	"COMPARE_TYPE\000"
 2528      4152455F 
 2528      54595045 
 2528      00
 2529              	.LASF5:
 2530 0079 494E5436 		.ascii	"INT64\000"
 2530      3400
 2531              	.LASF24:
 2532 007f 696E7365 		.ascii	"insert_node\000"
 2532      72745F6E 
 2532      6F646500 
 2533              	.LASF3:
 2534 008b 756E7369 		.ascii	"unsigned char\000"
 2534      676E6564 
 2534      20636861 
 2534      7200
 2535              	.LASF33:
 2536 0099 6C697374 		.ascii	"list_add_tail\000"
 2536      5F616464 
 2536      5F746169 
 2536      6C00
 2537              	.LASF34:
 2538 00a7 6C697374 		.ascii	"list_add\000"
 2538      5F616464 
 2538      00
 2539              	.LASF4:
ARM GAS  G:\Users\Jaxb\AppData\Local\Temp\ccaY7iov.s 			page 50


 2540 00b0 73686F72 		.ascii	"short unsigned int\000"
 2540      7420756E 
 2540      7369676E 
 2540      65642069 
 2540      6E7400
 2541              	.LASF19:
 2542 00c3 5F5F6D70 		.ascii	"__mptr\000"
 2542      747200
 2543              	.LASF32:
 2544 00ca 5F5F6C69 		.ascii	"__list_del\000"
 2544      73745F64 
 2544      656C00
 2545              	.LASF41:
 2546 00d5 494E4954 		.ascii	"INIT_LIST_HEAD\000"
 2546      5F4C4953 
 2546      545F4845 
 2546      414400
 2547              	.LASF17:
 2548 00e4 68656164 		.ascii	"head\000"
 2548      00
 2549              	.LASF7:
 2550 00e9 756E7369 		.ascii	"unsigned int\000"
 2550      676E6564 
 2550      20696E74 
 2550      00
 2551              	.LASF22:
 2552 00f6 64656C65 		.ascii	"delete_from_chain\000"
 2552      74655F66 
 2552      726F6D5F 
 2552      63686169 
 2552      6E00
 2553              	.LASF8:
 2554 0108 6C6F6E67 		.ascii	"long long unsigned int\000"
 2554      206C6F6E 
 2554      6720756E 
 2554      7369676E 
 2554      65642069 
 2555              	.LASF15:
 2556 011f 696E7365 		.ascii	"insert\000"
 2556      727400
 2557              	.LASF29:
 2558 0126 494C5F69 		.ascii	"IL_init\000"
 2558      6E697400 
 2559              	.LASF20:
 2560 012e 66696E64 		.ascii	"find_first_bigger_IL\000"
 2560      5F666972 
 2560      73745F62 
 2560      69676765 
 2560      725F494C 
 2561              	.LASF13:
 2562 0143 6C697374 		.ascii	"list_head\000"
 2562      5F686561 
 2562      6400
 2563              	.LASF2:
 2564 014d 6C6F6E67 		.ascii	"long long int\000"
 2564      206C6F6E 
 2564      6720696E 
ARM GAS  G:\Users\Jaxb\AppData\Local\Temp\ccaY7iov.s 			page 51


 2564      7400
 2565              	.LASF6:
 2566 015b 55494E54 		.ascii	"UINT32\000"
 2566      333200
 2567              	.LASF28:
 2568 0162 696E7365 		.ascii	"insert_chain\000"
 2568      72745F63 
 2568      6861696E 
 2568      00
 2569              	.LASF1:
 2570 016f 73686F72 		.ascii	"short int\000"
 2570      7420696E 
 2570      7400
 2571              	.LASF14:
 2572 0179 696E7365 		.ascii	"insert_list\000"
 2572      72745F6C 
 2572      69737400 
 2573              	.LASF35:
 2574 0185 5F5F6C69 		.ascii	"__list_add\000"
 2574      73745F61 
 2574      646400
 2575              	.LASF18:
 2576 0190 494C5F70 		.ascii	"IL_ptr\000"
 2576      747200
 2577              	.LASF37:
 2578 0197 474E5520 		.ascii	"GNU C11 7.3.1 20180622 (release) [ARM/embedded-7-br"
 2578      43313120 
 2578      372E332E 
 2578      31203230 
 2578      31383036 
 2579 01ca 616E6368 		.ascii	"anch revision 261907] -mcpu=cortex-m3 -mthumb -mapc"
 2579      20726576 
 2579      6973696F 
 2579      6E203236 
 2579      31393037 
 2580 01fd 732D6672 		.ascii	"s-frame -mthumb-interwork -mcpu=cortex-m3 -mthumb -"
 2580      616D6520 
 2580      2D6D7468 
 2580      756D622D 
 2580      696E7465 
 2581 0230 67647761 		.ascii	"gdwarf-2 -O0\000"
 2581      72662D32 
 2581      202D4F30 
 2581      00
 2582              	.LASF26:
 2583 023d 68656164 		.ascii	"head_ptr\000"
 2583      5F707472 
 2583      00
 2584              	.LASF0:
 2585 0246 7369676E 		.ascii	"signed char\000"
 2585      65642063 
 2585      68617200 
 2586              	.LASF11:
 2587 0252 70726576 		.ascii	"prev\000"
 2587      00
 2588              	.LASF39:
 2589 0257 463A5C6B 		.ascii	"F:\\kaka\\KAKAOS\\C\\windows\\Project\\RVMDK\243\250"
ARM GAS  G:\Users\Jaxb\AppData\Local\Temp\ccaY7iov.s 			page 52


 2589      616B615C 
 2589      4B414B41 
 2589      4F535C43 
 2589      5C77696E 
 2590 027f 757635A3 		.ascii	"uv5\243\251\000"
 2590      A900
 2591              	.LASF38:
 2592 0285 2E2E2F2E 		.ascii	"../../source/src/kernel/OS_LIB/insert_sort.c\000"
 2592      2E2F736F 
 2592      75726365 
 2592      2F737263 
 2592      2F6B6572 
 2593              		.ident	"GCC: (GNU Tools for Arm Embedded Processors 7-2018-q2-update) 7.3.1 20180622 (release) [AR
ARM GAS  G:\Users\Jaxb\AppData\Local\Temp\ccaY7iov.s 			page 53


DEFINED SYMBOLS
                            *ABS*:00000000 insert_sort.c
G:\Users\Jaxb\AppData\Local\Temp\ccaY7iov.s:15     .text:00000000 $t
G:\Users\Jaxb\AppData\Local\Temp\ccaY7iov.s:21     .text:00000000 INIT_LIST_HEAD
G:\Users\Jaxb\AppData\Local\Temp\ccaY7iov.s:71     .text:0000001e __list_add
G:\Users\Jaxb\AppData\Local\Temp\ccaY7iov.s:130    .text:0000004c list_add
G:\Users\Jaxb\AppData\Local\Temp\ccaY7iov.s:175    .text:0000006c list_add_tail
G:\Users\Jaxb\AppData\Local\Temp\ccaY7iov.s:220    .text:0000008c __list_del
G:\Users\Jaxb\AppData\Local\Temp\ccaY7iov.s:270    .text:000000ac list_del
G:\Users\Jaxb\AppData\Local\Temp\ccaY7iov.s:315    .text:000000cc list_empty
G:\Users\Jaxb\AppData\Local\Temp\ccaY7iov.s:366    .text:000000ee IL_init
G:\Users\Jaxb\AppData\Local\Temp\ccaY7iov.s:408    .rodata:00000000 $d
G:\Users\Jaxb\AppData\Local\Temp\ccaY7iov.s:419    .text:0000010e get_next_IL
G:\Users\Jaxb\AppData\Local\Temp\ccaY7iov.s:484    .text:0000014c $d
G:\Users\Jaxb\AppData\Local\Temp\ccaY7iov.s:488    .text:00000150 $t
G:\Users\Jaxb\AppData\Local\Temp\ccaY7iov.s:495    .text:00000150 insert_chain
G:\Users\Jaxb\AppData\Local\Temp\ccaY7iov.s:623    .text:00000204 $d
G:\Users\Jaxb\AppData\Local\Temp\ccaY7iov.s:627    .text:00000208 $t
G:\Users\Jaxb\AppData\Local\Temp\ccaY7iov.s:634    .text:00000208 find_in_chain
G:\Users\Jaxb\AppData\Local\Temp\ccaY7iov.s:718    .text:00000254 delete_from_chain
G:\Users\Jaxb\AppData\Local\Temp\ccaY7iov.s:801    .text:000002a4 delete_first_in_chain
G:\Users\Jaxb\AppData\Local\Temp\ccaY7iov.s:865    .text:000002d6 find_first_bigger_IL

UNDEFINED SYMBOLS
_ASSERT
