ARM GAS  G:\Users\Jaxb\AppData\Local\Temp\ccOx8Th8.s 			page 1


   1              		.cpu cortex-m3
   2              		.eabi_attribute 20, 1
   3              		.eabi_attribute 21, 1
   4              		.eabi_attribute 23, 3
   5              		.eabi_attribute 24, 1
   6              		.eabi_attribute 25, 1
   7              		.eabi_attribute 26, 1
   8              		.eabi_attribute 30, 6
   9              		.eabi_attribute 34, 1
  10              		.eabi_attribute 18, 4
  11              		.file	"insert_sort_oo.c"
  12              		.text
  13              	.Ltext0:
  14              		.cfi_sections	.debug_frame
  15              		.align	1
  16              		.syntax unified
  17              		.thumb
  18              		.thumb_func
  19              		.fpu softvfp
  20              		.type	INIT_LIST_HEAD, %function
  21              	INIT_LIST_HEAD:
  22              	.LFB0:
  23              		.file 1 "../../source/include/os_lib/double_linked_list.h"
   1:../../source/include/os_lib/double_linked_list.h **** #ifndef _DOUBLE_LINKED_LIST_H
   2:../../source/include/os_lib/double_linked_list.h **** #define _DOUBLE_LINKED_LIST_H
   3:../../source/include/os_lib/double_linked_list.h **** 
   4:../../source/include/os_lib/double_linked_list.h **** struct list_head {
   5:../../source/include/os_lib/double_linked_list.h ****     struct list_head *next, *prev;
   6:../../source/include/os_lib/double_linked_list.h **** };
   7:../../source/include/os_lib/double_linked_list.h **** 
   8:../../source/include/os_lib/double_linked_list.h **** 
   9:../../source/include/os_lib/double_linked_list.h **** #define LIST_HEAD_INIT(name) { &(name), &(name) }
  10:../../source/include/os_lib/double_linked_list.h **** 
  11:../../source/include/os_lib/double_linked_list.h **** 
  12:../../source/include/os_lib/double_linked_list.h **** #define LIST_HEAD(name) \
  13:../../source/include/os_lib/double_linked_list.h ****     struct list_head name = LIST_HEAD_INIT(name)
  14:../../source/include/os_lib/double_linked_list.h **** 
  15:../../source/include/os_lib/double_linked_list.h **** 
  16:../../source/include/os_lib/double_linked_list.h **** static inline void INIT_LIST_HEAD(struct list_head *list)
  17:../../source/include/os_lib/double_linked_list.h **** {
  24              		.loc 1 17 0
  25              		.cfi_startproc
  26              		@ args = 0, pretend = 0, frame = 8
  27              		@ frame_needed = 1, uses_anonymous_args = 0
  28              		@ link register save eliminated.
  29 0000 80B4     		push	{r7}
  30              	.LCFI0:
  31              		.cfi_def_cfa_offset 4
  32              		.cfi_offset 7, -4
  33 0002 83B0     		sub	sp, sp, #12
  34              	.LCFI1:
  35              		.cfi_def_cfa_offset 16
  36 0004 00AF     		add	r7, sp, #0
  37              	.LCFI2:
  38              		.cfi_def_cfa_register 7
  39 0006 7860     		str	r0, [r7, #4]
  18:../../source/include/os_lib/double_linked_list.h ****     list->next = list;
ARM GAS  G:\Users\Jaxb\AppData\Local\Temp\ccOx8Th8.s 			page 2


  40              		.loc 1 18 0
  41 0008 7B68     		ldr	r3, [r7, #4]
  42 000a 7A68     		ldr	r2, [r7, #4]
  43 000c 1A60     		str	r2, [r3]
  19:../../source/include/os_lib/double_linked_list.h ****     list->prev = list;
  44              		.loc 1 19 0
  45 000e 7B68     		ldr	r3, [r7, #4]
  46 0010 7A68     		ldr	r2, [r7, #4]
  47 0012 5A60     		str	r2, [r3, #4]
  20:../../source/include/os_lib/double_linked_list.h **** }
  48              		.loc 1 20 0
  49 0014 00BF     		nop
  50 0016 0C37     		adds	r7, r7, #12
  51              	.LCFI3:
  52              		.cfi_def_cfa_offset 4
  53 0018 BD46     		mov	sp, r7
  54              	.LCFI4:
  55              		.cfi_def_cfa_register 13
  56              		@ sp needed
  57 001a 80BC     		pop	{r7}
  58              	.LCFI5:
  59              		.cfi_restore 7
  60              		.cfi_def_cfa_offset 0
  61 001c 7047     		bx	lr
  62              		.cfi_endproc
  63              	.LFE0:
  64              		.size	INIT_LIST_HEAD, .-INIT_LIST_HEAD
  65              		.align	1
  66              		.syntax unified
  67              		.thumb
  68              		.thumb_func
  69              		.fpu softvfp
  70              		.type	__list_add, %function
  71              	__list_add:
  72              	.LFB1:
  21:../../source/include/os_lib/double_linked_list.h **** 
  22:../../source/include/os_lib/double_linked_list.h **** 
  23:../../source/include/os_lib/double_linked_list.h **** static inline void __list_add(struct list_head *new,
  24:../../source/include/os_lib/double_linked_list.h ****                   struct list_head *prev,
  25:../../source/include/os_lib/double_linked_list.h ****                   struct list_head *next)
  26:../../source/include/os_lib/double_linked_list.h **** {
  73              		.loc 1 26 0
  74              		.cfi_startproc
  75              		@ args = 0, pretend = 0, frame = 16
  76              		@ frame_needed = 1, uses_anonymous_args = 0
  77              		@ link register save eliminated.
  78 001e 80B4     		push	{r7}
  79              	.LCFI6:
  80              		.cfi_def_cfa_offset 4
  81              		.cfi_offset 7, -4
  82 0020 85B0     		sub	sp, sp, #20
  83              	.LCFI7:
  84              		.cfi_def_cfa_offset 24
  85 0022 00AF     		add	r7, sp, #0
  86              	.LCFI8:
  87              		.cfi_def_cfa_register 7
  88 0024 F860     		str	r0, [r7, #12]
ARM GAS  G:\Users\Jaxb\AppData\Local\Temp\ccOx8Th8.s 			page 3


  89 0026 B960     		str	r1, [r7, #8]
  90 0028 7A60     		str	r2, [r7, #4]
  27:../../source/include/os_lib/double_linked_list.h ****     next->prev = new;
  91              		.loc 1 27 0
  92 002a 7B68     		ldr	r3, [r7, #4]
  93 002c FA68     		ldr	r2, [r7, #12]
  94 002e 5A60     		str	r2, [r3, #4]
  28:../../source/include/os_lib/double_linked_list.h ****     new->next = next;
  95              		.loc 1 28 0
  96 0030 FB68     		ldr	r3, [r7, #12]
  97 0032 7A68     		ldr	r2, [r7, #4]
  98 0034 1A60     		str	r2, [r3]
  29:../../source/include/os_lib/double_linked_list.h ****     new->prev = prev;
  99              		.loc 1 29 0
 100 0036 FB68     		ldr	r3, [r7, #12]
 101 0038 BA68     		ldr	r2, [r7, #8]
 102 003a 5A60     		str	r2, [r3, #4]
  30:../../source/include/os_lib/double_linked_list.h ****     prev->next = new;
 103              		.loc 1 30 0
 104 003c BB68     		ldr	r3, [r7, #8]
 105 003e FA68     		ldr	r2, [r7, #12]
 106 0040 1A60     		str	r2, [r3]
  31:../../source/include/os_lib/double_linked_list.h **** }
 107              		.loc 1 31 0
 108 0042 00BF     		nop
 109 0044 1437     		adds	r7, r7, #20
 110              	.LCFI9:
 111              		.cfi_def_cfa_offset 4
 112 0046 BD46     		mov	sp, r7
 113              	.LCFI10:
 114              		.cfi_def_cfa_register 13
 115              		@ sp needed
 116 0048 80BC     		pop	{r7}
 117              	.LCFI11:
 118              		.cfi_restore 7
 119              		.cfi_def_cfa_offset 0
 120 004a 7047     		bx	lr
 121              		.cfi_endproc
 122              	.LFE1:
 123              		.size	__list_add, .-__list_add
 124              		.align	1
 125              		.syntax unified
 126              		.thumb
 127              		.thumb_func
 128              		.fpu softvfp
 129              		.type	list_add_tail, %function
 130              	list_add_tail:
 131              	.LFB3:
  32:../../source/include/os_lib/double_linked_list.h **** 
  33:../../source/include/os_lib/double_linked_list.h **** 
  34:../../source/include/os_lib/double_linked_list.h **** static inline void list_add(struct list_head *new, struct list_head *head)
  35:../../source/include/os_lib/double_linked_list.h **** {
  36:../../source/include/os_lib/double_linked_list.h ****     __list_add(new, head, head->next);
  37:../../source/include/os_lib/double_linked_list.h **** }
  38:../../source/include/os_lib/double_linked_list.h **** 
  39:../../source/include/os_lib/double_linked_list.h **** 
  40:../../source/include/os_lib/double_linked_list.h **** static inline void list_add_tail(struct list_head *new, struct list_head *head)
ARM GAS  G:\Users\Jaxb\AppData\Local\Temp\ccOx8Th8.s 			page 4


  41:../../source/include/os_lib/double_linked_list.h **** {
 132              		.loc 1 41 0
 133              		.cfi_startproc
 134              		@ args = 0, pretend = 0, frame = 8
 135              		@ frame_needed = 1, uses_anonymous_args = 0
 136 004c 80B5     		push	{r7, lr}
 137              	.LCFI12:
 138              		.cfi_def_cfa_offset 8
 139              		.cfi_offset 7, -8
 140              		.cfi_offset 14, -4
 141 004e 82B0     		sub	sp, sp, #8
 142              	.LCFI13:
 143              		.cfi_def_cfa_offset 16
 144 0050 00AF     		add	r7, sp, #0
 145              	.LCFI14:
 146              		.cfi_def_cfa_register 7
 147 0052 7860     		str	r0, [r7, #4]
 148 0054 3960     		str	r1, [r7]
  42:../../source/include/os_lib/double_linked_list.h ****     __list_add(new, head->prev, head);
 149              		.loc 1 42 0
 150 0056 3B68     		ldr	r3, [r7]
 151 0058 5B68     		ldr	r3, [r3, #4]
 152 005a 3A68     		ldr	r2, [r7]
 153 005c 1946     		mov	r1, r3
 154 005e 7868     		ldr	r0, [r7, #4]
 155 0060 FFF7DDFF 		bl	__list_add
  43:../../source/include/os_lib/double_linked_list.h **** }
 156              		.loc 1 43 0
 157 0064 00BF     		nop
 158 0066 0837     		adds	r7, r7, #8
 159              	.LCFI15:
 160              		.cfi_def_cfa_offset 8
 161 0068 BD46     		mov	sp, r7
 162              	.LCFI16:
 163              		.cfi_def_cfa_register 13
 164              		@ sp needed
 165 006a 80BD     		pop	{r7, pc}
 166              		.cfi_endproc
 167              	.LFE3:
 168              		.size	list_add_tail, .-list_add_tail
 169              		.align	1
 170              		.syntax unified
 171              		.thumb
 172              		.thumb_func
 173              		.fpu softvfp
 174              		.type	__list_del, %function
 175              	__list_del:
 176              	.LFB4:
  44:../../source/include/os_lib/double_linked_list.h **** 
  45:../../source/include/os_lib/double_linked_list.h **** 
  46:../../source/include/os_lib/double_linked_list.h **** static inline void __list_del(struct list_head * prev, struct list_head * next)
  47:../../source/include/os_lib/double_linked_list.h **** {
 177              		.loc 1 47 0
 178              		.cfi_startproc
 179              		@ args = 0, pretend = 0, frame = 8
 180              		@ frame_needed = 1, uses_anonymous_args = 0
 181              		@ link register save eliminated.
ARM GAS  G:\Users\Jaxb\AppData\Local\Temp\ccOx8Th8.s 			page 5


 182 006c 80B4     		push	{r7}
 183              	.LCFI17:
 184              		.cfi_def_cfa_offset 4
 185              		.cfi_offset 7, -4
 186 006e 83B0     		sub	sp, sp, #12
 187              	.LCFI18:
 188              		.cfi_def_cfa_offset 16
 189 0070 00AF     		add	r7, sp, #0
 190              	.LCFI19:
 191              		.cfi_def_cfa_register 7
 192 0072 7860     		str	r0, [r7, #4]
 193 0074 3960     		str	r1, [r7]
  48:../../source/include/os_lib/double_linked_list.h ****     next->prev = prev;
 194              		.loc 1 48 0
 195 0076 3B68     		ldr	r3, [r7]
 196 0078 7A68     		ldr	r2, [r7, #4]
 197 007a 5A60     		str	r2, [r3, #4]
  49:../../source/include/os_lib/double_linked_list.h ****     prev->next = next;
 198              		.loc 1 49 0
 199 007c 7B68     		ldr	r3, [r7, #4]
 200 007e 3A68     		ldr	r2, [r7]
 201 0080 1A60     		str	r2, [r3]
  50:../../source/include/os_lib/double_linked_list.h **** }
 202              		.loc 1 50 0
 203 0082 00BF     		nop
 204 0084 0C37     		adds	r7, r7, #12
 205              	.LCFI20:
 206              		.cfi_def_cfa_offset 4
 207 0086 BD46     		mov	sp, r7
 208              	.LCFI21:
 209              		.cfi_def_cfa_register 13
 210              		@ sp needed
 211 0088 80BC     		pop	{r7}
 212              	.LCFI22:
 213              		.cfi_restore 7
 214              		.cfi_def_cfa_offset 0
 215 008a 7047     		bx	lr
 216              		.cfi_endproc
 217              	.LFE4:
 218              		.size	__list_del, .-__list_del
 219              		.align	1
 220              		.syntax unified
 221              		.thumb
 222              		.thumb_func
 223              		.fpu softvfp
 224              		.type	list_del, %function
 225              	list_del:
 226              	.LFB5:
  51:../../source/include/os_lib/double_linked_list.h **** 
  52:../../source/include/os_lib/double_linked_list.h **** 
  53:../../source/include/os_lib/double_linked_list.h **** static inline void list_del(struct list_head *entry)
  54:../../source/include/os_lib/double_linked_list.h **** {
 227              		.loc 1 54 0
 228              		.cfi_startproc
 229              		@ args = 0, pretend = 0, frame = 8
 230              		@ frame_needed = 1, uses_anonymous_args = 0
 231 008c 80B5     		push	{r7, lr}
ARM GAS  G:\Users\Jaxb\AppData\Local\Temp\ccOx8Th8.s 			page 6


 232              	.LCFI23:
 233              		.cfi_def_cfa_offset 8
 234              		.cfi_offset 7, -8
 235              		.cfi_offset 14, -4
 236 008e 82B0     		sub	sp, sp, #8
 237              	.LCFI24:
 238              		.cfi_def_cfa_offset 16
 239 0090 00AF     		add	r7, sp, #0
 240              	.LCFI25:
 241              		.cfi_def_cfa_register 7
 242 0092 7860     		str	r0, [r7, #4]
  55:../../source/include/os_lib/double_linked_list.h ****     __list_del(entry->prev, entry->next);
 243              		.loc 1 55 0
 244 0094 7B68     		ldr	r3, [r7, #4]
 245 0096 5A68     		ldr	r2, [r3, #4]
 246 0098 7B68     		ldr	r3, [r7, #4]
 247 009a 1B68     		ldr	r3, [r3]
 248 009c 1946     		mov	r1, r3
 249 009e 1046     		mov	r0, r2
 250 00a0 FFF7E4FF 		bl	__list_del
  56:../../source/include/os_lib/double_linked_list.h **** }
 251              		.loc 1 56 0
 252 00a4 00BF     		nop
 253 00a6 0837     		adds	r7, r7, #8
 254              	.LCFI26:
 255              		.cfi_def_cfa_offset 8
 256 00a8 BD46     		mov	sp, r7
 257              	.LCFI27:
 258              		.cfi_def_cfa_register 13
 259              		@ sp needed
 260 00aa 80BD     		pop	{r7, pc}
 261              		.cfi_endproc
 262              	.LFE5:
 263              		.size	list_del, .-list_del
 264              		.align	1
 265              		.syntax unified
 266              		.thumb
 267              		.thumb_func
 268              		.fpu softvfp
 269              		.type	list_empty, %function
 270              	list_empty:
 271              	.LFB9:
  57:../../source/include/os_lib/double_linked_list.h **** 
  58:../../source/include/os_lib/double_linked_list.h **** 
  59:../../source/include/os_lib/double_linked_list.h **** static inline void __list_del_entry(struct list_head *entry)
  60:../../source/include/os_lib/double_linked_list.h **** {
  61:../../source/include/os_lib/double_linked_list.h ****     __list_del(entry->prev, entry->next);
  62:../../source/include/os_lib/double_linked_list.h **** }
  63:../../source/include/os_lib/double_linked_list.h **** 
  64:../../source/include/os_lib/double_linked_list.h **** 
  65:../../source/include/os_lib/double_linked_list.h **** static inline void list_del_init(struct list_head *entry)
  66:../../source/include/os_lib/double_linked_list.h **** {
  67:../../source/include/os_lib/double_linked_list.h ****     __list_del_entry(entry);
  68:../../source/include/os_lib/double_linked_list.h ****     INIT_LIST_HEAD(entry);
  69:../../source/include/os_lib/double_linked_list.h **** }
  70:../../source/include/os_lib/double_linked_list.h **** 
  71:../../source/include/os_lib/double_linked_list.h **** 
ARM GAS  G:\Users\Jaxb\AppData\Local\Temp\ccOx8Th8.s 			page 7


  72:../../source/include/os_lib/double_linked_list.h **** static inline void list_replace(struct list_head *old,
  73:../../source/include/os_lib/double_linked_list.h ****                 struct list_head *new)
  74:../../source/include/os_lib/double_linked_list.h **** {
  75:../../source/include/os_lib/double_linked_list.h ****     new->next = old->next;
  76:../../source/include/os_lib/double_linked_list.h ****     new->next->prev = new;
  77:../../source/include/os_lib/double_linked_list.h ****     new->prev = old->prev;
  78:../../source/include/os_lib/double_linked_list.h ****     new->prev->next = new;
  79:../../source/include/os_lib/double_linked_list.h **** }
  80:../../source/include/os_lib/double_linked_list.h **** 
  81:../../source/include/os_lib/double_linked_list.h **** 
  82:../../source/include/os_lib/double_linked_list.h **** static inline int list_empty(const struct list_head *head)
  83:../../source/include/os_lib/double_linked_list.h **** {
 272              		.loc 1 83 0
 273              		.cfi_startproc
 274              		@ args = 0, pretend = 0, frame = 8
 275              		@ frame_needed = 1, uses_anonymous_args = 0
 276              		@ link register save eliminated.
 277 00ac 80B4     		push	{r7}
 278              	.LCFI28:
 279              		.cfi_def_cfa_offset 4
 280              		.cfi_offset 7, -4
 281 00ae 83B0     		sub	sp, sp, #12
 282              	.LCFI29:
 283              		.cfi_def_cfa_offset 16
 284 00b0 00AF     		add	r7, sp, #0
 285              	.LCFI30:
 286              		.cfi_def_cfa_register 7
 287 00b2 7860     		str	r0, [r7, #4]
  84:../../source/include/os_lib/double_linked_list.h ****     return head->next == head;
 288              		.loc 1 84 0
 289 00b4 7B68     		ldr	r3, [r7, #4]
 290 00b6 1B68     		ldr	r3, [r3]
 291 00b8 7A68     		ldr	r2, [r7, #4]
 292 00ba 9A42     		cmp	r2, r3
 293 00bc 0CBF     		ite	eq
 294 00be 0123     		moveq	r3, #1
 295 00c0 0023     		movne	r3, #0
 296 00c2 DBB2     		uxtb	r3, r3
  85:../../source/include/os_lib/double_linked_list.h **** }
 297              		.loc 1 85 0
 298 00c4 1846     		mov	r0, r3
 299 00c6 0C37     		adds	r7, r7, #12
 300              	.LCFI31:
 301              		.cfi_def_cfa_offset 4
 302 00c8 BD46     		mov	sp, r7
 303              	.LCFI32:
 304              		.cfi_def_cfa_register 13
 305              		@ sp needed
 306 00ca 80BC     		pop	{r7}
 307              	.LCFI33:
 308              		.cfi_restore 7
 309              		.cfi_def_cfa_offset 0
 310 00cc 7047     		bx	lr
 311              		.cfi_endproc
 312              	.LFE9:
 313              		.size	list_empty, .-list_empty
 314              		.section	.rodata
ARM GAS  G:\Users\Jaxb\AppData\Local\Temp\ccOx8Th8.s 			page 8


 315              		.align	2
 316              	.LC0:
 317 0000 2E2E2F2E 		.ascii	"../../source/src/kernel/OS_LIB/insert_sort_oo.c\000"
 317      2E2F736F 
 317      75726365 
 317      2F737263 
 317      2F6B6572 
 318              		.text
 319              		.align	1
 320              		.global	insert_sort_insert_into
 321              		.syntax unified
 322              		.thumb
 323              		.thumb_func
 324              		.fpu softvfp
 325              		.type	insert_sort_insert_into, %function
 326              	insert_sort_insert_into:
 327              	.LFB10:
 328              		.file 2 "../../source/src/kernel/OS_LIB/insert_sort_oo.c"
   1:../../source/src/kernel/OS_LIB/insert_sort_oo.c **** #include <insert_sort_oo.h>
   2:../../source/src/kernel/OS_LIB/insert_sort_oo.c **** #include <myassert.h>
   3:../../source/src/kernel/OS_LIB/insert_sort_oo.c **** #include <ka_configuration.h>
   4:../../source/src/kernel/OS_LIB/insert_sort_oo.c **** #include <os_error.h>
   5:../../source/src/kernel/OS_LIB/insert_sort_oo.c **** 
   6:../../source/src/kernel/OS_LIB/insert_sort_oo.c **** /*public function for insert sort*/
   7:../../source/src/kernel/OS_LIB/insert_sort_oo.c **** int insert_sort_insert_into(struct insert_sort_data *data_ptr,struct insert_sort_entity *insert_sor
   8:../../source/src/kernel/OS_LIB/insert_sort_oo.c **** {
 329              		.loc 2 8 0
 330              		.cfi_startproc
 331              		@ args = 0, pretend = 0, frame = 24
 332              		@ frame_needed = 1, uses_anonymous_args = 0
 333 00ce 80B5     		push	{r7, lr}
 334              	.LCFI34:
 335              		.cfi_def_cfa_offset 8
 336              		.cfi_offset 7, -8
 337              		.cfi_offset 14, -4
 338 00d0 86B0     		sub	sp, sp, #24
 339              	.LCFI35:
 340              		.cfi_def_cfa_offset 32
 341 00d2 00AF     		add	r7, sp, #0
 342              	.LCFI36:
 343              		.cfi_def_cfa_register 7
 344 00d4 7860     		str	r0, [r7, #4]
 345 00d6 3960     		str	r1, [r7]
   9:../../source/src/kernel/OS_LIB/insert_sort_oo.c **** 	ASSERT(NULL != data_ptr);
 346              		.loc 2 9 0
 347 00d8 7B68     		ldr	r3, [r7, #4]
 348 00da 002B     		cmp	r3, #0
 349 00dc 03D1     		bne	.L9
 350              		.loc 2 9 0 is_stmt 0 discriminator 1
 351 00de 0921     		movs	r1, #9
 352 00e0 2748     		ldr	r0, .L17
 353 00e2 FFF7FEFF 		bl	_ASSERT
 354              	.L9:
  10:../../source/src/kernel/OS_LIB/insert_sort_oo.c **** 	ASSERT(NULL != insert_sort_entity_ptr);
 355              		.loc 2 10 0 is_stmt 1
 356 00e6 3B68     		ldr	r3, [r7]
 357 00e8 002B     		cmp	r3, #0
ARM GAS  G:\Users\Jaxb\AppData\Local\Temp\ccOx8Th8.s 			page 9


 358 00ea 03D1     		bne	.L10
 359              		.loc 2 10 0 is_stmt 0 discriminator 1
 360 00ec 0A21     		movs	r1, #10
 361 00ee 2448     		ldr	r0, .L17
 362 00f0 FFF7FEFF 		bl	_ASSERT
 363              	.L10:
  11:../../source/src/kernel/OS_LIB/insert_sort_oo.c **** 	struct insert_sort_data *buffer;
  12:../../source/src/kernel/OS_LIB/insert_sort_oo.c **** 	struct list_head *pos;
  13:../../source/src/kernel/OS_LIB/insert_sort_oo.c **** 	/* find a suitable position to insert it*/
  14:../../source/src/kernel/OS_LIB/insert_sort_oo.c **** 	list_for_each(pos,&insert_sort_entity_ptr->data_list_head)
 364              		.loc 2 14 0 is_stmt 1
 365 00f4 3B68     		ldr	r3, [r7]
 366 00f6 1B68     		ldr	r3, [r3]
 367 00f8 7B61     		str	r3, [r7, #20]
 368 00fa 24E0     		b	.L11
 369              	.L15:
 370              	.LBB2:
  15:../../source/src/kernel/OS_LIB/insert_sort_oo.c **** 	{
  16:../../source/src/kernel/OS_LIB/insert_sort_oo.c **** 		buffer = list_entry(pos,struct insert_sort_data,data_list);
 371              		.loc 2 16 0
 372 00fc 7B69     		ldr	r3, [r7, #20]
 373 00fe 3B61     		str	r3, [r7, #16]
 374 0100 3B69     		ldr	r3, [r7, #16]
 375 0102 103B     		subs	r3, r3, #16
 376              	.LBE2:
 377 0104 FB60     		str	r3, [r7, #12]
  17:../../source/src/kernel/OS_LIB/insert_sort_oo.c **** 		if(insert_sort_entity_ptr->compare(buffer,data_ptr) > 0) // data_ptr<=buffer
 378              		.loc 2 17 0
 379 0106 3B68     		ldr	r3, [r7]
 380 0108 DB68     		ldr	r3, [r3, #12]
 381 010a 7968     		ldr	r1, [r7, #4]
 382 010c F868     		ldr	r0, [r7, #12]
 383 010e 9847     		blx	r3
 384              	.LVL0:
 385 0110 0346     		mov	r3, r0
 386 0112 002B     		cmp	r3, #0
 387 0114 14DD     		ble	.L12
  18:../../source/src/kernel/OS_LIB/insert_sort_oo.c **** 		{
  19:../../source/src/kernel/OS_LIB/insert_sort_oo.c **** 			/*insert it here*/
  20:../../source/src/kernel/OS_LIB/insert_sort_oo.c **** 			list_add_tail(&data_ptr->data_list,pos);
 388              		.loc 2 20 0
 389 0116 7B68     		ldr	r3, [r7, #4]
 390 0118 1033     		adds	r3, r3, #16
 391 011a 7969     		ldr	r1, [r7, #20]
 392 011c 1846     		mov	r0, r3
 393 011e FFF795FF 		bl	list_add_tail
  21:../../source/src/kernel/OS_LIB/insert_sort_oo.c **** 			++(insert_sort_entity_ptr->data_num);
 394              		.loc 2 21 0
 395 0122 3B68     		ldr	r3, [r7]
 396 0124 9B68     		ldr	r3, [r3, #8]
 397 0126 5A1C     		adds	r2, r3, #1
 398 0128 3B68     		ldr	r3, [r7]
 399 012a 9A60     		str	r2, [r3, #8]
  22:../../source/src/kernel/OS_LIB/insert_sort_oo.c **** 			ASSERT(insert_sort_entity_ptr->data_num > 0);
 400              		.loc 2 22 0
 401 012c 3B68     		ldr	r3, [r7]
 402 012e 9B68     		ldr	r3, [r3, #8]
ARM GAS  G:\Users\Jaxb\AppData\Local\Temp\ccOx8Th8.s 			page 10


 403 0130 002B     		cmp	r3, #0
 404 0132 03D1     		bne	.L13
 405              		.loc 2 22 0 is_stmt 0 discriminator 1
 406 0134 1621     		movs	r1, #22
 407 0136 1248     		ldr	r0, .L17
 408 0138 FFF7FEFF 		bl	_ASSERT
 409              	.L13:
  23:../../source/src/kernel/OS_LIB/insert_sort_oo.c **** 			return FUN_EXECUTE_SUCCESSFULLY;
 410              		.loc 2 23 0 is_stmt 1
 411 013c 0023     		movs	r3, #0
 412 013e 1AE0     		b	.L14
 413              	.L12:
  14:../../source/src/kernel/OS_LIB/insert_sort_oo.c **** 	{
 414              		.loc 2 14 0 discriminator 2
 415 0140 7B69     		ldr	r3, [r7, #20]
 416 0142 1B68     		ldr	r3, [r3]
 417 0144 7B61     		str	r3, [r7, #20]
 418              	.L11:
  14:../../source/src/kernel/OS_LIB/insert_sort_oo.c **** 	{
 419              		.loc 2 14 0 is_stmt 0 discriminator 1
 420 0146 3B68     		ldr	r3, [r7]
 421 0148 7A69     		ldr	r2, [r7, #20]
 422 014a 9A42     		cmp	r2, r3
 423 014c D6D1     		bne	.L15
  24:../../source/src/kernel/OS_LIB/insert_sort_oo.c **** 		}
  25:../../source/src/kernel/OS_LIB/insert_sort_oo.c **** 	}
  26:../../source/src/kernel/OS_LIB/insert_sort_oo.c **** 	/*insert it at the end*/
  27:../../source/src/kernel/OS_LIB/insert_sort_oo.c **** 	list_add_tail(&data_ptr->data_list,pos);
 424              		.loc 2 27 0 is_stmt 1
 425 014e 7B68     		ldr	r3, [r7, #4]
 426 0150 1033     		adds	r3, r3, #16
 427 0152 7969     		ldr	r1, [r7, #20]
 428 0154 1846     		mov	r0, r3
 429 0156 FFF779FF 		bl	list_add_tail
  28:../../source/src/kernel/OS_LIB/insert_sort_oo.c **** 	++(insert_sort_entity_ptr->data_num);
 430              		.loc 2 28 0
 431 015a 3B68     		ldr	r3, [r7]
 432 015c 9B68     		ldr	r3, [r3, #8]
 433 015e 5A1C     		adds	r2, r3, #1
 434 0160 3B68     		ldr	r3, [r7]
 435 0162 9A60     		str	r2, [r3, #8]
  29:../../source/src/kernel/OS_LIB/insert_sort_oo.c **** 	ASSERT(insert_sort_entity_ptr->data_num > 0);
 436              		.loc 2 29 0
 437 0164 3B68     		ldr	r3, [r7]
 438 0166 9B68     		ldr	r3, [r3, #8]
 439 0168 002B     		cmp	r3, #0
 440 016a 03D1     		bne	.L16
 441              		.loc 2 29 0 is_stmt 0 discriminator 1
 442 016c 1D21     		movs	r1, #29
 443 016e 0448     		ldr	r0, .L17
 444 0170 FFF7FEFF 		bl	_ASSERT
 445              	.L16:
  30:../../source/src/kernel/OS_LIB/insert_sort_oo.c **** 	return FUN_EXECUTE_SUCCESSFULLY;
 446              		.loc 2 30 0 is_stmt 1
 447 0174 0023     		movs	r3, #0
 448              	.L14:
  31:../../source/src/kernel/OS_LIB/insert_sort_oo.c **** }
ARM GAS  G:\Users\Jaxb\AppData\Local\Temp\ccOx8Th8.s 			page 11


 449              		.loc 2 31 0
 450 0176 1846     		mov	r0, r3
 451 0178 1837     		adds	r7, r7, #24
 452              	.LCFI37:
 453              		.cfi_def_cfa_offset 8
 454 017a BD46     		mov	sp, r7
 455              	.LCFI38:
 456              		.cfi_def_cfa_register 13
 457              		@ sp needed
 458 017c 80BD     		pop	{r7, pc}
 459              	.L18:
 460 017e 00BF     		.align	2
 461              	.L17:
 462 0180 00000000 		.word	.LC0
 463              		.cfi_endproc
 464              	.LFE10:
 465              		.size	insert_sort_insert_into, .-insert_sort_insert_into
 466              		.align	1
 467              		.global	insert_sort_find_data
 468              		.syntax unified
 469              		.thumb
 470              		.thumb_func
 471              		.fpu softvfp
 472              		.type	insert_sort_find_data, %function
 473              	insert_sort_find_data:
 474              	.LFB11:
  32:../../source/src/kernel/OS_LIB/insert_sort_oo.c **** 
  33:../../source/src/kernel/OS_LIB/insert_sort_oo.c **** /*if (*data_ptr) is found(no need to match id),return it's struct insert_sort_data's ptr
  34:../../source/src/kernel/OS_LIB/insert_sort_oo.c **** **else , return NULL*/
  35:../../source/src/kernel/OS_LIB/insert_sort_oo.c **** struct insert_sort_data * insert_sort_find_data(struct insert_sort_entity *insert_sort_entity_ptr,v
  36:../../source/src/kernel/OS_LIB/insert_sort_oo.c **** {
 475              		.loc 2 36 0
 476              		.cfi_startproc
 477              		@ args = 0, pretend = 0, frame = 24
 478              		@ frame_needed = 1, uses_anonymous_args = 0
 479 0184 80B5     		push	{r7, lr}
 480              	.LCFI39:
 481              		.cfi_def_cfa_offset 8
 482              		.cfi_offset 7, -8
 483              		.cfi_offset 14, -4
 484 0186 86B0     		sub	sp, sp, #24
 485              	.LCFI40:
 486              		.cfi_def_cfa_offset 32
 487 0188 00AF     		add	r7, sp, #0
 488              	.LCFI41:
 489              		.cfi_def_cfa_register 7
 490 018a 7860     		str	r0, [r7, #4]
 491 018c 3960     		str	r1, [r7]
  37:../../source/src/kernel/OS_LIB/insert_sort_oo.c **** 	ASSERT(NULL != data_ptr);
 492              		.loc 2 37 0
 493 018e 3B68     		ldr	r3, [r7]
 494 0190 002B     		cmp	r3, #0
 495 0192 03D1     		bne	.L20
 496              		.loc 2 37 0 is_stmt 0 discriminator 1
 497 0194 2521     		movs	r1, #37
 498 0196 1548     		ldr	r0, .L26
 499 0198 FFF7FEFF 		bl	_ASSERT
ARM GAS  G:\Users\Jaxb\AppData\Local\Temp\ccOx8Th8.s 			page 12


 500              	.L20:
  38:../../source/src/kernel/OS_LIB/insert_sort_oo.c **** 	ASSERT(NULL != insert_sort_entity_ptr);
 501              		.loc 2 38 0 is_stmt 1
 502 019c 7B68     		ldr	r3, [r7, #4]
 503 019e 002B     		cmp	r3, #0
 504 01a0 03D1     		bne	.L21
 505              		.loc 2 38 0 is_stmt 0 discriminator 1
 506 01a2 2621     		movs	r1, #38
 507 01a4 1148     		ldr	r0, .L26
 508 01a6 FFF7FEFF 		bl	_ASSERT
 509              	.L21:
  39:../../source/src/kernel/OS_LIB/insert_sort_oo.c **** 	struct list_head *pos;
  40:../../source/src/kernel/OS_LIB/insert_sort_oo.c **** 	struct insert_sort_data *buffer;
  41:../../source/src/kernel/OS_LIB/insert_sort_oo.c **** 	/*find from start to the end*/
  42:../../source/src/kernel/OS_LIB/insert_sort_oo.c **** 	list_for_each(pos,&insert_sort_entity_ptr->data_list_head)
 510              		.loc 2 42 0 is_stmt 1
 511 01aa 7B68     		ldr	r3, [r7, #4]
 512 01ac 1B68     		ldr	r3, [r3]
 513 01ae 7B61     		str	r3, [r7, #20]
 514 01b0 13E0     		b	.L22
 515              	.L25:
 516              	.LBB3:
  43:../../source/src/kernel/OS_LIB/insert_sort_oo.c **** 	{
  44:../../source/src/kernel/OS_LIB/insert_sort_oo.c **** 		buffer = list_entry(pos,struct insert_sort_data,data_list);
 517              		.loc 2 44 0
 518 01b2 7B69     		ldr	r3, [r7, #20]
 519 01b4 3B61     		str	r3, [r7, #16]
 520 01b6 3B69     		ldr	r3, [r7, #16]
 521 01b8 103B     		subs	r3, r3, #16
 522              	.LBE3:
 523 01ba FB60     		str	r3, [r7, #12]
  45:../../source/src/kernel/OS_LIB/insert_sort_oo.c **** 		if(0 == insert_sort_entity_ptr->value_cmp(buffer->data_ptr,data_ptr))
 524              		.loc 2 45 0
 525 01bc 7B68     		ldr	r3, [r7, #4]
 526 01be 5B69     		ldr	r3, [r3, #20]
 527 01c0 FA68     		ldr	r2, [r7, #12]
 528 01c2 1268     		ldr	r2, [r2]
 529 01c4 3968     		ldr	r1, [r7]
 530 01c6 1046     		mov	r0, r2
 531 01c8 9847     		blx	r3
 532              	.LVL1:
 533 01ca 0346     		mov	r3, r0
 534 01cc 002B     		cmp	r3, #0
 535 01ce 01D1     		bne	.L23
  46:../../source/src/kernel/OS_LIB/insert_sort_oo.c **** 		{
  47:../../source/src/kernel/OS_LIB/insert_sort_oo.c **** 			return buffer;
 536              		.loc 2 47 0
 537 01d0 FB68     		ldr	r3, [r7, #12]
 538 01d2 07E0     		b	.L24
 539              	.L23:
  42:../../source/src/kernel/OS_LIB/insert_sort_oo.c **** 	{
 540              		.loc 2 42 0 discriminator 2
 541 01d4 7B69     		ldr	r3, [r7, #20]
 542 01d6 1B68     		ldr	r3, [r3]
 543 01d8 7B61     		str	r3, [r7, #20]
 544              	.L22:
  42:../../source/src/kernel/OS_LIB/insert_sort_oo.c **** 	{
ARM GAS  G:\Users\Jaxb\AppData\Local\Temp\ccOx8Th8.s 			page 13


 545              		.loc 2 42 0 is_stmt 0 discriminator 1
 546 01da 7B68     		ldr	r3, [r7, #4]
 547 01dc 7A69     		ldr	r2, [r7, #20]
 548 01de 9A42     		cmp	r2, r3
 549 01e0 E7D1     		bne	.L25
  48:../../source/src/kernel/OS_LIB/insert_sort_oo.c **** 		}
  49:../../source/src/kernel/OS_LIB/insert_sort_oo.c **** 	}
  50:../../source/src/kernel/OS_LIB/insert_sort_oo.c **** 	return NULL;
 550              		.loc 2 50 0 is_stmt 1
 551 01e2 0023     		movs	r3, #0
 552              	.L24:
  51:../../source/src/kernel/OS_LIB/insert_sort_oo.c **** }
 553              		.loc 2 51 0
 554 01e4 1846     		mov	r0, r3
 555 01e6 1837     		adds	r7, r7, #24
 556              	.LCFI42:
 557              		.cfi_def_cfa_offset 8
 558 01e8 BD46     		mov	sp, r7
 559              	.LCFI43:
 560              		.cfi_def_cfa_register 13
 561              		@ sp needed
 562 01ea 80BD     		pop	{r7, pc}
 563              	.L27:
 564              		.align	2
 565              	.L26:
 566 01ec 00000000 		.word	.LC0
 567              		.cfi_endproc
 568              	.LFE11:
 569              		.size	insert_sort_find_data, .-insert_sort_find_data
 570              		.align	1
 571              		.global	insert_sort_find_data_with_id
 572              		.syntax unified
 573              		.thumb
 574              		.thumb_func
 575              		.fpu softvfp
 576              		.type	insert_sort_find_data_with_id, %function
 577              	insert_sort_find_data_with_id:
 578              	.LFB12:
  52:../../source/src/kernel/OS_LIB/insert_sort_oo.c **** 
  53:../../source/src/kernel/OS_LIB/insert_sort_oo.c **** /*the same function with insert_sort_find_data() but also match id*/
  54:../../source/src/kernel/OS_LIB/insert_sort_oo.c **** struct insert_sort_data * insert_sort_find_data_with_id(struct insert_sort_entity *insert_sort_enti
  55:../../source/src/kernel/OS_LIB/insert_sort_oo.c **** {
 579              		.loc 2 55 0
 580              		.cfi_startproc
 581              		@ args = 0, pretend = 0, frame = 32
 582              		@ frame_needed = 1, uses_anonymous_args = 0
 583 01f0 90B5     		push	{r4, r7, lr}
 584              	.LCFI44:
 585              		.cfi_def_cfa_offset 12
 586              		.cfi_offset 4, -12
 587              		.cfi_offset 7, -8
 588              		.cfi_offset 14, -4
 589 01f2 89B0     		sub	sp, sp, #36
 590              	.LCFI45:
 591              		.cfi_def_cfa_offset 48
 592 01f4 00AF     		add	r7, sp, #0
 593              	.LCFI46:
ARM GAS  G:\Users\Jaxb\AppData\Local\Temp\ccOx8Th8.s 			page 14


 594              		.cfi_def_cfa_register 7
 595 01f6 F860     		str	r0, [r7, #12]
 596 01f8 B960     		str	r1, [r7, #8]
 597 01fa C7E90023 		strd	r2, [r7]
  56:../../source/src/kernel/OS_LIB/insert_sort_oo.c **** 	ASSERT(NULL != data_ptr);
 598              		.loc 2 56 0
 599 01fe BB68     		ldr	r3, [r7, #8]
 600 0200 002B     		cmp	r3, #0
 601 0202 03D1     		bne	.L29
 602              		.loc 2 56 0 is_stmt 0 discriminator 1
 603 0204 3821     		movs	r1, #56
 604 0206 1B48     		ldr	r0, .L35
 605 0208 FFF7FEFF 		bl	_ASSERT
 606              	.L29:
  57:../../source/src/kernel/OS_LIB/insert_sort_oo.c **** 	ASSERT(NULL != insert_sort_entity_ptr);
 607              		.loc 2 57 0 is_stmt 1
 608 020c FB68     		ldr	r3, [r7, #12]
 609 020e 002B     		cmp	r3, #0
 610 0210 03D1     		bne	.L30
 611              		.loc 2 57 0 is_stmt 0 discriminator 1
 612 0212 3921     		movs	r1, #57
 613 0214 1748     		ldr	r0, .L35
 614 0216 FFF7FEFF 		bl	_ASSERT
 615              	.L30:
  58:../../source/src/kernel/OS_LIB/insert_sort_oo.c **** 	struct list_head *pos;
  59:../../source/src/kernel/OS_LIB/insert_sort_oo.c **** 	struct insert_sort_data *buffer;
  60:../../source/src/kernel/OS_LIB/insert_sort_oo.c **** 	list_for_each(pos,&insert_sort_entity_ptr->data_list_head)
 616              		.loc 2 60 0 is_stmt 1
 617 021a FB68     		ldr	r3, [r7, #12]
 618 021c 1B68     		ldr	r3, [r3]
 619 021e FB61     		str	r3, [r7, #28]
 620 0220 1EE0     		b	.L31
 621              	.L34:
 622              	.LBB4:
  61:../../source/src/kernel/OS_LIB/insert_sort_oo.c **** 	{
  62:../../source/src/kernel/OS_LIB/insert_sort_oo.c **** 		buffer = list_entry(pos,struct insert_sort_data,data_list);
 623              		.loc 2 62 0
 624 0222 FB69     		ldr	r3, [r7, #28]
 625 0224 BB61     		str	r3, [r7, #24]
 626 0226 BB69     		ldr	r3, [r7, #24]
 627 0228 103B     		subs	r3, r3, #16
 628              	.LBE4:
 629 022a 7B61     		str	r3, [r7, #20]
  63:../../source/src/kernel/OS_LIB/insert_sort_oo.c **** 		if((0 == insert_sort_entity_ptr->value_cmp(buffer->data_ptr,data_ptr)) && (buffer->identify_data 
 630              		.loc 2 63 0
 631 022c FB68     		ldr	r3, [r7, #12]
 632 022e 5B69     		ldr	r3, [r3, #20]
 633 0230 7A69     		ldr	r2, [r7, #20]
 634 0232 1268     		ldr	r2, [r2]
 635 0234 B968     		ldr	r1, [r7, #8]
 636 0236 1046     		mov	r0, r2
 637 0238 9847     		blx	r3
 638              	.LVL2:
 639 023a 0346     		mov	r3, r0
 640 023c 002B     		cmp	r3, #0
 641 023e 0CD1     		bne	.L32
 642              		.loc 2 63 0 is_stmt 0 discriminator 1
ARM GAS  G:\Users\Jaxb\AppData\Local\Temp\ccOx8Th8.s 			page 15


 643 0240 7B69     		ldr	r3, [r7, #20]
 644 0242 03F10804 		add	r4, r3, #8
 645 0246 D4E90034 		ldrd	r3, [r4]
 646 024a D7E90012 		ldrd	r1, [r7]
 647 024e A242     		cmp	r2, r4
 648 0250 08BF     		it	eq
 649 0252 9942     		cmpeq	r1, r3
 650 0254 01D1     		bne	.L32
  64:../../source/src/kernel/OS_LIB/insert_sort_oo.c **** 		{
  65:../../source/src/kernel/OS_LIB/insert_sort_oo.c **** 			return buffer;
 651              		.loc 2 65 0 is_stmt 1
 652 0256 7B69     		ldr	r3, [r7, #20]
 653 0258 07E0     		b	.L33
 654              	.L32:
  60:../../source/src/kernel/OS_LIB/insert_sort_oo.c **** 	{
 655              		.loc 2 60 0 discriminator 2
 656 025a FB69     		ldr	r3, [r7, #28]
 657 025c 1B68     		ldr	r3, [r3]
 658 025e FB61     		str	r3, [r7, #28]
 659              	.L31:
  60:../../source/src/kernel/OS_LIB/insert_sort_oo.c **** 	{
 660              		.loc 2 60 0 is_stmt 0 discriminator 1
 661 0260 FB68     		ldr	r3, [r7, #12]
 662 0262 FA69     		ldr	r2, [r7, #28]
 663 0264 9A42     		cmp	r2, r3
 664 0266 DCD1     		bne	.L34
  66:../../source/src/kernel/OS_LIB/insert_sort_oo.c **** 		}
  67:../../source/src/kernel/OS_LIB/insert_sort_oo.c **** 	}
  68:../../source/src/kernel/OS_LIB/insert_sort_oo.c **** 	return NULL;
 665              		.loc 2 68 0 is_stmt 1
 666 0268 0023     		movs	r3, #0
 667              	.L33:
  69:../../source/src/kernel/OS_LIB/insert_sort_oo.c **** }
 668              		.loc 2 69 0
 669 026a 1846     		mov	r0, r3
 670 026c 2437     		adds	r7, r7, #36
 671              	.LCFI47:
 672              		.cfi_def_cfa_offset 12
 673 026e BD46     		mov	sp, r7
 674              	.LCFI48:
 675              		.cfi_def_cfa_register 13
 676              		@ sp needed
 677 0270 90BD     		pop	{r4, r7, pc}
 678              	.L36:
 679 0272 00BF     		.align	2
 680              	.L35:
 681 0274 00000000 		.word	.LC0
 682              		.cfi_endproc
 683              	.LFE12:
 684              		.size	insert_sort_find_data_with_id, .-insert_sort_find_data_with_id
 685              		.align	1
 686              		.global	insert_sort_delete_head
 687              		.syntax unified
 688              		.thumb
 689              		.thumb_func
 690              		.fpu softvfp
 691              		.type	insert_sort_delete_head, %function
ARM GAS  G:\Users\Jaxb\AppData\Local\Temp\ccOx8Th8.s 			page 16


 692              	insert_sort_delete_head:
 693              	.LFB13:
  70:../../source/src/kernel/OS_LIB/insert_sort_oo.c **** 
  71:../../source/src/kernel/OS_LIB/insert_sort_oo.c **** /*remove the first(smallest) data from the list and return it's struct insert_sort_data's ptr
  72:../../source/src/kernel/OS_LIB/insert_sort_oo.c **** **if there is no data in the list , then return NULL*/
  73:../../source/src/kernel/OS_LIB/insert_sort_oo.c **** struct insert_sort_data * insert_sort_delete_head(struct insert_sort_entity *insert_sort_entity_ptr
  74:../../source/src/kernel/OS_LIB/insert_sort_oo.c **** {
 694              		.loc 2 74 0
 695              		.cfi_startproc
 696              		@ args = 0, pretend = 0, frame = 16
 697              		@ frame_needed = 1, uses_anonymous_args = 0
 698 0278 80B5     		push	{r7, lr}
 699              	.LCFI49:
 700              		.cfi_def_cfa_offset 8
 701              		.cfi_offset 7, -8
 702              		.cfi_offset 14, -4
 703 027a 84B0     		sub	sp, sp, #16
 704              	.LCFI50:
 705              		.cfi_def_cfa_offset 24
 706 027c 00AF     		add	r7, sp, #0
 707              	.LCFI51:
 708              		.cfi_def_cfa_register 7
 709 027e 7860     		str	r0, [r7, #4]
  75:../../source/src/kernel/OS_LIB/insert_sort_oo.c **** 	ASSERT(NULL != insert_sort_entity_ptr);
 710              		.loc 2 75 0
 711 0280 7B68     		ldr	r3, [r7, #4]
 712 0282 002B     		cmp	r3, #0
 713 0284 03D1     		bne	.L38
 714              		.loc 2 75 0 is_stmt 0 discriminator 1
 715 0286 4B21     		movs	r1, #75
 716 0288 1348     		ldr	r0, .L42
 717 028a FFF7FEFF 		bl	_ASSERT
 718              	.L38:
  76:../../source/src/kernel/OS_LIB/insert_sort_oo.c **** 	if(list_empty(&insert_sort_entity_ptr->data_list_head))
 719              		.loc 2 76 0 is_stmt 1
 720 028e 7B68     		ldr	r3, [r7, #4]
 721 0290 1846     		mov	r0, r3
 722 0292 FFF70BFF 		bl	list_empty
 723 0296 0346     		mov	r3, r0
 724 0298 002B     		cmp	r3, #0
 725 029a 01D0     		beq	.L39
  77:../../source/src/kernel/OS_LIB/insert_sort_oo.c **** 	{
  78:../../source/src/kernel/OS_LIB/insert_sort_oo.c **** 		return NULL;
 726              		.loc 2 78 0
 727 029c 0023     		movs	r3, #0
 728 029e 17E0     		b	.L40
 729              	.L39:
  79:../../source/src/kernel/OS_LIB/insert_sort_oo.c **** 	}
  80:../../source/src/kernel/OS_LIB/insert_sort_oo.c **** 	struct list_head *pos;
  81:../../source/src/kernel/OS_LIB/insert_sort_oo.c **** 	pos = insert_sort_entity_ptr->data_list_head.next;
 730              		.loc 2 81 0
 731 02a0 7B68     		ldr	r3, [r7, #4]
 732 02a2 1B68     		ldr	r3, [r3]
 733 02a4 FB60     		str	r3, [r7, #12]
  82:../../source/src/kernel/OS_LIB/insert_sort_oo.c **** 	list_del(pos);
 734              		.loc 2 82 0
 735 02a6 F868     		ldr	r0, [r7, #12]
ARM GAS  G:\Users\Jaxb\AppData\Local\Temp\ccOx8Th8.s 			page 17


 736 02a8 FFF7F0FE 		bl	list_del
  83:../../source/src/kernel/OS_LIB/insert_sort_oo.c **** 	ASSERT(insert_sort_entity_ptr->data_num > 0);
 737              		.loc 2 83 0
 738 02ac 7B68     		ldr	r3, [r7, #4]
 739 02ae 9B68     		ldr	r3, [r3, #8]
 740 02b0 002B     		cmp	r3, #0
 741 02b2 03D1     		bne	.L41
 742              		.loc 2 83 0 is_stmt 0 discriminator 1
 743 02b4 5321     		movs	r1, #83
 744 02b6 0848     		ldr	r0, .L42
 745 02b8 FFF7FEFF 		bl	_ASSERT
 746              	.L41:
  84:../../source/src/kernel/OS_LIB/insert_sort_oo.c **** 	--(insert_sort_entity_ptr->data_num);
 747              		.loc 2 84 0 is_stmt 1
 748 02bc 7B68     		ldr	r3, [r7, #4]
 749 02be 9B68     		ldr	r3, [r3, #8]
 750 02c0 5A1E     		subs	r2, r3, #1
 751 02c2 7B68     		ldr	r3, [r7, #4]
 752 02c4 9A60     		str	r2, [r3, #8]
 753              	.LBB5:
  85:../../source/src/kernel/OS_LIB/insert_sort_oo.c **** 	return list_entry(pos,struct insert_sort_data,data_list);
 754              		.loc 2 85 0
 755 02c6 FB68     		ldr	r3, [r7, #12]
 756 02c8 BB60     		str	r3, [r7, #8]
 757 02ca BB68     		ldr	r3, [r7, #8]
 758 02cc 103B     		subs	r3, r3, #16
 759              	.LBE5:
 760 02ce 00BF     		nop
 761              	.L40:
  86:../../source/src/kernel/OS_LIB/insert_sort_oo.c **** }
 762              		.loc 2 86 0
 763 02d0 1846     		mov	r0, r3
 764 02d2 1037     		adds	r7, r7, #16
 765              	.LCFI52:
 766              		.cfi_def_cfa_offset 8
 767 02d4 BD46     		mov	sp, r7
 768              	.LCFI53:
 769              		.cfi_def_cfa_register 13
 770              		@ sp needed
 771 02d6 80BD     		pop	{r7, pc}
 772              	.L43:
 773              		.align	2
 774              	.L42:
 775 02d8 00000000 		.word	.LC0
 776              		.cfi_endproc
 777              	.LFE13:
 778              		.size	insert_sort_delete_head, .-insert_sort_delete_head
 779              		.align	1
 780              		.global	insert_sort_delete_data
 781              		.syntax unified
 782              		.thumb
 783              		.thumb_func
 784              		.fpu softvfp
 785              		.type	insert_sort_delete_data, %function
 786              	insert_sort_delete_data:
 787              	.LFB14:
  87:../../source/src/kernel/OS_LIB/insert_sort_oo.c **** 
ARM GAS  G:\Users\Jaxb\AppData\Local\Temp\ccOx8Th8.s 			page 18


  88:../../source/src/kernel/OS_LIB/insert_sort_oo.c **** /*remove the data match value (*data_ptr) from the list and return it's struct insert_sort_data's p
  89:../../source/src/kernel/OS_LIB/insert_sort_oo.c **** **if there is no data matched , then return NULL*/
  90:../../source/src/kernel/OS_LIB/insert_sort_oo.c **** struct insert_sort_data * insert_sort_delete_data(struct insert_sort_entity *insert_sort_entity_ptr
  91:../../source/src/kernel/OS_LIB/insert_sort_oo.c **** {
 788              		.loc 2 91 0
 789              		.cfi_startproc
 790              		@ args = 0, pretend = 0, frame = 16
 791              		@ frame_needed = 1, uses_anonymous_args = 0
 792 02dc 80B5     		push	{r7, lr}
 793              	.LCFI54:
 794              		.cfi_def_cfa_offset 8
 795              		.cfi_offset 7, -8
 796              		.cfi_offset 14, -4
 797 02de 84B0     		sub	sp, sp, #16
 798              	.LCFI55:
 799              		.cfi_def_cfa_offset 24
 800 02e0 00AF     		add	r7, sp, #0
 801              	.LCFI56:
 802              		.cfi_def_cfa_register 7
 803 02e2 7860     		str	r0, [r7, #4]
 804 02e4 3960     		str	r1, [r7]
  92:../../source/src/kernel/OS_LIB/insert_sort_oo.c **** 	ASSERT(NULL != insert_sort_entity_ptr);
 805              		.loc 2 92 0
 806 02e6 7B68     		ldr	r3, [r7, #4]
 807 02e8 002B     		cmp	r3, #0
 808 02ea 03D1     		bne	.L45
 809              		.loc 2 92 0 is_stmt 0 discriminator 1
 810 02ec 5C21     		movs	r1, #92
 811 02ee 1248     		ldr	r0, .L49
 812 02f0 FFF7FEFF 		bl	_ASSERT
 813              	.L45:
  93:../../source/src/kernel/OS_LIB/insert_sort_oo.c **** 	struct insert_sort_data *buffer_ptr;
  94:../../source/src/kernel/OS_LIB/insert_sort_oo.c **** 	buffer_ptr = insert_sort_find_data(insert_sort_entity_ptr,data_ptr);
 814              		.loc 2 94 0 is_stmt 1
 815 02f4 3968     		ldr	r1, [r7]
 816 02f6 7868     		ldr	r0, [r7, #4]
 817 02f8 FFF7FEFF 		bl	insert_sort_find_data
 818 02fc F860     		str	r0, [r7, #12]
  95:../../source/src/kernel/OS_LIB/insert_sort_oo.c **** 	if(NULL == buffer_ptr)/*no such data*/
 819              		.loc 2 95 0
 820 02fe FB68     		ldr	r3, [r7, #12]
 821 0300 002B     		cmp	r3, #0
 822 0302 01D1     		bne	.L46
  96:../../source/src/kernel/OS_LIB/insert_sort_oo.c **** 	{
  97:../../source/src/kernel/OS_LIB/insert_sort_oo.c **** 		return NULL;
 823              		.loc 2 97 0
 824 0304 0023     		movs	r3, #0
 825 0306 12E0     		b	.L47
 826              	.L46:
  98:../../source/src/kernel/OS_LIB/insert_sort_oo.c **** 	}
  99:../../source/src/kernel/OS_LIB/insert_sort_oo.c **** 	else
 100:../../source/src/kernel/OS_LIB/insert_sort_oo.c **** 	{
 101:../../source/src/kernel/OS_LIB/insert_sort_oo.c **** 		list_del(&buffer_ptr->data_list);
 827              		.loc 2 101 0
 828 0308 FB68     		ldr	r3, [r7, #12]
 829 030a 1033     		adds	r3, r3, #16
 830 030c 1846     		mov	r0, r3
ARM GAS  G:\Users\Jaxb\AppData\Local\Temp\ccOx8Th8.s 			page 19


 831 030e FFF7BDFE 		bl	list_del
 102:../../source/src/kernel/OS_LIB/insert_sort_oo.c **** 		ASSERT(insert_sort_entity_ptr->data_num > 0);
 832              		.loc 2 102 0
 833 0312 7B68     		ldr	r3, [r7, #4]
 834 0314 9B68     		ldr	r3, [r3, #8]
 835 0316 002B     		cmp	r3, #0
 836 0318 03D1     		bne	.L48
 837              		.loc 2 102 0 is_stmt 0 discriminator 1
 838 031a 6621     		movs	r1, #102
 839 031c 0648     		ldr	r0, .L49
 840 031e FFF7FEFF 		bl	_ASSERT
 841              	.L48:
 103:../../source/src/kernel/OS_LIB/insert_sort_oo.c **** 		--(insert_sort_entity_ptr->data_num);
 842              		.loc 2 103 0 is_stmt 1
 843 0322 7B68     		ldr	r3, [r7, #4]
 844 0324 9B68     		ldr	r3, [r3, #8]
 845 0326 5A1E     		subs	r2, r3, #1
 846 0328 7B68     		ldr	r3, [r7, #4]
 847 032a 9A60     		str	r2, [r3, #8]
 104:../../source/src/kernel/OS_LIB/insert_sort_oo.c **** 		return buffer_ptr;
 848              		.loc 2 104 0
 849 032c FB68     		ldr	r3, [r7, #12]
 850              	.L47:
 105:../../source/src/kernel/OS_LIB/insert_sort_oo.c **** 	}
 106:../../source/src/kernel/OS_LIB/insert_sort_oo.c **** }
 851              		.loc 2 106 0
 852 032e 1846     		mov	r0, r3
 853 0330 1037     		adds	r7, r7, #16
 854              	.LCFI57:
 855              		.cfi_def_cfa_offset 8
 856 0332 BD46     		mov	sp, r7
 857              	.LCFI58:
 858              		.cfi_def_cfa_register 13
 859              		@ sp needed
 860 0334 80BD     		pop	{r7, pc}
 861              	.L50:
 862 0336 00BF     		.align	2
 863              	.L49:
 864 0338 00000000 		.word	.LC0
 865              		.cfi_endproc
 866              	.LFE14:
 867              		.size	insert_sort_delete_data, .-insert_sort_delete_data
 868              		.align	1
 869              		.global	insert_sort_delete_data_with_id
 870              		.syntax unified
 871              		.thumb
 872              		.thumb_func
 873              		.fpu softvfp
 874              		.type	insert_sort_delete_data_with_id, %function
 875              	insert_sort_delete_data_with_id:
 876              	.LFB15:
 107:../../source/src/kernel/OS_LIB/insert_sort_oo.c **** 
 108:../../source/src/kernel/OS_LIB/insert_sort_oo.c **** /*the same as function insert_sort_delete_data() but also match id*/
 109:../../source/src/kernel/OS_LIB/insert_sort_oo.c **** struct insert_sort_data * insert_sort_delete_data_with_id(
 110:../../source/src/kernel/OS_LIB/insert_sort_oo.c **** 	struct insert_sort_entity *insert_sort_entity_ptr,
 111:../../source/src/kernel/OS_LIB/insert_sort_oo.c **** 	void *data_ptr,
 112:../../source/src/kernel/OS_LIB/insert_sort_oo.c **** 	id_type identify_data)
ARM GAS  G:\Users\Jaxb\AppData\Local\Temp\ccOx8Th8.s 			page 20


 113:../../source/src/kernel/OS_LIB/insert_sort_oo.c **** {
 877              		.loc 2 113 0
 878              		.cfi_startproc
 879              		@ args = 0, pretend = 0, frame = 24
 880              		@ frame_needed = 1, uses_anonymous_args = 0
 881 033c 80B5     		push	{r7, lr}
 882              	.LCFI59:
 883              		.cfi_def_cfa_offset 8
 884              		.cfi_offset 7, -8
 885              		.cfi_offset 14, -4
 886 033e 86B0     		sub	sp, sp, #24
 887              	.LCFI60:
 888              		.cfi_def_cfa_offset 32
 889 0340 00AF     		add	r7, sp, #0
 890              	.LCFI61:
 891              		.cfi_def_cfa_register 7
 892 0342 F860     		str	r0, [r7, #12]
 893 0344 B960     		str	r1, [r7, #8]
 894 0346 C7E90023 		strd	r2, [r7]
 114:../../source/src/kernel/OS_LIB/insert_sort_oo.c **** 	ASSERT(NULL != insert_sort_entity_ptr);
 895              		.loc 2 114 0
 896 034a FB68     		ldr	r3, [r7, #12]
 897 034c 002B     		cmp	r3, #0
 898 034e 03D1     		bne	.L52
 899              		.loc 2 114 0 is_stmt 0 discriminator 1
 900 0350 7221     		movs	r1, #114
 901 0352 1348     		ldr	r0, .L56
 902 0354 FFF7FEFF 		bl	_ASSERT
 903              	.L52:
 115:../../source/src/kernel/OS_LIB/insert_sort_oo.c **** 	struct insert_sort_data *buffer_ptr;
 116:../../source/src/kernel/OS_LIB/insert_sort_oo.c **** 	buffer_ptr = insert_sort_find_data_with_id(insert_sort_entity_ptr,data_ptr,identify_data);
 904              		.loc 2 116 0 is_stmt 1
 905 0358 D7E90023 		ldrd	r2, [r7]
 906 035c B968     		ldr	r1, [r7, #8]
 907 035e F868     		ldr	r0, [r7, #12]
 908 0360 FFF7FEFF 		bl	insert_sort_find_data_with_id
 909 0364 7861     		str	r0, [r7, #20]
 117:../../source/src/kernel/OS_LIB/insert_sort_oo.c **** 	if(NULL == buffer_ptr)/*no such data*/
 910              		.loc 2 117 0
 911 0366 7B69     		ldr	r3, [r7, #20]
 912 0368 002B     		cmp	r3, #0
 913 036a 01D1     		bne	.L53
 118:../../source/src/kernel/OS_LIB/insert_sort_oo.c **** 	{
 119:../../source/src/kernel/OS_LIB/insert_sort_oo.c **** 		return NULL;
 914              		.loc 2 119 0
 915 036c 0023     		movs	r3, #0
 916 036e 12E0     		b	.L54
 917              	.L53:
 120:../../source/src/kernel/OS_LIB/insert_sort_oo.c **** 	}
 121:../../source/src/kernel/OS_LIB/insert_sort_oo.c **** 	else
 122:../../source/src/kernel/OS_LIB/insert_sort_oo.c **** 	{
 123:../../source/src/kernel/OS_LIB/insert_sort_oo.c **** 		list_del(&buffer_ptr->data_list);
 918              		.loc 2 123 0
 919 0370 7B69     		ldr	r3, [r7, #20]
 920 0372 1033     		adds	r3, r3, #16
 921 0374 1846     		mov	r0, r3
 922 0376 FFF789FE 		bl	list_del
ARM GAS  G:\Users\Jaxb\AppData\Local\Temp\ccOx8Th8.s 			page 21


 124:../../source/src/kernel/OS_LIB/insert_sort_oo.c **** 		ASSERT(insert_sort_entity_ptr->data_num > 0);
 923              		.loc 2 124 0
 924 037a FB68     		ldr	r3, [r7, #12]
 925 037c 9B68     		ldr	r3, [r3, #8]
 926 037e 002B     		cmp	r3, #0
 927 0380 03D1     		bne	.L55
 928              		.loc 2 124 0 is_stmt 0 discriminator 1
 929 0382 7C21     		movs	r1, #124
 930 0384 0648     		ldr	r0, .L56
 931 0386 FFF7FEFF 		bl	_ASSERT
 932              	.L55:
 125:../../source/src/kernel/OS_LIB/insert_sort_oo.c **** 		--(insert_sort_entity_ptr->data_num);
 933              		.loc 2 125 0 is_stmt 1
 934 038a FB68     		ldr	r3, [r7, #12]
 935 038c 9B68     		ldr	r3, [r3, #8]
 936 038e 5A1E     		subs	r2, r3, #1
 937 0390 FB68     		ldr	r3, [r7, #12]
 938 0392 9A60     		str	r2, [r3, #8]
 126:../../source/src/kernel/OS_LIB/insert_sort_oo.c **** 		return buffer_ptr;
 939              		.loc 2 126 0
 940 0394 7B69     		ldr	r3, [r7, #20]
 941              	.L54:
 127:../../source/src/kernel/OS_LIB/insert_sort_oo.c **** 	}
 128:../../source/src/kernel/OS_LIB/insert_sort_oo.c **** }
 942              		.loc 2 128 0
 943 0396 1846     		mov	r0, r3
 944 0398 1837     		adds	r7, r7, #24
 945              	.LCFI62:
 946              		.cfi_def_cfa_offset 8
 947 039a BD46     		mov	sp, r7
 948              	.LCFI63:
 949              		.cfi_def_cfa_register 13
 950              		@ sp needed
 951 039c 80BD     		pop	{r7, pc}
 952              	.L57:
 953 039e 00BF     		.align	2
 954              	.L56:
 955 03a0 00000000 		.word	.LC0
 956              		.cfi_endproc
 957              	.LFE15:
 958              		.size	insert_sort_delete_data_with_id, .-insert_sort_delete_data_with_id
 959              		.align	1
 960              		.global	init_insert_sort_data
 961              		.syntax unified
 962              		.thumb
 963              		.thumb_func
 964              		.fpu softvfp
 965              		.type	init_insert_sort_data, %function
 966              	init_insert_sort_data:
 967              	.LFB16:
 129:../../source/src/kernel/OS_LIB/insert_sort_oo.c **** 
 130:../../source/src/kernel/OS_LIB/insert_sort_oo.c **** /*initialize the struct insert_sort_data with data (*data_ptr)*/
 131:../../source/src/kernel/OS_LIB/insert_sort_oo.c **** void init_insert_sort_data(struct insert_sort_data *insert_sort_data_ptr,void *data_ptr)
 132:../../source/src/kernel/OS_LIB/insert_sort_oo.c **** {
 968              		.loc 2 132 0
 969              		.cfi_startproc
 970              		@ args = 0, pretend = 0, frame = 8
ARM GAS  G:\Users\Jaxb\AppData\Local\Temp\ccOx8Th8.s 			page 22


 971              		@ frame_needed = 1, uses_anonymous_args = 0
 972 03a4 80B5     		push	{r7, lr}
 973              	.LCFI64:
 974              		.cfi_def_cfa_offset 8
 975              		.cfi_offset 7, -8
 976              		.cfi_offset 14, -4
 977 03a6 82B0     		sub	sp, sp, #8
 978              	.LCFI65:
 979              		.cfi_def_cfa_offset 16
 980 03a8 00AF     		add	r7, sp, #0
 981              	.LCFI66:
 982              		.cfi_def_cfa_register 7
 983 03aa 7860     		str	r0, [r7, #4]
 984 03ac 3960     		str	r1, [r7]
 133:../../source/src/kernel/OS_LIB/insert_sort_oo.c **** 	ASSERT(NULL != insert_sort_data_ptr);
 985              		.loc 2 133 0
 986 03ae 7B68     		ldr	r3, [r7, #4]
 987 03b0 002B     		cmp	r3, #0
 988 03b2 03D1     		bne	.L59
 989              		.loc 2 133 0 is_stmt 0 discriminator 1
 990 03b4 8521     		movs	r1, #133
 991 03b6 0B48     		ldr	r0, .L61
 992 03b8 FFF7FEFF 		bl	_ASSERT
 993              	.L59:
 134:../../source/src/kernel/OS_LIB/insert_sort_oo.c **** 	ASSERT(NULL != data_ptr);
 994              		.loc 2 134 0 is_stmt 1
 995 03bc 3B68     		ldr	r3, [r7]
 996 03be 002B     		cmp	r3, #0
 997 03c0 03D1     		bne	.L60
 998              		.loc 2 134 0 is_stmt 0 discriminator 1
 999 03c2 8621     		movs	r1, #134
 1000 03c4 0748     		ldr	r0, .L61
 1001 03c6 FFF7FEFF 		bl	_ASSERT
 1002              	.L60:
 135:../../source/src/kernel/OS_LIB/insert_sort_oo.c **** 	insert_sort_data_ptr->data_ptr = data_ptr;
 1003              		.loc 2 135 0 is_stmt 1
 1004 03ca 7B68     		ldr	r3, [r7, #4]
 1005 03cc 3A68     		ldr	r2, [r7]
 1006 03ce 1A60     		str	r2, [r3]
 136:../../source/src/kernel/OS_LIB/insert_sort_oo.c **** 	INIT_LIST_HEAD(&insert_sort_data_ptr->data_list);
 1007              		.loc 2 136 0
 1008 03d0 7B68     		ldr	r3, [r7, #4]
 1009 03d2 1033     		adds	r3, r3, #16
 1010 03d4 1846     		mov	r0, r3
 1011 03d6 FFF713FE 		bl	INIT_LIST_HEAD
 137:../../source/src/kernel/OS_LIB/insert_sort_oo.c **** }
 1012              		.loc 2 137 0
 1013 03da 00BF     		nop
 1014 03dc 0837     		adds	r7, r7, #8
 1015              	.LCFI67:
 1016              		.cfi_def_cfa_offset 8
 1017 03de BD46     		mov	sp, r7
 1018              	.LCFI68:
 1019              		.cfi_def_cfa_register 13
 1020              		@ sp needed
 1021 03e0 80BD     		pop	{r7, pc}
 1022              	.L62:
ARM GAS  G:\Users\Jaxb\AppData\Local\Temp\ccOx8Th8.s 			page 23


 1023 03e2 00BF     		.align	2
 1024              	.L61:
 1025 03e4 00000000 		.word	.LC0
 1026              		.cfi_endproc
 1027              	.LFE16:
 1028              		.size	init_insert_sort_data, .-init_insert_sort_data
 1029              		.align	1
 1030              		.global	init_insert_sort_data_with_id
 1031              		.syntax unified
 1032              		.thumb
 1033              		.thumb_func
 1034              		.fpu softvfp
 1035              		.type	init_insert_sort_data_with_id, %function
 1036              	init_insert_sort_data_with_id:
 1037              	.LFB17:
 138:../../source/src/kernel/OS_LIB/insert_sort_oo.c **** 
 139:../../source/src/kernel/OS_LIB/insert_sort_oo.c **** /*initialize the struct insert_sort_data with data (*data_ptr) and id*/
 140:../../source/src/kernel/OS_LIB/insert_sort_oo.c **** void init_insert_sort_data_with_id(struct insert_sort_data *insert_sort_data_ptr,void *data_ptr,id_
 141:../../source/src/kernel/OS_LIB/insert_sort_oo.c **** {
 1038              		.loc 2 141 0
 1039              		.cfi_startproc
 1040              		@ args = 0, pretend = 0, frame = 16
 1041              		@ frame_needed = 1, uses_anonymous_args = 0
 1042 03e8 90B5     		push	{r4, r7, lr}
 1043              	.LCFI69:
 1044              		.cfi_def_cfa_offset 12
 1045              		.cfi_offset 4, -12
 1046              		.cfi_offset 7, -8
 1047              		.cfi_offset 14, -4
 1048 03ea 85B0     		sub	sp, sp, #20
 1049              	.LCFI70:
 1050              		.cfi_def_cfa_offset 32
 1051 03ec 00AF     		add	r7, sp, #0
 1052              	.LCFI71:
 1053              		.cfi_def_cfa_register 7
 1054 03ee F860     		str	r0, [r7, #12]
 1055 03f0 B960     		str	r1, [r7, #8]
 1056 03f2 C7E90023 		strd	r2, [r7]
 142:../../source/src/kernel/OS_LIB/insert_sort_oo.c **** 	init_insert_sort_data(insert_sort_data_ptr,data_ptr);
 1057              		.loc 2 142 0
 1058 03f6 B968     		ldr	r1, [r7, #8]
 1059 03f8 F868     		ldr	r0, [r7, #12]
 1060 03fa FFF7FEFF 		bl	init_insert_sort_data
 143:../../source/src/kernel/OS_LIB/insert_sort_oo.c **** 	insert_sort_data_ptr->identify_data = identify_data;
 1061              		.loc 2 143 0
 1062 03fe FA68     		ldr	r2, [r7, #12]
 1063 0400 D7E90034 		ldrd	r3, [r7]
 1064 0404 C2E90234 		strd	r3, [r2, #8]
 144:../../source/src/kernel/OS_LIB/insert_sort_oo.c **** }
 1065              		.loc 2 144 0
 1066 0408 00BF     		nop
 1067 040a 1437     		adds	r7, r7, #20
 1068              	.LCFI72:
 1069              		.cfi_def_cfa_offset 12
 1070 040c BD46     		mov	sp, r7
 1071              	.LCFI73:
 1072              		.cfi_def_cfa_register 13
ARM GAS  G:\Users\Jaxb\AppData\Local\Temp\ccOx8Th8.s 			page 24


 1073              		@ sp needed
 1074 040e 90BD     		pop	{r4, r7, pc}
 1075              		.cfi_endproc
 1076              	.LFE17:
 1077              		.size	init_insert_sort_data_with_id, .-init_insert_sort_data_with_id
 1078              		.align	1
 1079              		.global	init_insert_sort_entity
 1080              		.syntax unified
 1081              		.thumb
 1082              		.thumb_func
 1083              		.fpu softvfp
 1084              		.type	init_insert_sort_entity, %function
 1085              	init_insert_sort_entity:
 1086              	.LFB18:
 145:../../source/src/kernel/OS_LIB/insert_sort_oo.c **** 
 146:../../source/src/kernel/OS_LIB/insert_sort_oo.c **** /*initialize the struct insert_sort_entity*/
 147:../../source/src/kernel/OS_LIB/insert_sort_oo.c **** /*user have to realize three funtion in the following parameter*/
 148:../../source/src/kernel/OS_LIB/insert_sort_oo.c **** int init_insert_sort_entity(
 149:../../source/src/kernel/OS_LIB/insert_sort_oo.c **** 	struct insert_sort_entity *insert_sort_entity_ptr,
 150:../../source/src/kernel/OS_LIB/insert_sort_oo.c **** 	int (*compare)(struct insert_sort_data *data1,struct insert_sort_data *data2),
 151:../../source/src/kernel/OS_LIB/insert_sort_oo.c **** 	int (*get_data_ptr)(struct insert_sort_data *insert_sort_data_ptrm,void *data_ptr),
 152:../../source/src/kernel/OS_LIB/insert_sort_oo.c **** 	int (*value_cmp)(void *data1,void *data2)
 153:../../source/src/kernel/OS_LIB/insert_sort_oo.c **** )
 154:../../source/src/kernel/OS_LIB/insert_sort_oo.c **** {
 1087              		.loc 2 154 0
 1088              		.cfi_startproc
 1089              		@ args = 0, pretend = 0, frame = 16
 1090              		@ frame_needed = 1, uses_anonymous_args = 0
 1091 0410 80B5     		push	{r7, lr}
 1092              	.LCFI74:
 1093              		.cfi_def_cfa_offset 8
 1094              		.cfi_offset 7, -8
 1095              		.cfi_offset 14, -4
 1096 0412 84B0     		sub	sp, sp, #16
 1097              	.LCFI75:
 1098              		.cfi_def_cfa_offset 24
 1099 0414 00AF     		add	r7, sp, #0
 1100              	.LCFI76:
 1101              		.cfi_def_cfa_register 7
 1102 0416 F860     		str	r0, [r7, #12]
 1103 0418 B960     		str	r1, [r7, #8]
 1104 041a 7A60     		str	r2, [r7, #4]
 1105 041c 3B60     		str	r3, [r7]
 155:../../source/src/kernel/OS_LIB/insert_sort_oo.c **** 	ASSERT(NULL != insert_sort_entity_ptr);
 1106              		.loc 2 155 0
 1107 041e FB68     		ldr	r3, [r7, #12]
 1108 0420 002B     		cmp	r3, #0
 1109 0422 03D1     		bne	.L65
 1110              		.loc 2 155 0 is_stmt 0 discriminator 1
 1111 0424 9B21     		movs	r1, #155
 1112 0426 0C48     		ldr	r0, .L67
 1113 0428 FFF7FEFF 		bl	_ASSERT
 1114              	.L65:
 156:../../source/src/kernel/OS_LIB/insert_sort_oo.c **** PRIVATE
 157:../../source/src/kernel/OS_LIB/insert_sort_oo.c **** 	insert_sort_entity_ptr->data_num             = 0;
 1115              		.loc 2 157 0 is_stmt 1
 1116 042c FB68     		ldr	r3, [r7, #12]
ARM GAS  G:\Users\Jaxb\AppData\Local\Temp\ccOx8Th8.s 			page 25


 1117 042e 0022     		movs	r2, #0
 1118 0430 9A60     		str	r2, [r3, #8]
 158:../../source/src/kernel/OS_LIB/insert_sort_oo.c **** 	insert_sort_entity_ptr->compare              = compare;
 1119              		.loc 2 158 0
 1120 0432 FB68     		ldr	r3, [r7, #12]
 1121 0434 BA68     		ldr	r2, [r7, #8]
 1122 0436 DA60     		str	r2, [r3, #12]
 159:../../source/src/kernel/OS_LIB/insert_sort_oo.c **** 	insert_sort_entity_ptr->get_data_ptr         = get_data_ptr;
 1123              		.loc 2 159 0
 1124 0438 FB68     		ldr	r3, [r7, #12]
 1125 043a 7A68     		ldr	r2, [r7, #4]
 1126 043c 1A61     		str	r2, [r3, #16]
 160:../../source/src/kernel/OS_LIB/insert_sort_oo.c **** 	insert_sort_entity_ptr->value_cmp            = value_cmp;
 1127              		.loc 2 160 0
 1128 043e FB68     		ldr	r3, [r7, #12]
 1129 0440 3A68     		ldr	r2, [r7]
 1130 0442 5A61     		str	r2, [r3, #20]
 161:../../source/src/kernel/OS_LIB/insert_sort_oo.c **** 	INIT_LIST_HEAD(&insert_sort_entity_ptr->data_list_head);
 1131              		.loc 2 161 0
 1132 0444 FB68     		ldr	r3, [r7, #12]
 1133 0446 1846     		mov	r0, r3
 1134 0448 FFF7DAFD 		bl	INIT_LIST_HEAD
 162:../../source/src/kernel/OS_LIB/insert_sort_oo.c **** 	return FUN_EXECUTE_SUCCESSFULLY;
 1135              		.loc 2 162 0
 1136 044c 0023     		movs	r3, #0
 163:../../source/src/kernel/OS_LIB/insert_sort_oo.c **** }
 1137              		.loc 2 163 0
 1138 044e 1846     		mov	r0, r3
 1139 0450 1037     		adds	r7, r7, #16
 1140              	.LCFI77:
 1141              		.cfi_def_cfa_offset 8
 1142 0452 BD46     		mov	sp, r7
 1143              	.LCFI78:
 1144              		.cfi_def_cfa_register 13
 1145              		@ sp needed
 1146 0454 80BD     		pop	{r7, pc}
 1147              	.L68:
 1148 0456 00BF     		.align	2
 1149              	.L67:
 1150 0458 00000000 		.word	.LC0
 1151              		.cfi_endproc
 1152              	.LFE18:
 1153              		.size	init_insert_sort_entity, .-init_insert_sort_entity
 1154              		.align	1
 1155              		.global	insert_sort_get_first_data_ptr
 1156              		.syntax unified
 1157              		.thumb
 1158              		.thumb_func
 1159              		.fpu softvfp
 1160              		.type	insert_sort_get_first_data_ptr, %function
 1161              	insert_sort_get_first_data_ptr:
 1162              	.LFB19:
 164:../../source/src/kernel/OS_LIB/insert_sort_oo.c **** 
 165:../../source/src/kernel/OS_LIB/insert_sort_oo.c **** 
 166:../../source/src/kernel/OS_LIB/insert_sort_oo.c **** struct insert_sort_data * insert_sort_get_first_data_ptr(struct insert_sort_entity *insert_sort_ent
 167:../../source/src/kernel/OS_LIB/insert_sort_oo.c **** {
 1163              		.loc 2 167 0
ARM GAS  G:\Users\Jaxb\AppData\Local\Temp\ccOx8Th8.s 			page 26


 1164              		.cfi_startproc
 1165              		@ args = 0, pretend = 0, frame = 16
 1166              		@ frame_needed = 1, uses_anonymous_args = 0
 1167 045c 80B5     		push	{r7, lr}
 1168              	.LCFI79:
 1169              		.cfi_def_cfa_offset 8
 1170              		.cfi_offset 7, -8
 1171              		.cfi_offset 14, -4
 1172 045e 84B0     		sub	sp, sp, #16
 1173              	.LCFI80:
 1174              		.cfi_def_cfa_offset 24
 1175 0460 00AF     		add	r7, sp, #0
 1176              	.LCFI81:
 1177              		.cfi_def_cfa_register 7
 1178 0462 7860     		str	r0, [r7, #4]
 168:../../source/src/kernel/OS_LIB/insert_sort_oo.c **** 	ASSERT(NULL != insert_sort_entity_ptr);
 1179              		.loc 2 168 0
 1180 0464 7B68     		ldr	r3, [r7, #4]
 1181 0466 002B     		cmp	r3, #0
 1182 0468 03D1     		bne	.L70
 1183              		.loc 2 168 0 is_stmt 0 discriminator 1
 1184 046a A821     		movs	r1, #168
 1185 046c 0A48     		ldr	r0, .L73
 1186 046e FFF7FEFF 		bl	_ASSERT
 1187              	.L70:
 169:../../source/src/kernel/OS_LIB/insert_sort_oo.c **** 	if(list_empty(&insert_sort_entity_ptr->data_list_head))
 1188              		.loc 2 169 0 is_stmt 1
 1189 0472 7B68     		ldr	r3, [r7, #4]
 1190 0474 1846     		mov	r0, r3
 1191 0476 FFF719FE 		bl	list_empty
 1192 047a 0346     		mov	r3, r0
 1193 047c 002B     		cmp	r3, #0
 1194 047e 01D0     		beq	.L71
 170:../../source/src/kernel/OS_LIB/insert_sort_oo.c **** 	{
 171:../../source/src/kernel/OS_LIB/insert_sort_oo.c **** 		return NULL;
 1195              		.loc 2 171 0
 1196 0480 0023     		movs	r3, #0
 1197 0482 05E0     		b	.L72
 1198              	.L71:
 1199              	.LBB6:
 172:../../source/src/kernel/OS_LIB/insert_sort_oo.c **** 	}
 173:../../source/src/kernel/OS_LIB/insert_sort_oo.c **** 	return list_entry(insert_sort_entity_ptr->data_list_head.next,struct insert_sort_data,data_list);
 1200              		.loc 2 173 0
 1201 0484 7B68     		ldr	r3, [r7, #4]
 1202 0486 1B68     		ldr	r3, [r3]
 1203 0488 FB60     		str	r3, [r7, #12]
 1204 048a FB68     		ldr	r3, [r7, #12]
 1205 048c 103B     		subs	r3, r3, #16
 1206              	.LBE6:
 1207 048e 00BF     		nop
 1208              	.L72:
 174:../../source/src/kernel/OS_LIB/insert_sort_oo.c **** }
 1209              		.loc 2 174 0
 1210 0490 1846     		mov	r0, r3
 1211 0492 1037     		adds	r7, r7, #16
 1212              	.LCFI82:
 1213              		.cfi_def_cfa_offset 8
ARM GAS  G:\Users\Jaxb\AppData\Local\Temp\ccOx8Th8.s 			page 27


 1214 0494 BD46     		mov	sp, r7
 1215              	.LCFI83:
 1216              		.cfi_def_cfa_register 13
 1217              		@ sp needed
 1218 0496 80BD     		pop	{r7, pc}
 1219              	.L74:
 1220              		.align	2
 1221              	.L73:
 1222 0498 00000000 		.word	.LC0
 1223              		.cfi_endproc
 1224              	.LFE19:
 1225              		.size	insert_sort_get_first_data_ptr, .-insert_sort_get_first_data_ptr
 1226              	.Letext0:
 1227              		.file 3 "../../source/include/os_cpu/kakaosstdint.h"
 1228              		.file 4 "../../source/include/os_lib/insert_sort_oo.h"