ARM GAS  G:\Users\Jaxb\AppData\Local\Temp\ccLceCCb.s 			page 1


   1              		.cpu cortex-m3
   2              		.eabi_attribute 20, 1
   3              		.eabi_attribute 21, 1
   4              		.eabi_attribute 23, 3
   5              		.eabi_attribute 24, 1
   6              		.eabi_attribute 25, 1
   7              		.eabi_attribute 26, 1
   8              		.eabi_attribute 30, 2
   9              		.eabi_attribute 34, 1
  10              		.eabi_attribute 18, 4
  11              		.file	"malloc.c"
  12              		.text
  13              	.Ltext0:
  14              		.cfi_sections	.debug_frame
  15              		.align	1
  16              		.p2align 2,,3
  17              		.syntax unified
  18              		.thumb
  19              		.thumb_func
  20              		.fpu softvfp
  21              		.type	free_find_in_slab_chain, %function
  22              	free_find_in_slab_chain:
  23              	.LFB21:
  24              		.file 1 "../../source/src/user/OS_LIB/malloc.c"
   1:../../source/src/user/OS_LIB/malloc.c **** #include <myMicroLIB.h>
   2:../../source/src/user/OS_LIB/malloc.c **** #include <slab.h>
   3:../../source/src/user/OS_LIB/malloc.c **** #include <buddy.h>
   4:../../source/src/user/OS_LIB/malloc.c **** #include <myassert.h>
   5:../../source/src/user/OS_LIB/malloc.c **** #include <os_cpu.h>
   6:../../source/src/user/OS_LIB/malloc.c **** #include <TCB.h>
   7:../../source/src/user/OS_LIB/malloc.c **** 
   8:../../source/src/user/OS_LIB/malloc.c **** extern int in_buddy_range(void *ptr);
   9:../../source/src/user/OS_LIB/malloc.c **** extern void _case_slab_free_buddy(void *ptr,void *end_ptr);
  10:../../source/src/user/OS_LIB/malloc.c **** 
  11:../../source/src/user/OS_LIB/malloc.c **** static struct list_head cache_chain_head;
  12:../../source/src/user/OS_LIB/malloc.c **** static struct kmem_cache kmem_cache16;
  13:../../source/src/user/OS_LIB/malloc.c **** static struct kmem_cache kmem_cache32;
  14:../../source/src/user/OS_LIB/malloc.c **** static struct kmem_cache kmem_cache_kmem_cache;
  15:../../source/src/user/OS_LIB/malloc.c **** static struct kmem_cache kmem_cache_TCB;
  16:../../source/src/user/OS_LIB/malloc.c **** struct list_head *const cache_chain_head_ptr = &cache_chain_head;
  17:../../source/src/user/OS_LIB/malloc.c **** 
  18:../../source/src/user/OS_LIB/malloc.c **** static struct singly_list_head page_alloc_record_head;
  19:../../source/src/user/OS_LIB/malloc.c **** 
  20:../../source/src/user/OS_LIB/malloc.c **** void dis_page_alloc_record(void)
  21:../../source/src/user/OS_LIB/malloc.c **** {
  22:../../source/src/user/OS_LIB/malloc.c **** 	unsigned int i = 0;
  23:../../source/src/user/OS_LIB/malloc.c **** 	struct singly_list_head *pos;
  24:../../source/src/user/OS_LIB/malloc.c **** 	struct page_alloc_record *record_ptr;
  25:../../source/src/user/OS_LIB/malloc.c **** 	singly_list_for_each(pos,&page_alloc_record_head)
  26:../../source/src/user/OS_LIB/malloc.c **** 	{
  27:../../source/src/user/OS_LIB/malloc.c **** 		record_ptr = singly_list_entry(pos,struct page_alloc_record,list);
  28:../../source/src/user/OS_LIB/malloc.c **** 		ka_printf("num.%u\n",++i);
  29:../../source/src/user/OS_LIB/malloc.c **** 		ka_printf("level is %u\n",record_ptr->level);
  30:../../source/src/user/OS_LIB/malloc.c **** 		ka_printf("address is %p\n",record_ptr->ptr);
  31:../../source/src/user/OS_LIB/malloc.c **** 	}
  32:../../source/src/user/OS_LIB/malloc.c **** }
  33:../../source/src/user/OS_LIB/malloc.c **** 
ARM GAS  G:\Users\Jaxb\AppData\Local\Temp\ccLceCCb.s 			page 2


  34:../../source/src/user/OS_LIB/malloc.c **** static int add_page_alloc_record(unsigned int level,void *ptr)
  35:../../source/src/user/OS_LIB/malloc.c **** {
  36:../../source/src/user/OS_LIB/malloc.c **** 	struct page_alloc_record *recoed_ptr = (struct page_alloc_record *)ka_malloc(sizeof(struct page_al
  37:../../source/src/user/OS_LIB/malloc.c **** 	if(NULL == recoed_ptr)
  38:../../source/src/user/OS_LIB/malloc.c **** 	{
  39:../../source/src/user/OS_LIB/malloc.c **** 		return -1;
  40:../../source/src/user/OS_LIB/malloc.c **** 	}
  41:../../source/src/user/OS_LIB/malloc.c **** 	recoed_ptr->level = level;
  42:../../source/src/user/OS_LIB/malloc.c **** 	recoed_ptr->ptr = ptr;
  43:../../source/src/user/OS_LIB/malloc.c **** 	singly_list_add(&recoed_ptr->list,&page_alloc_record_head);
  44:../../source/src/user/OS_LIB/malloc.c **** 	return FUN_EXECUTE_SUCCESSFULLY;
  45:../../source/src/user/OS_LIB/malloc.c **** }
  46:../../source/src/user/OS_LIB/malloc.c **** 
  47:../../source/src/user/OS_LIB/malloc.c **** //static void copy_data(struct singly_list_head *from,struct singly_list_head *to)
  48:../../source/src/user/OS_LIB/malloc.c **** //{
  49:../../source/src/user/OS_LIB/malloc.c **** //	struct page_alloc_record *record_ptr1 = singly_list_entry(from,struct page_alloc_record,list);
  50:../../source/src/user/OS_LIB/malloc.c **** //	struct page_alloc_record *record_ptr2 = singly_list_entry(to,struct page_alloc_record,list);
  51:../../source/src/user/OS_LIB/malloc.c **** //	record_ptr2->level = record_ptr1->level;
  52:../../source/src/user/OS_LIB/malloc.c **** //	record_ptr2->ptr = record_ptr1->ptr;
  53:../../source/src/user/OS_LIB/malloc.c **** //}
  54:../../source/src/user/OS_LIB/malloc.c **** 
  55:../../source/src/user/OS_LIB/malloc.c **** static int find_and_remove_record(void *ptr)
  56:../../source/src/user/OS_LIB/malloc.c **** {
  57:../../source/src/user/OS_LIB/malloc.c **** 	struct singly_list_head *pos;
  58:../../source/src/user/OS_LIB/malloc.c **** 	struct page_alloc_record *record_ptr; 
  59:../../source/src/user/OS_LIB/malloc.c **** 	singly_list_for_each(pos,&page_alloc_record_head)
  60:../../source/src/user/OS_LIB/malloc.c **** 	{
  61:../../source/src/user/OS_LIB/malloc.c **** 		record_ptr = singly_list_entry(pos,struct page_alloc_record,list);
  62:../../source/src/user/OS_LIB/malloc.c **** 		if(record_ptr->ptr == ptr)
  63:../../source/src/user/OS_LIB/malloc.c **** 		{
  64:../../source/src/user/OS_LIB/malloc.c **** 			_case_slab_free_buddy(ptr,(void *)((unsigned int)ptr + ka_pow(2,record_ptr->level-1) * PAGE_SIZE
  65:../../source/src/user/OS_LIB/malloc.c **** 			singly_list_del_safe(&page_alloc_record_head,pos);
  66:../../source/src/user/OS_LIB/malloc.c **** 			ka_free(record_ptr);
  67:../../source/src/user/OS_LIB/malloc.c **** 			return FUN_EXECUTE_SUCCESSFULLY;
  68:../../source/src/user/OS_LIB/malloc.c **** 		}
  69:../../source/src/user/OS_LIB/malloc.c **** 	}
  70:../../source/src/user/OS_LIB/malloc.c **** 	return -1;
  71:../../source/src/user/OS_LIB/malloc.c **** }
  72:../../source/src/user/OS_LIB/malloc.c **** 
  73:../../source/src/user/OS_LIB/malloc.c **** void init_malloc(void)
  74:../../source/src/user/OS_LIB/malloc.c **** {
  75:../../source/src/user/OS_LIB/malloc.c **** 	INIT_LIST_HEAD(&cache_chain_head);
  76:../../source/src/user/OS_LIB/malloc.c **** 	insert_into_cache_chain(&cache_chain_head,&kmem_cache_TCB,sizeof(TCB));
  77:../../source/src/user/OS_LIB/malloc.c **** 	insert_into_cache_chain(&cache_chain_head,&kmem_cache_kmem_cache,sizeof(struct kmem_cache));
  78:../../source/src/user/OS_LIB/malloc.c **** 	insert_into_cache_chain(&cache_chain_head,&kmem_cache32,32);
  79:../../source/src/user/OS_LIB/malloc.c **** 	insert_into_cache_chain(&cache_chain_head,&kmem_cache16,16);
  80:../../source/src/user/OS_LIB/malloc.c **** 	INIT_SINGLY_LIST_HEAD(&page_alloc_record_head);
  81:../../source/src/user/OS_LIB/malloc.c **** }
  82:../../source/src/user/OS_LIB/malloc.c **** /**
  83:../../source/src/user/OS_LIB/malloc.c ****  * This is a system function
  84:../../source/src/user/OS_LIB/malloc.c ****  * @Author      kaka
  85:../../source/src/user/OS_LIB/malloc.c ****  * @param       the num witch will be get the higest "1"
  86:../../source/src/user/OS_LIB/malloc.c ****  * @DateTime    2018-09-26
  87:../../source/src/user/OS_LIB/malloc.c ****  * @description :
  88:../../source/src/user/OS_LIB/malloc.c ****  * @param       num        [description]
  89:../../source/src/user/OS_LIB/malloc.c ****  * @return      the higest "1" position
  90:../../source/src/user/OS_LIB/malloc.c ****  */
ARM GAS  G:\Users\Jaxb\AppData\Local\Temp\ccLceCCb.s 			page 3


  91:../../source/src/user/OS_LIB/malloc.c **** int get_set_bit_place(unsigned int num)
  92:../../source/src/user/OS_LIB/malloc.c **** {
  93:../../source/src/user/OS_LIB/malloc.c **** 	int n=1;
  94:../../source/src/user/OS_LIB/malloc.c ****     if(num==0) return -1;
  95:../../source/src/user/OS_LIB/malloc.c ****     if ((num>>16) == 0) {n = n+16; num = num<<16;}
  96:../../source/src/user/OS_LIB/malloc.c ****     if ((num>>24) == 0) {n = n+8; num = num<<8;}
  97:../../source/src/user/OS_LIB/malloc.c ****     if ((num>>28) == 0) {n = n+4; num = num<<4;}
  98:../../source/src/user/OS_LIB/malloc.c ****     if ((num>>30) == 0) {n = n+2; num = num<<2;}
  99:../../source/src/user/OS_LIB/malloc.c ****     n = n-(num>>31);
 100:../../source/src/user/OS_LIB/malloc.c ****     return 31-n;
 101:../../source/src/user/OS_LIB/malloc.c **** }
 102:../../source/src/user/OS_LIB/malloc.c **** 
 103:../../source/src/user/OS_LIB/malloc.c **** static void *_case_alloc_buddy(unsigned int level)
 104:../../source/src/user/OS_LIB/malloc.c **** {
 105:../../source/src/user/OS_LIB/malloc.c **** 	struct slab *slab_ptr;
 106:../../source/src/user/OS_LIB/malloc.c **** 	struct buddy *buddy_ptr = (struct buddy *)get_os_buddy_ptr_head();
 107:../../source/src/user/OS_LIB/malloc.c **** 	ASSERT(NULL != buddy_ptr);
 108:../../source/src/user/OS_LIB/malloc.c **** 	while(NULL != buddy_ptr)
 109:../../source/src/user/OS_LIB/malloc.c **** 	{
 110:../../source/src/user/OS_LIB/malloc.c **** 		if(buddy_ptr->info.max_level < level)
 111:../../source/src/user/OS_LIB/malloc.c **** 		{
 112:../../source/src/user/OS_LIB/malloc.c **** 			buddy_ptr = (struct buddy *)get_next_buddy_ptr_head(buddy_ptr);
 113:../../source/src/user/OS_LIB/malloc.c **** 			continue;
 114:../../source/src/user/OS_LIB/malloc.c **** 		}
 115:../../source/src/user/OS_LIB/malloc.c **** 		switch(level)
 116:../../source/src/user/OS_LIB/malloc.c **** 		{
 117:../../source/src/user/OS_LIB/malloc.c **** 			case 1 :
 118:../../source/src/user/OS_LIB/malloc.c **** 				slab_ptr = (struct slab *)alloc_power1_page();
 119:../../source/src/user/OS_LIB/malloc.c **** 				if(NULL == slab_ptr)
 120:../../source/src/user/OS_LIB/malloc.c **** 				{
 121:../../source/src/user/OS_LIB/malloc.c **** 					buddy_ptr = (struct buddy *)get_next_buddy_ptr_head(buddy_ptr);
 122:../../source/src/user/OS_LIB/malloc.c **** 					continue ;
 123:../../source/src/user/OS_LIB/malloc.c **** 				}
 124:../../source/src/user/OS_LIB/malloc.c **** 				slab_ptr->end_ptr = (void *)((unsigned int)slab_ptr + 1 * PAGE_SIZE_BYTE);
 125:../../source/src/user/OS_LIB/malloc.c **** 				break;
 126:../../source/src/user/OS_LIB/malloc.c **** 			case 2 :
 127:../../source/src/user/OS_LIB/malloc.c **** 				slab_ptr = (struct slab *)alloc_power2_page();
 128:../../source/src/user/OS_LIB/malloc.c **** 				if(NULL == slab_ptr)
 129:../../source/src/user/OS_LIB/malloc.c **** 				{
 130:../../source/src/user/OS_LIB/malloc.c **** 					buddy_ptr = (struct buddy *)get_next_buddy_ptr_head(buddy_ptr);
 131:../../source/src/user/OS_LIB/malloc.c **** 					continue ;
 132:../../source/src/user/OS_LIB/malloc.c **** 				}
 133:../../source/src/user/OS_LIB/malloc.c **** 				slab_ptr->end_ptr = (void *)((unsigned int)slab_ptr + 2 * PAGE_SIZE_BYTE);
 134:../../source/src/user/OS_LIB/malloc.c **** 				break;
 135:../../source/src/user/OS_LIB/malloc.c **** 			case 3 :
 136:../../source/src/user/OS_LIB/malloc.c **** 				slab_ptr = (struct slab *)alloc_power3_page();
 137:../../source/src/user/OS_LIB/malloc.c **** 				if(NULL == slab_ptr)
 138:../../source/src/user/OS_LIB/malloc.c **** 				{
 139:../../source/src/user/OS_LIB/malloc.c **** 					buddy_ptr = (struct buddy *)get_next_buddy_ptr_head(buddy_ptr);
 140:../../source/src/user/OS_LIB/malloc.c **** 					continue ;
 141:../../source/src/user/OS_LIB/malloc.c **** 				}
 142:../../source/src/user/OS_LIB/malloc.c **** 				slab_ptr->end_ptr = (void *)((unsigned int)slab_ptr + 4 * PAGE_SIZE_BYTE);
 143:../../source/src/user/OS_LIB/malloc.c **** 				break;
 144:../../source/src/user/OS_LIB/malloc.c **** 			case 4 :
 145:../../source/src/user/OS_LIB/malloc.c **** 				slab_ptr = (struct slab *)alloc_power4_page();
 146:../../source/src/user/OS_LIB/malloc.c **** 				if(NULL == slab_ptr)
 147:../../source/src/user/OS_LIB/malloc.c **** 				{
ARM GAS  G:\Users\Jaxb\AppData\Local\Temp\ccLceCCb.s 			page 4


 148:../../source/src/user/OS_LIB/malloc.c **** 					buddy_ptr = (struct buddy *)get_next_buddy_ptr_head(buddy_ptr);
 149:../../source/src/user/OS_LIB/malloc.c **** 					continue ;
 150:../../source/src/user/OS_LIB/malloc.c **** 				}
 151:../../source/src/user/OS_LIB/malloc.c **** 				slab_ptr->end_ptr = (void *)((unsigned int)slab_ptr + 8 * PAGE_SIZE_BYTE);
 152:../../source/src/user/OS_LIB/malloc.c **** 				break;
 153:../../source/src/user/OS_LIB/malloc.c **** 			default :
 154:../../source/src/user/OS_LIB/malloc.c **** 				ka_printf("too big! FATAL ERROR!\n");
 155:../../source/src/user/OS_LIB/malloc.c **** 				ASSERT(0);
 156:../../source/src/user/OS_LIB/malloc.c **** 		}
 157:../../source/src/user/OS_LIB/malloc.c **** 		return slab_ptr;
 158:../../source/src/user/OS_LIB/malloc.c **** 	}
 159:../../source/src/user/OS_LIB/malloc.c **** 	ka_printf("no space!!!\n");
 160:../../source/src/user/OS_LIB/malloc.c **** 	return NULL;
 161:../../source/src/user/OS_LIB/malloc.c **** }
 162:../../source/src/user/OS_LIB/malloc.c **** 
 163:../../source/src/user/OS_LIB/malloc.c **** void *ka_malloc(unsigned int size)
 164:../../source/src/user/OS_LIB/malloc.c **** {
 165:../../source/src/user/OS_LIB/malloc.c **** 	void *ptr;
 166:../../source/src/user/OS_LIB/malloc.c **** 	CPU_SR_ALLOC();
 167:../../source/src/user/OS_LIB/malloc.c **** 	if(0 == size)
 168:../../source/src/user/OS_LIB/malloc.c **** 	{
 169:../../source/src/user/OS_LIB/malloc.c **** 		return NULL;
 170:../../source/src/user/OS_LIB/malloc.c **** 	}
 171:../../source/src/user/OS_LIB/malloc.c **** 	CPU_CRITICAL_ENTER();
 172:../../source/src/user/OS_LIB/malloc.c **** 	if(size <= 512)
 173:../../source/src/user/OS_LIB/malloc.c **** 	{
 174:../../source/src/user/OS_LIB/malloc.c **** 		IL *IL_ptr = find_first_bigger_IL(&cache_chain_head,size); //find a suitable cache
 175:../../source/src/user/OS_LIB/malloc.c **** 		while(1)
 176:../../source/src/user/OS_LIB/malloc.c **** 		{
 177:../../source/src/user/OS_LIB/malloc.c **** 			if(NULL != IL_ptr)// this means that there is a slab.size bigger than size
 178:../../source/src/user/OS_LIB/malloc.c **** 			{
 179:../../source/src/user/OS_LIB/malloc.c **** 				struct kmem_cache *kmem_cache_ptr = list_entry(IL_ptr,struct kmem_cache,kmem_cache_insert_chain
 180:../../source/src/user/OS_LIB/malloc.c **** 				//first try to get room from slabs_partial
 181:../../source/src/user/OS_LIB/malloc.c **** 				if(!list_empty(&kmem_cache_ptr->slabs_partial)) // if chain "slabs_partial" is not empty
 182:../../source/src/user/OS_LIB/malloc.c **** 				{
 183:../../source/src/user/OS_LIB/malloc.c **** 					struct slab *slab_ptr = list_entry(kmem_cache_ptr->slabs_partial.next,struct slab,slab_chain);
 184:../../source/src/user/OS_LIB/malloc.c **** 					ptr = slab_ptr->block_head.next; // ptr is the point of the allocated space
 185:../../source/src/user/OS_LIB/malloc.c **** 					list_del(slab_ptr->block_head.next); // delete it from slab chain "block_head"
 186:../../source/src/user/OS_LIB/malloc.c **** 					if(0 == --(slab_ptr->current_block_num)) // if this slab has no more space
 187:../../source/src/user/OS_LIB/malloc.c **** 					{
 188:../../source/src/user/OS_LIB/malloc.c **** 						list_del(&slab_ptr->slab_chain);
 189:../../source/src/user/OS_LIB/malloc.c **** 						list_add(&slab_ptr->slab_chain,&kmem_cache_ptr->slabs_full); // put it into the chain "slabs_
 190:../../source/src/user/OS_LIB/malloc.c **** 					}
 191:../../source/src/user/OS_LIB/malloc.c **** 					CPU_CRITICAL_EXIT();
 192:../../source/src/user/OS_LIB/malloc.c **** 					return ptr;
 193:../../source/src/user/OS_LIB/malloc.c **** 				}
 194:../../source/src/user/OS_LIB/malloc.c **** 				else if(!list_empty(&kmem_cache_ptr->slabs_empty)) // else if chain "slabs_empty" is not empty
 195:../../source/src/user/OS_LIB/malloc.c **** 				{
 196:../../source/src/user/OS_LIB/malloc.c **** 					struct slab *slab_ptr = list_entry(kmem_cache_ptr->slabs_empty.next,struct slab,slab_chain);
 197:../../source/src/user/OS_LIB/malloc.c **** 					ptr = slab_ptr->block_head.next;
 198:../../source/src/user/OS_LIB/malloc.c **** 					list_del(slab_ptr->block_head.next);
 199:../../source/src/user/OS_LIB/malloc.c **** 					list_del(&slab_ptr->slab_chain);
 200:../../source/src/user/OS_LIB/malloc.c **** 					list_add(&slab_ptr->slab_chain,&kmem_cache_ptr->slabs_partial);
 201:../../source/src/user/OS_LIB/malloc.c **** 					--(slab_ptr->current_block_num);
 202:../../source/src/user/OS_LIB/malloc.c **** 					CPU_CRITICAL_EXIT();
 203:../../source/src/user/OS_LIB/malloc.c **** 					return ptr;
 204:../../source/src/user/OS_LIB/malloc.c **** 				}
ARM GAS  G:\Users\Jaxb\AppData\Local\Temp\ccLceCCb.s 			page 5


 205:../../source/src/user/OS_LIB/malloc.c **** 				else // at this case we have to allocate mem from buddy
 206:../../source/src/user/OS_LIB/malloc.c **** 				{
 207:../../source/src/user/OS_LIB/malloc.c **** 					struct slab *slab_ptr;
 208:../../source/src/user/OS_LIB/malloc.c **** 					unsigned int level;
 209:../../source/src/user/OS_LIB/malloc.c **** 					level = get_set_bit_place((10 * IL_ptr->prio + sizeof(struct slab)) / PAGE_SIZE_BYTE) + 2;
 210:../../source/src/user/OS_LIB/malloc.c **** 					//at least allocate 10 times of corresponding space and a room of sizeof(struct slab)
 211:../../source/src/user/OS_LIB/malloc.c **** 					slab_ptr = (struct slab *)_case_alloc_buddy(level);
 212:../../source/src/user/OS_LIB/malloc.c **** 					if(NULL != slab_ptr)
 213:../../source/src/user/OS_LIB/malloc.c **** 					{
 214:../../source/src/user/OS_LIB/malloc.c **** 						load_slab((void *)slab_ptr,slab_ptr->end_ptr,IL_ptr->prio,&kmem_cache_ptr->slabs_partial);
 215:../../source/src/user/OS_LIB/malloc.c **** 						ptr = slab_ptr->block_head.next; // ptr is the point of the allocated space
 216:../../source/src/user/OS_LIB/malloc.c **** 						list_del(slab_ptr->block_head.next); // delete it from slab chain "block_head"
 217:../../source/src/user/OS_LIB/malloc.c **** 						--(slab_ptr->current_block_num);
 218:../../source/src/user/OS_LIB/malloc.c **** 						CPU_CRITICAL_EXIT();
 219:../../source/src/user/OS_LIB/malloc.c **** 						return ptr;
 220:../../source/src/user/OS_LIB/malloc.c **** 					}
 221:../../source/src/user/OS_LIB/malloc.c **** 					else // NULL == slab_ptr
 222:../../source/src/user/OS_LIB/malloc.c **** 					{
 223:../../source/src/user/OS_LIB/malloc.c **** 						IL_ptr = get_next_IL(IL_ptr,&cache_chain_head);
 224:../../source/src/user/OS_LIB/malloc.c **** 						if(NULL == IL_ptr)
 225:../../source/src/user/OS_LIB/malloc.c **** 						{
 226:../../source/src/user/OS_LIB/malloc.c **** 							CPU_CRITICAL_EXIT();
 227:../../source/src/user/OS_LIB/malloc.c **** 							return NULL;
 228:../../source/src/user/OS_LIB/malloc.c **** 						}
 229:../../source/src/user/OS_LIB/malloc.c **** 						continue ;
 230:../../source/src/user/OS_LIB/malloc.c **** 					}
 231:../../source/src/user/OS_LIB/malloc.c **** 				}
 232:../../source/src/user/OS_LIB/malloc.c **** 			}
 233:../../source/src/user/OS_LIB/malloc.c **** 			else // NULL == IL_ptr
 234:../../source/src/user/OS_LIB/malloc.c **** 			{
 235:../../source/src/user/OS_LIB/malloc.c **** 				struct kmem_cache *kmem_cache_ptr = ka_malloc(sizeof(struct kmem_cache));
 236:../../source/src/user/OS_LIB/malloc.c **** 				ASSERT(NULL != kmem_cache_ptr);
 237:../../source/src/user/OS_LIB/malloc.c **** 				if(NULL == kmem_cache_ptr)
 238:../../source/src/user/OS_LIB/malloc.c **** 				{
 239:../../source/src/user/OS_LIB/malloc.c **** 					CPU_CRITICAL_EXIT();
 240:../../source/src/user/OS_LIB/malloc.c **** 					return NULL;
 241:../../source/src/user/OS_LIB/malloc.c **** 				}
 242:../../source/src/user/OS_LIB/malloc.c **** 				insert_into_cache_chain(&cache_chain_head,kmem_cache_ptr,size);
 243:../../source/src/user/OS_LIB/malloc.c **** 				IL_ptr = find_first_bigger_IL(&cache_chain_head,size);
 244:../../source/src/user/OS_LIB/malloc.c **** 				continue ;
 245:../../source/src/user/OS_LIB/malloc.c **** 			}
 246:../../source/src/user/OS_LIB/malloc.c **** 		}
 247:../../source/src/user/OS_LIB/malloc.c **** 	}
 248:../../source/src/user/OS_LIB/malloc.c **** 	else //size > 512
 249:../../source/src/user/OS_LIB/malloc.c **** 	{
 250:../../source/src/user/OS_LIB/malloc.c **** 		int level = get_set_bit_place(size/PAGE_SIZE_BYTE) + 2;
 251:../../source/src/user/OS_LIB/malloc.c **** 		ptr = _case_alloc_buddy((unsigned int)level);
 252:../../source/src/user/OS_LIB/malloc.c **** 		if(NULL == ptr)
 253:../../source/src/user/OS_LIB/malloc.c **** 		{
 254:../../source/src/user/OS_LIB/malloc.c **** 			CPU_CRITICAL_EXIT();
 255:../../source/src/user/OS_LIB/malloc.c **** 			return NULL;
 256:../../source/src/user/OS_LIB/malloc.c **** 		}
 257:../../source/src/user/OS_LIB/malloc.c **** 		if(FUN_EXECUTE_SUCCESSFULLY == add_page_alloc_record(level,ptr))
 258:../../source/src/user/OS_LIB/malloc.c **** 		{
 259:../../source/src/user/OS_LIB/malloc.c **** 			CPU_CRITICAL_EXIT();
 260:../../source/src/user/OS_LIB/malloc.c **** 			return ptr;
 261:../../source/src/user/OS_LIB/malloc.c **** 		}
ARM GAS  G:\Users\Jaxb\AppData\Local\Temp\ccLceCCb.s 			page 6


 262:../../source/src/user/OS_LIB/malloc.c **** 		else
 263:../../source/src/user/OS_LIB/malloc.c **** 		{
 264:../../source/src/user/OS_LIB/malloc.c **** 			ka_printf("fatal error from add_page_alloc_record()\n");
 265:../../source/src/user/OS_LIB/malloc.c **** 			_case_slab_free_buddy(ptr,(void *)((unsigned int)ptr + ka_pow(2,level-1) * PAGE_SIZE_BYTE));
 266:../../source/src/user/OS_LIB/malloc.c **** 			CPU_CRITICAL_EXIT();
 267:../../source/src/user/OS_LIB/malloc.c **** 			return NULL;
 268:../../source/src/user/OS_LIB/malloc.c **** 		}
 269:../../source/src/user/OS_LIB/malloc.c **** 	}
 270:../../source/src/user/OS_LIB/malloc.c **** }
 271:../../source/src/user/OS_LIB/malloc.c **** 
 272:../../source/src/user/OS_LIB/malloc.c **** // this functin try to free ptr,if ptr is in the scope of one slab in the slab 
 273:../../source/src/user/OS_LIB/malloc.c **** // chain "head",then insert the ptr into corresponding slab and return slab_ptr,
 274:../../source/src/user/OS_LIB/malloc.c **** // or if ptr not belongs to any slab in this slab chain, then return NULL means 
 275:../../source/src/user/OS_LIB/malloc.c **** // that return ptr fail;
 276:../../source/src/user/OS_LIB/malloc.c **** static struct slab *free_find_in_slab_chain(struct list_head *head,void *ptr)
 277:../../source/src/user/OS_LIB/malloc.c **** {
  25              		.loc 1 277 0
  26              		.cfi_startproc
  27              		@ args = 0, pretend = 0, frame = 0
  28              		@ frame_needed = 0, uses_anonymous_args = 0
  29              	.LVL0:
  30 0000 38B5     		push	{r3, r4, r5, lr}
  31              	.LCFI0:
  32              		.cfi_def_cfa_offset 16
  33              		.cfi_offset 3, -16
  34              		.cfi_offset 4, -12
  35              		.cfi_offset 5, -8
  36              		.cfi_offset 14, -4
 278:../../source/src/user/OS_LIB/malloc.c **** 	struct list_head *pos;
 279:../../source/src/user/OS_LIB/malloc.c **** 	struct slab *slab_ptr;
 280:../../source/src/user/OS_LIB/malloc.c **** 	list_for_each(pos, head)
  37              		.loc 1 280 0
  38 0002 0468     		ldr	r4, [r0]
  39              	.LVL1:
 277:../../source/src/user/OS_LIB/malloc.c **** 	struct list_head *pos;
  40              		.loc 1 277 0
  41 0004 0D46     		mov	r5, r1
  42              		.loc 1 280 0
  43 0006 A042     		cmp	r0, r4
  44 0008 0AD0     		beq	.L7
  45              	.L6:
  46              	.LVL2:
 281:../../source/src/user/OS_LIB/malloc.c **** 	{
 282:../../source/src/user/OS_LIB/malloc.c **** 		slab_ptr = list_entry(pos,struct slab,slab_chain);
 283:../../source/src/user/OS_LIB/malloc.c **** 		if(((int)ptr > (int)slab_ptr->start_ptr) && ((int)ptr < (int)slab_ptr->end_ptr))
  47              		.loc 1 283 0
  48 000a 54F8143C 		ldr	r3, [r4, #-20]
  49 000e AB42     		cmp	r3, r5
  50 0010 03DA     		bge	.L3
  51              		.loc 1 283 0 is_stmt 0 discriminator 1
  52 0012 54F8103C 		ldr	r3, [r4, #-16]
  53 0016 AB42     		cmp	r3, r5
  54 0018 04DC     		bgt	.L13
  55              	.L3:
 280:../../source/src/user/OS_LIB/malloc.c **** 	{
  56              		.loc 1 280 0 is_stmt 1 discriminator 2
  57 001a 2468     		ldr	r4, [r4]
ARM GAS  G:\Users\Jaxb\AppData\Local\Temp\ccLceCCb.s 			page 7


  58              	.LVL3:
  59 001c A042     		cmp	r0, r4
  60 001e F4D1     		bne	.L6
  61              	.L7:
 284:../../source/src/user/OS_LIB/malloc.c **** 		{
 285:../../source/src/user/OS_LIB/malloc.c **** 			ASSERT(0 == (((unsigned int)slab_ptr->end_ptr - (unsigned int)ptr) % (slab_ptr->block_size)));
 286:../../source/src/user/OS_LIB/malloc.c **** 			++(slab_ptr->current_block_num);
 287:../../source/src/user/OS_LIB/malloc.c **** 			ASSERT(slab_ptr->current_block_num <= slab_ptr->full_block_num);
 288:../../source/src/user/OS_LIB/malloc.c **** 			list_add((struct list_head *)ptr,&slab_ptr->block_head);	
 289:../../source/src/user/OS_LIB/malloc.c **** 			return slab_ptr;
 290:../../source/src/user/OS_LIB/malloc.c **** 		}
 291:../../source/src/user/OS_LIB/malloc.c **** 	}
 292:../../source/src/user/OS_LIB/malloc.c **** 	return NULL;
  62              		.loc 1 292 0
  63 0020 0020     		movs	r0, #0
  64              	.LVL4:
 293:../../source/src/user/OS_LIB/malloc.c **** }
  65              		.loc 1 293 0
  66 0022 38BD     		pop	{r3, r4, r5, pc}
  67              	.LVL5:
  68              	.L13:
 285:../../source/src/user/OS_LIB/malloc.c **** 			++(slab_ptr->current_block_num);
  69              		.loc 1 285 0
  70 0024 54F8041C 		ldr	r1, [r4, #-4]
  71              	.LVL6:
  72 0028 5B1B     		subs	r3, r3, r5
  73 002a B3FBF1F2 		udiv	r2, r3, r1
  74 002e 01FB1233 		mls	r3, r1, r2, r3
  75 0032 ABB9     		cbnz	r3, .L14
  76              	.LVL7:
  77              	.L4:
 287:../../source/src/user/OS_LIB/malloc.c **** 			list_add((struct list_head *)ptr,&slab_ptr->block_head);	
  78              		.loc 1 287 0
  79 0034 54E90332 		ldrd	r3, r2, [r4, #-12]
 286:../../source/src/user/OS_LIB/malloc.c **** 			ASSERT(slab_ptr->current_block_num <= slab_ptr->full_block_num);
  80              		.loc 1 286 0
  81 0038 0133     		adds	r3, r3, #1
 287:../../source/src/user/OS_LIB/malloc.c **** 			list_add((struct list_head *)ptr,&slab_ptr->block_head);	
  82              		.loc 1 287 0
  83 003a 9342     		cmp	r3, r2
 286:../../source/src/user/OS_LIB/malloc.c **** 			ASSERT(slab_ptr->current_block_num <= slab_ptr->full_block_num);
  84              		.loc 1 286 0
  85 003c 44F80C3C 		str	r3, [r4, #-12]
 287:../../source/src/user/OS_LIB/malloc.c **** 			list_add((struct list_head *)ptr,&slab_ptr->block_head);	
  86              		.loc 1 287 0
  87 0040 04D9     		bls	.L5
 287:../../source/src/user/OS_LIB/malloc.c **** 			list_add((struct list_head *)ptr,&slab_ptr->block_head);	
  88              		.loc 1 287 0 is_stmt 0 discriminator 1
  89 0042 40F21F11 		movw	r1, #287
  90 0046 0948     		ldr	r0, .L15
  91 0048 FFF7FEFF 		bl	_ASSERT
  92              	.LVL8:
  93              	.L5:
  94              	.LBB128:
  95              	.LBB129:
  96              		.file 2 "../../source/include/os_lib/double_linked_list.h"
   1:../../source/include/os_lib/double_linked_list.h **** #ifndef _DOUBLE_LINKED_LIST_H
ARM GAS  G:\Users\Jaxb\AppData\Local\Temp\ccLceCCb.s 			page 8


   2:../../source/include/os_lib/double_linked_list.h **** #define _DOUBLE_LINKED_LIST_H
   3:../../source/include/os_lib/double_linked_list.h **** 
   4:../../source/include/os_lib/double_linked_list.h **** struct list_head {
   5:../../source/include/os_lib/double_linked_list.h ****     struct list_head *next, *prev;
   6:../../source/include/os_lib/double_linked_list.h **** };
   7:../../source/include/os_lib/double_linked_list.h **** 
   8:../../source/include/os_lib/double_linked_list.h **** 
   9:../../source/include/os_lib/double_linked_list.h **** #define LIST_HEAD_INIT(name) { &(name), &(name) }
  10:../../source/include/os_lib/double_linked_list.h **** 
  11:../../source/include/os_lib/double_linked_list.h **** 
  12:../../source/include/os_lib/double_linked_list.h **** #define LIST_HEAD(name) \
  13:../../source/include/os_lib/double_linked_list.h ****     struct list_head name = LIST_HEAD_INIT(name)
  14:../../source/include/os_lib/double_linked_list.h **** 
  15:../../source/include/os_lib/double_linked_list.h **** 
  16:../../source/include/os_lib/double_linked_list.h **** static inline void INIT_LIST_HEAD(struct list_head *list)
  17:../../source/include/os_lib/double_linked_list.h **** {
  18:../../source/include/os_lib/double_linked_list.h ****     list->next = list;
  19:../../source/include/os_lib/double_linked_list.h ****     list->prev = list;
  20:../../source/include/os_lib/double_linked_list.h **** }
  21:../../source/include/os_lib/double_linked_list.h **** 
  22:../../source/include/os_lib/double_linked_list.h **** 
  23:../../source/include/os_lib/double_linked_list.h **** static inline void __list_add(struct list_head *new,
  24:../../source/include/os_lib/double_linked_list.h ****                   struct list_head *prev,
  25:../../source/include/os_lib/double_linked_list.h ****                   struct list_head *next)
  26:../../source/include/os_lib/double_linked_list.h **** {
  27:../../source/include/os_lib/double_linked_list.h ****     next->prev = new;
  28:../../source/include/os_lib/double_linked_list.h ****     new->next = next;
  29:../../source/include/os_lib/double_linked_list.h ****     new->prev = prev;
  30:../../source/include/os_lib/double_linked_list.h ****     prev->next = new;
  31:../../source/include/os_lib/double_linked_list.h **** }
  32:../../source/include/os_lib/double_linked_list.h **** 
  33:../../source/include/os_lib/double_linked_list.h **** 
  34:../../source/include/os_lib/double_linked_list.h **** static inline void list_add(struct list_head *new, struct list_head *head)
  35:../../source/include/os_lib/double_linked_list.h **** {
  36:../../source/include/os_lib/double_linked_list.h ****     __list_add(new, head, head->next);
  97              		.loc 2 36 0 is_stmt 1
  98 004c 2346     		mov	r3, r4
  99 004e 53F8082F 		ldr	r2, [r3, #8]!
 100              	.LBE129:
 101              	.LBE128:
 102              	.LBB133:
 282:../../source/src/user/OS_LIB/malloc.c **** 		if(((int)ptr > (int)slab_ptr->start_ptr) && ((int)ptr < (int)slab_ptr->end_ptr))
 103              		.loc 1 282 0
 104 0052 A4F11400 		sub	r0, r4, #20
 105              	.LVL9:
 106              	.LBE133:
 107              	.LBB134:
 108              	.LBB132:
 109              	.LBB130:
 110              	.LBB131:
  27:../../source/include/os_lib/double_linked_list.h ****     new->next = next;
 111              		.loc 2 27 0
 112 0056 5560     		str	r5, [r2, #4]
  29:../../source/include/os_lib/double_linked_list.h ****     prev->next = new;
 113              		.loc 2 29 0
 114 0058 C5E90023 		strd	r2, r3, [r5]
  30:../../source/include/os_lib/double_linked_list.h **** }
ARM GAS  G:\Users\Jaxb\AppData\Local\Temp\ccLceCCb.s 			page 9


 115              		.loc 2 30 0
 116 005c A560     		str	r5, [r4, #8]
 117              	.LVL10:
 118              	.LBE131:
 119              	.LBE130:
 120              	.LBE132:
 121              	.LBE134:
 122              		.loc 1 293 0
 123 005e 38BD     		pop	{r3, r4, r5, pc}
 124              	.LVL11:
 125              	.L14:
 285:../../source/src/user/OS_LIB/malloc.c **** 			++(slab_ptr->current_block_num);
 126              		.loc 1 285 0 discriminator 1
 127 0060 40F21D11 		movw	r1, #285
 128 0064 0148     		ldr	r0, .L15
 129              	.LVL12:
 130 0066 FFF7FEFF 		bl	_ASSERT
 131              	.LVL13:
 132 006a E3E7     		b	.L4
 133              	.L16:
 134              		.align	2
 135              	.L15:
 136 006c 00000000 		.word	.LC0
 137              		.cfi_endproc
 138              	.LFE21:
 139              		.size	free_find_in_slab_chain, .-free_find_in_slab_chain
 140              		.align	1
 141              		.p2align 2,,3
 142              		.syntax unified
 143              		.thumb
 144              		.thumb_func
 145              		.fpu softvfp
 146              		.type	_case_alloc_buddy, %function
 147              	_case_alloc_buddy:
 148              	.LFB19:
 104:../../source/src/user/OS_LIB/malloc.c **** 	struct slab *slab_ptr;
 149              		.loc 1 104 0
 150              		.cfi_startproc
 151              		@ args = 0, pretend = 0, frame = 0
 152              		@ frame_needed = 0, uses_anonymous_args = 0
 153              	.LVL14:
 154 0070 70B5     		push	{r4, r5, r6, lr}
 155              	.LCFI1:
 156              		.cfi_def_cfa_offset 16
 157              		.cfi_offset 4, -16
 158              		.cfi_offset 5, -12
 159              		.cfi_offset 6, -8
 160              		.cfi_offset 14, -4
 104:../../source/src/user/OS_LIB/malloc.c **** 	struct slab *slab_ptr;
 161              		.loc 1 104 0
 162 0072 0546     		mov	r5, r0
 106:../../source/src/user/OS_LIB/malloc.c **** 	ASSERT(NULL != buddy_ptr);
 163              		.loc 1 106 0
 164 0074 FFF7FEFF 		bl	get_os_buddy_ptr_head
 165              	.LVL15:
 107:../../source/src/user/OS_LIB/malloc.c **** 	while(NULL != buddy_ptr)
 166              		.loc 1 107 0
ARM GAS  G:\Users\Jaxb\AppData\Local\Temp\ccLceCCb.s 			page 10


 167 0078 0446     		mov	r4, r0
 168 007a 0028     		cmp	r0, #0
 169 007c 35D0     		beq	.L35
 115:../../source/src/user/OS_LIB/malloc.c **** 		{
 170              		.loc 1 115 0
 171 007e 6E1E     		subs	r6, r5, #1
 172              	.L18:
 173              	.LVL16:
 110:../../source/src/user/OS_LIB/malloc.c **** 		{
 174              		.loc 1 110 0
 175 0080 A36A     		ldr	r3, [r4, #40]
 176 0082 AB42     		cmp	r3, r5
 177 0084 21D3     		bcc	.L36
 115:../../source/src/user/OS_LIB/malloc.c **** 		{
 178              		.loc 1 115 0
 179 0086 032E     		cmp	r6, #3
 180 0088 26D8     		bhi	.L22
 181 008a DFE806F0 		tbb	[pc, r6]
 182              	.L24:
 183 008e 17       		.byte	(.L23-.L24)/2
 184 008f 10       		.byte	(.L25-.L24)/2
 185 0090 09       		.byte	(.L26-.L24)/2
 186 0091 02       		.byte	(.L27-.L24)/2
 187              		.p2align 1
 188              	.L27:
 145:../../source/src/user/OS_LIB/malloc.c **** 				if(NULL == slab_ptr)
 189              		.loc 1 145 0
 190 0092 FFF7FEFF 		bl	alloc_power4_page
 191              	.LVL17:
 146:../../source/src/user/OS_LIB/malloc.c **** 				{
 192              		.loc 1 146 0
 193 0096 C0B1     		cbz	r0, .L36
 151:../../source/src/user/OS_LIB/malloc.c **** 				break;
 194              		.loc 1 151 0
 195 0098 00F50053 		add	r3, r0, #8192
 196 009c 4360     		str	r3, [r0, #4]
 161:../../source/src/user/OS_LIB/malloc.c **** 
 197              		.loc 1 161 0
 198 009e 70BD     		pop	{r4, r5, r6, pc}
 199              	.LVL18:
 200              	.L26:
 136:../../source/src/user/OS_LIB/malloc.c **** 				if(NULL == slab_ptr)
 201              		.loc 1 136 0
 202 00a0 FFF7FEFF 		bl	alloc_power3_page
 203              	.LVL19:
 137:../../source/src/user/OS_LIB/malloc.c **** 				{
 204              		.loc 1 137 0
 205 00a4 88B1     		cbz	r0, .L36
 142:../../source/src/user/OS_LIB/malloc.c **** 				break;
 206              		.loc 1 142 0
 207 00a6 00F58053 		add	r3, r0, #4096
 208 00aa 4360     		str	r3, [r0, #4]
 161:../../source/src/user/OS_LIB/malloc.c **** 
 209              		.loc 1 161 0
 210 00ac 70BD     		pop	{r4, r5, r6, pc}
 211              	.LVL20:
 212              	.L25:
ARM GAS  G:\Users\Jaxb\AppData\Local\Temp\ccLceCCb.s 			page 11


 127:../../source/src/user/OS_LIB/malloc.c **** 				if(NULL == slab_ptr)
 213              		.loc 1 127 0
 214 00ae FFF7FEFF 		bl	alloc_power2_page
 215              	.LVL21:
 128:../../source/src/user/OS_LIB/malloc.c **** 				{
 216              		.loc 1 128 0
 217 00b2 50B1     		cbz	r0, .L36
 133:../../source/src/user/OS_LIB/malloc.c **** 				break;
 218              		.loc 1 133 0
 219 00b4 00F50063 		add	r3, r0, #2048
 220 00b8 4360     		str	r3, [r0, #4]
 161:../../source/src/user/OS_LIB/malloc.c **** 
 221              		.loc 1 161 0
 222 00ba 70BD     		pop	{r4, r5, r6, pc}
 223              	.LVL22:
 224              	.L23:
 118:../../source/src/user/OS_LIB/malloc.c **** 				if(NULL == slab_ptr)
 225              		.loc 1 118 0
 226 00bc FFF7FEFF 		bl	alloc_power1_page
 227              	.LVL23:
 119:../../source/src/user/OS_LIB/malloc.c **** 				{
 228              		.loc 1 119 0
 229 00c0 18B1     		cbz	r0, .L36
 124:../../source/src/user/OS_LIB/malloc.c **** 				break;
 230              		.loc 1 124 0
 231 00c2 00F58063 		add	r3, r0, #1024
 232 00c6 4360     		str	r3, [r0, #4]
 161:../../source/src/user/OS_LIB/malloc.c **** 
 233              		.loc 1 161 0
 234 00c8 70BD     		pop	{r4, r5, r6, pc}
 235              	.LVL24:
 236              	.L36:
 148:../../source/src/user/OS_LIB/malloc.c **** 					continue ;
 237              		.loc 1 148 0
 238 00ca 2046     		mov	r0, r4
 239 00cc FFF7FEFF 		bl	get_next_buddy_ptr_head
 240              	.LVL25:
 241 00d0 0446     		mov	r4, r0
 242              	.LVL26:
 108:../../source/src/user/OS_LIB/malloc.c **** 	{
 243              		.loc 1 108 0
 244 00d2 0028     		cmp	r0, #0
 245 00d4 D4D1     		bne	.L18
 246 00d6 0CE0     		b	.L19
 247              	.L22:
 154:../../source/src/user/OS_LIB/malloc.c **** 				ASSERT(0);
 248              		.loc 1 154 0
 249 00d8 0848     		ldr	r0, .L37
 250              	.LVL27:
 251 00da FFF7FEFF 		bl	ka_printf
 252              	.LVL28:
 155:../../source/src/user/OS_LIB/malloc.c **** 		}
 253              		.loc 1 155 0
 254 00de 9B21     		movs	r1, #155
 255 00e0 0748     		ldr	r0, .L37+4
 256 00e2 FFF7FEFF 		bl	_ASSERT
 257              	.LVL29:
ARM GAS  G:\Users\Jaxb\AppData\Local\Temp\ccLceCCb.s 			page 12


 258 00e6 0020     		movs	r0, #0
 161:../../source/src/user/OS_LIB/malloc.c **** 
 259              		.loc 1 161 0
 260 00e8 70BD     		pop	{r4, r5, r6, pc}
 261              	.LVL30:
 262              	.L35:
 107:../../source/src/user/OS_LIB/malloc.c **** 	while(NULL != buddy_ptr)
 263              		.loc 1 107 0 discriminator 1
 264 00ea 6B21     		movs	r1, #107
 265 00ec 0448     		ldr	r0, .L37+4
 266              	.LVL31:
 267 00ee FFF7FEFF 		bl	_ASSERT
 268              	.LVL32:
 269              	.L19:
 159:../../source/src/user/OS_LIB/malloc.c **** 	return NULL;
 270              		.loc 1 159 0
 271 00f2 0448     		ldr	r0, .L37+8
 272 00f4 FFF7FEFF 		bl	ka_printf
 273              	.LVL33:
 160:../../source/src/user/OS_LIB/malloc.c **** }
 274              		.loc 1 160 0
 275 00f8 0020     		movs	r0, #0
 161:../../source/src/user/OS_LIB/malloc.c **** 
 276              		.loc 1 161 0
 277 00fa 70BD     		pop	{r4, r5, r6, pc}
 278              	.LVL34:
 279              	.L38:
 280              		.align	2
 281              	.L37:
 282 00fc 28000000 		.word	.LC1
 283 0100 00000000 		.word	.LC0
 284 0104 40000000 		.word	.LC2
 285              		.cfi_endproc
 286              	.LFE19:
 287              		.size	_case_alloc_buddy, .-_case_alloc_buddy
 288              		.align	1
 289              		.p2align 2,,3
 290              		.global	dis_page_alloc_record
 291              		.syntax unified
 292              		.thumb
 293              		.thumb_func
 294              		.fpu softvfp
 295              		.type	dis_page_alloc_record, %function
 296              	dis_page_alloc_record:
 297              	.LFB14:
  21:../../source/src/user/OS_LIB/malloc.c **** 	unsigned int i = 0;
 298              		.loc 1 21 0
 299              		.cfi_startproc
 300              		@ args = 0, pretend = 0, frame = 0
 301              		@ frame_needed = 0, uses_anonymous_args = 0
 302              	.LVL35:
 303 0108 2DE9F843 		push	{r3, r4, r5, r6, r7, r8, r9, lr}
 304              	.LCFI2:
 305              		.cfi_def_cfa_offset 32
 306              		.cfi_offset 3, -32
 307              		.cfi_offset 4, -28
 308              		.cfi_offset 5, -24
ARM GAS  G:\Users\Jaxb\AppData\Local\Temp\ccLceCCb.s 			page 13


 309              		.cfi_offset 6, -20
 310              		.cfi_offset 7, -16
 311              		.cfi_offset 8, -12
 312              		.cfi_offset 9, -8
 313              		.cfi_offset 14, -4
  25:../../source/src/user/OS_LIB/malloc.c **** 	{
 314              		.loc 1 25 0
 315 010c 0E4E     		ldr	r6, .L43
 316 010e 3468     		ldr	r4, [r6]
 317              	.LVL36:
 318 0110 B442     		cmp	r4, r6
 319 0112 17D0     		beq	.L39
  22:../../source/src/user/OS_LIB/malloc.c **** 	struct singly_list_head *pos;
 320              		.loc 1 22 0
 321 0114 0025     		movs	r5, #0
  28:../../source/src/user/OS_LIB/malloc.c **** 		ka_printf("level is %u\n",record_ptr->level);
 322              		.loc 1 28 0
 323 0116 DFF83890 		ldr	r9, .L43+8
  29:../../source/src/user/OS_LIB/malloc.c **** 		ka_printf("address is %p\n",record_ptr->ptr);
 324              		.loc 1 29 0
 325 011a DFF83880 		ldr	r8, .L43+12
  30:../../source/src/user/OS_LIB/malloc.c **** 	}
 326              		.loc 1 30 0
 327 011e 0B4F     		ldr	r7, .L43+4
 328              	.LVL37:
 329              	.L41:
  28:../../source/src/user/OS_LIB/malloc.c **** 		ka_printf("level is %u\n",record_ptr->level);
 330              		.loc 1 28 0 discriminator 3
 331 0120 0135     		adds	r5, r5, #1
 332              	.LVL38:
 333 0122 2946     		mov	r1, r5
 334 0124 4846     		mov	r0, r9
 335 0126 FFF7FEFF 		bl	ka_printf
 336              	.LVL39:
  29:../../source/src/user/OS_LIB/malloc.c **** 		ka_printf("address is %p\n",record_ptr->ptr);
 337              		.loc 1 29 0 discriminator 3
 338 012a 54F8081C 		ldr	r1, [r4, #-8]
 339 012e 4046     		mov	r0, r8
 340 0130 FFF7FEFF 		bl	ka_printf
 341              	.LVL40:
  30:../../source/src/user/OS_LIB/malloc.c **** 	}
 342              		.loc 1 30 0 discriminator 3
 343 0134 54F8041C 		ldr	r1, [r4, #-4]
 344 0138 3846     		mov	r0, r7
 345 013a FFF7FEFF 		bl	ka_printf
 346              	.LVL41:
  25:../../source/src/user/OS_LIB/malloc.c **** 	{
 347              		.loc 1 25 0 discriminator 3
 348 013e 2468     		ldr	r4, [r4]
 349              	.LVL42:
 350 0140 B442     		cmp	r4, r6
 351 0142 EDD1     		bne	.L41
 352              	.LVL43:
 353              	.L39:
  32:../../source/src/user/OS_LIB/malloc.c **** 
 354              		.loc 1 32 0
 355 0144 BDE8F883 		pop	{r3, r4, r5, r6, r7, r8, r9, pc}
ARM GAS  G:\Users\Jaxb\AppData\Local\Temp\ccLceCCb.s 			page 14


 356              	.LVL44:
 357              	.L44:
 358              		.align	2
 359              	.L43:
 360 0148 00000000 		.word	.LANCHOR0
 361 014c 68000000 		.word	.LC5
 362 0150 50000000 		.word	.LC3
 363 0154 58000000 		.word	.LC4
 364              		.cfi_endproc
 365              	.LFE14:
 366              		.size	dis_page_alloc_record, .-dis_page_alloc_record
 367              		.align	1
 368              		.p2align 2,,3
 369              		.global	init_malloc
 370              		.syntax unified
 371              		.thumb
 372              		.thumb_func
 373              		.fpu softvfp
 374              		.type	init_malloc, %function
 375              	init_malloc:
 376              	.LFB17:
  74:../../source/src/user/OS_LIB/malloc.c **** 	INIT_LIST_HEAD(&cache_chain_head);
 377              		.loc 1 74 0
 378              		.cfi_startproc
 379              		@ args = 0, pretend = 0, frame = 0
 380              		@ frame_needed = 0, uses_anonymous_args = 0
 381              	.LVL45:
 382 0158 38B5     		push	{r3, r4, r5, lr}
 383              	.LCFI3:
 384              		.cfi_def_cfa_offset 16
 385              		.cfi_offset 3, -16
 386              		.cfi_offset 4, -12
 387              		.cfi_offset 5, -8
 388              		.cfi_offset 14, -4
 389              	.LBB135:
 390              	.LBB136:
  18:../../source/include/os_lib/double_linked_list.h ****     list->prev = list;
 391              		.loc 2 18 0
 392 015a 0F4C     		ldr	r4, .L46
 393              	.LBE136:
 394              	.LBE135:
  76:../../source/src/user/OS_LIB/malloc.c **** 	insert_into_cache_chain(&cache_chain_head,&kmem_cache_kmem_cache,sizeof(struct kmem_cache));
 395              		.loc 1 76 0
 396 015c 4822     		movs	r2, #72
 397              	.LBB139:
 398              	.LBB137:
  18:../../source/include/os_lib/double_linked_list.h ****     list->prev = list;
 399              		.loc 2 18 0
 400 015e 251D     		adds	r5, r4, #4
 401              	.LBE137:
 402              	.LBE139:
  76:../../source/src/user/OS_LIB/malloc.c **** 	insert_into_cache_chain(&cache_chain_head,&kmem_cache_kmem_cache,sizeof(struct kmem_cache));
 403              		.loc 1 76 0
 404 0160 2846     		mov	r0, r5
 405 0162 04F10C01 		add	r1, r4, #12
 406              	.LBB140:
 407              	.LBB138:
ARM GAS  G:\Users\Jaxb\AppData\Local\Temp\ccLceCCb.s 			page 15


  19:../../source/include/os_lib/double_linked_list.h **** }
 408              		.loc 2 19 0
 409 0166 C4E90155 		strd	r5, r5, [r4, #4]
 410              	.LVL46:
 411              	.LBE138:
 412              	.LBE140:
  76:../../source/src/user/OS_LIB/malloc.c **** 	insert_into_cache_chain(&cache_chain_head,&kmem_cache_kmem_cache,sizeof(struct kmem_cache));
 413              		.loc 1 76 0
 414 016a FFF7FEFF 		bl	insert_into_cache_chain
 415              	.LVL47:
  77:../../source/src/user/OS_LIB/malloc.c **** 	insert_into_cache_chain(&cache_chain_head,&kmem_cache32,32);
 416              		.loc 1 77 0
 417 016e 2846     		mov	r0, r5
 418 0170 04F13001 		add	r1, r4, #48
 419 0174 2422     		movs	r2, #36
 420 0176 FFF7FEFF 		bl	insert_into_cache_chain
 421              	.LVL48:
  78:../../source/src/user/OS_LIB/malloc.c **** 	insert_into_cache_chain(&cache_chain_head,&kmem_cache16,16);
 422              		.loc 1 78 0
 423 017a 2846     		mov	r0, r5
 424 017c 04F15401 		add	r1, r4, #84
 425 0180 2022     		movs	r2, #32
 426 0182 FFF7FEFF 		bl	insert_into_cache_chain
 427              	.LVL49:
  79:../../source/src/user/OS_LIB/malloc.c **** 	INIT_SINGLY_LIST_HEAD(&page_alloc_record_head);
 428              		.loc 1 79 0
 429 0186 2846     		mov	r0, r5
 430 0188 04F17801 		add	r1, r4, #120
 431 018c 1022     		movs	r2, #16
 432 018e FFF7FEFF 		bl	insert_into_cache_chain
 433              	.LVL50:
 434              	.LBB141:
 435              	.LBB142:
 436              		.file 3 "../../source/include/os_lib/singly_linked_list.h"
   1:../../source/include/os_lib/singly_linked_list.h **** #ifndef _SINGLY_LINKED_LIST_H
   2:../../source/include/os_lib/singly_linked_list.h **** #define _SINGLY_LINKED_LIST_H
   3:../../source/include/os_lib/singly_linked_list.h **** 
   4:../../source/include/os_lib/singly_linked_list.h **** struct singly_list_head{
   5:../../source/include/os_lib/singly_linked_list.h **** 	struct singly_list_head *next;
   6:../../source/include/os_lib/singly_linked_list.h **** };
   7:../../source/include/os_lib/singly_linked_list.h **** 
   8:../../source/include/os_lib/singly_linked_list.h **** #define SINGLY_LIST_HEAD_INIT(name) { &(name) }
   9:../../source/include/os_lib/singly_linked_list.h **** 
  10:../../source/include/os_lib/singly_linked_list.h **** #define SINGLY_LIST_HEAD(name) \
  11:../../source/include/os_lib/singly_linked_list.h ****     struct singly_list_head name = SINGLY_LIST_HEAD_INIT(name)
  12:../../source/include/os_lib/singly_linked_list.h **** 
  13:../../source/include/os_lib/singly_linked_list.h **** static inline void INIT_SINGLY_LIST_HEAD(struct singly_list_head *list)
  14:../../source/include/os_lib/singly_linked_list.h **** {
  15:../../source/include/os_lib/singly_linked_list.h **** 	list->next = list;
 437              		.loc 3 15 0
 438 0192 2460     		str	r4, [r4]
 439              	.LVL51:
 440              	.LBE142:
 441              	.LBE141:
  81:../../source/src/user/OS_LIB/malloc.c **** /**
 442              		.loc 1 81 0
 443 0194 38BD     		pop	{r3, r4, r5, pc}
ARM GAS  G:\Users\Jaxb\AppData\Local\Temp\ccLceCCb.s 			page 16


 444              	.L47:
 445 0196 00BF     		.align	2
 446              	.L46:
 447 0198 00000000 		.word	.LANCHOR0
 448              		.cfi_endproc
 449              	.LFE17:
 450              		.size	init_malloc, .-init_malloc
 451              		.align	1
 452              		.p2align 2,,3
 453              		.global	get_set_bit_place
 454              		.syntax unified
 455              		.thumb
 456              		.thumb_func
 457              		.fpu softvfp
 458              		.type	get_set_bit_place, %function
 459              	get_set_bit_place:
 460              	.LFB18:
  92:../../source/src/user/OS_LIB/malloc.c **** 	int n=1;
 461              		.loc 1 92 0
 462              		.cfi_startproc
 463              		@ args = 0, pretend = 0, frame = 0
 464              		@ frame_needed = 0, uses_anonymous_args = 0
 465              		@ link register save eliminated.
 466              	.LVL52:
  94:../../source/src/user/OS_LIB/malloc.c ****     if ((num>>16) == 0) {n = n+16; num = num<<16;}
 467              		.loc 1 94 0
 468 019c A8B1     		cbz	r0, .L54
  95:../../source/src/user/OS_LIB/malloc.c ****     if ((num>>24) == 0) {n = n+8; num = num<<8;}
 469              		.loc 1 95 0
 470 019e 030C     		lsrs	r3, r0, #16
 471              	.LVL53:
 472 01a0 0ABF     		itet	eq
 473 01a2 1123     		moveq	r3, #17
  93:../../source/src/user/OS_LIB/malloc.c ****     if(num==0) return -1;
 474              		.loc 1 93 0
 475 01a4 0123     		movne	r3, #1
  95:../../source/src/user/OS_LIB/malloc.c ****     if ((num>>24) == 0) {n = n+8; num = num<<8;}
 476              		.loc 1 95 0
 477 01a6 0004     		lsleq	r0, r0, #16
 478              	.LVL54:
  96:../../source/src/user/OS_LIB/malloc.c ****     if ((num>>28) == 0) {n = n+4; num = num<<4;}
 479              		.loc 1 96 0
 480 01a8 020E     		lsrs	r2, r0, #24
 481 01aa 04BF     		itt	eq
 482 01ac 0002     		lsleq	r0, r0, #8
 483              	.LVL55:
 484 01ae 0833     		addeq	r3, r3, #8
 485              	.LVL56:
  97:../../source/src/user/OS_LIB/malloc.c ****     if ((num>>30) == 0) {n = n+2; num = num<<2;}
 486              		.loc 1 97 0
 487 01b0 020F     		lsrs	r2, r0, #28
 488 01b2 04BF     		itt	eq
 489 01b4 0001     		lsleq	r0, r0, #4
 490              	.LVL57:
 491 01b6 0433     		addeq	r3, r3, #4
 492              	.LVL58:
  98:../../source/src/user/OS_LIB/malloc.c ****     n = n-(num>>31);
ARM GAS  G:\Users\Jaxb\AppData\Local\Temp\ccLceCCb.s 			page 17


 493              		.loc 1 98 0
 494 01b8 820F     		lsrs	r2, r0, #30
 495 01ba 04BF     		itt	eq
 496 01bc 0233     		addeq	r3, r3, #2
 497              	.LVL59:
 498 01be 8000     		lsleq	r0, r0, #2
 499              	.LVL60:
  99:../../source/src/user/OS_LIB/malloc.c ****     return 31-n;
 500              		.loc 1 99 0
 501 01c0 03EBE070 		add	r0, r3, r0, asr #31
 502              	.LVL61:
 100:../../source/src/user/OS_LIB/malloc.c **** }
 503              		.loc 1 100 0
 504 01c4 C0F11F00 		rsb	r0, r0, #31
 505              	.LVL62:
 506 01c8 7047     		bx	lr
 507              	.LVL63:
 508              	.L54:
  94:../../source/src/user/OS_LIB/malloc.c ****     if ((num>>16) == 0) {n = n+16; num = num<<16;}
 509              		.loc 1 94 0
 510 01ca 4FF0FF30 		mov	r0, #-1
 511              	.LVL64:
 101:../../source/src/user/OS_LIB/malloc.c **** 
 512              		.loc 1 101 0
 513 01ce 7047     		bx	lr
 514              		.cfi_endproc
 515              	.LFE18:
 516              		.size	get_set_bit_place, .-get_set_bit_place
 517              		.align	1
 518              		.p2align 2,,3
 519              		.global	ka_malloc
 520              		.syntax unified
 521              		.thumb
 522              		.thumb_func
 523              		.fpu softvfp
 524              		.type	ka_malloc, %function
 525              	ka_malloc:
 526              	.LFB20:
 164:../../source/src/user/OS_LIB/malloc.c **** 	void *ptr;
 527              		.loc 1 164 0
 528              		.cfi_startproc
 529              		@ args = 0, pretend = 0, frame = 0
 530              		@ frame_needed = 0, uses_anonymous_args = 0
 531              	.LVL65:
 532 01d0 2DE9F843 		push	{r3, r4, r5, r6, r7, r8, r9, lr}
 533              	.LCFI4:
 534              		.cfi_def_cfa_offset 32
 535              		.cfi_offset 3, -32
 536              		.cfi_offset 4, -28
 537              		.cfi_offset 5, -24
 538              		.cfi_offset 6, -20
 539              		.cfi_offset 7, -16
 540              		.cfi_offset 8, -12
 541              		.cfi_offset 9, -8
 542              		.cfi_offset 14, -4
 167:../../source/src/user/OS_LIB/malloc.c **** 	{
 543              		.loc 1 167 0
ARM GAS  G:\Users\Jaxb\AppData\Local\Temp\ccLceCCb.s 			page 18


 544 01d4 0546     		mov	r5, r0
 545 01d6 10B3     		cbz	r0, .L56
 171:../../source/src/user/OS_LIB/malloc.c **** 	if(size <= 512)
 546              		.loc 1 171 0
 547 01d8 FFF7FEFF 		bl	CPU_SR_Save
 548              	.LVL66:
 172:../../source/src/user/OS_LIB/malloc.c **** 	{
 549              		.loc 1 172 0
 550 01dc B5F5007F 		cmp	r5, #512
 171:../../source/src/user/OS_LIB/malloc.c **** 	if(size <= 512)
 551              		.loc 1 171 0
 552 01e0 0746     		mov	r7, r0
 553              	.LVL67:
 172:../../source/src/user/OS_LIB/malloc.c **** 	{
 554              		.loc 1 172 0
 555 01e2 1FD9     		bls	.L72
 556              	.LBB186:
 250:../../source/src/user/OS_LIB/malloc.c **** 		ptr = _case_alloc_buddy((unsigned int)level);
 557              		.loc 1 250 0
 558 01e4 A80A     		lsrs	r0, r5, #10
 559              	.LVL68:
 560 01e6 FFF7FEFF 		bl	get_set_bit_place
 561              	.LVL69:
 562 01ea 861C     		adds	r6, r0, #2
 563 01ec 8046     		mov	r8, r0
 564              	.LVL70:
 251:../../source/src/user/OS_LIB/malloc.c **** 		if(NULL == ptr)
 565              		.loc 1 251 0
 566 01ee 3046     		mov	r0, r6
 567 01f0 FFF73EFF 		bl	_case_alloc_buddy
 568              	.LVL71:
 252:../../source/src/user/OS_LIB/malloc.c **** 		{
 569              		.loc 1 252 0
 570 01f4 0546     		mov	r5, r0
 571              	.LVL72:
 572 01f6 0028     		cmp	r0, #0
 573 01f8 6AD0     		beq	.L70
 574              	.LVL73:
 575              	.LBB187:
 576              	.LBB188:
  36:../../source/src/user/OS_LIB/malloc.c **** 	if(NULL == recoed_ptr)
 577              		.loc 1 36 0
 578 01fa 0C20     		movs	r0, #12
 579              	.LVL74:
 580 01fc FFF7FEFF 		bl	ka_malloc
 581              	.LVL75:
  37:../../source/src/user/OS_LIB/malloc.c **** 	{
 582              		.loc 1 37 0
 583 0200 0446     		mov	r4, r0
 584 0202 0028     		cmp	r0, #0
 585 0204 00F09980 		beq	.L73
 586              	.LBB189:
 587              	.LBB190:
  16:../../source/include/os_lib/singly_linked_list.h **** }
  17:../../source/include/os_lib/singly_linked_list.h **** 
  18:../../source/include/os_lib/singly_linked_list.h **** static inline void singly_list_add(struct singly_list_head *new,struct singly_list_head *head)
  19:../../source/include/os_lib/singly_linked_list.h **** {
ARM GAS  G:\Users\Jaxb\AppData\Local\Temp\ccLceCCb.s 			page 19


  20:../../source/include/os_lib/singly_linked_list.h **** 	new->next = head->next;
 588              		.loc 3 20 0
 589 0208 0346     		mov	r3, r0
 590 020a 574A     		ldr	r2, .L78
 591              	.LBE190:
 592              	.LBE189:
  41:../../source/src/user/OS_LIB/malloc.c **** 	recoed_ptr->ptr = ptr;
 593              		.loc 1 41 0
 594 020c 0660     		str	r6, [r0]
 595              	.LBB194:
 596              	.LBB191:
 597              		.loc 3 20 0
 598 020e 1168     		ldr	r1, [r2]
 599              	.LBE191:
 600              	.LBE194:
  42:../../source/src/user/OS_LIB/malloc.c **** 	singly_list_add(&recoed_ptr->list,&page_alloc_record_head);
 601              		.loc 1 42 0
 602 0210 4560     		str	r5, [r0, #4]
 603              	.LVL76:
 604              	.LBB195:
 605              	.LBB192:
 606              		.loc 3 20 0
 607 0212 43F8081F 		str	r1, [r3, #8]!
 608              	.LBE192:
 609              	.LBE195:
 610              	.LBE188:
 611              	.LBE187:
 259:../../source/src/user/OS_LIB/malloc.c **** 			return ptr;
 612              		.loc 1 259 0
 613 0216 3846     		mov	r0, r7
 614              	.LVL77:
 615              	.LBB198:
 616              	.LBB197:
 617              	.LBB196:
 618              	.LBB193:
  21:../../source/include/os_lib/singly_linked_list.h **** 	head->next = new;
 619              		.loc 3 21 0
 620 0218 1360     		str	r3, [r2]
 621              	.LVL78:
 622              	.LBE193:
 623              	.LBE196:
 624              	.LBE197:
 625              	.LBE198:
 259:../../source/src/user/OS_LIB/malloc.c **** 			return ptr;
 626              		.loc 1 259 0
 627 021a FFF7FEFF 		bl	CPU_SR_Restore
 628              	.LVL79:
 629              	.L56:
 630              	.LBE186:
 270:../../source/src/user/OS_LIB/malloc.c **** 
 631              		.loc 1 270 0
 632 021e 2846     		mov	r0, r5
 633 0220 BDE8F883 		pop	{r3, r4, r5, r6, r7, r8, r9, pc}
 634              	.LVL80:
 635              	.L72:
 636              	.LBB199:
 174:../../source/src/user/OS_LIB/malloc.c **** 		while(1)
ARM GAS  G:\Users\Jaxb\AppData\Local\Temp\ccLceCCb.s 			page 20


 637              		.loc 1 174 0
 638 0224 2946     		mov	r1, r5
 639 0226 5148     		ldr	r0, .L78+4
 640              	.LVL81:
 641 0228 FFF7FEFF 		bl	find_first_bigger_IL
 642              	.LVL82:
 643 022c 0446     		mov	r4, r0
 644              	.LVL83:
 645              	.LBB200:
 242:../../source/src/user/OS_LIB/malloc.c **** 				IL_ptr = find_first_bigger_IL(&cache_chain_head,size);
 646              		.loc 1 242 0
 647 022e 4F4E     		ldr	r6, .L78+4
 648              	.L59:
 649              	.LVL84:
 650              	.LBE200:
 177:../../source/src/user/OS_LIB/malloc.c **** 			{
 651              		.loc 1 177 0
 652 0230 2CB3     		cbz	r4, .L60
 653              	.LBB201:
 654              	.LBB202:
 655              	.LBB203:
  37:../../source/include/os_lib/double_linked_list.h **** }
  38:../../source/include/os_lib/double_linked_list.h **** 
  39:../../source/include/os_lib/double_linked_list.h **** 
  40:../../source/include/os_lib/double_linked_list.h **** static inline void list_add_tail(struct list_head *new, struct list_head *head)
  41:../../source/include/os_lib/double_linked_list.h **** {
  42:../../source/include/os_lib/double_linked_list.h ****     __list_add(new, head->prev, head);
  43:../../source/include/os_lib/double_linked_list.h **** }
  44:../../source/include/os_lib/double_linked_list.h **** 
  45:../../source/include/os_lib/double_linked_list.h **** 
  46:../../source/include/os_lib/double_linked_list.h **** static inline void __list_del(struct list_head * prev, struct list_head * next)
  47:../../source/include/os_lib/double_linked_list.h **** {
  48:../../source/include/os_lib/double_linked_list.h ****     next->prev = prev;
  49:../../source/include/os_lib/double_linked_list.h ****     prev->next = next;
  50:../../source/include/os_lib/double_linked_list.h **** }
  51:../../source/include/os_lib/double_linked_list.h **** 
  52:../../source/include/os_lib/double_linked_list.h **** 
  53:../../source/include/os_lib/double_linked_list.h **** static inline void list_del(struct list_head *entry)
  54:../../source/include/os_lib/double_linked_list.h **** {
  55:../../source/include/os_lib/double_linked_list.h ****     __list_del(entry->prev, entry->next);
  56:../../source/include/os_lib/double_linked_list.h **** }
  57:../../source/include/os_lib/double_linked_list.h **** 
  58:../../source/include/os_lib/double_linked_list.h **** 
  59:../../source/include/os_lib/double_linked_list.h **** static inline void __list_del_entry(struct list_head *entry)
  60:../../source/include/os_lib/double_linked_list.h **** {
  61:../../source/include/os_lib/double_linked_list.h ****     __list_del(entry->prev, entry->next);
  62:../../source/include/os_lib/double_linked_list.h **** }
  63:../../source/include/os_lib/double_linked_list.h **** 
  64:../../source/include/os_lib/double_linked_list.h **** 
  65:../../source/include/os_lib/double_linked_list.h **** static inline void list_del_init(struct list_head *entry)
  66:../../source/include/os_lib/double_linked_list.h **** {
  67:../../source/include/os_lib/double_linked_list.h ****     __list_del_entry(entry);
  68:../../source/include/os_lib/double_linked_list.h ****     INIT_LIST_HEAD(entry);
  69:../../source/include/os_lib/double_linked_list.h **** }
  70:../../source/include/os_lib/double_linked_list.h **** 
  71:../../source/include/os_lib/double_linked_list.h **** 
  72:../../source/include/os_lib/double_linked_list.h **** static inline void list_replace(struct list_head *old,
ARM GAS  G:\Users\Jaxb\AppData\Local\Temp\ccLceCCb.s 			page 21


  73:../../source/include/os_lib/double_linked_list.h ****                 struct list_head *new)
  74:../../source/include/os_lib/double_linked_list.h **** {
  75:../../source/include/os_lib/double_linked_list.h ****     new->next = old->next;
  76:../../source/include/os_lib/double_linked_list.h ****     new->next->prev = new;
  77:../../source/include/os_lib/double_linked_list.h ****     new->prev = old->prev;
  78:../../source/include/os_lib/double_linked_list.h ****     new->prev->next = new;
  79:../../source/include/os_lib/double_linked_list.h **** }
  80:../../source/include/os_lib/double_linked_list.h **** 
  81:../../source/include/os_lib/double_linked_list.h **** 
  82:../../source/include/os_lib/double_linked_list.h **** static inline int list_empty(const struct list_head *head)
  83:../../source/include/os_lib/double_linked_list.h **** {
  84:../../source/include/os_lib/double_linked_list.h ****     return head->next == head;
 656              		.loc 2 84 0
 657 0232 2246     		mov	r2, r4
 658 0234 52F8148F 		ldr	r8, [r2, #20]!
 659              	.LVL85:
 660              	.LBE203:
 661              	.LBE202:
 181:../../source/src/user/OS_LIB/malloc.c **** 				{
 662              		.loc 1 181 0
 663 0238 9045     		cmp	r8, r2
 664 023a 30D1     		bne	.L74
 665              	.LBB204:
 666              	.LBB205:
 667              		.loc 2 84 0
 668 023c 2246     		mov	r2, r4
 669 023e 52F81C3F 		ldr	r3, [r2, #28]!
 670              	.LVL86:
 671              	.LBE205:
 672              	.LBE204:
 194:../../source/src/user/OS_LIB/malloc.c **** 				{
 673              		.loc 1 194 0
 674 0242 9342     		cmp	r3, r2
 675 0244 4AD1     		bne	.L75
 676              	.LBB206:
 209:../../source/src/user/OS_LIB/malloc.c **** 					//at least allocate 10 times of corresponding space and a room of sizeof(struct slab)
 677              		.loc 1 209 0
 678 0246 A068     		ldr	r0, [r4, #8]
 679              	.LVL87:
 680 0248 00EB8000 		add	r0, r0, r0, lsl #2
 681 024c 4000     		lsls	r0, r0, #1
 682 024e 2430     		adds	r0, r0, #36
 683 0250 800A     		lsrs	r0, r0, #10
 684 0252 FFF7FEFF 		bl	get_set_bit_place
 685              	.LVL88:
 211:../../source/src/user/OS_LIB/malloc.c **** 					if(NULL != slab_ptr)
 686              		.loc 1 211 0
 687 0256 0230     		adds	r0, r0, #2
 688              	.LVL89:
 689 0258 FFF70AFF 		bl	_case_alloc_buddy
 690              	.LVL90:
 212:../../source/src/user/OS_LIB/malloc.c **** 					{
 691              		.loc 1 212 0
 692 025c 8146     		mov	r9, r0
 693 025e 0028     		cmp	r0, #0
 694 0260 55D1     		bne	.L76
 223:../../source/src/user/OS_LIB/malloc.c **** 						if(NULL == IL_ptr)
ARM GAS  G:\Users\Jaxb\AppData\Local\Temp\ccLceCCb.s 			page 22


 695              		.loc 1 223 0
 696 0262 2046     		mov	r0, r4
 697              	.LVL91:
 698 0264 3146     		mov	r1, r6
 699 0266 FFF7FEFF 		bl	get_next_IL
 700              	.LVL92:
 224:../../source/src/user/OS_LIB/malloc.c **** 						{
 701              		.loc 1 224 0
 702 026a 0446     		mov	r4, r0
 703              	.LVL93:
 704 026c 0028     		cmp	r0, #0
 705 026e DFD1     		bne	.L59
 706              	.LVL94:
 707              	.L71:
 708              	.LBE206:
 709              	.LBE201:
 710              	.LBE199:
 711              	.LBB255:
 267:../../source/src/user/OS_LIB/malloc.c **** 		}
 712              		.loc 1 267 0
 713 0270 2546     		mov	r5, r4
 266:../../source/src/user/OS_LIB/malloc.c **** 			return NULL;
 714              		.loc 1 266 0
 715 0272 3846     		mov	r0, r7
 716 0274 FFF7FEFF 		bl	CPU_SR_Restore
 717              	.LVL95:
 718              	.LBE255:
 270:../../source/src/user/OS_LIB/malloc.c **** 
 719              		.loc 1 270 0
 720 0278 2846     		mov	r0, r5
 721 027a BDE8F883 		pop	{r3, r4, r5, r6, r7, r8, r9, pc}
 722              	.LVL96:
 723              	.L60:
 724              	.LBB256:
 725              	.LBB250:
 235:../../source/src/user/OS_LIB/malloc.c **** 				ASSERT(NULL != kmem_cache_ptr);
 726              		.loc 1 235 0
 727 027e 2420     		movs	r0, #36
 728              	.LVL97:
 729 0280 FFF7FEFF 		bl	ka_malloc
 730              	.LVL98:
 236:../../source/src/user/OS_LIB/malloc.c **** 				if(NULL == kmem_cache_ptr)
 731              		.loc 1 236 0
 732 0284 0028     		cmp	r0, #0
 733 0286 66D0     		beq	.L77
 242:../../source/src/user/OS_LIB/malloc.c **** 				IL_ptr = find_first_bigger_IL(&cache_chain_head,size);
 734              		.loc 1 242 0
 735 0288 0146     		mov	r1, r0
 736 028a 2A46     		mov	r2, r5
 737 028c 3046     		mov	r0, r6
 738              	.LVL99:
 739 028e FFF7FEFF 		bl	insert_into_cache_chain
 740              	.LVL100:
 243:../../source/src/user/OS_LIB/malloc.c **** 				continue ;
 741              		.loc 1 243 0
 742 0292 2946     		mov	r1, r5
 743 0294 3046     		mov	r0, r6
ARM GAS  G:\Users\Jaxb\AppData\Local\Temp\ccLceCCb.s 			page 23


 744 0296 FFF7FEFF 		bl	find_first_bigger_IL
 745              	.LVL101:
 746 029a 0446     		mov	r4, r0
 747              	.LVL102:
 244:../../source/src/user/OS_LIB/malloc.c **** 			}
 748              		.loc 1 244 0
 749 029c C8E7     		b	.L59
 750              	.LVL103:
 751              	.L74:
 752              	.LBE250:
 753              	.LBB251:
 754              	.LBB213:
 186:../../source/src/user/OS_LIB/malloc.c **** 					{
 755              		.loc 1 186 0
 756 029e 58F80C3C 		ldr	r3, [r8, #-12]
 184:../../source/src/user/OS_LIB/malloc.c **** 					list_del(slab_ptr->block_head.next); // delete it from slab chain "block_head"
 757              		.loc 1 184 0
 758 02a2 D8F80850 		ldr	r5, [r8, #8]
 759              	.LVL104:
 186:../../source/src/user/OS_LIB/malloc.c **** 					{
 760              		.loc 1 186 0
 761 02a6 013B     		subs	r3, r3, #1
 762              	.LBB214:
 763              	.LBB215:
  55:../../source/include/os_lib/double_linked_list.h **** }
 764              		.loc 2 55 0
 765 02a8 D5E90012 		ldrd	r1, r2, [r5]
 766              	.LVL105:
 767              	.LBB216:
 768              	.LBB217:
  48:../../source/include/os_lib/double_linked_list.h ****     prev->next = next;
 769              		.loc 2 48 0
 770 02ac 4A60     		str	r2, [r1, #4]
  49:../../source/include/os_lib/double_linked_list.h **** }
 771              		.loc 2 49 0
 772 02ae 1160     		str	r1, [r2]
 773              	.LVL106:
 774              	.LBE217:
 775              	.LBE216:
 776              	.LBE215:
 777              	.LBE214:
 186:../../source/src/user/OS_LIB/malloc.c **** 					{
 778              		.loc 1 186 0
 779 02b0 48F80C3C 		str	r3, [r8, #-12]
 780 02b4 63B9     		cbnz	r3, .L70
 781              	.LVL107:
 782              	.LBB218:
 783              	.LBB219:
  55:../../source/include/os_lib/double_linked_list.h **** }
 784              		.loc 2 55 0
 785 02b6 D8E90012 		ldrd	r1, r2, [r8]
 786              	.LVL108:
 787              	.LBE219:
 788              	.LBE218:
 789              	.LBB223:
 790              	.LBB224:
  36:../../source/include/os_lib/double_linked_list.h **** }
ARM GAS  G:\Users\Jaxb\AppData\Local\Temp\ccLceCCb.s 			page 24


 791              		.loc 2 36 0
 792 02ba 2346     		mov	r3, r4
 793              	.LBE224:
 794              	.LBE223:
 795              	.LBB228:
 796              	.LBB222:
 797              	.LBB220:
 798              	.LBB221:
  48:../../source/include/os_lib/double_linked_list.h ****     prev->next = next;
 799              		.loc 2 48 0
 800 02bc 4A60     		str	r2, [r1, #4]
  49:../../source/include/os_lib/double_linked_list.h **** }
 801              		.loc 2 49 0
 802 02be 1160     		str	r1, [r2]
 803              	.LVL109:
 804              	.LBE221:
 805              	.LBE220:
 806              	.LBE222:
 807              	.LBE228:
 808              	.LBB229:
 809              	.LBB227:
  36:../../source/include/os_lib/double_linked_list.h **** }
 810              		.loc 2 36 0
 811 02c0 53F80C2F 		ldr	r2, [r3, #12]!
 812              	.LVL110:
 813              	.LBB225:
 814              	.LBB226:
  27:../../source/include/os_lib/double_linked_list.h ****     new->next = next;
 815              		.loc 2 27 0
 816 02c4 C2F80480 		str	r8, [r2, #4]
  29:../../source/include/os_lib/double_linked_list.h ****     prev->next = new;
 817              		.loc 2 29 0
 818 02c8 C8E90023 		strd	r2, r3, [r8]
  30:../../source/include/os_lib/double_linked_list.h **** }
 819              		.loc 2 30 0
 820 02cc C4F80C80 		str	r8, [r4, #12]
 821              	.LVL111:
 822              	.L70:
 823              	.LBE226:
 824              	.LBE225:
 825              	.LBE227:
 826              	.LBE229:
 827              	.LBE213:
 828              	.LBE251:
 829              	.LBE256:
 830              	.LBB257:
 254:../../source/src/user/OS_LIB/malloc.c **** 			return NULL;
 831              		.loc 1 254 0
 832 02d0 3846     		mov	r0, r7
 833 02d2 FFF7FEFF 		bl	CPU_SR_Restore
 834              	.LVL112:
 835              	.LBE257:
 270:../../source/src/user/OS_LIB/malloc.c **** 
 836              		.loc 1 270 0
 837 02d6 2846     		mov	r0, r5
 838 02d8 BDE8F883 		pop	{r3, r4, r5, r6, r7, r8, r9, pc}
 839              	.LVL113:
ARM GAS  G:\Users\Jaxb\AppData\Local\Temp\ccLceCCb.s 			page 25


 840              	.L75:
 841              	.LBB258:
 842              	.LBB252:
 843              	.LBB230:
 197:../../source/src/user/OS_LIB/malloc.c **** 					list_del(slab_ptr->block_head.next);
 844              		.loc 1 197 0
 845 02dc 9D68     		ldr	r5, [r3, #8]
 846              	.LVL114:
 201:../../source/src/user/OS_LIB/malloc.c **** 					CPU_CRITICAL_EXIT();
 847              		.loc 1 201 0
 848 02de 53F80C2C 		ldr	r2, [r3, #-12]
 849              	.LBB231:
 850              	.LBB232:
  55:../../source/include/os_lib/double_linked_list.h **** }
 851              		.loc 2 55 0
 852 02e2 D5E90061 		ldrd	r6, r1, [r5]
 853              	.LVL115:
 854              	.LBB233:
 855              	.LBB234:
  48:../../source/include/os_lib/double_linked_list.h ****     prev->next = next;
 856              		.loc 2 48 0
 857 02e6 7160     		str	r1, [r6, #4]
  49:../../source/include/os_lib/double_linked_list.h **** }
 858              		.loc 2 49 0
 859 02e8 0E60     		str	r6, [r1]
 860              	.LVL116:
 861              	.LBE234:
 862              	.LBE233:
 863              	.LBE232:
 864              	.LBE231:
 865              	.LBB235:
 866              	.LBB236:
  55:../../source/include/os_lib/double_linked_list.h **** }
 867              		.loc 2 55 0
 868 02ea D3E90061 		ldrd	r6, r1, [r3]
 869              	.LVL117:
 870              	.LBB237:
 871              	.LBB238:
  48:../../source/include/os_lib/double_linked_list.h ****     prev->next = next;
 872              		.loc 2 48 0
 873 02ee 7160     		str	r1, [r6, #4]
  49:../../source/include/os_lib/double_linked_list.h **** }
 874              		.loc 2 49 0
 875 02f0 0E60     		str	r6, [r1]
 876              	.LVL118:
 877              	.LBE238:
 878              	.LBE237:
 879              	.LBE236:
 880              	.LBE235:
 881              	.LBB239:
 882              	.LBB240:
  36:../../source/include/os_lib/double_linked_list.h **** }
 883              		.loc 2 36 0
 884 02f2 6169     		ldr	r1, [r4, #20]
 885              	.LVL119:
 886              	.LBE240:
 887              	.LBE239:
ARM GAS  G:\Users\Jaxb\AppData\Local\Temp\ccLceCCb.s 			page 26


 201:../../source/src/user/OS_LIB/malloc.c **** 					CPU_CRITICAL_EXIT();
 888              		.loc 1 201 0
 889 02f4 013A     		subs	r2, r2, #1
 890              	.LBB247:
 891              	.LBB245:
 892              	.LBB241:
 893              	.LBB242:
  27:../../source/include/os_lib/double_linked_list.h ****     new->next = next;
 894              		.loc 2 27 0
 895 02f6 4B60     		str	r3, [r1, #4]
 896              	.LBE242:
 897              	.LBE241:
 898              	.LBE245:
 899              	.LBE247:
 202:../../source/src/user/OS_LIB/malloc.c **** 					return ptr;
 900              		.loc 1 202 0
 901 02f8 3846     		mov	r0, r7
 902              	.LVL120:
 903              	.LBB248:
 904              	.LBB246:
 905              	.LBB244:
 906              	.LBB243:
  29:../../source/include/os_lib/double_linked_list.h ****     prev->next = new;
 907              		.loc 2 29 0
 908 02fa C3E90018 		strd	r1, r8, [r3]
  30:../../source/include/os_lib/double_linked_list.h **** }
 909              		.loc 2 30 0
 910 02fe 6361     		str	r3, [r4, #20]
 911              	.LVL121:
 912              	.LBE243:
 913              	.LBE244:
 914              	.LBE246:
 915              	.LBE248:
 201:../../source/src/user/OS_LIB/malloc.c **** 					CPU_CRITICAL_EXIT();
 916              		.loc 1 201 0
 917 0300 43F80C2C 		str	r2, [r3, #-12]
 202:../../source/src/user/OS_LIB/malloc.c **** 					return ptr;
 918              		.loc 1 202 0
 919 0304 FFF7FEFF 		bl	CPU_SR_Restore
 920              	.LVL122:
 921              	.LBE230:
 922              	.LBE252:
 923              	.LBE258:
 270:../../source/src/user/OS_LIB/malloc.c **** 
 924              		.loc 1 270 0
 925 0308 2846     		mov	r0, r5
 926 030a BDE8F883 		pop	{r3, r4, r5, r6, r7, r8, r9, pc}
 927              	.LVL123:
 928              	.L76:
 929              	.LBB259:
 930              	.LBB253:
 931              	.LBB249:
 214:../../source/src/user/OS_LIB/malloc.c **** 						ptr = slab_ptr->block_head.next; // ptr is the point of the allocated space
 932              		.loc 1 214 0
 933 030e 4346     		mov	r3, r8
 934 0310 A268     		ldr	r2, [r4, #8]
 935 0312 4168     		ldr	r1, [r0, #4]
ARM GAS  G:\Users\Jaxb\AppData\Local\Temp\ccLceCCb.s 			page 27


 936 0314 FFF7FEFF 		bl	load_slab
 937              	.LVL124:
 217:../../source/src/user/OS_LIB/malloc.c **** 						CPU_CRITICAL_EXIT();
 938              		.loc 1 217 0
 939 0318 D9F80830 		ldr	r3, [r9, #8]
 215:../../source/src/user/OS_LIB/malloc.c **** 						list_del(slab_ptr->block_head.next); // delete it from slab chain "block_head"
 940              		.loc 1 215 0
 941 031c D9F81C50 		ldr	r5, [r9, #28]
 942              	.LVL125:
 217:../../source/src/user/OS_LIB/malloc.c **** 						CPU_CRITICAL_EXIT();
 943              		.loc 1 217 0
 944 0320 013B     		subs	r3, r3, #1
 945              	.LBB207:
 946              	.LBB208:
  55:../../source/include/os_lib/double_linked_list.h **** }
 947              		.loc 2 55 0
 948 0322 D5E90012 		ldrd	r1, r2, [r5]
 949              	.LVL126:
 950              	.LBE208:
 951              	.LBE207:
 218:../../source/src/user/OS_LIB/malloc.c **** 						return ptr;
 952              		.loc 1 218 0
 953 0326 3846     		mov	r0, r7
 954              	.LBB212:
 955              	.LBB211:
 956              	.LBB209:
 957              	.LBB210:
  48:../../source/include/os_lib/double_linked_list.h ****     prev->next = next;
 958              		.loc 2 48 0
 959 0328 4A60     		str	r2, [r1, #4]
  49:../../source/include/os_lib/double_linked_list.h **** }
 960              		.loc 2 49 0
 961 032a 1160     		str	r1, [r2]
 962              	.LVL127:
 963              	.LBE210:
 964              	.LBE209:
 965              	.LBE211:
 966              	.LBE212:
 217:../../source/src/user/OS_LIB/malloc.c **** 						CPU_CRITICAL_EXIT();
 967              		.loc 1 217 0
 968 032c C9F80830 		str	r3, [r9, #8]
 218:../../source/src/user/OS_LIB/malloc.c **** 						return ptr;
 969              		.loc 1 218 0
 970 0330 FFF7FEFF 		bl	CPU_SR_Restore
 971              	.LVL128:
 972              	.LBE249:
 973              	.LBE253:
 974              	.LBE259:
 270:../../source/src/user/OS_LIB/malloc.c **** 
 975              		.loc 1 270 0
 976 0334 2846     		mov	r0, r5
 977 0336 BDE8F883 		pop	{r3, r4, r5, r6, r7, r8, r9, pc}
 978              	.LVL129:
 979              	.L73:
 980              	.LBB260:
 264:../../source/src/user/OS_LIB/malloc.c **** 			_case_slab_free_buddy(ptr,(void *)((unsigned int)ptr + ka_pow(2,level-1) * PAGE_SIZE_BYTE));
 981              		.loc 1 264 0
ARM GAS  G:\Users\Jaxb\AppData\Local\Temp\ccLceCCb.s 			page 28


 982 033a 0D48     		ldr	r0, .L78+8
 983 033c FFF7FEFF 		bl	ka_printf
 984              	.LVL130:
 265:../../source/src/user/OS_LIB/malloc.c **** 			CPU_CRITICAL_EXIT();
 985              		.loc 1 265 0
 986 0340 08F10101 		add	r1, r8, #1
 987 0344 0220     		movs	r0, #2
 988 0346 FFF7FEFF 		bl	ka_pow
 989              	.LVL131:
 990 034a 05EB8021 		add	r1, r5, r0, lsl #10
 991 034e 2846     		mov	r0, r5
 992 0350 FFF7FEFF 		bl	_case_slab_free_buddy
 993              	.LVL132:
 994 0354 8CE7     		b	.L71
 995              	.LVL133:
 996              	.L77:
 997              	.LBE260:
 998              	.LBB261:
 999              	.LBB254:
 236:../../source/src/user/OS_LIB/malloc.c **** 				if(NULL == kmem_cache_ptr)
 1000              		.loc 1 236 0 discriminator 1
 1001 0356 EC21     		movs	r1, #236
 1002 0358 0648     		ldr	r0, .L78+12
 1003              	.LVL134:
 1004 035a FFF7FEFF 		bl	_ASSERT
 1005              	.LVL135:
 239:../../source/src/user/OS_LIB/malloc.c **** 					return NULL;
 1006              		.loc 1 239 0 discriminator 1
 1007 035e 3846     		mov	r0, r7
 240:../../source/src/user/OS_LIB/malloc.c **** 				}
 1008              		.loc 1 240 0 discriminator 1
 1009 0360 2546     		mov	r5, r4
 1010              	.LVL136:
 239:../../source/src/user/OS_LIB/malloc.c **** 					return NULL;
 1011              		.loc 1 239 0 discriminator 1
 1012 0362 FFF7FEFF 		bl	CPU_SR_Restore
 1013              	.LVL137:
 240:../../source/src/user/OS_LIB/malloc.c **** 				}
 1014              		.loc 1 240 0 discriminator 1
 1015 0366 5AE7     		b	.L56
 1016              	.L79:
 1017              		.align	2
 1018              	.L78:
 1019 0368 00000000 		.word	.LANCHOR0
 1020 036c 04000000 		.word	.LANCHOR0+4
 1021 0370 78000000 		.word	.LC6
 1022 0374 00000000 		.word	.LC0
 1023              	.LBE254:
 1024              	.LBE261:
 1025              		.cfi_endproc
 1026              	.LFE20:
 1027              		.size	ka_malloc, .-ka_malloc
 1028              		.align	1
 1029              		.p2align 2,,3
 1030              		.global	in_os_memory
 1031              		.syntax unified
 1032              		.thumb
ARM GAS  G:\Users\Jaxb\AppData\Local\Temp\ccLceCCb.s 			page 29


 1033              		.thumb_func
 1034              		.fpu softvfp
 1035              		.type	in_os_memory, %function
 1036              	in_os_memory:
 1037              	.LFB22:
 294:../../source/src/user/OS_LIB/malloc.c **** 
 295:../../source/src/user/OS_LIB/malloc.c **** int in_os_memory(void *ptr)
 296:../../source/src/user/OS_LIB/malloc.c **** {
 1038              		.loc 1 296 0
 1039              		.cfi_startproc
 1040              		@ args = 0, pretend = 0, frame = 0
 1041              		@ frame_needed = 0, uses_anonymous_args = 0
 1042              	.LVL138:
 1043 0378 38B5     		push	{r3, r4, r5, lr}
 1044              	.LCFI5:
 1045              		.cfi_def_cfa_offset 16
 1046              		.cfi_offset 3, -16
 1047              		.cfi_offset 4, -12
 1048              		.cfi_offset 5, -8
 1049              		.cfi_offset 14, -4
 1050              		.loc 1 296 0
 1051 037a 0546     		mov	r5, r0
 297:../../source/src/user/OS_LIB/malloc.c **** 	struct buddy *buddy_ptr = (struct buddy *)get_os_buddy_ptr_head();
 1052              		.loc 1 297 0
 1053 037c FFF7FEFF 		bl	get_os_buddy_ptr_head
 1054              	.LVL139:
 298:../../source/src/user/OS_LIB/malloc.c **** 	ASSERT(NULL != buddy_ptr);
 1055              		.loc 1 298 0
 1056 0380 0446     		mov	r4, r0
 1057 0382 28B9     		cbnz	r0, .L81
 1058 0384 0DE0     		b	.L88
 1059              	.LVL140:
 1060              	.L90:
 299:../../source/src/user/OS_LIB/malloc.c **** 	while(NULL != buddy_ptr)
 300:../../source/src/user/OS_LIB/malloc.c **** 	{
 301:../../source/src/user/OS_LIB/malloc.c **** 		if(FUN_EXECUTE_SUCCESSFULLY == in_buddy_range(ptr))
 302:../../source/src/user/OS_LIB/malloc.c **** 		{
 303:../../source/src/user/OS_LIB/malloc.c **** 			return FUN_EXECUTE_SUCCESSFULLY;
 304:../../source/src/user/OS_LIB/malloc.c **** 		}
 305:../../source/src/user/OS_LIB/malloc.c **** 		buddy_ptr = (struct buddy *)get_next_buddy_ptr_head(buddy_ptr);
 1061              		.loc 1 305 0
 1062 0386 2046     		mov	r0, r4
 1063 0388 FFF7FEFF 		bl	get_next_buddy_ptr_head
 1064              	.LVL141:
 299:../../source/src/user/OS_LIB/malloc.c **** 	while(NULL != buddy_ptr)
 1065              		.loc 1 299 0
 1066 038c 0446     		mov	r4, r0
 1067 038e 28B1     		cbz	r0, .L89
 1068              	.L81:
 301:../../source/src/user/OS_LIB/malloc.c **** 		{
 1069              		.loc 1 301 0
 1070 0390 2846     		mov	r0, r5
 1071              	.LVL142:
 1072 0392 FFF7FEFF 		bl	in_buddy_range
 1073              	.LVL143:
 1074 0396 0028     		cmp	r0, #0
 1075 0398 F5D1     		bne	.L90
ARM GAS  G:\Users\Jaxb\AppData\Local\Temp\ccLceCCb.s 			page 30


 306:../../source/src/user/OS_LIB/malloc.c **** 	}
 307:../../source/src/user/OS_LIB/malloc.c **** 	return -1;
 308:../../source/src/user/OS_LIB/malloc.c **** }
 1076              		.loc 1 308 0
 1077 039a 38BD     		pop	{r3, r4, r5, pc}
 1078              	.LVL144:
 1079              	.L89:
 307:../../source/src/user/OS_LIB/malloc.c **** }
 1080              		.loc 1 307 0
 1081 039c 4FF0FF30 		mov	r0, #-1
 1082              	.LVL145:
 1083              		.loc 1 308 0
 1084 03a0 38BD     		pop	{r3, r4, r5, pc}
 1085              	.LVL146:
 1086              	.L88:
 298:../../source/src/user/OS_LIB/malloc.c **** 	while(NULL != buddy_ptr)
 1087              		.loc 1 298 0 discriminator 1
 1088 03a2 4FF49571 		mov	r1, #298
 1089 03a6 0348     		ldr	r0, .L91
 1090              	.LVL147:
 1091 03a8 FFF7FEFF 		bl	_ASSERT
 1092              	.LVL148:
 307:../../source/src/user/OS_LIB/malloc.c **** }
 1093              		.loc 1 307 0 discriminator 1
 1094 03ac 4FF0FF30 		mov	r0, #-1
 1095              		.loc 1 308 0 discriminator 1
 1096 03b0 38BD     		pop	{r3, r4, r5, pc}
 1097              	.LVL149:
 1098              	.L92:
 1099 03b2 00BF     		.align	2
 1100              	.L91:
 1101 03b4 00000000 		.word	.LC0
 1102              		.cfi_endproc
 1103              	.LFE22:
 1104              		.size	in_os_memory, .-in_os_memory
 1105              		.align	1
 1106              		.p2align 2,,3
 1107              		.global	ka_free
 1108              		.syntax unified
 1109              		.thumb
 1110              		.thumb_func
 1111              		.fpu softvfp
 1112              		.type	ka_free, %function
 1113              	ka_free:
 1114              	.LFB23:
 309:../../source/src/user/OS_LIB/malloc.c **** 
 310:../../source/src/user/OS_LIB/malloc.c **** void ka_free(void *ptr)
 311:../../source/src/user/OS_LIB/malloc.c **** {
 1115              		.loc 1 311 0
 1116              		.cfi_startproc
 1117              		@ args = 0, pretend = 0, frame = 0
 1118              		@ frame_needed = 0, uses_anonymous_args = 0
 1119              	.LVL150:
 1120 03b8 2DE9F843 		push	{r3, r4, r5, r6, r7, r8, r9, lr}
 1121              	.LCFI6:
 1122              		.cfi_def_cfa_offset 32
 1123              		.cfi_offset 3, -32
ARM GAS  G:\Users\Jaxb\AppData\Local\Temp\ccLceCCb.s 			page 31


 1124              		.cfi_offset 4, -28
 1125              		.cfi_offset 5, -24
 1126              		.cfi_offset 6, -20
 1127              		.cfi_offset 7, -16
 1128              		.cfi_offset 8, -12
 1129              		.cfi_offset 9, -8
 1130              		.cfi_offset 14, -4
 1131              		.loc 1 311 0
 1132 03bc 0646     		mov	r6, r0
 312:../../source/src/user/OS_LIB/malloc.c **** 	struct list_head *pos;
 313:../../source/src/user/OS_LIB/malloc.c **** 	struct kmem_cache *kmem_cache_ptr;
 314:../../source/src/user/OS_LIB/malloc.c **** 	IL *IL_ptr;
 315:../../source/src/user/OS_LIB/malloc.c **** 	struct slab *slab_ptr;
 316:../../source/src/user/OS_LIB/malloc.c **** 	CPU_SR_ALLOC();
 317:../../source/src/user/OS_LIB/malloc.c **** 	if(FUN_EXECUTE_SUCCESSFULLY != in_os_memory(ptr))
 1133              		.loc 1 317 0
 1134 03be FFF7FEFF 		bl	in_os_memory
 1135              	.LVL151:
 1136 03c2 08B1     		cbz	r0, .L115
 318:../../source/src/user/OS_LIB/malloc.c **** 	{
 319:../../source/src/user/OS_LIB/malloc.c **** 		return ;
 320:../../source/src/user/OS_LIB/malloc.c **** 	}
 321:../../source/src/user/OS_LIB/malloc.c **** 	CPU_CRITICAL_ENTER();
 322:../../source/src/user/OS_LIB/malloc.c **** 	list_for_each(pos, &cache_chain_head)
 323:../../source/src/user/OS_LIB/malloc.c **** 	{
 324:../../source/src/user/OS_LIB/malloc.c **** 		IL_ptr = list_entry(pos,IL,insert);
 325:../../source/src/user/OS_LIB/malloc.c **** 		kmem_cache_ptr =  list_entry(IL_ptr,struct kmem_cache,kmem_cache_insert_chain);
 326:../../source/src/user/OS_LIB/malloc.c **** 		if(!list_empty(&kmem_cache_ptr->slabs_partial))
 327:../../source/src/user/OS_LIB/malloc.c **** 		{
 328:../../source/src/user/OS_LIB/malloc.c **** 			slab_ptr = free_find_in_slab_chain(&kmem_cache_ptr->slabs_partial,ptr);
 329:../../source/src/user/OS_LIB/malloc.c **** 			if(NULL != slab_ptr) // free success
 330:../../source/src/user/OS_LIB/malloc.c **** 			{
 331:../../source/src/user/OS_LIB/malloc.c **** 				if(slab_ptr->current_block_num == slab_ptr->full_block_num)
 332:../../source/src/user/OS_LIB/malloc.c **** 				{
 333:../../source/src/user/OS_LIB/malloc.c **** 					list_del(&slab_ptr->slab_chain);
 334:../../source/src/user/OS_LIB/malloc.c **** 					list_add(&slab_ptr->slab_chain,&kmem_cache_ptr->slabs_empty);
 335:../../source/src/user/OS_LIB/malloc.c **** 				}
 336:../../source/src/user/OS_LIB/malloc.c **** 				CPU_CRITICAL_EXIT();
 337:../../source/src/user/OS_LIB/malloc.c **** 				return ;
 338:../../source/src/user/OS_LIB/malloc.c **** 			}
 339:../../source/src/user/OS_LIB/malloc.c **** 		}
 340:../../source/src/user/OS_LIB/malloc.c **** 		if(!list_empty(&kmem_cache_ptr->slabs_full))
 341:../../source/src/user/OS_LIB/malloc.c **** 		{
 342:../../source/src/user/OS_LIB/malloc.c **** 			slab_ptr = free_find_in_slab_chain(&kmem_cache_ptr->slabs_full,ptr);
 343:../../source/src/user/OS_LIB/malloc.c **** 			if(NULL != slab_ptr) // free success
 344:../../source/src/user/OS_LIB/malloc.c **** 			{
 345:../../source/src/user/OS_LIB/malloc.c **** 				list_del(&slab_ptr->slab_chain);
 346:../../source/src/user/OS_LIB/malloc.c **** 				list_add(&slab_ptr->slab_chain,&kmem_cache_ptr->slabs_partial);
 347:../../source/src/user/OS_LIB/malloc.c **** 				CPU_CRITICAL_EXIT();
 348:../../source/src/user/OS_LIB/malloc.c **** 				return ;
 349:../../source/src/user/OS_LIB/malloc.c **** 			}
 350:../../source/src/user/OS_LIB/malloc.c **** 		}
 351:../../source/src/user/OS_LIB/malloc.c **** 	}
 352:../../source/src/user/OS_LIB/malloc.c **** 	if(FUN_EXECUTE_SUCCESSFULLY == find_and_remove_record(ptr))
 353:../../source/src/user/OS_LIB/malloc.c **** 	{
 354:../../source/src/user/OS_LIB/malloc.c **** 		CPU_CRITICAL_EXIT();
 355:../../source/src/user/OS_LIB/malloc.c **** 		return;
ARM GAS  G:\Users\Jaxb\AppData\Local\Temp\ccLceCCb.s 			page 32


 356:../../source/src/user/OS_LIB/malloc.c **** 	}
 357:../../source/src/user/OS_LIB/malloc.c **** 	ka_printf("not in a slab or record,fatal error\n");
 358:../../source/src/user/OS_LIB/malloc.c **** 	ASSERT(0);//should not go here
 359:../../source/src/user/OS_LIB/malloc.c **** }
 1137              		.loc 1 359 0
 1138 03c4 BDE8F883 		pop	{r3, r4, r5, r6, r7, r8, r9, pc}
 1139              	.LVL152:
 1140              	.L115:
 1141              	.LBB289:
 1142              	.LBB290:
 322:../../source/src/user/OS_LIB/malloc.c **** 	{
 1143              		.loc 1 322 0
 1144 03c8 DFF8E880 		ldr	r8, .L118
 321:../../source/src/user/OS_LIB/malloc.c **** 	list_for_each(pos, &cache_chain_head)
 1145              		.loc 1 321 0
 1146 03cc FFF7FEFF 		bl	CPU_SR_Save
 1147              	.LVL153:
 322:../../source/src/user/OS_LIB/malloc.c **** 	{
 1148              		.loc 1 322 0
 1149 03d0 4746     		mov	r7, r8
 1150 03d2 57F8044F 		ldr	r4, [r7, #4]!
 321:../../source/src/user/OS_LIB/malloc.c **** 	list_for_each(pos, &cache_chain_head)
 1151              		.loc 1 321 0
 1152 03d6 8146     		mov	r9, r0
 1153              	.LVL154:
 322:../../source/src/user/OS_LIB/malloc.c **** 	{
 1154              		.loc 1 322 0
 1155 03d8 BC42     		cmp	r4, r7
 1156 03da 18D0     		beq	.L95
 1157              	.LVL155:
 1158              	.L99:
 326:../../source/src/user/OS_LIB/malloc.c **** 		{
 1159              		.loc 1 326 0
 1160 03dc 6369     		ldr	r3, [r4, #20]
 1161 03de 04F11405 		add	r5, r4, #20
 1162 03e2 9D42     		cmp	r5, r3
 1163 03e4 05D0     		beq	.L96
 328:../../source/src/user/OS_LIB/malloc.c **** 			if(NULL != slab_ptr) // free success
 1164              		.loc 1 328 0
 1165 03e6 3146     		mov	r1, r6
 1166 03e8 2846     		mov	r0, r5
 1167 03ea FFF709FE 		bl	free_find_in_slab_chain
 1168              	.LVL156:
 329:../../source/src/user/OS_LIB/malloc.c **** 			{
 1169              		.loc 1 329 0
 1170 03ee 0028     		cmp	r0, #0
 1171 03f0 3DD1     		bne	.L116
 1172              	.LVL157:
 1173              	.L96:
 340:../../source/src/user/OS_LIB/malloc.c **** 		{
 1174              		.loc 1 340 0
 1175 03f2 E368     		ldr	r3, [r4, #12]
 1176 03f4 04F10C00 		add	r0, r4, #12
 1177 03f8 9842     		cmp	r0, r3
 1178 03fa 05D0     		beq	.L98
 342:../../source/src/user/OS_LIB/malloc.c **** 			if(NULL != slab_ptr) // free success
 1179              		.loc 1 342 0
ARM GAS  G:\Users\Jaxb\AppData\Local\Temp\ccLceCCb.s 			page 33


 1180 03fc 3146     		mov	r1, r6
 1181 03fe FFF7FFFD 		bl	free_find_in_slab_chain
 1182              	.LVL158:
 343:../../source/src/user/OS_LIB/malloc.c **** 			{
 1183              		.loc 1 343 0
 1184 0402 0346     		mov	r3, r0
 1185 0404 0028     		cmp	r0, #0
 1186 0406 44D1     		bne	.L117
 1187              	.LVL159:
 1188              	.L98:
 322:../../source/src/user/OS_LIB/malloc.c **** 	{
 1189              		.loc 1 322 0
 1190 0408 2468     		ldr	r4, [r4]
 1191              	.LVL160:
 1192 040a BC42     		cmp	r4, r7
 1193 040c E6D1     		bne	.L99
 1194              	.LVL161:
 1195              	.L95:
 1196              	.LBB291:
 1197              	.LBB292:
  59:../../source/src/user/OS_LIB/malloc.c **** 	{
 1198              		.loc 1 59 0
 1199 040e D8F80040 		ldr	r4, [r8]
 1200              	.LVL162:
 1201 0412 4445     		cmp	r4, r8
 1202 0414 03D1     		bne	.L104
 1203 0416 20E0     		b	.L100
 1204              	.L102:
 1205              	.LVL163:
 1206 0418 2468     		ldr	r4, [r4]
 1207              	.LVL164:
 1208 041a 4445     		cmp	r4, r8
 1209 041c 1DD0     		beq	.L100
 1210              	.LVL165:
 1211              	.L104:
  62:../../source/src/user/OS_LIB/malloc.c **** 		{
 1212              		.loc 1 62 0
 1213 041e 54F8043C 		ldr	r3, [r4, #-4]
 1214 0422 9E42     		cmp	r6, r3
 1215 0424 F8D1     		bne	.L102
  64:../../source/src/user/OS_LIB/malloc.c **** 			singly_list_del_safe(&page_alloc_record_head,pos);
 1216              		.loc 1 64 0
 1217 0426 54F8081C 		ldr	r1, [r4, #-8]
 1218 042a 0220     		movs	r0, #2
 1219 042c 0139     		subs	r1, r1, #1
 1220 042e FFF7FEFF 		bl	ka_pow
 1221              	.LVL166:
 1222 0432 06EB8021 		add	r1, r6, r0, lsl #10
 1223 0436 3046     		mov	r0, r6
 1224 0438 FFF7FEFF 		bl	_case_slab_free_buddy
 1225              	.LVL167:
 1226              	.LBB293:
  61:../../source/src/user/OS_LIB/malloc.c **** 		if(record_ptr->ptr == ptr)
 1227              		.loc 1 61 0
 1228 043c A4F10805 		sub	r5, r4, #8
 1229              	.LBE293:
  65:../../source/src/user/OS_LIB/malloc.c **** 			ka_free(record_ptr);
ARM GAS  G:\Users\Jaxb\AppData\Local\Temp\ccLceCCb.s 			page 34


 1230              		.loc 1 65 0
 1231 0440 1C48     		ldr	r0, .L118
 1232 0442 2146     		mov	r1, r4
 1233 0444 0022     		movs	r2, #0
 1234 0446 FFF7FEFF 		bl	singly_list_del
 1235              	.LVL168:
  66:../../source/src/user/OS_LIB/malloc.c **** 			return FUN_EXECUTE_SUCCESSFULLY;
 1236              		.loc 1 66 0
 1237 044a 2846     		mov	r0, r5
 1238 044c FFF7FEFF 		bl	ka_free
 1239              	.LVL169:
 1240              	.L113:
 1241              	.LBE292:
 1242              	.LBE291:
 354:../../source/src/user/OS_LIB/malloc.c **** 		return;
 1243              		.loc 1 354 0
 1244 0450 4846     		mov	r0, r9
 1245              	.LBE290:
 1246              	.LBE289:
 1247              		.loc 1 359 0
 1248 0452 BDE8F843 		pop	{r3, r4, r5, r6, r7, r8, r9, lr}
 1249              	.LCFI7:
 1250              		.cfi_remember_state
 1251              		.cfi_restore 14
 1252              		.cfi_restore 9
 1253              		.cfi_restore 8
 1254              		.cfi_restore 7
 1255              		.cfi_restore 6
 1256              		.cfi_restore 5
 1257              		.cfi_restore 4
 1258              		.cfi_restore 3
 1259              		.cfi_def_cfa_offset 0
 1260              	.LVL170:
 1261              	.LBB319:
 1262              	.LBB316:
 354:../../source/src/user/OS_LIB/malloc.c **** 		return;
 1263              		.loc 1 354 0
 1264 0456 FFF7FEBF 		b	CPU_SR_Restore
 1265              	.LVL171:
 1266              	.L100:
 1267              	.LCFI8:
 1268              		.cfi_restore_state
 357:../../source/src/user/OS_LIB/malloc.c **** 	ASSERT(0);//should not go here
 1269              		.loc 1 357 0
 1270 045a 1748     		ldr	r0, .L118+4
 1271 045c FFF7FEFF 		bl	ka_printf
 1272              	.LVL172:
 1273              	.LBE316:
 1274              	.LBE319:
 1275              		.loc 1 359 0
 1276 0460 BDE8F843 		pop	{r3, r4, r5, r6, r7, r8, r9, lr}
 1277              	.LCFI9:
 1278              		.cfi_remember_state
 1279              		.cfi_restore 14
 1280              		.cfi_restore 9
 1281              		.cfi_restore 8
 1282              		.cfi_restore 7
ARM GAS  G:\Users\Jaxb\AppData\Local\Temp\ccLceCCb.s 			page 35


 1283              		.cfi_restore 6
 1284              		.cfi_restore 5
 1285              		.cfi_restore 4
 1286              		.cfi_restore 3
 1287              		.cfi_def_cfa_offset 0
 1288              	.LVL173:
 1289              	.LBB320:
 1290              	.LBB317:
 358:../../source/src/user/OS_LIB/malloc.c **** }
 1291              		.loc 1 358 0
 1292 0464 4FF4B371 		mov	r1, #358
 1293 0468 1448     		ldr	r0, .L118+8
 1294 046a FFF7FEBF 		b	_ASSERT
 1295              	.LVL174:
 1296              	.L116:
 1297              	.LCFI10:
 1298              		.cfi_restore_state
 331:../../source/src/user/OS_LIB/malloc.c **** 				{
 1299              		.loc 1 331 0
 1300 046e D0E90223 		ldrd	r2, r3, [r0, #8]
 1301 0472 9A42     		cmp	r2, r3
 1302 0474 ECD1     		bne	.L113
 1303              	.LVL175:
 1304              	.LBB294:
 1305              	.LBB295:
  55:../../source/include/os_lib/double_linked_list.h **** }
 1306              		.loc 2 55 0
 1307 0476 0346     		mov	r3, r0
 1308              	.LBE295:
 1309              	.LBE294:
 1310              	.LBB299:
 1311              	.LBB300:
  36:../../source/include/os_lib/double_linked_list.h **** }
 1312              		.loc 2 36 0
 1313 0478 2246     		mov	r2, r4
 1314              	.LBE300:
 1315              	.LBE299:
 1316              	.LBB304:
 1317              	.LBB298:
  55:../../source/include/os_lib/double_linked_list.h **** }
 1318              		.loc 2 55 0
 1319 047a 8169     		ldr	r1, [r0, #24]
 1320              	.LVL176:
 1321 047c 53F8145F 		ldr	r5, [r3, #20]!
 1322              	.LVL177:
 1323              	.LBB296:
 1324              	.LBB297:
  48:../../source/include/os_lib/double_linked_list.h ****     prev->next = next;
 1325              		.loc 2 48 0
 1326 0480 6960     		str	r1, [r5, #4]
  49:../../source/include/os_lib/double_linked_list.h **** }
 1327              		.loc 2 49 0
 1328 0482 0D60     		str	r5, [r1]
 1329              	.LVL178:
 1330              	.LBE297:
 1331              	.LBE296:
 1332              	.LBE298:
ARM GAS  G:\Users\Jaxb\AppData\Local\Temp\ccLceCCb.s 			page 36


 1333              	.LBE304:
 1334              	.LBB305:
 1335              	.LBB303:
  36:../../source/include/os_lib/double_linked_list.h **** }
 1336              		.loc 2 36 0
 1337 0484 52F81C1F 		ldr	r1, [r2, #28]!
 1338              	.LVL179:
 1339              	.LBB301:
 1340              	.LBB302:
  27:../../source/include/os_lib/double_linked_list.h ****     new->next = next;
 1341              		.loc 2 27 0
 1342 0488 4B60     		str	r3, [r1, #4]
  29:../../source/include/os_lib/double_linked_list.h ****     prev->next = new;
 1343              		.loc 2 29 0
 1344 048a C0E90512 		strd	r1, r2, [r0, #20]
  30:../../source/include/os_lib/double_linked_list.h **** }
 1345              		.loc 2 30 0
 1346 048e E361     		str	r3, [r4, #28]
 1347              	.LVL180:
 1348 0490 DEE7     		b	.L113
 1349              	.LVL181:
 1350              	.L117:
 1351              	.LBE302:
 1352              	.LBE301:
 1353              	.LBE303:
 1354              	.LBE305:
 1355              	.LBB306:
 1356              	.LBB307:
  55:../../source/include/os_lib/double_linked_list.h **** }
 1357              		.loc 2 55 0
 1358 0492 0246     		mov	r2, r0
 1359 0494 8169     		ldr	r1, [r0, #24]
 1360 0496 52F8146F 		ldr	r6, [r2, #20]!
 1361              	.LVL182:
 1362              	.LBE307:
 1363              	.LBE306:
 347:../../source/src/user/OS_LIB/malloc.c **** 				return ;
 1364              		.loc 1 347 0
 1365 049a 4846     		mov	r0, r9
 1366              	.LVL183:
 1367              	.LBB311:
 1368              	.LBB310:
 1369              	.LBB308:
 1370              	.LBB309:
  48:../../source/include/os_lib/double_linked_list.h ****     prev->next = next;
 1371              		.loc 2 48 0
 1372 049c 7160     		str	r1, [r6, #4]
  49:../../source/include/os_lib/double_linked_list.h **** }
 1373              		.loc 2 49 0
 1374 049e 0E60     		str	r6, [r1]
 1375              	.LVL184:
 1376              	.LBE309:
 1377              	.LBE308:
 1378              	.LBE310:
 1379              	.LBE311:
 1380              	.LBB312:
 1381              	.LBB313:
ARM GAS  G:\Users\Jaxb\AppData\Local\Temp\ccLceCCb.s 			page 37


  36:../../source/include/os_lib/double_linked_list.h **** }
 1382              		.loc 2 36 0
 1383 04a0 6169     		ldr	r1, [r4, #20]
 1384              	.LVL185:
 1385              	.LBB314:
 1386              	.LBB315:
  27:../../source/include/os_lib/double_linked_list.h ****     new->next = next;
 1387              		.loc 2 27 0
 1388 04a2 4A60     		str	r2, [r1, #4]
  29:../../source/include/os_lib/double_linked_list.h ****     prev->next = new;
 1389              		.loc 2 29 0
 1390 04a4 C3E90515 		strd	r1, r5, [r3, #20]
  30:../../source/include/os_lib/double_linked_list.h **** }
 1391              		.loc 2 30 0
 1392 04a8 6261     		str	r2, [r4, #20]
 1393              	.LVL186:
 1394              	.LBE315:
 1395              	.LBE314:
 1396              	.LBE313:
 1397              	.LBE312:
 1398              	.LBE317:
 1399              	.LBE320:
 1400              		.loc 1 359 0
 1401 04aa BDE8F843 		pop	{r3, r4, r5, r6, r7, r8, r9, lr}
 1402              	.LCFI11:
 1403              		.cfi_restore 14
 1404              		.cfi_restore 9
 1405              		.cfi_restore 8
 1406              		.cfi_restore 7
 1407              		.cfi_restore 6
 1408              		.cfi_restore 5
 1409              		.cfi_restore 4
 1410              		.cfi_restore 3
 1411              		.cfi_def_cfa_offset 0
 1412              	.LVL187:
 1413              	.LBB321:
 1414              	.LBB318:
 347:../../source/src/user/OS_LIB/malloc.c **** 				return ;
 1415              		.loc 1 347 0
 1416 04ae FFF7FEBF 		b	CPU_SR_Restore
 1417              	.LVL188:
 1418              	.L119:
 1419 04b2 00BF     		.align	2
 1420              	.L118:
 1421 04b4 00000000 		.word	.LANCHOR0
 1422 04b8 A4000000 		.word	.LC7
 1423 04bc 00000000 		.word	.LC0
 1424              	.LBE318:
 1425              	.LBE321:
 1426              		.cfi_endproc
 1427              	.LFE23:
 1428              		.size	ka_free, .-ka_free
 1429              		.align	1
 1430              		.p2align 2,,3
 1431              		.global	shell_check_kmem
 1432              		.syntax unified
 1433              		.thumb
ARM GAS  G:\Users\Jaxb\AppData\Local\Temp\ccLceCCb.s 			page 38


 1434              		.thumb_func
 1435              		.fpu softvfp
 1436              		.type	shell_check_kmem, %function
 1437              	shell_check_kmem:
 1438              	.LFB24:
 360:../../source/src/user/OS_LIB/malloc.c **** 
 361:../../source/src/user/OS_LIB/malloc.c **** #if CONFIG_SHELL_EN
 362:../../source/src/user/OS_LIB/malloc.c **** void shell_check_kmem(int argc, char const *argv[])
 363:../../source/src/user/OS_LIB/malloc.c **** {
 1439              		.loc 1 363 0
 1440              		.cfi_startproc
 1441              		@ args = 0, pretend = 0, frame = 0
 1442              		@ frame_needed = 0, uses_anonymous_args = 0
 1443              	.LVL189:
 1444 04c0 2DE9F047 		push	{r4, r5, r6, r7, r8, r9, r10, lr}
 1445              	.LCFI12:
 1446              		.cfi_def_cfa_offset 32
 1447              		.cfi_offset 4, -32
 1448              		.cfi_offset 5, -28
 1449              		.cfi_offset 6, -24
 1450              		.cfi_offset 7, -20
 1451              		.cfi_offset 8, -16
 1452              		.cfi_offset 9, -12
 1453              		.cfi_offset 10, -8
 1454              		.cfi_offset 14, -4
 364:../../source/src/user/OS_LIB/malloc.c **** 	(void)argc;
 365:../../source/src/user/OS_LIB/malloc.c **** 	(void)argv;
 366:../../source/src/user/OS_LIB/malloc.c **** 	struct list_head *pos;
 367:../../source/src/user/OS_LIB/malloc.c **** 	IL *IL_ptr;
 368:../../source/src/user/OS_LIB/malloc.c **** 	struct kmem_cache *kmem_cache_ptr;
 369:../../source/src/user/OS_LIB/malloc.c **** 	int i = 0;
 370:../../source/src/user/OS_LIB/malloc.c **** 	CPU_SR_ALLOC();
 371:../../source/src/user/OS_LIB/malloc.c **** 	CPU_CRITICAL_ENTER();
 1455              		.loc 1 371 0
 1456 04c4 FFF7FEFF 		bl	CPU_SR_Save
 1457              	.LVL190:
 372:../../source/src/user/OS_LIB/malloc.c **** 	list_for_each(pos,&cache_chain_head)
 1458              		.loc 1 372 0
 1459 04c8 2B4E     		ldr	r6, .L137
 371:../../source/src/user/OS_LIB/malloc.c **** 	list_for_each(pos,&cache_chain_head)
 1460              		.loc 1 371 0
 1461 04ca 8246     		mov	r10, r0
 1462              	.LVL191:
 1463              		.loc 1 372 0
 1464 04cc 56F8044F 		ldr	r4, [r6, #4]!
 1465              	.LVL192:
 1466 04d0 B442     		cmp	r4, r6
 1467 04d2 3BD0     		beq	.L121
 369:../../source/src/user/OS_LIB/malloc.c **** 	CPU_SR_ALLOC();
 1468              		.loc 1 369 0
 1469 04d4 0025     		movs	r5, #0
 373:../../source/src/user/OS_LIB/malloc.c **** 	{
 374:../../source/src/user/OS_LIB/malloc.c **** 		ka_printf("===========get NO.%d kmem===========\n",++i);
 1470              		.loc 1 374 0
 1471 04d6 DFF8C080 		ldr	r8, .L137+32
 375:../../source/src/user/OS_LIB/malloc.c **** 		IL_ptr = list_entry(pos,IL,insert);
 376:../../source/src/user/OS_LIB/malloc.c **** 		ka_printf("the size of this kmem_cache is %u\n",IL_ptr->prio);
ARM GAS  G:\Users\Jaxb\AppData\Local\Temp\ccLceCCb.s 			page 39


 1472              		.loc 1 376 0
 1473 04da 284F     		ldr	r7, .L137+4
 377:../../source/src/user/OS_LIB/malloc.c **** 		kmem_cache_ptr = list_entry(IL_ptr,struct kmem_cache,kmem_cache_insert_chain);
 378:../../source/src/user/OS_LIB/malloc.c **** 		if(!list_empty(&kmem_cache_ptr->slabs_full))
 379:../../source/src/user/OS_LIB/malloc.c **** 		{
 380:../../source/src/user/OS_LIB/malloc.c **** 			struct list_head *buffer;
 381:../../source/src/user/OS_LIB/malloc.c **** 			int num = 0;
 382:../../source/src/user/OS_LIB/malloc.c **** 			list_for_each(buffer,&kmem_cache_ptr->slabs_full)
 383:../../source/src/user/OS_LIB/malloc.c **** 			{
 384:../../source/src/user/OS_LIB/malloc.c **** 				++num;
 385:../../source/src/user/OS_LIB/malloc.c **** 			}
 386:../../source/src/user/OS_LIB/malloc.c **** 			ka_printf("chain slabs_full has %d slab\n",num);
 387:../../source/src/user/OS_LIB/malloc.c **** 		}
 388:../../source/src/user/OS_LIB/malloc.c **** 		else
 389:../../source/src/user/OS_LIB/malloc.c **** 		{
 390:../../source/src/user/OS_LIB/malloc.c **** 			ka_printf("chain slabs_full is empty\n");
 1474              		.loc 1 390 0
 1475 04dc DFF8BC90 		ldr	r9, .L137+36
 1476              	.LVL193:
 1477              	.L131:
 374:../../source/src/user/OS_LIB/malloc.c **** 		IL_ptr = list_entry(pos,IL,insert);
 1478              		.loc 1 374 0
 1479 04e0 0135     		adds	r5, r5, #1
 1480              	.LVL194:
 1481 04e2 2946     		mov	r1, r5
 1482 04e4 4046     		mov	r0, r8
 1483 04e6 FFF7FEFF 		bl	ka_printf
 1484              	.LVL195:
 376:../../source/src/user/OS_LIB/malloc.c **** 		kmem_cache_ptr = list_entry(IL_ptr,struct kmem_cache,kmem_cache_insert_chain);
 1485              		.loc 1 376 0
 1486 04ea A168     		ldr	r1, [r4, #8]
 1487 04ec 3846     		mov	r0, r7
 1488 04ee FFF7FEFF 		bl	ka_printf
 1489              	.LVL196:
 1490              	.LBB322:
 1491              	.LBB323:
 1492              		.loc 2 84 0
 1493 04f2 E368     		ldr	r3, [r4, #12]
 1494              	.LBE323:
 1495              	.LBE322:
 378:../../source/src/user/OS_LIB/malloc.c **** 		{
 1496              		.loc 1 378 0
 1497 04f4 04F10C02 		add	r2, r4, #12
 1498 04f8 9A42     		cmp	r2, r3
 1499 04fa 30D0     		beq	.L122
 1500              	.LBB324:
 381:../../source/src/user/OS_LIB/malloc.c **** 			list_for_each(buffer,&kmem_cache_ptr->slabs_full)
 1501              		.loc 1 381 0
 1502 04fc 0021     		movs	r1, #0
 1503              	.L123:
 1504              	.LVL197:
 382:../../source/src/user/OS_LIB/malloc.c **** 			{
 1505              		.loc 1 382 0 discriminator 3
 1506 04fe 1B68     		ldr	r3, [r3]
 1507              	.LVL198:
 384:../../source/src/user/OS_LIB/malloc.c **** 			}
 1508              		.loc 1 384 0 discriminator 3
ARM GAS  G:\Users\Jaxb\AppData\Local\Temp\ccLceCCb.s 			page 40


 1509 0500 0131     		adds	r1, r1, #1
 1510              	.LVL199:
 382:../../source/src/user/OS_LIB/malloc.c **** 			{
 1511              		.loc 1 382 0 discriminator 3
 1512 0502 9A42     		cmp	r2, r3
 1513 0504 FBD1     		bne	.L123
 386:../../source/src/user/OS_LIB/malloc.c **** 		}
 1514              		.loc 1 386 0
 1515 0506 1E48     		ldr	r0, .L137+8
 1516 0508 FFF7FEFF 		bl	ka_printf
 1517              	.LVL200:
 1518              	.LBE324:
 1519              	.LBB325:
 1520              	.LBB326:
 1521              		.loc 2 84 0
 1522 050c 6369     		ldr	r3, [r4, #20]
 1523              	.LBE326:
 1524              	.LBE325:
 391:../../source/src/user/OS_LIB/malloc.c **** 		}
 392:../../source/src/user/OS_LIB/malloc.c **** 		if(!list_empty(&kmem_cache_ptr->slabs_partial))
 1525              		.loc 1 392 0
 1526 050e 04F11402 		add	r2, r4, #20
 1527 0512 9A42     		cmp	r2, r3
 1528 0514 2BD0     		beq	.L125
 1529              	.L136:
 1530              	.LBB328:
 393:../../source/src/user/OS_LIB/malloc.c **** 		{
 394:../../source/src/user/OS_LIB/malloc.c **** 			struct list_head *buffer;
 395:../../source/src/user/OS_LIB/malloc.c **** 			int num = 0;
 1531              		.loc 1 395 0
 1532 0516 0021     		movs	r1, #0
 1533              	.L126:
 1534              	.LVL201:
 396:../../source/src/user/OS_LIB/malloc.c **** 			list_for_each(buffer,&kmem_cache_ptr->slabs_partial)
 1535              		.loc 1 396 0 discriminator 3
 1536 0518 1B68     		ldr	r3, [r3]
 1537              	.LVL202:
 397:../../source/src/user/OS_LIB/malloc.c **** 			{
 398:../../source/src/user/OS_LIB/malloc.c **** 				++num;
 1538              		.loc 1 398 0 discriminator 3
 1539 051a 0131     		adds	r1, r1, #1
 1540              	.LVL203:
 396:../../source/src/user/OS_LIB/malloc.c **** 			list_for_each(buffer,&kmem_cache_ptr->slabs_partial)
 1541              		.loc 1 396 0 discriminator 3
 1542 051c 9A42     		cmp	r2, r3
 1543 051e FBD1     		bne	.L126
 399:../../source/src/user/OS_LIB/malloc.c **** 			}
 400:../../source/src/user/OS_LIB/malloc.c **** 			ka_printf("chain slabs_partial has %d slab\n",num);
 1544              		.loc 1 400 0
 1545 0520 1848     		ldr	r0, .L137+12
 1546 0522 FFF7FEFF 		bl	ka_printf
 1547              	.LVL204:
 1548              	.L127:
 1549              	.LBE328:
 1550              	.LBB329:
 1551              	.LBB330:
 1552              		.loc 2 84 0
ARM GAS  G:\Users\Jaxb\AppData\Local\Temp\ccLceCCb.s 			page 41


 1553 0526 E369     		ldr	r3, [r4, #28]
 1554              	.LBE330:
 1555              	.LBE329:
 401:../../source/src/user/OS_LIB/malloc.c **** 		}
 402:../../source/src/user/OS_LIB/malloc.c **** 		else
 403:../../source/src/user/OS_LIB/malloc.c **** 		{
 404:../../source/src/user/OS_LIB/malloc.c **** 			ka_printf("chain slabs_partial is empty\n");
 405:../../source/src/user/OS_LIB/malloc.c **** 		}
 406:../../source/src/user/OS_LIB/malloc.c **** 		if(!list_empty(&kmem_cache_ptr->slabs_empty))
 1556              		.loc 1 406 0
 1557 0528 04F11C02 		add	r2, r4, #28
 1558 052c 9A42     		cmp	r2, r3
 1559 052e 12D0     		beq	.L128
 1560              	.LBB331:
 407:../../source/src/user/OS_LIB/malloc.c **** 		{
 408:../../source/src/user/OS_LIB/malloc.c **** 			struct list_head *buffer;
 409:../../source/src/user/OS_LIB/malloc.c **** 			int num = 0;
 1561              		.loc 1 409 0
 1562 0530 0021     		movs	r1, #0
 1563              	.L129:
 1564              	.LVL205:
 410:../../source/src/user/OS_LIB/malloc.c **** 			list_for_each(buffer,&kmem_cache_ptr->slabs_empty)
 1565              		.loc 1 410 0 discriminator 3
 1566 0532 1B68     		ldr	r3, [r3]
 1567              	.LVL206:
 411:../../source/src/user/OS_LIB/malloc.c **** 			{
 412:../../source/src/user/OS_LIB/malloc.c **** 				++num;
 1568              		.loc 1 412 0 discriminator 3
 1569 0534 0131     		adds	r1, r1, #1
 1570              	.LVL207:
 410:../../source/src/user/OS_LIB/malloc.c **** 			list_for_each(buffer,&kmem_cache_ptr->slabs_empty)
 1571              		.loc 1 410 0 discriminator 3
 1572 0536 9A42     		cmp	r2, r3
 1573 0538 FBD1     		bne	.L129
 413:../../source/src/user/OS_LIB/malloc.c **** 			}
 414:../../source/src/user/OS_LIB/malloc.c **** 			ka_printf("chain slabs_empty has %d slab\n",num);
 1574              		.loc 1 414 0
 1575 053a 1348     		ldr	r0, .L137+16
 1576 053c FFF7FEFF 		bl	ka_printf
 1577              	.LVL208:
 1578              	.L130:
 1579              	.LBE331:
 415:../../source/src/user/OS_LIB/malloc.c **** 		}
 416:../../source/src/user/OS_LIB/malloc.c **** 		else
 417:../../source/src/user/OS_LIB/malloc.c **** 		{
 418:../../source/src/user/OS_LIB/malloc.c **** 			ka_printf("chain slabs_empty is empty\n");
 419:../../source/src/user/OS_LIB/malloc.c **** 		}
 420:../../source/src/user/OS_LIB/malloc.c **** 		ka_printf("\n");
 1580              		.loc 1 420 0 discriminator 2
 1581 0540 1248     		ldr	r0, .L137+20
 1582 0542 FFF7FEFF 		bl	ka_printf
 1583              	.LVL209:
 372:../../source/src/user/OS_LIB/malloc.c **** 	{
 1584              		.loc 1 372 0 discriminator 2
 1585 0546 2468     		ldr	r4, [r4]
 1586              	.LVL210:
 1587 0548 B442     		cmp	r4, r6
ARM GAS  G:\Users\Jaxb\AppData\Local\Temp\ccLceCCb.s 			page 42


 1588 054a C9D1     		bne	.L131
 1589              	.LVL211:
 1590              	.L121:
 421:../../source/src/user/OS_LIB/malloc.c **** 	}
 422:../../source/src/user/OS_LIB/malloc.c **** 	CPU_CRITICAL_EXIT();
 1591              		.loc 1 422 0
 1592 054c 5046     		mov	r0, r10
 423:../../source/src/user/OS_LIB/malloc.c **** }
 1593              		.loc 1 423 0
 1594 054e BDE8F047 		pop	{r4, r5, r6, r7, r8, r9, r10, lr}
 1595              	.LCFI13:
 1596              		.cfi_remember_state
 1597              		.cfi_restore 14
 1598              		.cfi_restore 10
 1599              		.cfi_restore 9
 1600              		.cfi_restore 8
 1601              		.cfi_restore 7
 1602              		.cfi_restore 6
 1603              		.cfi_restore 5
 1604              		.cfi_restore 4
 1605              		.cfi_def_cfa_offset 0
 1606              	.LVL212:
 422:../../source/src/user/OS_LIB/malloc.c **** }
 1607              		.loc 1 422 0
 1608 0552 FFF7FEBF 		b	CPU_SR_Restore
 1609              	.LVL213:
 1610              	.L128:
 1611              	.LCFI14:
 1612              		.cfi_restore_state
 418:../../source/src/user/OS_LIB/malloc.c **** 		}
 1613              		.loc 1 418 0
 1614 0556 0E48     		ldr	r0, .L137+24
 1615 0558 FFF7FEFF 		bl	ka_printf
 1616              	.LVL214:
 1617 055c F0E7     		b	.L130
 1618              	.L122:
 390:../../source/src/user/OS_LIB/malloc.c **** 		}
 1619              		.loc 1 390 0
 1620 055e 4846     		mov	r0, r9
 1621 0560 FFF7FEFF 		bl	ka_printf
 1622              	.LVL215:
 1623              	.LBB332:
 1624              	.LBB327:
 1625              		.loc 2 84 0
 1626 0564 6369     		ldr	r3, [r4, #20]
 1627              	.LBE327:
 1628              	.LBE332:
 392:../../source/src/user/OS_LIB/malloc.c **** 		{
 1629              		.loc 1 392 0
 1630 0566 04F11402 		add	r2, r4, #20
 1631 056a 9A42     		cmp	r2, r3
 1632 056c D3D1     		bne	.L136
 1633              	.L125:
 404:../../source/src/user/OS_LIB/malloc.c **** 		}
 1634              		.loc 1 404 0
 1635 056e 0948     		ldr	r0, .L137+28
 1636 0570 FFF7FEFF 		bl	ka_printf
ARM GAS  G:\Users\Jaxb\AppData\Local\Temp\ccLceCCb.s 			page 43


 1637              	.LVL216:
 1638 0574 D7E7     		b	.L127
 1639              	.L138:
 1640 0576 00BF     		.align	2
 1641              	.L137:
 1642 0578 00000000 		.word	.LANCHOR0
 1643 057c F4000000 		.word	.LC9
 1644 0580 18010000 		.word	.LC10
 1645 0584 54010000 		.word	.LC12
 1646 0588 98010000 		.word	.LC14
 1647 058c D4010000 		.word	.LC16
 1648 0590 B8010000 		.word	.LC15
 1649 0594 78010000 		.word	.LC13
 1650 0598 CC000000 		.word	.LC8
 1651 059c 38010000 		.word	.LC11
 1652              		.cfi_endproc
 1653              	.LFE24:
 1654              		.size	shell_check_kmem, .-shell_check_kmem
 1655              		.align	1
 1656              		.p2align 2,,3
 1657              		.global	shell_check_slab
 1658              		.syntax unified
 1659              		.thumb
 1660              		.thumb_func
 1661              		.fpu softvfp
 1662              		.type	shell_check_slab, %function
 1663              	shell_check_slab:
 1664              	.LFB25:
 424:../../source/src/user/OS_LIB/malloc.c **** #endif
 425:../../source/src/user/OS_LIB/malloc.c **** 
 426:../../source/src/user/OS_LIB/malloc.c **** #if CONFIG_SHELL_EN
 427:../../source/src/user/OS_LIB/malloc.c **** void shell_check_slab(int argc, char const *argv[])
 428:../../source/src/user/OS_LIB/malloc.c **** {
 1665              		.loc 1 428 0
 1666              		.cfi_startproc
 1667              		@ args = 0, pretend = 0, frame = 16
 1668              		@ frame_needed = 0, uses_anonymous_args = 0
 1669              	.LVL217:
 429:../../source/src/user/OS_LIB/malloc.c **** 	(void)argc;
 430:../../source/src/user/OS_LIB/malloc.c **** 	(void)argv;
 431:../../source/src/user/OS_LIB/malloc.c **** 	struct list_head *pos;
 432:../../source/src/user/OS_LIB/malloc.c **** 	IL *IL_ptr;
 433:../../source/src/user/OS_LIB/malloc.c **** 	struct kmem_cache *kmem_cache_ptr;
 434:../../source/src/user/OS_LIB/malloc.c **** 	int i = 0;
 435:../../source/src/user/OS_LIB/malloc.c **** 	struct slab *slab_ptr;
 436:../../source/src/user/OS_LIB/malloc.c **** 	CPU_SR_ALLOC();
 437:../../source/src/user/OS_LIB/malloc.c **** 	CPU_CRITICAL_ENTER();
 438:../../source/src/user/OS_LIB/malloc.c **** 	list_for_each(pos,&cache_chain_head)
 1670              		.loc 1 438 0
 1671 05a0 794B     		ldr	r3, .L161
 428:../../source/src/user/OS_LIB/malloc.c **** 	(void)argc;
 1672              		.loc 1 428 0
 1673 05a2 2DE9F04F 		push	{r4, r5, r6, r7, r8, r9, r10, fp, lr}
 1674              	.LCFI15:
 1675              		.cfi_def_cfa_offset 36
 1676              		.cfi_offset 4, -36
 1677              		.cfi_offset 5, -32
ARM GAS  G:\Users\Jaxb\AppData\Local\Temp\ccLceCCb.s 			page 44


 1678              		.cfi_offset 6, -28
 1679              		.cfi_offset 7, -24
 1680              		.cfi_offset 8, -20
 1681              		.cfi_offset 9, -16
 1682              		.cfi_offset 10, -12
 1683              		.cfi_offset 11, -8
 1684              		.cfi_offset 14, -4
 1685              		.loc 1 438 0
 1686 05a6 1C46     		mov	r4, r3
 428:../../source/src/user/OS_LIB/malloc.c **** 	(void)argc;
 1687              		.loc 1 428 0
 1688 05a8 85B0     		sub	sp, sp, #20
 1689              	.LCFI16:
 1690              		.cfi_def_cfa_offset 56
 437:../../source/src/user/OS_LIB/malloc.c **** 	list_for_each(pos,&cache_chain_head)
 1691              		.loc 1 437 0
 1692 05aa FFF7FEFF 		bl	CPU_SR_Save
 1693              	.LVL218:
 1694              		.loc 1 438 0
 1695 05ae 2346     		mov	r3, r4
 1696 05b0 53F8046F 		ldr	r6, [r3, #4]!
 437:../../source/src/user/OS_LIB/malloc.c **** 	list_for_each(pos,&cache_chain_head)
 1697              		.loc 1 437 0
 1698 05b4 0390     		str	r0, [sp, #12]
 1699              	.LVL219:
 1700              		.loc 1 438 0
 1701 05b6 9E42     		cmp	r6, r3
 1702 05b8 0293     		str	r3, [sp, #8]
 1703              	.LVL220:
 1704 05ba 00F0D280 		beq	.L140
 434:../../source/src/user/OS_LIB/malloc.c **** 	struct slab *slab_ptr;
 1705              		.loc 1 434 0
 1706 05be 0023     		movs	r3, #0
 1707              	.LBB333:
 439:../../source/src/user/OS_LIB/malloc.c **** 	{
 440:../../source/src/user/OS_LIB/malloc.c **** 		ka_printf("===========get NO.%d kmem===========\n",++i);
 441:../../source/src/user/OS_LIB/malloc.c **** 		IL_ptr = list_entry(pos,IL,insert);
 442:../../source/src/user/OS_LIB/malloc.c **** 		ka_printf("the size of this kmem_cache is %l\n",IL_ptr->prio);
 443:../../source/src/user/OS_LIB/malloc.c **** 		kmem_cache_ptr = list_entry(IL_ptr,struct kmem_cache,kmem_cache_insert_chain);
 444:../../source/src/user/OS_LIB/malloc.c **** 		if(!list_empty(&kmem_cache_ptr->slabs_full))
 445:../../source/src/user/OS_LIB/malloc.c **** 		{
 446:../../source/src/user/OS_LIB/malloc.c **** 			struct list_head *buffer;
 447:../../source/src/user/OS_LIB/malloc.c **** 			int num = 0;
 448:../../source/src/user/OS_LIB/malloc.c **** 			ka_printf("in chain slabs_full\n");
 449:../../source/src/user/OS_LIB/malloc.c **** 			list_for_each(buffer,&kmem_cache_ptr->slabs_full)
 450:../../source/src/user/OS_LIB/malloc.c **** 			{
 451:../../source/src/user/OS_LIB/malloc.c **** 				ka_printf("the NO.%d slab information:\n",++num);
 452:../../source/src/user/OS_LIB/malloc.c **** 				slab_ptr = list_entry(buffer,struct slab,slab_chain);
 453:../../source/src/user/OS_LIB/malloc.c **** 				ka_printf("start_ptr is %x\n",(int)slab_ptr->start_ptr);
 454:../../source/src/user/OS_LIB/malloc.c **** 				ka_printf("end_ptr is %x\n",(int)slab_ptr->end_ptr);
 455:../../source/src/user/OS_LIB/malloc.c **** 				ka_printf("current_block_num is %d\n",slab_ptr->current_block_num);
 456:../../source/src/user/OS_LIB/malloc.c **** 				ka_printf("full_block_num is %d\n",slab_ptr->full_block_num);
 457:../../source/src/user/OS_LIB/malloc.c **** 				ka_printf("block_size is %d\n",slab_ptr->block_size);
 458:../../source/src/user/OS_LIB/malloc.c **** 				ka_printf("\n");
 1708              		.loc 1 458 0
 1709 05c0 724D     		ldr	r5, .L161+4
 1710              	.LBE333:
ARM GAS  G:\Users\Jaxb\AppData\Local\Temp\ccLceCCb.s 			page 45


 434:../../source/src/user/OS_LIB/malloc.c **** 	struct slab *slab_ptr;
 1711              		.loc 1 434 0
 1712 05c2 0193     		str	r3, [sp, #4]
 1713              	.LVL221:
 1714              	.L153:
 440:../../source/src/user/OS_LIB/malloc.c **** 		IL_ptr = list_entry(pos,IL,insert);
 1715              		.loc 1 440 0
 1716 05c4 019B     		ldr	r3, [sp, #4]
 1717 05c6 7248     		ldr	r0, .L161+8
 1718 05c8 0133     		adds	r3, r3, #1
 1719 05ca 1946     		mov	r1, r3
 1720 05cc 0193     		str	r3, [sp, #4]
 1721              	.LVL222:
 1722 05ce FFF7FEFF 		bl	ka_printf
 1723              	.LVL223:
 442:../../source/src/user/OS_LIB/malloc.c **** 		kmem_cache_ptr = list_entry(IL_ptr,struct kmem_cache,kmem_cache_insert_chain);
 1724              		.loc 1 442 0
 1725 05d2 B168     		ldr	r1, [r6, #8]
 1726 05d4 6F48     		ldr	r0, .L161+12
 1727 05d6 FFF7FEFF 		bl	ka_printf
 1728              	.LVL224:
 444:../../source/src/user/OS_LIB/malloc.c **** 		{
 1729              		.loc 1 444 0
 1730 05da F368     		ldr	r3, [r6, #12]
 1731 05dc 06F10C07 		add	r7, r6, #12
 1732 05e0 9F42     		cmp	r7, r3
 1733 05e2 00F0C880 		beq	.L141
 1734              	.LVL225:
 1735              	.LBB334:
 448:../../source/src/user/OS_LIB/malloc.c **** 			list_for_each(buffer,&kmem_cache_ptr->slabs_full)
 1736              		.loc 1 448 0
 1737 05e6 6C48     		ldr	r0, .L161+16
 1738 05e8 FFF7FEFF 		bl	ka_printf
 1739              	.LVL226:
 449:../../source/src/user/OS_LIB/malloc.c **** 			{
 1740              		.loc 1 449 0
 1741 05ec F468     		ldr	r4, [r6, #12]
 1742              	.LVL227:
 447:../../source/src/user/OS_LIB/malloc.c **** 			ka_printf("in chain slabs_full\n");
 1743              		.loc 1 447 0
 1744 05ee 4FF00008 		mov	r8, #0
 449:../../source/src/user/OS_LIB/malloc.c **** 			{
 1745              		.loc 1 449 0
 1746 05f2 A742     		cmp	r7, r4
 1747 05f4 2AD0     		beq	.L142
 451:../../source/src/user/OS_LIB/malloc.c **** 				slab_ptr = list_entry(buffer,struct slab,slab_chain);
 1748              		.loc 1 451 0
 1749 05f6 DFF8D0B1 		ldr	fp, .L161+64
 453:../../source/src/user/OS_LIB/malloc.c **** 				ka_printf("end_ptr is %x\n",(int)slab_ptr->end_ptr);
 1750              		.loc 1 453 0
 1751 05fa DFF8D0A1 		ldr	r10, .L161+68
 454:../../source/src/user/OS_LIB/malloc.c **** 				ka_printf("current_block_num is %d\n",slab_ptr->current_block_num);
 1752              		.loc 1 454 0
 1753 05fe DFF8D091 		ldr	r9, .L161+72
 1754              	.LVL228:
 1755              	.L143:
 451:../../source/src/user/OS_LIB/malloc.c **** 				slab_ptr = list_entry(buffer,struct slab,slab_chain);
ARM GAS  G:\Users\Jaxb\AppData\Local\Temp\ccLceCCb.s 			page 46


 1756              		.loc 1 451 0 discriminator 3
 1757 0602 08F10108 		add	r8, r8, #1
 1758              	.LVL229:
 1759 0606 4146     		mov	r1, r8
 1760 0608 5846     		mov	r0, fp
 1761 060a FFF7FEFF 		bl	ka_printf
 1762              	.LVL230:
 453:../../source/src/user/OS_LIB/malloc.c **** 				ka_printf("end_ptr is %x\n",(int)slab_ptr->end_ptr);
 1763              		.loc 1 453 0 discriminator 3
 1764 060e 54F8141C 		ldr	r1, [r4, #-20]
 1765 0612 5046     		mov	r0, r10
 1766 0614 FFF7FEFF 		bl	ka_printf
 1767              	.LVL231:
 454:../../source/src/user/OS_LIB/malloc.c **** 				ka_printf("current_block_num is %d\n",slab_ptr->current_block_num);
 1768              		.loc 1 454 0 discriminator 3
 1769 0618 54F8101C 		ldr	r1, [r4, #-16]
 1770 061c 4846     		mov	r0, r9
 1771 061e FFF7FEFF 		bl	ka_printf
 1772              	.LVL232:
 455:../../source/src/user/OS_LIB/malloc.c **** 				ka_printf("full_block_num is %d\n",slab_ptr->full_block_num);
 1773              		.loc 1 455 0 discriminator 3
 1774 0622 54F80C1C 		ldr	r1, [r4, #-12]
 1775 0626 5D48     		ldr	r0, .L161+20
 1776 0628 FFF7FEFF 		bl	ka_printf
 1777              	.LVL233:
 456:../../source/src/user/OS_LIB/malloc.c **** 				ka_printf("block_size is %d\n",slab_ptr->block_size);
 1778              		.loc 1 456 0 discriminator 3
 1779 062c 54F8081C 		ldr	r1, [r4, #-8]
 1780 0630 5B48     		ldr	r0, .L161+24
 1781 0632 FFF7FEFF 		bl	ka_printf
 1782              	.LVL234:
 457:../../source/src/user/OS_LIB/malloc.c **** 				ka_printf("\n");
 1783              		.loc 1 457 0 discriminator 3
 1784 0636 54F8041C 		ldr	r1, [r4, #-4]
 1785 063a 5A48     		ldr	r0, .L161+28
 1786 063c FFF7FEFF 		bl	ka_printf
 1787              	.LVL235:
 1788              		.loc 1 458 0 discriminator 3
 1789 0640 2846     		mov	r0, r5
 1790 0642 FFF7FEFF 		bl	ka_printf
 1791              	.LVL236:
 449:../../source/src/user/OS_LIB/malloc.c **** 			{
 1792              		.loc 1 449 0 discriminator 3
 1793 0646 2468     		ldr	r4, [r4]
 1794              	.LVL237:
 1795 0648 A742     		cmp	r7, r4
 1796 064a DAD1     		bne	.L143
 1797              	.LVL238:
 1798              	.L142:
 459:../../source/src/user/OS_LIB/malloc.c **** 			}
 460:../../source/src/user/OS_LIB/malloc.c **** 			ka_printf("chain slabs_full has %d slab\n",num);
 1799              		.loc 1 460 0
 1800 064c 4146     		mov	r1, r8
 1801 064e 5648     		ldr	r0, .L161+32
 1802 0650 FFF7FEFF 		bl	ka_printf
 1803              	.LVL239:
 1804              	.L144:
ARM GAS  G:\Users\Jaxb\AppData\Local\Temp\ccLceCCb.s 			page 47


 1805              	.LBE334:
 461:../../source/src/user/OS_LIB/malloc.c **** 		}
 462:../../source/src/user/OS_LIB/malloc.c **** 		else
 463:../../source/src/user/OS_LIB/malloc.c **** 		{
 464:../../source/src/user/OS_LIB/malloc.c **** 			ka_printf("chain slabs_full is empty\n");
 465:../../source/src/user/OS_LIB/malloc.c **** 		}
 466:../../source/src/user/OS_LIB/malloc.c **** 		ka_printf("\n");
 1806              		.loc 1 466 0
 1807 0654 2846     		mov	r0, r5
 1808 0656 FFF7FEFF 		bl	ka_printf
 1809              	.LVL240:
 467:../../source/src/user/OS_LIB/malloc.c **** 		if(!list_empty(&kmem_cache_ptr->slabs_partial))
 1810              		.loc 1 467 0
 1811 065a 7369     		ldr	r3, [r6, #20]
 1812 065c 06F11407 		add	r7, r6, #20
 1813 0660 9F42     		cmp	r7, r3
 1814 0662 00F08C80 		beq	.L145
 1815              	.LVL241:
 1816              	.LBB335:
 468:../../source/src/user/OS_LIB/malloc.c **** 		{
 469:../../source/src/user/OS_LIB/malloc.c **** 			struct list_head *buffer;
 470:../../source/src/user/OS_LIB/malloc.c **** 			int num = 0;
 471:../../source/src/user/OS_LIB/malloc.c **** 			ka_printf("in chain slabs_partial\n");
 1817              		.loc 1 471 0
 1818 0666 5148     		ldr	r0, .L161+36
 1819 0668 FFF7FEFF 		bl	ka_printf
 1820              	.LVL242:
 472:../../source/src/user/OS_LIB/malloc.c **** 			list_for_each(buffer,&kmem_cache_ptr->slabs_partial)
 1821              		.loc 1 472 0
 1822 066c 7469     		ldr	r4, [r6, #20]
 1823              	.LVL243:
 470:../../source/src/user/OS_LIB/malloc.c **** 			ka_printf("in chain slabs_partial\n");
 1824              		.loc 1 470 0
 1825 066e 4FF00008 		mov	r8, #0
 1826              		.loc 1 472 0
 1827 0672 A742     		cmp	r7, r4
 1828 0674 2AD0     		beq	.L146
 473:../../source/src/user/OS_LIB/malloc.c **** 			{
 474:../../source/src/user/OS_LIB/malloc.c **** 				ka_printf("the NO.%d slab information:\n",++num);
 1829              		.loc 1 474 0
 1830 0676 DFF850B1 		ldr	fp, .L161+64
 475:../../source/src/user/OS_LIB/malloc.c **** 				slab_ptr = list_entry(buffer,struct slab,slab_chain);
 476:../../source/src/user/OS_LIB/malloc.c **** 				ka_printf("start_ptr is %x\n",(int)slab_ptr->start_ptr);
 1831              		.loc 1 476 0
 1832 067a DFF850A1 		ldr	r10, .L161+68
 477:../../source/src/user/OS_LIB/malloc.c **** 				ka_printf("end_ptr is %x\n",(int)slab_ptr->end_ptr);
 1833              		.loc 1 477 0
 1834 067e DFF85091 		ldr	r9, .L161+72
 1835              	.LVL244:
 1836              	.L147:
 474:../../source/src/user/OS_LIB/malloc.c **** 				slab_ptr = list_entry(buffer,struct slab,slab_chain);
 1837              		.loc 1 474 0 discriminator 3
 1838 0682 08F10108 		add	r8, r8, #1
 1839              	.LVL245:
 1840 0686 4146     		mov	r1, r8
 1841 0688 5846     		mov	r0, fp
 1842 068a FFF7FEFF 		bl	ka_printf
ARM GAS  G:\Users\Jaxb\AppData\Local\Temp\ccLceCCb.s 			page 48


 1843              	.LVL246:
 476:../../source/src/user/OS_LIB/malloc.c **** 				ka_printf("end_ptr is %x\n",(int)slab_ptr->end_ptr);
 1844              		.loc 1 476 0 discriminator 3
 1845 068e 54F8141C 		ldr	r1, [r4, #-20]
 1846 0692 5046     		mov	r0, r10
 1847 0694 FFF7FEFF 		bl	ka_printf
 1848              	.LVL247:
 1849              		.loc 1 477 0 discriminator 3
 1850 0698 54F8101C 		ldr	r1, [r4, #-16]
 1851 069c 4846     		mov	r0, r9
 1852 069e FFF7FEFF 		bl	ka_printf
 1853              	.LVL248:
 478:../../source/src/user/OS_LIB/malloc.c **** 				ka_printf("current_block_num is %d\n",slab_ptr->current_block_num);
 1854              		.loc 1 478 0 discriminator 3
 1855 06a2 54F80C1C 		ldr	r1, [r4, #-12]
 1856 06a6 3D48     		ldr	r0, .L161+20
 1857 06a8 FFF7FEFF 		bl	ka_printf
 1858              	.LVL249:
 479:../../source/src/user/OS_LIB/malloc.c **** 				ka_printf("full_block_num is %d\n",slab_ptr->full_block_num);
 1859              		.loc 1 479 0 discriminator 3
 1860 06ac 54F8081C 		ldr	r1, [r4, #-8]
 1861 06b0 3B48     		ldr	r0, .L161+24
 1862 06b2 FFF7FEFF 		bl	ka_printf
 1863              	.LVL250:
 480:../../source/src/user/OS_LIB/malloc.c **** 				ka_printf("block_size is %d\n",slab_ptr->block_size);
 1864              		.loc 1 480 0 discriminator 3
 1865 06b6 54F8041C 		ldr	r1, [r4, #-4]
 1866 06ba 3A48     		ldr	r0, .L161+28
 1867 06bc FFF7FEFF 		bl	ka_printf
 1868              	.LVL251:
 481:../../source/src/user/OS_LIB/malloc.c **** 				ka_printf("\n");
 1869              		.loc 1 481 0 discriminator 3
 1870 06c0 2846     		mov	r0, r5
 1871 06c2 FFF7FEFF 		bl	ka_printf
 1872              	.LVL252:
 472:../../source/src/user/OS_LIB/malloc.c **** 			{
 1873              		.loc 1 472 0 discriminator 3
 1874 06c6 2468     		ldr	r4, [r4]
 1875              	.LVL253:
 1876 06c8 A742     		cmp	r7, r4
 1877 06ca DAD1     		bne	.L147
 1878              	.LVL254:
 1879              	.L146:
 482:../../source/src/user/OS_LIB/malloc.c **** 			}
 483:../../source/src/user/OS_LIB/malloc.c **** 			ka_printf("chain slabs_partial has %d slab\n",num);
 1880              		.loc 1 483 0
 1881 06cc 4146     		mov	r1, r8
 1882 06ce 3848     		ldr	r0, .L161+40
 1883 06d0 FFF7FEFF 		bl	ka_printf
 1884              	.LVL255:
 1885              	.L148:
 1886              	.LBE335:
 484:../../source/src/user/OS_LIB/malloc.c **** 		}
 485:../../source/src/user/OS_LIB/malloc.c **** 		else
 486:../../source/src/user/OS_LIB/malloc.c **** 		{
 487:../../source/src/user/OS_LIB/malloc.c **** 			ka_printf("chain slabs_partial is empty\n");
 488:../../source/src/user/OS_LIB/malloc.c **** 		}
ARM GAS  G:\Users\Jaxb\AppData\Local\Temp\ccLceCCb.s 			page 49


 489:../../source/src/user/OS_LIB/malloc.c **** 		ka_printf("\n");
 1887              		.loc 1 489 0
 1888 06d4 2846     		mov	r0, r5
 1889 06d6 FFF7FEFF 		bl	ka_printf
 1890              	.LVL256:
 490:../../source/src/user/OS_LIB/malloc.c **** 		if(!list_empty(&kmem_cache_ptr->slabs_empty))
 1891              		.loc 1 490 0
 1892 06da F369     		ldr	r3, [r6, #28]
 1893 06dc 06F11C07 		add	r7, r6, #28
 1894 06e0 9F42     		cmp	r7, r3
 1895 06e2 44D0     		beq	.L149
 1896              	.LVL257:
 1897              	.LBB336:
 491:../../source/src/user/OS_LIB/malloc.c **** 		{
 492:../../source/src/user/OS_LIB/malloc.c **** 			struct list_head *buffer;
 493:../../source/src/user/OS_LIB/malloc.c **** 			int num = 0;
 494:../../source/src/user/OS_LIB/malloc.c **** 			ka_printf("in chain slabs_empty\n");
 1898              		.loc 1 494 0
 1899 06e4 3348     		ldr	r0, .L161+44
 1900 06e6 FFF7FEFF 		bl	ka_printf
 1901              	.LVL258:
 495:../../source/src/user/OS_LIB/malloc.c **** 			list_for_each(buffer,&kmem_cache_ptr->slabs_empty)
 1902              		.loc 1 495 0
 1903 06ea F469     		ldr	r4, [r6, #28]
 1904              	.LVL259:
 493:../../source/src/user/OS_LIB/malloc.c **** 			ka_printf("in chain slabs_empty\n");
 1905              		.loc 1 493 0
 1906 06ec 4FF00008 		mov	r8, #0
 1907              		.loc 1 495 0
 1908 06f0 A742     		cmp	r7, r4
 1909 06f2 2AD0     		beq	.L150
 496:../../source/src/user/OS_LIB/malloc.c **** 			{
 497:../../source/src/user/OS_LIB/malloc.c **** 				ka_printf("the NO.%d slab information:\n",++num);
 1910              		.loc 1 497 0
 1911 06f4 DFF8D0B0 		ldr	fp, .L161+64
 498:../../source/src/user/OS_LIB/malloc.c **** 				slab_ptr = list_entry(buffer,struct slab,slab_chain);
 499:../../source/src/user/OS_LIB/malloc.c **** 				ka_printf("start_ptr is %x\n",(int)slab_ptr->start_ptr);
 1912              		.loc 1 499 0
 1913 06f8 DFF8D0A0 		ldr	r10, .L161+68
 500:../../source/src/user/OS_LIB/malloc.c **** 				ka_printf("end_ptr is %x\n",(int)slab_ptr->end_ptr);
 1914              		.loc 1 500 0
 1915 06fc DFF8D090 		ldr	r9, .L161+72
 1916              	.LVL260:
 1917              	.L151:
 497:../../source/src/user/OS_LIB/malloc.c **** 				slab_ptr = list_entry(buffer,struct slab,slab_chain);
 1918              		.loc 1 497 0 discriminator 3
 1919 0700 08F10108 		add	r8, r8, #1
 1920              	.LVL261:
 1921 0704 4146     		mov	r1, r8
 1922 0706 5846     		mov	r0, fp
 1923 0708 FFF7FEFF 		bl	ka_printf
 1924              	.LVL262:
 499:../../source/src/user/OS_LIB/malloc.c **** 				ka_printf("end_ptr is %x\n",(int)slab_ptr->end_ptr);
 1925              		.loc 1 499 0 discriminator 3
 1926 070c 54F8141C 		ldr	r1, [r4, #-20]
 1927 0710 5046     		mov	r0, r10
 1928 0712 FFF7FEFF 		bl	ka_printf
ARM GAS  G:\Users\Jaxb\AppData\Local\Temp\ccLceCCb.s 			page 50


 1929              	.LVL263:
 1930              		.loc 1 500 0 discriminator 3
 1931 0716 54F8101C 		ldr	r1, [r4, #-16]
 1932 071a 4846     		mov	r0, r9
 1933 071c FFF7FEFF 		bl	ka_printf
 1934              	.LVL264:
 501:../../source/src/user/OS_LIB/malloc.c **** 				ka_printf("current_block_num is %d\n",slab_ptr->current_block_num);
 1935              		.loc 1 501 0 discriminator 3
 1936 0720 54F80C1C 		ldr	r1, [r4, #-12]
 1937 0724 1D48     		ldr	r0, .L161+20
 1938 0726 FFF7FEFF 		bl	ka_printf
 1939              	.LVL265:
 502:../../source/src/user/OS_LIB/malloc.c **** 				ka_printf("full_block_num is %d\n",slab_ptr->full_block_num);
 1940              		.loc 1 502 0 discriminator 3
 1941 072a 54F8081C 		ldr	r1, [r4, #-8]
 1942 072e 1C48     		ldr	r0, .L161+24
 1943 0730 FFF7FEFF 		bl	ka_printf
 1944              	.LVL266:
 503:../../source/src/user/OS_LIB/malloc.c **** 				ka_printf("block_size is %d\n",slab_ptr->block_size);
 1945              		.loc 1 503 0 discriminator 3
 1946 0734 54F8041C 		ldr	r1, [r4, #-4]
 1947 0738 1A48     		ldr	r0, .L161+28
 1948 073a FFF7FEFF 		bl	ka_printf
 1949              	.LVL267:
 504:../../source/src/user/OS_LIB/malloc.c **** 				ka_printf("\n");
 1950              		.loc 1 504 0 discriminator 3
 1951 073e 2846     		mov	r0, r5
 1952 0740 FFF7FEFF 		bl	ka_printf
 1953              	.LVL268:
 495:../../source/src/user/OS_LIB/malloc.c **** 			{
 1954              		.loc 1 495 0 discriminator 3
 1955 0744 2468     		ldr	r4, [r4]
 1956              	.LVL269:
 1957 0746 A742     		cmp	r7, r4
 1958 0748 DAD1     		bne	.L151
 1959              	.LVL270:
 1960              	.L150:
 505:../../source/src/user/OS_LIB/malloc.c **** 			}
 506:../../source/src/user/OS_LIB/malloc.c **** 			ka_printf("chain slabs_empty has %d slab\n",num);
 1961              		.loc 1 506 0
 1962 074a 4146     		mov	r1, r8
 1963 074c 1A48     		ldr	r0, .L161+48
 1964 074e FFF7FEFF 		bl	ka_printf
 1965              	.LVL271:
 1966              	.L152:
 1967              	.LBE336:
 507:../../source/src/user/OS_LIB/malloc.c **** 		}
 508:../../source/src/user/OS_LIB/malloc.c **** 		else
 509:../../source/src/user/OS_LIB/malloc.c **** 		{
 510:../../source/src/user/OS_LIB/malloc.c **** 			ka_printf("chain slabs_empty is empty\n");
 511:../../source/src/user/OS_LIB/malloc.c **** 		}
 512:../../source/src/user/OS_LIB/malloc.c **** 		ka_printf("\n");
 1968              		.loc 1 512 0 discriminator 2
 1969 0752 2846     		mov	r0, r5
 1970 0754 FFF7FEFF 		bl	ka_printf
 1971              	.LVL272:
 438:../../source/src/user/OS_LIB/malloc.c **** 	{
ARM GAS  G:\Users\Jaxb\AppData\Local\Temp\ccLceCCb.s 			page 51


 1972              		.loc 1 438 0 discriminator 2
 1973 0758 3668     		ldr	r6, [r6]
 1974              	.LVL273:
 1975 075a 029B     		ldr	r3, [sp, #8]
 1976 075c 9E42     		cmp	r6, r3
 1977 075e 7FF431AF 		bne	.L153
 1978              	.LVL274:
 1979              	.L140:
 513:../../source/src/user/OS_LIB/malloc.c **** 	}
 514:../../source/src/user/OS_LIB/malloc.c **** 	CPU_CRITICAL_EXIT();
 1980              		.loc 1 514 0
 1981 0762 0398     		ldr	r0, [sp, #12]
 515:../../source/src/user/OS_LIB/malloc.c **** }
 1982              		.loc 1 515 0
 1983 0764 05B0     		add	sp, sp, #20
 1984              	.LCFI17:
 1985              		.cfi_remember_state
 1986              		.cfi_def_cfa_offset 36
 1987              		@ sp needed
 1988 0766 BDE8F04F 		pop	{r4, r5, r6, r7, r8, r9, r10, fp, lr}
 1989              	.LCFI18:
 1990              		.cfi_restore 14
 1991              		.cfi_restore 11
 1992              		.cfi_restore 10
 1993              		.cfi_restore 9
 1994              		.cfi_restore 8
 1995              		.cfi_restore 7
 1996              		.cfi_restore 6
 1997              		.cfi_restore 5
 1998              		.cfi_restore 4
 1999              		.cfi_def_cfa_offset 0
 2000              	.LVL275:
 514:../../source/src/user/OS_LIB/malloc.c **** }
 2001              		.loc 1 514 0
 2002 076a FFF7FEBF 		b	CPU_SR_Restore
 2003              	.LVL276:
 2004              	.L149:
 2005              	.LCFI19:
 2006              		.cfi_restore_state
 510:../../source/src/user/OS_LIB/malloc.c **** 		}
 2007              		.loc 1 510 0
 2008 076e 1348     		ldr	r0, .L161+52
 2009 0770 FFF7FEFF 		bl	ka_printf
 2010              	.LVL277:
 2011 0774 EDE7     		b	.L152
 2012              	.L141:
 464:../../source/src/user/OS_LIB/malloc.c **** 		}
 2013              		.loc 1 464 0
 2014 0776 1248     		ldr	r0, .L161+56
 2015 0778 FFF7FEFF 		bl	ka_printf
 2016              	.LVL278:
 2017 077c 6AE7     		b	.L144
 2018              	.L145:
 487:../../source/src/user/OS_LIB/malloc.c **** 		}
 2019              		.loc 1 487 0
 2020 077e 1148     		ldr	r0, .L161+60
 2021 0780 FFF7FEFF 		bl	ka_printf
ARM GAS  G:\Users\Jaxb\AppData\Local\Temp\ccLceCCb.s 			page 52


 2022              	.LVL279:
 2023 0784 A6E7     		b	.L148
 2024              	.L162:
 2025 0786 00BF     		.align	2
 2026              	.L161:
 2027 0788 00000000 		.word	.LANCHOR0
 2028 078c D4010000 		.word	.LC16
 2029 0790 CC000000 		.word	.LC8
 2030 0794 D8010000 		.word	.LC17
 2031 0798 FC010000 		.word	.LC18
 2032 079c 58020000 		.word	.LC22
 2033 07a0 74020000 		.word	.LC23
 2034 07a4 8C020000 		.word	.LC24
 2035 07a8 18010000 		.word	.LC10
 2036 07ac A0020000 		.word	.LC25
 2037 07b0 54010000 		.word	.LC12
 2038 07b4 B8020000 		.word	.LC26
 2039 07b8 98010000 		.word	.LC14
 2040 07bc B8010000 		.word	.LC15
 2041 07c0 38010000 		.word	.LC11
 2042 07c4 78010000 		.word	.LC13
 2043 07c8 14020000 		.word	.LC19
 2044 07cc 34020000 		.word	.LC20
 2045 07d0 48020000 		.word	.LC21
 2046              		.cfi_endproc
 2047              	.LFE25:
 2048              		.size	shell_check_slab, .-shell_check_slab
 2049              		.global	cache_chain_head_ptr
 2050              		.section	.rodata
 2051              		.align	2
 2052              		.type	cache_chain_head_ptr, %object
 2053              		.size	cache_chain_head_ptr, 4
 2054              	cache_chain_head_ptr:
 2055 0000 04000000 		.word	cache_chain_head
 2056              		.bss
 2057              		.align	2
 2058              		.set	.LANCHOR0,. + 0
 2059              		.type	page_alloc_record_head, %object
 2060              		.size	page_alloc_record_head, 4
 2061              	page_alloc_record_head:
 2062 0000 00000000 		.space	4
 2063              		.type	cache_chain_head, %object
 2064              		.size	cache_chain_head, 8
 2065              	cache_chain_head:
 2066 0004 00000000 		.space	8
 2066      00000000 
 2067              		.type	kmem_cache_TCB, %object
 2068              		.size	kmem_cache_TCB, 36
 2069              	kmem_cache_TCB:
 2070 000c 00000000 		.space	36
 2070      00000000 
 2070      00000000 
 2070      00000000 
 2070      00000000 
 2071              		.type	kmem_cache_kmem_cache, %object
 2072              		.size	kmem_cache_kmem_cache, 36
 2073              	kmem_cache_kmem_cache:
ARM GAS  G:\Users\Jaxb\AppData\Local\Temp\ccLceCCb.s 			page 53


 2074 0030 00000000 		.space	36
 2074      00000000 
 2074      00000000 
 2074      00000000 
 2074      00000000 
 2075              		.type	kmem_cache32, %object
 2076              		.size	kmem_cache32, 36
 2077              	kmem_cache32:
 2078 0054 00000000 		.space	36
 2078      00000000 
 2078      00000000 
 2078      00000000 
 2078      00000000 
 2079              		.type	kmem_cache16, %object
 2080              		.size	kmem_cache16, 36
 2081              	kmem_cache16:
 2082 0078 00000000 		.space	36
 2082      00000000 
 2082      00000000 
 2082      00000000 
 2082      00000000 
 2083              		.section	.rodata.str1.4,"aMS",%progbits,1
 2084              		.align	2
 2085              	.LC0:
 2086 0000 2E2E2F2E 		.ascii	"../../source/src/user/OS_LIB/malloc.c\000"
 2086      2E2F736F 
 2086      75726365 
 2086      2F737263 
 2086      2F757365 
 2087 0026 0000     		.space	2
 2088              	.LC1:
 2089 0028 746F6F20 		.ascii	"too big! FATAL ERROR!\012\000"
 2089      62696721 
 2089      20464154 
 2089      414C2045 
 2089      52524F52 
 2090 003f 00       		.space	1
 2091              	.LC2:
 2092 0040 6E6F2073 		.ascii	"no space!!!\012\000"
 2092      70616365 
 2092      2121210A 
 2092      00
 2093 004d 000000   		.space	3
 2094              	.LC3:
 2095 0050 6E756D2E 		.ascii	"num.%u\012\000"
 2095      25750A00 
 2096              	.LC4:
 2097 0058 6C657665 		.ascii	"level is %u\012\000"
 2097      6C206973 
 2097      2025750A 
 2097      00
 2098 0065 000000   		.space	3
 2099              	.LC5:
 2100 0068 61646472 		.ascii	"address is %p\012\000"
 2100      65737320 
 2100      69732025 
 2100      700A00
ARM GAS  G:\Users\Jaxb\AppData\Local\Temp\ccLceCCb.s 			page 54


 2101 0077 00       		.space	1
 2102              	.LC6:
 2103 0078 66617461 		.ascii	"fatal error from add_page_alloc_record()\012\000"
 2103      6C206572 
 2103      726F7220 
 2103      66726F6D 
 2103      20616464 
 2104 00a2 0000     		.space	2
 2105              	.LC7:
 2106 00a4 6E6F7420 		.ascii	"not in a slab or record,fatal error\012\000"
 2106      696E2061 
 2106      20736C61 
 2106      62206F72 
 2106      20726563 
 2107 00c9 000000   		.space	3
 2108              	.LC8:
 2109 00cc 3D3D3D3D 		.ascii	"===========get NO.%d kmem===========\012\000"
 2109      3D3D3D3D 
 2109      3D3D3D67 
 2109      6574204E 
 2109      4F2E2564 
 2110 00f2 0000     		.space	2
 2111              	.LC9:
 2112 00f4 74686520 		.ascii	"the size of this kmem_cache is %u\012\000"
 2112      73697A65 
 2112      206F6620 
 2112      74686973 
 2112      206B6D65 
 2113 0117 00       		.space	1
 2114              	.LC10:
 2115 0118 63686169 		.ascii	"chain slabs_full has %d slab\012\000"
 2115      6E20736C 
 2115      6162735F 
 2115      66756C6C 
 2115      20686173 
 2116 0136 0000     		.space	2
 2117              	.LC11:
 2118 0138 63686169 		.ascii	"chain slabs_full is empty\012\000"
 2118      6E20736C 
 2118      6162735F 
 2118      66756C6C 
 2118      20697320 
 2119 0153 00       		.space	1
 2120              	.LC12:
 2121 0154 63686169 		.ascii	"chain slabs_partial has %d slab\012\000"
 2121      6E20736C 
 2121      6162735F 
 2121      70617274 
 2121      69616C20 
 2122 0175 000000   		.space	3
 2123              	.LC13:
 2124 0178 63686169 		.ascii	"chain slabs_partial is empty\012\000"
 2124      6E20736C 
 2124      6162735F 
 2124      70617274 
 2124      69616C20 
 2125 0196 0000     		.space	2
ARM GAS  G:\Users\Jaxb\AppData\Local\Temp\ccLceCCb.s 			page 55


 2126              	.LC14:
 2127 0198 63686169 		.ascii	"chain slabs_empty has %d slab\012\000"
 2127      6E20736C 
 2127      6162735F 
 2127      656D7074 
 2127      79206861 
 2128 01b7 00       		.space	1
 2129              	.LC15:
 2130 01b8 63686169 		.ascii	"chain slabs_empty is empty\012\000"
 2130      6E20736C 
 2130      6162735F 
 2130      656D7074 
 2130      79206973 
 2131              	.LC16:
 2132 01d4 0A00     		.ascii	"\012\000"
 2133 01d6 0000     		.space	2
 2134              	.LC17:
 2135 01d8 74686520 		.ascii	"the size of this kmem_cache is %l\012\000"
 2135      73697A65 
 2135      206F6620 
 2135      74686973 
 2135      206B6D65 
 2136 01fb 00       		.space	1
 2137              	.LC18:
 2138 01fc 696E2063 		.ascii	"in chain slabs_full\012\000"
 2138      6861696E 
 2138      20736C61 
 2138      62735F66 
 2138      756C6C0A 
 2139 0211 000000   		.space	3
 2140              	.LC19:
 2141 0214 74686520 		.ascii	"the NO.%d slab information:\012\000"
 2141      4E4F2E25 
 2141      6420736C 
 2141      61622069 
 2141      6E666F72 
 2142 0231 000000   		.space	3
 2143              	.LC20:
 2144 0234 73746172 		.ascii	"start_ptr is %x\012\000"
 2144      745F7074 
 2144      72206973 
 2144      2025780A 
 2144      00
 2145 0245 000000   		.space	3
 2146              	.LC21:
 2147 0248 656E645F 		.ascii	"end_ptr is %x\012\000"
 2147      70747220 
 2147      69732025 
 2147      780A00
 2148 0257 00       		.space	1
 2149              	.LC22:
 2150 0258 63757272 		.ascii	"current_block_num is %d\012\000"
 2150      656E745F 
 2150      626C6F63 
 2150      6B5F6E75 
 2150      6D206973 
 2151 0271 000000   		.space	3
ARM GAS  G:\Users\Jaxb\AppData\Local\Temp\ccLceCCb.s 			page 56


 2152              	.LC23:
 2153 0274 66756C6C 		.ascii	"full_block_num is %d\012\000"
 2153      5F626C6F 
 2153      636B5F6E 
 2153      756D2069 
 2153      73202564 
 2154 028a 0000     		.space	2
 2155              	.LC24:
 2156 028c 626C6F63 		.ascii	"block_size is %d\012\000"
 2156      6B5F7369 
 2156      7A652069 
 2156      73202564 
 2156      0A00
 2157 029e 0000     		.space	2
 2158              	.LC25:
 2159 02a0 696E2063 		.ascii	"in chain slabs_partial\012\000"
 2159      6861696E 
 2159      20736C61 
 2159      62735F70 
 2159      61727469 
 2160              	.LC26:
 2161 02b8 696E2063 		.ascii	"in chain slabs_empty\012\000"
 2161      6861696E 
 2161      20736C61 
 2161      62735F65 
 2161      6D707479 
 2162              		.text
 2163              	.Letext0:
 2164              		.file 4 "../../source/include/os_cpu/kakaosstdint.h"
 2165              		.file 5 "../../source/include/os_lib/insert_sort.h"
 2166              		.file 6 "../../source/include/os_lib/slab.h"
 2167              		.file 7 "../../source/include/os_lib/buddy.h"
 2168              		.file 8 "../../source/include/os_cpu/os_cpu_stm32.h"
 2169              		.file 9 "../../source/include/os_core/TCB.h"
 2170              		.file 10 "../../source/include/os_lib/myMicroLIB.h"
 2171              		.file 11 "../../source/include/os_lib/myassert.h"