ARM GAS  G:\Users\Jaxb\AppData\Local\Temp\ccZD0TjZ.s 			page 1


   1              		.cpu cortex-m3
   2              		.eabi_attribute 20, 1
   3              		.eabi_attribute 21, 1
   4              		.eabi_attribute 23, 3
   5              		.eabi_attribute 24, 1
   6              		.eabi_attribute 25, 1
   7              		.eabi_attribute 26, 1
   8              		.eabi_attribute 30, 6
   9              		.eabi_attribute 34, 1
  10              		.eabi_attribute 18, 4
  11              		.file	"malloc.c"
  12              		.text
  13              	.Ltext0:
  14              		.cfi_sections	.debug_frame
  15              		.align	1
  16              		.syntax unified
  17              		.thumb
  18              		.thumb_func
  19              		.fpu softvfp
  20              		.type	INIT_SINGLY_LIST_HEAD, %function
  21              	INIT_SINGLY_LIST_HEAD:
  22              	.LFB0:
  23              		.file 1 "../../source/include/os_lib/singly_linked_list.h"
   1:../../source/include/os_lib/singly_linked_list.h **** #ifndef _SINGLY_LINKED_LIST_H
   2:../../source/include/os_lib/singly_linked_list.h **** #define _SINGLY_LINKED_LIST_H
   3:../../source/include/os_lib/singly_linked_list.h **** 
   4:../../source/include/os_lib/singly_linked_list.h **** struct singly_list_head{
   5:../../source/include/os_lib/singly_linked_list.h **** 	struct singly_list_head *next;
   6:../../source/include/os_lib/singly_linked_list.h **** };
   7:../../source/include/os_lib/singly_linked_list.h **** 
   8:../../source/include/os_lib/singly_linked_list.h **** #define SINGLY_LIST_HEAD_INIT(name) { &(name) }
   9:../../source/include/os_lib/singly_linked_list.h **** 
  10:../../source/include/os_lib/singly_linked_list.h **** #define SINGLY_LIST_HEAD(name) \
  11:../../source/include/os_lib/singly_linked_list.h ****     struct singly_list_head name = SINGLY_LIST_HEAD_INIT(name)
  12:../../source/include/os_lib/singly_linked_list.h **** 
  13:../../source/include/os_lib/singly_linked_list.h **** static inline void INIT_SINGLY_LIST_HEAD(struct singly_list_head *list)
  14:../../source/include/os_lib/singly_linked_list.h **** {
  24              		.loc 1 14 0
  25              		.cfi_startproc
  26              		@ args = 0, pretend = 0, frame = 8
  27              		@ frame_needed = 1, uses_anonymous_args = 0
  28              		@ link register save eliminated.
  29 0000 80B4     		push	{r7}
  30              	.LCFI0:
  31              		.cfi_def_cfa_offset 4
  32              		.cfi_offset 7, -4
  33 0002 83B0     		sub	sp, sp, #12
  34              	.LCFI1:
  35              		.cfi_def_cfa_offset 16
  36 0004 00AF     		add	r7, sp, #0
  37              	.LCFI2:
  38              		.cfi_def_cfa_register 7
  39 0006 7860     		str	r0, [r7, #4]
  15:../../source/include/os_lib/singly_linked_list.h **** 	list->next = list;
  40              		.loc 1 15 0
  41 0008 7B68     		ldr	r3, [r7, #4]
  42 000a 7A68     		ldr	r2, [r7, #4]
ARM GAS  G:\Users\Jaxb\AppData\Local\Temp\ccZD0TjZ.s 			page 2


  43 000c 1A60     		str	r2, [r3]
  16:../../source/include/os_lib/singly_linked_list.h **** }
  44              		.loc 1 16 0
  45 000e 00BF     		nop
  46 0010 0C37     		adds	r7, r7, #12
  47              	.LCFI3:
  48              		.cfi_def_cfa_offset 4
  49 0012 BD46     		mov	sp, r7
  50              	.LCFI4:
  51              		.cfi_def_cfa_register 13
  52              		@ sp needed
  53 0014 80BC     		pop	{r7}
  54              	.LCFI5:
  55              		.cfi_restore 7
  56              		.cfi_def_cfa_offset 0
  57 0016 7047     		bx	lr
  58              		.cfi_endproc
  59              	.LFE0:
  60              		.size	INIT_SINGLY_LIST_HEAD, .-INIT_SINGLY_LIST_HEAD
  61              		.align	1
  62              		.syntax unified
  63              		.thumb
  64              		.thumb_func
  65              		.fpu softvfp
  66              		.type	singly_list_add, %function
  67              	singly_list_add:
  68              	.LFB1:
  17:../../source/include/os_lib/singly_linked_list.h **** 
  18:../../source/include/os_lib/singly_linked_list.h **** static inline void singly_list_add(struct singly_list_head *new,struct singly_list_head *head)
  19:../../source/include/os_lib/singly_linked_list.h **** {
  69              		.loc 1 19 0
  70              		.cfi_startproc
  71              		@ args = 0, pretend = 0, frame = 8
  72              		@ frame_needed = 1, uses_anonymous_args = 0
  73              		@ link register save eliminated.
  74 0018 80B4     		push	{r7}
  75              	.LCFI6:
  76              		.cfi_def_cfa_offset 4
  77              		.cfi_offset 7, -4
  78 001a 83B0     		sub	sp, sp, #12
  79              	.LCFI7:
  80              		.cfi_def_cfa_offset 16
  81 001c 00AF     		add	r7, sp, #0
  82              	.LCFI8:
  83              		.cfi_def_cfa_register 7
  84 001e 7860     		str	r0, [r7, #4]
  85 0020 3960     		str	r1, [r7]
  20:../../source/include/os_lib/singly_linked_list.h **** 	new->next = head->next;
  86              		.loc 1 20 0
  87 0022 3B68     		ldr	r3, [r7]
  88 0024 1A68     		ldr	r2, [r3]
  89 0026 7B68     		ldr	r3, [r7, #4]
  90 0028 1A60     		str	r2, [r3]
  21:../../source/include/os_lib/singly_linked_list.h **** 	head->next = new;
  91              		.loc 1 21 0
  92 002a 3B68     		ldr	r3, [r7]
  93 002c 7A68     		ldr	r2, [r7, #4]
ARM GAS  G:\Users\Jaxb\AppData\Local\Temp\ccZD0TjZ.s 			page 3


  94 002e 1A60     		str	r2, [r3]
  22:../../source/include/os_lib/singly_linked_list.h **** }
  95              		.loc 1 22 0
  96 0030 00BF     		nop
  97 0032 0C37     		adds	r7, r7, #12
  98              	.LCFI9:
  99              		.cfi_def_cfa_offset 4
 100 0034 BD46     		mov	sp, r7
 101              	.LCFI10:
 102              		.cfi_def_cfa_register 13
 103              		@ sp needed
 104 0036 80BC     		pop	{r7}
 105              	.LCFI11:
 106              		.cfi_restore 7
 107              		.cfi_def_cfa_offset 0
 108 0038 7047     		bx	lr
 109              		.cfi_endproc
 110              	.LFE1:
 111              		.size	singly_list_add, .-singly_list_add
 112              		.align	1
 113              		.syntax unified
 114              		.thumb
 115              		.thumb_func
 116              		.fpu softvfp
 117              		.type	__list_add, %function
 118              	__list_add:
 119              	.LFB5:
 120              		.file 2 "../../source/include/os_lib/double_linked_list.h"
   1:../../source/include/os_lib/double_linked_list.h **** #ifndef _DOUBLE_LINKED_LIST_H
   2:../../source/include/os_lib/double_linked_list.h **** #define _DOUBLE_LINKED_LIST_H
   3:../../source/include/os_lib/double_linked_list.h **** 
   4:../../source/include/os_lib/double_linked_list.h **** struct list_head {
   5:../../source/include/os_lib/double_linked_list.h ****     struct list_head *next, *prev;
   6:../../source/include/os_lib/double_linked_list.h **** };
   7:../../source/include/os_lib/double_linked_list.h **** 
   8:../../source/include/os_lib/double_linked_list.h **** 
   9:../../source/include/os_lib/double_linked_list.h **** #define LIST_HEAD_INIT(name) { &(name), &(name) }
  10:../../source/include/os_lib/double_linked_list.h **** 
  11:../../source/include/os_lib/double_linked_list.h **** 
  12:../../source/include/os_lib/double_linked_list.h **** #define LIST_HEAD(name) \
  13:../../source/include/os_lib/double_linked_list.h ****     struct list_head name = LIST_HEAD_INIT(name)
  14:../../source/include/os_lib/double_linked_list.h **** 
  15:../../source/include/os_lib/double_linked_list.h **** 
  16:../../source/include/os_lib/double_linked_list.h **** static inline void INIT_LIST_HEAD(struct list_head *list)
  17:../../source/include/os_lib/double_linked_list.h **** {
  18:../../source/include/os_lib/double_linked_list.h ****     list->next = list;
  19:../../source/include/os_lib/double_linked_list.h ****     list->prev = list;
  20:../../source/include/os_lib/double_linked_list.h **** }
  21:../../source/include/os_lib/double_linked_list.h **** 
  22:../../source/include/os_lib/double_linked_list.h **** 
  23:../../source/include/os_lib/double_linked_list.h **** static inline void __list_add(struct list_head *new,
  24:../../source/include/os_lib/double_linked_list.h ****                   struct list_head *prev,
  25:../../source/include/os_lib/double_linked_list.h ****                   struct list_head *next)
  26:../../source/include/os_lib/double_linked_list.h **** {
 121              		.loc 2 26 0
 122              		.cfi_startproc
 123              		@ args = 0, pretend = 0, frame = 16
ARM GAS  G:\Users\Jaxb\AppData\Local\Temp\ccZD0TjZ.s 			page 4


 124              		@ frame_needed = 1, uses_anonymous_args = 0
 125              		@ link register save eliminated.
 126 003a 80B4     		push	{r7}
 127              	.LCFI12:
 128              		.cfi_def_cfa_offset 4
 129              		.cfi_offset 7, -4
 130 003c 85B0     		sub	sp, sp, #20
 131              	.LCFI13:
 132              		.cfi_def_cfa_offset 24
 133 003e 00AF     		add	r7, sp, #0
 134              	.LCFI14:
 135              		.cfi_def_cfa_register 7
 136 0040 F860     		str	r0, [r7, #12]
 137 0042 B960     		str	r1, [r7, #8]
 138 0044 7A60     		str	r2, [r7, #4]
  27:../../source/include/os_lib/double_linked_list.h ****     next->prev = new;
 139              		.loc 2 27 0
 140 0046 7B68     		ldr	r3, [r7, #4]
 141 0048 FA68     		ldr	r2, [r7, #12]
 142 004a 5A60     		str	r2, [r3, #4]
  28:../../source/include/os_lib/double_linked_list.h ****     new->next = next;
 143              		.loc 2 28 0
 144 004c FB68     		ldr	r3, [r7, #12]
 145 004e 7A68     		ldr	r2, [r7, #4]
 146 0050 1A60     		str	r2, [r3]
  29:../../source/include/os_lib/double_linked_list.h ****     new->prev = prev;
 147              		.loc 2 29 0
 148 0052 FB68     		ldr	r3, [r7, #12]
 149 0054 BA68     		ldr	r2, [r7, #8]
 150 0056 5A60     		str	r2, [r3, #4]
  30:../../source/include/os_lib/double_linked_list.h ****     prev->next = new;
 151              		.loc 2 30 0
 152 0058 BB68     		ldr	r3, [r7, #8]
 153 005a FA68     		ldr	r2, [r7, #12]
 154 005c 1A60     		str	r2, [r3]
  31:../../source/include/os_lib/double_linked_list.h **** }
 155              		.loc 2 31 0
 156 005e 00BF     		nop
 157 0060 1437     		adds	r7, r7, #20
 158              	.LCFI15:
 159              		.cfi_def_cfa_offset 4
 160 0062 BD46     		mov	sp, r7
 161              	.LCFI16:
 162              		.cfi_def_cfa_register 13
 163              		@ sp needed
 164 0064 80BC     		pop	{r7}
 165              	.LCFI17:
 166              		.cfi_restore 7
 167              		.cfi_def_cfa_offset 0
 168 0066 7047     		bx	lr
 169              		.cfi_endproc
 170              	.LFE5:
 171              		.size	__list_add, .-__list_add
 172              		.align	1
 173              		.syntax unified
 174              		.thumb
 175              		.thumb_func
ARM GAS  G:\Users\Jaxb\AppData\Local\Temp\ccZD0TjZ.s 			page 5


 176              		.fpu softvfp
 177              		.type	list_add, %function
 178              	list_add:
 179              	.LFB6:
  32:../../source/include/os_lib/double_linked_list.h **** 
  33:../../source/include/os_lib/double_linked_list.h **** 
  34:../../source/include/os_lib/double_linked_list.h **** static inline void list_add(struct list_head *new, struct list_head *head)
  35:../../source/include/os_lib/double_linked_list.h **** {
 180              		.loc 2 35 0
 181              		.cfi_startproc
 182              		@ args = 0, pretend = 0, frame = 8
 183              		@ frame_needed = 1, uses_anonymous_args = 0
 184 0068 80B5     		push	{r7, lr}
 185              	.LCFI18:
 186              		.cfi_def_cfa_offset 8
 187              		.cfi_offset 7, -8
 188              		.cfi_offset 14, -4
 189 006a 82B0     		sub	sp, sp, #8
 190              	.LCFI19:
 191              		.cfi_def_cfa_offset 16
 192 006c 00AF     		add	r7, sp, #0
 193              	.LCFI20:
 194              		.cfi_def_cfa_register 7
 195 006e 7860     		str	r0, [r7, #4]
 196 0070 3960     		str	r1, [r7]
  36:../../source/include/os_lib/double_linked_list.h ****     __list_add(new, head, head->next);
 197              		.loc 2 36 0
 198 0072 3B68     		ldr	r3, [r7]
 199 0074 1B68     		ldr	r3, [r3]
 200 0076 1A46     		mov	r2, r3
 201 0078 3968     		ldr	r1, [r7]
 202 007a 7868     		ldr	r0, [r7, #4]
 203 007c FFF7DDFF 		bl	__list_add
  37:../../source/include/os_lib/double_linked_list.h **** }
 204              		.loc 2 37 0
 205 0080 00BF     		nop
 206 0082 0837     		adds	r7, r7, #8
 207              	.LCFI21:
 208              		.cfi_def_cfa_offset 8
 209 0084 BD46     		mov	sp, r7
 210              	.LCFI22:
 211              		.cfi_def_cfa_register 13
 212              		@ sp needed
 213 0086 80BD     		pop	{r7, pc}
 214              		.cfi_endproc
 215              	.LFE6:
 216              		.size	list_add, .-list_add
 217              		.align	1
 218              		.syntax unified
 219              		.thumb
 220              		.thumb_func
 221              		.fpu softvfp
 222              		.type	__list_del, %function
 223              	__list_del:
 224              	.LFB8:
  38:../../source/include/os_lib/double_linked_list.h **** 
  39:../../source/include/os_lib/double_linked_list.h **** 
ARM GAS  G:\Users\Jaxb\AppData\Local\Temp\ccZD0TjZ.s 			page 6


  40:../../source/include/os_lib/double_linked_list.h **** static inline void list_add_tail(struct list_head *new, struct list_head *head)
  41:../../source/include/os_lib/double_linked_list.h **** {
  42:../../source/include/os_lib/double_linked_list.h ****     __list_add(new, head->prev, head);
  43:../../source/include/os_lib/double_linked_list.h **** }
  44:../../source/include/os_lib/double_linked_list.h **** 
  45:../../source/include/os_lib/double_linked_list.h **** 
  46:../../source/include/os_lib/double_linked_list.h **** static inline void __list_del(struct list_head * prev, struct list_head * next)
  47:../../source/include/os_lib/double_linked_list.h **** {
 225              		.loc 2 47 0
 226              		.cfi_startproc
 227              		@ args = 0, pretend = 0, frame = 8
 228              		@ frame_needed = 1, uses_anonymous_args = 0
 229              		@ link register save eliminated.
 230 0088 80B4     		push	{r7}
 231              	.LCFI23:
 232              		.cfi_def_cfa_offset 4
 233              		.cfi_offset 7, -4
 234 008a 83B0     		sub	sp, sp, #12
 235              	.LCFI24:
 236              		.cfi_def_cfa_offset 16
 237 008c 00AF     		add	r7, sp, #0
 238              	.LCFI25:
 239              		.cfi_def_cfa_register 7
 240 008e 7860     		str	r0, [r7, #4]
 241 0090 3960     		str	r1, [r7]
  48:../../source/include/os_lib/double_linked_list.h ****     next->prev = prev;
 242              		.loc 2 48 0
 243 0092 3B68     		ldr	r3, [r7]
 244 0094 7A68     		ldr	r2, [r7, #4]
 245 0096 5A60     		str	r2, [r3, #4]
  49:../../source/include/os_lib/double_linked_list.h ****     prev->next = next;
 246              		.loc 2 49 0
 247 0098 7B68     		ldr	r3, [r7, #4]
 248 009a 3A68     		ldr	r2, [r7]
 249 009c 1A60     		str	r2, [r3]
  50:../../source/include/os_lib/double_linked_list.h **** }
 250              		.loc 2 50 0
 251 009e 00BF     		nop
 252 00a0 0C37     		adds	r7, r7, #12
 253              	.LCFI26:
 254              		.cfi_def_cfa_offset 4
 255 00a2 BD46     		mov	sp, r7
 256              	.LCFI27:
 257              		.cfi_def_cfa_register 13
 258              		@ sp needed
 259 00a4 80BC     		pop	{r7}
 260              	.LCFI28:
 261              		.cfi_restore 7
 262              		.cfi_def_cfa_offset 0
 263 00a6 7047     		bx	lr
 264              		.cfi_endproc
 265              	.LFE8:
 266              		.size	__list_del, .-__list_del
 267              		.align	1
 268              		.syntax unified
 269              		.thumb
 270              		.thumb_func
ARM GAS  G:\Users\Jaxb\AppData\Local\Temp\ccZD0TjZ.s 			page 7


 271              		.fpu softvfp
 272              		.type	list_del, %function
 273              	list_del:
 274              	.LFB9:
  51:../../source/include/os_lib/double_linked_list.h **** 
  52:../../source/include/os_lib/double_linked_list.h **** 
  53:../../source/include/os_lib/double_linked_list.h **** static inline void list_del(struct list_head *entry)
  54:../../source/include/os_lib/double_linked_list.h **** {
 275              		.loc 2 54 0
 276              		.cfi_startproc
 277              		@ args = 0, pretend = 0, frame = 8
 278              		@ frame_needed = 1, uses_anonymous_args = 0
 279 00a8 80B5     		push	{r7, lr}
 280              	.LCFI29:
 281              		.cfi_def_cfa_offset 8
 282              		.cfi_offset 7, -8
 283              		.cfi_offset 14, -4
 284 00aa 82B0     		sub	sp, sp, #8
 285              	.LCFI30:
 286              		.cfi_def_cfa_offset 16
 287 00ac 00AF     		add	r7, sp, #0
 288              	.LCFI31:
 289              		.cfi_def_cfa_register 7
 290 00ae 7860     		str	r0, [r7, #4]
  55:../../source/include/os_lib/double_linked_list.h ****     __list_del(entry->prev, entry->next);
 291              		.loc 2 55 0
 292 00b0 7B68     		ldr	r3, [r7, #4]
 293 00b2 5A68     		ldr	r2, [r3, #4]
 294 00b4 7B68     		ldr	r3, [r7, #4]
 295 00b6 1B68     		ldr	r3, [r3]
 296 00b8 1946     		mov	r1, r3
 297 00ba 1046     		mov	r0, r2
 298 00bc FFF7E4FF 		bl	__list_del
  56:../../source/include/os_lib/double_linked_list.h **** }
 299              		.loc 2 56 0
 300 00c0 00BF     		nop
 301 00c2 0837     		adds	r7, r7, #8
 302              	.LCFI32:
 303              		.cfi_def_cfa_offset 8
 304 00c4 BD46     		mov	sp, r7
 305              	.LCFI33:
 306              		.cfi_def_cfa_register 13
 307              		@ sp needed
 308 00c6 80BD     		pop	{r7, pc}
 309              		.cfi_endproc
 310              	.LFE9:
 311              		.size	list_del, .-list_del
 312              		.align	1
 313              		.syntax unified
 314              		.thumb
 315              		.thumb_func
 316              		.fpu softvfp
 317              		.type	list_empty, %function
 318              	list_empty:
 319              	.LFB13:
  57:../../source/include/os_lib/double_linked_list.h **** 
  58:../../source/include/os_lib/double_linked_list.h **** 
ARM GAS  G:\Users\Jaxb\AppData\Local\Temp\ccZD0TjZ.s 			page 8


  59:../../source/include/os_lib/double_linked_list.h **** static inline void __list_del_entry(struct list_head *entry)
  60:../../source/include/os_lib/double_linked_list.h **** {
  61:../../source/include/os_lib/double_linked_list.h ****     __list_del(entry->prev, entry->next);
  62:../../source/include/os_lib/double_linked_list.h **** }
  63:../../source/include/os_lib/double_linked_list.h **** 
  64:../../source/include/os_lib/double_linked_list.h **** 
  65:../../source/include/os_lib/double_linked_list.h **** static inline void list_del_init(struct list_head *entry)
  66:../../source/include/os_lib/double_linked_list.h **** {
  67:../../source/include/os_lib/double_linked_list.h ****     __list_del_entry(entry);
  68:../../source/include/os_lib/double_linked_list.h ****     INIT_LIST_HEAD(entry);
  69:../../source/include/os_lib/double_linked_list.h **** }
  70:../../source/include/os_lib/double_linked_list.h **** 
  71:../../source/include/os_lib/double_linked_list.h **** 
  72:../../source/include/os_lib/double_linked_list.h **** static inline void list_replace(struct list_head *old,
  73:../../source/include/os_lib/double_linked_list.h ****                 struct list_head *new)
  74:../../source/include/os_lib/double_linked_list.h **** {
  75:../../source/include/os_lib/double_linked_list.h ****     new->next = old->next;
  76:../../source/include/os_lib/double_linked_list.h ****     new->next->prev = new;
  77:../../source/include/os_lib/double_linked_list.h ****     new->prev = old->prev;
  78:../../source/include/os_lib/double_linked_list.h ****     new->prev->next = new;
  79:../../source/include/os_lib/double_linked_list.h **** }
  80:../../source/include/os_lib/double_linked_list.h **** 
  81:../../source/include/os_lib/double_linked_list.h **** 
  82:../../source/include/os_lib/double_linked_list.h **** static inline int list_empty(const struct list_head *head)
  83:../../source/include/os_lib/double_linked_list.h **** {
 320              		.loc 2 83 0
 321              		.cfi_startproc
 322              		@ args = 0, pretend = 0, frame = 8
 323              		@ frame_needed = 1, uses_anonymous_args = 0
 324              		@ link register save eliminated.
 325 00c8 80B4     		push	{r7}
 326              	.LCFI34:
 327              		.cfi_def_cfa_offset 4
 328              		.cfi_offset 7, -4
 329 00ca 83B0     		sub	sp, sp, #12
 330              	.LCFI35:
 331              		.cfi_def_cfa_offset 16
 332 00cc 00AF     		add	r7, sp, #0
 333              	.LCFI36:
 334              		.cfi_def_cfa_register 7
 335 00ce 7860     		str	r0, [r7, #4]
  84:../../source/include/os_lib/double_linked_list.h ****     return head->next == head;
 336              		.loc 2 84 0
 337 00d0 7B68     		ldr	r3, [r7, #4]
 338 00d2 1B68     		ldr	r3, [r3]
 339 00d4 7A68     		ldr	r2, [r7, #4]
 340 00d6 9A42     		cmp	r2, r3
 341 00d8 0CBF     		ite	eq
 342 00da 0123     		moveq	r3, #1
 343 00dc 0023     		movne	r3, #0
 344 00de DBB2     		uxtb	r3, r3
  85:../../source/include/os_lib/double_linked_list.h **** }
 345              		.loc 2 85 0
 346 00e0 1846     		mov	r0, r3
 347 00e2 0C37     		adds	r7, r7, #12
 348              	.LCFI37:
 349              		.cfi_def_cfa_offset 4
ARM GAS  G:\Users\Jaxb\AppData\Local\Temp\ccZD0TjZ.s 			page 9


 350 00e4 BD46     		mov	sp, r7
 351              	.LCFI38:
 352              		.cfi_def_cfa_register 13
 353              		@ sp needed
 354 00e6 80BC     		pop	{r7}
 355              	.LCFI39:
 356              		.cfi_restore 7
 357              		.cfi_def_cfa_offset 0
 358 00e8 7047     		bx	lr
 359              		.cfi_endproc
 360              	.LFE13:
 361              		.size	list_empty, .-list_empty
 362              		.bss
 363              		.align	2
 364              	cache_chain_head:
 365 0000 00000000 		.space	4
 366              		.size	cache_chain_head, 4
 367              		.align	2
 368              	kmem_cache16:
 369 0004 00000000 		.space	32
 369      00000000 
 369      00000000 
 369      00000000 
 369      00000000 
 370              		.size	kmem_cache16, 32
 371              		.align	2
 372              	kmem_cache32:
 373 0024 00000000 		.space	32
 373      00000000 
 373      00000000 
 373      00000000 
 373      00000000 
 374              		.size	kmem_cache32, 32
 375              		.align	2
 376              	kmem_cache_kmem_cache:
 377 0044 00000000 		.space	32
 377      00000000 
 377      00000000 
 377      00000000 
 377      00000000 
 378              		.size	kmem_cache_kmem_cache, 32
 379              		.align	2
 380              	kmem_cache_TCB:
 381 0064 00000000 		.space	32
 381      00000000 
 381      00000000 
 381      00000000 
 381      00000000 
 382              		.size	kmem_cache_TCB, 32
 383              		.global	cache_chain_head_ptr
 384              		.section	.rodata
 385              		.align	2
 386              		.type	cache_chain_head_ptr, %object
 387              		.size	cache_chain_head_ptr, 4
 388              	cache_chain_head_ptr:
 389 0000 00000000 		.word	cache_chain_head
 390              		.bss
ARM GAS  G:\Users\Jaxb\AppData\Local\Temp\ccZD0TjZ.s 			page 10


 391              		.align	2
 392              	page_alloc_record_head:
 393 0084 00000000 		.space	4
 394              		.size	page_alloc_record_head, 4
 395              		.section	.rodata
 396              		.align	2
 397              	.LC0:
 398 0004 6E756D2E 		.ascii	"num.%u\012\000"
 398      25750A00 
 399              		.align	2
 400              	.LC1:
 401 000c 6C657665 		.ascii	"level is %u\012\000"
 401      6C206973 
 401      2025750A 
 401      00
 402 0019 000000   		.align	2
 403              	.LC2:
 404 001c 61646472 		.ascii	"address is %p\012\000"
 404      65737320 
 404      69732025 
 404      700A00
 405              		.text
 406              		.align	1
 407              		.global	dis_page_alloc_record
 408              		.syntax unified
 409              		.thumb
 410              		.thumb_func
 411              		.fpu softvfp
 412              		.type	dis_page_alloc_record, %function
 413              	dis_page_alloc_record:
 414              	.LFB15:
 415              		.file 3 "../../source/src/kernel/OS_LIB/malloc.c"
   1:../../source/src/kernel/OS_LIB/malloc.c **** #include <myMicroLIB.h>
   2:../../source/src/kernel/OS_LIB/malloc.c **** #include <slab.h>
   3:../../source/src/kernel/OS_LIB/malloc.c **** #include <buddy.h>
   4:../../source/src/kernel/OS_LIB/malloc.c **** #include <myassert.h>
   5:../../source/src/kernel/OS_LIB/malloc.c **** #include <os_cpu.h>
   6:../../source/src/kernel/OS_LIB/malloc.c **** #include <TCB.h>
   7:../../source/src/kernel/OS_LIB/malloc.c **** 
   8:../../source/src/kernel/OS_LIB/malloc.c **** extern int in_buddy_range(void *ptr);
   9:../../source/src/kernel/OS_LIB/malloc.c **** extern void _case_slab_free_buddy(void *ptr,void *end_ptr);
  10:../../source/src/kernel/OS_LIB/malloc.c **** 
  11:../../source/src/kernel/OS_LIB/malloc.c **** static struct singly_list_head cache_chain_head;
  12:../../source/src/kernel/OS_LIB/malloc.c **** static struct kmem_cache kmem_cache16;
  13:../../source/src/kernel/OS_LIB/malloc.c **** static struct kmem_cache kmem_cache32;
  14:../../source/src/kernel/OS_LIB/malloc.c **** static struct kmem_cache kmem_cache_kmem_cache;
  15:../../source/src/kernel/OS_LIB/malloc.c **** static struct kmem_cache kmem_cache_TCB;
  16:../../source/src/kernel/OS_LIB/malloc.c **** struct singly_list_head *const cache_chain_head_ptr = &cache_chain_head;
  17:../../source/src/kernel/OS_LIB/malloc.c **** 
  18:../../source/src/kernel/OS_LIB/malloc.c **** static struct singly_list_head page_alloc_record_head;
  19:../../source/src/kernel/OS_LIB/malloc.c **** 
  20:../../source/src/kernel/OS_LIB/malloc.c **** void dis_page_alloc_record(void)
  21:../../source/src/kernel/OS_LIB/malloc.c **** {
 416              		.loc 3 21 0
 417              		.cfi_startproc
 418              		@ args = 0, pretend = 0, frame = 16
 419              		@ frame_needed = 1, uses_anonymous_args = 0
ARM GAS  G:\Users\Jaxb\AppData\Local\Temp\ccZD0TjZ.s 			page 11


 420 00ea 80B5     		push	{r7, lr}
 421              	.LCFI40:
 422              		.cfi_def_cfa_offset 8
 423              		.cfi_offset 7, -8
 424              		.cfi_offset 14, -4
 425 00ec 84B0     		sub	sp, sp, #16
 426              	.LCFI41:
 427              		.cfi_def_cfa_offset 24
 428 00ee 00AF     		add	r7, sp, #0
 429              	.LCFI42:
 430              		.cfi_def_cfa_register 7
  22:../../source/src/kernel/OS_LIB/malloc.c **** 	unsigned int i = 0;
 431              		.loc 3 22 0
 432 00f0 0023     		movs	r3, #0
 433 00f2 FB60     		str	r3, [r7, #12]
 434              	.LBB2:
  23:../../source/src/kernel/OS_LIB/malloc.c **** 	struct page_alloc_record *record_ptr;
  24:../../source/src/kernel/OS_LIB/malloc.c **** 	singly_list_for_each_entry(record_ptr,&page_alloc_record_head,list)
 435              		.loc 3 24 0
 436 00f4 144B     		ldr	r3, .L12
 437 00f6 1B68     		ldr	r3, [r3]
 438 00f8 7B60     		str	r3, [r7, #4]
 439 00fa 7B68     		ldr	r3, [r7, #4]
 440 00fc 083B     		subs	r3, r3, #8
 441              	.LBE2:
 442 00fe BB60     		str	r3, [r7, #8]
 443 0100 18E0     		b	.L10
 444              	.L11:
  25:../../source/src/kernel/OS_LIB/malloc.c **** 	{
  26:../../source/src/kernel/OS_LIB/malloc.c **** 		ka_printf("num.%u\n",++i);
 445              		.loc 3 26 0 discriminator 3
 446 0102 FB68     		ldr	r3, [r7, #12]
 447 0104 0133     		adds	r3, r3, #1
 448 0106 FB60     		str	r3, [r7, #12]
 449 0108 F968     		ldr	r1, [r7, #12]
 450 010a 1048     		ldr	r0, .L12+4
 451 010c FFF7FEFF 		bl	ka_printf
  27:../../source/src/kernel/OS_LIB/malloc.c **** 		ka_printf("level is %u\n",record_ptr->level);
 452              		.loc 3 27 0 discriminator 3
 453 0110 BB68     		ldr	r3, [r7, #8]
 454 0112 1B68     		ldr	r3, [r3]
 455 0114 1946     		mov	r1, r3
 456 0116 0E48     		ldr	r0, .L12+8
 457 0118 FFF7FEFF 		bl	ka_printf
  28:../../source/src/kernel/OS_LIB/malloc.c **** 		ka_printf("address is %p\n",record_ptr->ptr);
 458              		.loc 3 28 0 discriminator 3
 459 011c BB68     		ldr	r3, [r7, #8]
 460 011e 5B68     		ldr	r3, [r3, #4]
 461 0120 1946     		mov	r1, r3
 462 0122 0C48     		ldr	r0, .L12+12
 463 0124 FFF7FEFF 		bl	ka_printf
 464              	.LBB3:
  24:../../source/src/kernel/OS_LIB/malloc.c **** 	{
 465              		.loc 3 24 0 discriminator 3
 466 0128 BB68     		ldr	r3, [r7, #8]
 467 012a 9B68     		ldr	r3, [r3, #8]
 468 012c 3B60     		str	r3, [r7]
ARM GAS  G:\Users\Jaxb\AppData\Local\Temp\ccZD0TjZ.s 			page 12


 469 012e 3B68     		ldr	r3, [r7]
 470 0130 083B     		subs	r3, r3, #8
 471              	.LBE3:
 472 0132 BB60     		str	r3, [r7, #8]
 473              	.L10:
  24:../../source/src/kernel/OS_LIB/malloc.c **** 	{
 474              		.loc 3 24 0 is_stmt 0 discriminator 1
 475 0134 BB68     		ldr	r3, [r7, #8]
 476 0136 0833     		adds	r3, r3, #8
 477 0138 034A     		ldr	r2, .L12
 478 013a 9342     		cmp	r3, r2
 479 013c E1D1     		bne	.L11
  29:../../source/src/kernel/OS_LIB/malloc.c **** 	}
  30:../../source/src/kernel/OS_LIB/malloc.c **** }
 480              		.loc 3 30 0 is_stmt 1
 481 013e 00BF     		nop
 482 0140 1037     		adds	r7, r7, #16
 483              	.LCFI43:
 484              		.cfi_def_cfa_offset 8
 485 0142 BD46     		mov	sp, r7
 486              	.LCFI44:
 487              		.cfi_def_cfa_register 13
 488              		@ sp needed
 489 0144 80BD     		pop	{r7, pc}
 490              	.L13:
 491 0146 00BF     		.align	2
 492              	.L12:
 493 0148 84000000 		.word	page_alloc_record_head
 494 014c 04000000 		.word	.LC0
 495 0150 0C000000 		.word	.LC1
 496 0154 1C000000 		.word	.LC2
 497              		.cfi_endproc
 498              	.LFE15:
 499              		.size	dis_page_alloc_record, .-dis_page_alloc_record
 500              		.align	1
 501              		.global	add_page_alloc_record
 502              		.syntax unified
 503              		.thumb
 504              		.thumb_func
 505              		.fpu softvfp
 506              		.type	add_page_alloc_record, %function
 507              	add_page_alloc_record:
 508              	.LFB16:
  31:../../source/src/kernel/OS_LIB/malloc.c **** 
  32:../../source/src/kernel/OS_LIB/malloc.c **** int add_page_alloc_record(unsigned int level,void *ptr)
  33:../../source/src/kernel/OS_LIB/malloc.c **** {
 509              		.loc 3 33 0
 510              		.cfi_startproc
 511              		@ args = 0, pretend = 0, frame = 16
 512              		@ frame_needed = 1, uses_anonymous_args = 0
 513 0158 80B5     		push	{r7, lr}
 514              	.LCFI45:
 515              		.cfi_def_cfa_offset 8
 516              		.cfi_offset 7, -8
 517              		.cfi_offset 14, -4
 518 015a 84B0     		sub	sp, sp, #16
 519              	.LCFI46:
ARM GAS  G:\Users\Jaxb\AppData\Local\Temp\ccZD0TjZ.s 			page 13


 520              		.cfi_def_cfa_offset 24
 521 015c 00AF     		add	r7, sp, #0
 522              	.LCFI47:
 523              		.cfi_def_cfa_register 7
 524 015e 7860     		str	r0, [r7, #4]
 525 0160 3960     		str	r1, [r7]
  34:../../source/src/kernel/OS_LIB/malloc.c **** 	struct page_alloc_record *recoed_ptr = (struct page_alloc_record *)ka_malloc(sizeof(struct page_al
 526              		.loc 3 34 0
 527 0162 0C20     		movs	r0, #12
 528 0164 FFF7FEFF 		bl	ka_malloc
 529 0168 F860     		str	r0, [r7, #12]
  35:../../source/src/kernel/OS_LIB/malloc.c **** 	if(NULL == recoed_ptr)
 530              		.loc 3 35 0
 531 016a FB68     		ldr	r3, [r7, #12]
 532 016c 002B     		cmp	r3, #0
 533 016e 02D1     		bne	.L15
  36:../../source/src/kernel/OS_LIB/malloc.c **** 	{
  37:../../source/src/kernel/OS_LIB/malloc.c **** 		return -1;
 534              		.loc 3 37 0
 535 0170 4FF0FF33 		mov	r3, #-1
 536 0174 0CE0     		b	.L16
 537              	.L15:
  38:../../source/src/kernel/OS_LIB/malloc.c **** 	}
  39:../../source/src/kernel/OS_LIB/malloc.c **** 	recoed_ptr->level = level;
 538              		.loc 3 39 0
 539 0176 FB68     		ldr	r3, [r7, #12]
 540 0178 7A68     		ldr	r2, [r7, #4]
 541 017a 1A60     		str	r2, [r3]
  40:../../source/src/kernel/OS_LIB/malloc.c **** 	recoed_ptr->ptr = ptr;
 542              		.loc 3 40 0
 543 017c FB68     		ldr	r3, [r7, #12]
 544 017e 3A68     		ldr	r2, [r7]
 545 0180 5A60     		str	r2, [r3, #4]
  41:../../source/src/kernel/OS_LIB/malloc.c **** 	singly_list_add(&recoed_ptr->list,&page_alloc_record_head);
 546              		.loc 3 41 0
 547 0182 FB68     		ldr	r3, [r7, #12]
 548 0184 0833     		adds	r3, r3, #8
 549 0186 0449     		ldr	r1, .L17
 550 0188 1846     		mov	r0, r3
 551 018a FFF745FF 		bl	singly_list_add
  42:../../source/src/kernel/OS_LIB/malloc.c **** 	return FUN_EXECUTE_SUCCESSFULLY;
 552              		.loc 3 42 0
 553 018e 0023     		movs	r3, #0
 554              	.L16:
  43:../../source/src/kernel/OS_LIB/malloc.c **** }
 555              		.loc 3 43 0
 556 0190 1846     		mov	r0, r3
 557 0192 1037     		adds	r7, r7, #16
 558              	.LCFI48:
 559              		.cfi_def_cfa_offset 8
 560 0194 BD46     		mov	sp, r7
 561              	.LCFI49:
 562              		.cfi_def_cfa_register 13
 563              		@ sp needed
 564 0196 80BD     		pop	{r7, pc}
 565              	.L18:
 566              		.align	2
ARM GAS  G:\Users\Jaxb\AppData\Local\Temp\ccZD0TjZ.s 			page 14


 567              	.L17:
 568 0198 84000000 		.word	page_alloc_record_head
 569              		.cfi_endproc
 570              	.LFE16:
 571              		.size	add_page_alloc_record, .-add_page_alloc_record
 572              		.align	1
 573              		.syntax unified
 574              		.thumb
 575              		.thumb_func
 576              		.fpu softvfp
 577              		.type	find_and_remove_record, %function
 578              	find_and_remove_record:
 579              	.LFB17:
  44:../../source/src/kernel/OS_LIB/malloc.c **** 
  45:../../source/src/kernel/OS_LIB/malloc.c **** static int find_and_remove_record(void *ptr)
  46:../../source/src/kernel/OS_LIB/malloc.c **** {
 580              		.loc 3 46 0
 581              		.cfi_startproc
 582              		@ args = 0, pretend = 0, frame = 24
 583              		@ frame_needed = 1, uses_anonymous_args = 0
 584 019c 80B5     		push	{r7, lr}
 585              	.LCFI50:
 586              		.cfi_def_cfa_offset 8
 587              		.cfi_offset 7, -8
 588              		.cfi_offset 14, -4
 589 019e 86B0     		sub	sp, sp, #24
 590              	.LCFI51:
 591              		.cfi_def_cfa_offset 32
 592 01a0 00AF     		add	r7, sp, #0
 593              	.LCFI52:
 594              		.cfi_def_cfa_register 7
 595 01a2 7860     		str	r0, [r7, #4]
  47:../../source/src/kernel/OS_LIB/malloc.c **** 	struct singly_list_head *pos;
  48:../../source/src/kernel/OS_LIB/malloc.c **** 	struct page_alloc_record *record_ptr; 
  49:../../source/src/kernel/OS_LIB/malloc.c **** 	singly_list_for_each(pos,&page_alloc_record_head)
 596              		.loc 3 49 0
 597 01a4 194B     		ldr	r3, .L24
 598 01a6 1B68     		ldr	r3, [r3]
 599 01a8 7B61     		str	r3, [r7, #20]
 600 01aa 25E0     		b	.L20
 601              	.L23:
 602              	.LBB4:
  50:../../source/src/kernel/OS_LIB/malloc.c **** 	{
  51:../../source/src/kernel/OS_LIB/malloc.c **** 		record_ptr = singly_list_entry(pos,struct page_alloc_record,list);
 603              		.loc 3 51 0
 604 01ac 7B69     		ldr	r3, [r7, #20]
 605 01ae 3B61     		str	r3, [r7, #16]
 606 01b0 3B69     		ldr	r3, [r7, #16]
 607 01b2 083B     		subs	r3, r3, #8
 608              	.LBE4:
 609 01b4 FB60     		str	r3, [r7, #12]
  52:../../source/src/kernel/OS_LIB/malloc.c **** 		if(record_ptr->ptr == ptr)
 610              		.loc 3 52 0
 611 01b6 FB68     		ldr	r3, [r7, #12]
 612 01b8 5B68     		ldr	r3, [r3, #4]
 613 01ba 7A68     		ldr	r2, [r7, #4]
 614 01bc 9A42     		cmp	r2, r3
ARM GAS  G:\Users\Jaxb\AppData\Local\Temp\ccZD0TjZ.s 			page 15


 615 01be 18D1     		bne	.L21
  53:../../source/src/kernel/OS_LIB/malloc.c **** 		{
  54:../../source/src/kernel/OS_LIB/malloc.c **** 			_case_slab_free_buddy(ptr,(void *)((unsigned int)ptr + ka_pow(2,record_ptr->level-1) * PAGE_SIZE
 616              		.loc 3 54 0
 617 01c0 FB68     		ldr	r3, [r7, #12]
 618 01c2 1B68     		ldr	r3, [r3]
 619 01c4 013B     		subs	r3, r3, #1
 620 01c6 1946     		mov	r1, r3
 621 01c8 0220     		movs	r0, #2
 622 01ca FFF7FEFF 		bl	ka_pow
 623 01ce 0346     		mov	r3, r0
 624 01d0 9A02     		lsls	r2, r3, #10
 625 01d2 7B68     		ldr	r3, [r7, #4]
 626 01d4 1344     		add	r3, r3, r2
 627 01d6 1946     		mov	r1, r3
 628 01d8 7868     		ldr	r0, [r7, #4]
 629 01da FFF7FEFF 		bl	_case_slab_free_buddy
  55:../../source/src/kernel/OS_LIB/malloc.c **** 			singly_list_del_safe(&page_alloc_record_head,pos);
 630              		.loc 3 55 0
 631 01de 0022     		movs	r2, #0
 632 01e0 7969     		ldr	r1, [r7, #20]
 633 01e2 0A48     		ldr	r0, .L24
 634 01e4 FFF7FEFF 		bl	singly_list_del
  56:../../source/src/kernel/OS_LIB/malloc.c **** 			ka_free(record_ptr);
 635              		.loc 3 56 0
 636 01e8 F868     		ldr	r0, [r7, #12]
 637 01ea FFF7FEFF 		bl	ka_free
  57:../../source/src/kernel/OS_LIB/malloc.c **** 			return FUN_EXECUTE_SUCCESSFULLY;
 638              		.loc 3 57 0
 639 01ee 0023     		movs	r3, #0
 640 01f0 08E0     		b	.L22
 641              	.L21:
  49:../../source/src/kernel/OS_LIB/malloc.c **** 	{
 642              		.loc 3 49 0 discriminator 2
 643 01f2 7B69     		ldr	r3, [r7, #20]
 644 01f4 1B68     		ldr	r3, [r3]
 645 01f6 7B61     		str	r3, [r7, #20]
 646              	.L20:
  49:../../source/src/kernel/OS_LIB/malloc.c **** 	{
 647              		.loc 3 49 0 is_stmt 0 discriminator 1
 648 01f8 7B69     		ldr	r3, [r7, #20]
 649 01fa 044A     		ldr	r2, .L24
 650 01fc 9342     		cmp	r3, r2
 651 01fe D5D1     		bne	.L23
  58:../../source/src/kernel/OS_LIB/malloc.c **** 		}
  59:../../source/src/kernel/OS_LIB/malloc.c **** 	}
  60:../../source/src/kernel/OS_LIB/malloc.c **** 	return -1;
 652              		.loc 3 60 0 is_stmt 1
 653 0200 4FF0FF33 		mov	r3, #-1
 654              	.L22:
  61:../../source/src/kernel/OS_LIB/malloc.c **** }
 655              		.loc 3 61 0
 656 0204 1846     		mov	r0, r3
 657 0206 1837     		adds	r7, r7, #24
 658              	.LCFI53:
 659              		.cfi_def_cfa_offset 8
 660 0208 BD46     		mov	sp, r7
ARM GAS  G:\Users\Jaxb\AppData\Local\Temp\ccZD0TjZ.s 			page 16


 661              	.LCFI54:
 662              		.cfi_def_cfa_register 13
 663              		@ sp needed
 664 020a 80BD     		pop	{r7, pc}
 665              	.L25:
 666              		.align	2
 667              	.L24:
 668 020c 84000000 		.word	page_alloc_record_head
 669              		.cfi_endproc
 670              	.LFE17:
 671              		.size	find_and_remove_record, .-find_and_remove_record
 672              		.align	1
 673              		.global	init_malloc
 674              		.syntax unified
 675              		.thumb
 676              		.thumb_func
 677              		.fpu softvfp
 678              		.type	init_malloc, %function
 679              	init_malloc:
 680              	.LFB18:
  62:../../source/src/kernel/OS_LIB/malloc.c **** 
  63:../../source/src/kernel/OS_LIB/malloc.c **** void init_malloc(void)
  64:../../source/src/kernel/OS_LIB/malloc.c **** {
 681              		.loc 3 64 0
 682              		.cfi_startproc
 683              		@ args = 0, pretend = 0, frame = 0
 684              		@ frame_needed = 1, uses_anonymous_args = 0
 685 0210 80B5     		push	{r7, lr}
 686              	.LCFI55:
 687              		.cfi_def_cfa_offset 8
 688              		.cfi_offset 7, -8
 689              		.cfi_offset 14, -4
 690 0212 00AF     		add	r7, sp, #0
 691              	.LCFI56:
 692              		.cfi_def_cfa_register 7
  65:../../source/src/kernel/OS_LIB/malloc.c **** 	INIT_SINGLY_LIST_HEAD(&cache_chain_head);
 693              		.loc 3 65 0
 694 0214 0D48     		ldr	r0, .L27
 695 0216 FFF7F3FE 		bl	INIT_SINGLY_LIST_HEAD
  66:../../source/src/kernel/OS_LIB/malloc.c **** 	insert_into_cache_chain(&cache_chain_head,&kmem_cache_TCB,sizeof(TCB));
 696              		.loc 3 66 0
 697 021a 4822     		movs	r2, #72
 698 021c 0C49     		ldr	r1, .L27+4
 699 021e 0B48     		ldr	r0, .L27
 700 0220 FFF7FEFF 		bl	insert_into_cache_chain
  67:../../source/src/kernel/OS_LIB/malloc.c **** 	insert_into_cache_chain(&cache_chain_head,&kmem_cache_kmem_cache,sizeof(struct kmem_cache));
 701              		.loc 3 67 0
 702 0224 2022     		movs	r2, #32
 703 0226 0B49     		ldr	r1, .L27+8
 704 0228 0848     		ldr	r0, .L27
 705 022a FFF7FEFF 		bl	insert_into_cache_chain
  68:../../source/src/kernel/OS_LIB/malloc.c **** 	insert_into_cache_chain(&cache_chain_head,&kmem_cache32,32);
 706              		.loc 3 68 0
 707 022e 2022     		movs	r2, #32
 708 0230 0949     		ldr	r1, .L27+12
 709 0232 0648     		ldr	r0, .L27
 710 0234 FFF7FEFF 		bl	insert_into_cache_chain
ARM GAS  G:\Users\Jaxb\AppData\Local\Temp\ccZD0TjZ.s 			page 17


  69:../../source/src/kernel/OS_LIB/malloc.c **** 	insert_into_cache_chain(&cache_chain_head,&kmem_cache16,16);
 711              		.loc 3 69 0
 712 0238 1022     		movs	r2, #16
 713 023a 0849     		ldr	r1, .L27+16
 714 023c 0348     		ldr	r0, .L27
 715 023e FFF7FEFF 		bl	insert_into_cache_chain
  70:../../source/src/kernel/OS_LIB/malloc.c **** 	INIT_SINGLY_LIST_HEAD(&page_alloc_record_head);
 716              		.loc 3 70 0
 717 0242 0748     		ldr	r0, .L27+20
 718 0244 FFF7DCFE 		bl	INIT_SINGLY_LIST_HEAD
  71:../../source/src/kernel/OS_LIB/malloc.c **** }
 719              		.loc 3 71 0
 720 0248 00BF     		nop
 721 024a 80BD     		pop	{r7, pc}
 722              	.L28:
 723              		.align	2
 724              	.L27:
 725 024c 00000000 		.word	cache_chain_head
 726 0250 64000000 		.word	kmem_cache_TCB
 727 0254 44000000 		.word	kmem_cache_kmem_cache
 728 0258 24000000 		.word	kmem_cache32
 729 025c 04000000 		.word	kmem_cache16
 730 0260 84000000 		.word	page_alloc_record_head
 731              		.cfi_endproc
 732              	.LFE18:
 733              		.size	init_malloc, .-init_malloc
 734              		.align	1
 735              		.global	get_set_bit_place
 736              		.syntax unified
 737              		.thumb
 738              		.thumb_func
 739              		.fpu softvfp
 740              		.type	get_set_bit_place, %function
 741              	get_set_bit_place:
 742              	.LFB19:
  72:../../source/src/kernel/OS_LIB/malloc.c **** /**
  73:../../source/src/kernel/OS_LIB/malloc.c ****  * This is a system function
  74:../../source/src/kernel/OS_LIB/malloc.c ****  * @Author      kaka
  75:../../source/src/kernel/OS_LIB/malloc.c ****  * @param       the num witch will be get the higest "1"
  76:../../source/src/kernel/OS_LIB/malloc.c ****  * @DateTime    2018-09-26
  77:../../source/src/kernel/OS_LIB/malloc.c ****  * @description :
  78:../../source/src/kernel/OS_LIB/malloc.c ****  * @param       num        [description]
  79:../../source/src/kernel/OS_LIB/malloc.c ****  * @return      the higest "1" position
  80:../../source/src/kernel/OS_LIB/malloc.c ****  */
  81:../../source/src/kernel/OS_LIB/malloc.c **** int get_set_bit_place(unsigned int num)
  82:../../source/src/kernel/OS_LIB/malloc.c **** {
 743              		.loc 3 82 0
 744              		.cfi_startproc
 745              		@ args = 0, pretend = 0, frame = 16
 746              		@ frame_needed = 1, uses_anonymous_args = 0
 747              		@ link register save eliminated.
 748 0264 80B4     		push	{r7}
 749              	.LCFI57:
 750              		.cfi_def_cfa_offset 4
 751              		.cfi_offset 7, -4
 752 0266 85B0     		sub	sp, sp, #20
 753              	.LCFI58:
ARM GAS  G:\Users\Jaxb\AppData\Local\Temp\ccZD0TjZ.s 			page 18


 754              		.cfi_def_cfa_offset 24
 755 0268 00AF     		add	r7, sp, #0
 756              	.LCFI59:
 757              		.cfi_def_cfa_register 7
 758 026a 7860     		str	r0, [r7, #4]
  83:../../source/src/kernel/OS_LIB/malloc.c **** 	int n=1;
 759              		.loc 3 83 0
 760 026c 0123     		movs	r3, #1
 761 026e FB60     		str	r3, [r7, #12]
  84:../../source/src/kernel/OS_LIB/malloc.c ****     if(num==0) return -1;
 762              		.loc 3 84 0
 763 0270 7B68     		ldr	r3, [r7, #4]
 764 0272 002B     		cmp	r3, #0
 765 0274 02D1     		bne	.L30
 766              		.loc 3 84 0 is_stmt 0 discriminator 1
 767 0276 4FF0FF33 		mov	r3, #-1
 768 027a 30E0     		b	.L31
 769              	.L30:
  85:../../source/src/kernel/OS_LIB/malloc.c ****     if ((num>>16) == 0) {n = n+16; num = num<<16;}
 770              		.loc 3 85 0 is_stmt 1
 771 027c 7B68     		ldr	r3, [r7, #4]
 772 027e 1B0C     		lsrs	r3, r3, #16
 773 0280 002B     		cmp	r3, #0
 774 0282 05D1     		bne	.L32
 775              		.loc 3 85 0 is_stmt 0 discriminator 1
 776 0284 FB68     		ldr	r3, [r7, #12]
 777 0286 1033     		adds	r3, r3, #16
 778 0288 FB60     		str	r3, [r7, #12]
 779 028a 7B68     		ldr	r3, [r7, #4]
 780 028c 1B04     		lsls	r3, r3, #16
 781 028e 7B60     		str	r3, [r7, #4]
 782              	.L32:
  86:../../source/src/kernel/OS_LIB/malloc.c ****     if ((num>>24) == 0) {n = n+8; num = num<<8;}
 783              		.loc 3 86 0 is_stmt 1
 784 0290 7B68     		ldr	r3, [r7, #4]
 785 0292 1B0E     		lsrs	r3, r3, #24
 786 0294 002B     		cmp	r3, #0
 787 0296 05D1     		bne	.L33
 788              		.loc 3 86 0 is_stmt 0 discriminator 1
 789 0298 FB68     		ldr	r3, [r7, #12]
 790 029a 0833     		adds	r3, r3, #8
 791 029c FB60     		str	r3, [r7, #12]
 792 029e 7B68     		ldr	r3, [r7, #4]
 793 02a0 1B02     		lsls	r3, r3, #8
 794 02a2 7B60     		str	r3, [r7, #4]
 795              	.L33:
  87:../../source/src/kernel/OS_LIB/malloc.c ****     if ((num>>28) == 0) {n = n+4; num = num<<4;}
 796              		.loc 3 87 0 is_stmt 1
 797 02a4 7B68     		ldr	r3, [r7, #4]
 798 02a6 1B0F     		lsrs	r3, r3, #28
 799 02a8 002B     		cmp	r3, #0
 800 02aa 05D1     		bne	.L34
 801              		.loc 3 87 0 is_stmt 0 discriminator 1
 802 02ac FB68     		ldr	r3, [r7, #12]
 803 02ae 0433     		adds	r3, r3, #4
 804 02b0 FB60     		str	r3, [r7, #12]
 805 02b2 7B68     		ldr	r3, [r7, #4]
ARM GAS  G:\Users\Jaxb\AppData\Local\Temp\ccZD0TjZ.s 			page 19


 806 02b4 1B01     		lsls	r3, r3, #4
 807 02b6 7B60     		str	r3, [r7, #4]
 808              	.L34:
  88:../../source/src/kernel/OS_LIB/malloc.c ****     if ((num>>30) == 0) {n = n+2; num = num<<2;}
 809              		.loc 3 88 0 is_stmt 1
 810 02b8 7B68     		ldr	r3, [r7, #4]
 811 02ba 9B0F     		lsrs	r3, r3, #30
 812 02bc 002B     		cmp	r3, #0
 813 02be 05D1     		bne	.L35
 814              		.loc 3 88 0 is_stmt 0 discriminator 1
 815 02c0 FB68     		ldr	r3, [r7, #12]
 816 02c2 0233     		adds	r3, r3, #2
 817 02c4 FB60     		str	r3, [r7, #12]
 818 02c6 7B68     		ldr	r3, [r7, #4]
 819 02c8 9B00     		lsls	r3, r3, #2
 820 02ca 7B60     		str	r3, [r7, #4]
 821              	.L35:
  89:../../source/src/kernel/OS_LIB/malloc.c ****     n = n-(num>>31);
 822              		.loc 3 89 0 is_stmt 1
 823 02cc 7B68     		ldr	r3, [r7, #4]
 824 02ce DB17     		asrs	r3, r3, #31
 825 02d0 1A46     		mov	r2, r3
 826 02d2 FB68     		ldr	r3, [r7, #12]
 827 02d4 1344     		add	r3, r3, r2
 828 02d6 FB60     		str	r3, [r7, #12]
  90:../../source/src/kernel/OS_LIB/malloc.c ****     return 31-n;
 829              		.loc 3 90 0
 830 02d8 FB68     		ldr	r3, [r7, #12]
 831 02da C3F11F03 		rsb	r3, r3, #31
 832              	.L31:
  91:../../source/src/kernel/OS_LIB/malloc.c **** }
 833              		.loc 3 91 0
 834 02de 1846     		mov	r0, r3
 835 02e0 1437     		adds	r7, r7, #20
 836              	.LCFI60:
 837              		.cfi_def_cfa_offset 4
 838 02e2 BD46     		mov	sp, r7
 839              	.LCFI61:
 840              		.cfi_def_cfa_register 13
 841              		@ sp needed
 842 02e4 80BC     		pop	{r7}
 843              	.LCFI62:
 844              		.cfi_restore 7
 845              		.cfi_def_cfa_offset 0
 846 02e6 7047     		bx	lr
 847              		.cfi_endproc
 848              	.LFE19:
 849              		.size	get_set_bit_place, .-get_set_bit_place
 850              		.section	.rodata
 851 002b 00       		.align	2
 852              	.LC3:
 853 002c 2E2E2F2E 		.ascii	"../../source/src/kernel/OS_LIB/malloc.c\000"
 853      2E2F736F 
 853      75726365 
 853      2F737263 
 853      2F6B6572 
 854              		.align	2
ARM GAS  G:\Users\Jaxb\AppData\Local\Temp\ccZD0TjZ.s 			page 20


 855              	.LC4:
 856 0054 746F6F20 		.ascii	"too big! FATAL ERROR!\012\000"
 856      62696721 
 856      20464154 
 856      414C2045 
 856      52524F52 
 857 006b 00       		.align	2
 858              	.LC5:
 859 006c 6E6F2073 		.ascii	"no space!!!\012\000"
 859      70616365 
 859      2121210A 
 859      00
 860              		.text
 861              		.align	1
 862              		.syntax unified
 863              		.thumb
 864              		.thumb_func
 865              		.fpu softvfp
 866              		.type	_case_alloc_buddy, %function
 867              	_case_alloc_buddy:
 868              	.LFB20:
  92:../../source/src/kernel/OS_LIB/malloc.c **** 
  93:../../source/src/kernel/OS_LIB/malloc.c **** static void *_case_alloc_buddy(unsigned int level)
  94:../../source/src/kernel/OS_LIB/malloc.c **** {
 869              		.loc 3 94 0
 870              		.cfi_startproc
 871              		@ args = 0, pretend = 0, frame = 16
 872              		@ frame_needed = 1, uses_anonymous_args = 0
 873 02e8 80B5     		push	{r7, lr}
 874              	.LCFI63:
 875              		.cfi_def_cfa_offset 8
 876              		.cfi_offset 7, -8
 877              		.cfi_offset 14, -4
 878 02ea 84B0     		sub	sp, sp, #16
 879              	.LCFI64:
 880              		.cfi_def_cfa_offset 24
 881 02ec 00AF     		add	r7, sp, #0
 882              	.LCFI65:
 883              		.cfi_def_cfa_register 7
 884 02ee 7860     		str	r0, [r7, #4]
  95:../../source/src/kernel/OS_LIB/malloc.c **** 	struct slab *slab_ptr;
  96:../../source/src/kernel/OS_LIB/malloc.c **** 	struct buddy *buddy_ptr = (struct buddy *)_get_os_buddy_ptr_head();
 885              		.loc 3 96 0
 886 02f0 FFF7FEFF 		bl	_get_os_buddy_ptr_head
 887 02f4 B860     		str	r0, [r7, #8]
  97:../../source/src/kernel/OS_LIB/malloc.c **** 	ASSERT(NULL != buddy_ptr);
 888              		.loc 3 97 0
 889 02f6 BB68     		ldr	r3, [r7, #8]
 890 02f8 002B     		cmp	r3, #0
 891 02fa 40F0AC80 		bne	.L38
 892              		.loc 3 97 0 is_stmt 0 discriminator 1
 893 02fe 6121     		movs	r1, #97
 894 0300 5B48     		ldr	r0, .L59
 895 0302 FFF7FEFF 		bl	_ASSERT
  98:../../source/src/kernel/OS_LIB/malloc.c **** 	while(NULL != buddy_ptr)
 896              		.loc 3 98 0 is_stmt 1 discriminator 1
 897 0306 A6E0     		b	.L38
ARM GAS  G:\Users\Jaxb\AppData\Local\Temp\ccZD0TjZ.s 			page 21


 898              	.L58:
  99:../../source/src/kernel/OS_LIB/malloc.c **** 	{
 100:../../source/src/kernel/OS_LIB/malloc.c **** 		if(buddy_ptr->info.max_level < level)
 899              		.loc 3 100 0
 900 0308 BB68     		ldr	r3, [r7, #8]
 901 030a 9B6A     		ldr	r3, [r3, #40]
 902 030c 7A68     		ldr	r2, [r7, #4]
 903 030e 9A42     		cmp	r2, r3
 904 0310 04D9     		bls	.L39
 101:../../source/src/kernel/OS_LIB/malloc.c **** 		{
 102:../../source/src/kernel/OS_LIB/malloc.c **** 			buddy_ptr = (struct buddy *)_get_next_buddy_ptr_head(buddy_ptr);
 905              		.loc 3 102 0
 906 0312 B868     		ldr	r0, [r7, #8]
 907 0314 FFF7FEFF 		bl	_get_next_buddy_ptr_head
 908 0318 B860     		str	r0, [r7, #8]
 103:../../source/src/kernel/OS_LIB/malloc.c **** 			continue;
 909              		.loc 3 103 0
 910 031a 9CE0     		b	.L38
 911              	.L39:
 104:../../source/src/kernel/OS_LIB/malloc.c **** 		}
 105:../../source/src/kernel/OS_LIB/malloc.c **** 		switch(level)
 912              		.loc 3 105 0
 913 031c 7B68     		ldr	r3, [r7, #4]
 914 031e 013B     		subs	r3, r3, #1
 915 0320 062B     		cmp	r3, #6
 916 0322 00F28F80 		bhi	.L40
 917 0326 01A2     		adr	r2, .L42
 918 0328 52F823F0 		ldr	pc, [r2, r3, lsl #2]
 919              		.p2align 2
 920              	.L42:
 921 032c 49030000 		.word	.L41+1
 922 0330 6D030000 		.word	.L43+1
 923 0334 91030000 		.word	.L44+1
 924 0338 B5030000 		.word	.L45+1
 925 033c D9030000 		.word	.L46+1
 926 0340 FD030000 		.word	.L47+1
 927 0344 21040000 		.word	.L48+1
 928              		.p2align 1
 929              	.L41:
 106:../../source/src/kernel/OS_LIB/malloc.c **** 		{
 107:../../source/src/kernel/OS_LIB/malloc.c **** 			case 1 :
 108:../../source/src/kernel/OS_LIB/malloc.c **** 				slab_ptr = (struct slab *)_alloc_power1_page();
 930              		.loc 3 108 0
 931 0348 FFF7FEFF 		bl	_alloc_power1_page
 932 034c F860     		str	r0, [r7, #12]
 109:../../source/src/kernel/OS_LIB/malloc.c **** 				if(NULL == slab_ptr)
 933              		.loc 3 109 0
 934 034e FB68     		ldr	r3, [r7, #12]
 935 0350 002B     		cmp	r3, #0
 936 0352 04D1     		bne	.L49
 110:../../source/src/kernel/OS_LIB/malloc.c **** 				{
 111:../../source/src/kernel/OS_LIB/malloc.c **** 					buddy_ptr = (struct buddy *)_get_next_buddy_ptr_head(buddy_ptr);
 937              		.loc 3 111 0
 938 0354 B868     		ldr	r0, [r7, #8]
 939 0356 FFF7FEFF 		bl	_get_next_buddy_ptr_head
 940 035a B860     		str	r0, [r7, #8]
 112:../../source/src/kernel/OS_LIB/malloc.c **** 					continue ;
ARM GAS  G:\Users\Jaxb\AppData\Local\Temp\ccZD0TjZ.s 			page 22


 941              		.loc 3 112 0
 942 035c 7BE0     		b	.L38
 943              	.L49:
 113:../../source/src/kernel/OS_LIB/malloc.c **** 				}
 114:../../source/src/kernel/OS_LIB/malloc.c **** 				slab_ptr->end_ptr = (void *)((unsigned int)slab_ptr + 1 * PAGE_SIZE_BYTE);
 944              		.loc 3 114 0
 945 035e FB68     		ldr	r3, [r7, #12]
 946 0360 03F58063 		add	r3, r3, #1024
 947 0364 1A46     		mov	r2, r3
 948 0366 FB68     		ldr	r3, [r7, #12]
 949 0368 5A60     		str	r2, [r3, #4]
 115:../../source/src/kernel/OS_LIB/malloc.c **** 				break;
 950              		.loc 3 115 0
 951 036a 72E0     		b	.L50
 952              	.L43:
 116:../../source/src/kernel/OS_LIB/malloc.c **** 			case 2 :
 117:../../source/src/kernel/OS_LIB/malloc.c **** 				slab_ptr = (struct slab *)_alloc_power2_page();
 953              		.loc 3 117 0
 954 036c FFF7FEFF 		bl	_alloc_power2_page
 955 0370 F860     		str	r0, [r7, #12]
 118:../../source/src/kernel/OS_LIB/malloc.c **** 				if(NULL == slab_ptr)
 956              		.loc 3 118 0
 957 0372 FB68     		ldr	r3, [r7, #12]
 958 0374 002B     		cmp	r3, #0
 959 0376 04D1     		bne	.L51
 119:../../source/src/kernel/OS_LIB/malloc.c **** 				{
 120:../../source/src/kernel/OS_LIB/malloc.c **** 					buddy_ptr = (struct buddy *)_get_next_buddy_ptr_head(buddy_ptr);
 960              		.loc 3 120 0
 961 0378 B868     		ldr	r0, [r7, #8]
 962 037a FFF7FEFF 		bl	_get_next_buddy_ptr_head
 963 037e B860     		str	r0, [r7, #8]
 121:../../source/src/kernel/OS_LIB/malloc.c **** 					continue ;
 964              		.loc 3 121 0
 965 0380 69E0     		b	.L38
 966              	.L51:
 122:../../source/src/kernel/OS_LIB/malloc.c **** 				}
 123:../../source/src/kernel/OS_LIB/malloc.c **** 				slab_ptr->end_ptr = (void *)((unsigned int)slab_ptr + 2 * PAGE_SIZE_BYTE);
 967              		.loc 3 123 0
 968 0382 FB68     		ldr	r3, [r7, #12]
 969 0384 03F50063 		add	r3, r3, #2048
 970 0388 1A46     		mov	r2, r3
 971 038a FB68     		ldr	r3, [r7, #12]
 972 038c 5A60     		str	r2, [r3, #4]
 124:../../source/src/kernel/OS_LIB/malloc.c **** 				break;
 973              		.loc 3 124 0
 974 038e 60E0     		b	.L50
 975              	.L44:
 125:../../source/src/kernel/OS_LIB/malloc.c **** 			case 3 :
 126:../../source/src/kernel/OS_LIB/malloc.c **** 				slab_ptr = (struct slab *)_alloc_power3_page();
 976              		.loc 3 126 0
 977 0390 FFF7FEFF 		bl	_alloc_power3_page
 978 0394 F860     		str	r0, [r7, #12]
 127:../../source/src/kernel/OS_LIB/malloc.c **** 				if(NULL == slab_ptr)
 979              		.loc 3 127 0
 980 0396 FB68     		ldr	r3, [r7, #12]
 981 0398 002B     		cmp	r3, #0
 982 039a 04D1     		bne	.L52
ARM GAS  G:\Users\Jaxb\AppData\Local\Temp\ccZD0TjZ.s 			page 23


 128:../../source/src/kernel/OS_LIB/malloc.c **** 				{
 129:../../source/src/kernel/OS_LIB/malloc.c **** 					buddy_ptr = (struct buddy *)_get_next_buddy_ptr_head(buddy_ptr);
 983              		.loc 3 129 0
 984 039c B868     		ldr	r0, [r7, #8]
 985 039e FFF7FEFF 		bl	_get_next_buddy_ptr_head
 986 03a2 B860     		str	r0, [r7, #8]
 130:../../source/src/kernel/OS_LIB/malloc.c **** 					continue ;
 987              		.loc 3 130 0
 988 03a4 57E0     		b	.L38
 989              	.L52:
 131:../../source/src/kernel/OS_LIB/malloc.c **** 				}
 132:../../source/src/kernel/OS_LIB/malloc.c **** 				slab_ptr->end_ptr = (void *)((unsigned int)slab_ptr + 4 * PAGE_SIZE_BYTE);
 990              		.loc 3 132 0
 991 03a6 FB68     		ldr	r3, [r7, #12]
 992 03a8 03F58053 		add	r3, r3, #4096
 993 03ac 1A46     		mov	r2, r3
 994 03ae FB68     		ldr	r3, [r7, #12]
 995 03b0 5A60     		str	r2, [r3, #4]
 133:../../source/src/kernel/OS_LIB/malloc.c **** 				break;
 996              		.loc 3 133 0
 997 03b2 4EE0     		b	.L50
 998              	.L45:
 134:../../source/src/kernel/OS_LIB/malloc.c **** 			case 4 :
 135:../../source/src/kernel/OS_LIB/malloc.c **** 				slab_ptr = (struct slab *)_alloc_power4_page();
 999              		.loc 3 135 0
 1000 03b4 FFF7FEFF 		bl	_alloc_power4_page
 1001 03b8 F860     		str	r0, [r7, #12]
 136:../../source/src/kernel/OS_LIB/malloc.c **** 				if(NULL == slab_ptr)
 1002              		.loc 3 136 0
 1003 03ba FB68     		ldr	r3, [r7, #12]
 1004 03bc 002B     		cmp	r3, #0
 1005 03be 04D1     		bne	.L53
 137:../../source/src/kernel/OS_LIB/malloc.c **** 				{
 138:../../source/src/kernel/OS_LIB/malloc.c **** 					buddy_ptr = (struct buddy *)_get_next_buddy_ptr_head(buddy_ptr);
 1006              		.loc 3 138 0
 1007 03c0 B868     		ldr	r0, [r7, #8]
 1008 03c2 FFF7FEFF 		bl	_get_next_buddy_ptr_head
 1009 03c6 B860     		str	r0, [r7, #8]
 139:../../source/src/kernel/OS_LIB/malloc.c **** 					continue ;
 1010              		.loc 3 139 0
 1011 03c8 45E0     		b	.L38
 1012              	.L53:
 140:../../source/src/kernel/OS_LIB/malloc.c **** 				}
 141:../../source/src/kernel/OS_LIB/malloc.c **** 				slab_ptr->end_ptr = (void *)((unsigned int)slab_ptr + 8 * PAGE_SIZE_BYTE);
 1013              		.loc 3 141 0
 1014 03ca FB68     		ldr	r3, [r7, #12]
 1015 03cc 03F50053 		add	r3, r3, #8192
 1016 03d0 1A46     		mov	r2, r3
 1017 03d2 FB68     		ldr	r3, [r7, #12]
 1018 03d4 5A60     		str	r2, [r3, #4]
 142:../../source/src/kernel/OS_LIB/malloc.c **** 				break;
 1019              		.loc 3 142 0
 1020 03d6 3CE0     		b	.L50
 1021              	.L46:
 143:../../source/src/kernel/OS_LIB/malloc.c **** 			case 5 :
 144:../../source/src/kernel/OS_LIB/malloc.c **** 				slab_ptr = (struct slab *)_alloc_power5_page();
 1022              		.loc 3 144 0
ARM GAS  G:\Users\Jaxb\AppData\Local\Temp\ccZD0TjZ.s 			page 24


 1023 03d8 FFF7FEFF 		bl	_alloc_power5_page
 1024 03dc F860     		str	r0, [r7, #12]
 145:../../source/src/kernel/OS_LIB/malloc.c **** 				if(NULL == slab_ptr)
 1025              		.loc 3 145 0
 1026 03de FB68     		ldr	r3, [r7, #12]
 1027 03e0 002B     		cmp	r3, #0
 1028 03e2 04D1     		bne	.L54
 146:../../source/src/kernel/OS_LIB/malloc.c **** 				{
 147:../../source/src/kernel/OS_LIB/malloc.c **** 					buddy_ptr = (struct buddy *)_get_next_buddy_ptr_head(buddy_ptr);
 1029              		.loc 3 147 0
 1030 03e4 B868     		ldr	r0, [r7, #8]
 1031 03e6 FFF7FEFF 		bl	_get_next_buddy_ptr_head
 1032 03ea B860     		str	r0, [r7, #8]
 148:../../source/src/kernel/OS_LIB/malloc.c **** 					continue ;
 1033              		.loc 3 148 0
 1034 03ec 33E0     		b	.L38
 1035              	.L54:
 149:../../source/src/kernel/OS_LIB/malloc.c **** 				}
 150:../../source/src/kernel/OS_LIB/malloc.c **** 				slab_ptr->end_ptr = (void *)((unsigned int)slab_ptr + 16 * PAGE_SIZE_BYTE);
 1036              		.loc 3 150 0
 1037 03ee FB68     		ldr	r3, [r7, #12]
 1038 03f0 03F58043 		add	r3, r3, #16384
 1039 03f4 1A46     		mov	r2, r3
 1040 03f6 FB68     		ldr	r3, [r7, #12]
 1041 03f8 5A60     		str	r2, [r3, #4]
 151:../../source/src/kernel/OS_LIB/malloc.c **** 				break;
 1042              		.loc 3 151 0
 1043 03fa 2AE0     		b	.L50
 1044              	.L47:
 152:../../source/src/kernel/OS_LIB/malloc.c **** 			case 6 :
 153:../../source/src/kernel/OS_LIB/malloc.c **** 				slab_ptr = (struct slab *)_alloc_power6_page();
 1045              		.loc 3 153 0
 1046 03fc FFF7FEFF 		bl	_alloc_power6_page
 1047 0400 F860     		str	r0, [r7, #12]
 154:../../source/src/kernel/OS_LIB/malloc.c **** 				if(NULL == slab_ptr)
 1048              		.loc 3 154 0
 1049 0402 FB68     		ldr	r3, [r7, #12]
 1050 0404 002B     		cmp	r3, #0
 1051 0406 04D1     		bne	.L55
 155:../../source/src/kernel/OS_LIB/malloc.c **** 				{
 156:../../source/src/kernel/OS_LIB/malloc.c **** 					buddy_ptr = (struct buddy *)_get_next_buddy_ptr_head(buddy_ptr);
 1052              		.loc 3 156 0
 1053 0408 B868     		ldr	r0, [r7, #8]
 1054 040a FFF7FEFF 		bl	_get_next_buddy_ptr_head
 1055 040e B860     		str	r0, [r7, #8]
 157:../../source/src/kernel/OS_LIB/malloc.c **** 					continue ;
 1056              		.loc 3 157 0
 1057 0410 21E0     		b	.L38
 1058              	.L55:
 158:../../source/src/kernel/OS_LIB/malloc.c **** 				}
 159:../../source/src/kernel/OS_LIB/malloc.c **** 				slab_ptr->end_ptr = (void *)((unsigned int)slab_ptr + 32 * PAGE_SIZE_BYTE);
 1059              		.loc 3 159 0
 1060 0412 FB68     		ldr	r3, [r7, #12]
 1061 0414 03F50043 		add	r3, r3, #32768
 1062 0418 1A46     		mov	r2, r3
 1063 041a FB68     		ldr	r3, [r7, #12]
 1064 041c 5A60     		str	r2, [r3, #4]
ARM GAS  G:\Users\Jaxb\AppData\Local\Temp\ccZD0TjZ.s 			page 25


 160:../../source/src/kernel/OS_LIB/malloc.c **** 				break;
 1065              		.loc 3 160 0
 1066 041e 18E0     		b	.L50
 1067              	.L48:
 161:../../source/src/kernel/OS_LIB/malloc.c **** 			case 7 :
 162:../../source/src/kernel/OS_LIB/malloc.c **** 				slab_ptr = (struct slab *)_alloc_power7_page();
 1068              		.loc 3 162 0
 1069 0420 FFF7FEFF 		bl	_alloc_power7_page
 1070 0424 F860     		str	r0, [r7, #12]
 163:../../source/src/kernel/OS_LIB/malloc.c **** 				if(NULL == slab_ptr)
 1071              		.loc 3 163 0
 1072 0426 FB68     		ldr	r3, [r7, #12]
 1073 0428 002B     		cmp	r3, #0
 1074 042a 04D1     		bne	.L56
 164:../../source/src/kernel/OS_LIB/malloc.c **** 				{
 165:../../source/src/kernel/OS_LIB/malloc.c **** 					buddy_ptr = (struct buddy *)_get_next_buddy_ptr_head(buddy_ptr);
 1075              		.loc 3 165 0
 1076 042c B868     		ldr	r0, [r7, #8]
 1077 042e FFF7FEFF 		bl	_get_next_buddy_ptr_head
 1078 0432 B860     		str	r0, [r7, #8]
 166:../../source/src/kernel/OS_LIB/malloc.c **** 					continue ;
 1079              		.loc 3 166 0
 1080 0434 0FE0     		b	.L38
 1081              	.L56:
 167:../../source/src/kernel/OS_LIB/malloc.c **** 				}
 168:../../source/src/kernel/OS_LIB/malloc.c **** 				slab_ptr->end_ptr = (void *)((unsigned int)slab_ptr + 64 * PAGE_SIZE_BYTE);
 1082              		.loc 3 168 0
 1083 0436 FB68     		ldr	r3, [r7, #12]
 1084 0438 03F58033 		add	r3, r3, #65536
 1085 043c 1A46     		mov	r2, r3
 1086 043e FB68     		ldr	r3, [r7, #12]
 1087 0440 5A60     		str	r2, [r3, #4]
 169:../../source/src/kernel/OS_LIB/malloc.c **** 				break;
 1088              		.loc 3 169 0
 1089 0442 06E0     		b	.L50
 1090              	.L40:
 170:../../source/src/kernel/OS_LIB/malloc.c **** 			default :
 171:../../source/src/kernel/OS_LIB/malloc.c **** 				ka_printf("too big! FATAL ERROR!\n");
 1091              		.loc 3 171 0
 1092 0444 0B48     		ldr	r0, .L59+4
 1093 0446 FFF7FEFF 		bl	ka_printf
 172:../../source/src/kernel/OS_LIB/malloc.c **** 				ASSERT(0);
 1094              		.loc 3 172 0
 1095 044a AC21     		movs	r1, #172
 1096 044c 0848     		ldr	r0, .L59
 1097 044e FFF7FEFF 		bl	_ASSERT
 1098              	.L50:
 173:../../source/src/kernel/OS_LIB/malloc.c **** 		}
 174:../../source/src/kernel/OS_LIB/malloc.c **** 		return slab_ptr;
 1099              		.loc 3 174 0
 1100 0452 FB68     		ldr	r3, [r7, #12]
 1101 0454 07E0     		b	.L57
 1102              	.L38:
  98:../../source/src/kernel/OS_LIB/malloc.c **** 	{
 1103              		.loc 3 98 0
 1104 0456 BB68     		ldr	r3, [r7, #8]
 1105 0458 002B     		cmp	r3, #0
ARM GAS  G:\Users\Jaxb\AppData\Local\Temp\ccZD0TjZ.s 			page 26


 1106 045a 7FF455AF 		bne	.L58
 175:../../source/src/kernel/OS_LIB/malloc.c **** 	}
 176:../../source/src/kernel/OS_LIB/malloc.c **** 	ka_printf("no space!!!\n");
 1107              		.loc 3 176 0
 1108 045e 0648     		ldr	r0, .L59+8
 1109 0460 FFF7FEFF 		bl	ka_printf
 177:../../source/src/kernel/OS_LIB/malloc.c **** 	return NULL;
 1110              		.loc 3 177 0
 1111 0464 0023     		movs	r3, #0
 1112              	.L57:
 178:../../source/src/kernel/OS_LIB/malloc.c **** }
 1113              		.loc 3 178 0
 1114 0466 1846     		mov	r0, r3
 1115 0468 1037     		adds	r7, r7, #16
 1116              	.LCFI66:
 1117              		.cfi_def_cfa_offset 8
 1118 046a BD46     		mov	sp, r7
 1119              	.LCFI67:
 1120              		.cfi_def_cfa_register 13
 1121              		@ sp needed
 1122 046c 80BD     		pop	{r7, pc}
 1123              	.L60:
 1124 046e 00BF     		.align	2
 1125              	.L59:
 1126 0470 2C000000 		.word	.LC3
 1127 0474 54000000 		.word	.LC4
 1128 0478 6C000000 		.word	.LC5
 1129              		.cfi_endproc
 1130              	.LFE20:
 1131              		.size	_case_alloc_buddy, .-_case_alloc_buddy
 1132              		.section	.rodata
 1133 0079 000000   		.align	2
 1134              	.LC6:
 1135 007c 66617461 		.ascii	"fatal error from add_page_alloc_record()\012\000"
 1135      6C206572 
 1135      726F7220 
 1135      66726F6D 
 1135      20616464 
 1136              		.text
 1137              		.align	1
 1138              		.global	ka_malloc
 1139              		.syntax unified
 1140              		.thumb
 1141              		.thumb_func
 1142              		.fpu softvfp
 1143              		.type	ka_malloc, %function
 1144              	ka_malloc:
 1145              	.LFB21:
 179:../../source/src/kernel/OS_LIB/malloc.c **** 
 180:../../source/src/kernel/OS_LIB/malloc.c **** void *ka_malloc(unsigned int size)
 181:../../source/src/kernel/OS_LIB/malloc.c **** {
 1146              		.loc 3 181 0
 1147              		.cfi_startproc
 1148              		@ args = 0, pretend = 0, frame = 56
 1149              		@ frame_needed = 1, uses_anonymous_args = 0
 1150 047c 80B5     		push	{r7, lr}
 1151              	.LCFI68:
ARM GAS  G:\Users\Jaxb\AppData\Local\Temp\ccZD0TjZ.s 			page 27


 1152              		.cfi_def_cfa_offset 8
 1153              		.cfi_offset 7, -8
 1154              		.cfi_offset 14, -4
 1155 047e 8EB0     		sub	sp, sp, #56
 1156              	.LCFI69:
 1157              		.cfi_def_cfa_offset 64
 1158 0480 00AF     		add	r7, sp, #0
 1159              	.LCFI70:
 1160              		.cfi_def_cfa_register 7
 1161 0482 7860     		str	r0, [r7, #4]
 182:../../source/src/kernel/OS_LIB/malloc.c **** 	void *ptr;
 183:../../source/src/kernel/OS_LIB/malloc.c **** 	struct kmem_cache *kmem_cache_ptr;
 184:../../source/src/kernel/OS_LIB/malloc.c **** 	CPU_SR_ALLOC();
 1162              		.loc 3 184 0
 1163 0484 0023     		movs	r3, #0
 1164 0486 3B63     		str	r3, [r7, #48]
 185:../../source/src/kernel/OS_LIB/malloc.c **** 	if(0 == size)
 1165              		.loc 3 185 0
 1166 0488 7B68     		ldr	r3, [r7, #4]
 1167 048a 002B     		cmp	r3, #0
 1168 048c 01D1     		bne	.L62
 186:../../source/src/kernel/OS_LIB/malloc.c **** 	{
 187:../../source/src/kernel/OS_LIB/malloc.c **** 		return NULL;
 1169              		.loc 3 187 0
 1170 048e 0023     		movs	r3, #0
 1171 0490 07E1     		b	.L63
 1172              	.L62:
 188:../../source/src/kernel/OS_LIB/malloc.c **** 	}
 189:../../source/src/kernel/OS_LIB/malloc.c **** 	CPU_CRITICAL_ENTER();
 1173              		.loc 3 189 0
 1174 0492 FFF7FEFF 		bl	CPU_SR_Save
 1175 0496 3863     		str	r0, [r7, #48]
 190:../../source/src/kernel/OS_LIB/malloc.c **** 	if(size <= 512)
 1176              		.loc 3 190 0
 1177 0498 7B68     		ldr	r3, [r7, #4]
 1178 049a B3F5007F 		cmp	r3, #512
 1179 049e 00F2C980 		bhi	.L64
 191:../../source/src/kernel/OS_LIB/malloc.c **** 	{
 192:../../source/src/kernel/OS_LIB/malloc.c **** 		kmem_cache_ptr = find_first_bigger_cache(&cache_chain_head,size); /*find a suitable cache*/
 1180              		.loc 3 192 0
 1181 04a2 7968     		ldr	r1, [r7, #4]
 1182 04a4 8148     		ldr	r0, .L77
 1183 04a6 FFF7FEFF 		bl	find_first_bigger_cache
 1184 04aa 7863     		str	r0, [r7, #52]
 1185              	.L74:
 193:../../source/src/kernel/OS_LIB/malloc.c **** 		while(1)
 194:../../source/src/kernel/OS_LIB/malloc.c **** 		{
 195:../../source/src/kernel/OS_LIB/malloc.c **** 			if(NULL != kmem_cache_ptr)/* this means that there is a slab.size bigger than size*/
 1186              		.loc 3 195 0
 1187 04ac 7B6B     		ldr	r3, [r7, #52]
 1188 04ae 002B     		cmp	r3, #0
 1189 04b0 00F0A180 		beq	.L65
 196:../../source/src/kernel/OS_LIB/malloc.c **** 			{
 197:../../source/src/kernel/OS_LIB/malloc.c **** 				/*first try to get room from slabs_partial*/
 198:../../source/src/kernel/OS_LIB/malloc.c **** 				if(!list_empty(&kmem_cache_ptr->slabs_partial)) /* if chain "slabs_partial" is not empty*/
 1190              		.loc 3 198 0
 1191 04b4 7B6B     		ldr	r3, [r7, #52]
ARM GAS  G:\Users\Jaxb\AppData\Local\Temp\ccZD0TjZ.s 			page 28


 1192 04b6 1033     		adds	r3, r3, #16
 1193 04b8 1846     		mov	r0, r3
 1194 04ba FFF705FE 		bl	list_empty
 1195 04be 0346     		mov	r3, r0
 1196 04c0 002B     		cmp	r3, #0
 1197 04c2 29D1     		bne	.L66
 1198              	.LBB5:
 1199              	.LBB6:
 199:../../source/src/kernel/OS_LIB/malloc.c **** 				{
 200:../../source/src/kernel/OS_LIB/malloc.c **** 					struct slab *slab_ptr = list_entry(kmem_cache_ptr->slabs_partial.next,struct slab,slab_chain);
 1200              		.loc 3 200 0
 1201 04c4 7B6B     		ldr	r3, [r7, #52]
 1202 04c6 1B69     		ldr	r3, [r3, #16]
 1203 04c8 FB60     		str	r3, [r7, #12]
 1204 04ca FB68     		ldr	r3, [r7, #12]
 1205 04cc 143B     		subs	r3, r3, #20
 1206              	.LBE6:
 1207 04ce BB60     		str	r3, [r7, #8]
 201:../../source/src/kernel/OS_LIB/malloc.c **** 					ptr = slab_ptr->block_head.next; /* ptr is the point of the allocated space*/
 1208              		.loc 3 201 0
 1209 04d0 BB68     		ldr	r3, [r7, #8]
 1210 04d2 DB69     		ldr	r3, [r3, #28]
 1211 04d4 BB62     		str	r3, [r7, #40]
 202:../../source/src/kernel/OS_LIB/malloc.c **** 					list_del(slab_ptr->block_head.next); /* delete it from slab chain "block_head"*/
 1212              		.loc 3 202 0
 1213 04d6 BB68     		ldr	r3, [r7, #8]
 1214 04d8 DB69     		ldr	r3, [r3, #28]
 1215 04da 1846     		mov	r0, r3
 1216 04dc FFF7E4FD 		bl	list_del
 203:../../source/src/kernel/OS_LIB/malloc.c **** 					if(0 == --(slab_ptr->current_block_num)) /* if this slab has no more space*/
 1217              		.loc 3 203 0
 1218 04e0 BB68     		ldr	r3, [r7, #8]
 1219 04e2 9B68     		ldr	r3, [r3, #8]
 1220 04e4 5A1E     		subs	r2, r3, #1
 1221 04e6 BB68     		ldr	r3, [r7, #8]
 1222 04e8 9A60     		str	r2, [r3, #8]
 1223 04ea BB68     		ldr	r3, [r7, #8]
 1224 04ec 9B68     		ldr	r3, [r3, #8]
 1225 04ee 002B     		cmp	r3, #0
 1226 04f0 0DD1     		bne	.L67
 204:../../source/src/kernel/OS_LIB/malloc.c **** 					{
 205:../../source/src/kernel/OS_LIB/malloc.c **** 						list_del(&slab_ptr->slab_chain);
 1227              		.loc 3 205 0
 1228 04f2 BB68     		ldr	r3, [r7, #8]
 1229 04f4 1433     		adds	r3, r3, #20
 1230 04f6 1846     		mov	r0, r3
 1231 04f8 FFF7D6FD 		bl	list_del
 206:../../source/src/kernel/OS_LIB/malloc.c **** 						list_add(&slab_ptr->slab_chain,&kmem_cache_ptr->slabs_full); /* put it into the chain "slabs_
 1232              		.loc 3 206 0
 1233 04fc BB68     		ldr	r3, [r7, #8]
 1234 04fe 03F11402 		add	r2, r3, #20
 1235 0502 7B6B     		ldr	r3, [r7, #52]
 1236 0504 0833     		adds	r3, r3, #8
 1237 0506 1946     		mov	r1, r3
 1238 0508 1046     		mov	r0, r2
 1239 050a FFF7ADFD 		bl	list_add
 1240              	.L67:
ARM GAS  G:\Users\Jaxb\AppData\Local\Temp\ccZD0TjZ.s 			page 29


 207:../../source/src/kernel/OS_LIB/malloc.c **** 					}
 208:../../source/src/kernel/OS_LIB/malloc.c **** 					CPU_CRITICAL_EXIT();
 1241              		.loc 3 208 0
 1242 050e 386B     		ldr	r0, [r7, #48]
 1243 0510 FFF7FEFF 		bl	CPU_SR_Restore
 209:../../source/src/kernel/OS_LIB/malloc.c **** 					return ptr;
 1244              		.loc 3 209 0
 1245 0514 BB6A     		ldr	r3, [r7, #40]
 1246 0516 C4E0     		b	.L63
 1247              	.L66:
 1248              	.LBE5:
 210:../../source/src/kernel/OS_LIB/malloc.c **** 				}
 211:../../source/src/kernel/OS_LIB/malloc.c **** 				else if(!list_empty(&kmem_cache_ptr->slabs_empty)) /* else if chain "slabs_empty" is not empty*
 1249              		.loc 3 211 0
 1250 0518 7B6B     		ldr	r3, [r7, #52]
 1251 051a 1833     		adds	r3, r3, #24
 1252 051c 1846     		mov	r0, r3
 1253 051e FFF7D3FD 		bl	list_empty
 1254 0522 0346     		mov	r3, r0
 1255 0524 002B     		cmp	r3, #0
 1256 0526 25D1     		bne	.L68
 1257              	.LBB7:
 1258              	.LBB8:
 212:../../source/src/kernel/OS_LIB/malloc.c **** 				{
 213:../../source/src/kernel/OS_LIB/malloc.c **** 					struct slab *slab_ptr = list_entry(kmem_cache_ptr->slabs_empty.next,struct slab,slab_chain);
 1259              		.loc 3 213 0
 1260 0528 7B6B     		ldr	r3, [r7, #52]
 1261 052a 9B69     		ldr	r3, [r3, #24]
 1262 052c 7B61     		str	r3, [r7, #20]
 1263 052e 7B69     		ldr	r3, [r7, #20]
 1264 0530 143B     		subs	r3, r3, #20
 1265              	.LBE8:
 1266 0532 3B61     		str	r3, [r7, #16]
 214:../../source/src/kernel/OS_LIB/malloc.c **** 					ptr = slab_ptr->block_head.next;
 1267              		.loc 3 214 0
 1268 0534 3B69     		ldr	r3, [r7, #16]
 1269 0536 DB69     		ldr	r3, [r3, #28]
 1270 0538 BB62     		str	r3, [r7, #40]
 215:../../source/src/kernel/OS_LIB/malloc.c **** 					list_del(slab_ptr->block_head.next);
 1271              		.loc 3 215 0
 1272 053a 3B69     		ldr	r3, [r7, #16]
 1273 053c DB69     		ldr	r3, [r3, #28]
 1274 053e 1846     		mov	r0, r3
 1275 0540 FFF7B2FD 		bl	list_del
 216:../../source/src/kernel/OS_LIB/malloc.c **** 					list_del(&slab_ptr->slab_chain);
 1276              		.loc 3 216 0
 1277 0544 3B69     		ldr	r3, [r7, #16]
 1278 0546 1433     		adds	r3, r3, #20
 1279 0548 1846     		mov	r0, r3
 1280 054a FFF7ADFD 		bl	list_del
 217:../../source/src/kernel/OS_LIB/malloc.c **** 					list_add(&slab_ptr->slab_chain,&kmem_cache_ptr->slabs_partial);
 1281              		.loc 3 217 0
 1282 054e 3B69     		ldr	r3, [r7, #16]
 1283 0550 03F11402 		add	r2, r3, #20
 1284 0554 7B6B     		ldr	r3, [r7, #52]
 1285 0556 1033     		adds	r3, r3, #16
 1286 0558 1946     		mov	r1, r3
ARM GAS  G:\Users\Jaxb\AppData\Local\Temp\ccZD0TjZ.s 			page 30


 1287 055a 1046     		mov	r0, r2
 1288 055c FFF784FD 		bl	list_add
 218:../../source/src/kernel/OS_LIB/malloc.c **** 					--(slab_ptr->current_block_num);
 1289              		.loc 3 218 0
 1290 0560 3B69     		ldr	r3, [r7, #16]
 1291 0562 9B68     		ldr	r3, [r3, #8]
 1292 0564 5A1E     		subs	r2, r3, #1
 1293 0566 3B69     		ldr	r3, [r7, #16]
 1294 0568 9A60     		str	r2, [r3, #8]
 219:../../source/src/kernel/OS_LIB/malloc.c **** 					CPU_CRITICAL_EXIT();
 1295              		.loc 3 219 0
 1296 056a 386B     		ldr	r0, [r7, #48]
 1297 056c FFF7FEFF 		bl	CPU_SR_Restore
 220:../../source/src/kernel/OS_LIB/malloc.c **** 					return ptr;
 1298              		.loc 3 220 0
 1299 0570 BB6A     		ldr	r3, [r7, #40]
 1300 0572 96E0     		b	.L63
 1301              	.L68:
 1302              	.LBE7:
 1303              	.LBB9:
 221:../../source/src/kernel/OS_LIB/malloc.c **** 				}
 222:../../source/src/kernel/OS_LIB/malloc.c **** 				else /* at this case we have to allocate mem from buddy*/
 223:../../source/src/kernel/OS_LIB/malloc.c **** 				{
 224:../../source/src/kernel/OS_LIB/malloc.c **** 					struct slab *slab_ptr;
 225:../../source/src/kernel/OS_LIB/malloc.c **** 					unsigned int level;
 226:../../source/src/kernel/OS_LIB/malloc.c **** 					level = get_set_bit_place((10 * kmem_cache_ptr->kmem_cache_slab_size + sizeof(struct slab)) / 
 1304              		.loc 3 226 0
 1305 0574 7B6B     		ldr	r3, [r7, #52]
 1306 0576 5A68     		ldr	r2, [r3, #4]
 1307 0578 1346     		mov	r3, r2
 1308 057a 9B00     		lsls	r3, r3, #2
 1309 057c 1344     		add	r3, r3, r2
 1310 057e 5B00     		lsls	r3, r3, #1
 1311 0580 2433     		adds	r3, r3, #36
 1312 0582 9B0A     		lsrs	r3, r3, #10
 1313 0584 1846     		mov	r0, r3
 1314 0586 FFF7FEFF 		bl	get_set_bit_place
 1315 058a 0346     		mov	r3, r0
 1316 058c 0233     		adds	r3, r3, #2
 1317 058e 7B62     		str	r3, [r7, #36]
 227:../../source/src/kernel/OS_LIB/malloc.c **** 					/*at least allocate 10 times of corresponding space and a room of sizeof(struct slab)*/
 228:../../source/src/kernel/OS_LIB/malloc.c **** 					slab_ptr = (struct slab *)_case_alloc_buddy(level);
 1318              		.loc 3 228 0
 1319 0590 786A     		ldr	r0, [r7, #36]
 1320 0592 FFF7A9FE 		bl	_case_alloc_buddy
 1321 0596 3862     		str	r0, [r7, #32]
 229:../../source/src/kernel/OS_LIB/malloc.c **** 					if(NULL != slab_ptr)
 1322              		.loc 3 229 0
 1323 0598 3B6A     		ldr	r3, [r7, #32]
 1324 059a 002B     		cmp	r3, #0
 1325 059c 1AD0     		beq	.L69
 230:../../source/src/kernel/OS_LIB/malloc.c **** 					{
 231:../../source/src/kernel/OS_LIB/malloc.c **** 						load_slab((void *)slab_ptr,slab_ptr->end_ptr,kmem_cache_ptr->kmem_cache_slab_size,&kmem_cache
 1326              		.loc 3 231 0
 1327 059e 3B6A     		ldr	r3, [r7, #32]
 1328 05a0 5968     		ldr	r1, [r3, #4]
 1329 05a2 7B6B     		ldr	r3, [r7, #52]
ARM GAS  G:\Users\Jaxb\AppData\Local\Temp\ccZD0TjZ.s 			page 31


 1330 05a4 5A68     		ldr	r2, [r3, #4]
 1331 05a6 7B6B     		ldr	r3, [r7, #52]
 1332 05a8 1033     		adds	r3, r3, #16
 1333 05aa 386A     		ldr	r0, [r7, #32]
 1334 05ac FFF7FEFF 		bl	load_slab
 232:../../source/src/kernel/OS_LIB/malloc.c **** 						ptr = slab_ptr->block_head.next; 	 /* ptr is the point of the allocated space*/
 1335              		.loc 3 232 0
 1336 05b0 3B6A     		ldr	r3, [r7, #32]
 1337 05b2 DB69     		ldr	r3, [r3, #28]
 1338 05b4 BB62     		str	r3, [r7, #40]
 233:../../source/src/kernel/OS_LIB/malloc.c **** 						list_del(slab_ptr->block_head.next); /* delete it from slab chain "block_head"*/
 1339              		.loc 3 233 0
 1340 05b6 3B6A     		ldr	r3, [r7, #32]
 1341 05b8 DB69     		ldr	r3, [r3, #28]
 1342 05ba 1846     		mov	r0, r3
 1343 05bc FFF774FD 		bl	list_del
 234:../../source/src/kernel/OS_LIB/malloc.c **** 						--(slab_ptr->current_block_num);
 1344              		.loc 3 234 0
 1345 05c0 3B6A     		ldr	r3, [r7, #32]
 1346 05c2 9B68     		ldr	r3, [r3, #8]
 1347 05c4 5A1E     		subs	r2, r3, #1
 1348 05c6 3B6A     		ldr	r3, [r7, #32]
 1349 05c8 9A60     		str	r2, [r3, #8]
 235:../../source/src/kernel/OS_LIB/malloc.c **** 						CPU_CRITICAL_EXIT();
 1350              		.loc 3 235 0
 1351 05ca 386B     		ldr	r0, [r7, #48]
 1352 05cc FFF7FEFF 		bl	CPU_SR_Restore
 236:../../source/src/kernel/OS_LIB/malloc.c **** 						return ptr;
 1353              		.loc 3 236 0
 1354 05d0 BB6A     		ldr	r3, [r7, #40]
 1355 05d2 66E0     		b	.L63
 1356              	.L69:
 1357              	.LBB10:
 237:../../source/src/kernel/OS_LIB/malloc.c **** 					}
 238:../../source/src/kernel/OS_LIB/malloc.c **** 					else /* NULL == slab_ptr*/
 239:../../source/src/kernel/OS_LIB/malloc.c **** 					{
 240:../../source/src/kernel/OS_LIB/malloc.c **** 						struct singly_list_head *pos = kmem_cache_ptr->node.next;
 1358              		.loc 3 240 0
 1359 05d4 7B6B     		ldr	r3, [r7, #52]
 1360 05d6 1B68     		ldr	r3, [r3]
 1361 05d8 FB61     		str	r3, [r7, #28]
 241:../../source/src/kernel/OS_LIB/malloc.c **** 						if(cache_chain_head_ptr == pos)
 1362              		.loc 3 241 0
 1363 05da 344A     		ldr	r2, .L77
 1364 05dc FB69     		ldr	r3, [r7, #28]
 1365 05de 9342     		cmp	r3, r2
 1366 05e0 04D1     		bne	.L70
 242:../../source/src/kernel/OS_LIB/malloc.c **** 						{
 243:../../source/src/kernel/OS_LIB/malloc.c **** 							CPU_CRITICAL_EXIT();
 1367              		.loc 3 243 0
 1368 05e2 386B     		ldr	r0, [r7, #48]
 1369 05e4 FFF7FEFF 		bl	CPU_SR_Restore
 244:../../source/src/kernel/OS_LIB/malloc.c **** 							return NULL;
 1370              		.loc 3 244 0
 1371 05e8 0023     		movs	r3, #0
 1372 05ea 5AE0     		b	.L63
 1373              	.L70:
ARM GAS  G:\Users\Jaxb\AppData\Local\Temp\ccZD0TjZ.s 			page 32


 1374              	.LBB11:
 245:../../source/src/kernel/OS_LIB/malloc.c **** 						}
 246:../../source/src/kernel/OS_LIB/malloc.c **** 						kmem_cache_ptr = singly_list_entry(pos,struct kmem_cache,node);
 1375              		.loc 3 246 0
 1376 05ec FB69     		ldr	r3, [r7, #28]
 1377 05ee BB61     		str	r3, [r7, #24]
 1378 05f0 BB69     		ldr	r3, [r7, #24]
 1379              	.LBE11:
 1380 05f2 7B63     		str	r3, [r7, #52]
 247:../../source/src/kernel/OS_LIB/malloc.c **** 						continue ;
 1381              		.loc 3 247 0
 1382 05f4 1DE0     		b	.L71
 1383              	.L65:
 1384              	.LBE10:
 1385              	.LBE9:
 248:../../source/src/kernel/OS_LIB/malloc.c **** 					}
 249:../../source/src/kernel/OS_LIB/malloc.c **** 				}
 250:../../source/src/kernel/OS_LIB/malloc.c **** 			}
 251:../../source/src/kernel/OS_LIB/malloc.c **** 			else /* NULL == IL_ptr*/
 252:../../source/src/kernel/OS_LIB/malloc.c **** 			{
 253:../../source/src/kernel/OS_LIB/malloc.c **** 				kmem_cache_ptr = ka_malloc(sizeof(struct kmem_cache));
 1386              		.loc 3 253 0
 1387 05f6 2020     		movs	r0, #32
 1388 05f8 FFF7FEFF 		bl	ka_malloc
 1389 05fc 7863     		str	r0, [r7, #52]
 254:../../source/src/kernel/OS_LIB/malloc.c **** 				ASSERT(NULL != kmem_cache_ptr);
 1390              		.loc 3 254 0
 1391 05fe 7B6B     		ldr	r3, [r7, #52]
 1392 0600 002B     		cmp	r3, #0
 1393 0602 03D1     		bne	.L72
 1394              		.loc 3 254 0 is_stmt 0 discriminator 1
 1395 0604 FE21     		movs	r1, #254
 1396 0606 2A48     		ldr	r0, .L77+4
 1397 0608 FFF7FEFF 		bl	_ASSERT
 1398              	.L72:
 255:../../source/src/kernel/OS_LIB/malloc.c **** 				if(NULL == kmem_cache_ptr)
 1399              		.loc 3 255 0 is_stmt 1
 1400 060c 7B6B     		ldr	r3, [r7, #52]
 1401 060e 002B     		cmp	r3, #0
 1402 0610 04D1     		bne	.L73
 256:../../source/src/kernel/OS_LIB/malloc.c **** 				{
 257:../../source/src/kernel/OS_LIB/malloc.c **** 					CPU_CRITICAL_EXIT();
 1403              		.loc 3 257 0
 1404 0612 386B     		ldr	r0, [r7, #48]
 1405 0614 FFF7FEFF 		bl	CPU_SR_Restore
 258:../../source/src/kernel/OS_LIB/malloc.c **** 					return NULL;
 1406              		.loc 3 258 0
 1407 0618 0023     		movs	r3, #0
 1408 061a 42E0     		b	.L63
 1409              	.L73:
 259:../../source/src/kernel/OS_LIB/malloc.c **** 				}
 260:../../source/src/kernel/OS_LIB/malloc.c **** 				insert_into_cache_chain(&cache_chain_head,kmem_cache_ptr,size);
 1410              		.loc 3 260 0
 1411 061c 7A68     		ldr	r2, [r7, #4]
 1412 061e 796B     		ldr	r1, [r7, #52]
 1413 0620 2248     		ldr	r0, .L77
 1414 0622 FFF7FEFF 		bl	insert_into_cache_chain
ARM GAS  G:\Users\Jaxb\AppData\Local\Temp\ccZD0TjZ.s 			page 33


 261:../../source/src/kernel/OS_LIB/malloc.c **** 				kmem_cache_ptr = find_first_bigger_cache(&cache_chain_head,size);
 1415              		.loc 3 261 0
 1416 0626 7968     		ldr	r1, [r7, #4]
 1417 0628 2048     		ldr	r0, .L77
 1418 062a FFF7FEFF 		bl	find_first_bigger_cache
 1419 062e 7863     		str	r0, [r7, #52]
 262:../../source/src/kernel/OS_LIB/malloc.c **** 				continue ;
 1420              		.loc 3 262 0
 1421 0630 00BF     		nop
 1422              	.L71:
 195:../../source/src/kernel/OS_LIB/malloc.c **** 			{
 1423              		.loc 3 195 0
 1424 0632 3BE7     		b	.L74
 1425              	.L64:
 1426              	.LBB12:
 263:../../source/src/kernel/OS_LIB/malloc.c **** 			}
 264:../../source/src/kernel/OS_LIB/malloc.c **** 		}
 265:../../source/src/kernel/OS_LIB/malloc.c **** 	}
 266:../../source/src/kernel/OS_LIB/malloc.c **** 	else /*size > 512*/
 267:../../source/src/kernel/OS_LIB/malloc.c **** 	{
 268:../../source/src/kernel/OS_LIB/malloc.c **** 		int level = get_set_bit_place(size/PAGE_SIZE_BYTE) + 2;
 1427              		.loc 3 268 0
 1428 0634 7B68     		ldr	r3, [r7, #4]
 1429 0636 9B0A     		lsrs	r3, r3, #10
 1430 0638 1846     		mov	r0, r3
 1431 063a FFF7FEFF 		bl	get_set_bit_place
 1432 063e 0346     		mov	r3, r0
 1433 0640 0233     		adds	r3, r3, #2
 1434 0642 FB62     		str	r3, [r7, #44]
 269:../../source/src/kernel/OS_LIB/malloc.c **** 		ptr = _case_alloc_buddy((unsigned int)level);
 1435              		.loc 3 269 0
 1436 0644 FB6A     		ldr	r3, [r7, #44]
 1437 0646 1846     		mov	r0, r3
 1438 0648 FFF74EFE 		bl	_case_alloc_buddy
 1439 064c B862     		str	r0, [r7, #40]
 270:../../source/src/kernel/OS_LIB/malloc.c **** 		if(NULL == ptr)
 1440              		.loc 3 270 0
 1441 064e BB6A     		ldr	r3, [r7, #40]
 1442 0650 002B     		cmp	r3, #0
 1443 0652 04D1     		bne	.L75
 271:../../source/src/kernel/OS_LIB/malloc.c **** 		{
 272:../../source/src/kernel/OS_LIB/malloc.c **** 			CPU_CRITICAL_EXIT();
 1444              		.loc 3 272 0
 1445 0654 386B     		ldr	r0, [r7, #48]
 1446 0656 FFF7FEFF 		bl	CPU_SR_Restore
 273:../../source/src/kernel/OS_LIB/malloc.c **** 			return NULL;
 1447              		.loc 3 273 0
 1448 065a 0023     		movs	r3, #0
 1449 065c 21E0     		b	.L63
 1450              	.L75:
 274:../../source/src/kernel/OS_LIB/malloc.c **** 		}
 275:../../source/src/kernel/OS_LIB/malloc.c **** 		if(FUN_EXECUTE_SUCCESSFULLY == add_page_alloc_record(level,ptr))
 1451              		.loc 3 275 0
 1452 065e FB6A     		ldr	r3, [r7, #44]
 1453 0660 B96A     		ldr	r1, [r7, #40]
 1454 0662 1846     		mov	r0, r3
 1455 0664 FFF7FEFF 		bl	add_page_alloc_record
ARM GAS  G:\Users\Jaxb\AppData\Local\Temp\ccZD0TjZ.s 			page 34


 1456 0668 0346     		mov	r3, r0
 1457 066a 002B     		cmp	r3, #0
 1458 066c 04D1     		bne	.L76
 276:../../source/src/kernel/OS_LIB/malloc.c **** 		{
 277:../../source/src/kernel/OS_LIB/malloc.c **** 			CPU_CRITICAL_EXIT();
 1459              		.loc 3 277 0
 1460 066e 386B     		ldr	r0, [r7, #48]
 1461 0670 FFF7FEFF 		bl	CPU_SR_Restore
 278:../../source/src/kernel/OS_LIB/malloc.c **** 			return ptr;
 1462              		.loc 3 278 0
 1463 0674 BB6A     		ldr	r3, [r7, #40]
 1464 0676 14E0     		b	.L63
 1465              	.L76:
 279:../../source/src/kernel/OS_LIB/malloc.c **** 		}
 280:../../source/src/kernel/OS_LIB/malloc.c **** 		else
 281:../../source/src/kernel/OS_LIB/malloc.c **** 		{
 282:../../source/src/kernel/OS_LIB/malloc.c **** 			ka_printf("fatal error from add_page_alloc_record()\n");
 1466              		.loc 3 282 0
 1467 0678 0E48     		ldr	r0, .L77+8
 1468 067a FFF7FEFF 		bl	ka_printf
 283:../../source/src/kernel/OS_LIB/malloc.c **** 			_case_slab_free_buddy(ptr,(void *)((unsigned int)ptr + ka_pow(2,level-1) * PAGE_SIZE_BYTE));
 1469              		.loc 3 283 0
 1470 067e FB6A     		ldr	r3, [r7, #44]
 1471 0680 013B     		subs	r3, r3, #1
 1472 0682 1946     		mov	r1, r3
 1473 0684 0220     		movs	r0, #2
 1474 0686 FFF7FEFF 		bl	ka_pow
 1475 068a 0346     		mov	r3, r0
 1476 068c 9A02     		lsls	r2, r3, #10
 1477 068e BB6A     		ldr	r3, [r7, #40]
 1478 0690 1344     		add	r3, r3, r2
 1479 0692 1946     		mov	r1, r3
 1480 0694 B86A     		ldr	r0, [r7, #40]
 1481 0696 FFF7FEFF 		bl	_case_slab_free_buddy
 284:../../source/src/kernel/OS_LIB/malloc.c **** 			CPU_CRITICAL_EXIT();
 1482              		.loc 3 284 0
 1483 069a 386B     		ldr	r0, [r7, #48]
 1484 069c FFF7FEFF 		bl	CPU_SR_Restore
 285:../../source/src/kernel/OS_LIB/malloc.c **** 			return NULL;
 1485              		.loc 3 285 0
 1486 06a0 0023     		movs	r3, #0
 1487              	.L63:
 1488              	.LBE12:
 286:../../source/src/kernel/OS_LIB/malloc.c **** 		}
 287:../../source/src/kernel/OS_LIB/malloc.c **** 	}
 288:../../source/src/kernel/OS_LIB/malloc.c **** }
 1489              		.loc 3 288 0
 1490 06a2 1846     		mov	r0, r3
 1491 06a4 3837     		adds	r7, r7, #56
 1492              	.LCFI71:
 1493              		.cfi_def_cfa_offset 8
 1494 06a6 BD46     		mov	sp, r7
 1495              	.LCFI72:
 1496              		.cfi_def_cfa_register 13
 1497              		@ sp needed
 1498 06a8 80BD     		pop	{r7, pc}
 1499              	.L78:
ARM GAS  G:\Users\Jaxb\AppData\Local\Temp\ccZD0TjZ.s 			page 35


 1500 06aa 00BF     		.align	2
 1501              	.L77:
 1502 06ac 00000000 		.word	cache_chain_head
 1503 06b0 2C000000 		.word	.LC3
 1504 06b4 7C000000 		.word	.LC6
 1505              		.cfi_endproc
 1506              	.LFE21:
 1507              		.size	ka_malloc, .-ka_malloc
 1508              		.align	1
 1509              		.syntax unified
 1510              		.thumb
 1511              		.thumb_func
 1512              		.fpu softvfp
 1513              		.type	free_find_in_slab_chain, %function
 1514              	free_find_in_slab_chain:
 1515              	.LFB22:
 289:../../source/src/kernel/OS_LIB/malloc.c **** 
 290:../../source/src/kernel/OS_LIB/malloc.c **** /* this functin try to free ptr,if ptr is in the scope of one slab in the slab 
 291:../../source/src/kernel/OS_LIB/malloc.c **** ** chain "head",then insert the ptr into corresponding slab and return slab_ptr,
 292:../../source/src/kernel/OS_LIB/malloc.c **** ** or if ptr not belongs to any slab in this slab chain, then return NULL means 
 293:../../source/src/kernel/OS_LIB/malloc.c **** ** that return ptr fail;*/
 294:../../source/src/kernel/OS_LIB/malloc.c **** static struct slab *free_find_in_slab_chain(struct list_head *head,void *ptr)
 295:../../source/src/kernel/OS_LIB/malloc.c **** {
 1516              		.loc 3 295 0
 1517              		.cfi_startproc
 1518              		@ args = 0, pretend = 0, frame = 24
 1519              		@ frame_needed = 1, uses_anonymous_args = 0
 1520 06b8 80B5     		push	{r7, lr}
 1521              	.LCFI73:
 1522              		.cfi_def_cfa_offset 8
 1523              		.cfi_offset 7, -8
 1524              		.cfi_offset 14, -4
 1525 06ba 86B0     		sub	sp, sp, #24
 1526              	.LCFI74:
 1527              		.cfi_def_cfa_offset 32
 1528 06bc 00AF     		add	r7, sp, #0
 1529              	.LCFI75:
 1530              		.cfi_def_cfa_register 7
 1531 06be 7860     		str	r0, [r7, #4]
 1532 06c0 3960     		str	r1, [r7]
 296:../../source/src/kernel/OS_LIB/malloc.c **** 	struct list_head *pos;
 297:../../source/src/kernel/OS_LIB/malloc.c **** 	struct slab *slab_ptr;
 298:../../source/src/kernel/OS_LIB/malloc.c **** 	list_for_each(pos, head)
 1533              		.loc 3 298 0
 1534 06c2 7B68     		ldr	r3, [r7, #4]
 1535 06c4 1B68     		ldr	r3, [r3]
 1536 06c6 7B61     		str	r3, [r7, #20]
 1537 06c8 3EE0     		b	.L80
 1538              	.L85:
 1539              	.LBB13:
 299:../../source/src/kernel/OS_LIB/malloc.c **** 	{
 300:../../source/src/kernel/OS_LIB/malloc.c **** 		slab_ptr = list_entry(pos,struct slab,slab_chain);
 1540              		.loc 3 300 0
 1541 06ca 7B69     		ldr	r3, [r7, #20]
 1542 06cc 3B61     		str	r3, [r7, #16]
 1543 06ce 3B69     		ldr	r3, [r7, #16]
 1544 06d0 143B     		subs	r3, r3, #20
ARM GAS  G:\Users\Jaxb\AppData\Local\Temp\ccZD0TjZ.s 			page 36


 1545              	.LBE13:
 1546 06d2 FB60     		str	r3, [r7, #12]
 301:../../source/src/kernel/OS_LIB/malloc.c **** 		if(((int)ptr > (int)slab_ptr->start_ptr) && ((int)ptr < (int)slab_ptr->end_ptr))
 1547              		.loc 3 301 0
 1548 06d4 FB68     		ldr	r3, [r7, #12]
 1549 06d6 1B68     		ldr	r3, [r3]
 1550 06d8 1A46     		mov	r2, r3
 1551 06da 3B68     		ldr	r3, [r7]
 1552 06dc 9A42     		cmp	r2, r3
 1553 06de 30DA     		bge	.L81
 1554              		.loc 3 301 0 is_stmt 0 discriminator 1
 1555 06e0 FB68     		ldr	r3, [r7, #12]
 1556 06e2 5B68     		ldr	r3, [r3, #4]
 1557 06e4 1A46     		mov	r2, r3
 1558 06e6 3B68     		ldr	r3, [r7]
 1559 06e8 9A42     		cmp	r2, r3
 1560 06ea 2ADD     		ble	.L81
 302:../../source/src/kernel/OS_LIB/malloc.c **** 		{
 303:../../source/src/kernel/OS_LIB/malloc.c **** 			ASSERT(0 == (((unsigned int)slab_ptr->end_ptr - (unsigned int)ptr) % (slab_ptr->block_size)));
 1561              		.loc 3 303 0 is_stmt 1
 1562 06ec FB68     		ldr	r3, [r7, #12]
 1563 06ee 5B68     		ldr	r3, [r3, #4]
 1564 06f0 1A46     		mov	r2, r3
 1565 06f2 3B68     		ldr	r3, [r7]
 1566 06f4 D31A     		subs	r3, r2, r3
 1567 06f6 FA68     		ldr	r2, [r7, #12]
 1568 06f8 1269     		ldr	r2, [r2, #16]
 1569 06fa B3FBF2F1 		udiv	r1, r3, r2
 1570 06fe 02FB01F2 		mul	r2, r2, r1
 1571 0702 9B1A     		subs	r3, r3, r2
 1572 0704 002B     		cmp	r3, #0
 1573 0706 04D0     		beq	.L82
 1574              		.loc 3 303 0 is_stmt 0 discriminator 1
 1575 0708 40F22F11 		movw	r1, #303
 1576 070c 1348     		ldr	r0, .L86
 1577 070e FFF7FEFF 		bl	_ASSERT
 1578              	.L82:
 304:../../source/src/kernel/OS_LIB/malloc.c **** 			++(slab_ptr->current_block_num);
 1579              		.loc 3 304 0 is_stmt 1
 1580 0712 FB68     		ldr	r3, [r7, #12]
 1581 0714 9B68     		ldr	r3, [r3, #8]
 1582 0716 5A1C     		adds	r2, r3, #1
 1583 0718 FB68     		ldr	r3, [r7, #12]
 1584 071a 9A60     		str	r2, [r3, #8]
 305:../../source/src/kernel/OS_LIB/malloc.c **** 			ASSERT(slab_ptr->current_block_num <= slab_ptr->full_block_num);
 1585              		.loc 3 305 0
 1586 071c FB68     		ldr	r3, [r7, #12]
 1587 071e 9A68     		ldr	r2, [r3, #8]
 1588 0720 FB68     		ldr	r3, [r7, #12]
 1589 0722 DB68     		ldr	r3, [r3, #12]
 1590 0724 9A42     		cmp	r2, r3
 1591 0726 04D9     		bls	.L83
 1592              		.loc 3 305 0 is_stmt 0 discriminator 1
 1593 0728 40F23111 		movw	r1, #305
 1594 072c 0B48     		ldr	r0, .L86
 1595 072e FFF7FEFF 		bl	_ASSERT
 1596              	.L83:
ARM GAS  G:\Users\Jaxb\AppData\Local\Temp\ccZD0TjZ.s 			page 37


 306:../../source/src/kernel/OS_LIB/malloc.c **** 			list_add((struct list_head *)ptr,&slab_ptr->block_head);	
 1597              		.loc 3 306 0 is_stmt 1
 1598 0732 FB68     		ldr	r3, [r7, #12]
 1599 0734 1C33     		adds	r3, r3, #28
 1600 0736 1946     		mov	r1, r3
 1601 0738 3868     		ldr	r0, [r7]
 1602 073a FFF795FC 		bl	list_add
 307:../../source/src/kernel/OS_LIB/malloc.c **** 			return slab_ptr;
 1603              		.loc 3 307 0
 1604 073e FB68     		ldr	r3, [r7, #12]
 1605 0740 07E0     		b	.L84
 1606              	.L81:
 298:../../source/src/kernel/OS_LIB/malloc.c **** 	{
 1607              		.loc 3 298 0 discriminator 2
 1608 0742 7B69     		ldr	r3, [r7, #20]
 1609 0744 1B68     		ldr	r3, [r3]
 1610 0746 7B61     		str	r3, [r7, #20]
 1611              	.L80:
 298:../../source/src/kernel/OS_LIB/malloc.c **** 	{
 1612              		.loc 3 298 0 is_stmt 0 discriminator 1
 1613 0748 7A69     		ldr	r2, [r7, #20]
 1614 074a 7B68     		ldr	r3, [r7, #4]
 1615 074c 9A42     		cmp	r2, r3
 1616 074e BCD1     		bne	.L85
 308:../../source/src/kernel/OS_LIB/malloc.c **** 		}
 309:../../source/src/kernel/OS_LIB/malloc.c **** 	}
 310:../../source/src/kernel/OS_LIB/malloc.c **** 	return NULL;
 1617              		.loc 3 310 0 is_stmt 1
 1618 0750 0023     		movs	r3, #0
 1619              	.L84:
 311:../../source/src/kernel/OS_LIB/malloc.c **** }
 1620              		.loc 3 311 0
 1621 0752 1846     		mov	r0, r3
 1622 0754 1837     		adds	r7, r7, #24
 1623              	.LCFI76:
 1624              		.cfi_def_cfa_offset 8
 1625 0756 BD46     		mov	sp, r7
 1626              	.LCFI77:
 1627              		.cfi_def_cfa_register 13
 1628              		@ sp needed
 1629 0758 80BD     		pop	{r7, pc}
 1630              	.L87:
 1631 075a 00BF     		.align	2
 1632              	.L86:
 1633 075c 2C000000 		.word	.LC3
 1634              		.cfi_endproc
 1635              	.LFE22:
 1636              		.size	free_find_in_slab_chain, .-free_find_in_slab_chain
 1637              		.align	1
 1638              		.global	in_os_memory
 1639              		.syntax unified
 1640              		.thumb
 1641              		.thumb_func
 1642              		.fpu softvfp
 1643              		.type	in_os_memory, %function
 1644              	in_os_memory:
 1645              	.LFB23:
ARM GAS  G:\Users\Jaxb\AppData\Local\Temp\ccZD0TjZ.s 			page 38


 312:../../source/src/kernel/OS_LIB/malloc.c **** 
 313:../../source/src/kernel/OS_LIB/malloc.c **** int in_os_memory(void *ptr)
 314:../../source/src/kernel/OS_LIB/malloc.c **** {
 1646              		.loc 3 314 0
 1647              		.cfi_startproc
 1648              		@ args = 0, pretend = 0, frame = 16
 1649              		@ frame_needed = 1, uses_anonymous_args = 0
 1650 0760 80B5     		push	{r7, lr}
 1651              	.LCFI78:
 1652              		.cfi_def_cfa_offset 8
 1653              		.cfi_offset 7, -8
 1654              		.cfi_offset 14, -4
 1655 0762 84B0     		sub	sp, sp, #16
 1656              	.LCFI79:
 1657              		.cfi_def_cfa_offset 24
 1658 0764 00AF     		add	r7, sp, #0
 1659              	.LCFI80:
 1660              		.cfi_def_cfa_register 7
 1661 0766 7860     		str	r0, [r7, #4]
 315:../../source/src/kernel/OS_LIB/malloc.c **** 	struct buddy *buddy_ptr = (struct buddy *)_get_os_buddy_ptr_head();
 1662              		.loc 3 315 0
 1663 0768 FFF7FEFF 		bl	_get_os_buddy_ptr_head
 1664 076c F860     		str	r0, [r7, #12]
 316:../../source/src/kernel/OS_LIB/malloc.c **** 	ASSERT(NULL != buddy_ptr);
 1665              		.loc 3 316 0
 1666 076e FB68     		ldr	r3, [r7, #12]
 1667 0770 002B     		cmp	r3, #0
 1668 0772 11D1     		bne	.L90
 1669              		.loc 3 316 0 is_stmt 0 discriminator 1
 1670 0774 4FF49E71 		mov	r1, #316
 1671 0778 0C48     		ldr	r0, .L94
 1672 077a FFF7FEFF 		bl	_ASSERT
 317:../../source/src/kernel/OS_LIB/malloc.c **** 	while(NULL != buddy_ptr)
 1673              		.loc 3 317 0 is_stmt 1 discriminator 1
 1674 077e 0BE0     		b	.L90
 1675              	.L93:
 318:../../source/src/kernel/OS_LIB/malloc.c **** 	{
 319:../../source/src/kernel/OS_LIB/malloc.c **** 		if(FUN_EXECUTE_SUCCESSFULLY == in_buddy_range(ptr))
 1676              		.loc 3 319 0
 1677 0780 7868     		ldr	r0, [r7, #4]
 1678 0782 FFF7FEFF 		bl	in_buddy_range
 1679 0786 0346     		mov	r3, r0
 1680 0788 002B     		cmp	r3, #0
 1681 078a 01D1     		bne	.L91
 320:../../source/src/kernel/OS_LIB/malloc.c **** 		{
 321:../../source/src/kernel/OS_LIB/malloc.c **** 			return FUN_EXECUTE_SUCCESSFULLY;
 1682              		.loc 3 321 0
 1683 078c 0023     		movs	r3, #0
 1684 078e 08E0     		b	.L92
 1685              	.L91:
 322:../../source/src/kernel/OS_LIB/malloc.c **** 		}
 323:../../source/src/kernel/OS_LIB/malloc.c **** 		buddy_ptr = (struct buddy *)_get_next_buddy_ptr_head(buddy_ptr);
 1686              		.loc 3 323 0
 1687 0790 F868     		ldr	r0, [r7, #12]
 1688 0792 FFF7FEFF 		bl	_get_next_buddy_ptr_head
 1689 0796 F860     		str	r0, [r7, #12]
 1690              	.L90:
ARM GAS  G:\Users\Jaxb\AppData\Local\Temp\ccZD0TjZ.s 			page 39


 317:../../source/src/kernel/OS_LIB/malloc.c **** 	{
 1691              		.loc 3 317 0
 1692 0798 FB68     		ldr	r3, [r7, #12]
 1693 079a 002B     		cmp	r3, #0
 1694 079c F0D1     		bne	.L93
 324:../../source/src/kernel/OS_LIB/malloc.c **** 	}
 325:../../source/src/kernel/OS_LIB/malloc.c **** 	return -1;
 1695              		.loc 3 325 0
 1696 079e 4FF0FF33 		mov	r3, #-1
 1697              	.L92:
 326:../../source/src/kernel/OS_LIB/malloc.c **** }
 1698              		.loc 3 326 0
 1699 07a2 1846     		mov	r0, r3
 1700 07a4 1037     		adds	r7, r7, #16
 1701              	.LCFI81:
 1702              		.cfi_def_cfa_offset 8
 1703 07a6 BD46     		mov	sp, r7
 1704              	.LCFI82:
 1705              		.cfi_def_cfa_register 13
 1706              		@ sp needed
 1707 07a8 80BD     		pop	{r7, pc}
 1708              	.L95:
 1709 07aa 00BF     		.align	2
 1710              	.L94:
 1711 07ac 2C000000 		.word	.LC3
 1712              		.cfi_endproc
 1713              	.LFE23:
 1714              		.size	in_os_memory, .-in_os_memory
 1715              		.section	.rodata
 1716 00a6 0000     		.align	2
 1717              	.LC7:
 1718 00a8 6E6F7420 		.ascii	"not in a slab or record,fatal error\012\000"
 1718      696E2061 
 1718      20736C61 
 1718      62206F72 
 1718      20726563 
 1719              		.text
 1720              		.align	1
 1721              		.global	ka_free
 1722              		.syntax unified
 1723              		.thumb
 1724              		.thumb_func
 1725              		.fpu softvfp
 1726              		.type	ka_free, %function
 1727              	ka_free:
 1728              	.LFB24:
 327:../../source/src/kernel/OS_LIB/malloc.c **** 
 328:../../source/src/kernel/OS_LIB/malloc.c **** void ka_free(void *ptr)
 329:../../source/src/kernel/OS_LIB/malloc.c **** {
 1729              		.loc 3 329 0
 1730              		.cfi_startproc
 1731              		@ args = 0, pretend = 0, frame = 32
 1732              		@ frame_needed = 1, uses_anonymous_args = 0
 1733 07b0 80B5     		push	{r7, lr}
 1734              	.LCFI83:
 1735              		.cfi_def_cfa_offset 8
 1736              		.cfi_offset 7, -8
ARM GAS  G:\Users\Jaxb\AppData\Local\Temp\ccZD0TjZ.s 			page 40


 1737              		.cfi_offset 14, -4
 1738 07b2 88B0     		sub	sp, sp, #32
 1739              	.LCFI84:
 1740              		.cfi_def_cfa_offset 40
 1741 07b4 00AF     		add	r7, sp, #0
 1742              	.LCFI85:
 1743              		.cfi_def_cfa_register 7
 1744 07b6 7860     		str	r0, [r7, #4]
 330:../../source/src/kernel/OS_LIB/malloc.c **** 	struct kmem_cache *kmem_cache_ptr;
 331:../../source/src/kernel/OS_LIB/malloc.c **** 	struct slab *slab_ptr;
 332:../../source/src/kernel/OS_LIB/malloc.c **** 	CPU_SR_ALLOC();
 1745              		.loc 3 332 0
 1746 07b8 0023     		movs	r3, #0
 1747 07ba BB61     		str	r3, [r7, #24]
 333:../../source/src/kernel/OS_LIB/malloc.c **** 	if(FUN_EXECUTE_SUCCESSFULLY != in_os_memory(ptr))
 1748              		.loc 3 333 0
 1749 07bc 7868     		ldr	r0, [r7, #4]
 1750 07be FFF7FEFF 		bl	in_os_memory
 1751 07c2 0346     		mov	r3, r0
 1752 07c4 002B     		cmp	r3, #0
 1753 07c6 72D1     		bne	.L106
 334:../../source/src/kernel/OS_LIB/malloc.c **** 	{
 335:../../source/src/kernel/OS_LIB/malloc.c **** 		return ;
 336:../../source/src/kernel/OS_LIB/malloc.c **** 	}
 337:../../source/src/kernel/OS_LIB/malloc.c **** 	CPU_CRITICAL_ENTER();
 1754              		.loc 3 337 0
 1755 07c8 FFF7FEFF 		bl	CPU_SR_Save
 1756 07cc B861     		str	r0, [r7, #24]
 1757              	.LBB14:
 338:../../source/src/kernel/OS_LIB/malloc.c **** 	singly_list_for_each_entry(kmem_cache_ptr, &cache_chain_head, node)
 1758              		.loc 3 338 0
 1759 07ce 3A4B     		ldr	r3, .L107
 1760 07d0 1B68     		ldr	r3, [r3]
 1761 07d2 7B61     		str	r3, [r7, #20]
 1762 07d4 7B69     		ldr	r3, [r7, #20]
 1763              	.LBE14:
 1764 07d6 FB61     		str	r3, [r7, #28]
 1765 07d8 52E0     		b	.L99
 1766              	.L103:
 339:../../source/src/kernel/OS_LIB/malloc.c **** 	{
 340:../../source/src/kernel/OS_LIB/malloc.c **** 		if(!list_empty(&kmem_cache_ptr->slabs_partial))
 1767              		.loc 3 340 0
 1768 07da FB69     		ldr	r3, [r7, #28]
 1769 07dc 1033     		adds	r3, r3, #16
 1770 07de 1846     		mov	r0, r3
 1771 07e0 FFF772FC 		bl	list_empty
 1772 07e4 0346     		mov	r3, r0
 1773 07e6 002B     		cmp	r3, #0
 1774 07e8 21D1     		bne	.L100
 341:../../source/src/kernel/OS_LIB/malloc.c **** 		{
 342:../../source/src/kernel/OS_LIB/malloc.c **** 			slab_ptr = free_find_in_slab_chain(&kmem_cache_ptr->slabs_partial,ptr);
 1775              		.loc 3 342 0
 1776 07ea FB69     		ldr	r3, [r7, #28]
 1777 07ec 1033     		adds	r3, r3, #16
 1778 07ee 7968     		ldr	r1, [r7, #4]
 1779 07f0 1846     		mov	r0, r3
 1780 07f2 FFF761FF 		bl	free_find_in_slab_chain
ARM GAS  G:\Users\Jaxb\AppData\Local\Temp\ccZD0TjZ.s 			page 41


 1781 07f6 3861     		str	r0, [r7, #16]
 343:../../source/src/kernel/OS_LIB/malloc.c **** 			if(NULL != slab_ptr) /* free success*/
 1782              		.loc 3 343 0
 1783 07f8 3B69     		ldr	r3, [r7, #16]
 1784 07fa 002B     		cmp	r3, #0
 1785 07fc 17D0     		beq	.L100
 344:../../source/src/kernel/OS_LIB/malloc.c **** 			{
 345:../../source/src/kernel/OS_LIB/malloc.c **** 				if(slab_ptr->current_block_num == slab_ptr->full_block_num)
 1786              		.loc 3 345 0
 1787 07fe 3B69     		ldr	r3, [r7, #16]
 1788 0800 9A68     		ldr	r2, [r3, #8]
 1789 0802 3B69     		ldr	r3, [r7, #16]
 1790 0804 DB68     		ldr	r3, [r3, #12]
 1791 0806 9A42     		cmp	r2, r3
 1792 0808 0DD1     		bne	.L101
 346:../../source/src/kernel/OS_LIB/malloc.c **** 				{
 347:../../source/src/kernel/OS_LIB/malloc.c **** 					list_del(&slab_ptr->slab_chain);
 1793              		.loc 3 347 0
 1794 080a 3B69     		ldr	r3, [r7, #16]
 1795 080c 1433     		adds	r3, r3, #20
 1796 080e 1846     		mov	r0, r3
 1797 0810 FFF74AFC 		bl	list_del
 348:../../source/src/kernel/OS_LIB/malloc.c **** 					list_add(&slab_ptr->slab_chain,&kmem_cache_ptr->slabs_empty);
 1798              		.loc 3 348 0
 1799 0814 3B69     		ldr	r3, [r7, #16]
 1800 0816 03F11402 		add	r2, r3, #20
 1801 081a FB69     		ldr	r3, [r7, #28]
 1802 081c 1833     		adds	r3, r3, #24
 1803 081e 1946     		mov	r1, r3
 1804 0820 1046     		mov	r0, r2
 1805 0822 FFF721FC 		bl	list_add
 1806              	.L101:
 349:../../source/src/kernel/OS_LIB/malloc.c **** 				}
 350:../../source/src/kernel/OS_LIB/malloc.c **** 				CPU_CRITICAL_EXIT();
 1807              		.loc 3 350 0
 1808 0826 B869     		ldr	r0, [r7, #24]
 1809 0828 FFF7FEFF 		bl	CPU_SR_Restore
 351:../../source/src/kernel/OS_LIB/malloc.c **** 				return ;
 1810              		.loc 3 351 0
 1811 082c 40E0     		b	.L96
 1812              	.L100:
 352:../../source/src/kernel/OS_LIB/malloc.c **** 			}
 353:../../source/src/kernel/OS_LIB/malloc.c **** 		}
 354:../../source/src/kernel/OS_LIB/malloc.c **** 		if(!list_empty(&kmem_cache_ptr->slabs_full))
 1813              		.loc 3 354 0
 1814 082e FB69     		ldr	r3, [r7, #28]
 1815 0830 0833     		adds	r3, r3, #8
 1816 0832 1846     		mov	r0, r3
 1817 0834 FFF748FC 		bl	list_empty
 1818 0838 0346     		mov	r3, r0
 1819 083a 002B     		cmp	r3, #0
 1820 083c 1BD1     		bne	.L102
 355:../../source/src/kernel/OS_LIB/malloc.c **** 		{
 356:../../source/src/kernel/OS_LIB/malloc.c **** 			slab_ptr = free_find_in_slab_chain(&kmem_cache_ptr->slabs_full,ptr);
 1821              		.loc 3 356 0
 1822 083e FB69     		ldr	r3, [r7, #28]
 1823 0840 0833     		adds	r3, r3, #8
ARM GAS  G:\Users\Jaxb\AppData\Local\Temp\ccZD0TjZ.s 			page 42


 1824 0842 7968     		ldr	r1, [r7, #4]
 1825 0844 1846     		mov	r0, r3
 1826 0846 FFF737FF 		bl	free_find_in_slab_chain
 1827 084a 3861     		str	r0, [r7, #16]
 357:../../source/src/kernel/OS_LIB/malloc.c **** 			if(NULL != slab_ptr) /* free success*/
 1828              		.loc 3 357 0
 1829 084c 3B69     		ldr	r3, [r7, #16]
 1830 084e 002B     		cmp	r3, #0
 1831 0850 11D0     		beq	.L102
 358:../../source/src/kernel/OS_LIB/malloc.c **** 			{
 359:../../source/src/kernel/OS_LIB/malloc.c **** 				list_del(&slab_ptr->slab_chain);
 1832              		.loc 3 359 0
 1833 0852 3B69     		ldr	r3, [r7, #16]
 1834 0854 1433     		adds	r3, r3, #20
 1835 0856 1846     		mov	r0, r3
 1836 0858 FFF726FC 		bl	list_del
 360:../../source/src/kernel/OS_LIB/malloc.c **** 				list_add(&slab_ptr->slab_chain,&kmem_cache_ptr->slabs_partial);
 1837              		.loc 3 360 0
 1838 085c 3B69     		ldr	r3, [r7, #16]
 1839 085e 03F11402 		add	r2, r3, #20
 1840 0862 FB69     		ldr	r3, [r7, #28]
 1841 0864 1033     		adds	r3, r3, #16
 1842 0866 1946     		mov	r1, r3
 1843 0868 1046     		mov	r0, r2
 1844 086a FFF7FDFB 		bl	list_add
 361:../../source/src/kernel/OS_LIB/malloc.c **** 				CPU_CRITICAL_EXIT();
 1845              		.loc 3 361 0
 1846 086e B869     		ldr	r0, [r7, #24]
 1847 0870 FFF7FEFF 		bl	CPU_SR_Restore
 362:../../source/src/kernel/OS_LIB/malloc.c **** 				return ;
 1848              		.loc 3 362 0
 1849 0874 1CE0     		b	.L96
 1850              	.L102:
 1851              	.LBB15:
 338:../../source/src/kernel/OS_LIB/malloc.c **** 	{
 1852              		.loc 3 338 0 discriminator 2
 1853 0876 FB69     		ldr	r3, [r7, #28]
 1854 0878 1B68     		ldr	r3, [r3]
 1855 087a FB60     		str	r3, [r7, #12]
 1856 087c FB68     		ldr	r3, [r7, #12]
 1857              	.LBE15:
 1858 087e FB61     		str	r3, [r7, #28]
 1859              	.L99:
 338:../../source/src/kernel/OS_LIB/malloc.c **** 	{
 1860              		.loc 3 338 0 is_stmt 0 discriminator 1
 1861 0880 FB69     		ldr	r3, [r7, #28]
 1862 0882 0D4A     		ldr	r2, .L107
 1863 0884 9342     		cmp	r3, r2
 1864 0886 A8D1     		bne	.L103
 363:../../source/src/kernel/OS_LIB/malloc.c **** 			}
 364:../../source/src/kernel/OS_LIB/malloc.c **** 		}
 365:../../source/src/kernel/OS_LIB/malloc.c **** 	}
 366:../../source/src/kernel/OS_LIB/malloc.c **** 	if(FUN_EXECUTE_SUCCESSFULLY == find_and_remove_record(ptr))
 1865              		.loc 3 366 0 is_stmt 1
 1866 0888 7868     		ldr	r0, [r7, #4]
 1867 088a FFF787FC 		bl	find_and_remove_record
 1868 088e 0346     		mov	r3, r0
ARM GAS  G:\Users\Jaxb\AppData\Local\Temp\ccZD0TjZ.s 			page 43


 1869 0890 002B     		cmp	r3, #0
 1870 0892 03D1     		bne	.L104
 367:../../source/src/kernel/OS_LIB/malloc.c **** 	{
 368:../../source/src/kernel/OS_LIB/malloc.c **** 		CPU_CRITICAL_EXIT();
 1871              		.loc 3 368 0
 1872 0894 B869     		ldr	r0, [r7, #24]
 1873 0896 FFF7FEFF 		bl	CPU_SR_Restore
 369:../../source/src/kernel/OS_LIB/malloc.c **** 		return;
 1874              		.loc 3 369 0
 1875 089a 09E0     		b	.L96
 1876              	.L104:
 370:../../source/src/kernel/OS_LIB/malloc.c **** 	}
 371:../../source/src/kernel/OS_LIB/malloc.c **** 	ka_printf("not in a slab or record,fatal error\n");
 1877              		.loc 3 371 0
 1878 089c 0748     		ldr	r0, .L107+4
 1879 089e FFF7FEFF 		bl	ka_printf
 372:../../source/src/kernel/OS_LIB/malloc.c **** 	ASSERT(0);/*should not go here*/
 1880              		.loc 3 372 0
 1881 08a2 4FF4BA71 		mov	r1, #372
 1882 08a6 0648     		ldr	r0, .L107+8
 1883 08a8 FFF7FEFF 		bl	_ASSERT
 1884              	.L105:
 373:../../source/src/kernel/OS_LIB/malloc.c **** 	while(1);
 1885              		.loc 3 373 0 discriminator 3
 1886 08ac FEE7     		b	.L105
 1887              	.L106:
 335:../../source/src/kernel/OS_LIB/malloc.c **** 	}
 1888              		.loc 3 335 0
 1889 08ae 00BF     		nop
 1890              	.L96:
 374:../../source/src/kernel/OS_LIB/malloc.c **** }
 1891              		.loc 3 374 0
 1892 08b0 2037     		adds	r7, r7, #32
 1893              	.LCFI86:
 1894              		.cfi_def_cfa_offset 8
 1895 08b2 BD46     		mov	sp, r7
 1896              	.LCFI87:
 1897              		.cfi_def_cfa_register 13
 1898              		@ sp needed
 1899 08b4 80BD     		pop	{r7, pc}
 1900              	.L108:
 1901 08b6 00BF     		.align	2
 1902              	.L107:
 1903 08b8 00000000 		.word	cache_chain_head
 1904 08bc A8000000 		.word	.LC7
 1905 08c0 2C000000 		.word	.LC3
 1906              		.cfi_endproc
 1907              	.LFE24:
 1908              		.size	ka_free, .-ka_free
 1909              		.section	.rodata
 1910 00cd 000000   		.align	2
 1911              	.LC8:
 1912 00d0 3D3D3D3D 		.ascii	"===========get NO.%d kmem===========\012\000"
 1912      3D3D3D3D 
 1912      3D3D3D67 
 1912      6574204E 
 1912      4F2E2564 
ARM GAS  G:\Users\Jaxb\AppData\Local\Temp\ccZD0TjZ.s 			page 44


 1913 00f6 0000     		.align	2
 1914              	.LC9:
 1915 00f8 74686520 		.ascii	"the size of this kmem_cache is %u\012\000"
 1915      73697A65 
 1915      206F6620 
 1915      74686973 
 1915      206B6D65 
 1916 011b 00       		.align	2
 1917              	.LC10:
 1918 011c 63686169 		.ascii	"chain slabs_full has %d slab\012\000"
 1918      6E20736C 
 1918      6162735F 
 1918      66756C6C 
 1918      20686173 
 1919 013a 0000     		.align	2
 1920              	.LC11:
 1921 013c 63686169 		.ascii	"chain slabs_full is empty\012\000"
 1921      6E20736C 
 1921      6162735F 
 1921      66756C6C 
 1921      20697320 
 1922 0157 00       		.align	2
 1923              	.LC12:
 1924 0158 63686169 		.ascii	"chain slabs_partial has %d slab\012\000"
 1924      6E20736C 
 1924      6162735F 
 1924      70617274 
 1924      69616C20 
 1925 0179 000000   		.align	2
 1926              	.LC13:
 1927 017c 63686169 		.ascii	"chain slabs_partial is empty\012\000"
 1927      6E20736C 
 1927      6162735F 
 1927      70617274 
 1927      69616C20 
 1928 019a 0000     		.align	2
 1929              	.LC14:
 1930 019c 63686169 		.ascii	"chain slabs_empty has %d slab\012\000"
 1930      6E20736C 
 1930      6162735F 
 1930      656D7074 
 1930      79206861 
 1931 01bb 00       		.align	2
 1932              	.LC15:
 1933 01bc 63686169 		.ascii	"chain slabs_empty is empty\012\000"
 1933      6E20736C 
 1933      6162735F 
 1933      656D7074 
 1933      79206973 
 1934              		.align	2
 1935              	.LC16:
 1936 01d8 0A00     		.ascii	"\012\000"
 1937              		.text
 1938              		.align	1
 1939              		.global	shell_check_kmem
 1940              		.syntax unified
 1941              		.thumb
ARM GAS  G:\Users\Jaxb\AppData\Local\Temp\ccZD0TjZ.s 			page 45


 1942              		.thumb_func
 1943              		.fpu softvfp
 1944              		.type	shell_check_kmem, %function
 1945              	shell_check_kmem:
 1946              	.LFB25:
 375:../../source/src/kernel/OS_LIB/malloc.c **** 
 376:../../source/src/kernel/OS_LIB/malloc.c **** #if CONFIG_SHELL_EN
 377:../../source/src/kernel/OS_LIB/malloc.c **** void shell_check_kmem(int argc, char const *argv[])
 378:../../source/src/kernel/OS_LIB/malloc.c **** {
 1947              		.loc 3 378 0
 1948              		.cfi_startproc
 1949              		@ args = 0, pretend = 0, frame = 56
 1950              		@ frame_needed = 1, uses_anonymous_args = 0
 1951 08c4 80B5     		push	{r7, lr}
 1952              	.LCFI88:
 1953              		.cfi_def_cfa_offset 8
 1954              		.cfi_offset 7, -8
 1955              		.cfi_offset 14, -4
 1956 08c6 8EB0     		sub	sp, sp, #56
 1957              	.LCFI89:
 1958              		.cfi_def_cfa_offset 64
 1959 08c8 00AF     		add	r7, sp, #0
 1960              	.LCFI90:
 1961              		.cfi_def_cfa_register 7
 1962 08ca 7860     		str	r0, [r7, #4]
 1963 08cc 3960     		str	r1, [r7]
 379:../../source/src/kernel/OS_LIB/malloc.c **** 	(void)argc;
 380:../../source/src/kernel/OS_LIB/malloc.c **** 	(void)argv;
 381:../../source/src/kernel/OS_LIB/malloc.c **** 	struct kmem_cache *kmem_cache_ptr;
 382:../../source/src/kernel/OS_LIB/malloc.c **** 	int i = 0;
 1964              		.loc 3 382 0
 1965 08ce 0023     		movs	r3, #0
 1966 08d0 3B63     		str	r3, [r7, #48]
 383:../../source/src/kernel/OS_LIB/malloc.c **** 	CPU_SR_ALLOC();
 1967              		.loc 3 383 0
 1968 08d2 0023     		movs	r3, #0
 1969 08d4 7B61     		str	r3, [r7, #20]
 384:../../source/src/kernel/OS_LIB/malloc.c **** 	CPU_CRITICAL_ENTER();
 1970              		.loc 3 384 0
 1971 08d6 FFF7FEFF 		bl	CPU_SR_Save
 1972 08da 7861     		str	r0, [r7, #20]
 1973              	.LBB16:
 385:../../source/src/kernel/OS_LIB/malloc.c **** 	singly_list_for_each_entry(kmem_cache_ptr, &cache_chain_head, node)
 1974              		.loc 3 385 0
 1975 08dc 444B     		ldr	r3, .L124
 1976 08de 1B68     		ldr	r3, [r3]
 1977 08e0 3B61     		str	r3, [r7, #16]
 1978 08e2 3B69     		ldr	r3, [r7, #16]
 1979              	.LBE16:
 1980 08e4 7B63     		str	r3, [r7, #52]
 1981 08e6 77E0     		b	.L110
 1982              	.L123:
 386:../../source/src/kernel/OS_LIB/malloc.c **** 	{
 387:../../source/src/kernel/OS_LIB/malloc.c **** 		ka_printf("===========get NO.%d kmem===========\n",++i);
 1983              		.loc 3 387 0
 1984 08e8 3B6B     		ldr	r3, [r7, #48]
 1985 08ea 0133     		adds	r3, r3, #1
ARM GAS  G:\Users\Jaxb\AppData\Local\Temp\ccZD0TjZ.s 			page 46


 1986 08ec 3B63     		str	r3, [r7, #48]
 1987 08ee 396B     		ldr	r1, [r7, #48]
 1988 08f0 4048     		ldr	r0, .L124+4
 1989 08f2 FFF7FEFF 		bl	ka_printf
 388:../../source/src/kernel/OS_LIB/malloc.c **** 		ka_printf("the size of this kmem_cache is %u\n",kmem_cache_ptr->kmem_cache_slab_size);
 1990              		.loc 3 388 0
 1991 08f6 7B6B     		ldr	r3, [r7, #52]
 1992 08f8 5B68     		ldr	r3, [r3, #4]
 1993 08fa 1946     		mov	r1, r3
 1994 08fc 3E48     		ldr	r0, .L124+8
 1995 08fe FFF7FEFF 		bl	ka_printf
 389:../../source/src/kernel/OS_LIB/malloc.c **** 		if(!list_empty(&kmem_cache_ptr->slabs_full))
 1996              		.loc 3 389 0
 1997 0902 7B6B     		ldr	r3, [r7, #52]
 1998 0904 0833     		adds	r3, r3, #8
 1999 0906 1846     		mov	r0, r3
 2000 0908 FFF7DEFB 		bl	list_empty
 2001 090c 0346     		mov	r3, r0
 2002 090e 002B     		cmp	r3, #0
 2003 0910 15D1     		bne	.L111
 2004              	.LBB17:
 390:../../source/src/kernel/OS_LIB/malloc.c **** 		{
 391:../../source/src/kernel/OS_LIB/malloc.c **** 			struct list_head *buffer;
 392:../../source/src/kernel/OS_LIB/malloc.c **** 			int num = 0;
 2005              		.loc 3 392 0
 2006 0912 0023     		movs	r3, #0
 2007 0914 BB62     		str	r3, [r7, #40]
 393:../../source/src/kernel/OS_LIB/malloc.c **** 			list_for_each(buffer,&kmem_cache_ptr->slabs_full)
 2008              		.loc 3 393 0
 2009 0916 7B6B     		ldr	r3, [r7, #52]
 2010 0918 9B68     		ldr	r3, [r3, #8]
 2011 091a FB62     		str	r3, [r7, #44]
 2012 091c 05E0     		b	.L112
 2013              	.L113:
 394:../../source/src/kernel/OS_LIB/malloc.c **** 			{
 395:../../source/src/kernel/OS_LIB/malloc.c **** 				++num;
 2014              		.loc 3 395 0 discriminator 3
 2015 091e BB6A     		ldr	r3, [r7, #40]
 2016 0920 0133     		adds	r3, r3, #1
 2017 0922 BB62     		str	r3, [r7, #40]
 393:../../source/src/kernel/OS_LIB/malloc.c **** 			list_for_each(buffer,&kmem_cache_ptr->slabs_full)
 2018              		.loc 3 393 0 discriminator 3
 2019 0924 FB6A     		ldr	r3, [r7, #44]
 2020 0926 1B68     		ldr	r3, [r3]
 2021 0928 FB62     		str	r3, [r7, #44]
 2022              	.L112:
 393:../../source/src/kernel/OS_LIB/malloc.c **** 			list_for_each(buffer,&kmem_cache_ptr->slabs_full)
 2023              		.loc 3 393 0 is_stmt 0 discriminator 1
 2024 092a 7B6B     		ldr	r3, [r7, #52]
 2025 092c 0833     		adds	r3, r3, #8
 2026 092e FA6A     		ldr	r2, [r7, #44]
 2027 0930 9A42     		cmp	r2, r3
 2028 0932 F4D1     		bne	.L113
 396:../../source/src/kernel/OS_LIB/malloc.c **** 			}
 397:../../source/src/kernel/OS_LIB/malloc.c **** 			ka_printf("chain slabs_full has %d slab\n",num);
 2029              		.loc 3 397 0 is_stmt 1
 2030 0934 B96A     		ldr	r1, [r7, #40]
ARM GAS  G:\Users\Jaxb\AppData\Local\Temp\ccZD0TjZ.s 			page 47


 2031 0936 3148     		ldr	r0, .L124+12
 2032 0938 FFF7FEFF 		bl	ka_printf
 2033              	.LBE17:
 2034 093c 02E0     		b	.L114
 2035              	.L111:
 398:../../source/src/kernel/OS_LIB/malloc.c **** 		}
 399:../../source/src/kernel/OS_LIB/malloc.c **** 		else
 400:../../source/src/kernel/OS_LIB/malloc.c **** 		{
 401:../../source/src/kernel/OS_LIB/malloc.c **** 			ka_printf("chain slabs_full is empty\n");
 2036              		.loc 3 401 0
 2037 093e 3048     		ldr	r0, .L124+16
 2038 0940 FFF7FEFF 		bl	ka_printf
 2039              	.L114:
 402:../../source/src/kernel/OS_LIB/malloc.c **** 		}
 403:../../source/src/kernel/OS_LIB/malloc.c **** 		if(!list_empty(&kmem_cache_ptr->slabs_partial))
 2040              		.loc 3 403 0
 2041 0944 7B6B     		ldr	r3, [r7, #52]
 2042 0946 1033     		adds	r3, r3, #16
 2043 0948 1846     		mov	r0, r3
 2044 094a FFF7BDFB 		bl	list_empty
 2045 094e 0346     		mov	r3, r0
 2046 0950 002B     		cmp	r3, #0
 2047 0952 15D1     		bne	.L115
 2048              	.LBB18:
 404:../../source/src/kernel/OS_LIB/malloc.c **** 		{
 405:../../source/src/kernel/OS_LIB/malloc.c **** 			struct list_head *buffer;
 406:../../source/src/kernel/OS_LIB/malloc.c **** 			int num = 0;
 2049              		.loc 3 406 0
 2050 0954 0023     		movs	r3, #0
 2051 0956 3B62     		str	r3, [r7, #32]
 407:../../source/src/kernel/OS_LIB/malloc.c **** 			list_for_each(buffer,&kmem_cache_ptr->slabs_partial)
 2052              		.loc 3 407 0
 2053 0958 7B6B     		ldr	r3, [r7, #52]
 2054 095a 1B69     		ldr	r3, [r3, #16]
 2055 095c 7B62     		str	r3, [r7, #36]
 2056 095e 05E0     		b	.L116
 2057              	.L117:
 408:../../source/src/kernel/OS_LIB/malloc.c **** 			{
 409:../../source/src/kernel/OS_LIB/malloc.c **** 				++num;
 2058              		.loc 3 409 0 discriminator 3
 2059 0960 3B6A     		ldr	r3, [r7, #32]
 2060 0962 0133     		adds	r3, r3, #1
 2061 0964 3B62     		str	r3, [r7, #32]
 407:../../source/src/kernel/OS_LIB/malloc.c **** 			list_for_each(buffer,&kmem_cache_ptr->slabs_partial)
 2062              		.loc 3 407 0 discriminator 3
 2063 0966 7B6A     		ldr	r3, [r7, #36]
 2064 0968 1B68     		ldr	r3, [r3]
 2065 096a 7B62     		str	r3, [r7, #36]
 2066              	.L116:
 407:../../source/src/kernel/OS_LIB/malloc.c **** 			list_for_each(buffer,&kmem_cache_ptr->slabs_partial)
 2067              		.loc 3 407 0 is_stmt 0 discriminator 1
 2068 096c 7B6B     		ldr	r3, [r7, #52]
 2069 096e 1033     		adds	r3, r3, #16
 2070 0970 7A6A     		ldr	r2, [r7, #36]
 2071 0972 9A42     		cmp	r2, r3
 2072 0974 F4D1     		bne	.L117
 410:../../source/src/kernel/OS_LIB/malloc.c **** 			}
ARM GAS  G:\Users\Jaxb\AppData\Local\Temp\ccZD0TjZ.s 			page 48


 411:../../source/src/kernel/OS_LIB/malloc.c **** 			ka_printf("chain slabs_partial has %d slab\n",num);
 2073              		.loc 3 411 0 is_stmt 1
 2074 0976 396A     		ldr	r1, [r7, #32]
 2075 0978 2248     		ldr	r0, .L124+20
 2076 097a FFF7FEFF 		bl	ka_printf
 2077              	.LBE18:
 2078 097e 02E0     		b	.L118
 2079              	.L115:
 412:../../source/src/kernel/OS_LIB/malloc.c **** 		}
 413:../../source/src/kernel/OS_LIB/malloc.c **** 		else
 414:../../source/src/kernel/OS_LIB/malloc.c **** 		{
 415:../../source/src/kernel/OS_LIB/malloc.c **** 			ka_printf("chain slabs_partial is empty\n");
 2080              		.loc 3 415 0
 2081 0980 2148     		ldr	r0, .L124+24
 2082 0982 FFF7FEFF 		bl	ka_printf
 2083              	.L118:
 416:../../source/src/kernel/OS_LIB/malloc.c **** 		}
 417:../../source/src/kernel/OS_LIB/malloc.c **** 		if(!list_empty(&kmem_cache_ptr->slabs_empty))
 2084              		.loc 3 417 0
 2085 0986 7B6B     		ldr	r3, [r7, #52]
 2086 0988 1833     		adds	r3, r3, #24
 2087 098a 1846     		mov	r0, r3
 2088 098c FFF79CFB 		bl	list_empty
 2089 0990 0346     		mov	r3, r0
 2090 0992 002B     		cmp	r3, #0
 2091 0994 15D1     		bne	.L119
 2092              	.LBB19:
 418:../../source/src/kernel/OS_LIB/malloc.c **** 		{
 419:../../source/src/kernel/OS_LIB/malloc.c **** 			struct list_head *buffer;
 420:../../source/src/kernel/OS_LIB/malloc.c **** 			int num = 0;
 2093              		.loc 3 420 0
 2094 0996 0023     		movs	r3, #0
 2095 0998 BB61     		str	r3, [r7, #24]
 421:../../source/src/kernel/OS_LIB/malloc.c **** 			list_for_each(buffer,&kmem_cache_ptr->slabs_empty)
 2096              		.loc 3 421 0
 2097 099a 7B6B     		ldr	r3, [r7, #52]
 2098 099c 9B69     		ldr	r3, [r3, #24]
 2099 099e FB61     		str	r3, [r7, #28]
 2100 09a0 05E0     		b	.L120
 2101              	.L121:
 422:../../source/src/kernel/OS_LIB/malloc.c **** 			{
 423:../../source/src/kernel/OS_LIB/malloc.c **** 				++num;
 2102              		.loc 3 423 0 discriminator 3
 2103 09a2 BB69     		ldr	r3, [r7, #24]
 2104 09a4 0133     		adds	r3, r3, #1
 2105 09a6 BB61     		str	r3, [r7, #24]
 421:../../source/src/kernel/OS_LIB/malloc.c **** 			list_for_each(buffer,&kmem_cache_ptr->slabs_empty)
 2106              		.loc 3 421 0 discriminator 3
 2107 09a8 FB69     		ldr	r3, [r7, #28]
 2108 09aa 1B68     		ldr	r3, [r3]
 2109 09ac FB61     		str	r3, [r7, #28]
 2110              	.L120:
 421:../../source/src/kernel/OS_LIB/malloc.c **** 			list_for_each(buffer,&kmem_cache_ptr->slabs_empty)
 2111              		.loc 3 421 0 is_stmt 0 discriminator 1
 2112 09ae 7B6B     		ldr	r3, [r7, #52]
 2113 09b0 1833     		adds	r3, r3, #24
 2114 09b2 FA69     		ldr	r2, [r7, #28]
ARM GAS  G:\Users\Jaxb\AppData\Local\Temp\ccZD0TjZ.s 			page 49


 2115 09b4 9A42     		cmp	r2, r3
 2116 09b6 F4D1     		bne	.L121
 424:../../source/src/kernel/OS_LIB/malloc.c **** 			}
 425:../../source/src/kernel/OS_LIB/malloc.c **** 			ka_printf("chain slabs_empty has %d slab\n",num);
 2117              		.loc 3 425 0 is_stmt 1
 2118 09b8 B969     		ldr	r1, [r7, #24]
 2119 09ba 1448     		ldr	r0, .L124+28
 2120 09bc FFF7FEFF 		bl	ka_printf
 2121              	.LBE19:
 2122 09c0 02E0     		b	.L122
 2123              	.L119:
 426:../../source/src/kernel/OS_LIB/malloc.c **** 		}
 427:../../source/src/kernel/OS_LIB/malloc.c **** 		else
 428:../../source/src/kernel/OS_LIB/malloc.c **** 		{
 429:../../source/src/kernel/OS_LIB/malloc.c **** 			ka_printf("chain slabs_empty is empty\n");
 2124              		.loc 3 429 0
 2125 09c2 1348     		ldr	r0, .L124+32
 2126 09c4 FFF7FEFF 		bl	ka_printf
 2127              	.L122:
 430:../../source/src/kernel/OS_LIB/malloc.c **** 		}
 431:../../source/src/kernel/OS_LIB/malloc.c **** 		ka_printf("\n");
 2128              		.loc 3 431 0 discriminator 2
 2129 09c8 1248     		ldr	r0, .L124+36
 2130 09ca FFF7FEFF 		bl	ka_printf
 2131              	.LBB20:
 385:../../source/src/kernel/OS_LIB/malloc.c **** 	{
 2132              		.loc 3 385 0 discriminator 2
 2133 09ce 7B6B     		ldr	r3, [r7, #52]
 2134 09d0 1B68     		ldr	r3, [r3]
 2135 09d2 FB60     		str	r3, [r7, #12]
 2136 09d4 FB68     		ldr	r3, [r7, #12]
 2137              	.LBE20:
 2138 09d6 7B63     		str	r3, [r7, #52]
 2139              	.L110:
 385:../../source/src/kernel/OS_LIB/malloc.c **** 	{
 2140              		.loc 3 385 0 is_stmt 0 discriminator 1
 2141 09d8 7B6B     		ldr	r3, [r7, #52]
 2142 09da 054A     		ldr	r2, .L124
 2143 09dc 9342     		cmp	r3, r2
 2144 09de 83D1     		bne	.L123
 432:../../source/src/kernel/OS_LIB/malloc.c **** 	}
 433:../../source/src/kernel/OS_LIB/malloc.c **** 	CPU_CRITICAL_EXIT();
 2145              		.loc 3 433 0 is_stmt 1
 2146 09e0 7869     		ldr	r0, [r7, #20]
 2147 09e2 FFF7FEFF 		bl	CPU_SR_Restore
 434:../../source/src/kernel/OS_LIB/malloc.c **** }
 2148              		.loc 3 434 0
 2149 09e6 00BF     		nop
 2150 09e8 3837     		adds	r7, r7, #56
 2151              	.LCFI91:
 2152              		.cfi_def_cfa_offset 8
 2153 09ea BD46     		mov	sp, r7
 2154              	.LCFI92:
 2155              		.cfi_def_cfa_register 13
 2156              		@ sp needed
 2157 09ec 80BD     		pop	{r7, pc}
 2158              	.L125:
ARM GAS  G:\Users\Jaxb\AppData\Local\Temp\ccZD0TjZ.s 			page 50


 2159 09ee 00BF     		.align	2
 2160              	.L124:
 2161 09f0 00000000 		.word	cache_chain_head
 2162 09f4 D0000000 		.word	.LC8
 2163 09f8 F8000000 		.word	.LC9
 2164 09fc 1C010000 		.word	.LC10
 2165 0a00 3C010000 		.word	.LC11
 2166 0a04 58010000 		.word	.LC12
 2167 0a08 7C010000 		.word	.LC13
 2168 0a0c 9C010000 		.word	.LC14
 2169 0a10 BC010000 		.word	.LC15
 2170 0a14 D8010000 		.word	.LC16
 2171              		.cfi_endproc
 2172              	.LFE25:
 2173              		.size	shell_check_kmem, .-shell_check_kmem
 2174              		.section	.rodata
 2175 01da 0000     		.align	2
 2176              	.LC17:
 2177 01dc 696E2063 		.ascii	"in chain slabs_full\012\000"
 2177      6861696E 
 2177      20736C61 
 2177      62735F66 
 2177      756C6C0A 
 2178 01f1 000000   		.align	2
 2179              	.LC18:
 2180 01f4 74686520 		.ascii	"the NO.%d slab information:\012\000"
 2180      4E4F2E25 
 2180      6420736C 
 2180      61622069 
 2180      6E666F72 
 2181 0211 000000   		.align	2
 2182              	.LC19:
 2183 0214 73746172 		.ascii	"start_ptr is %x\012\000"
 2183      745F7074 
 2183      72206973 
 2183      2025780A 
 2183      00
 2184 0225 000000   		.align	2
 2185              	.LC20:
 2186 0228 656E645F 		.ascii	"end_ptr is %x\012\000"
 2186      70747220 
 2186      69732025 
 2186      780A00
 2187 0237 00       		.align	2
 2188              	.LC21:
 2189 0238 63757272 		.ascii	"current_block_num is %d\012\000"
 2189      656E745F 
 2189      626C6F63 
 2189      6B5F6E75 
 2189      6D206973 
 2190 0251 000000   		.align	2
 2191              	.LC22:
 2192 0254 66756C6C 		.ascii	"full_block_num is %d\012\000"
 2192      5F626C6F 
 2192      636B5F6E 
 2192      756D2069 
 2192      73202564 
ARM GAS  G:\Users\Jaxb\AppData\Local\Temp\ccZD0TjZ.s 			page 51


 2193 026a 0000     		.align	2
 2194              	.LC23:
 2195 026c 626C6F63 		.ascii	"block_size is %d\012\000"
 2195      6B5F7369 
 2195      7A652069 
 2195      73202564 
 2195      0A00
 2196 027e 0000     		.align	2
 2197              	.LC24:
 2198 0280 696E2063 		.ascii	"in chain slabs_partial\012\000"
 2198      6861696E 
 2198      20736C61 
 2198      62735F70 
 2198      61727469 
 2199              		.align	2
 2200              	.LC25:
 2201 0298 696E2063 		.ascii	"in chain slabs_empty\012\000"
 2201      6861696E 
 2201      20736C61 
 2201      62735F65 
 2201      6D707479 
 2202              		.text
 2203              		.align	1
 2204              		.global	shell_check_slab
 2205              		.syntax unified
 2206              		.thumb
 2207              		.thumb_func
 2208              		.fpu softvfp
 2209              		.type	shell_check_slab, %function
 2210              	shell_check_slab:
 2211              	.LFB26:
 435:../../source/src/kernel/OS_LIB/malloc.c **** #endif
 436:../../source/src/kernel/OS_LIB/malloc.c **** 
 437:../../source/src/kernel/OS_LIB/malloc.c **** #if CONFIG_SHELL_EN
 438:../../source/src/kernel/OS_LIB/malloc.c **** void shell_check_slab(int argc, char const *argv[])
 439:../../source/src/kernel/OS_LIB/malloc.c **** {
 2212              		.loc 3 439 0
 2213              		.cfi_startproc
 2214              		@ args = 0, pretend = 0, frame = 72
 2215              		@ frame_needed = 1, uses_anonymous_args = 0
 2216 0a18 80B5     		push	{r7, lr}
 2217              	.LCFI93:
 2218              		.cfi_def_cfa_offset 8
 2219              		.cfi_offset 7, -8
 2220              		.cfi_offset 14, -4
 2221 0a1a 92B0     		sub	sp, sp, #72
 2222              	.LCFI94:
 2223              		.cfi_def_cfa_offset 80
 2224 0a1c 00AF     		add	r7, sp, #0
 2225              	.LCFI95:
 2226              		.cfi_def_cfa_register 7
 2227 0a1e 7860     		str	r0, [r7, #4]
 2228 0a20 3960     		str	r1, [r7]
 440:../../source/src/kernel/OS_LIB/malloc.c **** 	(void)argc;
 441:../../source/src/kernel/OS_LIB/malloc.c **** 	(void)argv;
 442:../../source/src/kernel/OS_LIB/malloc.c **** 	struct kmem_cache *kmem_cache_ptr;
 443:../../source/src/kernel/OS_LIB/malloc.c **** 	int i = 0;
ARM GAS  G:\Users\Jaxb\AppData\Local\Temp\ccZD0TjZ.s 			page 52


 2229              		.loc 3 443 0
 2230 0a22 0023     		movs	r3, #0
 2231 0a24 3B64     		str	r3, [r7, #64]
 444:../../source/src/kernel/OS_LIB/malloc.c **** 	struct slab *slab_ptr;
 445:../../source/src/kernel/OS_LIB/malloc.c **** 	CPU_SR_ALLOC();
 2232              		.loc 3 445 0
 2233 0a26 0023     		movs	r3, #0
 2234 0a28 7B62     		str	r3, [r7, #36]
 446:../../source/src/kernel/OS_LIB/malloc.c **** 	CPU_CRITICAL_ENTER();
 2235              		.loc 3 446 0
 2236 0a2a FFF7FEFF 		bl	CPU_SR_Save
 2237 0a2e 7862     		str	r0, [r7, #36]
 2238              	.LBB21:
 447:../../source/src/kernel/OS_LIB/malloc.c **** 	singly_list_for_each_entry(kmem_cache_ptr, &cache_chain_head, node)
 2239              		.loc 3 447 0
 2240 0a30 8B4B     		ldr	r3, .L141
 2241 0a32 1B68     		ldr	r3, [r3]
 2242 0a34 3B62     		str	r3, [r7, #32]
 2243 0a36 3B6A     		ldr	r3, [r7, #32]
 2244              	.LBE21:
 2245 0a38 7B64     		str	r3, [r7, #68]
 2246 0a3a 04E1     		b	.L127
 2247              	.L140:
 448:../../source/src/kernel/OS_LIB/malloc.c **** 	{
 449:../../source/src/kernel/OS_LIB/malloc.c **** 		ka_printf("===========get NO.%d kmem===========\n",++i);
 2248              		.loc 3 449 0
 2249 0a3c 3B6C     		ldr	r3, [r7, #64]
 2250 0a3e 0133     		adds	r3, r3, #1
 2251 0a40 3B64     		str	r3, [r7, #64]
 2252 0a42 396C     		ldr	r1, [r7, #64]
 2253 0a44 8748     		ldr	r0, .L141+4
 2254 0a46 FFF7FEFF 		bl	ka_printf
 450:../../source/src/kernel/OS_LIB/malloc.c **** 		ka_printf("the size of this kmem_cache is %u\n",kmem_cache_ptr->kmem_cache_slab_size);
 2255              		.loc 3 450 0
 2256 0a4a 7B6C     		ldr	r3, [r7, #68]
 2257 0a4c 5B68     		ldr	r3, [r3, #4]
 2258 0a4e 1946     		mov	r1, r3
 2259 0a50 8548     		ldr	r0, .L141+8
 2260 0a52 FFF7FEFF 		bl	ka_printf
 451:../../source/src/kernel/OS_LIB/malloc.c **** 		if(!list_empty(&kmem_cache_ptr->slabs_full))
 2261              		.loc 3 451 0
 2262 0a56 7B6C     		ldr	r3, [r7, #68]
 2263 0a58 0833     		adds	r3, r3, #8
 2264 0a5a 1846     		mov	r0, r3
 2265 0a5c FFF734FB 		bl	list_empty
 2266 0a60 0346     		mov	r3, r0
 2267 0a62 002B     		cmp	r3, #0
 2268 0a64 42D1     		bne	.L128
 2269              	.LBB22:
 452:../../source/src/kernel/OS_LIB/malloc.c **** 		{
 453:../../source/src/kernel/OS_LIB/malloc.c **** 			struct list_head *buffer;
 454:../../source/src/kernel/OS_LIB/malloc.c **** 			int num = 0;
 2270              		.loc 3 454 0
 2271 0a66 0023     		movs	r3, #0
 2272 0a68 BB63     		str	r3, [r7, #56]
 455:../../source/src/kernel/OS_LIB/malloc.c **** 			ka_printf("in chain slabs_full\n");
 2273              		.loc 3 455 0
ARM GAS  G:\Users\Jaxb\AppData\Local\Temp\ccZD0TjZ.s 			page 53


 2274 0a6a 8048     		ldr	r0, .L141+12
 2275 0a6c FFF7FEFF 		bl	ka_printf
 456:../../source/src/kernel/OS_LIB/malloc.c **** 			list_for_each(buffer,&kmem_cache_ptr->slabs_full)
 2276              		.loc 3 456 0
 2277 0a70 7B6C     		ldr	r3, [r7, #68]
 2278 0a72 9B68     		ldr	r3, [r3, #8]
 2279 0a74 FB63     		str	r3, [r7, #60]
 2280 0a76 2FE0     		b	.L129
 2281              	.L130:
 457:../../source/src/kernel/OS_LIB/malloc.c **** 			{
 458:../../source/src/kernel/OS_LIB/malloc.c **** 				ka_printf("the NO.%d slab information:\n",++num);
 2282              		.loc 3 458 0 discriminator 3
 2283 0a78 BB6B     		ldr	r3, [r7, #56]
 2284 0a7a 0133     		adds	r3, r3, #1
 2285 0a7c BB63     		str	r3, [r7, #56]
 2286 0a7e B96B     		ldr	r1, [r7, #56]
 2287 0a80 7B48     		ldr	r0, .L141+16
 2288 0a82 FFF7FEFF 		bl	ka_printf
 2289              	.LBB23:
 459:../../source/src/kernel/OS_LIB/malloc.c **** 				slab_ptr = list_entry(buffer,struct slab,slab_chain);
 2290              		.loc 3 459 0 discriminator 3
 2291 0a86 FB6B     		ldr	r3, [r7, #60]
 2292 0a88 FB61     		str	r3, [r7, #28]
 2293 0a8a FB69     		ldr	r3, [r7, #28]
 2294 0a8c 143B     		subs	r3, r3, #20
 2295              	.LBE23:
 2296 0a8e BB61     		str	r3, [r7, #24]
 460:../../source/src/kernel/OS_LIB/malloc.c **** 				ka_printf("start_ptr is %x\n",(int)slab_ptr->start_ptr);
 2297              		.loc 3 460 0 discriminator 3
 2298 0a90 BB69     		ldr	r3, [r7, #24]
 2299 0a92 1B68     		ldr	r3, [r3]
 2300 0a94 1946     		mov	r1, r3
 2301 0a96 7748     		ldr	r0, .L141+20
 2302 0a98 FFF7FEFF 		bl	ka_printf
 461:../../source/src/kernel/OS_LIB/malloc.c **** 				ka_printf("end_ptr is %x\n",(int)slab_ptr->end_ptr);
 2303              		.loc 3 461 0 discriminator 3
 2304 0a9c BB69     		ldr	r3, [r7, #24]
 2305 0a9e 5B68     		ldr	r3, [r3, #4]
 2306 0aa0 1946     		mov	r1, r3
 2307 0aa2 7548     		ldr	r0, .L141+24
 2308 0aa4 FFF7FEFF 		bl	ka_printf
 462:../../source/src/kernel/OS_LIB/malloc.c **** 				ka_printf("current_block_num is %d\n",slab_ptr->current_block_num);
 2309              		.loc 3 462 0 discriminator 3
 2310 0aa8 BB69     		ldr	r3, [r7, #24]
 2311 0aaa 9B68     		ldr	r3, [r3, #8]
 2312 0aac 1946     		mov	r1, r3
 2313 0aae 7348     		ldr	r0, .L141+28
 2314 0ab0 FFF7FEFF 		bl	ka_printf
 463:../../source/src/kernel/OS_LIB/malloc.c **** 				ka_printf("full_block_num is %d\n",slab_ptr->full_block_num);
 2315              		.loc 3 463 0 discriminator 3
 2316 0ab4 BB69     		ldr	r3, [r7, #24]
 2317 0ab6 DB68     		ldr	r3, [r3, #12]
 2318 0ab8 1946     		mov	r1, r3
 2319 0aba 7148     		ldr	r0, .L141+32
 2320 0abc FFF7FEFF 		bl	ka_printf
 464:../../source/src/kernel/OS_LIB/malloc.c **** 				ka_printf("block_size is %d\n",slab_ptr->block_size);
 2321              		.loc 3 464 0 discriminator 3
ARM GAS  G:\Users\Jaxb\AppData\Local\Temp\ccZD0TjZ.s 			page 54


 2322 0ac0 BB69     		ldr	r3, [r7, #24]
 2323 0ac2 1B69     		ldr	r3, [r3, #16]
 2324 0ac4 1946     		mov	r1, r3
 2325 0ac6 6F48     		ldr	r0, .L141+36
 2326 0ac8 FFF7FEFF 		bl	ka_printf
 465:../../source/src/kernel/OS_LIB/malloc.c **** 				ka_printf("\n");
 2327              		.loc 3 465 0 discriminator 3
 2328 0acc 6E48     		ldr	r0, .L141+40
 2329 0ace FFF7FEFF 		bl	ka_printf
 456:../../source/src/kernel/OS_LIB/malloc.c **** 			{
 2330              		.loc 3 456 0 discriminator 3
 2331 0ad2 FB6B     		ldr	r3, [r7, #60]
 2332 0ad4 1B68     		ldr	r3, [r3]
 2333 0ad6 FB63     		str	r3, [r7, #60]
 2334              	.L129:
 456:../../source/src/kernel/OS_LIB/malloc.c **** 			{
 2335              		.loc 3 456 0 is_stmt 0 discriminator 1
 2336 0ad8 7B6C     		ldr	r3, [r7, #68]
 2337 0ada 0833     		adds	r3, r3, #8
 2338 0adc FA6B     		ldr	r2, [r7, #60]
 2339 0ade 9A42     		cmp	r2, r3
 2340 0ae0 CAD1     		bne	.L130
 466:../../source/src/kernel/OS_LIB/malloc.c **** 			}
 467:../../source/src/kernel/OS_LIB/malloc.c **** 			ka_printf("chain slabs_full has %d slab\n",num);
 2341              		.loc 3 467 0 is_stmt 1
 2342 0ae2 B96B     		ldr	r1, [r7, #56]
 2343 0ae4 6948     		ldr	r0, .L141+44
 2344 0ae6 FFF7FEFF 		bl	ka_printf
 2345              	.LBE22:
 2346 0aea 02E0     		b	.L131
 2347              	.L128:
 468:../../source/src/kernel/OS_LIB/malloc.c **** 		}
 469:../../source/src/kernel/OS_LIB/malloc.c **** 		else
 470:../../source/src/kernel/OS_LIB/malloc.c **** 		{
 471:../../source/src/kernel/OS_LIB/malloc.c **** 			ka_printf("chain slabs_full is empty\n");
 2348              		.loc 3 471 0
 2349 0aec 6848     		ldr	r0, .L141+48
 2350 0aee FFF7FEFF 		bl	ka_printf
 2351              	.L131:
 472:../../source/src/kernel/OS_LIB/malloc.c **** 		}
 473:../../source/src/kernel/OS_LIB/malloc.c **** 		ka_printf("\n");
 2352              		.loc 3 473 0
 2353 0af2 6548     		ldr	r0, .L141+40
 2354 0af4 FFF7FEFF 		bl	ka_printf
 474:../../source/src/kernel/OS_LIB/malloc.c **** 		if(!list_empty(&kmem_cache_ptr->slabs_partial))
 2355              		.loc 3 474 0
 2356 0af8 7B6C     		ldr	r3, [r7, #68]
 2357 0afa 1033     		adds	r3, r3, #16
 2358 0afc 1846     		mov	r0, r3
 2359 0afe FFF7E3FA 		bl	list_empty
 2360 0b02 0346     		mov	r3, r0
 2361 0b04 002B     		cmp	r3, #0
 2362 0b06 42D1     		bne	.L132
 2363              	.LBB24:
 475:../../source/src/kernel/OS_LIB/malloc.c **** 		{
 476:../../source/src/kernel/OS_LIB/malloc.c **** 			struct list_head *buffer;
 477:../../source/src/kernel/OS_LIB/malloc.c **** 			int num = 0;
ARM GAS  G:\Users\Jaxb\AppData\Local\Temp\ccZD0TjZ.s 			page 55


 2364              		.loc 3 477 0
 2365 0b08 0023     		movs	r3, #0
 2366 0b0a 3B63     		str	r3, [r7, #48]
 478:../../source/src/kernel/OS_LIB/malloc.c **** 			ka_printf("in chain slabs_partial\n");
 2367              		.loc 3 478 0
 2368 0b0c 6148     		ldr	r0, .L141+52
 2369 0b0e FFF7FEFF 		bl	ka_printf
 479:../../source/src/kernel/OS_LIB/malloc.c **** 			list_for_each(buffer,&kmem_cache_ptr->slabs_partial)
 2370              		.loc 3 479 0
 2371 0b12 7B6C     		ldr	r3, [r7, #68]
 2372 0b14 1B69     		ldr	r3, [r3, #16]
 2373 0b16 7B63     		str	r3, [r7, #52]
 2374 0b18 2FE0     		b	.L133
 2375              	.L134:
 480:../../source/src/kernel/OS_LIB/malloc.c **** 			{
 481:../../source/src/kernel/OS_LIB/malloc.c **** 				ka_printf("the NO.%d slab information:\n",++num);
 2376              		.loc 3 481 0 discriminator 3
 2377 0b1a 3B6B     		ldr	r3, [r7, #48]
 2378 0b1c 0133     		adds	r3, r3, #1
 2379 0b1e 3B63     		str	r3, [r7, #48]
 2380 0b20 396B     		ldr	r1, [r7, #48]
 2381 0b22 5348     		ldr	r0, .L141+16
 2382 0b24 FFF7FEFF 		bl	ka_printf
 2383              	.LBB25:
 482:../../source/src/kernel/OS_LIB/malloc.c **** 				slab_ptr = list_entry(buffer,struct slab,slab_chain);
 2384              		.loc 3 482 0 discriminator 3
 2385 0b28 7B6B     		ldr	r3, [r7, #52]
 2386 0b2a 7B61     		str	r3, [r7, #20]
 2387 0b2c 7B69     		ldr	r3, [r7, #20]
 2388 0b2e 143B     		subs	r3, r3, #20
 2389              	.LBE25:
 2390 0b30 BB61     		str	r3, [r7, #24]
 483:../../source/src/kernel/OS_LIB/malloc.c **** 				ka_printf("start_ptr is %x\n",(int)slab_ptr->start_ptr);
 2391              		.loc 3 483 0 discriminator 3
 2392 0b32 BB69     		ldr	r3, [r7, #24]
 2393 0b34 1B68     		ldr	r3, [r3]
 2394 0b36 1946     		mov	r1, r3
 2395 0b38 4E48     		ldr	r0, .L141+20
 2396 0b3a FFF7FEFF 		bl	ka_printf
 484:../../source/src/kernel/OS_LIB/malloc.c **** 				ka_printf("end_ptr is %x\n",(int)slab_ptr->end_ptr);
 2397              		.loc 3 484 0 discriminator 3
 2398 0b3e BB69     		ldr	r3, [r7, #24]
 2399 0b40 5B68     		ldr	r3, [r3, #4]
 2400 0b42 1946     		mov	r1, r3
 2401 0b44 4C48     		ldr	r0, .L141+24
 2402 0b46 FFF7FEFF 		bl	ka_printf
 485:../../source/src/kernel/OS_LIB/malloc.c **** 				ka_printf("current_block_num is %d\n",slab_ptr->current_block_num);
 2403              		.loc 3 485 0 discriminator 3
 2404 0b4a BB69     		ldr	r3, [r7, #24]
 2405 0b4c 9B68     		ldr	r3, [r3, #8]
 2406 0b4e 1946     		mov	r1, r3
 2407 0b50 4A48     		ldr	r0, .L141+28
 2408 0b52 FFF7FEFF 		bl	ka_printf
 486:../../source/src/kernel/OS_LIB/malloc.c **** 				ka_printf("full_block_num is %d\n",slab_ptr->full_block_num);
 2409              		.loc 3 486 0 discriminator 3
 2410 0b56 BB69     		ldr	r3, [r7, #24]
 2411 0b58 DB68     		ldr	r3, [r3, #12]
ARM GAS  G:\Users\Jaxb\AppData\Local\Temp\ccZD0TjZ.s 			page 56


 2412 0b5a 1946     		mov	r1, r3
 2413 0b5c 4848     		ldr	r0, .L141+32
 2414 0b5e FFF7FEFF 		bl	ka_printf
 487:../../source/src/kernel/OS_LIB/malloc.c **** 				ka_printf("block_size is %d\n",slab_ptr->block_size);
 2415              		.loc 3 487 0 discriminator 3
 2416 0b62 BB69     		ldr	r3, [r7, #24]
 2417 0b64 1B69     		ldr	r3, [r3, #16]
 2418 0b66 1946     		mov	r1, r3
 2419 0b68 4648     		ldr	r0, .L141+36
 2420 0b6a FFF7FEFF 		bl	ka_printf
 488:../../source/src/kernel/OS_LIB/malloc.c **** 				ka_printf("\n");
 2421              		.loc 3 488 0 discriminator 3
 2422 0b6e 4648     		ldr	r0, .L141+40
 2423 0b70 FFF7FEFF 		bl	ka_printf
 479:../../source/src/kernel/OS_LIB/malloc.c **** 			{
 2424              		.loc 3 479 0 discriminator 3
 2425 0b74 7B6B     		ldr	r3, [r7, #52]
 2426 0b76 1B68     		ldr	r3, [r3]
 2427 0b78 7B63     		str	r3, [r7, #52]
 2428              	.L133:
 479:../../source/src/kernel/OS_LIB/malloc.c **** 			{
 2429              		.loc 3 479 0 is_stmt 0 discriminator 1
 2430 0b7a 7B6C     		ldr	r3, [r7, #68]
 2431 0b7c 1033     		adds	r3, r3, #16
 2432 0b7e 7A6B     		ldr	r2, [r7, #52]
 2433 0b80 9A42     		cmp	r2, r3
 2434 0b82 CAD1     		bne	.L134
 489:../../source/src/kernel/OS_LIB/malloc.c **** 			}
 490:../../source/src/kernel/OS_LIB/malloc.c **** 			ka_printf("chain slabs_partial has %d slab\n",num);
 2435              		.loc 3 490 0 is_stmt 1
 2436 0b84 396B     		ldr	r1, [r7, #48]
 2437 0b86 4448     		ldr	r0, .L141+56
 2438 0b88 FFF7FEFF 		bl	ka_printf
 2439              	.LBE24:
 2440 0b8c 02E0     		b	.L135
 2441              	.L132:
 491:../../source/src/kernel/OS_LIB/malloc.c **** 		}
 492:../../source/src/kernel/OS_LIB/malloc.c **** 		else
 493:../../source/src/kernel/OS_LIB/malloc.c **** 		{
 494:../../source/src/kernel/OS_LIB/malloc.c **** 			ka_printf("chain slabs_partial is empty\n");
 2442              		.loc 3 494 0
 2443 0b8e 4348     		ldr	r0, .L141+60
 2444 0b90 FFF7FEFF 		bl	ka_printf
 2445              	.L135:
 495:../../source/src/kernel/OS_LIB/malloc.c **** 		}
 496:../../source/src/kernel/OS_LIB/malloc.c **** 		ka_printf("\n");
 2446              		.loc 3 496 0
 2447 0b94 3C48     		ldr	r0, .L141+40
 2448 0b96 FFF7FEFF 		bl	ka_printf
 497:../../source/src/kernel/OS_LIB/malloc.c **** 		if(!list_empty(&kmem_cache_ptr->slabs_empty))
 2449              		.loc 3 497 0
 2450 0b9a 7B6C     		ldr	r3, [r7, #68]
 2451 0b9c 1833     		adds	r3, r3, #24
 2452 0b9e 1846     		mov	r0, r3
 2453 0ba0 FFF792FA 		bl	list_empty
 2454 0ba4 0346     		mov	r3, r0
 2455 0ba6 002B     		cmp	r3, #0
ARM GAS  G:\Users\Jaxb\AppData\Local\Temp\ccZD0TjZ.s 			page 57


 2456 0ba8 42D1     		bne	.L136
 2457              	.LBB26:
 498:../../source/src/kernel/OS_LIB/malloc.c **** 		{
 499:../../source/src/kernel/OS_LIB/malloc.c **** 			struct list_head *buffer;
 500:../../source/src/kernel/OS_LIB/malloc.c **** 			int num = 0;
 2458              		.loc 3 500 0
 2459 0baa 0023     		movs	r3, #0
 2460 0bac BB62     		str	r3, [r7, #40]
 501:../../source/src/kernel/OS_LIB/malloc.c **** 			ka_printf("in chain slabs_empty\n");
 2461              		.loc 3 501 0
 2462 0bae 3C48     		ldr	r0, .L141+64
 2463 0bb0 FFF7FEFF 		bl	ka_printf
 502:../../source/src/kernel/OS_LIB/malloc.c **** 			list_for_each(buffer,&kmem_cache_ptr->slabs_empty)
 2464              		.loc 3 502 0
 2465 0bb4 7B6C     		ldr	r3, [r7, #68]
 2466 0bb6 9B69     		ldr	r3, [r3, #24]
 2467 0bb8 FB62     		str	r3, [r7, #44]
 2468 0bba 2FE0     		b	.L137
 2469              	.L138:
 503:../../source/src/kernel/OS_LIB/malloc.c **** 			{
 504:../../source/src/kernel/OS_LIB/malloc.c **** 				ka_printf("the NO.%d slab information:\n",++num);
 2470              		.loc 3 504 0 discriminator 3
 2471 0bbc BB6A     		ldr	r3, [r7, #40]
 2472 0bbe 0133     		adds	r3, r3, #1
 2473 0bc0 BB62     		str	r3, [r7, #40]
 2474 0bc2 B96A     		ldr	r1, [r7, #40]
 2475 0bc4 2A48     		ldr	r0, .L141+16
 2476 0bc6 FFF7FEFF 		bl	ka_printf
 2477              	.LBB27:
 505:../../source/src/kernel/OS_LIB/malloc.c **** 				slab_ptr = list_entry(buffer,struct slab,slab_chain);
 2478              		.loc 3 505 0 discriminator 3
 2479 0bca FB6A     		ldr	r3, [r7, #44]
 2480 0bcc 3B61     		str	r3, [r7, #16]
 2481 0bce 3B69     		ldr	r3, [r7, #16]
 2482 0bd0 143B     		subs	r3, r3, #20
 2483              	.LBE27:
 2484 0bd2 BB61     		str	r3, [r7, #24]
 506:../../source/src/kernel/OS_LIB/malloc.c **** 				ka_printf("start_ptr is %x\n",(int)slab_ptr->start_ptr);
 2485              		.loc 3 506 0 discriminator 3
 2486 0bd4 BB69     		ldr	r3, [r7, #24]
 2487 0bd6 1B68     		ldr	r3, [r3]
 2488 0bd8 1946     		mov	r1, r3
 2489 0bda 2648     		ldr	r0, .L141+20
 2490 0bdc FFF7FEFF 		bl	ka_printf
 507:../../source/src/kernel/OS_LIB/malloc.c **** 				ka_printf("end_ptr is %x\n",(int)slab_ptr->end_ptr);
 2491              		.loc 3 507 0 discriminator 3
 2492 0be0 BB69     		ldr	r3, [r7, #24]
 2493 0be2 5B68     		ldr	r3, [r3, #4]
 2494 0be4 1946     		mov	r1, r3
 2495 0be6 2448     		ldr	r0, .L141+24
 2496 0be8 FFF7FEFF 		bl	ka_printf
 508:../../source/src/kernel/OS_LIB/malloc.c **** 				ka_printf("current_block_num is %d\n",slab_ptr->current_block_num);
 2497              		.loc 3 508 0 discriminator 3
 2498 0bec BB69     		ldr	r3, [r7, #24]
 2499 0bee 9B68     		ldr	r3, [r3, #8]
 2500 0bf0 1946     		mov	r1, r3
 2501 0bf2 2248     		ldr	r0, .L141+28
ARM GAS  G:\Users\Jaxb\AppData\Local\Temp\ccZD0TjZ.s 			page 58


 2502 0bf4 FFF7FEFF 		bl	ka_printf
 509:../../source/src/kernel/OS_LIB/malloc.c **** 				ka_printf("full_block_num is %d\n",slab_ptr->full_block_num);
 2503              		.loc 3 509 0 discriminator 3
 2504 0bf8 BB69     		ldr	r3, [r7, #24]
 2505 0bfa DB68     		ldr	r3, [r3, #12]
 2506 0bfc 1946     		mov	r1, r3
 2507 0bfe 2048     		ldr	r0, .L141+32
 2508 0c00 FFF7FEFF 		bl	ka_printf
 510:../../source/src/kernel/OS_LIB/malloc.c **** 				ka_printf("block_size is %d\n",slab_ptr->block_size);
 2509              		.loc 3 510 0 discriminator 3
 2510 0c04 BB69     		ldr	r3, [r7, #24]
 2511 0c06 1B69     		ldr	r3, [r3, #16]
 2512 0c08 1946     		mov	r1, r3
 2513 0c0a 1E48     		ldr	r0, .L141+36
 2514 0c0c FFF7FEFF 		bl	ka_printf
 511:../../source/src/kernel/OS_LIB/malloc.c **** 				ka_printf("\n");
 2515              		.loc 3 511 0 discriminator 3
 2516 0c10 1D48     		ldr	r0, .L141+40
 2517 0c12 FFF7FEFF 		bl	ka_printf
 502:../../source/src/kernel/OS_LIB/malloc.c **** 			{
 2518              		.loc 3 502 0 discriminator 3
 2519 0c16 FB6A     		ldr	r3, [r7, #44]
 2520 0c18 1B68     		ldr	r3, [r3]
 2521 0c1a FB62     		str	r3, [r7, #44]
 2522              	.L137:
 502:../../source/src/kernel/OS_LIB/malloc.c **** 			{
 2523              		.loc 3 502 0 is_stmt 0 discriminator 1
 2524 0c1c 7B6C     		ldr	r3, [r7, #68]
 2525 0c1e 1833     		adds	r3, r3, #24
 2526 0c20 FA6A     		ldr	r2, [r7, #44]
 2527 0c22 9A42     		cmp	r2, r3
 2528 0c24 CAD1     		bne	.L138
 512:../../source/src/kernel/OS_LIB/malloc.c **** 			}
 513:../../source/src/kernel/OS_LIB/malloc.c **** 			ka_printf("chain slabs_empty has %d slab\n",num);
 2529              		.loc 3 513 0 is_stmt 1
 2530 0c26 B96A     		ldr	r1, [r7, #40]
 2531 0c28 1E48     		ldr	r0, .L141+68
 2532 0c2a FFF7FEFF 		bl	ka_printf
 2533              	.LBE26:
 2534 0c2e 02E0     		b	.L139
 2535              	.L136:
 514:../../source/src/kernel/OS_LIB/malloc.c **** 		}
 515:../../source/src/kernel/OS_LIB/malloc.c **** 		else
 516:../../source/src/kernel/OS_LIB/malloc.c **** 		{
 517:../../source/src/kernel/OS_LIB/malloc.c **** 			ka_printf("chain slabs_empty is empty\n");
 2536              		.loc 3 517 0
 2537 0c30 1D48     		ldr	r0, .L141+72
 2538 0c32 FFF7FEFF 		bl	ka_printf
 2539              	.L139:
 518:../../source/src/kernel/OS_LIB/malloc.c **** 		}
 519:../../source/src/kernel/OS_LIB/malloc.c **** 		ka_printf("\n");
 2540              		.loc 3 519 0 discriminator 2
 2541 0c36 1448     		ldr	r0, .L141+40
 2542 0c38 FFF7FEFF 		bl	ka_printf
 2543              	.LBB28:
 447:../../source/src/kernel/OS_LIB/malloc.c **** 	{
 2544              		.loc 3 447 0 discriminator 2
ARM GAS  G:\Users\Jaxb\AppData\Local\Temp\ccZD0TjZ.s 			page 59


 2545 0c3c 7B6C     		ldr	r3, [r7, #68]
 2546 0c3e 1B68     		ldr	r3, [r3]
 2547 0c40 FB60     		str	r3, [r7, #12]
 2548 0c42 FB68     		ldr	r3, [r7, #12]
 2549              	.LBE28:
 2550 0c44 7B64     		str	r3, [r7, #68]
 2551              	.L127:
 447:../../source/src/kernel/OS_LIB/malloc.c **** 	{
 2552              		.loc 3 447 0 is_stmt 0 discriminator 1
 2553 0c46 7B6C     		ldr	r3, [r7, #68]
 2554 0c48 054A     		ldr	r2, .L141
 2555 0c4a 9342     		cmp	r3, r2
 2556 0c4c 7FF4F6AE 		bne	.L140
 520:../../source/src/kernel/OS_LIB/malloc.c **** 	}
 521:../../source/src/kernel/OS_LIB/malloc.c **** 	CPU_CRITICAL_EXIT();
 2557              		.loc 3 521 0 is_stmt 1
 2558 0c50 786A     		ldr	r0, [r7, #36]
 2559 0c52 FFF7FEFF 		bl	CPU_SR_Restore
 522:../../source/src/kernel/OS_LIB/malloc.c **** }
 2560              		.loc 3 522 0
 2561 0c56 00BF     		nop
 2562 0c58 4837     		adds	r7, r7, #72
 2563              	.LCFI96:
 2564              		.cfi_def_cfa_offset 8
 2565 0c5a BD46     		mov	sp, r7
 2566              	.LCFI97:
 2567              		.cfi_def_cfa_register 13
 2568              		@ sp needed
 2569 0c5c 80BD     		pop	{r7, pc}
 2570              	.L142:
 2571 0c5e 00BF     		.align	2
 2572              	.L141:
 2573 0c60 00000000 		.word	cache_chain_head
 2574 0c64 D0000000 		.word	.LC8
 2575 0c68 F8000000 		.word	.LC9
 2576 0c6c DC010000 		.word	.LC17
 2577 0c70 F4010000 		.word	.LC18
 2578 0c74 14020000 		.word	.LC19
 2579 0c78 28020000 		.word	.LC20
 2580 0c7c 38020000 		.word	.LC21
 2581 0c80 54020000 		.word	.LC22
 2582 0c84 6C020000 		.word	.LC23
 2583 0c88 D8010000 		.word	.LC16
 2584 0c8c 1C010000 		.word	.LC10
 2585 0c90 3C010000 		.word	.LC11
 2586 0c94 80020000 		.word	.LC24
 2587 0c98 58010000 		.word	.LC12
 2588 0c9c 7C010000 		.word	.LC13
 2589 0ca0 98020000 		.word	.LC25
 2590 0ca4 9C010000 		.word	.LC14
 2591 0ca8 BC010000 		.word	.LC15
 2592              		.cfi_endproc
 2593              	.LFE26:
 2594              		.size	shell_check_slab, .-shell_check_slab
 2595              	.Letext0:
 2596              		.file 4 "../../source/include/os_cpu/kakaosstdint.h"
 2597              		.file 5 "../../source/include/os_lib/slab.h"
ARM GAS  G:\Users\Jaxb\AppData\Local\Temp\ccZD0TjZ.s 			page 60


 2598              		.file 6 "../../source/include/os_lib/buddy.h"
 2599              		.file 7 "../../source/include/os_cpu/os_cpu_stm32.h"
 2600              		.file 8 "../../source/include/os_core/TCB.h"
 2601              		.section	.debug_info,"",%progbits
 2602              	.Ldebug_info0:
 2603 0000 580C0000 		.4byte	0xc58
 2604 0004 0200     		.2byte	0x2
 2605 0006 00000000 		.4byte	.Ldebug_abbrev0
 2606 000a 04       		.byte	0x4
 2607 000b 01       		.uleb128 0x1
 2608 000c A8040000 		.4byte	.LASF94
 2609 0010 0C       		.byte	0xc
 2610 0011 6D020000 		.4byte	.LASF95
 2611 0015 A7010000 		.4byte	.LASF96
 2612 0019 00000000 		.4byte	.Ltext0
 2613 001d AC0C0000 		.4byte	.Letext0
 2614 0021 00000000 		.4byte	.Ldebug_line0
 2615 0025 02       		.uleb128 0x2
 2616 0026 01       		.byte	0x1
 2617 0027 06       		.byte	0x6
 2618 0028 BF020000 		.4byte	.LASF0
 2619 002c 02       		.uleb128 0x2
 2620 002d 02       		.byte	0x2
 2621 002e 05       		.byte	0x5
 2622 002f 90000000 		.4byte	.LASF1
 2623 0033 03       		.uleb128 0x3
 2624 0034 04       		.byte	0x4
 2625 0035 05       		.byte	0x5
 2626 0036 696E7400 		.ascii	"int\000"
 2627 003a 04       		.uleb128 0x4
 2628 003b 33000000 		.4byte	0x33
 2629 003f 02       		.uleb128 0x2
 2630 0040 08       		.byte	0x8
 2631 0041 05       		.byte	0x5
 2632 0042 D5010000 		.4byte	.LASF2
 2633 0046 02       		.uleb128 0x2
 2634 0047 01       		.byte	0x1
 2635 0048 08       		.byte	0x8
 2636 0049 95020000 		.4byte	.LASF3
 2637 004d 05       		.uleb128 0x5
 2638 004e 6F030000 		.4byte	.LASF5
 2639 0052 04       		.byte	0x4
 2640 0053 0B       		.byte	0xb
 2641 0054 58000000 		.4byte	0x58
 2642 0058 02       		.uleb128 0x2
 2643 0059 02       		.byte	0x2
 2644 005a 07       		.byte	0x7
 2645 005b 4B030000 		.4byte	.LASF4
 2646 005f 05       		.uleb128 0x5
 2647 0060 B4000000 		.4byte	.LASF6
 2648 0064 04       		.byte	0x4
 2649 0065 0C       		.byte	0xc
 2650 0066 6A000000 		.4byte	0x6a
 2651 006a 02       		.uleb128 0x2
 2652 006b 04       		.byte	0x4
 2653 006c 07       		.byte	0x7
 2654 006d F7020000 		.4byte	.LASF7
ARM GAS  G:\Users\Jaxb\AppData\Local\Temp\ccZD0TjZ.s 			page 61


 2655 0071 02       		.uleb128 0x2
 2656 0072 08       		.byte	0x8
 2657 0073 07       		.byte	0x7
 2658 0074 CB020000 		.4byte	.LASF8
 2659 0078 05       		.uleb128 0x5
 2660 0079 9A000000 		.4byte	.LASF9
 2661 007d 04       		.byte	0x4
 2662 007e 23       		.byte	0x23
 2663 007f 6A000000 		.4byte	0x6a
 2664 0083 06       		.uleb128 0x6
 2665 0084 65010000 		.4byte	.LASF10
 2666 0088 04       		.byte	0x4
 2667 0089 01       		.byte	0x1
 2668 008a 04       		.byte	0x4
 2669 008b 9E000000 		.4byte	0x9e
 2670 008f 07       		.uleb128 0x7
 2671 0090 A9050000 		.4byte	.LASF12
 2672 0094 01       		.byte	0x1
 2673 0095 05       		.byte	0x5
 2674 0096 A3000000 		.4byte	0xa3
 2675 009a 02       		.byte	0x2
 2676 009b 23       		.byte	0x23
 2677 009c 00       		.uleb128 0
 2678 009d 00       		.byte	0
 2679 009e 08       		.uleb128 0x8
 2680 009f 83000000 		.4byte	0x83
 2681 00a3 09       		.uleb128 0x9
 2682 00a4 04       		.byte	0x4
 2683 00a5 83000000 		.4byte	0x83
 2684 00a9 08       		.uleb128 0x8
 2685 00aa A3000000 		.4byte	0xa3
 2686 00ae 06       		.uleb128 0x6
 2687 00af 2D000000 		.4byte	.LASF11
 2688 00b3 08       		.byte	0x8
 2689 00b4 02       		.byte	0x2
 2690 00b5 04       		.byte	0x4
 2691 00b6 D7000000 		.4byte	0xd7
 2692 00ba 07       		.uleb128 0x7
 2693 00bb A9050000 		.4byte	.LASF12
 2694 00bf 02       		.byte	0x2
 2695 00c0 05       		.byte	0x5
 2696 00c1 DC000000 		.4byte	0xdc
 2697 00c5 02       		.byte	0x2
 2698 00c6 23       		.byte	0x23
 2699 00c7 00       		.uleb128 0
 2700 00c8 07       		.uleb128 0x7
 2701 00c9 65050000 		.4byte	.LASF13
 2702 00cd 02       		.byte	0x2
 2703 00ce 05       		.byte	0x5
 2704 00cf DC000000 		.4byte	0xdc
 2705 00d3 02       		.byte	0x2
 2706 00d4 23       		.byte	0x23
 2707 00d5 04       		.uleb128 0x4
 2708 00d6 00       		.byte	0
 2709 00d7 08       		.uleb128 0x8
 2710 00d8 AE000000 		.4byte	0xae
 2711 00dc 09       		.uleb128 0x9
ARM GAS  G:\Users\Jaxb\AppData\Local\Temp\ccZD0TjZ.s 			page 62


 2712 00dd 04       		.byte	0x4
 2713 00de AE000000 		.4byte	0xae
 2714 00e2 06       		.uleb128 0x6
 2715 00e3 85040000 		.4byte	.LASF14
 2716 00e7 20       		.byte	0x20
 2717 00e8 05       		.byte	0x5
 2718 00e9 08       		.byte	0x8
 2719 00ea 35010000 		.4byte	0x135
 2720 00ee 07       		.uleb128 0x7
 2721 00ef 2B020000 		.4byte	.LASF15
 2722 00f3 05       		.byte	0x5
 2723 00f4 0B       		.byte	0xb
 2724 00f5 83000000 		.4byte	0x83
 2725 00f9 02       		.byte	0x2
 2726 00fa 23       		.byte	0x23
 2727 00fb 00       		.uleb128 0
 2728 00fc 07       		.uleb128 0x7
 2729 00fd F0000000 		.4byte	.LASF16
 2730 0101 05       		.byte	0x5
 2731 0102 0C       		.byte	0xc
 2732 0103 6A000000 		.4byte	0x6a
 2733 0107 02       		.byte	0x2
 2734 0108 23       		.byte	0x23
 2735 0109 04       		.uleb128 0x4
 2736 010a 07       		.uleb128 0x7
 2737 010b A3020000 		.4byte	.LASF17
 2738 010f 05       		.byte	0x5
 2739 0110 0D       		.byte	0xd
 2740 0111 AE000000 		.4byte	0xae
 2741 0115 02       		.byte	0x2
 2742 0116 23       		.byte	0x23
 2743 0117 08       		.uleb128 0x8
 2744 0118 07       		.uleb128 0x7
 2745 0119 6C000000 		.4byte	.LASF18
 2746 011d 05       		.byte	0x5
 2747 011e 0E       		.byte	0xe
 2748 011f AE000000 		.4byte	0xae
 2749 0123 02       		.byte	0x2
 2750 0124 23       		.byte	0x23
 2751 0125 10       		.uleb128 0x10
 2752 0126 07       		.uleb128 0x7
 2753 0127 61020000 		.4byte	.LASF19
 2754 012b 05       		.byte	0x5
 2755 012c 0F       		.byte	0xf
 2756 012d AE000000 		.4byte	0xae
 2757 0131 02       		.byte	0x2
 2758 0132 23       		.byte	0x23
 2759 0133 18       		.uleb128 0x18
 2760 0134 00       		.byte	0
 2761 0135 06       		.uleb128 0x6
 2762 0136 16040000 		.4byte	.LASF20
 2763 013a 24       		.byte	0x24
 2764 013b 05       		.byte	0x5
 2765 013c 16       		.byte	0x16
 2766 013d A4010000 		.4byte	0x1a4
 2767 0141 07       		.uleb128 0x7
 2768 0142 F4030000 		.4byte	.LASF21
ARM GAS  G:\Users\Jaxb\AppData\Local\Temp\ccZD0TjZ.s 			page 63


 2769 0146 05       		.byte	0x5
 2770 0147 18       		.byte	0x18
 2771 0148 A4010000 		.4byte	0x1a4
 2772 014c 02       		.byte	0x2
 2773 014d 23       		.byte	0x23
 2774 014e 00       		.uleb128 0
 2775 014f 07       		.uleb128 0x7
 2776 0150 EC030000 		.4byte	.LASF22
 2777 0154 05       		.byte	0x5
 2778 0155 19       		.byte	0x19
 2779 0156 A4010000 		.4byte	0x1a4
 2780 015a 02       		.byte	0x2
 2781 015b 23       		.byte	0x23
 2782 015c 04       		.uleb128 0x4
 2783 015d 07       		.uleb128 0x7
 2784 015e 53050000 		.4byte	.LASF23
 2785 0162 05       		.byte	0x5
 2786 0163 1A       		.byte	0x1a
 2787 0164 6A000000 		.4byte	0x6a
 2788 0168 02       		.byte	0x2
 2789 0169 23       		.byte	0x23
 2790 016a 08       		.uleb128 0x8
 2791 016b 07       		.uleb128 0x7
 2792 016c F5010000 		.4byte	.LASF24
 2793 0170 05       		.byte	0x5
 2794 0171 1B       		.byte	0x1b
 2795 0172 6A000000 		.4byte	0x6a
 2796 0176 02       		.byte	0x2
 2797 0177 23       		.byte	0x23
 2798 0178 0C       		.uleb128 0xc
 2799 0179 07       		.uleb128 0x7
 2800 017a 22000000 		.4byte	.LASF25
 2801 017e 05       		.byte	0x5
 2802 017f 1C       		.byte	0x1c
 2803 0180 6A000000 		.4byte	0x6a
 2804 0184 02       		.byte	0x2
 2805 0185 23       		.byte	0x23
 2806 0186 10       		.uleb128 0x10
 2807 0187 07       		.uleb128 0x7
 2808 0188 52000000 		.4byte	.LASF26
 2809 018c 05       		.byte	0x5
 2810 018d 1D       		.byte	0x1d
 2811 018e AE000000 		.4byte	0xae
 2812 0192 02       		.byte	0x2
 2813 0193 23       		.byte	0x23
 2814 0194 14       		.uleb128 0x14
 2815 0195 07       		.uleb128 0x7
 2816 0196 9E050000 		.4byte	.LASF27
 2817 019a 05       		.byte	0x5
 2818 019b 1E       		.byte	0x1e
 2819 019c AE000000 		.4byte	0xae
 2820 01a0 02       		.byte	0x2
 2821 01a1 23       		.byte	0x23
 2822 01a2 1C       		.uleb128 0x1c
 2823 01a3 00       		.byte	0
 2824 01a4 0A       		.uleb128 0xa
 2825 01a5 04       		.byte	0x4
ARM GAS  G:\Users\Jaxb\AppData\Local\Temp\ccZD0TjZ.s 			page 64


 2826 01a6 02       		.uleb128 0x2
 2827 01a7 01       		.byte	0x1
 2828 01a8 08       		.byte	0x8
 2829 01a9 76030000 		.4byte	.LASF28
 2830 01ad 08       		.uleb128 0x8
 2831 01ae A6010000 		.4byte	0x1a6
 2832 01b2 0B       		.uleb128 0xb
 2833 01b3 0004     		.2byte	0x400
 2834 01b5 06       		.byte	0x6
 2835 01b6 10       		.byte	0x10
 2836 01b7 C8010000 		.4byte	0x1c8
 2837 01bb 0C       		.uleb128 0xc
 2838 01bc 6100     		.ascii	"a\000"
 2839 01be 06       		.byte	0x6
 2840 01bf 11       		.byte	0x11
 2841 01c0 C8010000 		.4byte	0x1c8
 2842 01c4 02       		.byte	0x2
 2843 01c5 23       		.byte	0x23
 2844 01c6 00       		.uleb128 0
 2845 01c7 00       		.byte	0
 2846 01c8 0D       		.uleb128 0xd
 2847 01c9 33000000 		.4byte	0x33
 2848 01cd D8010000 		.4byte	0x1d8
 2849 01d1 0E       		.uleb128 0xe
 2850 01d2 6A000000 		.4byte	0x6a
 2851 01d6 FF       		.byte	0xff
 2852 01d7 00       		.byte	0
 2853 01d8 05       		.uleb128 0x5
 2854 01d9 3F020000 		.4byte	.LASF29
 2855 01dd 06       		.byte	0x6
 2856 01de 12       		.byte	0x12
 2857 01df B2010000 		.4byte	0x1b2
 2858 01e3 05       		.uleb128 0x5
 2859 01e4 14030000 		.4byte	.LASF30
 2860 01e8 06       		.byte	0x6
 2861 01e9 14       		.byte	0x14
 2862 01ea 5F000000 		.4byte	0x5f
 2863 01ee 05       		.uleb128 0x5
 2864 01ef 30010000 		.4byte	.LASF31
 2865 01f3 06       		.byte	0x6
 2866 01f4 15       		.byte	0x15
 2867 01f5 4D000000 		.4byte	0x4d
 2868 01f9 05       		.uleb128 0x5
 2869 01fa 1A020000 		.4byte	.LASF32
 2870 01fe 06       		.byte	0x6
 2871 01ff 16       		.byte	0x16
 2872 0200 D8010000 		.4byte	0x1d8
 2873 0204 06       		.uleb128 0x6
 2874 0205 37000000 		.4byte	.LASF33
 2875 0209 14       		.byte	0x14
 2876 020a 06       		.byte	0x6
 2877 020b 19       		.byte	0x19
 2878 020c 57020000 		.4byte	0x257
 2879 0210 07       		.uleb128 0x7
 2880 0211 52020000 		.4byte	.LASF34
 2881 0215 06       		.byte	0x6
 2882 0216 1A       		.byte	0x1a
ARM GAS  G:\Users\Jaxb\AppData\Local\Temp\ccZD0TjZ.s 			page 65


 2883 0217 6A000000 		.4byte	0x6a
 2884 021b 02       		.byte	0x2
 2885 021c 23       		.byte	0x23
 2886 021d 00       		.uleb128 0
 2887 021e 07       		.uleb128 0x7
 2888 021f 11020000 		.4byte	.LASF35
 2889 0223 06       		.byte	0x6
 2890 0224 1B       		.byte	0x1b
 2891 0225 6A000000 		.4byte	0x6a
 2892 0229 02       		.byte	0x2
 2893 022a 23       		.byte	0x23
 2894 022b 04       		.uleb128 0x4
 2895 022c 07       		.uleb128 0x7
 2896 022d 41030000 		.4byte	.LASF36
 2897 0231 06       		.byte	0x6
 2898 0232 1C       		.byte	0x1c
 2899 0233 6A000000 		.4byte	0x6a
 2900 0237 02       		.byte	0x2
 2901 0238 23       		.byte	0x23
 2902 0239 08       		.uleb128 0x8
 2903 023a 07       		.uleb128 0x7
 2904 023b 99050000 		.4byte	.LASF37
 2905 023f 06       		.byte	0x6
 2906 0240 1D       		.byte	0x1d
 2907 0241 6A000000 		.4byte	0x6a
 2908 0245 02       		.byte	0x2
 2909 0246 23       		.byte	0x23
 2910 0247 0C       		.uleb128 0xc
 2911 0248 07       		.uleb128 0x7
 2912 0249 1B040000 		.4byte	.LASF38
 2913 024d 06       		.byte	0x6
 2914 024e 1E       		.byte	0x1e
 2915 024f 6A000000 		.4byte	0x6a
 2916 0253 02       		.byte	0x2
 2917 0254 23       		.byte	0x23
 2918 0255 10       		.uleb128 0x10
 2919 0256 00       		.byte	0
 2920 0257 06       		.uleb128 0x6
 2921 0258 1A010000 		.4byte	.LASF39
 2922 025c 04       		.byte	0x4
 2923 025d 06       		.byte	0x6
 2924 025e 21       		.byte	0x21
 2925 025f 80020000 		.4byte	0x280
 2926 0263 0C       		.uleb128 0xc
 2927 0264 6E756D00 		.ascii	"num\000"
 2928 0268 06       		.byte	0x6
 2929 0269 22       		.byte	0x22
 2930 026a EE010000 		.4byte	0x1ee
 2931 026e 02       		.byte	0x2
 2932 026f 23       		.byte	0x23
 2933 0270 00       		.uleb128 0
 2934 0271 07       		.uleb128 0x7
 2935 0272 A9050000 		.4byte	.LASF12
 2936 0276 06       		.byte	0x6
 2937 0277 23       		.byte	0x23
 2938 0278 EE010000 		.4byte	0x1ee
 2939 027c 02       		.byte	0x2
ARM GAS  G:\Users\Jaxb\AppData\Local\Temp\ccZD0TjZ.s 			page 66


 2940 027d 23       		.byte	0x23
 2941 027e 02       		.uleb128 0x2
 2942 027f 00       		.byte	0
 2943 0280 06       		.uleb128 0x6
 2944 0281 76010000 		.4byte	.LASF40
 2945 0285 0C       		.byte	0xc
 2946 0286 06       		.byte	0x6
 2947 0287 26       		.byte	0x26
 2948 0288 B7020000 		.4byte	0x2b7
 2949 028c 07       		.uleb128 0x7
 2950 028d 51040000 		.4byte	.LASF41
 2951 0291 06       		.byte	0x6
 2952 0292 27       		.byte	0x27
 2953 0293 6A000000 		.4byte	0x6a
 2954 0297 02       		.byte	0x2
 2955 0298 23       		.byte	0x23
 2956 0299 00       		.uleb128 0
 2957 029a 0C       		.uleb128 0xc
 2958 029b 70747200 		.ascii	"ptr\000"
 2959 029f 06       		.byte	0x6
 2960 02a0 28       		.byte	0x28
 2961 02a1 A4010000 		.4byte	0x1a4
 2962 02a5 02       		.byte	0x2
 2963 02a6 23       		.byte	0x23
 2964 02a7 04       		.uleb128 0x4
 2965 02a8 07       		.uleb128 0x7
 2966 02a9 91030000 		.4byte	.LASF42
 2967 02ad 06       		.byte	0x6
 2968 02ae 29       		.byte	0x29
 2969 02af 83000000 		.4byte	0x83
 2970 02b3 02       		.byte	0x2
 2971 02b4 23       		.byte	0x23
 2972 02b5 08       		.uleb128 0x8
 2973 02b6 00       		.byte	0
 2974 02b7 06       		.uleb128 0x6
 2975 02b8 FE030000 		.4byte	.LASF43
 2976 02bc 3C       		.byte	0x3c
 2977 02bd 06       		.byte	0x6
 2978 02be 39       		.byte	0x39
 2979 02bf 5E030000 		.4byte	0x35e
 2980 02c3 07       		.uleb128 0x7
 2981 02c4 4E050000 		.4byte	.LASF44
 2982 02c8 06       		.byte	0x6
 2983 02c9 3A       		.byte	0x3a
 2984 02ca 5E030000 		.4byte	0x35e
 2985 02ce 02       		.byte	0x2
 2986 02cf 23       		.byte	0x23
 2987 02d0 00       		.uleb128 0
 2988 02d1 07       		.uleb128 0x7
 2989 02d2 5D000000 		.4byte	.LASF45
 2990 02d6 06       		.byte	0x6
 2991 02d7 3B       		.byte	0x3b
 2992 02d8 64030000 		.4byte	0x364
 2993 02dc 02       		.byte	0x2
 2994 02dd 23       		.byte	0x23
 2995 02de 04       		.uleb128 0x4
 2996 02df 07       		.uleb128 0x7
ARM GAS  G:\Users\Jaxb\AppData\Local\Temp\ccZD0TjZ.s 			page 67


 2997 02e0 1E030000 		.4byte	.LASF46
 2998 02e4 06       		.byte	0x6
 2999 02e5 3C       		.byte	0x3c
 3000 02e6 EE010000 		.4byte	0x1ee
 3001 02ea 02       		.byte	0x2
 3002 02eb 23       		.byte	0x23
 3003 02ec 08       		.uleb128 0x8
 3004 02ed 07       		.uleb128 0x7
 3005 02ee 0A010000 		.4byte	.LASF47
 3006 02f2 06       		.byte	0x6
 3007 02f3 3D       		.byte	0x3d
 3008 02f4 6A030000 		.4byte	0x36a
 3009 02f8 02       		.byte	0x2
 3010 02f9 23       		.byte	0x23
 3011 02fa 0C       		.uleb128 0xc
 3012 02fb 07       		.uleb128 0x7
 3013 02fc 8D050000 		.4byte	.LASF48
 3014 0300 06       		.byte	0x6
 3015 0301 3E       		.byte	0x3e
 3016 0302 6A030000 		.4byte	0x36a
 3017 0306 02       		.byte	0x2
 3018 0307 23       		.byte	0x23
 3019 0308 10       		.uleb128 0x10
 3020 0309 07       		.uleb128 0x7
 3021 030a 04030000 		.4byte	.LASF49
 3022 030e 06       		.byte	0x6
 3023 030f 3F       		.byte	0x3f
 3024 0310 70030000 		.4byte	0x370
 3025 0314 02       		.byte	0x2
 3026 0315 23       		.byte	0x23
 3027 0316 14       		.uleb128 0x14
 3028 0317 07       		.uleb128 0x7
 3029 0318 2F030000 		.4byte	.LASF50
 3030 031c 06       		.byte	0x6
 3031 031d 40       		.byte	0x40
 3032 031e 6A000000 		.4byte	0x6a
 3033 0322 02       		.byte	0x2
 3034 0323 23       		.byte	0x23
 3035 0324 18       		.uleb128 0x18
 3036 0325 07       		.uleb128 0x7
 3037 0326 90040000 		.4byte	.LASF51
 3038 032a 06       		.byte	0x6
 3039 032b 41       		.byte	0x41
 3040 032c 6A000000 		.4byte	0x6a
 3041 0330 02       		.byte	0x2
 3042 0331 23       		.byte	0x23
 3043 0332 1C       		.uleb128 0x1c
 3044 0333 07       		.uleb128 0x7
 3045 0334 4C040000 		.4byte	.LASF52
 3046 0338 06       		.byte	0x6
 3047 0339 42       		.byte	0x42
 3048 033a 04020000 		.4byte	0x204
 3049 033e 02       		.byte	0x2
 3050 033f 23       		.byte	0x23
 3051 0340 20       		.uleb128 0x20
 3052 0341 07       		.uleb128 0x7
 3053 0342 A9050000 		.4byte	.LASF12
ARM GAS  G:\Users\Jaxb\AppData\Local\Temp\ccZD0TjZ.s 			page 68


 3054 0346 06       		.byte	0x6
 3055 0347 43       		.byte	0x43
 3056 0348 76030000 		.4byte	0x376
 3057 034c 02       		.byte	0x2
 3058 034d 23       		.byte	0x23
 3059 034e 34       		.uleb128 0x34
 3060 034f 07       		.uleb128 0x7
 3061 0350 62040000 		.4byte	.LASF53
 3062 0354 06       		.byte	0x6
 3063 0355 44       		.byte	0x44
 3064 0356 7C030000 		.4byte	0x37c
 3065 035a 02       		.byte	0x2
 3066 035b 23       		.byte	0x23
 3067 035c 38       		.uleb128 0x38
 3068 035d 00       		.byte	0
 3069 035e 09       		.uleb128 0x9
 3070 035f 04       		.byte	0x4
 3071 0360 E3010000 		.4byte	0x1e3
 3072 0364 09       		.uleb128 0x9
 3073 0365 04       		.byte	0x4
 3074 0366 57020000 		.4byte	0x257
 3075 036a 09       		.uleb128 0x9
 3076 036b 04       		.byte	0x4
 3077 036c EE010000 		.4byte	0x1ee
 3078 0370 09       		.uleb128 0x9
 3079 0371 04       		.byte	0x4
 3080 0372 4D000000 		.4byte	0x4d
 3081 0376 09       		.uleb128 0x9
 3082 0377 04       		.byte	0x4
 3083 0378 B7020000 		.4byte	0x2b7
 3084 037c 09       		.uleb128 0x9
 3085 037d 04       		.byte	0x4
 3086 037e F9010000 		.4byte	0x1f9
 3087 0382 05       		.uleb128 0x5
 3088 0383 96030000 		.4byte	.LASF54
 3089 0387 07       		.byte	0x7
 3090 0388 06       		.byte	0x6
 3091 0389 6A000000 		.4byte	0x6a
 3092 038d 05       		.uleb128 0x5
 3093 038e 6A050000 		.4byte	.LASF55
 3094 0392 07       		.byte	0x7
 3095 0393 08       		.byte	0x8
 3096 0394 82030000 		.4byte	0x382
 3097 0398 0F       		.uleb128 0xf
 3098 0399 B8030000 		.4byte	.LASF61
 3099 039d 08       		.byte	0x8
 3100 039e 13       		.byte	0x13
 3101 039f 3A000000 		.4byte	0x3a
 3102 03a3 01       		.byte	0x1
 3103 03a4 01       		.byte	0x1
 3104 03a5 10       		.uleb128 0x10
 3105 03a6 49010000 		.4byte	.LASF56
 3106 03aa 03       		.byte	0x3
 3107 03ab 0B       		.byte	0xb
 3108 03ac 83000000 		.4byte	0x83
 3109 03b0 05       		.byte	0x5
 3110 03b1 03       		.byte	0x3
ARM GAS  G:\Users\Jaxb\AppData\Local\Temp\ccZD0TjZ.s 			page 69


 3111 03b2 00000000 		.4byte	cache_chain_head
 3112 03b6 10       		.uleb128 0x10
 3113 03b7 04020000 		.4byte	.LASF57
 3114 03bb 03       		.byte	0x3
 3115 03bc 0C       		.byte	0xc
 3116 03bd E2000000 		.4byte	0xe2
 3117 03c1 05       		.byte	0x5
 3118 03c2 03       		.byte	0x3
 3119 03c3 04000000 		.4byte	kmem_cache16
 3120 03c7 10       		.uleb128 0x10
 3121 03c8 78040000 		.4byte	.LASF58
 3122 03cc 03       		.byte	0x3
 3123 03cd 0D       		.byte	0xd
 3124 03ce E2000000 		.4byte	0xe2
 3125 03d2 05       		.byte	0x5
 3126 03d3 03       		.byte	0x3
 3127 03d4 24000000 		.4byte	kmem_cache32
 3128 03d8 10       		.uleb128 0x10
 3129 03d9 7B030000 		.4byte	.LASF59
 3130 03dd 03       		.byte	0x3
 3131 03de 0E       		.byte	0xe
 3132 03df E2000000 		.4byte	0xe2
 3133 03e3 05       		.byte	0x5
 3134 03e4 03       		.byte	0x3
 3135 03e5 44000000 		.4byte	kmem_cache_kmem_cache
 3136 03e9 10       		.uleb128 0x10
 3137 03ea 71050000 		.4byte	.LASF60
 3138 03ee 03       		.byte	0x3
 3139 03ef 0F       		.byte	0xf
 3140 03f0 E2000000 		.4byte	0xe2
 3141 03f4 05       		.byte	0x5
 3142 03f5 03       		.byte	0x3
 3143 03f6 64000000 		.4byte	kmem_cache_TCB
 3144 03fa 11       		.uleb128 0x11
 3145 03fb E2020000 		.4byte	.LASF62
 3146 03ff 03       		.byte	0x3
 3147 0400 10       		.byte	0x10
 3148 0401 A9000000 		.4byte	0xa9
 3149 0405 01       		.byte	0x1
 3150 0406 05       		.byte	0x5
 3151 0407 03       		.byte	0x3
 3152 0408 00000000 		.4byte	cache_chain_head_ptr
 3153 040c 10       		.uleb128 0x10
 3154 040d A1030000 		.4byte	.LASF63
 3155 0411 03       		.byte	0x3
 3156 0412 12       		.byte	0x12
 3157 0413 83000000 		.4byte	0x83
 3158 0417 05       		.byte	0x5
 3159 0418 03       		.byte	0x3
 3160 0419 84000000 		.4byte	page_alloc_record_head
 3161 041d 12       		.uleb128 0x12
 3162 041e 01       		.byte	0x1
 3163 041f D4030000 		.4byte	.LASF71
 3164 0423 03       		.byte	0x3
 3165 0424 B601     		.2byte	0x1b6
 3166 0426 01       		.byte	0x1
 3167 0427 180A0000 		.4byte	.LFB26
ARM GAS  G:\Users\Jaxb\AppData\Local\Temp\ccZD0TjZ.s 			page 70


 3168 042b AC0C0000 		.4byte	.LFE26
 3169 042f 00000000 		.4byte	.LLST18
 3170 0433 01       		.byte	0x1
 3171 0434 99050000 		.4byte	0x599
 3172 0438 13       		.uleb128 0x13
 3173 0439 67000000 		.4byte	.LASF64
 3174 043d 03       		.byte	0x3
 3175 043e B601     		.2byte	0x1b6
 3176 0440 33000000 		.4byte	0x33
 3177 0444 03       		.byte	0x3
 3178 0445 91       		.byte	0x91
 3179 0446 B47F     		.sleb128 -76
 3180 0448 13       		.uleb128 0x13
 3181 0449 9A010000 		.4byte	.LASF65
 3182 044d 03       		.byte	0x3
 3183 044e B601     		.2byte	0x1b6
 3184 0450 99050000 		.4byte	0x599
 3185 0454 03       		.byte	0x3
 3186 0455 91       		.byte	0x91
 3187 0456 B07F     		.sleb128 -80
 3188 0458 14       		.uleb128 0x14
 3189 0459 30020000 		.4byte	.LASF66
 3190 045d 03       		.byte	0x3
 3191 045e BA01     		.2byte	0x1ba
 3192 0460 A5050000 		.4byte	0x5a5
 3193 0464 02       		.byte	0x2
 3194 0465 91       		.byte	0x91
 3195 0466 74       		.sleb128 -12
 3196 0467 15       		.uleb128 0x15
 3197 0468 6900     		.ascii	"i\000"
 3198 046a 03       		.byte	0x3
 3199 046b BB01     		.2byte	0x1bb
 3200 046d 33000000 		.4byte	0x33
 3201 0471 02       		.byte	0x2
 3202 0472 91       		.byte	0x91
 3203 0473 70       		.sleb128 -16
 3204 0474 14       		.uleb128 0x14
 3205 0475 0D040000 		.4byte	.LASF67
 3206 0479 03       		.byte	0x3
 3207 047a BC01     		.2byte	0x1bc
 3208 047c AB050000 		.4byte	0x5ab
 3209 0480 02       		.byte	0x2
 3210 0481 91       		.byte	0x91
 3211 0482 48       		.sleb128 -56
 3212 0483 14       		.uleb128 0x14
 3213 0484 A1040000 		.4byte	.LASF68
 3214 0488 03       		.byte	0x3
 3215 0489 BD01     		.2byte	0x1bd
 3216 048b 8D030000 		.4byte	0x38d
 3217 048f 02       		.byte	0x2
 3218 0490 91       		.byte	0x91
 3219 0491 54       		.sleb128 -44
 3220 0492 16       		.uleb128 0x16
 3221 0493 300A0000 		.4byte	.LBB21
 3222 0497 380A0000 		.4byte	.LBE21
 3223 049b AF040000 		.4byte	0x4af
 3224 049f 14       		.uleb128 0x14
ARM GAS  G:\Users\Jaxb\AppData\Local\Temp\ccZD0TjZ.s 			page 71


 3225 04a0 D3000000 		.4byte	.LASF69
 3226 04a4 03       		.byte	0x3
 3227 04a5 BF01     		.2byte	0x1bf
 3228 04a7 B1050000 		.4byte	0x5b1
 3229 04ab 02       		.byte	0x2
 3230 04ac 91       		.byte	0x91
 3231 04ad 50       		.sleb128 -48
 3232 04ae 00       		.byte	0
 3233 04af 16       		.uleb128 0x16
 3234 04b0 660A0000 		.4byte	.LBB22
 3235 04b4 EA0A0000 		.4byte	.LBE22
 3236 04b8 F4040000 		.4byte	0x4f4
 3237 04bc 14       		.uleb128 0x14
 3238 04bd E5030000 		.4byte	.LASF70
 3239 04c1 03       		.byte	0x3
 3240 04c2 C501     		.2byte	0x1c5
 3241 04c4 DC000000 		.4byte	0xdc
 3242 04c8 02       		.byte	0x2
 3243 04c9 91       		.byte	0x91
 3244 04ca 6C       		.sleb128 -20
 3245 04cb 15       		.uleb128 0x15
 3246 04cc 6E756D00 		.ascii	"num\000"
 3247 04d0 03       		.byte	0x3
 3248 04d1 C601     		.2byte	0x1c6
 3249 04d3 33000000 		.4byte	0x33
 3250 04d7 02       		.byte	0x2
 3251 04d8 91       		.byte	0x91
 3252 04d9 68       		.sleb128 -24
 3253 04da 17       		.uleb128 0x17
 3254 04db 860A0000 		.4byte	.LBB23
 3255 04df 8E0A0000 		.4byte	.LBE23
 3256 04e3 14       		.uleb128 0x14
 3257 04e4 D3000000 		.4byte	.LASF69
 3258 04e8 03       		.byte	0x3
 3259 04e9 CB01     		.2byte	0x1cb
 3260 04eb B7050000 		.4byte	0x5b7
 3261 04ef 02       		.byte	0x2
 3262 04f0 91       		.byte	0x91
 3263 04f1 4C       		.sleb128 -52
 3264 04f2 00       		.byte	0
 3265 04f3 00       		.byte	0
 3266 04f4 16       		.uleb128 0x16
 3267 04f5 080B0000 		.4byte	.LBB24
 3268 04f9 8C0B0000 		.4byte	.LBE24
 3269 04fd 39050000 		.4byte	0x539
 3270 0501 14       		.uleb128 0x14
 3271 0502 E5030000 		.4byte	.LASF70
 3272 0506 03       		.byte	0x3
 3273 0507 DC01     		.2byte	0x1dc
 3274 0509 DC000000 		.4byte	0xdc
 3275 050d 02       		.byte	0x2
 3276 050e 91       		.byte	0x91
 3277 050f 64       		.sleb128 -28
 3278 0510 15       		.uleb128 0x15
 3279 0511 6E756D00 		.ascii	"num\000"
 3280 0515 03       		.byte	0x3
 3281 0516 DD01     		.2byte	0x1dd
ARM GAS  G:\Users\Jaxb\AppData\Local\Temp\ccZD0TjZ.s 			page 72


 3282 0518 33000000 		.4byte	0x33
 3283 051c 02       		.byte	0x2
 3284 051d 91       		.byte	0x91
 3285 051e 60       		.sleb128 -32
 3286 051f 17       		.uleb128 0x17
 3287 0520 280B0000 		.4byte	.LBB25
 3288 0524 300B0000 		.4byte	.LBE25
 3289 0528 14       		.uleb128 0x14
 3290 0529 D3000000 		.4byte	.LASF69
 3291 052d 03       		.byte	0x3
 3292 052e E201     		.2byte	0x1e2
 3293 0530 B7050000 		.4byte	0x5b7
 3294 0534 02       		.byte	0x2
 3295 0535 91       		.byte	0x91
 3296 0536 44       		.sleb128 -60
 3297 0537 00       		.byte	0
 3298 0538 00       		.byte	0
 3299 0539 16       		.uleb128 0x16
 3300 053a AA0B0000 		.4byte	.LBB26
 3301 053e 2E0C0000 		.4byte	.LBE26
 3302 0542 7E050000 		.4byte	0x57e
 3303 0546 14       		.uleb128 0x14
 3304 0547 E5030000 		.4byte	.LASF70
 3305 054b 03       		.byte	0x3
 3306 054c F301     		.2byte	0x1f3
 3307 054e DC000000 		.4byte	0xdc
 3308 0552 02       		.byte	0x2
 3309 0553 91       		.byte	0x91
 3310 0554 5C       		.sleb128 -36
 3311 0555 15       		.uleb128 0x15
 3312 0556 6E756D00 		.ascii	"num\000"
 3313 055a 03       		.byte	0x3
 3314 055b F401     		.2byte	0x1f4
 3315 055d 33000000 		.4byte	0x33
 3316 0561 02       		.byte	0x2
 3317 0562 91       		.byte	0x91
 3318 0563 58       		.sleb128 -40
 3319 0564 17       		.uleb128 0x17
 3320 0565 CA0B0000 		.4byte	.LBB27
 3321 0569 D20B0000 		.4byte	.LBE27
 3322 056d 14       		.uleb128 0x14
 3323 056e D3000000 		.4byte	.LASF69
 3324 0572 03       		.byte	0x3
 3325 0573 F901     		.2byte	0x1f9
 3326 0575 B7050000 		.4byte	0x5b7
 3327 0579 02       		.byte	0x2
 3328 057a 91       		.byte	0x91
 3329 057b 40       		.sleb128 -64
 3330 057c 00       		.byte	0
 3331 057d 00       		.byte	0
 3332 057e 17       		.uleb128 0x17
 3333 057f 3C0C0000 		.4byte	.LBB28
 3334 0583 440C0000 		.4byte	.LBE28
 3335 0587 14       		.uleb128 0x14
 3336 0588 D3000000 		.4byte	.LASF69
 3337 058c 03       		.byte	0x3
 3338 058d BF01     		.2byte	0x1bf
ARM GAS  G:\Users\Jaxb\AppData\Local\Temp\ccZD0TjZ.s 			page 73


 3339 058f B1050000 		.4byte	0x5b1
 3340 0593 03       		.byte	0x3
 3341 0594 91       		.byte	0x91
 3342 0595 BC7F     		.sleb128 -68
 3343 0597 00       		.byte	0
 3344 0598 00       		.byte	0
 3345 0599 09       		.uleb128 0x9
 3346 059a 04       		.byte	0x4
 3347 059b 9F050000 		.4byte	0x59f
 3348 059f 09       		.uleb128 0x9
 3349 05a0 04       		.byte	0x4
 3350 05a1 AD010000 		.4byte	0x1ad
 3351 05a5 09       		.uleb128 0x9
 3352 05a6 04       		.byte	0x4
 3353 05a7 E2000000 		.4byte	0xe2
 3354 05ab 09       		.uleb128 0x9
 3355 05ac 04       		.byte	0x4
 3356 05ad 35010000 		.4byte	0x135
 3357 05b1 09       		.uleb128 0x9
 3358 05b2 04       		.byte	0x4
 3359 05b3 9E000000 		.4byte	0x9e
 3360 05b7 09       		.uleb128 0x9
 3361 05b8 04       		.byte	0x4
 3362 05b9 D7000000 		.4byte	0xd7
 3363 05bd 12       		.uleb128 0x12
 3364 05be 01       		.byte	0x1
 3365 05bf 5E030000 		.4byte	.LASF72
 3366 05c3 03       		.byte	0x3
 3367 05c4 7901     		.2byte	0x179
 3368 05c6 01       		.byte	0x1
 3369 05c7 C4080000 		.4byte	.LFB25
 3370 05cb 180A0000 		.4byte	.LFE25
 3371 05cf 52000000 		.4byte	.LLST17
 3372 05d3 01       		.byte	0x1
 3373 05d4 DC060000 		.4byte	0x6dc
 3374 05d8 13       		.uleb128 0x13
 3375 05d9 67000000 		.4byte	.LASF64
 3376 05dd 03       		.byte	0x3
 3377 05de 7901     		.2byte	0x179
 3378 05e0 33000000 		.4byte	0x33
 3379 05e4 02       		.byte	0x2
 3380 05e5 91       		.byte	0x91
 3381 05e6 44       		.sleb128 -60
 3382 05e7 13       		.uleb128 0x13
 3383 05e8 9A010000 		.4byte	.LASF65
 3384 05ec 03       		.byte	0x3
 3385 05ed 7901     		.2byte	0x179
 3386 05ef 99050000 		.4byte	0x599
 3387 05f3 02       		.byte	0x2
 3388 05f4 91       		.byte	0x91
 3389 05f5 40       		.sleb128 -64
 3390 05f6 14       		.uleb128 0x14
 3391 05f7 30020000 		.4byte	.LASF66
 3392 05fb 03       		.byte	0x3
 3393 05fc 7D01     		.2byte	0x17d
 3394 05fe A5050000 		.4byte	0x5a5
 3395 0602 02       		.byte	0x2
ARM GAS  G:\Users\Jaxb\AppData\Local\Temp\ccZD0TjZ.s 			page 74


 3396 0603 91       		.byte	0x91
 3397 0604 74       		.sleb128 -12
 3398 0605 15       		.uleb128 0x15
 3399 0606 6900     		.ascii	"i\000"
 3400 0608 03       		.byte	0x3
 3401 0609 7E01     		.2byte	0x17e
 3402 060b 33000000 		.4byte	0x33
 3403 060f 02       		.byte	0x2
 3404 0610 91       		.byte	0x91
 3405 0611 70       		.sleb128 -16
 3406 0612 14       		.uleb128 0x14
 3407 0613 A1040000 		.4byte	.LASF68
 3408 0617 03       		.byte	0x3
 3409 0618 7F01     		.2byte	0x17f
 3410 061a 8D030000 		.4byte	0x38d
 3411 061e 02       		.byte	0x2
 3412 061f 91       		.byte	0x91
 3413 0620 54       		.sleb128 -44
 3414 0621 16       		.uleb128 0x16
 3415 0622 DC080000 		.4byte	.LBB16
 3416 0626 E4080000 		.4byte	.LBE16
 3417 062a 3E060000 		.4byte	0x63e
 3418 062e 14       		.uleb128 0x14
 3419 062f D3000000 		.4byte	.LASF69
 3420 0633 03       		.byte	0x3
 3421 0634 8101     		.2byte	0x181
 3422 0636 B1050000 		.4byte	0x5b1
 3423 063a 02       		.byte	0x2
 3424 063b 91       		.byte	0x91
 3425 063c 50       		.sleb128 -48
 3426 063d 00       		.byte	0
 3427 063e 16       		.uleb128 0x16
 3428 063f 12090000 		.4byte	.LBB17
 3429 0643 3C090000 		.4byte	.LBE17
 3430 0647 6A060000 		.4byte	0x66a
 3431 064b 14       		.uleb128 0x14
 3432 064c E5030000 		.4byte	.LASF70
 3433 0650 03       		.byte	0x3
 3434 0651 8701     		.2byte	0x187
 3435 0653 DC000000 		.4byte	0xdc
 3436 0657 02       		.byte	0x2
 3437 0658 91       		.byte	0x91
 3438 0659 6C       		.sleb128 -20
 3439 065a 15       		.uleb128 0x15
 3440 065b 6E756D00 		.ascii	"num\000"
 3441 065f 03       		.byte	0x3
 3442 0660 8801     		.2byte	0x188
 3443 0662 33000000 		.4byte	0x33
 3444 0666 02       		.byte	0x2
 3445 0667 91       		.byte	0x91
 3446 0668 68       		.sleb128 -24
 3447 0669 00       		.byte	0
 3448 066a 16       		.uleb128 0x16
 3449 066b 54090000 		.4byte	.LBB18
 3450 066f 7E090000 		.4byte	.LBE18
 3451 0673 96060000 		.4byte	0x696
 3452 0677 14       		.uleb128 0x14
ARM GAS  G:\Users\Jaxb\AppData\Local\Temp\ccZD0TjZ.s 			page 75


 3453 0678 E5030000 		.4byte	.LASF70
 3454 067c 03       		.byte	0x3
 3455 067d 9501     		.2byte	0x195
 3456 067f DC000000 		.4byte	0xdc
 3457 0683 02       		.byte	0x2
 3458 0684 91       		.byte	0x91
 3459 0685 64       		.sleb128 -28
 3460 0686 15       		.uleb128 0x15
 3461 0687 6E756D00 		.ascii	"num\000"
 3462 068b 03       		.byte	0x3
 3463 068c 9601     		.2byte	0x196
 3464 068e 33000000 		.4byte	0x33
 3465 0692 02       		.byte	0x2
 3466 0693 91       		.byte	0x91
 3467 0694 60       		.sleb128 -32
 3468 0695 00       		.byte	0
 3469 0696 16       		.uleb128 0x16
 3470 0697 96090000 		.4byte	.LBB19
 3471 069b C0090000 		.4byte	.LBE19
 3472 069f C2060000 		.4byte	0x6c2
 3473 06a3 14       		.uleb128 0x14
 3474 06a4 E5030000 		.4byte	.LASF70
 3475 06a8 03       		.byte	0x3
 3476 06a9 A301     		.2byte	0x1a3
 3477 06ab DC000000 		.4byte	0xdc
 3478 06af 02       		.byte	0x2
 3479 06b0 91       		.byte	0x91
 3480 06b1 5C       		.sleb128 -36
 3481 06b2 15       		.uleb128 0x15
 3482 06b3 6E756D00 		.ascii	"num\000"
 3483 06b7 03       		.byte	0x3
 3484 06b8 A401     		.2byte	0x1a4
 3485 06ba 33000000 		.4byte	0x33
 3486 06be 02       		.byte	0x2
 3487 06bf 91       		.byte	0x91
 3488 06c0 58       		.sleb128 -40
 3489 06c1 00       		.byte	0
 3490 06c2 17       		.uleb128 0x17
 3491 06c3 CE090000 		.4byte	.LBB20
 3492 06c7 D6090000 		.4byte	.LBE20
 3493 06cb 14       		.uleb128 0x14
 3494 06cc D3000000 		.4byte	.LASF69
 3495 06d0 03       		.byte	0x3
 3496 06d1 8101     		.2byte	0x181
 3497 06d3 B1050000 		.4byte	0x5b1
 3498 06d7 02       		.byte	0x2
 3499 06d8 91       		.byte	0x91
 3500 06d9 4C       		.sleb128 -52
 3501 06da 00       		.byte	0
 3502 06db 00       		.byte	0
 3503 06dc 12       		.uleb128 0x12
 3504 06dd 01       		.byte	0x1
 3505 06de 9F010000 		.4byte	.LASF73
 3506 06e2 03       		.byte	0x3
 3507 06e3 4801     		.2byte	0x148
 3508 06e5 01       		.byte	0x1
 3509 06e6 B0070000 		.4byte	.LFB24
ARM GAS  G:\Users\Jaxb\AppData\Local\Temp\ccZD0TjZ.s 			page 76


 3510 06ea C4080000 		.4byte	.LFE24
 3511 06ee A4000000 		.4byte	.LLST16
 3512 06f2 01       		.byte	0x1
 3513 06f3 6A070000 		.4byte	0x76a
 3514 06f7 18       		.uleb128 0x18
 3515 06f8 70747200 		.ascii	"ptr\000"
 3516 06fc 03       		.byte	0x3
 3517 06fd 4801     		.2byte	0x148
 3518 06ff A4010000 		.4byte	0x1a4
 3519 0703 02       		.byte	0x2
 3520 0704 91       		.byte	0x91
 3521 0705 5C       		.sleb128 -36
 3522 0706 14       		.uleb128 0x14
 3523 0707 30020000 		.4byte	.LASF66
 3524 070b 03       		.byte	0x3
 3525 070c 4A01     		.2byte	0x14a
 3526 070e A5050000 		.4byte	0x5a5
 3527 0712 02       		.byte	0x2
 3528 0713 91       		.byte	0x91
 3529 0714 74       		.sleb128 -12
 3530 0715 14       		.uleb128 0x14
 3531 0716 0D040000 		.4byte	.LASF67
 3532 071a 03       		.byte	0x3
 3533 071b 4B01     		.2byte	0x14b
 3534 071d AB050000 		.4byte	0x5ab
 3535 0721 02       		.byte	0x2
 3536 0722 91       		.byte	0x91
 3537 0723 68       		.sleb128 -24
 3538 0724 14       		.uleb128 0x14
 3539 0725 A1040000 		.4byte	.LASF68
 3540 0729 03       		.byte	0x3
 3541 072a 4C01     		.2byte	0x14c
 3542 072c 8D030000 		.4byte	0x38d
 3543 0730 02       		.byte	0x2
 3544 0731 91       		.byte	0x91
 3545 0732 70       		.sleb128 -16
 3546 0733 16       		.uleb128 0x16
 3547 0734 CE070000 		.4byte	.LBB14
 3548 0738 D6070000 		.4byte	.LBE14
 3549 073c 50070000 		.4byte	0x750
 3550 0740 14       		.uleb128 0x14
 3551 0741 D3000000 		.4byte	.LASF69
 3552 0745 03       		.byte	0x3
 3553 0746 5201     		.2byte	0x152
 3554 0748 B1050000 		.4byte	0x5b1
 3555 074c 02       		.byte	0x2
 3556 074d 91       		.byte	0x91
 3557 074e 6C       		.sleb128 -20
 3558 074f 00       		.byte	0
 3559 0750 17       		.uleb128 0x17
 3560 0751 76080000 		.4byte	.LBB15
 3561 0755 7E080000 		.4byte	.LBE15
 3562 0759 14       		.uleb128 0x14
 3563 075a D3000000 		.4byte	.LASF69
 3564 075e 03       		.byte	0x3
 3565 075f 5201     		.2byte	0x152
 3566 0761 B1050000 		.4byte	0x5b1
ARM GAS  G:\Users\Jaxb\AppData\Local\Temp\ccZD0TjZ.s 			page 77


 3567 0765 02       		.byte	0x2
 3568 0766 91       		.byte	0x91
 3569 0767 64       		.sleb128 -28
 3570 0768 00       		.byte	0
 3571 0769 00       		.byte	0
 3572 076a 19       		.uleb128 0x19
 3573 076b 01       		.byte	0x1
 3574 076c 80050000 		.4byte	.LASF76
 3575 0770 03       		.byte	0x3
 3576 0771 3901     		.2byte	0x139
 3577 0773 01       		.byte	0x1
 3578 0774 33000000 		.4byte	0x33
 3579 0778 60070000 		.4byte	.LFB23
 3580 077c B0070000 		.4byte	.LFE23
 3581 0780 F4000000 		.4byte	.LLST15
 3582 0784 01       		.byte	0x1
 3583 0785 A8070000 		.4byte	0x7a8
 3584 0789 18       		.uleb128 0x18
 3585 078a 70747200 		.ascii	"ptr\000"
 3586 078e 03       		.byte	0x3
 3587 078f 3901     		.2byte	0x139
 3588 0791 A4010000 		.4byte	0x1a4
 3589 0795 02       		.byte	0x2
 3590 0796 91       		.byte	0x91
 3591 0797 6C       		.sleb128 -20
 3592 0798 14       		.uleb128 0x14
 3593 0799 CA030000 		.4byte	.LASF74
 3594 079d 03       		.byte	0x3
 3595 079e 3B01     		.2byte	0x13b
 3596 07a0 76030000 		.4byte	0x376
 3597 07a4 02       		.byte	0x2
 3598 07a5 91       		.byte	0x91
 3599 07a6 74       		.sleb128 -12
 3600 07a7 00       		.byte	0
 3601 07a8 1A       		.uleb128 0x1a
 3602 07a9 BB000000 		.4byte	.LASF79
 3603 07ad 03       		.byte	0x3
 3604 07ae 2601     		.2byte	0x126
 3605 07b0 01       		.byte	0x1
 3606 07b1 AB050000 		.4byte	0x5ab
 3607 07b5 B8060000 		.4byte	.LFB22
 3608 07b9 60070000 		.4byte	.LFE22
 3609 07bd 44010000 		.4byte	.LLST14
 3610 07c1 01       		.byte	0x1
 3611 07c2 1C080000 		.4byte	0x81c
 3612 07c6 13       		.uleb128 0x13
 3613 07c7 05010000 		.4byte	.LASF75
 3614 07cb 03       		.byte	0x3
 3615 07cc 2601     		.2byte	0x126
 3616 07ce DC000000 		.4byte	0xdc
 3617 07d2 02       		.byte	0x2
 3618 07d3 91       		.byte	0x91
 3619 07d4 64       		.sleb128 -28
 3620 07d5 18       		.uleb128 0x18
 3621 07d6 70747200 		.ascii	"ptr\000"
 3622 07da 03       		.byte	0x3
 3623 07db 2601     		.2byte	0x126
ARM GAS  G:\Users\Jaxb\AppData\Local\Temp\ccZD0TjZ.s 			page 78


 3624 07dd A4010000 		.4byte	0x1a4
 3625 07e1 02       		.byte	0x2
 3626 07e2 91       		.byte	0x91
 3627 07e3 60       		.sleb128 -32
 3628 07e4 15       		.uleb128 0x15
 3629 07e5 706F7300 		.ascii	"pos\000"
 3630 07e9 03       		.byte	0x3
 3631 07ea 2801     		.2byte	0x128
 3632 07ec DC000000 		.4byte	0xdc
 3633 07f0 02       		.byte	0x2
 3634 07f1 91       		.byte	0x91
 3635 07f2 74       		.sleb128 -12
 3636 07f3 14       		.uleb128 0x14
 3637 07f4 0D040000 		.4byte	.LASF67
 3638 07f8 03       		.byte	0x3
 3639 07f9 2901     		.2byte	0x129
 3640 07fb AB050000 		.4byte	0x5ab
 3641 07ff 02       		.byte	0x2
 3642 0800 91       		.byte	0x91
 3643 0801 6C       		.sleb128 -20
 3644 0802 17       		.uleb128 0x17
 3645 0803 CA060000 		.4byte	.LBB13
 3646 0807 D2060000 		.4byte	.LBE13
 3647 080b 14       		.uleb128 0x14
 3648 080c D3000000 		.4byte	.LASF69
 3649 0810 03       		.byte	0x3
 3650 0811 2C01     		.2byte	0x12c
 3651 0813 B7050000 		.4byte	0x5b7
 3652 0817 02       		.byte	0x2
 3653 0818 91       		.byte	0x91
 3654 0819 70       		.sleb128 -16
 3655 081a 00       		.byte	0
 3656 081b 00       		.byte	0
 3657 081c 1B       		.uleb128 0x1b
 3658 081d 01       		.byte	0x1
 3659 081e A1000000 		.4byte	.LASF77
 3660 0822 03       		.byte	0x3
 3661 0823 B4       		.byte	0xb4
 3662 0824 01       		.byte	0x1
 3663 0825 A4010000 		.4byte	0x1a4
 3664 0829 7C040000 		.4byte	.LFB21
 3665 082d B8060000 		.4byte	.LFE21
 3666 0831 94010000 		.4byte	.LLST13
 3667 0835 01       		.byte	0x1
 3668 0836 4E090000 		.4byte	0x94e
 3669 083a 1C       		.uleb128 0x1c
 3670 083b 30040000 		.4byte	.LASF78
 3671 083f 03       		.byte	0x3
 3672 0840 B4       		.byte	0xb4
 3673 0841 6A000000 		.4byte	0x6a
 3674 0845 02       		.byte	0x2
 3675 0846 91       		.byte	0x91
 3676 0847 44       		.sleb128 -60
 3677 0848 1D       		.uleb128 0x1d
 3678 0849 70747200 		.ascii	"ptr\000"
 3679 084d 03       		.byte	0x3
 3680 084e B6       		.byte	0xb6
ARM GAS  G:\Users\Jaxb\AppData\Local\Temp\ccZD0TjZ.s 			page 79


 3681 084f A4010000 		.4byte	0x1a4
 3682 0853 02       		.byte	0x2
 3683 0854 91       		.byte	0x91
 3684 0855 68       		.sleb128 -24
 3685 0856 10       		.uleb128 0x10
 3686 0857 30020000 		.4byte	.LASF66
 3687 085b 03       		.byte	0x3
 3688 085c B7       		.byte	0xb7
 3689 085d A5050000 		.4byte	0x5a5
 3690 0861 02       		.byte	0x2
 3691 0862 91       		.byte	0x91
 3692 0863 74       		.sleb128 -12
 3693 0864 10       		.uleb128 0x10
 3694 0865 A1040000 		.4byte	.LASF68
 3695 0869 03       		.byte	0x3
 3696 086a B8       		.byte	0xb8
 3697 086b 8D030000 		.4byte	0x38d
 3698 086f 02       		.byte	0x2
 3699 0870 91       		.byte	0x91
 3700 0871 70       		.sleb128 -16
 3701 0872 16       		.uleb128 0x16
 3702 0873 C4040000 		.4byte	.LBB5
 3703 0877 18050000 		.4byte	.LBE5
 3704 087b A6080000 		.4byte	0x8a6
 3705 087f 10       		.uleb128 0x10
 3706 0880 0D040000 		.4byte	.LASF67
 3707 0884 03       		.byte	0x3
 3708 0885 C8       		.byte	0xc8
 3709 0886 AB050000 		.4byte	0x5ab
 3710 088a 02       		.byte	0x2
 3711 088b 91       		.byte	0x91
 3712 088c 48       		.sleb128 -56
 3713 088d 17       		.uleb128 0x17
 3714 088e C4040000 		.4byte	.LBB6
 3715 0892 CE040000 		.4byte	.LBE6
 3716 0896 10       		.uleb128 0x10
 3717 0897 D3000000 		.4byte	.LASF69
 3718 089b 03       		.byte	0x3
 3719 089c C8       		.byte	0xc8
 3720 089d B7050000 		.4byte	0x5b7
 3721 08a1 02       		.byte	0x2
 3722 08a2 91       		.byte	0x91
 3723 08a3 4C       		.sleb128 -52
 3724 08a4 00       		.byte	0
 3725 08a5 00       		.byte	0
 3726 08a6 16       		.uleb128 0x16
 3727 08a7 28050000 		.4byte	.LBB7
 3728 08ab 74050000 		.4byte	.LBE7
 3729 08af DA080000 		.4byte	0x8da
 3730 08b3 10       		.uleb128 0x10
 3731 08b4 0D040000 		.4byte	.LASF67
 3732 08b8 03       		.byte	0x3
 3733 08b9 D5       		.byte	0xd5
 3734 08ba AB050000 		.4byte	0x5ab
 3735 08be 02       		.byte	0x2
 3736 08bf 91       		.byte	0x91
 3737 08c0 50       		.sleb128 -48
ARM GAS  G:\Users\Jaxb\AppData\Local\Temp\ccZD0TjZ.s 			page 80


 3738 08c1 17       		.uleb128 0x17
 3739 08c2 28050000 		.4byte	.LBB8
 3740 08c6 32050000 		.4byte	.LBE8
 3741 08ca 10       		.uleb128 0x10
 3742 08cb D3000000 		.4byte	.LASF69
 3743 08cf 03       		.byte	0x3
 3744 08d0 D5       		.byte	0xd5
 3745 08d1 B7050000 		.4byte	0x5b7
 3746 08d5 02       		.byte	0x2
 3747 08d6 91       		.byte	0x91
 3748 08d7 54       		.sleb128 -44
 3749 08d8 00       		.byte	0
 3750 08d9 00       		.byte	0
 3751 08da 16       		.uleb128 0x16
 3752 08db 74050000 		.4byte	.LBB9
 3753 08df F6050000 		.4byte	.LBE9
 3754 08e3 34090000 		.4byte	0x934
 3755 08e7 10       		.uleb128 0x10
 3756 08e8 0D040000 		.4byte	.LASF67
 3757 08ec 03       		.byte	0x3
 3758 08ed E0       		.byte	0xe0
 3759 08ee AB050000 		.4byte	0x5ab
 3760 08f2 02       		.byte	0x2
 3761 08f3 91       		.byte	0x91
 3762 08f4 60       		.sleb128 -32
 3763 08f5 10       		.uleb128 0x10
 3764 08f6 51040000 		.4byte	.LASF41
 3765 08fa 03       		.byte	0x3
 3766 08fb E1       		.byte	0xe1
 3767 08fc 6A000000 		.4byte	0x6a
 3768 0900 02       		.byte	0x2
 3769 0901 91       		.byte	0x91
 3770 0902 64       		.sleb128 -28
 3771 0903 17       		.uleb128 0x17
 3772 0904 D4050000 		.4byte	.LBB10
 3773 0908 F6050000 		.4byte	.LBE10
 3774 090c 1D       		.uleb128 0x1d
 3775 090d 706F7300 		.ascii	"pos\000"
 3776 0911 03       		.byte	0x3
 3777 0912 F0       		.byte	0xf0
 3778 0913 A3000000 		.4byte	0xa3
 3779 0917 02       		.byte	0x2
 3780 0918 91       		.byte	0x91
 3781 0919 5C       		.sleb128 -36
 3782 091a 17       		.uleb128 0x17
 3783 091b EC050000 		.4byte	.LBB11
 3784 091f F2050000 		.4byte	.LBE11
 3785 0923 10       		.uleb128 0x10
 3786 0924 D3000000 		.4byte	.LASF69
 3787 0928 03       		.byte	0x3
 3788 0929 F6       		.byte	0xf6
 3789 092a B1050000 		.4byte	0x5b1
 3790 092e 02       		.byte	0x2
 3791 092f 91       		.byte	0x91
 3792 0930 58       		.sleb128 -40
 3793 0931 00       		.byte	0
 3794 0932 00       		.byte	0
ARM GAS  G:\Users\Jaxb\AppData\Local\Temp\ccZD0TjZ.s 			page 81


 3795 0933 00       		.byte	0
 3796 0934 17       		.uleb128 0x17
 3797 0935 34060000 		.4byte	.LBB12
 3798 0939 A2060000 		.4byte	.LBE12
 3799 093d 14       		.uleb128 0x14
 3800 093e 51040000 		.4byte	.LASF41
 3801 0942 03       		.byte	0x3
 3802 0943 0C01     		.2byte	0x10c
 3803 0945 33000000 		.4byte	0x33
 3804 0949 02       		.byte	0x2
 3805 094a 91       		.byte	0x91
 3806 094b 6C       		.sleb128 -20
 3807 094c 00       		.byte	0
 3808 094d 00       		.byte	0
 3809 094e 1E       		.uleb128 0x1e
 3810 094f 88010000 		.4byte	.LASF80
 3811 0953 03       		.byte	0x3
 3812 0954 5D       		.byte	0x5d
 3813 0955 01       		.byte	0x1
 3814 0956 A4010000 		.4byte	0x1a4
 3815 095a E8020000 		.4byte	.LFB20
 3816 095e 7C040000 		.4byte	.LFE20
 3817 0962 E6010000 		.4byte	.LLST12
 3818 0966 01       		.byte	0x1
 3819 0967 96090000 		.4byte	0x996
 3820 096b 1C       		.uleb128 0x1c
 3821 096c 51040000 		.4byte	.LASF41
 3822 0970 03       		.byte	0x3
 3823 0971 5D       		.byte	0x5d
 3824 0972 6A000000 		.4byte	0x6a
 3825 0976 02       		.byte	0x2
 3826 0977 91       		.byte	0x91
 3827 0978 6C       		.sleb128 -20
 3828 0979 10       		.uleb128 0x10
 3829 097a 0D040000 		.4byte	.LASF67
 3830 097e 03       		.byte	0x3
 3831 097f 5F       		.byte	0x5f
 3832 0980 AB050000 		.4byte	0x5ab
 3833 0984 02       		.byte	0x2
 3834 0985 91       		.byte	0x91
 3835 0986 74       		.sleb128 -12
 3836 0987 10       		.uleb128 0x10
 3837 0988 CA030000 		.4byte	.LASF74
 3838 098c 03       		.byte	0x3
 3839 098d 60       		.byte	0x60
 3840 098e 76030000 		.4byte	0x376
 3841 0992 02       		.byte	0x2
 3842 0993 91       		.byte	0x91
 3843 0994 70       		.sleb128 -16
 3844 0995 00       		.byte	0
 3845 0996 1F       		.uleb128 0x1f
 3846 0997 01       		.byte	0x1
 3847 0998 E3010000 		.4byte	.LASF81
 3848 099c 03       		.byte	0x3
 3849 099d 51       		.byte	0x51
 3850 099e 01       		.byte	0x1
 3851 099f 33000000 		.4byte	0x33
ARM GAS  G:\Users\Jaxb\AppData\Local\Temp\ccZD0TjZ.s 			page 82


 3852 09a3 64020000 		.4byte	.LFB19
 3853 09a7 E8020000 		.4byte	.LFE19
 3854 09ab 36020000 		.4byte	.LLST11
 3855 09af 01       		.byte	0x1
 3856 09b0 CF090000 		.4byte	0x9cf
 3857 09b4 20       		.uleb128 0x20
 3858 09b5 6E756D00 		.ascii	"num\000"
 3859 09b9 03       		.byte	0x3
 3860 09ba 51       		.byte	0x51
 3861 09bb 6A000000 		.4byte	0x6a
 3862 09bf 02       		.byte	0x2
 3863 09c0 91       		.byte	0x91
 3864 09c1 6C       		.sleb128 -20
 3865 09c2 1D       		.uleb128 0x1d
 3866 09c3 6E00     		.ascii	"n\000"
 3867 09c5 03       		.byte	0x3
 3868 09c6 53       		.byte	0x53
 3869 09c7 33000000 		.4byte	0x33
 3870 09cb 02       		.byte	0x2
 3871 09cc 91       		.byte	0x91
 3872 09cd 74       		.sleb128 -12
 3873 09ce 00       		.byte	0
 3874 09cf 21       		.uleb128 0x21
 3875 09d0 01       		.byte	0x1
 3876 09d1 16000000 		.4byte	.LASF97
 3877 09d5 03       		.byte	0x3
 3878 09d6 3F       		.byte	0x3f
 3879 09d7 01       		.byte	0x1
 3880 09d8 10020000 		.4byte	.LFB18
 3881 09dc 64020000 		.4byte	.LFE18
 3882 09e0 92020000 		.4byte	.LLST10
 3883 09e4 01       		.byte	0x1
 3884 09e5 1E       		.uleb128 0x1e
 3885 09e6 35040000 		.4byte	.LASF82
 3886 09ea 03       		.byte	0x3
 3887 09eb 2D       		.byte	0x2d
 3888 09ec 01       		.byte	0x1
 3889 09ed 33000000 		.4byte	0x33
 3890 09f1 9C010000 		.4byte	.LFB17
 3891 09f5 10020000 		.4byte	.LFE17
 3892 09f9 BE020000 		.4byte	.LLST9
 3893 09fd 01       		.byte	0x1
 3894 09fe 450A0000 		.4byte	0xa45
 3895 0a02 20       		.uleb128 0x20
 3896 0a03 70747200 		.ascii	"ptr\000"
 3897 0a07 03       		.byte	0x3
 3898 0a08 2D       		.byte	0x2d
 3899 0a09 A4010000 		.4byte	0x1a4
 3900 0a0d 02       		.byte	0x2
 3901 0a0e 91       		.byte	0x91
 3902 0a0f 64       		.sleb128 -28
 3903 0a10 1D       		.uleb128 0x1d
 3904 0a11 706F7300 		.ascii	"pos\000"
 3905 0a15 03       		.byte	0x3
 3906 0a16 2F       		.byte	0x2f
 3907 0a17 A3000000 		.4byte	0xa3
 3908 0a1b 02       		.byte	0x2
ARM GAS  G:\Users\Jaxb\AppData\Local\Temp\ccZD0TjZ.s 			page 83


 3909 0a1c 91       		.byte	0x91
 3910 0a1d 74       		.sleb128 -12
 3911 0a1e 10       		.uleb128 0x10
 3912 0a1f 25010000 		.4byte	.LASF83
 3913 0a23 03       		.byte	0x3
 3914 0a24 30       		.byte	0x30
 3915 0a25 450A0000 		.4byte	0xa45
 3916 0a29 02       		.byte	0x2
 3917 0a2a 91       		.byte	0x91
 3918 0a2b 6C       		.sleb128 -20
 3919 0a2c 17       		.uleb128 0x17
 3920 0a2d AC010000 		.4byte	.LBB4
 3921 0a31 B4010000 		.4byte	.LBE4
 3922 0a35 10       		.uleb128 0x10
 3923 0a36 D3000000 		.4byte	.LASF69
 3924 0a3a 03       		.byte	0x3
 3925 0a3b 33       		.byte	0x33
 3926 0a3c B1050000 		.4byte	0x5b1
 3927 0a40 02       		.byte	0x2
 3928 0a41 91       		.byte	0x91
 3929 0a42 70       		.sleb128 -16
 3930 0a43 00       		.byte	0
 3931 0a44 00       		.byte	0
 3932 0a45 09       		.uleb128 0x9
 3933 0a46 04       		.byte	0x4
 3934 0a47 80020000 		.4byte	0x280
 3935 0a4b 1B       		.uleb128 0x1b
 3936 0a4c 01       		.byte	0x1
 3937 0a4d 00000000 		.4byte	.LASF84
 3938 0a51 03       		.byte	0x3
 3939 0a52 20       		.byte	0x20
 3940 0a53 01       		.byte	0x1
 3941 0a54 33000000 		.4byte	0x33
 3942 0a58 58010000 		.4byte	.LFB16
 3943 0a5c 9C010000 		.4byte	.LFE16
 3944 0a60 0E030000 		.4byte	.LLST8
 3945 0a64 01       		.byte	0x1
 3946 0a65 940A0000 		.4byte	0xa94
 3947 0a69 1C       		.uleb128 0x1c
 3948 0a6a 51040000 		.4byte	.LASF41
 3949 0a6e 03       		.byte	0x3
 3950 0a6f 20       		.byte	0x20
 3951 0a70 6A000000 		.4byte	0x6a
 3952 0a74 02       		.byte	0x2
 3953 0a75 91       		.byte	0x91
 3954 0a76 6C       		.sleb128 -20
 3955 0a77 20       		.uleb128 0x20
 3956 0a78 70747200 		.ascii	"ptr\000"
 3957 0a7c 03       		.byte	0x3
 3958 0a7d 20       		.byte	0x20
 3959 0a7e A4010000 		.4byte	0x1a4
 3960 0a82 02       		.byte	0x2
 3961 0a83 91       		.byte	0x91
 3962 0a84 68       		.sleb128 -24
 3963 0a85 10       		.uleb128 0x10
 3964 0a86 57040000 		.4byte	.LASF85
 3965 0a8a 03       		.byte	0x3
ARM GAS  G:\Users\Jaxb\AppData\Local\Temp\ccZD0TjZ.s 			page 84


 3966 0a8b 22       		.byte	0x22
 3967 0a8c 450A0000 		.4byte	0xa45
 3968 0a90 02       		.byte	0x2
 3969 0a91 91       		.byte	0x91
 3970 0a92 74       		.sleb128 -12
 3971 0a93 00       		.byte	0
 3972 0a94 22       		.uleb128 0x22
 3973 0a95 01       		.byte	0x1
 3974 0a96 7A000000 		.4byte	.LASF86
 3975 0a9a 03       		.byte	0x3
 3976 0a9b 14       		.byte	0x14
 3977 0a9c 01       		.byte	0x1
 3978 0a9d EA000000 		.4byte	.LFB15
 3979 0aa1 58010000 		.4byte	.LFE15
 3980 0aa5 5E030000 		.4byte	.LLST7
 3981 0aa9 01       		.byte	0x1
 3982 0aaa FD0A0000 		.4byte	0xafd
 3983 0aae 1D       		.uleb128 0x1d
 3984 0aaf 6900     		.ascii	"i\000"
 3985 0ab1 03       		.byte	0x3
 3986 0ab2 16       		.byte	0x16
 3987 0ab3 6A000000 		.4byte	0x6a
 3988 0ab7 02       		.byte	0x2
 3989 0ab8 91       		.byte	0x91
 3990 0ab9 74       		.sleb128 -12
 3991 0aba 10       		.uleb128 0x10
 3992 0abb 25010000 		.4byte	.LASF83
 3993 0abf 03       		.byte	0x3
 3994 0ac0 17       		.byte	0x17
 3995 0ac1 450A0000 		.4byte	0xa45
 3996 0ac5 02       		.byte	0x2
 3997 0ac6 91       		.byte	0x91
 3998 0ac7 70       		.sleb128 -16
 3999 0ac8 16       		.uleb128 0x16
 4000 0ac9 F4000000 		.4byte	.LBB2
 4001 0acd FE000000 		.4byte	.LBE2
 4002 0ad1 E40A0000 		.4byte	0xae4
 4003 0ad5 10       		.uleb128 0x10
 4004 0ad6 D3000000 		.4byte	.LASF69
 4005 0ada 03       		.byte	0x3
 4006 0adb 18       		.byte	0x18
 4007 0adc B1050000 		.4byte	0x5b1
 4008 0ae0 02       		.byte	0x2
 4009 0ae1 91       		.byte	0x91
 4010 0ae2 6C       		.sleb128 -20
 4011 0ae3 00       		.byte	0
 4012 0ae4 17       		.uleb128 0x17
 4013 0ae5 28010000 		.4byte	.LBB3
 4014 0ae9 32010000 		.4byte	.LBE3
 4015 0aed 10       		.uleb128 0x10
 4016 0aee D3000000 		.4byte	.LASF69
 4017 0af2 03       		.byte	0x3
 4018 0af3 18       		.byte	0x18
 4019 0af4 B1050000 		.4byte	0x5b1
 4020 0af8 02       		.byte	0x2
 4021 0af9 91       		.byte	0x91
 4022 0afa 68       		.sleb128 -24
ARM GAS  G:\Users\Jaxb\AppData\Local\Temp\ccZD0TjZ.s 			page 85


 4023 0afb 00       		.byte	0
 4024 0afc 00       		.byte	0
 4025 0afd 23       		.uleb128 0x23
 4026 0afe 5A010000 		.4byte	.LASF87
 4027 0b02 02       		.byte	0x2
 4028 0b03 52       		.byte	0x52
 4029 0b04 01       		.byte	0x1
 4030 0b05 33000000 		.4byte	0x33
 4031 0b09 C8000000 		.4byte	.LFB13
 4032 0b0d EA000000 		.4byte	.LFE13
 4033 0b11 AE030000 		.4byte	.LLST6
 4034 0b15 01       		.byte	0x1
 4035 0b16 290B0000 		.4byte	0xb29
 4036 0b1a 1C       		.uleb128 0x1c
 4037 0b1b 05010000 		.4byte	.LASF75
 4038 0b1f 02       		.byte	0x2
 4039 0b20 52       		.byte	0x52
 4040 0b21 B7050000 		.4byte	0x5b7
 4041 0b25 02       		.byte	0x2
 4042 0b26 91       		.byte	0x91
 4043 0b27 74       		.sleb128 -12
 4044 0b28 00       		.byte	0
 4045 0b29 24       		.uleb128 0x24
 4046 0b2a 04040000 		.4byte	.LASF89
 4047 0b2e 02       		.byte	0x2
 4048 0b2f 35       		.byte	0x35
 4049 0b30 01       		.byte	0x1
 4050 0b31 A8000000 		.4byte	.LFB9
 4051 0b35 C8000000 		.4byte	.LFE9
 4052 0b39 0A040000 		.4byte	.LLST5
 4053 0b3d 01       		.byte	0x1
 4054 0b3e 510B0000 		.4byte	0xb51
 4055 0b42 1C       		.uleb128 0x1c
 4056 0b43 AE020000 		.4byte	.LASF88
 4057 0b47 02       		.byte	0x2
 4058 0b48 35       		.byte	0x35
 4059 0b49 DC000000 		.4byte	0xdc
 4060 0b4d 02       		.byte	0x2
 4061 0b4e 91       		.byte	0x91
 4062 0b4f 74       		.sleb128 -12
 4063 0b50 00       		.byte	0
 4064 0b51 25       		.uleb128 0x25
 4065 0b52 B4020000 		.4byte	.LASF90
 4066 0b56 02       		.byte	0x2
 4067 0b57 2E       		.byte	0x2e
 4068 0b58 01       		.byte	0x1
 4069 0b59 88000000 		.4byte	.LFB8
 4070 0b5d A8000000 		.4byte	.LFE8
 4071 0b61 5A040000 		.4byte	.LLST4
 4072 0b65 01       		.byte	0x1
 4073 0b66 870B0000 		.4byte	0xb87
 4074 0b6a 1C       		.uleb128 0x1c
 4075 0b6b 65050000 		.4byte	.LASF13
 4076 0b6f 02       		.byte	0x2
 4077 0b70 2E       		.byte	0x2e
 4078 0b71 DC000000 		.4byte	0xdc
 4079 0b75 02       		.byte	0x2
ARM GAS  G:\Users\Jaxb\AppData\Local\Temp\ccZD0TjZ.s 			page 86


 4080 0b76 91       		.byte	0x91
 4081 0b77 74       		.sleb128 -12
 4082 0b78 1C       		.uleb128 0x1c
 4083 0b79 A9050000 		.4byte	.LASF12
 4084 0b7d 02       		.byte	0x2
 4085 0b7e 2E       		.byte	0x2e
 4086 0b7f DC000000 		.4byte	0xdc
 4087 0b83 02       		.byte	0x2
 4088 0b84 91       		.byte	0x91
 4089 0b85 70       		.sleb128 -16
 4090 0b86 00       		.byte	0
 4091 0b87 24       		.uleb128 0x24
 4092 0b88 AB000000 		.4byte	.LASF91
 4093 0b8c 02       		.byte	0x2
 4094 0b8d 22       		.byte	0x22
 4095 0b8e 01       		.byte	0x1
 4096 0b8f 68000000 		.4byte	.LFB6
 4097 0b93 88000000 		.4byte	.LFE6
 4098 0b97 B6040000 		.4byte	.LLST3
 4099 0b9b 01       		.byte	0x1
 4100 0b9c BD0B0000 		.4byte	0xbbd
 4101 0ba0 20       		.uleb128 0x20
 4102 0ba1 6E657700 		.ascii	"new\000"
 4103 0ba5 02       		.byte	0x2
 4104 0ba6 22       		.byte	0x22
 4105 0ba7 DC000000 		.4byte	0xdc
 4106 0bab 02       		.byte	0x2
 4107 0bac 91       		.byte	0x91
 4108 0bad 74       		.sleb128 -12
 4109 0bae 1C       		.uleb128 0x1c
 4110 0baf 05010000 		.4byte	.LASF75
 4111 0bb3 02       		.byte	0x2
 4112 0bb4 22       		.byte	0x22
 4113 0bb5 DC000000 		.4byte	0xdc
 4114 0bb9 02       		.byte	0x2
 4115 0bba 91       		.byte	0x91
 4116 0bbb 70       		.sleb128 -16
 4117 0bbc 00       		.byte	0
 4118 0bbd 25       		.uleb128 0x25
 4119 0bbe 3E010000 		.4byte	.LASF92
 4120 0bc2 02       		.byte	0x2
 4121 0bc3 17       		.byte	0x17
 4122 0bc4 01       		.byte	0x1
 4123 0bc5 3A000000 		.4byte	.LFB5
 4124 0bc9 68000000 		.4byte	.LFE5
 4125 0bcd 06050000 		.4byte	.LLST2
 4126 0bd1 01       		.byte	0x1
 4127 0bd2 010C0000 		.4byte	0xc01
 4128 0bd6 20       		.uleb128 0x20
 4129 0bd7 6E657700 		.ascii	"new\000"
 4130 0bdb 02       		.byte	0x2
 4131 0bdc 17       		.byte	0x17
 4132 0bdd DC000000 		.4byte	0xdc
 4133 0be1 02       		.byte	0x2
 4134 0be2 91       		.byte	0x91
 4135 0be3 74       		.sleb128 -12
 4136 0be4 1C       		.uleb128 0x1c
ARM GAS  G:\Users\Jaxb\AppData\Local\Temp\ccZD0TjZ.s 			page 87


 4137 0be5 65050000 		.4byte	.LASF13
 4138 0be9 02       		.byte	0x2
 4139 0bea 18       		.byte	0x18
 4140 0beb DC000000 		.4byte	0xdc
 4141 0bef 02       		.byte	0x2
 4142 0bf0 91       		.byte	0x91
 4143 0bf1 70       		.sleb128 -16
 4144 0bf2 1C       		.uleb128 0x1c
 4145 0bf3 A9050000 		.4byte	.LASF12
 4146 0bf7 02       		.byte	0x2
 4147 0bf8 19       		.byte	0x19
 4148 0bf9 DC000000 		.4byte	0xdc
 4149 0bfd 02       		.byte	0x2
 4150 0bfe 91       		.byte	0x91
 4151 0bff 6C       		.sleb128 -20
 4152 0c00 00       		.byte	0
 4153 0c01 25       		.uleb128 0x25
 4154 0c02 42000000 		.4byte	.LASF93
 4155 0c06 01       		.byte	0x1
 4156 0c07 12       		.byte	0x12
 4157 0c08 01       		.byte	0x1
 4158 0c09 18000000 		.4byte	.LFB1
 4159 0c0d 3A000000 		.4byte	.LFE1
 4160 0c11 62050000 		.4byte	.LLST1
 4161 0c15 01       		.byte	0x1
 4162 0c16 370C0000 		.4byte	0xc37
 4163 0c1a 20       		.uleb128 0x20
 4164 0c1b 6E657700 		.ascii	"new\000"
 4165 0c1f 01       		.byte	0x1
 4166 0c20 12       		.byte	0x12
 4167 0c21 A3000000 		.4byte	0xa3
 4168 0c25 02       		.byte	0x2
 4169 0c26 91       		.byte	0x91
 4170 0c27 74       		.sleb128 -12
 4171 0c28 1C       		.uleb128 0x1c
 4172 0c29 05010000 		.4byte	.LASF75
 4173 0c2d 01       		.byte	0x1
 4174 0c2e 12       		.byte	0x12
 4175 0c2f A3000000 		.4byte	0xa3
 4176 0c33 02       		.byte	0x2
 4177 0c34 91       		.byte	0x91
 4178 0c35 70       		.sleb128 -16
 4179 0c36 00       		.byte	0
 4180 0c37 26       		.uleb128 0x26
 4181 0c38 DA000000 		.4byte	.LASF98
 4182 0c3c 01       		.byte	0x1
 4183 0c3d 0D       		.byte	0xd
 4184 0c3e 01       		.byte	0x1
 4185 0c3f 00000000 		.4byte	.LFB0
 4186 0c43 18000000 		.4byte	.LFE0
 4187 0c47 BE050000 		.4byte	.LLST0
 4188 0c4b 01       		.byte	0x1
 4189 0c4c 1C       		.uleb128 0x1c
 4190 0c4d 91030000 		.4byte	.LASF42
 4191 0c51 01       		.byte	0x1
 4192 0c52 0D       		.byte	0xd
 4193 0c53 A3000000 		.4byte	0xa3
ARM GAS  G:\Users\Jaxb\AppData\Local\Temp\ccZD0TjZ.s 			page 88


 4194 0c57 02       		.byte	0x2
 4195 0c58 91       		.byte	0x91
 4196 0c59 74       		.sleb128 -12
 4197 0c5a 00       		.byte	0
 4198 0c5b 00       		.byte	0
 4199              		.section	.debug_abbrev,"",%progbits
 4200              	.Ldebug_abbrev0:
 4201 0000 01       		.uleb128 0x1
 4202 0001 11       		.uleb128 0x11
 4203 0002 01       		.byte	0x1
 4204 0003 25       		.uleb128 0x25
 4205 0004 0E       		.uleb128 0xe
 4206 0005 13       		.uleb128 0x13
 4207 0006 0B       		.uleb128 0xb
 4208 0007 03       		.uleb128 0x3
 4209 0008 0E       		.uleb128 0xe
 4210 0009 1B       		.uleb128 0x1b
 4211 000a 0E       		.uleb128 0xe
 4212 000b 11       		.uleb128 0x11
 4213 000c 01       		.uleb128 0x1
 4214 000d 12       		.uleb128 0x12
 4215 000e 01       		.uleb128 0x1
 4216 000f 10       		.uleb128 0x10
 4217 0010 06       		.uleb128 0x6
 4218 0011 00       		.byte	0
 4219 0012 00       		.byte	0
 4220 0013 02       		.uleb128 0x2
 4221 0014 24       		.uleb128 0x24
 4222 0015 00       		.byte	0
 4223 0016 0B       		.uleb128 0xb
 4224 0017 0B       		.uleb128 0xb
 4225 0018 3E       		.uleb128 0x3e
 4226 0019 0B       		.uleb128 0xb
 4227 001a 03       		.uleb128 0x3
 4228 001b 0E       		.uleb128 0xe
 4229 001c 00       		.byte	0
 4230 001d 00       		.byte	0
 4231 001e 03       		.uleb128 0x3
 4232 001f 24       		.uleb128 0x24
 4233 0020 00       		.byte	0
 4234 0021 0B       		.uleb128 0xb
 4235 0022 0B       		.uleb128 0xb
 4236 0023 3E       		.uleb128 0x3e
 4237 0024 0B       		.uleb128 0xb
 4238 0025 03       		.uleb128 0x3
 4239 0026 08       		.uleb128 0x8
 4240 0027 00       		.byte	0
 4241 0028 00       		.byte	0
 4242 0029 04       		.uleb128 0x4
 4243 002a 35       		.uleb128 0x35
 4244 002b 00       		.byte	0
 4245 002c 49       		.uleb128 0x49
 4246 002d 13       		.uleb128 0x13
 4247 002e 00       		.byte	0
 4248 002f 00       		.byte	0
 4249 0030 05       		.uleb128 0x5
 4250 0031 16       		.uleb128 0x16
ARM GAS  G:\Users\Jaxb\AppData\Local\Temp\ccZD0TjZ.s 			page 89


 4251 0032 00       		.byte	0
 4252 0033 03       		.uleb128 0x3
 4253 0034 0E       		.uleb128 0xe
 4254 0035 3A       		.uleb128 0x3a
 4255 0036 0B       		.uleb128 0xb
 4256 0037 3B       		.uleb128 0x3b
 4257 0038 0B       		.uleb128 0xb
 4258 0039 49       		.uleb128 0x49
 4259 003a 13       		.uleb128 0x13
 4260 003b 00       		.byte	0
 4261 003c 00       		.byte	0
 4262 003d 06       		.uleb128 0x6
 4263 003e 13       		.uleb128 0x13
 4264 003f 01       		.byte	0x1
 4265 0040 03       		.uleb128 0x3
 4266 0041 0E       		.uleb128 0xe
 4267 0042 0B       		.uleb128 0xb
 4268 0043 0B       		.uleb128 0xb
 4269 0044 3A       		.uleb128 0x3a
 4270 0045 0B       		.uleb128 0xb
 4271 0046 3B       		.uleb128 0x3b
 4272 0047 0B       		.uleb128 0xb
 4273 0048 01       		.uleb128 0x1
 4274 0049 13       		.uleb128 0x13
 4275 004a 00       		.byte	0
 4276 004b 00       		.byte	0
 4277 004c 07       		.uleb128 0x7
 4278 004d 0D       		.uleb128 0xd
 4279 004e 00       		.byte	0
 4280 004f 03       		.uleb128 0x3
 4281 0050 0E       		.uleb128 0xe
 4282 0051 3A       		.uleb128 0x3a
 4283 0052 0B       		.uleb128 0xb
 4284 0053 3B       		.uleb128 0x3b
 4285 0054 0B       		.uleb128 0xb
 4286 0055 49       		.uleb128 0x49
 4287 0056 13       		.uleb128 0x13
 4288 0057 38       		.uleb128 0x38
 4289 0058 0A       		.uleb128 0xa
 4290 0059 00       		.byte	0
 4291 005a 00       		.byte	0
 4292 005b 08       		.uleb128 0x8
 4293 005c 26       		.uleb128 0x26
 4294 005d 00       		.byte	0
 4295 005e 49       		.uleb128 0x49
 4296 005f 13       		.uleb128 0x13
 4297 0060 00       		.byte	0
 4298 0061 00       		.byte	0
 4299 0062 09       		.uleb128 0x9
 4300 0063 0F       		.uleb128 0xf
 4301 0064 00       		.byte	0
 4302 0065 0B       		.uleb128 0xb
 4303 0066 0B       		.uleb128 0xb
 4304 0067 49       		.uleb128 0x49
 4305 0068 13       		.uleb128 0x13
 4306 0069 00       		.byte	0
 4307 006a 00       		.byte	0
ARM GAS  G:\Users\Jaxb\AppData\Local\Temp\ccZD0TjZ.s 			page 90


 4308 006b 0A       		.uleb128 0xa
 4309 006c 0F       		.uleb128 0xf
 4310 006d 00       		.byte	0
 4311 006e 0B       		.uleb128 0xb
 4312 006f 0B       		.uleb128 0xb
 4313 0070 00       		.byte	0
 4314 0071 00       		.byte	0
 4315 0072 0B       		.uleb128 0xb
 4316 0073 13       		.uleb128 0x13
 4317 0074 01       		.byte	0x1
 4318 0075 0B       		.uleb128 0xb
 4319 0076 05       		.uleb128 0x5
 4320 0077 3A       		.uleb128 0x3a
 4321 0078 0B       		.uleb128 0xb
 4322 0079 3B       		.uleb128 0x3b
 4323 007a 0B       		.uleb128 0xb
 4324 007b 01       		.uleb128 0x1
 4325 007c 13       		.uleb128 0x13
 4326 007d 00       		.byte	0
 4327 007e 00       		.byte	0
 4328 007f 0C       		.uleb128 0xc
 4329 0080 0D       		.uleb128 0xd
 4330 0081 00       		.byte	0
 4331 0082 03       		.uleb128 0x3
 4332 0083 08       		.uleb128 0x8
 4333 0084 3A       		.uleb128 0x3a
 4334 0085 0B       		.uleb128 0xb
 4335 0086 3B       		.uleb128 0x3b
 4336 0087 0B       		.uleb128 0xb
 4337 0088 49       		.uleb128 0x49
 4338 0089 13       		.uleb128 0x13
 4339 008a 38       		.uleb128 0x38
 4340 008b 0A       		.uleb128 0xa
 4341 008c 00       		.byte	0
 4342 008d 00       		.byte	0
 4343 008e 0D       		.uleb128 0xd
 4344 008f 01       		.uleb128 0x1
 4345 0090 01       		.byte	0x1
 4346 0091 49       		.uleb128 0x49
 4347 0092 13       		.uleb128 0x13
 4348 0093 01       		.uleb128 0x1
 4349 0094 13       		.uleb128 0x13
 4350 0095 00       		.byte	0
 4351 0096 00       		.byte	0
 4352 0097 0E       		.uleb128 0xe
 4353 0098 21       		.uleb128 0x21
 4354 0099 00       		.byte	0
 4355 009a 49       		.uleb128 0x49
 4356 009b 13       		.uleb128 0x13
 4357 009c 2F       		.uleb128 0x2f
 4358 009d 0B       		.uleb128 0xb
 4359 009e 00       		.byte	0
 4360 009f 00       		.byte	0
 4361 00a0 0F       		.uleb128 0xf
 4362 00a1 34       		.uleb128 0x34
 4363 00a2 00       		.byte	0
 4364 00a3 03       		.uleb128 0x3
ARM GAS  G:\Users\Jaxb\AppData\Local\Temp\ccZD0TjZ.s 			page 91


 4365 00a4 0E       		.uleb128 0xe
 4366 00a5 3A       		.uleb128 0x3a
 4367 00a6 0B       		.uleb128 0xb
 4368 00a7 3B       		.uleb128 0x3b
 4369 00a8 0B       		.uleb128 0xb
 4370 00a9 49       		.uleb128 0x49
 4371 00aa 13       		.uleb128 0x13
 4372 00ab 3F       		.uleb128 0x3f
 4373 00ac 0C       		.uleb128 0xc
 4374 00ad 3C       		.uleb128 0x3c
 4375 00ae 0C       		.uleb128 0xc
 4376 00af 00       		.byte	0
 4377 00b0 00       		.byte	0
 4378 00b1 10       		.uleb128 0x10
 4379 00b2 34       		.uleb128 0x34
 4380 00b3 00       		.byte	0
 4381 00b4 03       		.uleb128 0x3
 4382 00b5 0E       		.uleb128 0xe
 4383 00b6 3A       		.uleb128 0x3a
 4384 00b7 0B       		.uleb128 0xb
 4385 00b8 3B       		.uleb128 0x3b
 4386 00b9 0B       		.uleb128 0xb
 4387 00ba 49       		.uleb128 0x49
 4388 00bb 13       		.uleb128 0x13
 4389 00bc 02       		.uleb128 0x2
 4390 00bd 0A       		.uleb128 0xa
 4391 00be 00       		.byte	0
 4392 00bf 00       		.byte	0
 4393 00c0 11       		.uleb128 0x11
 4394 00c1 34       		.uleb128 0x34
 4395 00c2 00       		.byte	0
 4396 00c3 03       		.uleb128 0x3
 4397 00c4 0E       		.uleb128 0xe
 4398 00c5 3A       		.uleb128 0x3a
 4399 00c6 0B       		.uleb128 0xb
 4400 00c7 3B       		.uleb128 0x3b
 4401 00c8 0B       		.uleb128 0xb
 4402 00c9 49       		.uleb128 0x49
 4403 00ca 13       		.uleb128 0x13
 4404 00cb 3F       		.uleb128 0x3f
 4405 00cc 0C       		.uleb128 0xc
 4406 00cd 02       		.uleb128 0x2
 4407 00ce 0A       		.uleb128 0xa
 4408 00cf 00       		.byte	0
 4409 00d0 00       		.byte	0
 4410 00d1 12       		.uleb128 0x12
 4411 00d2 2E       		.uleb128 0x2e
 4412 00d3 01       		.byte	0x1
 4413 00d4 3F       		.uleb128 0x3f
 4414 00d5 0C       		.uleb128 0xc
 4415 00d6 03       		.uleb128 0x3
 4416 00d7 0E       		.uleb128 0xe
 4417 00d8 3A       		.uleb128 0x3a
 4418 00d9 0B       		.uleb128 0xb
 4419 00da 3B       		.uleb128 0x3b
 4420 00db 05       		.uleb128 0x5
 4421 00dc 27       		.uleb128 0x27
ARM GAS  G:\Users\Jaxb\AppData\Local\Temp\ccZD0TjZ.s 			page 92


 4422 00dd 0C       		.uleb128 0xc
 4423 00de 11       		.uleb128 0x11
 4424 00df 01       		.uleb128 0x1
 4425 00e0 12       		.uleb128 0x12
 4426 00e1 01       		.uleb128 0x1
 4427 00e2 40       		.uleb128 0x40
 4428 00e3 06       		.uleb128 0x6
 4429 00e4 9642     		.uleb128 0x2116
 4430 00e6 0C       		.uleb128 0xc
 4431 00e7 01       		.uleb128 0x1
 4432 00e8 13       		.uleb128 0x13
 4433 00e9 00       		.byte	0
 4434 00ea 00       		.byte	0
 4435 00eb 13       		.uleb128 0x13
 4436 00ec 05       		.uleb128 0x5
 4437 00ed 00       		.byte	0
 4438 00ee 03       		.uleb128 0x3
 4439 00ef 0E       		.uleb128 0xe
 4440 00f0 3A       		.uleb128 0x3a
 4441 00f1 0B       		.uleb128 0xb
 4442 00f2 3B       		.uleb128 0x3b
 4443 00f3 05       		.uleb128 0x5
 4444 00f4 49       		.uleb128 0x49
 4445 00f5 13       		.uleb128 0x13
 4446 00f6 02       		.uleb128 0x2
 4447 00f7 0A       		.uleb128 0xa
 4448 00f8 00       		.byte	0
 4449 00f9 00       		.byte	0
 4450 00fa 14       		.uleb128 0x14
 4451 00fb 34       		.uleb128 0x34
 4452 00fc 00       		.byte	0
 4453 00fd 03       		.uleb128 0x3
 4454 00fe 0E       		.uleb128 0xe
 4455 00ff 3A       		.uleb128 0x3a
 4456 0100 0B       		.uleb128 0xb
 4457 0101 3B       		.uleb128 0x3b
 4458 0102 05       		.uleb128 0x5
 4459 0103 49       		.uleb128 0x49
 4460 0104 13       		.uleb128 0x13
 4461 0105 02       		.uleb128 0x2
 4462 0106 0A       		.uleb128 0xa
 4463 0107 00       		.byte	0
 4464 0108 00       		.byte	0
 4465 0109 15       		.uleb128 0x15
 4466 010a 34       		.uleb128 0x34
 4467 010b 00       		.byte	0
 4468 010c 03       		.uleb128 0x3
 4469 010d 08       		.uleb128 0x8
 4470 010e 3A       		.uleb128 0x3a
 4471 010f 0B       		.uleb128 0xb
 4472 0110 3B       		.uleb128 0x3b
 4473 0111 05       		.uleb128 0x5
 4474 0112 49       		.uleb128 0x49
 4475 0113 13       		.uleb128 0x13
 4476 0114 02       		.uleb128 0x2
 4477 0115 0A       		.uleb128 0xa
 4478 0116 00       		.byte	0
ARM GAS  G:\Users\Jaxb\AppData\Local\Temp\ccZD0TjZ.s 			page 93


 4479 0117 00       		.byte	0
 4480 0118 16       		.uleb128 0x16
 4481 0119 0B       		.uleb128 0xb
 4482 011a 01       		.byte	0x1
 4483 011b 11       		.uleb128 0x11
 4484 011c 01       		.uleb128 0x1
 4485 011d 12       		.uleb128 0x12
 4486 011e 01       		.uleb128 0x1
 4487 011f 01       		.uleb128 0x1
 4488 0120 13       		.uleb128 0x13
 4489 0121 00       		.byte	0
 4490 0122 00       		.byte	0
 4491 0123 17       		.uleb128 0x17
 4492 0124 0B       		.uleb128 0xb
 4493 0125 01       		.byte	0x1
 4494 0126 11       		.uleb128 0x11
 4495 0127 01       		.uleb128 0x1
 4496 0128 12       		.uleb128 0x12
 4497 0129 01       		.uleb128 0x1
 4498 012a 00       		.byte	0
 4499 012b 00       		.byte	0
 4500 012c 18       		.uleb128 0x18
 4501 012d 05       		.uleb128 0x5
 4502 012e 00       		.byte	0
 4503 012f 03       		.uleb128 0x3
 4504 0130 08       		.uleb128 0x8
 4505 0131 3A       		.uleb128 0x3a
 4506 0132 0B       		.uleb128 0xb
 4507 0133 3B       		.uleb128 0x3b
 4508 0134 05       		.uleb128 0x5
 4509 0135 49       		.uleb128 0x49
 4510 0136 13       		.uleb128 0x13
 4511 0137 02       		.uleb128 0x2
 4512 0138 0A       		.uleb128 0xa
 4513 0139 00       		.byte	0
 4514 013a 00       		.byte	0
 4515 013b 19       		.uleb128 0x19
 4516 013c 2E       		.uleb128 0x2e
 4517 013d 01       		.byte	0x1
 4518 013e 3F       		.uleb128 0x3f
 4519 013f 0C       		.uleb128 0xc
 4520 0140 03       		.uleb128 0x3
 4521 0141 0E       		.uleb128 0xe
 4522 0142 3A       		.uleb128 0x3a
 4523 0143 0B       		.uleb128 0xb
 4524 0144 3B       		.uleb128 0x3b
 4525 0145 05       		.uleb128 0x5
 4526 0146 27       		.uleb128 0x27
 4527 0147 0C       		.uleb128 0xc
 4528 0148 49       		.uleb128 0x49
 4529 0149 13       		.uleb128 0x13
 4530 014a 11       		.uleb128 0x11
 4531 014b 01       		.uleb128 0x1
 4532 014c 12       		.uleb128 0x12
 4533 014d 01       		.uleb128 0x1
 4534 014e 40       		.uleb128 0x40
 4535 014f 06       		.uleb128 0x6
ARM GAS  G:\Users\Jaxb\AppData\Local\Temp\ccZD0TjZ.s 			page 94


 4536 0150 9642     		.uleb128 0x2116
 4537 0152 0C       		.uleb128 0xc
 4538 0153 01       		.uleb128 0x1
 4539 0154 13       		.uleb128 0x13
 4540 0155 00       		.byte	0
 4541 0156 00       		.byte	0
 4542 0157 1A       		.uleb128 0x1a
 4543 0158 2E       		.uleb128 0x2e
 4544 0159 01       		.byte	0x1
 4545 015a 03       		.uleb128 0x3
 4546 015b 0E       		.uleb128 0xe
 4547 015c 3A       		.uleb128 0x3a
 4548 015d 0B       		.uleb128 0xb
 4549 015e 3B       		.uleb128 0x3b
 4550 015f 05       		.uleb128 0x5
 4551 0160 27       		.uleb128 0x27
 4552 0161 0C       		.uleb128 0xc
 4553 0162 49       		.uleb128 0x49
 4554 0163 13       		.uleb128 0x13
 4555 0164 11       		.uleb128 0x11
 4556 0165 01       		.uleb128 0x1
 4557 0166 12       		.uleb128 0x12
 4558 0167 01       		.uleb128 0x1
 4559 0168 40       		.uleb128 0x40
 4560 0169 06       		.uleb128 0x6
 4561 016a 9642     		.uleb128 0x2116
 4562 016c 0C       		.uleb128 0xc
 4563 016d 01       		.uleb128 0x1
 4564 016e 13       		.uleb128 0x13
 4565 016f 00       		.byte	0
 4566 0170 00       		.byte	0
 4567 0171 1B       		.uleb128 0x1b
 4568 0172 2E       		.uleb128 0x2e
 4569 0173 01       		.byte	0x1
 4570 0174 3F       		.uleb128 0x3f
 4571 0175 0C       		.uleb128 0xc
 4572 0176 03       		.uleb128 0x3
 4573 0177 0E       		.uleb128 0xe
 4574 0178 3A       		.uleb128 0x3a
 4575 0179 0B       		.uleb128 0xb
 4576 017a 3B       		.uleb128 0x3b
 4577 017b 0B       		.uleb128 0xb
 4578 017c 27       		.uleb128 0x27
 4579 017d 0C       		.uleb128 0xc
 4580 017e 49       		.uleb128 0x49
 4581 017f 13       		.uleb128 0x13
 4582 0180 11       		.uleb128 0x11
 4583 0181 01       		.uleb128 0x1
 4584 0182 12       		.uleb128 0x12
 4585 0183 01       		.uleb128 0x1
 4586 0184 40       		.uleb128 0x40
 4587 0185 06       		.uleb128 0x6
 4588 0186 9642     		.uleb128 0x2116
 4589 0188 0C       		.uleb128 0xc
 4590 0189 01       		.uleb128 0x1
 4591 018a 13       		.uleb128 0x13
 4592 018b 00       		.byte	0
ARM GAS  G:\Users\Jaxb\AppData\Local\Temp\ccZD0TjZ.s 			page 95


 4593 018c 00       		.byte	0
 4594 018d 1C       		.uleb128 0x1c
 4595 018e 05       		.uleb128 0x5
 4596 018f 00       		.byte	0
 4597 0190 03       		.uleb128 0x3
 4598 0191 0E       		.uleb128 0xe
 4599 0192 3A       		.uleb128 0x3a
 4600 0193 0B       		.uleb128 0xb
 4601 0194 3B       		.uleb128 0x3b
 4602 0195 0B       		.uleb128 0xb
 4603 0196 49       		.uleb128 0x49
 4604 0197 13       		.uleb128 0x13
 4605 0198 02       		.uleb128 0x2
 4606 0199 0A       		.uleb128 0xa
 4607 019a 00       		.byte	0
 4608 019b 00       		.byte	0
 4609 019c 1D       		.uleb128 0x1d
 4610 019d 34       		.uleb128 0x34
 4611 019e 00       		.byte	0
 4612 019f 03       		.uleb128 0x3
 4613 01a0 08       		.uleb128 0x8
 4614 01a1 3A       		.uleb128 0x3a
 4615 01a2 0B       		.uleb128 0xb
 4616 01a3 3B       		.uleb128 0x3b
 4617 01a4 0B       		.uleb128 0xb
 4618 01a5 49       		.uleb128 0x49
 4619 01a6 13       		.uleb128 0x13
 4620 01a7 02       		.uleb128 0x2
 4621 01a8 0A       		.uleb128 0xa
 4622 01a9 00       		.byte	0
 4623 01aa 00       		.byte	0
 4624 01ab 1E       		.uleb128 0x1e
 4625 01ac 2E       		.uleb128 0x2e
 4626 01ad 01       		.byte	0x1
 4627 01ae 03       		.uleb128 0x3
 4628 01af 0E       		.uleb128 0xe
 4629 01b0 3A       		.uleb128 0x3a
 4630 01b1 0B       		.uleb128 0xb
 4631 01b2 3B       		.uleb128 0x3b
 4632 01b3 0B       		.uleb128 0xb
 4633 01b4 27       		.uleb128 0x27
 4634 01b5 0C       		.uleb128 0xc
 4635 01b6 49       		.uleb128 0x49
 4636 01b7 13       		.uleb128 0x13
 4637 01b8 11       		.uleb128 0x11
 4638 01b9 01       		.uleb128 0x1
 4639 01ba 12       		.uleb128 0x12
 4640 01bb 01       		.uleb128 0x1
 4641 01bc 40       		.uleb128 0x40
 4642 01bd 06       		.uleb128 0x6
 4643 01be 9642     		.uleb128 0x2116
 4644 01c0 0C       		.uleb128 0xc
 4645 01c1 01       		.uleb128 0x1
 4646 01c2 13       		.uleb128 0x13
 4647 01c3 00       		.byte	0
 4648 01c4 00       		.byte	0
 4649 01c5 1F       		.uleb128 0x1f
ARM GAS  G:\Users\Jaxb\AppData\Local\Temp\ccZD0TjZ.s 			page 96


 4650 01c6 2E       		.uleb128 0x2e
 4651 01c7 01       		.byte	0x1
 4652 01c8 3F       		.uleb128 0x3f
 4653 01c9 0C       		.uleb128 0xc
 4654 01ca 03       		.uleb128 0x3
 4655 01cb 0E       		.uleb128 0xe
 4656 01cc 3A       		.uleb128 0x3a
 4657 01cd 0B       		.uleb128 0xb
 4658 01ce 3B       		.uleb128 0x3b
 4659 01cf 0B       		.uleb128 0xb
 4660 01d0 27       		.uleb128 0x27
 4661 01d1 0C       		.uleb128 0xc
 4662 01d2 49       		.uleb128 0x49
 4663 01d3 13       		.uleb128 0x13
 4664 01d4 11       		.uleb128 0x11
 4665 01d5 01       		.uleb128 0x1
 4666 01d6 12       		.uleb128 0x12
 4667 01d7 01       		.uleb128 0x1
 4668 01d8 40       		.uleb128 0x40
 4669 01d9 06       		.uleb128 0x6
 4670 01da 9742     		.uleb128 0x2117
 4671 01dc 0C       		.uleb128 0xc
 4672 01dd 01       		.uleb128 0x1
 4673 01de 13       		.uleb128 0x13
 4674 01df 00       		.byte	0
 4675 01e0 00       		.byte	0
 4676 01e1 20       		.uleb128 0x20
 4677 01e2 05       		.uleb128 0x5
 4678 01e3 00       		.byte	0
 4679 01e4 03       		.uleb128 0x3
 4680 01e5 08       		.uleb128 0x8
 4681 01e6 3A       		.uleb128 0x3a
 4682 01e7 0B       		.uleb128 0xb
 4683 01e8 3B       		.uleb128 0x3b
 4684 01e9 0B       		.uleb128 0xb
 4685 01ea 49       		.uleb128 0x49
 4686 01eb 13       		.uleb128 0x13
 4687 01ec 02       		.uleb128 0x2
 4688 01ed 0A       		.uleb128 0xa
 4689 01ee 00       		.byte	0
 4690 01ef 00       		.byte	0
 4691 01f0 21       		.uleb128 0x21
 4692 01f1 2E       		.uleb128 0x2e
 4693 01f2 00       		.byte	0
 4694 01f3 3F       		.uleb128 0x3f
 4695 01f4 0C       		.uleb128 0xc
 4696 01f5 03       		.uleb128 0x3
 4697 01f6 0E       		.uleb128 0xe
 4698 01f7 3A       		.uleb128 0x3a
 4699 01f8 0B       		.uleb128 0xb
 4700 01f9 3B       		.uleb128 0x3b
 4701 01fa 0B       		.uleb128 0xb
 4702 01fb 27       		.uleb128 0x27
 4703 01fc 0C       		.uleb128 0xc
 4704 01fd 11       		.uleb128 0x11
 4705 01fe 01       		.uleb128 0x1
 4706 01ff 12       		.uleb128 0x12
ARM GAS  G:\Users\Jaxb\AppData\Local\Temp\ccZD0TjZ.s 			page 97


 4707 0200 01       		.uleb128 0x1
 4708 0201 40       		.uleb128 0x40
 4709 0202 06       		.uleb128 0x6
 4710 0203 9642     		.uleb128 0x2116
 4711 0205 0C       		.uleb128 0xc
 4712 0206 00       		.byte	0
 4713 0207 00       		.byte	0
 4714 0208 22       		.uleb128 0x22
 4715 0209 2E       		.uleb128 0x2e
 4716 020a 01       		.byte	0x1
 4717 020b 3F       		.uleb128 0x3f
 4718 020c 0C       		.uleb128 0xc
 4719 020d 03       		.uleb128 0x3
 4720 020e 0E       		.uleb128 0xe
 4721 020f 3A       		.uleb128 0x3a
 4722 0210 0B       		.uleb128 0xb
 4723 0211 3B       		.uleb128 0x3b
 4724 0212 0B       		.uleb128 0xb
 4725 0213 27       		.uleb128 0x27
 4726 0214 0C       		.uleb128 0xc
 4727 0215 11       		.uleb128 0x11
 4728 0216 01       		.uleb128 0x1
 4729 0217 12       		.uleb128 0x12
 4730 0218 01       		.uleb128 0x1
 4731 0219 40       		.uleb128 0x40
 4732 021a 06       		.uleb128 0x6
 4733 021b 9642     		.uleb128 0x2116
 4734 021d 0C       		.uleb128 0xc
 4735 021e 01       		.uleb128 0x1
 4736 021f 13       		.uleb128 0x13
 4737 0220 00       		.byte	0
 4738 0221 00       		.byte	0
 4739 0222 23       		.uleb128 0x23
 4740 0223 2E       		.uleb128 0x2e
 4741 0224 01       		.byte	0x1
 4742 0225 03       		.uleb128 0x3
 4743 0226 0E       		.uleb128 0xe
 4744 0227 3A       		.uleb128 0x3a
 4745 0228 0B       		.uleb128 0xb
 4746 0229 3B       		.uleb128 0x3b
 4747 022a 0B       		.uleb128 0xb
 4748 022b 27       		.uleb128 0x27
 4749 022c 0C       		.uleb128 0xc
 4750 022d 49       		.uleb128 0x49
 4751 022e 13       		.uleb128 0x13
 4752 022f 11       		.uleb128 0x11
 4753 0230 01       		.uleb128 0x1
 4754 0231 12       		.uleb128 0x12
 4755 0232 01       		.uleb128 0x1
 4756 0233 40       		.uleb128 0x40
 4757 0234 06       		.uleb128 0x6
 4758 0235 9742     		.uleb128 0x2117
 4759 0237 0C       		.uleb128 0xc
 4760 0238 01       		.uleb128 0x1
 4761 0239 13       		.uleb128 0x13
 4762 023a 00       		.byte	0
 4763 023b 00       		.byte	0
ARM GAS  G:\Users\Jaxb\AppData\Local\Temp\ccZD0TjZ.s 			page 98


 4764 023c 24       		.uleb128 0x24
 4765 023d 2E       		.uleb128 0x2e
 4766 023e 01       		.byte	0x1
 4767 023f 03       		.uleb128 0x3
 4768 0240 0E       		.uleb128 0xe
 4769 0241 3A       		.uleb128 0x3a
 4770 0242 0B       		.uleb128 0xb
 4771 0243 3B       		.uleb128 0x3b
 4772 0244 0B       		.uleb128 0xb
 4773 0245 27       		.uleb128 0x27
 4774 0246 0C       		.uleb128 0xc
 4775 0247 11       		.uleb128 0x11
 4776 0248 01       		.uleb128 0x1
 4777 0249 12       		.uleb128 0x12
 4778 024a 01       		.uleb128 0x1
 4779 024b 40       		.uleb128 0x40
 4780 024c 06       		.uleb128 0x6
 4781 024d 9642     		.uleb128 0x2116
 4782 024f 0C       		.uleb128 0xc
 4783 0250 01       		.uleb128 0x1
 4784 0251 13       		.uleb128 0x13
 4785 0252 00       		.byte	0
 4786 0253 00       		.byte	0
 4787 0254 25       		.uleb128 0x25
 4788 0255 2E       		.uleb128 0x2e
 4789 0256 01       		.byte	0x1
 4790 0257 03       		.uleb128 0x3
 4791 0258 0E       		.uleb128 0xe
 4792 0259 3A       		.uleb128 0x3a
 4793 025a 0B       		.uleb128 0xb
 4794 025b 3B       		.uleb128 0x3b
 4795 025c 0B       		.uleb128 0xb
 4796 025d 27       		.uleb128 0x27
 4797 025e 0C       		.uleb128 0xc
 4798 025f 11       		.uleb128 0x11
 4799 0260 01       		.uleb128 0x1
 4800 0261 12       		.uleb128 0x12
 4801 0262 01       		.uleb128 0x1
 4802 0263 40       		.uleb128 0x40
 4803 0264 06       		.uleb128 0x6
 4804 0265 9742     		.uleb128 0x2117
 4805 0267 0C       		.uleb128 0xc
 4806 0268 01       		.uleb128 0x1
 4807 0269 13       		.uleb128 0x13
 4808 026a 00       		.byte	0
 4809 026b 00       		.byte	0
 4810 026c 26       		.uleb128 0x26
 4811 026d 2E       		.uleb128 0x2e
 4812 026e 01       		.byte	0x1
 4813 026f 03       		.uleb128 0x3
 4814 0270 0E       		.uleb128 0xe
 4815 0271 3A       		.uleb128 0x3a
 4816 0272 0B       		.uleb128 0xb
 4817 0273 3B       		.uleb128 0x3b
 4818 0274 0B       		.uleb128 0xb
 4819 0275 27       		.uleb128 0x27
 4820 0276 0C       		.uleb128 0xc
ARM GAS  G:\Users\Jaxb\AppData\Local\Temp\ccZD0TjZ.s 			page 99


 4821 0277 11       		.uleb128 0x11
 4822 0278 01       		.uleb128 0x1
 4823 0279 12       		.uleb128 0x12
 4824 027a 01       		.uleb128 0x1
 4825 027b 40       		.uleb128 0x40
 4826 027c 06       		.uleb128 0x6
 4827 027d 9742     		.uleb128 0x2117
 4828 027f 0C       		.uleb128 0xc
 4829 0280 00       		.byte	0
 4830 0281 00       		.byte	0
 4831 0282 00       		.byte	0
 4832              		.section	.debug_loc,"",%progbits
 4833              	.Ldebug_loc0:
 4834              	.LLST18:
 4835 0000 180A0000 		.4byte	.LFB26-.Ltext0
 4836 0004 1A0A0000 		.4byte	.LCFI93-.Ltext0
 4837 0008 0200     		.2byte	0x2
 4838 000a 7D       		.byte	0x7d
 4839 000b 00       		.sleb128 0
 4840 000c 1A0A0000 		.4byte	.LCFI93-.Ltext0
 4841 0010 1C0A0000 		.4byte	.LCFI94-.Ltext0
 4842 0014 0200     		.2byte	0x2
 4843 0016 7D       		.byte	0x7d
 4844 0017 08       		.sleb128 8
 4845 0018 1C0A0000 		.4byte	.LCFI94-.Ltext0
 4846 001c 1E0A0000 		.4byte	.LCFI95-.Ltext0
 4847 0020 0300     		.2byte	0x3
 4848 0022 7D       		.byte	0x7d
 4849 0023 D000     		.sleb128 80
 4850 0025 1E0A0000 		.4byte	.LCFI95-.Ltext0
 4851 0029 5A0C0000 		.4byte	.LCFI96-.Ltext0
 4852 002d 0300     		.2byte	0x3
 4853 002f 77       		.byte	0x77
 4854 0030 D000     		.sleb128 80
 4855 0032 5A0C0000 		.4byte	.LCFI96-.Ltext0
 4856 0036 5C0C0000 		.4byte	.LCFI97-.Ltext0
 4857 003a 0200     		.2byte	0x2
 4858 003c 77       		.byte	0x77
 4859 003d 08       		.sleb128 8
 4860 003e 5C0C0000 		.4byte	.LCFI97-.Ltext0
 4861 0042 AC0C0000 		.4byte	.LFE26-.Ltext0
 4862 0046 0200     		.2byte	0x2
 4863 0048 7D       		.byte	0x7d
 4864 0049 08       		.sleb128 8
 4865 004a 00000000 		.4byte	0
 4866 004e 00000000 		.4byte	0
 4867              	.LLST17:
 4868 0052 C4080000 		.4byte	.LFB25-.Ltext0
 4869 0056 C6080000 		.4byte	.LCFI88-.Ltext0
 4870 005a 0200     		.2byte	0x2
 4871 005c 7D       		.byte	0x7d
 4872 005d 00       		.sleb128 0
 4873 005e C6080000 		.4byte	.LCFI88-.Ltext0
 4874 0062 C8080000 		.4byte	.LCFI89-.Ltext0
 4875 0066 0200     		.2byte	0x2
 4876 0068 7D       		.byte	0x7d
 4877 0069 08       		.sleb128 8
ARM GAS  G:\Users\Jaxb\AppData\Local\Temp\ccZD0TjZ.s 			page 100


 4878 006a C8080000 		.4byte	.LCFI89-.Ltext0
 4879 006e CA080000 		.4byte	.LCFI90-.Ltext0
 4880 0072 0300     		.2byte	0x3
 4881 0074 7D       		.byte	0x7d
 4882 0075 C000     		.sleb128 64
 4883 0077 CA080000 		.4byte	.LCFI90-.Ltext0
 4884 007b EA090000 		.4byte	.LCFI91-.Ltext0
 4885 007f 0300     		.2byte	0x3
 4886 0081 77       		.byte	0x77
 4887 0082 C000     		.sleb128 64
 4888 0084 EA090000 		.4byte	.LCFI91-.Ltext0
 4889 0088 EC090000 		.4byte	.LCFI92-.Ltext0
 4890 008c 0200     		.2byte	0x2
 4891 008e 77       		.byte	0x77
 4892 008f 08       		.sleb128 8
 4893 0090 EC090000 		.4byte	.LCFI92-.Ltext0
 4894 0094 180A0000 		.4byte	.LFE25-.Ltext0
 4895 0098 0200     		.2byte	0x2
 4896 009a 7D       		.byte	0x7d
 4897 009b 08       		.sleb128 8
 4898 009c 00000000 		.4byte	0
 4899 00a0 00000000 		.4byte	0
 4900              	.LLST16:
 4901 00a4 B0070000 		.4byte	.LFB24-.Ltext0
 4902 00a8 B2070000 		.4byte	.LCFI83-.Ltext0
 4903 00ac 0200     		.2byte	0x2
 4904 00ae 7D       		.byte	0x7d
 4905 00af 00       		.sleb128 0
 4906 00b0 B2070000 		.4byte	.LCFI83-.Ltext0
 4907 00b4 B4070000 		.4byte	.LCFI84-.Ltext0
 4908 00b8 0200     		.2byte	0x2
 4909 00ba 7D       		.byte	0x7d
 4910 00bb 08       		.sleb128 8
 4911 00bc B4070000 		.4byte	.LCFI84-.Ltext0
 4912 00c0 B6070000 		.4byte	.LCFI85-.Ltext0
 4913 00c4 0200     		.2byte	0x2
 4914 00c6 7D       		.byte	0x7d
 4915 00c7 28       		.sleb128 40
 4916 00c8 B6070000 		.4byte	.LCFI85-.Ltext0
 4917 00cc B2080000 		.4byte	.LCFI86-.Ltext0
 4918 00d0 0200     		.2byte	0x2
 4919 00d2 77       		.byte	0x77
 4920 00d3 28       		.sleb128 40
 4921 00d4 B2080000 		.4byte	.LCFI86-.Ltext0
 4922 00d8 B4080000 		.4byte	.LCFI87-.Ltext0
 4923 00dc 0200     		.2byte	0x2
 4924 00de 77       		.byte	0x77
 4925 00df 08       		.sleb128 8
 4926 00e0 B4080000 		.4byte	.LCFI87-.Ltext0
 4927 00e4 C4080000 		.4byte	.LFE24-.Ltext0
 4928 00e8 0200     		.2byte	0x2
 4929 00ea 7D       		.byte	0x7d
 4930 00eb 08       		.sleb128 8
 4931 00ec 00000000 		.4byte	0
 4932 00f0 00000000 		.4byte	0
 4933              	.LLST15:
 4934 00f4 60070000 		.4byte	.LFB23-.Ltext0
ARM GAS  G:\Users\Jaxb\AppData\Local\Temp\ccZD0TjZ.s 			page 101


 4935 00f8 62070000 		.4byte	.LCFI78-.Ltext0
 4936 00fc 0200     		.2byte	0x2
 4937 00fe 7D       		.byte	0x7d
 4938 00ff 00       		.sleb128 0
 4939 0100 62070000 		.4byte	.LCFI78-.Ltext0
 4940 0104 64070000 		.4byte	.LCFI79-.Ltext0
 4941 0108 0200     		.2byte	0x2
 4942 010a 7D       		.byte	0x7d
 4943 010b 08       		.sleb128 8
 4944 010c 64070000 		.4byte	.LCFI79-.Ltext0
 4945 0110 66070000 		.4byte	.LCFI80-.Ltext0
 4946 0114 0200     		.2byte	0x2
 4947 0116 7D       		.byte	0x7d
 4948 0117 18       		.sleb128 24
 4949 0118 66070000 		.4byte	.LCFI80-.Ltext0
 4950 011c A6070000 		.4byte	.LCFI81-.Ltext0
 4951 0120 0200     		.2byte	0x2
 4952 0122 77       		.byte	0x77
 4953 0123 18       		.sleb128 24
 4954 0124 A6070000 		.4byte	.LCFI81-.Ltext0
 4955 0128 A8070000 		.4byte	.LCFI82-.Ltext0
 4956 012c 0200     		.2byte	0x2
 4957 012e 77       		.byte	0x77
 4958 012f 08       		.sleb128 8
 4959 0130 A8070000 		.4byte	.LCFI82-.Ltext0
 4960 0134 B0070000 		.4byte	.LFE23-.Ltext0
 4961 0138 0200     		.2byte	0x2
 4962 013a 7D       		.byte	0x7d
 4963 013b 08       		.sleb128 8
 4964 013c 00000000 		.4byte	0
 4965 0140 00000000 		.4byte	0
 4966              	.LLST14:
 4967 0144 B8060000 		.4byte	.LFB22-.Ltext0
 4968 0148 BA060000 		.4byte	.LCFI73-.Ltext0
 4969 014c 0200     		.2byte	0x2
 4970 014e 7D       		.byte	0x7d
 4971 014f 00       		.sleb128 0
 4972 0150 BA060000 		.4byte	.LCFI73-.Ltext0
 4973 0154 BC060000 		.4byte	.LCFI74-.Ltext0
 4974 0158 0200     		.2byte	0x2
 4975 015a 7D       		.byte	0x7d
 4976 015b 08       		.sleb128 8
 4977 015c BC060000 		.4byte	.LCFI74-.Ltext0
 4978 0160 BE060000 		.4byte	.LCFI75-.Ltext0
 4979 0164 0200     		.2byte	0x2
 4980 0166 7D       		.byte	0x7d
 4981 0167 20       		.sleb128 32
 4982 0168 BE060000 		.4byte	.LCFI75-.Ltext0
 4983 016c 56070000 		.4byte	.LCFI76-.Ltext0
 4984 0170 0200     		.2byte	0x2
 4985 0172 77       		.byte	0x77
 4986 0173 20       		.sleb128 32
 4987 0174 56070000 		.4byte	.LCFI76-.Ltext0
 4988 0178 58070000 		.4byte	.LCFI77-.Ltext0
 4989 017c 0200     		.2byte	0x2
 4990 017e 77       		.byte	0x77
 4991 017f 08       		.sleb128 8
ARM GAS  G:\Users\Jaxb\AppData\Local\Temp\ccZD0TjZ.s 			page 102


 4992 0180 58070000 		.4byte	.LCFI77-.Ltext0
 4993 0184 60070000 		.4byte	.LFE22-.Ltext0
 4994 0188 0200     		.2byte	0x2
 4995 018a 7D       		.byte	0x7d
 4996 018b 08       		.sleb128 8
 4997 018c 00000000 		.4byte	0
 4998 0190 00000000 		.4byte	0
 4999              	.LLST13:
 5000 0194 7C040000 		.4byte	.LFB21-.Ltext0
 5001 0198 7E040000 		.4byte	.LCFI68-.Ltext0
 5002 019c 0200     		.2byte	0x2
 5003 019e 7D       		.byte	0x7d
 5004 019f 00       		.sleb128 0
 5005 01a0 7E040000 		.4byte	.LCFI68-.Ltext0
 5006 01a4 80040000 		.4byte	.LCFI69-.Ltext0
 5007 01a8 0200     		.2byte	0x2
 5008 01aa 7D       		.byte	0x7d
 5009 01ab 08       		.sleb128 8
 5010 01ac 80040000 		.4byte	.LCFI69-.Ltext0
 5011 01b0 82040000 		.4byte	.LCFI70-.Ltext0
 5012 01b4 0300     		.2byte	0x3
 5013 01b6 7D       		.byte	0x7d
 5014 01b7 C000     		.sleb128 64
 5015 01b9 82040000 		.4byte	.LCFI70-.Ltext0
 5016 01bd A6060000 		.4byte	.LCFI71-.Ltext0
 5017 01c1 0300     		.2byte	0x3
 5018 01c3 77       		.byte	0x77
 5019 01c4 C000     		.sleb128 64
 5020 01c6 A6060000 		.4byte	.LCFI71-.Ltext0
 5021 01ca A8060000 		.4byte	.LCFI72-.Ltext0
 5022 01ce 0200     		.2byte	0x2
 5023 01d0 77       		.byte	0x77
 5024 01d1 08       		.sleb128 8
 5025 01d2 A8060000 		.4byte	.LCFI72-.Ltext0
 5026 01d6 B8060000 		.4byte	.LFE21-.Ltext0
 5027 01da 0200     		.2byte	0x2
 5028 01dc 7D       		.byte	0x7d
 5029 01dd 08       		.sleb128 8
 5030 01de 00000000 		.4byte	0
 5031 01e2 00000000 		.4byte	0
 5032              	.LLST12:
 5033 01e6 E8020000 		.4byte	.LFB20-.Ltext0
 5034 01ea EA020000 		.4byte	.LCFI63-.Ltext0
 5035 01ee 0200     		.2byte	0x2
 5036 01f0 7D       		.byte	0x7d
 5037 01f1 00       		.sleb128 0
 5038 01f2 EA020000 		.4byte	.LCFI63-.Ltext0
 5039 01f6 EC020000 		.4byte	.LCFI64-.Ltext0
 5040 01fa 0200     		.2byte	0x2
 5041 01fc 7D       		.byte	0x7d
 5042 01fd 08       		.sleb128 8
 5043 01fe EC020000 		.4byte	.LCFI64-.Ltext0
 5044 0202 EE020000 		.4byte	.LCFI65-.Ltext0
 5045 0206 0200     		.2byte	0x2
 5046 0208 7D       		.byte	0x7d
 5047 0209 18       		.sleb128 24
 5048 020a EE020000 		.4byte	.LCFI65-.Ltext0
ARM GAS  G:\Users\Jaxb\AppData\Local\Temp\ccZD0TjZ.s 			page 103


 5049 020e 6A040000 		.4byte	.LCFI66-.Ltext0
 5050 0212 0200     		.2byte	0x2
 5051 0214 77       		.byte	0x77
 5052 0215 18       		.sleb128 24
 5053 0216 6A040000 		.4byte	.LCFI66-.Ltext0
 5054 021a 6C040000 		.4byte	.LCFI67-.Ltext0
 5055 021e 0200     		.2byte	0x2
 5056 0220 77       		.byte	0x77
 5057 0221 08       		.sleb128 8
 5058 0222 6C040000 		.4byte	.LCFI67-.Ltext0
 5059 0226 7C040000 		.4byte	.LFE20-.Ltext0
 5060 022a 0200     		.2byte	0x2
 5061 022c 7D       		.byte	0x7d
 5062 022d 08       		.sleb128 8
 5063 022e 00000000 		.4byte	0
 5064 0232 00000000 		.4byte	0
 5065              	.LLST11:
 5066 0236 64020000 		.4byte	.LFB19-.Ltext0
 5067 023a 66020000 		.4byte	.LCFI57-.Ltext0
 5068 023e 0200     		.2byte	0x2
 5069 0240 7D       		.byte	0x7d
 5070 0241 00       		.sleb128 0
 5071 0242 66020000 		.4byte	.LCFI57-.Ltext0
 5072 0246 68020000 		.4byte	.LCFI58-.Ltext0
 5073 024a 0200     		.2byte	0x2
 5074 024c 7D       		.byte	0x7d
 5075 024d 04       		.sleb128 4
 5076 024e 68020000 		.4byte	.LCFI58-.Ltext0
 5077 0252 6A020000 		.4byte	.LCFI59-.Ltext0
 5078 0256 0200     		.2byte	0x2
 5079 0258 7D       		.byte	0x7d
 5080 0259 18       		.sleb128 24
 5081 025a 6A020000 		.4byte	.LCFI59-.Ltext0
 5082 025e E2020000 		.4byte	.LCFI60-.Ltext0
 5083 0262 0200     		.2byte	0x2
 5084 0264 77       		.byte	0x77
 5085 0265 18       		.sleb128 24
 5086 0266 E2020000 		.4byte	.LCFI60-.Ltext0
 5087 026a E4020000 		.4byte	.LCFI61-.Ltext0
 5088 026e 0200     		.2byte	0x2
 5089 0270 77       		.byte	0x77
 5090 0271 04       		.sleb128 4
 5091 0272 E4020000 		.4byte	.LCFI61-.Ltext0
 5092 0276 E6020000 		.4byte	.LCFI62-.Ltext0
 5093 027a 0200     		.2byte	0x2
 5094 027c 7D       		.byte	0x7d
 5095 027d 04       		.sleb128 4
 5096 027e E6020000 		.4byte	.LCFI62-.Ltext0
 5097 0282 E8020000 		.4byte	.LFE19-.Ltext0
 5098 0286 0200     		.2byte	0x2
 5099 0288 7D       		.byte	0x7d
 5100 0289 00       		.sleb128 0
 5101 028a 00000000 		.4byte	0
 5102 028e 00000000 		.4byte	0
 5103              	.LLST10:
 5104 0292 10020000 		.4byte	.LFB18-.Ltext0
 5105 0296 12020000 		.4byte	.LCFI55-.Ltext0
ARM GAS  G:\Users\Jaxb\AppData\Local\Temp\ccZD0TjZ.s 			page 104


 5106 029a 0200     		.2byte	0x2
 5107 029c 7D       		.byte	0x7d
 5108 029d 00       		.sleb128 0
 5109 029e 12020000 		.4byte	.LCFI55-.Ltext0
 5110 02a2 14020000 		.4byte	.LCFI56-.Ltext0
 5111 02a6 0200     		.2byte	0x2
 5112 02a8 7D       		.byte	0x7d
 5113 02a9 08       		.sleb128 8
 5114 02aa 14020000 		.4byte	.LCFI56-.Ltext0
 5115 02ae 64020000 		.4byte	.LFE18-.Ltext0
 5116 02b2 0200     		.2byte	0x2
 5117 02b4 77       		.byte	0x77
 5118 02b5 08       		.sleb128 8
 5119 02b6 00000000 		.4byte	0
 5120 02ba 00000000 		.4byte	0
 5121              	.LLST9:
 5122 02be 9C010000 		.4byte	.LFB17-.Ltext0
 5123 02c2 9E010000 		.4byte	.LCFI50-.Ltext0
 5124 02c6 0200     		.2byte	0x2
 5125 02c8 7D       		.byte	0x7d
 5126 02c9 00       		.sleb128 0
 5127 02ca 9E010000 		.4byte	.LCFI50-.Ltext0
 5128 02ce A0010000 		.4byte	.LCFI51-.Ltext0
 5129 02d2 0200     		.2byte	0x2
 5130 02d4 7D       		.byte	0x7d
 5131 02d5 08       		.sleb128 8
 5132 02d6 A0010000 		.4byte	.LCFI51-.Ltext0
 5133 02da A2010000 		.4byte	.LCFI52-.Ltext0
 5134 02de 0200     		.2byte	0x2
 5135 02e0 7D       		.byte	0x7d
 5136 02e1 20       		.sleb128 32
 5137 02e2 A2010000 		.4byte	.LCFI52-.Ltext0
 5138 02e6 08020000 		.4byte	.LCFI53-.Ltext0
 5139 02ea 0200     		.2byte	0x2
 5140 02ec 77       		.byte	0x77
 5141 02ed 20       		.sleb128 32
 5142 02ee 08020000 		.4byte	.LCFI53-.Ltext0
 5143 02f2 0A020000 		.4byte	.LCFI54-.Ltext0
 5144 02f6 0200     		.2byte	0x2
 5145 02f8 77       		.byte	0x77
 5146 02f9 08       		.sleb128 8
 5147 02fa 0A020000 		.4byte	.LCFI54-.Ltext0
 5148 02fe 10020000 		.4byte	.LFE17-.Ltext0
 5149 0302 0200     		.2byte	0x2
 5150 0304 7D       		.byte	0x7d
 5151 0305 08       		.sleb128 8
 5152 0306 00000000 		.4byte	0
 5153 030a 00000000 		.4byte	0
 5154              	.LLST8:
 5155 030e 58010000 		.4byte	.LFB16-.Ltext0
 5156 0312 5A010000 		.4byte	.LCFI45-.Ltext0
 5157 0316 0200     		.2byte	0x2
 5158 0318 7D       		.byte	0x7d
 5159 0319 00       		.sleb128 0
 5160 031a 5A010000 		.4byte	.LCFI45-.Ltext0
 5161 031e 5C010000 		.4byte	.LCFI46-.Ltext0
 5162 0322 0200     		.2byte	0x2
ARM GAS  G:\Users\Jaxb\AppData\Local\Temp\ccZD0TjZ.s 			page 105


 5163 0324 7D       		.byte	0x7d
 5164 0325 08       		.sleb128 8
 5165 0326 5C010000 		.4byte	.LCFI46-.Ltext0
 5166 032a 5E010000 		.4byte	.LCFI47-.Ltext0
 5167 032e 0200     		.2byte	0x2
 5168 0330 7D       		.byte	0x7d
 5169 0331 18       		.sleb128 24
 5170 0332 5E010000 		.4byte	.LCFI47-.Ltext0
 5171 0336 94010000 		.4byte	.LCFI48-.Ltext0
 5172 033a 0200     		.2byte	0x2
 5173 033c 77       		.byte	0x77
 5174 033d 18       		.sleb128 24
 5175 033e 94010000 		.4byte	.LCFI48-.Ltext0
 5176 0342 96010000 		.4byte	.LCFI49-.Ltext0
 5177 0346 0200     		.2byte	0x2
 5178 0348 77       		.byte	0x77
 5179 0349 08       		.sleb128 8
 5180 034a 96010000 		.4byte	.LCFI49-.Ltext0
 5181 034e 9C010000 		.4byte	.LFE16-.Ltext0
 5182 0352 0200     		.2byte	0x2
 5183 0354 7D       		.byte	0x7d
 5184 0355 08       		.sleb128 8
 5185 0356 00000000 		.4byte	0
 5186 035a 00000000 		.4byte	0
 5187              	.LLST7:
 5188 035e EA000000 		.4byte	.LFB15-.Ltext0
 5189 0362 EC000000 		.4byte	.LCFI40-.Ltext0
 5190 0366 0200     		.2byte	0x2
 5191 0368 7D       		.byte	0x7d
 5192 0369 00       		.sleb128 0
 5193 036a EC000000 		.4byte	.LCFI40-.Ltext0
 5194 036e EE000000 		.4byte	.LCFI41-.Ltext0
 5195 0372 0200     		.2byte	0x2
 5196 0374 7D       		.byte	0x7d
 5197 0375 08       		.sleb128 8
 5198 0376 EE000000 		.4byte	.LCFI41-.Ltext0
 5199 037a F0000000 		.4byte	.LCFI42-.Ltext0
 5200 037e 0200     		.2byte	0x2
 5201 0380 7D       		.byte	0x7d
 5202 0381 18       		.sleb128 24
 5203 0382 F0000000 		.4byte	.LCFI42-.Ltext0
 5204 0386 42010000 		.4byte	.LCFI43-.Ltext0
 5205 038a 0200     		.2byte	0x2
 5206 038c 77       		.byte	0x77
 5207 038d 18       		.sleb128 24
 5208 038e 42010000 		.4byte	.LCFI43-.Ltext0
 5209 0392 44010000 		.4byte	.LCFI44-.Ltext0
 5210 0396 0200     		.2byte	0x2
 5211 0398 77       		.byte	0x77
 5212 0399 08       		.sleb128 8
 5213 039a 44010000 		.4byte	.LCFI44-.Ltext0
 5214 039e 58010000 		.4byte	.LFE15-.Ltext0
 5215 03a2 0200     		.2byte	0x2
 5216 03a4 7D       		.byte	0x7d
 5217 03a5 08       		.sleb128 8
 5218 03a6 00000000 		.4byte	0
 5219 03aa 00000000 		.4byte	0
ARM GAS  G:\Users\Jaxb\AppData\Local\Temp\ccZD0TjZ.s 			page 106


 5220              	.LLST6:
 5221 03ae C8000000 		.4byte	.LFB13-.Ltext0
 5222 03b2 CA000000 		.4byte	.LCFI34-.Ltext0
 5223 03b6 0200     		.2byte	0x2
 5224 03b8 7D       		.byte	0x7d
 5225 03b9 00       		.sleb128 0
 5226 03ba CA000000 		.4byte	.LCFI34-.Ltext0
 5227 03be CC000000 		.4byte	.LCFI35-.Ltext0
 5228 03c2 0200     		.2byte	0x2
 5229 03c4 7D       		.byte	0x7d
 5230 03c5 04       		.sleb128 4
 5231 03c6 CC000000 		.4byte	.LCFI35-.Ltext0
 5232 03ca CE000000 		.4byte	.LCFI36-.Ltext0
 5233 03ce 0200     		.2byte	0x2
 5234 03d0 7D       		.byte	0x7d
 5235 03d1 10       		.sleb128 16
 5236 03d2 CE000000 		.4byte	.LCFI36-.Ltext0
 5237 03d6 E4000000 		.4byte	.LCFI37-.Ltext0
 5238 03da 0200     		.2byte	0x2
 5239 03dc 77       		.byte	0x77
 5240 03dd 10       		.sleb128 16
 5241 03de E4000000 		.4byte	.LCFI37-.Ltext0
 5242 03e2 E6000000 		.4byte	.LCFI38-.Ltext0
 5243 03e6 0200     		.2byte	0x2
 5244 03e8 77       		.byte	0x77
 5245 03e9 04       		.sleb128 4
 5246 03ea E6000000 		.4byte	.LCFI38-.Ltext0
 5247 03ee E8000000 		.4byte	.LCFI39-.Ltext0
 5248 03f2 0200     		.2byte	0x2
 5249 03f4 7D       		.byte	0x7d
 5250 03f5 04       		.sleb128 4
 5251 03f6 E8000000 		.4byte	.LCFI39-.Ltext0
 5252 03fa EA000000 		.4byte	.LFE13-.Ltext0
 5253 03fe 0200     		.2byte	0x2
 5254 0400 7D       		.byte	0x7d
 5255 0401 00       		.sleb128 0
 5256 0402 00000000 		.4byte	0
 5257 0406 00000000 		.4byte	0
 5258              	.LLST5:
 5259 040a A8000000 		.4byte	.LFB9-.Ltext0
 5260 040e AA000000 		.4byte	.LCFI29-.Ltext0
 5261 0412 0200     		.2byte	0x2
 5262 0414 7D       		.byte	0x7d
 5263 0415 00       		.sleb128 0
 5264 0416 AA000000 		.4byte	.LCFI29-.Ltext0
 5265 041a AC000000 		.4byte	.LCFI30-.Ltext0
 5266 041e 0200     		.2byte	0x2
 5267 0420 7D       		.byte	0x7d
 5268 0421 08       		.sleb128 8
 5269 0422 AC000000 		.4byte	.LCFI30-.Ltext0
 5270 0426 AE000000 		.4byte	.LCFI31-.Ltext0
 5271 042a 0200     		.2byte	0x2
 5272 042c 7D       		.byte	0x7d
 5273 042d 10       		.sleb128 16
 5274 042e AE000000 		.4byte	.LCFI31-.Ltext0
 5275 0432 C4000000 		.4byte	.LCFI32-.Ltext0
 5276 0436 0200     		.2byte	0x2
ARM GAS  G:\Users\Jaxb\AppData\Local\Temp\ccZD0TjZ.s 			page 107


 5277 0438 77       		.byte	0x77
 5278 0439 10       		.sleb128 16
 5279 043a C4000000 		.4byte	.LCFI32-.Ltext0
 5280 043e C6000000 		.4byte	.LCFI33-.Ltext0
 5281 0442 0200     		.2byte	0x2
 5282 0444 77       		.byte	0x77
 5283 0445 08       		.sleb128 8
 5284 0446 C6000000 		.4byte	.LCFI33-.Ltext0
 5285 044a C8000000 		.4byte	.LFE9-.Ltext0
 5286 044e 0200     		.2byte	0x2
 5287 0450 7D       		.byte	0x7d
 5288 0451 08       		.sleb128 8
 5289 0452 00000000 		.4byte	0
 5290 0456 00000000 		.4byte	0
 5291              	.LLST4:
 5292 045a 88000000 		.4byte	.LFB8-.Ltext0
 5293 045e 8A000000 		.4byte	.LCFI23-.Ltext0
 5294 0462 0200     		.2byte	0x2
 5295 0464 7D       		.byte	0x7d
 5296 0465 00       		.sleb128 0
 5297 0466 8A000000 		.4byte	.LCFI23-.Ltext0
 5298 046a 8C000000 		.4byte	.LCFI24-.Ltext0
 5299 046e 0200     		.2byte	0x2
 5300 0470 7D       		.byte	0x7d
 5301 0471 04       		.sleb128 4
 5302 0472 8C000000 		.4byte	.LCFI24-.Ltext0
 5303 0476 8E000000 		.4byte	.LCFI25-.Ltext0
 5304 047a 0200     		.2byte	0x2
 5305 047c 7D       		.byte	0x7d
 5306 047d 10       		.sleb128 16
 5307 047e 8E000000 		.4byte	.LCFI25-.Ltext0
 5308 0482 A2000000 		.4byte	.LCFI26-.Ltext0
 5309 0486 0200     		.2byte	0x2
 5310 0488 77       		.byte	0x77
 5311 0489 10       		.sleb128 16
 5312 048a A2000000 		.4byte	.LCFI26-.Ltext0
 5313 048e A4000000 		.4byte	.LCFI27-.Ltext0
 5314 0492 0200     		.2byte	0x2
 5315 0494 77       		.byte	0x77
 5316 0495 04       		.sleb128 4
 5317 0496 A4000000 		.4byte	.LCFI27-.Ltext0
 5318 049a A6000000 		.4byte	.LCFI28-.Ltext0
 5319 049e 0200     		.2byte	0x2
 5320 04a0 7D       		.byte	0x7d
 5321 04a1 04       		.sleb128 4
 5322 04a2 A6000000 		.4byte	.LCFI28-.Ltext0
 5323 04a6 A8000000 		.4byte	.LFE8-.Ltext0
 5324 04aa 0200     		.2byte	0x2
 5325 04ac 7D       		.byte	0x7d
 5326 04ad 00       		.sleb128 0
 5327 04ae 00000000 		.4byte	0
 5328 04b2 00000000 		.4byte	0
 5329              	.LLST3:
 5330 04b6 68000000 		.4byte	.LFB6-.Ltext0
 5331 04ba 6A000000 		.4byte	.LCFI18-.Ltext0
 5332 04be 0200     		.2byte	0x2
 5333 04c0 7D       		.byte	0x7d
ARM GAS  G:\Users\Jaxb\AppData\Local\Temp\ccZD0TjZ.s 			page 108


 5334 04c1 00       		.sleb128 0
 5335 04c2 6A000000 		.4byte	.LCFI18-.Ltext0
 5336 04c6 6C000000 		.4byte	.LCFI19-.Ltext0
 5337 04ca 0200     		.2byte	0x2
 5338 04cc 7D       		.byte	0x7d
 5339 04cd 08       		.sleb128 8
 5340 04ce 6C000000 		.4byte	.LCFI19-.Ltext0
 5341 04d2 6E000000 		.4byte	.LCFI20-.Ltext0
 5342 04d6 0200     		.2byte	0x2
 5343 04d8 7D       		.byte	0x7d
 5344 04d9 10       		.sleb128 16
 5345 04da 6E000000 		.4byte	.LCFI20-.Ltext0
 5346 04de 84000000 		.4byte	.LCFI21-.Ltext0
 5347 04e2 0200     		.2byte	0x2
 5348 04e4 77       		.byte	0x77
 5349 04e5 10       		.sleb128 16
 5350 04e6 84000000 		.4byte	.LCFI21-.Ltext0
 5351 04ea 86000000 		.4byte	.LCFI22-.Ltext0
 5352 04ee 0200     		.2byte	0x2
 5353 04f0 77       		.byte	0x77
 5354 04f1 08       		.sleb128 8
 5355 04f2 86000000 		.4byte	.LCFI22-.Ltext0
 5356 04f6 88000000 		.4byte	.LFE6-.Ltext0
 5357 04fa 0200     		.2byte	0x2
 5358 04fc 7D       		.byte	0x7d
 5359 04fd 08       		.sleb128 8
 5360 04fe 00000000 		.4byte	0
 5361 0502 00000000 		.4byte	0
 5362              	.LLST2:
 5363 0506 3A000000 		.4byte	.LFB5-.Ltext0
 5364 050a 3C000000 		.4byte	.LCFI12-.Ltext0
 5365 050e 0200     		.2byte	0x2
 5366 0510 7D       		.byte	0x7d
 5367 0511 00       		.sleb128 0
 5368 0512 3C000000 		.4byte	.LCFI12-.Ltext0
 5369 0516 3E000000 		.4byte	.LCFI13-.Ltext0
 5370 051a 0200     		.2byte	0x2
 5371 051c 7D       		.byte	0x7d
 5372 051d 04       		.sleb128 4
 5373 051e 3E000000 		.4byte	.LCFI13-.Ltext0
 5374 0522 40000000 		.4byte	.LCFI14-.Ltext0
 5375 0526 0200     		.2byte	0x2
 5376 0528 7D       		.byte	0x7d
 5377 0529 18       		.sleb128 24
 5378 052a 40000000 		.4byte	.LCFI14-.Ltext0
 5379 052e 62000000 		.4byte	.LCFI15-.Ltext0
 5380 0532 0200     		.2byte	0x2
 5381 0534 77       		.byte	0x77
 5382 0535 18       		.sleb128 24
 5383 0536 62000000 		.4byte	.LCFI15-.Ltext0
 5384 053a 64000000 		.4byte	.LCFI16-.Ltext0
 5385 053e 0200     		.2byte	0x2
 5386 0540 77       		.byte	0x77
 5387 0541 04       		.sleb128 4
 5388 0542 64000000 		.4byte	.LCFI16-.Ltext0
 5389 0546 66000000 		.4byte	.LCFI17-.Ltext0
 5390 054a 0200     		.2byte	0x2
ARM GAS  G:\Users\Jaxb\AppData\Local\Temp\ccZD0TjZ.s 			page 109


 5391 054c 7D       		.byte	0x7d
 5392 054d 04       		.sleb128 4
 5393 054e 66000000 		.4byte	.LCFI17-.Ltext0
 5394 0552 68000000 		.4byte	.LFE5-.Ltext0
 5395 0556 0200     		.2byte	0x2
 5396 0558 7D       		.byte	0x7d
 5397 0559 00       		.sleb128 0
 5398 055a 00000000 		.4byte	0
 5399 055e 00000000 		.4byte	0
 5400              	.LLST1:
 5401 0562 18000000 		.4byte	.LFB1-.Ltext0
 5402 0566 1A000000 		.4byte	.LCFI6-.Ltext0
 5403 056a 0200     		.2byte	0x2
 5404 056c 7D       		.byte	0x7d
 5405 056d 00       		.sleb128 0
 5406 056e 1A000000 		.4byte	.LCFI6-.Ltext0
 5407 0572 1C000000 		.4byte	.LCFI7-.Ltext0
 5408 0576 0200     		.2byte	0x2
 5409 0578 7D       		.byte	0x7d
 5410 0579 04       		.sleb128 4
 5411 057a 1C000000 		.4byte	.LCFI7-.Ltext0
 5412 057e 1E000000 		.4byte	.LCFI8-.Ltext0
 5413 0582 0200     		.2byte	0x2
 5414 0584 7D       		.byte	0x7d
 5415 0585 10       		.sleb128 16
 5416 0586 1E000000 		.4byte	.LCFI8-.Ltext0
 5417 058a 34000000 		.4byte	.LCFI9-.Ltext0
 5418 058e 0200     		.2byte	0x2
 5419 0590 77       		.byte	0x77
 5420 0591 10       		.sleb128 16
 5421 0592 34000000 		.4byte	.LCFI9-.Ltext0
 5422 0596 36000000 		.4byte	.LCFI10-.Ltext0
 5423 059a 0200     		.2byte	0x2
 5424 059c 77       		.byte	0x77
 5425 059d 04       		.sleb128 4
 5426 059e 36000000 		.4byte	.LCFI10-.Ltext0
 5427 05a2 38000000 		.4byte	.LCFI11-.Ltext0
 5428 05a6 0200     		.2byte	0x2
 5429 05a8 7D       		.byte	0x7d
 5430 05a9 04       		.sleb128 4
 5431 05aa 38000000 		.4byte	.LCFI11-.Ltext0
 5432 05ae 3A000000 		.4byte	.LFE1-.Ltext0
 5433 05b2 0200     		.2byte	0x2
 5434 05b4 7D       		.byte	0x7d
 5435 05b5 00       		.sleb128 0
 5436 05b6 00000000 		.4byte	0
 5437 05ba 00000000 		.4byte	0
 5438              	.LLST0:
 5439 05be 00000000 		.4byte	.LFB0-.Ltext0
 5440 05c2 02000000 		.4byte	.LCFI0-.Ltext0
 5441 05c6 0200     		.2byte	0x2
 5442 05c8 7D       		.byte	0x7d
 5443 05c9 00       		.sleb128 0
 5444 05ca 02000000 		.4byte	.LCFI0-.Ltext0
 5445 05ce 04000000 		.4byte	.LCFI1-.Ltext0
 5446 05d2 0200     		.2byte	0x2
 5447 05d4 7D       		.byte	0x7d
ARM GAS  G:\Users\Jaxb\AppData\Local\Temp\ccZD0TjZ.s 			page 110


 5448 05d5 04       		.sleb128 4
 5449 05d6 04000000 		.4byte	.LCFI1-.Ltext0
 5450 05da 06000000 		.4byte	.LCFI2-.Ltext0
 5451 05de 0200     		.2byte	0x2
 5452 05e0 7D       		.byte	0x7d
 5453 05e1 10       		.sleb128 16
 5454 05e2 06000000 		.4byte	.LCFI2-.Ltext0
 5455 05e6 12000000 		.4byte	.LCFI3-.Ltext0
 5456 05ea 0200     		.2byte	0x2
 5457 05ec 77       		.byte	0x77
 5458 05ed 10       		.sleb128 16
 5459 05ee 12000000 		.4byte	.LCFI3-.Ltext0
 5460 05f2 14000000 		.4byte	.LCFI4-.Ltext0
 5461 05f6 0200     		.2byte	0x2
 5462 05f8 77       		.byte	0x77
 5463 05f9 04       		.sleb128 4
 5464 05fa 14000000 		.4byte	.LCFI4-.Ltext0
 5465 05fe 16000000 		.4byte	.LCFI5-.Ltext0
 5466 0602 0200     		.2byte	0x2
 5467 0604 7D       		.byte	0x7d
 5468 0605 04       		.sleb128 4
 5469 0606 16000000 		.4byte	.LCFI5-.Ltext0
 5470 060a 18000000 		.4byte	.LFE0-.Ltext0
 5471 060e 0200     		.2byte	0x2
 5472 0610 7D       		.byte	0x7d
 5473 0611 00       		.sleb128 0
 5474 0612 00000000 		.4byte	0
 5475 0616 00000000 		.4byte	0
 5476              		.section	.debug_aranges,"",%progbits
 5477 0000 1C000000 		.4byte	0x1c
 5478 0004 0200     		.2byte	0x2
 5479 0006 00000000 		.4byte	.Ldebug_info0
 5480 000a 04       		.byte	0x4
 5481 000b 00       		.byte	0
 5482 000c 0000     		.2byte	0
 5483 000e 0000     		.2byte	0
 5484 0010 00000000 		.4byte	.Ltext0
 5485 0014 AC0C0000 		.4byte	.Letext0-.Ltext0
 5486 0018 00000000 		.4byte	0
 5487 001c 00000000 		.4byte	0
 5488              		.section	.debug_line,"",%progbits
 5489              	.Ldebug_line0:
 5490 0000 05040000 		.section	.debug_str,"MS",%progbits,1
 5490      02000501 
 5490      00000201 
 5490      FB0E0D00 
 5490      01010101 
 5491              	.LASF84:
 5492 0000 6164645F 		.ascii	"add_page_alloc_record\000"
 5492      70616765 
 5492      5F616C6C 
 5492      6F635F72 
 5492      65636F72 
 5493              	.LASF97:
 5494 0016 696E6974 		.ascii	"init_malloc\000"
 5494      5F6D616C 
 5494      6C6F6300 
ARM GAS  G:\Users\Jaxb\AppData\Local\Temp\ccZD0TjZ.s 			page 111


 5495              	.LASF25:
 5496 0022 626C6F63 		.ascii	"block_size\000"
 5496      6B5F7369 
 5496      7A6500
 5497              	.LASF11:
 5498 002d 6C697374 		.ascii	"list_head\000"
 5498      5F686561 
 5498      6400
 5499              	.LASF33:
 5500 0037 62756464 		.ascii	"buddy_info\000"
 5500      795F696E 
 5500      666F00
 5501              	.LASF93:
 5502 0042 73696E67 		.ascii	"singly_list_add\000"
 5502      6C795F6C 
 5502      6973745F 
 5502      61646400 
 5503              	.LASF26:
 5504 0052 736C6162 		.ascii	"slab_chain\000"
 5504      5F636861 
 5504      696E00
 5505              	.LASF45:
 5506 005d 6C696E6B 		.ascii	"link_body\000"
 5506      5F626F64 
 5506      7900
 5507              	.LASF64:
 5508 0067 61726763 		.ascii	"argc\000"
 5508      00
 5509              	.LASF18:
 5510 006c 736C6162 		.ascii	"slabs_partial\000"
 5510      735F7061 
 5510      72746961 
 5510      6C00
 5511              	.LASF86:
 5512 007a 6469735F 		.ascii	"dis_page_alloc_record\000"
 5512      70616765 
 5512      5F616C6C 
 5512      6F635F72 
 5512      65636F72 
 5513              	.LASF1:
 5514 0090 73686F72 		.ascii	"short int\000"
 5514      7420696E 
 5514      7400
 5515              	.LASF9:
 5516 009a 73697A65 		.ascii	"size_t\000"
 5516      5F7400
 5517              	.LASF77:
 5518 00a1 6B615F6D 		.ascii	"ka_malloc\000"
 5518      616C6C6F 
 5518      6300
 5519              	.LASF91:
 5520 00ab 6C697374 		.ascii	"list_add\000"
 5520      5F616464 
 5520      00
 5521              	.LASF6:
 5522 00b4 55494E54 		.ascii	"UINT32\000"
 5522      333200
ARM GAS  G:\Users\Jaxb\AppData\Local\Temp\ccZD0TjZ.s 			page 112


 5523              	.LASF79:
 5524 00bb 66726565 		.ascii	"free_find_in_slab_chain\000"
 5524      5F66696E 
 5524      645F696E 
 5524      5F736C61 
 5524      625F6368 
 5525              	.LASF69:
 5526 00d3 5F5F6D70 		.ascii	"__mptr\000"
 5526      747200
 5527              	.LASF98:
 5528 00da 494E4954 		.ascii	"INIT_SINGLY_LIST_HEAD\000"
 5528      5F53494E 
 5528      474C595F 
 5528      4C495354 
 5528      5F484541 
 5529              	.LASF16:
 5530 00f0 6B6D656D 		.ascii	"kmem_cache_slab_size\000"
 5530      5F636163 
 5530      68655F73 
 5530      6C61625F 
 5530      73697A65 
 5531              	.LASF75:
 5532 0105 68656164 		.ascii	"head\000"
 5532      00
 5533              	.LASF47:
 5534 010a 6F726465 		.ascii	"order_link_flag\000"
 5534      725F6C69 
 5534      6E6B5F66 
 5534      6C616700 
 5535              	.LASF39:
 5536 011a 6F726465 		.ascii	"order_link\000"
 5536      725F6C69 
 5536      6E6B00
 5537              	.LASF83:
 5538 0125 7265636F 		.ascii	"record_ptr\000"
 5538      72645F70 
 5538      747200
 5539              	.LASF31:
 5540 0130 50616765 		.ascii	"Page_Num_Type\000"
 5540      5F4E756D 
 5540      5F547970 
 5540      6500
 5541              	.LASF92:
 5542 013e 5F5F6C69 		.ascii	"__list_add\000"
 5542      73745F61 
 5542      646400
 5543              	.LASF56:
 5544 0149 63616368 		.ascii	"cache_chain_head\000"
 5544      655F6368 
 5544      61696E5F 
 5544      68656164 
 5544      00
 5545              	.LASF87:
 5546 015a 6C697374 		.ascii	"list_empty\000"
 5546      5F656D70 
 5546      747900
 5547              	.LASF10:
ARM GAS  G:\Users\Jaxb\AppData\Local\Temp\ccZD0TjZ.s 			page 113


 5548 0165 73696E67 		.ascii	"singly_list_head\000"
 5548      6C795F6C 
 5548      6973745F 
 5548      68656164 
 5548      00
 5549              	.LASF40:
 5550 0176 70616765 		.ascii	"page_alloc_record\000"
 5550      5F616C6C 
 5550      6F635F72 
 5550      65636F72 
 5550      6400
 5551              	.LASF80:
 5552 0188 5F636173 		.ascii	"_case_alloc_buddy\000"
 5552      655F616C 
 5552      6C6F635F 
 5552      62756464 
 5552      7900
 5553              	.LASF65:
 5554 019a 61726776 		.ascii	"argv\000"
 5554      00
 5555              	.LASF73:
 5556 019f 6B615F66 		.ascii	"ka_free\000"
 5556      72656500 
 5557              	.LASF96:
 5558 01a7 463A5C6B 		.ascii	"F:\\kaka\\KAKAOS\\C\\windows\\Project\\RVMDK\243\250"
 5558      616B615C 
 5558      4B414B41 
 5558      4F535C43 
 5558      5C77696E 
 5559 01cf 757635A3 		.ascii	"uv5\243\251\000"
 5559      A900
 5560              	.LASF2:
 5561 01d5 6C6F6E67 		.ascii	"long long int\000"
 5561      206C6F6E 
 5561      6720696E 
 5561      7400
 5562              	.LASF81:
 5563 01e3 6765745F 		.ascii	"get_set_bit_place\000"
 5563      7365745F 
 5563      6269745F 
 5563      706C6163 
 5563      6500
 5564              	.LASF24:
 5565 01f5 66756C6C 		.ascii	"full_block_num\000"
 5565      5F626C6F 
 5565      636B5F6E 
 5565      756D00
 5566              	.LASF57:
 5567 0204 6B6D656D 		.ascii	"kmem_cache16\000"
 5567      5F636163 
 5567      68653136 
 5567      00
 5568              	.LASF35:
 5569 0211 70616765 		.ascii	"page_num\000"
 5569      5F6E756D 
 5569      00
 5570              	.LASF32:
ARM GAS  G:\Users\Jaxb\AppData\Local\Temp\ccZD0TjZ.s 			page 114


 5571 021a 42756464 		.ascii	"Buddy_Space_Type\000"
 5571      795F5370 
 5571      6163655F 
 5571      54797065 
 5571      00
 5572              	.LASF15:
 5573 022b 6E6F6465 		.ascii	"node\000"
 5573      00
 5574              	.LASF66:
 5575 0230 6B6D656D 		.ascii	"kmem_cache_ptr\000"
 5575      5F636163 
 5575      68655F70 
 5575      747200
 5576              	.LASF29:
 5577 023f 62756464 		.ascii	"buddy_space_struct\000"
 5577      795F7370 
 5577      6163655F 
 5577      73747275 
 5577      637400
 5578              	.LASF34:
 5579 0252 666C6167 		.ascii	"flag_array_num\000"
 5579      5F617272 
 5579      61795F6E 
 5579      756D00
 5580              	.LASF19:
 5581 0261 736C6162 		.ascii	"slabs_empty\000"
 5581      735F656D 
 5581      70747900 
 5582              	.LASF95:
 5583 026d 2E2E2F2E 		.ascii	"../../source/src/kernel/OS_LIB/malloc.c\000"
 5583      2E2F736F 
 5583      75726365 
 5583      2F737263 
 5583      2F6B6572 
 5584              	.LASF3:
 5585 0295 756E7369 		.ascii	"unsigned char\000"
 5585      676E6564 
 5585      20636861 
 5585      7200
 5586              	.LASF17:
 5587 02a3 736C6162 		.ascii	"slabs_full\000"
 5587      735F6675 
 5587      6C6C00
 5588              	.LASF88:
 5589 02ae 656E7472 		.ascii	"entry\000"
 5589      7900
 5590              	.LASF90:
 5591 02b4 5F5F6C69 		.ascii	"__list_del\000"
 5591      73745F64 
 5591      656C00
 5592              	.LASF0:
 5593 02bf 7369676E 		.ascii	"signed char\000"
 5593      65642063 
 5593      68617200 
 5594              	.LASF8:
 5595 02cb 6C6F6E67 		.ascii	"long long unsigned int\000"
 5595      206C6F6E 
ARM GAS  G:\Users\Jaxb\AppData\Local\Temp\ccZD0TjZ.s 			page 115


 5595      6720756E 
 5595      7369676E 
 5595      65642069 
 5596              	.LASF62:
 5597 02e2 63616368 		.ascii	"cache_chain_head_ptr\000"
 5597      655F6368 
 5597      61696E5F 
 5597      68656164 
 5597      5F707472 
 5598              	.LASF7:
 5599 02f7 756E7369 		.ascii	"unsigned int\000"
 5599      676E6564 
 5599      20696E74 
 5599      00
 5600              	.LASF49:
 5601 0304 6C657665 		.ascii	"level_flag_base\000"
 5601      6C5F666C 
 5601      61675F62 
 5601      61736500 
 5602              	.LASF30:
 5603 0314 466C6167 		.ascii	"Flag_Type\000"
 5603      5F547970 
 5603      6500
 5604              	.LASF46:
 5605 031e 6F726465 		.ascii	"order_link_first\000"
 5605      725F6C69 
 5605      6E6B5F66 
 5605      69727374 
 5605      00
 5606              	.LASF50:
 5607 032f 62756464 		.ascii	"buddy_struct_size\000"
 5607      795F7374 
 5607      72756374 
 5607      5F73697A 
 5607      6500
 5608              	.LASF36:
 5609 0341 6D61785F 		.ascii	"max_level\000"
 5609      6C657665 
 5609      6C00
 5610              	.LASF4:
 5611 034b 73686F72 		.ascii	"short unsigned int\000"
 5611      7420756E 
 5611      7369676E 
 5611      65642069 
 5611      6E7400
 5612              	.LASF72:
 5613 035e 7368656C 		.ascii	"shell_check_kmem\000"
 5613      6C5F6368 
 5613      65636B5F 
 5613      6B6D656D 
 5613      00
 5614              	.LASF5:
 5615 036f 55494E54 		.ascii	"UINT16\000"
 5615      313600
 5616              	.LASF28:
 5617 0376 63686172 		.ascii	"char\000"
 5617      00
ARM GAS  G:\Users\Jaxb\AppData\Local\Temp\ccZD0TjZ.s 			page 116


 5618              	.LASF59:
 5619 037b 6B6D656D 		.ascii	"kmem_cache_kmem_cache\000"
 5619      5F636163 
 5619      68655F6B 
 5619      6D656D5F 
 5619      63616368 
 5620              	.LASF42:
 5621 0391 6C697374 		.ascii	"list\000"
 5621      00
 5622              	.LASF54:
 5623 0396 4350555F 		.ascii	"CPU_INT32U\000"
 5623      494E5433 
 5623      325500
 5624              	.LASF63:
 5625 03a1 70616765 		.ascii	"page_alloc_record_head\000"
 5625      5F616C6C 
 5625      6F635F72 
 5625      65636F72 
 5625      645F6865 
 5626              	.LASF61:
 5627 03b8 675F696E 		.ascii	"g_interrupt_count\000"
 5627      74657272 
 5627      7570745F 
 5627      636F756E 
 5627      7400
 5628              	.LASF74:
 5629 03ca 62756464 		.ascii	"buddy_ptr\000"
 5629      795F7074 
 5629      7200
 5630              	.LASF71:
 5631 03d4 7368656C 		.ascii	"shell_check_slab\000"
 5631      6C5F6368 
 5631      65636B5F 
 5631      736C6162 
 5631      00
 5632              	.LASF70:
 5633 03e5 62756666 		.ascii	"buffer\000"
 5633      657200
 5634              	.LASF22:
 5635 03ec 656E645F 		.ascii	"end_ptr\000"
 5635      70747200 
 5636              	.LASF21:
 5637 03f4 73746172 		.ascii	"start_ptr\000"
 5637      745F7074 
 5637      7200
 5638              	.LASF43:
 5639 03fe 62756464 		.ascii	"buddy\000"
 5639      7900
 5640              	.LASF89:
 5641 0404 6C697374 		.ascii	"list_del\000"
 5641      5F64656C 
 5641      00
 5642              	.LASF67:
 5643 040d 736C6162 		.ascii	"slab_ptr\000"
 5643      5F707472 
 5643      00
 5644              	.LASF20:
ARM GAS  G:\Users\Jaxb\AppData\Local\Temp\ccZD0TjZ.s 			page 117


 5645 0416 736C6162 		.ascii	"slab\000"
 5645      00
 5646              	.LASF38:
 5647 041b 6C657665 		.ascii	"level_flag_base_size\000"
 5647      6C5F666C 
 5647      61675F62 
 5647      6173655F 
 5647      73697A65 
 5648              	.LASF78:
 5649 0430 73697A65 		.ascii	"size\000"
 5649      00
 5650              	.LASF82:
 5651 0435 66696E64 		.ascii	"find_and_remove_record\000"
 5651      5F616E64 
 5651      5F72656D 
 5651      6F76655F 
 5651      7265636F 
 5652              	.LASF52:
 5653 044c 696E666F 		.ascii	"info\000"
 5653      00
 5654              	.LASF41:
 5655 0451 6C657665 		.ascii	"level\000"
 5655      6C00
 5656              	.LASF85:
 5657 0457 7265636F 		.ascii	"recoed_ptr\000"
 5657      65645F70 
 5657      747200
 5658              	.LASF53:
 5659 0462 62756464 		.ascii	"buddy_space_start_ptr\000"
 5659      795F7370 
 5659      6163655F 
 5659      73746172 
 5659      745F7074 
 5660              	.LASF58:
 5661 0478 6B6D656D 		.ascii	"kmem_cache32\000"
 5661      5F636163 
 5661      68653332 
 5661      00
 5662              	.LASF14:
 5663 0485 6B6D656D 		.ascii	"kmem_cache\000"
 5663      5F636163 
 5663      686500
 5664              	.LASF51:
 5665 0490 63757272 		.ascii	"current_page_num\000"
 5665      656E745F 
 5665      70616765 
 5665      5F6E756D 
 5665      00
 5666              	.LASF68:
 5667 04a1 6370755F 		.ascii	"cpu_sr\000"
 5667      737200
 5668              	.LASF94:
 5669 04a8 474E5520 		.ascii	"GNU C11 7.3.1 20180622 (release) [ARM/embedded-7-br"
 5669      43313120 
 5669      372E332E 
 5669      31203230 
 5669      31383036 
ARM GAS  G:\Users\Jaxb\AppData\Local\Temp\ccZD0TjZ.s 			page 118


 5670 04db 616E6368 		.ascii	"anch revision 261907] -mcpu=cortex-m3 -mthumb -mapc"
 5670      20726576 
 5670      6973696F 
 5670      6E203236 
 5670      31393037 
 5671 050e 732D6672 		.ascii	"s-frame -mthumb-interwork -mcpu=cortex-m3 -mthumb -"
 5671      616D6520 
 5671      2D6D7468 
 5671      756D622D 
 5671      696E7465 
 5672 0541 67647761 		.ascii	"gdwarf-2 -O0\000"
 5672      72662D32 
 5672      202D4F30 
 5672      00
 5673              	.LASF44:
 5674 054e 666C6167 		.ascii	"flag\000"
 5674      00
 5675              	.LASF23:
 5676 0553 63757272 		.ascii	"current_block_num\000"
 5676      656E745F 
 5676      626C6F63 
 5676      6B5F6E75 
 5676      6D00
 5677              	.LASF13:
 5678 0565 70726576 		.ascii	"prev\000"
 5678      00
 5679              	.LASF55:
 5680 056a 4350555F 		.ascii	"CPU_SR\000"
 5680      535200
 5681              	.LASF60:
 5682 0571 6B6D656D 		.ascii	"kmem_cache_TCB\000"
 5682      5F636163 
 5682      68655F54 
 5682      434200
 5683              	.LASF76:
 5684 0580 696E5F6F 		.ascii	"in_os_memory\000"
 5684      735F6D65 
 5684      6D6F7279 
 5684      00
 5685              	.LASF48:
 5686 058d 6F726465 		.ascii	"order_array\000"
 5686      725F6172 
 5686      72617900 
 5687              	.LASF37:
 5688 0599 7072696F 		.ascii	"prio\000"
 5688      00
 5689              	.LASF27:
 5690 059e 626C6F63 		.ascii	"block_head\000"
 5690      6B5F6865 
 5690      616400
 5691              	.LASF12:
 5692 05a9 6E657874 		.ascii	"next\000"
 5692      00
 5693              		.ident	"GCC: (GNU Tools for Arm Embedded Processors 7-2018-q2-update) 7.3.1 20180622 (release) [AR
ARM GAS  G:\Users\Jaxb\AppData\Local\Temp\ccZD0TjZ.s 			page 119


DEFINED SYMBOLS
                            *ABS*:00000000 malloc.c
G:\Users\Jaxb\AppData\Local\Temp\ccZD0TjZ.s:15     .text:00000000 $t
G:\Users\Jaxb\AppData\Local\Temp\ccZD0TjZ.s:21     .text:00000000 INIT_SINGLY_LIST_HEAD
G:\Users\Jaxb\AppData\Local\Temp\ccZD0TjZ.s:67     .text:00000018 singly_list_add
G:\Users\Jaxb\AppData\Local\Temp\ccZD0TjZ.s:118    .text:0000003a __list_add
G:\Users\Jaxb\AppData\Local\Temp\ccZD0TjZ.s:178    .text:00000068 list_add
G:\Users\Jaxb\AppData\Local\Temp\ccZD0TjZ.s:223    .text:00000088 __list_del
G:\Users\Jaxb\AppData\Local\Temp\ccZD0TjZ.s:273    .text:000000a8 list_del
G:\Users\Jaxb\AppData\Local\Temp\ccZD0TjZ.s:318    .text:000000c8 list_empty
G:\Users\Jaxb\AppData\Local\Temp\ccZD0TjZ.s:363    .bss:00000000 $d
G:\Users\Jaxb\AppData\Local\Temp\ccZD0TjZ.s:364    .bss:00000000 cache_chain_head
G:\Users\Jaxb\AppData\Local\Temp\ccZD0TjZ.s:368    .bss:00000004 kmem_cache16
G:\Users\Jaxb\AppData\Local\Temp\ccZD0TjZ.s:372    .bss:00000024 kmem_cache32
G:\Users\Jaxb\AppData\Local\Temp\ccZD0TjZ.s:376    .bss:00000044 kmem_cache_kmem_cache
G:\Users\Jaxb\AppData\Local\Temp\ccZD0TjZ.s:380    .bss:00000064 kmem_cache_TCB
G:\Users\Jaxb\AppData\Local\Temp\ccZD0TjZ.s:388    .rodata:00000000 cache_chain_head_ptr
G:\Users\Jaxb\AppData\Local\Temp\ccZD0TjZ.s:385    .rodata:00000000 $d
G:\Users\Jaxb\AppData\Local\Temp\ccZD0TjZ.s:392    .bss:00000084 page_alloc_record_head
G:\Users\Jaxb\AppData\Local\Temp\ccZD0TjZ.s:413    .text:000000ea dis_page_alloc_record
G:\Users\Jaxb\AppData\Local\Temp\ccZD0TjZ.s:493    .text:00000148 $d
G:\Users\Jaxb\AppData\Local\Temp\ccZD0TjZ.s:500    .text:00000158 $t
G:\Users\Jaxb\AppData\Local\Temp\ccZD0TjZ.s:507    .text:00000158 add_page_alloc_record
G:\Users\Jaxb\AppData\Local\Temp\ccZD0TjZ.s:1144   .text:0000047c ka_malloc
G:\Users\Jaxb\AppData\Local\Temp\ccZD0TjZ.s:568    .text:00000198 $d
G:\Users\Jaxb\AppData\Local\Temp\ccZD0TjZ.s:572    .text:0000019c $t
G:\Users\Jaxb\AppData\Local\Temp\ccZD0TjZ.s:578    .text:0000019c find_and_remove_record
G:\Users\Jaxb\AppData\Local\Temp\ccZD0TjZ.s:1727   .text:000007b0 ka_free
G:\Users\Jaxb\AppData\Local\Temp\ccZD0TjZ.s:668    .text:0000020c $d
G:\Users\Jaxb\AppData\Local\Temp\ccZD0TjZ.s:672    .text:00000210 $t
G:\Users\Jaxb\AppData\Local\Temp\ccZD0TjZ.s:679    .text:00000210 init_malloc
G:\Users\Jaxb\AppData\Local\Temp\ccZD0TjZ.s:725    .text:0000024c $d
G:\Users\Jaxb\AppData\Local\Temp\ccZD0TjZ.s:734    .text:00000264 $t
G:\Users\Jaxb\AppData\Local\Temp\ccZD0TjZ.s:741    .text:00000264 get_set_bit_place
G:\Users\Jaxb\AppData\Local\Temp\ccZD0TjZ.s:867    .text:000002e8 _case_alloc_buddy
G:\Users\Jaxb\AppData\Local\Temp\ccZD0TjZ.s:921    .text:0000032c $d
G:\Users\Jaxb\AppData\Local\Temp\ccZD0TjZ.s:928    .text:00000348 $t
G:\Users\Jaxb\AppData\Local\Temp\ccZD0TjZ.s:1126   .text:00000470 $d
G:\Users\Jaxb\AppData\Local\Temp\ccZD0TjZ.s:1137   .text:0000047c $t
G:\Users\Jaxb\AppData\Local\Temp\ccZD0TjZ.s:1502   .text:000006ac $d
G:\Users\Jaxb\AppData\Local\Temp\ccZD0TjZ.s:1508   .text:000006b8 $t
G:\Users\Jaxb\AppData\Local\Temp\ccZD0TjZ.s:1514   .text:000006b8 free_find_in_slab_chain
G:\Users\Jaxb\AppData\Local\Temp\ccZD0TjZ.s:1633   .text:0000075c $d
G:\Users\Jaxb\AppData\Local\Temp\ccZD0TjZ.s:1637   .text:00000760 $t
G:\Users\Jaxb\AppData\Local\Temp\ccZD0TjZ.s:1644   .text:00000760 in_os_memory
G:\Users\Jaxb\AppData\Local\Temp\ccZD0TjZ.s:1711   .text:000007ac $d
G:\Users\Jaxb\AppData\Local\Temp\ccZD0TjZ.s:1720   .text:000007b0 $t
G:\Users\Jaxb\AppData\Local\Temp\ccZD0TjZ.s:1903   .text:000008b8 $d
G:\Users\Jaxb\AppData\Local\Temp\ccZD0TjZ.s:1938   .text:000008c4 $t
G:\Users\Jaxb\AppData\Local\Temp\ccZD0TjZ.s:1945   .text:000008c4 shell_check_kmem
G:\Users\Jaxb\AppData\Local\Temp\ccZD0TjZ.s:2161   .text:000009f0 $d
G:\Users\Jaxb\AppData\Local\Temp\ccZD0TjZ.s:2203   .text:00000a18 $t
G:\Users\Jaxb\AppData\Local\Temp\ccZD0TjZ.s:2210   .text:00000a18 shell_check_slab
G:\Users\Jaxb\AppData\Local\Temp\ccZD0TjZ.s:2573   .text:00000c60 $d

UNDEFINED SYMBOLS
ka_printf
ARM GAS  G:\Users\Jaxb\AppData\Local\Temp\ccZD0TjZ.s 			page 120


ka_pow
_case_slab_free_buddy
singly_list_del
insert_into_cache_chain
_get_os_buddy_ptr_head
_ASSERT
_get_next_buddy_ptr_head
_alloc_power1_page
_alloc_power2_page
_alloc_power3_page
_alloc_power4_page
_alloc_power5_page
_alloc_power6_page
_alloc_power7_page
CPU_SR_Save
find_first_bigger_cache
CPU_SR_Restore
load_slab
in_buddy_range
