ARM GAS  G:\Users\Jaxb\AppData\Local\Temp\ccEJJHY8.s 			page 1


   1              		.cpu cortex-m3
   2              		.eabi_attribute 20, 1
   3              		.eabi_attribute 21, 1
   4              		.eabi_attribute 23, 3
   5              		.eabi_attribute 24, 1
   6              		.eabi_attribute 25, 1
   7              		.eabi_attribute 26, 1
   8              		.eabi_attribute 30, 6
   9              		.eabi_attribute 34, 1
  10              		.eabi_attribute 18, 4
  11              		.file	"malloc.c"
  12              		.text
  13              	.Ltext0:
  14              		.cfi_sections	.debug_frame
  15              		.align	1
  16              		.syntax unified
  17              		.thumb
  18              		.thumb_func
  19              		.fpu softvfp
  20              		.type	INIT_LIST_HEAD, %function
  21              	INIT_LIST_HEAD:
  22              	.LFB0:
  23              		.file 1 "../../source/include/os_lib/double_linked_list.h"
   1:../../source/include/os_lib/double_linked_list.h **** #ifndef _DOUBLE_LINKED_LIST_H
   2:../../source/include/os_lib/double_linked_list.h **** #define _DOUBLE_LINKED_LIST_H
   3:../../source/include/os_lib/double_linked_list.h **** 
   4:../../source/include/os_lib/double_linked_list.h **** struct list_head {
   5:../../source/include/os_lib/double_linked_list.h ****     struct list_head *next, *prev;
   6:../../source/include/os_lib/double_linked_list.h **** };
   7:../../source/include/os_lib/double_linked_list.h **** 
   8:../../source/include/os_lib/double_linked_list.h **** 
   9:../../source/include/os_lib/double_linked_list.h **** #define LIST_HEAD_INIT(name) { &(name), &(name) }
  10:../../source/include/os_lib/double_linked_list.h **** 
  11:../../source/include/os_lib/double_linked_list.h **** 
  12:../../source/include/os_lib/double_linked_list.h **** #define LIST_HEAD(name) \
  13:../../source/include/os_lib/double_linked_list.h ****     struct list_head name = LIST_HEAD_INIT(name)
  14:../../source/include/os_lib/double_linked_list.h **** 
  15:../../source/include/os_lib/double_linked_list.h **** 
  16:../../source/include/os_lib/double_linked_list.h **** static inline void INIT_LIST_HEAD(struct list_head *list)
  17:../../source/include/os_lib/double_linked_list.h **** {
  24              		.loc 1 17 0
  25              		.cfi_startproc
  26              		@ args = 0, pretend = 0, frame = 8
  27              		@ frame_needed = 1, uses_anonymous_args = 0
  28              		@ link register save eliminated.
  29 0000 80B4     		push	{r7}
  30              	.LCFI0:
  31              		.cfi_def_cfa_offset 4
  32              		.cfi_offset 7, -4
  33 0002 83B0     		sub	sp, sp, #12
  34              	.LCFI1:
  35              		.cfi_def_cfa_offset 16
  36 0004 00AF     		add	r7, sp, #0
  37              	.LCFI2:
  38              		.cfi_def_cfa_register 7
  39 0006 7860     		str	r0, [r7, #4]
  18:../../source/include/os_lib/double_linked_list.h ****     list->next = list;
ARM GAS  G:\Users\Jaxb\AppData\Local\Temp\ccEJJHY8.s 			page 2


  40              		.loc 1 18 0
  41 0008 7B68     		ldr	r3, [r7, #4]
  42 000a 7A68     		ldr	r2, [r7, #4]
  43 000c 1A60     		str	r2, [r3]
  19:../../source/include/os_lib/double_linked_list.h ****     list->prev = list;
  44              		.loc 1 19 0
  45 000e 7B68     		ldr	r3, [r7, #4]
  46 0010 7A68     		ldr	r2, [r7, #4]
  47 0012 5A60     		str	r2, [r3, #4]
  20:../../source/include/os_lib/double_linked_list.h **** }
  48              		.loc 1 20 0
  49 0014 00BF     		nop
  50 0016 0C37     		adds	r7, r7, #12
  51              	.LCFI3:
  52              		.cfi_def_cfa_offset 4
  53 0018 BD46     		mov	sp, r7
  54              	.LCFI4:
  55              		.cfi_def_cfa_register 13
  56              		@ sp needed
  57 001a 80BC     		pop	{r7}
  58              	.LCFI5:
  59              		.cfi_restore 7
  60              		.cfi_def_cfa_offset 0
  61 001c 7047     		bx	lr
  62              		.cfi_endproc
  63              	.LFE0:
  64              		.size	INIT_LIST_HEAD, .-INIT_LIST_HEAD
  65              		.align	1
  66              		.syntax unified
  67              		.thumb
  68              		.thumb_func
  69              		.fpu softvfp
  70              		.type	__list_add, %function
  71              	__list_add:
  72              	.LFB1:
  21:../../source/include/os_lib/double_linked_list.h **** 
  22:../../source/include/os_lib/double_linked_list.h **** 
  23:../../source/include/os_lib/double_linked_list.h **** static inline void __list_add(struct list_head *new,
  24:../../source/include/os_lib/double_linked_list.h ****                   struct list_head *prev,
  25:../../source/include/os_lib/double_linked_list.h ****                   struct list_head *next)
  26:../../source/include/os_lib/double_linked_list.h **** {
  73              		.loc 1 26 0
  74              		.cfi_startproc
  75              		@ args = 0, pretend = 0, frame = 16
  76              		@ frame_needed = 1, uses_anonymous_args = 0
  77              		@ link register save eliminated.
  78 001e 80B4     		push	{r7}
  79              	.LCFI6:
  80              		.cfi_def_cfa_offset 4
  81              		.cfi_offset 7, -4
  82 0020 85B0     		sub	sp, sp, #20
  83              	.LCFI7:
  84              		.cfi_def_cfa_offset 24
  85 0022 00AF     		add	r7, sp, #0
  86              	.LCFI8:
  87              		.cfi_def_cfa_register 7
  88 0024 F860     		str	r0, [r7, #12]
ARM GAS  G:\Users\Jaxb\AppData\Local\Temp\ccEJJHY8.s 			page 3


  89 0026 B960     		str	r1, [r7, #8]
  90 0028 7A60     		str	r2, [r7, #4]
  27:../../source/include/os_lib/double_linked_list.h ****     next->prev = new;
  91              		.loc 1 27 0
  92 002a 7B68     		ldr	r3, [r7, #4]
  93 002c FA68     		ldr	r2, [r7, #12]
  94 002e 5A60     		str	r2, [r3, #4]
  28:../../source/include/os_lib/double_linked_list.h ****     new->next = next;
  95              		.loc 1 28 0
  96 0030 FB68     		ldr	r3, [r7, #12]
  97 0032 7A68     		ldr	r2, [r7, #4]
  98 0034 1A60     		str	r2, [r3]
  29:../../source/include/os_lib/double_linked_list.h ****     new->prev = prev;
  99              		.loc 1 29 0
 100 0036 FB68     		ldr	r3, [r7, #12]
 101 0038 BA68     		ldr	r2, [r7, #8]
 102 003a 5A60     		str	r2, [r3, #4]
  30:../../source/include/os_lib/double_linked_list.h ****     prev->next = new;
 103              		.loc 1 30 0
 104 003c BB68     		ldr	r3, [r7, #8]
 105 003e FA68     		ldr	r2, [r7, #12]
 106 0040 1A60     		str	r2, [r3]
  31:../../source/include/os_lib/double_linked_list.h **** }
 107              		.loc 1 31 0
 108 0042 00BF     		nop
 109 0044 1437     		adds	r7, r7, #20
 110              	.LCFI9:
 111              		.cfi_def_cfa_offset 4
 112 0046 BD46     		mov	sp, r7
 113              	.LCFI10:
 114              		.cfi_def_cfa_register 13
 115              		@ sp needed
 116 0048 80BC     		pop	{r7}
 117              	.LCFI11:
 118              		.cfi_restore 7
 119              		.cfi_def_cfa_offset 0
 120 004a 7047     		bx	lr
 121              		.cfi_endproc
 122              	.LFE1:
 123              		.size	__list_add, .-__list_add
 124              		.align	1
 125              		.syntax unified
 126              		.thumb
 127              		.thumb_func
 128              		.fpu softvfp
 129              		.type	list_add, %function
 130              	list_add:
 131              	.LFB2:
  32:../../source/include/os_lib/double_linked_list.h **** 
  33:../../source/include/os_lib/double_linked_list.h **** 
  34:../../source/include/os_lib/double_linked_list.h **** static inline void list_add(struct list_head *new, struct list_head *head)
  35:../../source/include/os_lib/double_linked_list.h **** {
 132              		.loc 1 35 0
 133              		.cfi_startproc
 134              		@ args = 0, pretend = 0, frame = 8
 135              		@ frame_needed = 1, uses_anonymous_args = 0
 136 004c 80B5     		push	{r7, lr}
ARM GAS  G:\Users\Jaxb\AppData\Local\Temp\ccEJJHY8.s 			page 4


 137              	.LCFI12:
 138              		.cfi_def_cfa_offset 8
 139              		.cfi_offset 7, -8
 140              		.cfi_offset 14, -4
 141 004e 82B0     		sub	sp, sp, #8
 142              	.LCFI13:
 143              		.cfi_def_cfa_offset 16
 144 0050 00AF     		add	r7, sp, #0
 145              	.LCFI14:
 146              		.cfi_def_cfa_register 7
 147 0052 7860     		str	r0, [r7, #4]
 148 0054 3960     		str	r1, [r7]
  36:../../source/include/os_lib/double_linked_list.h ****     __list_add(new, head, head->next);
 149              		.loc 1 36 0
 150 0056 3B68     		ldr	r3, [r7]
 151 0058 1B68     		ldr	r3, [r3]
 152 005a 1A46     		mov	r2, r3
 153 005c 3968     		ldr	r1, [r7]
 154 005e 7868     		ldr	r0, [r7, #4]
 155 0060 FFF7DDFF 		bl	__list_add
  37:../../source/include/os_lib/double_linked_list.h **** }
 156              		.loc 1 37 0
 157 0064 00BF     		nop
 158 0066 0837     		adds	r7, r7, #8
 159              	.LCFI15:
 160              		.cfi_def_cfa_offset 8
 161 0068 BD46     		mov	sp, r7
 162              	.LCFI16:
 163              		.cfi_def_cfa_register 13
 164              		@ sp needed
 165 006a 80BD     		pop	{r7, pc}
 166              		.cfi_endproc
 167              	.LFE2:
 168              		.size	list_add, .-list_add
 169              		.align	1
 170              		.syntax unified
 171              		.thumb
 172              		.thumb_func
 173              		.fpu softvfp
 174              		.type	__list_del, %function
 175              	__list_del:
 176              	.LFB4:
  38:../../source/include/os_lib/double_linked_list.h **** 
  39:../../source/include/os_lib/double_linked_list.h **** 
  40:../../source/include/os_lib/double_linked_list.h **** static inline void list_add_tail(struct list_head *new, struct list_head *head)
  41:../../source/include/os_lib/double_linked_list.h **** {
  42:../../source/include/os_lib/double_linked_list.h ****     __list_add(new, head->prev, head);
  43:../../source/include/os_lib/double_linked_list.h **** }
  44:../../source/include/os_lib/double_linked_list.h **** 
  45:../../source/include/os_lib/double_linked_list.h **** 
  46:../../source/include/os_lib/double_linked_list.h **** static inline void __list_del(struct list_head * prev, struct list_head * next)
  47:../../source/include/os_lib/double_linked_list.h **** {
 177              		.loc 1 47 0
 178              		.cfi_startproc
 179              		@ args = 0, pretend = 0, frame = 8
 180              		@ frame_needed = 1, uses_anonymous_args = 0
 181              		@ link register save eliminated.
ARM GAS  G:\Users\Jaxb\AppData\Local\Temp\ccEJJHY8.s 			page 5


 182 006c 80B4     		push	{r7}
 183              	.LCFI17:
 184              		.cfi_def_cfa_offset 4
 185              		.cfi_offset 7, -4
 186 006e 83B0     		sub	sp, sp, #12
 187              	.LCFI18:
 188              		.cfi_def_cfa_offset 16
 189 0070 00AF     		add	r7, sp, #0
 190              	.LCFI19:
 191              		.cfi_def_cfa_register 7
 192 0072 7860     		str	r0, [r7, #4]
 193 0074 3960     		str	r1, [r7]
  48:../../source/include/os_lib/double_linked_list.h ****     next->prev = prev;
 194              		.loc 1 48 0
 195 0076 3B68     		ldr	r3, [r7]
 196 0078 7A68     		ldr	r2, [r7, #4]
 197 007a 5A60     		str	r2, [r3, #4]
  49:../../source/include/os_lib/double_linked_list.h ****     prev->next = next;
 198              		.loc 1 49 0
 199 007c 7B68     		ldr	r3, [r7, #4]
 200 007e 3A68     		ldr	r2, [r7]
 201 0080 1A60     		str	r2, [r3]
  50:../../source/include/os_lib/double_linked_list.h **** }
 202              		.loc 1 50 0
 203 0082 00BF     		nop
 204 0084 0C37     		adds	r7, r7, #12
 205              	.LCFI20:
 206              		.cfi_def_cfa_offset 4
 207 0086 BD46     		mov	sp, r7
 208              	.LCFI21:
 209              		.cfi_def_cfa_register 13
 210              		@ sp needed
 211 0088 80BC     		pop	{r7}
 212              	.LCFI22:
 213              		.cfi_restore 7
 214              		.cfi_def_cfa_offset 0
 215 008a 7047     		bx	lr
 216              		.cfi_endproc
 217              	.LFE4:
 218              		.size	__list_del, .-__list_del
 219              		.align	1
 220              		.syntax unified
 221              		.thumb
 222              		.thumb_func
 223              		.fpu softvfp
 224              		.type	list_del, %function
 225              	list_del:
 226              	.LFB5:
  51:../../source/include/os_lib/double_linked_list.h **** 
  52:../../source/include/os_lib/double_linked_list.h **** 
  53:../../source/include/os_lib/double_linked_list.h **** static inline void list_del(struct list_head *entry)
  54:../../source/include/os_lib/double_linked_list.h **** {
 227              		.loc 1 54 0
 228              		.cfi_startproc
 229              		@ args = 0, pretend = 0, frame = 8
 230              		@ frame_needed = 1, uses_anonymous_args = 0
 231 008c 80B5     		push	{r7, lr}
ARM GAS  G:\Users\Jaxb\AppData\Local\Temp\ccEJJHY8.s 			page 6


 232              	.LCFI23:
 233              		.cfi_def_cfa_offset 8
 234              		.cfi_offset 7, -8
 235              		.cfi_offset 14, -4
 236 008e 82B0     		sub	sp, sp, #8
 237              	.LCFI24:
 238              		.cfi_def_cfa_offset 16
 239 0090 00AF     		add	r7, sp, #0
 240              	.LCFI25:
 241              		.cfi_def_cfa_register 7
 242 0092 7860     		str	r0, [r7, #4]
  55:../../source/include/os_lib/double_linked_list.h ****     __list_del(entry->prev, entry->next);
 243              		.loc 1 55 0
 244 0094 7B68     		ldr	r3, [r7, #4]
 245 0096 5A68     		ldr	r2, [r3, #4]
 246 0098 7B68     		ldr	r3, [r7, #4]
 247 009a 1B68     		ldr	r3, [r3]
 248 009c 1946     		mov	r1, r3
 249 009e 1046     		mov	r0, r2
 250 00a0 FFF7E4FF 		bl	__list_del
  56:../../source/include/os_lib/double_linked_list.h **** }
 251              		.loc 1 56 0
 252 00a4 00BF     		nop
 253 00a6 0837     		adds	r7, r7, #8
 254              	.LCFI26:
 255              		.cfi_def_cfa_offset 8
 256 00a8 BD46     		mov	sp, r7
 257              	.LCFI27:
 258              		.cfi_def_cfa_register 13
 259              		@ sp needed
 260 00aa 80BD     		pop	{r7, pc}
 261              		.cfi_endproc
 262              	.LFE5:
 263              		.size	list_del, .-list_del
 264              		.align	1
 265              		.syntax unified
 266              		.thumb
 267              		.thumb_func
 268              		.fpu softvfp
 269              		.type	list_empty, %function
 270              	list_empty:
 271              	.LFB9:
  57:../../source/include/os_lib/double_linked_list.h **** 
  58:../../source/include/os_lib/double_linked_list.h **** 
  59:../../source/include/os_lib/double_linked_list.h **** static inline void __list_del_entry(struct list_head *entry)
  60:../../source/include/os_lib/double_linked_list.h **** {
  61:../../source/include/os_lib/double_linked_list.h ****     __list_del(entry->prev, entry->next);
  62:../../source/include/os_lib/double_linked_list.h **** }
  63:../../source/include/os_lib/double_linked_list.h **** 
  64:../../source/include/os_lib/double_linked_list.h **** 
  65:../../source/include/os_lib/double_linked_list.h **** static inline void list_del_init(struct list_head *entry)
  66:../../source/include/os_lib/double_linked_list.h **** {
  67:../../source/include/os_lib/double_linked_list.h ****     __list_del_entry(entry);
  68:../../source/include/os_lib/double_linked_list.h ****     INIT_LIST_HEAD(entry);
  69:../../source/include/os_lib/double_linked_list.h **** }
  70:../../source/include/os_lib/double_linked_list.h **** 
  71:../../source/include/os_lib/double_linked_list.h **** 
ARM GAS  G:\Users\Jaxb\AppData\Local\Temp\ccEJJHY8.s 			page 7


  72:../../source/include/os_lib/double_linked_list.h **** static inline void list_replace(struct list_head *old,
  73:../../source/include/os_lib/double_linked_list.h ****                 struct list_head *new)
  74:../../source/include/os_lib/double_linked_list.h **** {
  75:../../source/include/os_lib/double_linked_list.h ****     new->next = old->next;
  76:../../source/include/os_lib/double_linked_list.h ****     new->next->prev = new;
  77:../../source/include/os_lib/double_linked_list.h ****     new->prev = old->prev;
  78:../../source/include/os_lib/double_linked_list.h ****     new->prev->next = new;
  79:../../source/include/os_lib/double_linked_list.h **** }
  80:../../source/include/os_lib/double_linked_list.h **** 
  81:../../source/include/os_lib/double_linked_list.h **** 
  82:../../source/include/os_lib/double_linked_list.h **** static inline int list_empty(const struct list_head *head)
  83:../../source/include/os_lib/double_linked_list.h **** {
 272              		.loc 1 83 0
 273              		.cfi_startproc
 274              		@ args = 0, pretend = 0, frame = 8
 275              		@ frame_needed = 1, uses_anonymous_args = 0
 276              		@ link register save eliminated.
 277 00ac 80B4     		push	{r7}
 278              	.LCFI28:
 279              		.cfi_def_cfa_offset 4
 280              		.cfi_offset 7, -4
 281 00ae 83B0     		sub	sp, sp, #12
 282              	.LCFI29:
 283              		.cfi_def_cfa_offset 16
 284 00b0 00AF     		add	r7, sp, #0
 285              	.LCFI30:
 286              		.cfi_def_cfa_register 7
 287 00b2 7860     		str	r0, [r7, #4]
  84:../../source/include/os_lib/double_linked_list.h ****     return head->next == head;
 288              		.loc 1 84 0
 289 00b4 7B68     		ldr	r3, [r7, #4]
 290 00b6 1B68     		ldr	r3, [r3]
 291 00b8 7A68     		ldr	r2, [r7, #4]
 292 00ba 9A42     		cmp	r2, r3
 293 00bc 0CBF     		ite	eq
 294 00be 0123     		moveq	r3, #1
 295 00c0 0023     		movne	r3, #0
 296 00c2 DBB2     		uxtb	r3, r3
  85:../../source/include/os_lib/double_linked_list.h **** }
 297              		.loc 1 85 0
 298 00c4 1846     		mov	r0, r3
 299 00c6 0C37     		adds	r7, r7, #12
 300              	.LCFI31:
 301              		.cfi_def_cfa_offset 4
 302 00c8 BD46     		mov	sp, r7
 303              	.LCFI32:
 304              		.cfi_def_cfa_register 13
 305              		@ sp needed
 306 00ca 80BC     		pop	{r7}
 307              	.LCFI33:
 308              		.cfi_restore 7
 309              		.cfi_def_cfa_offset 0
 310 00cc 7047     		bx	lr
 311              		.cfi_endproc
 312              	.LFE9:
 313              		.size	list_empty, .-list_empty
 314              		.align	1
ARM GAS  G:\Users\Jaxb\AppData\Local\Temp\ccEJJHY8.s 			page 8


 315              		.syntax unified
 316              		.thumb
 317              		.thumb_func
 318              		.fpu softvfp
 319              		.type	INIT_SINGLY_LIST_HEAD, %function
 320              	INIT_SINGLY_LIST_HEAD:
 321              	.LFB10:
 322              		.file 2 "../../source/include/os_lib/singly_linked_list.h"
   1:../../source/include/os_lib/singly_linked_list.h **** #ifndef _SINGLY_LINKED_LIST_H
   2:../../source/include/os_lib/singly_linked_list.h **** #define _SINGLY_LINKED_LIST_H
   3:../../source/include/os_lib/singly_linked_list.h **** 
   4:../../source/include/os_lib/singly_linked_list.h **** struct singly_list_head{
   5:../../source/include/os_lib/singly_linked_list.h **** 	struct singly_list_head *next;
   6:../../source/include/os_lib/singly_linked_list.h **** };
   7:../../source/include/os_lib/singly_linked_list.h **** 
   8:../../source/include/os_lib/singly_linked_list.h **** #define SINGLY_LIST_HEAD_INIT(name) { &(name) }
   9:../../source/include/os_lib/singly_linked_list.h **** 
  10:../../source/include/os_lib/singly_linked_list.h **** #define SINGLY_LIST_HEAD(name) \
  11:../../source/include/os_lib/singly_linked_list.h ****     struct singly_list_head name = SINGLY_LIST_HEAD_INIT(name)
  12:../../source/include/os_lib/singly_linked_list.h **** 
  13:../../source/include/os_lib/singly_linked_list.h **** static inline void INIT_SINGLY_LIST_HEAD(struct singly_list_head *list)
  14:../../source/include/os_lib/singly_linked_list.h **** {
 323              		.loc 2 14 0
 324              		.cfi_startproc
 325              		@ args = 0, pretend = 0, frame = 8
 326              		@ frame_needed = 1, uses_anonymous_args = 0
 327              		@ link register save eliminated.
 328 00ce 80B4     		push	{r7}
 329              	.LCFI34:
 330              		.cfi_def_cfa_offset 4
 331              		.cfi_offset 7, -4
 332 00d0 83B0     		sub	sp, sp, #12
 333              	.LCFI35:
 334              		.cfi_def_cfa_offset 16
 335 00d2 00AF     		add	r7, sp, #0
 336              	.LCFI36:
 337              		.cfi_def_cfa_register 7
 338 00d4 7860     		str	r0, [r7, #4]
  15:../../source/include/os_lib/singly_linked_list.h **** 	list->next = list;
 339              		.loc 2 15 0
 340 00d6 7B68     		ldr	r3, [r7, #4]
 341 00d8 7A68     		ldr	r2, [r7, #4]
 342 00da 1A60     		str	r2, [r3]
  16:../../source/include/os_lib/singly_linked_list.h **** }
 343              		.loc 2 16 0
 344 00dc 00BF     		nop
 345 00de 0C37     		adds	r7, r7, #12
 346              	.LCFI37:
 347              		.cfi_def_cfa_offset 4
 348 00e0 BD46     		mov	sp, r7
 349              	.LCFI38:
 350              		.cfi_def_cfa_register 13
 351              		@ sp needed
 352 00e2 80BC     		pop	{r7}
 353              	.LCFI39:
 354              		.cfi_restore 7
 355              		.cfi_def_cfa_offset 0
ARM GAS  G:\Users\Jaxb\AppData\Local\Temp\ccEJJHY8.s 			page 9


 356 00e4 7047     		bx	lr
 357              		.cfi_endproc
 358              	.LFE10:
 359              		.size	INIT_SINGLY_LIST_HEAD, .-INIT_SINGLY_LIST_HEAD
 360              		.align	1
 361              		.syntax unified
 362              		.thumb
 363              		.thumb_func
 364              		.fpu softvfp
 365              		.type	singly_list_add, %function
 366              	singly_list_add:
 367              	.LFB11:
  17:../../source/include/os_lib/singly_linked_list.h **** 
  18:../../source/include/os_lib/singly_linked_list.h **** static inline void singly_list_add(struct singly_list_head *new,struct singly_list_head *head)
  19:../../source/include/os_lib/singly_linked_list.h **** {
 368              		.loc 2 19 0
 369              		.cfi_startproc
 370              		@ args = 0, pretend = 0, frame = 8
 371              		@ frame_needed = 1, uses_anonymous_args = 0
 372              		@ link register save eliminated.
 373 00e6 80B4     		push	{r7}
 374              	.LCFI40:
 375              		.cfi_def_cfa_offset 4
 376              		.cfi_offset 7, -4
 377 00e8 83B0     		sub	sp, sp, #12
 378              	.LCFI41:
 379              		.cfi_def_cfa_offset 16
 380 00ea 00AF     		add	r7, sp, #0
 381              	.LCFI42:
 382              		.cfi_def_cfa_register 7
 383 00ec 7860     		str	r0, [r7, #4]
 384 00ee 3960     		str	r1, [r7]
  20:../../source/include/os_lib/singly_linked_list.h **** 	new->next = head->next;
 385              		.loc 2 20 0
 386 00f0 3B68     		ldr	r3, [r7]
 387 00f2 1A68     		ldr	r2, [r3]
 388 00f4 7B68     		ldr	r3, [r7, #4]
 389 00f6 1A60     		str	r2, [r3]
  21:../../source/include/os_lib/singly_linked_list.h **** 	head->next = new;
 390              		.loc 2 21 0
 391 00f8 3B68     		ldr	r3, [r7]
 392 00fa 7A68     		ldr	r2, [r7, #4]
 393 00fc 1A60     		str	r2, [r3]
  22:../../source/include/os_lib/singly_linked_list.h **** }
 394              		.loc 2 22 0
 395 00fe 00BF     		nop
 396 0100 0C37     		adds	r7, r7, #12
 397              	.LCFI43:
 398              		.cfi_def_cfa_offset 4
 399 0102 BD46     		mov	sp, r7
 400              	.LCFI44:
 401              		.cfi_def_cfa_register 13
 402              		@ sp needed
 403 0104 80BC     		pop	{r7}
 404              	.LCFI45:
 405              		.cfi_restore 7
 406              		.cfi_def_cfa_offset 0
ARM GAS  G:\Users\Jaxb\AppData\Local\Temp\ccEJJHY8.s 			page 10


 407 0106 7047     		bx	lr
 408              		.cfi_endproc
 409              	.LFE11:
 410              		.size	singly_list_add, .-singly_list_add
 411              		.bss
 412              		.align	2
 413              	cache_chain_head:
 414 0000 00000000 		.space	8
 414      00000000 
 415              		.size	cache_chain_head, 8
 416              		.align	2
 417              	kmem_cache16:
 418 0008 00000000 		.space	36
 418      00000000 
 418      00000000 
 418      00000000 
 418      00000000 
 419              		.size	kmem_cache16, 36
 420              		.align	2
 421              	kmem_cache32:
 422 002c 00000000 		.space	36
 422      00000000 
 422      00000000 
 422      00000000 
 422      00000000 
 423              		.size	kmem_cache32, 36
 424              		.align	2
 425              	kmem_cache_kmem_cache:
 426 0050 00000000 		.space	36
 426      00000000 
 426      00000000 
 426      00000000 
 426      00000000 
 427              		.size	kmem_cache_kmem_cache, 36
 428              		.align	2
 429              	kmem_cache_TCB:
 430 0074 00000000 		.space	36
 430      00000000 
 430      00000000 
 430      00000000 
 430      00000000 
 431              		.size	kmem_cache_TCB, 36
 432              		.global	cache_chain_head_ptr
 433              		.section	.rodata
 434              		.align	2
 435              		.type	cache_chain_head_ptr, %object
 436              		.size	cache_chain_head_ptr, 4
 437              	cache_chain_head_ptr:
 438 0000 00000000 		.word	cache_chain_head
 439              		.bss
 440              		.align	2
 441              	page_alloc_record_head:
 442 0098 00000000 		.space	4
 443              		.size	page_alloc_record_head, 4
 444              		.section	.rodata
 445              		.align	2
 446              	.LC0:
ARM GAS  G:\Users\Jaxb\AppData\Local\Temp\ccEJJHY8.s 			page 11


 447 0004 6E756D2E 		.ascii	"num.%u\012\000"
 447      25750A00 
 448              		.align	2
 449              	.LC1:
 450 000c 6C657665 		.ascii	"level is %u\012\000"
 450      6C206973 
 450      2025750A 
 450      00
 451 0019 000000   		.align	2
 452              	.LC2:
 453 001c 61646472 		.ascii	"address is %p\012\000"
 453      65737320 
 453      69732025 
 453      700A00
 454              		.text
 455              		.align	1
 456              		.global	dis_page_alloc_record
 457              		.syntax unified
 458              		.thumb
 459              		.thumb_func
 460              		.fpu softvfp
 461              		.type	dis_page_alloc_record, %function
 462              	dis_page_alloc_record:
 463              	.LFB14:
 464              		.file 3 "../../source/src/kernel/OS_LIB/malloc.c"
   1:../../source/src/kernel/OS_LIB/malloc.c **** #include <myMicroLIB.h>
   2:../../source/src/kernel/OS_LIB/malloc.c **** #include <slab.h>
   3:../../source/src/kernel/OS_LIB/malloc.c **** #include <buddy.h>
   4:../../source/src/kernel/OS_LIB/malloc.c **** #include <myassert.h>
   5:../../source/src/kernel/OS_LIB/malloc.c **** #include <os_cpu.h>
   6:../../source/src/kernel/OS_LIB/malloc.c **** #include <TCB.h>
   7:../../source/src/kernel/OS_LIB/malloc.c **** 
   8:../../source/src/kernel/OS_LIB/malloc.c **** extern int in_buddy_range(void *ptr);
   9:../../source/src/kernel/OS_LIB/malloc.c **** extern void _case_slab_free_buddy(void *ptr,void *end_ptr);
  10:../../source/src/kernel/OS_LIB/malloc.c **** 
  11:../../source/src/kernel/OS_LIB/malloc.c **** static struct list_head cache_chain_head;
  12:../../source/src/kernel/OS_LIB/malloc.c **** static struct kmem_cache kmem_cache16;
  13:../../source/src/kernel/OS_LIB/malloc.c **** static struct kmem_cache kmem_cache32;
  14:../../source/src/kernel/OS_LIB/malloc.c **** static struct kmem_cache kmem_cache_kmem_cache;
  15:../../source/src/kernel/OS_LIB/malloc.c **** static struct kmem_cache kmem_cache_TCB;
  16:../../source/src/kernel/OS_LIB/malloc.c **** struct list_head *const cache_chain_head_ptr = &cache_chain_head;
  17:../../source/src/kernel/OS_LIB/malloc.c **** 
  18:../../source/src/kernel/OS_LIB/malloc.c **** static struct singly_list_head page_alloc_record_head;
  19:../../source/src/kernel/OS_LIB/malloc.c **** 
  20:../../source/src/kernel/OS_LIB/malloc.c **** void dis_page_alloc_record(void)
  21:../../source/src/kernel/OS_LIB/malloc.c **** {
 465              		.loc 3 21 0
 466              		.cfi_startproc
 467              		@ args = 0, pretend = 0, frame = 16
 468              		@ frame_needed = 1, uses_anonymous_args = 0
 469 0108 80B5     		push	{r7, lr}
 470              	.LCFI46:
 471              		.cfi_def_cfa_offset 8
 472              		.cfi_offset 7, -8
 473              		.cfi_offset 14, -4
 474 010a 84B0     		sub	sp, sp, #16
 475              	.LCFI47:
ARM GAS  G:\Users\Jaxb\AppData\Local\Temp\ccEJJHY8.s 			page 12


 476              		.cfi_def_cfa_offset 24
 477 010c 00AF     		add	r7, sp, #0
 478              	.LCFI48:
 479              		.cfi_def_cfa_register 7
  22:../../source/src/kernel/OS_LIB/malloc.c **** 	unsigned int i = 0;
 480              		.loc 3 22 0
 481 010e 0023     		movs	r3, #0
 482 0110 FB60     		str	r3, [r7, #12]
  23:../../source/src/kernel/OS_LIB/malloc.c **** 	struct singly_list_head *pos;
  24:../../source/src/kernel/OS_LIB/malloc.c **** 	struct page_alloc_record *record_ptr;
  25:../../source/src/kernel/OS_LIB/malloc.c **** 	singly_list_for_each(pos,&page_alloc_record_head)
 483              		.loc 3 25 0
 484 0112 134B     		ldr	r3, .L13
 485 0114 1B68     		ldr	r3, [r3]
 486 0116 BB60     		str	r3, [r7, #8]
 487 0118 1AE0     		b	.L11
 488              	.L12:
 489              	.LBB2:
  26:../../source/src/kernel/OS_LIB/malloc.c **** 	{
  27:../../source/src/kernel/OS_LIB/malloc.c **** 		record_ptr = singly_list_entry(pos,struct page_alloc_record,list);
 490              		.loc 3 27 0 discriminator 3
 491 011a BB68     		ldr	r3, [r7, #8]
 492 011c 7B60     		str	r3, [r7, #4]
 493 011e 7B68     		ldr	r3, [r7, #4]
 494 0120 083B     		subs	r3, r3, #8
 495              	.LBE2:
 496 0122 3B60     		str	r3, [r7]
  28:../../source/src/kernel/OS_LIB/malloc.c **** 		ka_printf("num.%u\n",++i);
 497              		.loc 3 28 0 discriminator 3
 498 0124 FB68     		ldr	r3, [r7, #12]
 499 0126 0133     		adds	r3, r3, #1
 500 0128 FB60     		str	r3, [r7, #12]
 501 012a F968     		ldr	r1, [r7, #12]
 502 012c 0D48     		ldr	r0, .L13+4
 503 012e FFF7FEFF 		bl	ka_printf
  29:../../source/src/kernel/OS_LIB/malloc.c **** 		ka_printf("level is %u\n",record_ptr->level);
 504              		.loc 3 29 0 discriminator 3
 505 0132 3B68     		ldr	r3, [r7]
 506 0134 1B68     		ldr	r3, [r3]
 507 0136 1946     		mov	r1, r3
 508 0138 0B48     		ldr	r0, .L13+8
 509 013a FFF7FEFF 		bl	ka_printf
  30:../../source/src/kernel/OS_LIB/malloc.c **** 		ka_printf("address is %p\n",record_ptr->ptr);
 510              		.loc 3 30 0 discriminator 3
 511 013e 3B68     		ldr	r3, [r7]
 512 0140 5B68     		ldr	r3, [r3, #4]
 513 0142 1946     		mov	r1, r3
 514 0144 0948     		ldr	r0, .L13+12
 515 0146 FFF7FEFF 		bl	ka_printf
  25:../../source/src/kernel/OS_LIB/malloc.c **** 	{
 516              		.loc 3 25 0 discriminator 3
 517 014a BB68     		ldr	r3, [r7, #8]
 518 014c 1B68     		ldr	r3, [r3]
 519 014e BB60     		str	r3, [r7, #8]
 520              	.L11:
  25:../../source/src/kernel/OS_LIB/malloc.c **** 	{
 521              		.loc 3 25 0 is_stmt 0 discriminator 1
ARM GAS  G:\Users\Jaxb\AppData\Local\Temp\ccEJJHY8.s 			page 13


 522 0150 BB68     		ldr	r3, [r7, #8]
 523 0152 034A     		ldr	r2, .L13
 524 0154 9342     		cmp	r3, r2
 525 0156 E0D1     		bne	.L12
  31:../../source/src/kernel/OS_LIB/malloc.c **** 	}
  32:../../source/src/kernel/OS_LIB/malloc.c **** }
 526              		.loc 3 32 0 is_stmt 1
 527 0158 00BF     		nop
 528 015a 1037     		adds	r7, r7, #16
 529              	.LCFI49:
 530              		.cfi_def_cfa_offset 8
 531 015c BD46     		mov	sp, r7
 532              	.LCFI50:
 533              		.cfi_def_cfa_register 13
 534              		@ sp needed
 535 015e 80BD     		pop	{r7, pc}
 536              	.L14:
 537              		.align	2
 538              	.L13:
 539 0160 98000000 		.word	page_alloc_record_head
 540 0164 04000000 		.word	.LC0
 541 0168 0C000000 		.word	.LC1
 542 016c 1C000000 		.word	.LC2
 543              		.cfi_endproc
 544              	.LFE14:
 545              		.size	dis_page_alloc_record, .-dis_page_alloc_record
 546              		.align	1
 547              		.global	add_page_alloc_record
 548              		.syntax unified
 549              		.thumb
 550              		.thumb_func
 551              		.fpu softvfp
 552              		.type	add_page_alloc_record, %function
 553              	add_page_alloc_record:
 554              	.LFB15:
  33:../../source/src/kernel/OS_LIB/malloc.c **** 
  34:../../source/src/kernel/OS_LIB/malloc.c **** int add_page_alloc_record(unsigned int level,void *ptr)
  35:../../source/src/kernel/OS_LIB/malloc.c **** {
 555              		.loc 3 35 0
 556              		.cfi_startproc
 557              		@ args = 0, pretend = 0, frame = 16
 558              		@ frame_needed = 1, uses_anonymous_args = 0
 559 0170 80B5     		push	{r7, lr}
 560              	.LCFI51:
 561              		.cfi_def_cfa_offset 8
 562              		.cfi_offset 7, -8
 563              		.cfi_offset 14, -4
 564 0172 84B0     		sub	sp, sp, #16
 565              	.LCFI52:
 566              		.cfi_def_cfa_offset 24
 567 0174 00AF     		add	r7, sp, #0
 568              	.LCFI53:
 569              		.cfi_def_cfa_register 7
 570 0176 7860     		str	r0, [r7, #4]
 571 0178 3960     		str	r1, [r7]
  36:../../source/src/kernel/OS_LIB/malloc.c **** 	struct page_alloc_record *recoed_ptr = (struct page_alloc_record *)ka_malloc(sizeof(struct page_al
 572              		.loc 3 36 0
ARM GAS  G:\Users\Jaxb\AppData\Local\Temp\ccEJJHY8.s 			page 14


 573 017a 0C20     		movs	r0, #12
 574 017c FFF7FEFF 		bl	ka_malloc
 575 0180 F860     		str	r0, [r7, #12]
  37:../../source/src/kernel/OS_LIB/malloc.c **** 	if(NULL == recoed_ptr)
 576              		.loc 3 37 0
 577 0182 FB68     		ldr	r3, [r7, #12]
 578 0184 002B     		cmp	r3, #0
 579 0186 02D1     		bne	.L16
  38:../../source/src/kernel/OS_LIB/malloc.c **** 	{
  39:../../source/src/kernel/OS_LIB/malloc.c **** 		return -1;
 580              		.loc 3 39 0
 581 0188 4FF0FF33 		mov	r3, #-1
 582 018c 0CE0     		b	.L17
 583              	.L16:
  40:../../source/src/kernel/OS_LIB/malloc.c **** 	}
  41:../../source/src/kernel/OS_LIB/malloc.c **** 	recoed_ptr->level = level;
 584              		.loc 3 41 0
 585 018e FB68     		ldr	r3, [r7, #12]
 586 0190 7A68     		ldr	r2, [r7, #4]
 587 0192 1A60     		str	r2, [r3]
  42:../../source/src/kernel/OS_LIB/malloc.c **** 	recoed_ptr->ptr = ptr;
 588              		.loc 3 42 0
 589 0194 FB68     		ldr	r3, [r7, #12]
 590 0196 3A68     		ldr	r2, [r7]
 591 0198 5A60     		str	r2, [r3, #4]
  43:../../source/src/kernel/OS_LIB/malloc.c **** 	singly_list_add(&recoed_ptr->list,&page_alloc_record_head);
 592              		.loc 3 43 0
 593 019a FB68     		ldr	r3, [r7, #12]
 594 019c 0833     		adds	r3, r3, #8
 595 019e 0449     		ldr	r1, .L18
 596 01a0 1846     		mov	r0, r3
 597 01a2 FFF7A0FF 		bl	singly_list_add
  44:../../source/src/kernel/OS_LIB/malloc.c **** 	return FUN_EXECUTE_SUCCESSFULLY;
 598              		.loc 3 44 0
 599 01a6 0023     		movs	r3, #0
 600              	.L17:
  45:../../source/src/kernel/OS_LIB/malloc.c **** }
 601              		.loc 3 45 0
 602 01a8 1846     		mov	r0, r3
 603 01aa 1037     		adds	r7, r7, #16
 604              	.LCFI54:
 605              		.cfi_def_cfa_offset 8
 606 01ac BD46     		mov	sp, r7
 607              	.LCFI55:
 608              		.cfi_def_cfa_register 13
 609              		@ sp needed
 610 01ae 80BD     		pop	{r7, pc}
 611              	.L19:
 612              		.align	2
 613              	.L18:
 614 01b0 98000000 		.word	page_alloc_record_head
 615              		.cfi_endproc
 616              	.LFE15:
 617              		.size	add_page_alloc_record, .-add_page_alloc_record
 618              		.align	1
 619              		.syntax unified
 620              		.thumb
ARM GAS  G:\Users\Jaxb\AppData\Local\Temp\ccEJJHY8.s 			page 15


 621              		.thumb_func
 622              		.fpu softvfp
 623              		.type	find_and_remove_record, %function
 624              	find_and_remove_record:
 625              	.LFB16:
  46:../../source/src/kernel/OS_LIB/malloc.c **** 
  47:../../source/src/kernel/OS_LIB/malloc.c **** //static void copy_data(struct singly_list_head *from,struct singly_list_head *to)
  48:../../source/src/kernel/OS_LIB/malloc.c **** //{
  49:../../source/src/kernel/OS_LIB/malloc.c **** //	struct page_alloc_record *record_ptr1 = singly_list_entry(from,struct page_alloc_record,list);
  50:../../source/src/kernel/OS_LIB/malloc.c **** //	struct page_alloc_record *record_ptr2 = singly_list_entry(to,struct page_alloc_record,list);
  51:../../source/src/kernel/OS_LIB/malloc.c **** //	record_ptr2->level = record_ptr1->level;
  52:../../source/src/kernel/OS_LIB/malloc.c **** //	record_ptr2->ptr = record_ptr1->ptr;
  53:../../source/src/kernel/OS_LIB/malloc.c **** //}
  54:../../source/src/kernel/OS_LIB/malloc.c **** 
  55:../../source/src/kernel/OS_LIB/malloc.c **** static int find_and_remove_record(void *ptr)
  56:../../source/src/kernel/OS_LIB/malloc.c **** {
 626              		.loc 3 56 0
 627              		.cfi_startproc
 628              		@ args = 0, pretend = 0, frame = 24
 629              		@ frame_needed = 1, uses_anonymous_args = 0
 630 01b4 80B5     		push	{r7, lr}
 631              	.LCFI56:
 632              		.cfi_def_cfa_offset 8
 633              		.cfi_offset 7, -8
 634              		.cfi_offset 14, -4
 635 01b6 86B0     		sub	sp, sp, #24
 636              	.LCFI57:
 637              		.cfi_def_cfa_offset 32
 638 01b8 00AF     		add	r7, sp, #0
 639              	.LCFI58:
 640              		.cfi_def_cfa_register 7
 641 01ba 7860     		str	r0, [r7, #4]
  57:../../source/src/kernel/OS_LIB/malloc.c **** 	struct singly_list_head *pos;
  58:../../source/src/kernel/OS_LIB/malloc.c **** 	struct page_alloc_record *record_ptr; 
  59:../../source/src/kernel/OS_LIB/malloc.c **** 	singly_list_for_each(pos,&page_alloc_record_head)
 642              		.loc 3 59 0
 643 01bc 194B     		ldr	r3, .L25
 644 01be 1B68     		ldr	r3, [r3]
 645 01c0 7B61     		str	r3, [r7, #20]
 646 01c2 25E0     		b	.L21
 647              	.L24:
 648              	.LBB3:
  60:../../source/src/kernel/OS_LIB/malloc.c **** 	{
  61:../../source/src/kernel/OS_LIB/malloc.c **** 		record_ptr = singly_list_entry(pos,struct page_alloc_record,list);
 649              		.loc 3 61 0
 650 01c4 7B69     		ldr	r3, [r7, #20]
 651 01c6 3B61     		str	r3, [r7, #16]
 652 01c8 3B69     		ldr	r3, [r7, #16]
 653 01ca 083B     		subs	r3, r3, #8
 654              	.LBE3:
 655 01cc FB60     		str	r3, [r7, #12]
  62:../../source/src/kernel/OS_LIB/malloc.c **** 		if(record_ptr->ptr == ptr)
 656              		.loc 3 62 0
 657 01ce FB68     		ldr	r3, [r7, #12]
 658 01d0 5B68     		ldr	r3, [r3, #4]
 659 01d2 7A68     		ldr	r2, [r7, #4]
 660 01d4 9A42     		cmp	r2, r3
ARM GAS  G:\Users\Jaxb\AppData\Local\Temp\ccEJJHY8.s 			page 16


 661 01d6 18D1     		bne	.L22
  63:../../source/src/kernel/OS_LIB/malloc.c **** 		{
  64:../../source/src/kernel/OS_LIB/malloc.c **** 			_case_slab_free_buddy(ptr,(void *)((unsigned int)ptr + ka_pow(2,record_ptr->level-1) * PAGE_SIZE
 662              		.loc 3 64 0
 663 01d8 FB68     		ldr	r3, [r7, #12]
 664 01da 1B68     		ldr	r3, [r3]
 665 01dc 013B     		subs	r3, r3, #1
 666 01de 1946     		mov	r1, r3
 667 01e0 0220     		movs	r0, #2
 668 01e2 FFF7FEFF 		bl	ka_pow
 669 01e6 0346     		mov	r3, r0
 670 01e8 9A02     		lsls	r2, r3, #10
 671 01ea 7B68     		ldr	r3, [r7, #4]
 672 01ec 1344     		add	r3, r3, r2
 673 01ee 1946     		mov	r1, r3
 674 01f0 7868     		ldr	r0, [r7, #4]
 675 01f2 FFF7FEFF 		bl	_case_slab_free_buddy
  65:../../source/src/kernel/OS_LIB/malloc.c **** 			singly_list_del_safe(&page_alloc_record_head,pos);
 676              		.loc 3 65 0
 677 01f6 0022     		movs	r2, #0
 678 01f8 7969     		ldr	r1, [r7, #20]
 679 01fa 0A48     		ldr	r0, .L25
 680 01fc FFF7FEFF 		bl	singly_list_del
  66:../../source/src/kernel/OS_LIB/malloc.c **** 			ka_free(record_ptr);
 681              		.loc 3 66 0
 682 0200 F868     		ldr	r0, [r7, #12]
 683 0202 FFF7FEFF 		bl	ka_free
  67:../../source/src/kernel/OS_LIB/malloc.c **** 			return FUN_EXECUTE_SUCCESSFULLY;
 684              		.loc 3 67 0
 685 0206 0023     		movs	r3, #0
 686 0208 08E0     		b	.L23
 687              	.L22:
  59:../../source/src/kernel/OS_LIB/malloc.c **** 	{
 688              		.loc 3 59 0 discriminator 2
 689 020a 7B69     		ldr	r3, [r7, #20]
 690 020c 1B68     		ldr	r3, [r3]
 691 020e 7B61     		str	r3, [r7, #20]
 692              	.L21:
  59:../../source/src/kernel/OS_LIB/malloc.c **** 	{
 693              		.loc 3 59 0 is_stmt 0 discriminator 1
 694 0210 7B69     		ldr	r3, [r7, #20]
 695 0212 044A     		ldr	r2, .L25
 696 0214 9342     		cmp	r3, r2
 697 0216 D5D1     		bne	.L24
  68:../../source/src/kernel/OS_LIB/malloc.c **** 		}
  69:../../source/src/kernel/OS_LIB/malloc.c **** 	}
  70:../../source/src/kernel/OS_LIB/malloc.c **** 	return -1;
 698              		.loc 3 70 0 is_stmt 1
 699 0218 4FF0FF33 		mov	r3, #-1
 700              	.L23:
  71:../../source/src/kernel/OS_LIB/malloc.c **** }
 701              		.loc 3 71 0
 702 021c 1846     		mov	r0, r3
 703 021e 1837     		adds	r7, r7, #24
 704              	.LCFI59:
 705              		.cfi_def_cfa_offset 8
 706 0220 BD46     		mov	sp, r7
ARM GAS  G:\Users\Jaxb\AppData\Local\Temp\ccEJJHY8.s 			page 17


 707              	.LCFI60:
 708              		.cfi_def_cfa_register 13
 709              		@ sp needed
 710 0222 80BD     		pop	{r7, pc}
 711              	.L26:
 712              		.align	2
 713              	.L25:
 714 0224 98000000 		.word	page_alloc_record_head
 715              		.cfi_endproc
 716              	.LFE16:
 717              		.size	find_and_remove_record, .-find_and_remove_record
 718              		.align	1
 719              		.global	init_malloc
 720              		.syntax unified
 721              		.thumb
 722              		.thumb_func
 723              		.fpu softvfp
 724              		.type	init_malloc, %function
 725              	init_malloc:
 726              	.LFB17:
  72:../../source/src/kernel/OS_LIB/malloc.c **** 
  73:../../source/src/kernel/OS_LIB/malloc.c **** void init_malloc(void)
  74:../../source/src/kernel/OS_LIB/malloc.c **** {
 727              		.loc 3 74 0
 728              		.cfi_startproc
 729              		@ args = 0, pretend = 0, frame = 0
 730              		@ frame_needed = 1, uses_anonymous_args = 0
 731 0228 80B5     		push	{r7, lr}
 732              	.LCFI61:
 733              		.cfi_def_cfa_offset 8
 734              		.cfi_offset 7, -8
 735              		.cfi_offset 14, -4
 736 022a 00AF     		add	r7, sp, #0
 737              	.LCFI62:
 738              		.cfi_def_cfa_register 7
  75:../../source/src/kernel/OS_LIB/malloc.c **** 	INIT_LIST_HEAD(&cache_chain_head);
 739              		.loc 3 75 0
 740 022c 0D48     		ldr	r0, .L28
 741 022e FFF7E7FE 		bl	INIT_LIST_HEAD
  76:../../source/src/kernel/OS_LIB/malloc.c **** 	insert_into_cache_chain(&cache_chain_head,&kmem_cache_TCB,sizeof(TCB));
 742              		.loc 3 76 0
 743 0232 4822     		movs	r2, #72
 744 0234 0C49     		ldr	r1, .L28+4
 745 0236 0B48     		ldr	r0, .L28
 746 0238 FFF7FEFF 		bl	insert_into_cache_chain
  77:../../source/src/kernel/OS_LIB/malloc.c **** 	insert_into_cache_chain(&cache_chain_head,&kmem_cache_kmem_cache,sizeof(struct kmem_cache));
 747              		.loc 3 77 0
 748 023c 2422     		movs	r2, #36
 749 023e 0B49     		ldr	r1, .L28+8
 750 0240 0848     		ldr	r0, .L28
 751 0242 FFF7FEFF 		bl	insert_into_cache_chain
  78:../../source/src/kernel/OS_LIB/malloc.c **** 	insert_into_cache_chain(&cache_chain_head,&kmem_cache32,32);
 752              		.loc 3 78 0
 753 0246 2022     		movs	r2, #32
 754 0248 0949     		ldr	r1, .L28+12
 755 024a 0648     		ldr	r0, .L28
 756 024c FFF7FEFF 		bl	insert_into_cache_chain
ARM GAS  G:\Users\Jaxb\AppData\Local\Temp\ccEJJHY8.s 			page 18


  79:../../source/src/kernel/OS_LIB/malloc.c **** 	insert_into_cache_chain(&cache_chain_head,&kmem_cache16,16);
 757              		.loc 3 79 0
 758 0250 1022     		movs	r2, #16
 759 0252 0849     		ldr	r1, .L28+16
 760 0254 0348     		ldr	r0, .L28
 761 0256 FFF7FEFF 		bl	insert_into_cache_chain
  80:../../source/src/kernel/OS_LIB/malloc.c **** 	INIT_SINGLY_LIST_HEAD(&page_alloc_record_head);
 762              		.loc 3 80 0
 763 025a 0748     		ldr	r0, .L28+20
 764 025c FFF737FF 		bl	INIT_SINGLY_LIST_HEAD
  81:../../source/src/kernel/OS_LIB/malloc.c **** }
 765              		.loc 3 81 0
 766 0260 00BF     		nop
 767 0262 80BD     		pop	{r7, pc}
 768              	.L29:
 769              		.align	2
 770              	.L28:
 771 0264 00000000 		.word	cache_chain_head
 772 0268 74000000 		.word	kmem_cache_TCB
 773 026c 50000000 		.word	kmem_cache_kmem_cache
 774 0270 2C000000 		.word	kmem_cache32
 775 0274 08000000 		.word	kmem_cache16
 776 0278 98000000 		.word	page_alloc_record_head
 777              		.cfi_endproc
 778              	.LFE17:
 779              		.size	init_malloc, .-init_malloc
 780              		.align	1
 781              		.global	get_set_bit_place
 782              		.syntax unified
 783              		.thumb
 784              		.thumb_func
 785              		.fpu softvfp
 786              		.type	get_set_bit_place, %function
 787              	get_set_bit_place:
 788              	.LFB18:
  82:../../source/src/kernel/OS_LIB/malloc.c **** /**
  83:../../source/src/kernel/OS_LIB/malloc.c ****  * This is a system function
  84:../../source/src/kernel/OS_LIB/malloc.c ****  * @Author      kaka
  85:../../source/src/kernel/OS_LIB/malloc.c ****  * @param       the num witch will be get the higest "1"
  86:../../source/src/kernel/OS_LIB/malloc.c ****  * @DateTime    2018-09-26
  87:../../source/src/kernel/OS_LIB/malloc.c ****  * @description :
  88:../../source/src/kernel/OS_LIB/malloc.c ****  * @param       num        [description]
  89:../../source/src/kernel/OS_LIB/malloc.c ****  * @return      the higest "1" position
  90:../../source/src/kernel/OS_LIB/malloc.c ****  */
  91:../../source/src/kernel/OS_LIB/malloc.c **** int get_set_bit_place(unsigned int num)
  92:../../source/src/kernel/OS_LIB/malloc.c **** {
 789              		.loc 3 92 0
 790              		.cfi_startproc
 791              		@ args = 0, pretend = 0, frame = 16
 792              		@ frame_needed = 1, uses_anonymous_args = 0
 793              		@ link register save eliminated.
 794 027c 80B4     		push	{r7}
 795              	.LCFI63:
 796              		.cfi_def_cfa_offset 4
 797              		.cfi_offset 7, -4
 798 027e 85B0     		sub	sp, sp, #20
 799              	.LCFI64:
ARM GAS  G:\Users\Jaxb\AppData\Local\Temp\ccEJJHY8.s 			page 19


 800              		.cfi_def_cfa_offset 24
 801 0280 00AF     		add	r7, sp, #0
 802              	.LCFI65:
 803              		.cfi_def_cfa_register 7
 804 0282 7860     		str	r0, [r7, #4]
  93:../../source/src/kernel/OS_LIB/malloc.c **** 	int n=1;
 805              		.loc 3 93 0
 806 0284 0123     		movs	r3, #1
 807 0286 FB60     		str	r3, [r7, #12]
  94:../../source/src/kernel/OS_LIB/malloc.c ****     if(num==0) return -1;
 808              		.loc 3 94 0
 809 0288 7B68     		ldr	r3, [r7, #4]
 810 028a 002B     		cmp	r3, #0
 811 028c 02D1     		bne	.L31
 812              		.loc 3 94 0 is_stmt 0 discriminator 1
 813 028e 4FF0FF33 		mov	r3, #-1
 814 0292 30E0     		b	.L32
 815              	.L31:
  95:../../source/src/kernel/OS_LIB/malloc.c ****     if ((num>>16) == 0) {n = n+16; num = num<<16;}
 816              		.loc 3 95 0 is_stmt 1
 817 0294 7B68     		ldr	r3, [r7, #4]
 818 0296 1B0C     		lsrs	r3, r3, #16
 819 0298 002B     		cmp	r3, #0
 820 029a 05D1     		bne	.L33
 821              		.loc 3 95 0 is_stmt 0 discriminator 1
 822 029c FB68     		ldr	r3, [r7, #12]
 823 029e 1033     		adds	r3, r3, #16
 824 02a0 FB60     		str	r3, [r7, #12]
 825 02a2 7B68     		ldr	r3, [r7, #4]
 826 02a4 1B04     		lsls	r3, r3, #16
 827 02a6 7B60     		str	r3, [r7, #4]
 828              	.L33:
  96:../../source/src/kernel/OS_LIB/malloc.c ****     if ((num>>24) == 0) {n = n+8; num = num<<8;}
 829              		.loc 3 96 0 is_stmt 1
 830 02a8 7B68     		ldr	r3, [r7, #4]
 831 02aa 1B0E     		lsrs	r3, r3, #24
 832 02ac 002B     		cmp	r3, #0
 833 02ae 05D1     		bne	.L34
 834              		.loc 3 96 0 is_stmt 0 discriminator 1
 835 02b0 FB68     		ldr	r3, [r7, #12]
 836 02b2 0833     		adds	r3, r3, #8
 837 02b4 FB60     		str	r3, [r7, #12]
 838 02b6 7B68     		ldr	r3, [r7, #4]
 839 02b8 1B02     		lsls	r3, r3, #8
 840 02ba 7B60     		str	r3, [r7, #4]
 841              	.L34:
  97:../../source/src/kernel/OS_LIB/malloc.c ****     if ((num>>28) == 0) {n = n+4; num = num<<4;}
 842              		.loc 3 97 0 is_stmt 1
 843 02bc 7B68     		ldr	r3, [r7, #4]
 844 02be 1B0F     		lsrs	r3, r3, #28
 845 02c0 002B     		cmp	r3, #0
 846 02c2 05D1     		bne	.L35
 847              		.loc 3 97 0 is_stmt 0 discriminator 1
 848 02c4 FB68     		ldr	r3, [r7, #12]
 849 02c6 0433     		adds	r3, r3, #4
 850 02c8 FB60     		str	r3, [r7, #12]
 851 02ca 7B68     		ldr	r3, [r7, #4]
ARM GAS  G:\Users\Jaxb\AppData\Local\Temp\ccEJJHY8.s 			page 20


 852 02cc 1B01     		lsls	r3, r3, #4
 853 02ce 7B60     		str	r3, [r7, #4]
 854              	.L35:
  98:../../source/src/kernel/OS_LIB/malloc.c ****     if ((num>>30) == 0) {n = n+2; num = num<<2;}
 855              		.loc 3 98 0 is_stmt 1
 856 02d0 7B68     		ldr	r3, [r7, #4]
 857 02d2 9B0F     		lsrs	r3, r3, #30
 858 02d4 002B     		cmp	r3, #0
 859 02d6 05D1     		bne	.L36
 860              		.loc 3 98 0 is_stmt 0 discriminator 1
 861 02d8 FB68     		ldr	r3, [r7, #12]
 862 02da 0233     		adds	r3, r3, #2
 863 02dc FB60     		str	r3, [r7, #12]
 864 02de 7B68     		ldr	r3, [r7, #4]
 865 02e0 9B00     		lsls	r3, r3, #2
 866 02e2 7B60     		str	r3, [r7, #4]
 867              	.L36:
  99:../../source/src/kernel/OS_LIB/malloc.c ****     n = n-(num>>31);
 868              		.loc 3 99 0 is_stmt 1
 869 02e4 7B68     		ldr	r3, [r7, #4]
 870 02e6 DB17     		asrs	r3, r3, #31
 871 02e8 1A46     		mov	r2, r3
 872 02ea FB68     		ldr	r3, [r7, #12]
 873 02ec 1344     		add	r3, r3, r2
 874 02ee FB60     		str	r3, [r7, #12]
 100:../../source/src/kernel/OS_LIB/malloc.c ****     return 31-n;
 875              		.loc 3 100 0
 876 02f0 FB68     		ldr	r3, [r7, #12]
 877 02f2 C3F11F03 		rsb	r3, r3, #31
 878              	.L32:
 101:../../source/src/kernel/OS_LIB/malloc.c **** }
 879              		.loc 3 101 0
 880 02f6 1846     		mov	r0, r3
 881 02f8 1437     		adds	r7, r7, #20
 882              	.LCFI66:
 883              		.cfi_def_cfa_offset 4
 884 02fa BD46     		mov	sp, r7
 885              	.LCFI67:
 886              		.cfi_def_cfa_register 13
 887              		@ sp needed
 888 02fc 80BC     		pop	{r7}
 889              	.LCFI68:
 890              		.cfi_restore 7
 891              		.cfi_def_cfa_offset 0
 892 02fe 7047     		bx	lr
 893              		.cfi_endproc
 894              	.LFE18:
 895              		.size	get_set_bit_place, .-get_set_bit_place
 896              		.section	.rodata
 897 002b 00       		.align	2
 898              	.LC3:
 899 002c 2E2E2F2E 		.ascii	"../../source/src/kernel/OS_LIB/malloc.c\000"
 899      2E2F736F 
 899      75726365 
 899      2F737263 
 899      2F6B6572 
 900              		.align	2
ARM GAS  G:\Users\Jaxb\AppData\Local\Temp\ccEJJHY8.s 			page 21


 901              	.LC4:
 902 0054 746F6F20 		.ascii	"too big! FATAL ERROR!\012\000"
 902      62696721 
 902      20464154 
 902      414C2045 
 902      52524F52 
 903 006b 00       		.align	2
 904              	.LC5:
 905 006c 6E6F2073 		.ascii	"no space!!!\012\000"
 905      70616365 
 905      2121210A 
 905      00
 906              		.text
 907              		.align	1
 908              		.syntax unified
 909              		.thumb
 910              		.thumb_func
 911              		.fpu softvfp
 912              		.type	_case_alloc_buddy, %function
 913              	_case_alloc_buddy:
 914              	.LFB19:
 102:../../source/src/kernel/OS_LIB/malloc.c **** 
 103:../../source/src/kernel/OS_LIB/malloc.c **** static void *_case_alloc_buddy(unsigned int level)
 104:../../source/src/kernel/OS_LIB/malloc.c **** {
 915              		.loc 3 104 0
 916              		.cfi_startproc
 917              		@ args = 0, pretend = 0, frame = 16
 918              		@ frame_needed = 1, uses_anonymous_args = 0
 919 0300 80B5     		push	{r7, lr}
 920              	.LCFI69:
 921              		.cfi_def_cfa_offset 8
 922              		.cfi_offset 7, -8
 923              		.cfi_offset 14, -4
 924 0302 84B0     		sub	sp, sp, #16
 925              	.LCFI70:
 926              		.cfi_def_cfa_offset 24
 927 0304 00AF     		add	r7, sp, #0
 928              	.LCFI71:
 929              		.cfi_def_cfa_register 7
 930 0306 7860     		str	r0, [r7, #4]
 105:../../source/src/kernel/OS_LIB/malloc.c **** 	struct slab *slab_ptr;
 106:../../source/src/kernel/OS_LIB/malloc.c **** 	struct buddy *buddy_ptr = (struct buddy *)get_os_buddy_ptr_head();
 931              		.loc 3 106 0
 932 0308 FFF7FEFF 		bl	get_os_buddy_ptr_head
 933 030c B860     		str	r0, [r7, #8]
 107:../../source/src/kernel/OS_LIB/malloc.c **** 	ASSERT(NULL != buddy_ptr);
 934              		.loc 3 107 0
 935 030e BB68     		ldr	r3, [r7, #8]
 936 0310 002B     		cmp	r3, #0
 937 0312 40F0AC80 		bne	.L39
 938              		.loc 3 107 0 is_stmt 0 discriminator 1
 939 0316 6B21     		movs	r1, #107
 940 0318 5B48     		ldr	r0, .L60
 941 031a FFF7FEFF 		bl	_ASSERT
 108:../../source/src/kernel/OS_LIB/malloc.c **** 	while(NULL != buddy_ptr)
 942              		.loc 3 108 0 is_stmt 1 discriminator 1
 943 031e A6E0     		b	.L39
ARM GAS  G:\Users\Jaxb\AppData\Local\Temp\ccEJJHY8.s 			page 22


 944              	.L59:
 109:../../source/src/kernel/OS_LIB/malloc.c **** 	{
 110:../../source/src/kernel/OS_LIB/malloc.c **** 		if(buddy_ptr->info.max_level < level)
 945              		.loc 3 110 0
 946 0320 BB68     		ldr	r3, [r7, #8]
 947 0322 9B6A     		ldr	r3, [r3, #40]
 948 0324 7A68     		ldr	r2, [r7, #4]
 949 0326 9A42     		cmp	r2, r3
 950 0328 04D9     		bls	.L40
 111:../../source/src/kernel/OS_LIB/malloc.c **** 		{
 112:../../source/src/kernel/OS_LIB/malloc.c **** 			buddy_ptr = (struct buddy *)get_next_buddy_ptr_head(buddy_ptr);
 951              		.loc 3 112 0
 952 032a B868     		ldr	r0, [r7, #8]
 953 032c FFF7FEFF 		bl	get_next_buddy_ptr_head
 954 0330 B860     		str	r0, [r7, #8]
 113:../../source/src/kernel/OS_LIB/malloc.c **** 			continue;
 955              		.loc 3 113 0
 956 0332 9CE0     		b	.L39
 957              	.L40:
 114:../../source/src/kernel/OS_LIB/malloc.c **** 		}
 115:../../source/src/kernel/OS_LIB/malloc.c **** 		switch(level)
 958              		.loc 3 115 0
 959 0334 7B68     		ldr	r3, [r7, #4]
 960 0336 013B     		subs	r3, r3, #1
 961 0338 062B     		cmp	r3, #6
 962 033a 00F28F80 		bhi	.L41
 963 033e 01A2     		adr	r2, .L43
 964 0340 52F823F0 		ldr	pc, [r2, r3, lsl #2]
 965              		.p2align 2
 966              	.L43:
 967 0344 61030000 		.word	.L42+1
 968 0348 85030000 		.word	.L44+1
 969 034c A9030000 		.word	.L45+1
 970 0350 CD030000 		.word	.L46+1
 971 0354 F1030000 		.word	.L47+1
 972 0358 15040000 		.word	.L48+1
 973 035c 39040000 		.word	.L49+1
 974              		.p2align 1
 975              	.L42:
 116:../../source/src/kernel/OS_LIB/malloc.c **** 		{
 117:../../source/src/kernel/OS_LIB/malloc.c **** 			case 1 :
 118:../../source/src/kernel/OS_LIB/malloc.c **** 				slab_ptr = (struct slab *)alloc_power1_page();
 976              		.loc 3 118 0
 977 0360 FFF7FEFF 		bl	alloc_power1_page
 978 0364 F860     		str	r0, [r7, #12]
 119:../../source/src/kernel/OS_LIB/malloc.c **** 				if(NULL == slab_ptr)
 979              		.loc 3 119 0
 980 0366 FB68     		ldr	r3, [r7, #12]
 981 0368 002B     		cmp	r3, #0
 982 036a 04D1     		bne	.L50
 120:../../source/src/kernel/OS_LIB/malloc.c **** 				{
 121:../../source/src/kernel/OS_LIB/malloc.c **** 					buddy_ptr = (struct buddy *)get_next_buddy_ptr_head(buddy_ptr);
 983              		.loc 3 121 0
 984 036c B868     		ldr	r0, [r7, #8]
 985 036e FFF7FEFF 		bl	get_next_buddy_ptr_head
 986 0372 B860     		str	r0, [r7, #8]
 122:../../source/src/kernel/OS_LIB/malloc.c **** 					continue ;
ARM GAS  G:\Users\Jaxb\AppData\Local\Temp\ccEJJHY8.s 			page 23


 987              		.loc 3 122 0
 988 0374 7BE0     		b	.L39
 989              	.L50:
 123:../../source/src/kernel/OS_LIB/malloc.c **** 				}
 124:../../source/src/kernel/OS_LIB/malloc.c **** 				slab_ptr->end_ptr = (void *)((unsigned int)slab_ptr + 1 * PAGE_SIZE_BYTE);
 990              		.loc 3 124 0
 991 0376 FB68     		ldr	r3, [r7, #12]
 992 0378 03F58063 		add	r3, r3, #1024
 993 037c 1A46     		mov	r2, r3
 994 037e FB68     		ldr	r3, [r7, #12]
 995 0380 5A60     		str	r2, [r3, #4]
 125:../../source/src/kernel/OS_LIB/malloc.c **** 				break;
 996              		.loc 3 125 0
 997 0382 72E0     		b	.L51
 998              	.L44:
 126:../../source/src/kernel/OS_LIB/malloc.c **** 			case 2 :
 127:../../source/src/kernel/OS_LIB/malloc.c **** 				slab_ptr = (struct slab *)alloc_power2_page();
 999              		.loc 3 127 0
 1000 0384 FFF7FEFF 		bl	alloc_power2_page
 1001 0388 F860     		str	r0, [r7, #12]
 128:../../source/src/kernel/OS_LIB/malloc.c **** 				if(NULL == slab_ptr)
 1002              		.loc 3 128 0
 1003 038a FB68     		ldr	r3, [r7, #12]
 1004 038c 002B     		cmp	r3, #0
 1005 038e 04D1     		bne	.L52
 129:../../source/src/kernel/OS_LIB/malloc.c **** 				{
 130:../../source/src/kernel/OS_LIB/malloc.c **** 					buddy_ptr = (struct buddy *)get_next_buddy_ptr_head(buddy_ptr);
 1006              		.loc 3 130 0
 1007 0390 B868     		ldr	r0, [r7, #8]
 1008 0392 FFF7FEFF 		bl	get_next_buddy_ptr_head
 1009 0396 B860     		str	r0, [r7, #8]
 131:../../source/src/kernel/OS_LIB/malloc.c **** 					continue ;
 1010              		.loc 3 131 0
 1011 0398 69E0     		b	.L39
 1012              	.L52:
 132:../../source/src/kernel/OS_LIB/malloc.c **** 				}
 133:../../source/src/kernel/OS_LIB/malloc.c **** 				slab_ptr->end_ptr = (void *)((unsigned int)slab_ptr + 2 * PAGE_SIZE_BYTE);
 1013              		.loc 3 133 0
 1014 039a FB68     		ldr	r3, [r7, #12]
 1015 039c 03F50063 		add	r3, r3, #2048
 1016 03a0 1A46     		mov	r2, r3
 1017 03a2 FB68     		ldr	r3, [r7, #12]
 1018 03a4 5A60     		str	r2, [r3, #4]
 134:../../source/src/kernel/OS_LIB/malloc.c **** 				break;
 1019              		.loc 3 134 0
 1020 03a6 60E0     		b	.L51
 1021              	.L45:
 135:../../source/src/kernel/OS_LIB/malloc.c **** 			case 3 :
 136:../../source/src/kernel/OS_LIB/malloc.c **** 				slab_ptr = (struct slab *)alloc_power3_page();
 1022              		.loc 3 136 0
 1023 03a8 FFF7FEFF 		bl	alloc_power3_page
 1024 03ac F860     		str	r0, [r7, #12]
 137:../../source/src/kernel/OS_LIB/malloc.c **** 				if(NULL == slab_ptr)
 1025              		.loc 3 137 0
 1026 03ae FB68     		ldr	r3, [r7, #12]
 1027 03b0 002B     		cmp	r3, #0
 1028 03b2 04D1     		bne	.L53
ARM GAS  G:\Users\Jaxb\AppData\Local\Temp\ccEJJHY8.s 			page 24


 138:../../source/src/kernel/OS_LIB/malloc.c **** 				{
 139:../../source/src/kernel/OS_LIB/malloc.c **** 					buddy_ptr = (struct buddy *)get_next_buddy_ptr_head(buddy_ptr);
 1029              		.loc 3 139 0
 1030 03b4 B868     		ldr	r0, [r7, #8]
 1031 03b6 FFF7FEFF 		bl	get_next_buddy_ptr_head
 1032 03ba B860     		str	r0, [r7, #8]
 140:../../source/src/kernel/OS_LIB/malloc.c **** 					continue ;
 1033              		.loc 3 140 0
 1034 03bc 57E0     		b	.L39
 1035              	.L53:
 141:../../source/src/kernel/OS_LIB/malloc.c **** 				}
 142:../../source/src/kernel/OS_LIB/malloc.c **** 				slab_ptr->end_ptr = (void *)((unsigned int)slab_ptr + 4 * PAGE_SIZE_BYTE);
 1036              		.loc 3 142 0
 1037 03be FB68     		ldr	r3, [r7, #12]
 1038 03c0 03F58053 		add	r3, r3, #4096
 1039 03c4 1A46     		mov	r2, r3
 1040 03c6 FB68     		ldr	r3, [r7, #12]
 1041 03c8 5A60     		str	r2, [r3, #4]
 143:../../source/src/kernel/OS_LIB/malloc.c **** 				break;
 1042              		.loc 3 143 0
 1043 03ca 4EE0     		b	.L51
 1044              	.L46:
 144:../../source/src/kernel/OS_LIB/malloc.c **** 			case 4 :
 145:../../source/src/kernel/OS_LIB/malloc.c **** 				slab_ptr = (struct slab *)alloc_power4_page();
 1045              		.loc 3 145 0
 1046 03cc FFF7FEFF 		bl	alloc_power4_page
 1047 03d0 F860     		str	r0, [r7, #12]
 146:../../source/src/kernel/OS_LIB/malloc.c **** 				if(NULL == slab_ptr)
 1048              		.loc 3 146 0
 1049 03d2 FB68     		ldr	r3, [r7, #12]
 1050 03d4 002B     		cmp	r3, #0
 1051 03d6 04D1     		bne	.L54
 147:../../source/src/kernel/OS_LIB/malloc.c **** 				{
 148:../../source/src/kernel/OS_LIB/malloc.c **** 					buddy_ptr = (struct buddy *)get_next_buddy_ptr_head(buddy_ptr);
 1052              		.loc 3 148 0
 1053 03d8 B868     		ldr	r0, [r7, #8]
 1054 03da FFF7FEFF 		bl	get_next_buddy_ptr_head
 1055 03de B860     		str	r0, [r7, #8]
 149:../../source/src/kernel/OS_LIB/malloc.c **** 					continue ;
 1056              		.loc 3 149 0
 1057 03e0 45E0     		b	.L39
 1058              	.L54:
 150:../../source/src/kernel/OS_LIB/malloc.c **** 				}
 151:../../source/src/kernel/OS_LIB/malloc.c **** 				slab_ptr->end_ptr = (void *)((unsigned int)slab_ptr + 8 * PAGE_SIZE_BYTE);
 1059              		.loc 3 151 0
 1060 03e2 FB68     		ldr	r3, [r7, #12]
 1061 03e4 03F50053 		add	r3, r3, #8192
 1062 03e8 1A46     		mov	r2, r3
 1063 03ea FB68     		ldr	r3, [r7, #12]
 1064 03ec 5A60     		str	r2, [r3, #4]
 152:../../source/src/kernel/OS_LIB/malloc.c **** 				break;
 1065              		.loc 3 152 0
 1066 03ee 3CE0     		b	.L51
 1067              	.L47:
 153:../../source/src/kernel/OS_LIB/malloc.c **** 			case 5 :
 154:../../source/src/kernel/OS_LIB/malloc.c **** 				slab_ptr = (struct slab *)alloc_power5_page();
 1068              		.loc 3 154 0
ARM GAS  G:\Users\Jaxb\AppData\Local\Temp\ccEJJHY8.s 			page 25


 1069 03f0 FFF7FEFF 		bl	alloc_power5_page
 1070 03f4 F860     		str	r0, [r7, #12]
 155:../../source/src/kernel/OS_LIB/malloc.c **** 				if(NULL == slab_ptr)
 1071              		.loc 3 155 0
 1072 03f6 FB68     		ldr	r3, [r7, #12]
 1073 03f8 002B     		cmp	r3, #0
 1074 03fa 04D1     		bne	.L55
 156:../../source/src/kernel/OS_LIB/malloc.c **** 				{
 157:../../source/src/kernel/OS_LIB/malloc.c **** 					buddy_ptr = (struct buddy *)get_next_buddy_ptr_head(buddy_ptr);
 1075              		.loc 3 157 0
 1076 03fc B868     		ldr	r0, [r7, #8]
 1077 03fe FFF7FEFF 		bl	get_next_buddy_ptr_head
 1078 0402 B860     		str	r0, [r7, #8]
 158:../../source/src/kernel/OS_LIB/malloc.c **** 					continue ;
 1079              		.loc 3 158 0
 1080 0404 33E0     		b	.L39
 1081              	.L55:
 159:../../source/src/kernel/OS_LIB/malloc.c **** 				}
 160:../../source/src/kernel/OS_LIB/malloc.c **** 				slab_ptr->end_ptr = (void *)((unsigned int)slab_ptr + 16 * PAGE_SIZE_BYTE);
 1082              		.loc 3 160 0
 1083 0406 FB68     		ldr	r3, [r7, #12]
 1084 0408 03F58043 		add	r3, r3, #16384
 1085 040c 1A46     		mov	r2, r3
 1086 040e FB68     		ldr	r3, [r7, #12]
 1087 0410 5A60     		str	r2, [r3, #4]
 161:../../source/src/kernel/OS_LIB/malloc.c **** 				break;
 1088              		.loc 3 161 0
 1089 0412 2AE0     		b	.L51
 1090              	.L48:
 162:../../source/src/kernel/OS_LIB/malloc.c **** 			case 6 :
 163:../../source/src/kernel/OS_LIB/malloc.c **** 				slab_ptr = (struct slab *)alloc_power6_page();
 1091              		.loc 3 163 0
 1092 0414 FFF7FEFF 		bl	alloc_power6_page
 1093 0418 F860     		str	r0, [r7, #12]
 164:../../source/src/kernel/OS_LIB/malloc.c **** 				if(NULL == slab_ptr)
 1094              		.loc 3 164 0
 1095 041a FB68     		ldr	r3, [r7, #12]
 1096 041c 002B     		cmp	r3, #0
 1097 041e 04D1     		bne	.L56
 165:../../source/src/kernel/OS_LIB/malloc.c **** 				{
 166:../../source/src/kernel/OS_LIB/malloc.c **** 					buddy_ptr = (struct buddy *)get_next_buddy_ptr_head(buddy_ptr);
 1098              		.loc 3 166 0
 1099 0420 B868     		ldr	r0, [r7, #8]
 1100 0422 FFF7FEFF 		bl	get_next_buddy_ptr_head
 1101 0426 B860     		str	r0, [r7, #8]
 167:../../source/src/kernel/OS_LIB/malloc.c **** 					continue ;
 1102              		.loc 3 167 0
 1103 0428 21E0     		b	.L39
 1104              	.L56:
 168:../../source/src/kernel/OS_LIB/malloc.c **** 				}
 169:../../source/src/kernel/OS_LIB/malloc.c **** 				slab_ptr->end_ptr = (void *)((unsigned int)slab_ptr + 32 * PAGE_SIZE_BYTE);
 1105              		.loc 3 169 0
 1106 042a FB68     		ldr	r3, [r7, #12]
 1107 042c 03F50043 		add	r3, r3, #32768
 1108 0430 1A46     		mov	r2, r3
 1109 0432 FB68     		ldr	r3, [r7, #12]
 1110 0434 5A60     		str	r2, [r3, #4]
ARM GAS  G:\Users\Jaxb\AppData\Local\Temp\ccEJJHY8.s 			page 26


 170:../../source/src/kernel/OS_LIB/malloc.c **** 				break;
 1111              		.loc 3 170 0
 1112 0436 18E0     		b	.L51
 1113              	.L49:
 171:../../source/src/kernel/OS_LIB/malloc.c **** 			case 7 :
 172:../../source/src/kernel/OS_LIB/malloc.c **** 				slab_ptr = (struct slab *)alloc_power7_page();
 1114              		.loc 3 172 0
 1115 0438 FFF7FEFF 		bl	alloc_power7_page
 1116 043c F860     		str	r0, [r7, #12]
 173:../../source/src/kernel/OS_LIB/malloc.c **** 				if(NULL == slab_ptr)
 1117              		.loc 3 173 0
 1118 043e FB68     		ldr	r3, [r7, #12]
 1119 0440 002B     		cmp	r3, #0
 1120 0442 04D1     		bne	.L57
 174:../../source/src/kernel/OS_LIB/malloc.c **** 				{
 175:../../source/src/kernel/OS_LIB/malloc.c **** 					buddy_ptr = (struct buddy *)get_next_buddy_ptr_head(buddy_ptr);
 1121              		.loc 3 175 0
 1122 0444 B868     		ldr	r0, [r7, #8]
 1123 0446 FFF7FEFF 		bl	get_next_buddy_ptr_head
 1124 044a B860     		str	r0, [r7, #8]
 176:../../source/src/kernel/OS_LIB/malloc.c **** 					continue ;
 1125              		.loc 3 176 0
 1126 044c 0FE0     		b	.L39
 1127              	.L57:
 177:../../source/src/kernel/OS_LIB/malloc.c **** 				}
 178:../../source/src/kernel/OS_LIB/malloc.c **** 				slab_ptr->end_ptr = (void *)((unsigned int)slab_ptr + 64 * PAGE_SIZE_BYTE);
 1128              		.loc 3 178 0
 1129 044e FB68     		ldr	r3, [r7, #12]
 1130 0450 03F58033 		add	r3, r3, #65536
 1131 0454 1A46     		mov	r2, r3
 1132 0456 FB68     		ldr	r3, [r7, #12]
 1133 0458 5A60     		str	r2, [r3, #4]
 179:../../source/src/kernel/OS_LIB/malloc.c **** 				break;
 1134              		.loc 3 179 0
 1135 045a 06E0     		b	.L51
 1136              	.L41:
 180:../../source/src/kernel/OS_LIB/malloc.c **** 			default :
 181:../../source/src/kernel/OS_LIB/malloc.c **** 				ka_printf("too big! FATAL ERROR!\n");
 1137              		.loc 3 181 0
 1138 045c 0B48     		ldr	r0, .L60+4
 1139 045e FFF7FEFF 		bl	ka_printf
 182:../../source/src/kernel/OS_LIB/malloc.c **** 				ASSERT(0);
 1140              		.loc 3 182 0
 1141 0462 B621     		movs	r1, #182
 1142 0464 0848     		ldr	r0, .L60
 1143 0466 FFF7FEFF 		bl	_ASSERT
 1144              	.L51:
 183:../../source/src/kernel/OS_LIB/malloc.c **** 		}
 184:../../source/src/kernel/OS_LIB/malloc.c **** 		return slab_ptr;
 1145              		.loc 3 184 0
 1146 046a FB68     		ldr	r3, [r7, #12]
 1147 046c 07E0     		b	.L58
 1148              	.L39:
 108:../../source/src/kernel/OS_LIB/malloc.c **** 	{
 1149              		.loc 3 108 0
 1150 046e BB68     		ldr	r3, [r7, #8]
 1151 0470 002B     		cmp	r3, #0
ARM GAS  G:\Users\Jaxb\AppData\Local\Temp\ccEJJHY8.s 			page 27


 1152 0472 7FF455AF 		bne	.L59
 185:../../source/src/kernel/OS_LIB/malloc.c **** 	}
 186:../../source/src/kernel/OS_LIB/malloc.c **** 	ka_printf("no space!!!\n");
 1153              		.loc 3 186 0
 1154 0476 0648     		ldr	r0, .L60+8
 1155 0478 FFF7FEFF 		bl	ka_printf
 187:../../source/src/kernel/OS_LIB/malloc.c **** 	return NULL;
 1156              		.loc 3 187 0
 1157 047c 0023     		movs	r3, #0
 1158              	.L58:
 188:../../source/src/kernel/OS_LIB/malloc.c **** }
 1159              		.loc 3 188 0
 1160 047e 1846     		mov	r0, r3
 1161 0480 1037     		adds	r7, r7, #16
 1162              	.LCFI72:
 1163              		.cfi_def_cfa_offset 8
 1164 0482 BD46     		mov	sp, r7
 1165              	.LCFI73:
 1166              		.cfi_def_cfa_register 13
 1167              		@ sp needed
 1168 0484 80BD     		pop	{r7, pc}
 1169              	.L61:
 1170 0486 00BF     		.align	2
 1171              	.L60:
 1172 0488 2C000000 		.word	.LC3
 1173 048c 54000000 		.word	.LC4
 1174 0490 6C000000 		.word	.LC5
 1175              		.cfi_endproc
 1176              	.LFE19:
 1177              		.size	_case_alloc_buddy, .-_case_alloc_buddy
 1178              		.section	.rodata
 1179 0079 000000   		.align	2
 1180              	.LC6:
 1181 007c 66617461 		.ascii	"fatal error from add_page_alloc_record()\012\000"
 1181      6C206572 
 1181      726F7220 
 1181      66726F6D 
 1181      20616464 
 1182              		.text
 1183              		.align	1
 1184              		.global	ka_malloc
 1185              		.syntax unified
 1186              		.thumb
 1187              		.thumb_func
 1188              		.fpu softvfp
 1189              		.type	ka_malloc, %function
 1190              	ka_malloc:
 1191              	.LFB20:
 189:../../source/src/kernel/OS_LIB/malloc.c **** 
 190:../../source/src/kernel/OS_LIB/malloc.c **** void *ka_malloc(unsigned int size)
 191:../../source/src/kernel/OS_LIB/malloc.c **** {
 1192              		.loc 3 191 0
 1193              		.cfi_startproc
 1194              		@ args = 0, pretend = 0, frame = 64
 1195              		@ frame_needed = 1, uses_anonymous_args = 0
 1196 0494 80B5     		push	{r7, lr}
 1197              	.LCFI74:
ARM GAS  G:\Users\Jaxb\AppData\Local\Temp\ccEJJHY8.s 			page 28


 1198              		.cfi_def_cfa_offset 8
 1199              		.cfi_offset 7, -8
 1200              		.cfi_offset 14, -4
 1201 0496 90B0     		sub	sp, sp, #64
 1202              	.LCFI75:
 1203              		.cfi_def_cfa_offset 72
 1204 0498 00AF     		add	r7, sp, #0
 1205              	.LCFI76:
 1206              		.cfi_def_cfa_register 7
 1207 049a 7860     		str	r0, [r7, #4]
 192:../../source/src/kernel/OS_LIB/malloc.c **** 	void *ptr;
 193:../../source/src/kernel/OS_LIB/malloc.c **** 	CPU_SR_ALLOC();
 1208              		.loc 3 193 0
 1209 049c 0023     		movs	r3, #0
 1210 049e BB63     		str	r3, [r7, #56]
 194:../../source/src/kernel/OS_LIB/malloc.c **** 	if(0 == size)
 1211              		.loc 3 194 0
 1212 04a0 7B68     		ldr	r3, [r7, #4]
 1213 04a2 002B     		cmp	r3, #0
 1214 04a4 01D1     		bne	.L63
 195:../../source/src/kernel/OS_LIB/malloc.c **** 	{
 196:../../source/src/kernel/OS_LIB/malloc.c **** 		return NULL;
 1215              		.loc 3 196 0
 1216 04a6 0023     		movs	r3, #0
 1217 04a8 0AE1     		b	.L64
 1218              	.L63:
 197:../../source/src/kernel/OS_LIB/malloc.c **** 	}
 198:../../source/src/kernel/OS_LIB/malloc.c **** 	CPU_CRITICAL_ENTER();
 1219              		.loc 3 198 0
 1220 04aa FFF7FEFF 		bl	CPU_SR_Save
 1221 04ae B863     		str	r0, [r7, #56]
 199:../../source/src/kernel/OS_LIB/malloc.c **** 	if(size <= 512)
 1222              		.loc 3 199 0
 1223 04b0 7B68     		ldr	r3, [r7, #4]
 1224 04b2 B3F5007F 		cmp	r3, #512
 1225 04b6 00F2CC80 		bhi	.L65
 1226              	.LBB4:
 200:../../source/src/kernel/OS_LIB/malloc.c **** 	{
 201:../../source/src/kernel/OS_LIB/malloc.c **** 		IL *IL_ptr = find_first_bigger_IL(&cache_chain_head,size); //find a suitable cache
 1227              		.loc 3 201 0
 1228 04ba 7968     		ldr	r1, [r7, #4]
 1229 04bc 8248     		ldr	r0, .L79
 1230 04be FFF7FEFF 		bl	find_first_bigger_IL
 1231 04c2 F863     		str	r0, [r7, #60]
 1232              	.L75:
 202:../../source/src/kernel/OS_LIB/malloc.c **** 		while(1)
 203:../../source/src/kernel/OS_LIB/malloc.c **** 		{
 204:../../source/src/kernel/OS_LIB/malloc.c **** 			if(NULL != IL_ptr)// this means that there is a slab.size bigger than size
 1233              		.loc 3 204 0
 1234 04c4 FB6B     		ldr	r3, [r7, #60]
 1235 04c6 002B     		cmp	r3, #0
 1236 04c8 00F0A180 		beq	.L66
 1237              	.LBB5:
 1238              	.LBB6:
 205:../../source/src/kernel/OS_LIB/malloc.c **** 			{
 206:../../source/src/kernel/OS_LIB/malloc.c **** 				struct kmem_cache *kmem_cache_ptr = list_entry(IL_ptr,struct kmem_cache,kmem_cache_insert_chain
 1239              		.loc 3 206 0
ARM GAS  G:\Users\Jaxb\AppData\Local\Temp\ccEJJHY8.s 			page 29


 1240 04cc FB6B     		ldr	r3, [r7, #60]
 1241 04ce BB62     		str	r3, [r7, #40]
 1242 04d0 BB6A     		ldr	r3, [r7, #40]
 1243              	.LBE6:
 1244 04d2 7B62     		str	r3, [r7, #36]
 207:../../source/src/kernel/OS_LIB/malloc.c **** 				//first try to get room from slabs_partial
 208:../../source/src/kernel/OS_LIB/malloc.c **** 				if(!list_empty(&kmem_cache_ptr->slabs_partial)) // if chain "slabs_partial" is not empty
 1245              		.loc 3 208 0
 1246 04d4 7B6A     		ldr	r3, [r7, #36]
 1247 04d6 1433     		adds	r3, r3, #20
 1248 04d8 1846     		mov	r0, r3
 1249 04da FFF7E7FD 		bl	list_empty
 1250 04de 0346     		mov	r3, r0
 1251 04e0 002B     		cmp	r3, #0
 1252 04e2 29D1     		bne	.L67
 1253              	.LBB7:
 1254              	.LBB8:
 209:../../source/src/kernel/OS_LIB/malloc.c **** 				{
 210:../../source/src/kernel/OS_LIB/malloc.c **** 					struct slab *slab_ptr = list_entry(kmem_cache_ptr->slabs_partial.next,struct slab,slab_chain);
 1255              		.loc 3 210 0
 1256 04e4 7B6A     		ldr	r3, [r7, #36]
 1257 04e6 5B69     		ldr	r3, [r3, #20]
 1258 04e8 3B61     		str	r3, [r7, #16]
 1259 04ea 3B69     		ldr	r3, [r7, #16]
 1260 04ec 143B     		subs	r3, r3, #20
 1261              	.LBE8:
 1262 04ee FB60     		str	r3, [r7, #12]
 211:../../source/src/kernel/OS_LIB/malloc.c **** 					ptr = slab_ptr->block_head.next; // ptr is the point of the allocated space
 1263              		.loc 3 211 0
 1264 04f0 FB68     		ldr	r3, [r7, #12]
 1265 04f2 DB69     		ldr	r3, [r3, #28]
 1266 04f4 3B63     		str	r3, [r7, #48]
 212:../../source/src/kernel/OS_LIB/malloc.c **** 					list_del(slab_ptr->block_head.next); // delete it from slab chain "block_head"
 1267              		.loc 3 212 0
 1268 04f6 FB68     		ldr	r3, [r7, #12]
 1269 04f8 DB69     		ldr	r3, [r3, #28]
 1270 04fa 1846     		mov	r0, r3
 1271 04fc FFF7C6FD 		bl	list_del
 213:../../source/src/kernel/OS_LIB/malloc.c **** 					if(0 == --(slab_ptr->current_block_num)) // if this slab has no more space
 1272              		.loc 3 213 0
 1273 0500 FB68     		ldr	r3, [r7, #12]
 1274 0502 9B68     		ldr	r3, [r3, #8]
 1275 0504 5A1E     		subs	r2, r3, #1
 1276 0506 FB68     		ldr	r3, [r7, #12]
 1277 0508 9A60     		str	r2, [r3, #8]
 1278 050a FB68     		ldr	r3, [r7, #12]
 1279 050c 9B68     		ldr	r3, [r3, #8]
 1280 050e 002B     		cmp	r3, #0
 1281 0510 0DD1     		bne	.L68
 214:../../source/src/kernel/OS_LIB/malloc.c **** 					{
 215:../../source/src/kernel/OS_LIB/malloc.c **** 						list_del(&slab_ptr->slab_chain);
 1282              		.loc 3 215 0
 1283 0512 FB68     		ldr	r3, [r7, #12]
 1284 0514 1433     		adds	r3, r3, #20
 1285 0516 1846     		mov	r0, r3
 1286 0518 FFF7B8FD 		bl	list_del
 216:../../source/src/kernel/OS_LIB/malloc.c **** 						list_add(&slab_ptr->slab_chain,&kmem_cache_ptr->slabs_full); // put it into the chain "slabs_
ARM GAS  G:\Users\Jaxb\AppData\Local\Temp\ccEJJHY8.s 			page 30


 1287              		.loc 3 216 0
 1288 051c FB68     		ldr	r3, [r7, #12]
 1289 051e 03F11402 		add	r2, r3, #20
 1290 0522 7B6A     		ldr	r3, [r7, #36]
 1291 0524 0C33     		adds	r3, r3, #12
 1292 0526 1946     		mov	r1, r3
 1293 0528 1046     		mov	r0, r2
 1294 052a FFF78FFD 		bl	list_add
 1295              	.L68:
 217:../../source/src/kernel/OS_LIB/malloc.c **** 					}
 218:../../source/src/kernel/OS_LIB/malloc.c **** 					CPU_CRITICAL_EXIT();
 1296              		.loc 3 218 0
 1297 052e B86B     		ldr	r0, [r7, #56]
 1298 0530 FFF7FEFF 		bl	CPU_SR_Restore
 219:../../source/src/kernel/OS_LIB/malloc.c **** 					return ptr;
 1299              		.loc 3 219 0
 1300 0534 3B6B     		ldr	r3, [r7, #48]
 1301 0536 C3E0     		b	.L64
 1302              	.L67:
 1303              	.LBE7:
 220:../../source/src/kernel/OS_LIB/malloc.c **** 				}
 221:../../source/src/kernel/OS_LIB/malloc.c **** 				else if(!list_empty(&kmem_cache_ptr->slabs_empty)) // else if chain "slabs_empty" is not empty
 1304              		.loc 3 221 0
 1305 0538 7B6A     		ldr	r3, [r7, #36]
 1306 053a 1C33     		adds	r3, r3, #28
 1307 053c 1846     		mov	r0, r3
 1308 053e FFF7B5FD 		bl	list_empty
 1309 0542 0346     		mov	r3, r0
 1310 0544 002B     		cmp	r3, #0
 1311 0546 25D1     		bne	.L69
 1312              	.LBB9:
 1313              	.LBB10:
 222:../../source/src/kernel/OS_LIB/malloc.c **** 				{
 223:../../source/src/kernel/OS_LIB/malloc.c **** 					struct slab *slab_ptr = list_entry(kmem_cache_ptr->slabs_empty.next,struct slab,slab_chain);
 1314              		.loc 3 223 0
 1315 0548 7B6A     		ldr	r3, [r7, #36]
 1316 054a DB69     		ldr	r3, [r3, #28]
 1317 054c BB61     		str	r3, [r7, #24]
 1318 054e BB69     		ldr	r3, [r7, #24]
 1319 0550 143B     		subs	r3, r3, #20
 1320              	.LBE10:
 1321 0552 7B61     		str	r3, [r7, #20]
 224:../../source/src/kernel/OS_LIB/malloc.c **** 					ptr = slab_ptr->block_head.next;
 1322              		.loc 3 224 0
 1323 0554 7B69     		ldr	r3, [r7, #20]
 1324 0556 DB69     		ldr	r3, [r3, #28]
 1325 0558 3B63     		str	r3, [r7, #48]
 225:../../source/src/kernel/OS_LIB/malloc.c **** 					list_del(slab_ptr->block_head.next);
 1326              		.loc 3 225 0
 1327 055a 7B69     		ldr	r3, [r7, #20]
 1328 055c DB69     		ldr	r3, [r3, #28]
 1329 055e 1846     		mov	r0, r3
 1330 0560 FFF794FD 		bl	list_del
 226:../../source/src/kernel/OS_LIB/malloc.c **** 					list_del(&slab_ptr->slab_chain);
 1331              		.loc 3 226 0
 1332 0564 7B69     		ldr	r3, [r7, #20]
 1333 0566 1433     		adds	r3, r3, #20
ARM GAS  G:\Users\Jaxb\AppData\Local\Temp\ccEJJHY8.s 			page 31


 1334 0568 1846     		mov	r0, r3
 1335 056a FFF78FFD 		bl	list_del
 227:../../source/src/kernel/OS_LIB/malloc.c **** 					list_add(&slab_ptr->slab_chain,&kmem_cache_ptr->slabs_partial);
 1336              		.loc 3 227 0
 1337 056e 7B69     		ldr	r3, [r7, #20]
 1338 0570 03F11402 		add	r2, r3, #20
 1339 0574 7B6A     		ldr	r3, [r7, #36]
 1340 0576 1433     		adds	r3, r3, #20
 1341 0578 1946     		mov	r1, r3
 1342 057a 1046     		mov	r0, r2
 1343 057c FFF766FD 		bl	list_add
 228:../../source/src/kernel/OS_LIB/malloc.c **** 					--(slab_ptr->current_block_num);
 1344              		.loc 3 228 0
 1345 0580 7B69     		ldr	r3, [r7, #20]
 1346 0582 9B68     		ldr	r3, [r3, #8]
 1347 0584 5A1E     		subs	r2, r3, #1
 1348 0586 7B69     		ldr	r3, [r7, #20]
 1349 0588 9A60     		str	r2, [r3, #8]
 229:../../source/src/kernel/OS_LIB/malloc.c **** 					CPU_CRITICAL_EXIT();
 1350              		.loc 3 229 0
 1351 058a B86B     		ldr	r0, [r7, #56]
 1352 058c FFF7FEFF 		bl	CPU_SR_Restore
 230:../../source/src/kernel/OS_LIB/malloc.c **** 					return ptr;
 1353              		.loc 3 230 0
 1354 0590 3B6B     		ldr	r3, [r7, #48]
 1355 0592 95E0     		b	.L64
 1356              	.L69:
 1357              	.LBE9:
 1358              	.LBB11:
 231:../../source/src/kernel/OS_LIB/malloc.c **** 				}
 232:../../source/src/kernel/OS_LIB/malloc.c **** 				else // at this case we have to allocate mem from buddy
 233:../../source/src/kernel/OS_LIB/malloc.c **** 				{
 234:../../source/src/kernel/OS_LIB/malloc.c **** 					struct slab *slab_ptr;
 235:../../source/src/kernel/OS_LIB/malloc.c **** 					unsigned int level;
 236:../../source/src/kernel/OS_LIB/malloc.c **** 					level = get_set_bit_place((10 * IL_ptr->prio + sizeof(struct slab)) / PAGE_SIZE_BYTE) + 2;
 1359              		.loc 3 236 0
 1360 0594 FB6B     		ldr	r3, [r7, #60]
 1361 0596 9A68     		ldr	r2, [r3, #8]
 1362 0598 1346     		mov	r3, r2
 1363 059a 9B00     		lsls	r3, r3, #2
 1364 059c 1344     		add	r3, r3, r2
 1365 059e 5B00     		lsls	r3, r3, #1
 1366 05a0 2433     		adds	r3, r3, #36
 1367 05a2 9B0A     		lsrs	r3, r3, #10
 1368 05a4 1846     		mov	r0, r3
 1369 05a6 FFF7FEFF 		bl	get_set_bit_place
 1370 05aa 0346     		mov	r3, r0
 1371 05ac 0233     		adds	r3, r3, #2
 1372 05ae 3B62     		str	r3, [r7, #32]
 237:../../source/src/kernel/OS_LIB/malloc.c **** 					//at least allocate 10 times of corresponding space and a room of sizeof(struct slab)
 238:../../source/src/kernel/OS_LIB/malloc.c **** 					slab_ptr = (struct slab *)_case_alloc_buddy(level);
 1373              		.loc 3 238 0
 1374 05b0 386A     		ldr	r0, [r7, #32]
 1375 05b2 FFF7A5FE 		bl	_case_alloc_buddy
 1376 05b6 F861     		str	r0, [r7, #28]
 239:../../source/src/kernel/OS_LIB/malloc.c **** 					if(NULL != slab_ptr)
 1377              		.loc 3 239 0
ARM GAS  G:\Users\Jaxb\AppData\Local\Temp\ccEJJHY8.s 			page 32


 1378 05b8 FB69     		ldr	r3, [r7, #28]
 1379 05ba 002B     		cmp	r3, #0
 1380 05bc 1AD0     		beq	.L70
 240:../../source/src/kernel/OS_LIB/malloc.c **** 					{
 241:../../source/src/kernel/OS_LIB/malloc.c **** 						load_slab((void *)slab_ptr,slab_ptr->end_ptr,IL_ptr->prio,&kmem_cache_ptr->slabs_partial);
 1381              		.loc 3 241 0
 1382 05be FB69     		ldr	r3, [r7, #28]
 1383 05c0 5968     		ldr	r1, [r3, #4]
 1384 05c2 FB6B     		ldr	r3, [r7, #60]
 1385 05c4 9A68     		ldr	r2, [r3, #8]
 1386 05c6 7B6A     		ldr	r3, [r7, #36]
 1387 05c8 1433     		adds	r3, r3, #20
 1388 05ca F869     		ldr	r0, [r7, #28]
 1389 05cc FFF7FEFF 		bl	load_slab
 242:../../source/src/kernel/OS_LIB/malloc.c **** 						ptr = slab_ptr->block_head.next; // ptr is the point of the allocated space
 1390              		.loc 3 242 0
 1391 05d0 FB69     		ldr	r3, [r7, #28]
 1392 05d2 DB69     		ldr	r3, [r3, #28]
 1393 05d4 3B63     		str	r3, [r7, #48]
 243:../../source/src/kernel/OS_LIB/malloc.c **** 						list_del(slab_ptr->block_head.next); // delete it from slab chain "block_head"
 1394              		.loc 3 243 0
 1395 05d6 FB69     		ldr	r3, [r7, #28]
 1396 05d8 DB69     		ldr	r3, [r3, #28]
 1397 05da 1846     		mov	r0, r3
 1398 05dc FFF756FD 		bl	list_del
 244:../../source/src/kernel/OS_LIB/malloc.c **** 						--(slab_ptr->current_block_num);
 1399              		.loc 3 244 0
 1400 05e0 FB69     		ldr	r3, [r7, #28]
 1401 05e2 9B68     		ldr	r3, [r3, #8]
 1402 05e4 5A1E     		subs	r2, r3, #1
 1403 05e6 FB69     		ldr	r3, [r7, #28]
 1404 05e8 9A60     		str	r2, [r3, #8]
 245:../../source/src/kernel/OS_LIB/malloc.c **** 						CPU_CRITICAL_EXIT();
 1405              		.loc 3 245 0
 1406 05ea B86B     		ldr	r0, [r7, #56]
 1407 05ec FFF7FEFF 		bl	CPU_SR_Restore
 246:../../source/src/kernel/OS_LIB/malloc.c **** 						return ptr;
 1408              		.loc 3 246 0
 1409 05f0 3B6B     		ldr	r3, [r7, #48]
 1410 05f2 65E0     		b	.L64
 1411              	.L70:
 247:../../source/src/kernel/OS_LIB/malloc.c **** 					}
 248:../../source/src/kernel/OS_LIB/malloc.c **** 					else // NULL == slab_ptr
 249:../../source/src/kernel/OS_LIB/malloc.c **** 					{
 250:../../source/src/kernel/OS_LIB/malloc.c **** 						IL_ptr = get_next_IL(IL_ptr,&cache_chain_head);
 1412              		.loc 3 250 0
 1413 05f4 3449     		ldr	r1, .L79
 1414 05f6 F86B     		ldr	r0, [r7, #60]
 1415 05f8 FFF7FEFF 		bl	get_next_IL
 1416 05fc F863     		str	r0, [r7, #60]
 251:../../source/src/kernel/OS_LIB/malloc.c **** 						if(NULL == IL_ptr)
 1417              		.loc 3 251 0
 1418 05fe FB6B     		ldr	r3, [r7, #60]
 1419 0600 002B     		cmp	r3, #0
 1420 0602 24D1     		bne	.L78
 252:../../source/src/kernel/OS_LIB/malloc.c **** 						{
 253:../../source/src/kernel/OS_LIB/malloc.c **** 							CPU_CRITICAL_EXIT();
ARM GAS  G:\Users\Jaxb\AppData\Local\Temp\ccEJJHY8.s 			page 33


 1421              		.loc 3 253 0
 1422 0604 B86B     		ldr	r0, [r7, #56]
 1423 0606 FFF7FEFF 		bl	CPU_SR_Restore
 254:../../source/src/kernel/OS_LIB/malloc.c **** 							return NULL;
 1424              		.loc 3 254 0
 1425 060a 0023     		movs	r3, #0
 1426 060c 58E0     		b	.L64
 1427              	.L66:
 1428              	.LBE11:
 1429              	.LBE5:
 1430              	.LBB13:
 255:../../source/src/kernel/OS_LIB/malloc.c **** 						}
 256:../../source/src/kernel/OS_LIB/malloc.c **** 						continue ;
 257:../../source/src/kernel/OS_LIB/malloc.c **** 					}
 258:../../source/src/kernel/OS_LIB/malloc.c **** 				}
 259:../../source/src/kernel/OS_LIB/malloc.c **** 			}
 260:../../source/src/kernel/OS_LIB/malloc.c **** 			else // NULL == IL_ptr
 261:../../source/src/kernel/OS_LIB/malloc.c **** 			{
 262:../../source/src/kernel/OS_LIB/malloc.c **** 				struct kmem_cache *kmem_cache_ptr = ka_malloc(sizeof(struct kmem_cache));
 1431              		.loc 3 262 0
 1432 060e 2420     		movs	r0, #36
 1433 0610 FFF7FEFF 		bl	ka_malloc
 1434 0614 F862     		str	r0, [r7, #44]
 263:../../source/src/kernel/OS_LIB/malloc.c **** 				ASSERT(NULL != kmem_cache_ptr);
 1435              		.loc 3 263 0
 1436 0616 FB6A     		ldr	r3, [r7, #44]
 1437 0618 002B     		cmp	r3, #0
 1438 061a 04D1     		bne	.L73
 1439              		.loc 3 263 0 is_stmt 0 discriminator 1
 1440 061c 40F20711 		movw	r1, #263
 1441 0620 2A48     		ldr	r0, .L79+4
 1442 0622 FFF7FEFF 		bl	_ASSERT
 1443              	.L73:
 264:../../source/src/kernel/OS_LIB/malloc.c **** 				if(NULL == kmem_cache_ptr)
 1444              		.loc 3 264 0 is_stmt 1
 1445 0626 FB6A     		ldr	r3, [r7, #44]
 1446 0628 002B     		cmp	r3, #0
 1447 062a 04D1     		bne	.L74
 265:../../source/src/kernel/OS_LIB/malloc.c **** 				{
 266:../../source/src/kernel/OS_LIB/malloc.c **** 					CPU_CRITICAL_EXIT();
 1448              		.loc 3 266 0
 1449 062c B86B     		ldr	r0, [r7, #56]
 1450 062e FFF7FEFF 		bl	CPU_SR_Restore
 267:../../source/src/kernel/OS_LIB/malloc.c **** 					return NULL;
 1451              		.loc 3 267 0
 1452 0632 0023     		movs	r3, #0
 1453 0634 44E0     		b	.L64
 1454              	.L74:
 268:../../source/src/kernel/OS_LIB/malloc.c **** 				}
 269:../../source/src/kernel/OS_LIB/malloc.c **** 				insert_into_cache_chain(&cache_chain_head,kmem_cache_ptr,size);
 1455              		.loc 3 269 0
 1456 0636 7B68     		ldr	r3, [r7, #4]
 1457 0638 1A46     		mov	r2, r3
 1458 063a F96A     		ldr	r1, [r7, #44]
 1459 063c 2248     		ldr	r0, .L79
 1460 063e FFF7FEFF 		bl	insert_into_cache_chain
 270:../../source/src/kernel/OS_LIB/malloc.c **** 				IL_ptr = find_first_bigger_IL(&cache_chain_head,size);
ARM GAS  G:\Users\Jaxb\AppData\Local\Temp\ccEJJHY8.s 			page 34


 1461              		.loc 3 270 0
 1462 0642 7968     		ldr	r1, [r7, #4]
 1463 0644 2048     		ldr	r0, .L79
 1464 0646 FFF7FEFF 		bl	find_first_bigger_IL
 1465 064a F863     		str	r0, [r7, #60]
 271:../../source/src/kernel/OS_LIB/malloc.c **** 				continue ;
 1466              		.loc 3 271 0
 1467 064c 00E0     		b	.L72
 1468              	.L78:
 1469              	.LBE13:
 1470              	.LBB14:
 1471              	.LBB12:
 256:../../source/src/kernel/OS_LIB/malloc.c **** 					}
 1472              		.loc 3 256 0
 1473 064e 00BF     		nop
 1474              	.L72:
 1475              	.LBE12:
 1476              	.LBE14:
 204:../../source/src/kernel/OS_LIB/malloc.c **** 			{
 1477              		.loc 3 204 0
 1478 0650 38E7     		b	.L75
 1479              	.L65:
 1480              	.LBE4:
 1481              	.LBB15:
 272:../../source/src/kernel/OS_LIB/malloc.c **** 			}
 273:../../source/src/kernel/OS_LIB/malloc.c **** 		}
 274:../../source/src/kernel/OS_LIB/malloc.c **** 	}
 275:../../source/src/kernel/OS_LIB/malloc.c **** 	else //size > 512
 276:../../source/src/kernel/OS_LIB/malloc.c **** 	{
 277:../../source/src/kernel/OS_LIB/malloc.c **** 		int level = get_set_bit_place(size/PAGE_SIZE_BYTE) + 2;
 1482              		.loc 3 277 0
 1483 0652 7B68     		ldr	r3, [r7, #4]
 1484 0654 9B0A     		lsrs	r3, r3, #10
 1485 0656 1846     		mov	r0, r3
 1486 0658 FFF7FEFF 		bl	get_set_bit_place
 1487 065c 0346     		mov	r3, r0
 1488 065e 0233     		adds	r3, r3, #2
 1489 0660 7B63     		str	r3, [r7, #52]
 278:../../source/src/kernel/OS_LIB/malloc.c **** 		ptr = _case_alloc_buddy((unsigned int)level);
 1490              		.loc 3 278 0
 1491 0662 7B6B     		ldr	r3, [r7, #52]
 1492 0664 1846     		mov	r0, r3
 1493 0666 FFF74BFE 		bl	_case_alloc_buddy
 1494 066a 3863     		str	r0, [r7, #48]
 279:../../source/src/kernel/OS_LIB/malloc.c **** 		if(NULL == ptr)
 1495              		.loc 3 279 0
 1496 066c 3B6B     		ldr	r3, [r7, #48]
 1497 066e 002B     		cmp	r3, #0
 1498 0670 04D1     		bne	.L76
 280:../../source/src/kernel/OS_LIB/malloc.c **** 		{
 281:../../source/src/kernel/OS_LIB/malloc.c **** 			CPU_CRITICAL_EXIT();
 1499              		.loc 3 281 0
 1500 0672 B86B     		ldr	r0, [r7, #56]
 1501 0674 FFF7FEFF 		bl	CPU_SR_Restore
 282:../../source/src/kernel/OS_LIB/malloc.c **** 			return NULL;
 1502              		.loc 3 282 0
 1503 0678 0023     		movs	r3, #0
ARM GAS  G:\Users\Jaxb\AppData\Local\Temp\ccEJJHY8.s 			page 35


 1504 067a 21E0     		b	.L64
 1505              	.L76:
 283:../../source/src/kernel/OS_LIB/malloc.c **** 		}
 284:../../source/src/kernel/OS_LIB/malloc.c **** 		if(FUN_EXECUTE_SUCCESSFULLY == add_page_alloc_record(level,ptr))
 1506              		.loc 3 284 0
 1507 067c 7B6B     		ldr	r3, [r7, #52]
 1508 067e 396B     		ldr	r1, [r7, #48]
 1509 0680 1846     		mov	r0, r3
 1510 0682 FFF7FEFF 		bl	add_page_alloc_record
 1511 0686 0346     		mov	r3, r0
 1512 0688 002B     		cmp	r3, #0
 1513 068a 04D1     		bne	.L77
 285:../../source/src/kernel/OS_LIB/malloc.c **** 		{
 286:../../source/src/kernel/OS_LIB/malloc.c **** 			CPU_CRITICAL_EXIT();
 1514              		.loc 3 286 0
 1515 068c B86B     		ldr	r0, [r7, #56]
 1516 068e FFF7FEFF 		bl	CPU_SR_Restore
 287:../../source/src/kernel/OS_LIB/malloc.c **** 			return ptr;
 1517              		.loc 3 287 0
 1518 0692 3B6B     		ldr	r3, [r7, #48]
 1519 0694 14E0     		b	.L64
 1520              	.L77:
 288:../../source/src/kernel/OS_LIB/malloc.c **** 		}
 289:../../source/src/kernel/OS_LIB/malloc.c **** 		else
 290:../../source/src/kernel/OS_LIB/malloc.c **** 		{
 291:../../source/src/kernel/OS_LIB/malloc.c **** 			ka_printf("fatal error from add_page_alloc_record()\n");
 1521              		.loc 3 291 0
 1522 0696 0E48     		ldr	r0, .L79+8
 1523 0698 FFF7FEFF 		bl	ka_printf
 292:../../source/src/kernel/OS_LIB/malloc.c **** 			_case_slab_free_buddy(ptr,(void *)((unsigned int)ptr + ka_pow(2,level-1) * PAGE_SIZE_BYTE));
 1524              		.loc 3 292 0
 1525 069c 7B6B     		ldr	r3, [r7, #52]
 1526 069e 013B     		subs	r3, r3, #1
 1527 06a0 1946     		mov	r1, r3
 1528 06a2 0220     		movs	r0, #2
 1529 06a4 FFF7FEFF 		bl	ka_pow
 1530 06a8 0346     		mov	r3, r0
 1531 06aa 9A02     		lsls	r2, r3, #10
 1532 06ac 3B6B     		ldr	r3, [r7, #48]
 1533 06ae 1344     		add	r3, r3, r2
 1534 06b0 1946     		mov	r1, r3
 1535 06b2 386B     		ldr	r0, [r7, #48]
 1536 06b4 FFF7FEFF 		bl	_case_slab_free_buddy
 293:../../source/src/kernel/OS_LIB/malloc.c **** 			CPU_CRITICAL_EXIT();
 1537              		.loc 3 293 0
 1538 06b8 B86B     		ldr	r0, [r7, #56]
 1539 06ba FFF7FEFF 		bl	CPU_SR_Restore
 294:../../source/src/kernel/OS_LIB/malloc.c **** 			return NULL;
 1540              		.loc 3 294 0
 1541 06be 0023     		movs	r3, #0
 1542              	.L64:
 1543              	.LBE15:
 295:../../source/src/kernel/OS_LIB/malloc.c **** 		}
 296:../../source/src/kernel/OS_LIB/malloc.c **** 	}
 297:../../source/src/kernel/OS_LIB/malloc.c **** }
 1544              		.loc 3 297 0
 1545 06c0 1846     		mov	r0, r3
ARM GAS  G:\Users\Jaxb\AppData\Local\Temp\ccEJJHY8.s 			page 36


 1546 06c2 4037     		adds	r7, r7, #64
 1547              	.LCFI77:
 1548              		.cfi_def_cfa_offset 8
 1549 06c4 BD46     		mov	sp, r7
 1550              	.LCFI78:
 1551              		.cfi_def_cfa_register 13
 1552              		@ sp needed
 1553 06c6 80BD     		pop	{r7, pc}
 1554              	.L80:
 1555              		.align	2
 1556              	.L79:
 1557 06c8 00000000 		.word	cache_chain_head
 1558 06cc 2C000000 		.word	.LC3
 1559 06d0 7C000000 		.word	.LC6
 1560              		.cfi_endproc
 1561              	.LFE20:
 1562              		.size	ka_malloc, .-ka_malloc
 1563              		.align	1
 1564              		.syntax unified
 1565              		.thumb
 1566              		.thumb_func
 1567              		.fpu softvfp
 1568              		.type	free_find_in_slab_chain, %function
 1569              	free_find_in_slab_chain:
 1570              	.LFB21:
 298:../../source/src/kernel/OS_LIB/malloc.c **** 
 299:../../source/src/kernel/OS_LIB/malloc.c **** // this functin try to free ptr,if ptr is in the scope of one slab in the slab 
 300:../../source/src/kernel/OS_LIB/malloc.c **** // chain "head",then insert the ptr into corresponding slab and return slab_ptr,
 301:../../source/src/kernel/OS_LIB/malloc.c **** // or if ptr not belongs to any slab in this slab chain, then return NULL means 
 302:../../source/src/kernel/OS_LIB/malloc.c **** // that return ptr fail;
 303:../../source/src/kernel/OS_LIB/malloc.c **** static struct slab *free_find_in_slab_chain(struct list_head *head,void *ptr)
 304:../../source/src/kernel/OS_LIB/malloc.c **** {
 1571              		.loc 3 304 0
 1572              		.cfi_startproc
 1573              		@ args = 0, pretend = 0, frame = 24
 1574              		@ frame_needed = 1, uses_anonymous_args = 0
 1575 06d4 80B5     		push	{r7, lr}
 1576              	.LCFI79:
 1577              		.cfi_def_cfa_offset 8
 1578              		.cfi_offset 7, -8
 1579              		.cfi_offset 14, -4
 1580 06d6 86B0     		sub	sp, sp, #24
 1581              	.LCFI80:
 1582              		.cfi_def_cfa_offset 32
 1583 06d8 00AF     		add	r7, sp, #0
 1584              	.LCFI81:
 1585              		.cfi_def_cfa_register 7
 1586 06da 7860     		str	r0, [r7, #4]
 1587 06dc 3960     		str	r1, [r7]
 305:../../source/src/kernel/OS_LIB/malloc.c **** 	struct list_head *pos;
 306:../../source/src/kernel/OS_LIB/malloc.c **** 	struct slab *slab_ptr;
 307:../../source/src/kernel/OS_LIB/malloc.c **** 	list_for_each(pos, head)
 1588              		.loc 3 307 0
 1589 06de 7B68     		ldr	r3, [r7, #4]
 1590 06e0 1B68     		ldr	r3, [r3]
 1591 06e2 7B61     		str	r3, [r7, #20]
 1592 06e4 3EE0     		b	.L82
ARM GAS  G:\Users\Jaxb\AppData\Local\Temp\ccEJJHY8.s 			page 37


 1593              	.L87:
 1594              	.LBB16:
 308:../../source/src/kernel/OS_LIB/malloc.c **** 	{
 309:../../source/src/kernel/OS_LIB/malloc.c **** 		slab_ptr = list_entry(pos,struct slab,slab_chain);
 1595              		.loc 3 309 0
 1596 06e6 7B69     		ldr	r3, [r7, #20]
 1597 06e8 3B61     		str	r3, [r7, #16]
 1598 06ea 3B69     		ldr	r3, [r7, #16]
 1599 06ec 143B     		subs	r3, r3, #20
 1600              	.LBE16:
 1601 06ee FB60     		str	r3, [r7, #12]
 310:../../source/src/kernel/OS_LIB/malloc.c **** 		if(((int)ptr > (int)slab_ptr->start_ptr) && ((int)ptr < (int)slab_ptr->end_ptr))
 1602              		.loc 3 310 0
 1603 06f0 FB68     		ldr	r3, [r7, #12]
 1604 06f2 1B68     		ldr	r3, [r3]
 1605 06f4 1A46     		mov	r2, r3
 1606 06f6 3B68     		ldr	r3, [r7]
 1607 06f8 9A42     		cmp	r2, r3
 1608 06fa 30DA     		bge	.L83
 1609              		.loc 3 310 0 is_stmt 0 discriminator 1
 1610 06fc FB68     		ldr	r3, [r7, #12]
 1611 06fe 5B68     		ldr	r3, [r3, #4]
 1612 0700 1A46     		mov	r2, r3
 1613 0702 3B68     		ldr	r3, [r7]
 1614 0704 9A42     		cmp	r2, r3
 1615 0706 2ADD     		ble	.L83
 311:../../source/src/kernel/OS_LIB/malloc.c **** 		{
 312:../../source/src/kernel/OS_LIB/malloc.c **** 			ASSERT(0 == (((unsigned int)slab_ptr->end_ptr - (unsigned int)ptr) % (slab_ptr->block_size)));
 1616              		.loc 3 312 0 is_stmt 1
 1617 0708 FB68     		ldr	r3, [r7, #12]
 1618 070a 5B68     		ldr	r3, [r3, #4]
 1619 070c 1A46     		mov	r2, r3
 1620 070e 3B68     		ldr	r3, [r7]
 1621 0710 D31A     		subs	r3, r2, r3
 1622 0712 FA68     		ldr	r2, [r7, #12]
 1623 0714 1269     		ldr	r2, [r2, #16]
 1624 0716 B3FBF2F1 		udiv	r1, r3, r2
 1625 071a 02FB01F2 		mul	r2, r2, r1
 1626 071e 9B1A     		subs	r3, r3, r2
 1627 0720 002B     		cmp	r3, #0
 1628 0722 04D0     		beq	.L84
 1629              		.loc 3 312 0 is_stmt 0 discriminator 1
 1630 0724 4FF49C71 		mov	r1, #312
 1631 0728 1348     		ldr	r0, .L88
 1632 072a FFF7FEFF 		bl	_ASSERT
 1633              	.L84:
 313:../../source/src/kernel/OS_LIB/malloc.c **** 			++(slab_ptr->current_block_num);
 1634              		.loc 3 313 0 is_stmt 1
 1635 072e FB68     		ldr	r3, [r7, #12]
 1636 0730 9B68     		ldr	r3, [r3, #8]
 1637 0732 5A1C     		adds	r2, r3, #1
 1638 0734 FB68     		ldr	r3, [r7, #12]
 1639 0736 9A60     		str	r2, [r3, #8]
 314:../../source/src/kernel/OS_LIB/malloc.c **** 			ASSERT(slab_ptr->current_block_num <= slab_ptr->full_block_num);
 1640              		.loc 3 314 0
 1641 0738 FB68     		ldr	r3, [r7, #12]
 1642 073a 9A68     		ldr	r2, [r3, #8]
ARM GAS  G:\Users\Jaxb\AppData\Local\Temp\ccEJJHY8.s 			page 38


 1643 073c FB68     		ldr	r3, [r7, #12]
 1644 073e DB68     		ldr	r3, [r3, #12]
 1645 0740 9A42     		cmp	r2, r3
 1646 0742 04D9     		bls	.L85
 1647              		.loc 3 314 0 is_stmt 0 discriminator 1
 1648 0744 4FF49D71 		mov	r1, #314
 1649 0748 0B48     		ldr	r0, .L88
 1650 074a FFF7FEFF 		bl	_ASSERT
 1651              	.L85:
 315:../../source/src/kernel/OS_LIB/malloc.c **** 			list_add((struct list_head *)ptr,&slab_ptr->block_head);	
 1652              		.loc 3 315 0 is_stmt 1
 1653 074e FB68     		ldr	r3, [r7, #12]
 1654 0750 1C33     		adds	r3, r3, #28
 1655 0752 1946     		mov	r1, r3
 1656 0754 3868     		ldr	r0, [r7]
 1657 0756 FFF779FC 		bl	list_add
 316:../../source/src/kernel/OS_LIB/malloc.c **** 			return slab_ptr;
 1658              		.loc 3 316 0
 1659 075a FB68     		ldr	r3, [r7, #12]
 1660 075c 07E0     		b	.L86
 1661              	.L83:
 307:../../source/src/kernel/OS_LIB/malloc.c **** 	{
 1662              		.loc 3 307 0 discriminator 2
 1663 075e 7B69     		ldr	r3, [r7, #20]
 1664 0760 1B68     		ldr	r3, [r3]
 1665 0762 7B61     		str	r3, [r7, #20]
 1666              	.L82:
 307:../../source/src/kernel/OS_LIB/malloc.c **** 	{
 1667              		.loc 3 307 0 is_stmt 0 discriminator 1
 1668 0764 7A69     		ldr	r2, [r7, #20]
 1669 0766 7B68     		ldr	r3, [r7, #4]
 1670 0768 9A42     		cmp	r2, r3
 1671 076a BCD1     		bne	.L87
 317:../../source/src/kernel/OS_LIB/malloc.c **** 		}
 318:../../source/src/kernel/OS_LIB/malloc.c **** 	}
 319:../../source/src/kernel/OS_LIB/malloc.c **** 	return NULL;
 1672              		.loc 3 319 0 is_stmt 1
 1673 076c 0023     		movs	r3, #0
 1674              	.L86:
 320:../../source/src/kernel/OS_LIB/malloc.c **** }
 1675              		.loc 3 320 0
 1676 076e 1846     		mov	r0, r3
 1677 0770 1837     		adds	r7, r7, #24
 1678              	.LCFI82:
 1679              		.cfi_def_cfa_offset 8
 1680 0772 BD46     		mov	sp, r7
 1681              	.LCFI83:
 1682              		.cfi_def_cfa_register 13
 1683              		@ sp needed
 1684 0774 80BD     		pop	{r7, pc}
 1685              	.L89:
 1686 0776 00BF     		.align	2
 1687              	.L88:
 1688 0778 2C000000 		.word	.LC3
 1689              		.cfi_endproc
 1690              	.LFE21:
 1691              		.size	free_find_in_slab_chain, .-free_find_in_slab_chain
ARM GAS  G:\Users\Jaxb\AppData\Local\Temp\ccEJJHY8.s 			page 39


 1692              		.align	1
 1693              		.global	in_os_memory
 1694              		.syntax unified
 1695              		.thumb
 1696              		.thumb_func
 1697              		.fpu softvfp
 1698              		.type	in_os_memory, %function
 1699              	in_os_memory:
 1700              	.LFB22:
 321:../../source/src/kernel/OS_LIB/malloc.c **** 
 322:../../source/src/kernel/OS_LIB/malloc.c **** int in_os_memory(void *ptr)
 323:../../source/src/kernel/OS_LIB/malloc.c **** {
 1701              		.loc 3 323 0
 1702              		.cfi_startproc
 1703              		@ args = 0, pretend = 0, frame = 16
 1704              		@ frame_needed = 1, uses_anonymous_args = 0
 1705 077c 80B5     		push	{r7, lr}
 1706              	.LCFI84:
 1707              		.cfi_def_cfa_offset 8
 1708              		.cfi_offset 7, -8
 1709              		.cfi_offset 14, -4
 1710 077e 84B0     		sub	sp, sp, #16
 1711              	.LCFI85:
 1712              		.cfi_def_cfa_offset 24
 1713 0780 00AF     		add	r7, sp, #0
 1714              	.LCFI86:
 1715              		.cfi_def_cfa_register 7
 1716 0782 7860     		str	r0, [r7, #4]
 324:../../source/src/kernel/OS_LIB/malloc.c **** 	struct buddy *buddy_ptr = (struct buddy *)get_os_buddy_ptr_head();
 1717              		.loc 3 324 0
 1718 0784 FFF7FEFF 		bl	get_os_buddy_ptr_head
 1719 0788 F860     		str	r0, [r7, #12]
 325:../../source/src/kernel/OS_LIB/malloc.c **** 	ASSERT(NULL != buddy_ptr);
 1720              		.loc 3 325 0
 1721 078a FB68     		ldr	r3, [r7, #12]
 1722 078c 002B     		cmp	r3, #0
 1723 078e 11D1     		bne	.L92
 1724              		.loc 3 325 0 is_stmt 0 discriminator 1
 1725 0790 40F24511 		movw	r1, #325
 1726 0794 0C48     		ldr	r0, .L96
 1727 0796 FFF7FEFF 		bl	_ASSERT
 326:../../source/src/kernel/OS_LIB/malloc.c **** 	while(NULL != buddy_ptr)
 1728              		.loc 3 326 0 is_stmt 1 discriminator 1
 1729 079a 0BE0     		b	.L92
 1730              	.L95:
 327:../../source/src/kernel/OS_LIB/malloc.c **** 	{
 328:../../source/src/kernel/OS_LIB/malloc.c **** 		if(FUN_EXECUTE_SUCCESSFULLY == in_buddy_range(ptr))
 1731              		.loc 3 328 0
 1732 079c 7868     		ldr	r0, [r7, #4]
 1733 079e FFF7FEFF 		bl	in_buddy_range
 1734 07a2 0346     		mov	r3, r0
 1735 07a4 002B     		cmp	r3, #0
 1736 07a6 01D1     		bne	.L93
 329:../../source/src/kernel/OS_LIB/malloc.c **** 		{
 330:../../source/src/kernel/OS_LIB/malloc.c **** 			return FUN_EXECUTE_SUCCESSFULLY;
 1737              		.loc 3 330 0
 1738 07a8 0023     		movs	r3, #0
ARM GAS  G:\Users\Jaxb\AppData\Local\Temp\ccEJJHY8.s 			page 40


 1739 07aa 08E0     		b	.L94
 1740              	.L93:
 331:../../source/src/kernel/OS_LIB/malloc.c **** 		}
 332:../../source/src/kernel/OS_LIB/malloc.c **** 		buddy_ptr = (struct buddy *)get_next_buddy_ptr_head(buddy_ptr);
 1741              		.loc 3 332 0
 1742 07ac F868     		ldr	r0, [r7, #12]
 1743 07ae FFF7FEFF 		bl	get_next_buddy_ptr_head
 1744 07b2 F860     		str	r0, [r7, #12]
 1745              	.L92:
 326:../../source/src/kernel/OS_LIB/malloc.c **** 	{
 1746              		.loc 3 326 0
 1747 07b4 FB68     		ldr	r3, [r7, #12]
 1748 07b6 002B     		cmp	r3, #0
 1749 07b8 F0D1     		bne	.L95
 333:../../source/src/kernel/OS_LIB/malloc.c **** 	}
 334:../../source/src/kernel/OS_LIB/malloc.c **** 	return -1;
 1750              		.loc 3 334 0
 1751 07ba 4FF0FF33 		mov	r3, #-1
 1752              	.L94:
 335:../../source/src/kernel/OS_LIB/malloc.c **** }
 1753              		.loc 3 335 0
 1754 07be 1846     		mov	r0, r3
 1755 07c0 1037     		adds	r7, r7, #16
 1756              	.LCFI87:
 1757              		.cfi_def_cfa_offset 8
 1758 07c2 BD46     		mov	sp, r7
 1759              	.LCFI88:
 1760              		.cfi_def_cfa_register 13
 1761              		@ sp needed
 1762 07c4 80BD     		pop	{r7, pc}
 1763              	.L97:
 1764 07c6 00BF     		.align	2
 1765              	.L96:
 1766 07c8 2C000000 		.word	.LC3
 1767              		.cfi_endproc
 1768              	.LFE22:
 1769              		.size	in_os_memory, .-in_os_memory
 1770              		.section	.rodata
 1771 00a6 0000     		.align	2
 1772              	.LC7:
 1773 00a8 6E6F7420 		.ascii	"not in a slab or record,fatal error\012\000"
 1773      696E2061 
 1773      20736C61 
 1773      62206F72 
 1773      20726563 
 1774              		.text
 1775              		.align	1
 1776              		.global	ka_free
 1777              		.syntax unified
 1778              		.thumb
 1779              		.thumb_func
 1780              		.fpu softvfp
 1781              		.type	ka_free, %function
 1782              	ka_free:
 1783              	.LFB23:
 336:../../source/src/kernel/OS_LIB/malloc.c **** 
 337:../../source/src/kernel/OS_LIB/malloc.c **** void ka_free(void *ptr)
ARM GAS  G:\Users\Jaxb\AppData\Local\Temp\ccEJJHY8.s 			page 41


 338:../../source/src/kernel/OS_LIB/malloc.c **** {
 1784              		.loc 3 338 0
 1785              		.cfi_startproc
 1786              		@ args = 0, pretend = 0, frame = 40
 1787              		@ frame_needed = 1, uses_anonymous_args = 0
 1788 07cc 80B5     		push	{r7, lr}
 1789              	.LCFI89:
 1790              		.cfi_def_cfa_offset 8
 1791              		.cfi_offset 7, -8
 1792              		.cfi_offset 14, -4
 1793 07ce 8AB0     		sub	sp, sp, #40
 1794              	.LCFI90:
 1795              		.cfi_def_cfa_offset 48
 1796 07d0 00AF     		add	r7, sp, #0
 1797              	.LCFI91:
 1798              		.cfi_def_cfa_register 7
 1799 07d2 7860     		str	r0, [r7, #4]
 339:../../source/src/kernel/OS_LIB/malloc.c **** 	struct list_head *pos;
 340:../../source/src/kernel/OS_LIB/malloc.c **** 	struct kmem_cache *kmem_cache_ptr;
 341:../../source/src/kernel/OS_LIB/malloc.c **** 	IL *IL_ptr;
 342:../../source/src/kernel/OS_LIB/malloc.c **** 	struct slab *slab_ptr;
 343:../../source/src/kernel/OS_LIB/malloc.c **** 	CPU_SR_ALLOC();
 1800              		.loc 3 343 0
 1801 07d4 0023     		movs	r3, #0
 1802 07d6 3B62     		str	r3, [r7, #32]
 344:../../source/src/kernel/OS_LIB/malloc.c **** 	if(FUN_EXECUTE_SUCCESSFULLY != in_os_memory(ptr))
 1803              		.loc 3 344 0
 1804 07d8 7868     		ldr	r0, [r7, #4]
 1805 07da FFF7FEFF 		bl	in_os_memory
 1806 07de 0346     		mov	r3, r0
 1807 07e0 002B     		cmp	r3, #0
 1808 07e2 76D1     		bne	.L107
 345:../../source/src/kernel/OS_LIB/malloc.c **** 	{
 346:../../source/src/kernel/OS_LIB/malloc.c **** 		return ;
 347:../../source/src/kernel/OS_LIB/malloc.c **** 	}
 348:../../source/src/kernel/OS_LIB/malloc.c **** 	CPU_CRITICAL_ENTER();
 1809              		.loc 3 348 0
 1810 07e4 FFF7FEFF 		bl	CPU_SR_Save
 1811 07e8 3862     		str	r0, [r7, #32]
 349:../../source/src/kernel/OS_LIB/malloc.c **** 	list_for_each(pos, &cache_chain_head)
 1812              		.loc 3 349 0
 1813 07ea 3C4B     		ldr	r3, .L108
 1814 07ec 1B68     		ldr	r3, [r3]
 1815 07ee 7B62     		str	r3, [r7, #36]
 1816 07f0 58E0     		b	.L101
 1817              	.L105:
 1818              	.LBB17:
 350:../../source/src/kernel/OS_LIB/malloc.c **** 	{
 351:../../source/src/kernel/OS_LIB/malloc.c **** 		IL_ptr = list_entry(pos,IL,insert);
 1819              		.loc 3 351 0
 1820 07f2 7B6A     		ldr	r3, [r7, #36]
 1821 07f4 FB61     		str	r3, [r7, #28]
 1822 07f6 FB69     		ldr	r3, [r7, #28]
 1823              	.LBE17:
 1824 07f8 BB61     		str	r3, [r7, #24]
 1825              	.LBB18:
 352:../../source/src/kernel/OS_LIB/malloc.c **** 		kmem_cache_ptr =  list_entry(IL_ptr,struct kmem_cache,kmem_cache_insert_chain);
ARM GAS  G:\Users\Jaxb\AppData\Local\Temp\ccEJJHY8.s 			page 42


 1826              		.loc 3 352 0
 1827 07fa BB69     		ldr	r3, [r7, #24]
 1828 07fc 7B61     		str	r3, [r7, #20]
 1829 07fe 7B69     		ldr	r3, [r7, #20]
 1830              	.LBE18:
 1831 0800 3B61     		str	r3, [r7, #16]
 353:../../source/src/kernel/OS_LIB/malloc.c **** 		if(!list_empty(&kmem_cache_ptr->slabs_partial))
 1832              		.loc 3 353 0
 1833 0802 3B69     		ldr	r3, [r7, #16]
 1834 0804 1433     		adds	r3, r3, #20
 1835 0806 1846     		mov	r0, r3
 1836 0808 FFF750FC 		bl	list_empty
 1837 080c 0346     		mov	r3, r0
 1838 080e 002B     		cmp	r3, #0
 1839 0810 21D1     		bne	.L102
 354:../../source/src/kernel/OS_LIB/malloc.c **** 		{
 355:../../source/src/kernel/OS_LIB/malloc.c **** 			slab_ptr = free_find_in_slab_chain(&kmem_cache_ptr->slabs_partial,ptr);
 1840              		.loc 3 355 0
 1841 0812 3B69     		ldr	r3, [r7, #16]
 1842 0814 1433     		adds	r3, r3, #20
 1843 0816 7968     		ldr	r1, [r7, #4]
 1844 0818 1846     		mov	r0, r3
 1845 081a FFF75BFF 		bl	free_find_in_slab_chain
 1846 081e F860     		str	r0, [r7, #12]
 356:../../source/src/kernel/OS_LIB/malloc.c **** 			if(NULL != slab_ptr) // free success
 1847              		.loc 3 356 0
 1848 0820 FB68     		ldr	r3, [r7, #12]
 1849 0822 002B     		cmp	r3, #0
 1850 0824 17D0     		beq	.L102
 357:../../source/src/kernel/OS_LIB/malloc.c **** 			{
 358:../../source/src/kernel/OS_LIB/malloc.c **** 				if(slab_ptr->current_block_num == slab_ptr->full_block_num)
 1851              		.loc 3 358 0
 1852 0826 FB68     		ldr	r3, [r7, #12]
 1853 0828 9A68     		ldr	r2, [r3, #8]
 1854 082a FB68     		ldr	r3, [r7, #12]
 1855 082c DB68     		ldr	r3, [r3, #12]
 1856 082e 9A42     		cmp	r2, r3
 1857 0830 0DD1     		bne	.L103
 359:../../source/src/kernel/OS_LIB/malloc.c **** 				{
 360:../../source/src/kernel/OS_LIB/malloc.c **** 					list_del(&slab_ptr->slab_chain);
 1858              		.loc 3 360 0
 1859 0832 FB68     		ldr	r3, [r7, #12]
 1860 0834 1433     		adds	r3, r3, #20
 1861 0836 1846     		mov	r0, r3
 1862 0838 FFF728FC 		bl	list_del
 361:../../source/src/kernel/OS_LIB/malloc.c **** 					list_add(&slab_ptr->slab_chain,&kmem_cache_ptr->slabs_empty);
 1863              		.loc 3 361 0
 1864 083c FB68     		ldr	r3, [r7, #12]
 1865 083e 03F11402 		add	r2, r3, #20
 1866 0842 3B69     		ldr	r3, [r7, #16]
 1867 0844 1C33     		adds	r3, r3, #28
 1868 0846 1946     		mov	r1, r3
 1869 0848 1046     		mov	r0, r2
 1870 084a FFF7FFFB 		bl	list_add
 1871              	.L103:
 362:../../source/src/kernel/OS_LIB/malloc.c **** 				}
 363:../../source/src/kernel/OS_LIB/malloc.c **** 				CPU_CRITICAL_EXIT();
ARM GAS  G:\Users\Jaxb\AppData\Local\Temp\ccEJJHY8.s 			page 43


 1872              		.loc 3 363 0
 1873 084e 386A     		ldr	r0, [r7, #32]
 1874 0850 FFF7FEFF 		bl	CPU_SR_Restore
 364:../../source/src/kernel/OS_LIB/malloc.c **** 				return ;
 1875              		.loc 3 364 0
 1876 0854 3EE0     		b	.L98
 1877              	.L102:
 365:../../source/src/kernel/OS_LIB/malloc.c **** 			}
 366:../../source/src/kernel/OS_LIB/malloc.c **** 		}
 367:../../source/src/kernel/OS_LIB/malloc.c **** 		if(!list_empty(&kmem_cache_ptr->slabs_full))
 1878              		.loc 3 367 0
 1879 0856 3B69     		ldr	r3, [r7, #16]
 1880 0858 0C33     		adds	r3, r3, #12
 1881 085a 1846     		mov	r0, r3
 1882 085c FFF726FC 		bl	list_empty
 1883 0860 0346     		mov	r3, r0
 1884 0862 002B     		cmp	r3, #0
 1885 0864 1BD1     		bne	.L104
 368:../../source/src/kernel/OS_LIB/malloc.c **** 		{
 369:../../source/src/kernel/OS_LIB/malloc.c **** 			slab_ptr = free_find_in_slab_chain(&kmem_cache_ptr->slabs_full,ptr);
 1886              		.loc 3 369 0
 1887 0866 3B69     		ldr	r3, [r7, #16]
 1888 0868 0C33     		adds	r3, r3, #12
 1889 086a 7968     		ldr	r1, [r7, #4]
 1890 086c 1846     		mov	r0, r3
 1891 086e FFF731FF 		bl	free_find_in_slab_chain
 1892 0872 F860     		str	r0, [r7, #12]
 370:../../source/src/kernel/OS_LIB/malloc.c **** 			if(NULL != slab_ptr) // free success
 1893              		.loc 3 370 0
 1894 0874 FB68     		ldr	r3, [r7, #12]
 1895 0876 002B     		cmp	r3, #0
 1896 0878 11D0     		beq	.L104
 371:../../source/src/kernel/OS_LIB/malloc.c **** 			{
 372:../../source/src/kernel/OS_LIB/malloc.c **** 				list_del(&slab_ptr->slab_chain);
 1897              		.loc 3 372 0
 1898 087a FB68     		ldr	r3, [r7, #12]
 1899 087c 1433     		adds	r3, r3, #20
 1900 087e 1846     		mov	r0, r3
 1901 0880 FFF704FC 		bl	list_del
 373:../../source/src/kernel/OS_LIB/malloc.c **** 				list_add(&slab_ptr->slab_chain,&kmem_cache_ptr->slabs_partial);
 1902              		.loc 3 373 0
 1903 0884 FB68     		ldr	r3, [r7, #12]
 1904 0886 03F11402 		add	r2, r3, #20
 1905 088a 3B69     		ldr	r3, [r7, #16]
 1906 088c 1433     		adds	r3, r3, #20
 1907 088e 1946     		mov	r1, r3
 1908 0890 1046     		mov	r0, r2
 1909 0892 FFF7DBFB 		bl	list_add
 374:../../source/src/kernel/OS_LIB/malloc.c **** 				CPU_CRITICAL_EXIT();
 1910              		.loc 3 374 0
 1911 0896 386A     		ldr	r0, [r7, #32]
 1912 0898 FFF7FEFF 		bl	CPU_SR_Restore
 375:../../source/src/kernel/OS_LIB/malloc.c **** 				return ;
 1913              		.loc 3 375 0
 1914 089c 1AE0     		b	.L98
 1915              	.L104:
 349:../../source/src/kernel/OS_LIB/malloc.c **** 	{
ARM GAS  G:\Users\Jaxb\AppData\Local\Temp\ccEJJHY8.s 			page 44


 1916              		.loc 3 349 0 discriminator 2
 1917 089e 7B6A     		ldr	r3, [r7, #36]
 1918 08a0 1B68     		ldr	r3, [r3]
 1919 08a2 7B62     		str	r3, [r7, #36]
 1920              	.L101:
 349:../../source/src/kernel/OS_LIB/malloc.c **** 	{
 1921              		.loc 3 349 0 is_stmt 0 discriminator 1
 1922 08a4 7B6A     		ldr	r3, [r7, #36]
 1923 08a6 0D4A     		ldr	r2, .L108
 1924 08a8 9342     		cmp	r3, r2
 1925 08aa A2D1     		bne	.L105
 376:../../source/src/kernel/OS_LIB/malloc.c **** 			}
 377:../../source/src/kernel/OS_LIB/malloc.c **** 		}
 378:../../source/src/kernel/OS_LIB/malloc.c **** 	}
 379:../../source/src/kernel/OS_LIB/malloc.c **** 	if(FUN_EXECUTE_SUCCESSFULLY == find_and_remove_record(ptr))
 1926              		.loc 3 379 0 is_stmt 1
 1927 08ac 7868     		ldr	r0, [r7, #4]
 1928 08ae FFF781FC 		bl	find_and_remove_record
 1929 08b2 0346     		mov	r3, r0
 1930 08b4 002B     		cmp	r3, #0
 1931 08b6 03D1     		bne	.L106
 380:../../source/src/kernel/OS_LIB/malloc.c **** 	{
 381:../../source/src/kernel/OS_LIB/malloc.c **** 		CPU_CRITICAL_EXIT();
 1932              		.loc 3 381 0
 1933 08b8 386A     		ldr	r0, [r7, #32]
 1934 08ba FFF7FEFF 		bl	CPU_SR_Restore
 382:../../source/src/kernel/OS_LIB/malloc.c **** 		return;
 1935              		.loc 3 382 0
 1936 08be 09E0     		b	.L98
 1937              	.L106:
 383:../../source/src/kernel/OS_LIB/malloc.c **** 	}
 384:../../source/src/kernel/OS_LIB/malloc.c **** 	ka_printf("not in a slab or record,fatal error\n");
 1938              		.loc 3 384 0
 1939 08c0 0748     		ldr	r0, .L108+4
 1940 08c2 FFF7FEFF 		bl	ka_printf
 385:../../source/src/kernel/OS_LIB/malloc.c **** 	ASSERT(0);//should not go here
 1941              		.loc 3 385 0
 1942 08c6 40F28111 		movw	r1, #385
 1943 08ca 0648     		ldr	r0, .L108+8
 1944 08cc FFF7FEFF 		bl	_ASSERT
 1945 08d0 00E0     		b	.L98
 1946              	.L107:
 346:../../source/src/kernel/OS_LIB/malloc.c **** 	}
 1947              		.loc 3 346 0
 1948 08d2 00BF     		nop
 1949              	.L98:
 386:../../source/src/kernel/OS_LIB/malloc.c **** }
 1950              		.loc 3 386 0
 1951 08d4 2837     		adds	r7, r7, #40
 1952              	.LCFI92:
 1953              		.cfi_def_cfa_offset 8
 1954 08d6 BD46     		mov	sp, r7
 1955              	.LCFI93:
 1956              		.cfi_def_cfa_register 13
 1957              		@ sp needed
 1958 08d8 80BD     		pop	{r7, pc}
 1959              	.L109:
ARM GAS  G:\Users\Jaxb\AppData\Local\Temp\ccEJJHY8.s 			page 45


 1960 08da 00BF     		.align	2
 1961              	.L108:
 1962 08dc 00000000 		.word	cache_chain_head
 1963 08e0 A8000000 		.word	.LC7
 1964 08e4 2C000000 		.word	.LC3
 1965              		.cfi_endproc
 1966              	.LFE23:
 1967              		.size	ka_free, .-ka_free
 1968              		.section	.rodata
 1969 00cd 000000   		.align	2
 1970              	.LC8:
 1971 00d0 3D3D3D3D 		.ascii	"===========get NO.%d kmem===========\012\000"
 1971      3D3D3D3D 
 1971      3D3D3D67 
 1971      6574204E 
 1971      4F2E2564 
 1972 00f6 0000     		.align	2
 1973              	.LC9:
 1974 00f8 74686520 		.ascii	"the size of this kmem_cache is %u\012\000"
 1974      73697A65 
 1974      206F6620 
 1974      74686973 
 1974      206B6D65 
 1975 011b 00       		.align	2
 1976              	.LC10:
 1977 011c 63686169 		.ascii	"chain slabs_full has %d slab\012\000"
 1977      6E20736C 
 1977      6162735F 
 1977      66756C6C 
 1977      20686173 
 1978 013a 0000     		.align	2
 1979              	.LC11:
 1980 013c 63686169 		.ascii	"chain slabs_full is empty\012\000"
 1980      6E20736C 
 1980      6162735F 
 1980      66756C6C 
 1980      20697320 
 1981 0157 00       		.align	2
 1982              	.LC12:
 1983 0158 63686169 		.ascii	"chain slabs_partial has %d slab\012\000"
 1983      6E20736C 
 1983      6162735F 
 1983      70617274 
 1983      69616C20 
 1984 0179 000000   		.align	2
 1985              	.LC13:
 1986 017c 63686169 		.ascii	"chain slabs_partial is empty\012\000"
 1986      6E20736C 
 1986      6162735F 
 1986      70617274 
 1986      69616C20 
 1987 019a 0000     		.align	2
 1988              	.LC14:
 1989 019c 63686169 		.ascii	"chain slabs_empty has %d slab\012\000"
 1989      6E20736C 
 1989      6162735F 
 1989      656D7074 
ARM GAS  G:\Users\Jaxb\AppData\Local\Temp\ccEJJHY8.s 			page 46


 1989      79206861 
 1990 01bb 00       		.align	2
 1991              	.LC15:
 1992 01bc 63686169 		.ascii	"chain slabs_empty is empty\012\000"
 1992      6E20736C 
 1992      6162735F 
 1992      656D7074 
 1992      79206973 
 1993              		.align	2
 1994              	.LC16:
 1995 01d8 0A00     		.ascii	"\012\000"
 1996              		.text
 1997              		.align	1
 1998              		.global	shell_check_kmem
 1999              		.syntax unified
 2000              		.thumb
 2001              		.thumb_func
 2002              		.fpu softvfp
 2003              		.type	shell_check_kmem, %function
 2004              	shell_check_kmem:
 2005              	.LFB24:
 387:../../source/src/kernel/OS_LIB/malloc.c **** 
 388:../../source/src/kernel/OS_LIB/malloc.c **** #if CONFIG_SHELL_EN
 389:../../source/src/kernel/OS_LIB/malloc.c **** void shell_check_kmem(int argc, char const *argv[])
 390:../../source/src/kernel/OS_LIB/malloc.c **** {
 2006              		.loc 3 390 0
 2007              		.cfi_startproc
 2008              		@ args = 0, pretend = 0, frame = 64
 2009              		@ frame_needed = 1, uses_anonymous_args = 0
 2010 08e8 80B5     		push	{r7, lr}
 2011              	.LCFI94:
 2012              		.cfi_def_cfa_offset 8
 2013              		.cfi_offset 7, -8
 2014              		.cfi_offset 14, -4
 2015 08ea 90B0     		sub	sp, sp, #64
 2016              	.LCFI95:
 2017              		.cfi_def_cfa_offset 72
 2018 08ec 00AF     		add	r7, sp, #0
 2019              	.LCFI96:
 2020              		.cfi_def_cfa_register 7
 2021 08ee 7860     		str	r0, [r7, #4]
 2022 08f0 3960     		str	r1, [r7]
 391:../../source/src/kernel/OS_LIB/malloc.c **** 	(void)argc;
 392:../../source/src/kernel/OS_LIB/malloc.c **** 	(void)argv;
 393:../../source/src/kernel/OS_LIB/malloc.c **** 	struct list_head *pos;
 394:../../source/src/kernel/OS_LIB/malloc.c **** 	IL *IL_ptr;
 395:../../source/src/kernel/OS_LIB/malloc.c **** 	struct kmem_cache *kmem_cache_ptr;
 396:../../source/src/kernel/OS_LIB/malloc.c **** 	int i = 0;
 2023              		.loc 3 396 0
 2024 08f2 0023     		movs	r3, #0
 2025 08f4 BB63     		str	r3, [r7, #56]
 397:../../source/src/kernel/OS_LIB/malloc.c **** 	CPU_SR_ALLOC();
 2026              		.loc 3 397 0
 2027 08f6 0023     		movs	r3, #0
 2028 08f8 FB61     		str	r3, [r7, #28]
 398:../../source/src/kernel/OS_LIB/malloc.c **** 	CPU_CRITICAL_ENTER();
 2029              		.loc 3 398 0
ARM GAS  G:\Users\Jaxb\AppData\Local\Temp\ccEJJHY8.s 			page 47


 2030 08fa FFF7FEFF 		bl	CPU_SR_Save
 2031 08fe F861     		str	r0, [r7, #28]
 399:../../source/src/kernel/OS_LIB/malloc.c **** 	list_for_each(pos,&cache_chain_head)
 2032              		.loc 3 399 0
 2033 0900 464B     		ldr	r3, .L125
 2034 0902 1B68     		ldr	r3, [r3]
 2035 0904 FB63     		str	r3, [r7, #60]
 2036 0906 7DE0     		b	.L111
 2037              	.L124:
 400:../../source/src/kernel/OS_LIB/malloc.c **** 	{
 401:../../source/src/kernel/OS_LIB/malloc.c **** 		ka_printf("===========get NO.%d kmem===========\n",++i);
 2038              		.loc 3 401 0
 2039 0908 BB6B     		ldr	r3, [r7, #56]
 2040 090a 0133     		adds	r3, r3, #1
 2041 090c BB63     		str	r3, [r7, #56]
 2042 090e B96B     		ldr	r1, [r7, #56]
 2043 0910 4348     		ldr	r0, .L125+4
 2044 0912 FFF7FEFF 		bl	ka_printf
 2045              	.LBB19:
 402:../../source/src/kernel/OS_LIB/malloc.c **** 		IL_ptr = list_entry(pos,IL,insert);
 2046              		.loc 3 402 0
 2047 0916 FB6B     		ldr	r3, [r7, #60]
 2048 0918 BB61     		str	r3, [r7, #24]
 2049 091a BB69     		ldr	r3, [r7, #24]
 2050              	.LBE19:
 2051 091c 7B61     		str	r3, [r7, #20]
 403:../../source/src/kernel/OS_LIB/malloc.c **** 		ka_printf("the size of this kmem_cache is %u\n",IL_ptr->prio);
 2052              		.loc 3 403 0
 2053 091e 7B69     		ldr	r3, [r7, #20]
 2054 0920 9B68     		ldr	r3, [r3, #8]
 2055 0922 1946     		mov	r1, r3
 2056 0924 3F48     		ldr	r0, .L125+8
 2057 0926 FFF7FEFF 		bl	ka_printf
 2058              	.LBB20:
 404:../../source/src/kernel/OS_LIB/malloc.c **** 		kmem_cache_ptr = list_entry(IL_ptr,struct kmem_cache,kmem_cache_insert_chain);
 2059              		.loc 3 404 0
 2060 092a 7B69     		ldr	r3, [r7, #20]
 2061 092c 3B61     		str	r3, [r7, #16]
 2062 092e 3B69     		ldr	r3, [r7, #16]
 2063              	.LBE20:
 2064 0930 FB60     		str	r3, [r7, #12]
 405:../../source/src/kernel/OS_LIB/malloc.c **** 		if(!list_empty(&kmem_cache_ptr->slabs_full))
 2065              		.loc 3 405 0
 2066 0932 FB68     		ldr	r3, [r7, #12]
 2067 0934 0C33     		adds	r3, r3, #12
 2068 0936 1846     		mov	r0, r3
 2069 0938 FFF7B8FB 		bl	list_empty
 2070 093c 0346     		mov	r3, r0
 2071 093e 002B     		cmp	r3, #0
 2072 0940 15D1     		bne	.L112
 2073              	.LBB21:
 406:../../source/src/kernel/OS_LIB/malloc.c **** 		{
 407:../../source/src/kernel/OS_LIB/malloc.c **** 			struct list_head *buffer;
 408:../../source/src/kernel/OS_LIB/malloc.c **** 			int num = 0;
 2074              		.loc 3 408 0
 2075 0942 0023     		movs	r3, #0
 2076 0944 3B63     		str	r3, [r7, #48]
ARM GAS  G:\Users\Jaxb\AppData\Local\Temp\ccEJJHY8.s 			page 48


 409:../../source/src/kernel/OS_LIB/malloc.c **** 			list_for_each(buffer,&kmem_cache_ptr->slabs_full)
 2077              		.loc 3 409 0
 2078 0946 FB68     		ldr	r3, [r7, #12]
 2079 0948 DB68     		ldr	r3, [r3, #12]
 2080 094a 7B63     		str	r3, [r7, #52]
 2081 094c 05E0     		b	.L113
 2082              	.L114:
 410:../../source/src/kernel/OS_LIB/malloc.c **** 			{
 411:../../source/src/kernel/OS_LIB/malloc.c **** 				++num;
 2083              		.loc 3 411 0 discriminator 3
 2084 094e 3B6B     		ldr	r3, [r7, #48]
 2085 0950 0133     		adds	r3, r3, #1
 2086 0952 3B63     		str	r3, [r7, #48]
 409:../../source/src/kernel/OS_LIB/malloc.c **** 			list_for_each(buffer,&kmem_cache_ptr->slabs_full)
 2087              		.loc 3 409 0 discriminator 3
 2088 0954 7B6B     		ldr	r3, [r7, #52]
 2089 0956 1B68     		ldr	r3, [r3]
 2090 0958 7B63     		str	r3, [r7, #52]
 2091              	.L113:
 409:../../source/src/kernel/OS_LIB/malloc.c **** 			list_for_each(buffer,&kmem_cache_ptr->slabs_full)
 2092              		.loc 3 409 0 is_stmt 0 discriminator 1
 2093 095a FB68     		ldr	r3, [r7, #12]
 2094 095c 0C33     		adds	r3, r3, #12
 2095 095e 7A6B     		ldr	r2, [r7, #52]
 2096 0960 9A42     		cmp	r2, r3
 2097 0962 F4D1     		bne	.L114
 412:../../source/src/kernel/OS_LIB/malloc.c **** 			}
 413:../../source/src/kernel/OS_LIB/malloc.c **** 			ka_printf("chain slabs_full has %d slab\n",num);
 2098              		.loc 3 413 0 is_stmt 1
 2099 0964 396B     		ldr	r1, [r7, #48]
 2100 0966 3048     		ldr	r0, .L125+12
 2101 0968 FFF7FEFF 		bl	ka_printf
 2102              	.LBE21:
 2103 096c 02E0     		b	.L115
 2104              	.L112:
 414:../../source/src/kernel/OS_LIB/malloc.c **** 		}
 415:../../source/src/kernel/OS_LIB/malloc.c **** 		else
 416:../../source/src/kernel/OS_LIB/malloc.c **** 		{
 417:../../source/src/kernel/OS_LIB/malloc.c **** 			ka_printf("chain slabs_full is empty\n");
 2105              		.loc 3 417 0
 2106 096e 2F48     		ldr	r0, .L125+16
 2107 0970 FFF7FEFF 		bl	ka_printf
 2108              	.L115:
 418:../../source/src/kernel/OS_LIB/malloc.c **** 		}
 419:../../source/src/kernel/OS_LIB/malloc.c **** 		if(!list_empty(&kmem_cache_ptr->slabs_partial))
 2109              		.loc 3 419 0
 2110 0974 FB68     		ldr	r3, [r7, #12]
 2111 0976 1433     		adds	r3, r3, #20
 2112 0978 1846     		mov	r0, r3
 2113 097a FFF797FB 		bl	list_empty
 2114 097e 0346     		mov	r3, r0
 2115 0980 002B     		cmp	r3, #0
 2116 0982 15D1     		bne	.L116
 2117              	.LBB22:
 420:../../source/src/kernel/OS_LIB/malloc.c **** 		{
 421:../../source/src/kernel/OS_LIB/malloc.c **** 			struct list_head *buffer;
 422:../../source/src/kernel/OS_LIB/malloc.c **** 			int num = 0;
ARM GAS  G:\Users\Jaxb\AppData\Local\Temp\ccEJJHY8.s 			page 49


 2118              		.loc 3 422 0
 2119 0984 0023     		movs	r3, #0
 2120 0986 BB62     		str	r3, [r7, #40]
 423:../../source/src/kernel/OS_LIB/malloc.c **** 			list_for_each(buffer,&kmem_cache_ptr->slabs_partial)
 2121              		.loc 3 423 0
 2122 0988 FB68     		ldr	r3, [r7, #12]
 2123 098a 5B69     		ldr	r3, [r3, #20]
 2124 098c FB62     		str	r3, [r7, #44]
 2125 098e 05E0     		b	.L117
 2126              	.L118:
 424:../../source/src/kernel/OS_LIB/malloc.c **** 			{
 425:../../source/src/kernel/OS_LIB/malloc.c **** 				++num;
 2127              		.loc 3 425 0 discriminator 3
 2128 0990 BB6A     		ldr	r3, [r7, #40]
 2129 0992 0133     		adds	r3, r3, #1
 2130 0994 BB62     		str	r3, [r7, #40]
 423:../../source/src/kernel/OS_LIB/malloc.c **** 			list_for_each(buffer,&kmem_cache_ptr->slabs_partial)
 2131              		.loc 3 423 0 discriminator 3
 2132 0996 FB6A     		ldr	r3, [r7, #44]
 2133 0998 1B68     		ldr	r3, [r3]
 2134 099a FB62     		str	r3, [r7, #44]
 2135              	.L117:
 423:../../source/src/kernel/OS_LIB/malloc.c **** 			list_for_each(buffer,&kmem_cache_ptr->slabs_partial)
 2136              		.loc 3 423 0 is_stmt 0 discriminator 1
 2137 099c FB68     		ldr	r3, [r7, #12]
 2138 099e 1433     		adds	r3, r3, #20
 2139 09a0 FA6A     		ldr	r2, [r7, #44]
 2140 09a2 9A42     		cmp	r2, r3
 2141 09a4 F4D1     		bne	.L118
 426:../../source/src/kernel/OS_LIB/malloc.c **** 			}
 427:../../source/src/kernel/OS_LIB/malloc.c **** 			ka_printf("chain slabs_partial has %d slab\n",num);
 2142              		.loc 3 427 0 is_stmt 1
 2143 09a6 B96A     		ldr	r1, [r7, #40]
 2144 09a8 2148     		ldr	r0, .L125+20
 2145 09aa FFF7FEFF 		bl	ka_printf
 2146              	.LBE22:
 2147 09ae 02E0     		b	.L119
 2148              	.L116:
 428:../../source/src/kernel/OS_LIB/malloc.c **** 		}
 429:../../source/src/kernel/OS_LIB/malloc.c **** 		else
 430:../../source/src/kernel/OS_LIB/malloc.c **** 		{
 431:../../source/src/kernel/OS_LIB/malloc.c **** 			ka_printf("chain slabs_partial is empty\n");
 2149              		.loc 3 431 0
 2150 09b0 2048     		ldr	r0, .L125+24
 2151 09b2 FFF7FEFF 		bl	ka_printf
 2152              	.L119:
 432:../../source/src/kernel/OS_LIB/malloc.c **** 		}
 433:../../source/src/kernel/OS_LIB/malloc.c **** 		if(!list_empty(&kmem_cache_ptr->slabs_empty))
 2153              		.loc 3 433 0
 2154 09b6 FB68     		ldr	r3, [r7, #12]
 2155 09b8 1C33     		adds	r3, r3, #28
 2156 09ba 1846     		mov	r0, r3
 2157 09bc FFF776FB 		bl	list_empty
 2158 09c0 0346     		mov	r3, r0
 2159 09c2 002B     		cmp	r3, #0
 2160 09c4 15D1     		bne	.L120
 2161              	.LBB23:
ARM GAS  G:\Users\Jaxb\AppData\Local\Temp\ccEJJHY8.s 			page 50


 434:../../source/src/kernel/OS_LIB/malloc.c **** 		{
 435:../../source/src/kernel/OS_LIB/malloc.c **** 			struct list_head *buffer;
 436:../../source/src/kernel/OS_LIB/malloc.c **** 			int num = 0;
 2162              		.loc 3 436 0
 2163 09c6 0023     		movs	r3, #0
 2164 09c8 3B62     		str	r3, [r7, #32]
 437:../../source/src/kernel/OS_LIB/malloc.c **** 			list_for_each(buffer,&kmem_cache_ptr->slabs_empty)
 2165              		.loc 3 437 0
 2166 09ca FB68     		ldr	r3, [r7, #12]
 2167 09cc DB69     		ldr	r3, [r3, #28]
 2168 09ce 7B62     		str	r3, [r7, #36]
 2169 09d0 05E0     		b	.L121
 2170              	.L122:
 438:../../source/src/kernel/OS_LIB/malloc.c **** 			{
 439:../../source/src/kernel/OS_LIB/malloc.c **** 				++num;
 2171              		.loc 3 439 0 discriminator 3
 2172 09d2 3B6A     		ldr	r3, [r7, #32]
 2173 09d4 0133     		adds	r3, r3, #1
 2174 09d6 3B62     		str	r3, [r7, #32]
 437:../../source/src/kernel/OS_LIB/malloc.c **** 			list_for_each(buffer,&kmem_cache_ptr->slabs_empty)
 2175              		.loc 3 437 0 discriminator 3
 2176 09d8 7B6A     		ldr	r3, [r7, #36]
 2177 09da 1B68     		ldr	r3, [r3]
 2178 09dc 7B62     		str	r3, [r7, #36]
 2179              	.L121:
 437:../../source/src/kernel/OS_LIB/malloc.c **** 			list_for_each(buffer,&kmem_cache_ptr->slabs_empty)
 2180              		.loc 3 437 0 is_stmt 0 discriminator 1
 2181 09de FB68     		ldr	r3, [r7, #12]
 2182 09e0 1C33     		adds	r3, r3, #28
 2183 09e2 7A6A     		ldr	r2, [r7, #36]
 2184 09e4 9A42     		cmp	r2, r3
 2185 09e6 F4D1     		bne	.L122
 440:../../source/src/kernel/OS_LIB/malloc.c **** 			}
 441:../../source/src/kernel/OS_LIB/malloc.c **** 			ka_printf("chain slabs_empty has %d slab\n",num);
 2186              		.loc 3 441 0 is_stmt 1
 2187 09e8 396A     		ldr	r1, [r7, #32]
 2188 09ea 1348     		ldr	r0, .L125+28
 2189 09ec FFF7FEFF 		bl	ka_printf
 2190              	.LBE23:
 2191 09f0 02E0     		b	.L123
 2192              	.L120:
 442:../../source/src/kernel/OS_LIB/malloc.c **** 		}
 443:../../source/src/kernel/OS_LIB/malloc.c **** 		else
 444:../../source/src/kernel/OS_LIB/malloc.c **** 		{
 445:../../source/src/kernel/OS_LIB/malloc.c **** 			ka_printf("chain slabs_empty is empty\n");
 2193              		.loc 3 445 0
 2194 09f2 1248     		ldr	r0, .L125+32
 2195 09f4 FFF7FEFF 		bl	ka_printf
 2196              	.L123:
 446:../../source/src/kernel/OS_LIB/malloc.c **** 		}
 447:../../source/src/kernel/OS_LIB/malloc.c **** 		ka_printf("\n");
 2197              		.loc 3 447 0 discriminator 2
 2198 09f8 1148     		ldr	r0, .L125+36
 2199 09fa FFF7FEFF 		bl	ka_printf
 399:../../source/src/kernel/OS_LIB/malloc.c **** 	{
 2200              		.loc 3 399 0 discriminator 2
 2201 09fe FB6B     		ldr	r3, [r7, #60]
ARM GAS  G:\Users\Jaxb\AppData\Local\Temp\ccEJJHY8.s 			page 51


 2202 0a00 1B68     		ldr	r3, [r3]
 2203 0a02 FB63     		str	r3, [r7, #60]
 2204              	.L111:
 399:../../source/src/kernel/OS_LIB/malloc.c **** 	{
 2205              		.loc 3 399 0 is_stmt 0 discriminator 1
 2206 0a04 FB6B     		ldr	r3, [r7, #60]
 2207 0a06 054A     		ldr	r2, .L125
 2208 0a08 9342     		cmp	r3, r2
 2209 0a0a 7FF47DAF 		bne	.L124
 448:../../source/src/kernel/OS_LIB/malloc.c **** 	}
 449:../../source/src/kernel/OS_LIB/malloc.c **** 	CPU_CRITICAL_EXIT();
 2210              		.loc 3 449 0 is_stmt 1
 2211 0a0e F869     		ldr	r0, [r7, #28]
 2212 0a10 FFF7FEFF 		bl	CPU_SR_Restore
 450:../../source/src/kernel/OS_LIB/malloc.c **** }
 2213              		.loc 3 450 0
 2214 0a14 00BF     		nop
 2215 0a16 4037     		adds	r7, r7, #64
 2216              	.LCFI97:
 2217              		.cfi_def_cfa_offset 8
 2218 0a18 BD46     		mov	sp, r7
 2219              	.LCFI98:
 2220              		.cfi_def_cfa_register 13
 2221              		@ sp needed
 2222 0a1a 80BD     		pop	{r7, pc}
 2223              	.L126:
 2224              		.align	2
 2225              	.L125:
 2226 0a1c 00000000 		.word	cache_chain_head
 2227 0a20 D0000000 		.word	.LC8
 2228 0a24 F8000000 		.word	.LC9
 2229 0a28 1C010000 		.word	.LC10
 2230 0a2c 3C010000 		.word	.LC11
 2231 0a30 58010000 		.word	.LC12
 2232 0a34 7C010000 		.word	.LC13
 2233 0a38 9C010000 		.word	.LC14
 2234 0a3c BC010000 		.word	.LC15
 2235 0a40 D8010000 		.word	.LC16
 2236              		.cfi_endproc
 2237              	.LFE24:
 2238              		.size	shell_check_kmem, .-shell_check_kmem
 2239              		.section	.rodata
 2240 01da 0000     		.align	2
 2241              	.LC17:
 2242 01dc 74686520 		.ascii	"the size of this kmem_cache is %l\012\000"
 2242      73697A65 
 2242      206F6620 
 2242      74686973 
 2242      206B6D65 
 2243 01ff 00       		.align	2
 2244              	.LC18:
 2245 0200 696E2063 		.ascii	"in chain slabs_full\012\000"
 2245      6861696E 
 2245      20736C61 
 2245      62735F66 
 2245      756C6C0A 
 2246 0215 000000   		.align	2
ARM GAS  G:\Users\Jaxb\AppData\Local\Temp\ccEJJHY8.s 			page 52


 2247              	.LC19:
 2248 0218 74686520 		.ascii	"the NO.%d slab information:\012\000"
 2248      4E4F2E25 
 2248      6420736C 
 2248      61622069 
 2248      6E666F72 
 2249 0235 000000   		.align	2
 2250              	.LC20:
 2251 0238 73746172 		.ascii	"start_ptr is %x\012\000"
 2251      745F7074 
 2251      72206973 
 2251      2025780A 
 2251      00
 2252 0249 000000   		.align	2
 2253              	.LC21:
 2254 024c 656E645F 		.ascii	"end_ptr is %x\012\000"
 2254      70747220 
 2254      69732025 
 2254      780A00
 2255 025b 00       		.align	2
 2256              	.LC22:
 2257 025c 63757272 		.ascii	"current_block_num is %d\012\000"
 2257      656E745F 
 2257      626C6F63 
 2257      6B5F6E75 
 2257      6D206973 
 2258 0275 000000   		.align	2
 2259              	.LC23:
 2260 0278 66756C6C 		.ascii	"full_block_num is %d\012\000"
 2260      5F626C6F 
 2260      636B5F6E 
 2260      756D2069 
 2260      73202564 
 2261 028e 0000     		.align	2
 2262              	.LC24:
 2263 0290 626C6F63 		.ascii	"block_size is %d\012\000"
 2263      6B5F7369 
 2263      7A652069 
 2263      73202564 
 2263      0A00
 2264 02a2 0000     		.align	2
 2265              	.LC25:
 2266 02a4 696E2063 		.ascii	"in chain slabs_partial\012\000"
 2266      6861696E 
 2266      20736C61 
 2266      62735F70 
 2266      61727469 
 2267              		.align	2
 2268              	.LC26:
 2269 02bc 696E2063 		.ascii	"in chain slabs_empty\012\000"
 2269      6861696E 
 2269      20736C61 
 2269      62735F65 
 2269      6D707479 
 2270              		.text
 2271              		.align	1
 2272              		.global	shell_check_slab
ARM GAS  G:\Users\Jaxb\AppData\Local\Temp\ccEJJHY8.s 			page 53


 2273              		.syntax unified
 2274              		.thumb
 2275              		.thumb_func
 2276              		.fpu softvfp
 2277              		.type	shell_check_slab, %function
 2278              	shell_check_slab:
 2279              	.LFB25:
 451:../../source/src/kernel/OS_LIB/malloc.c **** #endif
 452:../../source/src/kernel/OS_LIB/malloc.c **** 
 453:../../source/src/kernel/OS_LIB/malloc.c **** #if CONFIG_SHELL_EN
 454:../../source/src/kernel/OS_LIB/malloc.c **** void shell_check_slab(int argc, char const *argv[])
 455:../../source/src/kernel/OS_LIB/malloc.c **** {
 2280              		.loc 3 455 0
 2281              		.cfi_startproc
 2282              		@ args = 0, pretend = 0, frame = 80
 2283              		@ frame_needed = 1, uses_anonymous_args = 0
 2284 0a44 80B5     		push	{r7, lr}
 2285              	.LCFI99:
 2286              		.cfi_def_cfa_offset 8
 2287              		.cfi_offset 7, -8
 2288              		.cfi_offset 14, -4
 2289 0a46 94B0     		sub	sp, sp, #80
 2290              	.LCFI100:
 2291              		.cfi_def_cfa_offset 88
 2292 0a48 00AF     		add	r7, sp, #0
 2293              	.LCFI101:
 2294              		.cfi_def_cfa_register 7
 2295 0a4a 7860     		str	r0, [r7, #4]
 2296 0a4c 3960     		str	r1, [r7]
 456:../../source/src/kernel/OS_LIB/malloc.c **** 	(void)argc;
 457:../../source/src/kernel/OS_LIB/malloc.c **** 	(void)argv;
 458:../../source/src/kernel/OS_LIB/malloc.c **** 	struct list_head *pos;
 459:../../source/src/kernel/OS_LIB/malloc.c **** 	IL *IL_ptr;
 460:../../source/src/kernel/OS_LIB/malloc.c **** 	struct kmem_cache *kmem_cache_ptr;
 461:../../source/src/kernel/OS_LIB/malloc.c **** 	int i = 0;
 2297              		.loc 3 461 0
 2298 0a4e 0023     		movs	r3, #0
 2299 0a50 BB64     		str	r3, [r7, #72]
 462:../../source/src/kernel/OS_LIB/malloc.c **** 	struct slab *slab_ptr;
 463:../../source/src/kernel/OS_LIB/malloc.c **** 	CPU_SR_ALLOC();
 2300              		.loc 3 463 0
 2301 0a52 0023     		movs	r3, #0
 2302 0a54 FB62     		str	r3, [r7, #44]
 464:../../source/src/kernel/OS_LIB/malloc.c **** 	CPU_CRITICAL_ENTER();
 2303              		.loc 3 464 0
 2304 0a56 FFF7FEFF 		bl	CPU_SR_Save
 2305 0a5a F862     		str	r0, [r7, #44]
 465:../../source/src/kernel/OS_LIB/malloc.c **** 	list_for_each(pos,&cache_chain_head)
 2306              		.loc 3 465 0
 2307 0a5c 8D4B     		ldr	r3, .L142
 2308 0a5e 1B68     		ldr	r3, [r3]
 2309 0a60 FB64     		str	r3, [r7, #76]
 2310 0a62 0AE1     		b	.L128
 2311              	.L141:
 466:../../source/src/kernel/OS_LIB/malloc.c **** 	{
 467:../../source/src/kernel/OS_LIB/malloc.c **** 		ka_printf("===========get NO.%d kmem===========\n",++i);
 2312              		.loc 3 467 0
ARM GAS  G:\Users\Jaxb\AppData\Local\Temp\ccEJJHY8.s 			page 54


 2313 0a64 BB6C     		ldr	r3, [r7, #72]
 2314 0a66 0133     		adds	r3, r3, #1
 2315 0a68 BB64     		str	r3, [r7, #72]
 2316 0a6a B96C     		ldr	r1, [r7, #72]
 2317 0a6c 8A48     		ldr	r0, .L142+4
 2318 0a6e FFF7FEFF 		bl	ka_printf
 2319              	.LBB24:
 468:../../source/src/kernel/OS_LIB/malloc.c **** 		IL_ptr = list_entry(pos,IL,insert);
 2320              		.loc 3 468 0
 2321 0a72 FB6C     		ldr	r3, [r7, #76]
 2322 0a74 BB62     		str	r3, [r7, #40]
 2323 0a76 BB6A     		ldr	r3, [r7, #40]
 2324              	.LBE24:
 2325 0a78 7B62     		str	r3, [r7, #36]
 469:../../source/src/kernel/OS_LIB/malloc.c **** 		ka_printf("the size of this kmem_cache is %l\n",IL_ptr->prio);
 2326              		.loc 3 469 0
 2327 0a7a 7B6A     		ldr	r3, [r7, #36]
 2328 0a7c 9B68     		ldr	r3, [r3, #8]
 2329 0a7e 1946     		mov	r1, r3
 2330 0a80 8648     		ldr	r0, .L142+8
 2331 0a82 FFF7FEFF 		bl	ka_printf
 2332              	.LBB25:
 470:../../source/src/kernel/OS_LIB/malloc.c **** 		kmem_cache_ptr = list_entry(IL_ptr,struct kmem_cache,kmem_cache_insert_chain);
 2333              		.loc 3 470 0
 2334 0a86 7B6A     		ldr	r3, [r7, #36]
 2335 0a88 3B62     		str	r3, [r7, #32]
 2336 0a8a 3B6A     		ldr	r3, [r7, #32]
 2337              	.LBE25:
 2338 0a8c FB61     		str	r3, [r7, #28]
 471:../../source/src/kernel/OS_LIB/malloc.c **** 		if(!list_empty(&kmem_cache_ptr->slabs_full))
 2339              		.loc 3 471 0
 2340 0a8e FB69     		ldr	r3, [r7, #28]
 2341 0a90 0C33     		adds	r3, r3, #12
 2342 0a92 1846     		mov	r0, r3
 2343 0a94 FFF70AFB 		bl	list_empty
 2344 0a98 0346     		mov	r3, r0
 2345 0a9a 002B     		cmp	r3, #0
 2346 0a9c 42D1     		bne	.L129
 2347              	.LBB26:
 472:../../source/src/kernel/OS_LIB/malloc.c **** 		{
 473:../../source/src/kernel/OS_LIB/malloc.c **** 			struct list_head *buffer;
 474:../../source/src/kernel/OS_LIB/malloc.c **** 			int num = 0;
 2348              		.loc 3 474 0
 2349 0a9e 0023     		movs	r3, #0
 2350 0aa0 3B64     		str	r3, [r7, #64]
 475:../../source/src/kernel/OS_LIB/malloc.c **** 			ka_printf("in chain slabs_full\n");
 2351              		.loc 3 475 0
 2352 0aa2 7F48     		ldr	r0, .L142+12
 2353 0aa4 FFF7FEFF 		bl	ka_printf
 476:../../source/src/kernel/OS_LIB/malloc.c **** 			list_for_each(buffer,&kmem_cache_ptr->slabs_full)
 2354              		.loc 3 476 0
 2355 0aa8 FB69     		ldr	r3, [r7, #28]
 2356 0aaa DB68     		ldr	r3, [r3, #12]
 2357 0aac 7B64     		str	r3, [r7, #68]
 2358 0aae 2FE0     		b	.L130
 2359              	.L131:
 477:../../source/src/kernel/OS_LIB/malloc.c **** 			{
ARM GAS  G:\Users\Jaxb\AppData\Local\Temp\ccEJJHY8.s 			page 55


 478:../../source/src/kernel/OS_LIB/malloc.c **** 				ka_printf("the NO.%d slab information:\n",++num);
 2360              		.loc 3 478 0 discriminator 3
 2361 0ab0 3B6C     		ldr	r3, [r7, #64]
 2362 0ab2 0133     		adds	r3, r3, #1
 2363 0ab4 3B64     		str	r3, [r7, #64]
 2364 0ab6 396C     		ldr	r1, [r7, #64]
 2365 0ab8 7A48     		ldr	r0, .L142+16
 2366 0aba FFF7FEFF 		bl	ka_printf
 2367              	.LBB27:
 479:../../source/src/kernel/OS_LIB/malloc.c **** 				slab_ptr = list_entry(buffer,struct slab,slab_chain);
 2368              		.loc 3 479 0 discriminator 3
 2369 0abe 7B6C     		ldr	r3, [r7, #68]
 2370 0ac0 BB61     		str	r3, [r7, #24]
 2371 0ac2 BB69     		ldr	r3, [r7, #24]
 2372 0ac4 143B     		subs	r3, r3, #20
 2373              	.LBE27:
 2374 0ac6 7B61     		str	r3, [r7, #20]
 480:../../source/src/kernel/OS_LIB/malloc.c **** 				ka_printf("start_ptr is %x\n",(int)slab_ptr->start_ptr);
 2375              		.loc 3 480 0 discriminator 3
 2376 0ac8 7B69     		ldr	r3, [r7, #20]
 2377 0aca 1B68     		ldr	r3, [r3]
 2378 0acc 1946     		mov	r1, r3
 2379 0ace 7648     		ldr	r0, .L142+20
 2380 0ad0 FFF7FEFF 		bl	ka_printf
 481:../../source/src/kernel/OS_LIB/malloc.c **** 				ka_printf("end_ptr is %x\n",(int)slab_ptr->end_ptr);
 2381              		.loc 3 481 0 discriminator 3
 2382 0ad4 7B69     		ldr	r3, [r7, #20]
 2383 0ad6 5B68     		ldr	r3, [r3, #4]
 2384 0ad8 1946     		mov	r1, r3
 2385 0ada 7448     		ldr	r0, .L142+24
 2386 0adc FFF7FEFF 		bl	ka_printf
 482:../../source/src/kernel/OS_LIB/malloc.c **** 				ka_printf("current_block_num is %d\n",slab_ptr->current_block_num);
 2387              		.loc 3 482 0 discriminator 3
 2388 0ae0 7B69     		ldr	r3, [r7, #20]
 2389 0ae2 9B68     		ldr	r3, [r3, #8]
 2390 0ae4 1946     		mov	r1, r3
 2391 0ae6 7248     		ldr	r0, .L142+28
 2392 0ae8 FFF7FEFF 		bl	ka_printf
 483:../../source/src/kernel/OS_LIB/malloc.c **** 				ka_printf("full_block_num is %d\n",slab_ptr->full_block_num);
 2393              		.loc 3 483 0 discriminator 3
 2394 0aec 7B69     		ldr	r3, [r7, #20]
 2395 0aee DB68     		ldr	r3, [r3, #12]
 2396 0af0 1946     		mov	r1, r3
 2397 0af2 7048     		ldr	r0, .L142+32
 2398 0af4 FFF7FEFF 		bl	ka_printf
 484:../../source/src/kernel/OS_LIB/malloc.c **** 				ka_printf("block_size is %d\n",slab_ptr->block_size);
 2399              		.loc 3 484 0 discriminator 3
 2400 0af8 7B69     		ldr	r3, [r7, #20]
 2401 0afa 1B69     		ldr	r3, [r3, #16]
 2402 0afc 1946     		mov	r1, r3
 2403 0afe 6E48     		ldr	r0, .L142+36
 2404 0b00 FFF7FEFF 		bl	ka_printf
 485:../../source/src/kernel/OS_LIB/malloc.c **** 				ka_printf("\n");
 2405              		.loc 3 485 0 discriminator 3
 2406 0b04 6D48     		ldr	r0, .L142+40
 2407 0b06 FFF7FEFF 		bl	ka_printf
 476:../../source/src/kernel/OS_LIB/malloc.c **** 			{
ARM GAS  G:\Users\Jaxb\AppData\Local\Temp\ccEJJHY8.s 			page 56


 2408              		.loc 3 476 0 discriminator 3
 2409 0b0a 7B6C     		ldr	r3, [r7, #68]
 2410 0b0c 1B68     		ldr	r3, [r3]
 2411 0b0e 7B64     		str	r3, [r7, #68]
 2412              	.L130:
 476:../../source/src/kernel/OS_LIB/malloc.c **** 			{
 2413              		.loc 3 476 0 is_stmt 0 discriminator 1
 2414 0b10 FB69     		ldr	r3, [r7, #28]
 2415 0b12 0C33     		adds	r3, r3, #12
 2416 0b14 7A6C     		ldr	r2, [r7, #68]
 2417 0b16 9A42     		cmp	r2, r3
 2418 0b18 CAD1     		bne	.L131
 486:../../source/src/kernel/OS_LIB/malloc.c **** 			}
 487:../../source/src/kernel/OS_LIB/malloc.c **** 			ka_printf("chain slabs_full has %d slab\n",num);
 2419              		.loc 3 487 0 is_stmt 1
 2420 0b1a 396C     		ldr	r1, [r7, #64]
 2421 0b1c 6848     		ldr	r0, .L142+44
 2422 0b1e FFF7FEFF 		bl	ka_printf
 2423              	.LBE26:
 2424 0b22 02E0     		b	.L132
 2425              	.L129:
 488:../../source/src/kernel/OS_LIB/malloc.c **** 		}
 489:../../source/src/kernel/OS_LIB/malloc.c **** 		else
 490:../../source/src/kernel/OS_LIB/malloc.c **** 		{
 491:../../source/src/kernel/OS_LIB/malloc.c **** 			ka_printf("chain slabs_full is empty\n");
 2426              		.loc 3 491 0
 2427 0b24 6748     		ldr	r0, .L142+48
 2428 0b26 FFF7FEFF 		bl	ka_printf
 2429              	.L132:
 492:../../source/src/kernel/OS_LIB/malloc.c **** 		}
 493:../../source/src/kernel/OS_LIB/malloc.c **** 		ka_printf("\n");
 2430              		.loc 3 493 0
 2431 0b2a 6448     		ldr	r0, .L142+40
 2432 0b2c FFF7FEFF 		bl	ka_printf
 494:../../source/src/kernel/OS_LIB/malloc.c **** 		if(!list_empty(&kmem_cache_ptr->slabs_partial))
 2433              		.loc 3 494 0
 2434 0b30 FB69     		ldr	r3, [r7, #28]
 2435 0b32 1433     		adds	r3, r3, #20
 2436 0b34 1846     		mov	r0, r3
 2437 0b36 FFF7B9FA 		bl	list_empty
 2438 0b3a 0346     		mov	r3, r0
 2439 0b3c 002B     		cmp	r3, #0
 2440 0b3e 42D1     		bne	.L133
 2441              	.LBB28:
 495:../../source/src/kernel/OS_LIB/malloc.c **** 		{
 496:../../source/src/kernel/OS_LIB/malloc.c **** 			struct list_head *buffer;
 497:../../source/src/kernel/OS_LIB/malloc.c **** 			int num = 0;
 2442              		.loc 3 497 0
 2443 0b40 0023     		movs	r3, #0
 2444 0b42 BB63     		str	r3, [r7, #56]
 498:../../source/src/kernel/OS_LIB/malloc.c **** 			ka_printf("in chain slabs_partial\n");
 2445              		.loc 3 498 0
 2446 0b44 6048     		ldr	r0, .L142+52
 2447 0b46 FFF7FEFF 		bl	ka_printf
 499:../../source/src/kernel/OS_LIB/malloc.c **** 			list_for_each(buffer,&kmem_cache_ptr->slabs_partial)
 2448              		.loc 3 499 0
 2449 0b4a FB69     		ldr	r3, [r7, #28]
ARM GAS  G:\Users\Jaxb\AppData\Local\Temp\ccEJJHY8.s 			page 57


 2450 0b4c 5B69     		ldr	r3, [r3, #20]
 2451 0b4e FB63     		str	r3, [r7, #60]
 2452 0b50 2FE0     		b	.L134
 2453              	.L135:
 500:../../source/src/kernel/OS_LIB/malloc.c **** 			{
 501:../../source/src/kernel/OS_LIB/malloc.c **** 				ka_printf("the NO.%d slab information:\n",++num);
 2454              		.loc 3 501 0 discriminator 3
 2455 0b52 BB6B     		ldr	r3, [r7, #56]
 2456 0b54 0133     		adds	r3, r3, #1
 2457 0b56 BB63     		str	r3, [r7, #56]
 2458 0b58 B96B     		ldr	r1, [r7, #56]
 2459 0b5a 5248     		ldr	r0, .L142+16
 2460 0b5c FFF7FEFF 		bl	ka_printf
 2461              	.LBB29:
 502:../../source/src/kernel/OS_LIB/malloc.c **** 				slab_ptr = list_entry(buffer,struct slab,slab_chain);
 2462              		.loc 3 502 0 discriminator 3
 2463 0b60 FB6B     		ldr	r3, [r7, #60]
 2464 0b62 3B61     		str	r3, [r7, #16]
 2465 0b64 3B69     		ldr	r3, [r7, #16]
 2466 0b66 143B     		subs	r3, r3, #20
 2467              	.LBE29:
 2468 0b68 7B61     		str	r3, [r7, #20]
 503:../../source/src/kernel/OS_LIB/malloc.c **** 				ka_printf("start_ptr is %x\n",(int)slab_ptr->start_ptr);
 2469              		.loc 3 503 0 discriminator 3
 2470 0b6a 7B69     		ldr	r3, [r7, #20]
 2471 0b6c 1B68     		ldr	r3, [r3]
 2472 0b6e 1946     		mov	r1, r3
 2473 0b70 4D48     		ldr	r0, .L142+20
 2474 0b72 FFF7FEFF 		bl	ka_printf
 504:../../source/src/kernel/OS_LIB/malloc.c **** 				ka_printf("end_ptr is %x\n",(int)slab_ptr->end_ptr);
 2475              		.loc 3 504 0 discriminator 3
 2476 0b76 7B69     		ldr	r3, [r7, #20]
 2477 0b78 5B68     		ldr	r3, [r3, #4]
 2478 0b7a 1946     		mov	r1, r3
 2479 0b7c 4B48     		ldr	r0, .L142+24
 2480 0b7e FFF7FEFF 		bl	ka_printf
 505:../../source/src/kernel/OS_LIB/malloc.c **** 				ka_printf("current_block_num is %d\n",slab_ptr->current_block_num);
 2481              		.loc 3 505 0 discriminator 3
 2482 0b82 7B69     		ldr	r3, [r7, #20]
 2483 0b84 9B68     		ldr	r3, [r3, #8]
 2484 0b86 1946     		mov	r1, r3
 2485 0b88 4948     		ldr	r0, .L142+28
 2486 0b8a FFF7FEFF 		bl	ka_printf
 506:../../source/src/kernel/OS_LIB/malloc.c **** 				ka_printf("full_block_num is %d\n",slab_ptr->full_block_num);
 2487              		.loc 3 506 0 discriminator 3
 2488 0b8e 7B69     		ldr	r3, [r7, #20]
 2489 0b90 DB68     		ldr	r3, [r3, #12]
 2490 0b92 1946     		mov	r1, r3
 2491 0b94 4748     		ldr	r0, .L142+32
 2492 0b96 FFF7FEFF 		bl	ka_printf
 507:../../source/src/kernel/OS_LIB/malloc.c **** 				ka_printf("block_size is %d\n",slab_ptr->block_size);
 2493              		.loc 3 507 0 discriminator 3
 2494 0b9a 7B69     		ldr	r3, [r7, #20]
 2495 0b9c 1B69     		ldr	r3, [r3, #16]
 2496 0b9e 1946     		mov	r1, r3
 2497 0ba0 4548     		ldr	r0, .L142+36
 2498 0ba2 FFF7FEFF 		bl	ka_printf
ARM GAS  G:\Users\Jaxb\AppData\Local\Temp\ccEJJHY8.s 			page 58


 508:../../source/src/kernel/OS_LIB/malloc.c **** 				ka_printf("\n");
 2499              		.loc 3 508 0 discriminator 3
 2500 0ba6 4548     		ldr	r0, .L142+40
 2501 0ba8 FFF7FEFF 		bl	ka_printf
 499:../../source/src/kernel/OS_LIB/malloc.c **** 			{
 2502              		.loc 3 499 0 discriminator 3
 2503 0bac FB6B     		ldr	r3, [r7, #60]
 2504 0bae 1B68     		ldr	r3, [r3]
 2505 0bb0 FB63     		str	r3, [r7, #60]
 2506              	.L134:
 499:../../source/src/kernel/OS_LIB/malloc.c **** 			{
 2507              		.loc 3 499 0 is_stmt 0 discriminator 1
 2508 0bb2 FB69     		ldr	r3, [r7, #28]
 2509 0bb4 1433     		adds	r3, r3, #20
 2510 0bb6 FA6B     		ldr	r2, [r7, #60]
 2511 0bb8 9A42     		cmp	r2, r3
 2512 0bba CAD1     		bne	.L135
 509:../../source/src/kernel/OS_LIB/malloc.c **** 			}
 510:../../source/src/kernel/OS_LIB/malloc.c **** 			ka_printf("chain slabs_partial has %d slab\n",num);
 2513              		.loc 3 510 0 is_stmt 1
 2514 0bbc B96B     		ldr	r1, [r7, #56]
 2515 0bbe 4348     		ldr	r0, .L142+56
 2516 0bc0 FFF7FEFF 		bl	ka_printf
 2517              	.LBE28:
 2518 0bc4 02E0     		b	.L136
 2519              	.L133:
 511:../../source/src/kernel/OS_LIB/malloc.c **** 		}
 512:../../source/src/kernel/OS_LIB/malloc.c **** 		else
 513:../../source/src/kernel/OS_LIB/malloc.c **** 		{
 514:../../source/src/kernel/OS_LIB/malloc.c **** 			ka_printf("chain slabs_partial is empty\n");
 2520              		.loc 3 514 0
 2521 0bc6 4248     		ldr	r0, .L142+60
 2522 0bc8 FFF7FEFF 		bl	ka_printf
 2523              	.L136:
 515:../../source/src/kernel/OS_LIB/malloc.c **** 		}
 516:../../source/src/kernel/OS_LIB/malloc.c **** 		ka_printf("\n");
 2524              		.loc 3 516 0
 2525 0bcc 3B48     		ldr	r0, .L142+40
 2526 0bce FFF7FEFF 		bl	ka_printf
 517:../../source/src/kernel/OS_LIB/malloc.c **** 		if(!list_empty(&kmem_cache_ptr->slabs_empty))
 2527              		.loc 3 517 0
 2528 0bd2 FB69     		ldr	r3, [r7, #28]
 2529 0bd4 1C33     		adds	r3, r3, #28
 2530 0bd6 1846     		mov	r0, r3
 2531 0bd8 FFF768FA 		bl	list_empty
 2532 0bdc 0346     		mov	r3, r0
 2533 0bde 002B     		cmp	r3, #0
 2534 0be0 42D1     		bne	.L137
 2535              	.LBB30:
 518:../../source/src/kernel/OS_LIB/malloc.c **** 		{
 519:../../source/src/kernel/OS_LIB/malloc.c **** 			struct list_head *buffer;
 520:../../source/src/kernel/OS_LIB/malloc.c **** 			int num = 0;
 2536              		.loc 3 520 0
 2537 0be2 0023     		movs	r3, #0
 2538 0be4 3B63     		str	r3, [r7, #48]
 521:../../source/src/kernel/OS_LIB/malloc.c **** 			ka_printf("in chain slabs_empty\n");
 2539              		.loc 3 521 0
ARM GAS  G:\Users\Jaxb\AppData\Local\Temp\ccEJJHY8.s 			page 59


 2540 0be6 3B48     		ldr	r0, .L142+64
 2541 0be8 FFF7FEFF 		bl	ka_printf
 522:../../source/src/kernel/OS_LIB/malloc.c **** 			list_for_each(buffer,&kmem_cache_ptr->slabs_empty)
 2542              		.loc 3 522 0
 2543 0bec FB69     		ldr	r3, [r7, #28]
 2544 0bee DB69     		ldr	r3, [r3, #28]
 2545 0bf0 7B63     		str	r3, [r7, #52]
 2546 0bf2 2FE0     		b	.L138
 2547              	.L139:
 523:../../source/src/kernel/OS_LIB/malloc.c **** 			{
 524:../../source/src/kernel/OS_LIB/malloc.c **** 				ka_printf("the NO.%d slab information:\n",++num);
 2548              		.loc 3 524 0 discriminator 3
 2549 0bf4 3B6B     		ldr	r3, [r7, #48]
 2550 0bf6 0133     		adds	r3, r3, #1
 2551 0bf8 3B63     		str	r3, [r7, #48]
 2552 0bfa 396B     		ldr	r1, [r7, #48]
 2553 0bfc 2948     		ldr	r0, .L142+16
 2554 0bfe FFF7FEFF 		bl	ka_printf
 2555              	.LBB31:
 525:../../source/src/kernel/OS_LIB/malloc.c **** 				slab_ptr = list_entry(buffer,struct slab,slab_chain);
 2556              		.loc 3 525 0 discriminator 3
 2557 0c02 7B6B     		ldr	r3, [r7, #52]
 2558 0c04 FB60     		str	r3, [r7, #12]
 2559 0c06 FB68     		ldr	r3, [r7, #12]
 2560 0c08 143B     		subs	r3, r3, #20
 2561              	.LBE31:
 2562 0c0a 7B61     		str	r3, [r7, #20]
 526:../../source/src/kernel/OS_LIB/malloc.c **** 				ka_printf("start_ptr is %x\n",(int)slab_ptr->start_ptr);
 2563              		.loc 3 526 0 discriminator 3
 2564 0c0c 7B69     		ldr	r3, [r7, #20]
 2565 0c0e 1B68     		ldr	r3, [r3]
 2566 0c10 1946     		mov	r1, r3
 2567 0c12 2548     		ldr	r0, .L142+20
 2568 0c14 FFF7FEFF 		bl	ka_printf
 527:../../source/src/kernel/OS_LIB/malloc.c **** 				ka_printf("end_ptr is %x\n",(int)slab_ptr->end_ptr);
 2569              		.loc 3 527 0 discriminator 3
 2570 0c18 7B69     		ldr	r3, [r7, #20]
 2571 0c1a 5B68     		ldr	r3, [r3, #4]
 2572 0c1c 1946     		mov	r1, r3
 2573 0c1e 2348     		ldr	r0, .L142+24
 2574 0c20 FFF7FEFF 		bl	ka_printf
 528:../../source/src/kernel/OS_LIB/malloc.c **** 				ka_printf("current_block_num is %d\n",slab_ptr->current_block_num);
 2575              		.loc 3 528 0 discriminator 3
 2576 0c24 7B69     		ldr	r3, [r7, #20]
 2577 0c26 9B68     		ldr	r3, [r3, #8]
 2578 0c28 1946     		mov	r1, r3
 2579 0c2a 2148     		ldr	r0, .L142+28
 2580 0c2c FFF7FEFF 		bl	ka_printf
 529:../../source/src/kernel/OS_LIB/malloc.c **** 				ka_printf("full_block_num is %d\n",slab_ptr->full_block_num);
 2581              		.loc 3 529 0 discriminator 3
 2582 0c30 7B69     		ldr	r3, [r7, #20]
 2583 0c32 DB68     		ldr	r3, [r3, #12]
 2584 0c34 1946     		mov	r1, r3
 2585 0c36 1F48     		ldr	r0, .L142+32
 2586 0c38 FFF7FEFF 		bl	ka_printf
 530:../../source/src/kernel/OS_LIB/malloc.c **** 				ka_printf("block_size is %d\n",slab_ptr->block_size);
 2587              		.loc 3 530 0 discriminator 3
ARM GAS  G:\Users\Jaxb\AppData\Local\Temp\ccEJJHY8.s 			page 60


 2588 0c3c 7B69     		ldr	r3, [r7, #20]
 2589 0c3e 1B69     		ldr	r3, [r3, #16]
 2590 0c40 1946     		mov	r1, r3
 2591 0c42 1D48     		ldr	r0, .L142+36
 2592 0c44 FFF7FEFF 		bl	ka_printf
 531:../../source/src/kernel/OS_LIB/malloc.c **** 				ka_printf("\n");
 2593              		.loc 3 531 0 discriminator 3
 2594 0c48 1C48     		ldr	r0, .L142+40
 2595 0c4a FFF7FEFF 		bl	ka_printf
 522:../../source/src/kernel/OS_LIB/malloc.c **** 			{
 2596              		.loc 3 522 0 discriminator 3
 2597 0c4e 7B6B     		ldr	r3, [r7, #52]
 2598 0c50 1B68     		ldr	r3, [r3]
 2599 0c52 7B63     		str	r3, [r7, #52]
 2600              	.L138:
 522:../../source/src/kernel/OS_LIB/malloc.c **** 			{
 2601              		.loc 3 522 0 is_stmt 0 discriminator 1
 2602 0c54 FB69     		ldr	r3, [r7, #28]
 2603 0c56 1C33     		adds	r3, r3, #28
 2604 0c58 7A6B     		ldr	r2, [r7, #52]
 2605 0c5a 9A42     		cmp	r2, r3
 2606 0c5c CAD1     		bne	.L139
 532:../../source/src/kernel/OS_LIB/malloc.c **** 			}
 533:../../source/src/kernel/OS_LIB/malloc.c **** 			ka_printf("chain slabs_empty has %d slab\n",num);
 2607              		.loc 3 533 0 is_stmt 1
 2608 0c5e 396B     		ldr	r1, [r7, #48]
 2609 0c60 1D48     		ldr	r0, .L142+68
 2610 0c62 FFF7FEFF 		bl	ka_printf
 2611              	.LBE30:
 2612 0c66 02E0     		b	.L140
 2613              	.L137:
 534:../../source/src/kernel/OS_LIB/malloc.c **** 		}
 535:../../source/src/kernel/OS_LIB/malloc.c **** 		else
 536:../../source/src/kernel/OS_LIB/malloc.c **** 		{
 537:../../source/src/kernel/OS_LIB/malloc.c **** 			ka_printf("chain slabs_empty is empty\n");
 2614              		.loc 3 537 0
 2615 0c68 1C48     		ldr	r0, .L142+72
 2616 0c6a FFF7FEFF 		bl	ka_printf
 2617              	.L140:
 538:../../source/src/kernel/OS_LIB/malloc.c **** 		}
 539:../../source/src/kernel/OS_LIB/malloc.c **** 		ka_printf("\n");
 2618              		.loc 3 539 0 discriminator 2
 2619 0c6e 1348     		ldr	r0, .L142+40
 2620 0c70 FFF7FEFF 		bl	ka_printf
 465:../../source/src/kernel/OS_LIB/malloc.c **** 	{
 2621              		.loc 3 465 0 discriminator 2
 2622 0c74 FB6C     		ldr	r3, [r7, #76]
 2623 0c76 1B68     		ldr	r3, [r3]
 2624 0c78 FB64     		str	r3, [r7, #76]
 2625              	.L128:
 465:../../source/src/kernel/OS_LIB/malloc.c **** 	{
 2626              		.loc 3 465 0 is_stmt 0 discriminator 1
 2627 0c7a FB6C     		ldr	r3, [r7, #76]
 2628 0c7c 054A     		ldr	r2, .L142
 2629 0c7e 9342     		cmp	r3, r2
 2630 0c80 7FF4F0AE 		bne	.L141
 540:../../source/src/kernel/OS_LIB/malloc.c **** 	}
ARM GAS  G:\Users\Jaxb\AppData\Local\Temp\ccEJJHY8.s 			page 61


 541:../../source/src/kernel/OS_LIB/malloc.c **** 	CPU_CRITICAL_EXIT();
 2631              		.loc 3 541 0 is_stmt 1
 2632 0c84 F86A     		ldr	r0, [r7, #44]
 2633 0c86 FFF7FEFF 		bl	CPU_SR_Restore
 542:../../source/src/kernel/OS_LIB/malloc.c **** }
 2634              		.loc 3 542 0
 2635 0c8a 00BF     		nop
 2636 0c8c 5037     		adds	r7, r7, #80
 2637              	.LCFI102:
 2638              		.cfi_def_cfa_offset 8
 2639 0c8e BD46     		mov	sp, r7
 2640              	.LCFI103:
 2641              		.cfi_def_cfa_register 13
 2642              		@ sp needed
 2643 0c90 80BD     		pop	{r7, pc}
 2644              	.L143:
 2645 0c92 00BF     		.align	2
 2646              	.L142:
 2647 0c94 00000000 		.word	cache_chain_head
 2648 0c98 D0000000 		.word	.LC8
 2649 0c9c DC010000 		.word	.LC17
 2650 0ca0 00020000 		.word	.LC18
 2651 0ca4 18020000 		.word	.LC19
 2652 0ca8 38020000 		.word	.LC20
 2653 0cac 4C020000 		.word	.LC21
 2654 0cb0 5C020000 		.word	.LC22
 2655 0cb4 78020000 		.word	.LC23
 2656 0cb8 90020000 		.word	.LC24
 2657 0cbc D8010000 		.word	.LC16
 2658 0cc0 1C010000 		.word	.LC10
 2659 0cc4 3C010000 		.word	.LC11
 2660 0cc8 A4020000 		.word	.LC25
 2661 0ccc 58010000 		.word	.LC12
 2662 0cd0 7C010000 		.word	.LC13
 2663 0cd4 BC020000 		.word	.LC26
 2664 0cd8 9C010000 		.word	.LC14
 2665 0cdc BC010000 		.word	.LC15
 2666              		.cfi_endproc
 2667              	.LFE25:
 2668              		.size	shell_check_slab, .-shell_check_slab
 2669              	.Letext0:
 2670              		.file 4 "../../source/include/os_cpu/kakaosstdint.h"
 2671              		.file 5 "../../source/include/os_lib/insert_sort.h"
 2672              		.file 6 "../../source/include/os_lib/slab.h"
 2673              		.file 7 "../../source/include/os_lib/buddy.h"
 2674              		.file 8 "../../source/include/os_cpu/os_cpu_stm32.h"
 2675              		.file 9 "../../source/include/os_core/TCB.h"
 2676              		.section	.debug_info,"",%progbits
 2677              	.Ldebug_info0:
 2678 0000 350D0000 		.4byte	0xd35
 2679 0004 0200     		.2byte	0x2
 2680 0006 00000000 		.4byte	.Ldebug_abbrev0
 2681 000a 04       		.byte	0x4
 2682 000b 01       		.uleb128 0x1
 2683 000c D5040000 		.4byte	.LASF98
 2684 0010 0C       		.byte	0xc
 2685 0011 97020000 		.4byte	.LASF99
ARM GAS  G:\Users\Jaxb\AppData\Local\Temp\ccEJJHY8.s 			page 62


 2686 0015 C4010000 		.4byte	.LASF100
 2687 0019 00000000 		.4byte	.Ltext0
 2688 001d E00C0000 		.4byte	.Letext0
 2689 0021 00000000 		.4byte	.Ldebug_line0
 2690 0025 02       		.uleb128 0x2
 2691 0026 01       		.byte	0x1
 2692 0027 06       		.byte	0x6
 2693 0028 E9020000 		.4byte	.LASF0
 2694 002c 02       		.uleb128 0x2
 2695 002d 02       		.byte	0x2
 2696 002e 05       		.byte	0x5
 2697 002f 9D000000 		.4byte	.LASF1
 2698 0033 03       		.uleb128 0x3
 2699 0034 04       		.byte	0x4
 2700 0035 05       		.byte	0x5
 2701 0036 696E7400 		.ascii	"int\000"
 2702 003a 04       		.uleb128 0x4
 2703 003b 33000000 		.4byte	0x33
 2704 003f 02       		.uleb128 0x2
 2705 0040 08       		.byte	0x8
 2706 0041 05       		.byte	0x5
 2707 0042 F2010000 		.4byte	.LASF2
 2708 0046 02       		.uleb128 0x2
 2709 0047 01       		.byte	0x1
 2710 0048 08       		.byte	0x8
 2711 0049 BF020000 		.4byte	.LASF3
 2712 004d 05       		.uleb128 0x5
 2713 004e A7030000 		.4byte	.LASF5
 2714 0052 04       		.byte	0x4
 2715 0053 0B       		.byte	0xb
 2716 0054 58000000 		.4byte	0x58
 2717 0058 02       		.uleb128 0x2
 2718 0059 02       		.byte	0x2
 2719 005a 07       		.byte	0x7
 2720 005b 8D030000 		.4byte	.LASF4
 2721 005f 05       		.uleb128 0x5
 2722 0060 D3000000 		.4byte	.LASF6
 2723 0064 04       		.byte	0x4
 2724 0065 0C       		.byte	0xc
 2725 0066 6A000000 		.4byte	0x6a
 2726 006a 02       		.uleb128 0x2
 2727 006b 04       		.byte	0x4
 2728 006c 07       		.byte	0x7
 2729 006d 21030000 		.4byte	.LASF7
 2730 0071 02       		.uleb128 0x2
 2731 0072 08       		.byte	0x8
 2732 0073 07       		.byte	0x7
 2733 0074 F5020000 		.4byte	.LASF8
 2734 0078 05       		.uleb128 0x5
 2735 0079 A7000000 		.4byte	.LASF9
 2736 007d 04       		.byte	0x4
 2737 007e 23       		.byte	0x23
 2738 007f 6A000000 		.4byte	0x6a
 2739 0083 06       		.uleb128 0x6
 2740 0084 3A000000 		.4byte	.LASF13
 2741 0088 08       		.byte	0x8
 2742 0089 01       		.byte	0x1
ARM GAS  G:\Users\Jaxb\AppData\Local\Temp\ccEJJHY8.s 			page 63


 2743 008a 04       		.byte	0x4
 2744 008b AC000000 		.4byte	0xac
 2745 008f 07       		.uleb128 0x7
 2746 0090 DD050000 		.4byte	.LASF10
 2747 0094 01       		.byte	0x1
 2748 0095 05       		.byte	0x5
 2749 0096 B1000000 		.4byte	0xb1
 2750 009a 02       		.byte	0x2
 2751 009b 23       		.byte	0x23
 2752 009c 00       		.uleb128 0
 2753 009d 07       		.uleb128 0x7
 2754 009e 99050000 		.4byte	.LASF11
 2755 00a2 01       		.byte	0x1
 2756 00a3 05       		.byte	0x5
 2757 00a4 B1000000 		.4byte	0xb1
 2758 00a8 02       		.byte	0x2
 2759 00a9 23       		.byte	0x23
 2760 00aa 04       		.uleb128 0x4
 2761 00ab 00       		.byte	0
 2762 00ac 08       		.uleb128 0x8
 2763 00ad 83000000 		.4byte	0x83
 2764 00b1 09       		.uleb128 0x9
 2765 00b2 04       		.byte	0x4
 2766 00b3 83000000 		.4byte	0x83
 2767 00b7 08       		.uleb128 0x8
 2768 00b8 B1000000 		.4byte	0xb1
 2769 00bc 05       		.uleb128 0x5
 2770 00bd 22000000 		.4byte	.LASF12
 2771 00c1 05       		.byte	0x5
 2772 00c2 07       		.byte	0x7
 2773 00c3 5F000000 		.4byte	0x5f
 2774 00c7 06       		.uleb128 0x6
 2775 00c8 C9040000 		.4byte	.LASF14
 2776 00cc 0C       		.byte	0xc
 2777 00cd 05       		.byte	0x5
 2778 00ce 09       		.byte	0x9
 2779 00cf F0000000 		.4byte	0xf0
 2780 00d3 07       		.uleb128 0x7
 2781 00d4 EB030000 		.4byte	.LASF15
 2782 00d8 05       		.byte	0x5
 2783 00d9 0A       		.byte	0xa
 2784 00da 83000000 		.4byte	0x83
 2785 00de 02       		.byte	0x2
 2786 00df 23       		.byte	0x23
 2787 00e0 00       		.uleb128 0
 2788 00e1 07       		.uleb128 0x7
 2789 00e2 CD050000 		.4byte	.LASF16
 2790 00e6 05       		.byte	0x5
 2791 00e7 0B       		.byte	0xb
 2792 00e8 BC000000 		.4byte	0xbc
 2793 00ec 02       		.byte	0x2
 2794 00ed 23       		.byte	0x23
 2795 00ee 08       		.uleb128 0x8
 2796 00ef 00       		.byte	0
 2797 00f0 0A       		.uleb128 0xa
 2798 00f1 494C00   		.ascii	"IL\000"
 2799 00f4 05       		.byte	0x5
ARM GAS  G:\Users\Jaxb\AppData\Local\Temp\ccEJJHY8.s 			page 64


 2800 00f5 0C       		.byte	0xc
 2801 00f6 C7000000 		.4byte	0xc7
 2802 00fa 08       		.uleb128 0x8
 2803 00fb F0000000 		.4byte	0xf0
 2804 00ff 06       		.uleb128 0x6
 2805 0100 AD040000 		.4byte	.LASF17
 2806 0104 24       		.byte	0x24
 2807 0105 06       		.byte	0x6
 2808 0106 06       		.byte	0x6
 2809 0107 44010000 		.4byte	0x144
 2810 010b 07       		.uleb128 0x7
 2811 010c 6B030000 		.4byte	.LASF18
 2812 0110 06       		.byte	0x6
 2813 0111 08       		.byte	0x8
 2814 0112 F0000000 		.4byte	0xf0
 2815 0116 02       		.byte	0x2
 2816 0117 23       		.byte	0x23
 2817 0118 00       		.uleb128 0
 2818 0119 07       		.uleb128 0x7
 2819 011a CD020000 		.4byte	.LASF19
 2820 011e 06       		.byte	0x6
 2821 011f 09       		.byte	0x9
 2822 0120 83000000 		.4byte	0x83
 2823 0124 02       		.byte	0x2
 2824 0125 23       		.byte	0x23
 2825 0126 0C       		.uleb128 0xc
 2826 0127 07       		.uleb128 0x7
 2827 0128 79000000 		.4byte	.LASF20
 2828 012c 06       		.byte	0x6
 2829 012d 0A       		.byte	0xa
 2830 012e 83000000 		.4byte	0x83
 2831 0132 02       		.byte	0x2
 2832 0133 23       		.byte	0x23
 2833 0134 14       		.uleb128 0x14
 2834 0135 07       		.uleb128 0x7
 2835 0136 8B020000 		.4byte	.LASF21
 2836 013a 06       		.byte	0x6
 2837 013b 0B       		.byte	0xb
 2838 013c 83000000 		.4byte	0x83
 2839 0140 02       		.byte	0x2
 2840 0141 23       		.byte	0x23
 2841 0142 1C       		.uleb128 0x1c
 2842 0143 00       		.byte	0
 2843 0144 06       		.uleb128 0x6
 2844 0145 3E040000 		.4byte	.LASF22
 2845 0149 24       		.byte	0x24
 2846 014a 06       		.byte	0x6
 2847 014b 12       		.byte	0x12
 2848 014c B3010000 		.4byte	0x1b3
 2849 0150 07       		.uleb128 0x7
 2850 0151 1C040000 		.4byte	.LASF23
 2851 0155 06       		.byte	0x6
 2852 0156 14       		.byte	0x14
 2853 0157 B3010000 		.4byte	0x1b3
 2854 015b 02       		.byte	0x2
 2855 015c 23       		.byte	0x23
 2856 015d 00       		.uleb128 0
ARM GAS  G:\Users\Jaxb\AppData\Local\Temp\ccEJJHY8.s 			page 65


 2857 015e 07       		.uleb128 0x7
 2858 015f 14040000 		.4byte	.LASF24
 2859 0163 06       		.byte	0x6
 2860 0164 15       		.byte	0x15
 2861 0165 B3010000 		.4byte	0x1b3
 2862 0169 02       		.byte	0x2
 2863 016a 23       		.byte	0x23
 2864 016b 04       		.uleb128 0x4
 2865 016c 07       		.uleb128 0x7
 2866 016d 87050000 		.4byte	.LASF25
 2867 0171 06       		.byte	0x6
 2868 0172 16       		.byte	0x16
 2869 0173 6A000000 		.4byte	0x6a
 2870 0177 02       		.byte	0x2
 2871 0178 23       		.byte	0x23
 2872 0179 08       		.uleb128 0x8
 2873 017a 07       		.uleb128 0x7
 2874 017b 12020000 		.4byte	.LASF26
 2875 017f 06       		.byte	0x6
 2876 0180 17       		.byte	0x17
 2877 0181 6A000000 		.4byte	0x6a
 2878 0185 02       		.byte	0x2
 2879 0186 23       		.byte	0x23
 2880 0187 0C       		.uleb128 0xc
 2881 0188 07       		.uleb128 0x7
 2882 0189 2F000000 		.4byte	.LASF27
 2883 018d 06       		.byte	0x6
 2884 018e 18       		.byte	0x18
 2885 018f 6A000000 		.4byte	0x6a
 2886 0193 02       		.byte	0x2
 2887 0194 23       		.byte	0x23
 2888 0195 10       		.uleb128 0x10
 2889 0196 07       		.uleb128 0x7
 2890 0197 5F000000 		.4byte	.LASF28
 2891 019b 06       		.byte	0x6
 2892 019c 19       		.byte	0x19
 2893 019d 83000000 		.4byte	0x83
 2894 01a1 02       		.byte	0x2
 2895 01a2 23       		.byte	0x23
 2896 01a3 14       		.uleb128 0x14
 2897 01a4 07       		.uleb128 0x7
 2898 01a5 D2050000 		.4byte	.LASF29
 2899 01a9 06       		.byte	0x6
 2900 01aa 1A       		.byte	0x1a
 2901 01ab 83000000 		.4byte	0x83
 2902 01af 02       		.byte	0x2
 2903 01b0 23       		.byte	0x23
 2904 01b1 1C       		.uleb128 0x1c
 2905 01b2 00       		.byte	0
 2906 01b3 0B       		.uleb128 0xb
 2907 01b4 04       		.byte	0x4
 2908 01b5 02       		.uleb128 0x2
 2909 01b6 01       		.byte	0x1
 2910 01b7 08       		.byte	0x8
 2911 01b8 AE030000 		.4byte	.LASF30
 2912 01bc 08       		.uleb128 0x8
 2913 01bd B5010000 		.4byte	0x1b5
ARM GAS  G:\Users\Jaxb\AppData\Local\Temp\ccEJJHY8.s 			page 66


 2914 01c1 06       		.uleb128 0x6
 2915 01c2 83010000 		.4byte	.LASF31
 2916 01c6 04       		.byte	0x4
 2917 01c7 02       		.byte	0x2
 2918 01c8 04       		.byte	0x4
 2919 01c9 DC010000 		.4byte	0x1dc
 2920 01cd 07       		.uleb128 0x7
 2921 01ce DD050000 		.4byte	.LASF10
 2922 01d2 02       		.byte	0x2
 2923 01d3 05       		.byte	0x5
 2924 01d4 E1010000 		.4byte	0x1e1
 2925 01d8 02       		.byte	0x2
 2926 01d9 23       		.byte	0x23
 2927 01da 00       		.uleb128 0
 2928 01db 00       		.byte	0
 2929 01dc 08       		.uleb128 0x8
 2930 01dd C1010000 		.4byte	0x1c1
 2931 01e1 09       		.uleb128 0x9
 2932 01e2 04       		.byte	0x4
 2933 01e3 C1010000 		.4byte	0x1c1
 2934 01e7 0C       		.uleb128 0xc
 2935 01e8 0004     		.2byte	0x400
 2936 01ea 07       		.byte	0x7
 2937 01eb 10       		.byte	0x10
 2938 01ec FD010000 		.4byte	0x1fd
 2939 01f0 0D       		.uleb128 0xd
 2940 01f1 6100     		.ascii	"a\000"
 2941 01f3 07       		.byte	0x7
 2942 01f4 11       		.byte	0x11
 2943 01f5 FD010000 		.4byte	0x1fd
 2944 01f9 02       		.byte	0x2
 2945 01fa 23       		.byte	0x23
 2946 01fb 00       		.uleb128 0
 2947 01fc 00       		.byte	0
 2948 01fd 0E       		.uleb128 0xe
 2949 01fe 33000000 		.4byte	0x33
 2950 0202 0D020000 		.4byte	0x20d
 2951 0206 0F       		.uleb128 0xf
 2952 0207 6A000000 		.4byte	0x6a
 2953 020b FF       		.byte	0xff
 2954 020c 00       		.byte	0
 2955 020d 05       		.uleb128 0x5
 2956 020e 57020000 		.4byte	.LASF32
 2957 0212 07       		.byte	0x7
 2958 0213 12       		.byte	0x12
 2959 0214 E7010000 		.4byte	0x1e7
 2960 0218 05       		.uleb128 0x5
 2961 0219 3E030000 		.4byte	.LASF33
 2962 021d 07       		.byte	0x7
 2963 021e 14       		.byte	0x14
 2964 021f 5F000000 		.4byte	0x5f
 2965 0223 05       		.uleb128 0x5
 2966 0224 4E010000 		.4byte	.LASF34
 2967 0228 07       		.byte	0x7
 2968 0229 15       		.byte	0x15
 2969 022a 4D000000 		.4byte	0x4d
 2970 022e 05       		.uleb128 0x5
ARM GAS  G:\Users\Jaxb\AppData\Local\Temp\ccEJJHY8.s 			page 67


 2971 022f 37020000 		.4byte	.LASF35
 2972 0233 07       		.byte	0x7
 2973 0234 16       		.byte	0x16
 2974 0235 0D020000 		.4byte	0x20d
 2975 0239 06       		.uleb128 0x6
 2976 023a 44000000 		.4byte	.LASF36
 2977 023e 14       		.byte	0x14
 2978 023f 07       		.byte	0x7
 2979 0240 19       		.byte	0x19
 2980 0241 8C020000 		.4byte	0x28c
 2981 0245 07       		.uleb128 0x7
 2982 0246 6A020000 		.4byte	.LASF37
 2983 024a 07       		.byte	0x7
 2984 024b 1A       		.byte	0x1a
 2985 024c 6A000000 		.4byte	0x6a
 2986 0250 02       		.byte	0x2
 2987 0251 23       		.byte	0x23
 2988 0252 00       		.uleb128 0
 2989 0253 07       		.uleb128 0x7
 2990 0254 2E020000 		.4byte	.LASF38
 2991 0258 07       		.byte	0x7
 2992 0259 1B       		.byte	0x1b
 2993 025a 6A000000 		.4byte	0x6a
 2994 025e 02       		.byte	0x2
 2995 025f 23       		.byte	0x23
 2996 0260 04       		.uleb128 0x4
 2997 0261 07       		.uleb128 0x7
 2998 0262 83030000 		.4byte	.LASF39
 2999 0266 07       		.byte	0x7
 3000 0267 1C       		.byte	0x1c
 3001 0268 6A000000 		.4byte	0x6a
 3002 026c 02       		.byte	0x2
 3003 026d 23       		.byte	0x23
 3004 026e 08       		.uleb128 0x8
 3005 026f 07       		.uleb128 0x7
 3006 0270 CD050000 		.4byte	.LASF16
 3007 0274 07       		.byte	0x7
 3008 0275 1D       		.byte	0x1d
 3009 0276 6A000000 		.4byte	0x6a
 3010 027a 02       		.byte	0x2
 3011 027b 23       		.byte	0x23
 3012 027c 0C       		.uleb128 0xc
 3013 027d 07       		.uleb128 0x7
 3014 027e 43040000 		.4byte	.LASF40
 3015 0282 07       		.byte	0x7
 3016 0283 1E       		.byte	0x1e
 3017 0284 6A000000 		.4byte	0x6a
 3018 0288 02       		.byte	0x2
 3019 0289 23       		.byte	0x23
 3020 028a 10       		.uleb128 0x10
 3021 028b 00       		.byte	0
 3022 028c 06       		.uleb128 0x6
 3023 028d 38010000 		.4byte	.LASF41
 3024 0291 04       		.byte	0x4
 3025 0292 07       		.byte	0x7
 3026 0293 21       		.byte	0x21
 3027 0294 B5020000 		.4byte	0x2b5
ARM GAS  G:\Users\Jaxb\AppData\Local\Temp\ccEJJHY8.s 			page 68


 3028 0298 0D       		.uleb128 0xd
 3029 0299 6E756D00 		.ascii	"num\000"
 3030 029d 07       		.byte	0x7
 3031 029e 22       		.byte	0x22
 3032 029f 23020000 		.4byte	0x223
 3033 02a3 02       		.byte	0x2
 3034 02a4 23       		.byte	0x23
 3035 02a5 00       		.uleb128 0
 3036 02a6 07       		.uleb128 0x7
 3037 02a7 DD050000 		.4byte	.LASF10
 3038 02ab 07       		.byte	0x7
 3039 02ac 23       		.byte	0x23
 3040 02ad 23020000 		.4byte	0x223
 3041 02b1 02       		.byte	0x2
 3042 02b2 23       		.byte	0x23
 3043 02b3 02       		.uleb128 0x2
 3044 02b4 00       		.byte	0
 3045 02b5 06       		.uleb128 0x6
 3046 02b6 94010000 		.4byte	.LASF42
 3047 02ba 0C       		.byte	0xc
 3048 02bb 07       		.byte	0x7
 3049 02bc 26       		.byte	0x26
 3050 02bd EC020000 		.4byte	0x2ec
 3051 02c1 07       		.uleb128 0x7
 3052 02c2 79040000 		.4byte	.LASF43
 3053 02c6 07       		.byte	0x7
 3054 02c7 27       		.byte	0x27
 3055 02c8 6A000000 		.4byte	0x6a
 3056 02cc 02       		.byte	0x2
 3057 02cd 23       		.byte	0x23
 3058 02ce 00       		.uleb128 0
 3059 02cf 0D       		.uleb128 0xd
 3060 02d0 70747200 		.ascii	"ptr\000"
 3061 02d4 07       		.byte	0x7
 3062 02d5 28       		.byte	0x28
 3063 02d6 B3010000 		.4byte	0x1b3
 3064 02da 02       		.byte	0x2
 3065 02db 23       		.byte	0x23
 3066 02dc 04       		.uleb128 0x4
 3067 02dd 07       		.uleb128 0x7
 3068 02de 1E010000 		.4byte	.LASF44
 3069 02e2 07       		.byte	0x7
 3070 02e3 29       		.byte	0x29
 3071 02e4 C1010000 		.4byte	0x1c1
 3072 02e8 02       		.byte	0x2
 3073 02e9 23       		.byte	0x23
 3074 02ea 08       		.uleb128 0x8
 3075 02eb 00       		.byte	0
 3076 02ec 06       		.uleb128 0x6
 3077 02ed 26040000 		.4byte	.LASF45
 3078 02f1 3C       		.byte	0x3c
 3079 02f2 07       		.byte	0x7
 3080 02f3 39       		.byte	0x39
 3081 02f4 93030000 		.4byte	0x393
 3082 02f8 07       		.uleb128 0x7
 3083 02f9 82050000 		.4byte	.LASF46
 3084 02fd 07       		.byte	0x7
ARM GAS  G:\Users\Jaxb\AppData\Local\Temp\ccEJJHY8.s 			page 69


 3085 02fe 3A       		.byte	0x3a
 3086 02ff 93030000 		.4byte	0x393
 3087 0303 02       		.byte	0x2
 3088 0304 23       		.byte	0x23
 3089 0305 00       		.uleb128 0
 3090 0306 07       		.uleb128 0x7
 3091 0307 6A000000 		.4byte	.LASF47
 3092 030b 07       		.byte	0x7
 3093 030c 3B       		.byte	0x3b
 3094 030d 99030000 		.4byte	0x399
 3095 0311 02       		.byte	0x2
 3096 0312 23       		.byte	0x23
 3097 0313 04       		.uleb128 0x4
 3098 0314 07       		.uleb128 0x7
 3099 0315 48030000 		.4byte	.LASF48
 3100 0319 07       		.byte	0x7
 3101 031a 3C       		.byte	0x3c
 3102 031b 23020000 		.4byte	0x223
 3103 031f 02       		.byte	0x2
 3104 0320 23       		.byte	0x23
 3105 0321 08       		.uleb128 0x8
 3106 0322 07       		.uleb128 0x7
 3107 0323 28010000 		.4byte	.LASF49
 3108 0327 07       		.byte	0x7
 3109 0328 3D       		.byte	0x3d
 3110 0329 9F030000 		.4byte	0x39f
 3111 032d 02       		.byte	0x2
 3112 032e 23       		.byte	0x23
 3113 032f 0C       		.uleb128 0xc
 3114 0330 07       		.uleb128 0x7
 3115 0331 C1050000 		.4byte	.LASF50
 3116 0335 07       		.byte	0x7
 3117 0336 3E       		.byte	0x3e
 3118 0337 9F030000 		.4byte	0x39f
 3119 033b 02       		.byte	0x2
 3120 033c 23       		.byte	0x23
 3121 033d 10       		.uleb128 0x10
 3122 033e 07       		.uleb128 0x7
 3123 033f 2E030000 		.4byte	.LASF51
 3124 0343 07       		.byte	0x7
 3125 0344 3F       		.byte	0x3f
 3126 0345 A5030000 		.4byte	0x3a5
 3127 0349 02       		.byte	0x2
 3128 034a 23       		.byte	0x23
 3129 034b 14       		.uleb128 0x14
 3130 034c 07       		.uleb128 0x7
 3131 034d 59030000 		.4byte	.LASF52
 3132 0351 07       		.byte	0x7
 3133 0352 40       		.byte	0x40
 3134 0353 6A000000 		.4byte	0x6a
 3135 0357 02       		.byte	0x2
 3136 0358 23       		.byte	0x23
 3137 0359 18       		.uleb128 0x18
 3138 035a 07       		.uleb128 0x7
 3139 035b B8040000 		.4byte	.LASF53
 3140 035f 07       		.byte	0x7
 3141 0360 41       		.byte	0x41
ARM GAS  G:\Users\Jaxb\AppData\Local\Temp\ccEJJHY8.s 			page 70


 3142 0361 6A000000 		.4byte	0x6a
 3143 0365 02       		.byte	0x2
 3144 0366 23       		.byte	0x23
 3145 0367 1C       		.uleb128 0x1c
 3146 0368 07       		.uleb128 0x7
 3147 0369 74040000 		.4byte	.LASF54
 3148 036d 07       		.byte	0x7
 3149 036e 42       		.byte	0x42
 3150 036f 39020000 		.4byte	0x239
 3151 0373 02       		.byte	0x2
 3152 0374 23       		.byte	0x23
 3153 0375 20       		.uleb128 0x20
 3154 0376 07       		.uleb128 0x7
 3155 0377 DD050000 		.4byte	.LASF10
 3156 037b 07       		.byte	0x7
 3157 037c 43       		.byte	0x43
 3158 037d AB030000 		.4byte	0x3ab
 3159 0381 02       		.byte	0x2
 3160 0382 23       		.byte	0x23
 3161 0383 34       		.uleb128 0x34
 3162 0384 07       		.uleb128 0x7
 3163 0385 8A040000 		.4byte	.LASF55
 3164 0389 07       		.byte	0x7
 3165 038a 44       		.byte	0x44
 3166 038b B1030000 		.4byte	0x3b1
 3167 038f 02       		.byte	0x2
 3168 0390 23       		.byte	0x23
 3169 0391 38       		.uleb128 0x38
 3170 0392 00       		.byte	0
 3171 0393 09       		.uleb128 0x9
 3172 0394 04       		.byte	0x4
 3173 0395 18020000 		.4byte	0x218
 3174 0399 09       		.uleb128 0x9
 3175 039a 04       		.byte	0x4
 3176 039b 8C020000 		.4byte	0x28c
 3177 039f 09       		.uleb128 0x9
 3178 03a0 04       		.byte	0x4
 3179 03a1 23020000 		.4byte	0x223
 3180 03a5 09       		.uleb128 0x9
 3181 03a6 04       		.byte	0x4
 3182 03a7 4D000000 		.4byte	0x4d
 3183 03ab 09       		.uleb128 0x9
 3184 03ac 04       		.byte	0x4
 3185 03ad EC020000 		.4byte	0x2ec
 3186 03b1 09       		.uleb128 0x9
 3187 03b2 04       		.byte	0x4
 3188 03b3 2E020000 		.4byte	0x22e
 3189 03b7 05       		.uleb128 0x5
 3190 03b8 C9030000 		.4byte	.LASF56
 3191 03bc 08       		.byte	0x8
 3192 03bd 04       		.byte	0x4
 3193 03be 6A000000 		.4byte	0x6a
 3194 03c2 05       		.uleb128 0x5
 3195 03c3 9E050000 		.4byte	.LASF57
 3196 03c7 08       		.byte	0x8
 3197 03c8 06       		.byte	0x6
 3198 03c9 B7030000 		.4byte	0x3b7
ARM GAS  G:\Users\Jaxb\AppData\Local\Temp\ccEJJHY8.s 			page 71


 3199 03cd 10       		.uleb128 0x10
 3200 03ce 79020000 		.4byte	.LASF63
 3201 03d2 09       		.byte	0x9
 3202 03d3 12       		.byte	0x12
 3203 03d4 3A000000 		.4byte	0x3a
 3204 03d8 01       		.byte	0x1
 3205 03d9 01       		.byte	0x1
 3206 03da 11       		.uleb128 0x11
 3207 03db 67010000 		.4byte	.LASF58
 3208 03df 03       		.byte	0x3
 3209 03e0 0B       		.byte	0xb
 3210 03e1 83000000 		.4byte	0x83
 3211 03e5 05       		.byte	0x5
 3212 03e6 03       		.byte	0x3
 3213 03e7 00000000 		.4byte	cache_chain_head
 3214 03eb 11       		.uleb128 0x11
 3215 03ec 21020000 		.4byte	.LASF59
 3216 03f0 03       		.byte	0x3
 3217 03f1 0C       		.byte	0xc
 3218 03f2 FF000000 		.4byte	0xff
 3219 03f6 05       		.byte	0x5
 3220 03f7 03       		.byte	0x3
 3221 03f8 08000000 		.4byte	kmem_cache16
 3222 03fc 11       		.uleb128 0x11
 3223 03fd A0040000 		.4byte	.LASF60
 3224 0401 03       		.byte	0x3
 3225 0402 0D       		.byte	0xd
 3226 0403 FF000000 		.4byte	0xff
 3227 0407 05       		.byte	0x5
 3228 0408 03       		.byte	0x3
 3229 0409 2C000000 		.4byte	kmem_cache32
 3230 040d 11       		.uleb128 0x11
 3231 040e B3030000 		.4byte	.LASF61
 3232 0412 03       		.byte	0x3
 3233 0413 0E       		.byte	0xe
 3234 0414 FF000000 		.4byte	0xff
 3235 0418 05       		.byte	0x5
 3236 0419 03       		.byte	0x3
 3237 041a 50000000 		.4byte	kmem_cache_kmem_cache
 3238 041e 11       		.uleb128 0x11
 3239 041f A5050000 		.4byte	.LASF62
 3240 0423 03       		.byte	0x3
 3241 0424 0F       		.byte	0xf
 3242 0425 FF000000 		.4byte	0xff
 3243 0429 05       		.byte	0x5
 3244 042a 03       		.byte	0x3
 3245 042b 74000000 		.4byte	kmem_cache_TCB
 3246 042f 12       		.uleb128 0x12
 3247 0430 0C030000 		.4byte	.LASF64
 3248 0434 03       		.byte	0x3
 3249 0435 10       		.byte	0x10
 3250 0436 B7000000 		.4byte	0xb7
 3251 043a 01       		.byte	0x1
 3252 043b 05       		.byte	0x5
 3253 043c 03       		.byte	0x3
 3254 043d 00000000 		.4byte	cache_chain_head_ptr
 3255 0441 11       		.uleb128 0x11
ARM GAS  G:\Users\Jaxb\AppData\Local\Temp\ccEJJHY8.s 			page 72


 3256 0442 D4030000 		.4byte	.LASF65
 3257 0446 03       		.byte	0x3
 3258 0447 12       		.byte	0x12
 3259 0448 C1010000 		.4byte	0x1c1
 3260 044c 05       		.byte	0x5
 3261 044d 03       		.byte	0x3
 3262 044e 98000000 		.4byte	page_alloc_record_head
 3263 0452 13       		.uleb128 0x13
 3264 0453 01       		.byte	0x1
 3265 0454 FC030000 		.4byte	.LASF74
 3266 0458 03       		.byte	0x3
 3267 0459 C601     		.2byte	0x1c6
 3268 045b 01       		.byte	0x1
 3269 045c 440A0000 		.4byte	.LFB25
 3270 0460 E00C0000 		.4byte	.LFE25
 3271 0464 00000000 		.4byte	.LLST19
 3272 0468 01       		.byte	0x1
 3273 0469 EE050000 		.4byte	0x5ee
 3274 046d 14       		.uleb128 0x14
 3275 046e 74000000 		.4byte	.LASF66
 3276 0472 03       		.byte	0x3
 3277 0473 C601     		.2byte	0x1c6
 3278 0475 33000000 		.4byte	0x33
 3279 0479 03       		.byte	0x3
 3280 047a 91       		.byte	0x91
 3281 047b AC7F     		.sleb128 -84
 3282 047d 14       		.uleb128 0x14
 3283 047e B7010000 		.4byte	.LASF67
 3284 0482 03       		.byte	0x3
 3285 0483 C601     		.2byte	0x1c6
 3286 0485 EE050000 		.4byte	0x5ee
 3287 0489 03       		.byte	0x3
 3288 048a 91       		.byte	0x91
 3289 048b A87F     		.sleb128 -88
 3290 048d 15       		.uleb128 0x15
 3291 048e 706F7300 		.ascii	"pos\000"
 3292 0492 03       		.byte	0x3
 3293 0493 CA01     		.2byte	0x1ca
 3294 0495 B1000000 		.4byte	0xb1
 3295 0499 02       		.byte	0x2
 3296 049a 91       		.byte	0x91
 3297 049b 74       		.sleb128 -12
 3298 049c 16       		.uleb128 0x16
 3299 049d A0030000 		.4byte	.LASF68
 3300 04a1 03       		.byte	0x3
 3301 04a2 CB01     		.2byte	0x1cb
 3302 04a4 FA050000 		.4byte	0x5fa
 3303 04a8 02       		.byte	0x2
 3304 04a9 91       		.byte	0x91
 3305 04aa 4C       		.sleb128 -52
 3306 04ab 16       		.uleb128 0x16
 3307 04ac 48020000 		.4byte	.LASF69
 3308 04b0 03       		.byte	0x3
 3309 04b1 CC01     		.2byte	0x1cc
 3310 04b3 00060000 		.4byte	0x600
 3311 04b7 02       		.byte	0x2
 3312 04b8 91       		.byte	0x91
ARM GAS  G:\Users\Jaxb\AppData\Local\Temp\ccEJJHY8.s 			page 73


 3313 04b9 44       		.sleb128 -60
 3314 04ba 15       		.uleb128 0x15
 3315 04bb 6900     		.ascii	"i\000"
 3316 04bd 03       		.byte	0x3
 3317 04be CD01     		.2byte	0x1cd
 3318 04c0 33000000 		.4byte	0x33
 3319 04c4 02       		.byte	0x2
 3320 04c5 91       		.byte	0x91
 3321 04c6 70       		.sleb128 -16
 3322 04c7 16       		.uleb128 0x16
 3323 04c8 35040000 		.4byte	.LASF70
 3324 04cc 03       		.byte	0x3
 3325 04cd CE01     		.2byte	0x1ce
 3326 04cf 06060000 		.4byte	0x606
 3327 04d3 03       		.byte	0x3
 3328 04d4 91       		.byte	0x91
 3329 04d5 BC7F     		.sleb128 -68
 3330 04d7 16       		.uleb128 0x16
 3331 04d8 7B050000 		.4byte	.LASF71
 3332 04dc 03       		.byte	0x3
 3333 04dd CF01     		.2byte	0x1cf
 3334 04df C2030000 		.4byte	0x3c2
 3335 04e3 02       		.byte	0x2
 3336 04e4 91       		.byte	0x91
 3337 04e5 54       		.sleb128 -44
 3338 04e6 17       		.uleb128 0x17
 3339 04e7 720A0000 		.4byte	.LBB24
 3340 04eb 780A0000 		.4byte	.LBE24
 3341 04ef 03050000 		.4byte	0x503
 3342 04f3 16       		.uleb128 0x16
 3343 04f4 F2000000 		.4byte	.LASF72
 3344 04f8 03       		.byte	0x3
 3345 04f9 D401     		.2byte	0x1d4
 3346 04fb 0C060000 		.4byte	0x60c
 3347 04ff 02       		.byte	0x2
 3348 0500 91       		.byte	0x91
 3349 0501 50       		.sleb128 -48
 3350 0502 00       		.byte	0
 3351 0503 17       		.uleb128 0x17
 3352 0504 860A0000 		.4byte	.LBB25
 3353 0508 8C0A0000 		.4byte	.LBE25
 3354 050c 20050000 		.4byte	0x520
 3355 0510 16       		.uleb128 0x16
 3356 0511 F2000000 		.4byte	.LASF72
 3357 0515 03       		.byte	0x3
 3358 0516 D601     		.2byte	0x1d6
 3359 0518 12060000 		.4byte	0x612
 3360 051c 02       		.byte	0x2
 3361 051d 91       		.byte	0x91
 3362 051e 48       		.sleb128 -56
 3363 051f 00       		.byte	0
 3364 0520 17       		.uleb128 0x17
 3365 0521 9E0A0000 		.4byte	.LBB26
 3366 0525 220B0000 		.4byte	.LBE26
 3367 0529 65050000 		.4byte	0x565
 3368 052d 16       		.uleb128 0x16
 3369 052e 0D040000 		.4byte	.LASF73
ARM GAS  G:\Users\Jaxb\AppData\Local\Temp\ccEJJHY8.s 			page 74


 3370 0532 03       		.byte	0x3
 3371 0533 D901     		.2byte	0x1d9
 3372 0535 B1000000 		.4byte	0xb1
 3373 0539 02       		.byte	0x2
 3374 053a 91       		.byte	0x91
 3375 053b 6C       		.sleb128 -20
 3376 053c 15       		.uleb128 0x15
 3377 053d 6E756D00 		.ascii	"num\000"
 3378 0541 03       		.byte	0x3
 3379 0542 DA01     		.2byte	0x1da
 3380 0544 33000000 		.4byte	0x33
 3381 0548 02       		.byte	0x2
 3382 0549 91       		.byte	0x91
 3383 054a 68       		.sleb128 -24
 3384 054b 18       		.uleb128 0x18
 3385 054c BE0A0000 		.4byte	.LBB27
 3386 0550 C60A0000 		.4byte	.LBE27
 3387 0554 16       		.uleb128 0x16
 3388 0555 F2000000 		.4byte	.LASF72
 3389 0559 03       		.byte	0x3
 3390 055a DF01     		.2byte	0x1df
 3391 055c 0C060000 		.4byte	0x60c
 3392 0560 02       		.byte	0x2
 3393 0561 91       		.byte	0x91
 3394 0562 40       		.sleb128 -64
 3395 0563 00       		.byte	0
 3396 0564 00       		.byte	0
 3397 0565 17       		.uleb128 0x17
 3398 0566 400B0000 		.4byte	.LBB28
 3399 056a C40B0000 		.4byte	.LBE28
 3400 056e AB050000 		.4byte	0x5ab
 3401 0572 16       		.uleb128 0x16
 3402 0573 0D040000 		.4byte	.LASF73
 3403 0577 03       		.byte	0x3
 3404 0578 F001     		.2byte	0x1f0
 3405 057a B1000000 		.4byte	0xb1
 3406 057e 02       		.byte	0x2
 3407 057f 91       		.byte	0x91
 3408 0580 64       		.sleb128 -28
 3409 0581 15       		.uleb128 0x15
 3410 0582 6E756D00 		.ascii	"num\000"
 3411 0586 03       		.byte	0x3
 3412 0587 F101     		.2byte	0x1f1
 3413 0589 33000000 		.4byte	0x33
 3414 058d 02       		.byte	0x2
 3415 058e 91       		.byte	0x91
 3416 058f 60       		.sleb128 -32
 3417 0590 18       		.uleb128 0x18
 3418 0591 600B0000 		.4byte	.LBB29
 3419 0595 680B0000 		.4byte	.LBE29
 3420 0599 16       		.uleb128 0x16
 3421 059a F2000000 		.4byte	.LASF72
 3422 059e 03       		.byte	0x3
 3423 059f F601     		.2byte	0x1f6
 3424 05a1 0C060000 		.4byte	0x60c
 3425 05a5 03       		.byte	0x3
 3426 05a6 91       		.byte	0x91
ARM GAS  G:\Users\Jaxb\AppData\Local\Temp\ccEJJHY8.s 			page 75


 3427 05a7 B87F     		.sleb128 -72
 3428 05a9 00       		.byte	0
 3429 05aa 00       		.byte	0
 3430 05ab 18       		.uleb128 0x18
 3431 05ac E20B0000 		.4byte	.LBB30
 3432 05b0 660C0000 		.4byte	.LBE30
 3433 05b4 16       		.uleb128 0x16
 3434 05b5 0D040000 		.4byte	.LASF73
 3435 05b9 03       		.byte	0x3
 3436 05ba 0702     		.2byte	0x207
 3437 05bc B1000000 		.4byte	0xb1
 3438 05c0 02       		.byte	0x2
 3439 05c1 91       		.byte	0x91
 3440 05c2 5C       		.sleb128 -36
 3441 05c3 15       		.uleb128 0x15
 3442 05c4 6E756D00 		.ascii	"num\000"
 3443 05c8 03       		.byte	0x3
 3444 05c9 0802     		.2byte	0x208
 3445 05cb 33000000 		.4byte	0x33
 3446 05cf 02       		.byte	0x2
 3447 05d0 91       		.byte	0x91
 3448 05d1 58       		.sleb128 -40
 3449 05d2 18       		.uleb128 0x18
 3450 05d3 020C0000 		.4byte	.LBB31
 3451 05d7 0A0C0000 		.4byte	.LBE31
 3452 05db 16       		.uleb128 0x16
 3453 05dc F2000000 		.4byte	.LASF72
 3454 05e0 03       		.byte	0x3
 3455 05e1 0D02     		.2byte	0x20d
 3456 05e3 0C060000 		.4byte	0x60c
 3457 05e7 03       		.byte	0x3
 3458 05e8 91       		.byte	0x91
 3459 05e9 B47F     		.sleb128 -76
 3460 05eb 00       		.byte	0
 3461 05ec 00       		.byte	0
 3462 05ed 00       		.byte	0
 3463 05ee 09       		.uleb128 0x9
 3464 05ef 04       		.byte	0x4
 3465 05f0 F4050000 		.4byte	0x5f4
 3466 05f4 09       		.uleb128 0x9
 3467 05f5 04       		.byte	0x4
 3468 05f6 BC010000 		.4byte	0x1bc
 3469 05fa 09       		.uleb128 0x9
 3470 05fb 04       		.byte	0x4
 3471 05fc F0000000 		.4byte	0xf0
 3472 0600 09       		.uleb128 0x9
 3473 0601 04       		.byte	0x4
 3474 0602 FF000000 		.4byte	0xff
 3475 0606 09       		.uleb128 0x9
 3476 0607 04       		.byte	0x4
 3477 0608 44010000 		.4byte	0x144
 3478 060c 09       		.uleb128 0x9
 3479 060d 04       		.byte	0x4
 3480 060e AC000000 		.4byte	0xac
 3481 0612 09       		.uleb128 0x9
 3482 0613 04       		.byte	0x4
 3483 0614 FA000000 		.4byte	0xfa
ARM GAS  G:\Users\Jaxb\AppData\Local\Temp\ccEJJHY8.s 			page 76


 3484 0618 13       		.uleb128 0x13
 3485 0619 01       		.byte	0x1
 3486 061a A6010000 		.4byte	.LASF75
 3487 061e 03       		.byte	0x3
 3488 061f 8501     		.2byte	0x185
 3489 0621 01       		.byte	0x1
 3490 0622 E8080000 		.4byte	.LFB24
 3491 0626 440A0000 		.4byte	.LFE24
 3492 062a 52000000 		.4byte	.LLST18
 3493 062e 01       		.byte	0x1
 3494 062f 57070000 		.4byte	0x757
 3495 0633 14       		.uleb128 0x14
 3496 0634 74000000 		.4byte	.LASF66
 3497 0638 03       		.byte	0x3
 3498 0639 8501     		.2byte	0x185
 3499 063b 33000000 		.4byte	0x33
 3500 063f 03       		.byte	0x3
 3501 0640 91       		.byte	0x91
 3502 0641 BC7F     		.sleb128 -68
 3503 0643 14       		.uleb128 0x14
 3504 0644 B7010000 		.4byte	.LASF67
 3505 0648 03       		.byte	0x3
 3506 0649 8501     		.2byte	0x185
 3507 064b EE050000 		.4byte	0x5ee
 3508 064f 03       		.byte	0x3
 3509 0650 91       		.byte	0x91
 3510 0651 B87F     		.sleb128 -72
 3511 0653 15       		.uleb128 0x15
 3512 0654 706F7300 		.ascii	"pos\000"
 3513 0658 03       		.byte	0x3
 3514 0659 8901     		.2byte	0x189
 3515 065b B1000000 		.4byte	0xb1
 3516 065f 02       		.byte	0x2
 3517 0660 91       		.byte	0x91
 3518 0661 74       		.sleb128 -12
 3519 0662 16       		.uleb128 0x16
 3520 0663 A0030000 		.4byte	.LASF68
 3521 0667 03       		.byte	0x3
 3522 0668 8A01     		.2byte	0x18a
 3523 066a FA050000 		.4byte	0x5fa
 3524 066e 02       		.byte	0x2
 3525 066f 91       		.byte	0x91
 3526 0670 4C       		.sleb128 -52
 3527 0671 16       		.uleb128 0x16
 3528 0672 48020000 		.4byte	.LASF69
 3529 0676 03       		.byte	0x3
 3530 0677 8B01     		.2byte	0x18b
 3531 0679 00060000 		.4byte	0x600
 3532 067d 02       		.byte	0x2
 3533 067e 91       		.byte	0x91
 3534 067f 44       		.sleb128 -60
 3535 0680 15       		.uleb128 0x15
 3536 0681 6900     		.ascii	"i\000"
 3537 0683 03       		.byte	0x3
 3538 0684 8C01     		.2byte	0x18c
 3539 0686 33000000 		.4byte	0x33
 3540 068a 02       		.byte	0x2
ARM GAS  G:\Users\Jaxb\AppData\Local\Temp\ccEJJHY8.s 			page 77


 3541 068b 91       		.byte	0x91
 3542 068c 70       		.sleb128 -16
 3543 068d 16       		.uleb128 0x16
 3544 068e 7B050000 		.4byte	.LASF71
 3545 0692 03       		.byte	0x3
 3546 0693 8D01     		.2byte	0x18d
 3547 0695 C2030000 		.4byte	0x3c2
 3548 0699 02       		.byte	0x2
 3549 069a 91       		.byte	0x91
 3550 069b 54       		.sleb128 -44
 3551 069c 17       		.uleb128 0x17
 3552 069d 16090000 		.4byte	.LBB19
 3553 06a1 1C090000 		.4byte	.LBE19
 3554 06a5 B9060000 		.4byte	0x6b9
 3555 06a9 16       		.uleb128 0x16
 3556 06aa F2000000 		.4byte	.LASF72
 3557 06ae 03       		.byte	0x3
 3558 06af 9201     		.2byte	0x192
 3559 06b1 0C060000 		.4byte	0x60c
 3560 06b5 02       		.byte	0x2
 3561 06b6 91       		.byte	0x91
 3562 06b7 50       		.sleb128 -48
 3563 06b8 00       		.byte	0
 3564 06b9 17       		.uleb128 0x17
 3565 06ba 2A090000 		.4byte	.LBB20
 3566 06be 30090000 		.4byte	.LBE20
 3567 06c2 D6060000 		.4byte	0x6d6
 3568 06c6 16       		.uleb128 0x16
 3569 06c7 F2000000 		.4byte	.LASF72
 3570 06cb 03       		.byte	0x3
 3571 06cc 9401     		.2byte	0x194
 3572 06ce 12060000 		.4byte	0x612
 3573 06d2 02       		.byte	0x2
 3574 06d3 91       		.byte	0x91
 3575 06d4 48       		.sleb128 -56
 3576 06d5 00       		.byte	0
 3577 06d6 17       		.uleb128 0x17
 3578 06d7 42090000 		.4byte	.LBB21
 3579 06db 6C090000 		.4byte	.LBE21
 3580 06df 02070000 		.4byte	0x702
 3581 06e3 16       		.uleb128 0x16
 3582 06e4 0D040000 		.4byte	.LASF73
 3583 06e8 03       		.byte	0x3
 3584 06e9 9701     		.2byte	0x197
 3585 06eb B1000000 		.4byte	0xb1
 3586 06ef 02       		.byte	0x2
 3587 06f0 91       		.byte	0x91
 3588 06f1 6C       		.sleb128 -20
 3589 06f2 15       		.uleb128 0x15
 3590 06f3 6E756D00 		.ascii	"num\000"
 3591 06f7 03       		.byte	0x3
 3592 06f8 9801     		.2byte	0x198
 3593 06fa 33000000 		.4byte	0x33
 3594 06fe 02       		.byte	0x2
 3595 06ff 91       		.byte	0x91
 3596 0700 68       		.sleb128 -24
 3597 0701 00       		.byte	0
ARM GAS  G:\Users\Jaxb\AppData\Local\Temp\ccEJJHY8.s 			page 78


 3598 0702 17       		.uleb128 0x17
 3599 0703 84090000 		.4byte	.LBB22
 3600 0707 AE090000 		.4byte	.LBE22
 3601 070b 2E070000 		.4byte	0x72e
 3602 070f 16       		.uleb128 0x16
 3603 0710 0D040000 		.4byte	.LASF73
 3604 0714 03       		.byte	0x3
 3605 0715 A501     		.2byte	0x1a5
 3606 0717 B1000000 		.4byte	0xb1
 3607 071b 02       		.byte	0x2
 3608 071c 91       		.byte	0x91
 3609 071d 64       		.sleb128 -28
 3610 071e 15       		.uleb128 0x15
 3611 071f 6E756D00 		.ascii	"num\000"
 3612 0723 03       		.byte	0x3
 3613 0724 A601     		.2byte	0x1a6
 3614 0726 33000000 		.4byte	0x33
 3615 072a 02       		.byte	0x2
 3616 072b 91       		.byte	0x91
 3617 072c 60       		.sleb128 -32
 3618 072d 00       		.byte	0
 3619 072e 18       		.uleb128 0x18
 3620 072f C6090000 		.4byte	.LBB23
 3621 0733 F0090000 		.4byte	.LBE23
 3622 0737 16       		.uleb128 0x16
 3623 0738 0D040000 		.4byte	.LASF73
 3624 073c 03       		.byte	0x3
 3625 073d B301     		.2byte	0x1b3
 3626 073f B1000000 		.4byte	0xb1
 3627 0743 02       		.byte	0x2
 3628 0744 91       		.byte	0x91
 3629 0745 5C       		.sleb128 -36
 3630 0746 15       		.uleb128 0x15
 3631 0747 6E756D00 		.ascii	"num\000"
 3632 074b 03       		.byte	0x3
 3633 074c B401     		.2byte	0x1b4
 3634 074e 33000000 		.4byte	0x33
 3635 0752 02       		.byte	0x2
 3636 0753 91       		.byte	0x91
 3637 0754 58       		.sleb128 -40
 3638 0755 00       		.byte	0
 3639 0756 00       		.byte	0
 3640 0757 13       		.uleb128 0x13
 3641 0758 01       		.byte	0x1
 3642 0759 BC010000 		.4byte	.LASF76
 3643 075d 03       		.byte	0x3
 3644 075e 5101     		.2byte	0x151
 3645 0760 01       		.byte	0x1
 3646 0761 CC070000 		.4byte	.LFB23
 3647 0765 E8080000 		.4byte	.LFE23
 3648 0769 A4000000 		.4byte	.LLST17
 3649 076d 01       		.byte	0x1
 3650 076e 03080000 		.4byte	0x803
 3651 0772 19       		.uleb128 0x19
 3652 0773 70747200 		.ascii	"ptr\000"
 3653 0777 03       		.byte	0x3
 3654 0778 5101     		.2byte	0x151
ARM GAS  G:\Users\Jaxb\AppData\Local\Temp\ccEJJHY8.s 			page 79


 3655 077a B3010000 		.4byte	0x1b3
 3656 077e 02       		.byte	0x2
 3657 077f 91       		.byte	0x91
 3658 0780 54       		.sleb128 -44
 3659 0781 15       		.uleb128 0x15
 3660 0782 706F7300 		.ascii	"pos\000"
 3661 0786 03       		.byte	0x3
 3662 0787 5301     		.2byte	0x153
 3663 0789 B1000000 		.4byte	0xb1
 3664 078d 02       		.byte	0x2
 3665 078e 91       		.byte	0x91
 3666 078f 74       		.sleb128 -12
 3667 0790 16       		.uleb128 0x16
 3668 0791 48020000 		.4byte	.LASF69
 3669 0795 03       		.byte	0x3
 3670 0796 5401     		.2byte	0x154
 3671 0798 00060000 		.4byte	0x600
 3672 079c 02       		.byte	0x2
 3673 079d 91       		.byte	0x91
 3674 079e 60       		.sleb128 -32
 3675 079f 16       		.uleb128 0x16
 3676 07a0 A0030000 		.4byte	.LASF68
 3677 07a4 03       		.byte	0x3
 3678 07a5 5501     		.2byte	0x155
 3679 07a7 FA050000 		.4byte	0x5fa
 3680 07ab 02       		.byte	0x2
 3681 07ac 91       		.byte	0x91
 3682 07ad 68       		.sleb128 -24
 3683 07ae 16       		.uleb128 0x16
 3684 07af 35040000 		.4byte	.LASF70
 3685 07b3 03       		.byte	0x3
 3686 07b4 5601     		.2byte	0x156
 3687 07b6 06060000 		.4byte	0x606
 3688 07ba 02       		.byte	0x2
 3689 07bb 91       		.byte	0x91
 3690 07bc 5C       		.sleb128 -36
 3691 07bd 16       		.uleb128 0x16
 3692 07be 7B050000 		.4byte	.LASF71
 3693 07c2 03       		.byte	0x3
 3694 07c3 5701     		.2byte	0x157
 3695 07c5 C2030000 		.4byte	0x3c2
 3696 07c9 02       		.byte	0x2
 3697 07ca 91       		.byte	0x91
 3698 07cb 70       		.sleb128 -16
 3699 07cc 17       		.uleb128 0x17
 3700 07cd F2070000 		.4byte	.LBB17
 3701 07d1 F8070000 		.4byte	.LBE17
 3702 07d5 E9070000 		.4byte	0x7e9
 3703 07d9 16       		.uleb128 0x16
 3704 07da F2000000 		.4byte	.LASF72
 3705 07de 03       		.byte	0x3
 3706 07df 5F01     		.2byte	0x15f
 3707 07e1 0C060000 		.4byte	0x60c
 3708 07e5 02       		.byte	0x2
 3709 07e6 91       		.byte	0x91
 3710 07e7 6C       		.sleb128 -20
 3711 07e8 00       		.byte	0
ARM GAS  G:\Users\Jaxb\AppData\Local\Temp\ccEJJHY8.s 			page 80


 3712 07e9 18       		.uleb128 0x18
 3713 07ea FA070000 		.4byte	.LBB18
 3714 07ee 00080000 		.4byte	.LBE18
 3715 07f2 16       		.uleb128 0x16
 3716 07f3 F2000000 		.4byte	.LASF72
 3717 07f7 03       		.byte	0x3
 3718 07f8 6001     		.2byte	0x160
 3719 07fa 12060000 		.4byte	0x612
 3720 07fe 02       		.byte	0x2
 3721 07ff 91       		.byte	0x91
 3722 0800 64       		.sleb128 -28
 3723 0801 00       		.byte	0
 3724 0802 00       		.byte	0
 3725 0803 1A       		.uleb128 0x1a
 3726 0804 01       		.byte	0x1
 3727 0805 B4050000 		.4byte	.LASF79
 3728 0809 03       		.byte	0x3
 3729 080a 4201     		.2byte	0x142
 3730 080c 01       		.byte	0x1
 3731 080d 33000000 		.4byte	0x33
 3732 0811 7C070000 		.4byte	.LFB22
 3733 0815 CC070000 		.4byte	.LFE22
 3734 0819 F4000000 		.4byte	.LLST16
 3735 081d 01       		.byte	0x1
 3736 081e 41080000 		.4byte	0x841
 3737 0822 19       		.uleb128 0x19
 3738 0823 70747200 		.ascii	"ptr\000"
 3739 0827 03       		.byte	0x3
 3740 0828 4201     		.2byte	0x142
 3741 082a B3010000 		.4byte	0x1b3
 3742 082e 02       		.byte	0x2
 3743 082f 91       		.byte	0x91
 3744 0830 6C       		.sleb128 -20
 3745 0831 16       		.uleb128 0x16
 3746 0832 F2030000 		.4byte	.LASF77
 3747 0836 03       		.byte	0x3
 3748 0837 4401     		.2byte	0x144
 3749 0839 AB030000 		.4byte	0x3ab
 3750 083d 02       		.byte	0x2
 3751 083e 91       		.byte	0x91
 3752 083f 74       		.sleb128 -12
 3753 0840 00       		.byte	0
 3754 0841 1B       		.uleb128 0x1b
 3755 0842 DA000000 		.4byte	.LASF82
 3756 0846 03       		.byte	0x3
 3757 0847 2F01     		.2byte	0x12f
 3758 0849 01       		.byte	0x1
 3759 084a 06060000 		.4byte	0x606
 3760 084e D4060000 		.4byte	.LFB21
 3761 0852 7C070000 		.4byte	.LFE21
 3762 0856 44010000 		.4byte	.LLST15
 3763 085a 01       		.byte	0x1
 3764 085b B5080000 		.4byte	0x8b5
 3765 085f 14       		.uleb128 0x14
 3766 0860 23010000 		.4byte	.LASF78
 3767 0864 03       		.byte	0x3
 3768 0865 2F01     		.2byte	0x12f
ARM GAS  G:\Users\Jaxb\AppData\Local\Temp\ccEJJHY8.s 			page 81


 3769 0867 B1000000 		.4byte	0xb1
 3770 086b 02       		.byte	0x2
 3771 086c 91       		.byte	0x91
 3772 086d 64       		.sleb128 -28
 3773 086e 19       		.uleb128 0x19
 3774 086f 70747200 		.ascii	"ptr\000"
 3775 0873 03       		.byte	0x3
 3776 0874 2F01     		.2byte	0x12f
 3777 0876 B3010000 		.4byte	0x1b3
 3778 087a 02       		.byte	0x2
 3779 087b 91       		.byte	0x91
 3780 087c 60       		.sleb128 -32
 3781 087d 15       		.uleb128 0x15
 3782 087e 706F7300 		.ascii	"pos\000"
 3783 0882 03       		.byte	0x3
 3784 0883 3101     		.2byte	0x131
 3785 0885 B1000000 		.4byte	0xb1
 3786 0889 02       		.byte	0x2
 3787 088a 91       		.byte	0x91
 3788 088b 74       		.sleb128 -12
 3789 088c 16       		.uleb128 0x16
 3790 088d 35040000 		.4byte	.LASF70
 3791 0891 03       		.byte	0x3
 3792 0892 3201     		.2byte	0x132
 3793 0894 06060000 		.4byte	0x606
 3794 0898 02       		.byte	0x2
 3795 0899 91       		.byte	0x91
 3796 089a 6C       		.sleb128 -20
 3797 089b 18       		.uleb128 0x18
 3798 089c E6060000 		.4byte	.LBB16
 3799 08a0 EE060000 		.4byte	.LBE16
 3800 08a4 16       		.uleb128 0x16
 3801 08a5 F2000000 		.4byte	.LASF72
 3802 08a9 03       		.byte	0x3
 3803 08aa 3501     		.2byte	0x135
 3804 08ac 0C060000 		.4byte	0x60c
 3805 08b0 02       		.byte	0x2
 3806 08b1 91       		.byte	0x91
 3807 08b2 70       		.sleb128 -16
 3808 08b3 00       		.byte	0
 3809 08b4 00       		.byte	0
 3810 08b5 1C       		.uleb128 0x1c
 3811 08b6 01       		.byte	0x1
 3812 08b7 AE000000 		.4byte	.LASF80
 3813 08bb 03       		.byte	0x3
 3814 08bc BE       		.byte	0xbe
 3815 08bd 01       		.byte	0x1
 3816 08be B3010000 		.4byte	0x1b3
 3817 08c2 94040000 		.4byte	.LFB20
 3818 08c6 D4060000 		.4byte	.LFE20
 3819 08ca 94010000 		.4byte	.LLST14
 3820 08ce 01       		.byte	0x1
 3821 08cf 0B0A0000 		.4byte	0xa0b
 3822 08d3 1D       		.uleb128 0x1d
 3823 08d4 58040000 		.4byte	.LASF81
 3824 08d8 03       		.byte	0x3
 3825 08d9 BE       		.byte	0xbe
ARM GAS  G:\Users\Jaxb\AppData\Local\Temp\ccEJJHY8.s 			page 82


 3826 08da 6A000000 		.4byte	0x6a
 3827 08de 03       		.byte	0x3
 3828 08df 91       		.byte	0x91
 3829 08e0 BC7F     		.sleb128 -68
 3830 08e2 1E       		.uleb128 0x1e
 3831 08e3 70747200 		.ascii	"ptr\000"
 3832 08e7 03       		.byte	0x3
 3833 08e8 C0       		.byte	0xc0
 3834 08e9 B3010000 		.4byte	0x1b3
 3835 08ed 02       		.byte	0x2
 3836 08ee 91       		.byte	0x91
 3837 08ef 68       		.sleb128 -24
 3838 08f0 11       		.uleb128 0x11
 3839 08f1 7B050000 		.4byte	.LASF71
 3840 08f5 03       		.byte	0x3
 3841 08f6 C1       		.byte	0xc1
 3842 08f7 C2030000 		.4byte	0x3c2
 3843 08fb 02       		.byte	0x2
 3844 08fc 91       		.byte	0x91
 3845 08fd 70       		.sleb128 -16
 3846 08fe 17       		.uleb128 0x17
 3847 08ff BA040000 		.4byte	.LBB4
 3848 0903 52060000 		.4byte	.LBE4
 3849 0907 F1090000 		.4byte	0x9f1
 3850 090b 11       		.uleb128 0x11
 3851 090c A0030000 		.4byte	.LASF68
 3852 0910 03       		.byte	0x3
 3853 0911 C9       		.byte	0xc9
 3854 0912 FA050000 		.4byte	0x5fa
 3855 0916 02       		.byte	0x2
 3856 0917 91       		.byte	0x91
 3857 0918 74       		.sleb128 -12
 3858 0919 1F       		.uleb128 0x1f
 3859 091a 00000000 		.4byte	.Ldebug_ranges0+0
 3860 091e D7090000 		.4byte	0x9d7
 3861 0922 11       		.uleb128 0x11
 3862 0923 48020000 		.4byte	.LASF69
 3863 0927 03       		.byte	0x3
 3864 0928 CE       		.byte	0xce
 3865 0929 00060000 		.4byte	0x600
 3866 092d 02       		.byte	0x2
 3867 092e 91       		.byte	0x91
 3868 092f 5C       		.sleb128 -36
 3869 0930 17       		.uleb128 0x17
 3870 0931 CC040000 		.4byte	.LBB6
 3871 0935 D2040000 		.4byte	.LBE6
 3872 0939 4C090000 		.4byte	0x94c
 3873 093d 11       		.uleb128 0x11
 3874 093e F2000000 		.4byte	.LASF72
 3875 0942 03       		.byte	0x3
 3876 0943 CE       		.byte	0xce
 3877 0944 12060000 		.4byte	0x612
 3878 0948 02       		.byte	0x2
 3879 0949 91       		.byte	0x91
 3880 094a 60       		.sleb128 -32
 3881 094b 00       		.byte	0
 3882 094c 17       		.uleb128 0x17
ARM GAS  G:\Users\Jaxb\AppData\Local\Temp\ccEJJHY8.s 			page 83


 3883 094d E4040000 		.4byte	.LBB7
 3884 0951 38050000 		.4byte	.LBE7
 3885 0955 80090000 		.4byte	0x980
 3886 0959 11       		.uleb128 0x11
 3887 095a 35040000 		.4byte	.LASF70
 3888 095e 03       		.byte	0x3
 3889 095f D2       		.byte	0xd2
 3890 0960 06060000 		.4byte	0x606
 3891 0964 02       		.byte	0x2
 3892 0965 91       		.byte	0x91
 3893 0966 44       		.sleb128 -60
 3894 0967 18       		.uleb128 0x18
 3895 0968 E4040000 		.4byte	.LBB8
 3896 096c EE040000 		.4byte	.LBE8
 3897 0970 11       		.uleb128 0x11
 3898 0971 F2000000 		.4byte	.LASF72
 3899 0975 03       		.byte	0x3
 3900 0976 D2       		.byte	0xd2
 3901 0977 0C060000 		.4byte	0x60c
 3902 097b 02       		.byte	0x2
 3903 097c 91       		.byte	0x91
 3904 097d 48       		.sleb128 -56
 3905 097e 00       		.byte	0
 3906 097f 00       		.byte	0
 3907 0980 17       		.uleb128 0x17
 3908 0981 48050000 		.4byte	.LBB9
 3909 0985 94050000 		.4byte	.LBE9
 3910 0989 B4090000 		.4byte	0x9b4
 3911 098d 11       		.uleb128 0x11
 3912 098e 35040000 		.4byte	.LASF70
 3913 0992 03       		.byte	0x3
 3914 0993 DF       		.byte	0xdf
 3915 0994 06060000 		.4byte	0x606
 3916 0998 02       		.byte	0x2
 3917 0999 91       		.byte	0x91
 3918 099a 4C       		.sleb128 -52
 3919 099b 18       		.uleb128 0x18
 3920 099c 48050000 		.4byte	.LBB10
 3921 09a0 52050000 		.4byte	.LBE10
 3922 09a4 11       		.uleb128 0x11
 3923 09a5 F2000000 		.4byte	.LASF72
 3924 09a9 03       		.byte	0x3
 3925 09aa DF       		.byte	0xdf
 3926 09ab 0C060000 		.4byte	0x60c
 3927 09af 02       		.byte	0x2
 3928 09b0 91       		.byte	0x91
 3929 09b1 50       		.sleb128 -48
 3930 09b2 00       		.byte	0
 3931 09b3 00       		.byte	0
 3932 09b4 20       		.uleb128 0x20
 3933 09b5 18000000 		.4byte	.Ldebug_ranges0+0x18
 3934 09b9 11       		.uleb128 0x11
 3935 09ba 35040000 		.4byte	.LASF70
 3936 09be 03       		.byte	0x3
 3937 09bf EA       		.byte	0xea
 3938 09c0 06060000 		.4byte	0x606
 3939 09c4 02       		.byte	0x2
ARM GAS  G:\Users\Jaxb\AppData\Local\Temp\ccEJJHY8.s 			page 84


 3940 09c5 91       		.byte	0x91
 3941 09c6 54       		.sleb128 -44
 3942 09c7 11       		.uleb128 0x11
 3943 09c8 79040000 		.4byte	.LASF43
 3944 09cc 03       		.byte	0x3
 3945 09cd EB       		.byte	0xeb
 3946 09ce 6A000000 		.4byte	0x6a
 3947 09d2 02       		.byte	0x2
 3948 09d3 91       		.byte	0x91
 3949 09d4 58       		.sleb128 -40
 3950 09d5 00       		.byte	0
 3951 09d6 00       		.byte	0
 3952 09d7 18       		.uleb128 0x18
 3953 09d8 0E060000 		.4byte	.LBB13
 3954 09dc 4E060000 		.4byte	.LBE13
 3955 09e0 16       		.uleb128 0x16
 3956 09e1 48020000 		.4byte	.LASF69
 3957 09e5 03       		.byte	0x3
 3958 09e6 0601     		.2byte	0x106
 3959 09e8 00060000 		.4byte	0x600
 3960 09ec 02       		.byte	0x2
 3961 09ed 91       		.byte	0x91
 3962 09ee 64       		.sleb128 -28
 3963 09ef 00       		.byte	0
 3964 09f0 00       		.byte	0
 3965 09f1 18       		.uleb128 0x18
 3966 09f2 52060000 		.4byte	.LBB15
 3967 09f6 C0060000 		.4byte	.LBE15
 3968 09fa 16       		.uleb128 0x16
 3969 09fb 79040000 		.4byte	.LASF43
 3970 09ff 03       		.byte	0x3
 3971 0a00 1501     		.2byte	0x115
 3972 0a02 33000000 		.4byte	0x33
 3973 0a06 02       		.byte	0x2
 3974 0a07 91       		.byte	0x91
 3975 0a08 6C       		.sleb128 -20
 3976 0a09 00       		.byte	0
 3977 0a0a 00       		.byte	0
 3978 0a0b 21       		.uleb128 0x21
 3979 0a0c B8000000 		.4byte	.LASF83
 3980 0a10 03       		.byte	0x3
 3981 0a11 67       		.byte	0x67
 3982 0a12 01       		.byte	0x1
 3983 0a13 B3010000 		.4byte	0x1b3
 3984 0a17 00030000 		.4byte	.LFB19
 3985 0a1b 94040000 		.4byte	.LFE19
 3986 0a1f E6010000 		.4byte	.LLST13
 3987 0a23 01       		.byte	0x1
 3988 0a24 530A0000 		.4byte	0xa53
 3989 0a28 1D       		.uleb128 0x1d
 3990 0a29 79040000 		.4byte	.LASF43
 3991 0a2d 03       		.byte	0x3
 3992 0a2e 67       		.byte	0x67
 3993 0a2f 6A000000 		.4byte	0x6a
 3994 0a33 02       		.byte	0x2
 3995 0a34 91       		.byte	0x91
 3996 0a35 6C       		.sleb128 -20
ARM GAS  G:\Users\Jaxb\AppData\Local\Temp\ccEJJHY8.s 			page 85


 3997 0a36 11       		.uleb128 0x11
 3998 0a37 35040000 		.4byte	.LASF70
 3999 0a3b 03       		.byte	0x3
 4000 0a3c 69       		.byte	0x69
 4001 0a3d 06060000 		.4byte	0x606
 4002 0a41 02       		.byte	0x2
 4003 0a42 91       		.byte	0x91
 4004 0a43 74       		.sleb128 -12
 4005 0a44 11       		.uleb128 0x11
 4006 0a45 F2030000 		.4byte	.LASF77
 4007 0a49 03       		.byte	0x3
 4008 0a4a 6A       		.byte	0x6a
 4009 0a4b AB030000 		.4byte	0x3ab
 4010 0a4f 02       		.byte	0x2
 4011 0a50 91       		.byte	0x91
 4012 0a51 70       		.sleb128 -16
 4013 0a52 00       		.byte	0
 4014 0a53 22       		.uleb128 0x22
 4015 0a54 01       		.byte	0x1
 4016 0a55 00020000 		.4byte	.LASF84
 4017 0a59 03       		.byte	0x3
 4018 0a5a 5B       		.byte	0x5b
 4019 0a5b 01       		.byte	0x1
 4020 0a5c 33000000 		.4byte	0x33
 4021 0a60 7C020000 		.4byte	.LFB18
 4022 0a64 00030000 		.4byte	.LFE18
 4023 0a68 36020000 		.4byte	.LLST12
 4024 0a6c 01       		.byte	0x1
 4025 0a6d 8C0A0000 		.4byte	0xa8c
 4026 0a71 23       		.uleb128 0x23
 4027 0a72 6E756D00 		.ascii	"num\000"
 4028 0a76 03       		.byte	0x3
 4029 0a77 5B       		.byte	0x5b
 4030 0a78 6A000000 		.4byte	0x6a
 4031 0a7c 02       		.byte	0x2
 4032 0a7d 91       		.byte	0x91
 4033 0a7e 6C       		.sleb128 -20
 4034 0a7f 1E       		.uleb128 0x1e
 4035 0a80 6E00     		.ascii	"n\000"
 4036 0a82 03       		.byte	0x3
 4037 0a83 5D       		.byte	0x5d
 4038 0a84 33000000 		.4byte	0x33
 4039 0a88 02       		.byte	0x2
 4040 0a89 91       		.byte	0x91
 4041 0a8a 74       		.sleb128 -12
 4042 0a8b 00       		.byte	0
 4043 0a8c 24       		.uleb128 0x24
 4044 0a8d 01       		.byte	0x1
 4045 0a8e 16000000 		.4byte	.LASF101
 4046 0a92 03       		.byte	0x3
 4047 0a93 49       		.byte	0x49
 4048 0a94 01       		.byte	0x1
 4049 0a95 28020000 		.4byte	.LFB17
 4050 0a99 7C020000 		.4byte	.LFE17
 4051 0a9d 92020000 		.4byte	.LLST11
 4052 0aa1 01       		.byte	0x1
 4053 0aa2 21       		.uleb128 0x21
ARM GAS  G:\Users\Jaxb\AppData\Local\Temp\ccEJJHY8.s 			page 86


 4054 0aa3 5D040000 		.4byte	.LASF85
 4055 0aa7 03       		.byte	0x3
 4056 0aa8 37       		.byte	0x37
 4057 0aa9 01       		.byte	0x1
 4058 0aaa 33000000 		.4byte	0x33
 4059 0aae B4010000 		.4byte	.LFB16
 4060 0ab2 28020000 		.4byte	.LFE16
 4061 0ab6 BE020000 		.4byte	.LLST10
 4062 0aba 01       		.byte	0x1
 4063 0abb 020B0000 		.4byte	0xb02
 4064 0abf 23       		.uleb128 0x23
 4065 0ac0 70747200 		.ascii	"ptr\000"
 4066 0ac4 03       		.byte	0x3
 4067 0ac5 37       		.byte	0x37
 4068 0ac6 B3010000 		.4byte	0x1b3
 4069 0aca 02       		.byte	0x2
 4070 0acb 91       		.byte	0x91
 4071 0acc 64       		.sleb128 -28
 4072 0acd 1E       		.uleb128 0x1e
 4073 0ace 706F7300 		.ascii	"pos\000"
 4074 0ad2 03       		.byte	0x3
 4075 0ad3 39       		.byte	0x39
 4076 0ad4 E1010000 		.4byte	0x1e1
 4077 0ad8 02       		.byte	0x2
 4078 0ad9 91       		.byte	0x91
 4079 0ada 74       		.sleb128 -12
 4080 0adb 11       		.uleb128 0x11
 4081 0adc 43010000 		.4byte	.LASF86
 4082 0ae0 03       		.byte	0x3
 4083 0ae1 3A       		.byte	0x3a
 4084 0ae2 020B0000 		.4byte	0xb02
 4085 0ae6 02       		.byte	0x2
 4086 0ae7 91       		.byte	0x91
 4087 0ae8 6C       		.sleb128 -20
 4088 0ae9 18       		.uleb128 0x18
 4089 0aea C4010000 		.4byte	.LBB3
 4090 0aee CC010000 		.4byte	.LBE3
 4091 0af2 11       		.uleb128 0x11
 4092 0af3 F2000000 		.4byte	.LASF72
 4093 0af7 03       		.byte	0x3
 4094 0af8 3D       		.byte	0x3d
 4095 0af9 080B0000 		.4byte	0xb08
 4096 0afd 02       		.byte	0x2
 4097 0afe 91       		.byte	0x91
 4098 0aff 70       		.sleb128 -16
 4099 0b00 00       		.byte	0
 4100 0b01 00       		.byte	0
 4101 0b02 09       		.uleb128 0x9
 4102 0b03 04       		.byte	0x4
 4103 0b04 B5020000 		.4byte	0x2b5
 4104 0b08 09       		.uleb128 0x9
 4105 0b09 04       		.byte	0x4
 4106 0b0a DC010000 		.4byte	0x1dc
 4107 0b0e 1C       		.uleb128 0x1c
 4108 0b0f 01       		.byte	0x1
 4109 0b10 00000000 		.4byte	.LASF87
 4110 0b14 03       		.byte	0x3
ARM GAS  G:\Users\Jaxb\AppData\Local\Temp\ccEJJHY8.s 			page 87


 4111 0b15 22       		.byte	0x22
 4112 0b16 01       		.byte	0x1
 4113 0b17 33000000 		.4byte	0x33
 4114 0b1b 70010000 		.4byte	.LFB15
 4115 0b1f B4010000 		.4byte	.LFE15
 4116 0b23 0E030000 		.4byte	.LLST9
 4117 0b27 01       		.byte	0x1
 4118 0b28 570B0000 		.4byte	0xb57
 4119 0b2c 1D       		.uleb128 0x1d
 4120 0b2d 79040000 		.4byte	.LASF43
 4121 0b31 03       		.byte	0x3
 4122 0b32 22       		.byte	0x22
 4123 0b33 6A000000 		.4byte	0x6a
 4124 0b37 02       		.byte	0x2
 4125 0b38 91       		.byte	0x91
 4126 0b39 6C       		.sleb128 -20
 4127 0b3a 23       		.uleb128 0x23
 4128 0b3b 70747200 		.ascii	"ptr\000"
 4129 0b3f 03       		.byte	0x3
 4130 0b40 22       		.byte	0x22
 4131 0b41 B3010000 		.4byte	0x1b3
 4132 0b45 02       		.byte	0x2
 4133 0b46 91       		.byte	0x91
 4134 0b47 68       		.sleb128 -24
 4135 0b48 11       		.uleb128 0x11
 4136 0b49 7F040000 		.4byte	.LASF88
 4137 0b4d 03       		.byte	0x3
 4138 0b4e 24       		.byte	0x24
 4139 0b4f 020B0000 		.4byte	0xb02
 4140 0b53 02       		.byte	0x2
 4141 0b54 91       		.byte	0x91
 4142 0b55 74       		.sleb128 -12
 4143 0b56 00       		.byte	0
 4144 0b57 25       		.uleb128 0x25
 4145 0b58 01       		.byte	0x1
 4146 0b59 87000000 		.4byte	.LASF89
 4147 0b5d 03       		.byte	0x3
 4148 0b5e 14       		.byte	0x14
 4149 0b5f 01       		.byte	0x1
 4150 0b60 08010000 		.4byte	.LFB14
 4151 0b64 70010000 		.4byte	.LFE14
 4152 0b68 5E030000 		.4byte	.LLST8
 4153 0b6c 01       		.byte	0x1
 4154 0b6d B20B0000 		.4byte	0xbb2
 4155 0b71 1E       		.uleb128 0x1e
 4156 0b72 6900     		.ascii	"i\000"
 4157 0b74 03       		.byte	0x3
 4158 0b75 16       		.byte	0x16
 4159 0b76 6A000000 		.4byte	0x6a
 4160 0b7a 02       		.byte	0x2
 4161 0b7b 91       		.byte	0x91
 4162 0b7c 74       		.sleb128 -12
 4163 0b7d 1E       		.uleb128 0x1e
 4164 0b7e 706F7300 		.ascii	"pos\000"
 4165 0b82 03       		.byte	0x3
 4166 0b83 17       		.byte	0x17
 4167 0b84 E1010000 		.4byte	0x1e1
ARM GAS  G:\Users\Jaxb\AppData\Local\Temp\ccEJJHY8.s 			page 88


 4168 0b88 02       		.byte	0x2
 4169 0b89 91       		.byte	0x91
 4170 0b8a 70       		.sleb128 -16
 4171 0b8b 11       		.uleb128 0x11
 4172 0b8c 43010000 		.4byte	.LASF86
 4173 0b90 03       		.byte	0x3
 4174 0b91 18       		.byte	0x18
 4175 0b92 020B0000 		.4byte	0xb02
 4176 0b96 02       		.byte	0x2
 4177 0b97 91       		.byte	0x91
 4178 0b98 68       		.sleb128 -24
 4179 0b99 18       		.uleb128 0x18
 4180 0b9a 1A010000 		.4byte	.LBB2
 4181 0b9e 22010000 		.4byte	.LBE2
 4182 0ba2 11       		.uleb128 0x11
 4183 0ba3 F2000000 		.4byte	.LASF72
 4184 0ba7 03       		.byte	0x3
 4185 0ba8 1B       		.byte	0x1b
 4186 0ba9 080B0000 		.4byte	0xb08
 4187 0bad 02       		.byte	0x2
 4188 0bae 91       		.byte	0x91
 4189 0baf 6C       		.sleb128 -20
 4190 0bb0 00       		.byte	0
 4191 0bb1 00       		.byte	0
 4192 0bb2 26       		.uleb128 0x26
 4193 0bb3 4F000000 		.4byte	.LASF90
 4194 0bb7 02       		.byte	0x2
 4195 0bb8 12       		.byte	0x12
 4196 0bb9 01       		.byte	0x1
 4197 0bba E6000000 		.4byte	.LFB11
 4198 0bbe 08010000 		.4byte	.LFE11
 4199 0bc2 AE030000 		.4byte	.LLST7
 4200 0bc6 01       		.byte	0x1
 4201 0bc7 E80B0000 		.4byte	0xbe8
 4202 0bcb 23       		.uleb128 0x23
 4203 0bcc 6E657700 		.ascii	"new\000"
 4204 0bd0 02       		.byte	0x2
 4205 0bd1 12       		.byte	0x12
 4206 0bd2 E1010000 		.4byte	0x1e1
 4207 0bd6 02       		.byte	0x2
 4208 0bd7 91       		.byte	0x91
 4209 0bd8 74       		.sleb128 -12
 4210 0bd9 1D       		.uleb128 0x1d
 4211 0bda 23010000 		.4byte	.LASF78
 4212 0bde 02       		.byte	0x2
 4213 0bdf 12       		.byte	0x12
 4214 0be0 E1010000 		.4byte	0x1e1
 4215 0be4 02       		.byte	0x2
 4216 0be5 91       		.byte	0x91
 4217 0be6 70       		.sleb128 -16
 4218 0be7 00       		.byte	0
 4219 0be8 26       		.uleb128 0x26
 4220 0be9 F9000000 		.4byte	.LASF91
 4221 0bed 02       		.byte	0x2
 4222 0bee 0D       		.byte	0xd
 4223 0bef 01       		.byte	0x1
 4224 0bf0 CE000000 		.4byte	.LFB10
ARM GAS  G:\Users\Jaxb\AppData\Local\Temp\ccEJJHY8.s 			page 89


 4225 0bf4 E6000000 		.4byte	.LFE10
 4226 0bf8 0A040000 		.4byte	.LLST6
 4227 0bfc 01       		.byte	0x1
 4228 0bfd 100C0000 		.4byte	0xc10
 4229 0c01 1D       		.uleb128 0x1d
 4230 0c02 1E010000 		.4byte	.LASF44
 4231 0c06 02       		.byte	0x2
 4232 0c07 0D       		.byte	0xd
 4233 0c08 E1010000 		.4byte	0x1e1
 4234 0c0c 02       		.byte	0x2
 4235 0c0d 91       		.byte	0x91
 4236 0c0e 74       		.sleb128 -12
 4237 0c0f 00       		.byte	0
 4238 0c10 27       		.uleb128 0x27
 4239 0c11 78010000 		.4byte	.LASF92
 4240 0c15 01       		.byte	0x1
 4241 0c16 52       		.byte	0x52
 4242 0c17 01       		.byte	0x1
 4243 0c18 33000000 		.4byte	0x33
 4244 0c1c AC000000 		.4byte	.LFB9
 4245 0c20 CE000000 		.4byte	.LFE9
 4246 0c24 66040000 		.4byte	.LLST5
 4247 0c28 01       		.byte	0x1
 4248 0c29 3C0C0000 		.4byte	0xc3c
 4249 0c2d 1D       		.uleb128 0x1d
 4250 0c2e 23010000 		.4byte	.LASF78
 4251 0c32 01       		.byte	0x1
 4252 0c33 52       		.byte	0x52
 4253 0c34 0C060000 		.4byte	0x60c
 4254 0c38 02       		.byte	0x2
 4255 0c39 91       		.byte	0x91
 4256 0c3a 74       		.sleb128 -12
 4257 0c3b 00       		.byte	0
 4258 0c3c 28       		.uleb128 0x28
 4259 0c3d 2C040000 		.4byte	.LASF93
 4260 0c41 01       		.byte	0x1
 4261 0c42 35       		.byte	0x35
 4262 0c43 01       		.byte	0x1
 4263 0c44 8C000000 		.4byte	.LFB5
 4264 0c48 AC000000 		.4byte	.LFE5
 4265 0c4c C2040000 		.4byte	.LLST4
 4266 0c50 01       		.byte	0x1
 4267 0c51 640C0000 		.4byte	0xc64
 4268 0c55 1D       		.uleb128 0x1d
 4269 0c56 D8020000 		.4byte	.LASF94
 4270 0c5a 01       		.byte	0x1
 4271 0c5b 35       		.byte	0x35
 4272 0c5c B1000000 		.4byte	0xb1
 4273 0c60 02       		.byte	0x2
 4274 0c61 91       		.byte	0x91
 4275 0c62 74       		.sleb128 -12
 4276 0c63 00       		.byte	0
 4277 0c64 26       		.uleb128 0x26
 4278 0c65 DE020000 		.4byte	.LASF95
 4279 0c69 01       		.byte	0x1
 4280 0c6a 2E       		.byte	0x2e
 4281 0c6b 01       		.byte	0x1
ARM GAS  G:\Users\Jaxb\AppData\Local\Temp\ccEJJHY8.s 			page 90


 4282 0c6c 6C000000 		.4byte	.LFB4
 4283 0c70 8C000000 		.4byte	.LFE4
 4284 0c74 12050000 		.4byte	.LLST3
 4285 0c78 01       		.byte	0x1
 4286 0c79 9A0C0000 		.4byte	0xc9a
 4287 0c7d 1D       		.uleb128 0x1d
 4288 0c7e 99050000 		.4byte	.LASF11
 4289 0c82 01       		.byte	0x1
 4290 0c83 2E       		.byte	0x2e
 4291 0c84 B1000000 		.4byte	0xb1
 4292 0c88 02       		.byte	0x2
 4293 0c89 91       		.byte	0x91
 4294 0c8a 74       		.sleb128 -12
 4295 0c8b 1D       		.uleb128 0x1d
 4296 0c8c DD050000 		.4byte	.LASF10
 4297 0c90 01       		.byte	0x1
 4298 0c91 2E       		.byte	0x2e
 4299 0c92 B1000000 		.4byte	0xb1
 4300 0c96 02       		.byte	0x2
 4301 0c97 91       		.byte	0x91
 4302 0c98 70       		.sleb128 -16
 4303 0c99 00       		.byte	0
 4304 0c9a 28       		.uleb128 0x28
 4305 0c9b CA000000 		.4byte	.LASF96
 4306 0c9f 01       		.byte	0x1
 4307 0ca0 22       		.byte	0x22
 4308 0ca1 01       		.byte	0x1
 4309 0ca2 4C000000 		.4byte	.LFB2
 4310 0ca6 6C000000 		.4byte	.LFE2
 4311 0caa 6E050000 		.4byte	.LLST2
 4312 0cae 01       		.byte	0x1
 4313 0caf D00C0000 		.4byte	0xcd0
 4314 0cb3 23       		.uleb128 0x23
 4315 0cb4 6E657700 		.ascii	"new\000"
 4316 0cb8 01       		.byte	0x1
 4317 0cb9 22       		.byte	0x22
 4318 0cba B1000000 		.4byte	0xb1
 4319 0cbe 02       		.byte	0x2
 4320 0cbf 91       		.byte	0x91
 4321 0cc0 74       		.sleb128 -12
 4322 0cc1 1D       		.uleb128 0x1d
 4323 0cc2 23010000 		.4byte	.LASF78
 4324 0cc6 01       		.byte	0x1
 4325 0cc7 22       		.byte	0x22
 4326 0cc8 B1000000 		.4byte	0xb1
 4327 0ccc 02       		.byte	0x2
 4328 0ccd 91       		.byte	0x91
 4329 0cce 70       		.sleb128 -16
 4330 0ccf 00       		.byte	0
 4331 0cd0 26       		.uleb128 0x26
 4332 0cd1 5C010000 		.4byte	.LASF97
 4333 0cd5 01       		.byte	0x1
 4334 0cd6 17       		.byte	0x17
 4335 0cd7 01       		.byte	0x1
 4336 0cd8 1E000000 		.4byte	.LFB1
 4337 0cdc 4C000000 		.4byte	.LFE1
 4338 0ce0 BE050000 		.4byte	.LLST1
ARM GAS  G:\Users\Jaxb\AppData\Local\Temp\ccEJJHY8.s 			page 91


 4339 0ce4 01       		.byte	0x1
 4340 0ce5 140D0000 		.4byte	0xd14
 4341 0ce9 23       		.uleb128 0x23
 4342 0cea 6E657700 		.ascii	"new\000"
 4343 0cee 01       		.byte	0x1
 4344 0cef 17       		.byte	0x17
 4345 0cf0 B1000000 		.4byte	0xb1
 4346 0cf4 02       		.byte	0x2
 4347 0cf5 91       		.byte	0x91
 4348 0cf6 74       		.sleb128 -12
 4349 0cf7 1D       		.uleb128 0x1d
 4350 0cf8 99050000 		.4byte	.LASF11
 4351 0cfc 01       		.byte	0x1
 4352 0cfd 18       		.byte	0x18
 4353 0cfe B1000000 		.4byte	0xb1
 4354 0d02 02       		.byte	0x2
 4355 0d03 91       		.byte	0x91
 4356 0d04 70       		.sleb128 -16
 4357 0d05 1D       		.uleb128 0x1d
 4358 0d06 DD050000 		.4byte	.LASF10
 4359 0d0a 01       		.byte	0x1
 4360 0d0b 19       		.byte	0x19
 4361 0d0c B1000000 		.4byte	0xb1
 4362 0d10 02       		.byte	0x2
 4363 0d11 91       		.byte	0x91
 4364 0d12 6C       		.sleb128 -20
 4365 0d13 00       		.byte	0
 4366 0d14 29       		.uleb128 0x29
 4367 0d15 0F010000 		.4byte	.LASF102
 4368 0d19 01       		.byte	0x1
 4369 0d1a 10       		.byte	0x10
 4370 0d1b 01       		.byte	0x1
 4371 0d1c 00000000 		.4byte	.LFB0
 4372 0d20 1E000000 		.4byte	.LFE0
 4373 0d24 1A060000 		.4byte	.LLST0
 4374 0d28 01       		.byte	0x1
 4375 0d29 1D       		.uleb128 0x1d
 4376 0d2a 1E010000 		.4byte	.LASF44
 4377 0d2e 01       		.byte	0x1
 4378 0d2f 10       		.byte	0x10
 4379 0d30 B1000000 		.4byte	0xb1
 4380 0d34 02       		.byte	0x2
 4381 0d35 91       		.byte	0x91
 4382 0d36 74       		.sleb128 -12
 4383 0d37 00       		.byte	0
 4384 0d38 00       		.byte	0
 4385              		.section	.debug_abbrev,"",%progbits
 4386              	.Ldebug_abbrev0:
 4387 0000 01       		.uleb128 0x1
 4388 0001 11       		.uleb128 0x11
 4389 0002 01       		.byte	0x1
 4390 0003 25       		.uleb128 0x25
 4391 0004 0E       		.uleb128 0xe
 4392 0005 13       		.uleb128 0x13
 4393 0006 0B       		.uleb128 0xb
 4394 0007 03       		.uleb128 0x3
 4395 0008 0E       		.uleb128 0xe
ARM GAS  G:\Users\Jaxb\AppData\Local\Temp\ccEJJHY8.s 			page 92


 4396 0009 1B       		.uleb128 0x1b
 4397 000a 0E       		.uleb128 0xe
 4398 000b 11       		.uleb128 0x11
 4399 000c 01       		.uleb128 0x1
 4400 000d 12       		.uleb128 0x12
 4401 000e 01       		.uleb128 0x1
 4402 000f 10       		.uleb128 0x10
 4403 0010 06       		.uleb128 0x6
 4404 0011 00       		.byte	0
 4405 0012 00       		.byte	0
 4406 0013 02       		.uleb128 0x2
 4407 0014 24       		.uleb128 0x24
 4408 0015 00       		.byte	0
 4409 0016 0B       		.uleb128 0xb
 4410 0017 0B       		.uleb128 0xb
 4411 0018 3E       		.uleb128 0x3e
 4412 0019 0B       		.uleb128 0xb
 4413 001a 03       		.uleb128 0x3
 4414 001b 0E       		.uleb128 0xe
 4415 001c 00       		.byte	0
 4416 001d 00       		.byte	0
 4417 001e 03       		.uleb128 0x3
 4418 001f 24       		.uleb128 0x24
 4419 0020 00       		.byte	0
 4420 0021 0B       		.uleb128 0xb
 4421 0022 0B       		.uleb128 0xb
 4422 0023 3E       		.uleb128 0x3e
 4423 0024 0B       		.uleb128 0xb
 4424 0025 03       		.uleb128 0x3
 4425 0026 08       		.uleb128 0x8
 4426 0027 00       		.byte	0
 4427 0028 00       		.byte	0
 4428 0029 04       		.uleb128 0x4
 4429 002a 35       		.uleb128 0x35
 4430 002b 00       		.byte	0
 4431 002c 49       		.uleb128 0x49
 4432 002d 13       		.uleb128 0x13
 4433 002e 00       		.byte	0
 4434 002f 00       		.byte	0
 4435 0030 05       		.uleb128 0x5
 4436 0031 16       		.uleb128 0x16
 4437 0032 00       		.byte	0
 4438 0033 03       		.uleb128 0x3
 4439 0034 0E       		.uleb128 0xe
 4440 0035 3A       		.uleb128 0x3a
 4441 0036 0B       		.uleb128 0xb
 4442 0037 3B       		.uleb128 0x3b
 4443 0038 0B       		.uleb128 0xb
 4444 0039 49       		.uleb128 0x49
 4445 003a 13       		.uleb128 0x13
 4446 003b 00       		.byte	0
 4447 003c 00       		.byte	0
 4448 003d 06       		.uleb128 0x6
 4449 003e 13       		.uleb128 0x13
 4450 003f 01       		.byte	0x1
 4451 0040 03       		.uleb128 0x3
 4452 0041 0E       		.uleb128 0xe
ARM GAS  G:\Users\Jaxb\AppData\Local\Temp\ccEJJHY8.s 			page 93


 4453 0042 0B       		.uleb128 0xb
 4454 0043 0B       		.uleb128 0xb
 4455 0044 3A       		.uleb128 0x3a
 4456 0045 0B       		.uleb128 0xb
 4457 0046 3B       		.uleb128 0x3b
 4458 0047 0B       		.uleb128 0xb
 4459 0048 01       		.uleb128 0x1
 4460 0049 13       		.uleb128 0x13
 4461 004a 00       		.byte	0
 4462 004b 00       		.byte	0
 4463 004c 07       		.uleb128 0x7
 4464 004d 0D       		.uleb128 0xd
 4465 004e 00       		.byte	0
 4466 004f 03       		.uleb128 0x3
 4467 0050 0E       		.uleb128 0xe
 4468 0051 3A       		.uleb128 0x3a
 4469 0052 0B       		.uleb128 0xb
 4470 0053 3B       		.uleb128 0x3b
 4471 0054 0B       		.uleb128 0xb
 4472 0055 49       		.uleb128 0x49
 4473 0056 13       		.uleb128 0x13
 4474 0057 38       		.uleb128 0x38
 4475 0058 0A       		.uleb128 0xa
 4476 0059 00       		.byte	0
 4477 005a 00       		.byte	0
 4478 005b 08       		.uleb128 0x8
 4479 005c 26       		.uleb128 0x26
 4480 005d 00       		.byte	0
 4481 005e 49       		.uleb128 0x49
 4482 005f 13       		.uleb128 0x13
 4483 0060 00       		.byte	0
 4484 0061 00       		.byte	0
 4485 0062 09       		.uleb128 0x9
 4486 0063 0F       		.uleb128 0xf
 4487 0064 00       		.byte	0
 4488 0065 0B       		.uleb128 0xb
 4489 0066 0B       		.uleb128 0xb
 4490 0067 49       		.uleb128 0x49
 4491 0068 13       		.uleb128 0x13
 4492 0069 00       		.byte	0
 4493 006a 00       		.byte	0
 4494 006b 0A       		.uleb128 0xa
 4495 006c 16       		.uleb128 0x16
 4496 006d 00       		.byte	0
 4497 006e 03       		.uleb128 0x3
 4498 006f 08       		.uleb128 0x8
 4499 0070 3A       		.uleb128 0x3a
 4500 0071 0B       		.uleb128 0xb
 4501 0072 3B       		.uleb128 0x3b
 4502 0073 0B       		.uleb128 0xb
 4503 0074 49       		.uleb128 0x49
 4504 0075 13       		.uleb128 0x13
 4505 0076 00       		.byte	0
 4506 0077 00       		.byte	0
 4507 0078 0B       		.uleb128 0xb
 4508 0079 0F       		.uleb128 0xf
 4509 007a 00       		.byte	0
ARM GAS  G:\Users\Jaxb\AppData\Local\Temp\ccEJJHY8.s 			page 94


 4510 007b 0B       		.uleb128 0xb
 4511 007c 0B       		.uleb128 0xb
 4512 007d 00       		.byte	0
 4513 007e 00       		.byte	0
 4514 007f 0C       		.uleb128 0xc
 4515 0080 13       		.uleb128 0x13
 4516 0081 01       		.byte	0x1
 4517 0082 0B       		.uleb128 0xb
 4518 0083 05       		.uleb128 0x5
 4519 0084 3A       		.uleb128 0x3a
 4520 0085 0B       		.uleb128 0xb
 4521 0086 3B       		.uleb128 0x3b
 4522 0087 0B       		.uleb128 0xb
 4523 0088 01       		.uleb128 0x1
 4524 0089 13       		.uleb128 0x13
 4525 008a 00       		.byte	0
 4526 008b 00       		.byte	0
 4527 008c 0D       		.uleb128 0xd
 4528 008d 0D       		.uleb128 0xd
 4529 008e 00       		.byte	0
 4530 008f 03       		.uleb128 0x3
 4531 0090 08       		.uleb128 0x8
 4532 0091 3A       		.uleb128 0x3a
 4533 0092 0B       		.uleb128 0xb
 4534 0093 3B       		.uleb128 0x3b
 4535 0094 0B       		.uleb128 0xb
 4536 0095 49       		.uleb128 0x49
 4537 0096 13       		.uleb128 0x13
 4538 0097 38       		.uleb128 0x38
 4539 0098 0A       		.uleb128 0xa
 4540 0099 00       		.byte	0
 4541 009a 00       		.byte	0
 4542 009b 0E       		.uleb128 0xe
 4543 009c 01       		.uleb128 0x1
 4544 009d 01       		.byte	0x1
 4545 009e 49       		.uleb128 0x49
 4546 009f 13       		.uleb128 0x13
 4547 00a0 01       		.uleb128 0x1
 4548 00a1 13       		.uleb128 0x13
 4549 00a2 00       		.byte	0
 4550 00a3 00       		.byte	0
 4551 00a4 0F       		.uleb128 0xf
 4552 00a5 21       		.uleb128 0x21
 4553 00a6 00       		.byte	0
 4554 00a7 49       		.uleb128 0x49
 4555 00a8 13       		.uleb128 0x13
 4556 00a9 2F       		.uleb128 0x2f
 4557 00aa 0B       		.uleb128 0xb
 4558 00ab 00       		.byte	0
 4559 00ac 00       		.byte	0
 4560 00ad 10       		.uleb128 0x10
 4561 00ae 34       		.uleb128 0x34
 4562 00af 00       		.byte	0
 4563 00b0 03       		.uleb128 0x3
 4564 00b1 0E       		.uleb128 0xe
 4565 00b2 3A       		.uleb128 0x3a
 4566 00b3 0B       		.uleb128 0xb
ARM GAS  G:\Users\Jaxb\AppData\Local\Temp\ccEJJHY8.s 			page 95


 4567 00b4 3B       		.uleb128 0x3b
 4568 00b5 0B       		.uleb128 0xb
 4569 00b6 49       		.uleb128 0x49
 4570 00b7 13       		.uleb128 0x13
 4571 00b8 3F       		.uleb128 0x3f
 4572 00b9 0C       		.uleb128 0xc
 4573 00ba 3C       		.uleb128 0x3c
 4574 00bb 0C       		.uleb128 0xc
 4575 00bc 00       		.byte	0
 4576 00bd 00       		.byte	0
 4577 00be 11       		.uleb128 0x11
 4578 00bf 34       		.uleb128 0x34
 4579 00c0 00       		.byte	0
 4580 00c1 03       		.uleb128 0x3
 4581 00c2 0E       		.uleb128 0xe
 4582 00c3 3A       		.uleb128 0x3a
 4583 00c4 0B       		.uleb128 0xb
 4584 00c5 3B       		.uleb128 0x3b
 4585 00c6 0B       		.uleb128 0xb
 4586 00c7 49       		.uleb128 0x49
 4587 00c8 13       		.uleb128 0x13
 4588 00c9 02       		.uleb128 0x2
 4589 00ca 0A       		.uleb128 0xa
 4590 00cb 00       		.byte	0
 4591 00cc 00       		.byte	0
 4592 00cd 12       		.uleb128 0x12
 4593 00ce 34       		.uleb128 0x34
 4594 00cf 00       		.byte	0
 4595 00d0 03       		.uleb128 0x3
 4596 00d1 0E       		.uleb128 0xe
 4597 00d2 3A       		.uleb128 0x3a
 4598 00d3 0B       		.uleb128 0xb
 4599 00d4 3B       		.uleb128 0x3b
 4600 00d5 0B       		.uleb128 0xb
 4601 00d6 49       		.uleb128 0x49
 4602 00d7 13       		.uleb128 0x13
 4603 00d8 3F       		.uleb128 0x3f
 4604 00d9 0C       		.uleb128 0xc
 4605 00da 02       		.uleb128 0x2
 4606 00db 0A       		.uleb128 0xa
 4607 00dc 00       		.byte	0
 4608 00dd 00       		.byte	0
 4609 00de 13       		.uleb128 0x13
 4610 00df 2E       		.uleb128 0x2e
 4611 00e0 01       		.byte	0x1
 4612 00e1 3F       		.uleb128 0x3f
 4613 00e2 0C       		.uleb128 0xc
 4614 00e3 03       		.uleb128 0x3
 4615 00e4 0E       		.uleb128 0xe
 4616 00e5 3A       		.uleb128 0x3a
 4617 00e6 0B       		.uleb128 0xb
 4618 00e7 3B       		.uleb128 0x3b
 4619 00e8 05       		.uleb128 0x5
 4620 00e9 27       		.uleb128 0x27
 4621 00ea 0C       		.uleb128 0xc
 4622 00eb 11       		.uleb128 0x11
 4623 00ec 01       		.uleb128 0x1
ARM GAS  G:\Users\Jaxb\AppData\Local\Temp\ccEJJHY8.s 			page 96


 4624 00ed 12       		.uleb128 0x12
 4625 00ee 01       		.uleb128 0x1
 4626 00ef 40       		.uleb128 0x40
 4627 00f0 06       		.uleb128 0x6
 4628 00f1 9642     		.uleb128 0x2116
 4629 00f3 0C       		.uleb128 0xc
 4630 00f4 01       		.uleb128 0x1
 4631 00f5 13       		.uleb128 0x13
 4632 00f6 00       		.byte	0
 4633 00f7 00       		.byte	0
 4634 00f8 14       		.uleb128 0x14
 4635 00f9 05       		.uleb128 0x5
 4636 00fa 00       		.byte	0
 4637 00fb 03       		.uleb128 0x3
 4638 00fc 0E       		.uleb128 0xe
 4639 00fd 3A       		.uleb128 0x3a
 4640 00fe 0B       		.uleb128 0xb
 4641 00ff 3B       		.uleb128 0x3b
 4642 0100 05       		.uleb128 0x5
 4643 0101 49       		.uleb128 0x49
 4644 0102 13       		.uleb128 0x13
 4645 0103 02       		.uleb128 0x2
 4646 0104 0A       		.uleb128 0xa
 4647 0105 00       		.byte	0
 4648 0106 00       		.byte	0
 4649 0107 15       		.uleb128 0x15
 4650 0108 34       		.uleb128 0x34
 4651 0109 00       		.byte	0
 4652 010a 03       		.uleb128 0x3
 4653 010b 08       		.uleb128 0x8
 4654 010c 3A       		.uleb128 0x3a
 4655 010d 0B       		.uleb128 0xb
 4656 010e 3B       		.uleb128 0x3b
 4657 010f 05       		.uleb128 0x5
 4658 0110 49       		.uleb128 0x49
 4659 0111 13       		.uleb128 0x13
 4660 0112 02       		.uleb128 0x2
 4661 0113 0A       		.uleb128 0xa
 4662 0114 00       		.byte	0
 4663 0115 00       		.byte	0
 4664 0116 16       		.uleb128 0x16
 4665 0117 34       		.uleb128 0x34
 4666 0118 00       		.byte	0
 4667 0119 03       		.uleb128 0x3
 4668 011a 0E       		.uleb128 0xe
 4669 011b 3A       		.uleb128 0x3a
 4670 011c 0B       		.uleb128 0xb
 4671 011d 3B       		.uleb128 0x3b
 4672 011e 05       		.uleb128 0x5
 4673 011f 49       		.uleb128 0x49
 4674 0120 13       		.uleb128 0x13
 4675 0121 02       		.uleb128 0x2
 4676 0122 0A       		.uleb128 0xa
 4677 0123 00       		.byte	0
 4678 0124 00       		.byte	0
 4679 0125 17       		.uleb128 0x17
 4680 0126 0B       		.uleb128 0xb
ARM GAS  G:\Users\Jaxb\AppData\Local\Temp\ccEJJHY8.s 			page 97


 4681 0127 01       		.byte	0x1
 4682 0128 11       		.uleb128 0x11
 4683 0129 01       		.uleb128 0x1
 4684 012a 12       		.uleb128 0x12
 4685 012b 01       		.uleb128 0x1
 4686 012c 01       		.uleb128 0x1
 4687 012d 13       		.uleb128 0x13
 4688 012e 00       		.byte	0
 4689 012f 00       		.byte	0
 4690 0130 18       		.uleb128 0x18
 4691 0131 0B       		.uleb128 0xb
 4692 0132 01       		.byte	0x1
 4693 0133 11       		.uleb128 0x11
 4694 0134 01       		.uleb128 0x1
 4695 0135 12       		.uleb128 0x12
 4696 0136 01       		.uleb128 0x1
 4697 0137 00       		.byte	0
 4698 0138 00       		.byte	0
 4699 0139 19       		.uleb128 0x19
 4700 013a 05       		.uleb128 0x5
 4701 013b 00       		.byte	0
 4702 013c 03       		.uleb128 0x3
 4703 013d 08       		.uleb128 0x8
 4704 013e 3A       		.uleb128 0x3a
 4705 013f 0B       		.uleb128 0xb
 4706 0140 3B       		.uleb128 0x3b
 4707 0141 05       		.uleb128 0x5
 4708 0142 49       		.uleb128 0x49
 4709 0143 13       		.uleb128 0x13
 4710 0144 02       		.uleb128 0x2
 4711 0145 0A       		.uleb128 0xa
 4712 0146 00       		.byte	0
 4713 0147 00       		.byte	0
 4714 0148 1A       		.uleb128 0x1a
 4715 0149 2E       		.uleb128 0x2e
 4716 014a 01       		.byte	0x1
 4717 014b 3F       		.uleb128 0x3f
 4718 014c 0C       		.uleb128 0xc
 4719 014d 03       		.uleb128 0x3
 4720 014e 0E       		.uleb128 0xe
 4721 014f 3A       		.uleb128 0x3a
 4722 0150 0B       		.uleb128 0xb
 4723 0151 3B       		.uleb128 0x3b
 4724 0152 05       		.uleb128 0x5
 4725 0153 27       		.uleb128 0x27
 4726 0154 0C       		.uleb128 0xc
 4727 0155 49       		.uleb128 0x49
 4728 0156 13       		.uleb128 0x13
 4729 0157 11       		.uleb128 0x11
 4730 0158 01       		.uleb128 0x1
 4731 0159 12       		.uleb128 0x12
 4732 015a 01       		.uleb128 0x1
 4733 015b 40       		.uleb128 0x40
 4734 015c 06       		.uleb128 0x6
 4735 015d 9642     		.uleb128 0x2116
 4736 015f 0C       		.uleb128 0xc
 4737 0160 01       		.uleb128 0x1
ARM GAS  G:\Users\Jaxb\AppData\Local\Temp\ccEJJHY8.s 			page 98


 4738 0161 13       		.uleb128 0x13
 4739 0162 00       		.byte	0
 4740 0163 00       		.byte	0
 4741 0164 1B       		.uleb128 0x1b
 4742 0165 2E       		.uleb128 0x2e
 4743 0166 01       		.byte	0x1
 4744 0167 03       		.uleb128 0x3
 4745 0168 0E       		.uleb128 0xe
 4746 0169 3A       		.uleb128 0x3a
 4747 016a 0B       		.uleb128 0xb
 4748 016b 3B       		.uleb128 0x3b
 4749 016c 05       		.uleb128 0x5
 4750 016d 27       		.uleb128 0x27
 4751 016e 0C       		.uleb128 0xc
 4752 016f 49       		.uleb128 0x49
 4753 0170 13       		.uleb128 0x13
 4754 0171 11       		.uleb128 0x11
 4755 0172 01       		.uleb128 0x1
 4756 0173 12       		.uleb128 0x12
 4757 0174 01       		.uleb128 0x1
 4758 0175 40       		.uleb128 0x40
 4759 0176 06       		.uleb128 0x6
 4760 0177 9642     		.uleb128 0x2116
 4761 0179 0C       		.uleb128 0xc
 4762 017a 01       		.uleb128 0x1
 4763 017b 13       		.uleb128 0x13
 4764 017c 00       		.byte	0
 4765 017d 00       		.byte	0
 4766 017e 1C       		.uleb128 0x1c
 4767 017f 2E       		.uleb128 0x2e
 4768 0180 01       		.byte	0x1
 4769 0181 3F       		.uleb128 0x3f
 4770 0182 0C       		.uleb128 0xc
 4771 0183 03       		.uleb128 0x3
 4772 0184 0E       		.uleb128 0xe
 4773 0185 3A       		.uleb128 0x3a
 4774 0186 0B       		.uleb128 0xb
 4775 0187 3B       		.uleb128 0x3b
 4776 0188 0B       		.uleb128 0xb
 4777 0189 27       		.uleb128 0x27
 4778 018a 0C       		.uleb128 0xc
 4779 018b 49       		.uleb128 0x49
 4780 018c 13       		.uleb128 0x13
 4781 018d 11       		.uleb128 0x11
 4782 018e 01       		.uleb128 0x1
 4783 018f 12       		.uleb128 0x12
 4784 0190 01       		.uleb128 0x1
 4785 0191 40       		.uleb128 0x40
 4786 0192 06       		.uleb128 0x6
 4787 0193 9642     		.uleb128 0x2116
 4788 0195 0C       		.uleb128 0xc
 4789 0196 01       		.uleb128 0x1
 4790 0197 13       		.uleb128 0x13
 4791 0198 00       		.byte	0
 4792 0199 00       		.byte	0
 4793 019a 1D       		.uleb128 0x1d
 4794 019b 05       		.uleb128 0x5
ARM GAS  G:\Users\Jaxb\AppData\Local\Temp\ccEJJHY8.s 			page 99


 4795 019c 00       		.byte	0
 4796 019d 03       		.uleb128 0x3
 4797 019e 0E       		.uleb128 0xe
 4798 019f 3A       		.uleb128 0x3a
 4799 01a0 0B       		.uleb128 0xb
 4800 01a1 3B       		.uleb128 0x3b
 4801 01a2 0B       		.uleb128 0xb
 4802 01a3 49       		.uleb128 0x49
 4803 01a4 13       		.uleb128 0x13
 4804 01a5 02       		.uleb128 0x2
 4805 01a6 0A       		.uleb128 0xa
 4806 01a7 00       		.byte	0
 4807 01a8 00       		.byte	0
 4808 01a9 1E       		.uleb128 0x1e
 4809 01aa 34       		.uleb128 0x34
 4810 01ab 00       		.byte	0
 4811 01ac 03       		.uleb128 0x3
 4812 01ad 08       		.uleb128 0x8
 4813 01ae 3A       		.uleb128 0x3a
 4814 01af 0B       		.uleb128 0xb
 4815 01b0 3B       		.uleb128 0x3b
 4816 01b1 0B       		.uleb128 0xb
 4817 01b2 49       		.uleb128 0x49
 4818 01b3 13       		.uleb128 0x13
 4819 01b4 02       		.uleb128 0x2
 4820 01b5 0A       		.uleb128 0xa
 4821 01b6 00       		.byte	0
 4822 01b7 00       		.byte	0
 4823 01b8 1F       		.uleb128 0x1f
 4824 01b9 0B       		.uleb128 0xb
 4825 01ba 01       		.byte	0x1
 4826 01bb 55       		.uleb128 0x55
 4827 01bc 06       		.uleb128 0x6
 4828 01bd 01       		.uleb128 0x1
 4829 01be 13       		.uleb128 0x13
 4830 01bf 00       		.byte	0
 4831 01c0 00       		.byte	0
 4832 01c1 20       		.uleb128 0x20
 4833 01c2 0B       		.uleb128 0xb
 4834 01c3 01       		.byte	0x1
 4835 01c4 55       		.uleb128 0x55
 4836 01c5 06       		.uleb128 0x6
 4837 01c6 00       		.byte	0
 4838 01c7 00       		.byte	0
 4839 01c8 21       		.uleb128 0x21
 4840 01c9 2E       		.uleb128 0x2e
 4841 01ca 01       		.byte	0x1
 4842 01cb 03       		.uleb128 0x3
 4843 01cc 0E       		.uleb128 0xe
 4844 01cd 3A       		.uleb128 0x3a
 4845 01ce 0B       		.uleb128 0xb
 4846 01cf 3B       		.uleb128 0x3b
 4847 01d0 0B       		.uleb128 0xb
 4848 01d1 27       		.uleb128 0x27
 4849 01d2 0C       		.uleb128 0xc
 4850 01d3 49       		.uleb128 0x49
 4851 01d4 13       		.uleb128 0x13
ARM GAS  G:\Users\Jaxb\AppData\Local\Temp\ccEJJHY8.s 			page 100


 4852 01d5 11       		.uleb128 0x11
 4853 01d6 01       		.uleb128 0x1
 4854 01d7 12       		.uleb128 0x12
 4855 01d8 01       		.uleb128 0x1
 4856 01d9 40       		.uleb128 0x40
 4857 01da 06       		.uleb128 0x6
 4858 01db 9642     		.uleb128 0x2116
 4859 01dd 0C       		.uleb128 0xc
 4860 01de 01       		.uleb128 0x1
 4861 01df 13       		.uleb128 0x13
 4862 01e0 00       		.byte	0
 4863 01e1 00       		.byte	0
 4864 01e2 22       		.uleb128 0x22
 4865 01e3 2E       		.uleb128 0x2e
 4866 01e4 01       		.byte	0x1
 4867 01e5 3F       		.uleb128 0x3f
 4868 01e6 0C       		.uleb128 0xc
 4869 01e7 03       		.uleb128 0x3
 4870 01e8 0E       		.uleb128 0xe
 4871 01e9 3A       		.uleb128 0x3a
 4872 01ea 0B       		.uleb128 0xb
 4873 01eb 3B       		.uleb128 0x3b
 4874 01ec 0B       		.uleb128 0xb
 4875 01ed 27       		.uleb128 0x27
 4876 01ee 0C       		.uleb128 0xc
 4877 01ef 49       		.uleb128 0x49
 4878 01f0 13       		.uleb128 0x13
 4879 01f1 11       		.uleb128 0x11
 4880 01f2 01       		.uleb128 0x1
 4881 01f3 12       		.uleb128 0x12
 4882 01f4 01       		.uleb128 0x1
 4883 01f5 40       		.uleb128 0x40
 4884 01f6 06       		.uleb128 0x6
 4885 01f7 9742     		.uleb128 0x2117
 4886 01f9 0C       		.uleb128 0xc
 4887 01fa 01       		.uleb128 0x1
 4888 01fb 13       		.uleb128 0x13
 4889 01fc 00       		.byte	0
 4890 01fd 00       		.byte	0
 4891 01fe 23       		.uleb128 0x23
 4892 01ff 05       		.uleb128 0x5
 4893 0200 00       		.byte	0
 4894 0201 03       		.uleb128 0x3
 4895 0202 08       		.uleb128 0x8
 4896 0203 3A       		.uleb128 0x3a
 4897 0204 0B       		.uleb128 0xb
 4898 0205 3B       		.uleb128 0x3b
 4899 0206 0B       		.uleb128 0xb
 4900 0207 49       		.uleb128 0x49
 4901 0208 13       		.uleb128 0x13
 4902 0209 02       		.uleb128 0x2
 4903 020a 0A       		.uleb128 0xa
 4904 020b 00       		.byte	0
 4905 020c 00       		.byte	0
 4906 020d 24       		.uleb128 0x24
 4907 020e 2E       		.uleb128 0x2e
 4908 020f 00       		.byte	0
ARM GAS  G:\Users\Jaxb\AppData\Local\Temp\ccEJJHY8.s 			page 101


 4909 0210 3F       		.uleb128 0x3f
 4910 0211 0C       		.uleb128 0xc
 4911 0212 03       		.uleb128 0x3
 4912 0213 0E       		.uleb128 0xe
 4913 0214 3A       		.uleb128 0x3a
 4914 0215 0B       		.uleb128 0xb
 4915 0216 3B       		.uleb128 0x3b
 4916 0217 0B       		.uleb128 0xb
 4917 0218 27       		.uleb128 0x27
 4918 0219 0C       		.uleb128 0xc
 4919 021a 11       		.uleb128 0x11
 4920 021b 01       		.uleb128 0x1
 4921 021c 12       		.uleb128 0x12
 4922 021d 01       		.uleb128 0x1
 4923 021e 40       		.uleb128 0x40
 4924 021f 06       		.uleb128 0x6
 4925 0220 9642     		.uleb128 0x2116
 4926 0222 0C       		.uleb128 0xc
 4927 0223 00       		.byte	0
 4928 0224 00       		.byte	0
 4929 0225 25       		.uleb128 0x25
 4930 0226 2E       		.uleb128 0x2e
 4931 0227 01       		.byte	0x1
 4932 0228 3F       		.uleb128 0x3f
 4933 0229 0C       		.uleb128 0xc
 4934 022a 03       		.uleb128 0x3
 4935 022b 0E       		.uleb128 0xe
 4936 022c 3A       		.uleb128 0x3a
 4937 022d 0B       		.uleb128 0xb
 4938 022e 3B       		.uleb128 0x3b
 4939 022f 0B       		.uleb128 0xb
 4940 0230 27       		.uleb128 0x27
 4941 0231 0C       		.uleb128 0xc
 4942 0232 11       		.uleb128 0x11
 4943 0233 01       		.uleb128 0x1
 4944 0234 12       		.uleb128 0x12
 4945 0235 01       		.uleb128 0x1
 4946 0236 40       		.uleb128 0x40
 4947 0237 06       		.uleb128 0x6
 4948 0238 9642     		.uleb128 0x2116
 4949 023a 0C       		.uleb128 0xc
 4950 023b 01       		.uleb128 0x1
 4951 023c 13       		.uleb128 0x13
 4952 023d 00       		.byte	0
 4953 023e 00       		.byte	0
 4954 023f 26       		.uleb128 0x26
 4955 0240 2E       		.uleb128 0x2e
 4956 0241 01       		.byte	0x1
 4957 0242 03       		.uleb128 0x3
 4958 0243 0E       		.uleb128 0xe
 4959 0244 3A       		.uleb128 0x3a
 4960 0245 0B       		.uleb128 0xb
 4961 0246 3B       		.uleb128 0x3b
 4962 0247 0B       		.uleb128 0xb
 4963 0248 27       		.uleb128 0x27
 4964 0249 0C       		.uleb128 0xc
 4965 024a 11       		.uleb128 0x11
ARM GAS  G:\Users\Jaxb\AppData\Local\Temp\ccEJJHY8.s 			page 102


 4966 024b 01       		.uleb128 0x1
 4967 024c 12       		.uleb128 0x12
 4968 024d 01       		.uleb128 0x1
 4969 024e 40       		.uleb128 0x40
 4970 024f 06       		.uleb128 0x6
 4971 0250 9742     		.uleb128 0x2117
 4972 0252 0C       		.uleb128 0xc
 4973 0253 01       		.uleb128 0x1
 4974 0254 13       		.uleb128 0x13
 4975 0255 00       		.byte	0
 4976 0256 00       		.byte	0
 4977 0257 27       		.uleb128 0x27
 4978 0258 2E       		.uleb128 0x2e
 4979 0259 01       		.byte	0x1
 4980 025a 03       		.uleb128 0x3
 4981 025b 0E       		.uleb128 0xe
 4982 025c 3A       		.uleb128 0x3a
 4983 025d 0B       		.uleb128 0xb
 4984 025e 3B       		.uleb128 0x3b
 4985 025f 0B       		.uleb128 0xb
 4986 0260 27       		.uleb128 0x27
 4987 0261 0C       		.uleb128 0xc
 4988 0262 49       		.uleb128 0x49
 4989 0263 13       		.uleb128 0x13
 4990 0264 11       		.uleb128 0x11
 4991 0265 01       		.uleb128 0x1
 4992 0266 12       		.uleb128 0x12
 4993 0267 01       		.uleb128 0x1
 4994 0268 40       		.uleb128 0x40
 4995 0269 06       		.uleb128 0x6
 4996 026a 9742     		.uleb128 0x2117
 4997 026c 0C       		.uleb128 0xc
 4998 026d 01       		.uleb128 0x1
 4999 026e 13       		.uleb128 0x13
 5000 026f 00       		.byte	0
 5001 0270 00       		.byte	0
 5002 0271 28       		.uleb128 0x28
 5003 0272 2E       		.uleb128 0x2e
 5004 0273 01       		.byte	0x1
 5005 0274 03       		.uleb128 0x3
 5006 0275 0E       		.uleb128 0xe
 5007 0276 3A       		.uleb128 0x3a
 5008 0277 0B       		.uleb128 0xb
 5009 0278 3B       		.uleb128 0x3b
 5010 0279 0B       		.uleb128 0xb
 5011 027a 27       		.uleb128 0x27
 5012 027b 0C       		.uleb128 0xc
 5013 027c 11       		.uleb128 0x11
 5014 027d 01       		.uleb128 0x1
 5015 027e 12       		.uleb128 0x12
 5016 027f 01       		.uleb128 0x1
 5017 0280 40       		.uleb128 0x40
 5018 0281 06       		.uleb128 0x6
 5019 0282 9642     		.uleb128 0x2116
 5020 0284 0C       		.uleb128 0xc
 5021 0285 01       		.uleb128 0x1
 5022 0286 13       		.uleb128 0x13
ARM GAS  G:\Users\Jaxb\AppData\Local\Temp\ccEJJHY8.s 			page 103


 5023 0287 00       		.byte	0
 5024 0288 00       		.byte	0
 5025 0289 29       		.uleb128 0x29
 5026 028a 2E       		.uleb128 0x2e
 5027 028b 01       		.byte	0x1
 5028 028c 03       		.uleb128 0x3
 5029 028d 0E       		.uleb128 0xe
 5030 028e 3A       		.uleb128 0x3a
 5031 028f 0B       		.uleb128 0xb
 5032 0290 3B       		.uleb128 0x3b
 5033 0291 0B       		.uleb128 0xb
 5034 0292 27       		.uleb128 0x27
 5035 0293 0C       		.uleb128 0xc
 5036 0294 11       		.uleb128 0x11
 5037 0295 01       		.uleb128 0x1
 5038 0296 12       		.uleb128 0x12
 5039 0297 01       		.uleb128 0x1
 5040 0298 40       		.uleb128 0x40
 5041 0299 06       		.uleb128 0x6
 5042 029a 9742     		.uleb128 0x2117
 5043 029c 0C       		.uleb128 0xc
 5044 029d 00       		.byte	0
 5045 029e 00       		.byte	0
 5046 029f 00       		.byte	0
 5047              		.section	.debug_loc,"",%progbits
 5048              	.Ldebug_loc0:
 5049              	.LLST19:
 5050 0000 440A0000 		.4byte	.LFB25-.Ltext0
 5051 0004 460A0000 		.4byte	.LCFI99-.Ltext0
 5052 0008 0200     		.2byte	0x2
 5053 000a 7D       		.byte	0x7d
 5054 000b 00       		.sleb128 0
 5055 000c 460A0000 		.4byte	.LCFI99-.Ltext0
 5056 0010 480A0000 		.4byte	.LCFI100-.Ltext0
 5057 0014 0200     		.2byte	0x2
 5058 0016 7D       		.byte	0x7d
 5059 0017 08       		.sleb128 8
 5060 0018 480A0000 		.4byte	.LCFI100-.Ltext0
 5061 001c 4A0A0000 		.4byte	.LCFI101-.Ltext0
 5062 0020 0300     		.2byte	0x3
 5063 0022 7D       		.byte	0x7d
 5064 0023 D800     		.sleb128 88
 5065 0025 4A0A0000 		.4byte	.LCFI101-.Ltext0
 5066 0029 8E0C0000 		.4byte	.LCFI102-.Ltext0
 5067 002d 0300     		.2byte	0x3
 5068 002f 77       		.byte	0x77
 5069 0030 D800     		.sleb128 88
 5070 0032 8E0C0000 		.4byte	.LCFI102-.Ltext0
 5071 0036 900C0000 		.4byte	.LCFI103-.Ltext0
 5072 003a 0200     		.2byte	0x2
 5073 003c 77       		.byte	0x77
 5074 003d 08       		.sleb128 8
 5075 003e 900C0000 		.4byte	.LCFI103-.Ltext0
 5076 0042 E00C0000 		.4byte	.LFE25-.Ltext0
 5077 0046 0200     		.2byte	0x2
 5078 0048 7D       		.byte	0x7d
 5079 0049 08       		.sleb128 8
ARM GAS  G:\Users\Jaxb\AppData\Local\Temp\ccEJJHY8.s 			page 104


 5080 004a 00000000 		.4byte	0
 5081 004e 00000000 		.4byte	0
 5082              	.LLST18:
 5083 0052 E8080000 		.4byte	.LFB24-.Ltext0
 5084 0056 EA080000 		.4byte	.LCFI94-.Ltext0
 5085 005a 0200     		.2byte	0x2
 5086 005c 7D       		.byte	0x7d
 5087 005d 00       		.sleb128 0
 5088 005e EA080000 		.4byte	.LCFI94-.Ltext0
 5089 0062 EC080000 		.4byte	.LCFI95-.Ltext0
 5090 0066 0200     		.2byte	0x2
 5091 0068 7D       		.byte	0x7d
 5092 0069 08       		.sleb128 8
 5093 006a EC080000 		.4byte	.LCFI95-.Ltext0
 5094 006e EE080000 		.4byte	.LCFI96-.Ltext0
 5095 0072 0300     		.2byte	0x3
 5096 0074 7D       		.byte	0x7d
 5097 0075 C800     		.sleb128 72
 5098 0077 EE080000 		.4byte	.LCFI96-.Ltext0
 5099 007b 180A0000 		.4byte	.LCFI97-.Ltext0
 5100 007f 0300     		.2byte	0x3
 5101 0081 77       		.byte	0x77
 5102 0082 C800     		.sleb128 72
 5103 0084 180A0000 		.4byte	.LCFI97-.Ltext0
 5104 0088 1A0A0000 		.4byte	.LCFI98-.Ltext0
 5105 008c 0200     		.2byte	0x2
 5106 008e 77       		.byte	0x77
 5107 008f 08       		.sleb128 8
 5108 0090 1A0A0000 		.4byte	.LCFI98-.Ltext0
 5109 0094 440A0000 		.4byte	.LFE24-.Ltext0
 5110 0098 0200     		.2byte	0x2
 5111 009a 7D       		.byte	0x7d
 5112 009b 08       		.sleb128 8
 5113 009c 00000000 		.4byte	0
 5114 00a0 00000000 		.4byte	0
 5115              	.LLST17:
 5116 00a4 CC070000 		.4byte	.LFB23-.Ltext0
 5117 00a8 CE070000 		.4byte	.LCFI89-.Ltext0
 5118 00ac 0200     		.2byte	0x2
 5119 00ae 7D       		.byte	0x7d
 5120 00af 00       		.sleb128 0
 5121 00b0 CE070000 		.4byte	.LCFI89-.Ltext0
 5122 00b4 D0070000 		.4byte	.LCFI90-.Ltext0
 5123 00b8 0200     		.2byte	0x2
 5124 00ba 7D       		.byte	0x7d
 5125 00bb 08       		.sleb128 8
 5126 00bc D0070000 		.4byte	.LCFI90-.Ltext0
 5127 00c0 D2070000 		.4byte	.LCFI91-.Ltext0
 5128 00c4 0200     		.2byte	0x2
 5129 00c6 7D       		.byte	0x7d
 5130 00c7 30       		.sleb128 48
 5131 00c8 D2070000 		.4byte	.LCFI91-.Ltext0
 5132 00cc D6080000 		.4byte	.LCFI92-.Ltext0
 5133 00d0 0200     		.2byte	0x2
 5134 00d2 77       		.byte	0x77
 5135 00d3 30       		.sleb128 48
 5136 00d4 D6080000 		.4byte	.LCFI92-.Ltext0
ARM GAS  G:\Users\Jaxb\AppData\Local\Temp\ccEJJHY8.s 			page 105


 5137 00d8 D8080000 		.4byte	.LCFI93-.Ltext0
 5138 00dc 0200     		.2byte	0x2
 5139 00de 77       		.byte	0x77
 5140 00df 08       		.sleb128 8
 5141 00e0 D8080000 		.4byte	.LCFI93-.Ltext0
 5142 00e4 E8080000 		.4byte	.LFE23-.Ltext0
 5143 00e8 0200     		.2byte	0x2
 5144 00ea 7D       		.byte	0x7d
 5145 00eb 08       		.sleb128 8
 5146 00ec 00000000 		.4byte	0
 5147 00f0 00000000 		.4byte	0
 5148              	.LLST16:
 5149 00f4 7C070000 		.4byte	.LFB22-.Ltext0
 5150 00f8 7E070000 		.4byte	.LCFI84-.Ltext0
 5151 00fc 0200     		.2byte	0x2
 5152 00fe 7D       		.byte	0x7d
 5153 00ff 00       		.sleb128 0
 5154 0100 7E070000 		.4byte	.LCFI84-.Ltext0
 5155 0104 80070000 		.4byte	.LCFI85-.Ltext0
 5156 0108 0200     		.2byte	0x2
 5157 010a 7D       		.byte	0x7d
 5158 010b 08       		.sleb128 8
 5159 010c 80070000 		.4byte	.LCFI85-.Ltext0
 5160 0110 82070000 		.4byte	.LCFI86-.Ltext0
 5161 0114 0200     		.2byte	0x2
 5162 0116 7D       		.byte	0x7d
 5163 0117 18       		.sleb128 24
 5164 0118 82070000 		.4byte	.LCFI86-.Ltext0
 5165 011c C2070000 		.4byte	.LCFI87-.Ltext0
 5166 0120 0200     		.2byte	0x2
 5167 0122 77       		.byte	0x77
 5168 0123 18       		.sleb128 24
 5169 0124 C2070000 		.4byte	.LCFI87-.Ltext0
 5170 0128 C4070000 		.4byte	.LCFI88-.Ltext0
 5171 012c 0200     		.2byte	0x2
 5172 012e 77       		.byte	0x77
 5173 012f 08       		.sleb128 8
 5174 0130 C4070000 		.4byte	.LCFI88-.Ltext0
 5175 0134 CC070000 		.4byte	.LFE22-.Ltext0
 5176 0138 0200     		.2byte	0x2
 5177 013a 7D       		.byte	0x7d
 5178 013b 08       		.sleb128 8
 5179 013c 00000000 		.4byte	0
 5180 0140 00000000 		.4byte	0
 5181              	.LLST15:
 5182 0144 D4060000 		.4byte	.LFB21-.Ltext0
 5183 0148 D6060000 		.4byte	.LCFI79-.Ltext0
 5184 014c 0200     		.2byte	0x2
 5185 014e 7D       		.byte	0x7d
 5186 014f 00       		.sleb128 0
 5187 0150 D6060000 		.4byte	.LCFI79-.Ltext0
 5188 0154 D8060000 		.4byte	.LCFI80-.Ltext0
 5189 0158 0200     		.2byte	0x2
 5190 015a 7D       		.byte	0x7d
 5191 015b 08       		.sleb128 8
 5192 015c D8060000 		.4byte	.LCFI80-.Ltext0
 5193 0160 DA060000 		.4byte	.LCFI81-.Ltext0
ARM GAS  G:\Users\Jaxb\AppData\Local\Temp\ccEJJHY8.s 			page 106


 5194 0164 0200     		.2byte	0x2
 5195 0166 7D       		.byte	0x7d
 5196 0167 20       		.sleb128 32
 5197 0168 DA060000 		.4byte	.LCFI81-.Ltext0
 5198 016c 72070000 		.4byte	.LCFI82-.Ltext0
 5199 0170 0200     		.2byte	0x2
 5200 0172 77       		.byte	0x77
 5201 0173 20       		.sleb128 32
 5202 0174 72070000 		.4byte	.LCFI82-.Ltext0
 5203 0178 74070000 		.4byte	.LCFI83-.Ltext0
 5204 017c 0200     		.2byte	0x2
 5205 017e 77       		.byte	0x77
 5206 017f 08       		.sleb128 8
 5207 0180 74070000 		.4byte	.LCFI83-.Ltext0
 5208 0184 7C070000 		.4byte	.LFE21-.Ltext0
 5209 0188 0200     		.2byte	0x2
 5210 018a 7D       		.byte	0x7d
 5211 018b 08       		.sleb128 8
 5212 018c 00000000 		.4byte	0
 5213 0190 00000000 		.4byte	0
 5214              	.LLST14:
 5215 0194 94040000 		.4byte	.LFB20-.Ltext0
 5216 0198 96040000 		.4byte	.LCFI74-.Ltext0
 5217 019c 0200     		.2byte	0x2
 5218 019e 7D       		.byte	0x7d
 5219 019f 00       		.sleb128 0
 5220 01a0 96040000 		.4byte	.LCFI74-.Ltext0
 5221 01a4 98040000 		.4byte	.LCFI75-.Ltext0
 5222 01a8 0200     		.2byte	0x2
 5223 01aa 7D       		.byte	0x7d
 5224 01ab 08       		.sleb128 8
 5225 01ac 98040000 		.4byte	.LCFI75-.Ltext0
 5226 01b0 9A040000 		.4byte	.LCFI76-.Ltext0
 5227 01b4 0300     		.2byte	0x3
 5228 01b6 7D       		.byte	0x7d
 5229 01b7 C800     		.sleb128 72
 5230 01b9 9A040000 		.4byte	.LCFI76-.Ltext0
 5231 01bd C4060000 		.4byte	.LCFI77-.Ltext0
 5232 01c1 0300     		.2byte	0x3
 5233 01c3 77       		.byte	0x77
 5234 01c4 C800     		.sleb128 72
 5235 01c6 C4060000 		.4byte	.LCFI77-.Ltext0
 5236 01ca C6060000 		.4byte	.LCFI78-.Ltext0
 5237 01ce 0200     		.2byte	0x2
 5238 01d0 77       		.byte	0x77
 5239 01d1 08       		.sleb128 8
 5240 01d2 C6060000 		.4byte	.LCFI78-.Ltext0
 5241 01d6 D4060000 		.4byte	.LFE20-.Ltext0
 5242 01da 0200     		.2byte	0x2
 5243 01dc 7D       		.byte	0x7d
 5244 01dd 08       		.sleb128 8
 5245 01de 00000000 		.4byte	0
 5246 01e2 00000000 		.4byte	0
 5247              	.LLST13:
 5248 01e6 00030000 		.4byte	.LFB19-.Ltext0
 5249 01ea 02030000 		.4byte	.LCFI69-.Ltext0
 5250 01ee 0200     		.2byte	0x2
ARM GAS  G:\Users\Jaxb\AppData\Local\Temp\ccEJJHY8.s 			page 107


 5251 01f0 7D       		.byte	0x7d
 5252 01f1 00       		.sleb128 0
 5253 01f2 02030000 		.4byte	.LCFI69-.Ltext0
 5254 01f6 04030000 		.4byte	.LCFI70-.Ltext0
 5255 01fa 0200     		.2byte	0x2
 5256 01fc 7D       		.byte	0x7d
 5257 01fd 08       		.sleb128 8
 5258 01fe 04030000 		.4byte	.LCFI70-.Ltext0
 5259 0202 06030000 		.4byte	.LCFI71-.Ltext0
 5260 0206 0200     		.2byte	0x2
 5261 0208 7D       		.byte	0x7d
 5262 0209 18       		.sleb128 24
 5263 020a 06030000 		.4byte	.LCFI71-.Ltext0
 5264 020e 82040000 		.4byte	.LCFI72-.Ltext0
 5265 0212 0200     		.2byte	0x2
 5266 0214 77       		.byte	0x77
 5267 0215 18       		.sleb128 24
 5268 0216 82040000 		.4byte	.LCFI72-.Ltext0
 5269 021a 84040000 		.4byte	.LCFI73-.Ltext0
 5270 021e 0200     		.2byte	0x2
 5271 0220 77       		.byte	0x77
 5272 0221 08       		.sleb128 8
 5273 0222 84040000 		.4byte	.LCFI73-.Ltext0
 5274 0226 94040000 		.4byte	.LFE19-.Ltext0
 5275 022a 0200     		.2byte	0x2
 5276 022c 7D       		.byte	0x7d
 5277 022d 08       		.sleb128 8
 5278 022e 00000000 		.4byte	0
 5279 0232 00000000 		.4byte	0
 5280              	.LLST12:
 5281 0236 7C020000 		.4byte	.LFB18-.Ltext0
 5282 023a 7E020000 		.4byte	.LCFI63-.Ltext0
 5283 023e 0200     		.2byte	0x2
 5284 0240 7D       		.byte	0x7d
 5285 0241 00       		.sleb128 0
 5286 0242 7E020000 		.4byte	.LCFI63-.Ltext0
 5287 0246 80020000 		.4byte	.LCFI64-.Ltext0
 5288 024a 0200     		.2byte	0x2
 5289 024c 7D       		.byte	0x7d
 5290 024d 04       		.sleb128 4
 5291 024e 80020000 		.4byte	.LCFI64-.Ltext0
 5292 0252 82020000 		.4byte	.LCFI65-.Ltext0
 5293 0256 0200     		.2byte	0x2
 5294 0258 7D       		.byte	0x7d
 5295 0259 18       		.sleb128 24
 5296 025a 82020000 		.4byte	.LCFI65-.Ltext0
 5297 025e FA020000 		.4byte	.LCFI66-.Ltext0
 5298 0262 0200     		.2byte	0x2
 5299 0264 77       		.byte	0x77
 5300 0265 18       		.sleb128 24
 5301 0266 FA020000 		.4byte	.LCFI66-.Ltext0
 5302 026a FC020000 		.4byte	.LCFI67-.Ltext0
 5303 026e 0200     		.2byte	0x2
 5304 0270 77       		.byte	0x77
 5305 0271 04       		.sleb128 4
 5306 0272 FC020000 		.4byte	.LCFI67-.Ltext0
 5307 0276 FE020000 		.4byte	.LCFI68-.Ltext0
ARM GAS  G:\Users\Jaxb\AppData\Local\Temp\ccEJJHY8.s 			page 108


 5308 027a 0200     		.2byte	0x2
 5309 027c 7D       		.byte	0x7d
 5310 027d 04       		.sleb128 4
 5311 027e FE020000 		.4byte	.LCFI68-.Ltext0
 5312 0282 00030000 		.4byte	.LFE18-.Ltext0
 5313 0286 0200     		.2byte	0x2
 5314 0288 7D       		.byte	0x7d
 5315 0289 00       		.sleb128 0
 5316 028a 00000000 		.4byte	0
 5317 028e 00000000 		.4byte	0
 5318              	.LLST11:
 5319 0292 28020000 		.4byte	.LFB17-.Ltext0
 5320 0296 2A020000 		.4byte	.LCFI61-.Ltext0
 5321 029a 0200     		.2byte	0x2
 5322 029c 7D       		.byte	0x7d
 5323 029d 00       		.sleb128 0
 5324 029e 2A020000 		.4byte	.LCFI61-.Ltext0
 5325 02a2 2C020000 		.4byte	.LCFI62-.Ltext0
 5326 02a6 0200     		.2byte	0x2
 5327 02a8 7D       		.byte	0x7d
 5328 02a9 08       		.sleb128 8
 5329 02aa 2C020000 		.4byte	.LCFI62-.Ltext0
 5330 02ae 7C020000 		.4byte	.LFE17-.Ltext0
 5331 02b2 0200     		.2byte	0x2
 5332 02b4 77       		.byte	0x77
 5333 02b5 08       		.sleb128 8
 5334 02b6 00000000 		.4byte	0
 5335 02ba 00000000 		.4byte	0
 5336              	.LLST10:
 5337 02be B4010000 		.4byte	.LFB16-.Ltext0
 5338 02c2 B6010000 		.4byte	.LCFI56-.Ltext0
 5339 02c6 0200     		.2byte	0x2
 5340 02c8 7D       		.byte	0x7d
 5341 02c9 00       		.sleb128 0
 5342 02ca B6010000 		.4byte	.LCFI56-.Ltext0
 5343 02ce B8010000 		.4byte	.LCFI57-.Ltext0
 5344 02d2 0200     		.2byte	0x2
 5345 02d4 7D       		.byte	0x7d
 5346 02d5 08       		.sleb128 8
 5347 02d6 B8010000 		.4byte	.LCFI57-.Ltext0
 5348 02da BA010000 		.4byte	.LCFI58-.Ltext0
 5349 02de 0200     		.2byte	0x2
 5350 02e0 7D       		.byte	0x7d
 5351 02e1 20       		.sleb128 32
 5352 02e2 BA010000 		.4byte	.LCFI58-.Ltext0
 5353 02e6 20020000 		.4byte	.LCFI59-.Ltext0
 5354 02ea 0200     		.2byte	0x2
 5355 02ec 77       		.byte	0x77
 5356 02ed 20       		.sleb128 32
 5357 02ee 20020000 		.4byte	.LCFI59-.Ltext0
 5358 02f2 22020000 		.4byte	.LCFI60-.Ltext0
 5359 02f6 0200     		.2byte	0x2
 5360 02f8 77       		.byte	0x77
 5361 02f9 08       		.sleb128 8
 5362 02fa 22020000 		.4byte	.LCFI60-.Ltext0
 5363 02fe 28020000 		.4byte	.LFE16-.Ltext0
 5364 0302 0200     		.2byte	0x2
ARM GAS  G:\Users\Jaxb\AppData\Local\Temp\ccEJJHY8.s 			page 109


 5365 0304 7D       		.byte	0x7d
 5366 0305 08       		.sleb128 8
 5367 0306 00000000 		.4byte	0
 5368 030a 00000000 		.4byte	0
 5369              	.LLST9:
 5370 030e 70010000 		.4byte	.LFB15-.Ltext0
 5371 0312 72010000 		.4byte	.LCFI51-.Ltext0
 5372 0316 0200     		.2byte	0x2
 5373 0318 7D       		.byte	0x7d
 5374 0319 00       		.sleb128 0
 5375 031a 72010000 		.4byte	.LCFI51-.Ltext0
 5376 031e 74010000 		.4byte	.LCFI52-.Ltext0
 5377 0322 0200     		.2byte	0x2
 5378 0324 7D       		.byte	0x7d
 5379 0325 08       		.sleb128 8
 5380 0326 74010000 		.4byte	.LCFI52-.Ltext0
 5381 032a 76010000 		.4byte	.LCFI53-.Ltext0
 5382 032e 0200     		.2byte	0x2
 5383 0330 7D       		.byte	0x7d
 5384 0331 18       		.sleb128 24
 5385 0332 76010000 		.4byte	.LCFI53-.Ltext0
 5386 0336 AC010000 		.4byte	.LCFI54-.Ltext0
 5387 033a 0200     		.2byte	0x2
 5388 033c 77       		.byte	0x77
 5389 033d 18       		.sleb128 24
 5390 033e AC010000 		.4byte	.LCFI54-.Ltext0
 5391 0342 AE010000 		.4byte	.LCFI55-.Ltext0
 5392 0346 0200     		.2byte	0x2
 5393 0348 77       		.byte	0x77
 5394 0349 08       		.sleb128 8
 5395 034a AE010000 		.4byte	.LCFI55-.Ltext0
 5396 034e B4010000 		.4byte	.LFE15-.Ltext0
 5397 0352 0200     		.2byte	0x2
 5398 0354 7D       		.byte	0x7d
 5399 0355 08       		.sleb128 8
 5400 0356 00000000 		.4byte	0
 5401 035a 00000000 		.4byte	0
 5402              	.LLST8:
 5403 035e 08010000 		.4byte	.LFB14-.Ltext0
 5404 0362 0A010000 		.4byte	.LCFI46-.Ltext0
 5405 0366 0200     		.2byte	0x2
 5406 0368 7D       		.byte	0x7d
 5407 0369 00       		.sleb128 0
 5408 036a 0A010000 		.4byte	.LCFI46-.Ltext0
 5409 036e 0C010000 		.4byte	.LCFI47-.Ltext0
 5410 0372 0200     		.2byte	0x2
 5411 0374 7D       		.byte	0x7d
 5412 0375 08       		.sleb128 8
 5413 0376 0C010000 		.4byte	.LCFI47-.Ltext0
 5414 037a 0E010000 		.4byte	.LCFI48-.Ltext0
 5415 037e 0200     		.2byte	0x2
 5416 0380 7D       		.byte	0x7d
 5417 0381 18       		.sleb128 24
 5418 0382 0E010000 		.4byte	.LCFI48-.Ltext0
 5419 0386 5C010000 		.4byte	.LCFI49-.Ltext0
 5420 038a 0200     		.2byte	0x2
 5421 038c 77       		.byte	0x77
ARM GAS  G:\Users\Jaxb\AppData\Local\Temp\ccEJJHY8.s 			page 110


 5422 038d 18       		.sleb128 24
 5423 038e 5C010000 		.4byte	.LCFI49-.Ltext0
 5424 0392 5E010000 		.4byte	.LCFI50-.Ltext0
 5425 0396 0200     		.2byte	0x2
 5426 0398 77       		.byte	0x77
 5427 0399 08       		.sleb128 8
 5428 039a 5E010000 		.4byte	.LCFI50-.Ltext0
 5429 039e 70010000 		.4byte	.LFE14-.Ltext0
 5430 03a2 0200     		.2byte	0x2
 5431 03a4 7D       		.byte	0x7d
 5432 03a5 08       		.sleb128 8
 5433 03a6 00000000 		.4byte	0
 5434 03aa 00000000 		.4byte	0
 5435              	.LLST7:
 5436 03ae E6000000 		.4byte	.LFB11-.Ltext0
 5437 03b2 E8000000 		.4byte	.LCFI40-.Ltext0
 5438 03b6 0200     		.2byte	0x2
 5439 03b8 7D       		.byte	0x7d
 5440 03b9 00       		.sleb128 0
 5441 03ba E8000000 		.4byte	.LCFI40-.Ltext0
 5442 03be EA000000 		.4byte	.LCFI41-.Ltext0
 5443 03c2 0200     		.2byte	0x2
 5444 03c4 7D       		.byte	0x7d
 5445 03c5 04       		.sleb128 4
 5446 03c6 EA000000 		.4byte	.LCFI41-.Ltext0
 5447 03ca EC000000 		.4byte	.LCFI42-.Ltext0
 5448 03ce 0200     		.2byte	0x2
 5449 03d0 7D       		.byte	0x7d
 5450 03d1 10       		.sleb128 16
 5451 03d2 EC000000 		.4byte	.LCFI42-.Ltext0
 5452 03d6 02010000 		.4byte	.LCFI43-.Ltext0
 5453 03da 0200     		.2byte	0x2
 5454 03dc 77       		.byte	0x77
 5455 03dd 10       		.sleb128 16
 5456 03de 02010000 		.4byte	.LCFI43-.Ltext0
 5457 03e2 04010000 		.4byte	.LCFI44-.Ltext0
 5458 03e6 0200     		.2byte	0x2
 5459 03e8 77       		.byte	0x77
 5460 03e9 04       		.sleb128 4
 5461 03ea 04010000 		.4byte	.LCFI44-.Ltext0
 5462 03ee 06010000 		.4byte	.LCFI45-.Ltext0
 5463 03f2 0200     		.2byte	0x2
 5464 03f4 7D       		.byte	0x7d
 5465 03f5 04       		.sleb128 4
 5466 03f6 06010000 		.4byte	.LCFI45-.Ltext0
 5467 03fa 08010000 		.4byte	.LFE11-.Ltext0
 5468 03fe 0200     		.2byte	0x2
 5469 0400 7D       		.byte	0x7d
 5470 0401 00       		.sleb128 0
 5471 0402 00000000 		.4byte	0
 5472 0406 00000000 		.4byte	0
 5473              	.LLST6:
 5474 040a CE000000 		.4byte	.LFB10-.Ltext0
 5475 040e D0000000 		.4byte	.LCFI34-.Ltext0
 5476 0412 0200     		.2byte	0x2
 5477 0414 7D       		.byte	0x7d
 5478 0415 00       		.sleb128 0
ARM GAS  G:\Users\Jaxb\AppData\Local\Temp\ccEJJHY8.s 			page 111


 5479 0416 D0000000 		.4byte	.LCFI34-.Ltext0
 5480 041a D2000000 		.4byte	.LCFI35-.Ltext0
 5481 041e 0200     		.2byte	0x2
 5482 0420 7D       		.byte	0x7d
 5483 0421 04       		.sleb128 4
 5484 0422 D2000000 		.4byte	.LCFI35-.Ltext0
 5485 0426 D4000000 		.4byte	.LCFI36-.Ltext0
 5486 042a 0200     		.2byte	0x2
 5487 042c 7D       		.byte	0x7d
 5488 042d 10       		.sleb128 16
 5489 042e D4000000 		.4byte	.LCFI36-.Ltext0
 5490 0432 E0000000 		.4byte	.LCFI37-.Ltext0
 5491 0436 0200     		.2byte	0x2
 5492 0438 77       		.byte	0x77
 5493 0439 10       		.sleb128 16
 5494 043a E0000000 		.4byte	.LCFI37-.Ltext0
 5495 043e E2000000 		.4byte	.LCFI38-.Ltext0
 5496 0442 0200     		.2byte	0x2
 5497 0444 77       		.byte	0x77
 5498 0445 04       		.sleb128 4
 5499 0446 E2000000 		.4byte	.LCFI38-.Ltext0
 5500 044a E4000000 		.4byte	.LCFI39-.Ltext0
 5501 044e 0200     		.2byte	0x2
 5502 0450 7D       		.byte	0x7d
 5503 0451 04       		.sleb128 4
 5504 0452 E4000000 		.4byte	.LCFI39-.Ltext0
 5505 0456 E6000000 		.4byte	.LFE10-.Ltext0
 5506 045a 0200     		.2byte	0x2
 5507 045c 7D       		.byte	0x7d
 5508 045d 00       		.sleb128 0
 5509 045e 00000000 		.4byte	0
 5510 0462 00000000 		.4byte	0
 5511              	.LLST5:
 5512 0466 AC000000 		.4byte	.LFB9-.Ltext0
 5513 046a AE000000 		.4byte	.LCFI28-.Ltext0
 5514 046e 0200     		.2byte	0x2
 5515 0470 7D       		.byte	0x7d
 5516 0471 00       		.sleb128 0
 5517 0472 AE000000 		.4byte	.LCFI28-.Ltext0
 5518 0476 B0000000 		.4byte	.LCFI29-.Ltext0
 5519 047a 0200     		.2byte	0x2
 5520 047c 7D       		.byte	0x7d
 5521 047d 04       		.sleb128 4
 5522 047e B0000000 		.4byte	.LCFI29-.Ltext0
 5523 0482 B2000000 		.4byte	.LCFI30-.Ltext0
 5524 0486 0200     		.2byte	0x2
 5525 0488 7D       		.byte	0x7d
 5526 0489 10       		.sleb128 16
 5527 048a B2000000 		.4byte	.LCFI30-.Ltext0
 5528 048e C8000000 		.4byte	.LCFI31-.Ltext0
 5529 0492 0200     		.2byte	0x2
 5530 0494 77       		.byte	0x77
 5531 0495 10       		.sleb128 16
 5532 0496 C8000000 		.4byte	.LCFI31-.Ltext0
 5533 049a CA000000 		.4byte	.LCFI32-.Ltext0
 5534 049e 0200     		.2byte	0x2
 5535 04a0 77       		.byte	0x77
ARM GAS  G:\Users\Jaxb\AppData\Local\Temp\ccEJJHY8.s 			page 112


 5536 04a1 04       		.sleb128 4
 5537 04a2 CA000000 		.4byte	.LCFI32-.Ltext0
 5538 04a6 CC000000 		.4byte	.LCFI33-.Ltext0
 5539 04aa 0200     		.2byte	0x2
 5540 04ac 7D       		.byte	0x7d
 5541 04ad 04       		.sleb128 4
 5542 04ae CC000000 		.4byte	.LCFI33-.Ltext0
 5543 04b2 CE000000 		.4byte	.LFE9-.Ltext0
 5544 04b6 0200     		.2byte	0x2
 5545 04b8 7D       		.byte	0x7d
 5546 04b9 00       		.sleb128 0
 5547 04ba 00000000 		.4byte	0
 5548 04be 00000000 		.4byte	0
 5549              	.LLST4:
 5550 04c2 8C000000 		.4byte	.LFB5-.Ltext0
 5551 04c6 8E000000 		.4byte	.LCFI23-.Ltext0
 5552 04ca 0200     		.2byte	0x2
 5553 04cc 7D       		.byte	0x7d
 5554 04cd 00       		.sleb128 0
 5555 04ce 8E000000 		.4byte	.LCFI23-.Ltext0
 5556 04d2 90000000 		.4byte	.LCFI24-.Ltext0
 5557 04d6 0200     		.2byte	0x2
 5558 04d8 7D       		.byte	0x7d
 5559 04d9 08       		.sleb128 8
 5560 04da 90000000 		.4byte	.LCFI24-.Ltext0
 5561 04de 92000000 		.4byte	.LCFI25-.Ltext0
 5562 04e2 0200     		.2byte	0x2
 5563 04e4 7D       		.byte	0x7d
 5564 04e5 10       		.sleb128 16
 5565 04e6 92000000 		.4byte	.LCFI25-.Ltext0
 5566 04ea A8000000 		.4byte	.LCFI26-.Ltext0
 5567 04ee 0200     		.2byte	0x2
 5568 04f0 77       		.byte	0x77
 5569 04f1 10       		.sleb128 16
 5570 04f2 A8000000 		.4byte	.LCFI26-.Ltext0
 5571 04f6 AA000000 		.4byte	.LCFI27-.Ltext0
 5572 04fa 0200     		.2byte	0x2
 5573 04fc 77       		.byte	0x77
 5574 04fd 08       		.sleb128 8
 5575 04fe AA000000 		.4byte	.LCFI27-.Ltext0
 5576 0502 AC000000 		.4byte	.LFE5-.Ltext0
 5577 0506 0200     		.2byte	0x2
 5578 0508 7D       		.byte	0x7d
 5579 0509 08       		.sleb128 8
 5580 050a 00000000 		.4byte	0
 5581 050e 00000000 		.4byte	0
 5582              	.LLST3:
 5583 0512 6C000000 		.4byte	.LFB4-.Ltext0
 5584 0516 6E000000 		.4byte	.LCFI17-.Ltext0
 5585 051a 0200     		.2byte	0x2
 5586 051c 7D       		.byte	0x7d
 5587 051d 00       		.sleb128 0
 5588 051e 6E000000 		.4byte	.LCFI17-.Ltext0
 5589 0522 70000000 		.4byte	.LCFI18-.Ltext0
 5590 0526 0200     		.2byte	0x2
 5591 0528 7D       		.byte	0x7d
 5592 0529 04       		.sleb128 4
ARM GAS  G:\Users\Jaxb\AppData\Local\Temp\ccEJJHY8.s 			page 113


 5593 052a 70000000 		.4byte	.LCFI18-.Ltext0
 5594 052e 72000000 		.4byte	.LCFI19-.Ltext0
 5595 0532 0200     		.2byte	0x2
 5596 0534 7D       		.byte	0x7d
 5597 0535 10       		.sleb128 16
 5598 0536 72000000 		.4byte	.LCFI19-.Ltext0
 5599 053a 86000000 		.4byte	.LCFI20-.Ltext0
 5600 053e 0200     		.2byte	0x2
 5601 0540 77       		.byte	0x77
 5602 0541 10       		.sleb128 16
 5603 0542 86000000 		.4byte	.LCFI20-.Ltext0
 5604 0546 88000000 		.4byte	.LCFI21-.Ltext0
 5605 054a 0200     		.2byte	0x2
 5606 054c 77       		.byte	0x77
 5607 054d 04       		.sleb128 4
 5608 054e 88000000 		.4byte	.LCFI21-.Ltext0
 5609 0552 8A000000 		.4byte	.LCFI22-.Ltext0
 5610 0556 0200     		.2byte	0x2
 5611 0558 7D       		.byte	0x7d
 5612 0559 04       		.sleb128 4
 5613 055a 8A000000 		.4byte	.LCFI22-.Ltext0
 5614 055e 8C000000 		.4byte	.LFE4-.Ltext0
 5615 0562 0200     		.2byte	0x2
 5616 0564 7D       		.byte	0x7d
 5617 0565 00       		.sleb128 0
 5618 0566 00000000 		.4byte	0
 5619 056a 00000000 		.4byte	0
 5620              	.LLST2:
 5621 056e 4C000000 		.4byte	.LFB2-.Ltext0
 5622 0572 4E000000 		.4byte	.LCFI12-.Ltext0
 5623 0576 0200     		.2byte	0x2
 5624 0578 7D       		.byte	0x7d
 5625 0579 00       		.sleb128 0
 5626 057a 4E000000 		.4byte	.LCFI12-.Ltext0
 5627 057e 50000000 		.4byte	.LCFI13-.Ltext0
 5628 0582 0200     		.2byte	0x2
 5629 0584 7D       		.byte	0x7d
 5630 0585 08       		.sleb128 8
 5631 0586 50000000 		.4byte	.LCFI13-.Ltext0
 5632 058a 52000000 		.4byte	.LCFI14-.Ltext0
 5633 058e 0200     		.2byte	0x2
 5634 0590 7D       		.byte	0x7d
 5635 0591 10       		.sleb128 16
 5636 0592 52000000 		.4byte	.LCFI14-.Ltext0
 5637 0596 68000000 		.4byte	.LCFI15-.Ltext0
 5638 059a 0200     		.2byte	0x2
 5639 059c 77       		.byte	0x77
 5640 059d 10       		.sleb128 16
 5641 059e 68000000 		.4byte	.LCFI15-.Ltext0
 5642 05a2 6A000000 		.4byte	.LCFI16-.Ltext0
 5643 05a6 0200     		.2byte	0x2
 5644 05a8 77       		.byte	0x77
 5645 05a9 08       		.sleb128 8
 5646 05aa 6A000000 		.4byte	.LCFI16-.Ltext0
 5647 05ae 6C000000 		.4byte	.LFE2-.Ltext0
 5648 05b2 0200     		.2byte	0x2
 5649 05b4 7D       		.byte	0x7d
ARM GAS  G:\Users\Jaxb\AppData\Local\Temp\ccEJJHY8.s 			page 114


 5650 05b5 08       		.sleb128 8
 5651 05b6 00000000 		.4byte	0
 5652 05ba 00000000 		.4byte	0
 5653              	.LLST1:
 5654 05be 1E000000 		.4byte	.LFB1-.Ltext0
 5655 05c2 20000000 		.4byte	.LCFI6-.Ltext0
 5656 05c6 0200     		.2byte	0x2
 5657 05c8 7D       		.byte	0x7d
 5658 05c9 00       		.sleb128 0
 5659 05ca 20000000 		.4byte	.LCFI6-.Ltext0
 5660 05ce 22000000 		.4byte	.LCFI7-.Ltext0
 5661 05d2 0200     		.2byte	0x2
 5662 05d4 7D       		.byte	0x7d
 5663 05d5 04       		.sleb128 4
 5664 05d6 22000000 		.4byte	.LCFI7-.Ltext0
 5665 05da 24000000 		.4byte	.LCFI8-.Ltext0
 5666 05de 0200     		.2byte	0x2
 5667 05e0 7D       		.byte	0x7d
 5668 05e1 18       		.sleb128 24
 5669 05e2 24000000 		.4byte	.LCFI8-.Ltext0
 5670 05e6 46000000 		.4byte	.LCFI9-.Ltext0
 5671 05ea 0200     		.2byte	0x2
 5672 05ec 77       		.byte	0x77
 5673 05ed 18       		.sleb128 24
 5674 05ee 46000000 		.4byte	.LCFI9-.Ltext0
 5675 05f2 48000000 		.4byte	.LCFI10-.Ltext0
 5676 05f6 0200     		.2byte	0x2
 5677 05f8 77       		.byte	0x77
 5678 05f9 04       		.sleb128 4
 5679 05fa 48000000 		.4byte	.LCFI10-.Ltext0
 5680 05fe 4A000000 		.4byte	.LCFI11-.Ltext0
 5681 0602 0200     		.2byte	0x2
 5682 0604 7D       		.byte	0x7d
 5683 0605 04       		.sleb128 4
 5684 0606 4A000000 		.4byte	.LCFI11-.Ltext0
 5685 060a 4C000000 		.4byte	.LFE1-.Ltext0
 5686 060e 0200     		.2byte	0x2
 5687 0610 7D       		.byte	0x7d
 5688 0611 00       		.sleb128 0
 5689 0612 00000000 		.4byte	0
 5690 0616 00000000 		.4byte	0
 5691              	.LLST0:
 5692 061a 00000000 		.4byte	.LFB0-.Ltext0
 5693 061e 02000000 		.4byte	.LCFI0-.Ltext0
 5694 0622 0200     		.2byte	0x2
 5695 0624 7D       		.byte	0x7d
 5696 0625 00       		.sleb128 0
 5697 0626 02000000 		.4byte	.LCFI0-.Ltext0
 5698 062a 04000000 		.4byte	.LCFI1-.Ltext0
 5699 062e 0200     		.2byte	0x2
 5700 0630 7D       		.byte	0x7d
 5701 0631 04       		.sleb128 4
 5702 0632 04000000 		.4byte	.LCFI1-.Ltext0
 5703 0636 06000000 		.4byte	.LCFI2-.Ltext0
 5704 063a 0200     		.2byte	0x2
 5705 063c 7D       		.byte	0x7d
 5706 063d 10       		.sleb128 16
ARM GAS  G:\Users\Jaxb\AppData\Local\Temp\ccEJJHY8.s 			page 115


 5707 063e 06000000 		.4byte	.LCFI2-.Ltext0
 5708 0642 18000000 		.4byte	.LCFI3-.Ltext0
 5709 0646 0200     		.2byte	0x2
 5710 0648 77       		.byte	0x77
 5711 0649 10       		.sleb128 16
 5712 064a 18000000 		.4byte	.LCFI3-.Ltext0
 5713 064e 1A000000 		.4byte	.LCFI4-.Ltext0
 5714 0652 0200     		.2byte	0x2
 5715 0654 77       		.byte	0x77
 5716 0655 04       		.sleb128 4
 5717 0656 1A000000 		.4byte	.LCFI4-.Ltext0
 5718 065a 1C000000 		.4byte	.LCFI5-.Ltext0
 5719 065e 0200     		.2byte	0x2
 5720 0660 7D       		.byte	0x7d
 5721 0661 04       		.sleb128 4
 5722 0662 1C000000 		.4byte	.LCFI5-.Ltext0
 5723 0666 1E000000 		.4byte	.LFE0-.Ltext0
 5724 066a 0200     		.2byte	0x2
 5725 066c 7D       		.byte	0x7d
 5726 066d 00       		.sleb128 0
 5727 066e 00000000 		.4byte	0
 5728 0672 00000000 		.4byte	0
 5729              		.section	.debug_aranges,"",%progbits
 5730 0000 1C000000 		.4byte	0x1c
 5731 0004 0200     		.2byte	0x2
 5732 0006 00000000 		.4byte	.Ldebug_info0
 5733 000a 04       		.byte	0x4
 5734 000b 00       		.byte	0
 5735 000c 0000     		.2byte	0
 5736 000e 0000     		.2byte	0
 5737 0010 00000000 		.4byte	.Ltext0
 5738 0014 E00C0000 		.4byte	.Letext0-.Ltext0
 5739 0018 00000000 		.4byte	0
 5740 001c 00000000 		.4byte	0
 5741              		.section	.debug_ranges,"",%progbits
 5742              	.Ldebug_ranges0:
 5743 0000 CC040000 		.4byte	.LBB5-.Ltext0
 5744 0004 0E060000 		.4byte	.LBE5-.Ltext0
 5745 0008 4E060000 		.4byte	.LBB14-.Ltext0
 5746 000c 50060000 		.4byte	.LBE14-.Ltext0
 5747 0010 00000000 		.4byte	0
 5748 0014 00000000 		.4byte	0
 5749 0018 94050000 		.4byte	.LBB11-.Ltext0
 5750 001c 0E060000 		.4byte	.LBE11-.Ltext0
 5751 0020 4E060000 		.4byte	.LBB12-.Ltext0
 5752 0024 50060000 		.4byte	.LBE12-.Ltext0
 5753 0028 00000000 		.4byte	0
 5754 002c 00000000 		.4byte	0
 5755              		.section	.debug_line,"",%progbits
 5756              	.Ldebug_line0:
 5757 0000 24040000 		.section	.debug_str,"MS",%progbits,1
 5757      02001601 
 5757      00000201 
 5757      FB0E0D00 
 5757      01010101 
 5758              	.LASF87:
 5759 0000 6164645F 		.ascii	"add_page_alloc_record\000"
ARM GAS  G:\Users\Jaxb\AppData\Local\Temp\ccEJJHY8.s 			page 116


 5759      70616765 
 5759      5F616C6C 
 5759      6F635F72 
 5759      65636F72 
 5760              	.LASF101:
 5761 0016 696E6974 		.ascii	"init_malloc\000"
 5761      5F6D616C 
 5761      6C6F6300 
 5762              	.LASF12:
 5763 0022 434F4D50 		.ascii	"COMPARE_TYPE\000"
 5763      4152455F 
 5763      54595045 
 5763      00
 5764              	.LASF27:
 5765 002f 626C6F63 		.ascii	"block_size\000"
 5765      6B5F7369 
 5765      7A6500
 5766              	.LASF13:
 5767 003a 6C697374 		.ascii	"list_head\000"
 5767      5F686561 
 5767      6400
 5768              	.LASF36:
 5769 0044 62756464 		.ascii	"buddy_info\000"
 5769      795F696E 
 5769      666F00
 5770              	.LASF90:
 5771 004f 73696E67 		.ascii	"singly_list_add\000"
 5771      6C795F6C 
 5771      6973745F 
 5771      61646400 
 5772              	.LASF28:
 5773 005f 736C6162 		.ascii	"slab_chain\000"
 5773      5F636861 
 5773      696E00
 5774              	.LASF47:
 5775 006a 6C696E6B 		.ascii	"link_body\000"
 5775      5F626F64 
 5775      7900
 5776              	.LASF66:
 5777 0074 61726763 		.ascii	"argc\000"
 5777      00
 5778              	.LASF20:
 5779 0079 736C6162 		.ascii	"slabs_partial\000"
 5779      735F7061 
 5779      72746961 
 5779      6C00
 5780              	.LASF89:
 5781 0087 6469735F 		.ascii	"dis_page_alloc_record\000"
 5781      70616765 
 5781      5F616C6C 
 5781      6F635F72 
 5781      65636F72 
 5782              	.LASF1:
 5783 009d 73686F72 		.ascii	"short int\000"
 5783      7420696E 
 5783      7400
 5784              	.LASF9:
ARM GAS  G:\Users\Jaxb\AppData\Local\Temp\ccEJJHY8.s 			page 117


 5785 00a7 73697A65 		.ascii	"size_t\000"
 5785      5F7400
 5786              	.LASF80:
 5787 00ae 6B615F6D 		.ascii	"ka_malloc\000"
 5787      616C6C6F 
 5787      6300
 5788              	.LASF83:
 5789 00b8 5F636173 		.ascii	"_case_alloc_buddy\000"
 5789      655F616C 
 5789      6C6F635F 
 5789      62756464 
 5789      7900
 5790              	.LASF96:
 5791 00ca 6C697374 		.ascii	"list_add\000"
 5791      5F616464 
 5791      00
 5792              	.LASF6:
 5793 00d3 55494E54 		.ascii	"UINT32\000"
 5793      333200
 5794              	.LASF82:
 5795 00da 66726565 		.ascii	"free_find_in_slab_chain\000"
 5795      5F66696E 
 5795      645F696E 
 5795      5F736C61 
 5795      625F6368 
 5796              	.LASF72:
 5797 00f2 5F5F6D70 		.ascii	"__mptr\000"
 5797      747200
 5798              	.LASF91:
 5799 00f9 494E4954 		.ascii	"INIT_SINGLY_LIST_HEAD\000"
 5799      5F53494E 
 5799      474C595F 
 5799      4C495354 
 5799      5F484541 
 5800              	.LASF102:
 5801 010f 494E4954 		.ascii	"INIT_LIST_HEAD\000"
 5801      5F4C4953 
 5801      545F4845 
 5801      414400
 5802              	.LASF44:
 5803 011e 6C697374 		.ascii	"list\000"
 5803      00
 5804              	.LASF78:
 5805 0123 68656164 		.ascii	"head\000"
 5805      00
 5806              	.LASF49:
 5807 0128 6F726465 		.ascii	"order_link_flag\000"
 5807      725F6C69 
 5807      6E6B5F66 
 5807      6C616700 
 5808              	.LASF41:
 5809 0138 6F726465 		.ascii	"order_link\000"
 5809      725F6C69 
 5809      6E6B00
 5810              	.LASF86:
 5811 0143 7265636F 		.ascii	"record_ptr\000"
 5811      72645F70 
ARM GAS  G:\Users\Jaxb\AppData\Local\Temp\ccEJJHY8.s 			page 118


 5811      747200
 5812              	.LASF34:
 5813 014e 50616765 		.ascii	"Page_Num_Type\000"
 5813      5F4E756D 
 5813      5F547970 
 5813      6500
 5814              	.LASF97:
 5815 015c 5F5F6C69 		.ascii	"__list_add\000"
 5815      73745F61 
 5815      646400
 5816              	.LASF58:
 5817 0167 63616368 		.ascii	"cache_chain_head\000"
 5817      655F6368 
 5817      61696E5F 
 5817      68656164 
 5817      00
 5818              	.LASF92:
 5819 0178 6C697374 		.ascii	"list_empty\000"
 5819      5F656D70 
 5819      747900
 5820              	.LASF31:
 5821 0183 73696E67 		.ascii	"singly_list_head\000"
 5821      6C795F6C 
 5821      6973745F 
 5821      68656164 
 5821      00
 5822              	.LASF42:
 5823 0194 70616765 		.ascii	"page_alloc_record\000"
 5823      5F616C6C 
 5823      6F635F72 
 5823      65636F72 
 5823      6400
 5824              	.LASF75:
 5825 01a6 7368656C 		.ascii	"shell_check_kmem\000"
 5825      6C5F6368 
 5825      65636B5F 
 5825      6B6D656D 
 5825      00
 5826              	.LASF67:
 5827 01b7 61726776 		.ascii	"argv\000"
 5827      00
 5828              	.LASF76:
 5829 01bc 6B615F66 		.ascii	"ka_free\000"
 5829      72656500 
 5830              	.LASF100:
 5831 01c4 463A5C6B 		.ascii	"F:\\kaka\\KAKAOS\\C\\windows\\Project\\RVMDK\243\250"
 5831      616B615C 
 5831      4B414B41 
 5831      4F535C43 
 5831      5C77696E 
 5832 01ec 757635A3 		.ascii	"uv5\243\251\000"
 5832      A900
 5833              	.LASF2:
 5834 01f2 6C6F6E67 		.ascii	"long long int\000"
 5834      206C6F6E 
 5834      6720696E 
 5834      7400
ARM GAS  G:\Users\Jaxb\AppData\Local\Temp\ccEJJHY8.s 			page 119


 5835              	.LASF84:
 5836 0200 6765745F 		.ascii	"get_set_bit_place\000"
 5836      7365745F 
 5836      6269745F 
 5836      706C6163 
 5836      6500
 5837              	.LASF26:
 5838 0212 66756C6C 		.ascii	"full_block_num\000"
 5838      5F626C6F 
 5838      636B5F6E 
 5838      756D00
 5839              	.LASF59:
 5840 0221 6B6D656D 		.ascii	"kmem_cache16\000"
 5840      5F636163 
 5840      68653136 
 5840      00
 5841              	.LASF38:
 5842 022e 70616765 		.ascii	"page_num\000"
 5842      5F6E756D 
 5842      00
 5843              	.LASF35:
 5844 0237 42756464 		.ascii	"Buddy_Space_Type\000"
 5844      795F5370 
 5844      6163655F 
 5844      54797065 
 5844      00
 5845              	.LASF69:
 5846 0248 6B6D656D 		.ascii	"kmem_cache_ptr\000"
 5846      5F636163 
 5846      68655F70 
 5846      747200
 5847              	.LASF32:
 5848 0257 62756464 		.ascii	"buddy_space_struct\000"
 5848      795F7370 
 5848      6163655F 
 5848      73747275 
 5848      637400
 5849              	.LASF37:
 5850 026a 666C6167 		.ascii	"flag_array_num\000"
 5850      5F617272 
 5850      61795F6E 
 5850      756D00
 5851              	.LASF63:
 5852 0279 675F696E 		.ascii	"g_interrupt_count\000"
 5852      74657272 
 5852      7570745F 
 5852      636F756E 
 5852      7400
 5853              	.LASF21:
 5854 028b 736C6162 		.ascii	"slabs_empty\000"
 5854      735F656D 
 5854      70747900 
 5855              	.LASF99:
 5856 0297 2E2E2F2E 		.ascii	"../../source/src/kernel/OS_LIB/malloc.c\000"
 5856      2E2F736F 
 5856      75726365 
 5856      2F737263 
ARM GAS  G:\Users\Jaxb\AppData\Local\Temp\ccEJJHY8.s 			page 120


 5856      2F6B6572 
 5857              	.LASF3:
 5858 02bf 756E7369 		.ascii	"unsigned char\000"
 5858      676E6564 
 5858      20636861 
 5858      7200
 5859              	.LASF19:
 5860 02cd 736C6162 		.ascii	"slabs_full\000"
 5860      735F6675 
 5860      6C6C00
 5861              	.LASF94:
 5862 02d8 656E7472 		.ascii	"entry\000"
 5862      7900
 5863              	.LASF95:
 5864 02de 5F5F6C69 		.ascii	"__list_del\000"
 5864      73745F64 
 5864      656C00
 5865              	.LASF0:
 5866 02e9 7369676E 		.ascii	"signed char\000"
 5866      65642063 
 5866      68617200 
 5867              	.LASF8:
 5868 02f5 6C6F6E67 		.ascii	"long long unsigned int\000"
 5868      206C6F6E 
 5868      6720756E 
 5868      7369676E 
 5868      65642069 
 5869              	.LASF64:
 5870 030c 63616368 		.ascii	"cache_chain_head_ptr\000"
 5870      655F6368 
 5870      61696E5F 
 5870      68656164 
 5870      5F707472 
 5871              	.LASF7:
 5872 0321 756E7369 		.ascii	"unsigned int\000"
 5872      676E6564 
 5872      20696E74 
 5872      00
 5873              	.LASF51:
 5874 032e 6C657665 		.ascii	"level_flag_base\000"
 5874      6C5F666C 
 5874      61675F62 
 5874      61736500 
 5875              	.LASF33:
 5876 033e 466C6167 		.ascii	"Flag_Type\000"
 5876      5F547970 
 5876      6500
 5877              	.LASF48:
 5878 0348 6F726465 		.ascii	"order_link_first\000"
 5878      725F6C69 
 5878      6E6B5F66 
 5878      69727374 
 5878      00
 5879              	.LASF52:
 5880 0359 62756464 		.ascii	"buddy_struct_size\000"
 5880      795F7374 
 5880      72756374 
ARM GAS  G:\Users\Jaxb\AppData\Local\Temp\ccEJJHY8.s 			page 121


 5880      5F73697A 
 5880      6500
 5881              	.LASF18:
 5882 036b 6B6D656D 		.ascii	"kmem_cache_insert_chain\000"
 5882      5F636163 
 5882      68655F69 
 5882      6E736572 
 5882      745F6368 
 5883              	.LASF39:
 5884 0383 6D61785F 		.ascii	"max_level\000"
 5884      6C657665 
 5884      6C00
 5885              	.LASF4:
 5886 038d 73686F72 		.ascii	"short unsigned int\000"
 5886      7420756E 
 5886      7369676E 
 5886      65642069 
 5886      6E7400
 5887              	.LASF68:
 5888 03a0 494C5F70 		.ascii	"IL_ptr\000"
 5888      747200
 5889              	.LASF5:
 5890 03a7 55494E54 		.ascii	"UINT16\000"
 5890      313600
 5891              	.LASF30:
 5892 03ae 63686172 		.ascii	"char\000"
 5892      00
 5893              	.LASF61:
 5894 03b3 6B6D656D 		.ascii	"kmem_cache_kmem_cache\000"
 5894      5F636163 
 5894      68655F6B 
 5894      6D656D5F 
 5894      63616368 
 5895              	.LASF56:
 5896 03c9 4350555F 		.ascii	"CPU_INT32U\000"
 5896      494E5433 
 5896      325500
 5897              	.LASF65:
 5898 03d4 70616765 		.ascii	"page_alloc_record_head\000"
 5898      5F616C6C 
 5898      6F635F72 
 5898      65636F72 
 5898      645F6865 
 5899              	.LASF15:
 5900 03eb 696E7365 		.ascii	"insert\000"
 5900      727400
 5901              	.LASF77:
 5902 03f2 62756464 		.ascii	"buddy_ptr\000"
 5902      795F7074 
 5902      7200
 5903              	.LASF74:
 5904 03fc 7368656C 		.ascii	"shell_check_slab\000"
 5904      6C5F6368 
 5904      65636B5F 
 5904      736C6162 
 5904      00
 5905              	.LASF73:
ARM GAS  G:\Users\Jaxb\AppData\Local\Temp\ccEJJHY8.s 			page 122


 5906 040d 62756666 		.ascii	"buffer\000"
 5906      657200
 5907              	.LASF24:
 5908 0414 656E645F 		.ascii	"end_ptr\000"
 5908      70747200 
 5909              	.LASF23:
 5910 041c 73746172 		.ascii	"start_ptr\000"
 5910      745F7074 
 5910      7200
 5911              	.LASF45:
 5912 0426 62756464 		.ascii	"buddy\000"
 5912      7900
 5913              	.LASF93:
 5914 042c 6C697374 		.ascii	"list_del\000"
 5914      5F64656C 
 5914      00
 5915              	.LASF70:
 5916 0435 736C6162 		.ascii	"slab_ptr\000"
 5916      5F707472 
 5916      00
 5917              	.LASF22:
 5918 043e 736C6162 		.ascii	"slab\000"
 5918      00
 5919              	.LASF40:
 5920 0443 6C657665 		.ascii	"level_flag_base_size\000"
 5920      6C5F666C 
 5920      61675F62 
 5920      6173655F 
 5920      73697A65 
 5921              	.LASF81:
 5922 0458 73697A65 		.ascii	"size\000"
 5922      00
 5923              	.LASF85:
 5924 045d 66696E64 		.ascii	"find_and_remove_record\000"
 5924      5F616E64 
 5924      5F72656D 
 5924      6F76655F 
 5924      7265636F 
 5925              	.LASF54:
 5926 0474 696E666F 		.ascii	"info\000"
 5926      00
 5927              	.LASF43:
 5928 0479 6C657665 		.ascii	"level\000"
 5928      6C00
 5929              	.LASF88:
 5930 047f 7265636F 		.ascii	"recoed_ptr\000"
 5930      65645F70 
 5930      747200
 5931              	.LASF55:
 5932 048a 62756464 		.ascii	"buddy_space_start_ptr\000"
 5932      795F7370 
 5932      6163655F 
 5932      73746172 
 5932      745F7074 
 5933              	.LASF60:
 5934 04a0 6B6D656D 		.ascii	"kmem_cache32\000"
 5934      5F636163 
ARM GAS  G:\Users\Jaxb\AppData\Local\Temp\ccEJJHY8.s 			page 123


 5934      68653332 
 5934      00
 5935              	.LASF17:
 5936 04ad 6B6D656D 		.ascii	"kmem_cache\000"
 5936      5F636163 
 5936      686500
 5937              	.LASF53:
 5938 04b8 63757272 		.ascii	"current_page_num\000"
 5938      656E745F 
 5938      70616765 
 5938      5F6E756D 
 5938      00
 5939              	.LASF14:
 5940 04c9 696E7365 		.ascii	"insert_list\000"
 5940      72745F6C 
 5940      69737400 
 5941              	.LASF98:
 5942 04d5 474E5520 		.ascii	"GNU C11 7.3.1 20180622 (release) [ARM/embedded-7-br"
 5942      43313120 
 5942      372E332E 
 5942      31203230 
 5942      31383036 
 5943 0508 616E6368 		.ascii	"anch revision 261907] -mcpu=cortex-m3 -mthumb -mapc"
 5943      20726576 
 5943      6973696F 
 5943      6E203236 
 5943      31393037 
 5944 053b 732D6672 		.ascii	"s-frame -mthumb-interwork -mcpu=cortex-m3 -mthumb -"
 5944      616D6520 
 5944      2D6D7468 
 5944      756D622D 
 5944      696E7465 
 5945 056e 67647761 		.ascii	"gdwarf-2 -O0\000"
 5945      72662D32 
 5945      202D4F30 
 5945      00
 5946              	.LASF71:
 5947 057b 6370755F 		.ascii	"cpu_sr\000"
 5947      737200
 5948              	.LASF46:
 5949 0582 666C6167 		.ascii	"flag\000"
 5949      00
 5950              	.LASF25:
 5951 0587 63757272 		.ascii	"current_block_num\000"
 5951      656E745F 
 5951      626C6F63 
 5951      6B5F6E75 
 5951      6D00
 5952              	.LASF11:
 5953 0599 70726576 		.ascii	"prev\000"
 5953      00
 5954              	.LASF57:
 5955 059e 4350555F 		.ascii	"CPU_SR\000"
 5955      535200
 5956              	.LASF62:
 5957 05a5 6B6D656D 		.ascii	"kmem_cache_TCB\000"
 5957      5F636163 
ARM GAS  G:\Users\Jaxb\AppData\Local\Temp\ccEJJHY8.s 			page 124


 5957      68655F54 
 5957      434200
 5958              	.LASF79:
 5959 05b4 696E5F6F 		.ascii	"in_os_memory\000"
 5959      735F6D65 
 5959      6D6F7279 
 5959      00
 5960              	.LASF50:
 5961 05c1 6F726465 		.ascii	"order_array\000"
 5961      725F6172 
 5961      72617900 
 5962              	.LASF16:
 5963 05cd 7072696F 		.ascii	"prio\000"
 5963      00
 5964              	.LASF29:
 5965 05d2 626C6F63 		.ascii	"block_head\000"
 5965      6B5F6865 
 5965      616400
 5966              	.LASF10:
 5967 05dd 6E657874 		.ascii	"next\000"
 5967      00
 5968              		.ident	"GCC: (GNU Tools for Arm Embedded Processors 7-2018-q2-update) 7.3.1 20180622 (release) [AR
ARM GAS  G:\Users\Jaxb\AppData\Local\Temp\ccEJJHY8.s 			page 125


DEFINED SYMBOLS
                            *ABS*:00000000 malloc.c
G:\Users\Jaxb\AppData\Local\Temp\ccEJJHY8.s:15     .text:00000000 $t
G:\Users\Jaxb\AppData\Local\Temp\ccEJJHY8.s:21     .text:00000000 INIT_LIST_HEAD
G:\Users\Jaxb\AppData\Local\Temp\ccEJJHY8.s:71     .text:0000001e __list_add
G:\Users\Jaxb\AppData\Local\Temp\ccEJJHY8.s:130    .text:0000004c list_add
G:\Users\Jaxb\AppData\Local\Temp\ccEJJHY8.s:175    .text:0000006c __list_del
G:\Users\Jaxb\AppData\Local\Temp\ccEJJHY8.s:225    .text:0000008c list_del
G:\Users\Jaxb\AppData\Local\Temp\ccEJJHY8.s:270    .text:000000ac list_empty
G:\Users\Jaxb\AppData\Local\Temp\ccEJJHY8.s:320    .text:000000ce INIT_SINGLY_LIST_HEAD
G:\Users\Jaxb\AppData\Local\Temp\ccEJJHY8.s:366    .text:000000e6 singly_list_add
G:\Users\Jaxb\AppData\Local\Temp\ccEJJHY8.s:412    .bss:00000000 $d
G:\Users\Jaxb\AppData\Local\Temp\ccEJJHY8.s:413    .bss:00000000 cache_chain_head
G:\Users\Jaxb\AppData\Local\Temp\ccEJJHY8.s:417    .bss:00000008 kmem_cache16
G:\Users\Jaxb\AppData\Local\Temp\ccEJJHY8.s:421    .bss:0000002c kmem_cache32
G:\Users\Jaxb\AppData\Local\Temp\ccEJJHY8.s:425    .bss:00000050 kmem_cache_kmem_cache
G:\Users\Jaxb\AppData\Local\Temp\ccEJJHY8.s:429    .bss:00000074 kmem_cache_TCB
G:\Users\Jaxb\AppData\Local\Temp\ccEJJHY8.s:437    .rodata:00000000 cache_chain_head_ptr
G:\Users\Jaxb\AppData\Local\Temp\ccEJJHY8.s:434    .rodata:00000000 $d
G:\Users\Jaxb\AppData\Local\Temp\ccEJJHY8.s:441    .bss:00000098 page_alloc_record_head
G:\Users\Jaxb\AppData\Local\Temp\ccEJJHY8.s:462    .text:00000108 dis_page_alloc_record
G:\Users\Jaxb\AppData\Local\Temp\ccEJJHY8.s:539    .text:00000160 $d
G:\Users\Jaxb\AppData\Local\Temp\ccEJJHY8.s:546    .text:00000170 $t
G:\Users\Jaxb\AppData\Local\Temp\ccEJJHY8.s:553    .text:00000170 add_page_alloc_record
G:\Users\Jaxb\AppData\Local\Temp\ccEJJHY8.s:1190   .text:00000494 ka_malloc
G:\Users\Jaxb\AppData\Local\Temp\ccEJJHY8.s:614    .text:000001b0 $d
G:\Users\Jaxb\AppData\Local\Temp\ccEJJHY8.s:618    .text:000001b4 $t
G:\Users\Jaxb\AppData\Local\Temp\ccEJJHY8.s:624    .text:000001b4 find_and_remove_record
G:\Users\Jaxb\AppData\Local\Temp\ccEJJHY8.s:1782   .text:000007cc ka_free
G:\Users\Jaxb\AppData\Local\Temp\ccEJJHY8.s:714    .text:00000224 $d
G:\Users\Jaxb\AppData\Local\Temp\ccEJJHY8.s:718    .text:00000228 $t
G:\Users\Jaxb\AppData\Local\Temp\ccEJJHY8.s:725    .text:00000228 init_malloc
G:\Users\Jaxb\AppData\Local\Temp\ccEJJHY8.s:771    .text:00000264 $d
G:\Users\Jaxb\AppData\Local\Temp\ccEJJHY8.s:780    .text:0000027c $t
G:\Users\Jaxb\AppData\Local\Temp\ccEJJHY8.s:787    .text:0000027c get_set_bit_place
G:\Users\Jaxb\AppData\Local\Temp\ccEJJHY8.s:913    .text:00000300 _case_alloc_buddy
G:\Users\Jaxb\AppData\Local\Temp\ccEJJHY8.s:967    .text:00000344 $d
G:\Users\Jaxb\AppData\Local\Temp\ccEJJHY8.s:974    .text:00000360 $t
G:\Users\Jaxb\AppData\Local\Temp\ccEJJHY8.s:1172   .text:00000488 $d
G:\Users\Jaxb\AppData\Local\Temp\ccEJJHY8.s:1183   .text:00000494 $t
G:\Users\Jaxb\AppData\Local\Temp\ccEJJHY8.s:1557   .text:000006c8 $d
G:\Users\Jaxb\AppData\Local\Temp\ccEJJHY8.s:1563   .text:000006d4 $t
G:\Users\Jaxb\AppData\Local\Temp\ccEJJHY8.s:1569   .text:000006d4 free_find_in_slab_chain
G:\Users\Jaxb\AppData\Local\Temp\ccEJJHY8.s:1688   .text:00000778 $d
G:\Users\Jaxb\AppData\Local\Temp\ccEJJHY8.s:1692   .text:0000077c $t
G:\Users\Jaxb\AppData\Local\Temp\ccEJJHY8.s:1699   .text:0000077c in_os_memory
G:\Users\Jaxb\AppData\Local\Temp\ccEJJHY8.s:1766   .text:000007c8 $d
G:\Users\Jaxb\AppData\Local\Temp\ccEJJHY8.s:1775   .text:000007cc $t
G:\Users\Jaxb\AppData\Local\Temp\ccEJJHY8.s:1962   .text:000008dc $d
G:\Users\Jaxb\AppData\Local\Temp\ccEJJHY8.s:1997   .text:000008e8 $t
G:\Users\Jaxb\AppData\Local\Temp\ccEJJHY8.s:2004   .text:000008e8 shell_check_kmem
G:\Users\Jaxb\AppData\Local\Temp\ccEJJHY8.s:2226   .text:00000a1c $d
G:\Users\Jaxb\AppData\Local\Temp\ccEJJHY8.s:2271   .text:00000a44 $t
G:\Users\Jaxb\AppData\Local\Temp\ccEJJHY8.s:2278   .text:00000a44 shell_check_slab
G:\Users\Jaxb\AppData\Local\Temp\ccEJJHY8.s:2647   .text:00000c94 $d

UNDEFINED SYMBOLS
ARM GAS  G:\Users\Jaxb\AppData\Local\Temp\ccEJJHY8.s 			page 126


ka_printf
ka_pow
_case_slab_free_buddy
singly_list_del
insert_into_cache_chain
get_os_buddy_ptr_head
_ASSERT
get_next_buddy_ptr_head
alloc_power1_page
alloc_power2_page
alloc_power3_page
alloc_power4_page
alloc_power5_page
alloc_power6_page
alloc_power7_page
CPU_SR_Save
find_first_bigger_IL
CPU_SR_Restore
load_slab
get_next_IL
in_buddy_range
