ARM GAS  G:\Users\Jaxb\AppData\Local\Temp\ccLceCCb.s 			page 1


   1              		.cpu cortex-m3
   2              		.eabi_attribute 20, 1
   3              		.eabi_attribute 21, 1
   4              		.eabi_attribute 23, 3
   5              		.eabi_attribute 24, 1
   6              		.eabi_attribute 25, 1
   7              		.eabi_attribute 26, 1
   8              		.eabi_attribute 30, 2
   9              		.eabi_attribute 34, 1
  10              		.eabi_attribute 18, 4
  11              		.file	"malloc.c"
  12              		.text
  13              	.Ltext0:
  14              		.cfi_sections	.debug_frame
  15              		.align	1
  16              		.p2align 2,,3
  17              		.syntax unified
  18              		.thumb
  19              		.thumb_func
  20              		.fpu softvfp
  21              		.type	free_find_in_slab_chain, %function
  22              	free_find_in_slab_chain:
  23              	.LFB21:
  24              		.file 1 "../../source/src/user/OS_LIB/malloc.c"
   1:../../source/src/user/OS_LIB/malloc.c **** #include <myMicroLIB.h>
   2:../../source/src/user/OS_LIB/malloc.c **** #include <slab.h>
   3:../../source/src/user/OS_LIB/malloc.c **** #include <buddy.h>
   4:../../source/src/user/OS_LIB/malloc.c **** #include <myassert.h>
   5:../../source/src/user/OS_LIB/malloc.c **** #include <os_cpu.h>
   6:../../source/src/user/OS_LIB/malloc.c **** #include <TCB.h>
   7:../../source/src/user/OS_LIB/malloc.c **** 
   8:../../source/src/user/OS_LIB/malloc.c **** extern int in_buddy_range(void *ptr);
   9:../../source/src/user/OS_LIB/malloc.c **** extern void _case_slab_free_buddy(void *ptr,void *end_ptr);
  10:../../source/src/user/OS_LIB/malloc.c **** 
  11:../../source/src/user/OS_LIB/malloc.c **** static struct list_head cache_chain_head;
  12:../../source/src/user/OS_LIB/malloc.c **** static struct kmem_cache kmem_cache16;
  13:../../source/src/user/OS_LIB/malloc.c **** static struct kmem_cache kmem_cache32;
  14:../../source/src/user/OS_LIB/malloc.c **** static struct kmem_cache kmem_cache_kmem_cache;
  15:../../source/src/user/OS_LIB/malloc.c **** static struct kmem_cache kmem_cache_TCB;
  16:../../source/src/user/OS_LIB/malloc.c **** struct list_head *const cache_chain_head_ptr = &cache_chain_head;
  17:../../source/src/user/OS_LIB/malloc.c **** 
  18:../../source/src/user/OS_LIB/malloc.c **** static struct singly_list_head page_alloc_record_head;
  19:../../source/src/user/OS_LIB/malloc.c **** 
  20:../../source/src/user/OS_LIB/malloc.c **** void dis_page_alloc_record(void)
  21:../../source/src/user/OS_LIB/malloc.c **** {
  22:../../source/src/user/OS_LIB/malloc.c **** 	unsigned int i = 0;
  23:../../source/src/user/OS_LIB/malloc.c **** 	struct singly_list_head *pos;
  24:../../source/src/user/OS_LIB/malloc.c **** 	struct page_alloc_record *record_ptr;
  25:../../source/src/user/OS_LIB/malloc.c **** 	singly_list_for_each(pos,&page_alloc_record_head)
  26:../../source/src/user/OS_LIB/malloc.c **** 	{
  27:../../source/src/user/OS_LIB/malloc.c **** 		record_ptr = singly_list_entry(pos,struct page_alloc_record,list);
  28:../../source/src/user/OS_LIB/malloc.c **** 		ka_printf("num.%u\n",++i);
  29:../../source/src/user/OS_LIB/malloc.c **** 		ka_printf("level is %u\n",record_ptr->level);
  30:../../source/src/user/OS_LIB/malloc.c **** 		ka_printf("address is %p\n",record_ptr->ptr);
  31:../../source/src/user/OS_LIB/malloc.c **** 	}
  32:../../source/src/user/OS_LIB/malloc.c **** }
  33:../../source/src/user/OS_LIB/malloc.c **** 
ARM GAS  G:\Users\Jaxb\AppData\Local\Temp\ccLceCCb.s 			page 2


  34:../../source/src/user/OS_LIB/malloc.c **** static int add_page_alloc_record(unsigned int level,void *ptr)
  35:../../source/src/user/OS_LIB/malloc.c **** {
  36:../../source/src/user/OS_LIB/malloc.c **** 	struct page_alloc_record *recoed_ptr = (struct page_alloc_record *)ka_malloc(sizeof(struct page_al
  37:../../source/src/user/OS_LIB/malloc.c **** 	if(NULL == recoed_ptr)
  38:../../source/src/user/OS_LIB/malloc.c **** 	{
  39:../../source/src/user/OS_LIB/malloc.c **** 		return -1;
  40:../../source/src/user/OS_LIB/malloc.c **** 	}
  41:../../source/src/user/OS_LIB/malloc.c **** 	recoed_ptr->level = level;
  42:../../source/src/user/OS_LIB/malloc.c **** 	recoed_ptr->ptr = ptr;
  43:../../source/src/user/OS_LIB/malloc.c **** 	singly_list_add(&recoed_ptr->list,&page_alloc_record_head);
  44:../../source/src/user/OS_LIB/malloc.c **** 	return FUN_EXECUTE_SUCCESSFULLY;
  45:../../source/src/user/OS_LIB/malloc.c **** }
  46:../../source/src/user/OS_LIB/malloc.c **** 
  47:../../source/src/user/OS_LIB/malloc.c **** //static void copy_data(struct singly_list_head *from,struct singly_list_head *to)
  48:../../source/src/user/OS_LIB/malloc.c **** //{
  49:../../source/src/user/OS_LIB/malloc.c **** //	struct page_alloc_record *record_ptr1 = singly_list_entry(from,struct page_alloc_record,list);
  50:../../source/src/user/OS_LIB/malloc.c **** //	struct page_alloc_record *record_ptr2 = singly_list_entry(to,struct page_alloc_record,list);
  51:../../source/src/user/OS_LIB/malloc.c **** //	record_ptr2->level = record_ptr1->level;
  52:../../source/src/user/OS_LIB/malloc.c **** //	record_ptr2->ptr = record_ptr1->ptr;
  53:../../source/src/user/OS_LIB/malloc.c **** //}
  54:../../source/src/user/OS_LIB/malloc.c **** 
  55:../../source/src/user/OS_LIB/malloc.c **** static int find_and_remove_record(void *ptr)
  56:../../source/src/user/OS_LIB/malloc.c **** {
  57:../../source/src/user/OS_LIB/malloc.c **** 	struct singly_list_head *pos;
  58:../../source/src/user/OS_LIB/malloc.c **** 	struct page_alloc_record *record_ptr; 
  59:../../source/src/user/OS_LIB/malloc.c **** 	singly_list_for_each(pos,&page_alloc_record_head)
  60:../../source/src/user/OS_LIB/malloc.c **** 	{
  61:../../source/src/user/OS_LIB/malloc.c **** 		record_ptr = singly_list_entry(pos,struct page_alloc_record,list);
  62:../../source/src/user/OS_LIB/malloc.c **** 		if(record_ptr->ptr == ptr)
  63:../../source/src/user/OS_LIB/malloc.c **** 		{
  64:../../source/src/user/OS_LIB/malloc.c **** 			_case_slab_free_buddy(ptr,(void *)((unsigned int)ptr + ka_pow(2,record_ptr->level-1) * PAGE_SIZE
  65:../../source/src/user/OS_LIB/malloc.c **** 			singly_list_del_safe(&page_alloc_record_head,pos);
  66:../../source/src/user/OS_LIB/malloc.c **** 			ka_free(record_ptr);
  67:../../source/src/user/OS_LIB/malloc.c **** 			return FUN_EXECUTE_SUCCESSFULLY;
  68:../../source/src/user/OS_LIB/malloc.c **** 		}
  69:../../source/src/user/OS_LIB/malloc.c **** 	}
  70:../../source/src/user/OS_LIB/malloc.c **** 	return -1;
  71:../../source/src/user/OS_LIB/malloc.c **** }
  72:../../source/src/user/OS_LIB/malloc.c **** 
  73:../../source/src/user/OS_LIB/malloc.c **** void init_malloc(void)
  74:../../source/src/user/OS_LIB/malloc.c **** {
  75:../../source/src/user/OS_LIB/malloc.c **** 	INIT_LIST_HEAD(&cache_chain_head);
  76:../../source/src/user/OS_LIB/malloc.c **** 	insert_into_cache_chain(&cache_chain_head,&kmem_cache_TCB,sizeof(TCB));
  77:../../source/src/user/OS_LIB/malloc.c **** 	insert_into_cache_chain(&cache_chain_head,&kmem_cache_kmem_cache,sizeof(struct kmem_cache));
  78:../../source/src/user/OS_LIB/malloc.c **** 	insert_into_cache_chain(&cache_chain_head,&kmem_cache32,32);
  79:../../source/src/user/OS_LIB/malloc.c **** 	insert_into_cache_chain(&cache_chain_head,&kmem_cache16,16);
  80:../../source/src/user/OS_LIB/malloc.c **** 	INIT_SINGLY_LIST_HEAD(&page_alloc_record_head);
  81:../../source/src/user/OS_LIB/malloc.c **** }
  82:../../source/src/user/OS_LIB/malloc.c **** /**
  83:../../source/src/user/OS_LIB/malloc.c ****  * This is a system function
  84:../../source/src/user/OS_LIB/malloc.c ****  * @Author      kaka
  85:../../source/src/user/OS_LIB/malloc.c ****  * @param       the num witch will be get the higest "1"
  86:../../source/src/user/OS_LIB/malloc.c ****  * @DateTime    2018-09-26
  87:../../source/src/user/OS_LIB/malloc.c ****  * @description :
  88:../../source/src/user/OS_LIB/malloc.c ****  * @param       num        [description]
  89:../../source/src/user/OS_LIB/malloc.c ****  * @return      the higest "1" position
  90:../../source/src/user/OS_LIB/malloc.c ****  */
ARM GAS  G:\Users\Jaxb\AppData\Local\Temp\ccLceCCb.s 			page 3


  91:../../source/src/user/OS_LIB/malloc.c **** int get_set_bit_place(unsigned int num)
  92:../../source/src/user/OS_LIB/malloc.c **** {
  93:../../source/src/user/OS_LIB/malloc.c **** 	int n=1;
  94:../../source/src/user/OS_LIB/malloc.c ****     if(num==0) return -1;
  95:../../source/src/user/OS_LIB/malloc.c ****     if ((num>>16) == 0) {n = n+16; num = num<<16;}
  96:../../source/src/user/OS_LIB/malloc.c ****     if ((num>>24) == 0) {n = n+8; num = num<<8;}
  97:../../source/src/user/OS_LIB/malloc.c ****     if ((num>>28) == 0) {n = n+4; num = num<<4;}
  98:../../source/src/user/OS_LIB/malloc.c ****     if ((num>>30) == 0) {n = n+2; num = num<<2;}
  99:../../source/src/user/OS_LIB/malloc.c ****     n = n-(num>>31);
 100:../../source/src/user/OS_LIB/malloc.c ****     return 31-n;
 101:../../source/src/user/OS_LIB/malloc.c **** }
 102:../../source/src/user/OS_LIB/malloc.c **** 
 103:../../source/src/user/OS_LIB/malloc.c **** static void *_case_alloc_buddy(unsigned int level)
 104:../../source/src/user/OS_LIB/malloc.c **** {
 105:../../source/src/user/OS_LIB/malloc.c **** 	struct slab *slab_ptr;
 106:../../source/src/user/OS_LIB/malloc.c **** 	struct buddy *buddy_ptr = (struct buddy *)get_os_buddy_ptr_head();
 107:../../source/src/user/OS_LIB/malloc.c **** 	ASSERT(NULL != buddy_ptr);
 108:../../source/src/user/OS_LIB/malloc.c **** 	while(NULL != buddy_ptr)
 109:../../source/src/user/OS_LIB/malloc.c **** 	{
 110:../../source/src/user/OS_LIB/malloc.c **** 		if(buddy_ptr->info.max_level < level)
 111:../../source/src/user/OS_LIB/malloc.c **** 		{
 112:../../source/src/user/OS_LIB/malloc.c **** 			buddy_ptr = (struct buddy *)get_next_buddy_ptr_head(buddy_ptr);
 113:../../source/src/user/OS_LIB/malloc.c **** 			continue;
 114:../../source/src/user/OS_LIB/malloc.c **** 		}
 115:../../source/src/user/OS_LIB/malloc.c **** 		switch(level)
 116:../../source/src/user/OS_LIB/malloc.c **** 		{
 117:../../source/src/user/OS_LIB/malloc.c **** 			case 1 :
 118:../../source/src/user/OS_LIB/malloc.c **** 				slab_ptr = (struct slab *)alloc_power1_page();
 119:../../source/src/user/OS_LIB/malloc.c **** 				if(NULL == slab_ptr)
 120:../../source/src/user/OS_LIB/malloc.c **** 				{
 121:../../source/src/user/OS_LIB/malloc.c **** 					buddy_ptr = (struct buddy *)get_next_buddy_ptr_head(buddy_ptr);
 122:../../source/src/user/OS_LIB/malloc.c **** 					continue ;
 123:../../source/src/user/OS_LIB/malloc.c **** 				}
 124:../../source/src/user/OS_LIB/malloc.c **** 				slab_ptr->end_ptr = (void *)((unsigned int)slab_ptr + 1 * PAGE_SIZE_BYTE);
 125:../../source/src/user/OS_LIB/malloc.c **** 				break;
 126:../../source/src/user/OS_LIB/malloc.c **** 			case 2 :
 127:../../source/src/user/OS_LIB/malloc.c **** 				slab_ptr = (struct slab *)alloc_power2_page();
 128:../../source/src/user/OS_LIB/malloc.c **** 				if(NULL == slab_ptr)
 129:../../source/src/user/OS_LIB/malloc.c **** 				{
 130:../../source/src/user/OS_LIB/malloc.c **** 					buddy_ptr = (struct buddy *)get_next_buddy_ptr_head(buddy_ptr);
 131:../../source/src/user/OS_LIB/malloc.c **** 					continue ;
 132:../../source/src/user/OS_LIB/malloc.c **** 				}
 133:../../source/src/user/OS_LIB/malloc.c **** 				slab_ptr->end_ptr = (void *)((unsigned int)slab_ptr + 2 * PAGE_SIZE_BYTE);
 134:../../source/src/user/OS_LIB/malloc.c **** 				break;
 135:../../source/src/user/OS_LIB/malloc.c **** 			case 3 :
 136:../../source/src/user/OS_LIB/malloc.c **** 				slab_ptr = (struct slab *)alloc_power3_page();
 137:../../source/src/user/OS_LIB/malloc.c **** 				if(NULL == slab_ptr)
 138:../../source/src/user/OS_LIB/malloc.c **** 				{
 139:../../source/src/user/OS_LIB/malloc.c **** 					buddy_ptr = (struct buddy *)get_next_buddy_ptr_head(buddy_ptr);
 140:../../source/src/user/OS_LIB/malloc.c **** 					continue ;
 141:../../source/src/user/OS_LIB/malloc.c **** 				}
 142:../../source/src/user/OS_LIB/malloc.c **** 				slab_ptr->end_ptr = (void *)((unsigned int)slab_ptr + 4 * PAGE_SIZE_BYTE);
 143:../../source/src/user/OS_LIB/malloc.c **** 				break;
 144:../../source/src/user/OS_LIB/malloc.c **** 			case 4 :
 145:../../source/src/user/OS_LIB/malloc.c **** 				slab_ptr = (struct slab *)alloc_power4_page();
 146:../../source/src/user/OS_LIB/malloc.c **** 				if(NULL == slab_ptr)
 147:../../source/src/user/OS_LIB/malloc.c **** 				{
ARM GAS  G:\Users\Jaxb\AppData\Local\Temp\ccLceCCb.s 			page 4


 148:../../source/src/user/OS_LIB/malloc.c **** 					buddy_ptr = (struct buddy *)get_next_buddy_ptr_head(buddy_ptr);
 149:../../source/src/user/OS_LIB/malloc.c **** 					continue ;
 150:../../source/src/user/OS_LIB/malloc.c **** 				}
 151:../../source/src/user/OS_LIB/malloc.c **** 				slab_ptr->end_ptr = (void *)((unsigned int)slab_ptr + 8 * PAGE_SIZE_BYTE);
 152:../../source/src/user/OS_LIB/malloc.c **** 				break;
 153:../../source/src/user/OS_LIB/malloc.c **** 			default :
 154:../../source/src/user/OS_LIB/malloc.c **** 				ka_printf("too big! FATAL ERROR!\n");
 155:../../source/src/user/OS_LIB/malloc.c **** 				ASSERT(0);
 156:../../source/src/user/OS_LIB/malloc.c **** 		}
 157:../../source/src/user/OS_LIB/malloc.c **** 		return slab_ptr;
 158:../../source/src/user/OS_LIB/malloc.c **** 	}
 159:../../source/src/user/OS_LIB/malloc.c **** 	ka_printf("no space!!!\n");
 160:../../source/src/user/OS_LIB/malloc.c **** 	return NULL;
 161:../../source/src/user/OS_LIB/malloc.c **** }
 162:../../source/src/user/OS_LIB/malloc.c **** 
 163:../../source/src/user/OS_LIB/malloc.c **** void *ka_malloc(unsigned int size)
 164:../../source/src/user/OS_LIB/malloc.c **** {
 165:../../source/src/user/OS_LIB/malloc.c **** 	void *ptr;
 166:../../source/src/user/OS_LIB/malloc.c **** 	CPU_SR_ALLOC();
 167:../../source/src/user/OS_LIB/malloc.c **** 	if(0 == size)
 168:../../source/src/user/OS_LIB/malloc.c **** 	{
 169:../../source/src/user/OS_LIB/malloc.c **** 		return NULL;
 170:../../source/src/user/OS_LIB/malloc.c **** 	}
 171:../../source/src/user/OS_LIB/malloc.c **** 	CPU_CRITICAL_ENTER();
 172:../../source/src/user/OS_LIB/malloc.c **** 	if(size <= 512)
 173:../../source/src/user/OS_LIB/malloc.c **** 	{
 174:../../source/src/user/OS_LIB/malloc.c **** 		IL *IL_ptr = find_first_bigger_IL(&cache_chain_head,size); //find a suitable cache
 175:../../source/src/user/OS_LIB/malloc.c **** 		while(1)
 176:../../source/src/user/OS_LIB/malloc.c **** 		{
 177:../../source/src/user/OS_LIB/malloc.c **** 			if(NULL != IL_ptr)// this means that there is a slab.size bigger than size
 178:../../source/src/user/OS_LIB/malloc.c **** 			{
 179:../../source/src/user/OS_LIB/malloc.c **** 				struct kmem_cache *kmem_cache_ptr = list_entry(IL_ptr,struct kmem_cache,kmem_cache_insert_chain
 180:../../source/src/user/OS_LIB/malloc.c **** 				//first try to get room from slabs_partial
 181:../../source/src/user/OS_LIB/malloc.c **** 				if(!list_empty(&kmem_cache_ptr->slabs_partial)) // if chain "slabs_partial" is not empty
 182:../../source/src/user/OS_LIB/malloc.c **** 				{
 183:../../source/src/user/OS_LIB/malloc.c **** 					struct slab *slab_ptr = list_entry(kmem_cache_ptr->slabs_partial.next,struct slab,slab_chain);
 184:../../source/src/user/OS_LIB/malloc.c **** 					ptr = slab_ptr->block_head.next; // ptr is the point of the allocated space
 185:../../source/src/user/OS_LIB/malloc.c **** 					list_del(slab_ptr->block_head.next); // delete it from slab chain "block_head"
 186:../../source/src/user/OS_LIB/malloc.c **** 					if(0 == --(slab_ptr->current_block_num)) // if this slab has no more space
 187:../../source/src/user/OS_LIB/malloc.c **** 					{
 188:../../source/src/user/OS_LIB/malloc.c **** 						list_del(&slab_ptr->slab_chain);
 189:../../source/src/user/OS_LIB/malloc.c **** 						list_add(&slab_ptr->slab_chain,&kmem_cache_ptr->slabs_full); // put it into the chain "slabs_
 190:../../source/src/user/OS_LIB/malloc.c **** 					}
 191:../../source/src/user/OS_LIB/malloc.c **** 					CPU_CRITICAL_EXIT();
 192:../../source/src/user/OS_LIB/malloc.c **** 					return ptr;
 193:../../source/src/user/OS_LIB/malloc.c **** 				}
 194:../../source/src/user/OS_LIB/malloc.c **** 				else if(!list_empty(&kmem_cache_ptr->slabs_empty)) // else if chain "slabs_empty" is not empty
 195:../../source/src/user/OS_LIB/malloc.c **** 				{
 196:../../source/src/user/OS_LIB/malloc.c **** 					struct slab *slab_ptr = list_entry(kmem_cache_ptr->slabs_empty.next,struct slab,slab_chain);
 197:../../source/src/user/OS_LIB/malloc.c **** 					ptr = slab_ptr->block_head.next;
 198:../../source/src/user/OS_LIB/malloc.c **** 					list_del(slab_ptr->block_head.next);
 199:../../source/src/user/OS_LIB/malloc.c **** 					list_del(&slab_ptr->slab_chain);
 200:../../source/src/user/OS_LIB/malloc.c **** 					list_add(&slab_ptr->slab_chain,&kmem_cache_ptr->slabs_partial);
 201:../../source/src/user/OS_LIB/malloc.c **** 					--(slab_ptr->current_block_num);
 202:../../source/src/user/OS_LIB/malloc.c **** 					CPU_CRITICAL_EXIT();
 203:../../source/src/user/OS_LIB/malloc.c **** 					return ptr;
 204:../../source/src/user/OS_LIB/malloc.c **** 				}
ARM GAS  G:\Users\Jaxb\AppData\Local\Temp\ccLceCCb.s 			page 5


 205:../../source/src/user/OS_LIB/malloc.c **** 				else // at this case we have to allocate mem from buddy
 206:../../source/src/user/OS_LIB/malloc.c **** 				{
 207:../../source/src/user/OS_LIB/malloc.c **** 					struct slab *slab_ptr;
 208:../../source/src/user/OS_LIB/malloc.c **** 					unsigned int level;
 209:../../source/src/user/OS_LIB/malloc.c **** 					level = get_set_bit_place((10 * IL_ptr->prio + sizeof(struct slab)) / PAGE_SIZE_BYTE) + 2;
 210:../../source/src/user/OS_LIB/malloc.c **** 					//at least allocate 10 times of corresponding space and a room of sizeof(struct slab)
 211:../../source/src/user/OS_LIB/malloc.c **** 					slab_ptr = (struct slab *)_case_alloc_buddy(level);
 212:../../source/src/user/OS_LIB/malloc.c **** 					if(NULL != slab_ptr)
 213:../../source/src/user/OS_LIB/malloc.c **** 					{
 214:../../source/src/user/OS_LIB/malloc.c **** 						load_slab((void *)slab_ptr,slab_ptr->end_ptr,IL_ptr->prio,&kmem_cache_ptr->slabs_partial);
 215:../../source/src/user/OS_LIB/malloc.c **** 						ptr = slab_ptr->block_head.next; // ptr is the point of the allocated space
 216:../../source/src/user/OS_LIB/malloc.c **** 						list_del(slab_ptr->block_head.next); // delete it from slab chain "block_head"
 217:../../source/src/user/OS_LIB/malloc.c **** 						--(slab_ptr->current_block_num);
 218:../../source/src/user/OS_LIB/malloc.c **** 						CPU_CRITICAL_EXIT();
 219:../../source/src/user/OS_LIB/malloc.c **** 						return ptr;
 220:../../source/src/user/OS_LIB/malloc.c **** 					}
 221:../../source/src/user/OS_LIB/malloc.c **** 					else // NULL == slab_ptr
 222:../../source/src/user/OS_LIB/malloc.c **** 					{
 223:../../source/src/user/OS_LIB/malloc.c **** 						IL_ptr = get_next_IL(IL_ptr,&cache_chain_head);
 224:../../source/src/user/OS_LIB/malloc.c **** 						if(NULL == IL_ptr)
 225:../../source/src/user/OS_LIB/malloc.c **** 						{
 226:../../source/src/user/OS_LIB/malloc.c **** 							CPU_CRITICAL_EXIT();
 227:../../source/src/user/OS_LIB/malloc.c **** 							return NULL;
 228:../../source/src/user/OS_LIB/malloc.c **** 						}
 229:../../source/src/user/OS_LIB/malloc.c **** 						continue ;
 230:../../source/src/user/OS_LIB/malloc.c **** 					}
 231:../../source/src/user/OS_LIB/malloc.c **** 				}
 232:../../source/src/user/OS_LIB/malloc.c **** 			}
 233:../../source/src/user/OS_LIB/malloc.c **** 			else // NULL == IL_ptr
 234:../../source/src/user/OS_LIB/malloc.c **** 			{
 235:../../source/src/user/OS_LIB/malloc.c **** 				struct kmem_cache *kmem_cache_ptr = ka_malloc(sizeof(struct kmem_cache));
 236:../../source/src/user/OS_LIB/malloc.c **** 				ASSERT(NULL != kmem_cache_ptr);
 237:../../source/src/user/OS_LIB/malloc.c **** 				if(NULL == kmem_cache_ptr)
 238:../../source/src/user/OS_LIB/malloc.c **** 				{
 239:../../source/src/user/OS_LIB/malloc.c **** 					CPU_CRITICAL_EXIT();
 240:../../source/src/user/OS_LIB/malloc.c **** 					return NULL;
 241:../../source/src/user/OS_LIB/malloc.c **** 				}
 242:../../source/src/user/OS_LIB/malloc.c **** 				insert_into_cache_chain(&cache_chain_head,kmem_cache_ptr,size);
 243:../../source/src/user/OS_LIB/malloc.c **** 				IL_ptr = find_first_bigger_IL(&cache_chain_head,size);
 244:../../source/src/user/OS_LIB/malloc.c **** 				continue ;
 245:../../source/src/user/OS_LIB/malloc.c **** 			}
 246:../../source/src/user/OS_LIB/malloc.c **** 		}
 247:../../source/src/user/OS_LIB/malloc.c **** 	}
 248:../../source/src/user/OS_LIB/malloc.c **** 	else //size > 512
 249:../../source/src/user/OS_LIB/malloc.c **** 	{
 250:../../source/src/user/OS_LIB/malloc.c **** 		int level = get_set_bit_place(size/PAGE_SIZE_BYTE) + 2;
 251:../../source/src/user/OS_LIB/malloc.c **** 		ptr = _case_alloc_buddy((unsigned int)level);
 252:../../source/src/user/OS_LIB/malloc.c **** 		if(NULL == ptr)
 253:../../source/src/user/OS_LIB/malloc.c **** 		{
 254:../../source/src/user/OS_LIB/malloc.c **** 			CPU_CRITICAL_EXIT();
 255:../../source/src/user/OS_LIB/malloc.c **** 			return NULL;
 256:../../source/src/user/OS_LIB/malloc.c **** 		}
 257:../../source/src/user/OS_LIB/malloc.c **** 		if(FUN_EXECUTE_SUCCESSFULLY == add_page_alloc_record(level,ptr))
 258:../../source/src/user/OS_LIB/malloc.c **** 		{
 259:../../source/src/user/OS_LIB/malloc.c **** 			CPU_CRITICAL_EXIT();
 260:../../source/src/user/OS_LIB/malloc.c **** 			return ptr;
 261:../../source/src/user/OS_LIB/malloc.c **** 		}
ARM GAS  G:\Users\Jaxb\AppData\Local\Temp\ccLceCCb.s 			page 6


 262:../../source/src/user/OS_LIB/malloc.c **** 		else
 263:../../source/src/user/OS_LIB/malloc.c **** 		{
 264:../../source/src/user/OS_LIB/malloc.c **** 			ka_printf("fatal error from add_page_alloc_record()\n");
 265:../../source/src/user/OS_LIB/malloc.c **** 			_case_slab_free_buddy(ptr,(void *)((unsigned int)ptr + ka_pow(2,level-1) * PAGE_SIZE_BYTE));
 266:../../source/src/user/OS_LIB/malloc.c **** 			CPU_CRITICAL_EXIT();
 267:../../source/src/user/OS_LIB/malloc.c **** 			return NULL;
 268:../../source/src/user/OS_LIB/malloc.c **** 		}
 269:../../source/src/user/OS_LIB/malloc.c **** 	}
 270:../../source/src/user/OS_LIB/malloc.c **** }
 271:../../source/src/user/OS_LIB/malloc.c **** 
 272:../../source/src/user/OS_LIB/malloc.c **** // this functin try to free ptr,if ptr is in the scope of one slab in the slab 
 273:../../source/src/user/OS_LIB/malloc.c **** // chain "head",then insert the ptr into corresponding slab and return slab_ptr,
 274:../../source/src/user/OS_LIB/malloc.c **** // or if ptr not belongs to any slab in this slab chain, then return NULL means 
 275:../../source/src/user/OS_LIB/malloc.c **** // that return ptr fail;
 276:../../source/src/user/OS_LIB/malloc.c **** static struct slab *free_find_in_slab_chain(struct list_head *head,void *ptr)
 277:../../source/src/user/OS_LIB/malloc.c **** {
  25              		.loc 1 277 0
  26              		.cfi_startproc
  27              		@ args = 0, pretend = 0, frame = 0
  28              		@ frame_needed = 0, uses_anonymous_args = 0
  29              	.LVL0:
  30 0000 38B5     		push	{r3, r4, r5, lr}
  31              	.LCFI0:
  32              		.cfi_def_cfa_offset 16
  33              		.cfi_offset 3, -16
  34              		.cfi_offset 4, -12
  35              		.cfi_offset 5, -8
  36              		.cfi_offset 14, -4
 278:../../source/src/user/OS_LIB/malloc.c **** 	struct list_head *pos;
 279:../../source/src/user/OS_LIB/malloc.c **** 	struct slab *slab_ptr;
 280:../../source/src/user/OS_LIB/malloc.c **** 	list_for_each(pos, head)
  37              		.loc 1 280 0
  38 0002 0468     		ldr	r4, [r0]
  39              	.LVL1:
 277:../../source/src/user/OS_LIB/malloc.c **** 	struct list_head *pos;
  40              		.loc 1 277 0
  41 0004 0D46     		mov	r5, r1
  42              		.loc 1 280 0
  43 0006 A042     		cmp	r0, r4
  44 0008 0AD0     		beq	.L7
  45              	.L6:
  46              	.LVL2:
 281:../../source/src/user/OS_LIB/malloc.c **** 	{
 282:../../source/src/user/OS_LIB/malloc.c **** 		slab_ptr = list_entry(pos,struct slab,slab_chain);
 283:../../source/src/user/OS_LIB/malloc.c **** 		if(((int)ptr > (int)slab_ptr->start_ptr) && ((int)ptr < (int)slab_ptr->end_ptr))
  47              		.loc 1 283 0
  48 000a 54F8143C 		ldr	r3, [r4, #-20]
  49 000e AB42     		cmp	r3, r5
  50 0010 03DA     		bge	.L3
  51              		.loc 1 283 0 is_stmt 0 discriminator 1
  52 0012 54F8103C 		ldr	r3, [r4, #-16]
  53 0016 AB42     		cmp	r3, r5
  54 0018 04DC     		bgt	.L13
  55              	.L3:
 280:../../source/src/user/OS_LIB/malloc.c **** 	{
  56              		.loc 1 280 0 is_stmt 1 discriminator 2
  57 001a 2468     		ldr	r4, [r4]
ARM GAS  G:\Users\Jaxb\AppData\Local\Temp\ccLceCCb.s 			page 7


  58              	.LVL3:
  59 001c A042     		cmp	r0, r4
  60 001e F4D1     		bne	.L6
  61              	.L7:
 284:../../source/src/user/OS_LIB/malloc.c **** 		{
 285:../../source/src/user/OS_LIB/malloc.c **** 			ASSERT(0 == (((unsigned int)slab_ptr->end_ptr - (unsigned int)ptr) % (slab_ptr->block_size)));
 286:../../source/src/user/OS_LIB/malloc.c **** 			++(slab_ptr->current_block_num);
 287:../../source/src/user/OS_LIB/malloc.c **** 			ASSERT(slab_ptr->current_block_num <= slab_ptr->full_block_num);
 288:../../source/src/user/OS_LIB/malloc.c **** 			list_add((struct list_head *)ptr,&slab_ptr->block_head);	
 289:../../source/src/user/OS_LIB/malloc.c **** 			return slab_ptr;
 290:../../source/src/user/OS_LIB/malloc.c **** 		}
 291:../../source/src/user/OS_LIB/malloc.c **** 	}
 292:../../source/src/user/OS_LIB/malloc.c **** 	return NULL;
  62              		.loc 1 292 0
  63 0020 0020     		movs	r0, #0
  64              	.LVL4:
 293:../../source/src/user/OS_LIB/malloc.c **** }
  65              		.loc 1 293 0
  66 0022 38BD     		pop	{r3, r4, r5, pc}
  67              	.LVL5:
  68              	.L13:
 285:../../source/src/user/OS_LIB/malloc.c **** 			++(slab_ptr->current_block_num);
  69              		.loc 1 285 0
  70 0024 54F8041C 		ldr	r1, [r4, #-4]
  71              	.LVL6:
  72 0028 5B1B     		subs	r3, r3, r5
  73 002a B3FBF1F2 		udiv	r2, r3, r1
  74 002e 01FB1233 		mls	r3, r1, r2, r3
  75 0032 ABB9     		cbnz	r3, .L14
  76              	.LVL7:
  77              	.L4:
 287:../../source/src/user/OS_LIB/malloc.c **** 			list_add((struct list_head *)ptr,&slab_ptr->block_head);	
  78              		.loc 1 287 0
  79 0034 54E90332 		ldrd	r3, r2, [r4, #-12]
 286:../../source/src/user/OS_LIB/malloc.c **** 			ASSERT(slab_ptr->current_block_num <= slab_ptr->full_block_num);
  80              		.loc 1 286 0
  81 0038 0133     		adds	r3, r3, #1
 287:../../source/src/user/OS_LIB/malloc.c **** 			list_add((struct list_head *)ptr,&slab_ptr->block_head);	
  82              		.loc 1 287 0
  83 003a 9342     		cmp	r3, r2
 286:../../source/src/user/OS_LIB/malloc.c **** 			ASSERT(slab_ptr->current_block_num <= slab_ptr->full_block_num);
  84              		.loc 1 286 0
  85 003c 44F80C3C 		str	r3, [r4, #-12]
 287:../../source/src/user/OS_LIB/malloc.c **** 			list_add((struct list_head *)ptr,&slab_ptr->block_head);	
  86              		.loc 1 287 0
  87 0040 04D9     		bls	.L5
 287:../../source/src/user/OS_LIB/malloc.c **** 			list_add((struct list_head *)ptr,&slab_ptr->block_head);	
  88              		.loc 1 287 0 is_stmt 0 discriminator 1
  89 0042 40F21F11 		movw	r1, #287
  90 0046 0948     		ldr	r0, .L15
  91 0048 FFF7FEFF 		bl	_ASSERT
  92              	.LVL8:
  93              	.L5:
  94              	.LBB128:
  95              	.LBB129:
  96              		.file 2 "../../source/include/os_lib/double_linked_list.h"
   1:../../source/include/os_lib/double_linked_list.h **** #ifndef _DOUBLE_LINKED_LIST_H
ARM GAS  G:\Users\Jaxb\AppData\Local\Temp\ccLceCCb.s 			page 8


   2:../../source/include/os_lib/double_linked_list.h **** #define _DOUBLE_LINKED_LIST_H
   3:../../source/include/os_lib/double_linked_list.h **** 
   4:../../source/include/os_lib/double_linked_list.h **** struct list_head {
   5:../../source/include/os_lib/double_linked_list.h ****     struct list_head *next, *prev;
   6:../../source/include/os_lib/double_linked_list.h **** };
   7:../../source/include/os_lib/double_linked_list.h **** 
   8:../../source/include/os_lib/double_linked_list.h **** 
   9:../../source/include/os_lib/double_linked_list.h **** #define LIST_HEAD_INIT(name) { &(name), &(name) }
  10:../../source/include/os_lib/double_linked_list.h **** 
  11:../../source/include/os_lib/double_linked_list.h **** 
  12:../../source/include/os_lib/double_linked_list.h **** #define LIST_HEAD(name) \
  13:../../source/include/os_lib/double_linked_list.h ****     struct list_head name = LIST_HEAD_INIT(name)
  14:../../source/include/os_lib/double_linked_list.h **** 
  15:../../source/include/os_lib/double_linked_list.h **** 
  16:../../source/include/os_lib/double_linked_list.h **** static inline void INIT_LIST_HEAD(struct list_head *list)
  17:../../source/include/os_lib/double_linked_list.h **** {
  18:../../source/include/os_lib/double_linked_list.h ****     list->next = list;
  19:../../source/include/os_lib/double_linked_list.h ****     list->prev = list;
  20:../../source/include/os_lib/double_linked_list.h **** }
  21:../../source/include/os_lib/double_linked_list.h **** 
  22:../../source/include/os_lib/double_linked_list.h **** 
  23:../../source/include/os_lib/double_linked_list.h **** static inline void __list_add(struct list_head *new,
  24:../../source/include/os_lib/double_linked_list.h ****                   struct list_head *prev,
  25:../../source/include/os_lib/double_linked_list.h ****                   struct list_head *next)
  26:../../source/include/os_lib/double_linked_list.h **** {
  27:../../source/include/os_lib/double_linked_list.h ****     next->prev = new;
  28:../../source/include/os_lib/double_linked_list.h ****     new->next = next;
  29:../../source/include/os_lib/double_linked_list.h ****     new->prev = prev;
  30:../../source/include/os_lib/double_linked_list.h ****     prev->next = new;
  31:../../source/include/os_lib/double_linked_list.h **** }
  32:../../source/include/os_lib/double_linked_list.h **** 
  33:../../source/include/os_lib/double_linked_list.h **** 
  34:../../source/include/os_lib/double_linked_list.h **** static inline void list_add(struct list_head *new, struct list_head *head)
  35:../../source/include/os_lib/double_linked_list.h **** {
  36:../../source/include/os_lib/double_linked_list.h ****     __list_add(new, head, head->next);
  97              		.loc 2 36 0 is_stmt 1
  98 004c 2346     		mov	r3, r4
  99 004e 53F8082F 		ldr	r2, [r3, #8]!
 100              	.LBE129:
 101              	.LBE128:
 102              	.LBB133:
 282:../../source/src/user/OS_LIB/malloc.c **** 		if(((int)ptr > (int)slab_ptr->start_ptr) && ((int)ptr < (int)slab_ptr->end_ptr))
 103              		.loc 1 282 0
 104 0052 A4F11400 		sub	r0, r4, #20
 105              	.LVL9:
 106              	.LBE133:
 107              	.LBB134:
 108              	.LBB132:
 109              	.LBB130:
 110              	.LBB131:
  27:../../source/include/os_lib/double_linked_list.h ****     new->next = next;
 111              		.loc 2 27 0
 112 0056 5560     		str	r5, [r2, #4]
  29:../../source/include/os_lib/double_linked_list.h ****     prev->next = new;
 113              		.loc 2 29 0
 114 0058 C5E90023 		strd	r2, r3, [r5]
  30:../../source/include/os_lib/double_linked_list.h **** }
ARM GAS  G:\Users\Jaxb\AppData\Local\Temp\ccLceCCb.s 			page 9


 115              		.loc 2 30 0
 116 005c A560     		str	r5, [r4, #8]
 117              	.LVL10:
 118              	.LBE131:
 119              	.LBE130:
 120              	.LBE132:
 121              	.LBE134:
 122              		.loc 1 293 0
 123 005e 38BD     		pop	{r3, r4, r5, pc}
 124              	.LVL11:
 125              	.L14:
 285:../../source/src/user/OS_LIB/malloc.c **** 			++(slab_ptr->current_block_num);
 126              		.loc 1 285 0 discriminator 1
 127 0060 40F21D11 		movw	r1, #285
 128 0064 0148     		ldr	r0, .L15
 129              	.LVL12:
 130 0066 FFF7FEFF 		bl	_ASSERT
 131              	.LVL13:
 132 006a E3E7     		b	.L4
 133              	.L16:
 134              		.align	2
 135              	.L15:
 136 006c 00000000 		.word	.LC0
 137              		.cfi_endproc
 138              	.LFE21:
 139              		.size	free_find_in_slab_chain, .-free_find_in_slab_chain
 140              		.align	1
 141              		.p2align 2,,3
 142              		.syntax unified
 143              		.thumb
 144              		.thumb_func
 145              		.fpu softvfp
 146              		.type	_case_alloc_buddy, %function
 147              	_case_alloc_buddy:
 148              	.LFB19:
 104:../../source/src/user/OS_LIB/malloc.c **** 	struct slab *slab_ptr;
 149              		.loc 1 104 0
 150              		.cfi_startproc
 151              		@ args = 0, pretend = 0, frame = 0
 152              		@ frame_needed = 0, uses_anonymous_args = 0
 153              	.LVL14:
 154 0070 70B5     		push	{r4, r5, r6, lr}
 155              	.LCFI1:
 156              		.cfi_def_cfa_offset 16
 157              		.cfi_offset 4, -16
 158              		.cfi_offset 5, -12
 159              		.cfi_offset 6, -8
 160              		.cfi_offset 14, -4
 104:../../source/src/user/OS_LIB/malloc.c **** 	struct slab *slab_ptr;
 161              		.loc 1 104 0
 162 0072 0546     		mov	r5, r0
 106:../../source/src/user/OS_LIB/malloc.c **** 	ASSERT(NULL != buddy_ptr);
 163              		.loc 1 106 0
 164 0074 FFF7FEFF 		bl	get_os_buddy_ptr_head
 165              	.LVL15:
 107:../../source/src/user/OS_LIB/malloc.c **** 	while(NULL != buddy_ptr)
 166              		.loc 1 107 0
ARM GAS  G:\Users\Jaxb\AppData\Local\Temp\ccLceCCb.s 			page 10


 167 0078 0446     		mov	r4, r0
 168 007a 0028     		cmp	r0, #0
 169 007c 35D0     		beq	.L35
 115:../../source/src/user/OS_LIB/malloc.c **** 		{
 170              		.loc 1 115 0
 171 007e 6E1E     		subs	r6, r5, #1
 172              	.L18:
 173              	.LVL16:
 110:../../source/src/user/OS_LIB/malloc.c **** 		{
 174              		.loc 1 110 0
 175 0080 A36A     		ldr	r3, [r4, #40]
 176 0082 AB42     		cmp	r3, r5
 177 0084 21D3     		bcc	.L36
 115:../../source/src/user/OS_LIB/malloc.c **** 		{
 178              		.loc 1 115 0
 179 0086 032E     		cmp	r6, #3
 180 0088 26D8     		bhi	.L22
 181 008a DFE806F0 		tbb	[pc, r6]
 182              	.L24:
 183 008e 17       		.byte	(.L23-.L24)/2
 184 008f 10       		.byte	(.L25-.L24)/2
 185 0090 09       		.byte	(.L26-.L24)/2
 186 0091 02       		.byte	(.L27-.L24)/2
 187              		.p2align 1
 188              	.L27:
 145:../../source/src/user/OS_LIB/malloc.c **** 				if(NULL == slab_ptr)
 189              		.loc 1 145 0
 190 0092 FFF7FEFF 		bl	alloc_power4_page
 191              	.LVL17:
 146:../../source/src/user/OS_LIB/malloc.c **** 				{
 192              		.loc 1 146 0
 193 0096 C0B1     		cbz	r0, .L36
 151:../../source/src/user/OS_LIB/malloc.c **** 				break;
 194              		.loc 1 151 0
 195 0098 00F50053 		add	r3, r0, #8192
 196 009c 4360     		str	r3, [r0, #4]
 161:../../source/src/user/OS_LIB/malloc.c **** 
 197              		.loc 1 161 0
 198 009e 70BD     		pop	{r4, r5, r6, pc}
 199              	.LVL18:
 200              	.L26:
 136:../../source/src/user/OS_LIB/malloc.c **** 				if(NULL == slab_ptr)
 201              		.loc 1 136 0
 202 00a0 FFF7FEFF 		bl	alloc_power3_page
 203              	.LVL19:
 137:../../source/src/user/OS_LIB/malloc.c **** 				{
 204              		.loc 1 137 0
 205 00a4 88B1     		cbz	r0, .L36
 142:../../source/src/user/OS_LIB/malloc.c **** 				break;
 206              		.loc 1 142 0
 207 00a6 00F58053 		add	r3, r0, #4096
 208 00aa 4360     		str	r3, [r0, #4]
 161:../../source/src/user/OS_LIB/malloc.c **** 
 209              		.loc 1 161 0
 210 00ac 70BD     		pop	{r4, r5, r6, pc}
 211              	.LVL20:
 212              	.L25:
ARM GAS  G:\Users\Jaxb\AppData\Local\Temp\ccLceCCb.s 			page 11


 127:../../source/src/user/OS_LIB/malloc.c **** 				if(NULL == slab_ptr)
 213              		.loc 1 127 0
 214 00ae FFF7FEFF 		bl	alloc_power2_page
 215              	.LVL21:
 128:../../source/src/user/OS_LIB/malloc.c **** 				{
 216              		.loc 1 128 0
 217 00b2 50B1     		cbz	r0, .L36
 133:../../source/src/user/OS_LIB/malloc.c **** 				break;
 218              		.loc 1 133 0
 219 00b4 00F50063 		add	r3, r0, #2048
 220 00b8 4360     		str	r3, [r0, #4]
 161:../../source/src/user/OS_LIB/malloc.c **** 
 221              		.loc 1 161 0
 222 00ba 70BD     		pop	{r4, r5, r6, pc}
 223              	.LVL22:
 224              	.L23:
 118:../../source/src/user/OS_LIB/malloc.c **** 				if(NULL == slab_ptr)
 225              		.loc 1 118 0
 226 00bc FFF7FEFF 		bl	alloc_power1_page
 227              	.LVL23:
 119:../../source/src/user/OS_LIB/malloc.c **** 				{
 228              		.loc 1 119 0
 229 00c0 18B1     		cbz	r0, .L36
 124:../../source/src/user/OS_LIB/malloc.c **** 				break;
 230              		.loc 1 124 0
 231 00c2 00F58063 		add	r3, r0, #1024
 232 00c6 4360     		str	r3, [r0, #4]
 161:../../source/src/user/OS_LIB/malloc.c **** 
 233              		.loc 1 161 0
 234 00c8 70BD     		pop	{r4, r5, r6, pc}
 235              	.LVL24:
 236              	.L36:
 148:../../source/src/user/OS_LIB/malloc.c **** 					continue ;
 237              		.loc 1 148 0
 238 00ca 2046     		mov	r0, r4
 239 00cc FFF7FEFF 		bl	get_next_buddy_ptr_head
 240              	.LVL25:
 241 00d0 0446     		mov	r4, r0
 242              	.LVL26:
 108:../../source/src/user/OS_LIB/malloc.c **** 	{
 243              		.loc 1 108 0
 244 00d2 0028     		cmp	r0, #0
 245 00d4 D4D1     		bne	.L18
 246 00d6 0CE0     		b	.L19
 247              	.L22:
 154:../../source/src/user/OS_LIB/malloc.c **** 				ASSERT(0);
 248              		.loc 1 154 0
 249 00d8 0848     		ldr	r0, .L37
 250              	.LVL27:
 251 00da FFF7FEFF 		bl	ka_printf
 252              	.LVL28:
 155:../../source/src/user/OS_LIB/malloc.c **** 		}
 253              		.loc 1 155 0
 254 00de 9B21     		movs	r1, #155
 255 00e0 0748     		ldr	r0, .L37+4
 256 00e2 FFF7FEFF 		bl	_ASSERT
 257              	.LVL29:
ARM GAS  G:\Users\Jaxb\AppData\Local\Temp\ccLceCCb.s 			page 12


 258 00e6 0020     		movs	r0, #0
 161:../../source/src/user/OS_LIB/malloc.c **** 
 259              		.loc 1 161 0
 260 00e8 70BD     		pop	{r4, r5, r6, pc}
 261              	.LVL30:
 262              	.L35:
 107:../../source/src/user/OS_LIB/malloc.c **** 	while(NULL != buddy_ptr)
 263              		.loc 1 107 0 discriminator 1
 264 00ea 6B21     		movs	r1, #107
 265 00ec 0448     		ldr	r0, .L37+4
 266              	.LVL31:
 267 00ee FFF7FEFF 		bl	_ASSERT
 268              	.LVL32:
 269              	.L19:
 159:../../source/src/user/OS_LIB/malloc.c **** 	return NULL;
 270              		.loc 1 159 0
 271 00f2 0448     		ldr	r0, .L37+8
 272 00f4 FFF7FEFF 		bl	ka_printf
 273              	.LVL33:
 160:../../source/src/user/OS_LIB/malloc.c **** }
 274              		.loc 1 160 0
 275 00f8 0020     		movs	r0, #0
 161:../../source/src/user/OS_LIB/malloc.c **** 
 276              		.loc 1 161 0
 277 00fa 70BD     		pop	{r4, r5, r6, pc}
 278              	.LVL34:
 279              	.L38:
 280              		.align	2
 281              	.L37:
 282 00fc 28000000 		.word	.LC1
 283 0100 00000000 		.word	.LC0
 284 0104 40000000 		.word	.LC2
 285              		.cfi_endproc
 286              	.LFE19:
 287              		.size	_case_alloc_buddy, .-_case_alloc_buddy
 288              		.align	1
 289              		.p2align 2,,3
 290              		.global	dis_page_alloc_record
 291              		.syntax unified
 292              		.thumb
 293              		.thumb_func
 294              		.fpu softvfp
 295              		.type	dis_page_alloc_record, %function
 296              	dis_page_alloc_record:
 297              	.LFB14:
  21:../../source/src/user/OS_LIB/malloc.c **** 	unsigned int i = 0;
 298              		.loc 1 21 0
 299              		.cfi_startproc
 300              		@ args = 0, pretend = 0, frame = 0
 301              		@ frame_needed = 0, uses_anonymous_args = 0
 302              	.LVL35:
 303 0108 2DE9F843 		push	{r3, r4, r5, r6, r7, r8, r9, lr}
 304              	.LCFI2:
 305              		.cfi_def_cfa_offset 32
 306              		.cfi_offset 3, -32
 307              		.cfi_offset 4, -28
 308              		.cfi_offset 5, -24
ARM GAS  G:\Users\Jaxb\AppData\Local\Temp\ccLceCCb.s 			page 13


 309              		.cfi_offset 6, -20
 310              		.cfi_offset 7, -16
 311              		.cfi_offset 8, -12
 312              		.cfi_offset 9, -8
 313              		.cfi_offset 14, -4
  25:../../source/src/user/OS_LIB/malloc.c **** 	{
 314              		.loc 1 25 0
 315 010c 0E4E     		ldr	r6, .L43
 316 010e 3468     		ldr	r4, [r6]
 317              	.LVL36:
 318 0110 B442     		cmp	r4, r6
 319 0112 17D0     		beq	.L39
  22:../../source/src/user/OS_LIB/malloc.c **** 	struct singly_list_head *pos;
 320              		.loc 1 22 0
 321 0114 0025     		movs	r5, #0
  28:../../source/src/user/OS_LIB/malloc.c **** 		ka_printf("level is %u\n",record_ptr->level);
 322              		.loc 1 28 0
 323 0116 DFF83890 		ldr	r9, .L43+8
  29:../../source/src/user/OS_LIB/malloc.c **** 		ka_printf("address is %p\n",record_ptr->ptr);
 324              		.loc 1 29 0
 325 011a DFF83880 		ldr	r8, .L43+12
  30:../../source/src/user/OS_LIB/malloc.c **** 	}
 326              		.loc 1 30 0
 327 011e 0B4F     		ldr	r7, .L43+4
 328              	.LVL37:
 329              	.L41:
  28:../../source/src/user/OS_LIB/malloc.c **** 		ka_printf("level is %u\n",record_ptr->level);
 330              		.loc 1 28 0 discriminator 3
 331 0120 0135     		adds	r5, r5, #1
 332              	.LVL38:
 333 0122 2946     		mov	r1, r5
 334 0124 4846     		mov	r0, r9
 335 0126 FFF7FEFF 		bl	ka_printf
 336              	.LVL39:
  29:../../source/src/user/OS_LIB/malloc.c **** 		ka_printf("address is %p\n",record_ptr->ptr);
 337              		.loc 1 29 0 discriminator 3
 338 012a 54F8081C 		ldr	r1, [r4, #-8]
 339 012e 4046     		mov	r0, r8
 340 0130 FFF7FEFF 		bl	ka_printf
 341              	.LVL40:
  30:../../source/src/user/OS_LIB/malloc.c **** 	}
 342              		.loc 1 30 0 discriminator 3
 343 0134 54F8041C 		ldr	r1, [r4, #-4]
 344 0138 3846     		mov	r0, r7
 345 013a FFF7FEFF 		bl	ka_printf
 346              	.LVL41:
  25:../../source/src/user/OS_LIB/malloc.c **** 	{
 347              		.loc 1 25 0 discriminator 3
 348 013e 2468     		ldr	r4, [r4]
 349              	.LVL42:
 350 0140 B442     		cmp	r4, r6
 351 0142 EDD1     		bne	.L41
 352              	.LVL43:
 353              	.L39:
  32:../../source/src/user/OS_LIB/malloc.c **** 
 354              		.loc 1 32 0
 355 0144 BDE8F883 		pop	{r3, r4, r5, r6, r7, r8, r9, pc}
ARM GAS  G:\Users\Jaxb\AppData\Local\Temp\ccLceCCb.s 			page 14


 356              	.LVL44:
 357              	.L44:
 358              		.align	2
 359              	.L43:
 360 0148 00000000 		.word	.LANCHOR0
 361 014c 68000000 		.word	.LC5
 362 0150 50000000 		.word	.LC3
 363 0154 58000000 		.word	.LC4
 364              		.cfi_endproc
 365              	.LFE14:
 366              		.size	dis_page_alloc_record, .-dis_page_alloc_record
 367              		.align	1
 368              		.p2align 2,,3
 369              		.global	init_malloc
 370              		.syntax unified
 371              		.thumb
 372              		.thumb_func
 373              		.fpu softvfp
 374              		.type	init_malloc, %function
 375              	init_malloc:
 376              	.LFB17:
  74:../../source/src/user/OS_LIB/malloc.c **** 	INIT_LIST_HEAD(&cache_chain_head);
 377              		.loc 1 74 0
 378              		.cfi_startproc
 379              		@ args = 0, pretend = 0, frame = 0
 380              		@ frame_needed = 0, uses_anonymous_args = 0
 381              	.LVL45:
 382 0158 38B5     		push	{r3, r4, r5, lr}
 383              	.LCFI3:
 384              		.cfi_def_cfa_offset 16
 385              		.cfi_offset 3, -16
 386              		.cfi_offset 4, -12
 387              		.cfi_offset 5, -8
 388              		.cfi_offset 14, -4
 389              	.LBB135:
 390              	.LBB136:
  18:../../source/include/os_lib/double_linked_list.h ****     list->prev = list;
 391              		.loc 2 18 0
 392 015a 0F4C     		ldr	r4, .L46
 393              	.LBE136:
 394              	.LBE135:
  76:../../source/src/user/OS_LIB/malloc.c **** 	insert_into_cache_chain(&cache_chain_head,&kmem_cache_kmem_cache,sizeof(struct kmem_cache));
 395              		.loc 1 76 0
 396 015c 4822     		movs	r2, #72
 397              	.LBB139:
 398              	.LBB137:
  18:../../source/include/os_lib/double_linked_list.h ****     list->prev = list;
 399              		.loc 2 18 0
 400 015e 251D     		adds	r5, r4, #4
 401              	.LBE137:
 402              	.LBE139:
  76:../../source/src/user/OS_LIB/malloc.c **** 	insert_into_cache_chain(&cache_chain_head,&kmem_cache_kmem_cache,sizeof(struct kmem_cache));
 403              		.loc 1 76 0
 404 0160 2846     		mov	r0, r5
 405 0162 04F10C01 		add	r1, r4, #12
 406              	.LBB140:
 407              	.LBB138:
ARM GAS  G:\Users\Jaxb\AppData\Local\Temp\ccLceCCb.s 			page 15


  19:../../source/include/os_lib/double_linked_list.h **** }
 408              		.loc 2 19 0
 409 0166 C4E90155 		strd	r5, r5, [r4, #4]
 410              	.LVL46:
 411              	.LBE138:
 412              	.LBE140:
  76:../../source/src/user/OS_LIB/malloc.c **** 	insert_into_cache_chain(&cache_chain_head,&kmem_cache_kmem_cache,sizeof(struct kmem_cache));
 413              		.loc 1 76 0
 414 016a FFF7FEFF 		bl	insert_into_cache_chain
 415              	.LVL47:
  77:../../source/src/user/OS_LIB/malloc.c **** 	insert_into_cache_chain(&cache_chain_head,&kmem_cache32,32);
 416              		.loc 1 77 0
 417 016e 2846     		mov	r0, r5
 418 0170 04F13001 		add	r1, r4, #48
 419 0174 2422     		movs	r2, #36
 420 0176 FFF7FEFF 		bl	insert_into_cache_chain
 421              	.LVL48:
  78:../../source/src/user/OS_LIB/malloc.c **** 	insert_into_cache_chain(&cache_chain_head,&kmem_cache16,16);
 422              		.loc 1 78 0
 423 017a 2846     		mov	r0, r5
 424 017c 04F15401 		add	r1, r4, #84
 425 0180 2022     		movs	r2, #32
 426 0182 FFF7FEFF 		bl	insert_into_cache_chain
 427              	.LVL49:
  79:../../source/src/user/OS_LIB/malloc.c **** 	INIT_SINGLY_LIST_HEAD(&page_alloc_record_head);
 428              		.loc 1 79 0
 429 0186 2846     		mov	r0, r5
 430 0188 04F17801 		add	r1, r4, #120
 431 018c 1022     		movs	r2, #16
 432 018e FFF7FEFF 		bl	insert_into_cache_chain
 433              	.LVL50:
 434              	.LBB141:
 435              	.LBB142:
 436              		.file 3 "../../source/include/os_lib/singly_linked_list.h"
   1:../../source/include/os_lib/singly_linked_list.h **** #ifndef _SINGLY_LINKED_LIST_H
   2:../../source/include/os_lib/singly_linked_list.h **** #define _SINGLY_LINKED_LIST_H
   3:../../source/include/os_lib/singly_linked_list.h **** 
   4:../../source/include/os_lib/singly_linked_list.h **** struct singly_list_head{
   5:../../source/include/os_lib/singly_linked_list.h **** 	struct singly_list_head *next;
   6:../../source/include/os_lib/singly_linked_list.h **** };
   7:../../source/include/os_lib/singly_linked_list.h **** 
   8:../../source/include/os_lib/singly_linked_list.h **** #define SINGLY_LIST_HEAD_INIT(name) { &(name) }
   9:../../source/include/os_lib/singly_linked_list.h **** 
  10:../../source/include/os_lib/singly_linked_list.h **** #define SINGLY_LIST_HEAD(name) \
  11:../../source/include/os_lib/singly_linked_list.h ****     struct singly_list_head name = SINGLY_LIST_HEAD_INIT(name)
  12:../../source/include/os_lib/singly_linked_list.h **** 
  13:../../source/include/os_lib/singly_linked_list.h **** static inline void INIT_SINGLY_LIST_HEAD(struct singly_list_head *list)
  14:../../source/include/os_lib/singly_linked_list.h **** {
  15:../../source/include/os_lib/singly_linked_list.h **** 	list->next = list;
 437              		.loc 3 15 0
 438 0192 2460     		str	r4, [r4]
 439              	.LVL51:
 440              	.LBE142:
 441              	.LBE141:
  81:../../source/src/user/OS_LIB/malloc.c **** /**
 442              		.loc 1 81 0
 443 0194 38BD     		pop	{r3, r4, r5, pc}
ARM GAS  G:\Users\Jaxb\AppData\Local\Temp\ccLceCCb.s 			page 16


 444              	.L47:
 445 0196 00BF     		.align	2
 446              	.L46:
 447 0198 00000000 		.word	.LANCHOR0
 448              		.cfi_endproc
 449              	.LFE17:
 450              		.size	init_malloc, .-init_malloc
 451              		.align	1
 452              		.p2align 2,,3
 453              		.global	get_set_bit_place
 454              		.syntax unified
 455              		.thumb
 456              		.thumb_func
 457              		.fpu softvfp
 458              		.type	get_set_bit_place, %function
 459              	get_set_bit_place:
 460              	.LFB18:
  92:../../source/src/user/OS_LIB/malloc.c **** 	int n=1;
 461              		.loc 1 92 0
 462              		.cfi_startproc
 463              		@ args = 0, pretend = 0, frame = 0
 464              		@ frame_needed = 0, uses_anonymous_args = 0
 465              		@ link register save eliminated.
 466              	.LVL52:
  94:../../source/src/user/OS_LIB/malloc.c ****     if ((num>>16) == 0) {n = n+16; num = num<<16;}
 467              		.loc 1 94 0
 468 019c A8B1     		cbz	r0, .L54
  95:../../source/src/user/OS_LIB/malloc.c ****     if ((num>>24) == 0) {n = n+8; num = num<<8;}
 469              		.loc 1 95 0
 470 019e 030C     		lsrs	r3, r0, #16
 471              	.LVL53:
 472 01a0 0ABF     		itet	eq
 473 01a2 1123     		moveq	r3, #17
  93:../../source/src/user/OS_LIB/malloc.c ****     if(num==0) return -1;
 474              		.loc 1 93 0
 475 01a4 0123     		movne	r3, #1
  95:../../source/src/user/OS_LIB/malloc.c ****     if ((num>>24) == 0) {n = n+8; num = num<<8;}
 476              		.loc 1 95 0
 477 01a6 0004     		lsleq	r0, r0, #16
 478              	.LVL54:
  96:../../source/src/user/OS_LIB/malloc.c ****     if ((num>>28) == 0) {n = n+4; num = num<<4;}
 479              		.loc 1 96 0
 480 01a8 020E     		lsrs	r2, r0, #24
 481 01aa 04BF     		itt	eq
 482 01ac 0002     		lsleq	r0, r0, #8
 483              	.LVL55:
 484 01ae 0833     		addeq	r3, r3, #8
 485              	.LVL56:
  97:../../source/src/user/OS_LIB/malloc.c ****     if ((num>>30) == 0) {n = n+2; num = num<<2;}
 486              		.loc 1 97 0
 487 01b0 020F     		lsrs	r2, r0, #28
 488 01b2 04BF     		itt	eq
 489 01b4 0001     		lsleq	r0, r0, #4
 490              	.LVL57:
 491 01b6 0433     		addeq	r3, r3, #4
 492              	.LVL58:
  98:../../source/src/user/OS_LIB/malloc.c ****     n = n-(num>>31);
ARM GAS  G:\Users\Jaxb\AppData\Local\Temp\ccLceCCb.s 			page 17


 493              		.loc 1 98 0
 494 01b8 820F     		lsrs	r2, r0, #30
 495 01ba 04BF     		itt	eq
 496 01bc 0233     		addeq	r3, r3, #2
 497              	.LVL59:
 498 01be 8000     		lsleq	r0, r0, #2
 499              	.LVL60:
  99:../../source/src/user/OS_LIB/malloc.c ****     return 31-n;
 500              		.loc 1 99 0
 501 01c0 03EBE070 		add	r0, r3, r0, asr #31
 502              	.LVL61:
 100:../../source/src/user/OS_LIB/malloc.c **** }
 503              		.loc 1 100 0
 504 01c4 C0F11F00 		rsb	r0, r0, #31
 505              	.LVL62:
 506 01c8 7047     		bx	lr
 507              	.LVL63:
 508              	.L54:
  94:../../source/src/user/OS_LIB/malloc.c ****     if ((num>>16) == 0) {n = n+16; num = num<<16;}
 509              		.loc 1 94 0
 510 01ca 4FF0FF30 		mov	r0, #-1
 511              	.LVL64:
 101:../../source/src/user/OS_LIB/malloc.c **** 
 512              		.loc 1 101 0
 513 01ce 7047     		bx	lr
 514              		.cfi_endproc
 515              	.LFE18:
 516              		.size	get_set_bit_place, .-get_set_bit_place
 517              		.align	1
 518              		.p2align 2,,3
 519              		.global	ka_malloc
 520              		.syntax unified
 521              		.thumb
 522              		.thumb_func
 523              		.fpu softvfp
 524              		.type	ka_malloc, %function
 525              	ka_malloc:
 526              	.LFB20:
 164:../../source/src/user/OS_LIB/malloc.c **** 	void *ptr;
 527              		.loc 1 164 0
 528              		.cfi_startproc
 529              		@ args = 0, pretend = 0, frame = 0
 530              		@ frame_needed = 0, uses_anonymous_args = 0
 531              	.LVL65:
 532 01d0 2DE9F843 		push	{r3, r4, r5, r6, r7, r8, r9, lr}
 533              	.LCFI4:
 534              		.cfi_def_cfa_offset 32
 535              		.cfi_offset 3, -32
 536              		.cfi_offset 4, -28
 537              		.cfi_offset 5, -24
 538              		.cfi_offset 6, -20
 539              		.cfi_offset 7, -16
 540              		.cfi_offset 8, -12
 541              		.cfi_offset 9, -8
 542              		.cfi_offset 14, -4
 167:../../source/src/user/OS_LIB/malloc.c **** 	{
 543              		.loc 1 167 0
ARM GAS  G:\Users\Jaxb\AppData\Local\Temp\ccLceCCb.s 			page 18


 544 01d4 0546     		mov	r5, r0
 545 01d6 10B3     		cbz	r0, .L56
 171:../../source/src/user/OS_LIB/malloc.c **** 	if(size <= 512)
 546              		.loc 1 171 0
 547 01d8 FFF7FEFF 		bl	CPU_SR_Save
 548              	.LVL66:
 172:../../source/src/user/OS_LIB/malloc.c **** 	{
 549              		.loc 1 172 0
 550 01dc B5F5007F 		cmp	r5, #512
 171:../../source/src/user/OS_LIB/malloc.c **** 	if(size <= 512)
 551              		.loc 1 171 0
 552 01e0 0746     		mov	r7, r0
 553              	.LVL67:
 172:../../source/src/user/OS_LIB/malloc.c **** 	{
 554              		.loc 1 172 0
 555 01e2 1FD9     		bls	.L72
 556              	.LBB186:
 250:../../source/src/user/OS_LIB/malloc.c **** 		ptr = _case_alloc_buddy((unsigned int)level);
 557              		.loc 1 250 0
 558 01e4 A80A     		lsrs	r0, r5, #10
 559              	.LVL68:
 560 01e6 FFF7FEFF 		bl	get_set_bit_place
 561              	.LVL69:
 562 01ea 861C     		adds	r6, r0, #2
 563 01ec 8046     		mov	r8, r0
 564              	.LVL70:
 251:../../source/src/user/OS_LIB/malloc.c **** 		if(NULL == ptr)
 565              		.loc 1 251 0
 566 01ee 3046     		mov	r0, r6
 567 01f0 FFF73EFF 		bl	_case_alloc_buddy
 568              	.LVL71:
 252:../../source/src/user/OS_LIB/malloc.c **** 		{
 569              		.loc 1 252 0
 570 01f4 0546     		mov	r5, r0
 571              	.LVL72:
 572 01f6 0028     		cmp	r0, #0
 573 01f8 6AD0     		beq	.L70
 574              	.LVL73:
 575              	.LBB187:
 576              	.LBB188:
  36:../../source/src/user/OS_LIB/malloc.c **** 	if(NULL == recoed_ptr)
 577              		.loc 1 36 0
 578 01fa 0C20     		movs	r0, #12
 579              	.LVL74:
 580 01fc FFF7FEFF 		bl	ka_malloc
 581              	.LVL75:
  37:../../source/src/user/OS_LIB/malloc.c **** 	{
 582              		.loc 1 37 0
 583 0200 0446     		mov	r4, r0
 584 0202 0028     		cmp	r0, #0
 585 0204 00F09980 		beq	.L73
 586              	.LBB189:
 587              	.LBB190:
  16:../../source/include/os_lib/singly_linked_list.h **** }
  17:../../source/include/os_lib/singly_linked_list.h **** 
  18:../../source/include/os_lib/singly_linked_list.h **** static inline void singly_list_add(struct singly_list_head *new,struct singly_list_head *head)
  19:../../source/include/os_lib/singly_linked_list.h **** {
ARM GAS  G:\Users\Jaxb\AppData\Local\Temp\ccLceCCb.s 			page 19


  20:../../source/include/os_lib/singly_linked_list.h **** 	new->next = head->next;
 588              		.loc 3 20 0
 589 0208 0346     		mov	r3, r0
 590 020a 574A     		ldr	r2, .L78
 591              	.LBE190:
 592              	.LBE189:
  41:../../source/src/user/OS_LIB/malloc.c **** 	recoed_ptr->ptr = ptr;
 593              		.loc 1 41 0
 594 020c 0660     		str	r6, [r0]
 595              	.LBB194:
 596              	.LBB191:
 597              		.loc 3 20 0
 598 020e 1168     		ldr	r1, [r2]
 599              	.LBE191:
 600              	.LBE194:
  42:../../source/src/user/OS_LIB/malloc.c **** 	singly_list_add(&recoed_ptr->list,&page_alloc_record_head);
 601              		.loc 1 42 0
 602 0210 4560     		str	r5, [r0, #4]
 603              	.LVL76:
 604              	.LBB195:
 605              	.LBB192:
 606              		.loc 3 20 0
 607 0212 43F8081F 		str	r1, [r3, #8]!
 608              	.LBE192:
 609              	.LBE195:
 610              	.LBE188:
 611              	.LBE187:
 259:../../source/src/user/OS_LIB/malloc.c **** 			return ptr;
 612              		.loc 1 259 0
 613 0216 3846     		mov	r0, r7
 614              	.LVL77:
 615              	.LBB198:
 616              	.LBB197:
 617              	.LBB196:
 618              	.LBB193:
  21:../../source/include/os_lib/singly_linked_list.h **** 	head->next = new;
 619              		.loc 3 21 0
 620 0218 1360     		str	r3, [r2]
 621              	.LVL78:
 622              	.LBE193:
 623              	.LBE196:
 624              	.LBE197:
 625              	.LBE198:
 259:../../source/src/user/OS_LIB/malloc.c **** 			return ptr;
 626              		.loc 1 259 0
 627 021a FFF7FEFF 		bl	CPU_SR_Restore
 628              	.LVL79:
 629              	.L56:
 630              	.LBE186:
 270:../../source/src/user/OS_LIB/malloc.c **** 
 631              		.loc 1 270 0
 632 021e 2846     		mov	r0, r5
 633 0220 BDE8F883 		pop	{r3, r4, r5, r6, r7, r8, r9, pc}
 634              	.LVL80:
 635              	.L72:
 636              	.LBB199:
 174:../../source/src/user/OS_LIB/malloc.c **** 		while(1)
ARM GAS  G:\Users\Jaxb\AppData\Local\Temp\ccLceCCb.s 			page 20


 637              		.loc 1 174 0
 638 0224 2946     		mov	r1, r5
 639 0226 5148     		ldr	r0, .L78+4
 640              	.LVL81:
 641 0228 FFF7FEFF 		bl	find_first_bigger_IL
 642              	.LVL82:
 643 022c 0446     		mov	r4, r0
 644              	.LVL83:
 645              	.LBB200:
 242:../../source/src/user/OS_LIB/malloc.c **** 				IL_ptr = find_first_bigger_IL(&cache_chain_head,size);
 646              		.loc 1 242 0
 647 022e 4F4E     		ldr	r6, .L78+4
 648              	.L59:
 649              	.LVL84:
 650              	.LBE200:
 177:../../source/src/user/OS_LIB/malloc.c **** 			{
 651              		.loc 1 177 0
 652 0230 2CB3     		cbz	r4, .L60
 653              	.LBB201:
 654              	.LBB202:
 655              	.LBB203:
  37:../../source/include/os_lib/double_linked_list.h **** }
  38:../../source/include/os_lib/double_linked_list.h **** 
  39:../../source/include/os_lib/double_linked_list.h **** 
  40:../../source/include/os_lib/double_linked_list.h **** static inline void list_add_tail(struct list_head *new, struct list_head *head)
  41:../../source/include/os_lib/double_linked_list.h **** {
  42:../../source/include/os_lib/double_linked_list.h ****     __list_add(new, head->prev, head);
  43:../../source/include/os_lib/double_linked_list.h **** }
  44:../../source/include/os_lib/double_linked_list.h **** 
  45:../../source/include/os_lib/double_linked_list.h **** 
  46:../../source/include/os_lib/double_linked_list.h **** static inline void __list_del(struct list_head * prev, struct list_head * next)
  47:../../source/include/os_lib/double_linked_list.h **** {
  48:../../source/include/os_lib/double_linked_list.h ****     next->prev = prev;
  49:../../source/include/os_lib/double_linked_list.h ****     prev->next = next;
  50:../../source/include/os_lib/double_linked_list.h **** }
  51:../../source/include/os_lib/double_linked_list.h **** 
  52:../../source/include/os_lib/double_linked_list.h **** 
  53:../../source/include/os_lib/double_linked_list.h **** static inline void list_del(struct list_head *entry)
  54:../../source/include/os_lib/double_linked_list.h **** {
  55:../../source/include/os_lib/double_linked_list.h ****     __list_del(entry->prev, entry->next);
  56:../../source/include/os_lib/double_linked_list.h **** }
  57:../../source/include/os_lib/double_linked_list.h **** 
  58:../../source/include/os_lib/double_linked_list.h **** 
  59:../../source/include/os_lib/double_linked_list.h **** static inline void __list_del_entry(struct list_head *entry)
  60:../../source/include/os_lib/double_linked_list.h **** {
  61:../../source/include/os_lib/double_linked_list.h ****     __list_del(entry->prev, entry->next);
  62:../../source/include/os_lib/double_linked_list.h **** }
  63:../../source/include/os_lib/double_linked_list.h **** 
  64:../../source/include/os_lib/double_linked_list.h **** 
  65:../../source/include/os_lib/double_linked_list.h **** static inline void list_del_init(struct list_head *entry)
  66:../../source/include/os_lib/double_linked_list.h **** {
  67:../../source/include/os_lib/double_linked_list.h ****     __list_del_entry(entry);
  68:../../source/include/os_lib/double_linked_list.h ****     INIT_LIST_HEAD(entry);
  69:../../source/include/os_lib/double_linked_list.h **** }
  70:../../source/include/os_lib/double_linked_list.h **** 
  71:../../source/include/os_lib/double_linked_list.h **** 
  72:../../source/include/os_lib/double_linked_list.h **** static inline void list_replace(struct list_head *old,
ARM GAS  G:\Users\Jaxb\AppData\Local\Temp\ccLceCCb.s 			page 21


  73:../../source/include/os_lib/double_linked_list.h ****                 struct list_head *new)
  74:../../source/include/os_lib/double_linked_list.h **** {
  75:../../source/include/os_lib/double_linked_list.h ****     new->next = old->next;
  76:../../source/include/os_lib/double_linked_list.h ****     new->next->prev = new;
  77:../../source/include/os_lib/double_linked_list.h ****     new->prev = old->prev;
  78:../../source/include/os_lib/double_linked_list.h ****     new->prev->next = new;
  79:../../source/include/os_lib/double_linked_list.h **** }
  80:../../source/include/os_lib/double_linked_list.h **** 
  81:../../source/include/os_lib/double_linked_list.h **** 
  82:../../source/include/os_lib/double_linked_list.h **** static inline int list_empty(const struct list_head *head)
  83:../../source/include/os_lib/double_linked_list.h **** {
  84:../../source/include/os_lib/double_linked_list.h ****     return head->next == head;
 656              		.loc 2 84 0
 657 0232 2246     		mov	r2, r4
 658 0234 52F8148F 		ldr	r8, [r2, #20]!
 659              	.LVL85:
 660              	.LBE203:
 661              	.LBE202:
 181:../../source/src/user/OS_LIB/malloc.c **** 				{
 662              		.loc 1 181 0
 663 0238 9045     		cmp	r8, r2
 664 023a 30D1     		bne	.L74
 665              	.LBB204:
 666              	.LBB205:
 667              		.loc 2 84 0
 668 023c 2246     		mov	r2, r4
 669 023e 52F81C3F 		ldr	r3, [r2, #28]!
 670              	.LVL86:
 671              	.LBE205:
 672              	.LBE204:
 194:../../source/src/user/OS_LIB/malloc.c **** 				{
 673              		.loc 1 194 0
 674 0242 9342     		cmp	r3, r2
 675 0244 4AD1     		bne	.L75
 676              	.LBB206:
 209:../../source/src/user/OS_LIB/malloc.c **** 					//at least allocate 10 times of corresponding space and a room of sizeof(struct slab)
 677              		.loc 1 209 0
 678 0246 A068     		ldr	r0, [r4, #8]
 679              	.LVL87:
 680 0248 00EB8000 		add	r0, r0, r0, lsl #2
 681 024c 4000     		lsls	r0, r0, #1
 682 024e 2430     		adds	r0, r0, #36
 683 0250 800A     		lsrs	r0, r0, #10
 684 0252 FFF7FEFF 		bl	get_set_bit_place
 685              	.LVL88:
 211:../../source/src/user/OS_LIB/malloc.c **** 					if(NULL != slab_ptr)
 686              		.loc 1 211 0
 687 0256 0230     		adds	r0, r0, #2
 688              	.LVL89:
 689 0258 FFF70AFF 		bl	_case_alloc_buddy
 690              	.LVL90:
 212:../../source/src/user/OS_LIB/malloc.c **** 					{
 691              		.loc 1 212 0
 692 025c 8146     		mov	r9, r0
 693 025e 0028     		cmp	r0, #0
 694 0260 55D1     		bne	.L76
 223:../../source/src/user/OS_LIB/malloc.c **** 						if(NULL == IL_ptr)
ARM GAS  G:\Users\Jaxb\AppData\Local\Temp\ccLceCCb.s 			page 22


 695              		.loc 1 223 0
 696 0262 2046     		mov	r0, r4
 697              	.LVL91:
 698 0264 3146     		mov	r1, r6
 699 0266 FFF7FEFF 		bl	get_next_IL
 700              	.LVL92:
 224:../../source/src/user/OS_LIB/malloc.c **** 						{
 701              		.loc 1 224 0
 702 026a 0446     		mov	r4, r0
 703              	.LVL93:
 704 026c 0028     		cmp	r0, #0
 705 026e DFD1     		bne	.L59
 706              	.LVL94:
 707              	.L71:
 708              	.LBE206:
 709              	.LBE201:
 710              	.LBE199:
 711              	.LBB255:
 267:../../source/src/user/OS_LIB/malloc.c **** 		}
 712              		.loc 1 267 0
 713 0270 2546     		mov	r5, r4
 266:../../source/src/user/OS_LIB/malloc.c **** 			return NULL;
 714              		.loc 1 266 0
 715 0272 3846     		mov	r0, r7
 716 0274 FFF7FEFF 		bl	CPU_SR_Restore
 717              	.LVL95:
 718              	.LBE255:
 270:../../source/src/user/OS_LIB/malloc.c **** 
 719              		.loc 1 270 0
 720 0278 2846     		mov	r0, r5
 721 027a BDE8F883 		pop	{r3, r4, r5, r6, r7, r8, r9, pc}
 722              	.LVL96:
 723              	.L60:
 724              	.LBB256:
 725              	.LBB250:
 235:../../source/src/user/OS_LIB/malloc.c **** 				ASSERT(NULL != kmem_cache_ptr);
 726              		.loc 1 235 0
 727 027e 2420     		movs	r0, #36
 728              	.LVL97:
 729 0280 FFF7FEFF 		bl	ka_malloc
 730              	.LVL98:
 236:../../source/src/user/OS_LIB/malloc.c **** 				if(NULL == kmem_cache_ptr)
 731              		.loc 1 236 0
 732 0284 0028     		cmp	r0, #0
 733 0286 66D0     		beq	.L77
 242:../../source/src/user/OS_LIB/malloc.c **** 				IL_ptr = find_first_bigger_IL(&cache_chain_head,size);
 734              		.loc 1 242 0
 735 0288 0146     		mov	r1, r0
 736 028a 2A46     		mov	r2, r5
 737 028c 3046     		mov	r0, r6
 738              	.LVL99:
 739 028e FFF7FEFF 		bl	insert_into_cache_chain
 740              	.LVL100:
 243:../../source/src/user/OS_LIB/malloc.c **** 				continue ;
 741              		.loc 1 243 0
 742 0292 2946     		mov	r1, r5
 743 0294 3046     		mov	r0, r6
ARM GAS  G:\Users\Jaxb\AppData\Local\Temp\ccLceCCb.s 			page 23


 744 0296 FFF7FEFF 		bl	find_first_bigger_IL
 745              	.LVL101:
 746 029a 0446     		mov	r4, r0
 747              	.LVL102:
 244:../../source/src/user/OS_LIB/malloc.c **** 			}
 748              		.loc 1 244 0
 749 029c C8E7     		b	.L59
 750              	.LVL103:
 751              	.L74:
 752              	.LBE250:
 753              	.LBB251:
 754              	.LBB213:
 186:../../source/src/user/OS_LIB/malloc.c **** 					{
 755              		.loc 1 186 0
 756 029e 58F80C3C 		ldr	r3, [r8, #-12]
 184:../../source/src/user/OS_LIB/malloc.c **** 					list_del(slab_ptr->block_head.next); // delete it from slab chain "block_head"
 757              		.loc 1 184 0
 758 02a2 D8F80850 		ldr	r5, [r8, #8]
 759              	.LVL104:
 186:../../source/src/user/OS_LIB/malloc.c **** 					{
 760              		.loc 1 186 0
 761 02a6 013B     		subs	r3, r3, #1
 762              	.LBB214:
 763              	.LBB215:
  55:../../source/include/os_lib/double_linked_list.h **** }
 764              		.loc 2 55 0
 765 02a8 D5E90012 		ldrd	r1, r2, [r5]
 766              	.LVL105:
 767              	.LBB216:
 768              	.LBB217:
  48:../../source/include/os_lib/double_linked_list.h ****     prev->next = next;
 769              		.loc 2 48 0
 770 02ac 4A60     		str	r2, [r1, #4]
  49:../../source/include/os_lib/double_linked_list.h **** }
 771              		.loc 2 49 0
 772 02ae 1160     		str	r1, [r2]
 773              	.LVL106:
 774              	.LBE217:
 775              	.LBE216:
 776              	.LBE215:
 777              	.LBE214:
 186:../../source/src/user/OS_LIB/malloc.c **** 					{
 778              		.loc 1 186 0
 779 02b0 48F80C3C 		str	r3, [r8, #-12]
 780 02b4 63B9     		cbnz	r3, .L70
 781              	.LVL107:
 782              	.LBB218:
 783              	.LBB219:
  55:../../source/include/os_lib/double_linked_list.h **** }
 784              		.loc 2 55 0
 785 02b6 D8E90012 		ldrd	r1, r2, [r8]
 786              	.LVL108:
 787              	.LBE219:
 788              	.LBE218:
 789              	.LBB223:
 790              	.LBB224:
  36:../../source/include/os_lib/double_linked_list.h **** }
ARM GAS  G:\Users\Jaxb\AppData\Local\Temp\ccLceCCb.s 			page 24


 791              		.loc 2 36 0
 792 02ba 2346     		mov	r3, r4
 793              	.LBE224:
 794              	.LBE223:
 795              	.LBB228:
 796              	.LBB222:
 797              	.LBB220:
 798              	.LBB221:
  48:../../source/include/os_lib/double_linked_list.h ****     prev->next = next;
 799              		.loc 2 48 0
 800 02bc 4A60     		str	r2, [r1, #4]
  49:../../source/include/os_lib/double_linked_list.h **** }
 801              		.loc 2 49 0
 802 02be 1160     		str	r1, [r2]
 803              	.LVL109:
 804              	.LBE221:
 805              	.LBE220:
 806              	.LBE222:
 807              	.LBE228:
 808              	.LBB229:
 809              	.LBB227:
  36:../../source/include/os_lib/double_linked_list.h **** }
 810              		.loc 2 36 0
 811 02c0 53F80C2F 		ldr	r2, [r3, #12]!
 812              	.LVL110:
 813              	.LBB225:
 814              	.LBB226:
  27:../../source/include/os_lib/double_linked_list.h ****     new->next = next;
 815              		.loc 2 27 0
 816 02c4 C2F80480 		str	r8, [r2, #4]
  29:../../source/include/os_lib/double_linked_list.h ****     prev->next = new;
 817              		.loc 2 29 0
 818 02c8 C8E90023 		strd	r2, r3, [r8]
  30:../../source/include/os_lib/double_linked_list.h **** }
 819              		.loc 2 30 0
 820 02cc C4F80C80 		str	r8, [r4, #12]
 821              	.LVL111:
 822              	.L70:
 823              	.LBE226:
 824              	.LBE225:
 825              	.LBE227:
 826              	.LBE229:
 827              	.LBE213:
 828              	.LBE251:
 829              	.LBE256:
 830              	.LBB257:
 254:../../source/src/user/OS_LIB/malloc.c **** 			return NULL;
 831              		.loc 1 254 0
 832 02d0 3846     		mov	r0, r7
 833 02d2 FFF7FEFF 		bl	CPU_SR_Restore
 834              	.LVL112:
 835              	.LBE257:
 270:../../source/src/user/OS_LIB/malloc.c **** 
 836              		.loc 1 270 0
 837 02d6 2846     		mov	r0, r5
 838 02d8 BDE8F883 		pop	{r3, r4, r5, r6, r7, r8, r9, pc}
 839              	.LVL113:
ARM GAS  G:\Users\Jaxb\AppData\Local\Temp\ccLceCCb.s 			page 25


 840              	.L75:
 841              	.LBB258:
 842              	.LBB252:
 843              	.LBB230:
 197:../../source/src/user/OS_LIB/malloc.c **** 					list_del(slab_ptr->block_head.next);
 844              		.loc 1 197 0
 845 02dc 9D68     		ldr	r5, [r3, #8]
 846              	.LVL114:
 201:../../source/src/user/OS_LIB/malloc.c **** 					CPU_CRITICAL_EXIT();
 847              		.loc 1 201 0
 848 02de 53F80C2C 		ldr	r2, [r3, #-12]
 849              	.LBB231:
 850              	.LBB232:
  55:../../source/include/os_lib/double_linked_list.h **** }
 851              		.loc 2 55 0
 852 02e2 D5E90061 		ldrd	r6, r1, [r5]
 853              	.LVL115:
 854              	.LBB233:
 855              	.LBB234:
  48:../../source/include/os_lib/double_linked_list.h ****     prev->next = next;
 856              		.loc 2 48 0
 857 02e6 7160     		str	r1, [r6, #4]
  49:../../source/include/os_lib/double_linked_list.h **** }
 858              		.loc 2 49 0
 859 02e8 0E60     		str	r6, [r1]
 860              	.LVL116:
 861              	.LBE234:
 862              	.LBE233:
 863              	.LBE232:
 864              	.LBE231:
 865              	.LBB235:
 866              	.LBB236:
  55:../../source/include/os_lib/double_linked_list.h **** }
 867              		.loc 2 55 0
 868 02ea D3E90061 		ldrd	r6, r1, [r3]
 869              	.LVL117:
 870              	.LBB237:
 871              	.LBB238:
  48:../../source/include/os_lib/double_linked_list.h ****     prev->next = next;
 872              		.loc 2 48 0
 873 02ee 7160     		str	r1, [r6, #4]
  49:../../source/include/os_lib/double_linked_list.h **** }
 874              		.loc 2 49 0
 875 02f0 0E60     		str	r6, [r1]
 876              	.LVL118:
 877              	.LBE238:
 878              	.LBE237:
 879              	.LBE236:
 880              	.LBE235:
 881              	.LBB239:
 882              	.LBB240:
  36:../../source/include/os_lib/double_linked_list.h **** }
 883              		.loc 2 36 0
 884 02f2 6169     		ldr	r1, [r4, #20]
 885              	.LVL119:
 886              	.LBE240:
 887              	.LBE239:
ARM GAS  G:\Users\Jaxb\AppData\Local\Temp\ccLceCCb.s 			page 26


 201:../../source/src/user/OS_LIB/malloc.c **** 					CPU_CRITICAL_EXIT();
 888              		.loc 1 201 0
 889 02f4 013A     		subs	r2, r2, #1
 890              	.LBB247:
 891              	.LBB245:
 892              	.LBB241:
 893              	.LBB242:
  27:../../source/include/os_lib/double_linked_list.h ****     new->next = next;
 894              		.loc 2 27 0
 895 02f6 4B60     		str	r3, [r1, #4]
 896              	.LBE242:
 897              	.LBE241:
 898              	.LBE245:
 899              	.LBE247:
 202:../../source/src/user/OS_LIB/malloc.c **** 					return ptr;
 900              		.loc 1 202 0
 901 02f8 3846     		mov	r0, r7
 902              	.LVL120:
 903              	.LBB248:
 904              	.LBB246:
 905              	.LBB244:
 906              	.LBB243:
  29:../../source/include/os_lib/double_linked_list.h ****     prev->next = new;
 907              		.loc 2 29 0
 908 02fa C3E90018 		strd	r1, r8, [r3]
  30:../../source/include/os_lib/double_linked_list.h **** }
 909              		.loc 2 30 0
 910 02fe 6361     		str	r3, [r4, #20]
 911              	.LVL121:
 912              	.LBE243:
 913              	.LBE244:
 914              	.LBE246:
 915              	.LBE248:
 201:../../source/src/user/OS_LIB/malloc.c **** 					CPU_CRITICAL_EXIT();
 916              		.loc 1 201 0
 917 0300 43F80C2C 		str	r2, [r3, #-12]
 202:../../source/src/user/OS_LIB/malloc.c **** 					return ptr;
 918              		.loc 1 202 0
 919 0304 FFF7FEFF 		bl	CPU_SR_Restore
 920              	.LVL122:
 921              	.LBE230:
 922              	.LBE252:
 923              	.LBE258:
 270:../../source/src/user/OS_LIB/malloc.c **** 
 924              		.loc 1 270 0
 925 0308 2846     		mov	r0, r5
 926 030a BDE8F883 		pop	{r3, r4, r5, r6, r7, r8, r9, pc}
 927              	.LVL123:
 928              	.L76:
 929              	.LBB259:
 930              	.LBB253:
 931              	.LBB249:
 214:../../source/src/user/OS_LIB/malloc.c **** 						ptr = slab_ptr->block_head.next; // ptr is the point of the allocated space
 932              		.loc 1 214 0
 933 030e 4346     		mov	r3, r8
 934 0310 A268     		ldr	r2, [r4, #8]
 935 0312 4168     		ldr	r1, [r0, #4]
ARM GAS  G:\Users\Jaxb\AppData\Local\Temp\ccLceCCb.s 			page 27


 936 0314 FFF7FEFF 		bl	load_slab
 937              	.LVL124:
 217:../../source/src/user/OS_LIB/malloc.c **** 						CPU_CRITICAL_EXIT();
 938              		.loc 1 217 0
 939 0318 D9F80830 		ldr	r3, [r9, #8]
 215:../../source/src/user/OS_LIB/malloc.c **** 						list_del(slab_ptr->block_head.next); // delete it from slab chain "block_head"
 940              		.loc 1 215 0
 941 031c D9F81C50 		ldr	r5, [r9, #28]
 942              	.LVL125:
 217:../../source/src/user/OS_LIB/malloc.c **** 						CPU_CRITICAL_EXIT();
 943              		.loc 1 217 0
 944 0320 013B     		subs	r3, r3, #1
 945              	.LBB207:
 946              	.LBB208:
  55:../../source/include/os_lib/double_linked_list.h **** }
 947              		.loc 2 55 0
 948 0322 D5E90012 		ldrd	r1, r2, [r5]
 949              	.LVL126:
 950              	.LBE208:
 951              	.LBE207:
 218:../../source/src/user/OS_LIB/malloc.c **** 						return ptr;
 952              		.loc 1 218 0
 953 0326 3846     		mov	r0, r7
 954              	.LBB212:
 955              	.LBB211:
 956              	.LBB209:
 957              	.LBB210:
  48:../../source/include/os_lib/double_linked_list.h ****     prev->next = next;
 958              		.loc 2 48 0
 959 0328 4A60     		str	r2, [r1, #4]
  49:../../source/include/os_lib/double_linked_list.h **** }
 960              		.loc 2 49 0
 961 032a 1160     		str	r1, [r2]
 962              	.LVL127:
 963              	.LBE210:
 964              	.LBE209:
 965              	.LBE211:
 966              	.LBE212:
 217:../../source/src/user/OS_LIB/malloc.c **** 						CPU_CRITICAL_EXIT();
 967              		.loc 1 217 0
 968 032c C9F80830 		str	r3, [r9, #8]
 218:../../source/src/user/OS_LIB/malloc.c **** 						return ptr;
 969              		.loc 1 218 0
 970 0330 FFF7FEFF 		bl	CPU_SR_Restore
 971              	.LVL128:
 972              	.LBE249:
 973              	.LBE253:
 974              	.LBE259:
 270:../../source/src/user/OS_LIB/malloc.c **** 
 975              		.loc 1 270 0
 976 0334 2846     		mov	r0, r5
 977 0336 BDE8F883 		pop	{r3, r4, r5, r6, r7, r8, r9, pc}
 978              	.LVL129:
 979              	.L73:
 980              	.LBB260:
 264:../../source/src/user/OS_LIB/malloc.c **** 			_case_slab_free_buddy(ptr,(void *)((unsigned int)ptr + ka_pow(2,level-1) * PAGE_SIZE_BYTE));
 981              		.loc 1 264 0
ARM GAS  G:\Users\Jaxb\AppData\Local\Temp\ccLceCCb.s 			page 28


 982 033a 0D48     		ldr	r0, .L78+8
 983 033c FFF7FEFF 		bl	ka_printf
 984              	.LVL130:
 265:../../source/src/user/OS_LIB/malloc.c **** 			CPU_CRITICAL_EXIT();
 985              		.loc 1 265 0
 986 0340 08F10101 		add	r1, r8, #1
 987 0344 0220     		movs	r0, #2
 988 0346 FFF7FEFF 		bl	ka_pow
 989              	.LVL131:
 990 034a 05EB8021 		add	r1, r5, r0, lsl #10
 991 034e 2846     		mov	r0, r5
 992 0350 FFF7FEFF 		bl	_case_slab_free_buddy
 993              	.LVL132:
 994 0354 8CE7     		b	.L71
 995              	.LVL133:
 996              	.L77:
 997              	.LBE260:
 998              	.LBB261:
 999              	.LBB254:
 236:../../source/src/user/OS_LIB/malloc.c **** 				if(NULL == kmem_cache_ptr)
 1000              		.loc 1 236 0 discriminator 1
 1001 0356 EC21     		movs	r1, #236
 1002 0358 0648     		ldr	r0, .L78+12
 1003              	.LVL134:
 1004 035a FFF7FEFF 		bl	_ASSERT
 1005              	.LVL135:
 239:../../source/src/user/OS_LIB/malloc.c **** 					return NULL;
 1006              		.loc 1 239 0 discriminator 1
 1007 035e 3846     		mov	r0, r7
 240:../../source/src/user/OS_LIB/malloc.c **** 				}
 1008              		.loc 1 240 0 discriminator 1
 1009 0360 2546     		mov	r5, r4
 1010              	.LVL136:
 239:../../source/src/user/OS_LIB/malloc.c **** 					return NULL;
 1011              		.loc 1 239 0 discriminator 1
 1012 0362 FFF7FEFF 		bl	CPU_SR_Restore
 1013              	.LVL137:
 240:../../source/src/user/OS_LIB/malloc.c **** 				}
 1014              		.loc 1 240 0 discriminator 1
 1015 0366 5AE7     		b	.L56
 1016              	.L79:
 1017              		.align	2
 1018              	.L78:
 1019 0368 00000000 		.word	.LANCHOR0
 1020 036c 04000000 		.word	.LANCHOR0+4
 1021 0370 78000000 		.word	.LC6
 1022 0374 00000000 		.word	.LC0
 1023              	.LBE254:
 1024              	.LBE261:
 1025              		.cfi_endproc
 1026              	.LFE20:
 1027              		.size	ka_malloc, .-ka_malloc
 1028              		.align	1
 1029              		.p2align 2,,3
 1030              		.global	in_os_memory
 1031              		.syntax unified
 1032              		.thumb
ARM GAS  G:\Users\Jaxb\AppData\Local\Temp\ccLceCCb.s 			page 29


 1033              		.thumb_func
 1034              		.fpu softvfp
 1035              		.type	in_os_memory, %function
 1036              	in_os_memory:
 1037              	.LFB22:
 294:../../source/src/user/OS_LIB/malloc.c **** 
 295:../../source/src/user/OS_LIB/malloc.c **** int in_os_memory(void *ptr)
 296:../../source/src/user/OS_LIB/malloc.c **** {
 1038              		.loc 1 296 0
 1039              		.cfi_startproc
 1040              		@ args = 0, pretend = 0, frame = 0
 1041              		@ frame_needed = 0, uses_anonymous_args = 0
 1042              	.LVL138:
 1043 0378 38B5     		push	{r3, r4, r5, lr}
 1044              	.LCFI5:
 1045              		.cfi_def_cfa_offset 16
 1046              		.cfi_offset 3, -16
 1047              		.cfi_offset 4, -12
 1048              		.cfi_offset 5, -8
 1049              		.cfi_offset 14, -4
 1050              		.loc 1 296 0
 1051 037a 0546     		mov	r5, r0
 297:../../source/src/user/OS_LIB/malloc.c **** 	struct buddy *buddy_ptr = (struct buddy *)get_os_buddy_ptr_head();
 1052              		.loc 1 297 0
 1053 037c FFF7FEFF 		bl	get_os_buddy_ptr_head
 1054              	.LVL139:
 298:../../source/src/user/OS_LIB/malloc.c **** 	ASSERT(NULL != buddy_ptr);
 1055              		.loc 1 298 0
 1056 0380 0446     		mov	r4, r0
 1057 0382 28B9     		cbnz	r0, .L81
 1058 0384 0DE0     		b	.L88
 1059              	.LVL140:
 1060              	.L90:
 299:../../source/src/user/OS_LIB/malloc.c **** 	while(NULL != buddy_ptr)
 300:../../source/src/user/OS_LIB/malloc.c **** 	{
 301:../../source/src/user/OS_LIB/malloc.c **** 		if(FUN_EXECUTE_SUCCESSFULLY == in_buddy_range(ptr))
 302:../../source/src/user/OS_LIB/malloc.c **** 		{
 303:../../source/src/user/OS_LIB/malloc.c **** 			return FUN_EXECUTE_SUCCESSFULLY;
 304:../../source/src/user/OS_LIB/malloc.c **** 		}
 305:../../source/src/user/OS_LIB/malloc.c **** 		buddy_ptr = (struct buddy *)get_next_buddy_ptr_head(buddy_ptr);
 1061              		.loc 1 305 0
 1062 0386 2046     		mov	r0, r4
 1063 0388 FFF7FEFF 		bl	get_next_buddy_ptr_head
 1064              	.LVL141:
 299:../../source/src/user/OS_LIB/malloc.c **** 	while(NULL != buddy_ptr)
 1065              		.loc 1 299 0
 1066 038c 0446     		mov	r4, r0
 1067 038e 28B1     		cbz	r0, .L89
 1068              	.L81:
 301:../../source/src/user/OS_LIB/malloc.c **** 		{
 1069              		.loc 1 301 0
 1070 0390 2846     		mov	r0, r5
 1071              	.LVL142:
 1072 0392 FFF7FEFF 		bl	in_buddy_range
 1073              	.LVL143:
 1074 0396 0028     		cmp	r0, #0
 1075 0398 F5D1     		bne	.L90
ARM GAS  G:\Users\Jaxb\AppData\Local\Temp\ccLceCCb.s 			page 30


 306:../../source/src/user/OS_LIB/malloc.c **** 	}
 307:../../source/src/user/OS_LIB/malloc.c **** 	return -1;
 308:../../source/src/user/OS_LIB/malloc.c **** }
 1076              		.loc 1 308 0
 1077 039a 38BD     		pop	{r3, r4, r5, pc}
 1078              	.LVL144:
 1079              	.L89:
 307:../../source/src/user/OS_LIB/malloc.c **** }
 1080              		.loc 1 307 0
 1081 039c 4FF0FF30 		mov	r0, #-1
 1082              	.LVL145:
 1083              		.loc 1 308 0
 1084 03a0 38BD     		pop	{r3, r4, r5, pc}
 1085              	.LVL146:
 1086              	.L88:
 298:../../source/src/user/OS_LIB/malloc.c **** 	while(NULL != buddy_ptr)
 1087              		.loc 1 298 0 discriminator 1
 1088 03a2 4FF49571 		mov	r1, #298
 1089 03a6 0348     		ldr	r0, .L91
 1090              	.LVL147:
 1091 03a8 FFF7FEFF 		bl	_ASSERT
 1092              	.LVL148:
 307:../../source/src/user/OS_LIB/malloc.c **** }
 1093              		.loc 1 307 0 discriminator 1
 1094 03ac 4FF0FF30 		mov	r0, #-1
 1095              		.loc 1 308 0 discriminator 1
 1096 03b0 38BD     		pop	{r3, r4, r5, pc}
 1097              	.LVL149:
 1098              	.L92:
 1099 03b2 00BF     		.align	2
 1100              	.L91:
 1101 03b4 00000000 		.word	.LC0
 1102              		.cfi_endproc
 1103              	.LFE22:
 1104              		.size	in_os_memory, .-in_os_memory
 1105              		.align	1
 1106              		.p2align 2,,3
 1107              		.global	ka_free
 1108              		.syntax unified
 1109              		.thumb
 1110              		.thumb_func
 1111              		.fpu softvfp
 1112              		.type	ka_free, %function
 1113              	ka_free:
 1114              	.LFB23:
 309:../../source/src/user/OS_LIB/malloc.c **** 
 310:../../source/src/user/OS_LIB/malloc.c **** void ka_free(void *ptr)
 311:../../source/src/user/OS_LIB/malloc.c **** {
 1115              		.loc 1 311 0
 1116              		.cfi_startproc
 1117              		@ args = 0, pretend = 0, frame = 0
 1118              		@ frame_needed = 0, uses_anonymous_args = 0
 1119              	.LVL150:
 1120 03b8 2DE9F843 		push	{r3, r4, r5, r6, r7, r8, r9, lr}
 1121              	.LCFI6:
 1122              		.cfi_def_cfa_offset 32
 1123              		.cfi_offset 3, -32
ARM GAS  G:\Users\Jaxb\AppData\Local\Temp\ccLceCCb.s 			page 31


 1124              		.cfi_offset 4, -28
 1125              		.cfi_offset 5, -24
 1126              		.cfi_offset 6, -20
 1127              		.cfi_offset 7, -16
 1128              		.cfi_offset 8, -12
 1129              		.cfi_offset 9, -8
 1130              		.cfi_offset 14, -4
 1131              		.loc 1 311 0
 1132 03bc 0646     		mov	r6, r0
 312:../../source/src/user/OS_LIB/malloc.c **** 	struct list_head *pos;
 313:../../source/src/user/OS_LIB/malloc.c **** 	struct kmem_cache *kmem_cache_ptr;
 314:../../source/src/user/OS_LIB/malloc.c **** 	IL *IL_ptr;
 315:../../source/src/user/OS_LIB/malloc.c **** 	struct slab *slab_ptr;
 316:../../source/src/user/OS_LIB/malloc.c **** 	CPU_SR_ALLOC();
 317:../../source/src/user/OS_LIB/malloc.c **** 	if(FUN_EXECUTE_SUCCESSFULLY != in_os_memory(ptr))
 1133              		.loc 1 317 0
 1134 03be FFF7FEFF 		bl	in_os_memory
 1135              	.LVL151:
 1136 03c2 08B1     		cbz	r0, .L115
 318:../../source/src/user/OS_LIB/malloc.c **** 	{
 319:../../source/src/user/OS_LIB/malloc.c **** 		return ;
 320:../../source/src/user/OS_LIB/malloc.c **** 	}
 321:../../source/src/user/OS_LIB/malloc.c **** 	CPU_CRITICAL_ENTER();
 322:../../source/src/user/OS_LIB/malloc.c **** 	list_for_each(pos, &cache_chain_head)
 323:../../source/src/user/OS_LIB/malloc.c **** 	{
 324:../../source/src/user/OS_LIB/malloc.c **** 		IL_ptr = list_entry(pos,IL,insert);
 325:../../source/src/user/OS_LIB/malloc.c **** 		kmem_cache_ptr =  list_entry(IL_ptr,struct kmem_cache,kmem_cache_insert_chain);
 326:../../source/src/user/OS_LIB/malloc.c **** 		if(!list_empty(&kmem_cache_ptr->slabs_partial))
 327:../../source/src/user/OS_LIB/malloc.c **** 		{
 328:../../source/src/user/OS_LIB/malloc.c **** 			slab_ptr = free_find_in_slab_chain(&kmem_cache_ptr->slabs_partial,ptr);
 329:../../source/src/user/OS_LIB/malloc.c **** 			if(NULL != slab_ptr) // free success
 330:../../source/src/user/OS_LIB/malloc.c **** 			{
 331:../../source/src/user/OS_LIB/malloc.c **** 				if(slab_ptr->current_block_num == slab_ptr->full_block_num)
 332:../../source/src/user/OS_LIB/malloc.c **** 				{
 333:../../source/src/user/OS_LIB/malloc.c **** 					list_del(&slab_ptr->slab_chain);
 334:../../source/src/user/OS_LIB/malloc.c **** 					list_add(&slab_ptr->slab_chain,&kmem_cache_ptr->slabs_empty);
 335:../../source/src/user/OS_LIB/malloc.c **** 				}
 336:../../source/src/user/OS_LIB/malloc.c **** 				CPU_CRITICAL_EXIT();
 337:../../source/src/user/OS_LIB/malloc.c **** 				return ;
 338:../../source/src/user/OS_LIB/malloc.c **** 			}
 339:../../source/src/user/OS_LIB/malloc.c **** 		}
 340:../../source/src/user/OS_LIB/malloc.c **** 		if(!list_empty(&kmem_cache_ptr->slabs_full))
 341:../../source/src/user/OS_LIB/malloc.c **** 		{
 342:../../source/src/user/OS_LIB/malloc.c **** 			slab_ptr = free_find_in_slab_chain(&kmem_cache_ptr->slabs_full,ptr);
 343:../../source/src/user/OS_LIB/malloc.c **** 			if(NULL != slab_ptr) // free success
 344:../../source/src/user/OS_LIB/malloc.c **** 			{
 345:../../source/src/user/OS_LIB/malloc.c **** 				list_del(&slab_ptr->slab_chain);
 346:../../source/src/user/OS_LIB/malloc.c **** 				list_add(&slab_ptr->slab_chain,&kmem_cache_ptr->slabs_partial);
 347:../../source/src/user/OS_LIB/malloc.c **** 				CPU_CRITICAL_EXIT();
 348:../../source/src/user/OS_LIB/malloc.c **** 				return ;
 349:../../source/src/user/OS_LIB/malloc.c **** 			}
 350:../../source/src/user/OS_LIB/malloc.c **** 		}
 351:../../source/src/user/OS_LIB/malloc.c **** 	}
 352:../../source/src/user/OS_LIB/malloc.c **** 	if(FUN_EXECUTE_SUCCESSFULLY == find_and_remove_record(ptr))
 353:../../source/src/user/OS_LIB/malloc.c **** 	{
 354:../../source/src/user/OS_LIB/malloc.c **** 		CPU_CRITICAL_EXIT();
 355:../../source/src/user/OS_LIB/malloc.c **** 		return;
ARM GAS  G:\Users\Jaxb\AppData\Local\Temp\ccLceCCb.s 			page 32


 356:../../source/src/user/OS_LIB/malloc.c **** 	}
 357:../../source/src/user/OS_LIB/malloc.c **** 	ka_printf("not in a slab or record,fatal error\n");
 358:../../source/src/user/OS_LIB/malloc.c **** 	ASSERT(0);//should not go here
 359:../../source/src/user/OS_LIB/malloc.c **** }
 1137              		.loc 1 359 0
 1138 03c4 BDE8F883 		pop	{r3, r4, r5, r6, r7, r8, r9, pc}
 1139              	.LVL152:
 1140              	.L115:
 1141              	.LBB289:
 1142              	.LBB290:
 322:../../source/src/user/OS_LIB/malloc.c **** 	{
 1143              		.loc 1 322 0
 1144 03c8 DFF8E880 		ldr	r8, .L118
 321:../../source/src/user/OS_LIB/malloc.c **** 	list_for_each(pos, &cache_chain_head)
 1145              		.loc 1 321 0
 1146 03cc FFF7FEFF 		bl	CPU_SR_Save
 1147              	.LVL153:
 322:../../source/src/user/OS_LIB/malloc.c **** 	{
 1148              		.loc 1 322 0
 1149 03d0 4746     		mov	r7, r8
 1150 03d2 57F8044F 		ldr	r4, [r7, #4]!
 321:../../source/src/user/OS_LIB/malloc.c **** 	list_for_each(pos, &cache_chain_head)
 1151              		.loc 1 321 0
 1152 03d6 8146     		mov	r9, r0
 1153              	.LVL154:
 322:../../source/src/user/OS_LIB/malloc.c **** 	{
 1154              		.loc 1 322 0
 1155 03d8 BC42     		cmp	r4, r7
 1156 03da 18D0     		beq	.L95
 1157              	.LVL155:
 1158              	.L99:
 326:../../source/src/user/OS_LIB/malloc.c **** 		{
 1159              		.loc 1 326 0
 1160 03dc 6369     		ldr	r3, [r4, #20]
 1161 03de 04F11405 		add	r5, r4, #20
 1162 03e2 9D42     		cmp	r5, r3
 1163 03e4 05D0     		beq	.L96
 328:../../source/src/user/OS_LIB/malloc.c **** 			if(NULL != slab_ptr) // free success
 1164              		.loc 1 328 0
 1165 03e6 3146     		mov	r1, r6
 1166 03e8 2846     		mov	r0, r5
 1167 03ea FFF709FE 		bl	free_find_in_slab_chain
 1168              	.LVL156:
 329:../../source/src/user/OS_LIB/malloc.c **** 			{
 1169              		.loc 1 329 0
 1170 03ee 0028     		cmp	r0, #0
 1171 03f0 3DD1     		bne	.L116
 1172              	.LVL157:
 1173              	.L96:
 340:../../source/src/user/OS_LIB/malloc.c **** 		{
 1174              		.loc 1 340 0
 1175 03f2 E368     		ldr	r3, [r4, #12]
 1176 03f4 04F10C00 		add	r0, r4, #12
 1177 03f8 9842     		cmp	r0, r3
 1178 03fa 05D0     		beq	.L98
 342:../../source/src/user/OS_LIB/malloc.c **** 			if(NULL != slab_ptr) // free success
 1179              		.loc 1 342 0
ARM GAS  G:\Users\Jaxb\AppData\Local\Temp\ccLceCCb.s 			page 33


 1180 03fc 3146     		mov	r1, r6
 1181 03fe FFF7FFFD 		bl	free_find_in_slab_chain
 1182              	.LVL158:
 343:../../source/src/user/OS_LIB/malloc.c **** 			{
 1183              		.loc 1 343 0
 1184 0402 0346     		mov	r3, r0
 1185 0404 0028     		cmp	r0, #0
 1186 0406 44D1     		bne	.L117
 1187              	.LVL159:
 1188              	.L98:
 322:../../source/src/user/OS_LIB/malloc.c **** 	{
 1189              		.loc 1 322 0
 1190 0408 2468     		ldr	r4, [r4]
 1191              	.LVL160:
 1192 040a BC42     		cmp	r4, r7
 1193 040c E6D1     		bne	.L99
 1194              	.LVL161:
 1195              	.L95:
 1196              	.LBB291:
 1197              	.LBB292:
  59:../../source/src/user/OS_LIB/malloc.c **** 	{
 1198              		.loc 1 59 0
 1199 040e D8F80040 		ldr	r4, [r8]
 1200              	.LVL162:
 1201 0412 4445     		cmp	r4, r8
 1202 0414 03D1     		bne	.L104
 1203 0416 20E0     		b	.L100
 1204              	.L102:
 1205              	.LVL163:
 1206 0418 2468     		ldr	r4, [r4]
 1207              	.LVL164:
 1208 041a 4445     		cmp	r4, r8
 1209 041c 1DD0     		beq	.L100
 1210              	.LVL165:
 1211              	.L104:
  62:../../source/src/user/OS_LIB/malloc.c **** 		{
 1212              		.loc 1 62 0
 1213 041e 54F8043C 		ldr	r3, [r4, #-4]
 1214 0422 9E42     		cmp	r6, r3
 1215 0424 F8D1     		bne	.L102
  64:../../source/src/user/OS_LIB/malloc.c **** 			singly_list_del_safe(&page_alloc_record_head,pos);
 1216              		.loc 1 64 0
 1217 0426 54F8081C 		ldr	r1, [r4, #-8]
 1218 042a 0220     		movs	r0, #2
 1219 042c 0139     		subs	r1, r1, #1
 1220 042e FFF7FEFF 		bl	ka_pow
 1221              	.LVL166:
 1222 0432 06EB8021 		add	r1, r6, r0, lsl #10
 1223 0436 3046     		mov	r0, r6
 1224 0438 FFF7FEFF 		bl	_case_slab_free_buddy
 1225              	.LVL167:
 1226              	.LBB293:
  61:../../source/src/user/OS_LIB/malloc.c **** 		if(record_ptr->ptr == ptr)
 1227              		.loc 1 61 0
 1228 043c A4F10805 		sub	r5, r4, #8
 1229              	.LBE293:
  65:../../source/src/user/OS_LIB/malloc.c **** 			ka_free(record_ptr);
ARM GAS  G:\Users\Jaxb\AppData\Local\Temp\ccLceCCb.s 			page 34


 1230              		.loc 1 65 0
 1231 0440 1C48     		ldr	r0, .L118
 1232 0442 2146     		mov	r1, r4
 1233 0444 0022     		movs	r2, #0
 1234 0446 FFF7FEFF 		bl	singly_list_del
 1235              	.LVL168:
  66:../../source/src/user/OS_LIB/malloc.c **** 			return FUN_EXECUTE_SUCCESSFULLY;
 1236              		.loc 1 66 0
 1237 044a 2846     		mov	r0, r5
 1238 044c FFF7FEFF 		bl	ka_free
 1239              	.LVL169:
 1240              	.L113:
 1241              	.LBE292:
 1242              	.LBE291:
 354:../../source/src/user/OS_LIB/malloc.c **** 		return;
 1243              		.loc 1 354 0
 1244 0450 4846     		mov	r0, r9
 1245              	.LBE290:
 1246              	.LBE289:
 1247              		.loc 1 359 0
 1248 0452 BDE8F843 		pop	{r3, r4, r5, r6, r7, r8, r9, lr}
 1249              	.LCFI7:
 1250              		.cfi_remember_state
 1251              		.cfi_restore 14
 1252              		.cfi_restore 9
 1253              		.cfi_restore 8
 1254              		.cfi_restore 7
 1255              		.cfi_restore 6
 1256              		.cfi_restore 5
 1257              		.cfi_restore 4
 1258              		.cfi_restore 3
 1259              		.cfi_def_cfa_offset 0
 1260              	.LVL170:
 1261              	.LBB319:
 1262              	.LBB316:
 354:../../source/src/user/OS_LIB/malloc.c **** 		return;
 1263              		.loc 1 354 0
 1264 0456 FFF7FEBF 		b	CPU_SR_Restore
 1265              	.LVL171:
 1266              	.L100:
 1267              	.LCFI8:
 1268              		.cfi_restore_state
 357:../../source/src/user/OS_LIB/malloc.c **** 	ASSERT(0);//should not go here
 1269              		.loc 1 357 0
 1270 045a 1748     		ldr	r0, .L118+4
 1271 045c FFF7FEFF 		bl	ka_printf
 1272              	.LVL172:
 1273              	.LBE316:
 1274              	.LBE319:
 1275              		.loc 1 359 0
 1276 0460 BDE8F843 		pop	{r3, r4, r5, r6, r7, r8, r9, lr}
 1277              	.LCFI9:
 1278              		.cfi_remember_state
 1279              		.cfi_restore 14
 1280              		.cfi_restore 9
 1281              		.cfi_restore 8
 1282              		.cfi_restore 7
ARM GAS  G:\Users\Jaxb\AppData\Local\Temp\ccLceCCb.s 			page 35


 1283              		.cfi_restore 6
 1284              		.cfi_restore 5
 1285              		.cfi_restore 4
 1286              		.cfi_restore 3
 1287              		.cfi_def_cfa_offset 0
 1288              	.LVL173:
 1289              	.LBB320:
 1290              	.LBB317:
 358:../../source/src/user/OS_LIB/malloc.c **** }
 1291              		.loc 1 358 0
 1292 0464 4FF4B371 		mov	r1, #358
 1293 0468 1448     		ldr	r0, .L118+8
 1294 046a FFF7FEBF 		b	_ASSERT
 1295              	.LVL174:
 1296              	.L116:
 1297              	.LCFI10:
 1298              		.cfi_restore_state
 331:../../source/src/user/OS_LIB/malloc.c **** 				{
 1299              		.loc 1 331 0
 1300 046e D0E90223 		ldrd	r2, r3, [r0, #8]
 1301 0472 9A42     		cmp	r2, r3
 1302 0474 ECD1     		bne	.L113
 1303              	.LVL175:
 1304              	.LBB294:
 1305              	.LBB295:
  55:../../source/include/os_lib/double_linked_list.h **** }
 1306              		.loc 2 55 0
 1307 0476 0346     		mov	r3, r0
 1308              	.LBE295:
 1309              	.LBE294:
 1310              	.LBB299:
 1311              	.LBB300:
  36:../../source/include/os_lib/double_linked_list.h **** }
 1312              		.loc 2 36 0
 1313 0478 2246     		mov	r2, r4
 1314              	.LBE300:
 1315              	.LBE299:
 1316              	.LBB304:
 1317              	.LBB298:
  55:../../source/include/os_lib/double_linked_list.h **** }
 1318              		.loc 2 55 0
 1319 047a 8169     		ldr	r1, [r0, #24]
 1320              	.LVL176:
 1321 047c 53F8145F 		ldr	r5, [r3, #20]!
 1322              	.LVL177:
 1323              	.LBB296:
 1324              	.LBB297:
  48:../../source/include/os_lib/double_linked_list.h ****     prev->next = next;
 1325              		.loc 2 48 0
 1326 0480 6960     		str	r1, [r5, #4]
  49:../../source/include/os_lib/double_linked_list.h **** }
 1327              		.loc 2 49 0
 1328 0482 0D60     		str	r5, [r1]
 1329              	.LVL178:
 1330              	.LBE297:
 1331              	.LBE296:
 1332              	.LBE298:
ARM GAS  G:\Users\Jaxb\AppData\Local\Temp\ccLceCCb.s 			page 36


 1333              	.LBE304:
 1334              	.LBB305:
 1335              	.LBB303:
  36:../../source/include/os_lib/double_linked_list.h **** }
 1336              		.loc 2 36 0
 1337 0484 52F81C1F 		ldr	r1, [r2, #28]!
 1338              	.LVL179:
 1339              	.LBB301:
 1340              	.LBB302:
  27:../../source/include/os_lib/double_linked_list.h ****     new->next = next;
 1341              		.loc 2 27 0
 1342 0488 4B60     		str	r3, [r1, #4]
  29:../../source/include/os_lib/double_linked_list.h ****     prev->next = new;
 1343              		.loc 2 29 0
 1344 048a C0E90512 		strd	r1, r2, [r0, #20]
  30:../../source/include/os_lib/double_linked_list.h **** }
 1345              		.loc 2 30 0
 1346 048e E361     		str	r3, [r4, #28]
 1347              	.LVL180:
 1348 0490 DEE7     		b	.L113
 1349              	.LVL181:
 1350              	.L117:
 1351              	.LBE302:
 1352              	.LBE301:
 1353              	.LBE303:
 1354              	.LBE305:
 1355              	.LBB306:
 1356              	.LBB307:
  55:../../source/include/os_lib/double_linked_list.h **** }
 1357              		.loc 2 55 0
 1358 0492 0246     		mov	r2, r0
 1359 0494 8169     		ldr	r1, [r0, #24]
 1360 0496 52F8146F 		ldr	r6, [r2, #20]!
 1361              	.LVL182:
 1362              	.LBE307:
 1363              	.LBE306:
 347:../../source/src/user/OS_LIB/malloc.c **** 				return ;
 1364              		.loc 1 347 0
 1365 049a 4846     		mov	r0, r9
 1366              	.LVL183:
 1367              	.LBB311:
 1368              	.LBB310:
 1369              	.LBB308:
 1370              	.LBB309:
  48:../../source/include/os_lib/double_linked_list.h ****     prev->next = next;
 1371              		.loc 2 48 0
 1372 049c 7160     		str	r1, [r6, #4]
  49:../../source/include/os_lib/double_linked_list.h **** }
 1373              		.loc 2 49 0
 1374 049e 0E60     		str	r6, [r1]
 1375              	.LVL184:
 1376              	.LBE309:
 1377              	.LBE308:
 1378              	.LBE310:
 1379              	.LBE311:
 1380              	.LBB312:
 1381              	.LBB313:
ARM GAS  G:\Users\Jaxb\AppData\Local\Temp\ccLceCCb.s 			page 37


  36:../../source/include/os_lib/double_linked_list.h **** }
 1382              		.loc 2 36 0
 1383 04a0 6169     		ldr	r1, [r4, #20]
 1384              	.LVL185:
 1385              	.LBB314:
 1386              	.LBB315:
  27:../../source/include/os_lib/double_linked_list.h ****     new->next = next;
 1387              		.loc 2 27 0
 1388 04a2 4A60     		str	r2, [r1, #4]
  29:../../source/include/os_lib/double_linked_list.h ****     prev->next = new;
 1389              		.loc 2 29 0
 1390 04a4 C3E90515 		strd	r1, r5, [r3, #20]
  30:../../source/include/os_lib/double_linked_list.h **** }
 1391              		.loc 2 30 0
 1392 04a8 6261     		str	r2, [r4, #20]
 1393              	.LVL186:
 1394              	.LBE315:
 1395              	.LBE314:
 1396              	.LBE313:
 1397              	.LBE312:
 1398              	.LBE317:
 1399              	.LBE320:
 1400              		.loc 1 359 0
 1401 04aa BDE8F843 		pop	{r3, r4, r5, r6, r7, r8, r9, lr}
 1402              	.LCFI11:
 1403              		.cfi_restore 14
 1404              		.cfi_restore 9
 1405              		.cfi_restore 8
 1406              		.cfi_restore 7
 1407              		.cfi_restore 6
 1408              		.cfi_restore 5
 1409              		.cfi_restore 4
 1410              		.cfi_restore 3
 1411              		.cfi_def_cfa_offset 0
 1412              	.LVL187:
 1413              	.LBB321:
 1414              	.LBB318:
 347:../../source/src/user/OS_LIB/malloc.c **** 				return ;
 1415              		.loc 1 347 0
 1416 04ae FFF7FEBF 		b	CPU_SR_Restore
 1417              	.LVL188:
 1418              	.L119:
 1419 04b2 00BF     		.align	2
 1420              	.L118:
 1421 04b4 00000000 		.word	.LANCHOR0
 1422 04b8 A4000000 		.word	.LC7
 1423 04bc 00000000 		.word	.LC0
 1424              	.LBE318:
 1425              	.LBE321:
 1426              		.cfi_endproc
 1427              	.LFE23:
 1428              		.size	ka_free, .-ka_free
 1429              		.align	1
 1430              		.p2align 2,,3
 1431              		.global	shell_check_kmem
 1432              		.syntax unified
 1433              		.thumb
ARM GAS  G:\Users\Jaxb\AppData\Local\Temp\ccLceCCb.s 			page 38


 1434              		.thumb_func
 1435              		.fpu softvfp
 1436              		.type	shell_check_kmem, %function
 1437              	shell_check_kmem:
 1438              	.LFB24:
 360:../../source/src/user/OS_LIB/malloc.c **** 
 361:../../source/src/user/OS_LIB/malloc.c **** #if CONFIG_SHELL_EN
 362:../../source/src/user/OS_LIB/malloc.c **** void shell_check_kmem(int argc, char const *argv[])
 363:../../source/src/user/OS_LIB/malloc.c **** {
 1439              		.loc 1 363 0
 1440              		.cfi_startproc
 1441              		@ args = 0, pretend = 0, frame = 0
 1442              		@ frame_needed = 0, uses_anonymous_args = 0
 1443              	.LVL189:
 1444 04c0 2DE9F047 		push	{r4, r5, r6, r7, r8, r9, r10, lr}
 1445              	.LCFI12:
 1446              		.cfi_def_cfa_offset 32
 1447              		.cfi_offset 4, -32
 1448              		.cfi_offset 5, -28
 1449              		.cfi_offset 6, -24
 1450              		.cfi_offset 7, -20
 1451              		.cfi_offset 8, -16
 1452              		.cfi_offset 9, -12
 1453              		.cfi_offset 10, -8
 1454              		.cfi_offset 14, -4
 364:../../source/src/user/OS_LIB/malloc.c **** 	(void)argc;
 365:../../source/src/user/OS_LIB/malloc.c **** 	(void)argv;
 366:../../source/src/user/OS_LIB/malloc.c **** 	struct list_head *pos;
 367:../../source/src/user/OS_LIB/malloc.c **** 	IL *IL_ptr;
 368:../../source/src/user/OS_LIB/malloc.c **** 	struct kmem_cache *kmem_cache_ptr;
 369:../../source/src/user/OS_LIB/malloc.c **** 	int i = 0;
 370:../../source/src/user/OS_LIB/malloc.c **** 	CPU_SR_ALLOC();
 371:../../source/src/user/OS_LIB/malloc.c **** 	CPU_CRITICAL_ENTER();
 1455              		.loc 1 371 0
 1456 04c4 FFF7FEFF 		bl	CPU_SR_Save
 1457              	.LVL190:
 372:../../source/src/user/OS_LIB/malloc.c **** 	list_for_each(pos,&cache_chain_head)
 1458              		.loc 1 372 0
 1459 04c8 2B4E     		ldr	r6, .L137
 371:../../source/src/user/OS_LIB/malloc.c **** 	list_for_each(pos,&cache_chain_head)
 1460              		.loc 1 371 0
 1461 04ca 8246     		mov	r10, r0
 1462              	.LVL191:
 1463              		.loc 1 372 0
 1464 04cc 56F8044F 		ldr	r4, [r6, #4]!
 1465              	.LVL192:
 1466 04d0 B442     		cmp	r4, r6
 1467 04d2 3BD0     		beq	.L121
 369:../../source/src/user/OS_LIB/malloc.c **** 	CPU_SR_ALLOC();
 1468              		.loc 1 369 0
 1469 04d4 0025     		movs	r5, #0
 373:../../source/src/user/OS_LIB/malloc.c **** 	{
 374:../../source/src/user/OS_LIB/malloc.c **** 		ka_printf("===========get NO.%d kmem===========\n",++i);
 1470              		.loc 1 374 0
 1471 04d6 DFF8C080 		ldr	r8, .L137+32
 375:../../source/src/user/OS_LIB/malloc.c **** 		IL_ptr = list_entry(pos,IL,insert);
 376:../../source/src/user/OS_LIB/malloc.c **** 		ka_printf("the size of this kmem_cache is %u\n",IL_ptr->prio);
ARM GAS  G:\Users\Jaxb\AppData\Local\Temp\ccLceCCb.s 			page 39


 1472              		.loc 1 376 0
 1473 04da 284F     		ldr	r7, .L137+4
 377:../../source/src/user/OS_LIB/malloc.c **** 		kmem_cache_ptr = list_entry(IL_ptr,struct kmem_cache,kmem_cache_insert_chain);
 378:../../source/src/user/OS_LIB/malloc.c **** 		if(!list_empty(&kmem_cache_ptr->slabs_full))
 379:../../source/src/user/OS_LIB/malloc.c **** 		{
 380:../../source/src/user/OS_LIB/malloc.c **** 			struct list_head *buffer;
 381:../../source/src/user/OS_LIB/malloc.c **** 			int num = 0;
 382:../../source/src/user/OS_LIB/malloc.c **** 			list_for_each(buffer,&kmem_cache_ptr->slabs_full)
 383:../../source/src/user/OS_LIB/malloc.c **** 			{
 384:../../source/src/user/OS_LIB/malloc.c **** 				++num;
 385:../../source/src/user/OS_LIB/malloc.c **** 			}
 386:../../source/src/user/OS_LIB/malloc.c **** 			ka_printf("chain slabs_full has %d slab\n",num);
 387:../../source/src/user/OS_LIB/malloc.c **** 		}
 388:../../source/src/user/OS_LIB/malloc.c **** 		else
 389:../../source/src/user/OS_LIB/malloc.c **** 		{
 390:../../source/src/user/OS_LIB/malloc.c **** 			ka_printf("chain slabs_full is empty\n");
 1474              		.loc 1 390 0
 1475 04dc DFF8BC90 		ldr	r9, .L137+36
 1476              	.LVL193:
 1477              	.L131:
 374:../../source/src/user/OS_LIB/malloc.c **** 		IL_ptr = list_entry(pos,IL,insert);
 1478              		.loc 1 374 0
 1479 04e0 0135     		adds	r5, r5, #1
 1480              	.LVL194:
 1481 04e2 2946     		mov	r1, r5
 1482 04e4 4046     		mov	r0, r8
 1483 04e6 FFF7FEFF 		bl	ka_printf
 1484              	.LVL195:
 376:../../source/src/user/OS_LIB/malloc.c **** 		kmem_cache_ptr = list_entry(IL_ptr,struct kmem_cache,kmem_cache_insert_chain);
 1485              		.loc 1 376 0
 1486 04ea A168     		ldr	r1, [r4, #8]
 1487 04ec 3846     		mov	r0, r7
 1488 04ee FFF7FEFF 		bl	ka_printf
 1489              	.LVL196:
 1490              	.LBB322:
 1491              	.LBB323:
 1492              		.loc 2 84 0
 1493 04f2 E368     		ldr	r3, [r4, #12]
 1494              	.LBE323:
 1495              	.LBE322:
 378:../../source/src/user/OS_LIB/malloc.c **** 		{
 1496              		.loc 1 378 0
 1497 04f4 04F10C02 		add	r2, r4, #12
 1498 04f8 9A42     		cmp	r2, r3
 1499 04fa 30D0     		beq	.L122
 1500              	.LBB324:
 381:../../source/src/user/OS_LIB/malloc.c **** 			list_for_each(buffer,&kmem_cache_ptr->slabs_full)
 1501              		.loc 1 381 0
 1502 04fc 0021     		movs	r1, #0
 1503              	.L123:
 1504              	.LVL197:
 382:../../source/src/user/OS_LIB/malloc.c **** 			{
 1505              		.loc 1 382 0 discriminator 3
 1506 04fe 1B68     		ldr	r3, [r3]
 1507              	.LVL198:
 384:../../source/src/user/OS_LIB/malloc.c **** 			}
 1508              		.loc 1 384 0 discriminator 3
ARM GAS  G:\Users\Jaxb\AppData\Local\Temp\ccLceCCb.s 			page 40


 1509 0500 0131     		adds	r1, r1, #1
 1510              	.LVL199:
 382:../../source/src/user/OS_LIB/malloc.c **** 			{
 1511              		.loc 1 382 0 discriminator 3
 1512 0502 9A42     		cmp	r2, r3
 1513 0504 FBD1     		bne	.L123
 386:../../source/src/user/OS_LIB/malloc.c **** 		}
 1514              		.loc 1 386 0
 1515 0506 1E48     		ldr	r0, .L137+8
 1516 0508 FFF7FEFF 		bl	ka_printf
 1517              	.LVL200:
 1518              	.LBE324:
 1519              	.LBB325:
 1520              	.LBB326:
 1521              		.loc 2 84 0
 1522 050c 6369     		ldr	r3, [r4, #20]
 1523              	.LBE326:
 1524              	.LBE325:
 391:../../source/src/user/OS_LIB/malloc.c **** 		}
 392:../../source/src/user/OS_LIB/malloc.c **** 		if(!list_empty(&kmem_cache_ptr->slabs_partial))
 1525              		.loc 1 392 0
 1526 050e 04F11402 		add	r2, r4, #20
 1527 0512 9A42     		cmp	r2, r3
 1528 0514 2BD0     		beq	.L125
 1529              	.L136:
 1530              	.LBB328:
 393:../../source/src/user/OS_LIB/malloc.c **** 		{
 394:../../source/src/user/OS_LIB/malloc.c **** 			struct list_head *buffer;
 395:../../source/src/user/OS_LIB/malloc.c **** 			int num = 0;
 1531              		.loc 1 395 0
 1532 0516 0021     		movs	r1, #0
 1533              	.L126:
 1534              	.LVL201:
 396:../../source/src/user/OS_LIB/malloc.c **** 			list_for_each(buffer,&kmem_cache_ptr->slabs_partial)
 1535              		.loc 1 396 0 discriminator 3
 1536 0518 1B68     		ldr	r3, [r3]
 1537              	.LVL202:
 397:../../source/src/user/OS_LIB/malloc.c **** 			{
 398:../../source/src/user/OS_LIB/malloc.c **** 				++num;
 1538              		.loc 1 398 0 discriminator 3
 1539 051a 0131     		adds	r1, r1, #1
 1540              	.LVL203:
 396:../../source/src/user/OS_LIB/malloc.c **** 			list_for_each(buffer,&kmem_cache_ptr->slabs_partial)
 1541              		.loc 1 396 0 discriminator 3
 1542 051c 9A42     		cmp	r2, r3
 1543 051e FBD1     		bne	.L126
 399:../../source/src/user/OS_LIB/malloc.c **** 			}
 400:../../source/src/user/OS_LIB/malloc.c **** 			ka_printf("chain slabs_partial has %d slab\n",num);
 1544              		.loc 1 400 0
 1545 0520 1848     		ldr	r0, .L137+12
 1546 0522 FFF7FEFF 		bl	ka_printf
 1547              	.LVL204:
 1548              	.L127:
 1549              	.LBE328:
 1550              	.LBB329:
 1551              	.LBB330:
 1552              		.loc 2 84 0
ARM GAS  G:\Users\Jaxb\AppData\Local\Temp\ccLceCCb.s 			page 41


 1553 0526 E369     		ldr	r3, [r4, #28]
 1554              	.LBE330:
 1555              	.LBE329:
 401:../../source/src/user/OS_LIB/malloc.c **** 		}
 402:../../source/src/user/OS_LIB/malloc.c **** 		else
 403:../../source/src/user/OS_LIB/malloc.c **** 		{
 404:../../source/src/user/OS_LIB/malloc.c **** 			ka_printf("chain slabs_partial is empty\n");
 405:../../source/src/user/OS_LIB/malloc.c **** 		}
 406:../../source/src/user/OS_LIB/malloc.c **** 		if(!list_empty(&kmem_cache_ptr->slabs_empty))
 1556              		.loc 1 406 0
 1557 0528 04F11C02 		add	r2, r4, #28
 1558 052c 9A42     		cmp	r2, r3
 1559 052e 12D0     		beq	.L128
 1560              	.LBB331:
 407:../../source/src/user/OS_LIB/malloc.c **** 		{
 408:../../source/src/user/OS_LIB/malloc.c **** 			struct list_head *buffer;
 409:../../source/src/user/OS_LIB/malloc.c **** 			int num = 0;
 1561              		.loc 1 409 0
 1562 0530 0021     		movs	r1, #0
 1563              	.L129:
 1564              	.LVL205:
 410:../../source/src/user/OS_LIB/malloc.c **** 			list_for_each(buffer,&kmem_cache_ptr->slabs_empty)
 1565              		.loc 1 410 0 discriminator 3
 1566 0532 1B68     		ldr	r3, [r3]
 1567              	.LVL206:
 411:../../source/src/user/OS_LIB/malloc.c **** 			{
 412:../../source/src/user/OS_LIB/malloc.c **** 				++num;
 1568              		.loc 1 412 0 discriminator 3
 1569 0534 0131     		adds	r1, r1, #1
 1570              	.LVL207:
 410:../../source/src/user/OS_LIB/malloc.c **** 			list_for_each(buffer,&kmem_cache_ptr->slabs_empty)
 1571              		.loc 1 410 0 discriminator 3
 1572 0536 9A42     		cmp	r2, r3
 1573 0538 FBD1     		bne	.L129
 413:../../source/src/user/OS_LIB/malloc.c **** 			}
 414:../../source/src/user/OS_LIB/malloc.c **** 			ka_printf("chain slabs_empty has %d slab\n",num);
 1574              		.loc 1 414 0
 1575 053a 1348     		ldr	r0, .L137+16
 1576 053c FFF7FEFF 		bl	ka_printf
 1577              	.LVL208:
 1578              	.L130:
 1579              	.LBE331:
 415:../../source/src/user/OS_LIB/malloc.c **** 		}
 416:../../source/src/user/OS_LIB/malloc.c **** 		else
 417:../../source/src/user/OS_LIB/malloc.c **** 		{
 418:../../source/src/user/OS_LIB/malloc.c **** 			ka_printf("chain slabs_empty is empty\n");
 419:../../source/src/user/OS_LIB/malloc.c **** 		}
 420:../../source/src/user/OS_LIB/malloc.c **** 		ka_printf("\n");
 1580              		.loc 1 420 0 discriminator 2
 1581 0540 1248     		ldr	r0, .L137+20
 1582 0542 FFF7FEFF 		bl	ka_printf
 1583              	.LVL209:
 372:../../source/src/user/OS_LIB/malloc.c **** 	{
 1584              		.loc 1 372 0 discriminator 2
 1585 0546 2468     		ldr	r4, [r4]
 1586              	.LVL210:
 1587 0548 B442     		cmp	r4, r6
ARM GAS  G:\Users\Jaxb\AppData\Local\Temp\ccLceCCb.s 			page 42


 1588 054a C9D1     		bne	.L131
 1589              	.LVL211:
 1590              	.L121:
 421:../../source/src/user/OS_LIB/malloc.c **** 	}
 422:../../source/src/user/OS_LIB/malloc.c **** 	CPU_CRITICAL_EXIT();
 1591              		.loc 1 422 0
 1592 054c 5046     		mov	r0, r10
 423:../../source/src/user/OS_LIB/malloc.c **** }
 1593              		.loc 1 423 0
 1594 054e BDE8F047 		pop	{r4, r5, r6, r7, r8, r9, r10, lr}
 1595              	.LCFI13:
 1596              		.cfi_remember_state
 1597              		.cfi_restore 14
 1598              		.cfi_restore 10
 1599              		.cfi_restore 9
 1600              		.cfi_restore 8
 1601              		.cfi_restore 7
 1602              		.cfi_restore 6
 1603              		.cfi_restore 5
 1604              		.cfi_restore 4
 1605              		.cfi_def_cfa_offset 0
 1606              	.LVL212:
 422:../../source/src/user/OS_LIB/malloc.c **** }
 1607              		.loc 1 422 0
 1608 0552 FFF7FEBF 		b	CPU_SR_Restore
 1609              	.LVL213:
 1610              	.L128:
 1611              	.LCFI14:
 1612              		.cfi_restore_state
 418:../../source/src/user/OS_LIB/malloc.c **** 		}
 1613              		.loc 1 418 0
 1614 0556 0E48     		ldr	r0, .L137+24
 1615 0558 FFF7FEFF 		bl	ka_printf
 1616              	.LVL214:
 1617 055c F0E7     		b	.L130
 1618              	.L122:
 390:../../source/src/user/OS_LIB/malloc.c **** 		}
 1619              		.loc 1 390 0
 1620 055e 4846     		mov	r0, r9
 1621 0560 FFF7FEFF 		bl	ka_printf
 1622              	.LVL215:
 1623              	.LBB332:
 1624              	.LBB327:
 1625              		.loc 2 84 0
 1626 0564 6369     		ldr	r3, [r4, #20]
 1627              	.LBE327:
 1628              	.LBE332:
 392:../../source/src/user/OS_LIB/malloc.c **** 		{
 1629              		.loc 1 392 0
 1630 0566 04F11402 		add	r2, r4, #20
 1631 056a 9A42     		cmp	r2, r3
 1632 056c D3D1     		bne	.L136
 1633              	.L125:
 404:../../source/src/user/OS_LIB/malloc.c **** 		}
 1634              		.loc 1 404 0
 1635 056e 0948     		ldr	r0, .L137+28
 1636 0570 FFF7FEFF 		bl	ka_printf
ARM GAS  G:\Users\Jaxb\AppData\Local\Temp\ccLceCCb.s 			page 43


 1637              	.LVL216:
 1638 0574 D7E7     		b	.L127
 1639              	.L138:
 1640 0576 00BF     		.align	2
 1641              	.L137:
 1642 0578 00000000 		.word	.LANCHOR0
 1643 057c F4000000 		.word	.LC9
 1644 0580 18010000 		.word	.LC10
 1645 0584 54010000 		.word	.LC12
 1646 0588 98010000 		.word	.LC14
 1647 058c D4010000 		.word	.LC16
 1648 0590 B8010000 		.word	.LC15
 1649 0594 78010000 		.word	.LC13
 1650 0598 CC000000 		.word	.LC8
 1651 059c 38010000 		.word	.LC11
 1652              		.cfi_endproc
 1653              	.LFE24:
 1654              		.size	shell_check_kmem, .-shell_check_kmem
 1655              		.align	1
 1656              		.p2align 2,,3
 1657              		.global	shell_check_slab
 1658              		.syntax unified
 1659              		.thumb
 1660              		.thumb_func
 1661              		.fpu softvfp
 1662              		.type	shell_check_slab, %function
 1663              	shell_check_slab:
 1664              	.LFB25:
 424:../../source/src/user/OS_LIB/malloc.c **** #endif
 425:../../source/src/user/OS_LIB/malloc.c **** 
 426:../../source/src/user/OS_LIB/malloc.c **** #if CONFIG_SHELL_EN
 427:../../source/src/user/OS_LIB/malloc.c **** void shell_check_slab(int argc, char const *argv[])
 428:../../source/src/user/OS_LIB/malloc.c **** {
 1665              		.loc 1 428 0
 1666              		.cfi_startproc
 1667              		@ args = 0, pretend = 0, frame = 16
 1668              		@ frame_needed = 0, uses_anonymous_args = 0
 1669              	.LVL217:
 429:../../source/src/user/OS_LIB/malloc.c **** 	(void)argc;
 430:../../source/src/user/OS_LIB/malloc.c **** 	(void)argv;
 431:../../source/src/user/OS_LIB/malloc.c **** 	struct list_head *pos;
 432:../../source/src/user/OS_LIB/malloc.c **** 	IL *IL_ptr;
 433:../../source/src/user/OS_LIB/malloc.c **** 	struct kmem_cache *kmem_cache_ptr;
 434:../../source/src/user/OS_LIB/malloc.c **** 	int i = 0;
 435:../../source/src/user/OS_LIB/malloc.c **** 	struct slab *slab_ptr;
 436:../../source/src/user/OS_LIB/malloc.c **** 	CPU_SR_ALLOC();
 437:../../source/src/user/OS_LIB/malloc.c **** 	CPU_CRITICAL_ENTER();
 438:../../source/src/user/OS_LIB/malloc.c **** 	list_for_each(pos,&cache_chain_head)
 1670              		.loc 1 438 0
 1671 05a0 794B     		ldr	r3, .L161
 428:../../source/src/user/OS_LIB/malloc.c **** 	(void)argc;
 1672              		.loc 1 428 0
 1673 05a2 2DE9F04F 		push	{r4, r5, r6, r7, r8, r9, r10, fp, lr}
 1674              	.LCFI15:
 1675              		.cfi_def_cfa_offset 36
 1676              		.cfi_offset 4, -36
 1677              		.cfi_offset 5, -32
ARM GAS  G:\Users\Jaxb\AppData\Local\Temp\ccLceCCb.s 			page 44


 1678              		.cfi_offset 6, -28
 1679              		.cfi_offset 7, -24
 1680              		.cfi_offset 8, -20
 1681              		.cfi_offset 9, -16
 1682              		.cfi_offset 10, -12
 1683              		.cfi_offset 11, -8
 1684              		.cfi_offset 14, -4
 1685              		.loc 1 438 0
 1686 05a6 1C46     		mov	r4, r3
 428:../../source/src/user/OS_LIB/malloc.c **** 	(void)argc;
 1687              		.loc 1 428 0
 1688 05a8 85B0     		sub	sp, sp, #20
 1689              	.LCFI16:
 1690              		.cfi_def_cfa_offset 56
 437:../../source/src/user/OS_LIB/malloc.c **** 	list_for_each(pos,&cache_chain_head)
 1691              		.loc 1 437 0
 1692 05aa FFF7FEFF 		bl	CPU_SR_Save
 1693              	.LVL218:
 1694              		.loc 1 438 0
 1695 05ae 2346     		mov	r3, r4
 1696 05b0 53F8046F 		ldr	r6, [r3, #4]!
 437:../../source/src/user/OS_LIB/malloc.c **** 	list_for_each(pos,&cache_chain_head)
 1697              		.loc 1 437 0
 1698 05b4 0390     		str	r0, [sp, #12]
 1699              	.LVL219:
 1700              		.loc 1 438 0
 1701 05b6 9E42     		cmp	r6, r3
 1702 05b8 0293     		str	r3, [sp, #8]
 1703              	.LVL220:
 1704 05ba 00F0D280 		beq	.L140
 434:../../source/src/user/OS_LIB/malloc.c **** 	struct slab *slab_ptr;
 1705              		.loc 1 434 0
 1706 05be 0023     		movs	r3, #0
 1707              	.LBB333:
 439:../../source/src/user/OS_LIB/malloc.c **** 	{
 440:../../source/src/user/OS_LIB/malloc.c **** 		ka_printf("===========get NO.%d kmem===========\n",++i);
 441:../../source/src/user/OS_LIB/malloc.c **** 		IL_ptr = list_entry(pos,IL,insert);
 442:../../source/src/user/OS_LIB/malloc.c **** 		ka_printf("the size of this kmem_cache is %l\n",IL_ptr->prio);
 443:../../source/src/user/OS_LIB/malloc.c **** 		kmem_cache_ptr = list_entry(IL_ptr,struct kmem_cache,kmem_cache_insert_chain);
 444:../../source/src/user/OS_LIB/malloc.c **** 		if(!list_empty(&kmem_cache_ptr->slabs_full))
 445:../../source/src/user/OS_LIB/malloc.c **** 		{
 446:../../source/src/user/OS_LIB/malloc.c **** 			struct list_head *buffer;
 447:../../source/src/user/OS_LIB/malloc.c **** 			int num = 0;
 448:../../source/src/user/OS_LIB/malloc.c **** 			ka_printf("in chain slabs_full\n");
 449:../../source/src/user/OS_LIB/malloc.c **** 			list_for_each(buffer,&kmem_cache_ptr->slabs_full)
 450:../../source/src/user/OS_LIB/malloc.c **** 			{
 451:../../source/src/user/OS_LIB/malloc.c **** 				ka_printf("the NO.%d slab information:\n",++num);
 452:../../source/src/user/OS_LIB/malloc.c **** 				slab_ptr = list_entry(buffer,struct slab,slab_chain);
 453:../../source/src/user/OS_LIB/malloc.c **** 				ka_printf("start_ptr is %x\n",(int)slab_ptr->start_ptr);
 454:../../source/src/user/OS_LIB/malloc.c **** 				ka_printf("end_ptr is %x\n",(int)slab_ptr->end_ptr);
 455:../../source/src/user/OS_LIB/malloc.c **** 				ka_printf("current_block_num is %d\n",slab_ptr->current_block_num);
 456:../../source/src/user/OS_LIB/malloc.c **** 				ka_printf("full_block_num is %d\n",slab_ptr->full_block_num);
 457:../../source/src/user/OS_LIB/malloc.c **** 				ka_printf("block_size is %d\n",slab_ptr->block_size);
 458:../../source/src/user/OS_LIB/malloc.c **** 				ka_printf("\n");
 1708              		.loc 1 458 0
 1709 05c0 724D     		ldr	r5, .L161+4
 1710              	.LBE333:
ARM GAS  G:\Users\Jaxb\AppData\Local\Temp\ccLceCCb.s 			page 45


 434:../../source/src/user/OS_LIB/malloc.c **** 	struct slab *slab_ptr;
 1711              		.loc 1 434 0
 1712 05c2 0193     		str	r3, [sp, #4]
 1713              	.LVL221:
 1714              	.L153:
 440:../../source/src/user/OS_LIB/malloc.c **** 		IL_ptr = list_entry(pos,IL,insert);
 1715              		.loc 1 440 0
 1716 05c4 019B     		ldr	r3, [sp, #4]
 1717 05c6 7248     		ldr	r0, .L161+8
 1718 05c8 0133     		adds	r3, r3, #1
 1719 05ca 1946     		mov	r1, r3
 1720 05cc 0193     		str	r3, [sp, #4]
 1721              	.LVL222:
 1722 05ce FFF7FEFF 		bl	ka_printf
 1723              	.LVL223:
 442:../../source/src/user/OS_LIB/malloc.c **** 		kmem_cache_ptr = list_entry(IL_ptr,struct kmem_cache,kmem_cache_insert_chain);
 1724              		.loc 1 442 0
 1725 05d2 B168     		ldr	r1, [r6, #8]
 1726 05d4 6F48     		ldr	r0, .L161+12
 1727 05d6 FFF7FEFF 		bl	ka_printf
 1728              	.LVL224:
 444:../../source/src/user/OS_LIB/malloc.c **** 		{
 1729              		.loc 1 444 0
 1730 05da F368     		ldr	r3, [r6, #12]
 1731 05dc 06F10C07 		add	r7, r6, #12
 1732 05e0 9F42     		cmp	r7, r3
 1733 05e2 00F0C880 		beq	.L141
 1734              	.LVL225:
 1735              	.LBB334:
 448:../../source/src/user/OS_LIB/malloc.c **** 			list_for_each(buffer,&kmem_cache_ptr->slabs_full)
 1736              		.loc 1 448 0
 1737 05e6 6C48     		ldr	r0, .L161+16
 1738 05e8 FFF7FEFF 		bl	ka_printf
 1739              	.LVL226:
 449:../../source/src/user/OS_LIB/malloc.c **** 			{
 1740              		.loc 1 449 0
 1741 05ec F468     		ldr	r4, [r6, #12]
 1742              	.LVL227:
 447:../../source/src/user/OS_LIB/malloc.c **** 			ka_printf("in chain slabs_full\n");
 1743              		.loc 1 447 0
 1744 05ee 4FF00008 		mov	r8, #0
 449:../../source/src/user/OS_LIB/malloc.c **** 			{
 1745              		.loc 1 449 0
 1746 05f2 A742     		cmp	r7, r4
 1747 05f4 2AD0     		beq	.L142
 451:../../source/src/user/OS_LIB/malloc.c **** 				slab_ptr = list_entry(buffer,struct slab,slab_chain);
 1748              		.loc 1 451 0
 1749 05f6 DFF8D0B1 		ldr	fp, .L161+64
 453:../../source/src/user/OS_LIB/malloc.c **** 				ka_printf("end_ptr is %x\n",(int)slab_ptr->end_ptr);
 1750              		.loc 1 453 0
 1751 05fa DFF8D0A1 		ldr	r10, .L161+68
 454:../../source/src/user/OS_LIB/malloc.c **** 				ka_printf("current_block_num is %d\n",slab_ptr->current_block_num);
 1752              		.loc 1 454 0
 1753 05fe DFF8D091 		ldr	r9, .L161+72
 1754              	.LVL228:
 1755              	.L143:
 451:../../source/src/user/OS_LIB/malloc.c **** 				slab_ptr = list_entry(buffer,struct slab,slab_chain);
ARM GAS  G:\Users\Jaxb\AppData\Local\Temp\ccLceCCb.s 			page 46


 1756              		.loc 1 451 0 discriminator 3
 1757 0602 08F10108 		add	r8, r8, #1
 1758              	.LVL229:
 1759 0606 4146     		mov	r1, r8
 1760 0608 5846     		mov	r0, fp
 1761 060a FFF7FEFF 		bl	ka_printf
 1762              	.LVL230:
 453:../../source/src/user/OS_LIB/malloc.c **** 				ka_printf("end_ptr is %x\n",(int)slab_ptr->end_ptr);
 1763              		.loc 1 453 0 discriminator 3
 1764 060e 54F8141C 		ldr	r1, [r4, #-20]
 1765 0612 5046     		mov	r0, r10
 1766 0614 FFF7FEFF 		bl	ka_printf
 1767              	.LVL231:
 454:../../source/src/user/OS_LIB/malloc.c **** 				ka_printf("current_block_num is %d\n",slab_ptr->current_block_num);
 1768              		.loc 1 454 0 discriminator 3
 1769 0618 54F8101C 		ldr	r1, [r4, #-16]
 1770 061c 4846     		mov	r0, r9
 1771 061e FFF7FEFF 		bl	ka_printf
 1772              	.LVL232:
 455:../../source/src/user/OS_LIB/malloc.c **** 				ka_printf("full_block_num is %d\n",slab_ptr->full_block_num);
 1773              		.loc 1 455 0 discriminator 3
 1774 0622 54F80C1C 		ldr	r1, [r4, #-12]
 1775 0626 5D48     		ldr	r0, .L161+20
 1776 0628 FFF7FEFF 		bl	ka_printf
 1777              	.LVL233:
 456:../../source/src/user/OS_LIB/malloc.c **** 				ka_printf("block_size is %d\n",slab_ptr->block_size);
 1778              		.loc 1 456 0 discriminator 3
 1779 062c 54F8081C 		ldr	r1, [r4, #-8]
 1780 0630 5B48     		ldr	r0, .L161+24
 1781 0632 FFF7FEFF 		bl	ka_printf
 1782              	.LVL234:
 457:../../source/src/user/OS_LIB/malloc.c **** 				ka_printf("\n");
 1783              		.loc 1 457 0 discriminator 3
 1784 0636 54F8041C 		ldr	r1, [r4, #-4]
 1785 063a 5A48     		ldr	r0, .L161+28
 1786 063c FFF7FEFF 		bl	ka_printf
 1787              	.LVL235:
 1788              		.loc 1 458 0 discriminator 3
 1789 0640 2846     		mov	r0, r5
 1790 0642 FFF7FEFF 		bl	ka_printf
 1791              	.LVL236:
 449:../../source/src/user/OS_LIB/malloc.c **** 			{
 1792              		.loc 1 449 0 discriminator 3
 1793 0646 2468     		ldr	r4, [r4]
 1794              	.LVL237:
 1795 0648 A742     		cmp	r7, r4
 1796 064a DAD1     		bne	.L143
 1797              	.LVL238:
 1798              	.L142:
 459:../../source/src/user/OS_LIB/malloc.c **** 			}
 460:../../source/src/user/OS_LIB/malloc.c **** 			ka_printf("chain slabs_full has %d slab\n",num);
 1799              		.loc 1 460 0
 1800 064c 4146     		mov	r1, r8
 1801 064e 5648     		ldr	r0, .L161+32
 1802 0650 FFF7FEFF 		bl	ka_printf
 1803              	.LVL239:
 1804              	.L144:
ARM GAS  G:\Users\Jaxb\AppData\Local\Temp\ccLceCCb.s 			page 47


 1805              	.LBE334:
 461:../../source/src/user/OS_LIB/malloc.c **** 		}
 462:../../source/src/user/OS_LIB/malloc.c **** 		else
 463:../../source/src/user/OS_LIB/malloc.c **** 		{
 464:../../source/src/user/OS_LIB/malloc.c **** 			ka_printf("chain slabs_full is empty\n");
 465:../../source/src/user/OS_LIB/malloc.c **** 		}
 466:../../source/src/user/OS_LIB/malloc.c **** 		ka_printf("\n");
 1806              		.loc 1 466 0
 1807 0654 2846     		mov	r0, r5
 1808 0656 FFF7FEFF 		bl	ka_printf
 1809              	.LVL240:
 467:../../source/src/user/OS_LIB/malloc.c **** 		if(!list_empty(&kmem_cache_ptr->slabs_partial))
 1810              		.loc 1 467 0
 1811 065a 7369     		ldr	r3, [r6, #20]
 1812 065c 06F11407 		add	r7, r6, #20
 1813 0660 9F42     		cmp	r7, r3
 1814 0662 00F08C80 		beq	.L145
 1815              	.LVL241:
 1816              	.LBB335:
 468:../../source/src/user/OS_LIB/malloc.c **** 		{
 469:../../source/src/user/OS_LIB/malloc.c **** 			struct list_head *buffer;
 470:../../source/src/user/OS_LIB/malloc.c **** 			int num = 0;
 471:../../source/src/user/OS_LIB/malloc.c **** 			ka_printf("in chain slabs_partial\n");
 1817              		.loc 1 471 0
 1818 0666 5148     		ldr	r0, .L161+36
 1819 0668 FFF7FEFF 		bl	ka_printf
 1820              	.LVL242:
 472:../../source/src/user/OS_LIB/malloc.c **** 			list_for_each(buffer,&kmem_cache_ptr->slabs_partial)
 1821              		.loc 1 472 0
 1822 066c 7469     		ldr	r4, [r6, #20]
 1823              	.LVL243:
 470:../../source/src/user/OS_LIB/malloc.c **** 			ka_printf("in chain slabs_partial\n");
 1824              		.loc 1 470 0
 1825 066e 4FF00008 		mov	r8, #0
 1826              		.loc 1 472 0
 1827 0672 A742     		cmp	r7, r4
 1828 0674 2AD0     		beq	.L146
 473:../../source/src/user/OS_LIB/malloc.c **** 			{
 474:../../source/src/user/OS_LIB/malloc.c **** 				ka_printf("the NO.%d slab information:\n",++num);
 1829              		.loc 1 474 0
 1830 0676 DFF850B1 		ldr	fp, .L161+64
 475:../../source/src/user/OS_LIB/malloc.c **** 				slab_ptr = list_entry(buffer,struct slab,slab_chain);
 476:../../source/src/user/OS_LIB/malloc.c **** 				ka_printf("start_ptr is %x\n",(int)slab_ptr->start_ptr);
 1831              		.loc 1 476 0
 1832 067a DFF850A1 		ldr	r10, .L161+68
 477:../../source/src/user/OS_LIB/malloc.c **** 				ka_printf("end_ptr is %x\n",(int)slab_ptr->end_ptr);
 1833              		.loc 1 477 0
 1834 067e DFF85091 		ldr	r9, .L161+72
 1835              	.LVL244:
 1836              	.L147:
 474:../../source/src/user/OS_LIB/malloc.c **** 				slab_ptr = list_entry(buffer,struct slab,slab_chain);
 1837              		.loc 1 474 0 discriminator 3
 1838 0682 08F10108 		add	r8, r8, #1
 1839              	.LVL245:
 1840 0686 4146     		mov	r1, r8
 1841 0688 5846     		mov	r0, fp
 1842 068a FFF7FEFF 		bl	ka_printf
ARM GAS  G:\Users\Jaxb\AppData\Local\Temp\ccLceCCb.s 			page 48


 1843              	.LVL246:
 476:../../source/src/user/OS_LIB/malloc.c **** 				ka_printf("end_ptr is %x\n",(int)slab_ptr->end_ptr);
 1844              		.loc 1 476 0 discriminator 3
 1845 068e 54F8141C 		ldr	r1, [r4, #-20]
 1846 0692 5046     		mov	r0, r10
 1847 0694 FFF7FEFF 		bl	ka_printf
 1848              	.LVL247:
 1849              		.loc 1 477 0 discriminator 3
 1850 0698 54F8101C 		ldr	r1, [r4, #-16]
 1851 069c 4846     		mov	r0, r9
 1852 069e FFF7FEFF 		bl	ka_printf
 1853              	.LVL248:
 478:../../source/src/user/OS_LIB/malloc.c **** 				ka_printf("current_block_num is %d\n",slab_ptr->current_block_num);
 1854              		.loc 1 478 0 discriminator 3
 1855 06a2 54F80C1C 		ldr	r1, [r4, #-12]
 1856 06a6 3D48     		ldr	r0, .L161+20
 1857 06a8 FFF7FEFF 		bl	ka_printf
 1858              	.LVL249:
 479:../../source/src/user/OS_LIB/malloc.c **** 				ka_printf("full_block_num is %d\n",slab_ptr->full_block_num);
 1859              		.loc 1 479 0 discriminator 3
 1860 06ac 54F8081C 		ldr	r1, [r4, #-8]
 1861 06b0 3B48     		ldr	r0, .L161+24
 1862 06b2 FFF7FEFF 		bl	ka_printf
 1863              	.LVL250:
 480:../../source/src/user/OS_LIB/malloc.c **** 				ka_printf("block_size is %d\n",slab_ptr->block_size);
 1864              		.loc 1 480 0 discriminator 3
 1865 06b6 54F8041C 		ldr	r1, [r4, #-4]
 1866 06ba 3A48     		ldr	r0, .L161+28
 1867 06bc FFF7FEFF 		bl	ka_printf
 1868              	.LVL251:
 481:../../source/src/user/OS_LIB/malloc.c **** 				ka_printf("\n");
 1869              		.loc 1 481 0 discriminator 3
 1870 06c0 2846     		mov	r0, r5
 1871 06c2 FFF7FEFF 		bl	ka_printf
 1872              	.LVL252:
 472:../../source/src/user/OS_LIB/malloc.c **** 			{
 1873              		.loc 1 472 0 discriminator 3
 1874 06c6 2468     		ldr	r4, [r4]
 1875              	.LVL253:
 1876 06c8 A742     		cmp	r7, r4
 1877 06ca DAD1     		bne	.L147
 1878              	.LVL254:
 1879              	.L146:
 482:../../source/src/user/OS_LIB/malloc.c **** 			}
 483:../../source/src/user/OS_LIB/malloc.c **** 			ka_printf("chain slabs_partial has %d slab\n",num);
 1880              		.loc 1 483 0
 1881 06cc 4146     		mov	r1, r8
 1882 06ce 3848     		ldr	r0, .L161+40
 1883 06d0 FFF7FEFF 		bl	ka_printf
 1884              	.LVL255:
 1885              	.L148:
 1886              	.LBE335:
 484:../../source/src/user/OS_LIB/malloc.c **** 		}
 485:../../source/src/user/OS_LIB/malloc.c **** 		else
 486:../../source/src/user/OS_LIB/malloc.c **** 		{
 487:../../source/src/user/OS_LIB/malloc.c **** 			ka_printf("chain slabs_partial is empty\n");
 488:../../source/src/user/OS_LIB/malloc.c **** 		}
ARM GAS  G:\Users\Jaxb\AppData\Local\Temp\ccLceCCb.s 			page 49


 489:../../source/src/user/OS_LIB/malloc.c **** 		ka_printf("\n");
 1887              		.loc 1 489 0
 1888 06d4 2846     		mov	r0, r5
 1889 06d6 FFF7FEFF 		bl	ka_printf
 1890              	.LVL256:
 490:../../source/src/user/OS_LIB/malloc.c **** 		if(!list_empty(&kmem_cache_ptr->slabs_empty))
 1891              		.loc 1 490 0
 1892 06da F369     		ldr	r3, [r6, #28]
 1893 06dc 06F11C07 		add	r7, r6, #28
 1894 06e0 9F42     		cmp	r7, r3
 1895 06e2 44D0     		beq	.L149
 1896              	.LVL257:
 1897              	.LBB336:
 491:../../source/src/user/OS_LIB/malloc.c **** 		{
 492:../../source/src/user/OS_LIB/malloc.c **** 			struct list_head *buffer;
 493:../../source/src/user/OS_LIB/malloc.c **** 			int num = 0;
 494:../../source/src/user/OS_LIB/malloc.c **** 			ka_printf("in chain slabs_empty\n");
 1898              		.loc 1 494 0
 1899 06e4 3348     		ldr	r0, .L161+44
 1900 06e6 FFF7FEFF 		bl	ka_printf
 1901              	.LVL258:
 495:../../source/src/user/OS_LIB/malloc.c **** 			list_for_each(buffer,&kmem_cache_ptr->slabs_empty)
 1902              		.loc 1 495 0
 1903 06ea F469     		ldr	r4, [r6, #28]
 1904              	.LVL259:
 493:../../source/src/user/OS_LIB/malloc.c **** 			ka_printf("in chain slabs_empty\n");
 1905              		.loc 1 493 0
 1906 06ec 4FF00008 		mov	r8, #0
 1907              		.loc 1 495 0
 1908 06f0 A742     		cmp	r7, r4
 1909 06f2 2AD0     		beq	.L150
 496:../../source/src/user/OS_LIB/malloc.c **** 			{
 497:../../source/src/user/OS_LIB/malloc.c **** 				ka_printf("the NO.%d slab information:\n",++num);
 1910              		.loc 1 497 0
 1911 06f4 DFF8D0B0 		ldr	fp, .L161+64
 498:../../source/src/user/OS_LIB/malloc.c **** 				slab_ptr = list_entry(buffer,struct slab,slab_chain);
 499:../../source/src/user/OS_LIB/malloc.c **** 				ka_printf("start_ptr is %x\n",(int)slab_ptr->start_ptr);
 1912              		.loc 1 499 0
 1913 06f8 DFF8D0A0 		ldr	r10, .L161+68
 500:../../source/src/user/OS_LIB/malloc.c **** 				ka_printf("end_ptr is %x\n",(int)slab_ptr->end_ptr);
 1914              		.loc 1 500 0
 1915 06fc DFF8D090 		ldr	r9, .L161+72
 1916              	.LVL260:
 1917              	.L151:
 497:../../source/src/user/OS_LIB/malloc.c **** 				slab_ptr = list_entry(buffer,struct slab,slab_chain);
 1918              		.loc 1 497 0 discriminator 3
 1919 0700 08F10108 		add	r8, r8, #1
 1920              	.LVL261:
 1921 0704 4146     		mov	r1, r8
 1922 0706 5846     		mov	r0, fp
 1923 0708 FFF7FEFF 		bl	ka_printf
 1924              	.LVL262:
 499:../../source/src/user/OS_LIB/malloc.c **** 				ka_printf("end_ptr is %x\n",(int)slab_ptr->end_ptr);
 1925              		.loc 1 499 0 discriminator 3
 1926 070c 54F8141C 		ldr	r1, [r4, #-20]
 1927 0710 5046     		mov	r0, r10
 1928 0712 FFF7FEFF 		bl	ka_printf
ARM GAS  G:\Users\Jaxb\AppData\Local\Temp\ccLceCCb.s 			page 50


 1929              	.LVL263:
 1930              		.loc 1 500 0 discriminator 3
 1931 0716 54F8101C 		ldr	r1, [r4, #-16]
 1932 071a 4846     		mov	r0, r9
 1933 071c FFF7FEFF 		bl	ka_printf
 1934              	.LVL264:
 501:../../source/src/user/OS_LIB/malloc.c **** 				ka_printf("current_block_num is %d\n",slab_ptr->current_block_num);
 1935              		.loc 1 501 0 discriminator 3
 1936 0720 54F80C1C 		ldr	r1, [r4, #-12]
 1937 0724 1D48     		ldr	r0, .L161+20
 1938 0726 FFF7FEFF 		bl	ka_printf
 1939              	.LVL265:
 502:../../source/src/user/OS_LIB/malloc.c **** 				ka_printf("full_block_num is %d\n",slab_ptr->full_block_num);
 1940              		.loc 1 502 0 discriminator 3
 1941 072a 54F8081C 		ldr	r1, [r4, #-8]
 1942 072e 1C48     		ldr	r0, .L161+24
 1943 0730 FFF7FEFF 		bl	ka_printf
 1944              	.LVL266:
 503:../../source/src/user/OS_LIB/malloc.c **** 				ka_printf("block_size is %d\n",slab_ptr->block_size);
 1945              		.loc 1 503 0 discriminator 3
 1946 0734 54F8041C 		ldr	r1, [r4, #-4]
 1947 0738 1A48     		ldr	r0, .L161+28
 1948 073a FFF7FEFF 		bl	ka_printf
 1949              	.LVL267:
 504:../../source/src/user/OS_LIB/malloc.c **** 				ka_printf("\n");
 1950              		.loc 1 504 0 discriminator 3
 1951 073e 2846     		mov	r0, r5
 1952 0740 FFF7FEFF 		bl	ka_printf
 1953              	.LVL268:
 495:../../source/src/user/OS_LIB/malloc.c **** 			{
 1954              		.loc 1 495 0 discriminator 3
 1955 0744 2468     		ldr	r4, [r4]
 1956              	.LVL269:
 1957 0746 A742     		cmp	r7, r4
 1958 0748 DAD1     		bne	.L151
 1959              	.LVL270:
 1960              	.L150:
 505:../../source/src/user/OS_LIB/malloc.c **** 			}
 506:../../source/src/user/OS_LIB/malloc.c **** 			ka_printf("chain slabs_empty has %d slab\n",num);
 1961              		.loc 1 506 0
 1962 074a 4146     		mov	r1, r8
 1963 074c 1A48     		ldr	r0, .L161+48
 1964 074e FFF7FEFF 		bl	ka_printf
 1965              	.LVL271:
 1966              	.L152:
 1967              	.LBE336:
 507:../../source/src/user/OS_LIB/malloc.c **** 		}
 508:../../source/src/user/OS_LIB/malloc.c **** 		else
 509:../../source/src/user/OS_LIB/malloc.c **** 		{
 510:../../source/src/user/OS_LIB/malloc.c **** 			ka_printf("chain slabs_empty is empty\n");
 511:../../source/src/user/OS_LIB/malloc.c **** 		}
 512:../../source/src/user/OS_LIB/malloc.c **** 		ka_printf("\n");
 1968              		.loc 1 512 0 discriminator 2
 1969 0752 2846     		mov	r0, r5
 1970 0754 FFF7FEFF 		bl	ka_printf
 1971              	.LVL272:
 438:../../source/src/user/OS_LIB/malloc.c **** 	{
ARM GAS  G:\Users\Jaxb\AppData\Local\Temp\ccLceCCb.s 			page 51


 1972              		.loc 1 438 0 discriminator 2
 1973 0758 3668     		ldr	r6, [r6]
 1974              	.LVL273:
 1975 075a 029B     		ldr	r3, [sp, #8]
 1976 075c 9E42     		cmp	r6, r3
 1977 075e 7FF431AF 		bne	.L153
 1978              	.LVL274:
 1979              	.L140:
 513:../../source/src/user/OS_LIB/malloc.c **** 	}
 514:../../source/src/user/OS_LIB/malloc.c **** 	CPU_CRITICAL_EXIT();
 1980              		.loc 1 514 0
 1981 0762 0398     		ldr	r0, [sp, #12]
 515:../../source/src/user/OS_LIB/malloc.c **** }
 1982              		.loc 1 515 0
 1983 0764 05B0     		add	sp, sp, #20
 1984              	.LCFI17:
 1985              		.cfi_remember_state
 1986              		.cfi_def_cfa_offset 36
 1987              		@ sp needed
 1988 0766 BDE8F04F 		pop	{r4, r5, r6, r7, r8, r9, r10, fp, lr}
 1989              	.LCFI18:
 1990              		.cfi_restore 14
 1991              		.cfi_restore 11
 1992              		.cfi_restore 10
 1993              		.cfi_restore 9
 1994              		.cfi_restore 8
 1995              		.cfi_restore 7
 1996              		.cfi_restore 6
 1997              		.cfi_restore 5
 1998              		.cfi_restore 4
 1999              		.cfi_def_cfa_offset 0
 2000              	.LVL275:
 514:../../source/src/user/OS_LIB/malloc.c **** }
 2001              		.loc 1 514 0
 2002 076a FFF7FEBF 		b	CPU_SR_Restore
 2003              	.LVL276:
 2004              	.L149:
 2005              	.LCFI19:
 2006              		.cfi_restore_state
 510:../../source/src/user/OS_LIB/malloc.c **** 		}
 2007              		.loc 1 510 0
 2008 076e 1348     		ldr	r0, .L161+52
 2009 0770 FFF7FEFF 		bl	ka_printf
 2010              	.LVL277:
 2011 0774 EDE7     		b	.L152
 2012              	.L141:
 464:../../source/src/user/OS_LIB/malloc.c **** 		}
 2013              		.loc 1 464 0
 2014 0776 1248     		ldr	r0, .L161+56
 2015 0778 FFF7FEFF 		bl	ka_printf
 2016              	.LVL278:
 2017 077c 6AE7     		b	.L144
 2018              	.L145:
 487:../../source/src/user/OS_LIB/malloc.c **** 		}
 2019              		.loc 1 487 0
 2020 077e 1148     		ldr	r0, .L161+60
 2021 0780 FFF7FEFF 		bl	ka_printf
ARM GAS  G:\Users\Jaxb\AppData\Local\Temp\ccLceCCb.s 			page 52


 2022              	.LVL279:
 2023 0784 A6E7     		b	.L148
 2024              	.L162:
 2025 0786 00BF     		.align	2
 2026              	.L161:
 2027 0788 00000000 		.word	.LANCHOR0
 2028 078c D4010000 		.word	.LC16
 2029 0790 CC000000 		.word	.LC8
 2030 0794 D8010000 		.word	.LC17
 2031 0798 FC010000 		.word	.LC18
 2032 079c 58020000 		.word	.LC22
 2033 07a0 74020000 		.word	.LC23
 2034 07a4 8C020000 		.word	.LC24
 2035 07a8 18010000 		.word	.LC10
 2036 07ac A0020000 		.word	.LC25
 2037 07b0 54010000 		.word	.LC12
 2038 07b4 B8020000 		.word	.LC26
 2039 07b8 98010000 		.word	.LC14
 2040 07bc B8010000 		.word	.LC15
 2041 07c0 38010000 		.word	.LC11
 2042 07c4 78010000 		.word	.LC13
 2043 07c8 14020000 		.word	.LC19
 2044 07cc 34020000 		.word	.LC20
 2045 07d0 48020000 		.word	.LC21
 2046              		.cfi_endproc
 2047              	.LFE25:
 2048              		.size	shell_check_slab, .-shell_check_slab
 2049              		.global	cache_chain_head_ptr
 2050              		.section	.rodata
 2051              		.align	2
 2052              		.type	cache_chain_head_ptr, %object
 2053              		.size	cache_chain_head_ptr, 4
 2054              	cache_chain_head_ptr:
 2055 0000 04000000 		.word	cache_chain_head
 2056              		.bss
 2057              		.align	2
 2058              		.set	.LANCHOR0,. + 0
 2059              		.type	page_alloc_record_head, %object
 2060              		.size	page_alloc_record_head, 4
 2061              	page_alloc_record_head:
 2062 0000 00000000 		.space	4
 2063              		.type	cache_chain_head, %object
 2064              		.size	cache_chain_head, 8
 2065              	cache_chain_head:
 2066 0004 00000000 		.space	8
 2066      00000000 
 2067              		.type	kmem_cache_TCB, %object
 2068              		.size	kmem_cache_TCB, 36
 2069              	kmem_cache_TCB:
 2070 000c 00000000 		.space	36
 2070      00000000 
 2070      00000000 
 2070      00000000 
 2070      00000000 
 2071              		.type	kmem_cache_kmem_cache, %object
 2072              		.size	kmem_cache_kmem_cache, 36
 2073              	kmem_cache_kmem_cache:
ARM GAS  G:\Users\Jaxb\AppData\Local\Temp\ccLceCCb.s 			page 53


 2074 0030 00000000 		.space	36
 2074      00000000 
 2074      00000000 
 2074      00000000 
 2074      00000000 
 2075              		.type	kmem_cache32, %object
 2076              		.size	kmem_cache32, 36
 2077              	kmem_cache32:
 2078 0054 00000000 		.space	36
 2078      00000000 
 2078      00000000 
 2078      00000000 
 2078      00000000 
 2079              		.type	kmem_cache16, %object
 2080              		.size	kmem_cache16, 36
 2081              	kmem_cache16:
 2082 0078 00000000 		.space	36
 2082      00000000 
 2082      00000000 
 2082      00000000 
 2082      00000000 
 2083              		.section	.rodata.str1.4,"aMS",%progbits,1
 2084              		.align	2
 2085              	.LC0:
 2086 0000 2E2E2F2E 		.ascii	"../../source/src/user/OS_LIB/malloc.c\000"
 2086      2E2F736F 
 2086      75726365 
 2086      2F737263 
 2086      2F757365 
 2087 0026 0000     		.space	2
 2088              	.LC1:
 2089 0028 746F6F20 		.ascii	"too big! FATAL ERROR!\012\000"
 2089      62696721 
 2089      20464154 
 2089      414C2045 
 2089      52524F52 
 2090 003f 00       		.space	1
 2091              	.LC2:
 2092 0040 6E6F2073 		.ascii	"no space!!!\012\000"
 2092      70616365 
 2092      2121210A 
 2092      00
 2093 004d 000000   		.space	3
 2094              	.LC3:
 2095 0050 6E756D2E 		.ascii	"num.%u\012\000"
 2095      25750A00 
 2096              	.LC4:
 2097 0058 6C657665 		.ascii	"level is %u\012\000"
 2097      6C206973 
 2097      2025750A 
 2097      00
 2098 0065 000000   		.space	3
 2099              	.LC5:
 2100 0068 61646472 		.ascii	"address is %p\012\000"
 2100      65737320 
 2100      69732025 
 2100      700A00
ARM GAS  G:\Users\Jaxb\AppData\Local\Temp\ccLceCCb.s 			page 54


 2101 0077 00       		.space	1
 2102              	.LC6:
 2103 0078 66617461 		.ascii	"fatal error from add_page_alloc_record()\012\000"
 2103      6C206572 
 2103      726F7220 
 2103      66726F6D 
 2103      20616464 
 2104 00a2 0000     		.space	2
 2105              	.LC7:
 2106 00a4 6E6F7420 		.ascii	"not in a slab or record,fatal error\012\000"
 2106      696E2061 
 2106      20736C61 
 2106      62206F72 
 2106      20726563 
 2107 00c9 000000   		.space	3
 2108              	.LC8:
 2109 00cc 3D3D3D3D 		.ascii	"===========get NO.%d kmem===========\012\000"
 2109      3D3D3D3D 
 2109      3D3D3D67 
 2109      6574204E 
 2109      4F2E2564 
 2110 00f2 0000     		.space	2
 2111              	.LC9:
 2112 00f4 74686520 		.ascii	"the size of this kmem_cache is %u\012\000"
 2112      73697A65 
 2112      206F6620 
 2112      74686973 
 2112      206B6D65 
 2113 0117 00       		.space	1
 2114              	.LC10:
 2115 0118 63686169 		.ascii	"chain slabs_full has %d slab\012\000"
 2115      6E20736C 
 2115      6162735F 
 2115      66756C6C 
 2115      20686173 
 2116 0136 0000     		.space	2
 2117              	.LC11:
 2118 0138 63686169 		.ascii	"chain slabs_full is empty\012\000"
 2118      6E20736C 
 2118      6162735F 
 2118      66756C6C 
 2118      20697320 
 2119 0153 00       		.space	1
 2120              	.LC12:
 2121 0154 63686169 		.ascii	"chain slabs_partial has %d slab\012\000"
 2121      6E20736C 
 2121      6162735F 
 2121      70617274 
 2121      69616C20 
 2122 0175 000000   		.space	3
 2123              	.LC13:
 2124 0178 63686169 		.ascii	"chain slabs_partial is empty\012\000"
 2124      6E20736C 
 2124      6162735F 
 2124      70617274 
 2124      69616C20 
 2125 0196 0000     		.space	2
ARM GAS  G:\Users\Jaxb\AppData\Local\Temp\ccLceCCb.s 			page 55


 2126              	.LC14:
 2127 0198 63686169 		.ascii	"chain slabs_empty has %d slab\012\000"
 2127      6E20736C 
 2127      6162735F 
 2127      656D7074 
 2127      79206861 
 2128 01b7 00       		.space	1
 2129              	.LC15:
 2130 01b8 63686169 		.ascii	"chain slabs_empty is empty\012\000"
 2130      6E20736C 
 2130      6162735F 
 2130      656D7074 
 2130      79206973 
 2131              	.LC16:
 2132 01d4 0A00     		.ascii	"\012\000"
 2133 01d6 0000     		.space	2
 2134              	.LC17:
 2135 01d8 74686520 		.ascii	"the size of this kmem_cache is %l\012\000"
 2135      73697A65 
 2135      206F6620 
 2135      74686973 
 2135      206B6D65 
 2136 01fb 00       		.space	1
 2137              	.LC18:
 2138 01fc 696E2063 		.ascii	"in chain slabs_full\012\000"
 2138      6861696E 
 2138      20736C61 
 2138      62735F66 
 2138      756C6C0A 
 2139 0211 000000   		.space	3
 2140              	.LC19:
 2141 0214 74686520 		.ascii	"the NO.%d slab information:\012\000"
 2141      4E4F2E25 
 2141      6420736C 
 2141      61622069 
 2141      6E666F72 
 2142 0231 000000   		.space	3
 2143              	.LC20:
 2144 0234 73746172 		.ascii	"start_ptr is %x\012\000"
 2144      745F7074 
 2144      72206973 
 2144      2025780A 
 2144      00
 2145 0245 000000   		.space	3
 2146              	.LC21:
 2147 0248 656E645F 		.ascii	"end_ptr is %x\012\000"
 2147      70747220 
 2147      69732025 
 2147      780A00
 2148 0257 00       		.space	1
 2149              	.LC22:
 2150 0258 63757272 		.ascii	"current_block_num is %d\012\000"
 2150      656E745F 
 2150      626C6F63 
 2150      6B5F6E75 
 2150      6D206973 
 2151 0271 000000   		.space	3
ARM GAS  G:\Users\Jaxb\AppData\Local\Temp\ccLceCCb.s 			page 56


 2152              	.LC23:
 2153 0274 66756C6C 		.ascii	"full_block_num is %d\012\000"
 2153      5F626C6F 
 2153      636B5F6E 
 2153      756D2069 
 2153      73202564 
 2154 028a 0000     		.space	2
 2155              	.LC24:
 2156 028c 626C6F63 		.ascii	"block_size is %d\012\000"
 2156      6B5F7369 
 2156      7A652069 
 2156      73202564 
 2156      0A00
 2157 029e 0000     		.space	2
 2158              	.LC25:
 2159 02a0 696E2063 		.ascii	"in chain slabs_partial\012\000"
 2159      6861696E 
 2159      20736C61 
 2159      62735F70 
 2159      61727469 
 2160              	.LC26:
 2161 02b8 696E2063 		.ascii	"in chain slabs_empty\012\000"
 2161      6861696E 
 2161      20736C61 
 2161      62735F65 
 2161      6D707479 
 2162              		.text
 2163              	.Letext0:
 2164              		.file 4 "../../source/include/os_cpu/kakaosstdint.h"
 2165              		.file 5 "../../source/include/os_lib/insert_sort.h"
 2166              		.file 6 "../../source/include/os_lib/slab.h"
 2167              		.file 7 "../../source/include/os_lib/buddy.h"
 2168              		.file 8 "../../source/include/os_cpu/os_cpu_stm32.h"
 2169              		.file 9 "../../source/include/os_core/TCB.h"
 2170              		.file 10 "../../source/include/os_lib/myMicroLIB.h"
 2171              		.file 11 "../../source/include/os_lib/myassert.h"
 2172              		.section	.debug_info,"",%progbits
 2173              	.Ldebug_info0:
 2174 0000 C71A0000 		.4byte	0x1ac7
 2175 0004 0200     		.2byte	0x2
 2176 0006 00000000 		.4byte	.Ldebug_abbrev0
 2177 000a 04       		.byte	0x4
 2178 000b 01       		.uleb128 0x1
 2179 000c 1E060000 		.4byte	.LASF117
 2180 0010 0C       		.byte	0xc
 2181 0011 05030000 		.4byte	.LASF118
 2182 0015 06050000 		.4byte	.LASF119
 2183 0019 00000000 		.4byte	.Ltext0
 2184 001d D4070000 		.4byte	.Letext0
 2185 0021 00000000 		.4byte	.Ldebug_line0
 2186 0025 02       		.uleb128 0x2
 2187 0026 01       		.byte	0x1
 2188 0027 06       		.byte	0x6
 2189 0028 6F030000 		.4byte	.LASF0
 2190 002c 02       		.uleb128 0x2
 2191 002d 02       		.byte	0x2
 2192 002e 05       		.byte	0x5
ARM GAS  G:\Users\Jaxb\AppData\Local\Temp\ccLceCCb.s 			page 57


 2193 002f 9D000000 		.4byte	.LASF1
 2194 0033 03       		.uleb128 0x3
 2195 0034 04       		.byte	0x4
 2196 0035 05       		.byte	0x5
 2197 0036 696E7400 		.ascii	"int\000"
 2198 003a 04       		.uleb128 0x4
 2199 003b 33000000 		.4byte	0x33
 2200 003f 02       		.uleb128 0x2
 2201 0040 08       		.byte	0x8
 2202 0041 05       		.byte	0x5
 2203 0042 34020000 		.4byte	.LASF2
 2204 0046 02       		.uleb128 0x2
 2205 0047 01       		.byte	0x1
 2206 0048 08       		.byte	0x8
 2207 0049 2B030000 		.4byte	.LASF3
 2208 004d 05       		.uleb128 0x5
 2209 004e 4B040000 		.4byte	.LASF5
 2210 0052 04       		.byte	0x4
 2211 0053 0B       		.byte	0xb
 2212 0054 58000000 		.4byte	0x58
 2213 0058 02       		.uleb128 0x2
 2214 0059 02       		.byte	0x2
 2215 005a 07       		.byte	0x7
 2216 005b 25040000 		.4byte	.LASF4
 2217 005f 05       		.uleb128 0x5
 2218 0060 F4000000 		.4byte	.LASF6
 2219 0064 04       		.byte	0x4
 2220 0065 0C       		.byte	0xc
 2221 0066 6A000000 		.4byte	0x6a
 2222 006a 02       		.uleb128 0x2
 2223 006b 04       		.byte	0x4
 2224 006c 07       		.byte	0x7
 2225 006d B9030000 		.4byte	.LASF7
 2226 0071 02       		.uleb128 0x2
 2227 0072 08       		.byte	0x8
 2228 0073 07       		.byte	0x7
 2229 0074 7B030000 		.4byte	.LASF8
 2230 0078 05       		.uleb128 0x5
 2231 0079 A7000000 		.4byte	.LASF9
 2232 007d 04       		.byte	0x4
 2233 007e 23       		.byte	0x23
 2234 007f 6A000000 		.4byte	0x6a
 2235 0083 06       		.uleb128 0x6
 2236 0084 3A000000 		.4byte	.LASF13
 2237 0088 08       		.byte	0x8
 2238 0089 02       		.byte	0x2
 2239 008a 04       		.byte	0x4
 2240 008b AC000000 		.4byte	0xac
 2241 008f 07       		.uleb128 0x7
 2242 0090 1A070000 		.4byte	.LASF10
 2243 0094 02       		.byte	0x2
 2244 0095 05       		.byte	0x5
 2245 0096 B1000000 		.4byte	0xb1
 2246 009a 02       		.byte	0x2
 2247 009b 23       		.byte	0x23
 2248 009c 00       		.uleb128 0
 2249 009d 07       		.uleb128 0x7
ARM GAS  G:\Users\Jaxb\AppData\Local\Temp\ccLceCCb.s 			page 58


 2250 009e D6060000 		.4byte	.LASF11
 2251 00a2 02       		.byte	0x2
 2252 00a3 05       		.byte	0x5
 2253 00a4 B1000000 		.4byte	0xb1
 2254 00a8 02       		.byte	0x2
 2255 00a9 23       		.byte	0x23
 2256 00aa 04       		.uleb128 0x4
 2257 00ab 00       		.byte	0
 2258 00ac 08       		.uleb128 0x8
 2259 00ad 83000000 		.4byte	0x83
 2260 00b1 09       		.uleb128 0x9
 2261 00b2 04       		.byte	0x4
 2262 00b3 83000000 		.4byte	0x83
 2263 00b7 08       		.uleb128 0x8
 2264 00b8 B1000000 		.4byte	0xb1
 2265 00bc 05       		.uleb128 0x5
 2266 00bd 22000000 		.4byte	.LASF12
 2267 00c1 05       		.byte	0x5
 2268 00c2 07       		.byte	0x7
 2269 00c3 5F000000 		.4byte	0x5f
 2270 00c7 06       		.uleb128 0x6
 2271 00c8 F5050000 		.4byte	.LASF14
 2272 00cc 0C       		.byte	0xc
 2273 00cd 05       		.byte	0x5
 2274 00ce 09       		.byte	0x9
 2275 00cf F0000000 		.4byte	0xf0
 2276 00d3 07       		.uleb128 0x7
 2277 00d4 A4040000 		.4byte	.LASF15
 2278 00d8 05       		.byte	0x5
 2279 00d9 0A       		.byte	0xa
 2280 00da 83000000 		.4byte	0x83
 2281 00de 02       		.byte	0x2
 2282 00df 23       		.byte	0x23
 2283 00e0 00       		.uleb128 0
 2284 00e1 07       		.uleb128 0x7
 2285 00e2 0A070000 		.4byte	.LASF16
 2286 00e6 05       		.byte	0x5
 2287 00e7 0B       		.byte	0xb
 2288 00e8 BC000000 		.4byte	0xbc
 2289 00ec 02       		.byte	0x2
 2290 00ed 23       		.byte	0x23
 2291 00ee 08       		.uleb128 0x8
 2292 00ef 00       		.byte	0
 2293 00f0 0A       		.uleb128 0xa
 2294 00f1 494C00   		.ascii	"IL\000"
 2295 00f4 05       		.byte	0x5
 2296 00f5 0C       		.byte	0xc
 2297 00f6 C7000000 		.4byte	0xc7
 2298 00fa 08       		.uleb128 0x8
 2299 00fb F0000000 		.4byte	0xf0
 2300 00ff 06       		.uleb128 0x6
 2301 0100 D9050000 		.4byte	.LASF17
 2302 0104 24       		.byte	0x24
 2303 0105 06       		.byte	0x6
 2304 0106 06       		.byte	0x6
 2305 0107 44010000 		.4byte	0x144
 2306 010b 07       		.uleb128 0x7
ARM GAS  G:\Users\Jaxb\AppData\Local\Temp\ccLceCCb.s 			page 59


 2307 010c 03040000 		.4byte	.LASF18
 2308 0110 06       		.byte	0x6
 2309 0111 08       		.byte	0x8
 2310 0112 F0000000 		.4byte	0xf0
 2311 0116 02       		.byte	0x2
 2312 0117 23       		.byte	0x23
 2313 0118 00       		.uleb128 0
 2314 0119 07       		.uleb128 0x7
 2315 011a 39030000 		.4byte	.LASF19
 2316 011e 06       		.byte	0x6
 2317 011f 09       		.byte	0x9
 2318 0120 83000000 		.4byte	0x83
 2319 0124 02       		.byte	0x2
 2320 0125 23       		.byte	0x23
 2321 0126 0C       		.uleb128 0xc
 2322 0127 07       		.uleb128 0x7
 2323 0128 79000000 		.4byte	.LASF20
 2324 012c 06       		.byte	0x6
 2325 012d 0A       		.byte	0xa
 2326 012e 83000000 		.4byte	0x83
 2327 0132 02       		.byte	0x2
 2328 0133 23       		.byte	0x23
 2329 0134 14       		.uleb128 0x14
 2330 0135 07       		.uleb128 0x7
 2331 0136 F9020000 		.4byte	.LASF21
 2332 013a 06       		.byte	0x6
 2333 013b 0B       		.byte	0xb
 2334 013c 83000000 		.4byte	0x83
 2335 0140 02       		.byte	0x2
 2336 0141 23       		.byte	0x23
 2337 0142 1C       		.uleb128 0x1c
 2338 0143 00       		.byte	0
 2339 0144 06       		.uleb128 0x6
 2340 0145 01050000 		.4byte	.LASF22
 2341 0149 24       		.byte	0x24
 2342 014a 06       		.byte	0x6
 2343 014b 12       		.byte	0x12
 2344 014c B3010000 		.4byte	0x1b3
 2345 0150 07       		.uleb128 0x7
 2346 0151 DF040000 		.4byte	.LASF23
 2347 0155 06       		.byte	0x6
 2348 0156 14       		.byte	0x14
 2349 0157 B3010000 		.4byte	0x1b3
 2350 015b 02       		.byte	0x2
 2351 015c 23       		.byte	0x23
 2352 015d 00       		.uleb128 0
 2353 015e 07       		.uleb128 0x7
 2354 015f D7040000 		.4byte	.LASF24
 2355 0163 06       		.byte	0x6
 2356 0164 15       		.byte	0x15
 2357 0165 B3010000 		.4byte	0x1b3
 2358 0169 02       		.byte	0x2
 2359 016a 23       		.byte	0x23
 2360 016b 04       		.uleb128 0x4
 2361 016c 07       		.uleb128 0x7
 2362 016d C4060000 		.4byte	.LASF25
 2363 0171 06       		.byte	0x6
ARM GAS  G:\Users\Jaxb\AppData\Local\Temp\ccLceCCb.s 			page 60


 2364 0172 16       		.byte	0x16
 2365 0173 6A000000 		.4byte	0x6a
 2366 0177 02       		.byte	0x2
 2367 0178 23       		.byte	0x23
 2368 0179 08       		.uleb128 0x8
 2369 017a 07       		.uleb128 0x7
 2370 017b 47020000 		.4byte	.LASF26
 2371 017f 06       		.byte	0x6
 2372 0180 17       		.byte	0x17
 2373 0181 6A000000 		.4byte	0x6a
 2374 0185 02       		.byte	0x2
 2375 0186 23       		.byte	0x23
 2376 0187 0C       		.uleb128 0xc
 2377 0188 07       		.uleb128 0x7
 2378 0189 2F000000 		.4byte	.LASF27
 2379 018d 06       		.byte	0x6
 2380 018e 18       		.byte	0x18
 2381 018f 6A000000 		.4byte	0x6a
 2382 0193 02       		.byte	0x2
 2383 0194 23       		.byte	0x23
 2384 0195 10       		.uleb128 0x10
 2385 0196 07       		.uleb128 0x7
 2386 0197 5F000000 		.4byte	.LASF28
 2387 019b 06       		.byte	0x6
 2388 019c 19       		.byte	0x19
 2389 019d 83000000 		.4byte	0x83
 2390 01a1 02       		.byte	0x2
 2391 01a2 23       		.byte	0x23
 2392 01a3 14       		.uleb128 0x14
 2393 01a4 07       		.uleb128 0x7
 2394 01a5 0F070000 		.4byte	.LASF29
 2395 01a9 06       		.byte	0x6
 2396 01aa 1A       		.byte	0x1a
 2397 01ab 83000000 		.4byte	0x83
 2398 01af 02       		.byte	0x2
 2399 01b0 23       		.byte	0x23
 2400 01b1 1C       		.uleb128 0x1c
 2401 01b2 00       		.byte	0
 2402 01b3 0B       		.uleb128 0xb
 2403 01b4 04       		.byte	0x4
 2404 01b5 02       		.uleb128 0x2
 2405 01b6 01       		.byte	0x1
 2406 01b7 08       		.byte	0x8
 2407 01b8 52040000 		.4byte	.LASF30
 2408 01bc 08       		.uleb128 0x8
 2409 01bd B5010000 		.4byte	0x1b5
 2410 01c1 06       		.uleb128 0x6
 2411 01c2 F3010000 		.4byte	.LASF31
 2412 01c6 04       		.byte	0x4
 2413 01c7 03       		.byte	0x3
 2414 01c8 04       		.byte	0x4
 2415 01c9 DC010000 		.4byte	0x1dc
 2416 01cd 07       		.uleb128 0x7
 2417 01ce 1A070000 		.4byte	.LASF10
 2418 01d2 03       		.byte	0x3
 2419 01d3 05       		.byte	0x5
 2420 01d4 E1010000 		.4byte	0x1e1
ARM GAS  G:\Users\Jaxb\AppData\Local\Temp\ccLceCCb.s 			page 61


 2421 01d8 02       		.byte	0x2
 2422 01d9 23       		.byte	0x23
 2423 01da 00       		.uleb128 0
 2424 01db 00       		.byte	0
 2425 01dc 08       		.uleb128 0x8
 2426 01dd C1010000 		.4byte	0x1c1
 2427 01e1 09       		.uleb128 0x9
 2428 01e2 04       		.byte	0x4
 2429 01e3 C1010000 		.4byte	0x1c1
 2430 01e7 0C       		.uleb128 0xc
 2431 01e8 0004     		.2byte	0x400
 2432 01ea 07       		.byte	0x7
 2433 01eb 10       		.byte	0x10
 2434 01ec FD010000 		.4byte	0x1fd
 2435 01f0 0D       		.uleb128 0xd
 2436 01f1 6100     		.ascii	"a\000"
 2437 01f3 07       		.byte	0x7
 2438 01f4 11       		.byte	0x11
 2439 01f5 FD010000 		.4byte	0x1fd
 2440 01f9 02       		.byte	0x2
 2441 01fa 23       		.byte	0x23
 2442 01fb 00       		.uleb128 0
 2443 01fc 00       		.byte	0
 2444 01fd 0E       		.uleb128 0xe
 2445 01fe 33000000 		.4byte	0x33
 2446 0202 0D020000 		.4byte	0x20d
 2447 0206 0F       		.uleb128 0xf
 2448 0207 6A000000 		.4byte	0x6a
 2449 020b FF       		.byte	0xff
 2450 020c 00       		.byte	0
 2451 020d 05       		.uleb128 0x5
 2452 020e AF020000 		.4byte	.LASF32
 2453 0212 07       		.byte	0x7
 2454 0213 12       		.byte	0x12
 2455 0214 E7010000 		.4byte	0x1e7
 2456 0218 05       		.uleb128 0x5
 2457 0219 D6030000 		.4byte	.LASF33
 2458 021d 07       		.byte	0x7
 2459 021e 14       		.byte	0x14
 2460 021f 5F000000 		.4byte	0x5f
 2461 0223 05       		.uleb128 0x5
 2462 0224 BE010000 		.4byte	.LASF34
 2463 0228 07       		.byte	0x7
 2464 0229 15       		.byte	0x15
 2465 022a 4D000000 		.4byte	0x4d
 2466 022e 05       		.uleb128 0x5
 2467 022f 73020000 		.4byte	.LASF35
 2468 0233 07       		.byte	0x7
 2469 0234 16       		.byte	0x16
 2470 0235 0D020000 		.4byte	0x20d
 2471 0239 06       		.uleb128 0x6
 2472 023a 44000000 		.4byte	.LASF36
 2473 023e 14       		.byte	0x14
 2474 023f 07       		.byte	0x7
 2475 0240 19       		.byte	0x19
 2476 0241 8C020000 		.4byte	0x28c
 2477 0245 07       		.uleb128 0x7
ARM GAS  G:\Users\Jaxb\AppData\Local\Temp\ccLceCCb.s 			page 62


 2478 0246 D8020000 		.4byte	.LASF37
 2479 024a 07       		.byte	0x7
 2480 024b 1A       		.byte	0x1a
 2481 024c 6A000000 		.4byte	0x6a
 2482 0250 02       		.byte	0x2
 2483 0251 23       		.byte	0x23
 2484 0252 00       		.uleb128 0
 2485 0253 07       		.uleb128 0x7
 2486 0254 6A020000 		.4byte	.LASF38
 2487 0258 07       		.byte	0x7
 2488 0259 1B       		.byte	0x1b
 2489 025a 6A000000 		.4byte	0x6a
 2490 025e 02       		.byte	0x2
 2491 025f 23       		.byte	0x23
 2492 0260 04       		.uleb128 0x4
 2493 0261 07       		.uleb128 0x7
 2494 0262 1B040000 		.4byte	.LASF39
 2495 0266 07       		.byte	0x7
 2496 0267 1C       		.byte	0x1c
 2497 0268 6A000000 		.4byte	0x6a
 2498 026c 02       		.byte	0x2
 2499 026d 23       		.byte	0x23
 2500 026e 08       		.uleb128 0x8
 2501 026f 07       		.uleb128 0x7
 2502 0270 0A070000 		.4byte	.LASF16
 2503 0274 07       		.byte	0x7
 2504 0275 1D       		.byte	0x1d
 2505 0276 6A000000 		.4byte	0x6a
 2506 027a 02       		.byte	0x2
 2507 027b 23       		.byte	0x23
 2508 027c 0C       		.uleb128 0xc
 2509 027d 07       		.uleb128 0x7
 2510 027e 51050000 		.4byte	.LASF40
 2511 0282 07       		.byte	0x7
 2512 0283 1E       		.byte	0x1e
 2513 0284 6A000000 		.4byte	0x6a
 2514 0288 02       		.byte	0x2
 2515 0289 23       		.byte	0x23
 2516 028a 10       		.uleb128 0x10
 2517 028b 00       		.byte	0
 2518 028c 06       		.uleb128 0x6
 2519 028d A8010000 		.4byte	.LASF41
 2520 0291 04       		.byte	0x4
 2521 0292 07       		.byte	0x7
 2522 0293 21       		.byte	0x21
 2523 0294 B5020000 		.4byte	0x2b5
 2524 0298 0D       		.uleb128 0xd
 2525 0299 6E756D00 		.ascii	"num\000"
 2526 029d 07       		.byte	0x7
 2527 029e 22       		.byte	0x22
 2528 029f 23020000 		.4byte	0x223
 2529 02a3 02       		.byte	0x2
 2530 02a4 23       		.byte	0x23
 2531 02a5 00       		.uleb128 0
 2532 02a6 07       		.uleb128 0x7
 2533 02a7 1A070000 		.4byte	.LASF10
 2534 02ab 07       		.byte	0x7
ARM GAS  G:\Users\Jaxb\AppData\Local\Temp\ccLceCCb.s 			page 63


 2535 02ac 23       		.byte	0x23
 2536 02ad 23020000 		.4byte	0x223
 2537 02b1 02       		.byte	0x2
 2538 02b2 23       		.byte	0x23
 2539 02b3 02       		.uleb128 0x2
 2540 02b4 00       		.byte	0
 2541 02b5 06       		.uleb128 0x6
 2542 02b6 04020000 		.4byte	.LASF42
 2543 02ba 0C       		.byte	0xc
 2544 02bb 07       		.byte	0x7
 2545 02bc 26       		.byte	0x26
 2546 02bd EC020000 		.4byte	0x2ec
 2547 02c1 07       		.uleb128 0x7
 2548 02c2 99050000 		.4byte	.LASF43
 2549 02c6 07       		.byte	0x7
 2550 02c7 27       		.byte	0x27
 2551 02c8 6A000000 		.4byte	0x6a
 2552 02cc 02       		.byte	0x2
 2553 02cd 23       		.byte	0x23
 2554 02ce 00       		.uleb128 0
 2555 02cf 0D       		.uleb128 0xd
 2556 02d0 70747200 		.ascii	"ptr\000"
 2557 02d4 07       		.byte	0x7
 2558 02d5 28       		.byte	0x28
 2559 02d6 B3010000 		.4byte	0x1b3
 2560 02da 02       		.byte	0x2
 2561 02db 23       		.byte	0x23
 2562 02dc 04       		.uleb128 0x4
 2563 02dd 07       		.uleb128 0x7
 2564 02de 8E010000 		.4byte	.LASF44
 2565 02e2 07       		.byte	0x7
 2566 02e3 29       		.byte	0x29
 2567 02e4 C1010000 		.4byte	0x1c1
 2568 02e8 02       		.byte	0x2
 2569 02e9 23       		.byte	0x23
 2570 02ea 08       		.uleb128 0x8
 2571 02eb 00       		.byte	0
 2572 02ec 06       		.uleb128 0x6
 2573 02ed E9040000 		.4byte	.LASF45
 2574 02f1 3C       		.byte	0x3c
 2575 02f2 07       		.byte	0x7
 2576 02f3 39       		.byte	0x39
 2577 02f4 93030000 		.4byte	0x393
 2578 02f8 07       		.uleb128 0x7
 2579 02f9 42020000 		.4byte	.LASF46
 2580 02fd 07       		.byte	0x7
 2581 02fe 3A       		.byte	0x3a
 2582 02ff 93030000 		.4byte	0x393
 2583 0303 02       		.byte	0x2
 2584 0304 23       		.byte	0x23
 2585 0305 00       		.uleb128 0
 2586 0306 07       		.uleb128 0x7
 2587 0307 6A000000 		.4byte	.LASF47
 2588 030b 07       		.byte	0x7
 2589 030c 3B       		.byte	0x3b
 2590 030d 99030000 		.4byte	0x399
 2591 0311 02       		.byte	0x2
ARM GAS  G:\Users\Jaxb\AppData\Local\Temp\ccLceCCb.s 			page 64


 2592 0312 23       		.byte	0x23
 2593 0313 04       		.uleb128 0x4
 2594 0314 07       		.uleb128 0x7
 2595 0315 E0030000 		.4byte	.LASF48
 2596 0319 07       		.byte	0x7
 2597 031a 3C       		.byte	0x3c
 2598 031b 23020000 		.4byte	0x223
 2599 031f 02       		.byte	0x2
 2600 0320 23       		.byte	0x23
 2601 0321 08       		.uleb128 0x8
 2602 0322 07       		.uleb128 0x7
 2603 0323 98010000 		.4byte	.LASF49
 2604 0327 07       		.byte	0x7
 2605 0328 3D       		.byte	0x3d
 2606 0329 9F030000 		.4byte	0x39f
 2607 032d 02       		.byte	0x2
 2608 032e 23       		.byte	0x23
 2609 032f 0C       		.uleb128 0xc
 2610 0330 07       		.uleb128 0x7
 2611 0331 FE060000 		.4byte	.LASF50
 2612 0335 07       		.byte	0x7
 2613 0336 3E       		.byte	0x3e
 2614 0337 9F030000 		.4byte	0x39f
 2615 033b 02       		.byte	0x2
 2616 033c 23       		.byte	0x23
 2617 033d 10       		.uleb128 0x10
 2618 033e 07       		.uleb128 0x7
 2619 033f C6030000 		.4byte	.LASF51
 2620 0343 07       		.byte	0x7
 2621 0344 3F       		.byte	0x3f
 2622 0345 A5030000 		.4byte	0x3a5
 2623 0349 02       		.byte	0x2
 2624 034a 23       		.byte	0x23
 2625 034b 14       		.uleb128 0x14
 2626 034c 07       		.uleb128 0x7
 2627 034d F1030000 		.4byte	.LASF52
 2628 0351 07       		.byte	0x7
 2629 0352 40       		.byte	0x40
 2630 0353 6A000000 		.4byte	0x6a
 2631 0357 02       		.byte	0x2
 2632 0358 23       		.byte	0x23
 2633 0359 18       		.uleb128 0x18
 2634 035a 07       		.uleb128 0x7
 2635 035b E4050000 		.4byte	.LASF53
 2636 035f 07       		.byte	0x7
 2637 0360 41       		.byte	0x41
 2638 0361 6A000000 		.4byte	0x6a
 2639 0365 02       		.byte	0x2
 2640 0366 23       		.byte	0x23
 2641 0367 1C       		.uleb128 0x1c
 2642 0368 07       		.uleb128 0x7
 2643 0369 94050000 		.4byte	.LASF54
 2644 036d 07       		.byte	0x7
 2645 036e 42       		.byte	0x42
 2646 036f 39020000 		.4byte	0x239
 2647 0373 02       		.byte	0x2
 2648 0374 23       		.byte	0x23
ARM GAS  G:\Users\Jaxb\AppData\Local\Temp\ccLceCCb.s 			page 65


 2649 0375 20       		.uleb128 0x20
 2650 0376 07       		.uleb128 0x7
 2651 0377 1A070000 		.4byte	.LASF10
 2652 037b 07       		.byte	0x7
 2653 037c 43       		.byte	0x43
 2654 037d AB030000 		.4byte	0x3ab
 2655 0381 02       		.byte	0x2
 2656 0382 23       		.byte	0x23
 2657 0383 34       		.uleb128 0x34
 2658 0384 07       		.uleb128 0x7
 2659 0385 B6050000 		.4byte	.LASF55
 2660 0389 07       		.byte	0x7
 2661 038a 44       		.byte	0x44
 2662 038b B1030000 		.4byte	0x3b1
 2663 038f 02       		.byte	0x2
 2664 0390 23       		.byte	0x23
 2665 0391 38       		.uleb128 0x38
 2666 0392 00       		.byte	0
 2667 0393 09       		.uleb128 0x9
 2668 0394 04       		.byte	0x4
 2669 0395 18020000 		.4byte	0x218
 2670 0399 09       		.uleb128 0x9
 2671 039a 04       		.byte	0x4
 2672 039b 8C020000 		.4byte	0x28c
 2673 039f 09       		.uleb128 0x9
 2674 03a0 04       		.byte	0x4
 2675 03a1 23020000 		.4byte	0x223
 2676 03a5 09       		.uleb128 0x9
 2677 03a6 04       		.byte	0x4
 2678 03a7 4D000000 		.4byte	0x4d
 2679 03ab 09       		.uleb128 0x9
 2680 03ac 04       		.byte	0x4
 2681 03ad EC020000 		.4byte	0x2ec
 2682 03b1 09       		.uleb128 0x9
 2683 03b2 04       		.byte	0x4
 2684 03b3 2E020000 		.4byte	0x22e
 2685 03b7 05       		.uleb128 0x5
 2686 03b8 82040000 		.4byte	.LASF56
 2687 03bc 08       		.byte	0x8
 2688 03bd 04       		.byte	0x4
 2689 03be 6A000000 		.4byte	0x6a
 2690 03c2 05       		.uleb128 0x5
 2691 03c3 DB060000 		.4byte	.LASF57
 2692 03c7 08       		.byte	0x8
 2693 03c8 06       		.byte	0x6
 2694 03c9 B7030000 		.4byte	0x3b7
 2695 03cd 10       		.uleb128 0x10
 2696 03ce E7020000 		.4byte	.LASF63
 2697 03d2 09       		.byte	0x9
 2698 03d3 12       		.byte	0x12
 2699 03d4 3A000000 		.4byte	0x3a
 2700 03d8 01       		.byte	0x1
 2701 03d9 01       		.byte	0x1
 2702 03da 11       		.uleb128 0x11
 2703 03db D7010000 		.4byte	.LASF58
 2704 03df 01       		.byte	0x1
 2705 03e0 0B       		.byte	0xb
ARM GAS  G:\Users\Jaxb\AppData\Local\Temp\ccLceCCb.s 			page 66


 2706 03e1 83000000 		.4byte	0x83
 2707 03e5 05       		.byte	0x5
 2708 03e6 03       		.byte	0x3
 2709 03e7 04000000 		.4byte	cache_chain_head
 2710 03eb 11       		.uleb128 0x11
 2711 03ec 56020000 		.4byte	.LASF59
 2712 03f0 01       		.byte	0x1
 2713 03f1 0C       		.byte	0xc
 2714 03f2 FF000000 		.4byte	0xff
 2715 03f6 05       		.byte	0x5
 2716 03f7 03       		.byte	0x3
 2717 03f8 78000000 		.4byte	kmem_cache16
 2718 03fc 11       		.uleb128 0x11
 2719 03fd CC050000 		.4byte	.LASF60
 2720 0401 01       		.byte	0x1
 2721 0402 0D       		.byte	0xd
 2722 0403 FF000000 		.4byte	0xff
 2723 0407 05       		.byte	0x5
 2724 0408 03       		.byte	0x3
 2725 0409 54000000 		.4byte	kmem_cache32
 2726 040d 11       		.uleb128 0x11
 2727 040e 57040000 		.4byte	.LASF61
 2728 0412 01       		.byte	0x1
 2729 0413 0E       		.byte	0xe
 2730 0414 FF000000 		.4byte	0xff
 2731 0418 05       		.byte	0x5
 2732 0419 03       		.byte	0x3
 2733 041a 30000000 		.4byte	kmem_cache_kmem_cache
 2734 041e 11       		.uleb128 0x11
 2735 041f E2060000 		.4byte	.LASF62
 2736 0423 01       		.byte	0x1
 2737 0424 0F       		.byte	0xf
 2738 0425 FF000000 		.4byte	0xff
 2739 0429 05       		.byte	0x5
 2740 042a 03       		.byte	0x3
 2741 042b 0C000000 		.4byte	kmem_cache_TCB
 2742 042f 12       		.uleb128 0x12
 2743 0430 92030000 		.4byte	.LASF64
 2744 0434 01       		.byte	0x1
 2745 0435 10       		.byte	0x10
 2746 0436 B7000000 		.4byte	0xb7
 2747 043a 01       		.byte	0x1
 2748 043b 05       		.byte	0x5
 2749 043c 03       		.byte	0x3
 2750 043d 00000000 		.4byte	cache_chain_head_ptr
 2751 0441 11       		.uleb128 0x11
 2752 0442 8D040000 		.4byte	.LASF65
 2753 0446 01       		.byte	0x1
 2754 0447 12       		.byte	0x12
 2755 0448 C1010000 		.4byte	0x1c1
 2756 044c 05       		.byte	0x5
 2757 044d 03       		.byte	0x3
 2758 044e 00000000 		.4byte	page_alloc_record_head
 2759 0452 13       		.uleb128 0x13
 2760 0453 01       		.byte	0x1
 2761 0454 B5040000 		.4byte	.LASF74
 2762 0458 01       		.byte	0x1
ARM GAS  G:\Users\Jaxb\AppData\Local\Temp\ccLceCCb.s 			page 67


 2763 0459 AB01     		.2byte	0x1ab
 2764 045b 01       		.byte	0x1
 2765 045c A0050000 		.4byte	.LFB25
 2766 0460 D4070000 		.4byte	.LFE25
 2767 0464 00000000 		.4byte	.LLST111
 2768 0468 01       		.byte	0x1
 2769 0469 FE080000 		.4byte	0x8fe
 2770 046d 14       		.uleb128 0x14
 2771 046e 74000000 		.4byte	.LASF66
 2772 0472 01       		.byte	0x1
 2773 0473 AB01     		.2byte	0x1ab
 2774 0475 33000000 		.4byte	0x33
 2775 0479 50000000 		.4byte	.LLST112
 2776 047d 14       		.uleb128 0x14
 2777 047e 27020000 		.4byte	.LASF67
 2778 0482 01       		.byte	0x1
 2779 0483 AB01     		.2byte	0x1ab
 2780 0485 FE080000 		.4byte	0x8fe
 2781 0489 71000000 		.4byte	.LLST113
 2782 048d 15       		.uleb128 0x15
 2783 048e 706F7300 		.ascii	"pos\000"
 2784 0492 01       		.byte	0x1
 2785 0493 AF01     		.2byte	0x1af
 2786 0495 B1000000 		.4byte	0xb1
 2787 0499 92000000 		.4byte	.LLST114
 2788 049d 16       		.uleb128 0x16
 2789 049e 44040000 		.4byte	.LASF68
 2790 04a2 01       		.byte	0x1
 2791 04a3 B001     		.2byte	0x1b0
 2792 04a5 0A090000 		.4byte	0x90a
 2793 04a9 B0000000 		.4byte	.LLST115
 2794 04ad 16       		.uleb128 0x16
 2795 04ae A0020000 		.4byte	.LASF69
 2796 04b2 01       		.byte	0x1
 2797 04b3 B101     		.2byte	0x1b1
 2798 04b5 10090000 		.4byte	0x910
 2799 04b9 DB000000 		.4byte	.LLST116
 2800 04bd 15       		.uleb128 0x15
 2801 04be 6900     		.ascii	"i\000"
 2802 04c0 01       		.byte	0x1
 2803 04c1 B201     		.2byte	0x1b2
 2804 04c3 33000000 		.4byte	0x33
 2805 04c7 06010000 		.4byte	.LLST117
 2806 04cb 16       		.uleb128 0x16
 2807 04cc F8040000 		.4byte	.LASF70
 2808 04d0 01       		.byte	0x1
 2809 04d1 B301     		.2byte	0x1b3
 2810 04d3 16090000 		.4byte	0x916
 2811 04d7 49010000 		.4byte	.LLST118
 2812 04db 16       		.uleb128 0x16
 2813 04dc 01060000 		.4byte	.LASF71
 2814 04e0 01       		.byte	0x1
 2815 04e1 B401     		.2byte	0x1b4
 2816 04e3 C2030000 		.4byte	0x3c2
 2817 04e7 78010000 		.4byte	.LLST119
 2818 04eb 17       		.uleb128 0x17
 2819 04ec FD040000 		.4byte	0x4fd
ARM GAS  G:\Users\Jaxb\AppData\Local\Temp\ccLceCCb.s 			page 68


 2820 04f0 18       		.uleb128 0x18
 2821 04f1 22010000 		.4byte	.LASF72
 2822 04f5 01       		.byte	0x1
 2823 04f6 B901     		.2byte	0x1b9
 2824 04f8 1C090000 		.4byte	0x91c
 2825 04fc 00       		.byte	0
 2826 04fd 17       		.uleb128 0x17
 2827 04fe 0F050000 		.4byte	0x50f
 2828 0502 18       		.uleb128 0x18
 2829 0503 22010000 		.4byte	.LASF72
 2830 0507 01       		.byte	0x1
 2831 0508 BB01     		.2byte	0x1bb
 2832 050a 22090000 		.4byte	0x922
 2833 050e 00       		.byte	0
 2834 050f 19       		.uleb128 0x19
 2835 0510 38020000 		.4byte	.Ldebug_ranges0+0x238
 2836 0514 16060000 		.4byte	0x616
 2837 0518 16       		.uleb128 0x16
 2838 0519 C6040000 		.4byte	.LASF73
 2839 051d 01       		.byte	0x1
 2840 051e BE01     		.2byte	0x1be
 2841 0520 B1000000 		.4byte	0xb1
 2842 0524 BB010000 		.4byte	.LLST120
 2843 0528 15       		.uleb128 0x15
 2844 0529 6E756D00 		.ascii	"num\000"
 2845 052d 01       		.byte	0x1
 2846 052e BF01     		.2byte	0x1bf
 2847 0530 33000000 		.4byte	0x33
 2848 0534 CE010000 		.4byte	.LLST121
 2849 0538 17       		.uleb128 0x17
 2850 0539 4A050000 		.4byte	0x54a
 2851 053d 18       		.uleb128 0x18
 2852 053e 22010000 		.4byte	.LASF72
 2853 0542 01       		.byte	0x1
 2854 0543 C401     		.2byte	0x1c4
 2855 0545 1C090000 		.4byte	0x91c
 2856 0549 00       		.byte	0
 2857 054a 1A       		.uleb128 0x1a
 2858 054b EC050000 		.4byte	.LVL226
 2859 054f E0190000 		.4byte	0x19e0
 2860 0553 61050000 		.4byte	0x561
 2861 0557 1B       		.uleb128 0x1b
 2862 0558 01       		.byte	0x1
 2863 0559 50       		.byte	0x50
 2864 055a 05       		.byte	0x5
 2865 055b 03       		.byte	0x3
 2866 055c FC010000 		.4byte	.LC18
 2867 0560 00       		.byte	0
 2868 0561 1A       		.uleb128 0x1a
 2869 0562 0E060000 		.4byte	.LVL230
 2870 0566 E0190000 		.4byte	0x19e0
 2871 056a 7B050000 		.4byte	0x57b
 2872 056e 1B       		.uleb128 0x1b
 2873 056f 01       		.byte	0x1
 2874 0570 50       		.byte	0x50
 2875 0571 02       		.byte	0x2
 2876 0572 7B       		.byte	0x7b
ARM GAS  G:\Users\Jaxb\AppData\Local\Temp\ccLceCCb.s 			page 69


 2877 0573 00       		.sleb128 0
 2878 0574 1B       		.uleb128 0x1b
 2879 0575 01       		.byte	0x1
 2880 0576 51       		.byte	0x51
 2881 0577 02       		.byte	0x2
 2882 0578 78       		.byte	0x78
 2883 0579 00       		.sleb128 0
 2884 057a 00       		.byte	0
 2885 057b 1A       		.uleb128 0x1a
 2886 057c 18060000 		.4byte	.LVL231
 2887 0580 E0190000 		.4byte	0x19e0
 2888 0584 8F050000 		.4byte	0x58f
 2889 0588 1B       		.uleb128 0x1b
 2890 0589 01       		.byte	0x1
 2891 058a 50       		.byte	0x50
 2892 058b 02       		.byte	0x2
 2893 058c 7A       		.byte	0x7a
 2894 058d 00       		.sleb128 0
 2895 058e 00       		.byte	0
 2896 058f 1A       		.uleb128 0x1a
 2897 0590 22060000 		.4byte	.LVL232
 2898 0594 E0190000 		.4byte	0x19e0
 2899 0598 A3050000 		.4byte	0x5a3
 2900 059c 1B       		.uleb128 0x1b
 2901 059d 01       		.byte	0x1
 2902 059e 50       		.byte	0x50
 2903 059f 02       		.byte	0x2
 2904 05a0 79       		.byte	0x79
 2905 05a1 00       		.sleb128 0
 2906 05a2 00       		.byte	0
 2907 05a3 1A       		.uleb128 0x1a
 2908 05a4 2C060000 		.4byte	.LVL233
 2909 05a8 E0190000 		.4byte	0x19e0
 2910 05ac BA050000 		.4byte	0x5ba
 2911 05b0 1B       		.uleb128 0x1b
 2912 05b1 01       		.byte	0x1
 2913 05b2 50       		.byte	0x50
 2914 05b3 05       		.byte	0x5
 2915 05b4 03       		.byte	0x3
 2916 05b5 58020000 		.4byte	.LC22
 2917 05b9 00       		.byte	0
 2918 05ba 1A       		.uleb128 0x1a
 2919 05bb 36060000 		.4byte	.LVL234
 2920 05bf E0190000 		.4byte	0x19e0
 2921 05c3 D1050000 		.4byte	0x5d1
 2922 05c7 1B       		.uleb128 0x1b
 2923 05c8 01       		.byte	0x1
 2924 05c9 50       		.byte	0x50
 2925 05ca 05       		.byte	0x5
 2926 05cb 03       		.byte	0x3
 2927 05cc 74020000 		.4byte	.LC23
 2928 05d0 00       		.byte	0
 2929 05d1 1A       		.uleb128 0x1a
 2930 05d2 40060000 		.4byte	.LVL235
 2931 05d6 E0190000 		.4byte	0x19e0
 2932 05da E8050000 		.4byte	0x5e8
 2933 05de 1B       		.uleb128 0x1b
ARM GAS  G:\Users\Jaxb\AppData\Local\Temp\ccLceCCb.s 			page 70


 2934 05df 01       		.byte	0x1
 2935 05e0 50       		.byte	0x50
 2936 05e1 05       		.byte	0x5
 2937 05e2 03       		.byte	0x3
 2938 05e3 8C020000 		.4byte	.LC24
 2939 05e7 00       		.byte	0
 2940 05e8 1A       		.uleb128 0x1a
 2941 05e9 46060000 		.4byte	.LVL236
 2942 05ed E0190000 		.4byte	0x19e0
 2943 05f1 FC050000 		.4byte	0x5fc
 2944 05f5 1B       		.uleb128 0x1b
 2945 05f6 01       		.byte	0x1
 2946 05f7 50       		.byte	0x50
 2947 05f8 02       		.byte	0x2
 2948 05f9 75       		.byte	0x75
 2949 05fa 00       		.sleb128 0
 2950 05fb 00       		.byte	0
 2951 05fc 1C       		.uleb128 0x1c
 2952 05fd 54060000 		.4byte	.LVL239
 2953 0601 E0190000 		.4byte	0x19e0
 2954 0605 1B       		.uleb128 0x1b
 2955 0606 01       		.byte	0x1
 2956 0607 50       		.byte	0x50
 2957 0608 05       		.byte	0x5
 2958 0609 03       		.byte	0x3
 2959 060a 18010000 		.4byte	.LC10
 2960 060e 1B       		.uleb128 0x1b
 2961 060f 01       		.byte	0x1
 2962 0610 51       		.byte	0x51
 2963 0611 02       		.byte	0x2
 2964 0612 78       		.byte	0x78
 2965 0613 00       		.sleb128 0
 2966 0614 00       		.byte	0
 2967 0615 00       		.byte	0
 2968 0616 1D       		.uleb128 0x1d
 2969 0617 66060000 		.4byte	.LBB335
 2970 061b D4060000 		.4byte	.LBE335
 2971 061f 21070000 		.4byte	0x721
 2972 0623 16       		.uleb128 0x16
 2973 0624 C6040000 		.4byte	.LASF73
 2974 0628 01       		.byte	0x1
 2975 0629 D501     		.2byte	0x1d5
 2976 062b B1000000 		.4byte	0xb1
 2977 062f ED010000 		.4byte	.LLST122
 2978 0633 15       		.uleb128 0x15
 2979 0634 6E756D00 		.ascii	"num\000"
 2980 0638 01       		.byte	0x1
 2981 0639 D601     		.2byte	0x1d6
 2982 063b 33000000 		.4byte	0x33
 2983 063f 00020000 		.4byte	.LLST123
 2984 0643 17       		.uleb128 0x17
 2985 0644 55060000 		.4byte	0x655
 2986 0648 18       		.uleb128 0x18
 2987 0649 22010000 		.4byte	.LASF72
 2988 064d 01       		.byte	0x1
 2989 064e DB01     		.2byte	0x1db
 2990 0650 1C090000 		.4byte	0x91c
ARM GAS  G:\Users\Jaxb\AppData\Local\Temp\ccLceCCb.s 			page 71


 2991 0654 00       		.byte	0
 2992 0655 1A       		.uleb128 0x1a
 2993 0656 6C060000 		.4byte	.LVL242
 2994 065a E0190000 		.4byte	0x19e0
 2995 065e 6C060000 		.4byte	0x66c
 2996 0662 1B       		.uleb128 0x1b
 2997 0663 01       		.byte	0x1
 2998 0664 50       		.byte	0x50
 2999 0665 05       		.byte	0x5
 3000 0666 03       		.byte	0x3
 3001 0667 A0020000 		.4byte	.LC25
 3002 066b 00       		.byte	0
 3003 066c 1A       		.uleb128 0x1a
 3004 066d 8E060000 		.4byte	.LVL246
 3005 0671 E0190000 		.4byte	0x19e0
 3006 0675 86060000 		.4byte	0x686
 3007 0679 1B       		.uleb128 0x1b
 3008 067a 01       		.byte	0x1
 3009 067b 50       		.byte	0x50
 3010 067c 02       		.byte	0x2
 3011 067d 7B       		.byte	0x7b
 3012 067e 00       		.sleb128 0
 3013 067f 1B       		.uleb128 0x1b
 3014 0680 01       		.byte	0x1
 3015 0681 51       		.byte	0x51
 3016 0682 02       		.byte	0x2
 3017 0683 78       		.byte	0x78
 3018 0684 00       		.sleb128 0
 3019 0685 00       		.byte	0
 3020 0686 1A       		.uleb128 0x1a
 3021 0687 98060000 		.4byte	.LVL247
 3022 068b E0190000 		.4byte	0x19e0
 3023 068f 9A060000 		.4byte	0x69a
 3024 0693 1B       		.uleb128 0x1b
 3025 0694 01       		.byte	0x1
 3026 0695 50       		.byte	0x50
 3027 0696 02       		.byte	0x2
 3028 0697 7A       		.byte	0x7a
 3029 0698 00       		.sleb128 0
 3030 0699 00       		.byte	0
 3031 069a 1A       		.uleb128 0x1a
 3032 069b A2060000 		.4byte	.LVL248
 3033 069f E0190000 		.4byte	0x19e0
 3034 06a3 AE060000 		.4byte	0x6ae
 3035 06a7 1B       		.uleb128 0x1b
 3036 06a8 01       		.byte	0x1
 3037 06a9 50       		.byte	0x50
 3038 06aa 02       		.byte	0x2
 3039 06ab 79       		.byte	0x79
 3040 06ac 00       		.sleb128 0
 3041 06ad 00       		.byte	0
 3042 06ae 1A       		.uleb128 0x1a
 3043 06af AC060000 		.4byte	.LVL249
 3044 06b3 E0190000 		.4byte	0x19e0
 3045 06b7 C5060000 		.4byte	0x6c5
 3046 06bb 1B       		.uleb128 0x1b
 3047 06bc 01       		.byte	0x1
ARM GAS  G:\Users\Jaxb\AppData\Local\Temp\ccLceCCb.s 			page 72


 3048 06bd 50       		.byte	0x50
 3049 06be 05       		.byte	0x5
 3050 06bf 03       		.byte	0x3
 3051 06c0 58020000 		.4byte	.LC22
 3052 06c4 00       		.byte	0
 3053 06c5 1A       		.uleb128 0x1a
 3054 06c6 B6060000 		.4byte	.LVL250
 3055 06ca E0190000 		.4byte	0x19e0
 3056 06ce DC060000 		.4byte	0x6dc
 3057 06d2 1B       		.uleb128 0x1b
 3058 06d3 01       		.byte	0x1
 3059 06d4 50       		.byte	0x50
 3060 06d5 05       		.byte	0x5
 3061 06d6 03       		.byte	0x3
 3062 06d7 74020000 		.4byte	.LC23
 3063 06db 00       		.byte	0
 3064 06dc 1A       		.uleb128 0x1a
 3065 06dd C0060000 		.4byte	.LVL251
 3066 06e1 E0190000 		.4byte	0x19e0
 3067 06e5 F3060000 		.4byte	0x6f3
 3068 06e9 1B       		.uleb128 0x1b
 3069 06ea 01       		.byte	0x1
 3070 06eb 50       		.byte	0x50
 3071 06ec 05       		.byte	0x5
 3072 06ed 03       		.byte	0x3
 3073 06ee 8C020000 		.4byte	.LC24
 3074 06f2 00       		.byte	0
 3075 06f3 1A       		.uleb128 0x1a
 3076 06f4 C6060000 		.4byte	.LVL252
 3077 06f8 E0190000 		.4byte	0x19e0
 3078 06fc 07070000 		.4byte	0x707
 3079 0700 1B       		.uleb128 0x1b
 3080 0701 01       		.byte	0x1
 3081 0702 50       		.byte	0x50
 3082 0703 02       		.byte	0x2
 3083 0704 75       		.byte	0x75
 3084 0705 00       		.sleb128 0
 3085 0706 00       		.byte	0
 3086 0707 1C       		.uleb128 0x1c
 3087 0708 D4060000 		.4byte	.LVL255
 3088 070c E0190000 		.4byte	0x19e0
 3089 0710 1B       		.uleb128 0x1b
 3090 0711 01       		.byte	0x1
 3091 0712 50       		.byte	0x50
 3092 0713 05       		.byte	0x5
 3093 0714 03       		.byte	0x3
 3094 0715 54010000 		.4byte	.LC12
 3095 0719 1B       		.uleb128 0x1b
 3096 071a 01       		.byte	0x1
 3097 071b 51       		.byte	0x51
 3098 071c 02       		.byte	0x2
 3099 071d 78       		.byte	0x78
 3100 071e 00       		.sleb128 0
 3101 071f 00       		.byte	0
 3102 0720 00       		.byte	0
 3103 0721 1D       		.uleb128 0x1d
 3104 0722 E4060000 		.4byte	.LBB336
ARM GAS  G:\Users\Jaxb\AppData\Local\Temp\ccLceCCb.s 			page 73


 3105 0726 52070000 		.4byte	.LBE336
 3106 072a 2C080000 		.4byte	0x82c
 3107 072e 16       		.uleb128 0x16
 3108 072f C6040000 		.4byte	.LASF73
 3109 0733 01       		.byte	0x1
 3110 0734 EC01     		.2byte	0x1ec
 3111 0736 B1000000 		.4byte	0xb1
 3112 073a 1F020000 		.4byte	.LLST124
 3113 073e 15       		.uleb128 0x15
 3114 073f 6E756D00 		.ascii	"num\000"
 3115 0743 01       		.byte	0x1
 3116 0744 ED01     		.2byte	0x1ed
 3117 0746 33000000 		.4byte	0x33
 3118 074a 32020000 		.4byte	.LLST125
 3119 074e 17       		.uleb128 0x17
 3120 074f 60070000 		.4byte	0x760
 3121 0753 18       		.uleb128 0x18
 3122 0754 22010000 		.4byte	.LASF72
 3123 0758 01       		.byte	0x1
 3124 0759 F201     		.2byte	0x1f2
 3125 075b 1C090000 		.4byte	0x91c
 3126 075f 00       		.byte	0
 3127 0760 1A       		.uleb128 0x1a
 3128 0761 EA060000 		.4byte	.LVL258
 3129 0765 E0190000 		.4byte	0x19e0
 3130 0769 77070000 		.4byte	0x777
 3131 076d 1B       		.uleb128 0x1b
 3132 076e 01       		.byte	0x1
 3133 076f 50       		.byte	0x50
 3134 0770 05       		.byte	0x5
 3135 0771 03       		.byte	0x3
 3136 0772 B8020000 		.4byte	.LC26
 3137 0776 00       		.byte	0
 3138 0777 1A       		.uleb128 0x1a
 3139 0778 0C070000 		.4byte	.LVL262
 3140 077c E0190000 		.4byte	0x19e0
 3141 0780 91070000 		.4byte	0x791
 3142 0784 1B       		.uleb128 0x1b
 3143 0785 01       		.byte	0x1
 3144 0786 50       		.byte	0x50
 3145 0787 02       		.byte	0x2
 3146 0788 7B       		.byte	0x7b
 3147 0789 00       		.sleb128 0
 3148 078a 1B       		.uleb128 0x1b
 3149 078b 01       		.byte	0x1
 3150 078c 51       		.byte	0x51
 3151 078d 02       		.byte	0x2
 3152 078e 78       		.byte	0x78
 3153 078f 00       		.sleb128 0
 3154 0790 00       		.byte	0
 3155 0791 1A       		.uleb128 0x1a
 3156 0792 16070000 		.4byte	.LVL263
 3157 0796 E0190000 		.4byte	0x19e0
 3158 079a A5070000 		.4byte	0x7a5
 3159 079e 1B       		.uleb128 0x1b
 3160 079f 01       		.byte	0x1
 3161 07a0 50       		.byte	0x50
ARM GAS  G:\Users\Jaxb\AppData\Local\Temp\ccLceCCb.s 			page 74


 3162 07a1 02       		.byte	0x2
 3163 07a2 7A       		.byte	0x7a
 3164 07a3 00       		.sleb128 0
 3165 07a4 00       		.byte	0
 3166 07a5 1A       		.uleb128 0x1a
 3167 07a6 20070000 		.4byte	.LVL264
 3168 07aa E0190000 		.4byte	0x19e0
 3169 07ae B9070000 		.4byte	0x7b9
 3170 07b2 1B       		.uleb128 0x1b
 3171 07b3 01       		.byte	0x1
 3172 07b4 50       		.byte	0x50
 3173 07b5 02       		.byte	0x2
 3174 07b6 79       		.byte	0x79
 3175 07b7 00       		.sleb128 0
 3176 07b8 00       		.byte	0
 3177 07b9 1A       		.uleb128 0x1a
 3178 07ba 2A070000 		.4byte	.LVL265
 3179 07be E0190000 		.4byte	0x19e0
 3180 07c2 D0070000 		.4byte	0x7d0
 3181 07c6 1B       		.uleb128 0x1b
 3182 07c7 01       		.byte	0x1
 3183 07c8 50       		.byte	0x50
 3184 07c9 05       		.byte	0x5
 3185 07ca 03       		.byte	0x3
 3186 07cb 58020000 		.4byte	.LC22
 3187 07cf 00       		.byte	0
 3188 07d0 1A       		.uleb128 0x1a
 3189 07d1 34070000 		.4byte	.LVL266
 3190 07d5 E0190000 		.4byte	0x19e0
 3191 07d9 E7070000 		.4byte	0x7e7
 3192 07dd 1B       		.uleb128 0x1b
 3193 07de 01       		.byte	0x1
 3194 07df 50       		.byte	0x50
 3195 07e0 05       		.byte	0x5
 3196 07e1 03       		.byte	0x3
 3197 07e2 74020000 		.4byte	.LC23
 3198 07e6 00       		.byte	0
 3199 07e7 1A       		.uleb128 0x1a
 3200 07e8 3E070000 		.4byte	.LVL267
 3201 07ec E0190000 		.4byte	0x19e0
 3202 07f0 FE070000 		.4byte	0x7fe
 3203 07f4 1B       		.uleb128 0x1b
 3204 07f5 01       		.byte	0x1
 3205 07f6 50       		.byte	0x50
 3206 07f7 05       		.byte	0x5
 3207 07f8 03       		.byte	0x3
 3208 07f9 8C020000 		.4byte	.LC24
 3209 07fd 00       		.byte	0
 3210 07fe 1A       		.uleb128 0x1a
 3211 07ff 44070000 		.4byte	.LVL268
 3212 0803 E0190000 		.4byte	0x19e0
 3213 0807 12080000 		.4byte	0x812
 3214 080b 1B       		.uleb128 0x1b
 3215 080c 01       		.byte	0x1
 3216 080d 50       		.byte	0x50
 3217 080e 02       		.byte	0x2
 3218 080f 75       		.byte	0x75
ARM GAS  G:\Users\Jaxb\AppData\Local\Temp\ccLceCCb.s 			page 75


 3219 0810 00       		.sleb128 0
 3220 0811 00       		.byte	0
 3221 0812 1C       		.uleb128 0x1c
 3222 0813 52070000 		.4byte	.LVL271
 3223 0817 E0190000 		.4byte	0x19e0
 3224 081b 1B       		.uleb128 0x1b
 3225 081c 01       		.byte	0x1
 3226 081d 50       		.byte	0x50
 3227 081e 05       		.byte	0x5
 3228 081f 03       		.byte	0x3
 3229 0820 98010000 		.4byte	.LC14
 3230 0824 1B       		.uleb128 0x1b
 3231 0825 01       		.byte	0x1
 3232 0826 51       		.byte	0x51
 3233 0827 02       		.byte	0x2
 3234 0828 78       		.byte	0x78
 3235 0829 00       		.sleb128 0
 3236 082a 00       		.byte	0
 3237 082b 00       		.byte	0
 3238 082c 1E       		.uleb128 0x1e
 3239 082d AE050000 		.4byte	.LVL218
 3240 0831 ED190000 		.4byte	0x19ed
 3241 0835 1A       		.uleb128 0x1a
 3242 0836 D2050000 		.4byte	.LVL223
 3243 083a E0190000 		.4byte	0x19e0
 3244 083e 53080000 		.4byte	0x853
 3245 0842 1B       		.uleb128 0x1b
 3246 0843 01       		.byte	0x1
 3247 0844 50       		.byte	0x50
 3248 0845 05       		.byte	0x5
 3249 0846 03       		.byte	0x3
 3250 0847 CC000000 		.4byte	.LC8
 3251 084b 1B       		.uleb128 0x1b
 3252 084c 01       		.byte	0x1
 3253 084d 51       		.byte	0x51
 3254 084e 03       		.byte	0x3
 3255 084f 91       		.byte	0x91
 3256 0850 4C       		.sleb128 -52
 3257 0851 06       		.byte	0x6
 3258 0852 00       		.byte	0
 3259 0853 1A       		.uleb128 0x1a
 3260 0854 DA050000 		.4byte	.LVL224
 3261 0858 E0190000 		.4byte	0x19e0
 3262 085c 6A080000 		.4byte	0x86a
 3263 0860 1B       		.uleb128 0x1b
 3264 0861 01       		.byte	0x1
 3265 0862 50       		.byte	0x50
 3266 0863 05       		.byte	0x5
 3267 0864 03       		.byte	0x3
 3268 0865 D8010000 		.4byte	.LC17
 3269 0869 00       		.byte	0
 3270 086a 1A       		.uleb128 0x1a
 3271 086b 5A060000 		.4byte	.LVL240
 3272 086f E0190000 		.4byte	0x19e0
 3273 0873 7E080000 		.4byte	0x87e
 3274 0877 1B       		.uleb128 0x1b
 3275 0878 01       		.byte	0x1
ARM GAS  G:\Users\Jaxb\AppData\Local\Temp\ccLceCCb.s 			page 76


 3276 0879 50       		.byte	0x50
 3277 087a 02       		.byte	0x2
 3278 087b 75       		.byte	0x75
 3279 087c 00       		.sleb128 0
 3280 087d 00       		.byte	0
 3281 087e 1A       		.uleb128 0x1a
 3282 087f DA060000 		.4byte	.LVL256
 3283 0883 E0190000 		.4byte	0x19e0
 3284 0887 92080000 		.4byte	0x892
 3285 088b 1B       		.uleb128 0x1b
 3286 088c 01       		.byte	0x1
 3287 088d 50       		.byte	0x50
 3288 088e 02       		.byte	0x2
 3289 088f 75       		.byte	0x75
 3290 0890 00       		.sleb128 0
 3291 0891 00       		.byte	0
 3292 0892 1A       		.uleb128 0x1a
 3293 0893 58070000 		.4byte	.LVL272
 3294 0897 E0190000 		.4byte	0x19e0
 3295 089b A6080000 		.4byte	0x8a6
 3296 089f 1B       		.uleb128 0x1b
 3297 08a0 01       		.byte	0x1
 3298 08a1 50       		.byte	0x50
 3299 08a2 02       		.byte	0x2
 3300 08a3 75       		.byte	0x75
 3301 08a4 00       		.sleb128 0
 3302 08a5 00       		.byte	0
 3303 08a6 1F       		.uleb128 0x1f
 3304 08a7 6E070000 		.4byte	.LVL276
 3305 08ab 01       		.byte	0x1
 3306 08ac FA190000 		.4byte	0x19fa
 3307 08b0 BC080000 		.4byte	0x8bc
 3308 08b4 1B       		.uleb128 0x1b
 3309 08b5 01       		.byte	0x1
 3310 08b6 50       		.byte	0x50
 3311 08b7 03       		.byte	0x3
 3312 08b8 7D       		.byte	0x7d
 3313 08b9 54       		.sleb128 -44
 3314 08ba 06       		.byte	0x6
 3315 08bb 00       		.byte	0
 3316 08bc 1A       		.uleb128 0x1a
 3317 08bd 74070000 		.4byte	.LVL277
 3318 08c1 E0190000 		.4byte	0x19e0
 3319 08c5 D3080000 		.4byte	0x8d3
 3320 08c9 1B       		.uleb128 0x1b
 3321 08ca 01       		.byte	0x1
 3322 08cb 50       		.byte	0x50
 3323 08cc 05       		.byte	0x5
 3324 08cd 03       		.byte	0x3
 3325 08ce B8010000 		.4byte	.LC15
 3326 08d2 00       		.byte	0
 3327 08d3 1A       		.uleb128 0x1a
 3328 08d4 7C070000 		.4byte	.LVL278
 3329 08d8 E0190000 		.4byte	0x19e0
 3330 08dc EA080000 		.4byte	0x8ea
 3331 08e0 1B       		.uleb128 0x1b
 3332 08e1 01       		.byte	0x1
ARM GAS  G:\Users\Jaxb\AppData\Local\Temp\ccLceCCb.s 			page 77


 3333 08e2 50       		.byte	0x50
 3334 08e3 05       		.byte	0x5
 3335 08e4 03       		.byte	0x3
 3336 08e5 38010000 		.4byte	.LC11
 3337 08e9 00       		.byte	0
 3338 08ea 1C       		.uleb128 0x1c
 3339 08eb 84070000 		.4byte	.LVL279
 3340 08ef E0190000 		.4byte	0x19e0
 3341 08f3 1B       		.uleb128 0x1b
 3342 08f4 01       		.byte	0x1
 3343 08f5 50       		.byte	0x50
 3344 08f6 05       		.byte	0x5
 3345 08f7 03       		.byte	0x3
 3346 08f8 78010000 		.4byte	.LC13
 3347 08fc 00       		.byte	0
 3348 08fd 00       		.byte	0
 3349 08fe 09       		.uleb128 0x9
 3350 08ff 04       		.byte	0x4
 3351 0900 04090000 		.4byte	0x904
 3352 0904 09       		.uleb128 0x9
 3353 0905 04       		.byte	0x4
 3354 0906 BC010000 		.4byte	0x1bc
 3355 090a 09       		.uleb128 0x9
 3356 090b 04       		.byte	0x4
 3357 090c F0000000 		.4byte	0xf0
 3358 0910 09       		.uleb128 0x9
 3359 0911 04       		.byte	0x4
 3360 0912 FF000000 		.4byte	0xff
 3361 0916 09       		.uleb128 0x9
 3362 0917 04       		.byte	0x4
 3363 0918 44010000 		.4byte	0x144
 3364 091c 09       		.uleb128 0x9
 3365 091d 04       		.byte	0x4
 3366 091e AC000000 		.4byte	0xac
 3367 0922 09       		.uleb128 0x9
 3368 0923 04       		.byte	0x4
 3369 0924 FA000000 		.4byte	0xfa
 3370 0928 13       		.uleb128 0x13
 3371 0929 01       		.byte	0x1
 3372 092a 16020000 		.4byte	.LASF75
 3373 092e 01       		.byte	0x1
 3374 092f 6A01     		.2byte	0x16a
 3375 0931 01       		.byte	0x1
 3376 0932 C0040000 		.4byte	.LFB24
 3377 0936 A0050000 		.4byte	.LFE24
 3378 093a 51020000 		.4byte	.LLST97
 3379 093e 01       		.byte	0x1
 3380 093f 7D0B0000 		.4byte	0xb7d
 3381 0943 14       		.uleb128 0x14
 3382 0944 74000000 		.4byte	.LASF66
 3383 0948 01       		.byte	0x1
 3384 0949 6A01     		.2byte	0x16a
 3385 094b 33000000 		.4byte	0x33
 3386 094f 89020000 		.4byte	.LLST98
 3387 0953 14       		.uleb128 0x14
 3388 0954 27020000 		.4byte	.LASF67
 3389 0958 01       		.byte	0x1
ARM GAS  G:\Users\Jaxb\AppData\Local\Temp\ccLceCCb.s 			page 78


 3390 0959 6A01     		.2byte	0x16a
 3391 095b FE080000 		.4byte	0x8fe
 3392 095f AA020000 		.4byte	.LLST99
 3393 0963 15       		.uleb128 0x15
 3394 0964 706F7300 		.ascii	"pos\000"
 3395 0968 01       		.byte	0x1
 3396 0969 6E01     		.2byte	0x16e
 3397 096b B1000000 		.4byte	0xb1
 3398 096f CB020000 		.4byte	.LLST100
 3399 0973 16       		.uleb128 0x16
 3400 0974 44040000 		.4byte	.LASF68
 3401 0978 01       		.byte	0x1
 3402 0979 6F01     		.2byte	0x16f
 3403 097b 0A090000 		.4byte	0x90a
 3404 097f E9020000 		.4byte	.LLST101
 3405 0983 16       		.uleb128 0x16
 3406 0984 A0020000 		.4byte	.LASF69
 3407 0988 01       		.byte	0x1
 3408 0989 7001     		.2byte	0x170
 3409 098b 10090000 		.4byte	0x910
 3410 098f 07030000 		.4byte	.LLST102
 3411 0993 15       		.uleb128 0x15
 3412 0994 6900     		.ascii	"i\000"
 3413 0996 01       		.byte	0x1
 3414 0997 7101     		.2byte	0x171
 3415 0999 33000000 		.4byte	0x33
 3416 099d 25030000 		.4byte	.LLST103
 3417 09a1 16       		.uleb128 0x16
 3418 09a2 01060000 		.4byte	.LASF71
 3419 09a6 01       		.byte	0x1
 3420 09a7 7201     		.2byte	0x172
 3421 09a9 C2030000 		.4byte	0x3c2
 3422 09ad 4F030000 		.4byte	.LLST104
 3423 09b1 17       		.uleb128 0x17
 3424 09b2 C3090000 		.4byte	0x9c3
 3425 09b6 18       		.uleb128 0x18
 3426 09b7 22010000 		.4byte	.LASF72
 3427 09bb 01       		.byte	0x1
 3428 09bc 7701     		.2byte	0x177
 3429 09be 1C090000 		.4byte	0x91c
 3430 09c2 00       		.byte	0
 3431 09c3 17       		.uleb128 0x17
 3432 09c4 D5090000 		.4byte	0x9d5
 3433 09c8 18       		.uleb128 0x18
 3434 09c9 22010000 		.4byte	.LASF72
 3435 09cd 01       		.byte	0x1
 3436 09ce 7901     		.2byte	0x179
 3437 09d0 22090000 		.4byte	0x922
 3438 09d4 00       		.byte	0
 3439 09d5 1D       		.uleb128 0x1d
 3440 09d6 FC040000 		.4byte	.LBB324
 3441 09da 0C050000 		.4byte	.LBE324
 3442 09de 160A0000 		.4byte	0xa16
 3443 09e2 16       		.uleb128 0x16
 3444 09e3 C6040000 		.4byte	.LASF73
 3445 09e7 01       		.byte	0x1
 3446 09e8 7C01     		.2byte	0x17c
ARM GAS  G:\Users\Jaxb\AppData\Local\Temp\ccLceCCb.s 			page 79


 3447 09ea B1000000 		.4byte	0xb1
 3448 09ee 8F030000 		.4byte	.LLST105
 3449 09f2 15       		.uleb128 0x15
 3450 09f3 6E756D00 		.ascii	"num\000"
 3451 09f7 01       		.byte	0x1
 3452 09f8 7D01     		.2byte	0x17d
 3453 09fa 33000000 		.4byte	0x33
 3454 09fe AD030000 		.4byte	.LLST106
 3455 0a02 1C       		.uleb128 0x1c
 3456 0a03 0C050000 		.4byte	.LVL200
 3457 0a07 E0190000 		.4byte	0x19e0
 3458 0a0b 1B       		.uleb128 0x1b
 3459 0a0c 01       		.byte	0x1
 3460 0a0d 50       		.byte	0x50
 3461 0a0e 05       		.byte	0x5
 3462 0a0f 03       		.byte	0x3
 3463 0a10 18010000 		.4byte	.LC10
 3464 0a14 00       		.byte	0
 3465 0a15 00       		.byte	0
 3466 0a16 1D       		.uleb128 0x1d
 3467 0a17 16050000 		.4byte	.LBB328
 3468 0a1b 26050000 		.4byte	.LBE328
 3469 0a1f 570A0000 		.4byte	0xa57
 3470 0a23 16       		.uleb128 0x16
 3471 0a24 C6040000 		.4byte	.LASF73
 3472 0a28 01       		.byte	0x1
 3473 0a29 8A01     		.2byte	0x18a
 3474 0a2b B1000000 		.4byte	0xb1
 3475 0a2f C0030000 		.4byte	.LLST107
 3476 0a33 15       		.uleb128 0x15
 3477 0a34 6E756D00 		.ascii	"num\000"
 3478 0a38 01       		.byte	0x1
 3479 0a39 8B01     		.2byte	0x18b
 3480 0a3b 33000000 		.4byte	0x33
 3481 0a3f DE030000 		.4byte	.LLST108
 3482 0a43 1C       		.uleb128 0x1c
 3483 0a44 26050000 		.4byte	.LVL204
 3484 0a48 E0190000 		.4byte	0x19e0
 3485 0a4c 1B       		.uleb128 0x1b
 3486 0a4d 01       		.byte	0x1
 3487 0a4e 50       		.byte	0x50
 3488 0a4f 05       		.byte	0x5
 3489 0a50 03       		.byte	0x3
 3490 0a51 54010000 		.4byte	.LC12
 3491 0a55 00       		.byte	0
 3492 0a56 00       		.byte	0
 3493 0a57 1D       		.uleb128 0x1d
 3494 0a58 30050000 		.4byte	.LBB331
 3495 0a5c 40050000 		.4byte	.LBE331
 3496 0a60 980A0000 		.4byte	0xa98
 3497 0a64 16       		.uleb128 0x16
 3498 0a65 C6040000 		.4byte	.LASF73
 3499 0a69 01       		.byte	0x1
 3500 0a6a 9801     		.2byte	0x198
 3501 0a6c B1000000 		.4byte	0xb1
 3502 0a70 F1030000 		.4byte	.LLST109
 3503 0a74 15       		.uleb128 0x15
ARM GAS  G:\Users\Jaxb\AppData\Local\Temp\ccLceCCb.s 			page 80


 3504 0a75 6E756D00 		.ascii	"num\000"
 3505 0a79 01       		.byte	0x1
 3506 0a7a 9901     		.2byte	0x199
 3507 0a7c 33000000 		.4byte	0x33
 3508 0a80 0F040000 		.4byte	.LLST110
 3509 0a84 1C       		.uleb128 0x1c
 3510 0a85 40050000 		.4byte	.LVL208
 3511 0a89 E0190000 		.4byte	0x19e0
 3512 0a8d 1B       		.uleb128 0x1b
 3513 0a8e 01       		.byte	0x1
 3514 0a8f 50       		.byte	0x50
 3515 0a90 05       		.byte	0x5
 3516 0a91 03       		.byte	0x3
 3517 0a92 98010000 		.4byte	.LC14
 3518 0a96 00       		.byte	0
 3519 0a97 00       		.byte	0
 3520 0a98 20       		.uleb128 0x20
 3521 0a99 34160000 		.4byte	0x1634
 3522 0a9d F2040000 		.4byte	.LBB322
 3523 0aa1 F4040000 		.4byte	.LBE322
 3524 0aa5 01       		.byte	0x1
 3525 0aa6 7A01     		.2byte	0x17a
 3526 0aa8 B20A0000 		.4byte	0xab2
 3527 0aac 21       		.uleb128 0x21
 3528 0aad 45160000 		.4byte	0x1645
 3529 0ab1 00       		.byte	0
 3530 0ab2 22       		.uleb128 0x22
 3531 0ab3 34160000 		.4byte	0x1634
 3532 0ab7 0C050000 		.4byte	.LBB325
 3533 0abb 20020000 		.4byte	.Ldebug_ranges0+0x220
 3534 0abf 01       		.byte	0x1
 3535 0ac0 8801     		.2byte	0x188
 3536 0ac2 CC0A0000 		.4byte	0xacc
 3537 0ac6 21       		.uleb128 0x21
 3538 0ac7 45160000 		.4byte	0x1645
 3539 0acb 00       		.byte	0
 3540 0acc 20       		.uleb128 0x20
 3541 0acd 34160000 		.4byte	0x1634
 3542 0ad1 26050000 		.4byte	.LBB329
 3543 0ad5 28050000 		.4byte	.LBE329
 3544 0ad9 01       		.byte	0x1
 3545 0ada 9601     		.2byte	0x196
 3546 0adc E60A0000 		.4byte	0xae6
 3547 0ae0 21       		.uleb128 0x21
 3548 0ae1 45160000 		.4byte	0x1645
 3549 0ae5 00       		.byte	0
 3550 0ae6 1E       		.uleb128 0x1e
 3551 0ae7 C8040000 		.4byte	.LVL190
 3552 0aeb ED190000 		.4byte	0x19ed
 3553 0aef 1A       		.uleb128 0x1a
 3554 0af0 EA040000 		.4byte	.LVL195
 3555 0af4 E0190000 		.4byte	0x19e0
 3556 0af8 090B0000 		.4byte	0xb09
 3557 0afc 1B       		.uleb128 0x1b
 3558 0afd 01       		.byte	0x1
 3559 0afe 50       		.byte	0x50
 3560 0aff 02       		.byte	0x2
ARM GAS  G:\Users\Jaxb\AppData\Local\Temp\ccLceCCb.s 			page 81


 3561 0b00 78       		.byte	0x78
 3562 0b01 00       		.sleb128 0
 3563 0b02 1B       		.uleb128 0x1b
 3564 0b03 01       		.byte	0x1
 3565 0b04 51       		.byte	0x51
 3566 0b05 02       		.byte	0x2
 3567 0b06 75       		.byte	0x75
 3568 0b07 00       		.sleb128 0
 3569 0b08 00       		.byte	0
 3570 0b09 1A       		.uleb128 0x1a
 3571 0b0a F2040000 		.4byte	.LVL196
 3572 0b0e E0190000 		.4byte	0x19e0
 3573 0b12 1D0B0000 		.4byte	0xb1d
 3574 0b16 1B       		.uleb128 0x1b
 3575 0b17 01       		.byte	0x1
 3576 0b18 50       		.byte	0x50
 3577 0b19 02       		.byte	0x2
 3578 0b1a 77       		.byte	0x77
 3579 0b1b 00       		.sleb128 0
 3580 0b1c 00       		.byte	0
 3581 0b1d 1A       		.uleb128 0x1a
 3582 0b1e 46050000 		.4byte	.LVL209
 3583 0b22 E0190000 		.4byte	0x19e0
 3584 0b26 340B0000 		.4byte	0xb34
 3585 0b2a 1B       		.uleb128 0x1b
 3586 0b2b 01       		.byte	0x1
 3587 0b2c 50       		.byte	0x50
 3588 0b2d 05       		.byte	0x5
 3589 0b2e 03       		.byte	0x3
 3590 0b2f D4010000 		.4byte	.LC16
 3591 0b33 00       		.byte	0
 3592 0b34 23       		.uleb128 0x23
 3593 0b35 56050000 		.4byte	.LVL213
 3594 0b39 01       		.byte	0x1
 3595 0b3a FA190000 		.4byte	0x19fa
 3596 0b3e 1A       		.uleb128 0x1a
 3597 0b3f 5C050000 		.4byte	.LVL214
 3598 0b43 E0190000 		.4byte	0x19e0
 3599 0b47 550B0000 		.4byte	0xb55
 3600 0b4b 1B       		.uleb128 0x1b
 3601 0b4c 01       		.byte	0x1
 3602 0b4d 50       		.byte	0x50
 3603 0b4e 05       		.byte	0x5
 3604 0b4f 03       		.byte	0x3
 3605 0b50 B8010000 		.4byte	.LC15
 3606 0b54 00       		.byte	0
 3607 0b55 1A       		.uleb128 0x1a
 3608 0b56 64050000 		.4byte	.LVL215
 3609 0b5a E0190000 		.4byte	0x19e0
 3610 0b5e 690B0000 		.4byte	0xb69
 3611 0b62 1B       		.uleb128 0x1b
 3612 0b63 01       		.byte	0x1
 3613 0b64 50       		.byte	0x50
 3614 0b65 02       		.byte	0x2
 3615 0b66 79       		.byte	0x79
 3616 0b67 00       		.sleb128 0
 3617 0b68 00       		.byte	0
ARM GAS  G:\Users\Jaxb\AppData\Local\Temp\ccLceCCb.s 			page 82


 3618 0b69 1C       		.uleb128 0x1c
 3619 0b6a 74050000 		.4byte	.LVL216
 3620 0b6e E0190000 		.4byte	0x19e0
 3621 0b72 1B       		.uleb128 0x1b
 3622 0b73 01       		.byte	0x1
 3623 0b74 50       		.byte	0x50
 3624 0b75 05       		.byte	0x5
 3625 0b76 03       		.byte	0x3
 3626 0b77 78010000 		.4byte	.LC13
 3627 0b7b 00       		.byte	0
 3628 0b7c 00       		.byte	0
 3629 0b7d 24       		.uleb128 0x24
 3630 0b7e 01       		.byte	0x1
 3631 0b7f 2C020000 		.4byte	.LASF120
 3632 0b83 01       		.byte	0x1
 3633 0b84 3601     		.2byte	0x136
 3634 0b86 01       		.byte	0x1
 3635 0b87 01       		.byte	0x1
 3636 0b88 F50B0000 		.4byte	0xbf5
 3637 0b8c 25       		.uleb128 0x25
 3638 0b8d 70747200 		.ascii	"ptr\000"
 3639 0b91 01       		.byte	0x1
 3640 0b92 3601     		.2byte	0x136
 3641 0b94 B3010000 		.4byte	0x1b3
 3642 0b98 26       		.uleb128 0x26
 3643 0b99 706F7300 		.ascii	"pos\000"
 3644 0b9d 01       		.byte	0x1
 3645 0b9e 3801     		.2byte	0x138
 3646 0ba0 B1000000 		.4byte	0xb1
 3647 0ba4 18       		.uleb128 0x18
 3648 0ba5 A0020000 		.4byte	.LASF69
 3649 0ba9 01       		.byte	0x1
 3650 0baa 3901     		.2byte	0x139
 3651 0bac 10090000 		.4byte	0x910
 3652 0bb0 18       		.uleb128 0x18
 3653 0bb1 44040000 		.4byte	.LASF68
 3654 0bb5 01       		.byte	0x1
 3655 0bb6 3A01     		.2byte	0x13a
 3656 0bb8 0A090000 		.4byte	0x90a
 3657 0bbc 18       		.uleb128 0x18
 3658 0bbd F8040000 		.4byte	.LASF70
 3659 0bc1 01       		.byte	0x1
 3660 0bc2 3B01     		.2byte	0x13b
 3661 0bc4 16090000 		.4byte	0x916
 3662 0bc8 18       		.uleb128 0x18
 3663 0bc9 01060000 		.4byte	.LASF71
 3664 0bcd 01       		.byte	0x1
 3665 0bce 3C01     		.2byte	0x13c
 3666 0bd0 C2030000 		.4byte	0x3c2
 3667 0bd4 17       		.uleb128 0x17
 3668 0bd5 E60B0000 		.4byte	0xbe6
 3669 0bd9 18       		.uleb128 0x18
 3670 0bda 22010000 		.4byte	.LASF72
 3671 0bde 01       		.byte	0x1
 3672 0bdf 4401     		.2byte	0x144
 3673 0be1 1C090000 		.4byte	0x91c
 3674 0be5 00       		.byte	0
ARM GAS  G:\Users\Jaxb\AppData\Local\Temp\ccLceCCb.s 			page 83


 3675 0be6 27       		.uleb128 0x27
 3676 0be7 18       		.uleb128 0x18
 3677 0be8 22010000 		.4byte	.LASF72
 3678 0bec 01       		.byte	0x1
 3679 0bed 4501     		.2byte	0x145
 3680 0bef 22090000 		.4byte	0x922
 3681 0bf3 00       		.byte	0
 3682 0bf4 00       		.byte	0
 3683 0bf5 28       		.uleb128 0x28
 3684 0bf6 01       		.byte	0x1
 3685 0bf7 F1060000 		.4byte	.LASF78
 3686 0bfb 01       		.byte	0x1
 3687 0bfc 2701     		.2byte	0x127
 3688 0bfe 01       		.byte	0x1
 3689 0bff 33000000 		.4byte	0x33
 3690 0c03 78030000 		.4byte	.LFB22
 3691 0c07 B8030000 		.4byte	.LFE22
 3692 0c0b 22040000 		.4byte	.LLST67
 3693 0c0f 01       		.byte	0x1
 3694 0c10 800C0000 		.4byte	0xc80
 3695 0c14 29       		.uleb128 0x29
 3696 0c15 70747200 		.ascii	"ptr\000"
 3697 0c19 01       		.byte	0x1
 3698 0c1a 2701     		.2byte	0x127
 3699 0c1c B3010000 		.4byte	0x1b3
 3700 0c20 42040000 		.4byte	.LLST68
 3701 0c24 16       		.uleb128 0x16
 3702 0c25 AB040000 		.4byte	.LASF76
 3703 0c29 01       		.byte	0x1
 3704 0c2a 2901     		.2byte	0x129
 3705 0c2c AB030000 		.4byte	0x3ab
 3706 0c30 6E040000 		.4byte	.LLST69
 3707 0c34 1E       		.uleb128 0x1e
 3708 0c35 80030000 		.4byte	.LVL139
 3709 0c39 071A0000 		.4byte	0x1a07
 3710 0c3d 1A       		.uleb128 0x1a
 3711 0c3e 8C030000 		.4byte	.LVL141
 3712 0c42 141A0000 		.4byte	0x1a14
 3713 0c46 510C0000 		.4byte	0xc51
 3714 0c4a 1B       		.uleb128 0x1b
 3715 0c4b 01       		.byte	0x1
 3716 0c4c 50       		.byte	0x50
 3717 0c4d 02       		.byte	0x2
 3718 0c4e 74       		.byte	0x74
 3719 0c4f 00       		.sleb128 0
 3720 0c50 00       		.byte	0
 3721 0c51 1A       		.uleb128 0x1a
 3722 0c52 96030000 		.4byte	.LVL143
 3723 0c56 211A0000 		.4byte	0x1a21
 3724 0c5a 650C0000 		.4byte	0xc65
 3725 0c5e 1B       		.uleb128 0x1b
 3726 0c5f 01       		.byte	0x1
 3727 0c60 50       		.byte	0x50
 3728 0c61 02       		.byte	0x2
 3729 0c62 75       		.byte	0x75
 3730 0c63 00       		.sleb128 0
 3731 0c64 00       		.byte	0
ARM GAS  G:\Users\Jaxb\AppData\Local\Temp\ccLceCCb.s 			page 84


 3732 0c65 1C       		.uleb128 0x1c
 3733 0c66 AC030000 		.4byte	.LVL148
 3734 0c6a 2E1A0000 		.4byte	0x1a2e
 3735 0c6e 1B       		.uleb128 0x1b
 3736 0c6f 01       		.byte	0x1
 3737 0c70 50       		.byte	0x50
 3738 0c71 05       		.byte	0x5
 3739 0c72 03       		.byte	0x3
 3740 0c73 00000000 		.4byte	.LC0
 3741 0c77 1B       		.uleb128 0x1b
 3742 0c78 01       		.byte	0x1
 3743 0c79 51       		.byte	0x51
 3744 0c7a 03       		.byte	0x3
 3745 0c7b 0A       		.byte	0xa
 3746 0c7c 2A01     		.2byte	0x12a
 3747 0c7e 00       		.byte	0
 3748 0c7f 00       		.byte	0
 3749 0c80 2A       		.uleb128 0x2a
 3750 0c81 FB000000 		.4byte	.LASF81
 3751 0c85 01       		.byte	0x1
 3752 0c86 1401     		.2byte	0x114
 3753 0c88 01       		.byte	0x1
 3754 0c89 16090000 		.4byte	0x916
 3755 0c8d 00000000 		.4byte	.LFB21
 3756 0c91 70000000 		.4byte	.LFE21
 3757 0c95 CE040000 		.4byte	.LLST0
 3758 0c99 01       		.byte	0x1
 3759 0c9a 850D0000 		.4byte	0xd85
 3760 0c9e 14       		.uleb128 0x14
 3761 0c9f 93010000 		.4byte	.LASF77
 3762 0ca3 01       		.byte	0x1
 3763 0ca4 1401     		.2byte	0x114
 3764 0ca6 B1000000 		.4byte	0xb1
 3765 0caa EE040000 		.4byte	.LLST1
 3766 0cae 29       		.uleb128 0x29
 3767 0caf 70747200 		.ascii	"ptr\000"
 3768 0cb3 01       		.byte	0x1
 3769 0cb4 1401     		.2byte	0x114
 3770 0cb6 B3010000 		.4byte	0x1b3
 3771 0cba 41050000 		.4byte	.LLST2
 3772 0cbe 2B       		.uleb128 0x2b
 3773 0cbf 706F7300 		.ascii	"pos\000"
 3774 0cc3 01       		.byte	0x1
 3775 0cc4 1601     		.2byte	0x116
 3776 0cc6 B1000000 		.4byte	0xb1
 3777 0cca 01       		.byte	0x1
 3778 0ccb 54       		.byte	0x54
 3779 0ccc 16       		.uleb128 0x16
 3780 0ccd F8040000 		.4byte	.LASF70
 3781 0cd1 01       		.byte	0x1
 3782 0cd2 1701     		.2byte	0x117
 3783 0cd4 16090000 		.4byte	0x916
 3784 0cd8 5F050000 		.4byte	.LLST3
 3785 0cdc 1D       		.uleb128 0x1d
 3786 0cdd 52000000 		.4byte	.LBB133
 3787 0ce1 56000000 		.4byte	.LBE133
 3788 0ce5 FA0C0000 		.4byte	0xcfa
ARM GAS  G:\Users\Jaxb\AppData\Local\Temp\ccLceCCb.s 			page 85


 3789 0ce9 16       		.uleb128 0x16
 3790 0cea 22010000 		.4byte	.LASF72
 3791 0cee 01       		.byte	0x1
 3792 0cef 1A01     		.2byte	0x11a
 3793 0cf1 1C090000 		.4byte	0x91c
 3794 0cf5 81050000 		.4byte	.LLST9
 3795 0cf9 00       		.byte	0
 3796 0cfa 22       		.uleb128 0x22
 3797 0cfb 8E160000 		.4byte	0x168e
 3798 0cff 4C000000 		.4byte	.LBB128
 3799 0d03 00000000 		.4byte	.Ldebug_ranges0+0
 3800 0d07 01       		.byte	0x1
 3801 0d08 2001     		.2byte	0x120
 3802 0d0a 4C0D0000 		.4byte	0xd4c
 3803 0d0e 2C       		.uleb128 0x2c
 3804 0d0f A6160000 		.4byte	0x16a6
 3805 0d13 9F050000 		.4byte	.LLST4
 3806 0d17 2C       		.uleb128 0x2c
 3807 0d18 9B160000 		.4byte	0x169b
 3808 0d1c B2050000 		.4byte	.LLST5
 3809 0d20 2D       		.uleb128 0x2d
 3810 0d21 B2160000 		.4byte	0x16b2
 3811 0d25 56000000 		.4byte	.LBB130
 3812 0d29 5E000000 		.4byte	.LBE130
 3813 0d2d 02       		.byte	0x2
 3814 0d2e 24       		.byte	0x24
 3815 0d2f 2C       		.uleb128 0x2c
 3816 0d30 D5160000 		.4byte	0x16d5
 3817 0d34 C5050000 		.4byte	.LLST6
 3818 0d38 2C       		.uleb128 0x2c
 3819 0d39 CA160000 		.4byte	0x16ca
 3820 0d3d 9F050000 		.4byte	.LLST4
 3821 0d41 2C       		.uleb128 0x2c
 3822 0d42 BF160000 		.4byte	0x16bf
 3823 0d46 B2050000 		.4byte	.LLST5
 3824 0d4a 00       		.byte	0
 3825 0d4b 00       		.byte	0
 3826 0d4c 1A       		.uleb128 0x1a
 3827 0d4d 4C000000 		.4byte	.LVL8
 3828 0d51 2E1A0000 		.4byte	0x1a2e
 3829 0d55 6A0D0000 		.4byte	0xd6a
 3830 0d59 1B       		.uleb128 0x1b
 3831 0d5a 01       		.byte	0x1
 3832 0d5b 50       		.byte	0x50
 3833 0d5c 05       		.byte	0x5
 3834 0d5d 03       		.byte	0x3
 3835 0d5e 00000000 		.4byte	.LC0
 3836 0d62 1B       		.uleb128 0x1b
 3837 0d63 01       		.byte	0x1
 3838 0d64 51       		.byte	0x51
 3839 0d65 03       		.byte	0x3
 3840 0d66 0A       		.byte	0xa
 3841 0d67 1F01     		.2byte	0x11f
 3842 0d69 00       		.byte	0
 3843 0d6a 1C       		.uleb128 0x1c
 3844 0d6b 6A000000 		.4byte	.LVL13
 3845 0d6f 2E1A0000 		.4byte	0x1a2e
ARM GAS  G:\Users\Jaxb\AppData\Local\Temp\ccLceCCb.s 			page 86


 3846 0d73 1B       		.uleb128 0x1b
 3847 0d74 01       		.byte	0x1
 3848 0d75 50       		.byte	0x50
 3849 0d76 05       		.byte	0x5
 3850 0d77 03       		.byte	0x3
 3851 0d78 00000000 		.4byte	.LC0
 3852 0d7c 1B       		.uleb128 0x1b
 3853 0d7d 01       		.byte	0x1
 3854 0d7e 51       		.byte	0x51
 3855 0d7f 03       		.byte	0x3
 3856 0d80 0A       		.byte	0xa
 3857 0d81 1D01     		.2byte	0x11d
 3858 0d83 00       		.byte	0
 3859 0d84 00       		.byte	0
 3860 0d85 2E       		.uleb128 0x2e
 3861 0d86 01       		.byte	0x1
 3862 0d87 BD000000 		.4byte	.LASF79
 3863 0d8b 01       		.byte	0x1
 3864 0d8c A3       		.byte	0xa3
 3865 0d8d 01       		.byte	0x1
 3866 0d8e B3010000 		.4byte	0x1b3
 3867 0d92 D0010000 		.4byte	.LFB20
 3868 0d96 78030000 		.4byte	.LFE20
 3869 0d9a D8050000 		.4byte	.LLST23
 3870 0d9e 01       		.byte	0x1
 3871 0d9f E7120000 		.4byte	0x12e7
 3872 0da3 2F       		.uleb128 0x2f
 3873 0da4 66050000 		.4byte	.LASF80
 3874 0da8 01       		.byte	0x1
 3875 0da9 A3       		.byte	0xa3
 3876 0daa 6A000000 		.4byte	0x6a
 3877 0dae F8050000 		.4byte	.LLST24
 3878 0db2 30       		.uleb128 0x30
 3879 0db3 70747200 		.ascii	"ptr\000"
 3880 0db7 01       		.byte	0x1
 3881 0db8 A5       		.byte	0xa5
 3882 0db9 B3010000 		.4byte	0x1b3
 3883 0dbd A1060000 		.4byte	.LLST25
 3884 0dc1 31       		.uleb128 0x31
 3885 0dc2 01060000 		.4byte	.LASF71
 3886 0dc6 01       		.byte	0x1
 3887 0dc7 A6       		.byte	0xa6
 3888 0dc8 C2030000 		.4byte	0x3c2
 3889 0dcc E0060000 		.4byte	.LLST26
 3890 0dd0 19       		.uleb128 0x19
 3891 0dd1 A0000000 		.4byte	.Ldebug_ranges0+0xa0
 3892 0dd5 B3110000 		.4byte	0x11b3
 3893 0dd9 31       		.uleb128 0x31
 3894 0dda 44040000 		.4byte	.LASF68
 3895 0dde 01       		.byte	0x1
 3896 0ddf AE       		.byte	0xae
 3897 0de0 0A090000 		.4byte	0x90a
 3898 0de4 20070000 		.4byte	.LLST33
 3899 0de8 19       		.uleb128 0x19
 3900 0de9 F0000000 		.4byte	.Ldebug_ranges0+0xf0
 3901 0ded 0B110000 		.4byte	0x110b
 3902 0df1 31       		.uleb128 0x31
ARM GAS  G:\Users\Jaxb\AppData\Local\Temp\ccLceCCb.s 			page 87


 3903 0df2 A0020000 		.4byte	.LASF69
 3904 0df6 01       		.byte	0x1
 3905 0df7 B3       		.byte	0xb3
 3906 0df8 10090000 		.4byte	0x910
 3907 0dfc 8B070000 		.4byte	.LLST35
 3908 0e00 17       		.uleb128 0x17
 3909 0e01 110E0000 		.4byte	0xe11
 3910 0e05 32       		.uleb128 0x32
 3911 0e06 22010000 		.4byte	.LASF72
 3912 0e0a 01       		.byte	0x1
 3913 0e0b B3       		.byte	0xb3
 3914 0e0c 22090000 		.4byte	0x922
 3915 0e10 00       		.byte	0
 3916 0e11 1D       		.uleb128 0x1d
 3917 0e12 9E020000 		.4byte	.LBB213
 3918 0e16 D0020000 		.4byte	.LBE213
 3919 0e1a 0A0F0000 		.4byte	0xf0a
 3920 0e1e 31       		.uleb128 0x31
 3921 0e1f F8040000 		.4byte	.LASF70
 3922 0e23 01       		.byte	0x1
 3923 0e24 B7       		.byte	0xb7
 3924 0e25 16090000 		.4byte	0x916
 3925 0e29 EB070000 		.4byte	.LLST43
 3926 0e2d 17       		.uleb128 0x17
 3927 0e2e 3E0E0000 		.4byte	0xe3e
 3928 0e32 32       		.uleb128 0x32
 3929 0e33 22010000 		.4byte	.LASF72
 3930 0e37 01       		.byte	0x1
 3931 0e38 B7       		.byte	0xb7
 3932 0e39 1C090000 		.4byte	0x91c
 3933 0e3d 00       		.byte	0
 3934 0e3e 33       		.uleb128 0x33
 3935 0e3f 51160000 		.4byte	0x1651
 3936 0e43 A8020000 		.4byte	.LBB214
 3937 0e47 B0020000 		.4byte	.LBE214
 3938 0e4b 01       		.byte	0x1
 3939 0e4c B9       		.byte	0xb9
 3940 0e4d 7D0E0000 		.4byte	0xe7d
 3941 0e51 2C       		.uleb128 0x2c
 3942 0e52 5E160000 		.4byte	0x165e
 3943 0e56 00080000 		.4byte	.LLST44
 3944 0e5a 2D       		.uleb128 0x2d
 3945 0e5b 6A160000 		.4byte	0x166a
 3946 0e5f AC020000 		.4byte	.LBB216
 3947 0e63 B0020000 		.4byte	.LBE216
 3948 0e67 02       		.byte	0x2
 3949 0e68 37       		.byte	0x37
 3950 0e69 2C       		.uleb128 0x2c
 3951 0e6a 82160000 		.4byte	0x1682
 3952 0e6e 13080000 		.4byte	.LLST45
 3953 0e72 2C       		.uleb128 0x2c
 3954 0e73 77160000 		.4byte	0x1677
 3955 0e77 26080000 		.4byte	.LLST46
 3956 0e7b 00       		.byte	0
 3957 0e7c 00       		.byte	0
 3958 0e7d 34       		.uleb128 0x34
 3959 0e7e 51160000 		.4byte	0x1651
ARM GAS  G:\Users\Jaxb\AppData\Local\Temp\ccLceCCb.s 			page 88


 3960 0e82 B6020000 		.4byte	.LBB218
 3961 0e86 48010000 		.4byte	.Ldebug_ranges0+0x148
 3962 0e8a 01       		.byte	0x1
 3963 0e8b BC       		.byte	0xbc
 3964 0e8c BC0E0000 		.4byte	0xebc
 3965 0e90 2C       		.uleb128 0x2c
 3966 0e91 5E160000 		.4byte	0x165e
 3967 0e95 39080000 		.4byte	.LLST47
 3968 0e99 2D       		.uleb128 0x2d
 3969 0e9a 6A160000 		.4byte	0x166a
 3970 0e9e BC020000 		.4byte	.LBB220
 3971 0ea2 C0020000 		.4byte	.LBE220
 3972 0ea6 02       		.byte	0x2
 3973 0ea7 37       		.byte	0x37
 3974 0ea8 2C       		.uleb128 0x2c
 3975 0ea9 82160000 		.4byte	0x1682
 3976 0ead 4C080000 		.4byte	.LLST48
 3977 0eb1 2C       		.uleb128 0x2c
 3978 0eb2 77160000 		.4byte	0x1677
 3979 0eb6 5F080000 		.4byte	.LLST49
 3980 0eba 00       		.byte	0
 3981 0ebb 00       		.byte	0
 3982 0ebc 35       		.uleb128 0x35
 3983 0ebd 8E160000 		.4byte	0x168e
 3984 0ec1 BA020000 		.4byte	.LBB223
 3985 0ec5 60010000 		.4byte	.Ldebug_ranges0+0x160
 3986 0ec9 01       		.byte	0x1
 3987 0eca BD       		.byte	0xbd
 3988 0ecb 2C       		.uleb128 0x2c
 3989 0ecc A6160000 		.4byte	0x16a6
 3990 0ed0 72080000 		.4byte	.LLST50
 3991 0ed4 2C       		.uleb128 0x2c
 3992 0ed5 9B160000 		.4byte	0x169b
 3993 0ed9 92080000 		.4byte	.LLST51
 3994 0edd 2D       		.uleb128 0x2d
 3995 0ede B2160000 		.4byte	0x16b2
 3996 0ee2 C4020000 		.4byte	.LBB225
 3997 0ee6 D0020000 		.4byte	.LBE225
 3998 0eea 02       		.byte	0x2
 3999 0eeb 24       		.byte	0x24
 4000 0eec 2C       		.uleb128 0x2c
 4001 0eed D5160000 		.4byte	0x16d5
 4002 0ef1 A5080000 		.4byte	.LLST52
 4003 0ef5 2C       		.uleb128 0x2c
 4004 0ef6 CA160000 		.4byte	0x16ca
 4005 0efa B8080000 		.4byte	.LLST53
 4006 0efe 2C       		.uleb128 0x2c
 4007 0eff BF160000 		.4byte	0x16bf
 4008 0f03 CB080000 		.4byte	.LLST54
 4009 0f07 00       		.byte	0
 4010 0f08 00       		.byte	0
 4011 0f09 00       		.byte	0
 4012 0f0a 1D       		.uleb128 0x1d
 4013 0f0b DC020000 		.4byte	.LBB230
 4014 0f0f 08030000 		.4byte	.LBE230
 4015 0f13 17100000 		.4byte	0x1017
 4016 0f17 31       		.uleb128 0x31
ARM GAS  G:\Users\Jaxb\AppData\Local\Temp\ccLceCCb.s 			page 89


 4017 0f18 F8040000 		.4byte	.LASF70
 4018 0f1c 01       		.byte	0x1
 4019 0f1d C4       		.byte	0xc4
 4020 0f1e 16090000 		.4byte	0x916
 4021 0f22 DE080000 		.4byte	.LLST55
 4022 0f26 17       		.uleb128 0x17
 4023 0f27 370F0000 		.4byte	0xf37
 4024 0f2b 32       		.uleb128 0x32
 4025 0f2c 22010000 		.4byte	.LASF72
 4026 0f30 01       		.byte	0x1
 4027 0f31 C4       		.byte	0xc4
 4028 0f32 1C090000 		.4byte	0x91c
 4029 0f36 00       		.byte	0
 4030 0f37 33       		.uleb128 0x33
 4031 0f38 51160000 		.4byte	0x1651
 4032 0f3c E2020000 		.4byte	.LBB231
 4033 0f40 EA020000 		.4byte	.LBE231
 4034 0f44 01       		.byte	0x1
 4035 0f45 C6       		.byte	0xc6
 4036 0f46 760F0000 		.4byte	0xf76
 4037 0f4a 2C       		.uleb128 0x2c
 4038 0f4b 5E160000 		.4byte	0x165e
 4039 0f4f F3080000 		.4byte	.LLST56
 4040 0f53 2D       		.uleb128 0x2d
 4041 0f54 6A160000 		.4byte	0x166a
 4042 0f58 E6020000 		.4byte	.LBB233
 4043 0f5c EA020000 		.4byte	.LBE233
 4044 0f60 02       		.byte	0x2
 4045 0f61 37       		.byte	0x37
 4046 0f62 2C       		.uleb128 0x2c
 4047 0f63 82160000 		.4byte	0x1682
 4048 0f67 06090000 		.4byte	.LLST57
 4049 0f6b 2C       		.uleb128 0x2c
 4050 0f6c 77160000 		.4byte	0x1677
 4051 0f70 19090000 		.4byte	.LLST58
 4052 0f74 00       		.byte	0
 4053 0f75 00       		.byte	0
 4054 0f76 33       		.uleb128 0x33
 4055 0f77 51160000 		.4byte	0x1651
 4056 0f7b EA020000 		.4byte	.LBB235
 4057 0f7f F2020000 		.4byte	.LBE235
 4058 0f83 01       		.byte	0x1
 4059 0f84 C7       		.byte	0xc7
 4060 0f85 B50F0000 		.4byte	0xfb5
 4061 0f89 2C       		.uleb128 0x2c
 4062 0f8a 5E160000 		.4byte	0x165e
 4063 0f8e 2C090000 		.4byte	.LLST59
 4064 0f92 2D       		.uleb128 0x2d
 4065 0f93 6A160000 		.4byte	0x166a
 4066 0f97 EE020000 		.4byte	.LBB237
 4067 0f9b F2020000 		.4byte	.LBE237
 4068 0f9f 02       		.byte	0x2
 4069 0fa0 37       		.byte	0x37
 4070 0fa1 2C       		.uleb128 0x2c
 4071 0fa2 82160000 		.4byte	0x1682
 4072 0fa6 3F090000 		.4byte	.LLST60
 4073 0faa 2C       		.uleb128 0x2c
ARM GAS  G:\Users\Jaxb\AppData\Local\Temp\ccLceCCb.s 			page 90


 4074 0fab 77160000 		.4byte	0x1677
 4075 0faf 52090000 		.4byte	.LLST61
 4076 0fb3 00       		.byte	0
 4077 0fb4 00       		.byte	0
 4078 0fb5 34       		.uleb128 0x34
 4079 0fb6 8E160000 		.4byte	0x168e
 4080 0fba F2020000 		.4byte	.LBB239
 4081 0fbe 78010000 		.4byte	.Ldebug_ranges0+0x178
 4082 0fc2 01       		.byte	0x1
 4083 0fc3 C8       		.byte	0xc8
 4084 0fc4 06100000 		.4byte	0x1006
 4085 0fc8 2C       		.uleb128 0x2c
 4086 0fc9 A6160000 		.4byte	0x16a6
 4087 0fcd 65090000 		.4byte	.LLST62
 4088 0fd1 2C       		.uleb128 0x2c
 4089 0fd2 9B160000 		.4byte	0x169b
 4090 0fd6 78090000 		.4byte	.LLST63
 4091 0fda 35       		.uleb128 0x35
 4092 0fdb B2160000 		.4byte	0x16b2
 4093 0fdf F6020000 		.4byte	.LBB241
 4094 0fe3 98010000 		.4byte	.Ldebug_ranges0+0x198
 4095 0fe7 02       		.byte	0x2
 4096 0fe8 24       		.byte	0x24
 4097 0fe9 2C       		.uleb128 0x2c
 4098 0fea D5160000 		.4byte	0x16d5
 4099 0fee 8B090000 		.4byte	.LLST64
 4100 0ff2 2C       		.uleb128 0x2c
 4101 0ff3 CA160000 		.4byte	0x16ca
 4102 0ff7 9E090000 		.4byte	.LLST65
 4103 0ffb 2C       		.uleb128 0x2c
 4104 0ffc BF160000 		.4byte	0x16bf
 4105 1000 B1090000 		.4byte	.LLST66
 4106 1004 00       		.byte	0
 4107 1005 00       		.byte	0
 4108 1006 1C       		.uleb128 0x1c
 4109 1007 08030000 		.4byte	.LVL122
 4110 100b FA190000 		.4byte	0x19fa
 4111 100f 1B       		.uleb128 0x1b
 4112 1010 01       		.byte	0x1
 4113 1011 50       		.byte	0x50
 4114 1012 02       		.byte	0x2
 4115 1013 77       		.byte	0x77
 4116 1014 00       		.sleb128 0
 4117 1015 00       		.byte	0
 4118 1016 00       		.byte	0
 4119 1017 19       		.uleb128 0x19
 4120 1018 18010000 		.4byte	.Ldebug_ranges0+0x118
 4121 101c D4100000 		.4byte	0x10d4
 4122 1020 31       		.uleb128 0x31
 4123 1021 F8040000 		.4byte	.LASF70
 4124 1025 01       		.byte	0x1
 4125 1026 CF       		.byte	0xcf
 4126 1027 16090000 		.4byte	0x916
 4127 102b C4090000 		.4byte	.LLST38
 4128 102f 31       		.uleb128 0x31
 4129 1030 99050000 		.4byte	.LASF43
 4130 1034 01       		.byte	0x1
ARM GAS  G:\Users\Jaxb\AppData\Local\Temp\ccLceCCb.s 			page 91


 4131 1035 D0       		.byte	0xd0
 4132 1036 6A000000 		.4byte	0x6a
 4133 103a F8090000 		.4byte	.LLST39
 4134 103e 34       		.uleb128 0x34
 4135 103f 51160000 		.4byte	0x1651
 4136 1043 22030000 		.4byte	.LBB207
 4137 1047 30010000 		.4byte	.Ldebug_ranges0+0x130
 4138 104b 01       		.byte	0x1
 4139 104c D8       		.byte	0xd8
 4140 104d 7D100000 		.4byte	0x107d
 4141 1051 2C       		.uleb128 0x2c
 4142 1052 5E160000 		.4byte	0x165e
 4143 1056 180A0000 		.4byte	.LLST40
 4144 105a 2D       		.uleb128 0x2d
 4145 105b 6A160000 		.4byte	0x166a
 4146 105f 28030000 		.4byte	.LBB209
 4147 1063 2C030000 		.4byte	.LBE209
 4148 1067 02       		.byte	0x2
 4149 1068 37       		.byte	0x37
 4150 1069 2C       		.uleb128 0x2c
 4151 106a 82160000 		.4byte	0x1682
 4152 106e 2B0A0000 		.4byte	.LLST41
 4153 1072 2C       		.uleb128 0x2c
 4154 1073 77160000 		.4byte	0x1677
 4155 1077 3E0A0000 		.4byte	.LLST42
 4156 107b 00       		.byte	0
 4157 107c 00       		.byte	0
 4158 107d 1E       		.uleb128 0x1e
 4159 107e 56020000 		.4byte	.LVL88
 4160 1082 D7130000 		.4byte	0x13d7
 4161 1086 1E       		.uleb128 0x1e
 4162 1087 5C020000 		.4byte	.LVL90
 4163 108b E7120000 		.4byte	0x12e7
 4164 108f 1A       		.uleb128 0x1a
 4165 1090 6A020000 		.4byte	.LVL92
 4166 1094 3B1A0000 		.4byte	0x1a3b
 4167 1098 A9100000 		.4byte	0x10a9
 4168 109c 1B       		.uleb128 0x1b
 4169 109d 01       		.byte	0x1
 4170 109e 50       		.byte	0x50
 4171 109f 02       		.byte	0x2
 4172 10a0 74       		.byte	0x74
 4173 10a1 00       		.sleb128 0
 4174 10a2 1B       		.uleb128 0x1b
 4175 10a3 01       		.byte	0x1
 4176 10a4 51       		.byte	0x51
 4177 10a5 02       		.byte	0x2
 4178 10a6 76       		.byte	0x76
 4179 10a7 00       		.sleb128 0
 4180 10a8 00       		.byte	0
 4181 10a9 1A       		.uleb128 0x1a
 4182 10aa 18030000 		.4byte	.LVL124
 4183 10ae 481A0000 		.4byte	0x1a48
 4184 10b2 C3100000 		.4byte	0x10c3
 4185 10b6 1B       		.uleb128 0x1b
 4186 10b7 01       		.byte	0x1
 4187 10b8 50       		.byte	0x50
ARM GAS  G:\Users\Jaxb\AppData\Local\Temp\ccLceCCb.s 			page 92


 4188 10b9 02       		.byte	0x2
 4189 10ba 79       		.byte	0x79
 4190 10bb 00       		.sleb128 0
 4191 10bc 1B       		.uleb128 0x1b
 4192 10bd 01       		.byte	0x1
 4193 10be 53       		.byte	0x53
 4194 10bf 02       		.byte	0x2
 4195 10c0 78       		.byte	0x78
 4196 10c1 00       		.sleb128 0
 4197 10c2 00       		.byte	0
 4198 10c3 1C       		.uleb128 0x1c
 4199 10c4 34030000 		.4byte	.LVL128
 4200 10c8 FA190000 		.4byte	0x19fa
 4201 10cc 1B       		.uleb128 0x1b
 4202 10cd 01       		.byte	0x1
 4203 10ce 50       		.byte	0x50
 4204 10cf 02       		.byte	0x2
 4205 10d0 77       		.byte	0x77
 4206 10d1 00       		.sleb128 0
 4207 10d2 00       		.byte	0
 4208 10d3 00       		.byte	0
 4209 10d4 33       		.uleb128 0x33
 4210 10d5 34160000 		.4byte	0x1634
 4211 10d9 32020000 		.4byte	.LBB202
 4212 10dd 38020000 		.4byte	.LBE202
 4213 10e1 01       		.byte	0x1
 4214 10e2 B5       		.byte	0xb5
 4215 10e3 F1100000 		.4byte	0x10f1
 4216 10e7 2C       		.uleb128 0x2c
 4217 10e8 45160000 		.4byte	0x1645
 4218 10ec 510A0000 		.4byte	.LLST36
 4219 10f0 00       		.byte	0
 4220 10f1 2D       		.uleb128 0x2d
 4221 10f2 34160000 		.4byte	0x1634
 4222 10f6 3C020000 		.4byte	.LBB204
 4223 10fa 42020000 		.4byte	.LBE204
 4224 10fe 01       		.byte	0x1
 4225 10ff C2       		.byte	0xc2
 4226 1100 2C       		.uleb128 0x2c
 4227 1101 45160000 		.4byte	0x1645
 4228 1105 8D0A0000 		.4byte	.LLST37
 4229 1109 00       		.byte	0
 4230 110a 00       		.byte	0
 4231 110b 19       		.uleb128 0x19
 4232 110c D0000000 		.4byte	.Ldebug_ranges0+0xd0
 4233 1110 99110000 		.4byte	0x1199
 4234 1114 31       		.uleb128 0x31
 4235 1115 A0020000 		.4byte	.LASF69
 4236 1119 01       		.byte	0x1
 4237 111a EB       		.byte	0xeb
 4238 111b 10090000 		.4byte	0x910
 4239 111f D60A0000 		.4byte	.LLST34
 4240 1123 1A       		.uleb128 0x1a
 4241 1124 84020000 		.4byte	.LVL98
 4242 1128 850D0000 		.4byte	0xd85
 4243 112c 37110000 		.4byte	0x1137
 4244 1130 1B       		.uleb128 0x1b
ARM GAS  G:\Users\Jaxb\AppData\Local\Temp\ccLceCCb.s 			page 93


 4245 1131 01       		.byte	0x1
 4246 1132 50       		.byte	0x50
 4247 1133 02       		.byte	0x2
 4248 1134 08       		.byte	0x8
 4249 1135 24       		.byte	0x24
 4250 1136 00       		.byte	0
 4251 1137 1A       		.uleb128 0x1a
 4252 1138 92020000 		.4byte	.LVL100
 4253 113c 551A0000 		.4byte	0x1a55
 4254 1140 51110000 		.4byte	0x1151
 4255 1144 1B       		.uleb128 0x1b
 4256 1145 01       		.byte	0x1
 4257 1146 50       		.byte	0x50
 4258 1147 02       		.byte	0x2
 4259 1148 76       		.byte	0x76
 4260 1149 00       		.sleb128 0
 4261 114a 1B       		.uleb128 0x1b
 4262 114b 01       		.byte	0x1
 4263 114c 52       		.byte	0x52
 4264 114d 02       		.byte	0x2
 4265 114e 75       		.byte	0x75
 4266 114f 00       		.sleb128 0
 4267 1150 00       		.byte	0
 4268 1151 1A       		.uleb128 0x1a
 4269 1152 9A020000 		.4byte	.LVL101
 4270 1156 621A0000 		.4byte	0x1a62
 4271 115a 6B110000 		.4byte	0x116b
 4272 115e 1B       		.uleb128 0x1b
 4273 115f 01       		.byte	0x1
 4274 1160 50       		.byte	0x50
 4275 1161 02       		.byte	0x2
 4276 1162 76       		.byte	0x76
 4277 1163 00       		.sleb128 0
 4278 1164 1B       		.uleb128 0x1b
 4279 1165 01       		.byte	0x1
 4280 1166 51       		.byte	0x51
 4281 1167 02       		.byte	0x2
 4282 1168 75       		.byte	0x75
 4283 1169 00       		.sleb128 0
 4284 116a 00       		.byte	0
 4285 116b 1A       		.uleb128 0x1a
 4286 116c 5E030000 		.4byte	.LVL135
 4287 1170 2E1A0000 		.4byte	0x1a2e
 4288 1174 88110000 		.4byte	0x1188
 4289 1178 1B       		.uleb128 0x1b
 4290 1179 01       		.byte	0x1
 4291 117a 50       		.byte	0x50
 4292 117b 05       		.byte	0x5
 4293 117c 03       		.byte	0x3
 4294 117d 00000000 		.4byte	.LC0
 4295 1181 1B       		.uleb128 0x1b
 4296 1182 01       		.byte	0x1
 4297 1183 51       		.byte	0x51
 4298 1184 02       		.byte	0x2
 4299 1185 08       		.byte	0x8
 4300 1186 EC       		.byte	0xec
 4301 1187 00       		.byte	0
ARM GAS  G:\Users\Jaxb\AppData\Local\Temp\ccLceCCb.s 			page 94


 4302 1188 1C       		.uleb128 0x1c
 4303 1189 66030000 		.4byte	.LVL137
 4304 118d FA190000 		.4byte	0x19fa
 4305 1191 1B       		.uleb128 0x1b
 4306 1192 01       		.byte	0x1
 4307 1193 50       		.byte	0x50
 4308 1194 02       		.byte	0x2
 4309 1195 77       		.byte	0x77
 4310 1196 00       		.sleb128 0
 4311 1197 00       		.byte	0
 4312 1198 00       		.byte	0
 4313 1199 1C       		.uleb128 0x1c
 4314 119a 2C020000 		.4byte	.LVL82
 4315 119e 621A0000 		.4byte	0x1a62
 4316 11a2 1B       		.uleb128 0x1b
 4317 11a3 01       		.byte	0x1
 4318 11a4 50       		.byte	0x50
 4319 11a5 05       		.byte	0x5
 4320 11a6 03       		.byte	0x3
 4321 11a7 04000000 		.4byte	.LANCHOR0+4
 4322 11ab 1B       		.uleb128 0x1b
 4323 11ac 01       		.byte	0x1
 4324 11ad 51       		.byte	0x51
 4325 11ae 02       		.byte	0x2
 4326 11af 75       		.byte	0x75
 4327 11b0 00       		.sleb128 0
 4328 11b1 00       		.byte	0
 4329 11b2 00       		.byte	0
 4330 11b3 19       		.uleb128 0x19
 4331 11b4 38000000 		.4byte	.Ldebug_ranges0+0x38
 4332 11b8 DD120000 		.4byte	0x12dd
 4333 11bc 31       		.uleb128 0x31
 4334 11bd 99050000 		.4byte	.LASF43
 4335 11c1 01       		.byte	0x1
 4336 11c2 FA       		.byte	0xfa
 4337 11c3 33000000 		.4byte	0x33
 4338 11c7 FF0A0000 		.4byte	.LLST27
 4339 11cb 22       		.uleb128 0x22
 4340 11cc 2F150000 		.4byte	0x152f
 4341 11d0 FA010000 		.4byte	.LBB187
 4342 11d4 60000000 		.4byte	.Ldebug_ranges0+0x60
 4343 11d8 01       		.byte	0x1
 4344 11d9 0101     		.2byte	0x101
 4345 11db 36120000 		.4byte	0x1236
 4346 11df 2C       		.uleb128 0x2c
 4347 11e0 4B150000 		.4byte	0x154b
 4348 11e4 1D0B0000 		.4byte	.LLST28
 4349 11e8 2C       		.uleb128 0x2c
 4350 11e9 40150000 		.4byte	0x1540
 4351 11ed 3B0B0000 		.4byte	.LLST29
 4352 11f1 36       		.uleb128 0x36
 4353 11f2 60000000 		.4byte	.Ldebug_ranges0+0x60
 4354 11f6 37       		.uleb128 0x37
 4355 11f7 56150000 		.4byte	0x1556
 4356 11fb 4E0B0000 		.4byte	.LLST30
 4357 11ff 34       		.uleb128 0x34
 4358 1200 F7150000 		.4byte	0x15f7
ARM GAS  G:\Users\Jaxb\AppData\Local\Temp\ccLceCCb.s 			page 95


 4359 1204 08020000 		.4byte	.LBB189
 4360 1208 78000000 		.4byte	.Ldebug_ranges0+0x78
 4361 120c 01       		.byte	0x1
 4362 120d 2B       		.byte	0x2b
 4363 120e 25120000 		.4byte	0x1225
 4364 1212 2C       		.uleb128 0x2c
 4365 1213 0F160000 		.4byte	0x160f
 4366 1217 6C0B0000 		.4byte	.LLST31
 4367 121b 2C       		.uleb128 0x2c
 4368 121c 04160000 		.4byte	0x1604
 4369 1220 840B0000 		.4byte	.LLST32
 4370 1224 00       		.byte	0
 4371 1225 1C       		.uleb128 0x1c
 4372 1226 00020000 		.4byte	.LVL75
 4373 122a 850D0000 		.4byte	0xd85
 4374 122e 1B       		.uleb128 0x1b
 4375 122f 01       		.byte	0x1
 4376 1230 50       		.byte	0x50
 4377 1231 01       		.byte	0x1
 4378 1232 3C       		.byte	0x3c
 4379 1233 00       		.byte	0
 4380 1234 00       		.byte	0
 4381 1235 00       		.byte	0
 4382 1236 1A       		.uleb128 0x1a
 4383 1237 EA010000 		.4byte	.LVL69
 4384 123b D7130000 		.4byte	0x13d7
 4385 123f 4C120000 		.4byte	0x124c
 4386 1243 1B       		.uleb128 0x1b
 4387 1244 01       		.byte	0x1
 4388 1245 50       		.byte	0x50
 4389 1246 04       		.byte	0x4
 4390 1247 75       		.byte	0x75
 4391 1248 00       		.sleb128 0
 4392 1249 3A       		.byte	0x3a
 4393 124a 25       		.byte	0x25
 4394 124b 00       		.byte	0
 4395 124c 1A       		.uleb128 0x1a
 4396 124d F4010000 		.4byte	.LVL71
 4397 1251 E7120000 		.4byte	0x12e7
 4398 1255 60120000 		.4byte	0x1260
 4399 1259 1B       		.uleb128 0x1b
 4400 125a 01       		.byte	0x1
 4401 125b 50       		.byte	0x50
 4402 125c 02       		.byte	0x2
 4403 125d 76       		.byte	0x76
 4404 125e 00       		.sleb128 0
 4405 125f 00       		.byte	0
 4406 1260 1A       		.uleb128 0x1a
 4407 1261 1E020000 		.4byte	.LVL79
 4408 1265 FA190000 		.4byte	0x19fa
 4409 1269 74120000 		.4byte	0x1274
 4410 126d 1B       		.uleb128 0x1b
 4411 126e 01       		.byte	0x1
 4412 126f 50       		.byte	0x50
 4413 1270 02       		.byte	0x2
 4414 1271 77       		.byte	0x77
 4415 1272 00       		.sleb128 0
ARM GAS  G:\Users\Jaxb\AppData\Local\Temp\ccLceCCb.s 			page 96


 4416 1273 00       		.byte	0
 4417 1274 1A       		.uleb128 0x1a
 4418 1275 78020000 		.4byte	.LVL95
 4419 1279 FA190000 		.4byte	0x19fa
 4420 127d 88120000 		.4byte	0x1288
 4421 1281 1B       		.uleb128 0x1b
 4422 1282 01       		.byte	0x1
 4423 1283 50       		.byte	0x50
 4424 1284 02       		.byte	0x2
 4425 1285 77       		.byte	0x77
 4426 1286 00       		.sleb128 0
 4427 1287 00       		.byte	0
 4428 1288 1A       		.uleb128 0x1a
 4429 1289 D6020000 		.4byte	.LVL112
 4430 128d FA190000 		.4byte	0x19fa
 4431 1291 9C120000 		.4byte	0x129c
 4432 1295 1B       		.uleb128 0x1b
 4433 1296 01       		.byte	0x1
 4434 1297 50       		.byte	0x50
 4435 1298 02       		.byte	0x2
 4436 1299 77       		.byte	0x77
 4437 129a 00       		.sleb128 0
 4438 129b 00       		.byte	0
 4439 129c 1A       		.uleb128 0x1a
 4440 129d 40030000 		.4byte	.LVL130
 4441 12a1 E0190000 		.4byte	0x19e0
 4442 12a5 B3120000 		.4byte	0x12b3
 4443 12a9 1B       		.uleb128 0x1b
 4444 12aa 01       		.byte	0x1
 4445 12ab 50       		.byte	0x50
 4446 12ac 05       		.byte	0x5
 4447 12ad 03       		.byte	0x3
 4448 12ae 78000000 		.4byte	.LC6
 4449 12b2 00       		.byte	0
 4450 12b3 1A       		.uleb128 0x1a
 4451 12b4 4A030000 		.4byte	.LVL131
 4452 12b8 6F1A0000 		.4byte	0x1a6f
 4453 12bc CC120000 		.4byte	0x12cc
 4454 12c0 1B       		.uleb128 0x1b
 4455 12c1 01       		.byte	0x1
 4456 12c2 50       		.byte	0x50
 4457 12c3 01       		.byte	0x1
 4458 12c4 32       		.byte	0x32
 4459 12c5 1B       		.uleb128 0x1b
 4460 12c6 01       		.byte	0x1
 4461 12c7 51       		.byte	0x51
 4462 12c8 02       		.byte	0x2
 4463 12c9 78       		.byte	0x78
 4464 12ca 01       		.sleb128 1
 4465 12cb 00       		.byte	0
 4466 12cc 1C       		.uleb128 0x1c
 4467 12cd 54030000 		.4byte	.LVL132
 4468 12d1 7C1A0000 		.4byte	0x1a7c
 4469 12d5 1B       		.uleb128 0x1b
 4470 12d6 01       		.byte	0x1
 4471 12d7 50       		.byte	0x50
 4472 12d8 02       		.byte	0x2
ARM GAS  G:\Users\Jaxb\AppData\Local\Temp\ccLceCCb.s 			page 97


 4473 12d9 75       		.byte	0x75
 4474 12da 00       		.sleb128 0
 4475 12db 00       		.byte	0
 4476 12dc 00       		.byte	0
 4477 12dd 1E       		.uleb128 0x1e
 4478 12de DC010000 		.4byte	.LVL66
 4479 12e2 ED190000 		.4byte	0x19ed
 4480 12e6 00       		.byte	0
 4481 12e7 38       		.uleb128 0x38
 4482 12e8 D9000000 		.4byte	.LASF82
 4483 12ec 01       		.byte	0x1
 4484 12ed 67       		.byte	0x67
 4485 12ee 01       		.byte	0x1
 4486 12ef B3010000 		.4byte	0x1b3
 4487 12f3 70000000 		.4byte	.LFB19
 4488 12f7 08010000 		.4byte	.LFE19
 4489 12fb A60B0000 		.4byte	.LLST10
 4490 12ff 01       		.byte	0x1
 4491 1300 D7130000 		.4byte	0x13d7
 4492 1304 2F       		.uleb128 0x2f
 4493 1305 99050000 		.4byte	.LASF43
 4494 1309 01       		.byte	0x1
 4495 130a 67       		.byte	0x67
 4496 130b 6A000000 		.4byte	0x6a
 4497 130f C60B0000 		.4byte	.LLST11
 4498 1313 31       		.uleb128 0x31
 4499 1314 F8040000 		.4byte	.LASF70
 4500 1318 01       		.byte	0x1
 4501 1319 69       		.byte	0x69
 4502 131a 16090000 		.4byte	0x916
 4503 131e F20B0000 		.4byte	.LLST12
 4504 1322 31       		.uleb128 0x31
 4505 1323 AB040000 		.4byte	.LASF76
 4506 1327 01       		.byte	0x1
 4507 1328 6A       		.byte	0x6a
 4508 1329 AB030000 		.4byte	0x3ab
 4509 132d 6E0C0000 		.4byte	.LLST13
 4510 1331 1E       		.uleb128 0x1e
 4511 1332 78000000 		.4byte	.LVL15
 4512 1336 071A0000 		.4byte	0x1a07
 4513 133a 1E       		.uleb128 0x1e
 4514 133b 96000000 		.4byte	.LVL17
 4515 133f 891A0000 		.4byte	0x1a89
 4516 1343 1E       		.uleb128 0x1e
 4517 1344 A4000000 		.4byte	.LVL19
 4518 1348 961A0000 		.4byte	0x1a96
 4519 134c 1E       		.uleb128 0x1e
 4520 134d B2000000 		.4byte	.LVL21
 4521 1351 A31A0000 		.4byte	0x1aa3
 4522 1355 1E       		.uleb128 0x1e
 4523 1356 C0000000 		.4byte	.LVL23
 4524 135a B01A0000 		.4byte	0x1ab0
 4525 135e 1A       		.uleb128 0x1a
 4526 135f D0000000 		.4byte	.LVL25
 4527 1363 141A0000 		.4byte	0x1a14
 4528 1367 72130000 		.4byte	0x1372
 4529 136b 1B       		.uleb128 0x1b
ARM GAS  G:\Users\Jaxb\AppData\Local\Temp\ccLceCCb.s 			page 98


 4530 136c 01       		.byte	0x1
 4531 136d 50       		.byte	0x50
 4532 136e 02       		.byte	0x2
 4533 136f 74       		.byte	0x74
 4534 1370 00       		.sleb128 0
 4535 1371 00       		.byte	0
 4536 1372 1A       		.uleb128 0x1a
 4537 1373 DE000000 		.4byte	.LVL28
 4538 1377 E0190000 		.4byte	0x19e0
 4539 137b 89130000 		.4byte	0x1389
 4540 137f 1B       		.uleb128 0x1b
 4541 1380 01       		.byte	0x1
 4542 1381 50       		.byte	0x50
 4543 1382 05       		.byte	0x5
 4544 1383 03       		.byte	0x3
 4545 1384 28000000 		.4byte	.LC1
 4546 1388 00       		.byte	0
 4547 1389 1A       		.uleb128 0x1a
 4548 138a E6000000 		.4byte	.LVL29
 4549 138e 2E1A0000 		.4byte	0x1a2e
 4550 1392 A6130000 		.4byte	0x13a6
 4551 1396 1B       		.uleb128 0x1b
 4552 1397 01       		.byte	0x1
 4553 1398 50       		.byte	0x50
 4554 1399 05       		.byte	0x5
 4555 139a 03       		.byte	0x3
 4556 139b 00000000 		.4byte	.LC0
 4557 139f 1B       		.uleb128 0x1b
 4558 13a0 01       		.byte	0x1
 4559 13a1 51       		.byte	0x51
 4560 13a2 02       		.byte	0x2
 4561 13a3 08       		.byte	0x8
 4562 13a4 9B       		.byte	0x9b
 4563 13a5 00       		.byte	0
 4564 13a6 1A       		.uleb128 0x1a
 4565 13a7 F2000000 		.4byte	.LVL32
 4566 13ab 2E1A0000 		.4byte	0x1a2e
 4567 13af C3130000 		.4byte	0x13c3
 4568 13b3 1B       		.uleb128 0x1b
 4569 13b4 01       		.byte	0x1
 4570 13b5 50       		.byte	0x50
 4571 13b6 05       		.byte	0x5
 4572 13b7 03       		.byte	0x3
 4573 13b8 00000000 		.4byte	.LC0
 4574 13bc 1B       		.uleb128 0x1b
 4575 13bd 01       		.byte	0x1
 4576 13be 51       		.byte	0x51
 4577 13bf 02       		.byte	0x2
 4578 13c0 08       		.byte	0x8
 4579 13c1 6B       		.byte	0x6b
 4580 13c2 00       		.byte	0
 4581 13c3 1C       		.uleb128 0x1c
 4582 13c4 F8000000 		.4byte	.LVL33
 4583 13c8 E0190000 		.4byte	0x19e0
 4584 13cc 1B       		.uleb128 0x1b
 4585 13cd 01       		.byte	0x1
 4586 13ce 50       		.byte	0x50
ARM GAS  G:\Users\Jaxb\AppData\Local\Temp\ccLceCCb.s 			page 99


 4587 13cf 05       		.byte	0x5
 4588 13d0 03       		.byte	0x3
 4589 13d1 40000000 		.4byte	.LC2
 4590 13d5 00       		.byte	0
 4591 13d6 00       		.byte	0
 4592 13d7 39       		.uleb128 0x39
 4593 13d8 01       		.byte	0x1
 4594 13d9 4A030000 		.4byte	.LASF83
 4595 13dd 01       		.byte	0x1
 4596 13de 5B       		.byte	0x5b
 4597 13df 01       		.byte	0x1
 4598 13e0 33000000 		.4byte	0x33
 4599 13e4 9C010000 		.4byte	.LFB18
 4600 13e8 D0010000 		.4byte	.LFE18
 4601 13ec 02       		.byte	0x2
 4602 13ed 7D       		.byte	0x7d
 4603 13ee 00       		.sleb128 0
 4604 13ef 01       		.byte	0x1
 4605 13f0 11140000 		.4byte	0x1411
 4606 13f4 3A       		.uleb128 0x3a
 4607 13f5 6E756D00 		.ascii	"num\000"
 4608 13f9 01       		.byte	0x1
 4609 13fa 5B       		.byte	0x5b
 4610 13fb 6A000000 		.4byte	0x6a
 4611 13ff FA0C0000 		.4byte	.LLST21
 4612 1403 30       		.uleb128 0x30
 4613 1404 6E00     		.ascii	"n\000"
 4614 1406 01       		.byte	0x1
 4615 1407 5D       		.byte	0x5d
 4616 1408 33000000 		.4byte	0x33
 4617 140c B80D0000 		.4byte	.LLST22
 4618 1410 00       		.byte	0
 4619 1411 3B       		.uleb128 0x3b
 4620 1412 01       		.byte	0x1
 4621 1413 16000000 		.4byte	.LASF84
 4622 1417 01       		.byte	0x1
 4623 1418 49       		.byte	0x49
 4624 1419 01       		.byte	0x1
 4625 141a 58010000 		.4byte	.LFB17
 4626 141e 9C010000 		.4byte	.LFE17
 4627 1422 FA0D0000 		.4byte	.LLST18
 4628 1426 01       		.byte	0x1
 4629 1427 E3140000 		.4byte	0x14e3
 4630 142b 34       		.uleb128 0x34
 4631 142c E1160000 		.4byte	0x16e1
 4632 1430 5A010000 		.4byte	.LBB135
 4633 1434 18000000 		.4byte	.Ldebug_ranges0+0x18
 4634 1438 01       		.byte	0x1
 4635 1439 4B       		.byte	0x4b
 4636 143a 48140000 		.4byte	0x1448
 4637 143e 2C       		.uleb128 0x2c
 4638 143f EE160000 		.4byte	0x16ee
 4639 1443 1A0E0000 		.4byte	.LLST19
 4640 1447 00       		.byte	0
 4641 1448 33       		.uleb128 0x33
 4642 1449 1B160000 		.4byte	0x161b
 4643 144d 92010000 		.4byte	.LBB141
ARM GAS  G:\Users\Jaxb\AppData\Local\Temp\ccLceCCb.s 			page 100


 4644 1451 94010000 		.4byte	.LBE141
 4645 1455 01       		.byte	0x1
 4646 1456 50       		.byte	0x50
 4647 1457 65140000 		.4byte	0x1465
 4648 145b 2C       		.uleb128 0x2c
 4649 145c 28160000 		.4byte	0x1628
 4650 1460 320E0000 		.4byte	.LLST20
 4651 1464 00       		.byte	0
 4652 1465 1A       		.uleb128 0x1a
 4653 1466 6E010000 		.4byte	.LVL47
 4654 146a 551A0000 		.4byte	0x1a55
 4655 146e 85140000 		.4byte	0x1485
 4656 1472 1B       		.uleb128 0x1b
 4657 1473 01       		.byte	0x1
 4658 1474 50       		.byte	0x50
 4659 1475 02       		.byte	0x2
 4660 1476 75       		.byte	0x75
 4661 1477 00       		.sleb128 0
 4662 1478 1B       		.uleb128 0x1b
 4663 1479 01       		.byte	0x1
 4664 147a 51       		.byte	0x51
 4665 147b 02       		.byte	0x2
 4666 147c 74       		.byte	0x74
 4667 147d 0C       		.sleb128 12
 4668 147e 1B       		.uleb128 0x1b
 4669 147f 01       		.byte	0x1
 4670 1480 52       		.byte	0x52
 4671 1481 02       		.byte	0x2
 4672 1482 08       		.byte	0x8
 4673 1483 48       		.byte	0x48
 4674 1484 00       		.byte	0
 4675 1485 1A       		.uleb128 0x1a
 4676 1486 7A010000 		.4byte	.LVL48
 4677 148a 551A0000 		.4byte	0x1a55
 4678 148e A5140000 		.4byte	0x14a5
 4679 1492 1B       		.uleb128 0x1b
 4680 1493 01       		.byte	0x1
 4681 1494 50       		.byte	0x50
 4682 1495 02       		.byte	0x2
 4683 1496 75       		.byte	0x75
 4684 1497 00       		.sleb128 0
 4685 1498 1B       		.uleb128 0x1b
 4686 1499 01       		.byte	0x1
 4687 149a 51       		.byte	0x51
 4688 149b 02       		.byte	0x2
 4689 149c 74       		.byte	0x74
 4690 149d 30       		.sleb128 48
 4691 149e 1B       		.uleb128 0x1b
 4692 149f 01       		.byte	0x1
 4693 14a0 52       		.byte	0x52
 4694 14a1 02       		.byte	0x2
 4695 14a2 08       		.byte	0x8
 4696 14a3 24       		.byte	0x24
 4697 14a4 00       		.byte	0
 4698 14a5 1A       		.uleb128 0x1a
 4699 14a6 86010000 		.4byte	.LVL49
 4700 14aa 551A0000 		.4byte	0x1a55
ARM GAS  G:\Users\Jaxb\AppData\Local\Temp\ccLceCCb.s 			page 101


 4701 14ae C6140000 		.4byte	0x14c6
 4702 14b2 1B       		.uleb128 0x1b
 4703 14b3 01       		.byte	0x1
 4704 14b4 50       		.byte	0x50
 4705 14b5 02       		.byte	0x2
 4706 14b6 75       		.byte	0x75
 4707 14b7 00       		.sleb128 0
 4708 14b8 1B       		.uleb128 0x1b
 4709 14b9 01       		.byte	0x1
 4710 14ba 51       		.byte	0x51
 4711 14bb 03       		.byte	0x3
 4712 14bc 74       		.byte	0x74
 4713 14bd D400     		.sleb128 84
 4714 14bf 1B       		.uleb128 0x1b
 4715 14c0 01       		.byte	0x1
 4716 14c1 52       		.byte	0x52
 4717 14c2 02       		.byte	0x2
 4718 14c3 08       		.byte	0x8
 4719 14c4 20       		.byte	0x20
 4720 14c5 00       		.byte	0
 4721 14c6 1C       		.uleb128 0x1c
 4722 14c7 92010000 		.4byte	.LVL50
 4723 14cb 551A0000 		.4byte	0x1a55
 4724 14cf 1B       		.uleb128 0x1b
 4725 14d0 01       		.byte	0x1
 4726 14d1 50       		.byte	0x50
 4727 14d2 02       		.byte	0x2
 4728 14d3 75       		.byte	0x75
 4729 14d4 00       		.sleb128 0
 4730 14d5 1B       		.uleb128 0x1b
 4731 14d6 01       		.byte	0x1
 4732 14d7 51       		.byte	0x51
 4733 14d8 03       		.byte	0x3
 4734 14d9 74       		.byte	0x74
 4735 14da F800     		.sleb128 120
 4736 14dc 1B       		.uleb128 0x1b
 4737 14dd 01       		.byte	0x1
 4738 14de 52       		.byte	0x52
 4739 14df 01       		.byte	0x1
 4740 14e0 40       		.byte	0x40
 4741 14e1 00       		.byte	0
 4742 14e2 00       		.byte	0
 4743 14e3 3C       		.uleb128 0x3c
 4744 14e4 7D050000 		.4byte	.LASF86
 4745 14e8 01       		.byte	0x1
 4746 14e9 37       		.byte	0x37
 4747 14ea 01       		.byte	0x1
 4748 14eb 33000000 		.4byte	0x33
 4749 14ef 01       		.byte	0x1
 4750 14f0 23150000 		.4byte	0x1523
 4751 14f4 3D       		.uleb128 0x3d
 4752 14f5 70747200 		.ascii	"ptr\000"
 4753 14f9 01       		.byte	0x1
 4754 14fa 37       		.byte	0x37
 4755 14fb B3010000 		.4byte	0x1b3
 4756 14ff 3E       		.uleb128 0x3e
 4757 1500 706F7300 		.ascii	"pos\000"
ARM GAS  G:\Users\Jaxb\AppData\Local\Temp\ccLceCCb.s 			page 102


 4758 1504 01       		.byte	0x1
 4759 1505 39       		.byte	0x39
 4760 1506 E1010000 		.4byte	0x1e1
 4761 150a 32       		.uleb128 0x32
 4762 150b B3010000 		.4byte	.LASF85
 4763 150f 01       		.byte	0x1
 4764 1510 3A       		.byte	0x3a
 4765 1511 23150000 		.4byte	0x1523
 4766 1515 27       		.uleb128 0x27
 4767 1516 32       		.uleb128 0x32
 4768 1517 22010000 		.4byte	.LASF72
 4769 151b 01       		.byte	0x1
 4770 151c 3D       		.byte	0x3d
 4771 151d 29150000 		.4byte	0x1529
 4772 1521 00       		.byte	0
 4773 1522 00       		.byte	0
 4774 1523 09       		.uleb128 0x9
 4775 1524 04       		.byte	0x4
 4776 1525 B5020000 		.4byte	0x2b5
 4777 1529 09       		.uleb128 0x9
 4778 152a 04       		.byte	0x4
 4779 152b DC010000 		.4byte	0x1dc
 4780 152f 3C       		.uleb128 0x3c
 4781 1530 00000000 		.4byte	.LASF87
 4782 1534 01       		.byte	0x1
 4783 1535 22       		.byte	0x22
 4784 1536 01       		.byte	0x1
 4785 1537 33000000 		.4byte	0x33
 4786 153b 01       		.byte	0x1
 4787 153c 62150000 		.4byte	0x1562
 4788 1540 3F       		.uleb128 0x3f
 4789 1541 99050000 		.4byte	.LASF43
 4790 1545 01       		.byte	0x1
 4791 1546 22       		.byte	0x22
 4792 1547 6A000000 		.4byte	0x6a
 4793 154b 3D       		.uleb128 0x3d
 4794 154c 70747200 		.ascii	"ptr\000"
 4795 1550 01       		.byte	0x1
 4796 1551 22       		.byte	0x22
 4797 1552 B3010000 		.4byte	0x1b3
 4798 1556 32       		.uleb128 0x32
 4799 1557 AB050000 		.4byte	.LASF88
 4800 155b 01       		.byte	0x1
 4801 155c 24       		.byte	0x24
 4802 155d 23150000 		.4byte	0x1523
 4803 1561 00       		.byte	0
 4804 1562 3B       		.uleb128 0x3b
 4805 1563 01       		.byte	0x1
 4806 1564 87000000 		.4byte	.LASF89
 4807 1568 01       		.byte	0x1
 4808 1569 14       		.byte	0x14
 4809 156a 01       		.byte	0x1
 4810 156b 08010000 		.4byte	.LFB14
 4811 156f 58010000 		.4byte	.LFE14
 4812 1573 4A0E0000 		.4byte	.LLST14
 4813 1577 01       		.byte	0x1
 4814 1578 F7150000 		.4byte	0x15f7
ARM GAS  G:\Users\Jaxb\AppData\Local\Temp\ccLceCCb.s 			page 103


 4815 157c 30       		.uleb128 0x30
 4816 157d 6900     		.ascii	"i\000"
 4817 157f 01       		.byte	0x1
 4818 1580 16       		.byte	0x16
 4819 1581 6A000000 		.4byte	0x6a
 4820 1585 6A0E0000 		.4byte	.LLST15
 4821 1589 30       		.uleb128 0x30
 4822 158a 706F7300 		.ascii	"pos\000"
 4823 158e 01       		.byte	0x1
 4824 158f 17       		.byte	0x17
 4825 1590 E1010000 		.4byte	0x1e1
 4826 1594 890E0000 		.4byte	.LLST16
 4827 1598 31       		.uleb128 0x31
 4828 1599 B3010000 		.4byte	.LASF85
 4829 159d 01       		.byte	0x1
 4830 159e 18       		.byte	0x18
 4831 159f 23150000 		.4byte	0x1523
 4832 15a3 9C0E0000 		.4byte	.LLST17
 4833 15a7 17       		.uleb128 0x17
 4834 15a8 B8150000 		.4byte	0x15b8
 4835 15ac 32       		.uleb128 0x32
 4836 15ad 22010000 		.4byte	.LASF72
 4837 15b1 01       		.byte	0x1
 4838 15b2 1B       		.byte	0x1b
 4839 15b3 29150000 		.4byte	0x1529
 4840 15b7 00       		.byte	0
 4841 15b8 1A       		.uleb128 0x1a
 4842 15b9 2A010000 		.4byte	.LVL39
 4843 15bd E0190000 		.4byte	0x19e0
 4844 15c1 D2150000 		.4byte	0x15d2
 4845 15c5 1B       		.uleb128 0x1b
 4846 15c6 01       		.byte	0x1
 4847 15c7 50       		.byte	0x50
 4848 15c8 02       		.byte	0x2
 4849 15c9 79       		.byte	0x79
 4850 15ca 00       		.sleb128 0
 4851 15cb 1B       		.uleb128 0x1b
 4852 15cc 01       		.byte	0x1
 4853 15cd 51       		.byte	0x51
 4854 15ce 02       		.byte	0x2
 4855 15cf 75       		.byte	0x75
 4856 15d0 00       		.sleb128 0
 4857 15d1 00       		.byte	0
 4858 15d2 1A       		.uleb128 0x1a
 4859 15d3 34010000 		.4byte	.LVL40
 4860 15d7 E0190000 		.4byte	0x19e0
 4861 15db E6150000 		.4byte	0x15e6
 4862 15df 1B       		.uleb128 0x1b
 4863 15e0 01       		.byte	0x1
 4864 15e1 50       		.byte	0x50
 4865 15e2 02       		.byte	0x2
 4866 15e3 78       		.byte	0x78
 4867 15e4 00       		.sleb128 0
 4868 15e5 00       		.byte	0
 4869 15e6 1C       		.uleb128 0x1c
 4870 15e7 3E010000 		.4byte	.LVL41
 4871 15eb E0190000 		.4byte	0x19e0
ARM GAS  G:\Users\Jaxb\AppData\Local\Temp\ccLceCCb.s 			page 104


 4872 15ef 1B       		.uleb128 0x1b
 4873 15f0 01       		.byte	0x1
 4874 15f1 50       		.byte	0x50
 4875 15f2 02       		.byte	0x2
 4876 15f3 77       		.byte	0x77
 4877 15f4 00       		.sleb128 0
 4878 15f5 00       		.byte	0
 4879 15f6 00       		.byte	0
 4880 15f7 40       		.uleb128 0x40
 4881 15f8 4F000000 		.4byte	.LASF90
 4882 15fc 03       		.byte	0x3
 4883 15fd 12       		.byte	0x12
 4884 15fe 01       		.byte	0x1
 4885 15ff 03       		.byte	0x3
 4886 1600 1B160000 		.4byte	0x161b
 4887 1604 3D       		.uleb128 0x3d
 4888 1605 6E657700 		.ascii	"new\000"
 4889 1609 03       		.byte	0x3
 4890 160a 12       		.byte	0x12
 4891 160b E1010000 		.4byte	0x1e1
 4892 160f 3F       		.uleb128 0x3f
 4893 1610 93010000 		.4byte	.LASF77
 4894 1614 03       		.byte	0x3
 4895 1615 12       		.byte	0x12
 4896 1616 E1010000 		.4byte	0x1e1
 4897 161a 00       		.byte	0
 4898 161b 40       		.uleb128 0x40
 4899 161c 51010000 		.4byte	.LASF91
 4900 1620 03       		.byte	0x3
 4901 1621 0D       		.byte	0xd
 4902 1622 01       		.byte	0x1
 4903 1623 03       		.byte	0x3
 4904 1624 34160000 		.4byte	0x1634
 4905 1628 3F       		.uleb128 0x3f
 4906 1629 8E010000 		.4byte	.LASF44
 4907 162d 03       		.byte	0x3
 4908 162e 0D       		.byte	0xd
 4909 162f E1010000 		.4byte	0x1e1
 4910 1633 00       		.byte	0
 4911 1634 3C       		.uleb128 0x3c
 4912 1635 E8010000 		.4byte	.LASF92
 4913 1639 02       		.byte	0x2
 4914 163a 52       		.byte	0x52
 4915 163b 01       		.byte	0x1
 4916 163c 33000000 		.4byte	0x33
 4917 1640 03       		.byte	0x3
 4918 1641 51160000 		.4byte	0x1651
 4919 1645 3F       		.uleb128 0x3f
 4920 1646 93010000 		.4byte	.LASF77
 4921 164a 02       		.byte	0x2
 4922 164b 52       		.byte	0x52
 4923 164c 1C090000 		.4byte	0x91c
 4924 1650 00       		.byte	0
 4925 1651 40       		.uleb128 0x40
 4926 1652 EF040000 		.4byte	.LASF93
 4927 1656 02       		.byte	0x2
 4928 1657 35       		.byte	0x35
ARM GAS  G:\Users\Jaxb\AppData\Local\Temp\ccLceCCb.s 			page 105


 4929 1658 01       		.byte	0x1
 4930 1659 03       		.byte	0x3
 4931 165a 6A160000 		.4byte	0x166a
 4932 165e 3F       		.uleb128 0x3f
 4933 165f 44030000 		.4byte	.LASF94
 4934 1663 02       		.byte	0x2
 4935 1664 35       		.byte	0x35
 4936 1665 B1000000 		.4byte	0xb1
 4937 1669 00       		.byte	0
 4938 166a 40       		.uleb128 0x40
 4939 166b 5C030000 		.4byte	.LASF95
 4940 166f 02       		.byte	0x2
 4941 1670 2E       		.byte	0x2e
 4942 1671 01       		.byte	0x1
 4943 1672 03       		.byte	0x3
 4944 1673 8E160000 		.4byte	0x168e
 4945 1677 3F       		.uleb128 0x3f
 4946 1678 D6060000 		.4byte	.LASF11
 4947 167c 02       		.byte	0x2
 4948 167d 2E       		.byte	0x2e
 4949 167e B1000000 		.4byte	0xb1
 4950 1682 3F       		.uleb128 0x3f
 4951 1683 1A070000 		.4byte	.LASF10
 4952 1687 02       		.byte	0x2
 4953 1688 2E       		.byte	0x2e
 4954 1689 B1000000 		.4byte	0xb1
 4955 168d 00       		.byte	0
 4956 168e 40       		.uleb128 0x40
 4957 168f EB000000 		.4byte	.LASF96
 4958 1693 02       		.byte	0x2
 4959 1694 22       		.byte	0x22
 4960 1695 01       		.byte	0x1
 4961 1696 03       		.byte	0x3
 4962 1697 B2160000 		.4byte	0x16b2
 4963 169b 3D       		.uleb128 0x3d
 4964 169c 6E657700 		.ascii	"new\000"
 4965 16a0 02       		.byte	0x2
 4966 16a1 22       		.byte	0x22
 4967 16a2 B1000000 		.4byte	0xb1
 4968 16a6 3F       		.uleb128 0x3f
 4969 16a7 93010000 		.4byte	.LASF77
 4970 16ab 02       		.byte	0x2
 4971 16ac 22       		.byte	0x22
 4972 16ad B1000000 		.4byte	0xb1
 4973 16b1 00       		.byte	0
 4974 16b2 40       		.uleb128 0x40
 4975 16b3 CC010000 		.4byte	.LASF97
 4976 16b7 02       		.byte	0x2
 4977 16b8 17       		.byte	0x17
 4978 16b9 01       		.byte	0x1
 4979 16ba 03       		.byte	0x3
 4980 16bb E1160000 		.4byte	0x16e1
 4981 16bf 3D       		.uleb128 0x3d
 4982 16c0 6E657700 		.ascii	"new\000"
 4983 16c4 02       		.byte	0x2
 4984 16c5 17       		.byte	0x17
 4985 16c6 B1000000 		.4byte	0xb1
ARM GAS  G:\Users\Jaxb\AppData\Local\Temp\ccLceCCb.s 			page 106


 4986 16ca 3F       		.uleb128 0x3f
 4987 16cb D6060000 		.4byte	.LASF11
 4988 16cf 02       		.byte	0x2
 4989 16d0 18       		.byte	0x18
 4990 16d1 B1000000 		.4byte	0xb1
 4991 16d5 3F       		.uleb128 0x3f
 4992 16d6 1A070000 		.4byte	.LASF10
 4993 16da 02       		.byte	0x2
 4994 16db 19       		.byte	0x19
 4995 16dc B1000000 		.4byte	0xb1
 4996 16e0 00       		.byte	0
 4997 16e1 40       		.uleb128 0x40
 4998 16e2 7F010000 		.4byte	.LASF98
 4999 16e6 02       		.byte	0x2
 5000 16e7 10       		.byte	0x10
 5001 16e8 01       		.byte	0x1
 5002 16e9 03       		.byte	0x3
 5003 16ea FA160000 		.4byte	0x16fa
 5004 16ee 3F       		.uleb128 0x3f
 5005 16ef 8E010000 		.4byte	.LASF44
 5006 16f3 02       		.byte	0x2
 5007 16f4 10       		.byte	0x10
 5008 16f5 B1000000 		.4byte	0xb1
 5009 16f9 00       		.byte	0
 5010 16fa 41       		.uleb128 0x41
 5011 16fb 7D0B0000 		.4byte	0xb7d
 5012 16ff B8030000 		.4byte	.LFB23
 5013 1703 C0040000 		.4byte	.LFE23
 5014 1707 B10E0000 		.4byte	.LLST70
 5015 170b 01       		.byte	0x1
 5016 170c E0190000 		.4byte	0x19e0
 5017 1710 2C       		.uleb128 0x2c
 5018 1711 8C0B0000 		.4byte	0xb8c
 5019 1715 0D0F0000 		.4byte	.LLST71
 5020 1719 42       		.uleb128 0x42
 5021 171a 980B0000 		.4byte	0xb98
 5022 171e 42       		.uleb128 0x42
 5023 171f A40B0000 		.4byte	0xba4
 5024 1723 42       		.uleb128 0x42
 5025 1724 B00B0000 		.4byte	0xbb0
 5026 1728 42       		.uleb128 0x42
 5027 1729 BC0B0000 		.4byte	0xbbc
 5028 172d 43       		.uleb128 0x43
 5029 172e C80B0000 		.4byte	0xbc8
 5030 1732 00       		.byte	0
 5031 1733 44       		.uleb128 0x44
 5032 1734 7D0B0000 		.4byte	0xb7d
 5033 1738 B0010000 		.4byte	.Ldebug_ranges0+0x1b0
 5034 173c CF190000 		.4byte	0x19cf
 5035 1740 2C       		.uleb128 0x2c
 5036 1741 8C0B0000 		.4byte	0xb8c
 5037 1745 6B0F0000 		.4byte	.LLST72
 5038 1749 36       		.uleb128 0x36
 5039 174a B0010000 		.4byte	.Ldebug_ranges0+0x1b0
 5040 174e 37       		.uleb128 0x37
 5041 174f 19170000 		.4byte	0x1719
 5042 1753 BE0F0000 		.4byte	.LLST73
ARM GAS  G:\Users\Jaxb\AppData\Local\Temp\ccLceCCb.s 			page 107


 5043 1757 37       		.uleb128 0x37
 5044 1758 1E170000 		.4byte	0x171e
 5045 175c EC0F0000 		.4byte	.LLST74
 5046 1760 37       		.uleb128 0x37
 5047 1761 23170000 		.4byte	0x1723
 5048 1765 EC0F0000 		.4byte	.LLST74
 5049 1769 37       		.uleb128 0x37
 5050 176a 28170000 		.4byte	0x1728
 5051 176e 27100000 		.4byte	.LLST76
 5052 1772 42       		.uleb128 0x42
 5053 1773 2D170000 		.4byte	0x172d
 5054 1777 20       		.uleb128 0x20
 5055 1778 E3140000 		.4byte	0x14e3
 5056 177c 0E040000 		.4byte	.LBB291
 5057 1780 50040000 		.4byte	.LBE291
 5058 1784 01       		.byte	0x1
 5059 1785 6001     		.2byte	0x160
 5060 1787 22180000 		.4byte	0x1822
 5061 178b 2C       		.uleb128 0x2c
 5062 178c F4140000 		.4byte	0x14f4
 5063 1790 68100000 		.4byte	.LLST77
 5064 1794 45       		.uleb128 0x45
 5065 1795 0E040000 		.4byte	.LBB292
 5066 1799 50040000 		.4byte	.LBE292
 5067 179d 37       		.uleb128 0x37
 5068 179e FF140000 		.4byte	0x14ff
 5069 17a2 7B100000 		.4byte	.LLST78
 5070 17a6 37       		.uleb128 0x37
 5071 17a7 0A150000 		.4byte	0x150a
 5072 17ab 8E100000 		.4byte	.LLST79
 5073 17af 46       		.uleb128 0x46
 5074 17b0 15150000 		.4byte	0x1515
 5075 17b4 3C040000 		.4byte	.LBB293
 5076 17b8 40040000 		.4byte	.LBE293
 5077 17bc CA170000 		.4byte	0x17ca
 5078 17c0 37       		.uleb128 0x37
 5079 17c1 16150000 		.4byte	0x1516
 5080 17c5 A3100000 		.4byte	.LLST80
 5081 17c9 00       		.byte	0
 5082 17ca 1A       		.uleb128 0x1a
 5083 17cb 32040000 		.4byte	.LVL166
 5084 17cf 6F1A0000 		.4byte	0x1a6f
 5085 17d3 DD170000 		.4byte	0x17dd
 5086 17d7 1B       		.uleb128 0x1b
 5087 17d8 01       		.byte	0x1
 5088 17d9 50       		.byte	0x50
 5089 17da 01       		.byte	0x1
 5090 17db 32       		.byte	0x32
 5091 17dc 00       		.byte	0
 5092 17dd 1A       		.uleb128 0x1a
 5093 17de 3C040000 		.4byte	.LVL167
 5094 17e2 7C1A0000 		.4byte	0x1a7c
 5095 17e6 F1170000 		.4byte	0x17f1
 5096 17ea 1B       		.uleb128 0x1b
 5097 17eb 01       		.byte	0x1
 5098 17ec 50       		.byte	0x50
 5099 17ed 02       		.byte	0x2
ARM GAS  G:\Users\Jaxb\AppData\Local\Temp\ccLceCCb.s 			page 108


 5100 17ee 76       		.byte	0x76
 5101 17ef 00       		.sleb128 0
 5102 17f0 00       		.byte	0
 5103 17f1 1A       		.uleb128 0x1a
 5104 17f2 4A040000 		.4byte	.LVL168
 5105 17f6 BD1A0000 		.4byte	0x1abd
 5106 17fa 10180000 		.4byte	0x1810
 5107 17fe 1B       		.uleb128 0x1b
 5108 17ff 01       		.byte	0x1
 5109 1800 50       		.byte	0x50
 5110 1801 02       		.byte	0x2
 5111 1802 77       		.byte	0x77
 5112 1803 00       		.sleb128 0
 5113 1804 1B       		.uleb128 0x1b
 5114 1805 01       		.byte	0x1
 5115 1806 51       		.byte	0x51
 5116 1807 02       		.byte	0x2
 5117 1808 74       		.byte	0x74
 5118 1809 00       		.sleb128 0
 5119 180a 1B       		.uleb128 0x1b
 5120 180b 01       		.byte	0x1
 5121 180c 52       		.byte	0x52
 5122 180d 01       		.byte	0x1
 5123 180e 30       		.byte	0x30
 5124 180f 00       		.byte	0
 5125 1810 1C       		.uleb128 0x1c
 5126 1811 50040000 		.4byte	.LVL169
 5127 1815 7D0B0000 		.4byte	0xb7d
 5128 1819 1B       		.uleb128 0x1b
 5129 181a 01       		.byte	0x1
 5130 181b 50       		.byte	0x50
 5131 181c 02       		.byte	0x2
 5132 181d 75       		.byte	0x75
 5133 181e 00       		.sleb128 0
 5134 181f 00       		.byte	0
 5135 1820 00       		.byte	0
 5136 1821 00       		.byte	0
 5137 1822 22       		.uleb128 0x22
 5138 1823 51160000 		.4byte	0x1651
 5139 1827 76040000 		.4byte	.LBB294
 5140 182b D8010000 		.4byte	.Ldebug_ranges0+0x1d8
 5141 182f 01       		.byte	0x1
 5142 1830 4D01     		.2byte	0x14d
 5143 1832 62180000 		.4byte	0x1862
 5144 1836 2C       		.uleb128 0x2c
 5145 1837 5E160000 		.4byte	0x165e
 5146 183b B6100000 		.4byte	.LLST81
 5147 183f 2D       		.uleb128 0x2d
 5148 1840 6A160000 		.4byte	0x166a
 5149 1844 80040000 		.4byte	.LBB296
 5150 1848 84040000 		.4byte	.LBE296
 5151 184c 02       		.byte	0x2
 5152 184d 37       		.byte	0x37
 5153 184e 2C       		.uleb128 0x2c
 5154 184f 82160000 		.4byte	0x1682
 5155 1853 D6100000 		.4byte	.LLST82
 5156 1857 2C       		.uleb128 0x2c
ARM GAS  G:\Users\Jaxb\AppData\Local\Temp\ccLceCCb.s 			page 109


 5157 1858 77160000 		.4byte	0x1677
 5158 185c E9100000 		.4byte	.LLST83
 5159 1860 00       		.byte	0
 5160 1861 00       		.byte	0
 5161 1862 22       		.uleb128 0x22
 5162 1863 8E160000 		.4byte	0x168e
 5163 1867 78040000 		.4byte	.LBB299
 5164 186b F0010000 		.4byte	.Ldebug_ranges0+0x1f0
 5165 186f 01       		.byte	0x1
 5166 1870 4E01     		.2byte	0x14e
 5167 1872 B4180000 		.4byte	0x18b4
 5168 1876 2C       		.uleb128 0x2c
 5169 1877 A6160000 		.4byte	0x16a6
 5170 187b FC100000 		.4byte	.LLST84
 5171 187f 2C       		.uleb128 0x2c
 5172 1880 9B160000 		.4byte	0x169b
 5173 1884 1C110000 		.4byte	.LLST85
 5174 1888 2D       		.uleb128 0x2d
 5175 1889 B2160000 		.4byte	0x16b2
 5176 188d 88040000 		.4byte	.LBB301
 5177 1891 92040000 		.4byte	.LBE301
 5178 1895 02       		.byte	0x2
 5179 1896 24       		.byte	0x24
 5180 1897 2C       		.uleb128 0x2c
 5181 1898 D5160000 		.4byte	0x16d5
 5182 189c 2F110000 		.4byte	.LLST86
 5183 18a0 2C       		.uleb128 0x2c
 5184 18a1 CA160000 		.4byte	0x16ca
 5185 18a5 42110000 		.4byte	.LLST87
 5186 18a9 2C       		.uleb128 0x2c
 5187 18aa BF160000 		.4byte	0x16bf
 5188 18ae 55110000 		.4byte	.LLST88
 5189 18b2 00       		.byte	0
 5190 18b3 00       		.byte	0
 5191 18b4 22       		.uleb128 0x22
 5192 18b5 51160000 		.4byte	0x1651
 5193 18b9 92040000 		.4byte	.LBB306
 5194 18bd 08020000 		.4byte	.Ldebug_ranges0+0x208
 5195 18c1 01       		.byte	0x1
 5196 18c2 5901     		.2byte	0x159
 5197 18c4 F4180000 		.4byte	0x18f4
 5198 18c8 2C       		.uleb128 0x2c
 5199 18c9 5E160000 		.4byte	0x165e
 5200 18cd 68110000 		.4byte	.LLST89
 5201 18d1 2D       		.uleb128 0x2d
 5202 18d2 6A160000 		.4byte	0x166a
 5203 18d6 9C040000 		.4byte	.LBB308
 5204 18da A0040000 		.4byte	.LBE308
 5205 18de 02       		.byte	0x2
 5206 18df 37       		.byte	0x37
 5207 18e0 2C       		.uleb128 0x2c
 5208 18e1 82160000 		.4byte	0x1682
 5209 18e5 88110000 		.4byte	.LLST90
 5210 18e9 2C       		.uleb128 0x2c
 5211 18ea 77160000 		.4byte	0x1677
 5212 18ee 9B110000 		.4byte	.LLST91
 5213 18f2 00       		.byte	0
ARM GAS  G:\Users\Jaxb\AppData\Local\Temp\ccLceCCb.s 			page 110


 5214 18f3 00       		.byte	0
 5215 18f4 20       		.uleb128 0x20
 5216 18f5 8E160000 		.4byte	0x168e
 5217 18f9 A0040000 		.4byte	.LBB312
 5218 18fd AA040000 		.4byte	.LBE312
 5219 1901 01       		.byte	0x1
 5220 1902 5A01     		.2byte	0x15a
 5221 1904 46190000 		.4byte	0x1946
 5222 1908 2C       		.uleb128 0x2c
 5223 1909 A6160000 		.4byte	0x16a6
 5224 190d AE110000 		.4byte	.LLST92
 5225 1911 2C       		.uleb128 0x2c
 5226 1912 9B160000 		.4byte	0x169b
 5227 1916 C1110000 		.4byte	.LLST93
 5228 191a 2D       		.uleb128 0x2d
 5229 191b B2160000 		.4byte	0x16b2
 5230 191f A2040000 		.4byte	.LBB314
 5231 1923 AA040000 		.4byte	.LBE314
 5232 1927 02       		.byte	0x2
 5233 1928 24       		.byte	0x24
 5234 1929 2C       		.uleb128 0x2c
 5235 192a D5160000 		.4byte	0x16d5
 5236 192e D4110000 		.4byte	.LLST94
 5237 1932 2C       		.uleb128 0x2c
 5238 1933 CA160000 		.4byte	0x16ca
 5239 1937 E7110000 		.4byte	.LLST95
 5240 193b 2C       		.uleb128 0x2c
 5241 193c BF160000 		.4byte	0x16bf
 5242 1940 FA110000 		.4byte	.LLST96
 5243 1944 00       		.byte	0
 5244 1945 00       		.byte	0
 5245 1946 1E       		.uleb128 0x1e
 5246 1947 D0030000 		.4byte	.LVL153
 5247 194b ED190000 		.4byte	0x19ed
 5248 194f 1A       		.uleb128 0x1a
 5249 1950 EE030000 		.4byte	.LVL156
 5250 1954 800C0000 		.4byte	0xc80
 5251 1958 69190000 		.4byte	0x1969
 5252 195c 1B       		.uleb128 0x1b
 5253 195d 01       		.byte	0x1
 5254 195e 50       		.byte	0x50
 5255 195f 02       		.byte	0x2
 5256 1960 75       		.byte	0x75
 5257 1961 00       		.sleb128 0
 5258 1962 1B       		.uleb128 0x1b
 5259 1963 01       		.byte	0x1
 5260 1964 51       		.byte	0x51
 5261 1965 02       		.byte	0x2
 5262 1966 76       		.byte	0x76
 5263 1967 00       		.sleb128 0
 5264 1968 00       		.byte	0
 5265 1969 1A       		.uleb128 0x1a
 5266 196a 02040000 		.4byte	.LVL158
 5267 196e 800C0000 		.4byte	0xc80
 5268 1972 83190000 		.4byte	0x1983
 5269 1976 1B       		.uleb128 0x1b
 5270 1977 01       		.byte	0x1
ARM GAS  G:\Users\Jaxb\AppData\Local\Temp\ccLceCCb.s 			page 111


 5271 1978 50       		.byte	0x50
 5272 1979 02       		.byte	0x2
 5273 197a 74       		.byte	0x74
 5274 197b 0C       		.sleb128 12
 5275 197c 1B       		.uleb128 0x1b
 5276 197d 01       		.byte	0x1
 5277 197e 51       		.byte	0x51
 5278 197f 02       		.byte	0x2
 5279 1980 76       		.byte	0x76
 5280 1981 00       		.sleb128 0
 5281 1982 00       		.byte	0
 5282 1983 23       		.uleb128 0x23
 5283 1984 5A040000 		.4byte	.LVL171
 5284 1988 01       		.byte	0x1
 5285 1989 FA190000 		.4byte	0x19fa
 5286 198d 1A       		.uleb128 0x1a
 5287 198e 60040000 		.4byte	.LVL172
 5288 1992 E0190000 		.4byte	0x19e0
 5289 1996 A4190000 		.4byte	0x19a4
 5290 199a 1B       		.uleb128 0x1b
 5291 199b 01       		.byte	0x1
 5292 199c 50       		.byte	0x50
 5293 199d 05       		.byte	0x5
 5294 199e 03       		.byte	0x3
 5295 199f A4000000 		.4byte	.LC7
 5296 19a3 00       		.byte	0
 5297 19a4 1F       		.uleb128 0x1f
 5298 19a5 6E040000 		.4byte	.LVL174
 5299 19a9 01       		.byte	0x1
 5300 19aa 2E1A0000 		.4byte	0x1a2e
 5301 19ae C3190000 		.4byte	0x19c3
 5302 19b2 1B       		.uleb128 0x1b
 5303 19b3 01       		.byte	0x1
 5304 19b4 50       		.byte	0x50
 5305 19b5 05       		.byte	0x5
 5306 19b6 03       		.byte	0x3
 5307 19b7 00000000 		.4byte	.LC0
 5308 19bb 1B       		.uleb128 0x1b
 5309 19bc 01       		.byte	0x1
 5310 19bd 51       		.byte	0x51
 5311 19be 03       		.byte	0x3
 5312 19bf 0A       		.byte	0xa
 5313 19c0 6601     		.2byte	0x166
 5314 19c2 00       		.byte	0
 5315 19c3 23       		.uleb128 0x23
 5316 19c4 B2040000 		.4byte	.LVL188
 5317 19c8 01       		.byte	0x1
 5318 19c9 FA190000 		.4byte	0x19fa
 5319 19cd 00       		.byte	0
 5320 19ce 00       		.byte	0
 5321 19cf 1C       		.uleb128 0x1c
 5322 19d0 C2030000 		.4byte	.LVL151
 5323 19d4 F50B0000 		.4byte	0xbf5
 5324 19d8 1B       		.uleb128 0x1b
 5325 19d9 01       		.byte	0x1
 5326 19da 50       		.byte	0x50
 5327 19db 02       		.byte	0x2
ARM GAS  G:\Users\Jaxb\AppData\Local\Temp\ccLceCCb.s 			page 112


 5328 19dc 76       		.byte	0x76
 5329 19dd 00       		.sleb128 0
 5330 19de 00       		.byte	0
 5331 19df 00       		.byte	0
 5332 19e0 47       		.uleb128 0x47
 5333 19e1 01       		.byte	0x1
 5334 19e2 01       		.byte	0x1
 5335 19e3 84020000 		.4byte	.LASF99
 5336 19e7 84020000 		.4byte	.LASF99
 5337 19eb 0A       		.byte	0xa
 5338 19ec 0C       		.byte	0xc
 5339 19ed 47       		.uleb128 0x47
 5340 19ee 01       		.byte	0x1
 5341 19ef 01       		.byte	0x1
 5342 19f0 9F050000 		.4byte	.LASF100
 5343 19f4 9F050000 		.4byte	.LASF100
 5344 19f8 08       		.byte	0x8
 5345 19f9 35       		.byte	0x35
 5346 19fa 47       		.uleb128 0x47
 5347 19fb 01       		.byte	0x1
 5348 19fc 01       		.byte	0x1
 5349 19fd AE000000 		.4byte	.LASF101
 5350 1a01 AE000000 		.4byte	.LASF101
 5351 1a05 08       		.byte	0x8
 5352 1a06 36       		.byte	0x36
 5353 1a07 47       		.uleb128 0x47
 5354 1a08 01       		.byte	0x1
 5355 1a09 01       		.byte	0x1
 5356 1a0a 08060000 		.4byte	.LASF102
 5357 1a0e 08060000 		.4byte	.LASF102
 5358 1a12 07       		.byte	0x7
 5359 1a13 5F       		.byte	0x5f
 5360 1a14 47       		.uleb128 0x47
 5361 1a15 01       		.byte	0x1
 5362 1a16 01       		.byte	0x1
 5363 1a17 67010000 		.4byte	.LASF103
 5364 1a1b 67010000 		.4byte	.LASF103
 5365 1a1f 07       		.byte	0x7
 5366 1a20 60       		.byte	0x60
 5367 1a21 47       		.uleb128 0x47
 5368 1a22 01       		.byte	0x1
 5369 1a23 01       		.byte	0x1
 5370 1a24 13010000 		.4byte	.LASF104
 5371 1a28 13010000 		.4byte	.LASF104
 5372 1a2c 01       		.byte	0x1
 5373 1a2d 08       		.byte	0x8
 5374 1a2e 47       		.uleb128 0x47
 5375 1a2f 01       		.byte	0x1
 5376 1a30 01       		.byte	0x1
 5377 1a31 67030000 		.4byte	.LASF105
 5378 1a35 67030000 		.4byte	.LASF105
 5379 1a39 0B       		.byte	0xb
 5380 1a3a 06       		.byte	0x6
 5381 1a3b 47       		.uleb128 0x47
 5382 1a3c 01       		.byte	0x1
 5383 1a3d 01       		.byte	0x1
 5384 1a3e 38040000 		.4byte	.LASF106
ARM GAS  G:\Users\Jaxb\AppData\Local\Temp\ccLceCCb.s 			page 113


 5385 1a42 38040000 		.4byte	.LASF106
 5386 1a46 05       		.byte	0x5
 5387 1a47 15       		.byte	0x15
 5388 1a48 47       		.uleb128 0x47
 5389 1a49 01       		.byte	0x1
 5390 1a4a 01       		.byte	0x1
 5391 1a4b CD040000 		.4byte	.LASF107
 5392 1a4f CD040000 		.4byte	.LASF107
 5393 1a53 06       		.byte	0x6
 5394 1a54 1D       		.byte	0x1d
 5395 1a55 47       		.uleb128 0x47
 5396 1a56 01       		.byte	0x1
 5397 1a57 01       		.byte	0x1
 5398 1a58 39010000 		.4byte	.LASF108
 5399 1a5c 39010000 		.4byte	.LASF108
 5400 1a60 06       		.byte	0x6
 5401 1a61 0E       		.byte	0xe
 5402 1a62 47       		.uleb128 0x47
 5403 1a63 01       		.byte	0x1
 5404 1a64 01       		.byte	0x1
 5405 1a65 6D040000 		.4byte	.LASF109
 5406 1a69 6D040000 		.4byte	.LASF109
 5407 1a6d 05       		.byte	0x5
 5408 1a6e 14       		.byte	0x14
 5409 1a6f 47       		.uleb128 0x47
 5410 1a70 01       		.byte	0x1
 5411 1a71 01       		.byte	0x1
 5412 1a72 63020000 		.4byte	.LASF110
 5413 1a76 63020000 		.4byte	.LASF110
 5414 1a7a 0A       		.byte	0xa
 5415 1a7b 11       		.byte	0x11
 5416 1a7c 47       		.uleb128 0x47
 5417 1a7d 01       		.byte	0x1
 5418 1a7e 01       		.byte	0x1
 5419 1a7f C2020000 		.4byte	.LASF111
 5420 1a83 C2020000 		.4byte	.LASF111
 5421 1a87 01       		.byte	0x1
 5422 1a88 09       		.byte	0x9
 5423 1a89 47       		.uleb128 0x47
 5424 1a8a 01       		.byte	0x1
 5425 1a8b 01       		.byte	0x1
 5426 1a8c 8E020000 		.4byte	.LASF112
 5427 1a90 8E020000 		.4byte	.LASF112
 5428 1a94 07       		.byte	0x7
 5429 1a95 4A       		.byte	0x4a
 5430 1a96 47       		.uleb128 0x47
 5431 1a97 01       		.byte	0x1
 5432 1a98 01       		.byte	0x1
 5433 1a99 A7030000 		.4byte	.LASF113
 5434 1a9d A7030000 		.4byte	.LASF113
 5435 1aa1 07       		.byte	0x7
 5436 1aa2 49       		.byte	0x49
 5437 1aa3 47       		.uleb128 0x47
 5438 1aa4 01       		.byte	0x1
 5439 1aa5 01       		.byte	0x1
 5440 1aa6 6B050000 		.4byte	.LASF114
 5441 1aaa 6B050000 		.4byte	.LASF114
ARM GAS  G:\Users\Jaxb\AppData\Local\Temp\ccLceCCb.s 			page 114


 5442 1aae 07       		.byte	0x7
 5443 1aaf 48       		.byte	0x48
 5444 1ab0 47       		.uleb128 0x47
 5445 1ab1 01       		.byte	0x1
 5446 1ab2 01       		.byte	0x1
 5447 1ab3 C7000000 		.4byte	.LASF115
 5448 1ab7 C7000000 		.4byte	.LASF115
 5449 1abb 07       		.byte	0x7
 5450 1abc 47       		.byte	0x47
 5451 1abd 47       		.uleb128 0x47
 5452 1abe 01       		.byte	0x1
 5453 1abf 01       		.byte	0x1
 5454 1ac0 29010000 		.4byte	.LASF116
 5455 1ac4 29010000 		.4byte	.LASF116
 5456 1ac8 03       		.byte	0x3
 5457 1ac9 2E       		.byte	0x2e
 5458 1aca 00       		.byte	0
 5459              		.section	.debug_abbrev,"",%progbits
 5460              	.Ldebug_abbrev0:
 5461 0000 01       		.uleb128 0x1
 5462 0001 11       		.uleb128 0x11
 5463 0002 01       		.byte	0x1
 5464 0003 25       		.uleb128 0x25
 5465 0004 0E       		.uleb128 0xe
 5466 0005 13       		.uleb128 0x13
 5467 0006 0B       		.uleb128 0xb
 5468 0007 03       		.uleb128 0x3
 5469 0008 0E       		.uleb128 0xe
 5470 0009 1B       		.uleb128 0x1b
 5471 000a 0E       		.uleb128 0xe
 5472 000b 11       		.uleb128 0x11
 5473 000c 01       		.uleb128 0x1
 5474 000d 12       		.uleb128 0x12
 5475 000e 01       		.uleb128 0x1
 5476 000f 10       		.uleb128 0x10
 5477 0010 06       		.uleb128 0x6
 5478 0011 00       		.byte	0
 5479 0012 00       		.byte	0
 5480 0013 02       		.uleb128 0x2
 5481 0014 24       		.uleb128 0x24
 5482 0015 00       		.byte	0
 5483 0016 0B       		.uleb128 0xb
 5484 0017 0B       		.uleb128 0xb
 5485 0018 3E       		.uleb128 0x3e
 5486 0019 0B       		.uleb128 0xb
 5487 001a 03       		.uleb128 0x3
 5488 001b 0E       		.uleb128 0xe
 5489 001c 00       		.byte	0
 5490 001d 00       		.byte	0
 5491 001e 03       		.uleb128 0x3
 5492 001f 24       		.uleb128 0x24
 5493 0020 00       		.byte	0
 5494 0021 0B       		.uleb128 0xb
 5495 0022 0B       		.uleb128 0xb
 5496 0023 3E       		.uleb128 0x3e
 5497 0024 0B       		.uleb128 0xb
 5498 0025 03       		.uleb128 0x3
ARM GAS  G:\Users\Jaxb\AppData\Local\Temp\ccLceCCb.s 			page 115


 5499 0026 08       		.uleb128 0x8
 5500 0027 00       		.byte	0
 5501 0028 00       		.byte	0
 5502 0029 04       		.uleb128 0x4
 5503 002a 35       		.uleb128 0x35
 5504 002b 00       		.byte	0
 5505 002c 49       		.uleb128 0x49
 5506 002d 13       		.uleb128 0x13
 5507 002e 00       		.byte	0
 5508 002f 00       		.byte	0
 5509 0030 05       		.uleb128 0x5
 5510 0031 16       		.uleb128 0x16
 5511 0032 00       		.byte	0
 5512 0033 03       		.uleb128 0x3
 5513 0034 0E       		.uleb128 0xe
 5514 0035 3A       		.uleb128 0x3a
 5515 0036 0B       		.uleb128 0xb
 5516 0037 3B       		.uleb128 0x3b
 5517 0038 0B       		.uleb128 0xb
 5518 0039 49       		.uleb128 0x49
 5519 003a 13       		.uleb128 0x13
 5520 003b 00       		.byte	0
 5521 003c 00       		.byte	0
 5522 003d 06       		.uleb128 0x6
 5523 003e 13       		.uleb128 0x13
 5524 003f 01       		.byte	0x1
 5525 0040 03       		.uleb128 0x3
 5526 0041 0E       		.uleb128 0xe
 5527 0042 0B       		.uleb128 0xb
 5528 0043 0B       		.uleb128 0xb
 5529 0044 3A       		.uleb128 0x3a
 5530 0045 0B       		.uleb128 0xb
 5531 0046 3B       		.uleb128 0x3b
 5532 0047 0B       		.uleb128 0xb
 5533 0048 01       		.uleb128 0x1
 5534 0049 13       		.uleb128 0x13
 5535 004a 00       		.byte	0
 5536 004b 00       		.byte	0
 5537 004c 07       		.uleb128 0x7
 5538 004d 0D       		.uleb128 0xd
 5539 004e 00       		.byte	0
 5540 004f 03       		.uleb128 0x3
 5541 0050 0E       		.uleb128 0xe
 5542 0051 3A       		.uleb128 0x3a
 5543 0052 0B       		.uleb128 0xb
 5544 0053 3B       		.uleb128 0x3b
 5545 0054 0B       		.uleb128 0xb
 5546 0055 49       		.uleb128 0x49
 5547 0056 13       		.uleb128 0x13
 5548 0057 38       		.uleb128 0x38
 5549 0058 0A       		.uleb128 0xa
 5550 0059 00       		.byte	0
 5551 005a 00       		.byte	0
 5552 005b 08       		.uleb128 0x8
 5553 005c 26       		.uleb128 0x26
 5554 005d 00       		.byte	0
 5555 005e 49       		.uleb128 0x49
ARM GAS  G:\Users\Jaxb\AppData\Local\Temp\ccLceCCb.s 			page 116


 5556 005f 13       		.uleb128 0x13
 5557 0060 00       		.byte	0
 5558 0061 00       		.byte	0
 5559 0062 09       		.uleb128 0x9
 5560 0063 0F       		.uleb128 0xf
 5561 0064 00       		.byte	0
 5562 0065 0B       		.uleb128 0xb
 5563 0066 0B       		.uleb128 0xb
 5564 0067 49       		.uleb128 0x49
 5565 0068 13       		.uleb128 0x13
 5566 0069 00       		.byte	0
 5567 006a 00       		.byte	0
 5568 006b 0A       		.uleb128 0xa
 5569 006c 16       		.uleb128 0x16
 5570 006d 00       		.byte	0
 5571 006e 03       		.uleb128 0x3
 5572 006f 08       		.uleb128 0x8
 5573 0070 3A       		.uleb128 0x3a
 5574 0071 0B       		.uleb128 0xb
 5575 0072 3B       		.uleb128 0x3b
 5576 0073 0B       		.uleb128 0xb
 5577 0074 49       		.uleb128 0x49
 5578 0075 13       		.uleb128 0x13
 5579 0076 00       		.byte	0
 5580 0077 00       		.byte	0
 5581 0078 0B       		.uleb128 0xb
 5582 0079 0F       		.uleb128 0xf
 5583 007a 00       		.byte	0
 5584 007b 0B       		.uleb128 0xb
 5585 007c 0B       		.uleb128 0xb
 5586 007d 00       		.byte	0
 5587 007e 00       		.byte	0
 5588 007f 0C       		.uleb128 0xc
 5589 0080 13       		.uleb128 0x13
 5590 0081 01       		.byte	0x1
 5591 0082 0B       		.uleb128 0xb
 5592 0083 05       		.uleb128 0x5
 5593 0084 3A       		.uleb128 0x3a
 5594 0085 0B       		.uleb128 0xb
 5595 0086 3B       		.uleb128 0x3b
 5596 0087 0B       		.uleb128 0xb
 5597 0088 01       		.uleb128 0x1
 5598 0089 13       		.uleb128 0x13
 5599 008a 00       		.byte	0
 5600 008b 00       		.byte	0
 5601 008c 0D       		.uleb128 0xd
 5602 008d 0D       		.uleb128 0xd
 5603 008e 00       		.byte	0
 5604 008f 03       		.uleb128 0x3
 5605 0090 08       		.uleb128 0x8
 5606 0091 3A       		.uleb128 0x3a
 5607 0092 0B       		.uleb128 0xb
 5608 0093 3B       		.uleb128 0x3b
 5609 0094 0B       		.uleb128 0xb
 5610 0095 49       		.uleb128 0x49
 5611 0096 13       		.uleb128 0x13
 5612 0097 38       		.uleb128 0x38
ARM GAS  G:\Users\Jaxb\AppData\Local\Temp\ccLceCCb.s 			page 117


 5613 0098 0A       		.uleb128 0xa
 5614 0099 00       		.byte	0
 5615 009a 00       		.byte	0
 5616 009b 0E       		.uleb128 0xe
 5617 009c 01       		.uleb128 0x1
 5618 009d 01       		.byte	0x1
 5619 009e 49       		.uleb128 0x49
 5620 009f 13       		.uleb128 0x13
 5621 00a0 01       		.uleb128 0x1
 5622 00a1 13       		.uleb128 0x13
 5623 00a2 00       		.byte	0
 5624 00a3 00       		.byte	0
 5625 00a4 0F       		.uleb128 0xf
 5626 00a5 21       		.uleb128 0x21
 5627 00a6 00       		.byte	0
 5628 00a7 49       		.uleb128 0x49
 5629 00a8 13       		.uleb128 0x13
 5630 00a9 2F       		.uleb128 0x2f
 5631 00aa 0B       		.uleb128 0xb
 5632 00ab 00       		.byte	0
 5633 00ac 00       		.byte	0
 5634 00ad 10       		.uleb128 0x10
 5635 00ae 34       		.uleb128 0x34
 5636 00af 00       		.byte	0
 5637 00b0 03       		.uleb128 0x3
 5638 00b1 0E       		.uleb128 0xe
 5639 00b2 3A       		.uleb128 0x3a
 5640 00b3 0B       		.uleb128 0xb
 5641 00b4 3B       		.uleb128 0x3b
 5642 00b5 0B       		.uleb128 0xb
 5643 00b6 49       		.uleb128 0x49
 5644 00b7 13       		.uleb128 0x13
 5645 00b8 3F       		.uleb128 0x3f
 5646 00b9 0C       		.uleb128 0xc
 5647 00ba 3C       		.uleb128 0x3c
 5648 00bb 0C       		.uleb128 0xc
 5649 00bc 00       		.byte	0
 5650 00bd 00       		.byte	0
 5651 00be 11       		.uleb128 0x11
 5652 00bf 34       		.uleb128 0x34
 5653 00c0 00       		.byte	0
 5654 00c1 03       		.uleb128 0x3
 5655 00c2 0E       		.uleb128 0xe
 5656 00c3 3A       		.uleb128 0x3a
 5657 00c4 0B       		.uleb128 0xb
 5658 00c5 3B       		.uleb128 0x3b
 5659 00c6 0B       		.uleb128 0xb
 5660 00c7 49       		.uleb128 0x49
 5661 00c8 13       		.uleb128 0x13
 5662 00c9 02       		.uleb128 0x2
 5663 00ca 0A       		.uleb128 0xa
 5664 00cb 00       		.byte	0
 5665 00cc 00       		.byte	0
 5666 00cd 12       		.uleb128 0x12
 5667 00ce 34       		.uleb128 0x34
 5668 00cf 00       		.byte	0
 5669 00d0 03       		.uleb128 0x3
ARM GAS  G:\Users\Jaxb\AppData\Local\Temp\ccLceCCb.s 			page 118


 5670 00d1 0E       		.uleb128 0xe
 5671 00d2 3A       		.uleb128 0x3a
 5672 00d3 0B       		.uleb128 0xb
 5673 00d4 3B       		.uleb128 0x3b
 5674 00d5 0B       		.uleb128 0xb
 5675 00d6 49       		.uleb128 0x49
 5676 00d7 13       		.uleb128 0x13
 5677 00d8 3F       		.uleb128 0x3f
 5678 00d9 0C       		.uleb128 0xc
 5679 00da 02       		.uleb128 0x2
 5680 00db 0A       		.uleb128 0xa
 5681 00dc 00       		.byte	0
 5682 00dd 00       		.byte	0
 5683 00de 13       		.uleb128 0x13
 5684 00df 2E       		.uleb128 0x2e
 5685 00e0 01       		.byte	0x1
 5686 00e1 3F       		.uleb128 0x3f
 5687 00e2 0C       		.uleb128 0xc
 5688 00e3 03       		.uleb128 0x3
 5689 00e4 0E       		.uleb128 0xe
 5690 00e5 3A       		.uleb128 0x3a
 5691 00e6 0B       		.uleb128 0xb
 5692 00e7 3B       		.uleb128 0x3b
 5693 00e8 05       		.uleb128 0x5
 5694 00e9 27       		.uleb128 0x27
 5695 00ea 0C       		.uleb128 0xc
 5696 00eb 11       		.uleb128 0x11
 5697 00ec 01       		.uleb128 0x1
 5698 00ed 12       		.uleb128 0x12
 5699 00ee 01       		.uleb128 0x1
 5700 00ef 40       		.uleb128 0x40
 5701 00f0 06       		.uleb128 0x6
 5702 00f1 9742     		.uleb128 0x2117
 5703 00f3 0C       		.uleb128 0xc
 5704 00f4 01       		.uleb128 0x1
 5705 00f5 13       		.uleb128 0x13
 5706 00f6 00       		.byte	0
 5707 00f7 00       		.byte	0
 5708 00f8 14       		.uleb128 0x14
 5709 00f9 05       		.uleb128 0x5
 5710 00fa 00       		.byte	0
 5711 00fb 03       		.uleb128 0x3
 5712 00fc 0E       		.uleb128 0xe
 5713 00fd 3A       		.uleb128 0x3a
 5714 00fe 0B       		.uleb128 0xb
 5715 00ff 3B       		.uleb128 0x3b
 5716 0100 05       		.uleb128 0x5
 5717 0101 49       		.uleb128 0x49
 5718 0102 13       		.uleb128 0x13
 5719 0103 02       		.uleb128 0x2
 5720 0104 06       		.uleb128 0x6
 5721 0105 00       		.byte	0
 5722 0106 00       		.byte	0
 5723 0107 15       		.uleb128 0x15
 5724 0108 34       		.uleb128 0x34
 5725 0109 00       		.byte	0
 5726 010a 03       		.uleb128 0x3
ARM GAS  G:\Users\Jaxb\AppData\Local\Temp\ccLceCCb.s 			page 119


 5727 010b 08       		.uleb128 0x8
 5728 010c 3A       		.uleb128 0x3a
 5729 010d 0B       		.uleb128 0xb
 5730 010e 3B       		.uleb128 0x3b
 5731 010f 05       		.uleb128 0x5
 5732 0110 49       		.uleb128 0x49
 5733 0111 13       		.uleb128 0x13
 5734 0112 02       		.uleb128 0x2
 5735 0113 06       		.uleb128 0x6
 5736 0114 00       		.byte	0
 5737 0115 00       		.byte	0
 5738 0116 16       		.uleb128 0x16
 5739 0117 34       		.uleb128 0x34
 5740 0118 00       		.byte	0
 5741 0119 03       		.uleb128 0x3
 5742 011a 0E       		.uleb128 0xe
 5743 011b 3A       		.uleb128 0x3a
 5744 011c 0B       		.uleb128 0xb
 5745 011d 3B       		.uleb128 0x3b
 5746 011e 05       		.uleb128 0x5
 5747 011f 49       		.uleb128 0x49
 5748 0120 13       		.uleb128 0x13
 5749 0121 02       		.uleb128 0x2
 5750 0122 06       		.uleb128 0x6
 5751 0123 00       		.byte	0
 5752 0124 00       		.byte	0
 5753 0125 17       		.uleb128 0x17
 5754 0126 0B       		.uleb128 0xb
 5755 0127 01       		.byte	0x1
 5756 0128 01       		.uleb128 0x1
 5757 0129 13       		.uleb128 0x13
 5758 012a 00       		.byte	0
 5759 012b 00       		.byte	0
 5760 012c 18       		.uleb128 0x18
 5761 012d 34       		.uleb128 0x34
 5762 012e 00       		.byte	0
 5763 012f 03       		.uleb128 0x3
 5764 0130 0E       		.uleb128 0xe
 5765 0131 3A       		.uleb128 0x3a
 5766 0132 0B       		.uleb128 0xb
 5767 0133 3B       		.uleb128 0x3b
 5768 0134 05       		.uleb128 0x5
 5769 0135 49       		.uleb128 0x49
 5770 0136 13       		.uleb128 0x13
 5771 0137 00       		.byte	0
 5772 0138 00       		.byte	0
 5773 0139 19       		.uleb128 0x19
 5774 013a 0B       		.uleb128 0xb
 5775 013b 01       		.byte	0x1
 5776 013c 55       		.uleb128 0x55
 5777 013d 06       		.uleb128 0x6
 5778 013e 01       		.uleb128 0x1
 5779 013f 13       		.uleb128 0x13
 5780 0140 00       		.byte	0
 5781 0141 00       		.byte	0
 5782 0142 1A       		.uleb128 0x1a
 5783 0143 898201   		.uleb128 0x4109
ARM GAS  G:\Users\Jaxb\AppData\Local\Temp\ccLceCCb.s 			page 120


 5784 0146 01       		.byte	0x1
 5785 0147 11       		.uleb128 0x11
 5786 0148 01       		.uleb128 0x1
 5787 0149 31       		.uleb128 0x31
 5788 014a 13       		.uleb128 0x13
 5789 014b 01       		.uleb128 0x1
 5790 014c 13       		.uleb128 0x13
 5791 014d 00       		.byte	0
 5792 014e 00       		.byte	0
 5793 014f 1B       		.uleb128 0x1b
 5794 0150 8A8201   		.uleb128 0x410a
 5795 0153 00       		.byte	0
 5796 0154 02       		.uleb128 0x2
 5797 0155 0A       		.uleb128 0xa
 5798 0156 9142     		.uleb128 0x2111
 5799 0158 0A       		.uleb128 0xa
 5800 0159 00       		.byte	0
 5801 015a 00       		.byte	0
 5802 015b 1C       		.uleb128 0x1c
 5803 015c 898201   		.uleb128 0x4109
 5804 015f 01       		.byte	0x1
 5805 0160 11       		.uleb128 0x11
 5806 0161 01       		.uleb128 0x1
 5807 0162 31       		.uleb128 0x31
 5808 0163 13       		.uleb128 0x13
 5809 0164 00       		.byte	0
 5810 0165 00       		.byte	0
 5811 0166 1D       		.uleb128 0x1d
 5812 0167 0B       		.uleb128 0xb
 5813 0168 01       		.byte	0x1
 5814 0169 11       		.uleb128 0x11
 5815 016a 01       		.uleb128 0x1
 5816 016b 12       		.uleb128 0x12
 5817 016c 01       		.uleb128 0x1
 5818 016d 01       		.uleb128 0x1
 5819 016e 13       		.uleb128 0x13
 5820 016f 00       		.byte	0
 5821 0170 00       		.byte	0
 5822 0171 1E       		.uleb128 0x1e
 5823 0172 898201   		.uleb128 0x4109
 5824 0175 00       		.byte	0
 5825 0176 11       		.uleb128 0x11
 5826 0177 01       		.uleb128 0x1
 5827 0178 31       		.uleb128 0x31
 5828 0179 13       		.uleb128 0x13
 5829 017a 00       		.byte	0
 5830 017b 00       		.byte	0
 5831 017c 1F       		.uleb128 0x1f
 5832 017d 898201   		.uleb128 0x4109
 5833 0180 01       		.byte	0x1
 5834 0181 11       		.uleb128 0x11
 5835 0182 01       		.uleb128 0x1
 5836 0183 9542     		.uleb128 0x2115
 5837 0185 0C       		.uleb128 0xc
 5838 0186 31       		.uleb128 0x31
 5839 0187 13       		.uleb128 0x13
 5840 0188 01       		.uleb128 0x1
ARM GAS  G:\Users\Jaxb\AppData\Local\Temp\ccLceCCb.s 			page 121


 5841 0189 13       		.uleb128 0x13
 5842 018a 00       		.byte	0
 5843 018b 00       		.byte	0
 5844 018c 20       		.uleb128 0x20
 5845 018d 1D       		.uleb128 0x1d
 5846 018e 01       		.byte	0x1
 5847 018f 31       		.uleb128 0x31
 5848 0190 13       		.uleb128 0x13
 5849 0191 11       		.uleb128 0x11
 5850 0192 01       		.uleb128 0x1
 5851 0193 12       		.uleb128 0x12
 5852 0194 01       		.uleb128 0x1
 5853 0195 58       		.uleb128 0x58
 5854 0196 0B       		.uleb128 0xb
 5855 0197 59       		.uleb128 0x59
 5856 0198 05       		.uleb128 0x5
 5857 0199 01       		.uleb128 0x1
 5858 019a 13       		.uleb128 0x13
 5859 019b 00       		.byte	0
 5860 019c 00       		.byte	0
 5861 019d 21       		.uleb128 0x21
 5862 019e 05       		.uleb128 0x5
 5863 019f 00       		.byte	0
 5864 01a0 31       		.uleb128 0x31
 5865 01a1 13       		.uleb128 0x13
 5866 01a2 00       		.byte	0
 5867 01a3 00       		.byte	0
 5868 01a4 22       		.uleb128 0x22
 5869 01a5 1D       		.uleb128 0x1d
 5870 01a6 01       		.byte	0x1
 5871 01a7 31       		.uleb128 0x31
 5872 01a8 13       		.uleb128 0x13
 5873 01a9 52       		.uleb128 0x52
 5874 01aa 01       		.uleb128 0x1
 5875 01ab 55       		.uleb128 0x55
 5876 01ac 06       		.uleb128 0x6
 5877 01ad 58       		.uleb128 0x58
 5878 01ae 0B       		.uleb128 0xb
 5879 01af 59       		.uleb128 0x59
 5880 01b0 05       		.uleb128 0x5
 5881 01b1 01       		.uleb128 0x1
 5882 01b2 13       		.uleb128 0x13
 5883 01b3 00       		.byte	0
 5884 01b4 00       		.byte	0
 5885 01b5 23       		.uleb128 0x23
 5886 01b6 898201   		.uleb128 0x4109
 5887 01b9 00       		.byte	0
 5888 01ba 11       		.uleb128 0x11
 5889 01bb 01       		.uleb128 0x1
 5890 01bc 9542     		.uleb128 0x2115
 5891 01be 0C       		.uleb128 0xc
 5892 01bf 31       		.uleb128 0x31
 5893 01c0 13       		.uleb128 0x13
 5894 01c1 00       		.byte	0
 5895 01c2 00       		.byte	0
 5896 01c3 24       		.uleb128 0x24
 5897 01c4 2E       		.uleb128 0x2e
ARM GAS  G:\Users\Jaxb\AppData\Local\Temp\ccLceCCb.s 			page 122


 5898 01c5 01       		.byte	0x1
 5899 01c6 3F       		.uleb128 0x3f
 5900 01c7 0C       		.uleb128 0xc
 5901 01c8 03       		.uleb128 0x3
 5902 01c9 0E       		.uleb128 0xe
 5903 01ca 3A       		.uleb128 0x3a
 5904 01cb 0B       		.uleb128 0xb
 5905 01cc 3B       		.uleb128 0x3b
 5906 01cd 05       		.uleb128 0x5
 5907 01ce 27       		.uleb128 0x27
 5908 01cf 0C       		.uleb128 0xc
 5909 01d0 20       		.uleb128 0x20
 5910 01d1 0B       		.uleb128 0xb
 5911 01d2 01       		.uleb128 0x1
 5912 01d3 13       		.uleb128 0x13
 5913 01d4 00       		.byte	0
 5914 01d5 00       		.byte	0
 5915 01d6 25       		.uleb128 0x25
 5916 01d7 05       		.uleb128 0x5
 5917 01d8 00       		.byte	0
 5918 01d9 03       		.uleb128 0x3
 5919 01da 08       		.uleb128 0x8
 5920 01db 3A       		.uleb128 0x3a
 5921 01dc 0B       		.uleb128 0xb
 5922 01dd 3B       		.uleb128 0x3b
 5923 01de 05       		.uleb128 0x5
 5924 01df 49       		.uleb128 0x49
 5925 01e0 13       		.uleb128 0x13
 5926 01e1 00       		.byte	0
 5927 01e2 00       		.byte	0
 5928 01e3 26       		.uleb128 0x26
 5929 01e4 34       		.uleb128 0x34
 5930 01e5 00       		.byte	0
 5931 01e6 03       		.uleb128 0x3
 5932 01e7 08       		.uleb128 0x8
 5933 01e8 3A       		.uleb128 0x3a
 5934 01e9 0B       		.uleb128 0xb
 5935 01ea 3B       		.uleb128 0x3b
 5936 01eb 05       		.uleb128 0x5
 5937 01ec 49       		.uleb128 0x49
 5938 01ed 13       		.uleb128 0x13
 5939 01ee 00       		.byte	0
 5940 01ef 00       		.byte	0
 5941 01f0 27       		.uleb128 0x27
 5942 01f1 0B       		.uleb128 0xb
 5943 01f2 01       		.byte	0x1
 5944 01f3 00       		.byte	0
 5945 01f4 00       		.byte	0
 5946 01f5 28       		.uleb128 0x28
 5947 01f6 2E       		.uleb128 0x2e
 5948 01f7 01       		.byte	0x1
 5949 01f8 3F       		.uleb128 0x3f
 5950 01f9 0C       		.uleb128 0xc
 5951 01fa 03       		.uleb128 0x3
 5952 01fb 0E       		.uleb128 0xe
 5953 01fc 3A       		.uleb128 0x3a
 5954 01fd 0B       		.uleb128 0xb
ARM GAS  G:\Users\Jaxb\AppData\Local\Temp\ccLceCCb.s 			page 123


 5955 01fe 3B       		.uleb128 0x3b
 5956 01ff 05       		.uleb128 0x5
 5957 0200 27       		.uleb128 0x27
 5958 0201 0C       		.uleb128 0xc
 5959 0202 49       		.uleb128 0x49
 5960 0203 13       		.uleb128 0x13
 5961 0204 11       		.uleb128 0x11
 5962 0205 01       		.uleb128 0x1
 5963 0206 12       		.uleb128 0x12
 5964 0207 01       		.uleb128 0x1
 5965 0208 40       		.uleb128 0x40
 5966 0209 06       		.uleb128 0x6
 5967 020a 9742     		.uleb128 0x2117
 5968 020c 0C       		.uleb128 0xc
 5969 020d 01       		.uleb128 0x1
 5970 020e 13       		.uleb128 0x13
 5971 020f 00       		.byte	0
 5972 0210 00       		.byte	0
 5973 0211 29       		.uleb128 0x29
 5974 0212 05       		.uleb128 0x5
 5975 0213 00       		.byte	0
 5976 0214 03       		.uleb128 0x3
 5977 0215 08       		.uleb128 0x8
 5978 0216 3A       		.uleb128 0x3a
 5979 0217 0B       		.uleb128 0xb
 5980 0218 3B       		.uleb128 0x3b
 5981 0219 05       		.uleb128 0x5
 5982 021a 49       		.uleb128 0x49
 5983 021b 13       		.uleb128 0x13
 5984 021c 02       		.uleb128 0x2
 5985 021d 06       		.uleb128 0x6
 5986 021e 00       		.byte	0
 5987 021f 00       		.byte	0
 5988 0220 2A       		.uleb128 0x2a
 5989 0221 2E       		.uleb128 0x2e
 5990 0222 01       		.byte	0x1
 5991 0223 03       		.uleb128 0x3
 5992 0224 0E       		.uleb128 0xe
 5993 0225 3A       		.uleb128 0x3a
 5994 0226 0B       		.uleb128 0xb
 5995 0227 3B       		.uleb128 0x3b
 5996 0228 05       		.uleb128 0x5
 5997 0229 27       		.uleb128 0x27
 5998 022a 0C       		.uleb128 0xc
 5999 022b 49       		.uleb128 0x49
 6000 022c 13       		.uleb128 0x13
 6001 022d 11       		.uleb128 0x11
 6002 022e 01       		.uleb128 0x1
 6003 022f 12       		.uleb128 0x12
 6004 0230 01       		.uleb128 0x1
 6005 0231 40       		.uleb128 0x40
 6006 0232 06       		.uleb128 0x6
 6007 0233 9742     		.uleb128 0x2117
 6008 0235 0C       		.uleb128 0xc
 6009 0236 01       		.uleb128 0x1
 6010 0237 13       		.uleb128 0x13
 6011 0238 00       		.byte	0
ARM GAS  G:\Users\Jaxb\AppData\Local\Temp\ccLceCCb.s 			page 124


 6012 0239 00       		.byte	0
 6013 023a 2B       		.uleb128 0x2b
 6014 023b 34       		.uleb128 0x34
 6015 023c 00       		.byte	0
 6016 023d 03       		.uleb128 0x3
 6017 023e 08       		.uleb128 0x8
 6018 023f 3A       		.uleb128 0x3a
 6019 0240 0B       		.uleb128 0xb
 6020 0241 3B       		.uleb128 0x3b
 6021 0242 05       		.uleb128 0x5
 6022 0243 49       		.uleb128 0x49
 6023 0244 13       		.uleb128 0x13
 6024 0245 02       		.uleb128 0x2
 6025 0246 0A       		.uleb128 0xa
 6026 0247 00       		.byte	0
 6027 0248 00       		.byte	0
 6028 0249 2C       		.uleb128 0x2c
 6029 024a 05       		.uleb128 0x5
 6030 024b 00       		.byte	0
 6031 024c 31       		.uleb128 0x31
 6032 024d 13       		.uleb128 0x13
 6033 024e 02       		.uleb128 0x2
 6034 024f 06       		.uleb128 0x6
 6035 0250 00       		.byte	0
 6036 0251 00       		.byte	0
 6037 0252 2D       		.uleb128 0x2d
 6038 0253 1D       		.uleb128 0x1d
 6039 0254 01       		.byte	0x1
 6040 0255 31       		.uleb128 0x31
 6041 0256 13       		.uleb128 0x13
 6042 0257 11       		.uleb128 0x11
 6043 0258 01       		.uleb128 0x1
 6044 0259 12       		.uleb128 0x12
 6045 025a 01       		.uleb128 0x1
 6046 025b 58       		.uleb128 0x58
 6047 025c 0B       		.uleb128 0xb
 6048 025d 59       		.uleb128 0x59
 6049 025e 0B       		.uleb128 0xb
 6050 025f 00       		.byte	0
 6051 0260 00       		.byte	0
 6052 0261 2E       		.uleb128 0x2e
 6053 0262 2E       		.uleb128 0x2e
 6054 0263 01       		.byte	0x1
 6055 0264 3F       		.uleb128 0x3f
 6056 0265 0C       		.uleb128 0xc
 6057 0266 03       		.uleb128 0x3
 6058 0267 0E       		.uleb128 0xe
 6059 0268 3A       		.uleb128 0x3a
 6060 0269 0B       		.uleb128 0xb
 6061 026a 3B       		.uleb128 0x3b
 6062 026b 0B       		.uleb128 0xb
 6063 026c 27       		.uleb128 0x27
 6064 026d 0C       		.uleb128 0xc
 6065 026e 49       		.uleb128 0x49
 6066 026f 13       		.uleb128 0x13
 6067 0270 11       		.uleb128 0x11
 6068 0271 01       		.uleb128 0x1
ARM GAS  G:\Users\Jaxb\AppData\Local\Temp\ccLceCCb.s 			page 125


 6069 0272 12       		.uleb128 0x12
 6070 0273 01       		.uleb128 0x1
 6071 0274 40       		.uleb128 0x40
 6072 0275 06       		.uleb128 0x6
 6073 0276 9742     		.uleb128 0x2117
 6074 0278 0C       		.uleb128 0xc
 6075 0279 01       		.uleb128 0x1
 6076 027a 13       		.uleb128 0x13
 6077 027b 00       		.byte	0
 6078 027c 00       		.byte	0
 6079 027d 2F       		.uleb128 0x2f
 6080 027e 05       		.uleb128 0x5
 6081 027f 00       		.byte	0
 6082 0280 03       		.uleb128 0x3
 6083 0281 0E       		.uleb128 0xe
 6084 0282 3A       		.uleb128 0x3a
 6085 0283 0B       		.uleb128 0xb
 6086 0284 3B       		.uleb128 0x3b
 6087 0285 0B       		.uleb128 0xb
 6088 0286 49       		.uleb128 0x49
 6089 0287 13       		.uleb128 0x13
 6090 0288 02       		.uleb128 0x2
 6091 0289 06       		.uleb128 0x6
 6092 028a 00       		.byte	0
 6093 028b 00       		.byte	0
 6094 028c 30       		.uleb128 0x30
 6095 028d 34       		.uleb128 0x34
 6096 028e 00       		.byte	0
 6097 028f 03       		.uleb128 0x3
 6098 0290 08       		.uleb128 0x8
 6099 0291 3A       		.uleb128 0x3a
 6100 0292 0B       		.uleb128 0xb
 6101 0293 3B       		.uleb128 0x3b
 6102 0294 0B       		.uleb128 0xb
 6103 0295 49       		.uleb128 0x49
 6104 0296 13       		.uleb128 0x13
 6105 0297 02       		.uleb128 0x2
 6106 0298 06       		.uleb128 0x6
 6107 0299 00       		.byte	0
 6108 029a 00       		.byte	0
 6109 029b 31       		.uleb128 0x31
 6110 029c 34       		.uleb128 0x34
 6111 029d 00       		.byte	0
 6112 029e 03       		.uleb128 0x3
 6113 029f 0E       		.uleb128 0xe
 6114 02a0 3A       		.uleb128 0x3a
 6115 02a1 0B       		.uleb128 0xb
 6116 02a2 3B       		.uleb128 0x3b
 6117 02a3 0B       		.uleb128 0xb
 6118 02a4 49       		.uleb128 0x49
 6119 02a5 13       		.uleb128 0x13
 6120 02a6 02       		.uleb128 0x2
 6121 02a7 06       		.uleb128 0x6
 6122 02a8 00       		.byte	0
 6123 02a9 00       		.byte	0
 6124 02aa 32       		.uleb128 0x32
 6125 02ab 34       		.uleb128 0x34
ARM GAS  G:\Users\Jaxb\AppData\Local\Temp\ccLceCCb.s 			page 126


 6126 02ac 00       		.byte	0
 6127 02ad 03       		.uleb128 0x3
 6128 02ae 0E       		.uleb128 0xe
 6129 02af 3A       		.uleb128 0x3a
 6130 02b0 0B       		.uleb128 0xb
 6131 02b1 3B       		.uleb128 0x3b
 6132 02b2 0B       		.uleb128 0xb
 6133 02b3 49       		.uleb128 0x49
 6134 02b4 13       		.uleb128 0x13
 6135 02b5 00       		.byte	0
 6136 02b6 00       		.byte	0
 6137 02b7 33       		.uleb128 0x33
 6138 02b8 1D       		.uleb128 0x1d
 6139 02b9 01       		.byte	0x1
 6140 02ba 31       		.uleb128 0x31
 6141 02bb 13       		.uleb128 0x13
 6142 02bc 11       		.uleb128 0x11
 6143 02bd 01       		.uleb128 0x1
 6144 02be 12       		.uleb128 0x12
 6145 02bf 01       		.uleb128 0x1
 6146 02c0 58       		.uleb128 0x58
 6147 02c1 0B       		.uleb128 0xb
 6148 02c2 59       		.uleb128 0x59
 6149 02c3 0B       		.uleb128 0xb
 6150 02c4 01       		.uleb128 0x1
 6151 02c5 13       		.uleb128 0x13
 6152 02c6 00       		.byte	0
 6153 02c7 00       		.byte	0
 6154 02c8 34       		.uleb128 0x34
 6155 02c9 1D       		.uleb128 0x1d
 6156 02ca 01       		.byte	0x1
 6157 02cb 31       		.uleb128 0x31
 6158 02cc 13       		.uleb128 0x13
 6159 02cd 52       		.uleb128 0x52
 6160 02ce 01       		.uleb128 0x1
 6161 02cf 55       		.uleb128 0x55
 6162 02d0 06       		.uleb128 0x6
 6163 02d1 58       		.uleb128 0x58
 6164 02d2 0B       		.uleb128 0xb
 6165 02d3 59       		.uleb128 0x59
 6166 02d4 0B       		.uleb128 0xb
 6167 02d5 01       		.uleb128 0x1
 6168 02d6 13       		.uleb128 0x13
 6169 02d7 00       		.byte	0
 6170 02d8 00       		.byte	0
 6171 02d9 35       		.uleb128 0x35
 6172 02da 1D       		.uleb128 0x1d
 6173 02db 01       		.byte	0x1
 6174 02dc 31       		.uleb128 0x31
 6175 02dd 13       		.uleb128 0x13
 6176 02de 52       		.uleb128 0x52
 6177 02df 01       		.uleb128 0x1
 6178 02e0 55       		.uleb128 0x55
 6179 02e1 06       		.uleb128 0x6
 6180 02e2 58       		.uleb128 0x58
 6181 02e3 0B       		.uleb128 0xb
 6182 02e4 59       		.uleb128 0x59
ARM GAS  G:\Users\Jaxb\AppData\Local\Temp\ccLceCCb.s 			page 127


 6183 02e5 0B       		.uleb128 0xb
 6184 02e6 00       		.byte	0
 6185 02e7 00       		.byte	0
 6186 02e8 36       		.uleb128 0x36
 6187 02e9 0B       		.uleb128 0xb
 6188 02ea 01       		.byte	0x1
 6189 02eb 55       		.uleb128 0x55
 6190 02ec 06       		.uleb128 0x6
 6191 02ed 00       		.byte	0
 6192 02ee 00       		.byte	0
 6193 02ef 37       		.uleb128 0x37
 6194 02f0 34       		.uleb128 0x34
 6195 02f1 00       		.byte	0
 6196 02f2 31       		.uleb128 0x31
 6197 02f3 13       		.uleb128 0x13
 6198 02f4 02       		.uleb128 0x2
 6199 02f5 06       		.uleb128 0x6
 6200 02f6 00       		.byte	0
 6201 02f7 00       		.byte	0
 6202 02f8 38       		.uleb128 0x38
 6203 02f9 2E       		.uleb128 0x2e
 6204 02fa 01       		.byte	0x1
 6205 02fb 03       		.uleb128 0x3
 6206 02fc 0E       		.uleb128 0xe
 6207 02fd 3A       		.uleb128 0x3a
 6208 02fe 0B       		.uleb128 0xb
 6209 02ff 3B       		.uleb128 0x3b
 6210 0300 0B       		.uleb128 0xb
 6211 0301 27       		.uleb128 0x27
 6212 0302 0C       		.uleb128 0xc
 6213 0303 49       		.uleb128 0x49
 6214 0304 13       		.uleb128 0x13
 6215 0305 11       		.uleb128 0x11
 6216 0306 01       		.uleb128 0x1
 6217 0307 12       		.uleb128 0x12
 6218 0308 01       		.uleb128 0x1
 6219 0309 40       		.uleb128 0x40
 6220 030a 06       		.uleb128 0x6
 6221 030b 9742     		.uleb128 0x2117
 6222 030d 0C       		.uleb128 0xc
 6223 030e 01       		.uleb128 0x1
 6224 030f 13       		.uleb128 0x13
 6225 0310 00       		.byte	0
 6226 0311 00       		.byte	0
 6227 0312 39       		.uleb128 0x39
 6228 0313 2E       		.uleb128 0x2e
 6229 0314 01       		.byte	0x1
 6230 0315 3F       		.uleb128 0x3f
 6231 0316 0C       		.uleb128 0xc
 6232 0317 03       		.uleb128 0x3
 6233 0318 0E       		.uleb128 0xe
 6234 0319 3A       		.uleb128 0x3a
 6235 031a 0B       		.uleb128 0xb
 6236 031b 3B       		.uleb128 0x3b
 6237 031c 0B       		.uleb128 0xb
 6238 031d 27       		.uleb128 0x27
 6239 031e 0C       		.uleb128 0xc
ARM GAS  G:\Users\Jaxb\AppData\Local\Temp\ccLceCCb.s 			page 128


 6240 031f 49       		.uleb128 0x49
 6241 0320 13       		.uleb128 0x13
 6242 0321 11       		.uleb128 0x11
 6243 0322 01       		.uleb128 0x1
 6244 0323 12       		.uleb128 0x12
 6245 0324 01       		.uleb128 0x1
 6246 0325 40       		.uleb128 0x40
 6247 0326 0A       		.uleb128 0xa
 6248 0327 9742     		.uleb128 0x2117
 6249 0329 0C       		.uleb128 0xc
 6250 032a 01       		.uleb128 0x1
 6251 032b 13       		.uleb128 0x13
 6252 032c 00       		.byte	0
 6253 032d 00       		.byte	0
 6254 032e 3A       		.uleb128 0x3a
 6255 032f 05       		.uleb128 0x5
 6256 0330 00       		.byte	0
 6257 0331 03       		.uleb128 0x3
 6258 0332 08       		.uleb128 0x8
 6259 0333 3A       		.uleb128 0x3a
 6260 0334 0B       		.uleb128 0xb
 6261 0335 3B       		.uleb128 0x3b
 6262 0336 0B       		.uleb128 0xb
 6263 0337 49       		.uleb128 0x49
 6264 0338 13       		.uleb128 0x13
 6265 0339 02       		.uleb128 0x2
 6266 033a 06       		.uleb128 0x6
 6267 033b 00       		.byte	0
 6268 033c 00       		.byte	0
 6269 033d 3B       		.uleb128 0x3b
 6270 033e 2E       		.uleb128 0x2e
 6271 033f 01       		.byte	0x1
 6272 0340 3F       		.uleb128 0x3f
 6273 0341 0C       		.uleb128 0xc
 6274 0342 03       		.uleb128 0x3
 6275 0343 0E       		.uleb128 0xe
 6276 0344 3A       		.uleb128 0x3a
 6277 0345 0B       		.uleb128 0xb
 6278 0346 3B       		.uleb128 0x3b
 6279 0347 0B       		.uleb128 0xb
 6280 0348 27       		.uleb128 0x27
 6281 0349 0C       		.uleb128 0xc
 6282 034a 11       		.uleb128 0x11
 6283 034b 01       		.uleb128 0x1
 6284 034c 12       		.uleb128 0x12
 6285 034d 01       		.uleb128 0x1
 6286 034e 40       		.uleb128 0x40
 6287 034f 06       		.uleb128 0x6
 6288 0350 9742     		.uleb128 0x2117
 6289 0352 0C       		.uleb128 0xc
 6290 0353 01       		.uleb128 0x1
 6291 0354 13       		.uleb128 0x13
 6292 0355 00       		.byte	0
 6293 0356 00       		.byte	0
 6294 0357 3C       		.uleb128 0x3c
 6295 0358 2E       		.uleb128 0x2e
 6296 0359 01       		.byte	0x1
ARM GAS  G:\Users\Jaxb\AppData\Local\Temp\ccLceCCb.s 			page 129


 6297 035a 03       		.uleb128 0x3
 6298 035b 0E       		.uleb128 0xe
 6299 035c 3A       		.uleb128 0x3a
 6300 035d 0B       		.uleb128 0xb
 6301 035e 3B       		.uleb128 0x3b
 6302 035f 0B       		.uleb128 0xb
 6303 0360 27       		.uleb128 0x27
 6304 0361 0C       		.uleb128 0xc
 6305 0362 49       		.uleb128 0x49
 6306 0363 13       		.uleb128 0x13
 6307 0364 20       		.uleb128 0x20
 6308 0365 0B       		.uleb128 0xb
 6309 0366 01       		.uleb128 0x1
 6310 0367 13       		.uleb128 0x13
 6311 0368 00       		.byte	0
 6312 0369 00       		.byte	0
 6313 036a 3D       		.uleb128 0x3d
 6314 036b 05       		.uleb128 0x5
 6315 036c 00       		.byte	0
 6316 036d 03       		.uleb128 0x3
 6317 036e 08       		.uleb128 0x8
 6318 036f 3A       		.uleb128 0x3a
 6319 0370 0B       		.uleb128 0xb
 6320 0371 3B       		.uleb128 0x3b
 6321 0372 0B       		.uleb128 0xb
 6322 0373 49       		.uleb128 0x49
 6323 0374 13       		.uleb128 0x13
 6324 0375 00       		.byte	0
 6325 0376 00       		.byte	0
 6326 0377 3E       		.uleb128 0x3e
 6327 0378 34       		.uleb128 0x34
 6328 0379 00       		.byte	0
 6329 037a 03       		.uleb128 0x3
 6330 037b 08       		.uleb128 0x8
 6331 037c 3A       		.uleb128 0x3a
 6332 037d 0B       		.uleb128 0xb
 6333 037e 3B       		.uleb128 0x3b
 6334 037f 0B       		.uleb128 0xb
 6335 0380 49       		.uleb128 0x49
 6336 0381 13       		.uleb128 0x13
 6337 0382 00       		.byte	0
 6338 0383 00       		.byte	0
 6339 0384 3F       		.uleb128 0x3f
 6340 0385 05       		.uleb128 0x5
 6341 0386 00       		.byte	0
 6342 0387 03       		.uleb128 0x3
 6343 0388 0E       		.uleb128 0xe
 6344 0389 3A       		.uleb128 0x3a
 6345 038a 0B       		.uleb128 0xb
 6346 038b 3B       		.uleb128 0x3b
 6347 038c 0B       		.uleb128 0xb
 6348 038d 49       		.uleb128 0x49
 6349 038e 13       		.uleb128 0x13
 6350 038f 00       		.byte	0
 6351 0390 00       		.byte	0
 6352 0391 40       		.uleb128 0x40
 6353 0392 2E       		.uleb128 0x2e
ARM GAS  G:\Users\Jaxb\AppData\Local\Temp\ccLceCCb.s 			page 130


 6354 0393 01       		.byte	0x1
 6355 0394 03       		.uleb128 0x3
 6356 0395 0E       		.uleb128 0xe
 6357 0396 3A       		.uleb128 0x3a
 6358 0397 0B       		.uleb128 0xb
 6359 0398 3B       		.uleb128 0x3b
 6360 0399 0B       		.uleb128 0xb
 6361 039a 27       		.uleb128 0x27
 6362 039b 0C       		.uleb128 0xc
 6363 039c 20       		.uleb128 0x20
 6364 039d 0B       		.uleb128 0xb
 6365 039e 01       		.uleb128 0x1
 6366 039f 13       		.uleb128 0x13
 6367 03a0 00       		.byte	0
 6368 03a1 00       		.byte	0
 6369 03a2 41       		.uleb128 0x41
 6370 03a3 2E       		.uleb128 0x2e
 6371 03a4 01       		.byte	0x1
 6372 03a5 31       		.uleb128 0x31
 6373 03a6 13       		.uleb128 0x13
 6374 03a7 11       		.uleb128 0x11
 6375 03a8 01       		.uleb128 0x1
 6376 03a9 12       		.uleb128 0x12
 6377 03aa 01       		.uleb128 0x1
 6378 03ab 40       		.uleb128 0x40
 6379 03ac 06       		.uleb128 0x6
 6380 03ad 9742     		.uleb128 0x2117
 6381 03af 0C       		.uleb128 0xc
 6382 03b0 01       		.uleb128 0x1
 6383 03b1 13       		.uleb128 0x13
 6384 03b2 00       		.byte	0
 6385 03b3 00       		.byte	0
 6386 03b4 42       		.uleb128 0x42
 6387 03b5 34       		.uleb128 0x34
 6388 03b6 00       		.byte	0
 6389 03b7 31       		.uleb128 0x31
 6390 03b8 13       		.uleb128 0x13
 6391 03b9 00       		.byte	0
 6392 03ba 00       		.byte	0
 6393 03bb 43       		.uleb128 0x43
 6394 03bc 34       		.uleb128 0x34
 6395 03bd 00       		.byte	0
 6396 03be 31       		.uleb128 0x31
 6397 03bf 13       		.uleb128 0x13
 6398 03c0 1C       		.uleb128 0x1c
 6399 03c1 0B       		.uleb128 0xb
 6400 03c2 00       		.byte	0
 6401 03c3 00       		.byte	0
 6402 03c4 44       		.uleb128 0x44
 6403 03c5 0B       		.uleb128 0xb
 6404 03c6 01       		.byte	0x1
 6405 03c7 31       		.uleb128 0x31
 6406 03c8 13       		.uleb128 0x13
 6407 03c9 55       		.uleb128 0x55
 6408 03ca 06       		.uleb128 0x6
 6409 03cb 01       		.uleb128 0x1
 6410 03cc 13       		.uleb128 0x13
ARM GAS  G:\Users\Jaxb\AppData\Local\Temp\ccLceCCb.s 			page 131


 6411 03cd 00       		.byte	0
 6412 03ce 00       		.byte	0
 6413 03cf 45       		.uleb128 0x45
 6414 03d0 0B       		.uleb128 0xb
 6415 03d1 01       		.byte	0x1
 6416 03d2 11       		.uleb128 0x11
 6417 03d3 01       		.uleb128 0x1
 6418 03d4 12       		.uleb128 0x12
 6419 03d5 01       		.uleb128 0x1
 6420 03d6 00       		.byte	0
 6421 03d7 00       		.byte	0
 6422 03d8 46       		.uleb128 0x46
 6423 03d9 0B       		.uleb128 0xb
 6424 03da 01       		.byte	0x1
 6425 03db 31       		.uleb128 0x31
 6426 03dc 13       		.uleb128 0x13
 6427 03dd 11       		.uleb128 0x11
 6428 03de 01       		.uleb128 0x1
 6429 03df 12       		.uleb128 0x12
 6430 03e0 01       		.uleb128 0x1
 6431 03e1 01       		.uleb128 0x1
 6432 03e2 13       		.uleb128 0x13
 6433 03e3 00       		.byte	0
 6434 03e4 00       		.byte	0
 6435 03e5 47       		.uleb128 0x47
 6436 03e6 2E       		.uleb128 0x2e
 6437 03e7 00       		.byte	0
 6438 03e8 3F       		.uleb128 0x3f
 6439 03e9 0C       		.uleb128 0xc
 6440 03ea 3C       		.uleb128 0x3c
 6441 03eb 0C       		.uleb128 0xc
 6442 03ec 8740     		.uleb128 0x2007
 6443 03ee 0E       		.uleb128 0xe
 6444 03ef 03       		.uleb128 0x3
 6445 03f0 0E       		.uleb128 0xe
 6446 03f1 3A       		.uleb128 0x3a
 6447 03f2 0B       		.uleb128 0xb
 6448 03f3 3B       		.uleb128 0x3b
 6449 03f4 0B       		.uleb128 0xb
 6450 03f5 00       		.byte	0
 6451 03f6 00       		.byte	0
 6452 03f7 00       		.byte	0
 6453              		.section	.debug_loc,"",%progbits
 6454              	.Ldebug_loc0:
 6455              	.LLST111:
 6456 0000 A0050000 		.4byte	.LFB25-.Ltext0
 6457 0004 A6050000 		.4byte	.LCFI15-.Ltext0
 6458 0008 0200     		.2byte	0x2
 6459 000a 7D       		.byte	0x7d
 6460 000b 00       		.sleb128 0
 6461 000c A6050000 		.4byte	.LCFI15-.Ltext0
 6462 0010 AA050000 		.4byte	.LCFI16-.Ltext0
 6463 0014 0200     		.2byte	0x2
 6464 0016 7D       		.byte	0x7d
 6465 0017 24       		.sleb128 36
 6466 0018 AA050000 		.4byte	.LCFI16-.Ltext0
 6467 001c 66070000 		.4byte	.LCFI17-.Ltext0
ARM GAS  G:\Users\Jaxb\AppData\Local\Temp\ccLceCCb.s 			page 132


 6468 0020 0200     		.2byte	0x2
 6469 0022 7D       		.byte	0x7d
 6470 0023 38       		.sleb128 56
 6471 0024 66070000 		.4byte	.LCFI17-.Ltext0
 6472 0028 6A070000 		.4byte	.LCFI18-.Ltext0
 6473 002c 0200     		.2byte	0x2
 6474 002e 7D       		.byte	0x7d
 6475 002f 24       		.sleb128 36
 6476 0030 6A070000 		.4byte	.LCFI18-.Ltext0
 6477 0034 6E070000 		.4byte	.LCFI19-.Ltext0
 6478 0038 0200     		.2byte	0x2
 6479 003a 7D       		.byte	0x7d
 6480 003b 00       		.sleb128 0
 6481 003c 6E070000 		.4byte	.LCFI19-.Ltext0
 6482 0040 D4070000 		.4byte	.LFE25-.Ltext0
 6483 0044 0200     		.2byte	0x2
 6484 0046 7D       		.byte	0x7d
 6485 0047 38       		.sleb128 56
 6486 0048 00000000 		.4byte	0
 6487 004c 00000000 		.4byte	0
 6488              	.LLST112:
 6489 0050 A0050000 		.4byte	.LVL217-.Ltext0
 6490 0054 AD050000 		.4byte	.LVL218-1-.Ltext0
 6491 0058 0100     		.2byte	0x1
 6492 005a 50       		.byte	0x50
 6493 005b AD050000 		.4byte	.LVL218-1-.Ltext0
 6494 005f D4070000 		.4byte	.LFE25-.Ltext0
 6495 0063 0400     		.2byte	0x4
 6496 0065 F3       		.byte	0xf3
 6497 0066 01       		.uleb128 0x1
 6498 0067 50       		.byte	0x50
 6499 0068 9F       		.byte	0x9f
 6500 0069 00000000 		.4byte	0
 6501 006d 00000000 		.4byte	0
 6502              	.LLST113:
 6503 0071 A0050000 		.4byte	.LVL217-.Ltext0
 6504 0075 AD050000 		.4byte	.LVL218-1-.Ltext0
 6505 0079 0100     		.2byte	0x1
 6506 007b 51       		.byte	0x51
 6507 007c AD050000 		.4byte	.LVL218-1-.Ltext0
 6508 0080 D4070000 		.4byte	.LFE25-.Ltext0
 6509 0084 0400     		.2byte	0x4
 6510 0086 F3       		.byte	0xf3
 6511 0087 01       		.uleb128 0x1
 6512 0088 51       		.byte	0x51
 6513 0089 9F       		.byte	0x9f
 6514 008a 00000000 		.4byte	0
 6515 008e 00000000 		.4byte	0
 6516              	.LLST114:
 6517 0092 BA050000 		.4byte	.LVL220-.Ltext0
 6518 0096 6A070000 		.4byte	.LVL275-.Ltext0
 6519 009a 0100     		.2byte	0x1
 6520 009c 56       		.byte	0x56
 6521 009d 6E070000 		.4byte	.LVL276-.Ltext0
 6522 00a1 D4070000 		.4byte	.LFE25-.Ltext0
 6523 00a5 0100     		.2byte	0x1
 6524 00a7 56       		.byte	0x56
ARM GAS  G:\Users\Jaxb\AppData\Local\Temp\ccLceCCb.s 			page 133


 6525 00a8 00000000 		.4byte	0
 6526 00ac 00000000 		.4byte	0
 6527              	.LLST115:
 6528 00b0 D2050000 		.4byte	.LVL223-.Ltext0
 6529 00b4 5A070000 		.4byte	.LVL273-.Ltext0
 6530 00b8 0100     		.2byte	0x1
 6531 00ba 56       		.byte	0x56
 6532 00bb 5A070000 		.4byte	.LVL273-.Ltext0
 6533 00bf 62070000 		.4byte	.LVL274-.Ltext0
 6534 00c3 0300     		.2byte	0x3
 6535 00c5 77       		.byte	0x77
 6536 00c6 64       		.sleb128 -28
 6537 00c7 9F       		.byte	0x9f
 6538 00c8 6E070000 		.4byte	.LVL276-.Ltext0
 6539 00cc D4070000 		.4byte	.LFE25-.Ltext0
 6540 00d0 0100     		.2byte	0x1
 6541 00d2 56       		.byte	0x56
 6542 00d3 00000000 		.4byte	0
 6543 00d7 00000000 		.4byte	0
 6544              	.LLST116:
 6545 00db DA050000 		.4byte	.LVL224-.Ltext0
 6546 00df 5A070000 		.4byte	.LVL273-.Ltext0
 6547 00e3 0100     		.2byte	0x1
 6548 00e5 56       		.byte	0x56
 6549 00e6 5A070000 		.4byte	.LVL273-.Ltext0
 6550 00ea 62070000 		.4byte	.LVL274-.Ltext0
 6551 00ee 0300     		.2byte	0x3
 6552 00f0 77       		.byte	0x77
 6553 00f1 64       		.sleb128 -28
 6554 00f2 9F       		.byte	0x9f
 6555 00f3 6E070000 		.4byte	.LVL276-.Ltext0
 6556 00f7 D4070000 		.4byte	.LFE25-.Ltext0
 6557 00fb 0100     		.2byte	0x1
 6558 00fd 56       		.byte	0x56
 6559 00fe 00000000 		.4byte	0
 6560 0102 00000000 		.4byte	0
 6561              	.LLST117:
 6562 0106 A0050000 		.4byte	.LVL217-.Ltext0
 6563 010a C4050000 		.4byte	.LVL221-.Ltext0
 6564 010e 0200     		.2byte	0x2
 6565 0110 30       		.byte	0x30
 6566 0111 9F       		.byte	0x9f
 6567 0112 C4050000 		.4byte	.LVL221-.Ltext0
 6568 0116 CE050000 		.4byte	.LVL222-.Ltext0
 6569 011a 0200     		.2byte	0x2
 6570 011c 91       		.byte	0x91
 6571 011d 4C       		.sleb128 -52
 6572 011e CE050000 		.4byte	.LVL222-.Ltext0
 6573 0122 D1050000 		.4byte	.LVL223-1-.Ltext0
 6574 0126 0100     		.2byte	0x1
 6575 0128 51       		.byte	0x51
 6576 0129 D1050000 		.4byte	.LVL223-1-.Ltext0
 6577 012d 62070000 		.4byte	.LVL274-.Ltext0
 6578 0131 0200     		.2byte	0x2
 6579 0133 91       		.byte	0x91
 6580 0134 4C       		.sleb128 -52
 6581 0135 6E070000 		.4byte	.LVL276-.Ltext0
ARM GAS  G:\Users\Jaxb\AppData\Local\Temp\ccLceCCb.s 			page 134


 6582 0139 D4070000 		.4byte	.LFE25-.Ltext0
 6583 013d 0200     		.2byte	0x2
 6584 013f 91       		.byte	0x91
 6585 0140 4C       		.sleb128 -52
 6586 0141 00000000 		.4byte	0
 6587 0145 00000000 		.4byte	0
 6588              	.LLST118:
 6589 0149 0E060000 		.4byte	.LVL230-.Ltext0
 6590 014d 48060000 		.4byte	.LVL237-.Ltext0
 6591 0151 0300     		.2byte	0x3
 6592 0153 74       		.byte	0x74
 6593 0154 6C       		.sleb128 -20
 6594 0155 9F       		.byte	0x9f
 6595 0156 8E060000 		.4byte	.LVL246-.Ltext0
 6596 015a C8060000 		.4byte	.LVL253-.Ltext0
 6597 015e 0300     		.2byte	0x3
 6598 0160 74       		.byte	0x74
 6599 0161 6C       		.sleb128 -20
 6600 0162 9F       		.byte	0x9f
 6601 0163 0C070000 		.4byte	.LVL262-.Ltext0
 6602 0167 46070000 		.4byte	.LVL269-.Ltext0
 6603 016b 0300     		.2byte	0x3
 6604 016d 74       		.byte	0x74
 6605 016e 6C       		.sleb128 -20
 6606 016f 9F       		.byte	0x9f
 6607 0170 00000000 		.4byte	0
 6608 0174 00000000 		.4byte	0
 6609              	.LLST119:
 6610 0178 A0050000 		.4byte	.LVL217-.Ltext0
 6611 017c B6050000 		.4byte	.LVL219-.Ltext0
 6612 0180 0200     		.2byte	0x2
 6613 0182 30       		.byte	0x30
 6614 0183 9F       		.byte	0x9f
 6615 0184 B6050000 		.4byte	.LVL219-.Ltext0
 6616 0188 C4050000 		.4byte	.LVL221-.Ltext0
 6617 018c 0100     		.2byte	0x1
 6618 018e 50       		.byte	0x50
 6619 018f C4050000 		.4byte	.LVL221-.Ltext0
 6620 0193 6A070000 		.4byte	.LVL275-.Ltext0
 6621 0197 0200     		.2byte	0x2
 6622 0199 91       		.byte	0x91
 6623 019a 54       		.sleb128 -44
 6624 019b 6A070000 		.4byte	.LVL275-.Ltext0
 6625 019f 6E070000 		.4byte	.LVL276-.Ltext0
 6626 01a3 0200     		.2byte	0x2
 6627 01a5 7D       		.byte	0x7d
 6628 01a6 54       		.sleb128 -44
 6629 01a7 6E070000 		.4byte	.LVL276-.Ltext0
 6630 01ab D4070000 		.4byte	.LFE25-.Ltext0
 6631 01af 0200     		.2byte	0x2
 6632 01b1 91       		.byte	0x91
 6633 01b2 54       		.sleb128 -44
 6634 01b3 00000000 		.4byte	0
 6635 01b7 00000000 		.4byte	0
 6636              	.LLST120:
 6637 01bb EE050000 		.4byte	.LVL227-.Ltext0
 6638 01bf 54060000 		.4byte	.LVL239-.Ltext0
ARM GAS  G:\Users\Jaxb\AppData\Local\Temp\ccLceCCb.s 			page 135


 6639 01c3 0100     		.2byte	0x1
 6640 01c5 54       		.byte	0x54
 6641 01c6 00000000 		.4byte	0
 6642 01ca 00000000 		.4byte	0
 6643              	.LLST121:
 6644 01ce E6050000 		.4byte	.LVL225-.Ltext0
 6645 01d2 02060000 		.4byte	.LVL228-.Ltext0
 6646 01d6 0200     		.2byte	0x2
 6647 01d8 30       		.byte	0x30
 6648 01d9 9F       		.byte	0x9f
 6649 01da 02060000 		.4byte	.LVL228-.Ltext0
 6650 01de 4C060000 		.4byte	.LVL238-.Ltext0
 6651 01e2 0100     		.2byte	0x1
 6652 01e4 58       		.byte	0x58
 6653 01e5 00000000 		.4byte	0
 6654 01e9 00000000 		.4byte	0
 6655              	.LLST122:
 6656 01ed 6E060000 		.4byte	.LVL243-.Ltext0
 6657 01f1 D4060000 		.4byte	.LVL255-.Ltext0
 6658 01f5 0100     		.2byte	0x1
 6659 01f7 54       		.byte	0x54
 6660 01f8 00000000 		.4byte	0
 6661 01fc 00000000 		.4byte	0
 6662              	.LLST123:
 6663 0200 66060000 		.4byte	.LVL241-.Ltext0
 6664 0204 82060000 		.4byte	.LVL244-.Ltext0
 6665 0208 0200     		.2byte	0x2
 6666 020a 30       		.byte	0x30
 6667 020b 9F       		.byte	0x9f
 6668 020c 82060000 		.4byte	.LVL244-.Ltext0
 6669 0210 CC060000 		.4byte	.LVL254-.Ltext0
 6670 0214 0100     		.2byte	0x1
 6671 0216 58       		.byte	0x58
 6672 0217 00000000 		.4byte	0
 6673 021b 00000000 		.4byte	0
 6674              	.LLST124:
 6675 021f EC060000 		.4byte	.LVL259-.Ltext0
 6676 0223 52070000 		.4byte	.LVL271-.Ltext0
 6677 0227 0100     		.2byte	0x1
 6678 0229 54       		.byte	0x54
 6679 022a 00000000 		.4byte	0
 6680 022e 00000000 		.4byte	0
 6681              	.LLST125:
 6682 0232 E4060000 		.4byte	.LVL257-.Ltext0
 6683 0236 00070000 		.4byte	.LVL260-.Ltext0
 6684 023a 0200     		.2byte	0x2
 6685 023c 30       		.byte	0x30
 6686 023d 9F       		.byte	0x9f
 6687 023e 00070000 		.4byte	.LVL260-.Ltext0
 6688 0242 4A070000 		.4byte	.LVL270-.Ltext0
 6689 0246 0100     		.2byte	0x1
 6690 0248 58       		.byte	0x58
 6691 0249 00000000 		.4byte	0
 6692 024d 00000000 		.4byte	0
 6693              	.LLST97:
 6694 0251 C0040000 		.4byte	.LFB24-.Ltext0
 6695 0255 C4040000 		.4byte	.LCFI12-.Ltext0
ARM GAS  G:\Users\Jaxb\AppData\Local\Temp\ccLceCCb.s 			page 136


 6696 0259 0200     		.2byte	0x2
 6697 025b 7D       		.byte	0x7d
 6698 025c 00       		.sleb128 0
 6699 025d C4040000 		.4byte	.LCFI12-.Ltext0
 6700 0261 52050000 		.4byte	.LCFI13-.Ltext0
 6701 0265 0200     		.2byte	0x2
 6702 0267 7D       		.byte	0x7d
 6703 0268 20       		.sleb128 32
 6704 0269 52050000 		.4byte	.LCFI13-.Ltext0
 6705 026d 56050000 		.4byte	.LCFI14-.Ltext0
 6706 0271 0200     		.2byte	0x2
 6707 0273 7D       		.byte	0x7d
 6708 0274 00       		.sleb128 0
 6709 0275 56050000 		.4byte	.LCFI14-.Ltext0
 6710 0279 A0050000 		.4byte	.LFE24-.Ltext0
 6711 027d 0200     		.2byte	0x2
 6712 027f 7D       		.byte	0x7d
 6713 0280 20       		.sleb128 32
 6714 0281 00000000 		.4byte	0
 6715 0285 00000000 		.4byte	0
 6716              	.LLST98:
 6717 0289 C0040000 		.4byte	.LVL189-.Ltext0
 6718 028d C7040000 		.4byte	.LVL190-1-.Ltext0
 6719 0291 0100     		.2byte	0x1
 6720 0293 50       		.byte	0x50
 6721 0294 C7040000 		.4byte	.LVL190-1-.Ltext0
 6722 0298 A0050000 		.4byte	.LFE24-.Ltext0
 6723 029c 0400     		.2byte	0x4
 6724 029e F3       		.byte	0xf3
 6725 029f 01       		.uleb128 0x1
 6726 02a0 50       		.byte	0x50
 6727 02a1 9F       		.byte	0x9f
 6728 02a2 00000000 		.4byte	0
 6729 02a6 00000000 		.4byte	0
 6730              	.LLST99:
 6731 02aa C0040000 		.4byte	.LVL189-.Ltext0
 6732 02ae C7040000 		.4byte	.LVL190-1-.Ltext0
 6733 02b2 0100     		.2byte	0x1
 6734 02b4 51       		.byte	0x51
 6735 02b5 C7040000 		.4byte	.LVL190-1-.Ltext0
 6736 02b9 A0050000 		.4byte	.LFE24-.Ltext0
 6737 02bd 0400     		.2byte	0x4
 6738 02bf F3       		.byte	0xf3
 6739 02c0 01       		.uleb128 0x1
 6740 02c1 51       		.byte	0x51
 6741 02c2 9F       		.byte	0x9f
 6742 02c3 00000000 		.4byte	0
 6743 02c7 00000000 		.4byte	0
 6744              	.LLST100:
 6745 02cb D0040000 		.4byte	.LVL192-.Ltext0
 6746 02cf 52050000 		.4byte	.LVL212-.Ltext0
 6747 02d3 0100     		.2byte	0x1
 6748 02d5 54       		.byte	0x54
 6749 02d6 56050000 		.4byte	.LVL213-.Ltext0
 6750 02da A0050000 		.4byte	.LFE24-.Ltext0
 6751 02de 0100     		.2byte	0x1
 6752 02e0 54       		.byte	0x54
ARM GAS  G:\Users\Jaxb\AppData\Local\Temp\ccLceCCb.s 			page 137


 6753 02e1 00000000 		.4byte	0
 6754 02e5 00000000 		.4byte	0
 6755              	.LLST101:
 6756 02e9 EA040000 		.4byte	.LVL195-.Ltext0
 6757 02ed 48050000 		.4byte	.LVL210-.Ltext0
 6758 02f1 0100     		.2byte	0x1
 6759 02f3 54       		.byte	0x54
 6760 02f4 56050000 		.4byte	.LVL213-.Ltext0
 6761 02f8 A0050000 		.4byte	.LFE24-.Ltext0
 6762 02fc 0100     		.2byte	0x1
 6763 02fe 54       		.byte	0x54
 6764 02ff 00000000 		.4byte	0
 6765 0303 00000000 		.4byte	0
 6766              	.LLST102:
 6767 0307 F2040000 		.4byte	.LVL196-.Ltext0
 6768 030b 48050000 		.4byte	.LVL210-.Ltext0
 6769 030f 0100     		.2byte	0x1
 6770 0311 54       		.byte	0x54
 6771 0312 56050000 		.4byte	.LVL213-.Ltext0
 6772 0316 A0050000 		.4byte	.LFE24-.Ltext0
 6773 031a 0100     		.2byte	0x1
 6774 031c 54       		.byte	0x54
 6775 031d 00000000 		.4byte	0
 6776 0321 00000000 		.4byte	0
 6777              	.LLST103:
 6778 0325 C0040000 		.4byte	.LVL189-.Ltext0
 6779 0329 E0040000 		.4byte	.LVL193-.Ltext0
 6780 032d 0200     		.2byte	0x2
 6781 032f 30       		.byte	0x30
 6782 0330 9F       		.byte	0x9f
 6783 0331 E0040000 		.4byte	.LVL193-.Ltext0
 6784 0335 4C050000 		.4byte	.LVL211-.Ltext0
 6785 0339 0100     		.2byte	0x1
 6786 033b 55       		.byte	0x55
 6787 033c 56050000 		.4byte	.LVL213-.Ltext0
 6788 0340 A0050000 		.4byte	.LFE24-.Ltext0
 6789 0344 0100     		.2byte	0x1
 6790 0346 55       		.byte	0x55
 6791 0347 00000000 		.4byte	0
 6792 034b 00000000 		.4byte	0
 6793              	.LLST104:
 6794 034f C0040000 		.4byte	.LVL189-.Ltext0
 6795 0353 CC040000 		.4byte	.LVL191-.Ltext0
 6796 0357 0200     		.2byte	0x2
 6797 0359 30       		.byte	0x30
 6798 035a 9F       		.byte	0x9f
 6799 035b CC040000 		.4byte	.LVL191-.Ltext0
 6800 035f E0040000 		.4byte	.LVL193-.Ltext0
 6801 0363 0100     		.2byte	0x1
 6802 0365 50       		.byte	0x50
 6803 0366 E0040000 		.4byte	.LVL193-.Ltext0
 6804 036a 52050000 		.4byte	.LVL212-.Ltext0
 6805 036e 0100     		.2byte	0x1
 6806 0370 5A       		.byte	0x5a
 6807 0371 52050000 		.4byte	.LVL212-.Ltext0
 6808 0375 55050000 		.4byte	.LVL213-1-.Ltext0
 6809 0379 0100     		.2byte	0x1
ARM GAS  G:\Users\Jaxb\AppData\Local\Temp\ccLceCCb.s 			page 138


 6810 037b 50       		.byte	0x50
 6811 037c 56050000 		.4byte	.LVL213-.Ltext0
 6812 0380 A0050000 		.4byte	.LFE24-.Ltext0
 6813 0384 0100     		.2byte	0x1
 6814 0386 5A       		.byte	0x5a
 6815 0387 00000000 		.4byte	0
 6816 038b 00000000 		.4byte	0
 6817              	.LLST105:
 6818 038f FE040000 		.4byte	.LVL197-.Ltext0
 6819 0393 00050000 		.4byte	.LVL198-.Ltext0
 6820 0397 0100     		.2byte	0x1
 6821 0399 53       		.byte	0x53
 6822 039a 02050000 		.4byte	.LVL199-.Ltext0
 6823 039e 0B050000 		.4byte	.LVL200-1-.Ltext0
 6824 03a2 0100     		.2byte	0x1
 6825 03a4 53       		.byte	0x53
 6826 03a5 00000000 		.4byte	0
 6827 03a9 00000000 		.4byte	0
 6828              	.LLST106:
 6829 03ad FE040000 		.4byte	.LVL197-.Ltext0
 6830 03b1 0B050000 		.4byte	.LVL200-1-.Ltext0
 6831 03b5 0100     		.2byte	0x1
 6832 03b7 51       		.byte	0x51
 6833 03b8 00000000 		.4byte	0
 6834 03bc 00000000 		.4byte	0
 6835              	.LLST107:
 6836 03c0 18050000 		.4byte	.LVL201-.Ltext0
 6837 03c4 1A050000 		.4byte	.LVL202-.Ltext0
 6838 03c8 0100     		.2byte	0x1
 6839 03ca 53       		.byte	0x53
 6840 03cb 1C050000 		.4byte	.LVL203-.Ltext0
 6841 03cf 25050000 		.4byte	.LVL204-1-.Ltext0
 6842 03d3 0100     		.2byte	0x1
 6843 03d5 53       		.byte	0x53
 6844 03d6 00000000 		.4byte	0
 6845 03da 00000000 		.4byte	0
 6846              	.LLST108:
 6847 03de 18050000 		.4byte	.LVL201-.Ltext0
 6848 03e2 25050000 		.4byte	.LVL204-1-.Ltext0
 6849 03e6 0100     		.2byte	0x1
 6850 03e8 51       		.byte	0x51
 6851 03e9 00000000 		.4byte	0
 6852 03ed 00000000 		.4byte	0
 6853              	.LLST109:
 6854 03f1 32050000 		.4byte	.LVL205-.Ltext0
 6855 03f5 34050000 		.4byte	.LVL206-.Ltext0
 6856 03f9 0100     		.2byte	0x1
 6857 03fb 53       		.byte	0x53
 6858 03fc 36050000 		.4byte	.LVL207-.Ltext0
 6859 0400 3F050000 		.4byte	.LVL208-1-.Ltext0
 6860 0404 0100     		.2byte	0x1
 6861 0406 53       		.byte	0x53
 6862 0407 00000000 		.4byte	0
 6863 040b 00000000 		.4byte	0
 6864              	.LLST110:
 6865 040f 32050000 		.4byte	.LVL205-.Ltext0
 6866 0413 3F050000 		.4byte	.LVL208-1-.Ltext0
ARM GAS  G:\Users\Jaxb\AppData\Local\Temp\ccLceCCb.s 			page 139


 6867 0417 0100     		.2byte	0x1
 6868 0419 51       		.byte	0x51
 6869 041a 00000000 		.4byte	0
 6870 041e 00000000 		.4byte	0
 6871              	.LLST67:
 6872 0422 78030000 		.4byte	.LFB22-.Ltext0
 6873 0426 7A030000 		.4byte	.LCFI5-.Ltext0
 6874 042a 0200     		.2byte	0x2
 6875 042c 7D       		.byte	0x7d
 6876 042d 00       		.sleb128 0
 6877 042e 7A030000 		.4byte	.LCFI5-.Ltext0
 6878 0432 B8030000 		.4byte	.LFE22-.Ltext0
 6879 0436 0200     		.2byte	0x2
 6880 0438 7D       		.byte	0x7d
 6881 0439 10       		.sleb128 16
 6882 043a 00000000 		.4byte	0
 6883 043e 00000000 		.4byte	0
 6884              	.LLST68:
 6885 0442 78030000 		.4byte	.LVL138-.Ltext0
 6886 0446 7F030000 		.4byte	.LVL139-1-.Ltext0
 6887 044a 0100     		.2byte	0x1
 6888 044c 50       		.byte	0x50
 6889 044d 7F030000 		.4byte	.LVL139-1-.Ltext0
 6890 0451 B2030000 		.4byte	.LVL149-.Ltext0
 6891 0455 0100     		.2byte	0x1
 6892 0457 55       		.byte	0x55
 6893 0458 B2030000 		.4byte	.LVL149-.Ltext0
 6894 045c B8030000 		.4byte	.LFE22-.Ltext0
 6895 0460 0400     		.2byte	0x4
 6896 0462 F3       		.byte	0xf3
 6897 0463 01       		.uleb128 0x1
 6898 0464 50       		.byte	0x50
 6899 0465 9F       		.byte	0x9f
 6900 0466 00000000 		.4byte	0
 6901 046a 00000000 		.4byte	0
 6902              	.LLST69:
 6903 046e 80030000 		.4byte	.LVL139-.Ltext0
 6904 0472 86030000 		.4byte	.LVL140-.Ltext0
 6905 0476 0100     		.2byte	0x1
 6906 0478 50       		.byte	0x50
 6907 0479 86030000 		.4byte	.LVL140-.Ltext0
 6908 047d 8C030000 		.4byte	.LVL141-.Ltext0
 6909 0481 0100     		.2byte	0x1
 6910 0483 54       		.byte	0x54
 6911 0484 8C030000 		.4byte	.LVL141-.Ltext0
 6912 0488 92030000 		.4byte	.LVL142-.Ltext0
 6913 048c 0100     		.2byte	0x1
 6914 048e 50       		.byte	0x50
 6915 048f 92030000 		.4byte	.LVL142-.Ltext0
 6916 0493 9C030000 		.4byte	.LVL144-.Ltext0
 6917 0497 0100     		.2byte	0x1
 6918 0499 54       		.byte	0x54
 6919 049a 9C030000 		.4byte	.LVL144-.Ltext0
 6920 049e A0030000 		.4byte	.LVL145-.Ltext0
 6921 04a2 0100     		.2byte	0x1
 6922 04a4 50       		.byte	0x50
 6923 04a5 A0030000 		.4byte	.LVL145-.Ltext0
ARM GAS  G:\Users\Jaxb\AppData\Local\Temp\ccLceCCb.s 			page 140


 6924 04a9 A2030000 		.4byte	.LVL146-.Ltext0
 6925 04ad 0100     		.2byte	0x1
 6926 04af 54       		.byte	0x54
 6927 04b0 A2030000 		.4byte	.LVL146-.Ltext0
 6928 04b4 A8030000 		.4byte	.LVL147-.Ltext0
 6929 04b8 0100     		.2byte	0x1
 6930 04ba 50       		.byte	0x50
 6931 04bb A8030000 		.4byte	.LVL147-.Ltext0
 6932 04bf B2030000 		.4byte	.LVL149-.Ltext0
 6933 04c3 0100     		.2byte	0x1
 6934 04c5 54       		.byte	0x54
 6935 04c6 00000000 		.4byte	0
 6936 04ca 00000000 		.4byte	0
 6937              	.LLST0:
 6938 04ce 00000000 		.4byte	.LFB21-.Ltext0
 6939 04d2 02000000 		.4byte	.LCFI0-.Ltext0
 6940 04d6 0200     		.2byte	0x2
 6941 04d8 7D       		.byte	0x7d
 6942 04d9 00       		.sleb128 0
 6943 04da 02000000 		.4byte	.LCFI0-.Ltext0
 6944 04de 70000000 		.4byte	.LFE21-.Ltext0
 6945 04e2 0200     		.2byte	0x2
 6946 04e4 7D       		.byte	0x7d
 6947 04e5 10       		.sleb128 16
 6948 04e6 00000000 		.4byte	0
 6949 04ea 00000000 		.4byte	0
 6950              	.LLST1:
 6951 04ee 00000000 		.4byte	.LVL0-.Ltext0
 6952 04f2 22000000 		.4byte	.LVL4-.Ltext0
 6953 04f6 0100     		.2byte	0x1
 6954 04f8 50       		.byte	0x50
 6955 04f9 22000000 		.4byte	.LVL4-.Ltext0
 6956 04fd 24000000 		.4byte	.LVL5-.Ltext0
 6957 0501 0400     		.2byte	0x4
 6958 0503 F3       		.byte	0xf3
 6959 0504 01       		.uleb128 0x1
 6960 0505 50       		.byte	0x50
 6961 0506 9F       		.byte	0x9f
 6962 0507 24000000 		.4byte	.LVL5-.Ltext0
 6963 050b 34000000 		.4byte	.LVL7-.Ltext0
 6964 050f 0100     		.2byte	0x1
 6965 0511 50       		.byte	0x50
 6966 0512 34000000 		.4byte	.LVL7-.Ltext0
 6967 0516 60000000 		.4byte	.LVL11-.Ltext0
 6968 051a 0400     		.2byte	0x4
 6969 051c F3       		.byte	0xf3
 6970 051d 01       		.uleb128 0x1
 6971 051e 50       		.byte	0x50
 6972 051f 9F       		.byte	0x9f
 6973 0520 60000000 		.4byte	.LVL11-.Ltext0
 6974 0524 66000000 		.4byte	.LVL12-.Ltext0
 6975 0528 0100     		.2byte	0x1
 6976 052a 50       		.byte	0x50
 6977 052b 66000000 		.4byte	.LVL12-.Ltext0
 6978 052f 70000000 		.4byte	.LFE21-.Ltext0
 6979 0533 0400     		.2byte	0x4
 6980 0535 F3       		.byte	0xf3
ARM GAS  G:\Users\Jaxb\AppData\Local\Temp\ccLceCCb.s 			page 141


 6981 0536 01       		.uleb128 0x1
 6982 0537 50       		.byte	0x50
 6983 0538 9F       		.byte	0x9f
 6984 0539 00000000 		.4byte	0
 6985 053d 00000000 		.4byte	0
 6986              	.LLST2:
 6987 0541 00000000 		.4byte	.LVL0-.Ltext0
 6988 0545 28000000 		.4byte	.LVL6-.Ltext0
 6989 0549 0100     		.2byte	0x1
 6990 054b 51       		.byte	0x51
 6991 054c 28000000 		.4byte	.LVL6-.Ltext0
 6992 0550 70000000 		.4byte	.LFE21-.Ltext0
 6993 0554 0100     		.2byte	0x1
 6994 0556 55       		.byte	0x55
 6995 0557 00000000 		.4byte	0
 6996 055b 00000000 		.4byte	0
 6997              	.LLST3:
 6998 055f 0A000000 		.4byte	.LVL2-.Ltext0
 6999 0563 1C000000 		.4byte	.LVL3-.Ltext0
 7000 0567 0300     		.2byte	0x3
 7001 0569 74       		.byte	0x74
 7002 056a 6C       		.sleb128 -20
 7003 056b 9F       		.byte	0x9f
 7004 056c 24000000 		.4byte	.LVL5-.Ltext0
 7005 0570 70000000 		.4byte	.LFE21-.Ltext0
 7006 0574 0300     		.2byte	0x3
 7007 0576 74       		.byte	0x74
 7008 0577 6C       		.sleb128 -20
 7009 0578 9F       		.byte	0x9f
 7010 0579 00000000 		.4byte	0
 7011 057d 00000000 		.4byte	0
 7012              	.LLST9:
 7013 0581 0A000000 		.4byte	.LVL2-.Ltext0
 7014 0585 1C000000 		.4byte	.LVL3-.Ltext0
 7015 0589 0100     		.2byte	0x1
 7016 058b 54       		.byte	0x54
 7017 058c 24000000 		.4byte	.LVL5-.Ltext0
 7018 0590 70000000 		.4byte	.LFE21-.Ltext0
 7019 0594 0100     		.2byte	0x1
 7020 0596 54       		.byte	0x54
 7021 0597 00000000 		.4byte	0
 7022 059b 00000000 		.4byte	0
 7023              	.LLST4:
 7024 059f 56000000 		.4byte	.LVL9-.Ltext0
 7025 05a3 5E000000 		.4byte	.LVL10-.Ltext0
 7026 05a7 0100     		.2byte	0x1
 7027 05a9 53       		.byte	0x53
 7028 05aa 00000000 		.4byte	0
 7029 05ae 00000000 		.4byte	0
 7030              	.LLST5:
 7031 05b2 56000000 		.4byte	.LVL9-.Ltext0
 7032 05b6 5E000000 		.4byte	.LVL10-.Ltext0
 7033 05ba 0100     		.2byte	0x1
 7034 05bc 55       		.byte	0x55
 7035 05bd 00000000 		.4byte	0
 7036 05c1 00000000 		.4byte	0
 7037              	.LLST6:
ARM GAS  G:\Users\Jaxb\AppData\Local\Temp\ccLceCCb.s 			page 142


 7038 05c5 56000000 		.4byte	.LVL9-.Ltext0
 7039 05c9 5E000000 		.4byte	.LVL10-.Ltext0
 7040 05cd 0100     		.2byte	0x1
 7041 05cf 52       		.byte	0x52
 7042 05d0 00000000 		.4byte	0
 7043 05d4 00000000 		.4byte	0
 7044              	.LLST23:
 7045 05d8 D0010000 		.4byte	.LFB20-.Ltext0
 7046 05dc D4010000 		.4byte	.LCFI4-.Ltext0
 7047 05e0 0200     		.2byte	0x2
 7048 05e2 7D       		.byte	0x7d
 7049 05e3 00       		.sleb128 0
 7050 05e4 D4010000 		.4byte	.LCFI4-.Ltext0
 7051 05e8 78030000 		.4byte	.LFE20-.Ltext0
 7052 05ec 0200     		.2byte	0x2
 7053 05ee 7D       		.byte	0x7d
 7054 05ef 20       		.sleb128 32
 7055 05f0 00000000 		.4byte	0
 7056 05f4 00000000 		.4byte	0
 7057              	.LLST24:
 7058 05f8 D0010000 		.4byte	.LVL65-.Ltext0
 7059 05fc DB010000 		.4byte	.LVL66-1-.Ltext0
 7060 0600 0100     		.2byte	0x1
 7061 0602 50       		.byte	0x50
 7062 0603 DB010000 		.4byte	.LVL66-1-.Ltext0
 7063 0607 F6010000 		.4byte	.LVL72-.Ltext0
 7064 060b 0100     		.2byte	0x1
 7065 060d 55       		.byte	0x55
 7066 060e F6010000 		.4byte	.LVL72-.Ltext0
 7067 0612 24020000 		.4byte	.LVL80-.Ltext0
 7068 0616 0400     		.2byte	0x4
 7069 0618 F3       		.byte	0xf3
 7070 0619 01       		.uleb128 0x1
 7071 061a 50       		.byte	0x50
 7072 061b 9F       		.byte	0x9f
 7073 061c 24020000 		.4byte	.LVL80-.Ltext0
 7074 0620 70020000 		.4byte	.LVL94-.Ltext0
 7075 0624 0100     		.2byte	0x1
 7076 0626 55       		.byte	0x55
 7077 0627 70020000 		.4byte	.LVL94-.Ltext0
 7078 062b 7E020000 		.4byte	.LVL96-.Ltext0
 7079 062f 0400     		.2byte	0x4
 7080 0631 F3       		.byte	0xf3
 7081 0632 01       		.uleb128 0x1
 7082 0633 50       		.byte	0x50
 7083 0634 9F       		.byte	0x9f
 7084 0635 7E020000 		.4byte	.LVL96-.Ltext0
 7085 0639 A6020000 		.4byte	.LVL104-.Ltext0
 7086 063d 0100     		.2byte	0x1
 7087 063f 55       		.byte	0x55
 7088 0640 A6020000 		.4byte	.LVL104-.Ltext0
 7089 0644 DC020000 		.4byte	.LVL113-.Ltext0
 7090 0648 0400     		.2byte	0x4
 7091 064a F3       		.byte	0xf3
 7092 064b 01       		.uleb128 0x1
 7093 064c 50       		.byte	0x50
 7094 064d 9F       		.byte	0x9f
ARM GAS  G:\Users\Jaxb\AppData\Local\Temp\ccLceCCb.s 			page 143


 7095 064e DC020000 		.4byte	.LVL113-.Ltext0
 7096 0652 DE020000 		.4byte	.LVL114-.Ltext0
 7097 0656 0100     		.2byte	0x1
 7098 0658 55       		.byte	0x55
 7099 0659 DE020000 		.4byte	.LVL114-.Ltext0
 7100 065d 0E030000 		.4byte	.LVL123-.Ltext0
 7101 0661 0400     		.2byte	0x4
 7102 0663 F3       		.byte	0xf3
 7103 0664 01       		.uleb128 0x1
 7104 0665 50       		.byte	0x50
 7105 0666 9F       		.byte	0x9f
 7106 0667 0E030000 		.4byte	.LVL123-.Ltext0
 7107 066b 20030000 		.4byte	.LVL125-.Ltext0
 7108 066f 0100     		.2byte	0x1
 7109 0671 55       		.byte	0x55
 7110 0672 20030000 		.4byte	.LVL125-.Ltext0
 7111 0676 56030000 		.4byte	.LVL133-.Ltext0
 7112 067a 0400     		.2byte	0x4
 7113 067c F3       		.byte	0xf3
 7114 067d 01       		.uleb128 0x1
 7115 067e 50       		.byte	0x50
 7116 067f 9F       		.byte	0x9f
 7117 0680 56030000 		.4byte	.LVL133-.Ltext0
 7118 0684 62030000 		.4byte	.LVL136-.Ltext0
 7119 0688 0100     		.2byte	0x1
 7120 068a 55       		.byte	0x55
 7121 068b 62030000 		.4byte	.LVL136-.Ltext0
 7122 068f 78030000 		.4byte	.LFE20-.Ltext0
 7123 0693 0400     		.2byte	0x4
 7124 0695 F3       		.byte	0xf3
 7125 0696 01       		.uleb128 0x1
 7126 0697 50       		.byte	0x50
 7127 0698 9F       		.byte	0x9f
 7128 0699 00000000 		.4byte	0
 7129 069d 00000000 		.4byte	0
 7130              	.LLST25:
 7131 06a1 F4010000 		.4byte	.LVL71-.Ltext0
 7132 06a5 FC010000 		.4byte	.LVL74-.Ltext0
 7133 06a9 0100     		.2byte	0x1
 7134 06ab 50       		.byte	0x50
 7135 06ac FC010000 		.4byte	.LVL74-.Ltext0
 7136 06b0 1E020000 		.4byte	.LVL79-.Ltext0
 7137 06b4 0100     		.2byte	0x1
 7138 06b6 55       		.byte	0x55
 7139 06b7 A6020000 		.4byte	.LVL104-.Ltext0
 7140 06bb DC020000 		.4byte	.LVL113-.Ltext0
 7141 06bf 0100     		.2byte	0x1
 7142 06c1 55       		.byte	0x55
 7143 06c2 DE020000 		.4byte	.LVL114-.Ltext0
 7144 06c6 0E030000 		.4byte	.LVL123-.Ltext0
 7145 06ca 0100     		.2byte	0x1
 7146 06cc 55       		.byte	0x55
 7147 06cd 20030000 		.4byte	.LVL125-.Ltext0
 7148 06d1 56030000 		.4byte	.LVL133-.Ltext0
 7149 06d5 0100     		.2byte	0x1
 7150 06d7 55       		.byte	0x55
 7151 06d8 00000000 		.4byte	0
ARM GAS  G:\Users\Jaxb\AppData\Local\Temp\ccLceCCb.s 			page 144


 7152 06dc 00000000 		.4byte	0
 7153              	.LLST26:
 7154 06e0 D0010000 		.4byte	.LVL65-.Ltext0
 7155 06e4 E2010000 		.4byte	.LVL67-.Ltext0
 7156 06e8 0200     		.2byte	0x2
 7157 06ea 30       		.byte	0x30
 7158 06eb 9F       		.byte	0x9f
 7159 06ec E2010000 		.4byte	.LVL67-.Ltext0
 7160 06f0 E6010000 		.4byte	.LVL68-.Ltext0
 7161 06f4 0100     		.2byte	0x1
 7162 06f6 50       		.byte	0x50
 7163 06f7 E6010000 		.4byte	.LVL68-.Ltext0
 7164 06fb 1E020000 		.4byte	.LVL79-.Ltext0
 7165 06ff 0100     		.2byte	0x1
 7166 0701 57       		.byte	0x57
 7167 0702 24020000 		.4byte	.LVL80-.Ltext0
 7168 0706 28020000 		.4byte	.LVL81-.Ltext0
 7169 070a 0100     		.2byte	0x1
 7170 070c 50       		.byte	0x50
 7171 070d 28020000 		.4byte	.LVL81-.Ltext0
 7172 0711 78030000 		.4byte	.LFE20-.Ltext0
 7173 0715 0100     		.2byte	0x1
 7174 0717 57       		.byte	0x57
 7175 0718 00000000 		.4byte	0
 7176 071c 00000000 		.4byte	0
 7177              	.LLST33:
 7178 0720 2E020000 		.4byte	.LVL83-.Ltext0
 7179 0724 48020000 		.4byte	.LVL87-.Ltext0
 7180 0728 0100     		.2byte	0x1
 7181 072a 50       		.byte	0x50
 7182 072b 48020000 		.4byte	.LVL87-.Ltext0
 7183 072f 6A020000 		.4byte	.LVL92-.Ltext0
 7184 0733 0100     		.2byte	0x1
 7185 0735 54       		.byte	0x54
 7186 0736 6A020000 		.4byte	.LVL92-.Ltext0
 7187 073a 70020000 		.4byte	.LVL94-.Ltext0
 7188 073e 0100     		.2byte	0x1
 7189 0740 50       		.byte	0x50
 7190 0741 7E020000 		.4byte	.LVL96-.Ltext0
 7191 0745 80020000 		.4byte	.LVL97-.Ltext0
 7192 0749 0100     		.2byte	0x1
 7193 074b 50       		.byte	0x50
 7194 074c 80020000 		.4byte	.LVL97-.Ltext0
 7195 0750 9C020000 		.4byte	.LVL102-.Ltext0
 7196 0754 0100     		.2byte	0x1
 7197 0756 54       		.byte	0x54
 7198 0757 9C020000 		.4byte	.LVL102-.Ltext0
 7199 075b D0020000 		.4byte	.LVL111-.Ltext0
 7200 075f 0100     		.2byte	0x1
 7201 0761 50       		.byte	0x50
 7202 0762 DC020000 		.4byte	.LVL113-.Ltext0
 7203 0766 FA020000 		.4byte	.LVL120-.Ltext0
 7204 076a 0100     		.2byte	0x1
 7205 076c 50       		.byte	0x50
 7206 076d FA020000 		.4byte	.LVL120-.Ltext0
 7207 0771 3A030000 		.4byte	.LVL129-.Ltext0
 7208 0775 0100     		.2byte	0x1
ARM GAS  G:\Users\Jaxb\AppData\Local\Temp\ccLceCCb.s 			page 145


 7209 0777 54       		.byte	0x54
 7210 0778 56030000 		.4byte	.LVL133-.Ltext0
 7211 077c 78030000 		.4byte	.LFE20-.Ltext0
 7212 0780 0100     		.2byte	0x1
 7213 0782 54       		.byte	0x54
 7214 0783 00000000 		.4byte	0
 7215 0787 00000000 		.4byte	0
 7216              	.LLST35:
 7217 078b 30020000 		.4byte	.LVL84-.Ltext0
 7218 078f 48020000 		.4byte	.LVL87-.Ltext0
 7219 0793 0100     		.2byte	0x1
 7220 0795 50       		.byte	0x50
 7221 0796 48020000 		.4byte	.LVL87-.Ltext0
 7222 079a 6C020000 		.4byte	.LVL93-.Ltext0
 7223 079e 0100     		.2byte	0x1
 7224 07a0 54       		.byte	0x54
 7225 07a1 7E020000 		.4byte	.LVL96-.Ltext0
 7226 07a5 80020000 		.4byte	.LVL97-.Ltext0
 7227 07a9 0100     		.2byte	0x1
 7228 07ab 50       		.byte	0x50
 7229 07ac 80020000 		.4byte	.LVL97-.Ltext0
 7230 07b0 9C020000 		.4byte	.LVL102-.Ltext0
 7231 07b4 0100     		.2byte	0x1
 7232 07b6 54       		.byte	0x54
 7233 07b7 9E020000 		.4byte	.LVL103-.Ltext0
 7234 07bb D0020000 		.4byte	.LVL111-.Ltext0
 7235 07bf 0100     		.2byte	0x1
 7236 07c1 50       		.byte	0x50
 7237 07c2 DC020000 		.4byte	.LVL113-.Ltext0
 7238 07c6 FA020000 		.4byte	.LVL120-.Ltext0
 7239 07ca 0100     		.2byte	0x1
 7240 07cc 50       		.byte	0x50
 7241 07cd FA020000 		.4byte	.LVL120-.Ltext0
 7242 07d1 3A030000 		.4byte	.LVL129-.Ltext0
 7243 07d5 0100     		.2byte	0x1
 7244 07d7 54       		.byte	0x54
 7245 07d8 56030000 		.4byte	.LVL133-.Ltext0
 7246 07dc 78030000 		.4byte	.LFE20-.Ltext0
 7247 07e0 0100     		.2byte	0x1
 7248 07e2 54       		.byte	0x54
 7249 07e3 00000000 		.4byte	0
 7250 07e7 00000000 		.4byte	0
 7251              	.LLST43:
 7252 07eb 9E020000 		.4byte	.LVL103-.Ltext0
 7253 07ef D0020000 		.4byte	.LVL111-.Ltext0
 7254 07f3 0300     		.2byte	0x3
 7255 07f5 78       		.byte	0x78
 7256 07f6 6C       		.sleb128 -20
 7257 07f7 9F       		.byte	0x9f
 7258 07f8 00000000 		.4byte	0
 7259 07fc 00000000 		.4byte	0
 7260              	.LLST44:
 7261 0800 A6020000 		.4byte	.LVL104-.Ltext0
 7262 0804 B0020000 		.4byte	.LVL106-.Ltext0
 7263 0808 0100     		.2byte	0x1
 7264 080a 55       		.byte	0x55
 7265 080b 00000000 		.4byte	0
ARM GAS  G:\Users\Jaxb\AppData\Local\Temp\ccLceCCb.s 			page 146


 7266 080f 00000000 		.4byte	0
 7267              	.LLST45:
 7268 0813 AC020000 		.4byte	.LVL105-.Ltext0
 7269 0817 B0020000 		.4byte	.LVL106-.Ltext0
 7270 081b 0100     		.2byte	0x1
 7271 081d 51       		.byte	0x51
 7272 081e 00000000 		.4byte	0
 7273 0822 00000000 		.4byte	0
 7274              	.LLST46:
 7275 0826 AC020000 		.4byte	.LVL105-.Ltext0
 7276 082a B0020000 		.4byte	.LVL106-.Ltext0
 7277 082e 0100     		.2byte	0x1
 7278 0830 52       		.byte	0x52
 7279 0831 00000000 		.4byte	0
 7280 0835 00000000 		.4byte	0
 7281              	.LLST47:
 7282 0839 B6020000 		.4byte	.LVL107-.Ltext0
 7283 083d C0020000 		.4byte	.LVL109-.Ltext0
 7284 0841 0100     		.2byte	0x1
 7285 0843 58       		.byte	0x58
 7286 0844 00000000 		.4byte	0
 7287 0848 00000000 		.4byte	0
 7288              	.LLST48:
 7289 084c BA020000 		.4byte	.LVL108-.Ltext0
 7290 0850 C0020000 		.4byte	.LVL109-.Ltext0
 7291 0854 0100     		.2byte	0x1
 7292 0856 51       		.byte	0x51
 7293 0857 00000000 		.4byte	0
 7294 085b 00000000 		.4byte	0
 7295              	.LLST49:
 7296 085f BA020000 		.4byte	.LVL108-.Ltext0
 7297 0863 C0020000 		.4byte	.LVL109-.Ltext0
 7298 0867 0100     		.2byte	0x1
 7299 0869 52       		.byte	0x52
 7300 086a 00000000 		.4byte	0
 7301 086e 00000000 		.4byte	0
 7302              	.LLST50:
 7303 0872 C0020000 		.4byte	.LVL109-.Ltext0
 7304 0876 C4020000 		.4byte	.LVL110-.Ltext0
 7305 087a 0300     		.2byte	0x3
 7306 087c 73       		.byte	0x73
 7307 087d 0C       		.sleb128 12
 7308 087e 9F       		.byte	0x9f
 7309 087f C4020000 		.4byte	.LVL110-.Ltext0
 7310 0883 D0020000 		.4byte	.LVL111-.Ltext0
 7311 0887 0100     		.2byte	0x1
 7312 0889 53       		.byte	0x53
 7313 088a 00000000 		.4byte	0
 7314 088e 00000000 		.4byte	0
 7315              	.LLST51:
 7316 0892 C0020000 		.4byte	.LVL109-.Ltext0
 7317 0896 D0020000 		.4byte	.LVL111-.Ltext0
 7318 089a 0100     		.2byte	0x1
 7319 089c 58       		.byte	0x58
 7320 089d 00000000 		.4byte	0
 7321 08a1 00000000 		.4byte	0
 7322              	.LLST52:
ARM GAS  G:\Users\Jaxb\AppData\Local\Temp\ccLceCCb.s 			page 147


 7323 08a5 C4020000 		.4byte	.LVL110-.Ltext0
 7324 08a9 D0020000 		.4byte	.LVL111-.Ltext0
 7325 08ad 0100     		.2byte	0x1
 7326 08af 52       		.byte	0x52
 7327 08b0 00000000 		.4byte	0
 7328 08b4 00000000 		.4byte	0
 7329              	.LLST53:
 7330 08b8 C4020000 		.4byte	.LVL110-.Ltext0
 7331 08bc D0020000 		.4byte	.LVL111-.Ltext0
 7332 08c0 0100     		.2byte	0x1
 7333 08c2 53       		.byte	0x53
 7334 08c3 00000000 		.4byte	0
 7335 08c7 00000000 		.4byte	0
 7336              	.LLST54:
 7337 08cb C4020000 		.4byte	.LVL110-.Ltext0
 7338 08cf D0020000 		.4byte	.LVL111-.Ltext0
 7339 08d3 0100     		.2byte	0x1
 7340 08d5 58       		.byte	0x58
 7341 08d6 00000000 		.4byte	0
 7342 08da 00000000 		.4byte	0
 7343              	.LLST55:
 7344 08de DC020000 		.4byte	.LVL113-.Ltext0
 7345 08e2 07030000 		.4byte	.LVL122-1-.Ltext0
 7346 08e6 0300     		.2byte	0x3
 7347 08e8 73       		.byte	0x73
 7348 08e9 6C       		.sleb128 -20
 7349 08ea 9F       		.byte	0x9f
 7350 08eb 00000000 		.4byte	0
 7351 08ef 00000000 		.4byte	0
 7352              	.LLST56:
 7353 08f3 DE020000 		.4byte	.LVL114-.Ltext0
 7354 08f7 EA020000 		.4byte	.LVL116-.Ltext0
 7355 08fb 0100     		.2byte	0x1
 7356 08fd 55       		.byte	0x55
 7357 08fe 00000000 		.4byte	0
 7358 0902 00000000 		.4byte	0
 7359              	.LLST57:
 7360 0906 E6020000 		.4byte	.LVL115-.Ltext0
 7361 090a EA020000 		.4byte	.LVL116-.Ltext0
 7362 090e 0100     		.2byte	0x1
 7363 0910 56       		.byte	0x56
 7364 0911 00000000 		.4byte	0
 7365 0915 00000000 		.4byte	0
 7366              	.LLST58:
 7367 0919 E6020000 		.4byte	.LVL115-.Ltext0
 7368 091d EA020000 		.4byte	.LVL116-.Ltext0
 7369 0921 0100     		.2byte	0x1
 7370 0923 51       		.byte	0x51
 7371 0924 00000000 		.4byte	0
 7372 0928 00000000 		.4byte	0
 7373              	.LLST59:
 7374 092c EA020000 		.4byte	.LVL116-.Ltext0
 7375 0930 F2020000 		.4byte	.LVL118-.Ltext0
 7376 0934 0100     		.2byte	0x1
 7377 0936 53       		.byte	0x53
 7378 0937 00000000 		.4byte	0
 7379 093b 00000000 		.4byte	0
ARM GAS  G:\Users\Jaxb\AppData\Local\Temp\ccLceCCb.s 			page 148


 7380              	.LLST60:
 7381 093f EE020000 		.4byte	.LVL117-.Ltext0
 7382 0943 F2020000 		.4byte	.LVL118-.Ltext0
 7383 0947 0100     		.2byte	0x1
 7384 0949 56       		.byte	0x56
 7385 094a 00000000 		.4byte	0
 7386 094e 00000000 		.4byte	0
 7387              	.LLST61:
 7388 0952 EE020000 		.4byte	.LVL117-.Ltext0
 7389 0956 F2020000 		.4byte	.LVL118-.Ltext0
 7390 095a 0100     		.2byte	0x1
 7391 095c 51       		.byte	0x51
 7392 095d 00000000 		.4byte	0
 7393 0961 00000000 		.4byte	0
 7394              	.LLST62:
 7395 0965 F2020000 		.4byte	.LVL118-.Ltext0
 7396 0969 00030000 		.4byte	.LVL121-.Ltext0
 7397 096d 0100     		.2byte	0x1
 7398 096f 58       		.byte	0x58
 7399 0970 00000000 		.4byte	0
 7400 0974 00000000 		.4byte	0
 7401              	.LLST63:
 7402 0978 F2020000 		.4byte	.LVL118-.Ltext0
 7403 097c 00030000 		.4byte	.LVL121-.Ltext0
 7404 0980 0100     		.2byte	0x1
 7405 0982 53       		.byte	0x53
 7406 0983 00000000 		.4byte	0
 7407 0987 00000000 		.4byte	0
 7408              	.LLST64:
 7409 098b F4020000 		.4byte	.LVL119-.Ltext0
 7410 098f 00030000 		.4byte	.LVL121-.Ltext0
 7411 0993 0100     		.2byte	0x1
 7412 0995 51       		.byte	0x51
 7413 0996 00000000 		.4byte	0
 7414 099a 00000000 		.4byte	0
 7415              	.LLST65:
 7416 099e F4020000 		.4byte	.LVL119-.Ltext0
 7417 09a2 00030000 		.4byte	.LVL121-.Ltext0
 7418 09a6 0100     		.2byte	0x1
 7419 09a8 58       		.byte	0x58
 7420 09a9 00000000 		.4byte	0
 7421 09ad 00000000 		.4byte	0
 7422              	.LLST66:
 7423 09b1 F4020000 		.4byte	.LVL119-.Ltext0
 7424 09b5 00030000 		.4byte	.LVL121-.Ltext0
 7425 09b9 0100     		.2byte	0x1
 7426 09bb 53       		.byte	0x53
 7427 09bc 00000000 		.4byte	0
 7428 09c0 00000000 		.4byte	0
 7429              	.LLST38:
 7430 09c4 5C020000 		.4byte	.LVL90-.Ltext0
 7431 09c8 64020000 		.4byte	.LVL91-.Ltext0
 7432 09cc 0100     		.2byte	0x1
 7433 09ce 50       		.byte	0x50
 7434 09cf 64020000 		.4byte	.LVL91-.Ltext0
 7435 09d3 70020000 		.4byte	.LVL94-.Ltext0
 7436 09d7 0100     		.2byte	0x1
ARM GAS  G:\Users\Jaxb\AppData\Local\Temp\ccLceCCb.s 			page 149


 7437 09d9 59       		.byte	0x59
 7438 09da 0E030000 		.4byte	.LVL123-.Ltext0
 7439 09de 17030000 		.4byte	.LVL124-1-.Ltext0
 7440 09e2 0100     		.2byte	0x1
 7441 09e4 50       		.byte	0x50
 7442 09e5 17030000 		.4byte	.LVL124-1-.Ltext0
 7443 09e9 3A030000 		.4byte	.LVL129-.Ltext0
 7444 09ed 0100     		.2byte	0x1
 7445 09ef 59       		.byte	0x59
 7446 09f0 00000000 		.4byte	0
 7447 09f4 00000000 		.4byte	0
 7448              	.LLST39:
 7449 09f8 56020000 		.4byte	.LVL88-.Ltext0
 7450 09fc 58020000 		.4byte	.LVL89-.Ltext0
 7451 0a00 0300     		.2byte	0x3
 7452 0a02 70       		.byte	0x70
 7453 0a03 02       		.sleb128 2
 7454 0a04 9F       		.byte	0x9f
 7455 0a05 58020000 		.4byte	.LVL89-.Ltext0
 7456 0a09 5B020000 		.4byte	.LVL90-1-.Ltext0
 7457 0a0d 0100     		.2byte	0x1
 7458 0a0f 50       		.byte	0x50
 7459 0a10 00000000 		.4byte	0
 7460 0a14 00000000 		.4byte	0
 7461              	.LLST40:
 7462 0a18 20030000 		.4byte	.LVL125-.Ltext0
 7463 0a1c 2C030000 		.4byte	.LVL127-.Ltext0
 7464 0a20 0100     		.2byte	0x1
 7465 0a22 55       		.byte	0x55
 7466 0a23 00000000 		.4byte	0
 7467 0a27 00000000 		.4byte	0
 7468              	.LLST41:
 7469 0a2b 26030000 		.4byte	.LVL126-.Ltext0
 7470 0a2f 2C030000 		.4byte	.LVL127-.Ltext0
 7471 0a33 0100     		.2byte	0x1
 7472 0a35 51       		.byte	0x51
 7473 0a36 00000000 		.4byte	0
 7474 0a3a 00000000 		.4byte	0
 7475              	.LLST42:
 7476 0a3e 26030000 		.4byte	.LVL126-.Ltext0
 7477 0a42 2C030000 		.4byte	.LVL127-.Ltext0
 7478 0a46 0100     		.2byte	0x1
 7479 0a48 52       		.byte	0x52
 7480 0a49 00000000 		.4byte	0
 7481 0a4d 00000000 		.4byte	0
 7482              	.LLST36:
 7483 0a51 30020000 		.4byte	.LVL84-.Ltext0
 7484 0a55 38020000 		.4byte	.LVL85-.Ltext0
 7485 0a59 0300     		.2byte	0x3
 7486 0a5b 70       		.byte	0x70
 7487 0a5c 14       		.sleb128 20
 7488 0a5d 9F       		.byte	0x9f
 7489 0a5e 7E020000 		.4byte	.LVL96-.Ltext0
 7490 0a62 80020000 		.4byte	.LVL97-.Ltext0
 7491 0a66 0300     		.2byte	0x3
 7492 0a68 70       		.byte	0x70
 7493 0a69 14       		.sleb128 20
ARM GAS  G:\Users\Jaxb\AppData\Local\Temp\ccLceCCb.s 			page 150


 7494 0a6a 9F       		.byte	0x9f
 7495 0a6b 80020000 		.4byte	.LVL97-.Ltext0
 7496 0a6f 9C020000 		.4byte	.LVL102-.Ltext0
 7497 0a73 0300     		.2byte	0x3
 7498 0a75 74       		.byte	0x74
 7499 0a76 14       		.sleb128 20
 7500 0a77 9F       		.byte	0x9f
 7501 0a78 56030000 		.4byte	.LVL133-.Ltext0
 7502 0a7c 78030000 		.4byte	.LFE20-.Ltext0
 7503 0a80 0300     		.2byte	0x3
 7504 0a82 74       		.byte	0x74
 7505 0a83 14       		.sleb128 20
 7506 0a84 9F       		.byte	0x9f
 7507 0a85 00000000 		.4byte	0
 7508 0a89 00000000 		.4byte	0
 7509              	.LLST37:
 7510 0a8d 30020000 		.4byte	.LVL84-.Ltext0
 7511 0a91 42020000 		.4byte	.LVL86-.Ltext0
 7512 0a95 0300     		.2byte	0x3
 7513 0a97 70       		.byte	0x70
 7514 0a98 1C       		.sleb128 28
 7515 0a99 9F       		.byte	0x9f
 7516 0a9a 7E020000 		.4byte	.LVL96-.Ltext0
 7517 0a9e 80020000 		.4byte	.LVL97-.Ltext0
 7518 0aa2 0300     		.2byte	0x3
 7519 0aa4 70       		.byte	0x70
 7520 0aa5 1C       		.sleb128 28
 7521 0aa6 9F       		.byte	0x9f
 7522 0aa7 80020000 		.4byte	.LVL97-.Ltext0
 7523 0aab 9C020000 		.4byte	.LVL102-.Ltext0
 7524 0aaf 0300     		.2byte	0x3
 7525 0ab1 74       		.byte	0x74
 7526 0ab2 1C       		.sleb128 28
 7527 0ab3 9F       		.byte	0x9f
 7528 0ab4 9E020000 		.4byte	.LVL103-.Ltext0
 7529 0ab8 D0020000 		.4byte	.LVL111-.Ltext0
 7530 0abc 0300     		.2byte	0x3
 7531 0abe 70       		.byte	0x70
 7532 0abf 1C       		.sleb128 28
 7533 0ac0 9F       		.byte	0x9f
 7534 0ac1 56030000 		.4byte	.LVL133-.Ltext0
 7535 0ac5 78030000 		.4byte	.LFE20-.Ltext0
 7536 0ac9 0300     		.2byte	0x3
 7537 0acb 74       		.byte	0x74
 7538 0acc 1C       		.sleb128 28
 7539 0acd 9F       		.byte	0x9f
 7540 0ace 00000000 		.4byte	0
 7541 0ad2 00000000 		.4byte	0
 7542              	.LLST34:
 7543 0ad6 84020000 		.4byte	.LVL98-.Ltext0
 7544 0ada 8E020000 		.4byte	.LVL99-.Ltext0
 7545 0ade 0100     		.2byte	0x1
 7546 0ae0 50       		.byte	0x50
 7547 0ae1 8E020000 		.4byte	.LVL99-.Ltext0
 7548 0ae5 91020000 		.4byte	.LVL100-1-.Ltext0
 7549 0ae9 0100     		.2byte	0x1
 7550 0aeb 51       		.byte	0x51
ARM GAS  G:\Users\Jaxb\AppData\Local\Temp\ccLceCCb.s 			page 151


 7551 0aec 56030000 		.4byte	.LVL133-.Ltext0
 7552 0af0 5A030000 		.4byte	.LVL134-.Ltext0
 7553 0af4 0100     		.2byte	0x1
 7554 0af6 50       		.byte	0x50
 7555 0af7 00000000 		.4byte	0
 7556 0afb 00000000 		.4byte	0
 7557              	.LLST27:
 7558 0aff EE010000 		.4byte	.LVL70-.Ltext0
 7559 0b03 1E020000 		.4byte	.LVL79-.Ltext0
 7560 0b07 0100     		.2byte	0x1
 7561 0b09 56       		.byte	0x56
 7562 0b0a 3A030000 		.4byte	.LVL129-.Ltext0
 7563 0b0e 56030000 		.4byte	.LVL133-.Ltext0
 7564 0b12 0100     		.2byte	0x1
 7565 0b14 56       		.byte	0x56
 7566 0b15 00000000 		.4byte	0
 7567 0b19 00000000 		.4byte	0
 7568              	.LLST28:
 7569 0b1d FA010000 		.4byte	.LVL73-.Ltext0
 7570 0b21 FC010000 		.4byte	.LVL74-.Ltext0
 7571 0b25 0100     		.2byte	0x1
 7572 0b27 50       		.byte	0x50
 7573 0b28 FC010000 		.4byte	.LVL74-.Ltext0
 7574 0b2c 1A020000 		.4byte	.LVL78-.Ltext0
 7575 0b30 0100     		.2byte	0x1
 7576 0b32 55       		.byte	0x55
 7577 0b33 00000000 		.4byte	0
 7578 0b37 00000000 		.4byte	0
 7579              	.LLST29:
 7580 0b3b FA010000 		.4byte	.LVL73-.Ltext0
 7581 0b3f 1A020000 		.4byte	.LVL78-.Ltext0
 7582 0b43 0100     		.2byte	0x1
 7583 0b45 56       		.byte	0x56
 7584 0b46 00000000 		.4byte	0
 7585 0b4a 00000000 		.4byte	0
 7586              	.LLST30:
 7587 0b4e 00020000 		.4byte	.LVL75-.Ltext0
 7588 0b52 18020000 		.4byte	.LVL77-.Ltext0
 7589 0b56 0100     		.2byte	0x1
 7590 0b58 50       		.byte	0x50
 7591 0b59 18020000 		.4byte	.LVL77-.Ltext0
 7592 0b5d 1A020000 		.4byte	.LVL78-.Ltext0
 7593 0b61 0100     		.2byte	0x1
 7594 0b63 54       		.byte	0x54
 7595 0b64 00000000 		.4byte	0
 7596 0b68 00000000 		.4byte	0
 7597              	.LLST31:
 7598 0b6c 12020000 		.4byte	.LVL76-.Ltext0
 7599 0b70 1A020000 		.4byte	.LVL78-.Ltext0
 7600 0b74 0600     		.2byte	0x6
 7601 0b76 03       		.byte	0x3
 7602 0b77 00000000 		.4byte	page_alloc_record_head
 7603 0b7b 9F       		.byte	0x9f
 7604 0b7c 00000000 		.4byte	0
 7605 0b80 00000000 		.4byte	0
 7606              	.LLST32:
 7607 0b84 12020000 		.4byte	.LVL76-.Ltext0
ARM GAS  G:\Users\Jaxb\AppData\Local\Temp\ccLceCCb.s 			page 152


 7608 0b88 18020000 		.4byte	.LVL77-.Ltext0
 7609 0b8c 0300     		.2byte	0x3
 7610 0b8e 70       		.byte	0x70
 7611 0b8f 08       		.sleb128 8
 7612 0b90 9F       		.byte	0x9f
 7613 0b91 18020000 		.4byte	.LVL77-.Ltext0
 7614 0b95 1A020000 		.4byte	.LVL78-.Ltext0
 7615 0b99 0300     		.2byte	0x3
 7616 0b9b 74       		.byte	0x74
 7617 0b9c 08       		.sleb128 8
 7618 0b9d 9F       		.byte	0x9f
 7619 0b9e 00000000 		.4byte	0
 7620 0ba2 00000000 		.4byte	0
 7621              	.LLST10:
 7622 0ba6 70000000 		.4byte	.LFB19-.Ltext0
 7623 0baa 72000000 		.4byte	.LCFI1-.Ltext0
 7624 0bae 0200     		.2byte	0x2
 7625 0bb0 7D       		.byte	0x7d
 7626 0bb1 00       		.sleb128 0
 7627 0bb2 72000000 		.4byte	.LCFI1-.Ltext0
 7628 0bb6 08010000 		.4byte	.LFE19-.Ltext0
 7629 0bba 0200     		.2byte	0x2
 7630 0bbc 7D       		.byte	0x7d
 7631 0bbd 10       		.sleb128 16
 7632 0bbe 00000000 		.4byte	0
 7633 0bc2 00000000 		.4byte	0
 7634              	.LLST11:
 7635 0bc6 70000000 		.4byte	.LVL14-.Ltext0
 7636 0bca 77000000 		.4byte	.LVL15-1-.Ltext0
 7637 0bce 0100     		.2byte	0x1
 7638 0bd0 50       		.byte	0x50
 7639 0bd1 77000000 		.4byte	.LVL15-1-.Ltext0
 7640 0bd5 FC000000 		.4byte	.LVL34-.Ltext0
 7641 0bd9 0100     		.2byte	0x1
 7642 0bdb 55       		.byte	0x55
 7643 0bdc FC000000 		.4byte	.LVL34-.Ltext0
 7644 0be0 08010000 		.4byte	.LFE19-.Ltext0
 7645 0be4 0400     		.2byte	0x4
 7646 0be6 F3       		.byte	0xf3
 7647 0be7 01       		.uleb128 0x1
 7648 0be8 50       		.byte	0x50
 7649 0be9 9F       		.byte	0x9f
 7650 0bea 00000000 		.4byte	0
 7651 0bee 00000000 		.4byte	0
 7652              	.LLST12:
 7653 0bf2 80000000 		.4byte	.LVL16-.Ltext0
 7654 0bf6 96000000 		.4byte	.LVL17-.Ltext0
 7655 0bfa 0200     		.2byte	0x2
 7656 0bfc 30       		.byte	0x30
 7657 0bfd 9F       		.byte	0x9f
 7658 0bfe 96000000 		.4byte	.LVL17-.Ltext0
 7659 0c02 A0000000 		.4byte	.LVL18-.Ltext0
 7660 0c06 0100     		.2byte	0x1
 7661 0c08 50       		.byte	0x50
 7662 0c09 A0000000 		.4byte	.LVL18-.Ltext0
 7663 0c0d A4000000 		.4byte	.LVL19-.Ltext0
 7664 0c11 0200     		.2byte	0x2
ARM GAS  G:\Users\Jaxb\AppData\Local\Temp\ccLceCCb.s 			page 153


 7665 0c13 30       		.byte	0x30
 7666 0c14 9F       		.byte	0x9f
 7667 0c15 A4000000 		.4byte	.LVL19-.Ltext0
 7668 0c19 AE000000 		.4byte	.LVL20-.Ltext0
 7669 0c1d 0100     		.2byte	0x1
 7670 0c1f 50       		.byte	0x50
 7671 0c20 AE000000 		.4byte	.LVL20-.Ltext0
 7672 0c24 B2000000 		.4byte	.LVL21-.Ltext0
 7673 0c28 0200     		.2byte	0x2
 7674 0c2a 30       		.byte	0x30
 7675 0c2b 9F       		.byte	0x9f
 7676 0c2c B2000000 		.4byte	.LVL21-.Ltext0
 7677 0c30 BC000000 		.4byte	.LVL22-.Ltext0
 7678 0c34 0100     		.2byte	0x1
 7679 0c36 50       		.byte	0x50
 7680 0c37 BC000000 		.4byte	.LVL22-.Ltext0
 7681 0c3b C0000000 		.4byte	.LVL23-.Ltext0
 7682 0c3f 0200     		.2byte	0x2
 7683 0c41 30       		.byte	0x30
 7684 0c42 9F       		.byte	0x9f
 7685 0c43 C0000000 		.4byte	.LVL23-.Ltext0
 7686 0c47 CA000000 		.4byte	.LVL24-.Ltext0
 7687 0c4b 0100     		.2byte	0x1
 7688 0c4d 50       		.byte	0x50
 7689 0c4e D2000000 		.4byte	.LVL26-.Ltext0
 7690 0c52 EA000000 		.4byte	.LVL30-.Ltext0
 7691 0c56 0200     		.2byte	0x2
 7692 0c58 30       		.byte	0x30
 7693 0c59 9F       		.byte	0x9f
 7694 0c5a F2000000 		.4byte	.LVL32-.Ltext0
 7695 0c5e 08010000 		.4byte	.LFE19-.Ltext0
 7696 0c62 0200     		.2byte	0x2
 7697 0c64 30       		.byte	0x30
 7698 0c65 9F       		.byte	0x9f
 7699 0c66 00000000 		.4byte	0
 7700 0c6a 00000000 		.4byte	0
 7701              	.LLST13:
 7702 0c6e 78000000 		.4byte	.LVL15-.Ltext0
 7703 0c72 95000000 		.4byte	.LVL17-1-.Ltext0
 7704 0c76 0100     		.2byte	0x1
 7705 0c78 50       		.byte	0x50
 7706 0c79 95000000 		.4byte	.LVL17-1-.Ltext0
 7707 0c7d A0000000 		.4byte	.LVL18-.Ltext0
 7708 0c81 0100     		.2byte	0x1
 7709 0c83 54       		.byte	0x54
 7710 0c84 A0000000 		.4byte	.LVL18-.Ltext0
 7711 0c88 A3000000 		.4byte	.LVL19-1-.Ltext0
 7712 0c8c 0100     		.2byte	0x1
 7713 0c8e 50       		.byte	0x50
 7714 0c8f A3000000 		.4byte	.LVL19-1-.Ltext0
 7715 0c93 AE000000 		.4byte	.LVL20-.Ltext0
 7716 0c97 0100     		.2byte	0x1
 7717 0c99 54       		.byte	0x54
 7718 0c9a AE000000 		.4byte	.LVL20-.Ltext0
 7719 0c9e B1000000 		.4byte	.LVL21-1-.Ltext0
 7720 0ca2 0100     		.2byte	0x1
 7721 0ca4 50       		.byte	0x50
ARM GAS  G:\Users\Jaxb\AppData\Local\Temp\ccLceCCb.s 			page 154


 7722 0ca5 B1000000 		.4byte	.LVL21-1-.Ltext0
 7723 0ca9 BC000000 		.4byte	.LVL22-.Ltext0
 7724 0cad 0100     		.2byte	0x1
 7725 0caf 54       		.byte	0x54
 7726 0cb0 BC000000 		.4byte	.LVL22-.Ltext0
 7727 0cb4 BF000000 		.4byte	.LVL23-1-.Ltext0
 7728 0cb8 0100     		.2byte	0x1
 7729 0cba 50       		.byte	0x50
 7730 0cbb BF000000 		.4byte	.LVL23-1-.Ltext0
 7731 0cbf D2000000 		.4byte	.LVL26-.Ltext0
 7732 0cc3 0100     		.2byte	0x1
 7733 0cc5 54       		.byte	0x54
 7734 0cc6 D2000000 		.4byte	.LVL26-.Ltext0
 7735 0cca DA000000 		.4byte	.LVL27-.Ltext0
 7736 0cce 0100     		.2byte	0x1
 7737 0cd0 50       		.byte	0x50
 7738 0cd1 DA000000 		.4byte	.LVL27-.Ltext0
 7739 0cd5 EA000000 		.4byte	.LVL30-.Ltext0
 7740 0cd9 0100     		.2byte	0x1
 7741 0cdb 54       		.byte	0x54
 7742 0cdc EA000000 		.4byte	.LVL30-.Ltext0
 7743 0ce0 EE000000 		.4byte	.LVL31-.Ltext0
 7744 0ce4 0100     		.2byte	0x1
 7745 0ce6 50       		.byte	0x50
 7746 0ce7 EE000000 		.4byte	.LVL31-.Ltext0
 7747 0ceb F2000000 		.4byte	.LVL32-.Ltext0
 7748 0cef 0100     		.2byte	0x1
 7749 0cf1 54       		.byte	0x54
 7750 0cf2 00000000 		.4byte	0
 7751 0cf6 00000000 		.4byte	0
 7752              	.LLST21:
 7753 0cfa 9C010000 		.4byte	.LVL52-.Ltext0
 7754 0cfe A8010000 		.4byte	.LVL54-.Ltext0
 7755 0d02 0100     		.2byte	0x1
 7756 0d04 50       		.byte	0x50
 7757 0d05 A8010000 		.4byte	.LVL54-.Ltext0
 7758 0d09 AE010000 		.4byte	.LVL55-.Ltext0
 7759 0d0d 0100     		.2byte	0x1
 7760 0d0f 50       		.byte	0x50
 7761 0d10 AE010000 		.4byte	.LVL55-.Ltext0
 7762 0d14 B0010000 		.4byte	.LVL56-.Ltext0
 7763 0d18 1500     		.2byte	0x15
 7764 0d1a F3       		.byte	0xf3
 7765 0d1b 01       		.uleb128 0x1
 7766 0d1c 50       		.byte	0x50
 7767 0d1d 40       		.byte	0x40
 7768 0d1e 24       		.byte	0x24
 7769 0d1f F3       		.byte	0xf3
 7770 0d20 01       		.uleb128 0x1
 7771 0d21 50       		.byte	0x50
 7772 0d22 F3       		.byte	0xf3
 7773 0d23 01       		.uleb128 0x1
 7774 0d24 50       		.byte	0x50
 7775 0d25 40       		.byte	0x40
 7776 0d26 25       		.byte	0x25
 7777 0d27 30       		.byte	0x30
 7778 0d28 29       		.byte	0x29
ARM GAS  G:\Users\Jaxb\AppData\Local\Temp\ccLceCCb.s 			page 155


 7779 0d29 28       		.byte	0x28
 7780 0d2a 0100     		.2byte	0x1
 7781 0d2c 16       		.byte	0x16
 7782 0d2d 13       		.byte	0x13
 7783 0d2e 9F       		.byte	0x9f
 7784 0d2f B0010000 		.4byte	.LVL56-.Ltext0
 7785 0d33 B6010000 		.4byte	.LVL57-.Ltext0
 7786 0d37 0100     		.2byte	0x1
 7787 0d39 50       		.byte	0x50
 7788 0d3a B6010000 		.4byte	.LVL57-.Ltext0
 7789 0d3e B8010000 		.4byte	.LVL58-.Ltext0
 7790 0d42 4800     		.2byte	0x48
 7791 0d44 F3       		.byte	0xf3
 7792 0d45 01       		.uleb128 0x1
 7793 0d46 50       		.byte	0x50
 7794 0d47 40       		.byte	0x40
 7795 0d48 24       		.byte	0x24
 7796 0d49 F3       		.byte	0xf3
 7797 0d4a 01       		.uleb128 0x1
 7798 0d4b 50       		.byte	0x50
 7799 0d4c F3       		.byte	0xf3
 7800 0d4d 01       		.uleb128 0x1
 7801 0d4e 50       		.byte	0x50
 7802 0d4f 40       		.byte	0x40
 7803 0d50 25       		.byte	0x25
 7804 0d51 30       		.byte	0x30
 7805 0d52 29       		.byte	0x29
 7806 0d53 28       		.byte	0x28
 7807 0d54 0100     		.2byte	0x1
 7808 0d56 16       		.byte	0x16
 7809 0d57 13       		.byte	0x13
 7810 0d58 38       		.byte	0x38
 7811 0d59 24       		.byte	0x24
 7812 0d5a F3       		.byte	0xf3
 7813 0d5b 01       		.uleb128 0x1
 7814 0d5c 50       		.byte	0x50
 7815 0d5d 40       		.byte	0x40
 7816 0d5e 24       		.byte	0x24
 7817 0d5f F3       		.byte	0xf3
 7818 0d60 01       		.uleb128 0x1
 7819 0d61 50       		.byte	0x50
 7820 0d62 F3       		.byte	0xf3
 7821 0d63 01       		.uleb128 0x1
 7822 0d64 50       		.byte	0x50
 7823 0d65 40       		.byte	0x40
 7824 0d66 25       		.byte	0x25
 7825 0d67 30       		.byte	0x30
 7826 0d68 29       		.byte	0x29
 7827 0d69 28       		.byte	0x28
 7828 0d6a 0100     		.2byte	0x1
 7829 0d6c 16       		.byte	0x16
 7830 0d6d 13       		.byte	0x13
 7831 0d6e F3       		.byte	0xf3
 7832 0d6f 01       		.uleb128 0x1
 7833 0d70 50       		.byte	0x50
 7834 0d71 40       		.byte	0x40
 7835 0d72 24       		.byte	0x24
ARM GAS  G:\Users\Jaxb\AppData\Local\Temp\ccLceCCb.s 			page 156


 7836 0d73 F3       		.byte	0xf3
 7837 0d74 01       		.uleb128 0x1
 7838 0d75 50       		.byte	0x50
 7839 0d76 F3       		.byte	0xf3
 7840 0d77 01       		.uleb128 0x1
 7841 0d78 50       		.byte	0x50
 7842 0d79 40       		.byte	0x40
 7843 0d7a 25       		.byte	0x25
 7844 0d7b 30       		.byte	0x30
 7845 0d7c 29       		.byte	0x29
 7846 0d7d 28       		.byte	0x28
 7847 0d7e 0100     		.2byte	0x1
 7848 0d80 16       		.byte	0x16
 7849 0d81 13       		.byte	0x13
 7850 0d82 48       		.byte	0x48
 7851 0d83 25       		.byte	0x25
 7852 0d84 30       		.byte	0x30
 7853 0d85 29       		.byte	0x29
 7854 0d86 28       		.byte	0x28
 7855 0d87 0100     		.2byte	0x1
 7856 0d89 16       		.byte	0x16
 7857 0d8a 13       		.byte	0x13
 7858 0d8b 9F       		.byte	0x9f
 7859 0d8c B8010000 		.4byte	.LVL58-.Ltext0
 7860 0d90 C4010000 		.4byte	.LVL61-.Ltext0
 7861 0d94 0100     		.2byte	0x1
 7862 0d96 50       		.byte	0x50
 7863 0d97 CA010000 		.4byte	.LVL63-.Ltext0
 7864 0d9b CE010000 		.4byte	.LVL64-.Ltext0
 7865 0d9f 0100     		.2byte	0x1
 7866 0da1 50       		.byte	0x50
 7867 0da2 CE010000 		.4byte	.LVL64-.Ltext0
 7868 0da6 D0010000 		.4byte	.LFE18-.Ltext0
 7869 0daa 0400     		.2byte	0x4
 7870 0dac F3       		.byte	0xf3
 7871 0dad 01       		.uleb128 0x1
 7872 0dae 50       		.byte	0x50
 7873 0daf 9F       		.byte	0x9f
 7874 0db0 00000000 		.4byte	0
 7875 0db4 00000000 		.4byte	0
 7876              	.LLST22:
 7877 0db8 9C010000 		.4byte	.LVL52-.Ltext0
 7878 0dbc A0010000 		.4byte	.LVL53-.Ltext0
 7879 0dc0 0200     		.2byte	0x2
 7880 0dc2 31       		.byte	0x31
 7881 0dc3 9F       		.byte	0x9f
 7882 0dc4 A0010000 		.4byte	.LVL53-.Ltext0
 7883 0dc8 A8010000 		.4byte	.LVL54-.Ltext0
 7884 0dcc 0200     		.2byte	0x2
 7885 0dce 41       		.byte	0x41
 7886 0dcf 9F       		.byte	0x9f
 7887 0dd0 A8010000 		.4byte	.LVL54-.Ltext0
 7888 0dd4 C4010000 		.4byte	.LVL61-.Ltext0
 7889 0dd8 0100     		.2byte	0x1
 7890 0dda 53       		.byte	0x53
 7891 0ddb C4010000 		.4byte	.LVL61-.Ltext0
 7892 0ddf C8010000 		.4byte	.LVL62-.Ltext0
ARM GAS  G:\Users\Jaxb\AppData\Local\Temp\ccLceCCb.s 			page 157


 7893 0de3 0100     		.2byte	0x1
 7894 0de5 50       		.byte	0x50
 7895 0de6 CA010000 		.4byte	.LVL63-.Ltext0
 7896 0dea D0010000 		.4byte	.LFE18-.Ltext0
 7897 0dee 0200     		.2byte	0x2
 7898 0df0 31       		.byte	0x31
 7899 0df1 9F       		.byte	0x9f
 7900 0df2 00000000 		.4byte	0
 7901 0df6 00000000 		.4byte	0
 7902              	.LLST18:
 7903 0dfa 58010000 		.4byte	.LFB17-.Ltext0
 7904 0dfe 5A010000 		.4byte	.LCFI3-.Ltext0
 7905 0e02 0200     		.2byte	0x2
 7906 0e04 7D       		.byte	0x7d
 7907 0e05 00       		.sleb128 0
 7908 0e06 5A010000 		.4byte	.LCFI3-.Ltext0
 7909 0e0a 9C010000 		.4byte	.LFE17-.Ltext0
 7910 0e0e 0200     		.2byte	0x2
 7911 0e10 7D       		.byte	0x7d
 7912 0e11 10       		.sleb128 16
 7913 0e12 00000000 		.4byte	0
 7914 0e16 00000000 		.4byte	0
 7915              	.LLST19:
 7916 0e1a 58010000 		.4byte	.LVL45-.Ltext0
 7917 0e1e 6A010000 		.4byte	.LVL46-.Ltext0
 7918 0e22 0600     		.2byte	0x6
 7919 0e24 03       		.byte	0x3
 7920 0e25 04000000 		.4byte	cache_chain_head
 7921 0e29 9F       		.byte	0x9f
 7922 0e2a 00000000 		.4byte	0
 7923 0e2e 00000000 		.4byte	0
 7924              	.LLST20:
 7925 0e32 92010000 		.4byte	.LVL50-.Ltext0
 7926 0e36 94010000 		.4byte	.LVL51-.Ltext0
 7927 0e3a 0600     		.2byte	0x6
 7928 0e3c 03       		.byte	0x3
 7929 0e3d 00000000 		.4byte	page_alloc_record_head
 7930 0e41 9F       		.byte	0x9f
 7931 0e42 00000000 		.4byte	0
 7932 0e46 00000000 		.4byte	0
 7933              	.LLST14:
 7934 0e4a 08010000 		.4byte	.LFB14-.Ltext0
 7935 0e4e 0C010000 		.4byte	.LCFI2-.Ltext0
 7936 0e52 0200     		.2byte	0x2
 7937 0e54 7D       		.byte	0x7d
 7938 0e55 00       		.sleb128 0
 7939 0e56 0C010000 		.4byte	.LCFI2-.Ltext0
 7940 0e5a 58010000 		.4byte	.LFE14-.Ltext0
 7941 0e5e 0200     		.2byte	0x2
 7942 0e60 7D       		.byte	0x7d
 7943 0e61 20       		.sleb128 32
 7944 0e62 00000000 		.4byte	0
 7945 0e66 00000000 		.4byte	0
 7946              	.LLST15:
 7947 0e6a 08010000 		.4byte	.LVL35-.Ltext0
 7948 0e6e 20010000 		.4byte	.LVL37-.Ltext0
 7949 0e72 0200     		.2byte	0x2
ARM GAS  G:\Users\Jaxb\AppData\Local\Temp\ccLceCCb.s 			page 158


 7950 0e74 30       		.byte	0x30
 7951 0e75 9F       		.byte	0x9f
 7952 0e76 20010000 		.4byte	.LVL37-.Ltext0
 7953 0e7a 44010000 		.4byte	.LVL43-.Ltext0
 7954 0e7e 0100     		.2byte	0x1
 7955 0e80 55       		.byte	0x55
 7956 0e81 00000000 		.4byte	0
 7957 0e85 00000000 		.4byte	0
 7958              	.LLST16:
 7959 0e89 10010000 		.4byte	.LVL36-.Ltext0
 7960 0e8d 48010000 		.4byte	.LVL44-.Ltext0
 7961 0e91 0100     		.2byte	0x1
 7962 0e93 54       		.byte	0x54
 7963 0e94 00000000 		.4byte	0
 7964 0e98 00000000 		.4byte	0
 7965              	.LLST17:
 7966 0e9c 20010000 		.4byte	.LVL37-.Ltext0
 7967 0ea0 40010000 		.4byte	.LVL42-.Ltext0
 7968 0ea4 0300     		.2byte	0x3
 7969 0ea6 74       		.byte	0x74
 7970 0ea7 78       		.sleb128 -8
 7971 0ea8 9F       		.byte	0x9f
 7972 0ea9 00000000 		.4byte	0
 7973 0ead 00000000 		.4byte	0
 7974              	.LLST70:
 7975 0eb1 B8030000 		.4byte	.LFB23-.Ltext0
 7976 0eb5 BC030000 		.4byte	.LCFI6-.Ltext0
 7977 0eb9 0200     		.2byte	0x2
 7978 0ebb 7D       		.byte	0x7d
 7979 0ebc 00       		.sleb128 0
 7980 0ebd BC030000 		.4byte	.LCFI6-.Ltext0
 7981 0ec1 56040000 		.4byte	.LCFI7-.Ltext0
 7982 0ec5 0200     		.2byte	0x2
 7983 0ec7 7D       		.byte	0x7d
 7984 0ec8 20       		.sleb128 32
 7985 0ec9 56040000 		.4byte	.LCFI7-.Ltext0
 7986 0ecd 5A040000 		.4byte	.LCFI8-.Ltext0
 7987 0ed1 0200     		.2byte	0x2
 7988 0ed3 7D       		.byte	0x7d
 7989 0ed4 00       		.sleb128 0
 7990 0ed5 5A040000 		.4byte	.LCFI8-.Ltext0
 7991 0ed9 64040000 		.4byte	.LCFI9-.Ltext0
 7992 0edd 0200     		.2byte	0x2
 7993 0edf 7D       		.byte	0x7d
 7994 0ee0 20       		.sleb128 32
 7995 0ee1 64040000 		.4byte	.LCFI9-.Ltext0
 7996 0ee5 6E040000 		.4byte	.LCFI10-.Ltext0
 7997 0ee9 0200     		.2byte	0x2
 7998 0eeb 7D       		.byte	0x7d
 7999 0eec 00       		.sleb128 0
 8000 0eed 6E040000 		.4byte	.LCFI10-.Ltext0
 8001 0ef1 AE040000 		.4byte	.LCFI11-.Ltext0
 8002 0ef5 0200     		.2byte	0x2
 8003 0ef7 7D       		.byte	0x7d
 8004 0ef8 20       		.sleb128 32
 8005 0ef9 AE040000 		.4byte	.LCFI11-.Ltext0
 8006 0efd C0040000 		.4byte	.LFE23-.Ltext0
ARM GAS  G:\Users\Jaxb\AppData\Local\Temp\ccLceCCb.s 			page 159


 8007 0f01 0200     		.2byte	0x2
 8008 0f03 7D       		.byte	0x7d
 8009 0f04 00       		.sleb128 0
 8010 0f05 00000000 		.4byte	0
 8011 0f09 00000000 		.4byte	0
 8012              	.LLST71:
 8013 0f0d B8030000 		.4byte	.LVL150-.Ltext0
 8014 0f11 C1030000 		.4byte	.LVL151-1-.Ltext0
 8015 0f15 0100     		.2byte	0x1
 8016 0f17 50       		.byte	0x50
 8017 0f18 C1030000 		.4byte	.LVL151-1-.Ltext0
 8018 0f1c 56040000 		.4byte	.LVL170-.Ltext0
 8019 0f20 0100     		.2byte	0x1
 8020 0f22 56       		.byte	0x56
 8021 0f23 56040000 		.4byte	.LVL170-.Ltext0
 8022 0f27 5A040000 		.4byte	.LVL171-.Ltext0
 8023 0f2b 0400     		.2byte	0x4
 8024 0f2d F3       		.byte	0xf3
 8025 0f2e 01       		.uleb128 0x1
 8026 0f2f 50       		.byte	0x50
 8027 0f30 9F       		.byte	0x9f
 8028 0f31 5A040000 		.4byte	.LVL171-.Ltext0
 8029 0f35 64040000 		.4byte	.LVL173-.Ltext0
 8030 0f39 0100     		.2byte	0x1
 8031 0f3b 56       		.byte	0x56
 8032 0f3c 64040000 		.4byte	.LVL173-.Ltext0
 8033 0f40 6E040000 		.4byte	.LVL174-.Ltext0
 8034 0f44 0400     		.2byte	0x4
 8035 0f46 F3       		.byte	0xf3
 8036 0f47 01       		.uleb128 0x1
 8037 0f48 50       		.byte	0x50
 8038 0f49 9F       		.byte	0x9f
 8039 0f4a 6E040000 		.4byte	.LVL174-.Ltext0
 8040 0f4e 9A040000 		.4byte	.LVL182-.Ltext0
 8041 0f52 0100     		.2byte	0x1
 8042 0f54 56       		.byte	0x56
 8043 0f55 9A040000 		.4byte	.LVL182-.Ltext0
 8044 0f59 C0040000 		.4byte	.LFE23-.Ltext0
 8045 0f5d 0400     		.2byte	0x4
 8046 0f5f F3       		.byte	0xf3
 8047 0f60 01       		.uleb128 0x1
 8048 0f61 50       		.byte	0x50
 8049 0f62 9F       		.byte	0x9f
 8050 0f63 00000000 		.4byte	0
 8051 0f67 00000000 		.4byte	0
 8052              	.LLST72:
 8053 0f6b C8030000 		.4byte	.LVL152-.Ltext0
 8054 0f6f 56040000 		.4byte	.LVL170-.Ltext0
 8055 0f73 0100     		.2byte	0x1
 8056 0f75 56       		.byte	0x56
 8057 0f76 56040000 		.4byte	.LVL170-.Ltext0
 8058 0f7a 5A040000 		.4byte	.LVL171-.Ltext0
 8059 0f7e 0400     		.2byte	0x4
 8060 0f80 F3       		.byte	0xf3
 8061 0f81 01       		.uleb128 0x1
 8062 0f82 50       		.byte	0x50
 8063 0f83 9F       		.byte	0x9f
ARM GAS  G:\Users\Jaxb\AppData\Local\Temp\ccLceCCb.s 			page 160


 8064 0f84 5A040000 		.4byte	.LVL171-.Ltext0
 8065 0f88 64040000 		.4byte	.LVL173-.Ltext0
 8066 0f8c 0100     		.2byte	0x1
 8067 0f8e 56       		.byte	0x56
 8068 0f8f 64040000 		.4byte	.LVL173-.Ltext0
 8069 0f93 6E040000 		.4byte	.LVL174-.Ltext0
 8070 0f97 0400     		.2byte	0x4
 8071 0f99 F3       		.byte	0xf3
 8072 0f9a 01       		.uleb128 0x1
 8073 0f9b 50       		.byte	0x50
 8074 0f9c 9F       		.byte	0x9f
 8075 0f9d 6E040000 		.4byte	.LVL174-.Ltext0
 8076 0fa1 9A040000 		.4byte	.LVL182-.Ltext0
 8077 0fa5 0100     		.2byte	0x1
 8078 0fa7 56       		.byte	0x56
 8079 0fa8 9A040000 		.4byte	.LVL182-.Ltext0
 8080 0fac C0040000 		.4byte	.LFE23-.Ltext0
 8081 0fb0 0400     		.2byte	0x4
 8082 0fb2 F3       		.byte	0xf3
 8083 0fb3 01       		.uleb128 0x1
 8084 0fb4 50       		.byte	0x50
 8085 0fb5 9F       		.byte	0x9f
 8086 0fb6 00000000 		.4byte	0
 8087 0fba 00000000 		.4byte	0
 8088              	.LLST73:
 8089 0fbe D8030000 		.4byte	.LVL154-.Ltext0
 8090 0fc2 12040000 		.4byte	.LVL162-.Ltext0
 8091 0fc6 0100     		.2byte	0x1
 8092 0fc8 54       		.byte	0x54
 8093 0fc9 6E040000 		.4byte	.LVL174-.Ltext0
 8094 0fcd AE040000 		.4byte	.LVL187-.Ltext0
 8095 0fd1 0100     		.2byte	0x1
 8096 0fd3 54       		.byte	0x54
 8097 0fd4 AE040000 		.4byte	.LVL187-.Ltext0
 8098 0fd8 B1040000 		.4byte	.LVL188-1-.Ltext0
 8099 0fdc 0600     		.2byte	0x6
 8100 0fde 72       		.byte	0x72
 8101 0fdf 04       		.sleb128 4
 8102 0fe0 06       		.byte	0x6
 8103 0fe1 44       		.byte	0x44
 8104 0fe2 1C       		.byte	0x1c
 8105 0fe3 9F       		.byte	0x9f
 8106 0fe4 00000000 		.4byte	0
 8107 0fe8 00000000 		.4byte	0
 8108              	.LLST74:
 8109 0fec DC030000 		.4byte	.LVL155-.Ltext0
 8110 0ff0 0A040000 		.4byte	.LVL160-.Ltext0
 8111 0ff4 0100     		.2byte	0x1
 8112 0ff6 54       		.byte	0x54
 8113 0ff7 0A040000 		.4byte	.LVL160-.Ltext0
 8114 0ffb 0E040000 		.4byte	.LVL161-.Ltext0
 8115 0fff 0300     		.2byte	0x3
 8116 1001 75       		.byte	0x75
 8117 1002 6C       		.sleb128 -20
 8118 1003 9F       		.byte	0x9f
 8119 1004 6E040000 		.4byte	.LVL174-.Ltext0
 8120 1008 AE040000 		.4byte	.LVL187-.Ltext0
ARM GAS  G:\Users\Jaxb\AppData\Local\Temp\ccLceCCb.s 			page 161


 8121 100c 0100     		.2byte	0x1
 8122 100e 54       		.byte	0x54
 8123 100f AE040000 		.4byte	.LVL187-.Ltext0
 8124 1013 B1040000 		.4byte	.LVL188-1-.Ltext0
 8125 1017 0600     		.2byte	0x6
 8126 1019 72       		.byte	0x72
 8127 101a 04       		.sleb128 4
 8128 101b 06       		.byte	0x6
 8129 101c 44       		.byte	0x44
 8130 101d 1C       		.byte	0x1c
 8131 101e 9F       		.byte	0x9f
 8132 101f 00000000 		.4byte	0
 8133 1023 00000000 		.4byte	0
 8134              	.LLST76:
 8135 1027 EE030000 		.4byte	.LVL156-.Ltext0
 8136 102b F2030000 		.4byte	.LVL157-.Ltext0
 8137 102f 0100     		.2byte	0x1
 8138 1031 50       		.byte	0x50
 8139 1032 02040000 		.4byte	.LVL158-.Ltext0
 8140 1036 08040000 		.4byte	.LVL159-.Ltext0
 8141 103a 0100     		.2byte	0x1
 8142 103c 50       		.byte	0x50
 8143 103d 6E040000 		.4byte	.LVL174-.Ltext0
 8144 1041 9C040000 		.4byte	.LVL183-.Ltext0
 8145 1045 0100     		.2byte	0x1
 8146 1047 50       		.byte	0x50
 8147 1048 9C040000 		.4byte	.LVL183-.Ltext0
 8148 104c AE040000 		.4byte	.LVL187-.Ltext0
 8149 1050 0100     		.2byte	0x1
 8150 1052 53       		.byte	0x53
 8151 1053 AE040000 		.4byte	.LVL187-.Ltext0
 8152 1057 B1040000 		.4byte	.LVL188-1-.Ltext0
 8153 105b 0300     		.2byte	0x3
 8154 105d 72       		.byte	0x72
 8155 105e 6C       		.sleb128 -20
 8156 105f 9F       		.byte	0x9f
 8157 1060 00000000 		.4byte	0
 8158 1064 00000000 		.4byte	0
 8159              	.LLST77:
 8160 1068 0E040000 		.4byte	.LVL161-.Ltext0
 8161 106c 50040000 		.4byte	.LVL169-.Ltext0
 8162 1070 0100     		.2byte	0x1
 8163 1072 56       		.byte	0x56
 8164 1073 00000000 		.4byte	0
 8165 1077 00000000 		.4byte	0
 8166              	.LLST78:
 8167 107b 12040000 		.4byte	.LVL162-.Ltext0
 8168 107f 50040000 		.4byte	.LVL169-.Ltext0
 8169 1083 0100     		.2byte	0x1
 8170 1085 54       		.byte	0x54
 8171 1086 00000000 		.4byte	0
 8172 108a 00000000 		.4byte	0
 8173              	.LLST79:
 8174 108e 1A040000 		.4byte	.LVL164-.Ltext0
 8175 1092 1E040000 		.4byte	.LVL165-.Ltext0
 8176 1096 0300     		.2byte	0x3
 8177 1098 74       		.byte	0x74
ARM GAS  G:\Users\Jaxb\AppData\Local\Temp\ccLceCCb.s 			page 162


 8178 1099 78       		.sleb128 -8
 8179 109a 9F       		.byte	0x9f
 8180 109b 00000000 		.4byte	0
 8181 109f 00000000 		.4byte	0
 8182              	.LLST80:
 8183 10a3 18040000 		.4byte	.LVL163-.Ltext0
 8184 10a7 1E040000 		.4byte	.LVL165-.Ltext0
 8185 10ab 0100     		.2byte	0x1
 8186 10ad 54       		.byte	0x54
 8187 10ae 00000000 		.4byte	0
 8188 10b2 00000000 		.4byte	0
 8189              	.LLST81:
 8190 10b6 76040000 		.4byte	.LVL175-.Ltext0
 8191 10ba 80040000 		.4byte	.LVL177-.Ltext0
 8192 10be 0300     		.2byte	0x3
 8193 10c0 70       		.byte	0x70
 8194 10c1 14       		.sleb128 20
 8195 10c2 9F       		.byte	0x9f
 8196 10c3 80040000 		.4byte	.LVL177-.Ltext0
 8197 10c7 84040000 		.4byte	.LVL178-.Ltext0
 8198 10cb 0100     		.2byte	0x1
 8199 10cd 53       		.byte	0x53
 8200 10ce 00000000 		.4byte	0
 8201 10d2 00000000 		.4byte	0
 8202              	.LLST82:
 8203 10d6 80040000 		.4byte	.LVL177-.Ltext0
 8204 10da 84040000 		.4byte	.LVL178-.Ltext0
 8205 10de 0100     		.2byte	0x1
 8206 10e0 55       		.byte	0x55
 8207 10e1 00000000 		.4byte	0
 8208 10e5 00000000 		.4byte	0
 8209              	.LLST83:
 8210 10e9 7C040000 		.4byte	.LVL176-.Ltext0
 8211 10ed 84040000 		.4byte	.LVL178-.Ltext0
 8212 10f1 0100     		.2byte	0x1
 8213 10f3 51       		.byte	0x51
 8214 10f4 00000000 		.4byte	0
 8215 10f8 00000000 		.4byte	0
 8216              	.LLST84:
 8217 10fc 84040000 		.4byte	.LVL178-.Ltext0
 8218 1100 88040000 		.4byte	.LVL179-.Ltext0
 8219 1104 0300     		.2byte	0x3
 8220 1106 72       		.byte	0x72
 8221 1107 1C       		.sleb128 28
 8222 1108 9F       		.byte	0x9f
 8223 1109 88040000 		.4byte	.LVL179-.Ltext0
 8224 110d 92040000 		.4byte	.LVL181-.Ltext0
 8225 1111 0100     		.2byte	0x1
 8226 1113 52       		.byte	0x52
 8227 1114 00000000 		.4byte	0
 8228 1118 00000000 		.4byte	0
 8229              	.LLST85:
 8230 111c 84040000 		.4byte	.LVL178-.Ltext0
 8231 1120 92040000 		.4byte	.LVL181-.Ltext0
 8232 1124 0100     		.2byte	0x1
 8233 1126 53       		.byte	0x53
 8234 1127 00000000 		.4byte	0
ARM GAS  G:\Users\Jaxb\AppData\Local\Temp\ccLceCCb.s 			page 163


 8235 112b 00000000 		.4byte	0
 8236              	.LLST86:
 8237 112f 88040000 		.4byte	.LVL179-.Ltext0
 8238 1133 90040000 		.4byte	.LVL180-.Ltext0
 8239 1137 0100     		.2byte	0x1
 8240 1139 51       		.byte	0x51
 8241 113a 00000000 		.4byte	0
 8242 113e 00000000 		.4byte	0
 8243              	.LLST87:
 8244 1142 88040000 		.4byte	.LVL179-.Ltext0
 8245 1146 90040000 		.4byte	.LVL180-.Ltext0
 8246 114a 0100     		.2byte	0x1
 8247 114c 52       		.byte	0x52
 8248 114d 00000000 		.4byte	0
 8249 1151 00000000 		.4byte	0
 8250              	.LLST88:
 8251 1155 88040000 		.4byte	.LVL179-.Ltext0
 8252 1159 90040000 		.4byte	.LVL180-.Ltext0
 8253 115d 0100     		.2byte	0x1
 8254 115f 53       		.byte	0x53
 8255 1160 00000000 		.4byte	0
 8256 1164 00000000 		.4byte	0
 8257              	.LLST89:
 8258 1168 92040000 		.4byte	.LVL181-.Ltext0
 8259 116c 9A040000 		.4byte	.LVL182-.Ltext0
 8260 1170 0300     		.2byte	0x3
 8261 1172 70       		.byte	0x70
 8262 1173 14       		.sleb128 20
 8263 1174 9F       		.byte	0x9f
 8264 1175 9A040000 		.4byte	.LVL182-.Ltext0
 8265 1179 A0040000 		.4byte	.LVL184-.Ltext0
 8266 117d 0100     		.2byte	0x1
 8267 117f 52       		.byte	0x52
 8268 1180 00000000 		.4byte	0
 8269 1184 00000000 		.4byte	0
 8270              	.LLST90:
 8271 1188 9A040000 		.4byte	.LVL182-.Ltext0
 8272 118c A0040000 		.4byte	.LVL184-.Ltext0
 8273 1190 0100     		.2byte	0x1
 8274 1192 56       		.byte	0x56
 8275 1193 00000000 		.4byte	0
 8276 1197 00000000 		.4byte	0
 8277              	.LLST91:
 8278 119b 9A040000 		.4byte	.LVL182-.Ltext0
 8279 119f A0040000 		.4byte	.LVL184-.Ltext0
 8280 11a3 0100     		.2byte	0x1
 8281 11a5 51       		.byte	0x51
 8282 11a6 00000000 		.4byte	0
 8283 11aa 00000000 		.4byte	0
 8284              	.LLST92:
 8285 11ae A0040000 		.4byte	.LVL184-.Ltext0
 8286 11b2 AA040000 		.4byte	.LVL186-.Ltext0
 8287 11b6 0100     		.2byte	0x1
 8288 11b8 55       		.byte	0x55
 8289 11b9 00000000 		.4byte	0
 8290 11bd 00000000 		.4byte	0
 8291              	.LLST93:
ARM GAS  G:\Users\Jaxb\AppData\Local\Temp\ccLceCCb.s 			page 164


 8292 11c1 A0040000 		.4byte	.LVL184-.Ltext0
 8293 11c5 AA040000 		.4byte	.LVL186-.Ltext0
 8294 11c9 0100     		.2byte	0x1
 8295 11cb 52       		.byte	0x52
 8296 11cc 00000000 		.4byte	0
 8297 11d0 00000000 		.4byte	0
 8298              	.LLST94:
 8299 11d4 A2040000 		.4byte	.LVL185-.Ltext0
 8300 11d8 AA040000 		.4byte	.LVL186-.Ltext0
 8301 11dc 0100     		.2byte	0x1
 8302 11de 51       		.byte	0x51
 8303 11df 00000000 		.4byte	0
 8304 11e3 00000000 		.4byte	0
 8305              	.LLST95:
 8306 11e7 A2040000 		.4byte	.LVL185-.Ltext0
 8307 11eb AA040000 		.4byte	.LVL186-.Ltext0
 8308 11ef 0100     		.2byte	0x1
 8309 11f1 55       		.byte	0x55
 8310 11f2 00000000 		.4byte	0
 8311 11f6 00000000 		.4byte	0
 8312              	.LLST96:
 8313 11fa A2040000 		.4byte	.LVL185-.Ltext0
 8314 11fe AA040000 		.4byte	.LVL186-.Ltext0
 8315 1202 0100     		.2byte	0x1
 8316 1204 52       		.byte	0x52
 8317 1205 00000000 		.4byte	0
 8318 1209 00000000 		.4byte	0
 8319              		.section	.debug_aranges,"",%progbits
 8320 0000 1C000000 		.4byte	0x1c
 8321 0004 0200     		.2byte	0x2
 8322 0006 00000000 		.4byte	.Ldebug_info0
 8323 000a 04       		.byte	0x4
 8324 000b 00       		.byte	0
 8325 000c 0000     		.2byte	0
 8326 000e 0000     		.2byte	0
 8327 0010 00000000 		.4byte	.Ltext0
 8328 0014 D4070000 		.4byte	.Letext0-.Ltext0
 8329 0018 00000000 		.4byte	0
 8330 001c 00000000 		.4byte	0
 8331              		.section	.debug_ranges,"",%progbits
 8332              	.Ldebug_ranges0:
 8333 0000 4C000000 		.4byte	.LBB128-.Ltext0
 8334 0004 52000000 		.4byte	.LBE128-.Ltext0
 8335 0008 56000000 		.4byte	.LBB134-.Ltext0
 8336 000c 5E000000 		.4byte	.LBE134-.Ltext0
 8337 0010 00000000 		.4byte	0
 8338 0014 00000000 		.4byte	0
 8339 0018 5A010000 		.4byte	.LBB135-.Ltext0
 8340 001c 5C010000 		.4byte	.LBE135-.Ltext0
 8341 0020 5E010000 		.4byte	.LBB139-.Ltext0
 8342 0024 60010000 		.4byte	.LBE139-.Ltext0
 8343 0028 66010000 		.4byte	.LBB140-.Ltext0
 8344 002c 6A010000 		.4byte	.LBE140-.Ltext0
 8345 0030 00000000 		.4byte	0
 8346 0034 00000000 		.4byte	0
 8347 0038 E4010000 		.4byte	.LBB186-.Ltext0
 8348 003c 1E020000 		.4byte	.LBE186-.Ltext0
ARM GAS  G:\Users\Jaxb\AppData\Local\Temp\ccLceCCb.s 			page 165


 8349 0040 70020000 		.4byte	.LBB255-.Ltext0
 8350 0044 78020000 		.4byte	.LBE255-.Ltext0
 8351 0048 D0020000 		.4byte	.LBB257-.Ltext0
 8352 004c D6020000 		.4byte	.LBE257-.Ltext0
 8353 0050 3A030000 		.4byte	.LBB260-.Ltext0
 8354 0054 56030000 		.4byte	.LBE260-.Ltext0
 8355 0058 00000000 		.4byte	0
 8356 005c 00000000 		.4byte	0
 8357 0060 FA010000 		.4byte	.LBB187-.Ltext0
 8358 0064 16020000 		.4byte	.LBE187-.Ltext0
 8359 0068 18020000 		.4byte	.LBB198-.Ltext0
 8360 006c 1A020000 		.4byte	.LBE198-.Ltext0
 8361 0070 00000000 		.4byte	0
 8362 0074 00000000 		.4byte	0
 8363 0078 08020000 		.4byte	.LBB189-.Ltext0
 8364 007c 0C020000 		.4byte	.LBE189-.Ltext0
 8365 0080 0E020000 		.4byte	.LBB194-.Ltext0
 8366 0084 10020000 		.4byte	.LBE194-.Ltext0
 8367 0088 12020000 		.4byte	.LBB195-.Ltext0
 8368 008c 16020000 		.4byte	.LBE195-.Ltext0
 8369 0090 18020000 		.4byte	.LBB196-.Ltext0
 8370 0094 1A020000 		.4byte	.LBE196-.Ltext0
 8371 0098 00000000 		.4byte	0
 8372 009c 00000000 		.4byte	0
 8373 00a0 24020000 		.4byte	.LBB199-.Ltext0
 8374 00a4 70020000 		.4byte	.LBE199-.Ltext0
 8375 00a8 7E020000 		.4byte	.LBB256-.Ltext0
 8376 00ac D0020000 		.4byte	.LBE256-.Ltext0
 8377 00b0 DC020000 		.4byte	.LBB258-.Ltext0
 8378 00b4 08030000 		.4byte	.LBE258-.Ltext0
 8379 00b8 0E030000 		.4byte	.LBB259-.Ltext0
 8380 00bc 34030000 		.4byte	.LBE259-.Ltext0
 8381 00c0 56030000 		.4byte	.LBB261-.Ltext0
 8382 00c4 78030000 		.4byte	.LBE261-.Ltext0
 8383 00c8 00000000 		.4byte	0
 8384 00cc 00000000 		.4byte	0
 8385 00d0 2E020000 		.4byte	.LBB200-.Ltext0
 8386 00d4 30020000 		.4byte	.LBE200-.Ltext0
 8387 00d8 7E020000 		.4byte	.LBB250-.Ltext0
 8388 00dc 9E020000 		.4byte	.LBE250-.Ltext0
 8389 00e0 56030000 		.4byte	.LBB254-.Ltext0
 8390 00e4 78030000 		.4byte	.LBE254-.Ltext0
 8391 00e8 00000000 		.4byte	0
 8392 00ec 00000000 		.4byte	0
 8393 00f0 32020000 		.4byte	.LBB201-.Ltext0
 8394 00f4 70020000 		.4byte	.LBE201-.Ltext0
 8395 00f8 9E020000 		.4byte	.LBB251-.Ltext0
 8396 00fc D0020000 		.4byte	.LBE251-.Ltext0
 8397 0100 DC020000 		.4byte	.LBB252-.Ltext0
 8398 0104 08030000 		.4byte	.LBE252-.Ltext0
 8399 0108 0E030000 		.4byte	.LBB253-.Ltext0
 8400 010c 34030000 		.4byte	.LBE253-.Ltext0
 8401 0110 00000000 		.4byte	0
 8402 0114 00000000 		.4byte	0
 8403 0118 46020000 		.4byte	.LBB206-.Ltext0
 8404 011c 70020000 		.4byte	.LBE206-.Ltext0
 8405 0120 0E030000 		.4byte	.LBB249-.Ltext0
ARM GAS  G:\Users\Jaxb\AppData\Local\Temp\ccLceCCb.s 			page 166


 8406 0124 34030000 		.4byte	.LBE249-.Ltext0
 8407 0128 00000000 		.4byte	0
 8408 012c 00000000 		.4byte	0
 8409 0130 22030000 		.4byte	.LBB207-.Ltext0
 8410 0134 26030000 		.4byte	.LBE207-.Ltext0
 8411 0138 28030000 		.4byte	.LBB212-.Ltext0
 8412 013c 2C030000 		.4byte	.LBE212-.Ltext0
 8413 0140 00000000 		.4byte	0
 8414 0144 00000000 		.4byte	0
 8415 0148 B6020000 		.4byte	.LBB218-.Ltext0
 8416 014c BA020000 		.4byte	.LBE218-.Ltext0
 8417 0150 BC020000 		.4byte	.LBB228-.Ltext0
 8418 0154 C0020000 		.4byte	.LBE228-.Ltext0
 8419 0158 00000000 		.4byte	0
 8420 015c 00000000 		.4byte	0
 8421 0160 BA020000 		.4byte	.LBB223-.Ltext0
 8422 0164 BC020000 		.4byte	.LBE223-.Ltext0
 8423 0168 C0020000 		.4byte	.LBB229-.Ltext0
 8424 016c D0020000 		.4byte	.LBE229-.Ltext0
 8425 0170 00000000 		.4byte	0
 8426 0174 00000000 		.4byte	0
 8427 0178 F2020000 		.4byte	.LBB239-.Ltext0
 8428 017c F4020000 		.4byte	.LBE239-.Ltext0
 8429 0180 F6020000 		.4byte	.LBB247-.Ltext0
 8430 0184 F8020000 		.4byte	.LBE247-.Ltext0
 8431 0188 FA020000 		.4byte	.LBB248-.Ltext0
 8432 018c 00030000 		.4byte	.LBE248-.Ltext0
 8433 0190 00000000 		.4byte	0
 8434 0194 00000000 		.4byte	0
 8435 0198 F6020000 		.4byte	.LBB241-.Ltext0
 8436 019c F8020000 		.4byte	.LBE241-.Ltext0
 8437 01a0 FA020000 		.4byte	.LBB244-.Ltext0
 8438 01a4 00030000 		.4byte	.LBE244-.Ltext0
 8439 01a8 00000000 		.4byte	0
 8440 01ac 00000000 		.4byte	0
 8441 01b0 C8030000 		.4byte	.LBB289-.Ltext0
 8442 01b4 52040000 		.4byte	.LBE289-.Ltext0
 8443 01b8 56040000 		.4byte	.LBB319-.Ltext0
 8444 01bc 60040000 		.4byte	.LBE319-.Ltext0
 8445 01c0 64040000 		.4byte	.LBB320-.Ltext0
 8446 01c4 AA040000 		.4byte	.LBE320-.Ltext0
 8447 01c8 AE040000 		.4byte	.LBB321-.Ltext0
 8448 01cc C0040000 		.4byte	.LBE321-.Ltext0
 8449 01d0 00000000 		.4byte	0
 8450 01d4 00000000 		.4byte	0
 8451 01d8 76040000 		.4byte	.LBB294-.Ltext0
 8452 01dc 78040000 		.4byte	.LBE294-.Ltext0
 8453 01e0 7A040000 		.4byte	.LBB304-.Ltext0
 8454 01e4 84040000 		.4byte	.LBE304-.Ltext0
 8455 01e8 00000000 		.4byte	0
 8456 01ec 00000000 		.4byte	0
 8457 01f0 78040000 		.4byte	.LBB299-.Ltext0
 8458 01f4 7A040000 		.4byte	.LBE299-.Ltext0
 8459 01f8 84040000 		.4byte	.LBB305-.Ltext0
 8460 01fc 92040000 		.4byte	.LBE305-.Ltext0
 8461 0200 00000000 		.4byte	0
 8462 0204 00000000 		.4byte	0
ARM GAS  G:\Users\Jaxb\AppData\Local\Temp\ccLceCCb.s 			page 167


 8463 0208 92040000 		.4byte	.LBB306-.Ltext0
 8464 020c 9A040000 		.4byte	.LBE306-.Ltext0
 8465 0210 9C040000 		.4byte	.LBB311-.Ltext0
 8466 0214 A0040000 		.4byte	.LBE311-.Ltext0
 8467 0218 00000000 		.4byte	0
 8468 021c 00000000 		.4byte	0
 8469 0220 0C050000 		.4byte	.LBB325-.Ltext0
 8470 0224 0E050000 		.4byte	.LBE325-.Ltext0
 8471 0228 64050000 		.4byte	.LBB332-.Ltext0
 8472 022c 66050000 		.4byte	.LBE332-.Ltext0
 8473 0230 00000000 		.4byte	0
 8474 0234 00000000 		.4byte	0
 8475 0238 C0050000 		.4byte	.LBB333-.Ltext0
 8476 023c C2050000 		.4byte	.LBE333-.Ltext0
 8477 0240 E6050000 		.4byte	.LBB334-.Ltext0
 8478 0244 54060000 		.4byte	.LBE334-.Ltext0
 8479 0248 00000000 		.4byte	0
 8480 024c 00000000 		.4byte	0
 8481              		.section	.debug_line,"",%progbits
 8482              	.Ldebug_line0:
 8483 0000 41050000 		.section	.debug_str,"MS",%progbits,1
 8483      02003201 
 8483      00000201 
 8483      FB0E0D00 
 8483      01010101 
 8484              	.LASF87:
 8485 0000 6164645F 		.ascii	"add_page_alloc_record\000"
 8485      70616765 
 8485      5F616C6C 
 8485      6F635F72 
 8485      65636F72 
 8486              	.LASF84:
 8487 0016 696E6974 		.ascii	"init_malloc\000"
 8487      5F6D616C 
 8487      6C6F6300 
 8488              	.LASF12:
 8489 0022 434F4D50 		.ascii	"COMPARE_TYPE\000"
 8489      4152455F 
 8489      54595045 
 8489      00
 8490              	.LASF27:
 8491 002f 626C6F63 		.ascii	"block_size\000"
 8491      6B5F7369 
 8491      7A6500
 8492              	.LASF13:
 8493 003a 6C697374 		.ascii	"list_head\000"
 8493      5F686561 
 8493      6400
 8494              	.LASF36:
 8495 0044 62756464 		.ascii	"buddy_info\000"
 8495      795F696E 
 8495      666F00
 8496              	.LASF90:
 8497 004f 73696E67 		.ascii	"singly_list_add\000"
 8497      6C795F6C 
 8497      6973745F 
 8497      61646400 
ARM GAS  G:\Users\Jaxb\AppData\Local\Temp\ccLceCCb.s 			page 168


 8498              	.LASF28:
 8499 005f 736C6162 		.ascii	"slab_chain\000"
 8499      5F636861 
 8499      696E00
 8500              	.LASF47:
 8501 006a 6C696E6B 		.ascii	"link_body\000"
 8501      5F626F64 
 8501      7900
 8502              	.LASF66:
 8503 0074 61726763 		.ascii	"argc\000"
 8503      00
 8504              	.LASF20:
 8505 0079 736C6162 		.ascii	"slabs_partial\000"
 8505      735F7061 
 8505      72746961 
 8505      6C00
 8506              	.LASF89:
 8507 0087 6469735F 		.ascii	"dis_page_alloc_record\000"
 8507      70616765 
 8507      5F616C6C 
 8507      6F635F72 
 8507      65636F72 
 8508              	.LASF1:
 8509 009d 73686F72 		.ascii	"short int\000"
 8509      7420696E 
 8509      7400
 8510              	.LASF9:
 8511 00a7 73697A65 		.ascii	"size_t\000"
 8511      5F7400
 8512              	.LASF101:
 8513 00ae 4350555F 		.ascii	"CPU_SR_Restore\000"
 8513      53525F52 
 8513      6573746F 
 8513      726500
 8514              	.LASF79:
 8515 00bd 6B615F6D 		.ascii	"ka_malloc\000"
 8515      616C6C6F 
 8515      6300
 8516              	.LASF115:
 8517 00c7 616C6C6F 		.ascii	"alloc_power1_page\000"
 8517      635F706F 
 8517      77657231 
 8517      5F706167 
 8517      6500
 8518              	.LASF82:
 8519 00d9 5F636173 		.ascii	"_case_alloc_buddy\000"
 8519      655F616C 
 8519      6C6F635F 
 8519      62756464 
 8519      7900
 8520              	.LASF96:
 8521 00eb 6C697374 		.ascii	"list_add\000"
 8521      5F616464 
 8521      00
 8522              	.LASF6:
 8523 00f4 55494E54 		.ascii	"UINT32\000"
 8523      333200
ARM GAS  G:\Users\Jaxb\AppData\Local\Temp\ccLceCCb.s 			page 169


 8524              	.LASF81:
 8525 00fb 66726565 		.ascii	"free_find_in_slab_chain\000"
 8525      5F66696E 
 8525      645F696E 
 8525      5F736C61 
 8525      625F6368 
 8526              	.LASF104:
 8527 0113 696E5F62 		.ascii	"in_buddy_range\000"
 8527      75646479 
 8527      5F72616E 
 8527      676500
 8528              	.LASF72:
 8529 0122 5F5F6D70 		.ascii	"__mptr\000"
 8529      747200
 8530              	.LASF116:
 8531 0129 73696E67 		.ascii	"singly_list_del\000"
 8531      6C795F6C 
 8531      6973745F 
 8531      64656C00 
 8532              	.LASF108:
 8533 0139 696E7365 		.ascii	"insert_into_cache_chain\000"
 8533      72745F69 
 8533      6E746F5F 
 8533      63616368 
 8533      655F6368 
 8534              	.LASF91:
 8535 0151 494E4954 		.ascii	"INIT_SINGLY_LIST_HEAD\000"
 8535      5F53494E 
 8535      474C595F 
 8535      4C495354 
 8535      5F484541 
 8536              	.LASF103:
 8537 0167 6765745F 		.ascii	"get_next_buddy_ptr_head\000"
 8537      6E657874 
 8537      5F627564 
 8537      64795F70 
 8537      74725F68 
 8538              	.LASF98:
 8539 017f 494E4954 		.ascii	"INIT_LIST_HEAD\000"
 8539      5F4C4953 
 8539      545F4845 
 8539      414400
 8540              	.LASF44:
 8541 018e 6C697374 		.ascii	"list\000"
 8541      00
 8542              	.LASF77:
 8543 0193 68656164 		.ascii	"head\000"
 8543      00
 8544              	.LASF49:
 8545 0198 6F726465 		.ascii	"order_link_flag\000"
 8545      725F6C69 
 8545      6E6B5F66 
 8545      6C616700 
 8546              	.LASF41:
 8547 01a8 6F726465 		.ascii	"order_link\000"
 8547      725F6C69 
 8547      6E6B00
ARM GAS  G:\Users\Jaxb\AppData\Local\Temp\ccLceCCb.s 			page 170


 8548              	.LASF85:
 8549 01b3 7265636F 		.ascii	"record_ptr\000"
 8549      72645F70 
 8549      747200
 8550              	.LASF34:
 8551 01be 50616765 		.ascii	"Page_Num_Type\000"
 8551      5F4E756D 
 8551      5F547970 
 8551      6500
 8552              	.LASF97:
 8553 01cc 5F5F6C69 		.ascii	"__list_add\000"
 8553      73745F61 
 8553      646400
 8554              	.LASF58:
 8555 01d7 63616368 		.ascii	"cache_chain_head\000"
 8555      655F6368 
 8555      61696E5F 
 8555      68656164 
 8555      00
 8556              	.LASF92:
 8557 01e8 6C697374 		.ascii	"list_empty\000"
 8557      5F656D70 
 8557      747900
 8558              	.LASF31:
 8559 01f3 73696E67 		.ascii	"singly_list_head\000"
 8559      6C795F6C 
 8559      6973745F 
 8559      68656164 
 8559      00
 8560              	.LASF42:
 8561 0204 70616765 		.ascii	"page_alloc_record\000"
 8561      5F616C6C 
 8561      6F635F72 
 8561      65636F72 
 8561      6400
 8562              	.LASF75:
 8563 0216 7368656C 		.ascii	"shell_check_kmem\000"
 8563      6C5F6368 
 8563      65636B5F 
 8563      6B6D656D 
 8563      00
 8564              	.LASF67:
 8565 0227 61726776 		.ascii	"argv\000"
 8565      00
 8566              	.LASF120:
 8567 022c 6B615F66 		.ascii	"ka_free\000"
 8567      72656500 
 8568              	.LASF2:
 8569 0234 6C6F6E67 		.ascii	"long long int\000"
 8569      206C6F6E 
 8569      6720696E 
 8569      7400
 8570              	.LASF46:
 8571 0242 666C6167 		.ascii	"flag\000"
 8571      00
 8572              	.LASF26:
 8573 0247 66756C6C 		.ascii	"full_block_num\000"
ARM GAS  G:\Users\Jaxb\AppData\Local\Temp\ccLceCCb.s 			page 171


 8573      5F626C6F 
 8573      636B5F6E 
 8573      756D00
 8574              	.LASF59:
 8575 0256 6B6D656D 		.ascii	"kmem_cache16\000"
 8575      5F636163 
 8575      68653136 
 8575      00
 8576              	.LASF110:
 8577 0263 6B615F70 		.ascii	"ka_pow\000"
 8577      6F7700
 8578              	.LASF38:
 8579 026a 70616765 		.ascii	"page_num\000"
 8579      5F6E756D 
 8579      00
 8580              	.LASF35:
 8581 0273 42756464 		.ascii	"Buddy_Space_Type\000"
 8581      795F5370 
 8581      6163655F 
 8581      54797065 
 8581      00
 8582              	.LASF99:
 8583 0284 6B615F70 		.ascii	"ka_printf\000"
 8583      72696E74 
 8583      6600
 8584              	.LASF112:
 8585 028e 616C6C6F 		.ascii	"alloc_power4_page\000"
 8585      635F706F 
 8585      77657234 
 8585      5F706167 
 8585      6500
 8586              	.LASF69:
 8587 02a0 6B6D656D 		.ascii	"kmem_cache_ptr\000"
 8587      5F636163 
 8587      68655F70 
 8587      747200
 8588              	.LASF32:
 8589 02af 62756464 		.ascii	"buddy_space_struct\000"
 8589      795F7370 
 8589      6163655F 
 8589      73747275 
 8589      637400
 8590              	.LASF111:
 8591 02c2 5F636173 		.ascii	"_case_slab_free_buddy\000"
 8591      655F736C 
 8591      61625F66 
 8591      7265655F 
 8591      62756464 
 8592              	.LASF37:
 8593 02d8 666C6167 		.ascii	"flag_array_num\000"
 8593      5F617272 
 8593      61795F6E 
 8593      756D00
 8594              	.LASF63:
 8595 02e7 675F696E 		.ascii	"g_interrupt_count\000"
 8595      74657272 
 8595      7570745F 
ARM GAS  G:\Users\Jaxb\AppData\Local\Temp\ccLceCCb.s 			page 172


 8595      636F756E 
 8595      7400
 8596              	.LASF21:
 8597 02f9 736C6162 		.ascii	"slabs_empty\000"
 8597      735F656D 
 8597      70747900 
 8598              	.LASF118:
 8599 0305 2E2E2F2E 		.ascii	"../../source/src/user/OS_LIB/malloc.c\000"
 8599      2E2F736F 
 8599      75726365 
 8599      2F737263 
 8599      2F757365 
 8600              	.LASF3:
 8601 032b 756E7369 		.ascii	"unsigned char\000"
 8601      676E6564 
 8601      20636861 
 8601      7200
 8602              	.LASF19:
 8603 0339 736C6162 		.ascii	"slabs_full\000"
 8603      735F6675 
 8603      6C6C00
 8604              	.LASF94:
 8605 0344 656E7472 		.ascii	"entry\000"
 8605      7900
 8606              	.LASF83:
 8607 034a 6765745F 		.ascii	"get_set_bit_place\000"
 8607      7365745F 
 8607      6269745F 
 8607      706C6163 
 8607      6500
 8608              	.LASF95:
 8609 035c 5F5F6C69 		.ascii	"__list_del\000"
 8609      73745F64 
 8609      656C00
 8610              	.LASF105:
 8611 0367 5F415353 		.ascii	"_ASSERT\000"
 8611      45525400 
 8612              	.LASF0:
 8613 036f 7369676E 		.ascii	"signed char\000"
 8613      65642063 
 8613      68617200 
 8614              	.LASF8:
 8615 037b 6C6F6E67 		.ascii	"long long unsigned int\000"
 8615      206C6F6E 
 8615      6720756E 
 8615      7369676E 
 8615      65642069 
 8616              	.LASF64:
 8617 0392 63616368 		.ascii	"cache_chain_head_ptr\000"
 8617      655F6368 
 8617      61696E5F 
 8617      68656164 
 8617      5F707472 
 8618              	.LASF113:
 8619 03a7 616C6C6F 		.ascii	"alloc_power3_page\000"
 8619      635F706F 
 8619      77657233 
ARM GAS  G:\Users\Jaxb\AppData\Local\Temp\ccLceCCb.s 			page 173


 8619      5F706167 
 8619      6500
 8620              	.LASF7:
 8621 03b9 756E7369 		.ascii	"unsigned int\000"
 8621      676E6564 
 8621      20696E74 
 8621      00
 8622              	.LASF51:
 8623 03c6 6C657665 		.ascii	"level_flag_base\000"
 8623      6C5F666C 
 8623      61675F62 
 8623      61736500 
 8624              	.LASF33:
 8625 03d6 466C6167 		.ascii	"Flag_Type\000"
 8625      5F547970 
 8625      6500
 8626              	.LASF48:
 8627 03e0 6F726465 		.ascii	"order_link_first\000"
 8627      725F6C69 
 8627      6E6B5F66 
 8627      69727374 
 8627      00
 8628              	.LASF52:
 8629 03f1 62756464 		.ascii	"buddy_struct_size\000"
 8629      795F7374 
 8629      72756374 
 8629      5F73697A 
 8629      6500
 8630              	.LASF18:
 8631 0403 6B6D656D 		.ascii	"kmem_cache_insert_chain\000"
 8631      5F636163 
 8631      68655F69 
 8631      6E736572 
 8631      745F6368 
 8632              	.LASF39:
 8633 041b 6D61785F 		.ascii	"max_level\000"
 8633      6C657665 
 8633      6C00
 8634              	.LASF4:
 8635 0425 73686F72 		.ascii	"short unsigned int\000"
 8635      7420756E 
 8635      7369676E 
 8635      65642069 
 8635      6E7400
 8636              	.LASF106:
 8637 0438 6765745F 		.ascii	"get_next_IL\000"
 8637      6E657874 
 8637      5F494C00 
 8638              	.LASF68:
 8639 0444 494C5F70 		.ascii	"IL_ptr\000"
 8639      747200
 8640              	.LASF5:
 8641 044b 55494E54 		.ascii	"UINT16\000"
 8641      313600
 8642              	.LASF30:
 8643 0452 63686172 		.ascii	"char\000"
 8643      00
ARM GAS  G:\Users\Jaxb\AppData\Local\Temp\ccLceCCb.s 			page 174


 8644              	.LASF61:
 8645 0457 6B6D656D 		.ascii	"kmem_cache_kmem_cache\000"
 8645      5F636163 
 8645      68655F6B 
 8645      6D656D5F 
 8645      63616368 
 8646              	.LASF109:
 8647 046d 66696E64 		.ascii	"find_first_bigger_IL\000"
 8647      5F666972 
 8647      73745F62 
 8647      69676765 
 8647      725F494C 
 8648              	.LASF56:
 8649 0482 4350555F 		.ascii	"CPU_INT32U\000"
 8649      494E5433 
 8649      325500
 8650              	.LASF65:
 8651 048d 70616765 		.ascii	"page_alloc_record_head\000"
 8651      5F616C6C 
 8651      6F635F72 
 8651      65636F72 
 8651      645F6865 
 8652              	.LASF15:
 8653 04a4 696E7365 		.ascii	"insert\000"
 8653      727400
 8654              	.LASF76:
 8655 04ab 62756464 		.ascii	"buddy_ptr\000"
 8655      795F7074 
 8655      7200
 8656              	.LASF74:
 8657 04b5 7368656C 		.ascii	"shell_check_slab\000"
 8657      6C5F6368 
 8657      65636B5F 
 8657      736C6162 
 8657      00
 8658              	.LASF73:
 8659 04c6 62756666 		.ascii	"buffer\000"
 8659      657200
 8660              	.LASF107:
 8661 04cd 6C6F6164 		.ascii	"load_slab\000"
 8661      5F736C61 
 8661      6200
 8662              	.LASF24:
 8663 04d7 656E645F 		.ascii	"end_ptr\000"
 8663      70747200 
 8664              	.LASF23:
 8665 04df 73746172 		.ascii	"start_ptr\000"
 8665      745F7074 
 8665      7200
 8666              	.LASF45:
 8667 04e9 62756464 		.ascii	"buddy\000"
 8667      7900
 8668              	.LASF93:
 8669 04ef 6C697374 		.ascii	"list_del\000"
 8669      5F64656C 
 8669      00
 8670              	.LASF70:
ARM GAS  G:\Users\Jaxb\AppData\Local\Temp\ccLceCCb.s 			page 175


 8671 04f8 736C6162 		.ascii	"slab_ptr\000"
 8671      5F707472 
 8671      00
 8672              	.LASF22:
 8673 0501 736C6162 		.ascii	"slab\000"
 8673      00
 8674              	.LASF119:
 8675 0506 473A5C55 		.ascii	"G:\\Users\\Jaxb\\Desktop\\KAKAOS-0.07  2019.2.21  f"
 8675      73657273 
 8675      5C4A6178 
 8675      625C4465 
 8675      736B746F 
 8676 0535 6F722067 		.ascii	"or gcc\\Project\\RVMDK\243\250uv5\243\251\000"
 8676      63635C50 
 8676      726F6A65 
 8676      63745C52 
 8676      564D444B 
 8677              	.LASF40:
 8678 0551 6C657665 		.ascii	"level_flag_base_size\000"
 8678      6C5F666C 
 8678      61675F62 
 8678      6173655F 
 8678      73697A65 
 8679              	.LASF80:
 8680 0566 73697A65 		.ascii	"size\000"
 8680      00
 8681              	.LASF114:
 8682 056b 616C6C6F 		.ascii	"alloc_power2_page\000"
 8682      635F706F 
 8682      77657232 
 8682      5F706167 
 8682      6500
 8683              	.LASF86:
 8684 057d 66696E64 		.ascii	"find_and_remove_record\000"
 8684      5F616E64 
 8684      5F72656D 
 8684      6F76655F 
 8684      7265636F 
 8685              	.LASF54:
 8686 0594 696E666F 		.ascii	"info\000"
 8686      00
 8687              	.LASF43:
 8688 0599 6C657665 		.ascii	"level\000"
 8688      6C00
 8689              	.LASF100:
 8690 059f 4350555F 		.ascii	"CPU_SR_Save\000"
 8690      53525F53 
 8690      61766500 
 8691              	.LASF88:
 8692 05ab 7265636F 		.ascii	"recoed_ptr\000"
 8692      65645F70 
 8692      747200
 8693              	.LASF55:
 8694 05b6 62756464 		.ascii	"buddy_space_start_ptr\000"
 8694      795F7370 
 8694      6163655F 
 8694      73746172 
ARM GAS  G:\Users\Jaxb\AppData\Local\Temp\ccLceCCb.s 			page 176


 8694      745F7074 
 8695              	.LASF60:
 8696 05cc 6B6D656D 		.ascii	"kmem_cache32\000"
 8696      5F636163 
 8696      68653332 
 8696      00
 8697              	.LASF17:
 8698 05d9 6B6D656D 		.ascii	"kmem_cache\000"
 8698      5F636163 
 8698      686500
 8699              	.LASF53:
 8700 05e4 63757272 		.ascii	"current_page_num\000"
 8700      656E745F 
 8700      70616765 
 8700      5F6E756D 
 8700      00
 8701              	.LASF14:
 8702 05f5 696E7365 		.ascii	"insert_list\000"
 8702      72745F6C 
 8702      69737400 
 8703              	.LASF71:
 8704 0601 6370755F 		.ascii	"cpu_sr\000"
 8704      737200
 8705              	.LASF102:
 8706 0608 6765745F 		.ascii	"get_os_buddy_ptr_head\000"
 8706      6F735F62 
 8706      75646479 
 8706      5F707472 
 8706      5F686561 
 8707              	.LASF117:
 8708 061e 474E5520 		.ascii	"GNU C11 7.3.1 20180622 (release) [ARM/embedded-7-br"
 8708      43313120 
 8708      372E332E 
 8708      31203230 
 8708      31383036 
 8709 0651 616E6368 		.ascii	"anch revision 261907] -mcpu=cortex-m3 -mthumb -mapc"
 8709      20726576 
 8709      6973696F 
 8709      6E203236 
 8709      31393037 
 8710 0684 732D6672 		.ascii	"s-frame -mthumb-interwork -mcpu=cortex-m3 -mthumb -"
 8710      616D6520 
 8710      2D6D7468 
 8710      756D622D 
 8710      696E7465 
 8711 06b7 67647761 		.ascii	"gdwarf-2 -O2\000"
 8711      72662D32 
 8711      202D4F32 
 8711      00
 8712              	.LASF25:
 8713 06c4 63757272 		.ascii	"current_block_num\000"
 8713      656E745F 
 8713      626C6F63 
 8713      6B5F6E75 
 8713      6D00
 8714              	.LASF11:
 8715 06d6 70726576 		.ascii	"prev\000"
ARM GAS  G:\Users\Jaxb\AppData\Local\Temp\ccLceCCb.s 			page 177


 8715      00
 8716              	.LASF57:
 8717 06db 4350555F 		.ascii	"CPU_SR\000"
 8717      535200
 8718              	.LASF62:
 8719 06e2 6B6D656D 		.ascii	"kmem_cache_TCB\000"
 8719      5F636163 
 8719      68655F54 
 8719      434200
 8720              	.LASF78:
 8721 06f1 696E5F6F 		.ascii	"in_os_memory\000"
 8721      735F6D65 
 8721      6D6F7279 
 8721      00
 8722              	.LASF50:
 8723 06fe 6F726465 		.ascii	"order_array\000"
 8723      725F6172 
 8723      72617900 
 8724              	.LASF16:
 8725 070a 7072696F 		.ascii	"prio\000"
 8725      00
 8726              	.LASF29:
 8727 070f 626C6F63 		.ascii	"block_head\000"
 8727      6B5F6865 
 8727      616400
 8728              	.LASF10:
 8729 071a 6E657874 		.ascii	"next\000"
 8729      00
 8730              		.ident	"GCC: (GNU Tools for Arm Embedded Processors 7-2018-q2-update) 7.3.1 20180622 (release) [AR
ARM GAS  G:\Users\Jaxb\AppData\Local\Temp\ccLceCCb.s 			page 178


DEFINED SYMBOLS
                            *ABS*:00000000 malloc.c
G:\Users\Jaxb\AppData\Local\Temp\ccLceCCb.s:15     .text:00000000 $t
G:\Users\Jaxb\AppData\Local\Temp\ccLceCCb.s:22     .text:00000000 free_find_in_slab_chain
G:\Users\Jaxb\AppData\Local\Temp\ccLceCCb.s:136    .text:0000006c $d
G:\Users\Jaxb\AppData\Local\Temp\ccLceCCb.s:140    .text:00000070 $t
G:\Users\Jaxb\AppData\Local\Temp\ccLceCCb.s:147    .text:00000070 _case_alloc_buddy
G:\Users\Jaxb\AppData\Local\Temp\ccLceCCb.s:183    .text:0000008e $d
G:\Users\Jaxb\AppData\Local\Temp\ccLceCCb.s:187    .text:00000092 $t
G:\Users\Jaxb\AppData\Local\Temp\ccLceCCb.s:282    .text:000000fc $d
G:\Users\Jaxb\AppData\Local\Temp\ccLceCCb.s:288    .text:00000108 $t
G:\Users\Jaxb\AppData\Local\Temp\ccLceCCb.s:296    .text:00000108 dis_page_alloc_record
G:\Users\Jaxb\AppData\Local\Temp\ccLceCCb.s:360    .text:00000148 $d
G:\Users\Jaxb\AppData\Local\Temp\ccLceCCb.s:367    .text:00000158 $t
G:\Users\Jaxb\AppData\Local\Temp\ccLceCCb.s:375    .text:00000158 init_malloc
G:\Users\Jaxb\AppData\Local\Temp\ccLceCCb.s:447    .text:00000198 $d
G:\Users\Jaxb\AppData\Local\Temp\ccLceCCb.s:451    .text:0000019c $t
G:\Users\Jaxb\AppData\Local\Temp\ccLceCCb.s:459    .text:0000019c get_set_bit_place
G:\Users\Jaxb\AppData\Local\Temp\ccLceCCb.s:525    .text:000001d0 ka_malloc
G:\Users\Jaxb\AppData\Local\Temp\ccLceCCb.s:1019   .text:00000368 $d
G:\Users\Jaxb\AppData\Local\Temp\ccLceCCb.s:1028   .text:00000378 $t
G:\Users\Jaxb\AppData\Local\Temp\ccLceCCb.s:1036   .text:00000378 in_os_memory
G:\Users\Jaxb\AppData\Local\Temp\ccLceCCb.s:1101   .text:000003b4 $d
G:\Users\Jaxb\AppData\Local\Temp\ccLceCCb.s:1105   .text:000003b8 $t
G:\Users\Jaxb\AppData\Local\Temp\ccLceCCb.s:1113   .text:000003b8 ka_free
G:\Users\Jaxb\AppData\Local\Temp\ccLceCCb.s:1421   .text:000004b4 $d
G:\Users\Jaxb\AppData\Local\Temp\ccLceCCb.s:1429   .text:000004c0 $t
G:\Users\Jaxb\AppData\Local\Temp\ccLceCCb.s:1437   .text:000004c0 shell_check_kmem
G:\Users\Jaxb\AppData\Local\Temp\ccLceCCb.s:1642   .text:00000578 $d
G:\Users\Jaxb\AppData\Local\Temp\ccLceCCb.s:1655   .text:000005a0 $t
G:\Users\Jaxb\AppData\Local\Temp\ccLceCCb.s:1663   .text:000005a0 shell_check_slab
G:\Users\Jaxb\AppData\Local\Temp\ccLceCCb.s:2027   .text:00000788 $d
G:\Users\Jaxb\AppData\Local\Temp\ccLceCCb.s:2054   .rodata:00000000 cache_chain_head_ptr
G:\Users\Jaxb\AppData\Local\Temp\ccLceCCb.s:2051   .rodata:00000000 $d
G:\Users\Jaxb\AppData\Local\Temp\ccLceCCb.s:2065   .bss:00000004 cache_chain_head
G:\Users\Jaxb\AppData\Local\Temp\ccLceCCb.s:2057   .bss:00000000 $d
G:\Users\Jaxb\AppData\Local\Temp\ccLceCCb.s:2061   .bss:00000000 page_alloc_record_head
G:\Users\Jaxb\AppData\Local\Temp\ccLceCCb.s:2069   .bss:0000000c kmem_cache_TCB
G:\Users\Jaxb\AppData\Local\Temp\ccLceCCb.s:2073   .bss:00000030 kmem_cache_kmem_cache
G:\Users\Jaxb\AppData\Local\Temp\ccLceCCb.s:2077   .bss:00000054 kmem_cache32
G:\Users\Jaxb\AppData\Local\Temp\ccLceCCb.s:2081   .bss:00000078 kmem_cache16
G:\Users\Jaxb\AppData\Local\Temp\ccLceCCb.s:2084   .rodata.str1.4:00000000 $d

UNDEFINED SYMBOLS
_ASSERT
get_os_buddy_ptr_head
alloc_power4_page
alloc_power3_page
alloc_power2_page
alloc_power1_page
get_next_buddy_ptr_head
ka_printf
insert_into_cache_chain
CPU_SR_Save
CPU_SR_Restore
find_first_bigger_IL
get_next_IL
ARM GAS  G:\Users\Jaxb\AppData\Local\Temp\ccLceCCb.s 			page 179


load_slab
ka_pow
_case_slab_free_buddy
in_buddy_range
singly_list_del
