ARM GAS  G:\Users\Jaxb\AppData\Local\Temp\ccWtL94l.s 			page 1


   1              		.cpu cortex-m3
   2              		.eabi_attribute 20, 1
   3              		.eabi_attribute 21, 1
   4              		.eabi_attribute 23, 3
   5              		.eabi_attribute 24, 1
   6              		.eabi_attribute 25, 1
   7              		.eabi_attribute 26, 1
   8              		.eabi_attribute 30, 6
   9              		.eabi_attribute 34, 1
  10              		.eabi_attribute 18, 4
  11              		.file	"MCB.c"
  12              		.text
  13              	.Ltext0:
  14              		.cfi_sections	.debug_frame
  15              		.align	1
  16              		.syntax unified
  17              		.thumb
  18              		.thumb_func
  19              		.fpu softvfp
  20              		.type	compare, %function
  21              	compare:
  22              	.LFB20:
  23              		.file 1 "../../source/src/kernel/OS_CORE/ipc/MCB.c"
   1:../../source/src/kernel/OS_CORE/ipc/MCB.c **** #include <MCB.h>
   2:../../source/src/kernel/OS_CORE/ipc/MCB.c **** #include <os_cpu.h>
   3:../../source/src/kernel/OS_CORE/ipc/MCB.c **** #include <os_time.h>
   4:../../source/src/kernel/OS_CORE/ipc/MCB.c **** #include <myassert.h>
   5:../../source/src/kernel/OS_CORE/ipc/MCB.c **** #include <myMicroLIB.h>
   6:../../source/src/kernel/OS_CORE/ipc/MCB.c **** #include <task_state.h>
   7:../../source/src/kernel/OS_CORE/ipc/MCB.c **** #include <os_schedule.h>
   8:../../source/src/kernel/OS_CORE/ipc/MCB.c **** #include <os_suspend.h>
   9:../../source/src/kernel/OS_CORE/ipc/MCB.c **** #include <os_delay.h>
  10:../../source/src/kernel/OS_CORE/ipc/MCB.c **** #include <export.h>
  11:../../source/src/kernel/OS_CORE/ipc/MCB.c **** 
  12:../../source/src/kernel/OS_CORE/ipc/MCB.c **** 
  13:../../source/src/kernel/OS_CORE/ipc/MCB.c **** extern TCB * OSTCBCurPtr;
  14:../../source/src/kernel/OS_CORE/ipc/MCB.c **** 
  15:../../source/src/kernel/OS_CORE/ipc/MCB.c **** static int compare(struct insert_sort_data *data1,struct insert_sort_data *data2)
  16:../../source/src/kernel/OS_CORE/ipc/MCB.c **** {
  24              		.loc 1 16 0
  25              		.cfi_startproc
  26              		@ args = 0, pretend = 0, frame = 8
  27              		@ frame_needed = 1, uses_anonymous_args = 0
  28              		@ link register save eliminated.
  29 0000 80B4     		push	{r7}
  30              	.LCFI0:
  31              		.cfi_def_cfa_offset 4
  32              		.cfi_offset 7, -4
  33 0002 83B0     		sub	sp, sp, #12
  34              	.LCFI1:
  35              		.cfi_def_cfa_offset 16
  36 0004 00AF     		add	r7, sp, #0
  37              	.LCFI2:
  38              		.cfi_def_cfa_register 7
  39 0006 7860     		str	r0, [r7, #4]
  40 0008 3960     		str	r1, [r7]
  17:../../source/src/kernel/OS_CORE/ipc/MCB.c **** 	return ((TCB*)(data1->data_ptr))->prio - ((TCB*)(data2->data_ptr))->prio;
ARM GAS  G:\Users\Jaxb\AppData\Local\Temp\ccWtL94l.s 			page 2


  41              		.loc 1 17 0
  42 000a 7B68     		ldr	r3, [r7, #4]
  43 000c 1B68     		ldr	r3, [r3]
  44 000e 5A69     		ldr	r2, [r3, #20]
  45 0010 3B68     		ldr	r3, [r7]
  46 0012 1B68     		ldr	r3, [r3]
  47 0014 5B69     		ldr	r3, [r3, #20]
  48 0016 D31A     		subs	r3, r2, r3
  18:../../source/src/kernel/OS_CORE/ipc/MCB.c **** }
  49              		.loc 1 18 0
  50 0018 1846     		mov	r0, r3
  51 001a 0C37     		adds	r7, r7, #12
  52              	.LCFI3:
  53              		.cfi_def_cfa_offset 4
  54 001c BD46     		mov	sp, r7
  55              	.LCFI4:
  56              		.cfi_def_cfa_register 13
  57              		@ sp needed
  58 001e 80BC     		pop	{r7}
  59              	.LCFI5:
  60              		.cfi_restore 7
  61              		.cfi_def_cfa_offset 0
  62 0020 7047     		bx	lr
  63              		.cfi_endproc
  64              	.LFE20:
  65              		.size	compare, .-compare
  66              		.align	1
  67              		.syntax unified
  68              		.thumb
  69              		.thumb_func
  70              		.fpu softvfp
  71              		.type	value_cmp, %function
  72              	value_cmp:
  73              	.LFB21:
  19:../../source/src/kernel/OS_CORE/ipc/MCB.c **** 
  20:../../source/src/kernel/OS_CORE/ipc/MCB.c **** static int value_cmp(void *data1,void *data2)
  21:../../source/src/kernel/OS_CORE/ipc/MCB.c **** {
  74              		.loc 1 21 0
  75              		.cfi_startproc
  76              		@ args = 0, pretend = 0, frame = 8
  77              		@ frame_needed = 1, uses_anonymous_args = 0
  78              		@ link register save eliminated.
  79 0022 80B4     		push	{r7}
  80              	.LCFI6:
  81              		.cfi_def_cfa_offset 4
  82              		.cfi_offset 7, -4
  83 0024 83B0     		sub	sp, sp, #12
  84              	.LCFI7:
  85              		.cfi_def_cfa_offset 16
  86 0026 00AF     		add	r7, sp, #0
  87              	.LCFI8:
  88              		.cfi_def_cfa_register 7
  89 0028 7860     		str	r0, [r7, #4]
  90 002a 3960     		str	r1, [r7]
  22:../../source/src/kernel/OS_CORE/ipc/MCB.c **** 	return ((TCB*)data1)->prio - ((TCB*)data2)->prio;
  91              		.loc 1 22 0
  92 002c 7B68     		ldr	r3, [r7, #4]
ARM GAS  G:\Users\Jaxb\AppData\Local\Temp\ccWtL94l.s 			page 3


  93 002e 5A69     		ldr	r2, [r3, #20]
  94 0030 3B68     		ldr	r3, [r7]
  95 0032 5B69     		ldr	r3, [r3, #20]
  96 0034 D31A     		subs	r3, r2, r3
  23:../../source/src/kernel/OS_CORE/ipc/MCB.c **** }
  97              		.loc 1 23 0
  98 0036 1846     		mov	r0, r3
  99 0038 0C37     		adds	r7, r7, #12
 100              	.LCFI9:
 101              		.cfi_def_cfa_offset 4
 102 003a BD46     		mov	sp, r7
 103              	.LCFI10:
 104              		.cfi_def_cfa_register 13
 105              		@ sp needed
 106 003c 80BC     		pop	{r7}
 107              	.LCFI11:
 108              		.cfi_restore 7
 109              		.cfi_def_cfa_offset 0
 110 003e 7047     		bx	lr
 111              		.cfi_endproc
 112              	.LFE21:
 113              		.size	value_cmp, .-value_cmp
 114              		.section	.rodata
 115              		.align	2
 116              	.LC0:
 117 0000 2E2E2F2E 		.ascii	"../../source/src/kernel/OS_CORE/ipc/MCB.c\000"
 117      2E2F736F 
 117      75726365 
 117      2F737263 
 117      2F6B6572 
 118              		.text
 119              		.align	1
 120              		.global	_init_MCB
 121              		.syntax unified
 122              		.thumb
 123              		.thumb_func
 124              		.fpu softvfp
 125              		.type	_init_MCB, %function
 126              	_init_MCB:
 127              	.LFB22:
  24:../../source/src/kernel/OS_CORE/ipc/MCB.c **** 
  25:../../source/src/kernel/OS_CORE/ipc/MCB.c **** int
  26:../../source/src/kernel/OS_CORE/ipc/MCB.c **** _init_MCB(
  27:../../source/src/kernel/OS_CORE/ipc/MCB.c **** 	MCB *MCB_ptr,
  28:../../source/src/kernel/OS_CORE/ipc/MCB.c **** 	int num,
  29:../../source/src/kernel/OS_CORE/ipc/MCB.c **** 	unsigned int flag
  30:../../source/src/kernel/OS_CORE/ipc/MCB.c **** 	)
  31:../../source/src/kernel/OS_CORE/ipc/MCB.c **** {
 128              		.loc 1 31 0
 129              		.cfi_startproc
 130              		@ args = 0, pretend = 0, frame = 24
 131              		@ frame_needed = 1, uses_anonymous_args = 0
 132 0040 80B5     		push	{r7, lr}
 133              	.LCFI12:
 134              		.cfi_def_cfa_offset 8
 135              		.cfi_offset 7, -8
 136              		.cfi_offset 14, -4
ARM GAS  G:\Users\Jaxb\AppData\Local\Temp\ccWtL94l.s 			page 4


 137 0042 86B0     		sub	sp, sp, #24
 138              	.LCFI13:
 139              		.cfi_def_cfa_offset 32
 140 0044 00AF     		add	r7, sp, #0
 141              	.LCFI14:
 142              		.cfi_def_cfa_register 7
 143 0046 F860     		str	r0, [r7, #12]
 144 0048 B960     		str	r1, [r7, #8]
 145 004a 7A60     		str	r2, [r7, #4]
  32:../../source/src/kernel/OS_CORE/ipc/MCB.c **** 	ASSERT(NULL != MCB_ptr);
 146              		.loc 1 32 0
 147 004c FB68     		ldr	r3, [r7, #12]
 148 004e 002B     		cmp	r3, #0
 149 0050 03D1     		bne	.L6
 150              		.loc 1 32 0 is_stmt 0 discriminator 1
 151 0052 2021     		movs	r1, #32
 152 0054 1348     		ldr	r0, .L9
 153 0056 FFF7FEFF 		bl	_ASSERT
 154              	.L6:
  33:../../source/src/kernel/OS_CORE/ipc/MCB.c **** 	CPU_SR_ALLOC();
 155              		.loc 1 33 0 is_stmt 1
 156 005a 0023     		movs	r3, #0
 157 005c 7B61     		str	r3, [r7, #20]
  34:../../source/src/kernel/OS_CORE/ipc/MCB.c **** 	CPU_CRITICAL_ENTER();
 158              		.loc 1 34 0
 159 005e FFF7FEFF 		bl	CPU_SR_Save
 160 0062 7861     		str	r0, [r7, #20]
  35:../../source/src/kernel/OS_CORE/ipc/MCB.c **** 	MCB_ptr->resource_num = num;
 161              		.loc 1 35 0
 162 0064 FB68     		ldr	r3, [r7, #12]
 163 0066 BA68     		ldr	r2, [r7, #8]
 164 0068 9A61     		str	r2, [r3, #24]
  36:../../source/src/kernel/OS_CORE/ipc/MCB.c **** 	init_insert_sort_entity(
 165              		.loc 1 36 0
 166 006a F868     		ldr	r0, [r7, #12]
 167 006c 0E4B     		ldr	r3, .L9+4
 168 006e 0022     		movs	r2, #0
 169 0070 0E49     		ldr	r1, .L9+8
 170 0072 FFF7FEFF 		bl	init_insert_sort_entity
  37:../../source/src/kernel/OS_CORE/ipc/MCB.c **** 		&MCB_ptr->MCB_insert_sort_list,
  38:../../source/src/kernel/OS_CORE/ipc/MCB.c **** 		compare,
  39:../../source/src/kernel/OS_CORE/ipc/MCB.c **** 		NULL,
  40:../../source/src/kernel/OS_CORE/ipc/MCB.c **** 		value_cmp
  41:../../source/src/kernel/OS_CORE/ipc/MCB.c **** 	);
  42:../../source/src/kernel/OS_CORE/ipc/MCB.c **** 	MCB_ptr->flag = flag;
 171              		.loc 1 42 0
 172 0076 FB68     		ldr	r3, [r7, #12]
 173 0078 7A68     		ldr	r2, [r7, #4]
 174 007a DA61     		str	r2, [r3, #28]
  43:../../source/src/kernel/OS_CORE/ipc/MCB.c **** 	if(MCB_type_is_binary(MCB_ptr))
 175              		.loc 1 43 0
 176 007c FB68     		ldr	r3, [r7, #12]
 177 007e DB69     		ldr	r3, [r3, #28]
 178 0080 03F00103 		and	r3, r3, #1
 179 0084 002B     		cmp	r3, #0
 180 0086 05D0     		beq	.L7
  44:../../source/src/kernel/OS_CORE/ipc/MCB.c **** 	{
ARM GAS  G:\Users\Jaxb\AppData\Local\Temp\ccWtL94l.s 			page 5


  45:../../source/src/kernel/OS_CORE/ipc/MCB.c **** 		if(num)
 181              		.loc 1 45 0
 182 0088 BB68     		ldr	r3, [r7, #8]
 183 008a 002B     		cmp	r3, #0
 184 008c 02D0     		beq	.L7
  46:../../source/src/kernel/OS_CORE/ipc/MCB.c **** 		{
  47:../../source/src/kernel/OS_CORE/ipc/MCB.c **** 			MCB_ptr->resource_num = 1;
 185              		.loc 1 47 0
 186 008e FB68     		ldr	r3, [r7, #12]
 187 0090 0122     		movs	r2, #1
 188 0092 9A61     		str	r2, [r3, #24]
 189              	.L7:
  48:../../source/src/kernel/OS_CORE/ipc/MCB.c **** 		}
  49:../../source/src/kernel/OS_CORE/ipc/MCB.c **** 	}
  50:../../source/src/kernel/OS_CORE/ipc/MCB.c **** 	CPU_CRITICAL_EXIT();
 190              		.loc 1 50 0
 191 0094 7869     		ldr	r0, [r7, #20]
 192 0096 FFF7FEFF 		bl	CPU_SR_Restore
  51:../../source/src/kernel/OS_CORE/ipc/MCB.c **** 	return FUN_EXECUTE_SUCCESSFULLY;
 193              		.loc 1 51 0
 194 009a 0023     		movs	r3, #0
  52:../../source/src/kernel/OS_CORE/ipc/MCB.c **** }
 195              		.loc 1 52 0
 196 009c 1846     		mov	r0, r3
 197 009e 1837     		adds	r7, r7, #24
 198              	.LCFI15:
 199              		.cfi_def_cfa_offset 8
 200 00a0 BD46     		mov	sp, r7
 201              	.LCFI16:
 202              		.cfi_def_cfa_register 13
 203              		@ sp needed
 204 00a2 80BD     		pop	{r7, pc}
 205              	.L10:
 206              		.align	2
 207              	.L9:
 208 00a4 00000000 		.word	.LC0
 209 00a8 00000000 		.word	value_cmp
 210 00ac 00000000 		.word	compare
 211              		.cfi_endproc
 212              	.LFE22:
 213              		.size	_init_MCB, .-_init_MCB
 214              		.section	.rodata
 215 002a 0000     		.align	2
 216              	.LC1:
 217 002c 6572726F 		.ascii	"error fun name : init_MCB\012error para : MCB_ptr\012"
 217      72206675 
 217      6E206E61 
 217      6D65203A 
 217      20696E69 
 218 005b 00       		.ascii	"\000"
 219              		.text
 220              		.align	1
 221              		.global	init_MCB
 222              		.syntax unified
 223              		.thumb
 224              		.thumb_func
 225              		.fpu softvfp
ARM GAS  G:\Users\Jaxb\AppData\Local\Temp\ccWtL94l.s 			page 6


 226              		.type	init_MCB, %function
 227              	init_MCB:
 228              	.LFB23:
  53:../../source/src/kernel/OS_CORE/ipc/MCB.c **** 
  54:../../source/src/kernel/OS_CORE/ipc/MCB.c **** int
  55:../../source/src/kernel/OS_CORE/ipc/MCB.c **** init_MCB(
  56:../../source/src/kernel/OS_CORE/ipc/MCB.c **** 	MCB *MCB_ptr,
  57:../../source/src/kernel/OS_CORE/ipc/MCB.c **** 	int num,
  58:../../source/src/kernel/OS_CORE/ipc/MCB.c **** 	unsigned int flag
  59:../../source/src/kernel/OS_CORE/ipc/MCB.c **** 	)
  60:../../source/src/kernel/OS_CORE/ipc/MCB.c **** {
 229              		.loc 1 60 0
 230              		.cfi_startproc
 231              		@ args = 0, pretend = 0, frame = 16
 232              		@ frame_needed = 1, uses_anonymous_args = 0
 233 00b0 80B5     		push	{r7, lr}
 234              	.LCFI17:
 235              		.cfi_def_cfa_offset 8
 236              		.cfi_offset 7, -8
 237              		.cfi_offset 14, -4
 238 00b2 84B0     		sub	sp, sp, #16
 239              	.LCFI18:
 240              		.cfi_def_cfa_offset 24
 241 00b4 00AF     		add	r7, sp, #0
 242              	.LCFI19:
 243              		.cfi_def_cfa_register 7
 244 00b6 F860     		str	r0, [r7, #12]
 245 00b8 B960     		str	r1, [r7, #8]
 246 00ba 7A60     		str	r2, [r7, #4]
  61:../../source/src/kernel/OS_CORE/ipc/MCB.c **** 	if(NULL == MCB_ptr)
 247              		.loc 1 61 0
 248 00bc FB68     		ldr	r3, [r7, #12]
 249 00be 002B     		cmp	r3, #0
 250 00c0 05D1     		bne	.L12
  62:../../source/src/kernel/OS_CORE/ipc/MCB.c **** 	{
  63:../../source/src/kernel/OS_CORE/ipc/MCB.c **** 		OS_ERROR_PARA_MESSAGE_DISPLAY(init_MCB,MCB_ptr);
 251              		.loc 1 63 0
 252 00c2 0B48     		ldr	r0, .L15
 253 00c4 FFF7FEFF 		bl	ka_printf
  64:../../source/src/kernel/OS_CORE/ipc/MCB.c **** 		return -ERROR_NULL_INPUT_PTR;
 254              		.loc 1 64 0
 255 00c8 6FF0FE03 		mvn	r3, #254
 256 00cc 0CE0     		b	.L13
 257              	.L12:
  65:../../source/src/kernel/OS_CORE/ipc/MCB.c **** 	}
  66:../../source/src/kernel/OS_CORE/ipc/MCB.c **** 	if (g_interrupt_count > 0)
 258              		.loc 1 66 0
 259 00ce 094B     		ldr	r3, .L15+4
 260 00d0 1B68     		ldr	r3, [r3]
 261 00d2 002B     		cmp	r3, #0
 262 00d4 02DD     		ble	.L14
  67:../../source/src/kernel/OS_CORE/ipc/MCB.c **** 	{
  68:../../source/src/kernel/OS_CORE/ipc/MCB.c **** 		return -ERROR_FUN_USE_IN_INTER;
 263              		.loc 1 68 0
 264 00d6 6FF0FC03 		mvn	r3, #252
 265 00da 05E0     		b	.L13
 266              	.L14:
ARM GAS  G:\Users\Jaxb\AppData\Local\Temp\ccWtL94l.s 			page 7


  69:../../source/src/kernel/OS_CORE/ipc/MCB.c **** 	}
  70:../../source/src/kernel/OS_CORE/ipc/MCB.c **** 	return _init_MCB(MCB_ptr,num,flag);
 267              		.loc 1 70 0
 268 00dc 7A68     		ldr	r2, [r7, #4]
 269 00de B968     		ldr	r1, [r7, #8]
 270 00e0 F868     		ldr	r0, [r7, #12]
 271 00e2 FFF7FEFF 		bl	_init_MCB
 272 00e6 0346     		mov	r3, r0
 273              	.L13:
  71:../../source/src/kernel/OS_CORE/ipc/MCB.c **** }
 274              		.loc 1 71 0
 275 00e8 1846     		mov	r0, r3
 276 00ea 1037     		adds	r7, r7, #16
 277              	.LCFI20:
 278              		.cfi_def_cfa_offset 8
 279 00ec BD46     		mov	sp, r7
 280              	.LCFI21:
 281              		.cfi_def_cfa_register 13
 282              		@ sp needed
 283 00ee 80BD     		pop	{r7, pc}
 284              	.L16:
 285              		.align	2
 286              	.L15:
 287 00f0 2C000000 		.word	.LC1
 288 00f4 00000000 		.word	g_interrupt_count
 289              		.cfi_endproc
 290              	.LFE23:
 291              		.size	init_MCB, .-init_MCB
 292              		.global	__rtmsym_init_MCB_name
 293              		.section	.rodata.name,"a",%progbits
 294              		.align	2
 295              		.type	__rtmsym_init_MCB_name, %object
 296              		.size	__rtmsym_init_MCB_name, 9
 297              	__rtmsym_init_MCB_name:
 298 0000 696E6974 		.ascii	"init_MCB\000"
 298      5F4D4342 
 298      00
 299              		.global	__rtmsym_init_MCB
 300              		.section	.RTMSymTab,"a",%progbits
 301              		.align	2
 302              		.type	__rtmsym_init_MCB, %object
 303              		.size	__rtmsym_init_MCB, 8
 304              	__rtmsym_init_MCB:
 305 0000 00000000 		.word	init_MCB
 306 0004 00000000 		.word	__rtmsym_init_MCB_name
 307              		.text
 308              		.align	1
 309              		.global	_delete_MCB
 310              		.syntax unified
 311              		.thumb
 312              		.thumb_func
 313              		.fpu softvfp
 314              		.type	_delete_MCB, %function
 315              	_delete_MCB:
 316              	.LFB24:
  72:../../source/src/kernel/OS_CORE/ipc/MCB.c **** EXPORT_SYMBOL(init_MCB);
  73:../../source/src/kernel/OS_CORE/ipc/MCB.c **** 
ARM GAS  G:\Users\Jaxb\AppData\Local\Temp\ccWtL94l.s 			page 8


  74:../../source/src/kernel/OS_CORE/ipc/MCB.c **** int _delete_MCB(MCB *MCB_ptr)
  75:../../source/src/kernel/OS_CORE/ipc/MCB.c **** {
 317              		.loc 1 75 0
 318              		.cfi_startproc
 319              		@ args = 0, pretend = 0, frame = 24
 320              		@ frame_needed = 1, uses_anonymous_args = 0
 321 00f8 80B5     		push	{r7, lr}
 322              	.LCFI22:
 323              		.cfi_def_cfa_offset 8
 324              		.cfi_offset 7, -8
 325              		.cfi_offset 14, -4
 326 00fa 86B0     		sub	sp, sp, #24
 327              	.LCFI23:
 328              		.cfi_def_cfa_offset 32
 329 00fc 00AF     		add	r7, sp, #0
 330              	.LCFI24:
 331              		.cfi_def_cfa_register 7
 332 00fe 7860     		str	r0, [r7, #4]
  76:../../source/src/kernel/OS_CORE/ipc/MCB.c **** 	ASSERT(NULL != MCB_ptr);
 333              		.loc 1 76 0
 334 0100 7B68     		ldr	r3, [r7, #4]
 335 0102 002B     		cmp	r3, #0
 336 0104 03D1     		bne	.L18
 337              		.loc 1 76 0 is_stmt 0 discriminator 1
 338 0106 4C21     		movs	r1, #76
 339 0108 1D48     		ldr	r0, .L25
 340 010a FFF7FEFF 		bl	_ASSERT
 341              	.L18:
  77:../../source/src/kernel/OS_CORE/ipc/MCB.c **** 	TCB *TCB_ptr;
  78:../../source/src/kernel/OS_CORE/ipc/MCB.c **** 	CPU_SR_ALLOC();
 342              		.loc 1 78 0 is_stmt 1
 343 010e 0023     		movs	r3, #0
 344 0110 3B61     		str	r3, [r7, #16]
  79:../../source/src/kernel/OS_CORE/ipc/MCB.c **** 	CPU_CRITICAL_ENTER();/*enter critical*/
 345              		.loc 1 79 0
 346 0112 FFF7FEFF 		bl	CPU_SR_Save
 347 0116 3861     		str	r0, [r7, #16]
  80:../../source/src/kernel/OS_CORE/ipc/MCB.c **** 	struct insert_sort_data *insert_sort_data_ptr = insert_sort_delete_head(&MCB_ptr->MCB_insert_sort_
 348              		.loc 1 80 0
 349 0118 7B68     		ldr	r3, [r7, #4]
 350 011a 1846     		mov	r0, r3
 351 011c FFF7FEFF 		bl	insert_sort_delete_head
 352 0120 7861     		str	r0, [r7, #20]
  81:../../source/src/kernel/OS_CORE/ipc/MCB.c **** 	while(NULL != insert_sort_data_ptr)
 353              		.loc 1 81 0
 354 0122 20E0     		b	.L19
 355              	.L23:
  82:../../source/src/kernel/OS_CORE/ipc/MCB.c **** 	{
  83:../../source/src/kernel/OS_CORE/ipc/MCB.c **** 		TCB_ptr = (TCB *)(insert_sort_data_ptr->data_ptr);
 356              		.loc 1 83 0
 357 0124 7B69     		ldr	r3, [r7, #20]
 358 0126 1B68     		ldr	r3, [r3]
 359 0128 FB60     		str	r3, [r7, #12]
  84:../../source/src/kernel/OS_CORE/ipc/MCB.c **** 		if(STATE_WAIT_MCB_FOREVER == TCB_ptr->task_state)
 360              		.loc 1 84 0
 361 012a FB68     		ldr	r3, [r7, #12]
 362 012c 1B7C     		ldrb	r3, [r3, #16]	@ zero_extendqisi2
ARM GAS  G:\Users\Jaxb\AppData\Local\Temp\ccWtL94l.s 			page 9


 363 012e 042B     		cmp	r3, #4
 364 0130 03D1     		bne	.L20
  85:../../source/src/kernel/OS_CORE/ipc/MCB.c **** 		{
  86:../../source/src/kernel/OS_CORE/ipc/MCB.c **** 			_remove_from_suspend_list(TCB_ptr);
 365              		.loc 1 86 0
 366 0132 F868     		ldr	r0, [r7, #12]
 367 0134 FFF7FEFF 		bl	_remove_from_suspend_list
 368 0138 0AE0     		b	.L21
 369              	.L20:
  87:../../source/src/kernel/OS_CORE/ipc/MCB.c **** 		}
  88:../../source/src/kernel/OS_CORE/ipc/MCB.c **** 		else
  89:../../source/src/kernel/OS_CORE/ipc/MCB.c **** 		{
  90:../../source/src/kernel/OS_CORE/ipc/MCB.c **** 			ASSERT(STATE_WAIT_MCB_TIMEOUT == TCB_ptr->task_state);
 370              		.loc 1 90 0
 371 013a FB68     		ldr	r3, [r7, #12]
 372 013c 1B7C     		ldrb	r3, [r3, #16]	@ zero_extendqisi2
 373 013e 052B     		cmp	r3, #5
 374 0140 03D0     		beq	.L22
 375              		.loc 1 90 0 is_stmt 0 discriminator 1
 376 0142 5A21     		movs	r1, #90
 377 0144 0E48     		ldr	r0, .L25
 378 0146 FFF7FEFF 		bl	_ASSERT
 379              	.L22:
  91:../../source/src/kernel/OS_CORE/ipc/MCB.c **** 			_remove_from_delay_heap(TCB_ptr);
 380              		.loc 1 91 0 is_stmt 1
 381 014a F868     		ldr	r0, [r7, #12]
 382 014c FFF7FEFF 		bl	_remove_from_delay_heap
 383              	.L21:
  92:../../source/src/kernel/OS_CORE/ipc/MCB.c **** 		}
  93:../../source/src/kernel/OS_CORE/ipc/MCB.c **** 		set_bad_state(TCB_ptr);
 384              		.loc 1 93 0
 385 0150 FB68     		ldr	r3, [r7, #12]
 386 0152 9B6B     		ldr	r3, [r3, #56]
 387 0154 43F00202 		orr	r2, r3, #2
 388 0158 FB68     		ldr	r3, [r7, #12]
 389 015a 9A63     		str	r2, [r3, #56]
  94:../../source/src/kernel/OS_CORE/ipc/MCB.c **** 		insert_sort_data_ptr = insert_sort_delete_head(&MCB_ptr->MCB_insert_sort_list);
 390              		.loc 1 94 0
 391 015c 7B68     		ldr	r3, [r7, #4]
 392 015e 1846     		mov	r0, r3
 393 0160 FFF7FEFF 		bl	insert_sort_delete_head
 394 0164 7861     		str	r0, [r7, #20]
 395              	.L19:
  81:../../source/src/kernel/OS_CORE/ipc/MCB.c **** 	{
 396              		.loc 1 81 0
 397 0166 7B69     		ldr	r3, [r7, #20]
 398 0168 002B     		cmp	r3, #0
 399 016a DBD1     		bne	.L23
  95:../../source/src/kernel/OS_CORE/ipc/MCB.c **** 	}
  96:../../source/src/kernel/OS_CORE/ipc/MCB.c **** 	schedule();
 400              		.loc 1 96 0
 401 016c FFF7FEFF 		bl	schedule
  97:../../source/src/kernel/OS_CORE/ipc/MCB.c **** 	CPU_CRITICAL_EXIT();
 402              		.loc 1 97 0
 403 0170 3869     		ldr	r0, [r7, #16]
 404 0172 FFF7FEFF 		bl	CPU_SR_Restore
  98:../../source/src/kernel/OS_CORE/ipc/MCB.c **** 	return FUN_EXECUTE_SUCCESSFULLY;
ARM GAS  G:\Users\Jaxb\AppData\Local\Temp\ccWtL94l.s 			page 10


 405              		.loc 1 98 0
 406 0176 0023     		movs	r3, #0
  99:../../source/src/kernel/OS_CORE/ipc/MCB.c **** }
 407              		.loc 1 99 0
 408 0178 1846     		mov	r0, r3
 409 017a 1837     		adds	r7, r7, #24
 410              	.LCFI25:
 411              		.cfi_def_cfa_offset 8
 412 017c BD46     		mov	sp, r7
 413              	.LCFI26:
 414              		.cfi_def_cfa_register 13
 415              		@ sp needed
 416 017e 80BD     		pop	{r7, pc}
 417              	.L26:
 418              		.align	2
 419              	.L25:
 420 0180 00000000 		.word	.LC0
 421              		.cfi_endproc
 422              	.LFE24:
 423              		.size	_delete_MCB, .-_delete_MCB
 424              		.section	.rodata
 425              		.align	2
 426              	.LC2:
 427 005c 6572726F 		.ascii	"error fun name : delete_MCB\012error para : MCB_ptr"
 427      72206675 
 427      6E206E61 
 427      6D65203A 
 427      2064656C 
 428 008c 0A00     		.ascii	"\012\000"
 429              		.text
 430              		.align	1
 431              		.global	delete_MCB
 432              		.syntax unified
 433              		.thumb
 434              		.thumb_func
 435              		.fpu softvfp
 436              		.type	delete_MCB, %function
 437              	delete_MCB:
 438              	.LFB25:
 100:../../source/src/kernel/OS_CORE/ipc/MCB.c **** 
 101:../../source/src/kernel/OS_CORE/ipc/MCB.c **** int delete_MCB(MCB *MCB_ptr)
 102:../../source/src/kernel/OS_CORE/ipc/MCB.c **** {
 439              		.loc 1 102 0
 440              		.cfi_startproc
 441              		@ args = 0, pretend = 0, frame = 8
 442              		@ frame_needed = 1, uses_anonymous_args = 0
 443 0184 80B5     		push	{r7, lr}
 444              	.LCFI27:
 445              		.cfi_def_cfa_offset 8
 446              		.cfi_offset 7, -8
 447              		.cfi_offset 14, -4
 448 0186 82B0     		sub	sp, sp, #8
 449              	.LCFI28:
 450              		.cfi_def_cfa_offset 16
 451 0188 00AF     		add	r7, sp, #0
 452              	.LCFI29:
 453              		.cfi_def_cfa_register 7
ARM GAS  G:\Users\Jaxb\AppData\Local\Temp\ccWtL94l.s 			page 11


 454 018a 7860     		str	r0, [r7, #4]
 103:../../source/src/kernel/OS_CORE/ipc/MCB.c **** 	if(NULL == MCB_ptr)
 455              		.loc 1 103 0
 456 018c 7B68     		ldr	r3, [r7, #4]
 457 018e 002B     		cmp	r3, #0
 458 0190 05D1     		bne	.L28
 104:../../source/src/kernel/OS_CORE/ipc/MCB.c **** 	{
 105:../../source/src/kernel/OS_CORE/ipc/MCB.c **** 		OS_ERROR_PARA_MESSAGE_DISPLAY(delete_MCB,MCB_ptr);
 459              		.loc 1 105 0
 460 0192 0748     		ldr	r0, .L30
 461 0194 FFF7FEFF 		bl	ka_printf
 106:../../source/src/kernel/OS_CORE/ipc/MCB.c **** 		return -ERROR_NULL_INPUT_PTR;
 462              		.loc 1 106 0
 463 0198 6FF0FE03 		mvn	r3, #254
 464 019c 03E0     		b	.L29
 465              	.L28:
 107:../../source/src/kernel/OS_CORE/ipc/MCB.c **** 	}
 108:../../source/src/kernel/OS_CORE/ipc/MCB.c **** 	return _delete_MCB(MCB_ptr);
 466              		.loc 1 108 0
 467 019e 7868     		ldr	r0, [r7, #4]
 468 01a0 FFF7FEFF 		bl	_delete_MCB
 469 01a4 0346     		mov	r3, r0
 470              	.L29:
 109:../../source/src/kernel/OS_CORE/ipc/MCB.c **** }
 471              		.loc 1 109 0
 472 01a6 1846     		mov	r0, r3
 473 01a8 0837     		adds	r7, r7, #8
 474              	.LCFI30:
 475              		.cfi_def_cfa_offset 8
 476 01aa BD46     		mov	sp, r7
 477              	.LCFI31:
 478              		.cfi_def_cfa_register 13
 479              		@ sp needed
 480 01ac 80BD     		pop	{r7, pc}
 481              	.L31:
 482 01ae 00BF     		.align	2
 483              	.L30:
 484 01b0 5C000000 		.word	.LC2
 485              		.cfi_endproc
 486              	.LFE25:
 487              		.size	delete_MCB, .-delete_MCB
 488              		.global	__rtmsym_delete_MCB_name
 489              		.section	.rodata.name
 490 0009 000000   		.align	2
 491              		.type	__rtmsym_delete_MCB_name, %object
 492              		.size	__rtmsym_delete_MCB_name, 11
 493              	__rtmsym_delete_MCB_name:
 494 000c 64656C65 		.ascii	"delete_MCB\000"
 494      74655F4D 
 494      434200
 495              		.global	__rtmsym_delete_MCB
 496              		.section	.RTMSymTab
 497              		.align	2
 498              		.type	__rtmsym_delete_MCB, %object
 499              		.size	__rtmsym_delete_MCB, 8
 500              	__rtmsym_delete_MCB:
 501 0008 00000000 		.word	delete_MCB
ARM GAS  G:\Users\Jaxb\AppData\Local\Temp\ccWtL94l.s 			page 12


 502 000c 00000000 		.word	__rtmsym_delete_MCB_name
 503              		.text
 504              		.align	1
 505              		.global	_p
 506              		.syntax unified
 507              		.thumb
 508              		.thumb_func
 509              		.fpu softvfp
 510              		.type	_p, %function
 511              	_p:
 512              	.LFB26:
 110:../../source/src/kernel/OS_CORE/ipc/MCB.c **** EXPORT_SYMBOL(delete_MCB);
 111:../../source/src/kernel/OS_CORE/ipc/MCB.c **** 
 112:../../source/src/kernel/OS_CORE/ipc/MCB.c **** int _p(
 113:../../source/src/kernel/OS_CORE/ipc/MCB.c **** 	MCB *MCB_ptr,
 114:../../source/src/kernel/OS_CORE/ipc/MCB.c **** 	MCB_WAIT_FLAG flag,
 115:../../source/src/kernel/OS_CORE/ipc/MCB.c **** 	unsigned int time
 116:../../source/src/kernel/OS_CORE/ipc/MCB.c **** )
 117:../../source/src/kernel/OS_CORE/ipc/MCB.c **** {
 513              		.loc 1 117 0
 514              		.cfi_startproc
 515              		@ args = 0, pretend = 0, frame = 56
 516              		@ frame_needed = 1, uses_anonymous_args = 0
 517 01b4 2DE9F048 		push	{r4, r5, r6, r7, fp, lr}
 518              	.LCFI32:
 519              		.cfi_def_cfa_offset 24
 520              		.cfi_offset 4, -24
 521              		.cfi_offset 5, -20
 522              		.cfi_offset 6, -16
 523              		.cfi_offset 7, -12
 524              		.cfi_offset 11, -8
 525              		.cfi_offset 14, -4
 526 01b8 8EB0     		sub	sp, sp, #56
 527              	.LCFI33:
 528              		.cfi_def_cfa_offset 80
 529 01ba 00AF     		add	r7, sp, #0
 530              	.LCFI34:
 531              		.cfi_def_cfa_register 7
 532 01bc F860     		str	r0, [r7, #12]
 533 01be 0B46     		mov	r3, r1
 534 01c0 7A60     		str	r2, [r7, #4]
 535 01c2 FB72     		strb	r3, [r7, #11]
 118:../../source/src/kernel/OS_CORE/ipc/MCB.c **** 	ASSERT(NULL != MCB_ptr);
 536              		.loc 1 118 0
 537 01c4 FB68     		ldr	r3, [r7, #12]
 538 01c6 002B     		cmp	r3, #0
 539 01c8 03D1     		bne	.L33
 540              		.loc 1 118 0 is_stmt 0 discriminator 1
 541 01ca 7621     		movs	r1, #118
 542 01cc 4C48     		ldr	r0, .L42
 543 01ce FFF7FEFF 		bl	_ASSERT
 544              	.L33:
 119:../../source/src/kernel/OS_CORE/ipc/MCB.c **** 	CPU_SR_ALLOC();
 545              		.loc 1 119 0 is_stmt 1
 546 01d2 0023     		movs	r3, #0
 547 01d4 7B63     		str	r3, [r7, #52]
 120:../../source/src/kernel/OS_CORE/ipc/MCB.c **** 	CPU_CRITICAL_ENTER();/*enter critical*/
ARM GAS  G:\Users\Jaxb\AppData\Local\Temp\ccWtL94l.s 			page 13


 548              		.loc 1 120 0
 549 01d6 FFF7FEFF 		bl	CPU_SR_Save
 550 01da 7863     		str	r0, [r7, #52]
 121:../../source/src/kernel/OS_CORE/ipc/MCB.c **** 	
 122:../../source/src/kernel/OS_CORE/ipc/MCB.c **** 	if (g_interrupt_count > 0)
 551              		.loc 1 122 0
 552 01dc 494B     		ldr	r3, .L42+4
 553 01de 1B68     		ldr	r3, [r3]
 554 01e0 002B     		cmp	r3, #0
 555 01e2 05DD     		ble	.L34
 123:../../source/src/kernel/OS_CORE/ipc/MCB.c **** 	{
 124:../../source/src/kernel/OS_CORE/ipc/MCB.c **** 		CPU_CRITICAL_EXIT();
 556              		.loc 1 124 0
 557 01e4 786B     		ldr	r0, [r7, #52]
 558 01e6 FFF7FEFF 		bl	CPU_SR_Restore
 125:../../source/src/kernel/OS_CORE/ipc/MCB.c **** 		return -ERROR_FUN_USE_IN_INTER;
 559              		.loc 1 125 0
 560 01ea 6FF0FC03 		mvn	r3, #252
 561 01ee 81E0     		b	.L41
 562              	.L34:
 126:../../source/src/kernel/OS_CORE/ipc/MCB.c **** 	}
 127:../../source/src/kernel/OS_CORE/ipc/MCB.c **** 
 128:../../source/src/kernel/OS_CORE/ipc/MCB.c **** 	if((flag ==  MCB_FLAG_NON_BLOCKING) && (MCB_ptr->resource_num <= 0))
 563              		.loc 1 128 0
 564 01f0 FB7A     		ldrb	r3, [r7, #11]	@ zero_extendqisi2
 565 01f2 012B     		cmp	r3, #1
 566 01f4 09D1     		bne	.L36
 567              		.loc 1 128 0 is_stmt 0 discriminator 1
 568 01f6 FB68     		ldr	r3, [r7, #12]
 569 01f8 9B69     		ldr	r3, [r3, #24]
 570 01fa 002B     		cmp	r3, #0
 571 01fc 05DC     		bgt	.L36
 129:../../source/src/kernel/OS_CORE/ipc/MCB.c **** 	{
 130:../../source/src/kernel/OS_CORE/ipc/MCB.c **** 		CPU_CRITICAL_EXIT();
 572              		.loc 1 130 0 is_stmt 1
 573 01fe 786B     		ldr	r0, [r7, #52]
 574 0200 FFF7FEFF 		bl	CPU_SR_Restore
 131:../../source/src/kernel/OS_CORE/ipc/MCB.c **** 		return -MCB_OUT_OF_RESOURCE;
 575              		.loc 1 131 0
 576 0204 4FF0FF33 		mov	r3, #-1
 577 0208 74E0     		b	.L41
 578              	.L36:
 132:../../source/src/kernel/OS_CORE/ipc/MCB.c **** 	}
 133:../../source/src/kernel/OS_CORE/ipc/MCB.c **** 
 134:../../source/src/kernel/OS_CORE/ipc/MCB.c **** 	--(MCB_ptr->resource_num);
 579              		.loc 1 134 0
 580 020a FB68     		ldr	r3, [r7, #12]
 581 020c 9B69     		ldr	r3, [r3, #24]
 582 020e 5A1E     		subs	r2, r3, #1
 583 0210 FB68     		ldr	r3, [r7, #12]
 584 0212 9A61     		str	r2, [r3, #24]
 135:../../source/src/kernel/OS_CORE/ipc/MCB.c **** 	if(MCB_ptr->resource_num >= 0)
 585              		.loc 1 135 0
 586 0214 FB68     		ldr	r3, [r7, #12]
 587 0216 9B69     		ldr	r3, [r3, #24]
 588 0218 002B     		cmp	r3, #0
 589 021a 04DB     		blt	.L37
ARM GAS  G:\Users\Jaxb\AppData\Local\Temp\ccWtL94l.s 			page 14


 136:../../source/src/kernel/OS_CORE/ipc/MCB.c **** 	{
 137:../../source/src/kernel/OS_CORE/ipc/MCB.c **** 		CPU_CRITICAL_EXIT();
 590              		.loc 1 137 0
 591 021c 786B     		ldr	r0, [r7, #52]
 592 021e FFF7FEFF 		bl	CPU_SR_Restore
 138:../../source/src/kernel/OS_CORE/ipc/MCB.c **** 		return FUN_EXECUTE_SUCCESSFULLY;
 593              		.loc 1 138 0
 594 0222 0023     		movs	r3, #0
 595 0224 66E0     		b	.L41
 596              	.L37:
 139:../../source/src/kernel/OS_CORE/ipc/MCB.c **** 	}
 140:../../source/src/kernel/OS_CORE/ipc/MCB.c **** 
 141:../../source/src/kernel/OS_CORE/ipc/MCB.c **** /*the following program is used to deal with FLAG_WAIT && MCB_OUT_OF_RESOURCE*/
 142:../../source/src/kernel/OS_CORE/ipc/MCB.c **** 	DECLEAR_INSERT_SORT_DATA(data);
 143:../../source/src/kernel/OS_CORE/ipc/MCB.c **** 	init_insert_sort_data(&data,OSTCBCurPtr);
 597              		.loc 1 143 0
 598 0226 384B     		ldr	r3, .L42+8
 599 0228 1A68     		ldr	r2, [r3]
 600 022a 07F11003 		add	r3, r7, #16
 601 022e 1146     		mov	r1, r2
 602 0230 1846     		mov	r0, r3
 603 0232 FFF7FEFF 		bl	init_insert_sort_data
 144:../../source/src/kernel/OS_CORE/ipc/MCB.c **** 	insert_sort_insert_into(&data,&MCB_ptr->MCB_insert_sort_list);
 604              		.loc 1 144 0
 605 0236 FA68     		ldr	r2, [r7, #12]
 606 0238 07F11003 		add	r3, r7, #16
 607 023c 1146     		mov	r1, r2
 608 023e 1846     		mov	r0, r3
 609 0240 FFF7FEFF 		bl	insert_sort_insert_into
 145:../../source/src/kernel/OS_CORE/ipc/MCB.c **** 	if(time == 0)/*0 represent forever*/
 610              		.loc 1 145 0
 611 0244 7B68     		ldr	r3, [r7, #4]
 612 0246 002B     		cmp	r3, #0
 613 0248 09D1     		bne	.L38
 146:../../source/src/kernel/OS_CORE/ipc/MCB.c **** 	{
 147:../../source/src/kernel/OS_CORE/ipc/MCB.c **** 		CPU_CRITICAL_EXIT(); //exit  critical
 614              		.loc 1 147 0
 615 024a 786B     		ldr	r0, [r7, #52]
 616 024c FFF7FEFF 		bl	CPU_SR_Restore
 148:../../source/src/kernel/OS_CORE/ipc/MCB.c **** 		sys_suspend(STATE_WAIT_MCB_FOREVER);
 617              		.loc 1 148 0
 618 0250 0420     		movs	r0, #4
 619 0252 FFF7FEFF 		bl	sys_suspend
 149:../../source/src/kernel/OS_CORE/ipc/MCB.c **** 		/*go back here=========go back here*/
 150:../../source/src/kernel/OS_CORE/ipc/MCB.c **** 		CPU_CRITICAL_ENTER();/*enter critical*/
 620              		.loc 1 150 0
 621 0256 FFF7FEFF 		bl	CPU_SR_Save
 622 025a 7863     		str	r0, [r7, #52]
 623 025c 31E0     		b	.L39
 624              	.L38:
 625              	.LBB2:
 151:../../source/src/kernel/OS_CORE/ipc/MCB.c **** 	}
 152:../../source/src/kernel/OS_CORE/ipc/MCB.c **** 	else
 153:../../source/src/kernel/OS_CORE/ipc/MCB.c **** 	{
 154:../../source/src/kernel/OS_CORE/ipc/MCB.c **** 		UINT64 time_record = _get_tick();
 626              		.loc 1 154 0
 627 025e FFF7FEFF 		bl	_get_tick
ARM GAS  G:\Users\Jaxb\AppData\Local\Temp\ccWtL94l.s 			page 15


 628 0262 C7E90A01 		strd	r0, [r7, #40]
 155:../../source/src/kernel/OS_CORE/ipc/MCB.c **** 		CPU_CRITICAL_EXIT(); /*exit  critical*/
 629              		.loc 1 155 0
 630 0266 786B     		ldr	r0, [r7, #52]
 631 0268 FFF7FEFF 		bl	CPU_SR_Restore
 156:../../source/src/kernel/OS_CORE/ipc/MCB.c **** 		sys_delay(time,STATE_WAIT_MCB_TIMEOUT);
 632              		.loc 1 156 0
 633 026c 0521     		movs	r1, #5
 634 026e 7868     		ldr	r0, [r7, #4]
 635 0270 FFF7FEFF 		bl	sys_delay
 157:../../source/src/kernel/OS_CORE/ipc/MCB.c **** 		/*go back here=========go back here*/
 158:../../source/src/kernel/OS_CORE/ipc/MCB.c **** 		CPU_CRITICAL_ENTER();/*enter critical*/
 636              		.loc 1 158 0
 637 0274 FFF7FEFF 		bl	CPU_SR_Save
 638 0278 7863     		str	r0, [r7, #52]
 159:../../source/src/kernel/OS_CORE/ipc/MCB.c **** 		if(_get_tick() >= (time_record + time))/*prove that timeout happened*/
 639              		.loc 1 159 0
 640 027a FFF7FEFF 		bl	_get_tick
 641 027e 0546     		mov	r5, r0
 642 0280 0E46     		mov	r6, r1
 643 0282 7B68     		ldr	r3, [r7, #4]
 644 0284 1946     		mov	r1, r3
 645 0286 4FF00002 		mov	r2, #0
 646 028a D7E90A34 		ldrd	r3, [r7, #40]
 647 028e 13EB010B 		adds	fp, r3, r1
 648 0292 44EB020C 		adc	ip, r4, r2
 649 0296 6645     		cmp	r6, ip
 650 0298 08BF     		it	eq
 651 029a 5D45     		cmpeq	r5, fp
 652 029c 11D3     		bcc	.L39
 160:../../source/src/kernel/OS_CORE/ipc/MCB.c **** 		{
 161:../../source/src/kernel/OS_CORE/ipc/MCB.c **** 			++(MCB_ptr->resource_num);
 653              		.loc 1 161 0
 654 029e FB68     		ldr	r3, [r7, #12]
 655 02a0 9B69     		ldr	r3, [r3, #24]
 656 02a2 5A1C     		adds	r2, r3, #1
 657 02a4 FB68     		ldr	r3, [r7, #12]
 658 02a6 9A61     		str	r2, [r3, #24]
 162:../../source/src/kernel/OS_CORE/ipc/MCB.c **** 			insert_sort_delete_data(&MCB_ptr->MCB_insert_sort_list,OSTCBCurPtr);
 659              		.loc 1 162 0
 660 02a8 FA68     		ldr	r2, [r7, #12]
 661 02aa 174B     		ldr	r3, .L42+8
 662 02ac 1B68     		ldr	r3, [r3]
 663 02ae 1946     		mov	r1, r3
 664 02b0 1046     		mov	r0, r2
 665 02b2 FFF7FEFF 		bl	insert_sort_delete_data
 163:../../source/src/kernel/OS_CORE/ipc/MCB.c **** 			CPU_CRITICAL_EXIT(); /*exit  critical*/
 666              		.loc 1 163 0
 667 02b6 786B     		ldr	r0, [r7, #52]
 668 02b8 FFF7FEFF 		bl	CPU_SR_Restore
 164:../../source/src/kernel/OS_CORE/ipc/MCB.c **** 			return -MCB_OUT_OF_TIME;
 669              		.loc 1 164 0
 670 02bc 6FF00103 		mvn	r3, #1
 671 02c0 18E0     		b	.L41
 672              	.L39:
 673              	.LBE2:
 165:../../source/src/kernel/OS_CORE/ipc/MCB.c **** 		}
ARM GAS  G:\Users\Jaxb\AppData\Local\Temp\ccWtL94l.s 			page 16


 166:../../source/src/kernel/OS_CORE/ipc/MCB.c **** 	}
 167:../../source/src/kernel/OS_CORE/ipc/MCB.c **** 	if(TCB_state_is_bad(OSTCBCurPtr))
 674              		.loc 1 167 0
 675 02c2 114B     		ldr	r3, .L42+8
 676 02c4 1B68     		ldr	r3, [r3]
 677 02c6 9B6B     		ldr	r3, [r3, #56]
 678 02c8 03F00203 		and	r3, r3, #2
 679 02cc 002B     		cmp	r3, #0
 680 02ce 0DD0     		beq	.L40
 168:../../source/src/kernel/OS_CORE/ipc/MCB.c **** 	{
 169:../../source/src/kernel/OS_CORE/ipc/MCB.c **** 		clear_bad_state(OSTCBCurPtr);
 681              		.loc 1 169 0
 682 02d0 0D4B     		ldr	r3, .L42+8
 683 02d2 1B68     		ldr	r3, [r3]
 684 02d4 9A6B     		ldr	r2, [r3, #56]
 685 02d6 0C4B     		ldr	r3, .L42+8
 686 02d8 1B68     		ldr	r3, [r3]
 687 02da 22F00202 		bic	r2, r2, #2
 688 02de 9A63     		str	r2, [r3, #56]
 170:../../source/src/kernel/OS_CORE/ipc/MCB.c **** 		CPU_CRITICAL_EXIT(); /*exit  critical*/
 689              		.loc 1 170 0
 690 02e0 786B     		ldr	r0, [r7, #52]
 691 02e2 FFF7FEFF 		bl	CPU_SR_Restore
 171:../../source/src/kernel/OS_CORE/ipc/MCB.c **** 		return -ERROR_MODULE_DELETED;
 692              		.loc 1 171 0
 693 02e6 6FF0F903 		mvn	r3, #249
 694 02ea 03E0     		b	.L41
 695              	.L40:
 172:../../source/src/kernel/OS_CORE/ipc/MCB.c **** 	}
 173:../../source/src/kernel/OS_CORE/ipc/MCB.c **** 	CPU_CRITICAL_EXIT(); /*exit  critical*/
 696              		.loc 1 173 0
 697 02ec 786B     		ldr	r0, [r7, #52]
 698 02ee FFF7FEFF 		bl	CPU_SR_Restore
 174:../../source/src/kernel/OS_CORE/ipc/MCB.c **** 	return FUN_EXECUTE_SUCCESSFULLY;
 699              		.loc 1 174 0
 700 02f2 0023     		movs	r3, #0
 701              	.L41:
 175:../../source/src/kernel/OS_CORE/ipc/MCB.c **** }
 702              		.loc 1 175 0 discriminator 1
 703 02f4 1846     		mov	r0, r3
 704 02f6 3837     		adds	r7, r7, #56
 705              	.LCFI35:
 706              		.cfi_def_cfa_offset 24
 707 02f8 BD46     		mov	sp, r7
 708              	.LCFI36:
 709              		.cfi_def_cfa_register 13
 710              		@ sp needed
 711 02fa BDE8F088 		pop	{r4, r5, r6, r7, fp, pc}
 712              	.L43:
 713 02fe 00BF     		.align	2
 714              	.L42:
 715 0300 00000000 		.word	.LC0
 716 0304 00000000 		.word	g_interrupt_count
 717 0308 00000000 		.word	OSTCBCurPtr
 718              		.cfi_endproc
 719              	.LFE26:
 720              		.size	_p, .-_p
ARM GAS  G:\Users\Jaxb\AppData\Local\Temp\ccWtL94l.s 			page 17


 721              		.section	.rodata
 722 008e 0000     		.align	2
 723              	.LC3:
 724 0090 6572726F 		.ascii	"error fun name : p\012error para : MCB_ptr\012\000"
 724      72206675 
 724      6E206E61 
 724      6D65203A 
 724      20700A65 
 725              		.text
 726              		.align	1
 727              		.global	p
 728              		.syntax unified
 729              		.thumb
 730              		.thumb_func
 731              		.fpu softvfp
 732              		.type	p, %function
 733              	p:
 734              	.LFB27:
 176:../../source/src/kernel/OS_CORE/ipc/MCB.c **** 
 177:../../source/src/kernel/OS_CORE/ipc/MCB.c **** int p(
 178:../../source/src/kernel/OS_CORE/ipc/MCB.c **** 	MCB *MCB_ptr,
 179:../../source/src/kernel/OS_CORE/ipc/MCB.c **** 	MCB_WAIT_FLAG flag,
 180:../../source/src/kernel/OS_CORE/ipc/MCB.c **** 	unsigned int time)
 181:../../source/src/kernel/OS_CORE/ipc/MCB.c **** {
 735              		.loc 1 181 0
 736              		.cfi_startproc
 737              		@ args = 0, pretend = 0, frame = 16
 738              		@ frame_needed = 1, uses_anonymous_args = 0
 739 030c 80B5     		push	{r7, lr}
 740              	.LCFI37:
 741              		.cfi_def_cfa_offset 8
 742              		.cfi_offset 7, -8
 743              		.cfi_offset 14, -4
 744 030e 84B0     		sub	sp, sp, #16
 745              	.LCFI38:
 746              		.cfi_def_cfa_offset 24
 747 0310 00AF     		add	r7, sp, #0
 748              	.LCFI39:
 749              		.cfi_def_cfa_register 7
 750 0312 F860     		str	r0, [r7, #12]
 751 0314 0B46     		mov	r3, r1
 752 0316 7A60     		str	r2, [r7, #4]
 753 0318 FB72     		strb	r3, [r7, #11]
 182:../../source/src/kernel/OS_CORE/ipc/MCB.c **** 	if(NULL == MCB_ptr)
 754              		.loc 1 182 0
 755 031a FB68     		ldr	r3, [r7, #12]
 756 031c 002B     		cmp	r3, #0
 757 031e 05D1     		bne	.L45
 183:../../source/src/kernel/OS_CORE/ipc/MCB.c **** 	{
 184:../../source/src/kernel/OS_CORE/ipc/MCB.c **** 		OS_ERROR_PARA_MESSAGE_DISPLAY(p,MCB_ptr);
 758              		.loc 1 184 0
 759 0320 0848     		ldr	r0, .L47
 760 0322 FFF7FEFF 		bl	ka_printf
 185:../../source/src/kernel/OS_CORE/ipc/MCB.c **** 		return -ERROR_NULL_INPUT_PTR;
 761              		.loc 1 185 0
 762 0326 6FF0FE03 		mvn	r3, #254
 763 032a 06E0     		b	.L46
ARM GAS  G:\Users\Jaxb\AppData\Local\Temp\ccWtL94l.s 			page 18


 764              	.L45:
 186:../../source/src/kernel/OS_CORE/ipc/MCB.c **** 	}
 187:../../source/src/kernel/OS_CORE/ipc/MCB.c **** 	return _p(MCB_ptr,flag,time);
 765              		.loc 1 187 0
 766 032c FB7A     		ldrb	r3, [r7, #11]	@ zero_extendqisi2
 767 032e 7A68     		ldr	r2, [r7, #4]
 768 0330 1946     		mov	r1, r3
 769 0332 F868     		ldr	r0, [r7, #12]
 770 0334 FFF7FEFF 		bl	_p
 771 0338 0346     		mov	r3, r0
 772              	.L46:
 188:../../source/src/kernel/OS_CORE/ipc/MCB.c **** }
 773              		.loc 1 188 0
 774 033a 1846     		mov	r0, r3
 775 033c 1037     		adds	r7, r7, #16
 776              	.LCFI40:
 777              		.cfi_def_cfa_offset 8
 778 033e BD46     		mov	sp, r7
 779              	.LCFI41:
 780              		.cfi_def_cfa_register 13
 781              		@ sp needed
 782 0340 80BD     		pop	{r7, pc}
 783              	.L48:
 784 0342 00BF     		.align	2
 785              	.L47:
 786 0344 90000000 		.word	.LC3
 787              		.cfi_endproc
 788              	.LFE27:
 789              		.size	p, .-p
 790              		.global	__rtmsym_p_name
 791              		.section	.rodata.name
 792 0017 00       		.align	2
 793              		.type	__rtmsym_p_name, %object
 794              		.size	__rtmsym_p_name, 2
 795              	__rtmsym_p_name:
 796 0018 7000     		.ascii	"p\000"
 797              		.global	__rtmsym_p
 798              		.section	.RTMSymTab
 799              		.align	2
 800              		.type	__rtmsym_p, %object
 801              		.size	__rtmsym_p, 8
 802              	__rtmsym_p:
 803 0010 00000000 		.word	p
 804 0014 00000000 		.word	__rtmsym_p_name
 805              		.text
 806              		.align	1
 807              		.global	_v
 808              		.syntax unified
 809              		.thumb
 810              		.thumb_func
 811              		.fpu softvfp
 812              		.type	_v, %function
 813              	_v:
 814              	.LFB28:
 189:../../source/src/kernel/OS_CORE/ipc/MCB.c **** EXPORT_SYMBOL(p);
 190:../../source/src/kernel/OS_CORE/ipc/MCB.c **** 
 191:../../source/src/kernel/OS_CORE/ipc/MCB.c **** int _v(MCB *MCB_ptr)
ARM GAS  G:\Users\Jaxb\AppData\Local\Temp\ccWtL94l.s 			page 19


 192:../../source/src/kernel/OS_CORE/ipc/MCB.c **** {
 815              		.loc 1 192 0
 816              		.cfi_startproc
 817              		@ args = 0, pretend = 0, frame = 16
 818              		@ frame_needed = 1, uses_anonymous_args = 0
 819 0348 80B5     		push	{r7, lr}
 820              	.LCFI42:
 821              		.cfi_def_cfa_offset 8
 822              		.cfi_offset 7, -8
 823              		.cfi_offset 14, -4
 824 034a 84B0     		sub	sp, sp, #16
 825              	.LCFI43:
 826              		.cfi_def_cfa_offset 24
 827 034c 00AF     		add	r7, sp, #0
 828              	.LCFI44:
 829              		.cfi_def_cfa_register 7
 830 034e 7860     		str	r0, [r7, #4]
 193:../../source/src/kernel/OS_CORE/ipc/MCB.c **** 	ASSERT(NULL != MCB_ptr);
 831              		.loc 1 193 0
 832 0350 7B68     		ldr	r3, [r7, #4]
 833 0352 002B     		cmp	r3, #0
 834 0354 03D1     		bne	.L50
 835              		.loc 1 193 0 is_stmt 0 discriminator 1
 836 0356 C121     		movs	r1, #193
 837 0358 2248     		ldr	r0, .L57
 838 035a FFF7FEFF 		bl	_ASSERT
 839              	.L50:
 194:../../source/src/kernel/OS_CORE/ipc/MCB.c **** 	CPU_SR_ALLOC();
 840              		.loc 1 194 0 is_stmt 1
 841 035e 0023     		movs	r3, #0
 842 0360 FB60     		str	r3, [r7, #12]
 195:../../source/src/kernel/OS_CORE/ipc/MCB.c **** 	CPU_CRITICAL_ENTER();/*enter critical*/
 843              		.loc 1 195 0
 844 0362 FFF7FEFF 		bl	CPU_SR_Save
 845 0366 F860     		str	r0, [r7, #12]
 196:../../source/src/kernel/OS_CORE/ipc/MCB.c **** 	if((++(MCB_ptr->resource_num) > 1) && MCB_type_is_binary(MCB_ptr))
 846              		.loc 1 196 0
 847 0368 7B68     		ldr	r3, [r7, #4]
 848 036a 9B69     		ldr	r3, [r3, #24]
 849 036c 5A1C     		adds	r2, r3, #1
 850 036e 7B68     		ldr	r3, [r7, #4]
 851 0370 9A61     		str	r2, [r3, #24]
 852 0372 7B68     		ldr	r3, [r7, #4]
 853 0374 9B69     		ldr	r3, [r3, #24]
 854 0376 012B     		cmp	r3, #1
 855 0378 10DD     		ble	.L51
 856              		.loc 1 196 0 is_stmt 0 discriminator 1
 857 037a 7B68     		ldr	r3, [r7, #4]
 858 037c DB69     		ldr	r3, [r3, #28]
 859 037e 03F00103 		and	r3, r3, #1
 860 0382 002B     		cmp	r3, #0
 861 0384 0AD0     		beq	.L51
 197:../../source/src/kernel/OS_CORE/ipc/MCB.c **** 	{
 198:../../source/src/kernel/OS_CORE/ipc/MCB.c **** 		ASSERT(2 == MCB_ptr->resource_num);
 862              		.loc 1 198 0 is_stmt 1
 863 0386 7B68     		ldr	r3, [r7, #4]
 864 0388 9B69     		ldr	r3, [r3, #24]
ARM GAS  G:\Users\Jaxb\AppData\Local\Temp\ccWtL94l.s 			page 20


 865 038a 022B     		cmp	r3, #2
 866 038c 03D0     		beq	.L52
 867              		.loc 1 198 0 is_stmt 0 discriminator 1
 868 038e C621     		movs	r1, #198
 869 0390 1448     		ldr	r0, .L57
 870 0392 FFF7FEFF 		bl	_ASSERT
 871              	.L52:
 199:../../source/src/kernel/OS_CORE/ipc/MCB.c **** 		MCB_ptr->resource_num = 1;
 872              		.loc 1 199 0 is_stmt 1
 873 0396 7B68     		ldr	r3, [r7, #4]
 874 0398 0122     		movs	r2, #1
 875 039a 9A61     		str	r2, [r3, #24]
 876              	.L51:
 200:../../source/src/kernel/OS_CORE/ipc/MCB.c **** 	}
 201:../../source/src/kernel/OS_CORE/ipc/MCB.c **** 	if(MCB_ptr->resource_num <= 0)
 877              		.loc 1 201 0
 878 039c 7B68     		ldr	r3, [r7, #4]
 879 039e 9B69     		ldr	r3, [r3, #24]
 880 03a0 002B     		cmp	r3, #0
 881 03a2 17DC     		bgt	.L53
 882              	.LBB3:
 202:../../source/src/kernel/OS_CORE/ipc/MCB.c **** 	{
 203:../../source/src/kernel/OS_CORE/ipc/MCB.c **** 		TCB *TCB_ptr = (TCB *)(insert_sort_delete_head(&MCB_ptr->MCB_insert_sort_list))->data_ptr;
 883              		.loc 1 203 0
 884 03a4 7B68     		ldr	r3, [r7, #4]
 885 03a6 1846     		mov	r0, r3
 886 03a8 FFF7FEFF 		bl	insert_sort_delete_head
 887 03ac 0346     		mov	r3, r0
 888 03ae 1B68     		ldr	r3, [r3]
 889 03b0 BB60     		str	r3, [r7, #8]
 204:../../source/src/kernel/OS_CORE/ipc/MCB.c **** 		
 205:../../source/src/kernel/OS_CORE/ipc/MCB.c **** 		if(STATE_WAIT_MCB_FOREVER == TCB_ptr->task_state)
 890              		.loc 1 205 0
 891 03b2 BB68     		ldr	r3, [r7, #8]
 892 03b4 1B7C     		ldrb	r3, [r3, #16]	@ zero_extendqisi2
 893 03b6 042B     		cmp	r3, #4
 894 03b8 03D1     		bne	.L54
 206:../../source/src/kernel/OS_CORE/ipc/MCB.c **** 			_remove_from_suspend_list(TCB_ptr);
 895              		.loc 1 206 0
 896 03ba B868     		ldr	r0, [r7, #8]
 897 03bc FFF7FEFF 		bl	_remove_from_suspend_list
 898 03c0 06E0     		b	.L55
 899              	.L54:
 207:../../source/src/kernel/OS_CORE/ipc/MCB.c **** 		else if(STATE_WAIT_MCB_TIMEOUT == TCB_ptr->task_state)/*STATE_WAIT_MESSAGE_TIMEOUT*/
 900              		.loc 1 207 0
 901 03c2 BB68     		ldr	r3, [r7, #8]
 902 03c4 1B7C     		ldrb	r3, [r3, #16]	@ zero_extendqisi2
 903 03c6 052B     		cmp	r3, #5
 904 03c8 02D1     		bne	.L55
 208:../../source/src/kernel/OS_CORE/ipc/MCB.c **** 			_remove_from_delay_heap(TCB_ptr);
 905              		.loc 1 208 0
 906 03ca B868     		ldr	r0, [r7, #8]
 907 03cc FFF7FEFF 		bl	_remove_from_delay_heap
 908              	.L55:
 209:../../source/src/kernel/OS_CORE/ipc/MCB.c **** 		schedule();
 909              		.loc 1 209 0
 910 03d0 FFF7FEFF 		bl	schedule
ARM GAS  G:\Users\Jaxb\AppData\Local\Temp\ccWtL94l.s 			page 21


 911              	.L53:
 912              	.LBE3:
 210:../../source/src/kernel/OS_CORE/ipc/MCB.c **** 	}
 211:../../source/src/kernel/OS_CORE/ipc/MCB.c **** 	CPU_CRITICAL_EXIT(); /*exit  critical*/
 913              		.loc 1 211 0
 914 03d4 F868     		ldr	r0, [r7, #12]
 915 03d6 FFF7FEFF 		bl	CPU_SR_Restore
 212:../../source/src/kernel/OS_CORE/ipc/MCB.c **** 	return FUN_EXECUTE_SUCCESSFULLY;
 916              		.loc 1 212 0
 917 03da 0023     		movs	r3, #0
 213:../../source/src/kernel/OS_CORE/ipc/MCB.c **** }
 918              		.loc 1 213 0
 919 03dc 1846     		mov	r0, r3
 920 03de 1037     		adds	r7, r7, #16
 921              	.LCFI45:
 922              		.cfi_def_cfa_offset 8
 923 03e0 BD46     		mov	sp, r7
 924              	.LCFI46:
 925              		.cfi_def_cfa_register 13
 926              		@ sp needed
 927 03e2 80BD     		pop	{r7, pc}
 928              	.L58:
 929              		.align	2
 930              	.L57:
 931 03e4 00000000 		.word	.LC0
 932              		.cfi_endproc
 933              	.LFE28:
 934              		.size	_v, .-_v
 935              		.section	.rodata
 936 00b9 000000   		.align	2
 937              	.LC4:
 938 00bc 6572726F 		.ascii	"error fun name : v\012error para : MCB_ptr\012\000"
 938      72206675 
 938      6E206E61 
 938      6D65203A 
 938      20760A65 
 939              		.text
 940              		.align	1
 941              		.global	v
 942              		.syntax unified
 943              		.thumb
 944              		.thumb_func
 945              		.fpu softvfp
 946              		.type	v, %function
 947              	v:
 948              	.LFB29:
 214:../../source/src/kernel/OS_CORE/ipc/MCB.c **** 
 215:../../source/src/kernel/OS_CORE/ipc/MCB.c **** int v(MCB *MCB_ptr)
 216:../../source/src/kernel/OS_CORE/ipc/MCB.c **** {
 949              		.loc 1 216 0
 950              		.cfi_startproc
 951              		@ args = 0, pretend = 0, frame = 8
 952              		@ frame_needed = 1, uses_anonymous_args = 0
 953 03e8 80B5     		push	{r7, lr}
 954              	.LCFI47:
 955              		.cfi_def_cfa_offset 8
 956              		.cfi_offset 7, -8
ARM GAS  G:\Users\Jaxb\AppData\Local\Temp\ccWtL94l.s 			page 22


 957              		.cfi_offset 14, -4
 958 03ea 82B0     		sub	sp, sp, #8
 959              	.LCFI48:
 960              		.cfi_def_cfa_offset 16
 961 03ec 00AF     		add	r7, sp, #0
 962              	.LCFI49:
 963              		.cfi_def_cfa_register 7
 964 03ee 7860     		str	r0, [r7, #4]
 217:../../source/src/kernel/OS_CORE/ipc/MCB.c **** 	if(NULL == MCB_ptr)
 965              		.loc 1 217 0
 966 03f0 7B68     		ldr	r3, [r7, #4]
 967 03f2 002B     		cmp	r3, #0
 968 03f4 05D1     		bne	.L60
 218:../../source/src/kernel/OS_CORE/ipc/MCB.c **** 	{
 219:../../source/src/kernel/OS_CORE/ipc/MCB.c **** 		OS_ERROR_PARA_MESSAGE_DISPLAY(v,MCB_ptr);
 969              		.loc 1 219 0
 970 03f6 0748     		ldr	r0, .L62
 971 03f8 FFF7FEFF 		bl	ka_printf
 220:../../source/src/kernel/OS_CORE/ipc/MCB.c **** 		return -ERROR_NULL_INPUT_PTR;
 972              		.loc 1 220 0
 973 03fc 6FF0FE03 		mvn	r3, #254
 974 0400 03E0     		b	.L61
 975              	.L60:
 221:../../source/src/kernel/OS_CORE/ipc/MCB.c **** 	}
 222:../../source/src/kernel/OS_CORE/ipc/MCB.c ****   	return _v(MCB_ptr);
 976              		.loc 1 222 0
 977 0402 7868     		ldr	r0, [r7, #4]
 978 0404 FFF7FEFF 		bl	_v
 979 0408 0346     		mov	r3, r0
 980              	.L61:
 223:../../source/src/kernel/OS_CORE/ipc/MCB.c **** }
 981              		.loc 1 223 0
 982 040a 1846     		mov	r0, r3
 983 040c 0837     		adds	r7, r7, #8
 984              	.LCFI50:
 985              		.cfi_def_cfa_offset 8
 986 040e BD46     		mov	sp, r7
 987              	.LCFI51:
 988              		.cfi_def_cfa_register 13
 989              		@ sp needed
 990 0410 80BD     		pop	{r7, pc}
 991              	.L63:
 992 0412 00BF     		.align	2
 993              	.L62:
 994 0414 BC000000 		.word	.LC4
 995              		.cfi_endproc
 996              	.LFE29:
 997              		.size	v, .-v
 998              		.global	__rtmsym_v_name
 999              		.section	.rodata.name
 1000 001a 0000     		.align	2
 1001              		.type	__rtmsym_v_name, %object
 1002              		.size	__rtmsym_v_name, 2
 1003              	__rtmsym_v_name:
 1004 001c 7600     		.ascii	"v\000"
 1005              		.global	__rtmsym_v
 1006              		.section	.RTMSymTab
ARM GAS  G:\Users\Jaxb\AppData\Local\Temp\ccWtL94l.s 			page 23


 1007              		.align	2
 1008              		.type	__rtmsym_v, %object
 1009              		.size	__rtmsym_v, 8
 1010              	__rtmsym_v:
 1011 0018 00000000 		.word	v
 1012 001c 00000000 		.word	__rtmsym_v_name
 1013              		.text
 1014              		.align	1
 1015              		.global	_clear_MCB_index
 1016              		.syntax unified
 1017              		.thumb
 1018              		.thumb_func
 1019              		.fpu softvfp
 1020              		.type	_clear_MCB_index, %function
 1021              	_clear_MCB_index:
 1022              	.LFB30:
 224:../../source/src/kernel/OS_CORE/ipc/MCB.c **** EXPORT_SYMBOL(v);
 225:../../source/src/kernel/OS_CORE/ipc/MCB.c **** 
 226:../../source/src/kernel/OS_CORE/ipc/MCB.c **** void _clear_MCB_index(MCB *MCB_ptr)
 227:../../source/src/kernel/OS_CORE/ipc/MCB.c **** {
 1023              		.loc 1 227 0
 1024              		.cfi_startproc
 1025              		@ args = 0, pretend = 0, frame = 16
 1026              		@ frame_needed = 1, uses_anonymous_args = 0
 1027 0418 80B5     		push	{r7, lr}
 1028              	.LCFI52:
 1029              		.cfi_def_cfa_offset 8
 1030              		.cfi_offset 7, -8
 1031              		.cfi_offset 14, -4
 1032 041a 84B0     		sub	sp, sp, #16
 1033              	.LCFI53:
 1034              		.cfi_def_cfa_offset 24
 1035 041c 00AF     		add	r7, sp, #0
 1036              	.LCFI54:
 1037              		.cfi_def_cfa_register 7
 1038 041e 7860     		str	r0, [r7, #4]
 228:../../source/src/kernel/OS_CORE/ipc/MCB.c **** 	ASSERT(NULL != MCB_ptr);
 1039              		.loc 1 228 0
 1040 0420 7B68     		ldr	r3, [r7, #4]
 1041 0422 002B     		cmp	r3, #0
 1042 0424 03D1     		bne	.L65
 1043              		.loc 1 228 0 is_stmt 0 discriminator 1
 1044 0426 E421     		movs	r1, #228
 1045 0428 0A48     		ldr	r0, .L67
 1046 042a FFF7FEFF 		bl	_ASSERT
 1047              	.L65:
 229:../../source/src/kernel/OS_CORE/ipc/MCB.c **** 	CPU_SR_ALLOC();
 1048              		.loc 1 229 0 is_stmt 1
 1049 042e 0023     		movs	r3, #0
 1050 0430 FB60     		str	r3, [r7, #12]
 230:../../source/src/kernel/OS_CORE/ipc/MCB.c **** 	CPU_CRITICAL_ENTER();
 1051              		.loc 1 230 0
 1052 0432 FFF7FEFF 		bl	CPU_SR_Save
 1053 0436 F860     		str	r0, [r7, #12]
 231:../../source/src/kernel/OS_CORE/ipc/MCB.c **** 	if(MCB_ptr->resource_num > 0)
 1054              		.loc 1 231 0
 1055 0438 7B68     		ldr	r3, [r7, #4]
ARM GAS  G:\Users\Jaxb\AppData\Local\Temp\ccWtL94l.s 			page 24


 1056 043a 9B69     		ldr	r3, [r3, #24]
 1057 043c 002B     		cmp	r3, #0
 1058 043e 02DD     		ble	.L66
 232:../../source/src/kernel/OS_CORE/ipc/MCB.c **** 		MCB_ptr->resource_num = 0;
 1059              		.loc 1 232 0
 1060 0440 7B68     		ldr	r3, [r7, #4]
 1061 0442 0022     		movs	r2, #0
 1062 0444 9A61     		str	r2, [r3, #24]
 1063              	.L66:
 233:../../source/src/kernel/OS_CORE/ipc/MCB.c **** 	CPU_CRITICAL_EXIT();
 1064              		.loc 1 233 0
 1065 0446 F868     		ldr	r0, [r7, #12]
 1066 0448 FFF7FEFF 		bl	CPU_SR_Restore
 234:../../source/src/kernel/OS_CORE/ipc/MCB.c **** }
 1067              		.loc 1 234 0
 1068 044c 00BF     		nop
 1069 044e 1037     		adds	r7, r7, #16
 1070              	.LCFI55:
 1071              		.cfi_def_cfa_offset 8
 1072 0450 BD46     		mov	sp, r7
 1073              	.LCFI56:
 1074              		.cfi_def_cfa_register 13
 1075              		@ sp needed
 1076 0452 80BD     		pop	{r7, pc}
 1077              	.L68:
 1078              		.align	2
 1079              	.L67:
 1080 0454 00000000 		.word	.LC0
 1081              		.cfi_endproc
 1082              	.LFE30:
 1083              		.size	_clear_MCB_index, .-_clear_MCB_index
 1084              		.align	1
 1085              		.global	clear_MCB_index
 1086              		.syntax unified
 1087              		.thumb
 1088              		.thumb_func
 1089              		.fpu softvfp
 1090              		.type	clear_MCB_index, %function
 1091              	clear_MCB_index:
 1092              	.LFB31:
 235:../../source/src/kernel/OS_CORE/ipc/MCB.c **** 
 236:../../source/src/kernel/OS_CORE/ipc/MCB.c **** int clear_MCB_index(MCB *MCB_ptr)
 237:../../source/src/kernel/OS_CORE/ipc/MCB.c **** {
 1093              		.loc 1 237 0
 1094              		.cfi_startproc
 1095              		@ args = 0, pretend = 0, frame = 8
 1096              		@ frame_needed = 1, uses_anonymous_args = 0
 1097 0458 80B5     		push	{r7, lr}
 1098              	.LCFI57:
 1099              		.cfi_def_cfa_offset 8
 1100              		.cfi_offset 7, -8
 1101              		.cfi_offset 14, -4
 1102 045a 82B0     		sub	sp, sp, #8
 1103              	.LCFI58:
 1104              		.cfi_def_cfa_offset 16
 1105 045c 00AF     		add	r7, sp, #0
 1106              	.LCFI59:
ARM GAS  G:\Users\Jaxb\AppData\Local\Temp\ccWtL94l.s 			page 25


 1107              		.cfi_def_cfa_register 7
 1108 045e 7860     		str	r0, [r7, #4]
 238:../../source/src/kernel/OS_CORE/ipc/MCB.c **** 	if(NULL == MCB_ptr)
 1109              		.loc 1 238 0
 1110 0460 7B68     		ldr	r3, [r7, #4]
 1111 0462 002B     		cmp	r3, #0
 1112 0464 02D1     		bne	.L70
 239:../../source/src/kernel/OS_CORE/ipc/MCB.c **** 	{
 240:../../source/src/kernel/OS_CORE/ipc/MCB.c **** 		return -ERROR_NULL_INPUT_PTR;
 1113              		.loc 1 240 0
 1114 0466 6FF0FE03 		mvn	r3, #254
 1115 046a 03E0     		b	.L71
 1116              	.L70:
 241:../../source/src/kernel/OS_CORE/ipc/MCB.c **** 	}
 242:../../source/src/kernel/OS_CORE/ipc/MCB.c **** 	_clear_MCB_index(MCB_ptr);
 1117              		.loc 1 242 0
 1118 046c 7868     		ldr	r0, [r7, #4]
 1119 046e FFF7FEFF 		bl	_clear_MCB_index
 243:../../source/src/kernel/OS_CORE/ipc/MCB.c **** 	return FUN_EXECUTE_SUCCESSFULLY;
 1120              		.loc 1 243 0
 1121 0472 0023     		movs	r3, #0
 1122              	.L71:
 244:../../source/src/kernel/OS_CORE/ipc/MCB.c **** }
 1123              		.loc 1 244 0
 1124 0474 1846     		mov	r0, r3
 1125 0476 0837     		adds	r7, r7, #8
 1126              	.LCFI60:
 1127              		.cfi_def_cfa_offset 8
 1128 0478 BD46     		mov	sp, r7
 1129              	.LCFI61:
 1130              		.cfi_def_cfa_register 13
 1131              		@ sp needed
 1132 047a 80BD     		pop	{r7, pc}
 1133              		.cfi_endproc
 1134              	.LFE31:
 1135              		.size	clear_MCB_index, .-clear_MCB_index
 1136              		.global	__rtmsym_clear_MCB_index_name
 1137              		.section	.rodata.name
 1138 001e 0000     		.align	2
 1139              		.type	__rtmsym_clear_MCB_index_name, %object
 1140              		.size	__rtmsym_clear_MCB_index_name, 16
 1141              	__rtmsym_clear_MCB_index_name:
 1142 0020 636C6561 		.ascii	"clear_MCB_index\000"
 1142      725F4D43 
 1142      425F696E 
 1142      64657800 
 1143              		.global	__rtmsym_clear_MCB_index
 1144              		.section	.RTMSymTab
 1145              		.align	2
 1146              		.type	__rtmsym_clear_MCB_index, %object
 1147              		.size	__rtmsym_clear_MCB_index, 8
 1148              	__rtmsym_clear_MCB_index:
 1149 0020 00000000 		.word	clear_MCB_index
 1150 0024 00000000 		.word	__rtmsym_clear_MCB_index_name
 1151              		.text
 1152              	.Letext0:
 1153              		.file 2 "../../source/include/os_cpu/kakaosstdint.h"
ARM GAS  G:\Users\Jaxb\AppData\Local\Temp\ccWtL94l.s 			page 26


 1154              		.file 3 "../../source/include/os_lib/double_linked_list.h"
 1155              		.file 4 "../../source/include/os_core/schedule/task_state.h"
 1156              		.file 5 "../../source/include/os_cpu/os_cpu_stm32.h"
 1157              		.file 6 "../../source/include/os_core/schedule/TCB.h"
 1158              		.file 7 "../../source/include/os_lib/insert_sort_oo.h"
 1159              		.file 8 "../../source/include/os_core/ipc/MCB.h"
 1160              		.file 9 "../../source/include/os_core/dmodule/export.h"
 1161              		.section	.debug_info,"",%progbits
 1162              	.Ldebug_info0:
 1163 0000 33080000 		.4byte	0x833
 1164 0004 0200     		.2byte	0x2
 1165 0006 00000000 		.4byte	.Ldebug_abbrev0
 1166 000a 04       		.byte	0x4
 1167 000b 01       		.uleb128 0x1
 1168 000c 32050000 		.4byte	.LASF92
 1169 0010 0C       		.byte	0xc
 1170 0011 5E010000 		.4byte	.LASF93
 1171 0015 D3010000 		.4byte	.LASF94
 1172 0019 00000000 		.4byte	.Ltext0
 1173 001d 7C040000 		.4byte	.Letext0
 1174 0021 00000000 		.4byte	.Ldebug_line0
 1175 0025 02       		.uleb128 0x2
 1176 0026 01       		.byte	0x1
 1177 0027 06       		.byte	0x6
 1178 0028 F4020000 		.4byte	.LASF0
 1179 002c 02       		.uleb128 0x2
 1180 002d 02       		.byte	0x2
 1181 002e 05       		.byte	0x5
 1182 002f 83000000 		.4byte	.LASF1
 1183 0033 03       		.uleb128 0x3
 1184 0034 04       		.byte	0x4
 1185 0035 05       		.byte	0x5
 1186 0036 696E7400 		.ascii	"int\000"
 1187 003a 04       		.uleb128 0x4
 1188 003b 33000000 		.4byte	0x33
 1189 003f 02       		.uleb128 0x2
 1190 0040 08       		.byte	0x8
 1191 0041 05       		.byte	0x5
 1192 0042 01020000 		.4byte	.LASF2
 1193 0046 02       		.uleb128 0x2
 1194 0047 01       		.byte	0x1
 1195 0048 08       		.byte	0x8
 1196 0049 A4020000 		.4byte	.LASF3
 1197 004d 02       		.uleb128 0x2
 1198 004e 02       		.byte	0x2
 1199 004f 07       		.byte	0x7
 1200 0050 7F030000 		.4byte	.LASF4
 1201 0054 05       		.uleb128 0x5
 1202 0055 D0000000 		.4byte	.LASF6
 1203 0059 02       		.byte	0x2
 1204 005a 0C       		.byte	0xc
 1205 005b 5F000000 		.4byte	0x5f
 1206 005f 02       		.uleb128 0x2
 1207 0060 04       		.byte	0x4
 1208 0061 07       		.byte	0x7
 1209 0062 3B030000 		.4byte	.LASF5
 1210 0066 05       		.uleb128 0x5
ARM GAS  G:\Users\Jaxb\AppData\Local\Temp\ccWtL94l.s 			page 27


 1211 0067 26060000 		.4byte	.LASF7
 1212 006b 02       		.byte	0x2
 1213 006c 0D       		.byte	0xd
 1214 006d 71000000 		.4byte	0x71
 1215 0071 02       		.uleb128 0x2
 1216 0072 08       		.byte	0x8
 1217 0073 07       		.byte	0x7
 1218 0074 00030000 		.4byte	.LASF8
 1219 0078 06       		.uleb128 0x6
 1220 0079 42000000 		.4byte	.LASF26
 1221 007d 08       		.byte	0x8
 1222 007e 03       		.byte	0x3
 1223 007f 04       		.byte	0x4
 1224 0080 A1000000 		.4byte	0xa1
 1225 0084 07       		.uleb128 0x7
 1226 0085 3B060000 		.4byte	.LASF9
 1227 0089 03       		.byte	0x3
 1228 008a 05       		.byte	0x5
 1229 008b A1000000 		.4byte	0xa1
 1230 008f 02       		.byte	0x2
 1231 0090 23       		.byte	0x23
 1232 0091 00       		.uleb128 0
 1233 0092 07       		.uleb128 0x7
 1234 0093 FC050000 		.4byte	.LASF10
 1235 0097 03       		.byte	0x3
 1236 0098 05       		.byte	0x5
 1237 0099 A1000000 		.4byte	0xa1
 1238 009d 02       		.byte	0x2
 1239 009e 23       		.byte	0x23
 1240 009f 04       		.uleb128 0x4
 1241 00a0 00       		.byte	0
 1242 00a1 08       		.uleb128 0x8
 1243 00a2 04       		.byte	0x4
 1244 00a3 78000000 		.4byte	0x78
 1245 00a7 09       		.uleb128 0x9
 1246 00a8 E2000000 		.4byte	.LASF55
 1247 00ac 07       		.byte	0x7
 1248 00ad 01       		.byte	0x1
 1249 00ae 46000000 		.4byte	0x46
 1250 00b2 04       		.byte	0x4
 1251 00b3 04       		.byte	0x4
 1252 00b4 F5000000 		.4byte	0xf5
 1253 00b8 0A       		.uleb128 0xa
 1254 00b9 92030000 		.4byte	.LASF11
 1255 00bd 01       		.byte	0x1
 1256 00be 0A       		.uleb128 0xa
 1257 00bf C7020000 		.4byte	.LASF12
 1258 00c3 02       		.byte	0x2
 1259 00c4 0A       		.uleb128 0xa
 1260 00c5 0F000000 		.4byte	.LASF13
 1261 00c9 03       		.byte	0x3
 1262 00ca 0A       		.uleb128 0xa
 1263 00cb 95040000 		.4byte	.LASF14
 1264 00cf 04       		.byte	0x4
 1265 00d0 0A       		.uleb128 0xa
 1266 00d1 92010000 		.4byte	.LASF15
 1267 00d5 05       		.byte	0x5
ARM GAS  G:\Users\Jaxb\AppData\Local\Temp\ccWtL94l.s 			page 28


 1268 00d6 0A       		.uleb128 0xa
 1269 00d7 AF000000 		.4byte	.LASF16
 1270 00db 06       		.byte	0x6
 1271 00dc 0A       		.uleb128 0xa
 1272 00dd B2010000 		.4byte	.LASF17
 1273 00e1 07       		.byte	0x7
 1274 00e2 0A       		.uleb128 0xa
 1275 00e3 ED000000 		.4byte	.LASF18
 1276 00e7 08       		.byte	0x8
 1277 00e8 0A       		.uleb128 0xa
 1278 00e9 DB030000 		.4byte	.LASF19
 1279 00ed 09       		.byte	0x9
 1280 00ee 0A       		.uleb128 0xa
 1281 00ef DD050000 		.4byte	.LASF20
 1282 00f3 0A       		.byte	0xa
 1283 00f4 00       		.byte	0
 1284 00f5 05       		.uleb128 0x5
 1285 00f6 6C020000 		.4byte	.LASF21
 1286 00fa 04       		.byte	0x4
 1287 00fb 0F       		.byte	0xf
 1288 00fc A7000000 		.4byte	0xa7
 1289 0100 05       		.uleb128 0x5
 1290 0101 FB030000 		.4byte	.LASF22
 1291 0105 05       		.byte	0x5
 1292 0106 06       		.byte	0x6
 1293 0107 5F000000 		.4byte	0x5f
 1294 010b 05       		.uleb128 0x5
 1295 010c 01060000 		.4byte	.LASF23
 1296 0110 05       		.byte	0x5
 1297 0111 08       		.byte	0x8
 1298 0112 00010000 		.4byte	0x100
 1299 0116 05       		.uleb128 0x5
 1300 0117 D7000000 		.4byte	.LASF24
 1301 011b 06       		.byte	0x6
 1302 011c 0A       		.byte	0xa
 1303 011d 5F000000 		.4byte	0x5f
 1304 0121 05       		.uleb128 0x5
 1305 0122 00000000 		.4byte	.LASF25
 1306 0126 06       		.byte	0x6
 1307 0127 0C       		.byte	0xc
 1308 0128 5F000000 		.4byte	0x5f
 1309 012c 0B       		.uleb128 0xb
 1310 012d 04       		.byte	0x4
 1311 012e 0C       		.uleb128 0xc
 1312 012f 19050000 		.4byte	.LASF66
 1313 0133 06       		.byte	0x6
 1314 0134 13       		.byte	0x13
 1315 0135 3A000000 		.4byte	0x3a
 1316 0139 01       		.byte	0x1
 1317 013a 01       		.byte	0x1
 1318 013b 06       		.uleb128 0x6
 1319 013c B4040000 		.4byte	.LASF27
 1320 0140 48       		.byte	0x48
 1321 0141 06       		.byte	0x6
 1322 0142 37       		.byte	0x37
 1323 0143 1A020000 		.4byte	0x21a
 1324 0147 07       		.uleb128 0x7
ARM GAS  G:\Users\Jaxb\AppData\Local\Temp\ccWtL94l.s 			page 29


 1325 0148 48030000 		.4byte	.LASF28
 1326 014c 06       		.byte	0x6
 1327 014d 38       		.byte	0x38
 1328 014e 1A020000 		.4byte	0x21a
 1329 0152 02       		.byte	0x2
 1330 0153 23       		.byte	0x23
 1331 0154 00       		.uleb128 0
 1332 0155 07       		.uleb128 0x7
 1333 0156 CE040000 		.4byte	.LASF29
 1334 015a 06       		.byte	0x6
 1335 015b 39       		.byte	0x39
 1336 015c 5F000000 		.4byte	0x5f
 1337 0160 02       		.byte	0x2
 1338 0161 23       		.byte	0x23
 1339 0162 04       		.uleb128 0x4
 1340 0163 07       		.uleb128 0x7
 1341 0164 88010000 		.4byte	.LASF30
 1342 0168 06       		.byte	0x6
 1343 0169 3A       		.byte	0x3a
 1344 016a 1A020000 		.4byte	0x21a
 1345 016e 02       		.byte	0x2
 1346 016f 23       		.byte	0x23
 1347 0170 08       		.uleb128 0x8
 1348 0171 07       		.uleb128 0x7
 1349 0172 EF040000 		.4byte	.LASF31
 1350 0176 06       		.byte	0x6
 1351 0177 3B       		.byte	0x3b
 1352 0178 21010000 		.4byte	0x121
 1353 017c 02       		.byte	0x2
 1354 017d 23       		.byte	0x23
 1355 017e 0C       		.uleb128 0xc
 1356 017f 07       		.uleb128 0x7
 1357 0180 4D040000 		.4byte	.LASF32
 1358 0184 06       		.byte	0x6
 1359 0185 3C       		.byte	0x3c
 1360 0186 F5000000 		.4byte	0xf5
 1361 018a 02       		.byte	0x2
 1362 018b 23       		.byte	0x23
 1363 018c 10       		.uleb128 0x10
 1364 018d 07       		.uleb128 0x7
 1365 018e 2D060000 		.4byte	.LASF33
 1366 0192 06       		.byte	0x6
 1367 0193 3D       		.byte	0x3d
 1368 0194 21010000 		.4byte	0x121
 1369 0198 02       		.byte	0x2
 1370 0199 23       		.byte	0x23
 1371 019a 14       		.uleb128 0x14
 1372 019b 07       		.uleb128 0x7
 1373 019c 39040000 		.4byte	.LASF34
 1374 01a0 06       		.byte	0x6
 1375 01a1 3E       		.byte	0x3e
 1376 01a2 33000000 		.4byte	0x33
 1377 01a6 02       		.byte	0x2
 1378 01a7 23       		.byte	0x23
 1379 01a8 18       		.uleb128 0x18
 1380 01a9 07       		.uleb128 0x7
 1381 01aa 5C030000 		.4byte	.LASF35
ARM GAS  G:\Users\Jaxb\AppData\Local\Temp\ccWtL94l.s 			page 30


 1382 01ae 06       		.byte	0x6
 1383 01af 3F       		.byte	0x3f
 1384 01b0 78000000 		.4byte	0x78
 1385 01b4 02       		.byte	0x2
 1386 01b5 23       		.byte	0x23
 1387 01b6 1C       		.uleb128 0x1c
 1388 01b7 07       		.uleb128 0x7
 1389 01b8 0C050000 		.4byte	.LASF36
 1390 01bc 06       		.byte	0x6
 1391 01bd 40       		.byte	0x40
 1392 01be 78000000 		.4byte	0x78
 1393 01c2 02       		.byte	0x2
 1394 01c3 23       		.byte	0x23
 1395 01c4 24       		.uleb128 0x24
 1396 01c5 07       		.uleb128 0x7
 1397 01c6 77020000 		.4byte	.LASF37
 1398 01ca 06       		.byte	0x6
 1399 01cb 41       		.byte	0x41
 1400 01cc 20020000 		.4byte	0x220
 1401 01d0 02       		.byte	0x2
 1402 01d1 23       		.byte	0x23
 1403 01d2 2C       		.uleb128 0x2c
 1404 01d3 07       		.uleb128 0x7
 1405 01d4 0F020000 		.4byte	.LASF38
 1406 01d8 06       		.byte	0x6
 1407 01d9 42       		.byte	0x42
 1408 01da 5F000000 		.4byte	0x5f
 1409 01de 02       		.byte	0x2
 1410 01df 23       		.byte	0x23
 1411 01e0 30       		.uleb128 0x30
 1412 01e1 07       		.uleb128 0x7
 1413 01e2 58040000 		.4byte	.LASF39
 1414 01e6 06       		.byte	0x6
 1415 01e7 43       		.byte	0x43
 1416 01e8 5F000000 		.4byte	0x5f
 1417 01ec 02       		.byte	0x2
 1418 01ed 23       		.byte	0x23
 1419 01ee 34       		.uleb128 0x34
 1420 01ef 07       		.uleb128 0x7
 1421 01f0 D3020000 		.4byte	.LASF40
 1422 01f4 06       		.byte	0x6
 1423 01f5 44       		.byte	0x44
 1424 01f6 54000000 		.4byte	0x54
 1425 01fa 02       		.byte	0x2
 1426 01fb 23       		.byte	0x23
 1427 01fc 38       		.uleb128 0x38
 1428 01fd 07       		.uleb128 0x7
 1429 01fe 91020000 		.4byte	.LASF41
 1430 0202 06       		.byte	0x6
 1431 0203 45       		.byte	0x45
 1432 0204 38020000 		.4byte	0x238
 1433 0208 02       		.byte	0x2
 1434 0209 23       		.byte	0x23
 1435 020a 3C       		.uleb128 0x3c
 1436 020b 07       		.uleb128 0x7
 1437 020c 08060000 		.4byte	.LASF42
 1438 0210 06       		.byte	0x6
ARM GAS  G:\Users\Jaxb\AppData\Local\Temp\ccWtL94l.s 			page 31


 1439 0211 46       		.byte	0x46
 1440 0212 66000000 		.4byte	0x66
 1441 0216 02       		.byte	0x2
 1442 0217 23       		.byte	0x23
 1443 0218 40       		.uleb128 0x40
 1444 0219 00       		.byte	0
 1445 021a 08       		.uleb128 0x8
 1446 021b 04       		.byte	0x4
 1447 021c 16010000 		.4byte	0x116
 1448 0220 08       		.uleb128 0x8
 1449 0221 04       		.byte	0x4
 1450 0222 26020000 		.4byte	0x226
 1451 0226 02       		.uleb128 0x2
 1452 0227 01       		.byte	0x1
 1453 0228 08       		.byte	0x8
 1454 0229 BA030000 		.4byte	.LASF43
 1455 022d 0D       		.uleb128 0xd
 1456 022e 26020000 		.4byte	0x226
 1457 0232 0E       		.uleb128 0xe
 1458 0233 70030000 		.4byte	.LASF95
 1459 0237 01       		.byte	0x1
 1460 0238 08       		.uleb128 0x8
 1461 0239 04       		.byte	0x4
 1462 023a 32020000 		.4byte	0x232
 1463 023e 0F       		.uleb128 0xf
 1464 023f 54434200 		.ascii	"TCB\000"
 1465 0243 06       		.byte	0x6
 1466 0244 47       		.byte	0x47
 1467 0245 3B010000 		.4byte	0x13b
 1468 0249 05       		.uleb128 0x5
 1469 024a 31040000 		.4byte	.LASF44
 1470 024e 07       		.byte	0x7
 1471 024f 0D       		.byte	0xd
 1472 0250 66000000 		.4byte	0x66
 1473 0254 06       		.uleb128 0x6
 1474 0255 23020000 		.4byte	.LASF45
 1475 0259 18       		.byte	0x18
 1476 025a 07       		.byte	0x7
 1477 025b 0F       		.byte	0xf
 1478 025c 8B020000 		.4byte	0x28b
 1479 0260 07       		.uleb128 0x7
 1480 0261 32060000 		.4byte	.LASF46
 1481 0265 07       		.byte	0x7
 1482 0266 11       		.byte	0x11
 1483 0267 2C010000 		.4byte	0x12c
 1484 026b 02       		.byte	0x2
 1485 026c 23       		.byte	0x23
 1486 026d 00       		.uleb128 0
 1487 026e 07       		.uleb128 0x7
 1488 026f 97000000 		.4byte	.LASF47
 1489 0273 07       		.byte	0x7
 1490 0274 12       		.byte	0x12
 1491 0275 49020000 		.4byte	0x249
 1492 0279 02       		.byte	0x2
 1493 027a 23       		.byte	0x23
 1494 027b 08       		.uleb128 0x8
 1495 027c 07       		.uleb128 0x7
ARM GAS  G:\Users\Jaxb\AppData\Local\Temp\ccWtL94l.s 			page 32


 1496 027d A5000000 		.4byte	.LASF48
 1497 0281 07       		.byte	0x7
 1498 0282 13       		.byte	0x13
 1499 0283 78000000 		.4byte	0x78
 1500 0287 02       		.byte	0x2
 1501 0288 23       		.byte	0x23
 1502 0289 10       		.uleb128 0x10
 1503 028a 00       		.byte	0
 1504 028b 06       		.uleb128 0x6
 1505 028c 82040000 		.4byte	.LASF49
 1506 0290 18       		.byte	0x18
 1507 0291 07       		.byte	0x7
 1508 0292 1D       		.byte	0x1d
 1509 0293 DE020000 		.4byte	0x2de
 1510 0297 07       		.uleb128 0x7
 1511 0298 74000000 		.4byte	.LASF50
 1512 029c 07       		.byte	0x7
 1513 029d 27       		.byte	0x27
 1514 029e 78000000 		.4byte	0x78
 1515 02a2 02       		.byte	0x2
 1516 02a3 23       		.byte	0x23
 1517 02a4 00       		.uleb128 0
 1518 02a5 07       		.uleb128 0x7
 1519 02a6 88020000 		.4byte	.LASF51
 1520 02aa 07       		.byte	0x7
 1521 02ab 28       		.byte	0x28
 1522 02ac 5F000000 		.4byte	0x5f
 1523 02b0 02       		.byte	0x2
 1524 02b1 23       		.byte	0x23
 1525 02b2 08       		.uleb128 0x8
 1526 02b3 07       		.uleb128 0x7
 1527 02b4 AC040000 		.4byte	.LASF52
 1528 02b8 07       		.byte	0x7
 1529 02b9 2C       		.byte	0x2c
 1530 02ba F9020000 		.4byte	0x2f9
 1531 02be 02       		.byte	0x2
 1532 02bf 23       		.byte	0x23
 1533 02c0 0C       		.uleb128 0xc
 1534 02c1 07       		.uleb128 0x7
 1535 02c2 34020000 		.4byte	.LASF53
 1536 02c6 07       		.byte	0x7
 1537 02c7 2D       		.byte	0x2d
 1538 02c8 14030000 		.4byte	0x314
 1539 02cc 02       		.byte	0x2
 1540 02cd 23       		.byte	0x23
 1541 02ce 10       		.uleb128 0x10
 1542 02cf 07       		.uleb128 0x7
 1543 02d0 9E030000 		.4byte	.LASF54
 1544 02d4 07       		.byte	0x7
 1545 02d5 2E       		.byte	0x2e
 1546 02d6 2F030000 		.4byte	0x32f
 1547 02da 02       		.byte	0x2
 1548 02db 23       		.byte	0x23
 1549 02dc 14       		.uleb128 0x14
 1550 02dd 00       		.byte	0
 1551 02de 10       		.uleb128 0x10
 1552 02df 01       		.byte	0x1
ARM GAS  G:\Users\Jaxb\AppData\Local\Temp\ccWtL94l.s 			page 33


 1553 02e0 33000000 		.4byte	0x33
 1554 02e4 F3020000 		.4byte	0x2f3
 1555 02e8 11       		.uleb128 0x11
 1556 02e9 F3020000 		.4byte	0x2f3
 1557 02ed 11       		.uleb128 0x11
 1558 02ee F3020000 		.4byte	0x2f3
 1559 02f2 00       		.byte	0
 1560 02f3 08       		.uleb128 0x8
 1561 02f4 04       		.byte	0x4
 1562 02f5 54020000 		.4byte	0x254
 1563 02f9 08       		.uleb128 0x8
 1564 02fa 04       		.byte	0x4
 1565 02fb DE020000 		.4byte	0x2de
 1566 02ff 10       		.uleb128 0x10
 1567 0300 01       		.byte	0x1
 1568 0301 33000000 		.4byte	0x33
 1569 0305 14030000 		.4byte	0x314
 1570 0309 11       		.uleb128 0x11
 1571 030a F3020000 		.4byte	0x2f3
 1572 030e 11       		.uleb128 0x11
 1573 030f 2C010000 		.4byte	0x12c
 1574 0313 00       		.byte	0
 1575 0314 08       		.uleb128 0x8
 1576 0315 04       		.byte	0x4
 1577 0316 FF020000 		.4byte	0x2ff
 1578 031a 10       		.uleb128 0x10
 1579 031b 01       		.byte	0x1
 1580 031c 33000000 		.4byte	0x33
 1581 0320 2F030000 		.4byte	0x32f
 1582 0324 11       		.uleb128 0x11
 1583 0325 2C010000 		.4byte	0x12c
 1584 0329 11       		.uleb128 0x11
 1585 032a 2C010000 		.4byte	0x12c
 1586 032e 00       		.byte	0
 1587 032f 08       		.uleb128 0x8
 1588 0330 04       		.byte	0x4
 1589 0331 1A030000 		.4byte	0x31a
 1590 0335 09       		.uleb128 0x9
 1591 0336 4E030000 		.4byte	.LASF56
 1592 033a 07       		.byte	0x7
 1593 033b 01       		.byte	0x1
 1594 033c 46000000 		.4byte	0x46
 1595 0340 08       		.byte	0x8
 1596 0341 07       		.byte	0x7
 1597 0342 59030000 		.4byte	0x359
 1598 0346 0A       		.uleb128 0xa
 1599 0347 D9040000 		.4byte	.LASF57
 1600 034b 00       		.byte	0
 1601 034c 0A       		.uleb128 0xa
 1602 034d 26010000 		.4byte	.LASF58
 1603 0351 01       		.byte	0x1
 1604 0352 0A       		.uleb128 0xa
 1605 0353 BF030000 		.4byte	.LASF59
 1606 0357 02       		.byte	0x2
 1607 0358 00       		.byte	0
 1608 0359 05       		.uleb128 0x5
 1609 035a 4E030000 		.4byte	.LASF56
ARM GAS  G:\Users\Jaxb\AppData\Local\Temp\ccWtL94l.s 			page 34


 1610 035e 08       		.byte	0x8
 1611 035f 0B       		.byte	0xb
 1612 0360 35030000 		.4byte	0x335
 1613 0364 06       		.uleb128 0x6
 1614 0365 06040000 		.4byte	.LASF60
 1615 0369 20       		.byte	0x20
 1616 036a 08       		.byte	0x8
 1617 036b 14       		.byte	0x14
 1618 036c 9B030000 		.4byte	0x39b
 1619 0370 07       		.uleb128 0x7
 1620 0371 B2020000 		.4byte	.LASF61
 1621 0375 08       		.byte	0x8
 1622 0376 15       		.byte	0x15
 1623 0377 8B020000 		.4byte	0x28b
 1624 037b 02       		.byte	0x2
 1625 037c 23       		.byte	0x23
 1626 037d 00       		.uleb128 0
 1627 037e 07       		.uleb128 0x7
 1628 037f 19060000 		.4byte	.LASF62
 1629 0383 08       		.byte	0x8
 1630 0384 16       		.byte	0x16
 1631 0385 33000000 		.4byte	0x33
 1632 0389 02       		.byte	0x2
 1633 038a 23       		.byte	0x23
 1634 038b 18       		.uleb128 0x18
 1635 038c 07       		.uleb128 0x7
 1636 038d D8050000 		.4byte	.LASF63
 1637 0391 08       		.byte	0x8
 1638 0392 17       		.byte	0x17
 1639 0393 5F000000 		.4byte	0x5f
 1640 0397 02       		.byte	0x2
 1641 0398 23       		.byte	0x23
 1642 0399 1C       		.uleb128 0x1c
 1643 039a 00       		.byte	0
 1644 039b 0F       		.uleb128 0xf
 1645 039c 4D434200 		.ascii	"MCB\000"
 1646 03a0 08       		.byte	0x8
 1647 03a1 18       		.byte	0x18
 1648 03a2 64030000 		.4byte	0x364
 1649 03a6 06       		.uleb128 0x6
 1650 03a7 4D010000 		.4byte	.LASF64
 1651 03ab 08       		.byte	0x8
 1652 03ac 09       		.byte	0x9
 1653 03ad 08       		.byte	0x8
 1654 03ae CF030000 		.4byte	0x3cf
 1655 03b2 07       		.uleb128 0x7
 1656 03b3 51020000 		.4byte	.LASF65
 1657 03b7 09       		.byte	0x9
 1658 03b8 0A       		.byte	0xa
 1659 03b9 2C010000 		.4byte	0x12c
 1660 03bd 02       		.byte	0x2
 1661 03be 23       		.byte	0x23
 1662 03bf 00       		.uleb128 0
 1663 03c0 07       		.uleb128 0x7
 1664 03c1 77020000 		.4byte	.LASF37
 1665 03c5 09       		.byte	0x9
 1666 03c6 0B       		.byte	0xb
ARM GAS  G:\Users\Jaxb\AppData\Local\Temp\ccWtL94l.s 			page 35


 1667 03c7 D4030000 		.4byte	0x3d4
 1668 03cb 02       		.byte	0x2
 1669 03cc 23       		.byte	0x23
 1670 03cd 04       		.uleb128 0x4
 1671 03ce 00       		.byte	0
 1672 03cf 0D       		.uleb128 0xd
 1673 03d0 A6030000 		.4byte	0x3a6
 1674 03d4 08       		.uleb128 0x8
 1675 03d5 04       		.byte	0x4
 1676 03d6 2D020000 		.4byte	0x22d
 1677 03da 0C       		.uleb128 0xc
 1678 03db 7C020000 		.4byte	.LASF67
 1679 03df 01       		.byte	0x1
 1680 03e0 0D       		.byte	0xd
 1681 03e1 E7030000 		.4byte	0x3e7
 1682 03e5 01       		.byte	0x1
 1683 03e6 01       		.byte	0x1
 1684 03e7 08       		.uleb128 0x8
 1685 03e8 04       		.byte	0x4
 1686 03e9 3E020000 		.4byte	0x23e
 1687 03ed 12       		.uleb128 0x12
 1688 03ee 2D020000 		.4byte	0x22d
 1689 03f2 FD030000 		.4byte	0x3fd
 1690 03f6 13       		.uleb128 0x13
 1691 03f7 5F000000 		.4byte	0x5f
 1692 03fb 08       		.byte	0x8
 1693 03fc 00       		.byte	0
 1694 03fd 0D       		.uleb128 0xd
 1695 03fe ED030000 		.4byte	0x3ed
 1696 0402 14       		.uleb128 0x14
 1697 0403 1A040000 		.4byte	.LASF68
 1698 0407 01       		.byte	0x1
 1699 0408 48       		.byte	0x48
 1700 0409 FD030000 		.4byte	0x3fd
 1701 040d 01       		.byte	0x1
 1702 040e 05       		.byte	0x5
 1703 040f 03       		.byte	0x3
 1704 0410 00000000 		.4byte	__rtmsym_init_MCB_name
 1705 0414 14       		.uleb128 0x14
 1706 0415 A8030000 		.4byte	.LASF69
 1707 0419 01       		.byte	0x1
 1708 041a 48       		.byte	0x48
 1709 041b CF030000 		.4byte	0x3cf
 1710 041f 01       		.byte	0x1
 1711 0420 05       		.byte	0x5
 1712 0421 03       		.byte	0x3
 1713 0422 00000000 		.4byte	__rtmsym_init_MCB
 1714 0426 12       		.uleb128 0x12
 1715 0427 2D020000 		.4byte	0x22d
 1716 042b 36040000 		.4byte	0x436
 1717 042f 13       		.uleb128 0x13
 1718 0430 5F000000 		.4byte	0x5f
 1719 0434 0A       		.byte	0xa
 1720 0435 00       		.byte	0
 1721 0436 0D       		.uleb128 0xd
 1722 0437 26040000 		.4byte	0x426
 1723 043b 14       		.uleb128 0x14
ARM GAS  G:\Users\Jaxb\AppData\Local\Temp\ccWtL94l.s 			page 36


 1724 043c 17030000 		.4byte	.LASF70
 1725 0440 01       		.byte	0x1
 1726 0441 6E       		.byte	0x6e
 1727 0442 36040000 		.4byte	0x436
 1728 0446 01       		.byte	0x1
 1729 0447 05       		.byte	0x5
 1730 0448 03       		.byte	0x3
 1731 0449 00000000 		.4byte	__rtmsym_delete_MCB_name
 1732 044d 14       		.uleb128 0x14
 1733 044e 60000000 		.4byte	.LASF71
 1734 0452 01       		.byte	0x1
 1735 0453 6E       		.byte	0x6e
 1736 0454 CF030000 		.4byte	0x3cf
 1737 0458 01       		.byte	0x1
 1738 0459 05       		.byte	0x5
 1739 045a 03       		.byte	0x3
 1740 045b 00000000 		.4byte	__rtmsym_delete_MCB
 1741 045f 12       		.uleb128 0x12
 1742 0460 2D020000 		.4byte	0x22d
 1743 0464 6F040000 		.4byte	0x46f
 1744 0468 13       		.uleb128 0x13
 1745 0469 5F000000 		.4byte	0x5f
 1746 046d 01       		.byte	0x1
 1747 046e 00       		.byte	0
 1748 046f 0D       		.uleb128 0xd
 1749 0470 5F040000 		.4byte	0x45f
 1750 0474 14       		.uleb128 0x14
 1751 0475 FC040000 		.4byte	.LASF72
 1752 0479 01       		.byte	0x1
 1753 047a BD       		.byte	0xbd
 1754 047b 6F040000 		.4byte	0x46f
 1755 047f 01       		.byte	0x1
 1756 0480 05       		.byte	0x5
 1757 0481 03       		.byte	0x3
 1758 0482 00000000 		.4byte	__rtmsym_p_name
 1759 0486 14       		.uleb128 0x14
 1760 0487 30030000 		.4byte	.LASF73
 1761 048b 01       		.byte	0x1
 1762 048c BD       		.byte	0xbd
 1763 048d CF030000 		.4byte	0x3cf
 1764 0491 01       		.byte	0x1
 1765 0492 05       		.byte	0x5
 1766 0493 03       		.byte	0x3
 1767 0494 00000000 		.4byte	__rtmsym_p
 1768 0498 14       		.uleb128 0x14
 1769 0499 6C040000 		.4byte	.LASF74
 1770 049d 01       		.byte	0x1
 1771 049e E0       		.byte	0xe0
 1772 049f 6F040000 		.4byte	0x46f
 1773 04a3 01       		.byte	0x1
 1774 04a4 05       		.byte	0x5
 1775 04a5 03       		.byte	0x3
 1776 04a6 00000000 		.4byte	__rtmsym_v_name
 1777 04aa 14       		.uleb128 0x14
 1778 04ab 56020000 		.4byte	.LASF75
 1779 04af 01       		.byte	0x1
 1780 04b0 E0       		.byte	0xe0
ARM GAS  G:\Users\Jaxb\AppData\Local\Temp\ccWtL94l.s 			page 37


 1781 04b1 CF030000 		.4byte	0x3cf
 1782 04b5 01       		.byte	0x1
 1783 04b6 05       		.byte	0x5
 1784 04b7 03       		.byte	0x3
 1785 04b8 00000000 		.4byte	__rtmsym_v
 1786 04bc 12       		.uleb128 0x12
 1787 04bd 2D020000 		.4byte	0x22d
 1788 04c1 CC040000 		.4byte	0x4cc
 1789 04c5 13       		.uleb128 0x13
 1790 04c6 5F000000 		.4byte	0x5f
 1791 04ca 0F       		.byte	0xf
 1792 04cb 00       		.byte	0
 1793 04cc 0D       		.uleb128 0xd
 1794 04cd BC040000 		.4byte	0x4bc
 1795 04d1 14       		.uleb128 0x14
 1796 04d2 24000000 		.4byte	.LASF76
 1797 04d6 01       		.byte	0x1
 1798 04d7 F5       		.byte	0xf5
 1799 04d8 CC040000 		.4byte	0x4cc
 1800 04dc 01       		.byte	0x1
 1801 04dd 05       		.byte	0x5
 1802 04de 03       		.byte	0x3
 1803 04df 00000000 		.4byte	__rtmsym_clear_MCB_index_name
 1804 04e3 14       		.uleb128 0x14
 1805 04e4 0D010000 		.4byte	.LASF77
 1806 04e8 01       		.byte	0x1
 1807 04e9 F5       		.byte	0xf5
 1808 04ea CF030000 		.4byte	0x3cf
 1809 04ee 01       		.byte	0x1
 1810 04ef 05       		.byte	0x5
 1811 04f0 03       		.byte	0x3
 1812 04f1 00000000 		.4byte	__rtmsym_clear_MCB_index
 1813 04f5 15       		.uleb128 0x15
 1814 04f6 01       		.byte	0x1
 1815 04f7 41020000 		.4byte	.LASF79
 1816 04fb 01       		.byte	0x1
 1817 04fc EC       		.byte	0xec
 1818 04fd 01       		.byte	0x1
 1819 04fe 33000000 		.4byte	0x33
 1820 0502 58040000 		.4byte	.LFB31
 1821 0506 7C040000 		.4byte	.LFE31
 1822 050a 00000000 		.4byte	.LLST11
 1823 050e 01       		.byte	0x1
 1824 050f 22050000 		.4byte	0x522
 1825 0513 16       		.uleb128 0x16
 1826 0514 4C000000 		.4byte	.LASF78
 1827 0518 01       		.byte	0x1
 1828 0519 EC       		.byte	0xec
 1829 051a 22050000 		.4byte	0x522
 1830 051e 02       		.byte	0x2
 1831 051f 91       		.byte	0x91
 1832 0520 74       		.sleb128 -12
 1833 0521 00       		.byte	0
 1834 0522 08       		.uleb128 0x8
 1835 0523 04       		.byte	0x4
 1836 0524 9B030000 		.4byte	0x39b
 1837 0528 17       		.uleb128 0x17
ARM GAS  G:\Users\Jaxb\AppData\Local\Temp\ccWtL94l.s 			page 38


 1838 0529 01       		.byte	0x1
 1839 052a 3C010000 		.4byte	.LASF96
 1840 052e 01       		.byte	0x1
 1841 052f E2       		.byte	0xe2
 1842 0530 01       		.byte	0x1
 1843 0531 18040000 		.4byte	.LFB30
 1844 0535 58040000 		.4byte	.LFE30
 1845 0539 50000000 		.4byte	.LLST10
 1846 053d 01       		.byte	0x1
 1847 053e 5F050000 		.4byte	0x55f
 1848 0542 16       		.uleb128 0x16
 1849 0543 4C000000 		.4byte	.LASF78
 1850 0547 01       		.byte	0x1
 1851 0548 E2       		.byte	0xe2
 1852 0549 22050000 		.4byte	0x522
 1853 054d 02       		.byte	0x2
 1854 054e 91       		.byte	0x91
 1855 054f 6C       		.sleb128 -20
 1856 0550 18       		.uleb128 0x18
 1857 0551 2B050000 		.4byte	.LASF80
 1858 0555 01       		.byte	0x1
 1859 0556 E5       		.byte	0xe5
 1860 0557 0B010000 		.4byte	0x10b
 1861 055b 02       		.byte	0x2
 1862 055c 91       		.byte	0x91
 1863 055d 74       		.sleb128 -12
 1864 055e 00       		.byte	0
 1865 055f 19       		.uleb128 0x19
 1866 0560 01       		.byte	0x1
 1867 0561 7600     		.ascii	"v\000"
 1868 0563 01       		.byte	0x1
 1869 0564 D7       		.byte	0xd7
 1870 0565 01       		.byte	0x1
 1871 0566 33000000 		.4byte	0x33
 1872 056a E8030000 		.4byte	.LFB29
 1873 056e 18040000 		.4byte	.LFE29
 1874 0572 A0000000 		.4byte	.LLST9
 1875 0576 01       		.byte	0x1
 1876 0577 8A050000 		.4byte	0x58a
 1877 057b 16       		.uleb128 0x16
 1878 057c 4C000000 		.4byte	.LASF78
 1879 0580 01       		.byte	0x1
 1880 0581 D7       		.byte	0xd7
 1881 0582 22050000 		.4byte	0x522
 1882 0586 02       		.byte	0x2
 1883 0587 91       		.byte	0x91
 1884 0588 74       		.sleb128 -12
 1885 0589 00       		.byte	0
 1886 058a 19       		.uleb128 0x19
 1887 058b 01       		.byte	0x1
 1888 058c 5F7600   		.ascii	"_v\000"
 1889 058f 01       		.byte	0x1
 1890 0590 BF       		.byte	0xbf
 1891 0591 01       		.byte	0x1
 1892 0592 33000000 		.4byte	0x33
 1893 0596 48030000 		.4byte	.LFB28
 1894 059a E8030000 		.4byte	.LFE28
ARM GAS  G:\Users\Jaxb\AppData\Local\Temp\ccWtL94l.s 			page 39


 1895 059e F0000000 		.4byte	.LLST8
 1896 05a2 01       		.byte	0x1
 1897 05a3 DC050000 		.4byte	0x5dc
 1898 05a7 16       		.uleb128 0x16
 1899 05a8 4C000000 		.4byte	.LASF78
 1900 05ac 01       		.byte	0x1
 1901 05ad BF       		.byte	0xbf
 1902 05ae 22050000 		.4byte	0x522
 1903 05b2 02       		.byte	0x2
 1904 05b3 91       		.byte	0x91
 1905 05b4 6C       		.sleb128 -20
 1906 05b5 18       		.uleb128 0x18
 1907 05b6 2B050000 		.4byte	.LASF80
 1908 05ba 01       		.byte	0x1
 1909 05bb C2       		.byte	0xc2
 1910 05bc 0B010000 		.4byte	0x10b
 1911 05c0 02       		.byte	0x2
 1912 05c1 91       		.byte	0x91
 1913 05c2 74       		.sleb128 -12
 1914 05c3 1A       		.uleb128 0x1a
 1915 05c4 A4030000 		.4byte	.LBB3
 1916 05c8 D4030000 		.4byte	.LBE3
 1917 05cc 18       		.uleb128 0x18
 1918 05cd E7040000 		.4byte	.LASF81
 1919 05d1 01       		.byte	0x1
 1920 05d2 CB       		.byte	0xcb
 1921 05d3 E7030000 		.4byte	0x3e7
 1922 05d7 02       		.byte	0x2
 1923 05d8 91       		.byte	0x91
 1924 05d9 70       		.sleb128 -16
 1925 05da 00       		.byte	0
 1926 05db 00       		.byte	0
 1927 05dc 19       		.uleb128 0x19
 1928 05dd 01       		.byte	0x1
 1929 05de 7000     		.ascii	"p\000"
 1930 05e0 01       		.byte	0x1
 1931 05e1 B1       		.byte	0xb1
 1932 05e2 01       		.byte	0x1
 1933 05e3 33000000 		.4byte	0x33
 1934 05e7 0C030000 		.4byte	.LFB27
 1935 05eb 48030000 		.4byte	.LFE27
 1936 05ef 40010000 		.4byte	.LLST7
 1937 05f3 01       		.byte	0x1
 1938 05f4 23060000 		.4byte	0x623
 1939 05f8 16       		.uleb128 0x16
 1940 05f9 4C000000 		.4byte	.LASF78
 1941 05fd 01       		.byte	0x1
 1942 05fe B2       		.byte	0xb2
 1943 05ff 22050000 		.4byte	0x522
 1944 0603 02       		.byte	0x2
 1945 0604 91       		.byte	0x91
 1946 0605 74       		.sleb128 -12
 1947 0606 16       		.uleb128 0x16
 1948 0607 D8050000 		.4byte	.LASF63
 1949 060b 01       		.byte	0x1
 1950 060c B3       		.byte	0xb3
 1951 060d 59030000 		.4byte	0x359
ARM GAS  G:\Users\Jaxb\AppData\Local\Temp\ccWtL94l.s 			page 40


 1952 0611 02       		.byte	0x2
 1953 0612 91       		.byte	0x91
 1954 0613 73       		.sleb128 -13
 1955 0614 16       		.uleb128 0x16
 1956 0615 6B030000 		.4byte	.LASF82
 1957 0619 01       		.byte	0x1
 1958 061a B4       		.byte	0xb4
 1959 061b 5F000000 		.4byte	0x5f
 1960 061f 02       		.byte	0x2
 1961 0620 91       		.byte	0x91
 1962 0621 6C       		.sleb128 -20
 1963 0622 00       		.byte	0
 1964 0623 19       		.uleb128 0x19
 1965 0624 01       		.byte	0x1
 1966 0625 5F7000   		.ascii	"_p\000"
 1967 0628 01       		.byte	0x1
 1968 0629 70       		.byte	0x70
 1969 062a 01       		.byte	0x1
 1970 062b 33000000 		.4byte	0x33
 1971 062f B4010000 		.4byte	.LFB26
 1972 0633 0C030000 		.4byte	.LFE26
 1973 0637 90010000 		.4byte	.LLST6
 1974 063b 01       		.byte	0x1
 1975 063c A2060000 		.4byte	0x6a2
 1976 0640 16       		.uleb128 0x16
 1977 0641 4C000000 		.4byte	.LASF78
 1978 0645 01       		.byte	0x1
 1979 0646 71       		.byte	0x71
 1980 0647 22050000 		.4byte	0x522
 1981 064b 03       		.byte	0x3
 1982 064c 91       		.byte	0x91
 1983 064d BC7F     		.sleb128 -68
 1984 064f 16       		.uleb128 0x16
 1985 0650 D8050000 		.4byte	.LASF63
 1986 0654 01       		.byte	0x1
 1987 0655 72       		.byte	0x72
 1988 0656 59030000 		.4byte	0x359
 1989 065a 03       		.byte	0x3
 1990 065b 91       		.byte	0x91
 1991 065c BB7F     		.sleb128 -69
 1992 065e 16       		.uleb128 0x16
 1993 065f 6B030000 		.4byte	.LASF82
 1994 0663 01       		.byte	0x1
 1995 0664 73       		.byte	0x73
 1996 0665 5F000000 		.4byte	0x5f
 1997 0669 03       		.byte	0x3
 1998 066a 91       		.byte	0x91
 1999 066b B47F     		.sleb128 -76
 2000 066d 18       		.uleb128 0x18
 2001 066e 2B050000 		.4byte	.LASF80
 2002 0672 01       		.byte	0x1
 2003 0673 77       		.byte	0x77
 2004 0674 0B010000 		.4byte	0x10b
 2005 0678 02       		.byte	0x2
 2006 0679 91       		.byte	0x91
 2007 067a 64       		.sleb128 -28
 2008 067b 18       		.uleb128 0x18
ARM GAS  G:\Users\Jaxb\AppData\Local\Temp\ccWtL94l.s 			page 41


 2009 067c 15040000 		.4byte	.LASF83
 2010 0680 01       		.byte	0x1
 2011 0681 8E       		.byte	0x8e
 2012 0682 54020000 		.4byte	0x254
 2013 0686 02       		.byte	0x2
 2014 0687 91       		.byte	0x91
 2015 0688 40       		.sleb128 -64
 2016 0689 1A       		.uleb128 0x1a
 2017 068a 5E020000 		.4byte	.LBB2
 2018 068e C2020000 		.4byte	.LBE2
 2019 0692 18       		.uleb128 0x18
 2020 0693 54000000 		.4byte	.LASF84
 2021 0697 01       		.byte	0x1
 2022 0698 9A       		.byte	0x9a
 2023 0699 66000000 		.4byte	0x66
 2024 069d 02       		.byte	0x2
 2025 069e 91       		.byte	0x91
 2026 069f 58       		.sleb128 -40
 2027 06a0 00       		.byte	0
 2028 06a1 00       		.byte	0
 2029 06a2 15       		.uleb128 0x15
 2030 06a3 01       		.byte	0x1
 2031 06a4 61020000 		.4byte	.LASF85
 2032 06a8 01       		.byte	0x1
 2033 06a9 65       		.byte	0x65
 2034 06aa 01       		.byte	0x1
 2035 06ab 33000000 		.4byte	0x33
 2036 06af 84010000 		.4byte	.LFB25
 2037 06b3 B4010000 		.4byte	.LFE25
 2038 06b7 E2010000 		.4byte	.LLST5
 2039 06bb 01       		.byte	0x1
 2040 06bc CF060000 		.4byte	0x6cf
 2041 06c0 16       		.uleb128 0x16
 2042 06c1 4C000000 		.4byte	.LASF78
 2043 06c5 01       		.byte	0x1
 2044 06c6 65       		.byte	0x65
 2045 06c7 22050000 		.4byte	0x522
 2046 06cb 02       		.byte	0x2
 2047 06cc 91       		.byte	0x91
 2048 06cd 74       		.sleb128 -12
 2049 06ce 00       		.byte	0
 2050 06cf 15       		.uleb128 0x15
 2051 06d0 01       		.byte	0x1
 2052 06d1 CF030000 		.4byte	.LASF86
 2053 06d5 01       		.byte	0x1
 2054 06d6 4A       		.byte	0x4a
 2055 06d7 01       		.byte	0x1
 2056 06d8 33000000 		.4byte	0x33
 2057 06dc F8000000 		.4byte	.LFB24
 2058 06e0 84010000 		.4byte	.LFE24
 2059 06e4 32020000 		.4byte	.LLST4
 2060 06e8 01       		.byte	0x1
 2061 06e9 26070000 		.4byte	0x726
 2062 06ed 16       		.uleb128 0x16
 2063 06ee 4C000000 		.4byte	.LASF78
 2064 06f2 01       		.byte	0x1
 2065 06f3 4A       		.byte	0x4a
ARM GAS  G:\Users\Jaxb\AppData\Local\Temp\ccWtL94l.s 			page 42


 2066 06f4 22050000 		.4byte	0x522
 2067 06f8 02       		.byte	0x2
 2068 06f9 91       		.byte	0x91
 2069 06fa 64       		.sleb128 -28
 2070 06fb 18       		.uleb128 0x18
 2071 06fc E7040000 		.4byte	.LASF81
 2072 0700 01       		.byte	0x1
 2073 0701 4D       		.byte	0x4d
 2074 0702 E7030000 		.4byte	0x3e7
 2075 0706 02       		.byte	0x2
 2076 0707 91       		.byte	0x91
 2077 0708 6C       		.sleb128 -20
 2078 0709 18       		.uleb128 0x18
 2079 070a 2B050000 		.4byte	.LASF80
 2080 070e 01       		.byte	0x1
 2081 070f 4E       		.byte	0x4e
 2082 0710 0B010000 		.4byte	0x10b
 2083 0714 02       		.byte	0x2
 2084 0715 91       		.byte	0x91
 2085 0716 70       		.sleb128 -16
 2086 0717 18       		.uleb128 0x18
 2087 0718 DF020000 		.4byte	.LASF87
 2088 071c 01       		.byte	0x1
 2089 071d 50       		.byte	0x50
 2090 071e F3020000 		.4byte	0x2f3
 2091 0722 02       		.byte	0x2
 2092 0723 91       		.byte	0x91
 2093 0724 74       		.sleb128 -12
 2094 0725 00       		.byte	0
 2095 0726 15       		.uleb128 0x15
 2096 0727 01       		.byte	0x1
 2097 0728 A9010000 		.4byte	.LASF88
 2098 072c 01       		.byte	0x1
 2099 072d 37       		.byte	0x37
 2100 072e 01       		.byte	0x1
 2101 072f 33000000 		.4byte	0x33
 2102 0733 B0000000 		.4byte	.LFB23
 2103 0737 F8000000 		.4byte	.LFE23
 2104 073b 82020000 		.4byte	.LLST3
 2105 073f 01       		.byte	0x1
 2106 0740 6F070000 		.4byte	0x76f
 2107 0744 16       		.uleb128 0x16
 2108 0745 4C000000 		.4byte	.LASF78
 2109 0749 01       		.byte	0x1
 2110 074a 38       		.byte	0x38
 2111 074b 22050000 		.4byte	0x522
 2112 074f 02       		.byte	0x2
 2113 0750 91       		.byte	0x91
 2114 0751 74       		.sleb128 -12
 2115 0752 1B       		.uleb128 0x1b
 2116 0753 6E756D00 		.ascii	"num\000"
 2117 0757 01       		.byte	0x1
 2118 0758 39       		.byte	0x39
 2119 0759 33000000 		.4byte	0x33
 2120 075d 02       		.byte	0x2
 2121 075e 91       		.byte	0x91
 2122 075f 70       		.sleb128 -16
ARM GAS  G:\Users\Jaxb\AppData\Local\Temp\ccWtL94l.s 			page 43


 2123 0760 16       		.uleb128 0x16
 2124 0761 D8050000 		.4byte	.LASF63
 2125 0765 01       		.byte	0x1
 2126 0766 3A       		.byte	0x3a
 2127 0767 5F000000 		.4byte	0x5f
 2128 076b 02       		.byte	0x2
 2129 076c 91       		.byte	0x91
 2130 076d 6C       		.sleb128 -20
 2131 076e 00       		.byte	0
 2132 076f 15       		.uleb128 0x15
 2133 0770 01       		.byte	0x1
 2134 0771 8D000000 		.4byte	.LASF89
 2135 0775 01       		.byte	0x1
 2136 0776 1A       		.byte	0x1a
 2137 0777 01       		.byte	0x1
 2138 0778 33000000 		.4byte	0x33
 2139 077c 40000000 		.4byte	.LFB22
 2140 0780 B0000000 		.4byte	.LFE22
 2141 0784 D2020000 		.4byte	.LLST2
 2142 0788 01       		.byte	0x1
 2143 0789 C6070000 		.4byte	0x7c6
 2144 078d 16       		.uleb128 0x16
 2145 078e 4C000000 		.4byte	.LASF78
 2146 0792 01       		.byte	0x1
 2147 0793 1B       		.byte	0x1b
 2148 0794 22050000 		.4byte	0x522
 2149 0798 02       		.byte	0x2
 2150 0799 91       		.byte	0x91
 2151 079a 6C       		.sleb128 -20
 2152 079b 1B       		.uleb128 0x1b
 2153 079c 6E756D00 		.ascii	"num\000"
 2154 07a0 01       		.byte	0x1
 2155 07a1 1C       		.byte	0x1c
 2156 07a2 33000000 		.4byte	0x33
 2157 07a6 02       		.byte	0x2
 2158 07a7 91       		.byte	0x91
 2159 07a8 68       		.sleb128 -24
 2160 07a9 16       		.uleb128 0x16
 2161 07aa D8050000 		.4byte	.LASF63
 2162 07ae 01       		.byte	0x1
 2163 07af 1D       		.byte	0x1d
 2164 07b0 5F000000 		.4byte	0x5f
 2165 07b4 02       		.byte	0x2
 2166 07b5 91       		.byte	0x91
 2167 07b6 64       		.sleb128 -28
 2168 07b7 18       		.uleb128 0x18
 2169 07b8 2B050000 		.4byte	.LASF80
 2170 07bc 01       		.byte	0x1
 2171 07bd 21       		.byte	0x21
 2172 07be 0B010000 		.4byte	0x10b
 2173 07c2 02       		.byte	0x2
 2174 07c3 91       		.byte	0x91
 2175 07c4 74       		.sleb128 -12
 2176 07c5 00       		.byte	0
 2177 07c6 1C       		.uleb128 0x1c
 2178 07c7 9E030000 		.4byte	.LASF54
 2179 07cb 01       		.byte	0x1
ARM GAS  G:\Users\Jaxb\AppData\Local\Temp\ccWtL94l.s 			page 44


 2180 07cc 14       		.byte	0x14
 2181 07cd 01       		.byte	0x1
 2182 07ce 33000000 		.4byte	0x33
 2183 07d2 22000000 		.4byte	.LFB21
 2184 07d6 40000000 		.4byte	.LFE21
 2185 07da 22030000 		.4byte	.LLST1
 2186 07de 01       		.byte	0x1
 2187 07df 00080000 		.4byte	0x800
 2188 07e3 16       		.uleb128 0x16
 2189 07e4 7C040000 		.4byte	.LASF90
 2190 07e8 01       		.byte	0x1
 2191 07e9 14       		.byte	0x14
 2192 07ea 2C010000 		.4byte	0x12c
 2193 07ee 02       		.byte	0x2
 2194 07ef 91       		.byte	0x91
 2195 07f0 74       		.sleb128 -12
 2196 07f1 16       		.uleb128 0x16
 2197 07f2 F6050000 		.4byte	.LASF91
 2198 07f6 01       		.byte	0x1
 2199 07f7 14       		.byte	0x14
 2200 07f8 2C010000 		.4byte	0x12c
 2201 07fc 02       		.byte	0x2
 2202 07fd 91       		.byte	0x91
 2203 07fe 70       		.sleb128 -16
 2204 07ff 00       		.byte	0
 2205 0800 1D       		.uleb128 0x1d
 2206 0801 AC040000 		.4byte	.LASF52
 2207 0805 01       		.byte	0x1
 2208 0806 0F       		.byte	0xf
 2209 0807 01       		.byte	0x1
 2210 0808 33000000 		.4byte	0x33
 2211 080c 00000000 		.4byte	.LFB20
 2212 0810 22000000 		.4byte	.LFE20
 2213 0814 7E030000 		.4byte	.LLST0
 2214 0818 01       		.byte	0x1
 2215 0819 16       		.uleb128 0x16
 2216 081a 7C040000 		.4byte	.LASF90
 2217 081e 01       		.byte	0x1
 2218 081f 0F       		.byte	0xf
 2219 0820 F3020000 		.4byte	0x2f3
 2220 0824 02       		.byte	0x2
 2221 0825 91       		.byte	0x91
 2222 0826 74       		.sleb128 -12
 2223 0827 16       		.uleb128 0x16
 2224 0828 F6050000 		.4byte	.LASF91
 2225 082c 01       		.byte	0x1
 2226 082d 0F       		.byte	0xf
 2227 082e F3020000 		.4byte	0x2f3
 2228 0832 02       		.byte	0x2
 2229 0833 91       		.byte	0x91
 2230 0834 70       		.sleb128 -16
 2231 0835 00       		.byte	0
 2232 0836 00       		.byte	0
 2233              		.section	.debug_abbrev,"",%progbits
 2234              	.Ldebug_abbrev0:
 2235 0000 01       		.uleb128 0x1
 2236 0001 11       		.uleb128 0x11
ARM GAS  G:\Users\Jaxb\AppData\Local\Temp\ccWtL94l.s 			page 45


 2237 0002 01       		.byte	0x1
 2238 0003 25       		.uleb128 0x25
 2239 0004 0E       		.uleb128 0xe
 2240 0005 13       		.uleb128 0x13
 2241 0006 0B       		.uleb128 0xb
 2242 0007 03       		.uleb128 0x3
 2243 0008 0E       		.uleb128 0xe
 2244 0009 1B       		.uleb128 0x1b
 2245 000a 0E       		.uleb128 0xe
 2246 000b 11       		.uleb128 0x11
 2247 000c 01       		.uleb128 0x1
 2248 000d 12       		.uleb128 0x12
 2249 000e 01       		.uleb128 0x1
 2250 000f 10       		.uleb128 0x10
 2251 0010 06       		.uleb128 0x6
 2252 0011 00       		.byte	0
 2253 0012 00       		.byte	0
 2254 0013 02       		.uleb128 0x2
 2255 0014 24       		.uleb128 0x24
 2256 0015 00       		.byte	0
 2257 0016 0B       		.uleb128 0xb
 2258 0017 0B       		.uleb128 0xb
 2259 0018 3E       		.uleb128 0x3e
 2260 0019 0B       		.uleb128 0xb
 2261 001a 03       		.uleb128 0x3
 2262 001b 0E       		.uleb128 0xe
 2263 001c 00       		.byte	0
 2264 001d 00       		.byte	0
 2265 001e 03       		.uleb128 0x3
 2266 001f 24       		.uleb128 0x24
 2267 0020 00       		.byte	0
 2268 0021 0B       		.uleb128 0xb
 2269 0022 0B       		.uleb128 0xb
 2270 0023 3E       		.uleb128 0x3e
 2271 0024 0B       		.uleb128 0xb
 2272 0025 03       		.uleb128 0x3
 2273 0026 08       		.uleb128 0x8
 2274 0027 00       		.byte	0
 2275 0028 00       		.byte	0
 2276 0029 04       		.uleb128 0x4
 2277 002a 35       		.uleb128 0x35
 2278 002b 00       		.byte	0
 2279 002c 49       		.uleb128 0x49
 2280 002d 13       		.uleb128 0x13
 2281 002e 00       		.byte	0
 2282 002f 00       		.byte	0
 2283 0030 05       		.uleb128 0x5
 2284 0031 16       		.uleb128 0x16
 2285 0032 00       		.byte	0
 2286 0033 03       		.uleb128 0x3
 2287 0034 0E       		.uleb128 0xe
 2288 0035 3A       		.uleb128 0x3a
 2289 0036 0B       		.uleb128 0xb
 2290 0037 3B       		.uleb128 0x3b
 2291 0038 0B       		.uleb128 0xb
 2292 0039 49       		.uleb128 0x49
 2293 003a 13       		.uleb128 0x13
ARM GAS  G:\Users\Jaxb\AppData\Local\Temp\ccWtL94l.s 			page 46


 2294 003b 00       		.byte	0
 2295 003c 00       		.byte	0
 2296 003d 06       		.uleb128 0x6
 2297 003e 13       		.uleb128 0x13
 2298 003f 01       		.byte	0x1
 2299 0040 03       		.uleb128 0x3
 2300 0041 0E       		.uleb128 0xe
 2301 0042 0B       		.uleb128 0xb
 2302 0043 0B       		.uleb128 0xb
 2303 0044 3A       		.uleb128 0x3a
 2304 0045 0B       		.uleb128 0xb
 2305 0046 3B       		.uleb128 0x3b
 2306 0047 0B       		.uleb128 0xb
 2307 0048 01       		.uleb128 0x1
 2308 0049 13       		.uleb128 0x13
 2309 004a 00       		.byte	0
 2310 004b 00       		.byte	0
 2311 004c 07       		.uleb128 0x7
 2312 004d 0D       		.uleb128 0xd
 2313 004e 00       		.byte	0
 2314 004f 03       		.uleb128 0x3
 2315 0050 0E       		.uleb128 0xe
 2316 0051 3A       		.uleb128 0x3a
 2317 0052 0B       		.uleb128 0xb
 2318 0053 3B       		.uleb128 0x3b
 2319 0054 0B       		.uleb128 0xb
 2320 0055 49       		.uleb128 0x49
 2321 0056 13       		.uleb128 0x13
 2322 0057 38       		.uleb128 0x38
 2323 0058 0A       		.uleb128 0xa
 2324 0059 00       		.byte	0
 2325 005a 00       		.byte	0
 2326 005b 08       		.uleb128 0x8
 2327 005c 0F       		.uleb128 0xf
 2328 005d 00       		.byte	0
 2329 005e 0B       		.uleb128 0xb
 2330 005f 0B       		.uleb128 0xb
 2331 0060 49       		.uleb128 0x49
 2332 0061 13       		.uleb128 0x13
 2333 0062 00       		.byte	0
 2334 0063 00       		.byte	0
 2335 0064 09       		.uleb128 0x9
 2336 0065 04       		.uleb128 0x4
 2337 0066 01       		.byte	0x1
 2338 0067 03       		.uleb128 0x3
 2339 0068 0E       		.uleb128 0xe
 2340 0069 3E       		.uleb128 0x3e
 2341 006a 0B       		.uleb128 0xb
 2342 006b 0B       		.uleb128 0xb
 2343 006c 0B       		.uleb128 0xb
 2344 006d 49       		.uleb128 0x49
 2345 006e 13       		.uleb128 0x13
 2346 006f 3A       		.uleb128 0x3a
 2347 0070 0B       		.uleb128 0xb
 2348 0071 3B       		.uleb128 0x3b
 2349 0072 0B       		.uleb128 0xb
 2350 0073 01       		.uleb128 0x1
ARM GAS  G:\Users\Jaxb\AppData\Local\Temp\ccWtL94l.s 			page 47


 2351 0074 13       		.uleb128 0x13
 2352 0075 00       		.byte	0
 2353 0076 00       		.byte	0
 2354 0077 0A       		.uleb128 0xa
 2355 0078 28       		.uleb128 0x28
 2356 0079 00       		.byte	0
 2357 007a 03       		.uleb128 0x3
 2358 007b 0E       		.uleb128 0xe
 2359 007c 1C       		.uleb128 0x1c
 2360 007d 0B       		.uleb128 0xb
 2361 007e 00       		.byte	0
 2362 007f 00       		.byte	0
 2363 0080 0B       		.uleb128 0xb
 2364 0081 0F       		.uleb128 0xf
 2365 0082 00       		.byte	0
 2366 0083 0B       		.uleb128 0xb
 2367 0084 0B       		.uleb128 0xb
 2368 0085 00       		.byte	0
 2369 0086 00       		.byte	0
 2370 0087 0C       		.uleb128 0xc
 2371 0088 34       		.uleb128 0x34
 2372 0089 00       		.byte	0
 2373 008a 03       		.uleb128 0x3
 2374 008b 0E       		.uleb128 0xe
 2375 008c 3A       		.uleb128 0x3a
 2376 008d 0B       		.uleb128 0xb
 2377 008e 3B       		.uleb128 0x3b
 2378 008f 0B       		.uleb128 0xb
 2379 0090 49       		.uleb128 0x49
 2380 0091 13       		.uleb128 0x13
 2381 0092 3F       		.uleb128 0x3f
 2382 0093 0C       		.uleb128 0xc
 2383 0094 3C       		.uleb128 0x3c
 2384 0095 0C       		.uleb128 0xc
 2385 0096 00       		.byte	0
 2386 0097 00       		.byte	0
 2387 0098 0D       		.uleb128 0xd
 2388 0099 26       		.uleb128 0x26
 2389 009a 00       		.byte	0
 2390 009b 49       		.uleb128 0x49
 2391 009c 13       		.uleb128 0x13
 2392 009d 00       		.byte	0
 2393 009e 00       		.byte	0
 2394 009f 0E       		.uleb128 0xe
 2395 00a0 13       		.uleb128 0x13
 2396 00a1 00       		.byte	0
 2397 00a2 03       		.uleb128 0x3
 2398 00a3 0E       		.uleb128 0xe
 2399 00a4 3C       		.uleb128 0x3c
 2400 00a5 0C       		.uleb128 0xc
 2401 00a6 00       		.byte	0
 2402 00a7 00       		.byte	0
 2403 00a8 0F       		.uleb128 0xf
 2404 00a9 16       		.uleb128 0x16
 2405 00aa 00       		.byte	0
 2406 00ab 03       		.uleb128 0x3
 2407 00ac 08       		.uleb128 0x8
ARM GAS  G:\Users\Jaxb\AppData\Local\Temp\ccWtL94l.s 			page 48


 2408 00ad 3A       		.uleb128 0x3a
 2409 00ae 0B       		.uleb128 0xb
 2410 00af 3B       		.uleb128 0x3b
 2411 00b0 0B       		.uleb128 0xb
 2412 00b1 49       		.uleb128 0x49
 2413 00b2 13       		.uleb128 0x13
 2414 00b3 00       		.byte	0
 2415 00b4 00       		.byte	0
 2416 00b5 10       		.uleb128 0x10
 2417 00b6 15       		.uleb128 0x15
 2418 00b7 01       		.byte	0x1
 2419 00b8 27       		.uleb128 0x27
 2420 00b9 0C       		.uleb128 0xc
 2421 00ba 49       		.uleb128 0x49
 2422 00bb 13       		.uleb128 0x13
 2423 00bc 01       		.uleb128 0x1
 2424 00bd 13       		.uleb128 0x13
 2425 00be 00       		.byte	0
 2426 00bf 00       		.byte	0
 2427 00c0 11       		.uleb128 0x11
 2428 00c1 05       		.uleb128 0x5
 2429 00c2 00       		.byte	0
 2430 00c3 49       		.uleb128 0x49
 2431 00c4 13       		.uleb128 0x13
 2432 00c5 00       		.byte	0
 2433 00c6 00       		.byte	0
 2434 00c7 12       		.uleb128 0x12
 2435 00c8 01       		.uleb128 0x1
 2436 00c9 01       		.byte	0x1
 2437 00ca 49       		.uleb128 0x49
 2438 00cb 13       		.uleb128 0x13
 2439 00cc 01       		.uleb128 0x1
 2440 00cd 13       		.uleb128 0x13
 2441 00ce 00       		.byte	0
 2442 00cf 00       		.byte	0
 2443 00d0 13       		.uleb128 0x13
 2444 00d1 21       		.uleb128 0x21
 2445 00d2 00       		.byte	0
 2446 00d3 49       		.uleb128 0x49
 2447 00d4 13       		.uleb128 0x13
 2448 00d5 2F       		.uleb128 0x2f
 2449 00d6 0B       		.uleb128 0xb
 2450 00d7 00       		.byte	0
 2451 00d8 00       		.byte	0
 2452 00d9 14       		.uleb128 0x14
 2453 00da 34       		.uleb128 0x34
 2454 00db 00       		.byte	0
 2455 00dc 03       		.uleb128 0x3
 2456 00dd 0E       		.uleb128 0xe
 2457 00de 3A       		.uleb128 0x3a
 2458 00df 0B       		.uleb128 0xb
 2459 00e0 3B       		.uleb128 0x3b
 2460 00e1 0B       		.uleb128 0xb
 2461 00e2 49       		.uleb128 0x49
 2462 00e3 13       		.uleb128 0x13
 2463 00e4 3F       		.uleb128 0x3f
 2464 00e5 0C       		.uleb128 0xc
ARM GAS  G:\Users\Jaxb\AppData\Local\Temp\ccWtL94l.s 			page 49


 2465 00e6 02       		.uleb128 0x2
 2466 00e7 0A       		.uleb128 0xa
 2467 00e8 00       		.byte	0
 2468 00e9 00       		.byte	0
 2469 00ea 15       		.uleb128 0x15
 2470 00eb 2E       		.uleb128 0x2e
 2471 00ec 01       		.byte	0x1
 2472 00ed 3F       		.uleb128 0x3f
 2473 00ee 0C       		.uleb128 0xc
 2474 00ef 03       		.uleb128 0x3
 2475 00f0 0E       		.uleb128 0xe
 2476 00f1 3A       		.uleb128 0x3a
 2477 00f2 0B       		.uleb128 0xb
 2478 00f3 3B       		.uleb128 0x3b
 2479 00f4 0B       		.uleb128 0xb
 2480 00f5 27       		.uleb128 0x27
 2481 00f6 0C       		.uleb128 0xc
 2482 00f7 49       		.uleb128 0x49
 2483 00f8 13       		.uleb128 0x13
 2484 00f9 11       		.uleb128 0x11
 2485 00fa 01       		.uleb128 0x1
 2486 00fb 12       		.uleb128 0x12
 2487 00fc 01       		.uleb128 0x1
 2488 00fd 40       		.uleb128 0x40
 2489 00fe 06       		.uleb128 0x6
 2490 00ff 9642     		.uleb128 0x2116
 2491 0101 0C       		.uleb128 0xc
 2492 0102 01       		.uleb128 0x1
 2493 0103 13       		.uleb128 0x13
 2494 0104 00       		.byte	0
 2495 0105 00       		.byte	0
 2496 0106 16       		.uleb128 0x16
 2497 0107 05       		.uleb128 0x5
 2498 0108 00       		.byte	0
 2499 0109 03       		.uleb128 0x3
 2500 010a 0E       		.uleb128 0xe
 2501 010b 3A       		.uleb128 0x3a
 2502 010c 0B       		.uleb128 0xb
 2503 010d 3B       		.uleb128 0x3b
 2504 010e 0B       		.uleb128 0xb
 2505 010f 49       		.uleb128 0x49
 2506 0110 13       		.uleb128 0x13
 2507 0111 02       		.uleb128 0x2
 2508 0112 0A       		.uleb128 0xa
 2509 0113 00       		.byte	0
 2510 0114 00       		.byte	0
 2511 0115 17       		.uleb128 0x17
 2512 0116 2E       		.uleb128 0x2e
 2513 0117 01       		.byte	0x1
 2514 0118 3F       		.uleb128 0x3f
 2515 0119 0C       		.uleb128 0xc
 2516 011a 03       		.uleb128 0x3
 2517 011b 0E       		.uleb128 0xe
 2518 011c 3A       		.uleb128 0x3a
 2519 011d 0B       		.uleb128 0xb
 2520 011e 3B       		.uleb128 0x3b
 2521 011f 0B       		.uleb128 0xb
ARM GAS  G:\Users\Jaxb\AppData\Local\Temp\ccWtL94l.s 			page 50


 2522 0120 27       		.uleb128 0x27
 2523 0121 0C       		.uleb128 0xc
 2524 0122 11       		.uleb128 0x11
 2525 0123 01       		.uleb128 0x1
 2526 0124 12       		.uleb128 0x12
 2527 0125 01       		.uleb128 0x1
 2528 0126 40       		.uleb128 0x40
 2529 0127 06       		.uleb128 0x6
 2530 0128 9642     		.uleb128 0x2116
 2531 012a 0C       		.uleb128 0xc
 2532 012b 01       		.uleb128 0x1
 2533 012c 13       		.uleb128 0x13
 2534 012d 00       		.byte	0
 2535 012e 00       		.byte	0
 2536 012f 18       		.uleb128 0x18
 2537 0130 34       		.uleb128 0x34
 2538 0131 00       		.byte	0
 2539 0132 03       		.uleb128 0x3
 2540 0133 0E       		.uleb128 0xe
 2541 0134 3A       		.uleb128 0x3a
 2542 0135 0B       		.uleb128 0xb
 2543 0136 3B       		.uleb128 0x3b
 2544 0137 0B       		.uleb128 0xb
 2545 0138 49       		.uleb128 0x49
 2546 0139 13       		.uleb128 0x13
 2547 013a 02       		.uleb128 0x2
 2548 013b 0A       		.uleb128 0xa
 2549 013c 00       		.byte	0
 2550 013d 00       		.byte	0
 2551 013e 19       		.uleb128 0x19
 2552 013f 2E       		.uleb128 0x2e
 2553 0140 01       		.byte	0x1
 2554 0141 3F       		.uleb128 0x3f
 2555 0142 0C       		.uleb128 0xc
 2556 0143 03       		.uleb128 0x3
 2557 0144 08       		.uleb128 0x8
 2558 0145 3A       		.uleb128 0x3a
 2559 0146 0B       		.uleb128 0xb
 2560 0147 3B       		.uleb128 0x3b
 2561 0148 0B       		.uleb128 0xb
 2562 0149 27       		.uleb128 0x27
 2563 014a 0C       		.uleb128 0xc
 2564 014b 49       		.uleb128 0x49
 2565 014c 13       		.uleb128 0x13
 2566 014d 11       		.uleb128 0x11
 2567 014e 01       		.uleb128 0x1
 2568 014f 12       		.uleb128 0x12
 2569 0150 01       		.uleb128 0x1
 2570 0151 40       		.uleb128 0x40
 2571 0152 06       		.uleb128 0x6
 2572 0153 9642     		.uleb128 0x2116
 2573 0155 0C       		.uleb128 0xc
 2574 0156 01       		.uleb128 0x1
 2575 0157 13       		.uleb128 0x13
 2576 0158 00       		.byte	0
 2577 0159 00       		.byte	0
 2578 015a 1A       		.uleb128 0x1a
ARM GAS  G:\Users\Jaxb\AppData\Local\Temp\ccWtL94l.s 			page 51


 2579 015b 0B       		.uleb128 0xb
 2580 015c 01       		.byte	0x1
 2581 015d 11       		.uleb128 0x11
 2582 015e 01       		.uleb128 0x1
 2583 015f 12       		.uleb128 0x12
 2584 0160 01       		.uleb128 0x1
 2585 0161 00       		.byte	0
 2586 0162 00       		.byte	0
 2587 0163 1B       		.uleb128 0x1b
 2588 0164 05       		.uleb128 0x5
 2589 0165 00       		.byte	0
 2590 0166 03       		.uleb128 0x3
 2591 0167 08       		.uleb128 0x8
 2592 0168 3A       		.uleb128 0x3a
 2593 0169 0B       		.uleb128 0xb
 2594 016a 3B       		.uleb128 0x3b
 2595 016b 0B       		.uleb128 0xb
 2596 016c 49       		.uleb128 0x49
 2597 016d 13       		.uleb128 0x13
 2598 016e 02       		.uleb128 0x2
 2599 016f 0A       		.uleb128 0xa
 2600 0170 00       		.byte	0
 2601 0171 00       		.byte	0
 2602 0172 1C       		.uleb128 0x1c
 2603 0173 2E       		.uleb128 0x2e
 2604 0174 01       		.byte	0x1
 2605 0175 03       		.uleb128 0x3
 2606 0176 0E       		.uleb128 0xe
 2607 0177 3A       		.uleb128 0x3a
 2608 0178 0B       		.uleb128 0xb
 2609 0179 3B       		.uleb128 0x3b
 2610 017a 0B       		.uleb128 0xb
 2611 017b 27       		.uleb128 0x27
 2612 017c 0C       		.uleb128 0xc
 2613 017d 49       		.uleb128 0x49
 2614 017e 13       		.uleb128 0x13
 2615 017f 11       		.uleb128 0x11
 2616 0180 01       		.uleb128 0x1
 2617 0181 12       		.uleb128 0x12
 2618 0182 01       		.uleb128 0x1
 2619 0183 40       		.uleb128 0x40
 2620 0184 06       		.uleb128 0x6
 2621 0185 9742     		.uleb128 0x2117
 2622 0187 0C       		.uleb128 0xc
 2623 0188 01       		.uleb128 0x1
 2624 0189 13       		.uleb128 0x13
 2625 018a 00       		.byte	0
 2626 018b 00       		.byte	0
 2627 018c 1D       		.uleb128 0x1d
 2628 018d 2E       		.uleb128 0x2e
 2629 018e 01       		.byte	0x1
 2630 018f 03       		.uleb128 0x3
 2631 0190 0E       		.uleb128 0xe
 2632 0191 3A       		.uleb128 0x3a
 2633 0192 0B       		.uleb128 0xb
 2634 0193 3B       		.uleb128 0x3b
 2635 0194 0B       		.uleb128 0xb
ARM GAS  G:\Users\Jaxb\AppData\Local\Temp\ccWtL94l.s 			page 52


 2636 0195 27       		.uleb128 0x27
 2637 0196 0C       		.uleb128 0xc
 2638 0197 49       		.uleb128 0x49
 2639 0198 13       		.uleb128 0x13
 2640 0199 11       		.uleb128 0x11
 2641 019a 01       		.uleb128 0x1
 2642 019b 12       		.uleb128 0x12
 2643 019c 01       		.uleb128 0x1
 2644 019d 40       		.uleb128 0x40
 2645 019e 06       		.uleb128 0x6
 2646 019f 9742     		.uleb128 0x2117
 2647 01a1 0C       		.uleb128 0xc
 2648 01a2 00       		.byte	0
 2649 01a3 00       		.byte	0
 2650 01a4 00       		.byte	0
 2651              		.section	.debug_loc,"",%progbits
 2652              	.Ldebug_loc0:
 2653              	.LLST11:
 2654 0000 58040000 		.4byte	.LFB31-.Ltext0
 2655 0004 5A040000 		.4byte	.LCFI57-.Ltext0
 2656 0008 0200     		.2byte	0x2
 2657 000a 7D       		.byte	0x7d
 2658 000b 00       		.sleb128 0
 2659 000c 5A040000 		.4byte	.LCFI57-.Ltext0
 2660 0010 5C040000 		.4byte	.LCFI58-.Ltext0
 2661 0014 0200     		.2byte	0x2
 2662 0016 7D       		.byte	0x7d
 2663 0017 08       		.sleb128 8
 2664 0018 5C040000 		.4byte	.LCFI58-.Ltext0
 2665 001c 5E040000 		.4byte	.LCFI59-.Ltext0
 2666 0020 0200     		.2byte	0x2
 2667 0022 7D       		.byte	0x7d
 2668 0023 10       		.sleb128 16
 2669 0024 5E040000 		.4byte	.LCFI59-.Ltext0
 2670 0028 78040000 		.4byte	.LCFI60-.Ltext0
 2671 002c 0200     		.2byte	0x2
 2672 002e 77       		.byte	0x77
 2673 002f 10       		.sleb128 16
 2674 0030 78040000 		.4byte	.LCFI60-.Ltext0
 2675 0034 7A040000 		.4byte	.LCFI61-.Ltext0
 2676 0038 0200     		.2byte	0x2
 2677 003a 77       		.byte	0x77
 2678 003b 08       		.sleb128 8
 2679 003c 7A040000 		.4byte	.LCFI61-.Ltext0
 2680 0040 7C040000 		.4byte	.LFE31-.Ltext0
 2681 0044 0200     		.2byte	0x2
 2682 0046 7D       		.byte	0x7d
 2683 0047 08       		.sleb128 8
 2684 0048 00000000 		.4byte	0
 2685 004c 00000000 		.4byte	0
 2686              	.LLST10:
 2687 0050 18040000 		.4byte	.LFB30-.Ltext0
 2688 0054 1A040000 		.4byte	.LCFI52-.Ltext0
 2689 0058 0200     		.2byte	0x2
 2690 005a 7D       		.byte	0x7d
 2691 005b 00       		.sleb128 0
 2692 005c 1A040000 		.4byte	.LCFI52-.Ltext0
ARM GAS  G:\Users\Jaxb\AppData\Local\Temp\ccWtL94l.s 			page 53


 2693 0060 1C040000 		.4byte	.LCFI53-.Ltext0
 2694 0064 0200     		.2byte	0x2
 2695 0066 7D       		.byte	0x7d
 2696 0067 08       		.sleb128 8
 2697 0068 1C040000 		.4byte	.LCFI53-.Ltext0
 2698 006c 1E040000 		.4byte	.LCFI54-.Ltext0
 2699 0070 0200     		.2byte	0x2
 2700 0072 7D       		.byte	0x7d
 2701 0073 18       		.sleb128 24
 2702 0074 1E040000 		.4byte	.LCFI54-.Ltext0
 2703 0078 50040000 		.4byte	.LCFI55-.Ltext0
 2704 007c 0200     		.2byte	0x2
 2705 007e 77       		.byte	0x77
 2706 007f 18       		.sleb128 24
 2707 0080 50040000 		.4byte	.LCFI55-.Ltext0
 2708 0084 52040000 		.4byte	.LCFI56-.Ltext0
 2709 0088 0200     		.2byte	0x2
 2710 008a 77       		.byte	0x77
 2711 008b 08       		.sleb128 8
 2712 008c 52040000 		.4byte	.LCFI56-.Ltext0
 2713 0090 58040000 		.4byte	.LFE30-.Ltext0
 2714 0094 0200     		.2byte	0x2
 2715 0096 7D       		.byte	0x7d
 2716 0097 08       		.sleb128 8
 2717 0098 00000000 		.4byte	0
 2718 009c 00000000 		.4byte	0
 2719              	.LLST9:
 2720 00a0 E8030000 		.4byte	.LFB29-.Ltext0
 2721 00a4 EA030000 		.4byte	.LCFI47-.Ltext0
 2722 00a8 0200     		.2byte	0x2
 2723 00aa 7D       		.byte	0x7d
 2724 00ab 00       		.sleb128 0
 2725 00ac EA030000 		.4byte	.LCFI47-.Ltext0
 2726 00b0 EC030000 		.4byte	.LCFI48-.Ltext0
 2727 00b4 0200     		.2byte	0x2
 2728 00b6 7D       		.byte	0x7d
 2729 00b7 08       		.sleb128 8
 2730 00b8 EC030000 		.4byte	.LCFI48-.Ltext0
 2731 00bc EE030000 		.4byte	.LCFI49-.Ltext0
 2732 00c0 0200     		.2byte	0x2
 2733 00c2 7D       		.byte	0x7d
 2734 00c3 10       		.sleb128 16
 2735 00c4 EE030000 		.4byte	.LCFI49-.Ltext0
 2736 00c8 0E040000 		.4byte	.LCFI50-.Ltext0
 2737 00cc 0200     		.2byte	0x2
 2738 00ce 77       		.byte	0x77
 2739 00cf 10       		.sleb128 16
 2740 00d0 0E040000 		.4byte	.LCFI50-.Ltext0
 2741 00d4 10040000 		.4byte	.LCFI51-.Ltext0
 2742 00d8 0200     		.2byte	0x2
 2743 00da 77       		.byte	0x77
 2744 00db 08       		.sleb128 8
 2745 00dc 10040000 		.4byte	.LCFI51-.Ltext0
 2746 00e0 18040000 		.4byte	.LFE29-.Ltext0
 2747 00e4 0200     		.2byte	0x2
 2748 00e6 7D       		.byte	0x7d
 2749 00e7 08       		.sleb128 8
ARM GAS  G:\Users\Jaxb\AppData\Local\Temp\ccWtL94l.s 			page 54


 2750 00e8 00000000 		.4byte	0
 2751 00ec 00000000 		.4byte	0
 2752              	.LLST8:
 2753 00f0 48030000 		.4byte	.LFB28-.Ltext0
 2754 00f4 4A030000 		.4byte	.LCFI42-.Ltext0
 2755 00f8 0200     		.2byte	0x2
 2756 00fa 7D       		.byte	0x7d
 2757 00fb 00       		.sleb128 0
 2758 00fc 4A030000 		.4byte	.LCFI42-.Ltext0
 2759 0100 4C030000 		.4byte	.LCFI43-.Ltext0
 2760 0104 0200     		.2byte	0x2
 2761 0106 7D       		.byte	0x7d
 2762 0107 08       		.sleb128 8
 2763 0108 4C030000 		.4byte	.LCFI43-.Ltext0
 2764 010c 4E030000 		.4byte	.LCFI44-.Ltext0
 2765 0110 0200     		.2byte	0x2
 2766 0112 7D       		.byte	0x7d
 2767 0113 18       		.sleb128 24
 2768 0114 4E030000 		.4byte	.LCFI44-.Ltext0
 2769 0118 E0030000 		.4byte	.LCFI45-.Ltext0
 2770 011c 0200     		.2byte	0x2
 2771 011e 77       		.byte	0x77
 2772 011f 18       		.sleb128 24
 2773 0120 E0030000 		.4byte	.LCFI45-.Ltext0
 2774 0124 E2030000 		.4byte	.LCFI46-.Ltext0
 2775 0128 0200     		.2byte	0x2
 2776 012a 77       		.byte	0x77
 2777 012b 08       		.sleb128 8
 2778 012c E2030000 		.4byte	.LCFI46-.Ltext0
 2779 0130 E8030000 		.4byte	.LFE28-.Ltext0
 2780 0134 0200     		.2byte	0x2
 2781 0136 7D       		.byte	0x7d
 2782 0137 08       		.sleb128 8
 2783 0138 00000000 		.4byte	0
 2784 013c 00000000 		.4byte	0
 2785              	.LLST7:
 2786 0140 0C030000 		.4byte	.LFB27-.Ltext0
 2787 0144 0E030000 		.4byte	.LCFI37-.Ltext0
 2788 0148 0200     		.2byte	0x2
 2789 014a 7D       		.byte	0x7d
 2790 014b 00       		.sleb128 0
 2791 014c 0E030000 		.4byte	.LCFI37-.Ltext0
 2792 0150 10030000 		.4byte	.LCFI38-.Ltext0
 2793 0154 0200     		.2byte	0x2
 2794 0156 7D       		.byte	0x7d
 2795 0157 08       		.sleb128 8
 2796 0158 10030000 		.4byte	.LCFI38-.Ltext0
 2797 015c 12030000 		.4byte	.LCFI39-.Ltext0
 2798 0160 0200     		.2byte	0x2
 2799 0162 7D       		.byte	0x7d
 2800 0163 18       		.sleb128 24
 2801 0164 12030000 		.4byte	.LCFI39-.Ltext0
 2802 0168 3E030000 		.4byte	.LCFI40-.Ltext0
 2803 016c 0200     		.2byte	0x2
 2804 016e 77       		.byte	0x77
 2805 016f 18       		.sleb128 24
 2806 0170 3E030000 		.4byte	.LCFI40-.Ltext0
ARM GAS  G:\Users\Jaxb\AppData\Local\Temp\ccWtL94l.s 			page 55


 2807 0174 40030000 		.4byte	.LCFI41-.Ltext0
 2808 0178 0200     		.2byte	0x2
 2809 017a 77       		.byte	0x77
 2810 017b 08       		.sleb128 8
 2811 017c 40030000 		.4byte	.LCFI41-.Ltext0
 2812 0180 48030000 		.4byte	.LFE27-.Ltext0
 2813 0184 0200     		.2byte	0x2
 2814 0186 7D       		.byte	0x7d
 2815 0187 08       		.sleb128 8
 2816 0188 00000000 		.4byte	0
 2817 018c 00000000 		.4byte	0
 2818              	.LLST6:
 2819 0190 B4010000 		.4byte	.LFB26-.Ltext0
 2820 0194 B8010000 		.4byte	.LCFI32-.Ltext0
 2821 0198 0200     		.2byte	0x2
 2822 019a 7D       		.byte	0x7d
 2823 019b 00       		.sleb128 0
 2824 019c B8010000 		.4byte	.LCFI32-.Ltext0
 2825 01a0 BA010000 		.4byte	.LCFI33-.Ltext0
 2826 01a4 0200     		.2byte	0x2
 2827 01a6 7D       		.byte	0x7d
 2828 01a7 18       		.sleb128 24
 2829 01a8 BA010000 		.4byte	.LCFI33-.Ltext0
 2830 01ac BC010000 		.4byte	.LCFI34-.Ltext0
 2831 01b0 0300     		.2byte	0x3
 2832 01b2 7D       		.byte	0x7d
 2833 01b3 D000     		.sleb128 80
 2834 01b5 BC010000 		.4byte	.LCFI34-.Ltext0
 2835 01b9 F8020000 		.4byte	.LCFI35-.Ltext0
 2836 01bd 0300     		.2byte	0x3
 2837 01bf 77       		.byte	0x77
 2838 01c0 D000     		.sleb128 80
 2839 01c2 F8020000 		.4byte	.LCFI35-.Ltext0
 2840 01c6 FA020000 		.4byte	.LCFI36-.Ltext0
 2841 01ca 0200     		.2byte	0x2
 2842 01cc 77       		.byte	0x77
 2843 01cd 18       		.sleb128 24
 2844 01ce FA020000 		.4byte	.LCFI36-.Ltext0
 2845 01d2 0C030000 		.4byte	.LFE26-.Ltext0
 2846 01d6 0200     		.2byte	0x2
 2847 01d8 7D       		.byte	0x7d
 2848 01d9 18       		.sleb128 24
 2849 01da 00000000 		.4byte	0
 2850 01de 00000000 		.4byte	0
 2851              	.LLST5:
 2852 01e2 84010000 		.4byte	.LFB25-.Ltext0
 2853 01e6 86010000 		.4byte	.LCFI27-.Ltext0
 2854 01ea 0200     		.2byte	0x2
 2855 01ec 7D       		.byte	0x7d
 2856 01ed 00       		.sleb128 0
 2857 01ee 86010000 		.4byte	.LCFI27-.Ltext0
 2858 01f2 88010000 		.4byte	.LCFI28-.Ltext0
 2859 01f6 0200     		.2byte	0x2
 2860 01f8 7D       		.byte	0x7d
 2861 01f9 08       		.sleb128 8
 2862 01fa 88010000 		.4byte	.LCFI28-.Ltext0
 2863 01fe 8A010000 		.4byte	.LCFI29-.Ltext0
ARM GAS  G:\Users\Jaxb\AppData\Local\Temp\ccWtL94l.s 			page 56


 2864 0202 0200     		.2byte	0x2
 2865 0204 7D       		.byte	0x7d
 2866 0205 10       		.sleb128 16
 2867 0206 8A010000 		.4byte	.LCFI29-.Ltext0
 2868 020a AA010000 		.4byte	.LCFI30-.Ltext0
 2869 020e 0200     		.2byte	0x2
 2870 0210 77       		.byte	0x77
 2871 0211 10       		.sleb128 16
 2872 0212 AA010000 		.4byte	.LCFI30-.Ltext0
 2873 0216 AC010000 		.4byte	.LCFI31-.Ltext0
 2874 021a 0200     		.2byte	0x2
 2875 021c 77       		.byte	0x77
 2876 021d 08       		.sleb128 8
 2877 021e AC010000 		.4byte	.LCFI31-.Ltext0
 2878 0222 B4010000 		.4byte	.LFE25-.Ltext0
 2879 0226 0200     		.2byte	0x2
 2880 0228 7D       		.byte	0x7d
 2881 0229 08       		.sleb128 8
 2882 022a 00000000 		.4byte	0
 2883 022e 00000000 		.4byte	0
 2884              	.LLST4:
 2885 0232 F8000000 		.4byte	.LFB24-.Ltext0
 2886 0236 FA000000 		.4byte	.LCFI22-.Ltext0
 2887 023a 0200     		.2byte	0x2
 2888 023c 7D       		.byte	0x7d
 2889 023d 00       		.sleb128 0
 2890 023e FA000000 		.4byte	.LCFI22-.Ltext0
 2891 0242 FC000000 		.4byte	.LCFI23-.Ltext0
 2892 0246 0200     		.2byte	0x2
 2893 0248 7D       		.byte	0x7d
 2894 0249 08       		.sleb128 8
 2895 024a FC000000 		.4byte	.LCFI23-.Ltext0
 2896 024e FE000000 		.4byte	.LCFI24-.Ltext0
 2897 0252 0200     		.2byte	0x2
 2898 0254 7D       		.byte	0x7d
 2899 0255 20       		.sleb128 32
 2900 0256 FE000000 		.4byte	.LCFI24-.Ltext0
 2901 025a 7C010000 		.4byte	.LCFI25-.Ltext0
 2902 025e 0200     		.2byte	0x2
 2903 0260 77       		.byte	0x77
 2904 0261 20       		.sleb128 32
 2905 0262 7C010000 		.4byte	.LCFI25-.Ltext0
 2906 0266 7E010000 		.4byte	.LCFI26-.Ltext0
 2907 026a 0200     		.2byte	0x2
 2908 026c 77       		.byte	0x77
 2909 026d 08       		.sleb128 8
 2910 026e 7E010000 		.4byte	.LCFI26-.Ltext0
 2911 0272 84010000 		.4byte	.LFE24-.Ltext0
 2912 0276 0200     		.2byte	0x2
 2913 0278 7D       		.byte	0x7d
 2914 0279 08       		.sleb128 8
 2915 027a 00000000 		.4byte	0
 2916 027e 00000000 		.4byte	0
 2917              	.LLST3:
 2918 0282 B0000000 		.4byte	.LFB23-.Ltext0
 2919 0286 B2000000 		.4byte	.LCFI17-.Ltext0
 2920 028a 0200     		.2byte	0x2
ARM GAS  G:\Users\Jaxb\AppData\Local\Temp\ccWtL94l.s 			page 57


 2921 028c 7D       		.byte	0x7d
 2922 028d 00       		.sleb128 0
 2923 028e B2000000 		.4byte	.LCFI17-.Ltext0
 2924 0292 B4000000 		.4byte	.LCFI18-.Ltext0
 2925 0296 0200     		.2byte	0x2
 2926 0298 7D       		.byte	0x7d
 2927 0299 08       		.sleb128 8
 2928 029a B4000000 		.4byte	.LCFI18-.Ltext0
 2929 029e B6000000 		.4byte	.LCFI19-.Ltext0
 2930 02a2 0200     		.2byte	0x2
 2931 02a4 7D       		.byte	0x7d
 2932 02a5 18       		.sleb128 24
 2933 02a6 B6000000 		.4byte	.LCFI19-.Ltext0
 2934 02aa EC000000 		.4byte	.LCFI20-.Ltext0
 2935 02ae 0200     		.2byte	0x2
 2936 02b0 77       		.byte	0x77
 2937 02b1 18       		.sleb128 24
 2938 02b2 EC000000 		.4byte	.LCFI20-.Ltext0
 2939 02b6 EE000000 		.4byte	.LCFI21-.Ltext0
 2940 02ba 0200     		.2byte	0x2
 2941 02bc 77       		.byte	0x77
 2942 02bd 08       		.sleb128 8
 2943 02be EE000000 		.4byte	.LCFI21-.Ltext0
 2944 02c2 F8000000 		.4byte	.LFE23-.Ltext0
 2945 02c6 0200     		.2byte	0x2
 2946 02c8 7D       		.byte	0x7d
 2947 02c9 08       		.sleb128 8
 2948 02ca 00000000 		.4byte	0
 2949 02ce 00000000 		.4byte	0
 2950              	.LLST2:
 2951 02d2 40000000 		.4byte	.LFB22-.Ltext0
 2952 02d6 42000000 		.4byte	.LCFI12-.Ltext0
 2953 02da 0200     		.2byte	0x2
 2954 02dc 7D       		.byte	0x7d
 2955 02dd 00       		.sleb128 0
 2956 02de 42000000 		.4byte	.LCFI12-.Ltext0
 2957 02e2 44000000 		.4byte	.LCFI13-.Ltext0
 2958 02e6 0200     		.2byte	0x2
 2959 02e8 7D       		.byte	0x7d
 2960 02e9 08       		.sleb128 8
 2961 02ea 44000000 		.4byte	.LCFI13-.Ltext0
 2962 02ee 46000000 		.4byte	.LCFI14-.Ltext0
 2963 02f2 0200     		.2byte	0x2
 2964 02f4 7D       		.byte	0x7d
 2965 02f5 20       		.sleb128 32
 2966 02f6 46000000 		.4byte	.LCFI14-.Ltext0
 2967 02fa A0000000 		.4byte	.LCFI15-.Ltext0
 2968 02fe 0200     		.2byte	0x2
 2969 0300 77       		.byte	0x77
 2970 0301 20       		.sleb128 32
 2971 0302 A0000000 		.4byte	.LCFI15-.Ltext0
 2972 0306 A2000000 		.4byte	.LCFI16-.Ltext0
 2973 030a 0200     		.2byte	0x2
 2974 030c 77       		.byte	0x77
 2975 030d 08       		.sleb128 8
 2976 030e A2000000 		.4byte	.LCFI16-.Ltext0
 2977 0312 B0000000 		.4byte	.LFE22-.Ltext0
ARM GAS  G:\Users\Jaxb\AppData\Local\Temp\ccWtL94l.s 			page 58


 2978 0316 0200     		.2byte	0x2
 2979 0318 7D       		.byte	0x7d
 2980 0319 08       		.sleb128 8
 2981 031a 00000000 		.4byte	0
 2982 031e 00000000 		.4byte	0
 2983              	.LLST1:
 2984 0322 22000000 		.4byte	.LFB21-.Ltext0
 2985 0326 24000000 		.4byte	.LCFI6-.Ltext0
 2986 032a 0200     		.2byte	0x2
 2987 032c 7D       		.byte	0x7d
 2988 032d 00       		.sleb128 0
 2989 032e 24000000 		.4byte	.LCFI6-.Ltext0
 2990 0332 26000000 		.4byte	.LCFI7-.Ltext0
 2991 0336 0200     		.2byte	0x2
 2992 0338 7D       		.byte	0x7d
 2993 0339 04       		.sleb128 4
 2994 033a 26000000 		.4byte	.LCFI7-.Ltext0
 2995 033e 28000000 		.4byte	.LCFI8-.Ltext0
 2996 0342 0200     		.2byte	0x2
 2997 0344 7D       		.byte	0x7d
 2998 0345 10       		.sleb128 16
 2999 0346 28000000 		.4byte	.LCFI8-.Ltext0
 3000 034a 3A000000 		.4byte	.LCFI9-.Ltext0
 3001 034e 0200     		.2byte	0x2
 3002 0350 77       		.byte	0x77
 3003 0351 10       		.sleb128 16
 3004 0352 3A000000 		.4byte	.LCFI9-.Ltext0
 3005 0356 3C000000 		.4byte	.LCFI10-.Ltext0
 3006 035a 0200     		.2byte	0x2
 3007 035c 77       		.byte	0x77
 3008 035d 04       		.sleb128 4
 3009 035e 3C000000 		.4byte	.LCFI10-.Ltext0
 3010 0362 3E000000 		.4byte	.LCFI11-.Ltext0
 3011 0366 0200     		.2byte	0x2
 3012 0368 7D       		.byte	0x7d
 3013 0369 04       		.sleb128 4
 3014 036a 3E000000 		.4byte	.LCFI11-.Ltext0
 3015 036e 40000000 		.4byte	.LFE21-.Ltext0
 3016 0372 0200     		.2byte	0x2
 3017 0374 7D       		.byte	0x7d
 3018 0375 00       		.sleb128 0
 3019 0376 00000000 		.4byte	0
 3020 037a 00000000 		.4byte	0
 3021              	.LLST0:
 3022 037e 00000000 		.4byte	.LFB20-.Ltext0
 3023 0382 02000000 		.4byte	.LCFI0-.Ltext0
 3024 0386 0200     		.2byte	0x2
 3025 0388 7D       		.byte	0x7d
 3026 0389 00       		.sleb128 0
 3027 038a 02000000 		.4byte	.LCFI0-.Ltext0
 3028 038e 04000000 		.4byte	.LCFI1-.Ltext0
 3029 0392 0200     		.2byte	0x2
 3030 0394 7D       		.byte	0x7d
 3031 0395 04       		.sleb128 4
 3032 0396 04000000 		.4byte	.LCFI1-.Ltext0
 3033 039a 06000000 		.4byte	.LCFI2-.Ltext0
 3034 039e 0200     		.2byte	0x2
ARM GAS  G:\Users\Jaxb\AppData\Local\Temp\ccWtL94l.s 			page 59


 3035 03a0 7D       		.byte	0x7d
 3036 03a1 10       		.sleb128 16
 3037 03a2 06000000 		.4byte	.LCFI2-.Ltext0
 3038 03a6 1C000000 		.4byte	.LCFI3-.Ltext0
 3039 03aa 0200     		.2byte	0x2
 3040 03ac 77       		.byte	0x77
 3041 03ad 10       		.sleb128 16
 3042 03ae 1C000000 		.4byte	.LCFI3-.Ltext0
 3043 03b2 1E000000 		.4byte	.LCFI4-.Ltext0
 3044 03b6 0200     		.2byte	0x2
 3045 03b8 77       		.byte	0x77
 3046 03b9 04       		.sleb128 4
 3047 03ba 1E000000 		.4byte	.LCFI4-.Ltext0
 3048 03be 20000000 		.4byte	.LCFI5-.Ltext0
 3049 03c2 0200     		.2byte	0x2
 3050 03c4 7D       		.byte	0x7d
 3051 03c5 04       		.sleb128 4
 3052 03c6 20000000 		.4byte	.LCFI5-.Ltext0
 3053 03ca 22000000 		.4byte	.LFE20-.Ltext0
 3054 03ce 0200     		.2byte	0x2
 3055 03d0 7D       		.byte	0x7d
 3056 03d1 00       		.sleb128 0
 3057 03d2 00000000 		.4byte	0
 3058 03d6 00000000 		.4byte	0
 3059              		.section	.debug_aranges,"",%progbits
 3060 0000 1C000000 		.4byte	0x1c
 3061 0004 0200     		.2byte	0x2
 3062 0006 00000000 		.4byte	.Ldebug_info0
 3063 000a 04       		.byte	0x4
 3064 000b 00       		.byte	0
 3065 000c 0000     		.2byte	0
 3066 000e 0000     		.2byte	0
 3067 0010 00000000 		.4byte	.Ltext0
 3068 0014 7C040000 		.4byte	.Letext0-.Ltext0
 3069 0018 00000000 		.4byte	0
 3070 001c 00000000 		.4byte	0
 3071              		.section	.debug_line,"",%progbits
 3072              	.Ldebug_line0:
 3073 0000 40020000 		.section	.debug_str,"MS",%progbits,1
 3073      02006201 
 3073      00000201 
 3073      FB0E0D00 
 3073      01010101 
 3074              	.LASF25:
 3075 0000 5441534B 		.ascii	"TASK_PRIO_TYPE\000"
 3075      5F505249 
 3075      4F5F5459 
 3075      504500
 3076              	.LASF13:
 3077 000f 53544154 		.ascii	"STATE_SUSPEND_NORMAL\000"
 3077      455F5355 
 3077      5350454E 
 3077      445F4E4F 
 3077      524D414C 
 3078              	.LASF76:
 3079 0024 5F5F7274 		.ascii	"__rtmsym_clear_MCB_index_name\000"
 3079      6D73796D 
ARM GAS  G:\Users\Jaxb\AppData\Local\Temp\ccWtL94l.s 			page 60


 3079      5F636C65 
 3079      61725F4D 
 3079      43425F69 
 3080              	.LASF26:
 3081 0042 6C697374 		.ascii	"list_head\000"
 3081      5F686561 
 3081      6400
 3082              	.LASF78:
 3083 004c 4D43425F 		.ascii	"MCB_ptr\000"
 3083      70747200 
 3084              	.LASF84:
 3085 0054 74696D65 		.ascii	"time_record\000"
 3085      5F726563 
 3085      6F726400 
 3086              	.LASF71:
 3087 0060 5F5F7274 		.ascii	"__rtmsym_delete_MCB\000"
 3087      6D73796D 
 3087      5F64656C 
 3087      6574655F 
 3087      4D434200 
 3088              	.LASF50:
 3089 0074 64617461 		.ascii	"data_list_head\000"
 3089      5F6C6973 
 3089      745F6865 
 3089      616400
 3090              	.LASF1:
 3091 0083 73686F72 		.ascii	"short int\000"
 3091      7420696E 
 3091      7400
 3092              	.LASF89:
 3093 008d 5F696E69 		.ascii	"_init_MCB\000"
 3093      745F4D43 
 3093      4200
 3094              	.LASF47:
 3095 0097 6964656E 		.ascii	"identify_data\000"
 3095      74696679 
 3095      5F646174 
 3095      6100
 3096              	.LASF48:
 3097 00a5 64617461 		.ascii	"data_list\000"
 3097      5F6C6973 
 3097      7400
 3098              	.LASF16:
 3099 00af 53544154 		.ascii	"STATE_WAIT_MESSAGE_QUEUE_FOREVER\000"
 3099      455F5741 
 3099      49545F4D 
 3099      45535341 
 3099      47455F51 
 3100              	.LASF6:
 3101 00d0 55494E54 		.ascii	"UINT32\000"
 3101      333200
 3102              	.LASF24:
 3103 00d7 53544143 		.ascii	"STACK_TYPE\000"
 3103      4B5F5459 
 3103      504500
 3104              	.LASF55:
 3105 00e2 5461736B 		.ascii	"Task_State\000"
ARM GAS  G:\Users\Jaxb\AppData\Local\Temp\ccWtL94l.s 			page 61


 3105      5F537461 
 3105      746500
 3106              	.LASF18:
 3107 00ed 53544154 		.ascii	"STATE_PUT_MESSAGE_QUEUE_FOREVER\000"
 3107      455F5055 
 3107      545F4D45 
 3107      53534147 
 3107      455F5155 
 3108              	.LASF77:
 3109 010d 5F5F7274 		.ascii	"__rtmsym_clear_MCB_index\000"
 3109      6D73796D 
 3109      5F636C65 
 3109      61725F4D 
 3109      43425F69 
 3110              	.LASF58:
 3111 0126 4D43425F 		.ascii	"MCB_FLAG_NON_BLOCKING\000"
 3111      464C4147 
 3111      5F4E4F4E 
 3111      5F424C4F 
 3111      434B494E 
 3112              	.LASF96:
 3113 013c 5F636C65 		.ascii	"_clear_MCB_index\000"
 3113      61725F4D 
 3113      43425F69 
 3113      6E646578 
 3113      00
 3114              	.LASF64:
 3115 014d 6B615F6D 		.ascii	"ka_module_symtab\000"
 3115      6F64756C 
 3115      655F7379 
 3115      6D746162 
 3115      00
 3116              	.LASF93:
 3117 015e 2E2E2F2E 		.ascii	"../../source/src/kernel/OS_CORE/ipc/MCB.c\000"
 3117      2E2F736F 
 3117      75726365 
 3117      2F737263 
 3117      2F6B6572 
 3118              	.LASF30:
 3119 0188 73746163 		.ascii	"stack_end\000"
 3119      6B5F656E 
 3119      6400
 3120              	.LASF15:
 3121 0192 53544154 		.ascii	"STATE_WAIT_MCB_TIMEOUT\000"
 3121      455F5741 
 3121      49545F4D 
 3121      43425F54 
 3121      494D454F 
 3122              	.LASF88:
 3123 01a9 696E6974 		.ascii	"init_MCB\000"
 3123      5F4D4342 
 3123      00
 3124              	.LASF17:
 3125 01b2 53544154 		.ascii	"STATE_WAIT_MESSAGE_QUEUE_TIMEOUT\000"
 3125      455F5741 
 3125      49545F4D 
 3125      45535341 
ARM GAS  G:\Users\Jaxb\AppData\Local\Temp\ccWtL94l.s 			page 62


 3125      47455F51 
 3126              	.LASF94:
 3127 01d3 463A5C6B 		.ascii	"F:\\kaka\\KAKAOS\\C\\windows\\Project\\RVMDK\243\250"
 3127      616B615C 
 3127      4B414B41 
 3127      4F535C43 
 3127      5C77696E 
 3128 01fb 757635A3 		.ascii	"uv5\243\251\000"
 3128      A900
 3129              	.LASF2:
 3130 0201 6C6F6E67 		.ascii	"long long int\000"
 3130      206C6F6E 
 3130      6720696E 
 3130      7400
 3131              	.LASF38:
 3132 020f 74696D65 		.ascii	"timeslice_hope_time\000"
 3132      736C6963 
 3132      655F686F 
 3132      70655F74 
 3132      696D6500 
 3133              	.LASF45:
 3134 0223 696E7365 		.ascii	"insert_sort_data\000"
 3134      72745F73 
 3134      6F72745F 
 3134      64617461 
 3134      00
 3135              	.LASF53:
 3136 0234 6765745F 		.ascii	"get_data_ptr\000"
 3136      64617461 
 3136      5F707472 
 3136      00
 3137              	.LASF79:
 3138 0241 636C6561 		.ascii	"clear_MCB_index\000"
 3138      725F4D43 
 3138      425F696E 
 3138      64657800 
 3139              	.LASF65:
 3140 0251 61646472 		.ascii	"addr\000"
 3140      00
 3141              	.LASF75:
 3142 0256 5F5F7274 		.ascii	"__rtmsym_v\000"
 3142      6D73796D 
 3142      5F7600
 3143              	.LASF85:
 3144 0261 64656C65 		.ascii	"delete_MCB\000"
 3144      74655F4D 
 3144      434200
 3145              	.LASF21:
 3146 026c 5441534B 		.ascii	"TASK_STATE\000"
 3146      5F535441 
 3146      544500
 3147              	.LASF37:
 3148 0277 6E616D65 		.ascii	"name\000"
 3148      00
 3149              	.LASF67:
 3150 027c 4F535443 		.ascii	"OSTCBCurPtr\000"
 3150      42437572 
ARM GAS  G:\Users\Jaxb\AppData\Local\Temp\ccWtL94l.s 			page 63


 3150      50747200 
 3151              	.LASF51:
 3152 0288 64617461 		.ascii	"data_num\000"
 3152      5F6E756D 
 3152      00
 3153              	.LASF41:
 3154 0291 64796E61 		.ascii	"dynamic_module_ptr\000"
 3154      6D69635F 
 3154      6D6F6475 
 3154      6C655F70 
 3154      747200
 3155              	.LASF3:
 3156 02a4 756E7369 		.ascii	"unsigned char\000"
 3156      676E6564 
 3156      20636861 
 3156      7200
 3157              	.LASF61:
 3158 02b2 4D43425F 		.ascii	"MCB_insert_sort_list\000"
 3158      696E7365 
 3158      72745F73 
 3158      6F72745F 
 3158      6C697374 
 3159              	.LASF12:
 3160 02c7 53544154 		.ascii	"STATE_DELAY\000"
 3160      455F4445 
 3160      4C415900 
 3161              	.LASF40:
 3162 02d3 61747472 		.ascii	"attribution\000"
 3162      69627574 
 3162      696F6E00 
 3163              	.LASF87:
 3164 02df 696E7365 		.ascii	"insert_sort_data_ptr\000"
 3164      72745F73 
 3164      6F72745F 
 3164      64617461 
 3164      5F707472 
 3165              	.LASF0:
 3166 02f4 7369676E 		.ascii	"signed char\000"
 3166      65642063 
 3166      68617200 
 3167              	.LASF8:
 3168 0300 6C6F6E67 		.ascii	"long long unsigned int\000"
 3168      206C6F6E 
 3168      6720756E 
 3168      7369676E 
 3168      65642069 
 3169              	.LASF70:
 3170 0317 5F5F7274 		.ascii	"__rtmsym_delete_MCB_name\000"
 3170      6D73796D 
 3170      5F64656C 
 3170      6574655F 
 3170      4D43425F 
 3171              	.LASF73:
 3172 0330 5F5F7274 		.ascii	"__rtmsym_p\000"
 3172      6D73796D 
 3172      5F7000
 3173              	.LASF5:
ARM GAS  G:\Users\Jaxb\AppData\Local\Temp\ccWtL94l.s 			page 64


 3174 033b 756E7369 		.ascii	"unsigned int\000"
 3174      676E6564 
 3174      20696E74 
 3174      00
 3175              	.LASF28:
 3176 0348 73746163 		.ascii	"stack\000"
 3176      6B00
 3177              	.LASF56:
 3178 034e 4D43425F 		.ascii	"MCB_WAIT_FLAG\000"
 3178      57414954 
 3178      5F464C41 
 3178      4700
 3179              	.LASF35:
 3180 035c 73616D65 		.ascii	"same_prio_list\000"
 3180      5F707269 
 3180      6F5F6C69 
 3180      737400
 3181              	.LASF82:
 3182 036b 74696D65 		.ascii	"time\000"
 3182      00
 3183              	.LASF95:
 3184 0370 64796E61 		.ascii	"dynamic_module\000"
 3184      6D69635F 
 3184      6D6F6475 
 3184      6C6500
 3185              	.LASF4:
 3186 037f 73686F72 		.ascii	"short unsigned int\000"
 3186      7420756E 
 3186      7369676E 
 3186      65642069 
 3186      6E7400
 3187              	.LASF11:
 3188 0392 53544154 		.ascii	"STATE_READY\000"
 3188      455F5245 
 3188      41445900 
 3189              	.LASF54:
 3190 039e 76616C75 		.ascii	"value_cmp\000"
 3190      655F636D 
 3190      7000
 3191              	.LASF69:
 3192 03a8 5F5F7274 		.ascii	"__rtmsym_init_MCB\000"
 3192      6D73796D 
 3192      5F696E69 
 3192      745F4D43 
 3192      4200
 3193              	.LASF43:
 3194 03ba 63686172 		.ascii	"char\000"
 3194      00
 3195              	.LASF59:
 3196 03bf 4D43425F 		.ascii	"MCB_FLAG_BINARY\000"
 3196      464C4147 
 3196      5F42494E 
 3196      41525900 
 3197              	.LASF86:
 3198 03cf 5F64656C 		.ascii	"_delete_MCB\000"
 3198      6574655F 
 3198      4D434200 
ARM GAS  G:\Users\Jaxb\AppData\Local\Temp\ccWtL94l.s 			page 65


 3199              	.LASF19:
 3200 03db 53544154 		.ascii	"STATE_PUT_MESSAGE_QUEUE_TIMEOUT\000"
 3200      455F5055 
 3200      545F4D45 
 3200      53534147 
 3200      455F5155 
 3201              	.LASF22:
 3202 03fb 4350555F 		.ascii	"CPU_INT32U\000"
 3202      494E5433 
 3202      325500
 3203              	.LASF60:
 3204 0406 6D657373 		.ascii	"message_struct\000"
 3204      6167655F 
 3204      73747275 
 3204      637400
 3205              	.LASF83:
 3206 0415 64617461 		.ascii	"data\000"
 3206      00
 3207              	.LASF68:
 3208 041a 5F5F7274 		.ascii	"__rtmsym_init_MCB_name\000"
 3208      6D73796D 
 3208      5F696E69 
 3208      745F4D43 
 3208      425F6E61 
 3209              	.LASF44:
 3210 0431 69645F74 		.ascii	"id_type\000"
 3210      79706500 
 3211              	.LASF34:
 3212 0439 64656C61 		.ascii	"delay_heap_position\000"
 3212      795F6865 
 3212      61705F70 
 3212      6F736974 
 3212      696F6E00 
 3213              	.LASF32:
 3214 044d 7461736B 		.ascii	"task_state\000"
 3214      5F737461 
 3214      746500
 3215              	.LASF39:
 3216 0458 74696D65 		.ascii	"timeslice_rest_time\000"
 3216      736C6963 
 3216      655F7265 
 3216      73745F74 
 3216      696D6500 
 3217              	.LASF74:
 3218 046c 5F5F7274 		.ascii	"__rtmsym_v_name\000"
 3218      6D73796D 
 3218      5F765F6E 
 3218      616D6500 
 3219              	.LASF90:
 3220 047c 64617461 		.ascii	"data1\000"
 3220      3100
 3221              	.LASF49:
 3222 0482 696E7365 		.ascii	"insert_sort_entity\000"
 3222      72745F73 
 3222      6F72745F 
 3222      656E7469 
 3222      747900
ARM GAS  G:\Users\Jaxb\AppData\Local\Temp\ccWtL94l.s 			page 66


 3223              	.LASF14:
 3224 0495 53544154 		.ascii	"STATE_WAIT_MCB_FOREVER\000"
 3224      455F5741 
 3224      49545F4D 
 3224      43425F46 
 3224      4F524556 
 3225              	.LASF52:
 3226 04ac 636F6D70 		.ascii	"compare\000"
 3226      61726500 
 3227              	.LASF27:
 3228 04b4 7461736B 		.ascii	"task_control_block_struct\000"
 3228      5F636F6E 
 3228      74726F6C 
 3228      5F626C6F 
 3228      636B5F73 
 3229              	.LASF29:
 3230 04ce 73746163 		.ascii	"stack_size\000"
 3230      6B5F7369 
 3230      7A6500
 3231              	.LASF57:
 3232 04d9 4D43425F 		.ascii	"MCB_FLAG_WAIT\000"
 3232      464C4147 
 3232      5F574149 
 3232      5400
 3233              	.LASF81:
 3234 04e7 5443425F 		.ascii	"TCB_ptr\000"
 3234      70747200 
 3235              	.LASF31:
 3236 04ef 72657365 		.ascii	"reserve_prio\000"
 3236      7276655F 
 3236      7072696F 
 3236      00
 3237              	.LASF72:
 3238 04fc 5F5F7274 		.ascii	"__rtmsym_p_name\000"
 3238      6D73796D 
 3238      5F705F6E 
 3238      616D6500 
 3239              	.LASF36:
 3240 050c 73757370 		.ascii	"suspend_list\000"
 3240      656E645F 
 3240      6C697374 
 3240      00
 3241              	.LASF66:
 3242 0519 675F696E 		.ascii	"g_interrupt_count\000"
 3242      74657272 
 3242      7570745F 
 3242      636F756E 
 3242      7400
 3243              	.LASF80:
 3244 052b 6370755F 		.ascii	"cpu_sr\000"
 3244      737200
 3245              	.LASF92:
 3246 0532 474E5520 		.ascii	"GNU C11 7.3.1 20180622 (release) [ARM/embedded-7-br"
 3246      43313120 
 3246      372E332E 
 3246      31203230 
 3246      31383036 
ARM GAS  G:\Users\Jaxb\AppData\Local\Temp\ccWtL94l.s 			page 67


 3247 0565 616E6368 		.ascii	"anch revision 261907] -mcpu=cortex-m3 -mthumb -mapc"
 3247      20726576 
 3247      6973696F 
 3247      6E203236 
 3247      31393037 
 3248 0598 732D6672 		.ascii	"s-frame -mthumb-interwork -mcpu=cortex-m3 -mthumb -"
 3248      616D6520 
 3248      2D6D7468 
 3248      756D622D 
 3248      696E7465 
 3249 05cb 67647761 		.ascii	"gdwarf-2 -O0\000"
 3249      72662D32 
 3249      202D4F30 
 3249      00
 3250              	.LASF63:
 3251 05d8 666C6167 		.ascii	"flag\000"
 3251      00
 3252              	.LASF20:
 3253 05dd 53544154 		.ascii	"STATE_WAIT_MUTEX_FOREVER\000"
 3253      455F5741 
 3253      49545F4D 
 3253      55544558 
 3253      5F464F52 
 3254              	.LASF91:
 3255 05f6 64617461 		.ascii	"data2\000"
 3255      3200
 3256              	.LASF10:
 3257 05fc 70726576 		.ascii	"prev\000"
 3257      00
 3258              	.LASF23:
 3259 0601 4350555F 		.ascii	"CPU_SR\000"
 3259      535200
 3260              	.LASF42:
 3261 0608 64656C61 		.ascii	"delay_reach_time\000"
 3261      795F7265 
 3261      6163685F 
 3261      74696D65 
 3261      00
 3262              	.LASF62:
 3263 0619 7265736F 		.ascii	"resource_num\000"
 3263      75726365 
 3263      5F6E756D 
 3263      00
 3264              	.LASF7:
 3265 0626 55494E54 		.ascii	"UINT64\000"
 3265      363400
 3266              	.LASF33:
 3267 062d 7072696F 		.ascii	"prio\000"
 3267      00
 3268              	.LASF46:
 3269 0632 64617461 		.ascii	"data_ptr\000"
 3269      5F707472 
 3269      00
 3270              	.LASF9:
 3271 063b 6E657874 		.ascii	"next\000"
 3271      00
 3272              		.ident	"GCC: (GNU Tools for Arm Embedded Processors 7-2018-q2-update) 7.3.1 20180622 (release) [AR
ARM GAS  G:\Users\Jaxb\AppData\Local\Temp\ccWtL94l.s 			page 68


ARM GAS  G:\Users\Jaxb\AppData\Local\Temp\ccWtL94l.s 			page 69


DEFINED SYMBOLS
                            *ABS*:00000000 MCB.c
G:\Users\Jaxb\AppData\Local\Temp\ccWtL94l.s:15     .text:00000000 $t
G:\Users\Jaxb\AppData\Local\Temp\ccWtL94l.s:21     .text:00000000 compare
G:\Users\Jaxb\AppData\Local\Temp\ccWtL94l.s:72     .text:00000022 value_cmp
G:\Users\Jaxb\AppData\Local\Temp\ccWtL94l.s:115    .rodata:00000000 $d
G:\Users\Jaxb\AppData\Local\Temp\ccWtL94l.s:126    .text:00000040 _init_MCB
G:\Users\Jaxb\AppData\Local\Temp\ccWtL94l.s:208    .text:000000a4 $d
G:\Users\Jaxb\AppData\Local\Temp\ccWtL94l.s:220    .text:000000b0 $t
G:\Users\Jaxb\AppData\Local\Temp\ccWtL94l.s:227    .text:000000b0 init_MCB
G:\Users\Jaxb\AppData\Local\Temp\ccWtL94l.s:287    .text:000000f0 $d
G:\Users\Jaxb\AppData\Local\Temp\ccWtL94l.s:297    .rodata.name:00000000 __rtmsym_init_MCB_name
G:\Users\Jaxb\AppData\Local\Temp\ccWtL94l.s:294    .rodata.name:00000000 $d
G:\Users\Jaxb\AppData\Local\Temp\ccWtL94l.s:304    .RTMSymTab:00000000 __rtmsym_init_MCB
G:\Users\Jaxb\AppData\Local\Temp\ccWtL94l.s:301    .RTMSymTab:00000000 $d
G:\Users\Jaxb\AppData\Local\Temp\ccWtL94l.s:308    .text:000000f8 $t
G:\Users\Jaxb\AppData\Local\Temp\ccWtL94l.s:315    .text:000000f8 _delete_MCB
G:\Users\Jaxb\AppData\Local\Temp\ccWtL94l.s:420    .text:00000180 $d
G:\Users\Jaxb\AppData\Local\Temp\ccWtL94l.s:430    .text:00000184 $t
G:\Users\Jaxb\AppData\Local\Temp\ccWtL94l.s:437    .text:00000184 delete_MCB
G:\Users\Jaxb\AppData\Local\Temp\ccWtL94l.s:484    .text:000001b0 $d
G:\Users\Jaxb\AppData\Local\Temp\ccWtL94l.s:493    .rodata.name:0000000c __rtmsym_delete_MCB_name
G:\Users\Jaxb\AppData\Local\Temp\ccWtL94l.s:500    .RTMSymTab:00000008 __rtmsym_delete_MCB
G:\Users\Jaxb\AppData\Local\Temp\ccWtL94l.s:504    .text:000001b4 $t
G:\Users\Jaxb\AppData\Local\Temp\ccWtL94l.s:511    .text:000001b4 _p
G:\Users\Jaxb\AppData\Local\Temp\ccWtL94l.s:715    .text:00000300 $d
G:\Users\Jaxb\AppData\Local\Temp\ccWtL94l.s:726    .text:0000030c $t
G:\Users\Jaxb\AppData\Local\Temp\ccWtL94l.s:733    .text:0000030c p
G:\Users\Jaxb\AppData\Local\Temp\ccWtL94l.s:786    .text:00000344 $d
G:\Users\Jaxb\AppData\Local\Temp\ccWtL94l.s:795    .rodata.name:00000018 __rtmsym_p_name
G:\Users\Jaxb\AppData\Local\Temp\ccWtL94l.s:802    .RTMSymTab:00000010 __rtmsym_p
G:\Users\Jaxb\AppData\Local\Temp\ccWtL94l.s:806    .text:00000348 $t
G:\Users\Jaxb\AppData\Local\Temp\ccWtL94l.s:813    .text:00000348 _v
G:\Users\Jaxb\AppData\Local\Temp\ccWtL94l.s:931    .text:000003e4 $d
G:\Users\Jaxb\AppData\Local\Temp\ccWtL94l.s:940    .text:000003e8 $t
G:\Users\Jaxb\AppData\Local\Temp\ccWtL94l.s:947    .text:000003e8 v
G:\Users\Jaxb\AppData\Local\Temp\ccWtL94l.s:994    .text:00000414 $d
G:\Users\Jaxb\AppData\Local\Temp\ccWtL94l.s:1003   .rodata.name:0000001c __rtmsym_v_name
G:\Users\Jaxb\AppData\Local\Temp\ccWtL94l.s:1010   .RTMSymTab:00000018 __rtmsym_v
G:\Users\Jaxb\AppData\Local\Temp\ccWtL94l.s:1014   .text:00000418 $t
G:\Users\Jaxb\AppData\Local\Temp\ccWtL94l.s:1021   .text:00000418 _clear_MCB_index
G:\Users\Jaxb\AppData\Local\Temp\ccWtL94l.s:1080   .text:00000454 $d
G:\Users\Jaxb\AppData\Local\Temp\ccWtL94l.s:1084   .text:00000458 $t
G:\Users\Jaxb\AppData\Local\Temp\ccWtL94l.s:1091   .text:00000458 clear_MCB_index
G:\Users\Jaxb\AppData\Local\Temp\ccWtL94l.s:1141   .rodata.name:00000020 __rtmsym_clear_MCB_index_name
G:\Users\Jaxb\AppData\Local\Temp\ccWtL94l.s:1148   .RTMSymTab:00000020 __rtmsym_clear_MCB_index

UNDEFINED SYMBOLS
_ASSERT
CPU_SR_Save
init_insert_sort_entity
CPU_SR_Restore
ka_printf
g_interrupt_count
insert_sort_delete_head
_remove_from_suspend_list
_remove_from_delay_heap
ARM GAS  G:\Users\Jaxb\AppData\Local\Temp\ccWtL94l.s 			page 70


schedule
init_insert_sort_data
insert_sort_insert_into
sys_suspend
_get_tick
sys_delay
insert_sort_delete_data
OSTCBCurPtr
