ARM GAS  G:\Users\Jaxb\AppData\Local\Temp\ccqTkcFy.s 			page 1


   1              		.cpu cortex-m3
   2              		.eabi_attribute 20, 1
   3              		.eabi_attribute 21, 1
   4              		.eabi_attribute 23, 3
   5              		.eabi_attribute 24, 1
   6              		.eabi_attribute 25, 1
   7              		.eabi_attribute 26, 1
   8              		.eabi_attribute 30, 2
   9              		.eabi_attribute 34, 1
  10              		.eabi_attribute 18, 4
  11              		.file	"MCB.c"
  12              		.text
  13              	.Ltext0:
  14              		.cfi_sections	.debug_frame
  15              		.align	1
  16              		.p2align 2,,3
  17              		.syntax unified
  18              		.thumb
  19              		.thumb_func
  20              		.fpu softvfp
  21              		.type	compare, %function
  22              	compare:
  23              	.LFB12:
  24              		.file 1 "../../source/src/kernel/OS_CORE/MCB.c"
   1:../../source/src/kernel/OS_CORE/MCB.c **** #include <MCB.h>
   2:../../source/src/kernel/OS_CORE/MCB.c **** #include <os_cpu.h>
   3:../../source/src/kernel/OS_CORE/MCB.c **** #include <os_time.h>
   4:../../source/src/kernel/OS_CORE/MCB.c **** #include <myassert.h>
   5:../../source/src/kernel/OS_CORE/MCB.c **** #include <myMicroLIB.h>
   6:../../source/src/kernel/OS_CORE/MCB.c **** #include <task_state.h>
   7:../../source/src/kernel/OS_CORE/MCB.c **** #include <os_schedule.h>
   8:../../source/src/kernel/OS_CORE/MCB.c **** #include <os_suspend.h>
   9:../../source/src/kernel/OS_CORE/MCB.c **** #include <os_delay.h>
  10:../../source/src/kernel/OS_CORE/MCB.c **** 
  11:../../source/src/kernel/OS_CORE/MCB.c **** 
  12:../../source/src/kernel/OS_CORE/MCB.c **** extern TCB * OSTCBCurPtr;
  13:../../source/src/kernel/OS_CORE/MCB.c **** 
  14:../../source/src/kernel/OS_CORE/MCB.c **** inline static int compare(struct insert_sort_data *data1,struct insert_sort_data *data2)
  15:../../source/src/kernel/OS_CORE/MCB.c **** {
  25              		.loc 1 15 0
  26              		.cfi_startproc
  27              		@ args = 0, pretend = 0, frame = 0
  28              		@ frame_needed = 0, uses_anonymous_args = 0
  29              		@ link register save eliminated.
  30              	.LVL0:
  16:../../source/src/kernel/OS_CORE/MCB.c **** 	return ((TCB*)(data1->data_ptr))->prio - ((TCB*)(data2->data_ptr))->prio;
  31              		.loc 1 16 0
  32 0000 0268     		ldr	r2, [r0]
  33 0002 0B68     		ldr	r3, [r1]
  34 0004 D068     		ldr	r0, [r2, #12]
  35              	.LVL1:
  36 0006 DB68     		ldr	r3, [r3, #12]
  17:../../source/src/kernel/OS_CORE/MCB.c **** }
  37              		.loc 1 17 0
  38 0008 C01A     		subs	r0, r0, r3
  39 000a 7047     		bx	lr
  40              		.cfi_endproc
ARM GAS  G:\Users\Jaxb\AppData\Local\Temp\ccqTkcFy.s 			page 2


  41              	.LFE12:
  42              		.size	compare, .-compare
  43              		.align	1
  44              		.p2align 2,,3
  45              		.syntax unified
  46              		.thumb
  47              		.thumb_func
  48              		.fpu softvfp
  49              		.type	value_cmp, %function
  50              	value_cmp:
  51              	.LFB13:
  18:../../source/src/kernel/OS_CORE/MCB.c **** 
  19:../../source/src/kernel/OS_CORE/MCB.c **** inline static int value_cmp(void *data1,void *data2)
  20:../../source/src/kernel/OS_CORE/MCB.c **** {
  52              		.loc 1 20 0
  53              		.cfi_startproc
  54              		@ args = 0, pretend = 0, frame = 0
  55              		@ frame_needed = 0, uses_anonymous_args = 0
  56              		@ link register save eliminated.
  57              	.LVL2:
  21:../../source/src/kernel/OS_CORE/MCB.c **** 	return ((TCB*)data1)->prio - ((TCB*)data2)->prio;
  58              		.loc 1 21 0
  59 000c C068     		ldr	r0, [r0, #12]
  60              	.LVL3:
  61 000e CB68     		ldr	r3, [r1, #12]
  22:../../source/src/kernel/OS_CORE/MCB.c **** }
  62              		.loc 1 22 0
  63 0010 C01A     		subs	r0, r0, r3
  64 0012 7047     		bx	lr
  65              		.cfi_endproc
  66              	.LFE13:
  67              		.size	value_cmp, .-value_cmp
  68              		.align	1
  69              		.p2align 2,,3
  70              		.global	init_MCB
  71              		.syntax unified
  72              		.thumb
  73              		.thumb_func
  74              		.fpu softvfp
  75              		.type	init_MCB, %function
  76              	init_MCB:
  77              	.LFB14:
  23:../../source/src/kernel/OS_CORE/MCB.c **** 
  24:../../source/src/kernel/OS_CORE/MCB.c **** int
  25:../../source/src/kernel/OS_CORE/MCB.c **** init_MCB(
  26:../../source/src/kernel/OS_CORE/MCB.c **** 	MCB *MCB_ptr,
  27:../../source/src/kernel/OS_CORE/MCB.c **** 	int num,
  28:../../source/src/kernel/OS_CORE/MCB.c **** 	unsigned int flag
  29:../../source/src/kernel/OS_CORE/MCB.c **** 	)
  30:../../source/src/kernel/OS_CORE/MCB.c **** {
  78              		.loc 1 30 0
  79              		.cfi_startproc
  80              		@ args = 0, pretend = 0, frame = 0
  81              		@ frame_needed = 0, uses_anonymous_args = 0
  82              	.LVL4:
  83 0014 F8B5     		push	{r3, r4, r5, r6, r7, lr}
  84              	.LCFI0:
ARM GAS  G:\Users\Jaxb\AppData\Local\Temp\ccqTkcFy.s 			page 3


  85              		.cfi_def_cfa_offset 24
  86              		.cfi_offset 3, -24
  87              		.cfi_offset 4, -20
  88              		.cfi_offset 5, -16
  89              		.cfi_offset 6, -12
  90              		.cfi_offset 7, -8
  91              		.cfi_offset 14, -4
  92              		.loc 1 30 0
  93 0016 0E46     		mov	r6, r1
  94 0018 1546     		mov	r5, r2
  31:../../source/src/kernel/OS_CORE/MCB.c **** 	ASSERT(NULL != MCB_ptr);
  95              		.loc 1 31 0
  96 001a 0446     		mov	r4, r0
  97 001c C0B1     		cbz	r0, .L17
  98              	.LVL5:
  32:../../source/src/kernel/OS_CORE/MCB.c **** #if CONFIG_PARA_CHECK
  33:../../source/src/kernel/OS_CORE/MCB.c **** 	if(NULL == MCB_ptr)
  34:../../source/src/kernel/OS_CORE/MCB.c **** 	{
  35:../../source/src/kernel/OS_CORE/MCB.c **** 		OS_ERROR_PARA_MESSAGE_DISPLAY(init_MCB,MCB_ptr);
  36:../../source/src/kernel/OS_CORE/MCB.c **** 		return -ERROR_NULL_INPUT_PTR;
  37:../../source/src/kernel/OS_CORE/MCB.c **** 	}
  38:../../source/src/kernel/OS_CORE/MCB.c **** #endif
  39:../../source/src/kernel/OS_CORE/MCB.c **** 	CPU_SR_ALLOC();
  40:../../source/src/kernel/OS_CORE/MCB.c **** 	CPU_CRITICAL_ENTER();
  99              		.loc 1 40 0
 100 001e FFF7FEFF 		bl	CPU_SR_Save
 101              	.LVL6:
  41:../../source/src/kernel/OS_CORE/MCB.c **** 	if (g_interrupt_count > 0)
 102              		.loc 1 41 0
 103 0022 134B     		ldr	r3, .L19
  40:../../source/src/kernel/OS_CORE/MCB.c **** 	if (g_interrupt_count > 0)
 104              		.loc 1 40 0
 105 0024 0746     		mov	r7, r0
 106              	.LVL7:
 107              		.loc 1 41 0
 108 0026 1B68     		ldr	r3, [r3]
 109 0028 002B     		cmp	r3, #0
 110 002a 1BDC     		bgt	.L18
  42:../../source/src/kernel/OS_CORE/MCB.c **** 	{
  43:../../source/src/kernel/OS_CORE/MCB.c **** 		CPU_CRITICAL_EXIT();
  44:../../source/src/kernel/OS_CORE/MCB.c **** 		return -ERROR_FUN_USE_IN_INTER;
  45:../../source/src/kernel/OS_CORE/MCB.c **** 	}
  46:../../source/src/kernel/OS_CORE/MCB.c **** 	MCB_ptr->resource_num = num;
  47:../../source/src/kernel/OS_CORE/MCB.c **** 	init_insert_sort_entity(
 111              		.loc 1 47 0
 112 002c 114B     		ldr	r3, .L19+4
  46:../../source/src/kernel/OS_CORE/MCB.c **** 	init_insert_sort_entity(
 113              		.loc 1 46 0
 114 002e A661     		str	r6, [r4, #24]
 115              		.loc 1 47 0
 116 0030 0022     		movs	r2, #0
 117 0032 1149     		ldr	r1, .L19+8
 118 0034 2046     		mov	r0, r4
 119              	.LVL8:
 120 0036 FFF7FEFF 		bl	init_insert_sort_entity
 121              	.LVL9:
  48:../../source/src/kernel/OS_CORE/MCB.c **** 		&MCB_ptr->MCB_insert_sort_list,
ARM GAS  G:\Users\Jaxb\AppData\Local\Temp\ccqTkcFy.s 			page 4


  49:../../source/src/kernel/OS_CORE/MCB.c **** 		compare,
  50:../../source/src/kernel/OS_CORE/MCB.c **** 		NULL,
  51:../../source/src/kernel/OS_CORE/MCB.c **** 		value_cmp
  52:../../source/src/kernel/OS_CORE/MCB.c **** 	);
  53:../../source/src/kernel/OS_CORE/MCB.c **** 	MCB_ptr->flag = flag;
  54:../../source/src/kernel/OS_CORE/MCB.c **** 	if(MCB_type_is_binary(MCB_ptr))
 122              		.loc 1 54 0
 123 003a EB07     		lsls	r3, r5, #31
  53:../../source/src/kernel/OS_CORE/MCB.c **** 	if(MCB_type_is_binary(MCB_ptr))
 124              		.loc 1 53 0
 125 003c E561     		str	r5, [r4, #28]
 126              		.loc 1 54 0
 127 003e 02D5     		bpl	.L7
  55:../../source/src/kernel/OS_CORE/MCB.c **** 	{
  56:../../source/src/kernel/OS_CORE/MCB.c **** 		if(num)
 128              		.loc 1 56 0
 129 0040 0EB1     		cbz	r6, .L7
  57:../../source/src/kernel/OS_CORE/MCB.c **** 		{
  58:../../source/src/kernel/OS_CORE/MCB.c **** 			MCB_ptr->resource_num = 1;
 130              		.loc 1 58 0
 131 0042 0123     		movs	r3, #1
 132 0044 A361     		str	r3, [r4, #24]
 133              	.L7:
  59:../../source/src/kernel/OS_CORE/MCB.c **** 		}
  60:../../source/src/kernel/OS_CORE/MCB.c **** 	}
  61:../../source/src/kernel/OS_CORE/MCB.c **** 	CPU_CRITICAL_EXIT();
 134              		.loc 1 61 0
 135 0046 3846     		mov	r0, r7
 136 0048 FFF7FEFF 		bl	CPU_SR_Restore
 137              	.LVL10:
  62:../../source/src/kernel/OS_CORE/MCB.c **** 	return FUN_EXECUTE_SUCCESSFULLY;
 138              		.loc 1 62 0
 139 004c 0020     		movs	r0, #0
  63:../../source/src/kernel/OS_CORE/MCB.c **** }
 140              		.loc 1 63 0
 141 004e F8BD     		pop	{r3, r4, r5, r6, r7, pc}
 142              	.LVL11:
 143              	.L17:
  31:../../source/src/kernel/OS_CORE/MCB.c **** #if CONFIG_PARA_CHECK
 144              		.loc 1 31 0 discriminator 1
 145 0050 1F21     		movs	r1, #31
 146              	.LVL12:
 147 0052 0A48     		ldr	r0, .L19+12
 148              	.LVL13:
 149 0054 FFF7FEFF 		bl	_ASSERT
 150              	.LVL14:
  35:../../source/src/kernel/OS_CORE/MCB.c **** 		return -ERROR_NULL_INPUT_PTR;
 151              		.loc 1 35 0 discriminator 1
 152 0058 0948     		ldr	r0, .L19+16
 153 005a FFF7FEFF 		bl	ka_printf
 154              	.LVL15:
  36:../../source/src/kernel/OS_CORE/MCB.c **** 	}
 155              		.loc 1 36 0 discriminator 1
 156 005e 6FF0FE00 		mvn	r0, #254
 157              		.loc 1 63 0 discriminator 1
 158 0062 F8BD     		pop	{r3, r4, r5, r6, r7, pc}
 159              	.LVL16:
ARM GAS  G:\Users\Jaxb\AppData\Local\Temp\ccqTkcFy.s 			page 5


 160              	.L18:
  43:../../source/src/kernel/OS_CORE/MCB.c **** 		return -ERROR_FUN_USE_IN_INTER;
 161              		.loc 1 43 0
 162 0064 FFF7FEFF 		bl	CPU_SR_Restore
 163              	.LVL17:
  44:../../source/src/kernel/OS_CORE/MCB.c **** 	}
 164              		.loc 1 44 0
 165 0068 6FF0FC00 		mvn	r0, #252
 166              		.loc 1 63 0
 167 006c F8BD     		pop	{r3, r4, r5, r6, r7, pc}
 168              	.LVL18:
 169              	.L20:
 170 006e 00BF     		.align	2
 171              	.L19:
 172 0070 00000000 		.word	g_interrupt_count
 173 0074 00000000 		.word	value_cmp
 174 0078 00000000 		.word	compare
 175 007c 00000000 		.word	.LC0
 176 0080 28000000 		.word	.LC1
 177              		.cfi_endproc
 178              	.LFE14:
 179              		.size	init_MCB, .-init_MCB
 180              		.align	1
 181              		.p2align 2,,3
 182              		.global	delete_MCB
 183              		.syntax unified
 184              		.thumb
 185              		.thumb_func
 186              		.fpu softvfp
 187              		.type	delete_MCB, %function
 188              	delete_MCB:
 189              	.LFB15:
  64:../../source/src/kernel/OS_CORE/MCB.c **** 
  65:../../source/src/kernel/OS_CORE/MCB.c **** int delete_MCB(MCB *MCB_ptr)
  66:../../source/src/kernel/OS_CORE/MCB.c **** {
 190              		.loc 1 66 0
 191              		.cfi_startproc
 192              		@ args = 0, pretend = 0, frame = 0
 193              		@ frame_needed = 0, uses_anonymous_args = 0
 194              	.LVL19:
 195 0084 F8B5     		push	{r3, r4, r5, r6, r7, lr}
 196              	.LCFI1:
 197              		.cfi_def_cfa_offset 24
 198              		.cfi_offset 3, -24
 199              		.cfi_offset 4, -20
 200              		.cfi_offset 5, -16
 201              		.cfi_offset 6, -12
 202              		.cfi_offset 7, -8
 203              		.cfi_offset 14, -4
  67:../../source/src/kernel/OS_CORE/MCB.c **** 	ASSERT(NULL != MCB_ptr);
 204              		.loc 1 67 0
 205 0086 0546     		mov	r5, r0
 206 0088 40B3     		cbz	r0, .L34
 207              	.LVL20:
  68:../../source/src/kernel/OS_CORE/MCB.c **** #if CONFIG_PARA_CHECK
  69:../../source/src/kernel/OS_CORE/MCB.c **** 	if(NULL == MCB_ptr)
  70:../../source/src/kernel/OS_CORE/MCB.c **** 	{
ARM GAS  G:\Users\Jaxb\AppData\Local\Temp\ccqTkcFy.s 			page 6


  71:../../source/src/kernel/OS_CORE/MCB.c **** 		OS_ERROR_PARA_MESSAGE_DISPLAY(delete_MCB,MCB_ptr);
  72:../../source/src/kernel/OS_CORE/MCB.c **** 		return -ERROR_NULL_INPUT_PTR;
  73:../../source/src/kernel/OS_CORE/MCB.c **** 	}
  74:../../source/src/kernel/OS_CORE/MCB.c **** #endif
  75:../../source/src/kernel/OS_CORE/MCB.c **** 	TCB *TCB_ptr;
  76:../../source/src/kernel/OS_CORE/MCB.c **** 	CPU_SR_ALLOC();
  77:../../source/src/kernel/OS_CORE/MCB.c **** 	CPU_CRITICAL_ENTER();//enter critical
 208              		.loc 1 77 0
 209 008a FFF7FEFF 		bl	CPU_SR_Save
 210              	.LVL21:
 211 008e 0746     		mov	r7, r0
 212              	.LVL22:
  78:../../source/src/kernel/OS_CORE/MCB.c **** 	struct insert_sort_data *insert_sort_data_ptr = insert_sort_delete_head(&MCB_ptr->MCB_insert_sort_
 213              		.loc 1 78 0
 214 0090 2846     		mov	r0, r5
 215              	.LVL23:
 216 0092 FFF7FEFF 		bl	insert_sort_delete_head
 217              	.LVL24:
  79:../../source/src/kernel/OS_CORE/MCB.c **** 	while(NULL != insert_sort_data_ptr)
 218              		.loc 1 79 0
 219 0096 D0B1     		cbz	r0, .L28
  80:../../source/src/kernel/OS_CORE/MCB.c **** 	{
  81:../../source/src/kernel/OS_CORE/MCB.c **** 		TCB_ptr = (TCB *)(insert_sort_data_ptr->data_ptr);
  82:../../source/src/kernel/OS_CORE/MCB.c **** 		if(STATE_WAIT_MCB_FOREVER == TCB_ptr->task_state)
  83:../../source/src/kernel/OS_CORE/MCB.c **** 		{
  84:../../source/src/kernel/OS_CORE/MCB.c **** 			remove_from_suspend_list(TCB_ptr);
  85:../../source/src/kernel/OS_CORE/MCB.c **** 		}
  86:../../source/src/kernel/OS_CORE/MCB.c **** 		else
  87:../../source/src/kernel/OS_CORE/MCB.c **** 		{
  88:../../source/src/kernel/OS_CORE/MCB.c **** 			ASSERT(STATE_WAIT_MCB_TIMEOUT == TCB_ptr->task_state);
 220              		.loc 1 88 0
 221 0098 154E     		ldr	r6, .L35
 222 009a 10E0     		b	.L27
 223              	.LVL25:
 224              	.L24:
 225 009c 052B     		cmp	r3, #5
 226 009e 03D0     		beq	.L26
 227              		.loc 1 88 0 is_stmt 0 discriminator 1
 228 00a0 5821     		movs	r1, #88
 229 00a2 3046     		mov	r0, r6
 230              	.LVL26:
 231 00a4 FFF7FEFF 		bl	_ASSERT
 232              	.LVL27:
 233              	.L26:
  89:../../source/src/kernel/OS_CORE/MCB.c **** 			remove_from_delay_heap(TCB_ptr);
 234              		.loc 1 89 0 is_stmt 1
 235 00a8 2046     		mov	r0, r4
 236 00aa FFF7FEFF 		bl	remove_from_delay_heap
 237              	.LVL28:
 238              	.L25:
  90:../../source/src/kernel/OS_CORE/MCB.c **** 		}
  91:../../source/src/kernel/OS_CORE/MCB.c **** 		set_bad_state(TCB_ptr);
 239              		.loc 1 91 0
 240 00ae A36B     		ldr	r3, [r4, #56]
  92:../../source/src/kernel/OS_CORE/MCB.c **** 		insert_sort_data_ptr = insert_sort_delete_head(&MCB_ptr->MCB_insert_sort_list);
 241              		.loc 1 92 0
 242 00b0 2846     		mov	r0, r5
ARM GAS  G:\Users\Jaxb\AppData\Local\Temp\ccqTkcFy.s 			page 7


  91:../../source/src/kernel/OS_CORE/MCB.c **** 		insert_sort_data_ptr = insert_sort_delete_head(&MCB_ptr->MCB_insert_sort_list);
 243              		.loc 1 91 0
 244 00b2 43F00203 		orr	r3, r3, #2
 245 00b6 A363     		str	r3, [r4, #56]
 246              		.loc 1 92 0
 247 00b8 FFF7FEFF 		bl	insert_sort_delete_head
 248              	.LVL29:
  79:../../source/src/kernel/OS_CORE/MCB.c **** 	{
 249              		.loc 1 79 0
 250 00bc 38B1     		cbz	r0, .L28
 251              	.LVL30:
 252              	.L27:
  81:../../source/src/kernel/OS_CORE/MCB.c **** 		if(STATE_WAIT_MCB_FOREVER == TCB_ptr->task_state)
 253              		.loc 1 81 0
 254 00be 0468     		ldr	r4, [r0]
 255              	.LVL31:
  82:../../source/src/kernel/OS_CORE/MCB.c **** 		{
 256              		.loc 1 82 0
 257 00c0 237D     		ldrb	r3, [r4, #20]	@ zero_extendqisi2
 258 00c2 042B     		cmp	r3, #4
 259 00c4 EAD1     		bne	.L24
  84:../../source/src/kernel/OS_CORE/MCB.c **** 		}
 260              		.loc 1 84 0
 261 00c6 2046     		mov	r0, r4
 262              	.LVL32:
 263 00c8 FFF7FEFF 		bl	remove_from_suspend_list
 264              	.LVL33:
 265 00cc EFE7     		b	.L25
 266              	.LVL34:
 267              	.L28:
  93:../../source/src/kernel/OS_CORE/MCB.c **** 	}
  94:../../source/src/kernel/OS_CORE/MCB.c **** 	schedule();
 268              		.loc 1 94 0
 269 00ce FFF7FEFF 		bl	schedule
 270              	.LVL35:
  95:../../source/src/kernel/OS_CORE/MCB.c **** 	CPU_CRITICAL_EXIT();
 271              		.loc 1 95 0
 272 00d2 3846     		mov	r0, r7
 273 00d4 FFF7FEFF 		bl	CPU_SR_Restore
 274              	.LVL36:
  96:../../source/src/kernel/OS_CORE/MCB.c **** 	return FUN_EXECUTE_SUCCESSFULLY;
 275              		.loc 1 96 0
 276 00d8 0020     		movs	r0, #0
  97:../../source/src/kernel/OS_CORE/MCB.c **** }
 277              		.loc 1 97 0
 278 00da F8BD     		pop	{r3, r4, r5, r6, r7, pc}
 279              	.LVL37:
 280              	.L34:
  67:../../source/src/kernel/OS_CORE/MCB.c **** #if CONFIG_PARA_CHECK
 281              		.loc 1 67 0 discriminator 1
 282 00dc 4321     		movs	r1, #67
 283 00de 0448     		ldr	r0, .L35
 284              	.LVL38:
 285 00e0 FFF7FEFF 		bl	_ASSERT
 286              	.LVL39:
  71:../../source/src/kernel/OS_CORE/MCB.c **** 		return -ERROR_NULL_INPUT_PTR;
 287              		.loc 1 71 0 discriminator 1
ARM GAS  G:\Users\Jaxb\AppData\Local\Temp\ccqTkcFy.s 			page 8


 288 00e4 0348     		ldr	r0, .L35+4
 289 00e6 FFF7FEFF 		bl	ka_printf
 290              	.LVL40:
  72:../../source/src/kernel/OS_CORE/MCB.c **** 	}
 291              		.loc 1 72 0 discriminator 1
 292 00ea 6FF0FE00 		mvn	r0, #254
 293              		.loc 1 97 0 discriminator 1
 294 00ee F8BD     		pop	{r3, r4, r5, r6, r7, pc}
 295              	.LVL41:
 296              	.L36:
 297              		.align	2
 298              	.L35:
 299 00f0 00000000 		.word	.LC0
 300 00f4 58000000 		.word	.LC2
 301              		.cfi_endproc
 302              	.LFE15:
 303              		.size	delete_MCB, .-delete_MCB
 304              		.align	1
 305              		.p2align 2,,3
 306              		.global	p
 307              		.syntax unified
 308              		.thumb
 309              		.thumb_func
 310              		.fpu softvfp
 311              		.type	p, %function
 312              	p:
 313              	.LFB16:
  98:../../source/src/kernel/OS_CORE/MCB.c **** 
  99:../../source/src/kernel/OS_CORE/MCB.c **** int 
 100:../../source/src/kernel/OS_CORE/MCB.c **** p(
 101:../../source/src/kernel/OS_CORE/MCB.c **** 	MCB *MCB_ptr,
 102:../../source/src/kernel/OS_CORE/MCB.c **** 	MCB_WAIT_FLAG flag,
 103:../../source/src/kernel/OS_CORE/MCB.c **** 	unsigned int time
 104:../../source/src/kernel/OS_CORE/MCB.c **** )
 105:../../source/src/kernel/OS_CORE/MCB.c **** {
 314              		.loc 1 105 0
 315              		.cfi_startproc
 316              		@ args = 0, pretend = 0, frame = 24
 317              		@ frame_needed = 0, uses_anonymous_args = 0
 318              	.LVL42:
 319 00f8 2DE9F04F 		push	{r4, r5, r6, r7, r8, r9, r10, fp, lr}
 320              	.LCFI2:
 321              		.cfi_def_cfa_offset 36
 322              		.cfi_offset 4, -36
 323              		.cfi_offset 5, -32
 324              		.cfi_offset 6, -28
 325              		.cfi_offset 7, -24
 326              		.cfi_offset 8, -20
 327              		.cfi_offset 9, -16
 328              		.cfi_offset 10, -12
 329              		.cfi_offset 11, -8
 330              		.cfi_offset 14, -4
 331 00fc 0D46     		mov	r5, r1
 332 00fe 87B0     		sub	sp, sp, #28
 333              	.LCFI3:
 334              		.cfi_def_cfa_offset 64
 335              		.loc 1 105 0
ARM GAS  G:\Users\Jaxb\AppData\Local\Temp\ccqTkcFy.s 			page 9


 336 0100 1746     		mov	r7, r2
 106:../../source/src/kernel/OS_CORE/MCB.c **** 	ASSERT(NULL != MCB_ptr);
 337              		.loc 1 106 0
 338 0102 0446     		mov	r4, r0
 339 0104 0028     		cmp	r0, #0
 340 0106 55D0     		beq	.L49
 341              	.LVL43:
 107:../../source/src/kernel/OS_CORE/MCB.c **** #if CONFIG_PARA_CHECK
 108:../../source/src/kernel/OS_CORE/MCB.c **** 	if(NULL == MCB_ptr)
 109:../../source/src/kernel/OS_CORE/MCB.c **** 	{
 110:../../source/src/kernel/OS_CORE/MCB.c **** 		OS_ERROR_PARA_MESSAGE_DISPLAY(p,MCB_ptr);
 111:../../source/src/kernel/OS_CORE/MCB.c **** 		return -ERROR_NULL_INPUT_PTR;
 112:../../source/src/kernel/OS_CORE/MCB.c **** 	}
 113:../../source/src/kernel/OS_CORE/MCB.c **** #endif
 114:../../source/src/kernel/OS_CORE/MCB.c **** 	CPU_SR_ALLOC();
 115:../../source/src/kernel/OS_CORE/MCB.c **** 	CPU_CRITICAL_ENTER();//enter critical
 342              		.loc 1 115 0
 343 0108 FFF7FEFF 		bl	CPU_SR_Save
 344              	.LVL44:
 116:../../source/src/kernel/OS_CORE/MCB.c **** 	
 117:../../source/src/kernel/OS_CORE/MCB.c **** 	if (g_interrupt_count > 0)
 345              		.loc 1 117 0
 346 010c 384B     		ldr	r3, .L54
 115:../../source/src/kernel/OS_CORE/MCB.c **** 	
 347              		.loc 1 115 0
 348 010e 0646     		mov	r6, r0
 349              	.LVL45:
 350              		.loc 1 117 0
 351 0110 1B68     		ldr	r3, [r3]
 352 0112 002B     		cmp	r3, #0
 353 0114 5ADC     		bgt	.L50
 118:../../source/src/kernel/OS_CORE/MCB.c **** 	{
 119:../../source/src/kernel/OS_CORE/MCB.c **** 		CPU_CRITICAL_EXIT();
 120:../../source/src/kernel/OS_CORE/MCB.c **** 		return -ERROR_FUN_USE_IN_INTER;
 121:../../source/src/kernel/OS_CORE/MCB.c **** 	}
 122:../../source/src/kernel/OS_CORE/MCB.c **** 
 123:../../source/src/kernel/OS_CORE/MCB.c **** 	if((flag ==  MCB_FLAG_NON_BLOCKING) && (MCB_ptr->resource_num <= 0))
 354              		.loc 1 123 0
 355 0116 012D     		cmp	r5, #1
 356 0118 A369     		ldr	r3, [r4, #24]
 357 011a 3AD0     		beq	.L51
 358              	.L40:
 124:../../source/src/kernel/OS_CORE/MCB.c **** 	{
 125:../../source/src/kernel/OS_CORE/MCB.c **** 		CPU_CRITICAL_EXIT();
 126:../../source/src/kernel/OS_CORE/MCB.c **** 		return -MCB_OUT_OF_RESOURCE;
 127:../../source/src/kernel/OS_CORE/MCB.c **** 	}
 128:../../source/src/kernel/OS_CORE/MCB.c **** 
 129:../../source/src/kernel/OS_CORE/MCB.c **** 	--(MCB_ptr->resource_num);
 359              		.loc 1 129 0
 360 011c 013B     		subs	r3, r3, #1
 130:../../source/src/kernel/OS_CORE/MCB.c **** 	if(MCB_ptr->resource_num >= 0)
 361              		.loc 1 130 0
 362 011e 002B     		cmp	r3, #0
 129:../../source/src/kernel/OS_CORE/MCB.c **** 	if(MCB_ptr->resource_num >= 0)
 363              		.loc 1 129 0
 364 0120 A361     		str	r3, [r4, #24]
 365              		.loc 1 130 0
ARM GAS  G:\Users\Jaxb\AppData\Local\Temp\ccqTkcFy.s 			page 10


 366 0122 06DB     		blt	.L41
 367              	.LVL46:
 368              	.L48:
 131:../../source/src/kernel/OS_CORE/MCB.c **** 	{
 132:../../source/src/kernel/OS_CORE/MCB.c **** 		CPU_CRITICAL_EXIT();
 369              		.loc 1 132 0
 370 0124 3046     		mov	r0, r6
 371 0126 FFF7FEFF 		bl	CPU_SR_Restore
 372              	.LVL47:
 133:../../source/src/kernel/OS_CORE/MCB.c **** 		return FUN_EXECUTE_SUCCESSFULLY;
 373              		.loc 1 133 0
 374 012a 0020     		movs	r0, #0
 375              	.L37:
 134:../../source/src/kernel/OS_CORE/MCB.c **** 	}
 135:../../source/src/kernel/OS_CORE/MCB.c **** 
 136:../../source/src/kernel/OS_CORE/MCB.c **** //the following program is used to deal with FLAG_WAIT && MCB_OUT_OF_RESOURCE
 137:../../source/src/kernel/OS_CORE/MCB.c **** 	DECLEAR_INSERT_SORT_DATA(data);
 138:../../source/src/kernel/OS_CORE/MCB.c **** 	init_insert_sort_data(&data,OSTCBCurPtr);
 139:../../source/src/kernel/OS_CORE/MCB.c **** 	insert_sort_insert_into(&data,&MCB_ptr->MCB_insert_sort_list);
 140:../../source/src/kernel/OS_CORE/MCB.c **** 	if(time == 0)//0 represent forever
 141:../../source/src/kernel/OS_CORE/MCB.c **** 	{
 142:../../source/src/kernel/OS_CORE/MCB.c **** 		CPU_CRITICAL_EXIT(); //exit  critical
 143:../../source/src/kernel/OS_CORE/MCB.c **** 		sys_suspend(STATE_WAIT_MCB_FOREVER);
 144:../../source/src/kernel/OS_CORE/MCB.c **** 		//go back here=========go back here
 145:../../source/src/kernel/OS_CORE/MCB.c **** 		CPU_CRITICAL_ENTER();//enter critical
 146:../../source/src/kernel/OS_CORE/MCB.c **** 	}
 147:../../source/src/kernel/OS_CORE/MCB.c **** 	else
 148:../../source/src/kernel/OS_CORE/MCB.c **** 	{
 149:../../source/src/kernel/OS_CORE/MCB.c **** 		UINT64 time_record = get_tick();
 150:../../source/src/kernel/OS_CORE/MCB.c **** 		CPU_CRITICAL_EXIT(); //exit  critical
 151:../../source/src/kernel/OS_CORE/MCB.c **** 		sys_delay(time,STATE_WAIT_MCB_TIMEOUT);
 152:../../source/src/kernel/OS_CORE/MCB.c **** 		//go back here=========go back here
 153:../../source/src/kernel/OS_CORE/MCB.c **** 		CPU_CRITICAL_ENTER();//enter critical
 154:../../source/src/kernel/OS_CORE/MCB.c **** 		if(get_tick() >= (time_record + time))//prove that timeout happened
 155:../../source/src/kernel/OS_CORE/MCB.c **** 		{
 156:../../source/src/kernel/OS_CORE/MCB.c **** 			++(MCB_ptr->resource_num);
 157:../../source/src/kernel/OS_CORE/MCB.c **** 			insert_sort_delete_data(&MCB_ptr->MCB_insert_sort_list,OSTCBCurPtr);
 158:../../source/src/kernel/OS_CORE/MCB.c **** 			CPU_CRITICAL_EXIT(); //exit  critical
 159:../../source/src/kernel/OS_CORE/MCB.c **** 			return -MCB_OUT_OF_TIME;
 160:../../source/src/kernel/OS_CORE/MCB.c **** 		}
 161:../../source/src/kernel/OS_CORE/MCB.c **** 	}
 162:../../source/src/kernel/OS_CORE/MCB.c **** 	if(TCB_state_is_bad(OSTCBCurPtr))
 163:../../source/src/kernel/OS_CORE/MCB.c **** 	{
 164:../../source/src/kernel/OS_CORE/MCB.c **** 		clear_bad_state(OSTCBCurPtr);
 165:../../source/src/kernel/OS_CORE/MCB.c **** 		CPU_CRITICAL_EXIT(); //exit  critical
 166:../../source/src/kernel/OS_CORE/MCB.c **** 		return -ERROR_MODULE_DELETED;
 167:../../source/src/kernel/OS_CORE/MCB.c **** 	}
 168:../../source/src/kernel/OS_CORE/MCB.c **** 	CPU_CRITICAL_EXIT(); //exit  critical
 169:../../source/src/kernel/OS_CORE/MCB.c **** 	return FUN_EXECUTE_SUCCESSFULLY;
 170:../../source/src/kernel/OS_CORE/MCB.c **** }
 376              		.loc 1 170 0
 377 012c 07B0     		add	sp, sp, #28
 378              	.LCFI4:
 379              		.cfi_remember_state
 380              		.cfi_def_cfa_offset 36
 381              		@ sp needed
 382 012e BDE8F08F 		pop	{r4, r5, r6, r7, r8, r9, r10, fp, pc}
ARM GAS  G:\Users\Jaxb\AppData\Local\Temp\ccqTkcFy.s 			page 11


 383              	.LVL48:
 384              	.L41:
 385              	.LCFI5:
 386              		.cfi_restore_state
 138:../../source/src/kernel/OS_CORE/MCB.c **** 	insert_sort_insert_into(&data,&MCB_ptr->MCB_insert_sort_list);
 387              		.loc 1 138 0
 388 0132 304D     		ldr	r5, .L54+4
 389 0134 6846     		mov	r0, sp
 390              	.LVL49:
 391 0136 2968     		ldr	r1, [r5]
 392 0138 FFF7FEFF 		bl	init_insert_sort_data
 393              	.LVL50:
 139:../../source/src/kernel/OS_CORE/MCB.c **** 	if(time == 0)//0 represent forever
 394              		.loc 1 139 0
 395 013c 2146     		mov	r1, r4
 396 013e 6846     		mov	r0, sp
 397 0140 FFF7FEFF 		bl	insert_sort_insert_into
 398              	.LVL51:
 140:../../source/src/kernel/OS_CORE/MCB.c **** 	{
 399              		.loc 1 140 0
 400 0144 67B3     		cbz	r7, .L52
 401              	.LBB2:
 149:../../source/src/kernel/OS_CORE/MCB.c **** 		CPU_CRITICAL_EXIT(); //exit  critical
 402              		.loc 1 149 0
 403 0146 FFF7FEFF 		bl	get_tick
 404              	.LVL52:
 405 014a 8246     		mov	r10, r0
 150:../../source/src/kernel/OS_CORE/MCB.c **** 		sys_delay(time,STATE_WAIT_MCB_TIMEOUT);
 406              		.loc 1 150 0
 407 014c 3046     		mov	r0, r6
 149:../../source/src/kernel/OS_CORE/MCB.c **** 		CPU_CRITICAL_EXIT(); //exit  critical
 408              		.loc 1 149 0
 409 014e 8B46     		mov	fp, r1
 410              	.LVL53:
 150:../../source/src/kernel/OS_CORE/MCB.c **** 		sys_delay(time,STATE_WAIT_MCB_TIMEOUT);
 411              		.loc 1 150 0
 412 0150 FFF7FEFF 		bl	CPU_SR_Restore
 413              	.LVL54:
 151:../../source/src/kernel/OS_CORE/MCB.c **** 		//go back here=========go back here
 414              		.loc 1 151 0
 415 0154 0521     		movs	r1, #5
 416 0156 3846     		mov	r0, r7
 417 0158 FFF7FEFF 		bl	sys_delay
 418              	.LVL55:
 153:../../source/src/kernel/OS_CORE/MCB.c **** 		if(get_tick() >= (time_record + time))//prove that timeout happened
 419              		.loc 1 153 0
 420 015c FFF7FEFF 		bl	CPU_SR_Save
 421              	.LVL56:
 422 0160 0646     		mov	r6, r0
 423              	.LVL57:
 154:../../source/src/kernel/OS_CORE/MCB.c **** 		{
 424              		.loc 1 154 0
 425 0162 FFF7FEFF 		bl	get_tick
 426              	.LVL58:
 427 0166 1AEB0708 		adds	r8, r10, r7
 428 016a 4BF10009 		adc	r9, fp, #0
 429 016e 4945     		cmp	r1, r9
ARM GAS  G:\Users\Jaxb\AppData\Local\Temp\ccqTkcFy.s 			page 12


 430 0170 08BF     		it	eq
 431 0172 4045     		cmpeq	r0, r8
 432 0174 2FD2     		bcs	.L53
 433              	.LVL59:
 434              	.L43:
 435              	.LBE2:
 162:../../source/src/kernel/OS_CORE/MCB.c **** 	{
 436              		.loc 1 162 0
 437 0176 2A68     		ldr	r2, [r5]
 438 0178 936B     		ldr	r3, [r2, #56]
 439 017a 13F00204 		ands	r4, r3, #2
 440              	.LVL60:
 441 017e D1D0     		beq	.L48
 164:../../source/src/kernel/OS_CORE/MCB.c **** 		CPU_CRITICAL_EXIT(); //exit  critical
 442              		.loc 1 164 0
 443 0180 23F00203 		bic	r3, r3, #2
 165:../../source/src/kernel/OS_CORE/MCB.c **** 		return -ERROR_MODULE_DELETED;
 444              		.loc 1 165 0
 445 0184 3046     		mov	r0, r6
 164:../../source/src/kernel/OS_CORE/MCB.c **** 		CPU_CRITICAL_EXIT(); //exit  critical
 446              		.loc 1 164 0
 447 0186 9363     		str	r3, [r2, #56]
 165:../../source/src/kernel/OS_CORE/MCB.c **** 		return -ERROR_MODULE_DELETED;
 448              		.loc 1 165 0
 449 0188 FFF7FEFF 		bl	CPU_SR_Restore
 450              	.LVL61:
 166:../../source/src/kernel/OS_CORE/MCB.c **** 	}
 451              		.loc 1 166 0
 452 018c 6FF0F900 		mvn	r0, #249
 453 0190 CCE7     		b	.L37
 454              	.LVL62:
 455              	.L51:
 123:../../source/src/kernel/OS_CORE/MCB.c **** 	{
 456              		.loc 1 123 0 discriminator 1
 457 0192 002B     		cmp	r3, #0
 458 0194 C2DC     		bgt	.L40
 125:../../source/src/kernel/OS_CORE/MCB.c **** 		return -MCB_OUT_OF_RESOURCE;
 459              		.loc 1 125 0
 460 0196 FFF7FEFF 		bl	CPU_SR_Restore
 461              	.LVL63:
 126:../../source/src/kernel/OS_CORE/MCB.c **** 	}
 462              		.loc 1 126 0
 463 019a 4FF0FF30 		mov	r0, #-1
 464 019e C5E7     		b	.L37
 465              	.L52:
 142:../../source/src/kernel/OS_CORE/MCB.c **** 		sys_suspend(STATE_WAIT_MCB_FOREVER);
 466              		.loc 1 142 0
 467 01a0 3046     		mov	r0, r6
 468 01a2 FFF7FEFF 		bl	CPU_SR_Restore
 469              	.LVL64:
 143:../../source/src/kernel/OS_CORE/MCB.c **** 		//go back here=========go back here
 470              		.loc 1 143 0
 471 01a6 0420     		movs	r0, #4
 472 01a8 FFF7FEFF 		bl	sys_suspend
 473              	.LVL65:
 145:../../source/src/kernel/OS_CORE/MCB.c **** 	}
 474              		.loc 1 145 0
ARM GAS  G:\Users\Jaxb\AppData\Local\Temp\ccqTkcFy.s 			page 13


 475 01ac FFF7FEFF 		bl	CPU_SR_Save
 476              	.LVL66:
 477 01b0 0646     		mov	r6, r0
 478              	.LVL67:
 479 01b2 E0E7     		b	.L43
 480              	.LVL68:
 481              	.L49:
 106:../../source/src/kernel/OS_CORE/MCB.c **** #if CONFIG_PARA_CHECK
 482              		.loc 1 106 0 discriminator 1
 483 01b4 6A21     		movs	r1, #106
 484              	.LVL69:
 485 01b6 1048     		ldr	r0, .L54+8
 486              	.LVL70:
 487 01b8 FFF7FEFF 		bl	_ASSERT
 488              	.LVL71:
 110:../../source/src/kernel/OS_CORE/MCB.c **** 		return -ERROR_NULL_INPUT_PTR;
 489              		.loc 1 110 0 discriminator 1
 490 01bc 0F48     		ldr	r0, .L54+12
 491 01be FFF7FEFF 		bl	ka_printf
 492              	.LVL72:
 111:../../source/src/kernel/OS_CORE/MCB.c **** 	}
 493              		.loc 1 111 0 discriminator 1
 494 01c2 6FF0FE00 		mvn	r0, #254
 495              		.loc 1 170 0 discriminator 1
 496 01c6 07B0     		add	sp, sp, #28
 497              	.LCFI6:
 498              		.cfi_remember_state
 499              		.cfi_def_cfa_offset 36
 500              		@ sp needed
 501 01c8 BDE8F08F 		pop	{r4, r5, r6, r7, r8, r9, r10, fp, pc}
 502              	.LVL73:
 503              	.L50:
 504              	.LCFI7:
 505              		.cfi_restore_state
 119:../../source/src/kernel/OS_CORE/MCB.c **** 		return -ERROR_FUN_USE_IN_INTER;
 506              		.loc 1 119 0
 507 01cc FFF7FEFF 		bl	CPU_SR_Restore
 508              	.LVL74:
 120:../../source/src/kernel/OS_CORE/MCB.c **** 	}
 509              		.loc 1 120 0
 510 01d0 6FF0FC00 		mvn	r0, #252
 511 01d4 AAE7     		b	.L37
 512              	.LVL75:
 513              	.L53:
 514              	.LBB3:
 156:../../source/src/kernel/OS_CORE/MCB.c **** 			insert_sort_delete_data(&MCB_ptr->MCB_insert_sort_list,OSTCBCurPtr);
 515              		.loc 1 156 0
 516 01d6 A369     		ldr	r3, [r4, #24]
 157:../../source/src/kernel/OS_CORE/MCB.c **** 			CPU_CRITICAL_EXIT(); //exit  critical
 517              		.loc 1 157 0
 518 01d8 2968     		ldr	r1, [r5]
 156:../../source/src/kernel/OS_CORE/MCB.c **** 			insert_sort_delete_data(&MCB_ptr->MCB_insert_sort_list,OSTCBCurPtr);
 519              		.loc 1 156 0
 520 01da 0133     		adds	r3, r3, #1
 521 01dc A361     		str	r3, [r4, #24]
 157:../../source/src/kernel/OS_CORE/MCB.c **** 			CPU_CRITICAL_EXIT(); //exit  critical
 522              		.loc 1 157 0
ARM GAS  G:\Users\Jaxb\AppData\Local\Temp\ccqTkcFy.s 			page 14


 523 01de 2046     		mov	r0, r4
 524 01e0 FFF7FEFF 		bl	insert_sort_delete_data
 525              	.LVL76:
 158:../../source/src/kernel/OS_CORE/MCB.c **** 			return -MCB_OUT_OF_TIME;
 526              		.loc 1 158 0
 527 01e4 3046     		mov	r0, r6
 528 01e6 FFF7FEFF 		bl	CPU_SR_Restore
 529              	.LVL77:
 159:../../source/src/kernel/OS_CORE/MCB.c **** 		}
 530              		.loc 1 159 0
 531 01ea 6FF00100 		mvn	r0, #1
 532 01ee 9DE7     		b	.L37
 533              	.L55:
 534              		.align	2
 535              	.L54:
 536 01f0 00000000 		.word	g_interrupt_count
 537 01f4 00000000 		.word	OSTCBCurPtr
 538 01f8 00000000 		.word	.LC0
 539 01fc 8C000000 		.word	.LC3
 540              	.LBE3:
 541              		.cfi_endproc
 542              	.LFE16:
 543              		.size	p, .-p
 544              		.align	1
 545              		.p2align 2,,3
 546              		.global	v
 547              		.syntax unified
 548              		.thumb
 549              		.thumb_func
 550              		.fpu softvfp
 551              		.type	v, %function
 552              	v:
 553              	.LFB17:
 171:../../source/src/kernel/OS_CORE/MCB.c **** 
 172:../../source/src/kernel/OS_CORE/MCB.c **** 
 173:../../source/src/kernel/OS_CORE/MCB.c **** int 
 174:../../source/src/kernel/OS_CORE/MCB.c **** v(MCB *MCB_ptr)
 175:../../source/src/kernel/OS_CORE/MCB.c **** {
 554              		.loc 1 175 0
 555              		.cfi_startproc
 556              		@ args = 0, pretend = 0, frame = 0
 557              		@ frame_needed = 0, uses_anonymous_args = 0
 558              	.LVL78:
 559 0200 38B5     		push	{r3, r4, r5, lr}
 560              	.LCFI8:
 561              		.cfi_def_cfa_offset 16
 562              		.cfi_offset 3, -16
 563              		.cfi_offset 4, -12
 564              		.cfi_offset 5, -8
 565              		.cfi_offset 14, -4
 176:../../source/src/kernel/OS_CORE/MCB.c **** 	ASSERT(NULL != MCB_ptr);
 566              		.loc 1 176 0
 567 0202 0446     		mov	r4, r0
 568 0204 60B3     		cbz	r0, .L72
 569              	.LVL79:
 177:../../source/src/kernel/OS_CORE/MCB.c **** #if CONFIG_PARA_CHECK
 178:../../source/src/kernel/OS_CORE/MCB.c **** 	if(NULL == MCB_ptr)
ARM GAS  G:\Users\Jaxb\AppData\Local\Temp\ccqTkcFy.s 			page 15


 179:../../source/src/kernel/OS_CORE/MCB.c **** 	{
 180:../../source/src/kernel/OS_CORE/MCB.c **** 		OS_ERROR_PARA_MESSAGE_DISPLAY(v,MCB_ptr);
 181:../../source/src/kernel/OS_CORE/MCB.c **** 		return ERROR_NULL_INPUT_PTR;
 182:../../source/src/kernel/OS_CORE/MCB.c **** 	}
 183:../../source/src/kernel/OS_CORE/MCB.c **** #endif
 184:../../source/src/kernel/OS_CORE/MCB.c ****   	CPU_SR_ALLOC();
 185:../../source/src/kernel/OS_CORE/MCB.c **** 	CPU_CRITICAL_ENTER();//enter critical
 570              		.loc 1 185 0
 571 0206 FFF7FEFF 		bl	CPU_SR_Save
 572              	.LVL80:
 186:../../source/src/kernel/OS_CORE/MCB.c **** 	if((++(MCB_ptr->resource_num) > 1) && MCB_type_is_binary(MCB_ptr))
 573              		.loc 1 186 0
 574 020a A369     		ldr	r3, [r4, #24]
 185:../../source/src/kernel/OS_CORE/MCB.c **** 	if((++(MCB_ptr->resource_num) > 1) && MCB_type_is_binary(MCB_ptr))
 575              		.loc 1 185 0
 576 020c 0546     		mov	r5, r0
 577              	.LVL81:
 578              		.loc 1 186 0
 579 020e 0133     		adds	r3, r3, #1
 580 0210 012B     		cmp	r3, #1
 581 0212 A361     		str	r3, [r4, #24]
 582 0214 0BDD     		ble	.L73
 583              		.loc 1 186 0 is_stmt 0 discriminator 1
 584 0216 E269     		ldr	r2, [r4, #28]
 585 0218 D207     		lsls	r2, r2, #31
 586 021a 03D5     		bpl	.L59
 187:../../source/src/kernel/OS_CORE/MCB.c **** 	{
 188:../../source/src/kernel/OS_CORE/MCB.c **** 		ASSERT(2 == MCB_ptr->resource_num);
 587              		.loc 1 188 0 is_stmt 1
 588 021c 022B     		cmp	r3, #2
 589 021e 18D1     		bne	.L74
 189:../../source/src/kernel/OS_CORE/MCB.c **** 		MCB_ptr->resource_num = 1;
 590              		.loc 1 189 0
 591 0220 0123     		movs	r3, #1
 592 0222 A361     		str	r3, [r4, #24]
 593              	.LVL82:
 594              	.L59:
 190:../../source/src/kernel/OS_CORE/MCB.c **** 	}
 191:../../source/src/kernel/OS_CORE/MCB.c **** 	if(MCB_ptr->resource_num <= 0)
 192:../../source/src/kernel/OS_CORE/MCB.c **** 	{
 193:../../source/src/kernel/OS_CORE/MCB.c **** 		TCB *TCB_ptr = (TCB *)(insert_sort_delete_head(&MCB_ptr->MCB_insert_sort_list))->data_ptr;
 194:../../source/src/kernel/OS_CORE/MCB.c **** 		
 195:../../source/src/kernel/OS_CORE/MCB.c **** 		if(STATE_WAIT_MCB_FOREVER == TCB_ptr->task_state)
 196:../../source/src/kernel/OS_CORE/MCB.c **** 			remove_from_suspend_list(TCB_ptr);
 197:../../source/src/kernel/OS_CORE/MCB.c **** 		else if(STATE_WAIT_MCB_TIMEOUT == TCB_ptr->task_state)//STATE_WAIT_MESSAGE_TIMEOUT
 198:../../source/src/kernel/OS_CORE/MCB.c **** 			remove_from_delay_heap(TCB_ptr);
 199:../../source/src/kernel/OS_CORE/MCB.c **** 		schedule();
 200:../../source/src/kernel/OS_CORE/MCB.c **** 	}
 201:../../source/src/kernel/OS_CORE/MCB.c **** 	CPU_CRITICAL_EXIT(); //exit  critical
 595              		.loc 1 201 0
 596 0224 2846     		mov	r0, r5
 597 0226 FFF7FEFF 		bl	CPU_SR_Restore
 598              	.LVL83:
 202:../../source/src/kernel/OS_CORE/MCB.c **** 	return FUN_EXECUTE_SUCCESSFULLY;
 599              		.loc 1 202 0
 600 022a 0020     		movs	r0, #0
 601              	.L56:
ARM GAS  G:\Users\Jaxb\AppData\Local\Temp\ccqTkcFy.s 			page 16


 203:../../source/src/kernel/OS_CORE/MCB.c **** }
 602              		.loc 1 203 0
 603 022c 38BD     		pop	{r3, r4, r5, pc}
 604              	.LVL84:
 605              	.L73:
 191:../../source/src/kernel/OS_CORE/MCB.c **** 	{
 606              		.loc 1 191 0
 607 022e 002B     		cmp	r3, #0
 608 0230 F8DC     		bgt	.L59
 609              	.LBB4:
 193:../../source/src/kernel/OS_CORE/MCB.c **** 		
 610              		.loc 1 193 0
 611 0232 2046     		mov	r0, r4
 612              	.LVL85:
 613 0234 FFF7FEFF 		bl	insert_sort_delete_head
 614              	.LVL86:
 615 0238 0068     		ldr	r0, [r0]
 616              	.LVL87:
 195:../../source/src/kernel/OS_CORE/MCB.c **** 			remove_from_suspend_list(TCB_ptr);
 617              		.loc 1 195 0
 618 023a 037D     		ldrb	r3, [r0, #20]	@ zero_extendqisi2
 619 023c 042B     		cmp	r3, #4
 620 023e 18D0     		beq	.L75
 197:../../source/src/kernel/OS_CORE/MCB.c **** 			remove_from_delay_heap(TCB_ptr);
 621              		.loc 1 197 0
 622 0240 052B     		cmp	r3, #5
 623 0242 19D0     		beq	.L76
 624              	.LVL88:
 625              	.L62:
 199:../../source/src/kernel/OS_CORE/MCB.c **** 	}
 626              		.loc 1 199 0
 627 0244 FFF7FEFF 		bl	schedule
 628              	.LVL89:
 629              	.LBE4:
 201:../../source/src/kernel/OS_CORE/MCB.c **** 	return FUN_EXECUTE_SUCCESSFULLY;
 630              		.loc 1 201 0
 631 0248 2846     		mov	r0, r5
 632 024a FFF7FEFF 		bl	CPU_SR_Restore
 633              	.LVL90:
 202:../../source/src/kernel/OS_CORE/MCB.c **** }
 634              		.loc 1 202 0
 635 024e 0020     		movs	r0, #0
 636 0250 ECE7     		b	.L56
 637              	.LVL91:
 638              	.L74:
 188:../../source/src/kernel/OS_CORE/MCB.c **** 		MCB_ptr->resource_num = 1;
 639              		.loc 1 188 0 discriminator 1
 640 0252 BC21     		movs	r1, #188
 641 0254 0A48     		ldr	r0, .L77
 642              	.LVL92:
 643 0256 FFF7FEFF 		bl	_ASSERT
 644              	.LVL93:
 189:../../source/src/kernel/OS_CORE/MCB.c **** 	}
 645              		.loc 1 189 0 discriminator 1
 646 025a 0123     		movs	r3, #1
 647 025c A361     		str	r3, [r4, #24]
 648 025e E1E7     		b	.L59
ARM GAS  G:\Users\Jaxb\AppData\Local\Temp\ccqTkcFy.s 			page 17


 649              	.LVL94:
 650              	.L72:
 176:../../source/src/kernel/OS_CORE/MCB.c **** #if CONFIG_PARA_CHECK
 651              		.loc 1 176 0 discriminator 1
 652 0260 B021     		movs	r1, #176
 653 0262 0748     		ldr	r0, .L77
 654              	.LVL95:
 655 0264 FFF7FEFF 		bl	_ASSERT
 656              	.LVL96:
 180:../../source/src/kernel/OS_CORE/MCB.c **** 		return ERROR_NULL_INPUT_PTR;
 657              		.loc 1 180 0 discriminator 1
 658 0268 0648     		ldr	r0, .L77+4
 659 026a FFF7FEFF 		bl	ka_printf
 660              	.LVL97:
 181:../../source/src/kernel/OS_CORE/MCB.c **** 	}
 661              		.loc 1 181 0 discriminator 1
 662 026e FF20     		movs	r0, #255
 663              		.loc 1 203 0 discriminator 1
 664 0270 38BD     		pop	{r3, r4, r5, pc}
 665              	.LVL98:
 666              	.L75:
 667              	.LBB5:
 196:../../source/src/kernel/OS_CORE/MCB.c **** 		else if(STATE_WAIT_MCB_TIMEOUT == TCB_ptr->task_state)//STATE_WAIT_MESSAGE_TIMEOUT
 668              		.loc 1 196 0
 669 0272 FFF7FEFF 		bl	remove_from_suspend_list
 670              	.LVL99:
 671 0276 E5E7     		b	.L62
 672              	.LVL100:
 673              	.L76:
 198:../../source/src/kernel/OS_CORE/MCB.c **** 		schedule();
 674              		.loc 1 198 0
 675 0278 FFF7FEFF 		bl	remove_from_delay_heap
 676              	.LVL101:
 677 027c E2E7     		b	.L62
 678              	.L78:
 679 027e 00BF     		.align	2
 680              	.L77:
 681 0280 00000000 		.word	.LC0
 682 0284 B8000000 		.word	.LC4
 683              	.LBE5:
 684              		.cfi_endproc
 685              	.LFE17:
 686              		.size	v, .-v
 687              		.align	1
 688              		.p2align 2,,3
 689              		.global	clear_MCB_index
 690              		.syntax unified
 691              		.thumb
 692              		.thumb_func
 693              		.fpu softvfp
 694              		.type	clear_MCB_index, %function
 695              	clear_MCB_index:
 696              	.LFB18:
 204:../../source/src/kernel/OS_CORE/MCB.c **** 
 205:../../source/src/kernel/OS_CORE/MCB.c **** void 
 206:../../source/src/kernel/OS_CORE/MCB.c **** clear_MCB_index(MCB *MCB_ptr)
 207:../../source/src/kernel/OS_CORE/MCB.c **** {
ARM GAS  G:\Users\Jaxb\AppData\Local\Temp\ccqTkcFy.s 			page 18


 697              		.loc 1 207 0
 698              		.cfi_startproc
 699              		@ args = 0, pretend = 0, frame = 0
 700              		@ frame_needed = 0, uses_anonymous_args = 0
 701              	.LVL102:
 702 0288 10B5     		push	{r4, lr}
 703              	.LCFI9:
 704              		.cfi_def_cfa_offset 8
 705              		.cfi_offset 4, -8
 706              		.cfi_offset 14, -4
 208:../../source/src/kernel/OS_CORE/MCB.c **** 	ASSERT(NULL != MCB_ptr);
 707              		.loc 1 208 0
 708 028a 0446     		mov	r4, r0
 709 028c 50B1     		cbz	r0, .L82
 710              	.LVL103:
 711              	.L80:
 209:../../source/src/kernel/OS_CORE/MCB.c **** 	CPU_SR_ALLOC();
 210:../../source/src/kernel/OS_CORE/MCB.c **** 	CPU_CRITICAL_ENTER();
 712              		.loc 1 210 0
 713 028e FFF7FEFF 		bl	CPU_SR_Save
 714              	.LVL104:
 211:../../source/src/kernel/OS_CORE/MCB.c **** 	if(MCB_ptr->resource_num > 0)
 715              		.loc 1 211 0
 716 0292 A369     		ldr	r3, [r4, #24]
 717 0294 002B     		cmp	r3, #0
 212:../../source/src/kernel/OS_CORE/MCB.c **** 		MCB_ptr->resource_num = 0;
 718              		.loc 1 212 0
 719 0296 C4BF     		itt	gt
 720 0298 0023     		movgt	r3, #0
 721 029a A361     		strgt	r3, [r4, #24]
 213:../../source/src/kernel/OS_CORE/MCB.c **** 	CPU_CRITICAL_EXIT();
 214:../../source/src/kernel/OS_CORE/MCB.c **** }
 722              		.loc 1 214 0
 723 029c BDE81040 		pop	{r4, lr}
 724              	.LCFI10:
 725              		.cfi_remember_state
 726              		.cfi_restore 14
 727              		.cfi_restore 4
 728              		.cfi_def_cfa_offset 0
 729              	.LVL105:
 213:../../source/src/kernel/OS_CORE/MCB.c **** 	CPU_CRITICAL_EXIT();
 730              		.loc 1 213 0
 731 02a0 FFF7FEBF 		b	CPU_SR_Restore
 732              	.LVL106:
 733              	.L82:
 734              	.LCFI11:
 735              		.cfi_restore_state
 208:../../source/src/kernel/OS_CORE/MCB.c **** 	CPU_SR_ALLOC();
 736              		.loc 1 208 0 discriminator 1
 737 02a4 D021     		movs	r1, #208
 738 02a6 0248     		ldr	r0, .L83
 739              	.LVL107:
 740 02a8 FFF7FEFF 		bl	_ASSERT
 741              	.LVL108:
 742 02ac EFE7     		b	.L80
 743              	.L84:
 744 02ae 00BF     		.align	2
ARM GAS  G:\Users\Jaxb\AppData\Local\Temp\ccqTkcFy.s 			page 19


 745              	.L83:
 746 02b0 00000000 		.word	.LC0
 747              		.cfi_endproc
 748              	.LFE18:
 749              		.size	clear_MCB_index, .-clear_MCB_index
 750              		.section	.rodata.str1.4,"aMS",%progbits,1
 751              		.align	2
 752              	.LC0:
 753 0000 2E2E2F2E 		.ascii	"../../source/src/kernel/OS_CORE/MCB.c\000"
 753      2E2F736F 
 753      75726365 
 753      2F737263 
 753      2F6B6572 
 754 0026 0000     		.space	2
 755              	.LC1:
 756 0028 6572726F 		.ascii	"error fun name : init_MCB\012error para : MCB_ptr\012"
 756      72206675 
 756      6E206E61 
 756      6D65203A 
 756      20696E69 
 757 0057 00       		.ascii	"\000"
 758              	.LC2:
 759 0058 6572726F 		.ascii	"error fun name : delete_MCB\012error para : MCB_ptr"
 759      72206675 
 759      6E206E61 
 759      6D65203A 
 759      2064656C 
 760 0088 0A00     		.ascii	"\012\000"
 761 008a 0000     		.space	2
 762              	.LC3:
 763 008c 6572726F 		.ascii	"error fun name : p\012error para : MCB_ptr\012\000"
 763      72206675 
 763      6E206E61 
 763      6D65203A 
 763      20700A65 
 764 00b5 000000   		.space	3
 765              	.LC4:
 766 00b8 6572726F 		.ascii	"error fun name : v\012error para : MCB_ptr\012\000"
 766      72206675 
 766      6E206E61 
 766      6D65203A 
 766      20760A65 
 767              		.text
 768              	.Letext0:
 769              		.file 2 "../../source/include/os_cpu/kakaosstdint.h"
 770              		.file 3 "../../source/include/os_lib/double_linked_list.h"
 771              		.file 4 "../../source/include/os_core/task_state.h"
 772              		.file 5 "../../source/include/os_core/TCB.h"
 773              		.file 6 "../../source/include/os_lib/insert_sort_oo.h"
 774              		.file 7 "../../source/include/os_core/MCB.h"
 775              		.file 8 "../../source/include/os_cpu/os_cpu_stm32.h"
 776              		.file 9 "../../source/include/os_lib/myassert.h"
 777              		.file 10 "../../source/include/os_core/schedule/os_schedule.h"
 778              		.file 11 "../../source/include/os_core/schedule/os_suspend.h"
 779              		.file 12 "../../source/include/os_core/schedule/os_delay.h"
 780              		.file 13 "../../source/include/os_lib/myMicroLIB.h"
 781              		.file 14 "../../source/include/os_core/os_time.h"
ARM GAS  G:\Users\Jaxb\AppData\Local\Temp\ccqTkcFy.s 			page 20

