ARM GAS  G:\Users\Jaxb\AppData\Local\Temp\ccfFV28j.s 			page 1


   1              		.cpu cortex-m3
   2              		.eabi_attribute 20, 1
   3              		.eabi_attribute 21, 1
   4              		.eabi_attribute 23, 3
   5              		.eabi_attribute 24, 1
   6              		.eabi_attribute 25, 1
   7              		.eabi_attribute 26, 1
   8              		.eabi_attribute 30, 2
   9              		.eabi_attribute 34, 1
  10              		.eabi_attribute 18, 4
  11              		.file	"MCB.c"
  12              		.text
  13              	.Ltext0:
  14              		.cfi_sections	.debug_frame
  15              		.align	1
  16              		.p2align 2,,3
  17              		.syntax unified
  18              		.thumb
  19              		.thumb_func
  20              		.fpu softvfp
  21              		.type	compare, %function
  22              	compare:
  23              	.LFB12:
  24              		.file 1 "../../source/src/user/OS_CORE/MCB.c"
   1:../../source/src/user/OS_CORE/MCB.c **** #include <MCB.h>
   2:../../source/src/user/OS_CORE/MCB.c **** #include <os_cpu.h>
   3:../../source/src/user/OS_CORE/MCB.c **** #include <os_time.h>
   4:../../source/src/user/OS_CORE/MCB.c **** #include <myassert.h>
   5:../../source/src/user/OS_CORE/MCB.c **** #include <myMicroLIB.h>
   6:../../source/src/user/OS_CORE/MCB.c **** #include <task_state.h>
   7:../../source/src/user/OS_CORE/MCB.c **** #include <os_schedule.h>
   8:../../source/src/user/OS_CORE/MCB.c **** #include <os_suspend.h>
   9:../../source/src/user/OS_CORE/MCB.c **** #include <os_delay.h>
  10:../../source/src/user/OS_CORE/MCB.c **** 
  11:../../source/src/user/OS_CORE/MCB.c **** 
  12:../../source/src/user/OS_CORE/MCB.c **** extern TCB * OSTCBCurPtr;
  13:../../source/src/user/OS_CORE/MCB.c **** 
  14:../../source/src/user/OS_CORE/MCB.c **** inline static int compare(struct insert_sort_data *data1,struct insert_sort_data *data2)
  15:../../source/src/user/OS_CORE/MCB.c **** {
  25              		.loc 1 15 0
  26              		.cfi_startproc
  27              		@ args = 0, pretend = 0, frame = 0
  28              		@ frame_needed = 0, uses_anonymous_args = 0
  29              		@ link register save eliminated.
  30              	.LVL0:
  16:../../source/src/user/OS_CORE/MCB.c **** 	return ((TCB*)(data1->data_ptr))->prio - ((TCB*)(data2->data_ptr))->prio;
  31              		.loc 1 16 0
  32 0000 0268     		ldr	r2, [r0]
  33 0002 0B68     		ldr	r3, [r1]
  34 0004 D068     		ldr	r0, [r2, #12]
  35              	.LVL1:
  36 0006 DB68     		ldr	r3, [r3, #12]
  17:../../source/src/user/OS_CORE/MCB.c **** }
  37              		.loc 1 17 0
  38 0008 C01A     		subs	r0, r0, r3
  39 000a 7047     		bx	lr
  40              		.cfi_endproc
ARM GAS  G:\Users\Jaxb\AppData\Local\Temp\ccfFV28j.s 			page 2


  41              	.LFE12:
  42              		.size	compare, .-compare
  43              		.align	1
  44              		.p2align 2,,3
  45              		.syntax unified
  46              		.thumb
  47              		.thumb_func
  48              		.fpu softvfp
  49              		.type	value_cmp, %function
  50              	value_cmp:
  51              	.LFB13:
  18:../../source/src/user/OS_CORE/MCB.c **** 
  19:../../source/src/user/OS_CORE/MCB.c **** inline static int value_cmp(void *data1,void *data2)
  20:../../source/src/user/OS_CORE/MCB.c **** {
  52              		.loc 1 20 0
  53              		.cfi_startproc
  54              		@ args = 0, pretend = 0, frame = 0
  55              		@ frame_needed = 0, uses_anonymous_args = 0
  56              		@ link register save eliminated.
  57              	.LVL2:
  21:../../source/src/user/OS_CORE/MCB.c **** 	return ((TCB*)data1)->prio - ((TCB*)data2)->prio;
  58              		.loc 1 21 0
  59 000c C068     		ldr	r0, [r0, #12]
  60              	.LVL3:
  61 000e CB68     		ldr	r3, [r1, #12]
  22:../../source/src/user/OS_CORE/MCB.c **** }
  62              		.loc 1 22 0
  63 0010 C01A     		subs	r0, r0, r3
  64 0012 7047     		bx	lr
  65              		.cfi_endproc
  66              	.LFE13:
  67              		.size	value_cmp, .-value_cmp
  68              		.align	1
  69              		.p2align 2,,3
  70              		.global	init_MCB
  71              		.syntax unified
  72              		.thumb
  73              		.thumb_func
  74              		.fpu softvfp
  75              		.type	init_MCB, %function
  76              	init_MCB:
  77              	.LFB14:
  23:../../source/src/user/OS_CORE/MCB.c **** 
  24:../../source/src/user/OS_CORE/MCB.c **** int
  25:../../source/src/user/OS_CORE/MCB.c **** init_MCB(
  26:../../source/src/user/OS_CORE/MCB.c **** 	MCB *MCB_ptr,
  27:../../source/src/user/OS_CORE/MCB.c **** 	int num,
  28:../../source/src/user/OS_CORE/MCB.c **** 	unsigned int flag
  29:../../source/src/user/OS_CORE/MCB.c **** 	)
  30:../../source/src/user/OS_CORE/MCB.c **** {
  78              		.loc 1 30 0
  79              		.cfi_startproc
  80              		@ args = 0, pretend = 0, frame = 0
  81              		@ frame_needed = 0, uses_anonymous_args = 0
  82              	.LVL4:
  83 0014 F8B5     		push	{r3, r4, r5, r6, r7, lr}
  84              	.LCFI0:
ARM GAS  G:\Users\Jaxb\AppData\Local\Temp\ccfFV28j.s 			page 3


  85              		.cfi_def_cfa_offset 24
  86              		.cfi_offset 3, -24
  87              		.cfi_offset 4, -20
  88              		.cfi_offset 5, -16
  89              		.cfi_offset 6, -12
  90              		.cfi_offset 7, -8
  91              		.cfi_offset 14, -4
  92              		.loc 1 30 0
  93 0016 0E46     		mov	r6, r1
  94 0018 1546     		mov	r5, r2
  31:../../source/src/user/OS_CORE/MCB.c **** 	ASSERT(NULL != MCB_ptr);
  95              		.loc 1 31 0
  96 001a 0446     		mov	r4, r0
  97 001c C0B1     		cbz	r0, .L17
  98              	.LVL5:
  32:../../source/src/user/OS_CORE/MCB.c **** #if CONFIG_PARA_CHECK
  33:../../source/src/user/OS_CORE/MCB.c **** 	if(NULL == MCB_ptr)
  34:../../source/src/user/OS_CORE/MCB.c **** 	{
  35:../../source/src/user/OS_CORE/MCB.c **** 		OS_ERROR_MESSAGE_DISPLAY(dasdasfasdas);
  36:../../source/src/user/OS_CORE/MCB.c **** 		OS_ERROR_PARA_MESSAGE_DISPLAY(init_MCB,MCB_ptr);
  37:../../source/src/user/OS_CORE/MCB.c **** 		return -ERROR_NULL_INPUT_PTR;
  38:../../source/src/user/OS_CORE/MCB.c **** 	}
  39:../../source/src/user/OS_CORE/MCB.c **** #endif
  40:../../source/src/user/OS_CORE/MCB.c **** 	CPU_SR_ALLOC();
  41:../../source/src/user/OS_CORE/MCB.c **** 	CPU_CRITICAL_ENTER();
  99              		.loc 1 41 0
 100 001e FFF7FEFF 		bl	CPU_SR_Save
 101              	.LVL6:
  42:../../source/src/user/OS_CORE/MCB.c **** 	if (g_interrupt_count > 0)
 102              		.loc 1 42 0
 103 0022 144B     		ldr	r3, .L19
  41:../../source/src/user/OS_CORE/MCB.c **** 	if (g_interrupt_count > 0)
 104              		.loc 1 41 0
 105 0024 0746     		mov	r7, r0
 106              	.LVL7:
 107              		.loc 1 42 0
 108 0026 1B68     		ldr	r3, [r3]
 109 0028 002B     		cmp	r3, #0
 110 002a 1EDC     		bgt	.L18
  43:../../source/src/user/OS_CORE/MCB.c **** 	{
  44:../../source/src/user/OS_CORE/MCB.c **** 		CPU_CRITICAL_EXIT();
  45:../../source/src/user/OS_CORE/MCB.c **** 		return -ERROR_FUN_USE_IN_INTER;
  46:../../source/src/user/OS_CORE/MCB.c **** 	}
  47:../../source/src/user/OS_CORE/MCB.c **** 	MCB_ptr->resource_num = num;
  48:../../source/src/user/OS_CORE/MCB.c **** 	init_insert_sort_entity(
 111              		.loc 1 48 0
 112 002c 124B     		ldr	r3, .L19+4
  47:../../source/src/user/OS_CORE/MCB.c **** 	init_insert_sort_entity(
 113              		.loc 1 47 0
 114 002e A661     		str	r6, [r4, #24]
 115              		.loc 1 48 0
 116 0030 0022     		movs	r2, #0
 117 0032 1249     		ldr	r1, .L19+8
 118 0034 2046     		mov	r0, r4
 119              	.LVL8:
 120 0036 FFF7FEFF 		bl	init_insert_sort_entity
 121              	.LVL9:
ARM GAS  G:\Users\Jaxb\AppData\Local\Temp\ccfFV28j.s 			page 4


  49:../../source/src/user/OS_CORE/MCB.c **** 		&MCB_ptr->MCB_insert_sort_list,
  50:../../source/src/user/OS_CORE/MCB.c **** 		compare,
  51:../../source/src/user/OS_CORE/MCB.c **** 		NULL,
  52:../../source/src/user/OS_CORE/MCB.c **** 		value_cmp
  53:../../source/src/user/OS_CORE/MCB.c **** 	);
  54:../../source/src/user/OS_CORE/MCB.c **** 	MCB_ptr->flag = flag;
  55:../../source/src/user/OS_CORE/MCB.c **** 	if(MCB_type_is_binary(MCB_ptr))
 122              		.loc 1 55 0
 123 003a EB07     		lsls	r3, r5, #31
  54:../../source/src/user/OS_CORE/MCB.c **** 	if(MCB_type_is_binary(MCB_ptr))
 124              		.loc 1 54 0
 125 003c E561     		str	r5, [r4, #28]
 126              		.loc 1 55 0
 127 003e 02D5     		bpl	.L7
  56:../../source/src/user/OS_CORE/MCB.c **** 	{
  57:../../source/src/user/OS_CORE/MCB.c **** 		if(num)
 128              		.loc 1 57 0
 129 0040 0EB1     		cbz	r6, .L7
  58:../../source/src/user/OS_CORE/MCB.c **** 		{
  59:../../source/src/user/OS_CORE/MCB.c **** 			MCB_ptr->resource_num = 1;
 130              		.loc 1 59 0
 131 0042 0123     		movs	r3, #1
 132 0044 A361     		str	r3, [r4, #24]
 133              	.L7:
  60:../../source/src/user/OS_CORE/MCB.c **** 		}
  61:../../source/src/user/OS_CORE/MCB.c **** 	}
  62:../../source/src/user/OS_CORE/MCB.c **** 	CPU_CRITICAL_EXIT();
 134              		.loc 1 62 0
 135 0046 3846     		mov	r0, r7
 136 0048 FFF7FEFF 		bl	CPU_SR_Restore
 137              	.LVL10:
  63:../../source/src/user/OS_CORE/MCB.c **** 	return FUN_EXECUTE_SUCCESSFULLY;
 138              		.loc 1 63 0
 139 004c 0020     		movs	r0, #0
  64:../../source/src/user/OS_CORE/MCB.c **** }
 140              		.loc 1 64 0
 141 004e F8BD     		pop	{r3, r4, r5, r6, r7, pc}
 142              	.LVL11:
 143              	.L17:
  31:../../source/src/user/OS_CORE/MCB.c **** #if CONFIG_PARA_CHECK
 144              		.loc 1 31 0 discriminator 1
 145 0050 1F21     		movs	r1, #31
 146              	.LVL12:
 147 0052 0B48     		ldr	r0, .L19+12
 148              	.LVL13:
 149 0054 FFF7FEFF 		bl	_ASSERT
 150              	.LVL14:
  35:../../source/src/user/OS_CORE/MCB.c **** 		OS_ERROR_PARA_MESSAGE_DISPLAY(init_MCB,MCB_ptr);
 151              		.loc 1 35 0 discriminator 1
 152 0058 0A48     		ldr	r0, .L19+16
 153 005a FFF7FEFF 		bl	ka_printf
 154              	.LVL15:
  36:../../source/src/user/OS_CORE/MCB.c **** 		return -ERROR_NULL_INPUT_PTR;
 155              		.loc 1 36 0 discriminator 1
 156 005e 0A48     		ldr	r0, .L19+20
 157 0060 FFF7FEFF 		bl	ka_printf
 158              	.LVL16:
ARM GAS  G:\Users\Jaxb\AppData\Local\Temp\ccfFV28j.s 			page 5


  37:../../source/src/user/OS_CORE/MCB.c **** 	}
 159              		.loc 1 37 0 discriminator 1
 160 0064 6FF0FE00 		mvn	r0, #254
 161              		.loc 1 64 0 discriminator 1
 162 0068 F8BD     		pop	{r3, r4, r5, r6, r7, pc}
 163              	.LVL17:
 164              	.L18:
  44:../../source/src/user/OS_CORE/MCB.c **** 		return -ERROR_FUN_USE_IN_INTER;
 165              		.loc 1 44 0
 166 006a FFF7FEFF 		bl	CPU_SR_Restore
 167              	.LVL18:
  45:../../source/src/user/OS_CORE/MCB.c **** 	}
 168              		.loc 1 45 0
 169 006e 6FF0FC00 		mvn	r0, #252
 170              		.loc 1 64 0
 171 0072 F8BD     		pop	{r3, r4, r5, r6, r7, pc}
 172              	.LVL19:
 173              	.L20:
 174              		.align	2
 175              	.L19:
 176 0074 00000000 		.word	g_interrupt_count
 177 0078 00000000 		.word	value_cmp
 178 007c 00000000 		.word	compare
 179 0080 00000000 		.word	.LC0
 180 0084 24000000 		.word	.LC1
 181 0088 34000000 		.word	.LC2
 182              		.cfi_endproc
 183              	.LFE14:
 184              		.size	init_MCB, .-init_MCB
 185              		.align	1
 186              		.p2align 2,,3
 187              		.global	delete_MCB
 188              		.syntax unified
 189              		.thumb
 190              		.thumb_func
 191              		.fpu softvfp
 192              		.type	delete_MCB, %function
 193              	delete_MCB:
 194              	.LFB15:
  65:../../source/src/user/OS_CORE/MCB.c **** 
  66:../../source/src/user/OS_CORE/MCB.c **** int delete_MCB(MCB *MCB_ptr)
  67:../../source/src/user/OS_CORE/MCB.c **** {
 195              		.loc 1 67 0
 196              		.cfi_startproc
 197              		@ args = 0, pretend = 0, frame = 0
 198              		@ frame_needed = 0, uses_anonymous_args = 0
 199              	.LVL20:
 200 008c F8B5     		push	{r3, r4, r5, r6, r7, lr}
 201              	.LCFI1:
 202              		.cfi_def_cfa_offset 24
 203              		.cfi_offset 3, -24
 204              		.cfi_offset 4, -20
 205              		.cfi_offset 5, -16
 206              		.cfi_offset 6, -12
 207              		.cfi_offset 7, -8
 208              		.cfi_offset 14, -4
  68:../../source/src/user/OS_CORE/MCB.c **** 	ASSERT(NULL != MCB_ptr);
ARM GAS  G:\Users\Jaxb\AppData\Local\Temp\ccfFV28j.s 			page 6


 209              		.loc 1 68 0
 210 008e 0546     		mov	r5, r0
 211 0090 40B3     		cbz	r0, .L34
 212              	.LVL21:
  69:../../source/src/user/OS_CORE/MCB.c **** #if CONFIG_PARA_CHECK
  70:../../source/src/user/OS_CORE/MCB.c **** 	if(NULL == MCB_ptr)
  71:../../source/src/user/OS_CORE/MCB.c **** 	{
  72:../../source/src/user/OS_CORE/MCB.c **** 		OS_ERROR_PARA_MESSAGE_DISPLAY(delete_MCB,MCB_ptr);
  73:../../source/src/user/OS_CORE/MCB.c **** 		return -ERROR_NULL_INPUT_PTR;
  74:../../source/src/user/OS_CORE/MCB.c **** 	}
  75:../../source/src/user/OS_CORE/MCB.c **** #endif
  76:../../source/src/user/OS_CORE/MCB.c **** 	TCB *TCB_ptr;
  77:../../source/src/user/OS_CORE/MCB.c **** 	CPU_SR_ALLOC();
  78:../../source/src/user/OS_CORE/MCB.c **** 	CPU_CRITICAL_ENTER();//enter critical
 213              		.loc 1 78 0
 214 0092 FFF7FEFF 		bl	CPU_SR_Save
 215              	.LVL22:
 216 0096 0746     		mov	r7, r0
 217              	.LVL23:
  79:../../source/src/user/OS_CORE/MCB.c **** 	struct insert_sort_data *insert_sort_data_ptr = insert_sort_delete_head(&MCB_ptr->MCB_insert_sort_
 218              		.loc 1 79 0
 219 0098 2846     		mov	r0, r5
 220              	.LVL24:
 221 009a FFF7FEFF 		bl	insert_sort_delete_head
 222              	.LVL25:
  80:../../source/src/user/OS_CORE/MCB.c **** 	while(NULL != insert_sort_data_ptr)
 223              		.loc 1 80 0
 224 009e D0B1     		cbz	r0, .L28
  81:../../source/src/user/OS_CORE/MCB.c **** 	{
  82:../../source/src/user/OS_CORE/MCB.c **** 		TCB_ptr = (TCB *)(insert_sort_data_ptr->data_ptr);
  83:../../source/src/user/OS_CORE/MCB.c **** 		if(STATE_WAIT_MCB_FOREVER == TCB_ptr->task_state)
  84:../../source/src/user/OS_CORE/MCB.c **** 		{
  85:../../source/src/user/OS_CORE/MCB.c **** 			remove_from_suspend_list(TCB_ptr);
  86:../../source/src/user/OS_CORE/MCB.c **** 		}
  87:../../source/src/user/OS_CORE/MCB.c **** 		else
  88:../../source/src/user/OS_CORE/MCB.c **** 		{
  89:../../source/src/user/OS_CORE/MCB.c **** 			ASSERT(STATE_WAIT_MCB_TIMEOUT == TCB_ptr->task_state);
 225              		.loc 1 89 0
 226 00a0 154E     		ldr	r6, .L35
 227 00a2 10E0     		b	.L27
 228              	.LVL26:
 229              	.L24:
 230 00a4 052B     		cmp	r3, #5
 231 00a6 03D0     		beq	.L26
 232              		.loc 1 89 0 is_stmt 0 discriminator 1
 233 00a8 5921     		movs	r1, #89
 234 00aa 3046     		mov	r0, r6
 235              	.LVL27:
 236 00ac FFF7FEFF 		bl	_ASSERT
 237              	.LVL28:
 238              	.L26:
  90:../../source/src/user/OS_CORE/MCB.c **** 			remove_from_delay_heap(TCB_ptr);
 239              		.loc 1 90 0 is_stmt 1
 240 00b0 2046     		mov	r0, r4
 241 00b2 FFF7FEFF 		bl	remove_from_delay_heap
 242              	.LVL29:
 243              	.L25:
ARM GAS  G:\Users\Jaxb\AppData\Local\Temp\ccfFV28j.s 			page 7


  91:../../source/src/user/OS_CORE/MCB.c **** 		}
  92:../../source/src/user/OS_CORE/MCB.c **** 		set_bad_state(TCB_ptr);
 244              		.loc 1 92 0
 245 00b6 A36B     		ldr	r3, [r4, #56]
  93:../../source/src/user/OS_CORE/MCB.c **** 		insert_sort_data_ptr = insert_sort_delete_head(&MCB_ptr->MCB_insert_sort_list);
 246              		.loc 1 93 0
 247 00b8 2846     		mov	r0, r5
  92:../../source/src/user/OS_CORE/MCB.c **** 		insert_sort_data_ptr = insert_sort_delete_head(&MCB_ptr->MCB_insert_sort_list);
 248              		.loc 1 92 0
 249 00ba 43F00203 		orr	r3, r3, #2
 250 00be A363     		str	r3, [r4, #56]
 251              		.loc 1 93 0
 252 00c0 FFF7FEFF 		bl	insert_sort_delete_head
 253              	.LVL30:
  80:../../source/src/user/OS_CORE/MCB.c **** 	{
 254              		.loc 1 80 0
 255 00c4 38B1     		cbz	r0, .L28
 256              	.LVL31:
 257              	.L27:
  82:../../source/src/user/OS_CORE/MCB.c **** 		if(STATE_WAIT_MCB_FOREVER == TCB_ptr->task_state)
 258              		.loc 1 82 0
 259 00c6 0468     		ldr	r4, [r0]
 260              	.LVL32:
  83:../../source/src/user/OS_CORE/MCB.c **** 		{
 261              		.loc 1 83 0
 262 00c8 237D     		ldrb	r3, [r4, #20]	@ zero_extendqisi2
 263 00ca 042B     		cmp	r3, #4
 264 00cc EAD1     		bne	.L24
  85:../../source/src/user/OS_CORE/MCB.c **** 		}
 265              		.loc 1 85 0
 266 00ce 2046     		mov	r0, r4
 267              	.LVL33:
 268 00d0 FFF7FEFF 		bl	remove_from_suspend_list
 269              	.LVL34:
 270 00d4 EFE7     		b	.L25
 271              	.LVL35:
 272              	.L28:
  94:../../source/src/user/OS_CORE/MCB.c **** 	}
  95:../../source/src/user/OS_CORE/MCB.c **** 	schedule();
 273              		.loc 1 95 0
 274 00d6 FFF7FEFF 		bl	schedule
 275              	.LVL36:
  96:../../source/src/user/OS_CORE/MCB.c **** 	CPU_CRITICAL_EXIT();
 276              		.loc 1 96 0
 277 00da 3846     		mov	r0, r7
 278 00dc FFF7FEFF 		bl	CPU_SR_Restore
 279              	.LVL37:
  97:../../source/src/user/OS_CORE/MCB.c **** 	return FUN_EXECUTE_SUCCESSFULLY;
 280              		.loc 1 97 0
 281 00e0 0020     		movs	r0, #0
  98:../../source/src/user/OS_CORE/MCB.c **** }
 282              		.loc 1 98 0
 283 00e2 F8BD     		pop	{r3, r4, r5, r6, r7, pc}
 284              	.LVL38:
 285              	.L34:
  68:../../source/src/user/OS_CORE/MCB.c **** #if CONFIG_PARA_CHECK
 286              		.loc 1 68 0 discriminator 1
ARM GAS  G:\Users\Jaxb\AppData\Local\Temp\ccfFV28j.s 			page 8


 287 00e4 4421     		movs	r1, #68
 288 00e6 0448     		ldr	r0, .L35
 289              	.LVL39:
 290 00e8 FFF7FEFF 		bl	_ASSERT
 291              	.LVL40:
  72:../../source/src/user/OS_CORE/MCB.c **** 		return -ERROR_NULL_INPUT_PTR;
 292              		.loc 1 72 0 discriminator 1
 293 00ec 0348     		ldr	r0, .L35+4
 294 00ee FFF7FEFF 		bl	ka_printf
 295              	.LVL41:
  73:../../source/src/user/OS_CORE/MCB.c **** 	}
 296              		.loc 1 73 0 discriminator 1
 297 00f2 6FF0FE00 		mvn	r0, #254
 298              		.loc 1 98 0 discriminator 1
 299 00f6 F8BD     		pop	{r3, r4, r5, r6, r7, pc}
 300              	.LVL42:
 301              	.L36:
 302              		.align	2
 303              	.L35:
 304 00f8 00000000 		.word	.LC0
 305 00fc 64000000 		.word	.LC3
 306              		.cfi_endproc
 307              	.LFE15:
 308              		.size	delete_MCB, .-delete_MCB
 309              		.align	1
 310              		.p2align 2,,3
 311              		.global	p
 312              		.syntax unified
 313              		.thumb
 314              		.thumb_func
 315              		.fpu softvfp
 316              		.type	p, %function
 317              	p:
 318              	.LFB16:
  99:../../source/src/user/OS_CORE/MCB.c **** 
 100:../../source/src/user/OS_CORE/MCB.c **** int 
 101:../../source/src/user/OS_CORE/MCB.c **** p(
 102:../../source/src/user/OS_CORE/MCB.c **** 	MCB *MCB_ptr,
 103:../../source/src/user/OS_CORE/MCB.c **** 	MCB_WAIT_FLAG flag,
 104:../../source/src/user/OS_CORE/MCB.c **** 	unsigned int time
 105:../../source/src/user/OS_CORE/MCB.c **** )
 106:../../source/src/user/OS_CORE/MCB.c **** {
 319              		.loc 1 106 0
 320              		.cfi_startproc
 321              		@ args = 0, pretend = 0, frame = 24
 322              		@ frame_needed = 0, uses_anonymous_args = 0
 323              	.LVL43:
 324 0100 2DE9F04F 		push	{r4, r5, r6, r7, r8, r9, r10, fp, lr}
 325              	.LCFI2:
 326              		.cfi_def_cfa_offset 36
 327              		.cfi_offset 4, -36
 328              		.cfi_offset 5, -32
 329              		.cfi_offset 6, -28
 330              		.cfi_offset 7, -24
 331              		.cfi_offset 8, -20
 332              		.cfi_offset 9, -16
 333              		.cfi_offset 10, -12
ARM GAS  G:\Users\Jaxb\AppData\Local\Temp\ccfFV28j.s 			page 9


 334              		.cfi_offset 11, -8
 335              		.cfi_offset 14, -4
 336 0104 0D46     		mov	r5, r1
 337 0106 87B0     		sub	sp, sp, #28
 338              	.LCFI3:
 339              		.cfi_def_cfa_offset 64
 340              		.loc 1 106 0
 341 0108 1746     		mov	r7, r2
 107:../../source/src/user/OS_CORE/MCB.c **** 	ASSERT(NULL != MCB_ptr);
 342              		.loc 1 107 0
 343 010a 0446     		mov	r4, r0
 344 010c 0028     		cmp	r0, #0
 345 010e 55D0     		beq	.L49
 346              	.LVL44:
 108:../../source/src/user/OS_CORE/MCB.c **** #if CONFIG_PARA_CHECK
 109:../../source/src/user/OS_CORE/MCB.c **** 	if(NULL == MCB_ptr)
 110:../../source/src/user/OS_CORE/MCB.c **** 	{
 111:../../source/src/user/OS_CORE/MCB.c **** 		OS_ERROR_PARA_MESSAGE_DISPLAY(p,MCB_ptr);
 112:../../source/src/user/OS_CORE/MCB.c **** 		return -ERROR_NULL_INPUT_PTR;
 113:../../source/src/user/OS_CORE/MCB.c **** 	}
 114:../../source/src/user/OS_CORE/MCB.c **** #endif
 115:../../source/src/user/OS_CORE/MCB.c **** 	CPU_SR_ALLOC();
 116:../../source/src/user/OS_CORE/MCB.c **** 	CPU_CRITICAL_ENTER();//enter critical
 347              		.loc 1 116 0
 348 0110 FFF7FEFF 		bl	CPU_SR_Save
 349              	.LVL45:
 117:../../source/src/user/OS_CORE/MCB.c **** 	
 118:../../source/src/user/OS_CORE/MCB.c **** 	if (g_interrupt_count > 0)
 350              		.loc 1 118 0
 351 0114 384B     		ldr	r3, .L54
 116:../../source/src/user/OS_CORE/MCB.c **** 	
 352              		.loc 1 116 0
 353 0116 0646     		mov	r6, r0
 354              	.LVL46:
 355              		.loc 1 118 0
 356 0118 1B68     		ldr	r3, [r3]
 357 011a 002B     		cmp	r3, #0
 358 011c 5ADC     		bgt	.L50
 119:../../source/src/user/OS_CORE/MCB.c **** 	{
 120:../../source/src/user/OS_CORE/MCB.c **** 		CPU_CRITICAL_EXIT();
 121:../../source/src/user/OS_CORE/MCB.c **** 		return -ERROR_FUN_USE_IN_INTER;
 122:../../source/src/user/OS_CORE/MCB.c **** 	}
 123:../../source/src/user/OS_CORE/MCB.c **** 
 124:../../source/src/user/OS_CORE/MCB.c **** 	if((flag ==  MCB_FLAG_NON_BLOCKING) && (MCB_ptr->resource_num <= 0))
 359              		.loc 1 124 0
 360 011e 012D     		cmp	r5, #1
 361 0120 A369     		ldr	r3, [r4, #24]
 362 0122 3AD0     		beq	.L51
 363              	.L40:
 125:../../source/src/user/OS_CORE/MCB.c **** 	{
 126:../../source/src/user/OS_CORE/MCB.c **** 		CPU_CRITICAL_EXIT();
 127:../../source/src/user/OS_CORE/MCB.c **** 		return -MCB_OUT_OF_RESOURCE;
 128:../../source/src/user/OS_CORE/MCB.c **** 	}
 129:../../source/src/user/OS_CORE/MCB.c **** 
 130:../../source/src/user/OS_CORE/MCB.c **** 	--(MCB_ptr->resource_num);
 364              		.loc 1 130 0
 365 0124 013B     		subs	r3, r3, #1
ARM GAS  G:\Users\Jaxb\AppData\Local\Temp\ccfFV28j.s 			page 10


 131:../../source/src/user/OS_CORE/MCB.c **** 	if(MCB_ptr->resource_num >= 0)
 366              		.loc 1 131 0
 367 0126 002B     		cmp	r3, #0
 130:../../source/src/user/OS_CORE/MCB.c **** 	if(MCB_ptr->resource_num >= 0)
 368              		.loc 1 130 0
 369 0128 A361     		str	r3, [r4, #24]
 370              		.loc 1 131 0
 371 012a 06DB     		blt	.L41
 372              	.LVL47:
 373              	.L48:
 132:../../source/src/user/OS_CORE/MCB.c **** 	{
 133:../../source/src/user/OS_CORE/MCB.c **** 		CPU_CRITICAL_EXIT();
 374              		.loc 1 133 0
 375 012c 3046     		mov	r0, r6
 376 012e FFF7FEFF 		bl	CPU_SR_Restore
 377              	.LVL48:
 134:../../source/src/user/OS_CORE/MCB.c **** 		return FUN_EXECUTE_SUCCESSFULLY;
 378              		.loc 1 134 0
 379 0132 0020     		movs	r0, #0
 380              	.L37:
 135:../../source/src/user/OS_CORE/MCB.c **** 	}
 136:../../source/src/user/OS_CORE/MCB.c **** 
 137:../../source/src/user/OS_CORE/MCB.c **** //the following program is used to deal with FLAG_WAIT && MCB_OUT_OF_RESOURCE
 138:../../source/src/user/OS_CORE/MCB.c **** 	DECLEAR_INSERT_SORT_DATA(data);
 139:../../source/src/user/OS_CORE/MCB.c **** 	init_insert_sort_data(&data,OSTCBCurPtr);
 140:../../source/src/user/OS_CORE/MCB.c **** 	insert_sort_insert_into(&data,&MCB_ptr->MCB_insert_sort_list);
 141:../../source/src/user/OS_CORE/MCB.c **** 	if(time == 0)//0 represent forever
 142:../../source/src/user/OS_CORE/MCB.c **** 	{
 143:../../source/src/user/OS_CORE/MCB.c **** 		CPU_CRITICAL_EXIT(); //exit  critical
 144:../../source/src/user/OS_CORE/MCB.c **** 		sys_suspend(STATE_WAIT_MCB_FOREVER);
 145:../../source/src/user/OS_CORE/MCB.c **** 		//go back here=========go back here
 146:../../source/src/user/OS_CORE/MCB.c **** 		CPU_CRITICAL_ENTER();//enter critical
 147:../../source/src/user/OS_CORE/MCB.c **** 	}
 148:../../source/src/user/OS_CORE/MCB.c **** 	else
 149:../../source/src/user/OS_CORE/MCB.c **** 	{
 150:../../source/src/user/OS_CORE/MCB.c **** 		UINT64 time_record = get_tick();
 151:../../source/src/user/OS_CORE/MCB.c **** 		CPU_CRITICAL_EXIT(); //exit  critical
 152:../../source/src/user/OS_CORE/MCB.c **** 		sys_delay(time,STATE_WAIT_MCB_TIMEOUT);
 153:../../source/src/user/OS_CORE/MCB.c **** 		//go back here=========go back here
 154:../../source/src/user/OS_CORE/MCB.c **** 		CPU_CRITICAL_ENTER();//enter critical
 155:../../source/src/user/OS_CORE/MCB.c **** 		if(get_tick() >= (time_record + time))//prove that timeout happened
 156:../../source/src/user/OS_CORE/MCB.c **** 		{
 157:../../source/src/user/OS_CORE/MCB.c **** 			++(MCB_ptr->resource_num);
 158:../../source/src/user/OS_CORE/MCB.c **** 			insert_sort_delete_data(&MCB_ptr->MCB_insert_sort_list,OSTCBCurPtr);
 159:../../source/src/user/OS_CORE/MCB.c **** 			CPU_CRITICAL_EXIT(); //exit  critical
 160:../../source/src/user/OS_CORE/MCB.c **** 			return -MCB_OUT_OF_TIME;
 161:../../source/src/user/OS_CORE/MCB.c **** 		}
 162:../../source/src/user/OS_CORE/MCB.c **** 	}
 163:../../source/src/user/OS_CORE/MCB.c **** 	if(TCB_state_is_bad(OSTCBCurPtr))
 164:../../source/src/user/OS_CORE/MCB.c **** 	{
 165:../../source/src/user/OS_CORE/MCB.c **** 		clear_bad_state(OSTCBCurPtr);
 166:../../source/src/user/OS_CORE/MCB.c **** 		CPU_CRITICAL_EXIT(); //exit  critical
 167:../../source/src/user/OS_CORE/MCB.c **** 		return -ERROR_MODULE_DELETED;
 168:../../source/src/user/OS_CORE/MCB.c **** 	}
 169:../../source/src/user/OS_CORE/MCB.c **** 	CPU_CRITICAL_EXIT(); //exit  critical
 170:../../source/src/user/OS_CORE/MCB.c **** 	return FUN_EXECUTE_SUCCESSFULLY;
 171:../../source/src/user/OS_CORE/MCB.c **** }
ARM GAS  G:\Users\Jaxb\AppData\Local\Temp\ccfFV28j.s 			page 11


 381              		.loc 1 171 0
 382 0134 07B0     		add	sp, sp, #28
 383              	.LCFI4:
 384              		.cfi_remember_state
 385              		.cfi_def_cfa_offset 36
 386              		@ sp needed
 387 0136 BDE8F08F 		pop	{r4, r5, r6, r7, r8, r9, r10, fp, pc}
 388              	.LVL49:
 389              	.L41:
 390              	.LCFI5:
 391              		.cfi_restore_state
 139:../../source/src/user/OS_CORE/MCB.c **** 	insert_sort_insert_into(&data,&MCB_ptr->MCB_insert_sort_list);
 392              		.loc 1 139 0
 393 013a 304D     		ldr	r5, .L54+4
 394 013c 6846     		mov	r0, sp
 395              	.LVL50:
 396 013e 2968     		ldr	r1, [r5]
 397 0140 FFF7FEFF 		bl	init_insert_sort_data
 398              	.LVL51:
 140:../../source/src/user/OS_CORE/MCB.c **** 	if(time == 0)//0 represent forever
 399              		.loc 1 140 0
 400 0144 2146     		mov	r1, r4
 401 0146 6846     		mov	r0, sp
 402 0148 FFF7FEFF 		bl	insert_sort_insert_into
 403              	.LVL52:
 141:../../source/src/user/OS_CORE/MCB.c **** 	{
 404              		.loc 1 141 0
 405 014c 67B3     		cbz	r7, .L52
 406              	.LBB2:
 150:../../source/src/user/OS_CORE/MCB.c **** 		CPU_CRITICAL_EXIT(); //exit  critical
 407              		.loc 1 150 0
 408 014e FFF7FEFF 		bl	get_tick
 409              	.LVL53:
 410 0152 8246     		mov	r10, r0
 151:../../source/src/user/OS_CORE/MCB.c **** 		sys_delay(time,STATE_WAIT_MCB_TIMEOUT);
 411              		.loc 1 151 0
 412 0154 3046     		mov	r0, r6
 150:../../source/src/user/OS_CORE/MCB.c **** 		CPU_CRITICAL_EXIT(); //exit  critical
 413              		.loc 1 150 0
 414 0156 8B46     		mov	fp, r1
 415              	.LVL54:
 151:../../source/src/user/OS_CORE/MCB.c **** 		sys_delay(time,STATE_WAIT_MCB_TIMEOUT);
 416              		.loc 1 151 0
 417 0158 FFF7FEFF 		bl	CPU_SR_Restore
 418              	.LVL55:
 152:../../source/src/user/OS_CORE/MCB.c **** 		//go back here=========go back here
 419              		.loc 1 152 0
 420 015c 0521     		movs	r1, #5
 421 015e 3846     		mov	r0, r7
 422 0160 FFF7FEFF 		bl	sys_delay
 423              	.LVL56:
 154:../../source/src/user/OS_CORE/MCB.c **** 		if(get_tick() >= (time_record + time))//prove that timeout happened
 424              		.loc 1 154 0
 425 0164 FFF7FEFF 		bl	CPU_SR_Save
 426              	.LVL57:
 427 0168 0646     		mov	r6, r0
 428              	.LVL58:
ARM GAS  G:\Users\Jaxb\AppData\Local\Temp\ccfFV28j.s 			page 12


 155:../../source/src/user/OS_CORE/MCB.c **** 		{
 429              		.loc 1 155 0
 430 016a FFF7FEFF 		bl	get_tick
 431              	.LVL59:
 432 016e 1AEB0708 		adds	r8, r10, r7
 433 0172 4BF10009 		adc	r9, fp, #0
 434 0176 4945     		cmp	r1, r9
 435 0178 08BF     		it	eq
 436 017a 4045     		cmpeq	r0, r8
 437 017c 2FD2     		bcs	.L53
 438              	.LVL60:
 439              	.L43:
 440              	.LBE2:
 163:../../source/src/user/OS_CORE/MCB.c **** 	{
 441              		.loc 1 163 0
 442 017e 2A68     		ldr	r2, [r5]
 443 0180 936B     		ldr	r3, [r2, #56]
 444 0182 13F00204 		ands	r4, r3, #2
 445              	.LVL61:
 446 0186 D1D0     		beq	.L48
 165:../../source/src/user/OS_CORE/MCB.c **** 		CPU_CRITICAL_EXIT(); //exit  critical
 447              		.loc 1 165 0
 448 0188 23F00203 		bic	r3, r3, #2
 166:../../source/src/user/OS_CORE/MCB.c **** 		return -ERROR_MODULE_DELETED;
 449              		.loc 1 166 0
 450 018c 3046     		mov	r0, r6
 165:../../source/src/user/OS_CORE/MCB.c **** 		CPU_CRITICAL_EXIT(); //exit  critical
 451              		.loc 1 165 0
 452 018e 9363     		str	r3, [r2, #56]
 166:../../source/src/user/OS_CORE/MCB.c **** 		return -ERROR_MODULE_DELETED;
 453              		.loc 1 166 0
 454 0190 FFF7FEFF 		bl	CPU_SR_Restore
 455              	.LVL62:
 167:../../source/src/user/OS_CORE/MCB.c **** 	}
 456              		.loc 1 167 0
 457 0194 6FF0F900 		mvn	r0, #249
 458 0198 CCE7     		b	.L37
 459              	.LVL63:
 460              	.L51:
 124:../../source/src/user/OS_CORE/MCB.c **** 	{
 461              		.loc 1 124 0 discriminator 1
 462 019a 002B     		cmp	r3, #0
 463 019c C2DC     		bgt	.L40
 126:../../source/src/user/OS_CORE/MCB.c **** 		return -MCB_OUT_OF_RESOURCE;
 464              		.loc 1 126 0
 465 019e FFF7FEFF 		bl	CPU_SR_Restore
 466              	.LVL64:
 127:../../source/src/user/OS_CORE/MCB.c **** 	}
 467              		.loc 1 127 0
 468 01a2 4FF0FF30 		mov	r0, #-1
 469 01a6 C5E7     		b	.L37
 470              	.L52:
 143:../../source/src/user/OS_CORE/MCB.c **** 		sys_suspend(STATE_WAIT_MCB_FOREVER);
 471              		.loc 1 143 0
 472 01a8 3046     		mov	r0, r6
 473 01aa FFF7FEFF 		bl	CPU_SR_Restore
 474              	.LVL65:
ARM GAS  G:\Users\Jaxb\AppData\Local\Temp\ccfFV28j.s 			page 13


 144:../../source/src/user/OS_CORE/MCB.c **** 		//go back here=========go back here
 475              		.loc 1 144 0
 476 01ae 0420     		movs	r0, #4
 477 01b0 FFF7FEFF 		bl	sys_suspend
 478              	.LVL66:
 146:../../source/src/user/OS_CORE/MCB.c **** 	}
 479              		.loc 1 146 0
 480 01b4 FFF7FEFF 		bl	CPU_SR_Save
 481              	.LVL67:
 482 01b8 0646     		mov	r6, r0
 483              	.LVL68:
 484 01ba E0E7     		b	.L43
 485              	.LVL69:
 486              	.L49:
 107:../../source/src/user/OS_CORE/MCB.c **** #if CONFIG_PARA_CHECK
 487              		.loc 1 107 0 discriminator 1
 488 01bc 6B21     		movs	r1, #107
 489              	.LVL70:
 490 01be 1048     		ldr	r0, .L54+8
 491              	.LVL71:
 492 01c0 FFF7FEFF 		bl	_ASSERT
 493              	.LVL72:
 111:../../source/src/user/OS_CORE/MCB.c **** 		return -ERROR_NULL_INPUT_PTR;
 494              		.loc 1 111 0 discriminator 1
 495 01c4 0F48     		ldr	r0, .L54+12
 496 01c6 FFF7FEFF 		bl	ka_printf
 497              	.LVL73:
 112:../../source/src/user/OS_CORE/MCB.c **** 	}
 498              		.loc 1 112 0 discriminator 1
 499 01ca 6FF0FE00 		mvn	r0, #254
 500              		.loc 1 171 0 discriminator 1
 501 01ce 07B0     		add	sp, sp, #28
 502              	.LCFI6:
 503              		.cfi_remember_state
 504              		.cfi_def_cfa_offset 36
 505              		@ sp needed
 506 01d0 BDE8F08F 		pop	{r4, r5, r6, r7, r8, r9, r10, fp, pc}
 507              	.LVL74:
 508              	.L50:
 509              	.LCFI7:
 510              		.cfi_restore_state
 120:../../source/src/user/OS_CORE/MCB.c **** 		return -ERROR_FUN_USE_IN_INTER;
 511              		.loc 1 120 0
 512 01d4 FFF7FEFF 		bl	CPU_SR_Restore
 513              	.LVL75:
 121:../../source/src/user/OS_CORE/MCB.c **** 	}
 514              		.loc 1 121 0
 515 01d8 6FF0FC00 		mvn	r0, #252
 516 01dc AAE7     		b	.L37
 517              	.LVL76:
 518              	.L53:
 519              	.LBB3:
 157:../../source/src/user/OS_CORE/MCB.c **** 			insert_sort_delete_data(&MCB_ptr->MCB_insert_sort_list,OSTCBCurPtr);
 520              		.loc 1 157 0
 521 01de A369     		ldr	r3, [r4, #24]
 158:../../source/src/user/OS_CORE/MCB.c **** 			CPU_CRITICAL_EXIT(); //exit  critical
 522              		.loc 1 158 0
ARM GAS  G:\Users\Jaxb\AppData\Local\Temp\ccfFV28j.s 			page 14


 523 01e0 2968     		ldr	r1, [r5]
 157:../../source/src/user/OS_CORE/MCB.c **** 			insert_sort_delete_data(&MCB_ptr->MCB_insert_sort_list,OSTCBCurPtr);
 524              		.loc 1 157 0
 525 01e2 0133     		adds	r3, r3, #1
 526 01e4 A361     		str	r3, [r4, #24]
 158:../../source/src/user/OS_CORE/MCB.c **** 			CPU_CRITICAL_EXIT(); //exit  critical
 527              		.loc 1 158 0
 528 01e6 2046     		mov	r0, r4
 529 01e8 FFF7FEFF 		bl	insert_sort_delete_data
 530              	.LVL77:
 159:../../source/src/user/OS_CORE/MCB.c **** 			return -MCB_OUT_OF_TIME;
 531              		.loc 1 159 0
 532 01ec 3046     		mov	r0, r6
 533 01ee FFF7FEFF 		bl	CPU_SR_Restore
 534              	.LVL78:
 160:../../source/src/user/OS_CORE/MCB.c **** 		}
 535              		.loc 1 160 0
 536 01f2 6FF00100 		mvn	r0, #1
 537 01f6 9DE7     		b	.L37
 538              	.L55:
 539              		.align	2
 540              	.L54:
 541 01f8 00000000 		.word	g_interrupt_count
 542 01fc 00000000 		.word	OSTCBCurPtr
 543 0200 00000000 		.word	.LC0
 544 0204 98000000 		.word	.LC4
 545              	.LBE3:
 546              		.cfi_endproc
 547              	.LFE16:
 548              		.size	p, .-p
 549              		.align	1
 550              		.p2align 2,,3
 551              		.global	v
 552              		.syntax unified
 553              		.thumb
 554              		.thumb_func
 555              		.fpu softvfp
 556              		.type	v, %function
 557              	v:
 558              	.LFB17:
 172:../../source/src/user/OS_CORE/MCB.c **** 
 173:../../source/src/user/OS_CORE/MCB.c **** 
 174:../../source/src/user/OS_CORE/MCB.c **** int 
 175:../../source/src/user/OS_CORE/MCB.c **** v(MCB *MCB_ptr)
 176:../../source/src/user/OS_CORE/MCB.c **** {
 559              		.loc 1 176 0
 560              		.cfi_startproc
 561              		@ args = 0, pretend = 0, frame = 0
 562              		@ frame_needed = 0, uses_anonymous_args = 0
 563              	.LVL79:
 564 0208 38B5     		push	{r3, r4, r5, lr}
 565              	.LCFI8:
 566              		.cfi_def_cfa_offset 16
 567              		.cfi_offset 3, -16
 568              		.cfi_offset 4, -12
 569              		.cfi_offset 5, -8
 570              		.cfi_offset 14, -4
ARM GAS  G:\Users\Jaxb\AppData\Local\Temp\ccfFV28j.s 			page 15


 177:../../source/src/user/OS_CORE/MCB.c **** 	ASSERT(NULL != MCB_ptr);
 571              		.loc 1 177 0
 572 020a 0446     		mov	r4, r0
 573 020c 60B3     		cbz	r0, .L72
 574              	.LVL80:
 178:../../source/src/user/OS_CORE/MCB.c **** #if CONFIG_PARA_CHECK
 179:../../source/src/user/OS_CORE/MCB.c **** 	if(NULL == MCB_ptr)
 180:../../source/src/user/OS_CORE/MCB.c **** 	{
 181:../../source/src/user/OS_CORE/MCB.c **** 		OS_ERROR_PARA_MESSAGE_DISPLAY(v,MCB_ptr);
 182:../../source/src/user/OS_CORE/MCB.c **** 		return ERROR_NULL_INPUT_PTR;
 183:../../source/src/user/OS_CORE/MCB.c **** 	}
 184:../../source/src/user/OS_CORE/MCB.c **** #endif
 185:../../source/src/user/OS_CORE/MCB.c ****   	CPU_SR_ALLOC();
 186:../../source/src/user/OS_CORE/MCB.c **** 	CPU_CRITICAL_ENTER();//enter critical
 575              		.loc 1 186 0
 576 020e FFF7FEFF 		bl	CPU_SR_Save
 577              	.LVL81:
 187:../../source/src/user/OS_CORE/MCB.c **** 	if((++(MCB_ptr->resource_num) > 1) && MCB_type_is_binary(MCB_ptr))
 578              		.loc 1 187 0
 579 0212 A369     		ldr	r3, [r4, #24]
 186:../../source/src/user/OS_CORE/MCB.c **** 	if((++(MCB_ptr->resource_num) > 1) && MCB_type_is_binary(MCB_ptr))
 580              		.loc 1 186 0
 581 0214 0546     		mov	r5, r0
 582              	.LVL82:
 583              		.loc 1 187 0
 584 0216 0133     		adds	r3, r3, #1
 585 0218 012B     		cmp	r3, #1
 586 021a A361     		str	r3, [r4, #24]
 587 021c 0BDD     		ble	.L73
 588              		.loc 1 187 0 is_stmt 0 discriminator 1
 589 021e E269     		ldr	r2, [r4, #28]
 590 0220 D207     		lsls	r2, r2, #31
 591 0222 03D5     		bpl	.L59
 188:../../source/src/user/OS_CORE/MCB.c **** 	{
 189:../../source/src/user/OS_CORE/MCB.c **** 		ASSERT(2 == MCB_ptr->resource_num);
 592              		.loc 1 189 0 is_stmt 1
 593 0224 022B     		cmp	r3, #2
 594 0226 18D1     		bne	.L74
 190:../../source/src/user/OS_CORE/MCB.c **** 		MCB_ptr->resource_num = 1;
 595              		.loc 1 190 0
 596 0228 0123     		movs	r3, #1
 597 022a A361     		str	r3, [r4, #24]
 598              	.LVL83:
 599              	.L59:
 191:../../source/src/user/OS_CORE/MCB.c **** 	}
 192:../../source/src/user/OS_CORE/MCB.c **** 	if(MCB_ptr->resource_num <= 0)
 193:../../source/src/user/OS_CORE/MCB.c **** 	{
 194:../../source/src/user/OS_CORE/MCB.c **** 		TCB *TCB_ptr = (TCB *)(insert_sort_delete_head(&MCB_ptr->MCB_insert_sort_list))->data_ptr;
 195:../../source/src/user/OS_CORE/MCB.c **** 		
 196:../../source/src/user/OS_CORE/MCB.c **** 		if(STATE_WAIT_MCB_FOREVER == TCB_ptr->task_state)
 197:../../source/src/user/OS_CORE/MCB.c **** 			remove_from_suspend_list(TCB_ptr);
 198:../../source/src/user/OS_CORE/MCB.c **** 		else if(STATE_WAIT_MCB_TIMEOUT == TCB_ptr->task_state)//STATE_WAIT_MESSAGE_TIMEOUT
 199:../../source/src/user/OS_CORE/MCB.c **** 			remove_from_delay_heap(TCB_ptr);
 200:../../source/src/user/OS_CORE/MCB.c **** 		schedule();
 201:../../source/src/user/OS_CORE/MCB.c **** 	}
 202:../../source/src/user/OS_CORE/MCB.c **** 	CPU_CRITICAL_EXIT(); //exit  critical
 600              		.loc 1 202 0
ARM GAS  G:\Users\Jaxb\AppData\Local\Temp\ccfFV28j.s 			page 16


 601 022c 2846     		mov	r0, r5
 602 022e FFF7FEFF 		bl	CPU_SR_Restore
 603              	.LVL84:
 203:../../source/src/user/OS_CORE/MCB.c **** 	return FUN_EXECUTE_SUCCESSFULLY;
 604              		.loc 1 203 0
 605 0232 0020     		movs	r0, #0
 606              	.L56:
 204:../../source/src/user/OS_CORE/MCB.c **** }
 607              		.loc 1 204 0
 608 0234 38BD     		pop	{r3, r4, r5, pc}
 609              	.LVL85:
 610              	.L73:
 192:../../source/src/user/OS_CORE/MCB.c **** 	{
 611              		.loc 1 192 0
 612 0236 002B     		cmp	r3, #0
 613 0238 F8DC     		bgt	.L59
 614              	.LBB4:
 194:../../source/src/user/OS_CORE/MCB.c **** 		
 615              		.loc 1 194 0
 616 023a 2046     		mov	r0, r4
 617              	.LVL86:
 618 023c FFF7FEFF 		bl	insert_sort_delete_head
 619              	.LVL87:
 620 0240 0068     		ldr	r0, [r0]
 621              	.LVL88:
 196:../../source/src/user/OS_CORE/MCB.c **** 			remove_from_suspend_list(TCB_ptr);
 622              		.loc 1 196 0
 623 0242 037D     		ldrb	r3, [r0, #20]	@ zero_extendqisi2
 624 0244 042B     		cmp	r3, #4
 625 0246 18D0     		beq	.L75
 198:../../source/src/user/OS_CORE/MCB.c **** 			remove_from_delay_heap(TCB_ptr);
 626              		.loc 1 198 0
 627 0248 052B     		cmp	r3, #5
 628 024a 19D0     		beq	.L76
 629              	.LVL89:
 630              	.L62:
 200:../../source/src/user/OS_CORE/MCB.c **** 	}
 631              		.loc 1 200 0
 632 024c FFF7FEFF 		bl	schedule
 633              	.LVL90:
 634              	.LBE4:
 202:../../source/src/user/OS_CORE/MCB.c **** 	return FUN_EXECUTE_SUCCESSFULLY;
 635              		.loc 1 202 0
 636 0250 2846     		mov	r0, r5
 637 0252 FFF7FEFF 		bl	CPU_SR_Restore
 638              	.LVL91:
 203:../../source/src/user/OS_CORE/MCB.c **** }
 639              		.loc 1 203 0
 640 0256 0020     		movs	r0, #0
 641 0258 ECE7     		b	.L56
 642              	.LVL92:
 643              	.L74:
 189:../../source/src/user/OS_CORE/MCB.c **** 		MCB_ptr->resource_num = 1;
 644              		.loc 1 189 0 discriminator 1
 645 025a BD21     		movs	r1, #189
 646 025c 0A48     		ldr	r0, .L77
 647              	.LVL93:
ARM GAS  G:\Users\Jaxb\AppData\Local\Temp\ccfFV28j.s 			page 17


 648 025e FFF7FEFF 		bl	_ASSERT
 649              	.LVL94:
 190:../../source/src/user/OS_CORE/MCB.c **** 	}
 650              		.loc 1 190 0 discriminator 1
 651 0262 0123     		movs	r3, #1
 652 0264 A361     		str	r3, [r4, #24]
 653 0266 E1E7     		b	.L59
 654              	.LVL95:
 655              	.L72:
 177:../../source/src/user/OS_CORE/MCB.c **** #if CONFIG_PARA_CHECK
 656              		.loc 1 177 0 discriminator 1
 657 0268 B121     		movs	r1, #177
 658 026a 0748     		ldr	r0, .L77
 659              	.LVL96:
 660 026c FFF7FEFF 		bl	_ASSERT
 661              	.LVL97:
 181:../../source/src/user/OS_CORE/MCB.c **** 		return ERROR_NULL_INPUT_PTR;
 662              		.loc 1 181 0 discriminator 1
 663 0270 0648     		ldr	r0, .L77+4
 664 0272 FFF7FEFF 		bl	ka_printf
 665              	.LVL98:
 182:../../source/src/user/OS_CORE/MCB.c **** 	}
 666              		.loc 1 182 0 discriminator 1
 667 0276 FF20     		movs	r0, #255
 668              		.loc 1 204 0 discriminator 1
 669 0278 38BD     		pop	{r3, r4, r5, pc}
 670              	.LVL99:
 671              	.L75:
 672              	.LBB5:
 197:../../source/src/user/OS_CORE/MCB.c **** 		else if(STATE_WAIT_MCB_TIMEOUT == TCB_ptr->task_state)//STATE_WAIT_MESSAGE_TIMEOUT
 673              		.loc 1 197 0
 674 027a FFF7FEFF 		bl	remove_from_suspend_list
 675              	.LVL100:
 676 027e E5E7     		b	.L62
 677              	.LVL101:
 678              	.L76:
 199:../../source/src/user/OS_CORE/MCB.c **** 		schedule();
 679              		.loc 1 199 0
 680 0280 FFF7FEFF 		bl	remove_from_delay_heap
 681              	.LVL102:
 682 0284 E2E7     		b	.L62
 683              	.L78:
 684 0286 00BF     		.align	2
 685              	.L77:
 686 0288 00000000 		.word	.LC0
 687 028c C4000000 		.word	.LC5
 688              	.LBE5:
 689              		.cfi_endproc
 690              	.LFE17:
 691              		.size	v, .-v
 692              		.align	1
 693              		.p2align 2,,3
 694              		.global	clear_MCB_index
 695              		.syntax unified
 696              		.thumb
 697              		.thumb_func
 698              		.fpu softvfp
ARM GAS  G:\Users\Jaxb\AppData\Local\Temp\ccfFV28j.s 			page 18


 699              		.type	clear_MCB_index, %function
 700              	clear_MCB_index:
 701              	.LFB18:
 205:../../source/src/user/OS_CORE/MCB.c **** 
 206:../../source/src/user/OS_CORE/MCB.c **** void 
 207:../../source/src/user/OS_CORE/MCB.c **** clear_MCB_index(MCB *MCB_ptr)
 208:../../source/src/user/OS_CORE/MCB.c **** {
 702              		.loc 1 208 0
 703              		.cfi_startproc
 704              		@ args = 0, pretend = 0, frame = 0
 705              		@ frame_needed = 0, uses_anonymous_args = 0
 706              	.LVL103:
 707 0290 10B5     		push	{r4, lr}
 708              	.LCFI9:
 709              		.cfi_def_cfa_offset 8
 710              		.cfi_offset 4, -8
 711              		.cfi_offset 14, -4
 209:../../source/src/user/OS_CORE/MCB.c **** 	ASSERT(NULL != MCB_ptr);
 712              		.loc 1 209 0
 713 0292 0446     		mov	r4, r0
 714 0294 50B1     		cbz	r0, .L82
 715              	.LVL104:
 716              	.L80:
 210:../../source/src/user/OS_CORE/MCB.c **** 	CPU_SR_ALLOC();
 211:../../source/src/user/OS_CORE/MCB.c **** 	CPU_CRITICAL_ENTER();
 717              		.loc 1 211 0
 718 0296 FFF7FEFF 		bl	CPU_SR_Save
 719              	.LVL105:
 212:../../source/src/user/OS_CORE/MCB.c **** 	if(MCB_ptr->resource_num > 0)
 720              		.loc 1 212 0
 721 029a A369     		ldr	r3, [r4, #24]
 722 029c 002B     		cmp	r3, #0
 213:../../source/src/user/OS_CORE/MCB.c **** 		MCB_ptr->resource_num = 0;
 723              		.loc 1 213 0
 724 029e C4BF     		itt	gt
 725 02a0 0023     		movgt	r3, #0
 726 02a2 A361     		strgt	r3, [r4, #24]
 214:../../source/src/user/OS_CORE/MCB.c **** 	CPU_CRITICAL_EXIT();
 215:../../source/src/user/OS_CORE/MCB.c **** }
 727              		.loc 1 215 0
 728 02a4 BDE81040 		pop	{r4, lr}
 729              	.LCFI10:
 730              		.cfi_remember_state
 731              		.cfi_restore 14
 732              		.cfi_restore 4
 733              		.cfi_def_cfa_offset 0
 734              	.LVL106:
 214:../../source/src/user/OS_CORE/MCB.c **** 	CPU_CRITICAL_EXIT();
 735              		.loc 1 214 0
 736 02a8 FFF7FEBF 		b	CPU_SR_Restore
 737              	.LVL107:
 738              	.L82:
 739              	.LCFI11:
 740              		.cfi_restore_state
 209:../../source/src/user/OS_CORE/MCB.c **** 	CPU_SR_ALLOC();
 741              		.loc 1 209 0 discriminator 1
 742 02ac D121     		movs	r1, #209
ARM GAS  G:\Users\Jaxb\AppData\Local\Temp\ccfFV28j.s 			page 19


 743 02ae 0248     		ldr	r0, .L83
 744              	.LVL108:
 745 02b0 FFF7FEFF 		bl	_ASSERT
 746              	.LVL109:
 747 02b4 EFE7     		b	.L80
 748              	.L84:
 749 02b6 00BF     		.align	2
 750              	.L83:
 751 02b8 00000000 		.word	.LC0
 752              		.cfi_endproc
 753              	.LFE18:
 754              		.size	clear_MCB_index, .-clear_MCB_index
 755              		.section	.rodata.str1.4,"aMS",%progbits,1
 756              		.align	2
 757              	.LC0:
 758 0000 2E2E2F2E 		.ascii	"../../source/src/user/OS_CORE/MCB.c\000"
 758      2E2F736F 
 758      75726365 
 758      2F737263 
 758      2F757365 
 759              	.LC1:
 760 0024 64617364 		.ascii	"dasdasfasdas\000"
 760      61736661 
 760      73646173 
 760      00
 761 0031 000000   		.space	3
 762              	.LC2:
 763 0034 6572726F 		.ascii	"error fun name : init_MCB\012error para : MCB_ptr\012"
 763      72206675 
 763      6E206E61 
 763      6D65203A 
 763      20696E69 
 764 0063 00       		.ascii	"\000"
 765              	.LC3:
 766 0064 6572726F 		.ascii	"error fun name : delete_MCB\012error para : MCB_ptr"
 766      72206675 
 766      6E206E61 
 766      6D65203A 
 766      2064656C 
 767 0094 0A00     		.ascii	"\012\000"
 768 0096 0000     		.space	2
 769              	.LC4:
 770 0098 6572726F 		.ascii	"error fun name : p\012error para : MCB_ptr\012\000"
 770      72206675 
 770      6E206E61 
 770      6D65203A 
 770      20700A65 
 771 00c1 000000   		.space	3
 772              	.LC5:
 773 00c4 6572726F 		.ascii	"error fun name : v\012error para : MCB_ptr\012\000"
 773      72206675 
 773      6E206E61 
 773      6D65203A 
 773      20760A65 
 774              		.text
 775              	.Letext0:
 776              		.file 2 "../../source/include/os_cpu/kakaosstdint.h"
ARM GAS  G:\Users\Jaxb\AppData\Local\Temp\ccfFV28j.s 			page 20


 777              		.file 3 "../../source/include/os_lib/double_linked_list.h"
 778              		.file 4 "../../source/include/os_core/task_state.h"
 779              		.file 5 "../../source/include/os_core/TCB.h"
 780              		.file 6 "../../source/include/os_lib/insert_sort_oo.h"
 781              		.file 7 "../../source/include/os_core/MCB.h"
 782              		.file 8 "../../source/include/os_cpu/os_cpu_stm32.h"
 783              		.file 9 "../../source/include/os_lib/myassert.h"
 784              		.file 10 "../../source/include/os_core/schedule/os_schedule.h"
 785              		.file 11 "../../source/include/os_core/schedule/os_suspend.h"
 786              		.file 12 "../../source/include/os_core/schedule/os_delay.h"
 787              		.file 13 "../../source/include/os_lib/myMicroLIB.h"
 788              		.file 14 "../../source/include/os_core/os_time.h"
 789              		.section	.debug_info,"",%progbits
 790              	.Ldebug_info0:
 791 0000 0A0A0000 		.4byte	0xa0a
 792 0004 0200     		.2byte	0x2
 793 0006 00000000 		.4byte	.Ldebug_abbrev0
 794 000a 04       		.byte	0x4
 795 000b 01       		.uleb128 0x1
 796 000c 11050000 		.4byte	.LASF91
 797 0010 0C       		.byte	0xc
 798 0011 22010000 		.4byte	.LASF92
 799 0015 FA030000 		.4byte	.LASF93
 800 0019 00000000 		.4byte	.Ltext0
 801 001d BC020000 		.4byte	.Letext0
 802 0021 00000000 		.4byte	.Ldebug_line0
 803 0025 02       		.uleb128 0x2
 804 0026 01       		.byte	0x1
 805 0027 06       		.byte	0x6
 806 0028 CF020000 		.4byte	.LASF0
 807 002c 02       		.uleb128 0x2
 808 002d 02       		.byte	0x2
 809 002e 05       		.byte	0x5
 810 002f 51000000 		.4byte	.LASF1
 811 0033 03       		.uleb128 0x3
 812 0034 04       		.byte	0x4
 813 0035 05       		.byte	0x5
 814 0036 696E7400 		.ascii	"int\000"
 815 003a 04       		.uleb128 0x4
 816 003b 33000000 		.4byte	0x33
 817 003f 02       		.uleb128 0x2
 818 0040 08       		.byte	0x8
 819 0041 05       		.byte	0x5
 820 0042 CA010000 		.4byte	.LASF2
 821 0046 02       		.uleb128 0x2
 822 0047 01       		.byte	0x1
 823 0048 08       		.byte	0x8
 824 0049 7F020000 		.4byte	.LASF3
 825 004d 02       		.uleb128 0x2
 826 004e 02       		.byte	0x2
 827 004f 07       		.byte	0x7
 828 0050 48030000 		.4byte	.LASF4
 829 0054 05       		.uleb128 0x5
 830 0055 A3000000 		.4byte	.LASF6
 831 0059 02       		.byte	0x2
 832 005a 0C       		.byte	0xc
 833 005b 5F000000 		.4byte	0x5f
ARM GAS  G:\Users\Jaxb\AppData\Local\Temp\ccfFV28j.s 			page 21


 834 005f 02       		.uleb128 0x2
 835 0060 04       		.byte	0x4
 836 0061 07       		.byte	0x7
 837 0062 09030000 		.4byte	.LASF5
 838 0066 05       		.uleb128 0x5
 839 0067 16060000 		.4byte	.LASF7
 840 006b 02       		.byte	0x2
 841 006c 0D       		.byte	0xd
 842 006d 71000000 		.4byte	0x71
 843 0071 02       		.uleb128 0x2
 844 0072 08       		.byte	0x8
 845 0073 07       		.byte	0x7
 846 0074 DB020000 		.4byte	.LASF8
 847 0078 06       		.uleb128 0x6
 848 0079 24000000 		.4byte	.LASF24
 849 007d 08       		.byte	0x8
 850 007e 03       		.byte	0x3
 851 007f 04       		.byte	0x4
 852 0080 A1000000 		.4byte	0xa1
 853 0084 07       		.uleb128 0x7
 854 0085 2B060000 		.4byte	.LASF9
 855 0089 03       		.byte	0x3
 856 008a 05       		.byte	0x5
 857 008b A1000000 		.4byte	0xa1
 858 008f 02       		.byte	0x2
 859 0090 23       		.byte	0x23
 860 0091 00       		.uleb128 0
 861 0092 07       		.uleb128 0x7
 862 0093 D6050000 		.4byte	.LASF10
 863 0097 03       		.byte	0x3
 864 0098 05       		.byte	0x5
 865 0099 A1000000 		.4byte	0xa1
 866 009d 02       		.byte	0x2
 867 009e 23       		.byte	0x23
 868 009f 04       		.uleb128 0x4
 869 00a0 00       		.byte	0
 870 00a1 08       		.uleb128 0x8
 871 00a2 04       		.byte	0x4
 872 00a3 78000000 		.4byte	0x78
 873 00a7 09       		.uleb128 0x9
 874 00a8 CE000000 		.4byte	.LASF52
 875 00ac 07       		.byte	0x7
 876 00ad 01       		.byte	0x1
 877 00ae 46000000 		.4byte	0x46
 878 00b2 04       		.byte	0x4
 879 00b3 04       		.byte	0x4
 880 00b4 F5000000 		.4byte	0xf5
 881 00b8 0A       		.uleb128 0xa
 882 00b9 5B030000 		.4byte	.LASF11
 883 00bd 01       		.byte	0x1
 884 00be 0A       		.uleb128 0xa
 885 00bf A2020000 		.4byte	.LASF12
 886 00c3 02       		.byte	0x2
 887 00c4 0A       		.uleb128 0xa
 888 00c5 0F000000 		.4byte	.LASF13
 889 00c9 03       		.byte	0x3
 890 00ca 0A       		.uleb128 0xa
ARM GAS  G:\Users\Jaxb\AppData\Local\Temp\ccfFV28j.s 			page 22


 891 00cb 84040000 		.4byte	.LASF14
 892 00cf 04       		.byte	0x4
 893 00d0 0A       		.uleb128 0xa
 894 00d1 89010000 		.4byte	.LASF15
 895 00d5 05       		.byte	0x5
 896 00d6 0A       		.uleb128 0xa
 897 00d7 82000000 		.4byte	.LASF16
 898 00db 06       		.byte	0x6
 899 00dc 0A       		.uleb128 0xa
 900 00dd A9010000 		.4byte	.LASF17
 901 00e1 07       		.byte	0x7
 902 00e2 0A       		.uleb128 0xa
 903 00e3 D9000000 		.4byte	.LASF18
 904 00e7 08       		.byte	0x8
 905 00e8 0A       		.uleb128 0xa
 906 00e9 7C030000 		.4byte	.LASF19
 907 00ed 09       		.byte	0x9
 908 00ee 0A       		.uleb128 0xa
 909 00ef B7050000 		.4byte	.LASF20
 910 00f3 0A       		.byte	0xa
 911 00f4 00       		.byte	0
 912 00f5 05       		.uleb128 0x5
 913 00f6 3A020000 		.4byte	.LASF21
 914 00fa 04       		.byte	0x4
 915 00fb 0F       		.byte	0xf
 916 00fc A7000000 		.4byte	0xa7
 917 0100 05       		.uleb128 0x5
 918 0101 C3000000 		.4byte	.LASF22
 919 0105 05       		.byte	0x5
 920 0106 09       		.byte	0x9
 921 0107 5F000000 		.4byte	0x5f
 922 010b 05       		.uleb128 0x5
 923 010c 00000000 		.4byte	.LASF23
 924 0110 05       		.byte	0x5
 925 0111 0B       		.byte	0xb
 926 0112 5F000000 		.4byte	0x5f
 927 0116 0B       		.uleb128 0xb
 928 0117 04       		.byte	0x4
 929 0118 0C       		.uleb128 0xc
 930 0119 F8040000 		.4byte	.LASF63
 931 011d 05       		.byte	0x5
 932 011e 12       		.byte	0x12
 933 011f 3A000000 		.4byte	0x3a
 934 0123 01       		.byte	0x1
 935 0124 01       		.byte	0x1
 936 0125 06       		.uleb128 0x6
 937 0126 A3040000 		.4byte	.LASF25
 938 012a 48       		.byte	0x48
 939 012b 05       		.byte	0x5
 940 012c 2F       		.byte	0x2f
 941 012d F6010000 		.4byte	0x1f6
 942 0131 07       		.uleb128 0x7
 943 0132 16030000 		.4byte	.LASF26
 944 0136 05       		.byte	0x5
 945 0137 30       		.byte	0x30
 946 0138 F6010000 		.4byte	0x1f6
 947 013c 02       		.byte	0x2
ARM GAS  G:\Users\Jaxb\AppData\Local\Temp\ccfFV28j.s 			page 23


 948 013d 23       		.byte	0x23
 949 013e 00       		.uleb128 0
 950 013f 07       		.uleb128 0x7
 951 0140 BD040000 		.4byte	.LASF27
 952 0144 05       		.byte	0x5
 953 0145 31       		.byte	0x31
 954 0146 5F000000 		.4byte	0x5f
 955 014a 02       		.byte	0x2
 956 014b 23       		.byte	0x23
 957 014c 04       		.uleb128 0x4
 958 014d 07       		.uleb128 0x7
 959 014e 7F010000 		.4byte	.LASF28
 960 0152 05       		.byte	0x5
 961 0153 32       		.byte	0x32
 962 0154 F6010000 		.4byte	0x1f6
 963 0158 02       		.byte	0x2
 964 0159 23       		.byte	0x23
 965 015a 08       		.uleb128 0x8
 966 015b 07       		.uleb128 0x7
 967 015c 1D060000 		.4byte	.LASF29
 968 0160 05       		.byte	0x5
 969 0161 33       		.byte	0x33
 970 0162 0B010000 		.4byte	0x10b
 971 0166 02       		.byte	0x2
 972 0167 23       		.byte	0x23
 973 0168 0C       		.uleb128 0xc
 974 0169 07       		.uleb128 0x7
 975 016a DE040000 		.4byte	.LASF30
 976 016e 05       		.byte	0x5
 977 016f 34       		.byte	0x34
 978 0170 0B010000 		.4byte	0x10b
 979 0174 02       		.byte	0x2
 980 0175 23       		.byte	0x23
 981 0176 10       		.uleb128 0x10
 982 0177 07       		.uleb128 0x7
 983 0178 D7030000 		.4byte	.LASF31
 984 017c 05       		.byte	0x5
 985 017d 35       		.byte	0x35
 986 017e F5000000 		.4byte	0xf5
 987 0182 02       		.byte	0x2
 988 0183 23       		.byte	0x23
 989 0184 14       		.uleb128 0x14
 990 0185 07       		.uleb128 0x7
 991 0186 C3030000 		.4byte	.LASF32
 992 018a 05       		.byte	0x5
 993 018b 36       		.byte	0x36
 994 018c 33000000 		.4byte	0x33
 995 0190 02       		.byte	0x2
 996 0191 23       		.byte	0x23
 997 0192 18       		.uleb128 0x18
 998 0193 07       		.uleb128 0x7
 999 0194 2A030000 		.4byte	.LASF33
 1000 0198 05       		.byte	0x5
 1001 0199 37       		.byte	0x37
 1002 019a 78000000 		.4byte	0x78
 1003 019e 02       		.byte	0x2
 1004 019f 23       		.byte	0x23
ARM GAS  G:\Users\Jaxb\AppData\Local\Temp\ccfFV28j.s 			page 24


 1005 01a0 1C       		.uleb128 0x1c
 1006 01a1 07       		.uleb128 0x7
 1007 01a2 EB040000 		.4byte	.LASF34
 1008 01a6 05       		.byte	0x5
 1009 01a7 38       		.byte	0x38
 1010 01a8 78000000 		.4byte	0x78
 1011 01ac 02       		.byte	0x2
 1012 01ad 23       		.byte	0x23
 1013 01ae 24       		.uleb128 0x24
 1014 01af 07       		.uleb128 0x7
 1015 01b0 51020000 		.4byte	.LASF35
 1016 01b4 05       		.byte	0x5
 1017 01b5 39       		.byte	0x39
 1018 01b6 FC010000 		.4byte	0x1fc
 1019 01ba 02       		.byte	0x2
 1020 01bb 23       		.byte	0x23
 1021 01bc 2C       		.uleb128 0x2c
 1022 01bd 07       		.uleb128 0x7
 1023 01be D8010000 		.4byte	.LASF36
 1024 01c2 05       		.byte	0x5
 1025 01c3 3A       		.byte	0x3a
 1026 01c4 5F000000 		.4byte	0x5f
 1027 01c8 02       		.byte	0x2
 1028 01c9 23       		.byte	0x23
 1029 01ca 30       		.uleb128 0x30
 1030 01cb 07       		.uleb128 0x7
 1031 01cc 5D040000 		.4byte	.LASF37
 1032 01d0 05       		.byte	0x5
 1033 01d1 3B       		.byte	0x3b
 1034 01d2 5F000000 		.4byte	0x5f
 1035 01d6 02       		.byte	0x2
 1036 01d7 23       		.byte	0x23
 1037 01d8 34       		.uleb128 0x34
 1038 01d9 07       		.uleb128 0x7
 1039 01da AE020000 		.4byte	.LASF38
 1040 01de 05       		.byte	0x5
 1041 01df 3C       		.byte	0x3c
 1042 01e0 54000000 		.4byte	0x54
 1043 01e4 02       		.byte	0x2
 1044 01e5 23       		.byte	0x23
 1045 01e6 38       		.uleb128 0x38
 1046 01e7 07       		.uleb128 0x7
 1047 01e8 E2050000 		.4byte	.LASF39
 1048 01ec 05       		.byte	0x5
 1049 01ed 3D       		.byte	0x3d
 1050 01ee 66000000 		.4byte	0x66
 1051 01f2 02       		.byte	0x2
 1052 01f3 23       		.byte	0x23
 1053 01f4 40       		.uleb128 0x40
 1054 01f5 00       		.byte	0
 1055 01f6 08       		.uleb128 0x8
 1056 01f7 04       		.byte	0x4
 1057 01f8 00010000 		.4byte	0x100
 1058 01fc 08       		.uleb128 0x8
 1059 01fd 04       		.byte	0x4
 1060 01fe 02020000 		.4byte	0x202
 1061 0202 02       		.uleb128 0x2
ARM GAS  G:\Users\Jaxb\AppData\Local\Temp\ccfFV28j.s 			page 25


 1062 0203 01       		.byte	0x1
 1063 0204 08       		.byte	0x8
 1064 0205 67030000 		.4byte	.LASF40
 1065 0209 0D       		.uleb128 0xd
 1066 020a 54434200 		.ascii	"TCB\000"
 1067 020e 05       		.byte	0x5
 1068 020f 3E       		.byte	0x3e
 1069 0210 25010000 		.4byte	0x125
 1070 0214 05       		.uleb128 0x5
 1071 0215 BB030000 		.4byte	.LASF41
 1072 0219 06       		.byte	0x6
 1073 021a 0D       		.byte	0xd
 1074 021b 66000000 		.4byte	0x66
 1075 021f 06       		.uleb128 0x6
 1076 0220 F1010000 		.4byte	.LASF42
 1077 0224 18       		.byte	0x18
 1078 0225 06       		.byte	0x6
 1079 0226 0F       		.byte	0xf
 1080 0227 56020000 		.4byte	0x256
 1081 022b 07       		.uleb128 0x7
 1082 022c 22060000 		.4byte	.LASF43
 1083 0230 06       		.byte	0x6
 1084 0231 11       		.byte	0x11
 1085 0232 16010000 		.4byte	0x116
 1086 0236 02       		.byte	0x2
 1087 0237 23       		.byte	0x23
 1088 0238 00       		.uleb128 0
 1089 0239 07       		.uleb128 0x7
 1090 023a 6A000000 		.4byte	.LASF44
 1091 023e 06       		.byte	0x6
 1092 023f 12       		.byte	0x12
 1093 0240 14020000 		.4byte	0x214
 1094 0244 02       		.byte	0x2
 1095 0245 23       		.byte	0x23
 1096 0246 08       		.uleb128 0x8
 1097 0247 07       		.uleb128 0x7
 1098 0248 78000000 		.4byte	.LASF45
 1099 024c 06       		.byte	0x6
 1100 024d 13       		.byte	0x13
 1101 024e 78000000 		.4byte	0x78
 1102 0252 02       		.byte	0x2
 1103 0253 23       		.byte	0x23
 1104 0254 10       		.uleb128 0x10
 1105 0255 00       		.byte	0
 1106 0256 06       		.uleb128 0x6
 1107 0257 71040000 		.4byte	.LASF46
 1108 025b 18       		.byte	0x18
 1109 025c 06       		.byte	0x6
 1110 025d 1D       		.byte	0x1d
 1111 025e A9020000 		.4byte	0x2a9
 1112 0262 07       		.uleb128 0x7
 1113 0263 42000000 		.4byte	.LASF47
 1114 0267 06       		.byte	0x6
 1115 0268 27       		.byte	0x27
 1116 0269 78000000 		.4byte	0x78
 1117 026d 02       		.byte	0x2
 1118 026e 23       		.byte	0x23
ARM GAS  G:\Users\Jaxb\AppData\Local\Temp\ccfFV28j.s 			page 26


 1119 026f 00       		.uleb128 0
 1120 0270 07       		.uleb128 0x7
 1121 0271 62020000 		.4byte	.LASF48
 1122 0275 06       		.byte	0x6
 1123 0276 28       		.byte	0x28
 1124 0277 5F000000 		.4byte	0x5f
 1125 027b 02       		.byte	0x2
 1126 027c 23       		.byte	0x23
 1127 027d 08       		.uleb128 0x8
 1128 027e 07       		.uleb128 0x7
 1129 027f 9B040000 		.4byte	.LASF49
 1130 0283 06       		.byte	0x6
 1131 0284 2C       		.byte	0x2c
 1132 0285 C4020000 		.4byte	0x2c4
 1133 0289 02       		.byte	0x2
 1134 028a 23       		.byte	0x23
 1135 028b 0C       		.uleb128 0xc
 1136 028c 07       		.uleb128 0x7
 1137 028d 02020000 		.4byte	.LASF50
 1138 0291 06       		.byte	0x6
 1139 0292 2D       		.byte	0x2d
 1140 0293 DF020000 		.4byte	0x2df
 1141 0297 02       		.byte	0x2
 1142 0298 23       		.byte	0x23
 1143 0299 10       		.uleb128 0x10
 1144 029a 07       		.uleb128 0x7
 1145 029b 3E030000 		.4byte	.LASF51
 1146 029f 06       		.byte	0x6
 1147 02a0 2E       		.byte	0x2e
 1148 02a1 FA020000 		.4byte	0x2fa
 1149 02a5 02       		.byte	0x2
 1150 02a6 23       		.byte	0x23
 1151 02a7 14       		.uleb128 0x14
 1152 02a8 00       		.byte	0
 1153 02a9 0E       		.uleb128 0xe
 1154 02aa 01       		.byte	0x1
 1155 02ab 33000000 		.4byte	0x33
 1156 02af BE020000 		.4byte	0x2be
 1157 02b3 0F       		.uleb128 0xf
 1158 02b4 BE020000 		.4byte	0x2be
 1159 02b8 0F       		.uleb128 0xf
 1160 02b9 BE020000 		.4byte	0x2be
 1161 02bd 00       		.byte	0
 1162 02be 08       		.uleb128 0x8
 1163 02bf 04       		.byte	0x4
 1164 02c0 1F020000 		.4byte	0x21f
 1165 02c4 08       		.uleb128 0x8
 1166 02c5 04       		.byte	0x4
 1167 02c6 A9020000 		.4byte	0x2a9
 1168 02ca 0E       		.uleb128 0xe
 1169 02cb 01       		.byte	0x1
 1170 02cc 33000000 		.4byte	0x33
 1171 02d0 DF020000 		.4byte	0x2df
 1172 02d4 0F       		.uleb128 0xf
 1173 02d5 BE020000 		.4byte	0x2be
 1174 02d9 0F       		.uleb128 0xf
 1175 02da 16010000 		.4byte	0x116
ARM GAS  G:\Users\Jaxb\AppData\Local\Temp\ccfFV28j.s 			page 27


 1176 02de 00       		.byte	0
 1177 02df 08       		.uleb128 0x8
 1178 02e0 04       		.byte	0x4
 1179 02e1 CA020000 		.4byte	0x2ca
 1180 02e5 0E       		.uleb128 0xe
 1181 02e6 01       		.byte	0x1
 1182 02e7 33000000 		.4byte	0x33
 1183 02eb FA020000 		.4byte	0x2fa
 1184 02ef 0F       		.uleb128 0xf
 1185 02f0 16010000 		.4byte	0x116
 1186 02f4 0F       		.uleb128 0xf
 1187 02f5 16010000 		.4byte	0x116
 1188 02f9 00       		.byte	0
 1189 02fa 08       		.uleb128 0x8
 1190 02fb 04       		.byte	0x4
 1191 02fc E5020000 		.4byte	0x2e5
 1192 0300 09       		.uleb128 0x9
 1193 0301 1C030000 		.4byte	.LASF53
 1194 0305 07       		.byte	0x7
 1195 0306 01       		.byte	0x1
 1196 0307 46000000 		.4byte	0x46
 1197 030b 07       		.byte	0x7
 1198 030c 07       		.byte	0x7
 1199 030d 24030000 		.4byte	0x324
 1200 0311 0A       		.uleb128 0xa
 1201 0312 C8040000 		.4byte	.LASF54
 1202 0316 00       		.byte	0
 1203 0317 0A       		.uleb128 0xa
 1204 0318 03010000 		.4byte	.LASF55
 1205 031c 01       		.byte	0x1
 1206 031d 0A       		.uleb128 0xa
 1207 031e 6C030000 		.4byte	.LASF56
 1208 0322 02       		.byte	0x2
 1209 0323 00       		.byte	0
 1210 0324 05       		.uleb128 0x5
 1211 0325 1C030000 		.4byte	.LASF53
 1212 0329 07       		.byte	0x7
 1213 032a 0C       		.byte	0xc
 1214 032b 00030000 		.4byte	0x300
 1215 032f 06       		.uleb128 0x6
 1216 0330 A7030000 		.4byte	.LASF57
 1217 0334 20       		.byte	0x20
 1218 0335 07       		.byte	0x7
 1219 0336 15       		.byte	0x15
 1220 0337 66030000 		.4byte	0x366
 1221 033b 07       		.uleb128 0x7
 1222 033c 8D020000 		.4byte	.LASF58
 1223 0340 07       		.byte	0x7
 1224 0341 16       		.byte	0x16
 1225 0342 56020000 		.4byte	0x256
 1226 0346 02       		.byte	0x2
 1227 0347 23       		.byte	0x23
 1228 0348 00       		.uleb128 0
 1229 0349 07       		.uleb128 0x7
 1230 034a 09060000 		.4byte	.LASF59
 1231 034e 07       		.byte	0x7
 1232 034f 17       		.byte	0x17
ARM GAS  G:\Users\Jaxb\AppData\Local\Temp\ccfFV28j.s 			page 28


 1233 0350 33000000 		.4byte	0x33
 1234 0354 02       		.byte	0x2
 1235 0355 23       		.byte	0x23
 1236 0356 18       		.uleb128 0x18
 1237 0357 07       		.uleb128 0x7
 1238 0358 EC010000 		.4byte	.LASF60
 1239 035c 07       		.byte	0x7
 1240 035d 18       		.byte	0x18
 1241 035e 5F000000 		.4byte	0x5f
 1242 0362 02       		.byte	0x2
 1243 0363 23       		.byte	0x23
 1244 0364 1C       		.uleb128 0x1c
 1245 0365 00       		.byte	0
 1246 0366 0D       		.uleb128 0xd
 1247 0367 4D434200 		.ascii	"MCB\000"
 1248 036b 07       		.byte	0x7
 1249 036c 19       		.byte	0x19
 1250 036d 2F030000 		.4byte	0x32f
 1251 0371 05       		.uleb128 0x5
 1252 0372 9C030000 		.4byte	.LASF61
 1253 0376 08       		.byte	0x8
 1254 0377 04       		.byte	0x4
 1255 0378 5F000000 		.4byte	0x5f
 1256 037c 05       		.uleb128 0x5
 1257 037d DB050000 		.4byte	.LASF62
 1258 0381 08       		.byte	0x8
 1259 0382 06       		.byte	0x6
 1260 0383 71030000 		.4byte	0x371
 1261 0387 0C       		.uleb128 0xc
 1262 0388 56020000 		.4byte	.LASF64
 1263 038c 01       		.byte	0x1
 1264 038d 0C       		.byte	0xc
 1265 038e 94030000 		.4byte	0x394
 1266 0392 01       		.byte	0x1
 1267 0393 01       		.byte	0x1
 1268 0394 08       		.uleb128 0x8
 1269 0395 04       		.byte	0x4
 1270 0396 09020000 		.4byte	0x209
 1271 039a 10       		.uleb128 0x10
 1272 039b 01       		.byte	0x1
 1273 039c 0F020000 		.4byte	.LASF94
 1274 03a0 01       		.byte	0x1
 1275 03a1 CF       		.byte	0xcf
 1276 03a2 01       		.byte	0x1
 1277 03a3 90020000 		.4byte	.LFB18
 1278 03a7 BC020000 		.4byte	.LFE18
 1279 03ab 00000000 		.4byte	.LLST22
 1280 03af 01       		.byte	0x1
 1281 03b0 FF030000 		.4byte	0x3ff
 1282 03b4 11       		.uleb128 0x11
 1283 03b5 2E000000 		.4byte	.LASF65
 1284 03b9 01       		.byte	0x1
 1285 03ba CF       		.byte	0xcf
 1286 03bb FF030000 		.4byte	0x3ff
 1287 03bf 38000000 		.4byte	.LLST23
 1288 03c3 12       		.uleb128 0x12
 1289 03c4 0A050000 		.4byte	.LASF66
ARM GAS  G:\Users\Jaxb\AppData\Local\Temp\ccfFV28j.s 			page 29


 1290 03c8 01       		.byte	0x1
 1291 03c9 D2       		.byte	0xd2
 1292 03ca 7C030000 		.4byte	0x37c
 1293 03ce 7A000000 		.4byte	.LLST24
 1294 03d2 13       		.uleb128 0x13
 1295 03d3 9A020000 		.4byte	.LVL105
 1296 03d7 4A090000 		.4byte	0x94a
 1297 03db 14       		.uleb128 0x14
 1298 03dc AC020000 		.4byte	.LVL107
 1299 03e0 01       		.byte	0x1
 1300 03e1 57090000 		.4byte	0x957
 1301 03e5 15       		.uleb128 0x15
 1302 03e6 B4020000 		.4byte	.LVL109
 1303 03ea 64090000 		.4byte	0x964
 1304 03ee 16       		.uleb128 0x16
 1305 03ef 01       		.byte	0x1
 1306 03f0 50       		.byte	0x50
 1307 03f1 05       		.byte	0x5
 1308 03f2 03       		.byte	0x3
 1309 03f3 00000000 		.4byte	.LC0
 1310 03f7 16       		.uleb128 0x16
 1311 03f8 01       		.byte	0x1
 1312 03f9 51       		.byte	0x51
 1313 03fa 02       		.byte	0x2
 1314 03fb 08       		.byte	0x8
 1315 03fc D1       		.byte	0xd1
 1316 03fd 00       		.byte	0
 1317 03fe 00       		.byte	0
 1318 03ff 08       		.uleb128 0x8
 1319 0400 04       		.byte	0x4
 1320 0401 66030000 		.4byte	0x366
 1321 0405 17       		.uleb128 0x17
 1322 0406 01       		.byte	0x1
 1323 0407 7600     		.ascii	"v\000"
 1324 0409 01       		.byte	0x1
 1325 040a AF       		.byte	0xaf
 1326 040b 01       		.byte	0x1
 1327 040c 33000000 		.4byte	0x33
 1328 0410 08020000 		.4byte	.LFB17
 1329 0414 90020000 		.4byte	.LFE17
 1330 0418 99000000 		.4byte	.LLST18
 1331 041c 01       		.byte	0x1
 1332 041d 06050000 		.4byte	0x506
 1333 0421 11       		.uleb128 0x11
 1334 0422 2E000000 		.4byte	.LASF65
 1335 0426 01       		.byte	0x1
 1336 0427 AF       		.byte	0xaf
 1337 0428 FF030000 		.4byte	0x3ff
 1338 042c B9000000 		.4byte	.LLST19
 1339 0430 12       		.uleb128 0x12
 1340 0431 0A050000 		.4byte	.LASF66
 1341 0435 01       		.byte	0x1
 1342 0436 B9       		.byte	0xb9
 1343 0437 7C030000 		.4byte	0x37c
 1344 043b ED000000 		.4byte	.LLST20
 1345 043f 18       		.uleb128 0x18
 1346 0440 18000000 		.4byte	.Ldebug_ranges0+0x18
ARM GAS  G:\Users\Jaxb\AppData\Local\Temp\ccfFV28j.s 			page 30


 1347 0444 87040000 		.4byte	0x487
 1348 0448 12       		.uleb128 0x12
 1349 0449 D6040000 		.4byte	.LASF67
 1350 044d 01       		.byte	0x1
 1351 044e C2       		.byte	0xc2
 1352 044f 94030000 		.4byte	0x394
 1353 0453 4E010000 		.4byte	.LLST21
 1354 0457 19       		.uleb128 0x19
 1355 0458 40020000 		.4byte	.LVL87
 1356 045c 71090000 		.4byte	0x971
 1357 0460 6B040000 		.4byte	0x46b
 1358 0464 16       		.uleb128 0x16
 1359 0465 01       		.byte	0x1
 1360 0466 50       		.byte	0x50
 1361 0467 02       		.byte	0x2
 1362 0468 74       		.byte	0x74
 1363 0469 00       		.sleb128 0
 1364 046a 00       		.byte	0
 1365 046b 13       		.uleb128 0x13
 1366 046c 50020000 		.4byte	.LVL90
 1367 0470 7E090000 		.4byte	0x97e
 1368 0474 13       		.uleb128 0x13
 1369 0475 7E020000 		.4byte	.LVL100
 1370 0479 8B090000 		.4byte	0x98b
 1371 047d 13       		.uleb128 0x13
 1372 047e 84020000 		.4byte	.LVL102
 1373 0482 98090000 		.4byte	0x998
 1374 0486 00       		.byte	0
 1375 0487 13       		.uleb128 0x13
 1376 0488 12020000 		.4byte	.LVL81
 1377 048c 4A090000 		.4byte	0x94a
 1378 0490 19       		.uleb128 0x19
 1379 0491 32020000 		.4byte	.LVL84
 1380 0495 57090000 		.4byte	0x957
 1381 0499 A4040000 		.4byte	0x4a4
 1382 049d 16       		.uleb128 0x16
 1383 049e 01       		.byte	0x1
 1384 049f 50       		.byte	0x50
 1385 04a0 02       		.byte	0x2
 1386 04a1 75       		.byte	0x75
 1387 04a2 00       		.sleb128 0
 1388 04a3 00       		.byte	0
 1389 04a4 19       		.uleb128 0x19
 1390 04a5 56020000 		.4byte	.LVL91
 1391 04a9 57090000 		.4byte	0x957
 1392 04ad B8040000 		.4byte	0x4b8
 1393 04b1 16       		.uleb128 0x16
 1394 04b2 01       		.byte	0x1
 1395 04b3 50       		.byte	0x50
 1396 04b4 02       		.byte	0x2
 1397 04b5 75       		.byte	0x75
 1398 04b6 00       		.sleb128 0
 1399 04b7 00       		.byte	0
 1400 04b8 19       		.uleb128 0x19
 1401 04b9 62020000 		.4byte	.LVL94
 1402 04bd 64090000 		.4byte	0x964
 1403 04c1 D5040000 		.4byte	0x4d5
ARM GAS  G:\Users\Jaxb\AppData\Local\Temp\ccfFV28j.s 			page 31


 1404 04c5 16       		.uleb128 0x16
 1405 04c6 01       		.byte	0x1
 1406 04c7 50       		.byte	0x50
 1407 04c8 05       		.byte	0x5
 1408 04c9 03       		.byte	0x3
 1409 04ca 00000000 		.4byte	.LC0
 1410 04ce 16       		.uleb128 0x16
 1411 04cf 01       		.byte	0x1
 1412 04d0 51       		.byte	0x51
 1413 04d1 02       		.byte	0x2
 1414 04d2 08       		.byte	0x8
 1415 04d3 BD       		.byte	0xbd
 1416 04d4 00       		.byte	0
 1417 04d5 19       		.uleb128 0x19
 1418 04d6 70020000 		.4byte	.LVL97
 1419 04da 64090000 		.4byte	0x964
 1420 04de F2040000 		.4byte	0x4f2
 1421 04e2 16       		.uleb128 0x16
 1422 04e3 01       		.byte	0x1
 1423 04e4 50       		.byte	0x50
 1424 04e5 05       		.byte	0x5
 1425 04e6 03       		.byte	0x3
 1426 04e7 00000000 		.4byte	.LC0
 1427 04eb 16       		.uleb128 0x16
 1428 04ec 01       		.byte	0x1
 1429 04ed 51       		.byte	0x51
 1430 04ee 02       		.byte	0x2
 1431 04ef 08       		.byte	0x8
 1432 04f0 B1       		.byte	0xb1
 1433 04f1 00       		.byte	0
 1434 04f2 15       		.uleb128 0x15
 1435 04f3 76020000 		.4byte	.LVL98
 1436 04f7 A5090000 		.4byte	0x9a5
 1437 04fb 16       		.uleb128 0x16
 1438 04fc 01       		.byte	0x1
 1439 04fd 50       		.byte	0x50
 1440 04fe 05       		.byte	0x5
 1441 04ff 03       		.byte	0x3
 1442 0500 C4000000 		.4byte	.LC5
 1443 0504 00       		.byte	0
 1444 0505 00       		.byte	0
 1445 0506 17       		.uleb128 0x17
 1446 0507 01       		.byte	0x1
 1447 0508 7000     		.ascii	"p\000"
 1448 050a 01       		.byte	0x1
 1449 050b 65       		.byte	0x65
 1450 050c 01       		.byte	0x1
 1451 050d 33000000 		.4byte	0x33
 1452 0511 00010000 		.4byte	.LFB16
 1453 0515 08020000 		.4byte	.LFE16
 1454 0519 77010000 		.4byte	.LLST12
 1455 051d 01       		.byte	0x1
 1456 051e C7060000 		.4byte	0x6c7
 1457 0522 11       		.uleb128 0x11
 1458 0523 2E000000 		.4byte	.LASF65
 1459 0527 01       		.byte	0x1
 1460 0528 66       		.byte	0x66
ARM GAS  G:\Users\Jaxb\AppData\Local\Temp\ccfFV28j.s 			page 32


 1461 0529 FF030000 		.4byte	0x3ff
 1462 052d D6010000 		.4byte	.LLST13
 1463 0531 11       		.uleb128 0x11
 1464 0532 EC010000 		.4byte	.LASF60
 1465 0536 01       		.byte	0x1
 1466 0537 67       		.byte	0x67
 1467 0538 24030000 		.4byte	0x324
 1468 053c 3C020000 		.4byte	.LLST14
 1469 0540 11       		.uleb128 0x11
 1470 0541 39030000 		.4byte	.LASF68
 1471 0545 01       		.byte	0x1
 1472 0546 68       		.byte	0x68
 1473 0547 5F000000 		.4byte	0x5f
 1474 054b 76020000 		.4byte	.LLST15
 1475 054f 12       		.uleb128 0x12
 1476 0550 0A050000 		.4byte	.LASF66
 1477 0554 01       		.byte	0x1
 1478 0555 73       		.byte	0x73
 1479 0556 7C030000 		.4byte	0x37c
 1480 055a AA020000 		.4byte	.LLST16
 1481 055e 1A       		.uleb128 0x1a
 1482 055f B6030000 		.4byte	.LASF69
 1483 0563 01       		.byte	0x1
 1484 0564 8A       		.byte	0x8a
 1485 0565 1F020000 		.4byte	0x21f
 1486 0569 02       		.byte	0x2
 1487 056a 91       		.byte	0x91
 1488 056b 40       		.sleb128 -64
 1489 056c 18       		.uleb128 0x18
 1490 056d 00000000 		.4byte	.Ldebug_ranges0+0
 1491 0571 F1050000 		.4byte	0x5f1
 1492 0575 12       		.uleb128 0x12
 1493 0576 36000000 		.4byte	.LASF70
 1494 057a 01       		.byte	0x1
 1495 057b 96       		.byte	0x96
 1496 057c 66000000 		.4byte	0x66
 1497 0580 37030000 		.4byte	.LLST17
 1498 0584 13       		.uleb128 0x13
 1499 0585 52010000 		.4byte	.LVL53
 1500 0589 B2090000 		.4byte	0x9b2
 1501 058d 19       		.uleb128 0x19
 1502 058e 5C010000 		.4byte	.LVL55
 1503 0592 57090000 		.4byte	0x957
 1504 0596 A1050000 		.4byte	0x5a1
 1505 059a 16       		.uleb128 0x16
 1506 059b 01       		.byte	0x1
 1507 059c 50       		.byte	0x50
 1508 059d 02       		.byte	0x2
 1509 059e 76       		.byte	0x76
 1510 059f 00       		.sleb128 0
 1511 05a0 00       		.byte	0
 1512 05a1 19       		.uleb128 0x19
 1513 05a2 64010000 		.4byte	.LVL56
 1514 05a6 BF090000 		.4byte	0x9bf
 1515 05aa BA050000 		.4byte	0x5ba
 1516 05ae 16       		.uleb128 0x16
 1517 05af 01       		.byte	0x1
ARM GAS  G:\Users\Jaxb\AppData\Local\Temp\ccfFV28j.s 			page 33


 1518 05b0 50       		.byte	0x50
 1519 05b1 02       		.byte	0x2
 1520 05b2 77       		.byte	0x77
 1521 05b3 00       		.sleb128 0
 1522 05b4 16       		.uleb128 0x16
 1523 05b5 01       		.byte	0x1
 1524 05b6 51       		.byte	0x51
 1525 05b7 01       		.byte	0x1
 1526 05b8 35       		.byte	0x35
 1527 05b9 00       		.byte	0
 1528 05ba 13       		.uleb128 0x13
 1529 05bb 68010000 		.4byte	.LVL57
 1530 05bf 4A090000 		.4byte	0x94a
 1531 05c3 13       		.uleb128 0x13
 1532 05c4 6E010000 		.4byte	.LVL59
 1533 05c8 B2090000 		.4byte	0x9b2
 1534 05cc 19       		.uleb128 0x19
 1535 05cd EC010000 		.4byte	.LVL77
 1536 05d1 CC090000 		.4byte	0x9cc
 1537 05d5 E0050000 		.4byte	0x5e0
 1538 05d9 16       		.uleb128 0x16
 1539 05da 01       		.byte	0x1
 1540 05db 50       		.byte	0x50
 1541 05dc 02       		.byte	0x2
 1542 05dd 74       		.byte	0x74
 1543 05de 00       		.sleb128 0
 1544 05df 00       		.byte	0
 1545 05e0 15       		.uleb128 0x15
 1546 05e1 F2010000 		.4byte	.LVL78
 1547 05e5 57090000 		.4byte	0x957
 1548 05e9 16       		.uleb128 0x16
 1549 05ea 01       		.byte	0x1
 1550 05eb 50       		.byte	0x50
 1551 05ec 02       		.byte	0x2
 1552 05ed 76       		.byte	0x76
 1553 05ee 00       		.sleb128 0
 1554 05ef 00       		.byte	0
 1555 05f0 00       		.byte	0
 1556 05f1 13       		.uleb128 0x13
 1557 05f2 14010000 		.4byte	.LVL45
 1558 05f6 4A090000 		.4byte	0x94a
 1559 05fa 19       		.uleb128 0x19
 1560 05fb 32010000 		.4byte	.LVL48
 1561 05ff 57090000 		.4byte	0x957
 1562 0603 0E060000 		.4byte	0x60e
 1563 0607 16       		.uleb128 0x16
 1564 0608 01       		.byte	0x1
 1565 0609 50       		.byte	0x50
 1566 060a 02       		.byte	0x2
 1567 060b 76       		.byte	0x76
 1568 060c 00       		.sleb128 0
 1569 060d 00       		.byte	0
 1570 060e 19       		.uleb128 0x19
 1571 060f 44010000 		.4byte	.LVL51
 1572 0613 D9090000 		.4byte	0x9d9
 1573 0617 22060000 		.4byte	0x622
 1574 061b 16       		.uleb128 0x16
ARM GAS  G:\Users\Jaxb\AppData\Local\Temp\ccfFV28j.s 			page 34


 1575 061c 01       		.byte	0x1
 1576 061d 50       		.byte	0x50
 1577 061e 02       		.byte	0x2
 1578 061f 7D       		.byte	0x7d
 1579 0620 00       		.sleb128 0
 1580 0621 00       		.byte	0
 1581 0622 19       		.uleb128 0x19
 1582 0623 4C010000 		.4byte	.LVL52
 1583 0627 E6090000 		.4byte	0x9e6
 1584 062b 3C060000 		.4byte	0x63c
 1585 062f 16       		.uleb128 0x16
 1586 0630 01       		.byte	0x1
 1587 0631 50       		.byte	0x50
 1588 0632 02       		.byte	0x2
 1589 0633 7D       		.byte	0x7d
 1590 0634 00       		.sleb128 0
 1591 0635 16       		.uleb128 0x16
 1592 0636 01       		.byte	0x1
 1593 0637 51       		.byte	0x51
 1594 0638 02       		.byte	0x2
 1595 0639 74       		.byte	0x74
 1596 063a 00       		.sleb128 0
 1597 063b 00       		.byte	0
 1598 063c 19       		.uleb128 0x19
 1599 063d 94010000 		.4byte	.LVL62
 1600 0641 57090000 		.4byte	0x957
 1601 0645 50060000 		.4byte	0x650
 1602 0649 16       		.uleb128 0x16
 1603 064a 01       		.byte	0x1
 1604 064b 50       		.byte	0x50
 1605 064c 02       		.byte	0x2
 1606 064d 76       		.byte	0x76
 1607 064e 00       		.sleb128 0
 1608 064f 00       		.byte	0
 1609 0650 13       		.uleb128 0x13
 1610 0651 A2010000 		.4byte	.LVL64
 1611 0655 57090000 		.4byte	0x957
 1612 0659 19       		.uleb128 0x19
 1613 065a AE010000 		.4byte	.LVL65
 1614 065e 57090000 		.4byte	0x957
 1615 0662 6D060000 		.4byte	0x66d
 1616 0666 16       		.uleb128 0x16
 1617 0667 01       		.byte	0x1
 1618 0668 50       		.byte	0x50
 1619 0669 02       		.byte	0x2
 1620 066a 76       		.byte	0x76
 1621 066b 00       		.sleb128 0
 1622 066c 00       		.byte	0
 1623 066d 19       		.uleb128 0x19
 1624 066e B4010000 		.4byte	.LVL66
 1625 0672 F3090000 		.4byte	0x9f3
 1626 0676 80060000 		.4byte	0x680
 1627 067a 16       		.uleb128 0x16
 1628 067b 01       		.byte	0x1
 1629 067c 50       		.byte	0x50
 1630 067d 01       		.byte	0x1
 1631 067e 34       		.byte	0x34
ARM GAS  G:\Users\Jaxb\AppData\Local\Temp\ccfFV28j.s 			page 35


 1632 067f 00       		.byte	0
 1633 0680 13       		.uleb128 0x13
 1634 0681 B8010000 		.4byte	.LVL67
 1635 0685 4A090000 		.4byte	0x94a
 1636 0689 19       		.uleb128 0x19
 1637 068a C4010000 		.4byte	.LVL72
 1638 068e 64090000 		.4byte	0x964
 1639 0692 A6060000 		.4byte	0x6a6
 1640 0696 16       		.uleb128 0x16
 1641 0697 01       		.byte	0x1
 1642 0698 50       		.byte	0x50
 1643 0699 05       		.byte	0x5
 1644 069a 03       		.byte	0x3
 1645 069b 00000000 		.4byte	.LC0
 1646 069f 16       		.uleb128 0x16
 1647 06a0 01       		.byte	0x1
 1648 06a1 51       		.byte	0x51
 1649 06a2 02       		.byte	0x2
 1650 06a3 08       		.byte	0x8
 1651 06a4 6B       		.byte	0x6b
 1652 06a5 00       		.byte	0
 1653 06a6 19       		.uleb128 0x19
 1654 06a7 CA010000 		.4byte	.LVL73
 1655 06ab A5090000 		.4byte	0x9a5
 1656 06af BD060000 		.4byte	0x6bd
 1657 06b3 16       		.uleb128 0x16
 1658 06b4 01       		.byte	0x1
 1659 06b5 50       		.byte	0x50
 1660 06b6 05       		.byte	0x5
 1661 06b7 03       		.byte	0x3
 1662 06b8 98000000 		.4byte	.LC4
 1663 06bc 00       		.byte	0
 1664 06bd 13       		.uleb128 0x13
 1665 06be D8010000 		.4byte	.LVL75
 1666 06c2 57090000 		.4byte	0x957
 1667 06c6 00       		.byte	0
 1668 06c7 1B       		.uleb128 0x1b
 1669 06c8 01       		.byte	0x1
 1670 06c9 2F020000 		.4byte	.LASF71
 1671 06cd 01       		.byte	0x1
 1672 06ce 42       		.byte	0x42
 1673 06cf 01       		.byte	0x1
 1674 06d0 33000000 		.4byte	0x33
 1675 06d4 8C000000 		.4byte	.LFB15
 1676 06d8 00010000 		.4byte	.LFE15
 1677 06dc 5F030000 		.4byte	.LLST7
 1678 06e0 01       		.byte	0x1
 1679 06e1 E2070000 		.4byte	0x7e2
 1680 06e5 11       		.uleb128 0x11
 1681 06e6 2E000000 		.4byte	.LASF65
 1682 06ea 01       		.byte	0x1
 1683 06eb 42       		.byte	0x42
 1684 06ec FF030000 		.4byte	0x3ff
 1685 06f0 7F030000 		.4byte	.LLST8
 1686 06f4 12       		.uleb128 0x12
 1687 06f5 D6040000 		.4byte	.LASF67
 1688 06f9 01       		.byte	0x1
ARM GAS  G:\Users\Jaxb\AppData\Local\Temp\ccfFV28j.s 			page 36


 1689 06fa 4C       		.byte	0x4c
 1690 06fb 94030000 		.4byte	0x394
 1691 06ff C1030000 		.4byte	.LLST9
 1692 0703 12       		.uleb128 0x12
 1693 0704 0A050000 		.4byte	.LASF66
 1694 0708 01       		.byte	0x1
 1695 0709 4D       		.byte	0x4d
 1696 070a 7C030000 		.4byte	0x37c
 1697 070e DF030000 		.4byte	.LLST10
 1698 0712 12       		.uleb128 0x12
 1699 0713 BA020000 		.4byte	.LASF72
 1700 0717 01       		.byte	0x1
 1701 0718 4F       		.byte	0x4f
 1702 0719 BE020000 		.4byte	0x2be
 1703 071d 09040000 		.4byte	.LLST11
 1704 0721 13       		.uleb128 0x13
 1705 0722 96000000 		.4byte	.LVL22
 1706 0726 4A090000 		.4byte	0x94a
 1707 072a 19       		.uleb128 0x19
 1708 072b 9E000000 		.4byte	.LVL25
 1709 072f 71090000 		.4byte	0x971
 1710 0733 3E070000 		.4byte	0x73e
 1711 0737 16       		.uleb128 0x16
 1712 0738 01       		.byte	0x1
 1713 0739 50       		.byte	0x50
 1714 073a 02       		.byte	0x2
 1715 073b 75       		.byte	0x75
 1716 073c 00       		.sleb128 0
 1717 073d 00       		.byte	0
 1718 073e 19       		.uleb128 0x19
 1719 073f B0000000 		.4byte	.LVL28
 1720 0743 64090000 		.4byte	0x964
 1721 0747 58070000 		.4byte	0x758
 1722 074b 16       		.uleb128 0x16
 1723 074c 01       		.byte	0x1
 1724 074d 50       		.byte	0x50
 1725 074e 02       		.byte	0x2
 1726 074f 76       		.byte	0x76
 1727 0750 00       		.sleb128 0
 1728 0751 16       		.uleb128 0x16
 1729 0752 01       		.byte	0x1
 1730 0753 51       		.byte	0x51
 1731 0754 02       		.byte	0x2
 1732 0755 08       		.byte	0x8
 1733 0756 59       		.byte	0x59
 1734 0757 00       		.byte	0
 1735 0758 19       		.uleb128 0x19
 1736 0759 B6000000 		.4byte	.LVL29
 1737 075d 98090000 		.4byte	0x998
 1738 0761 6C070000 		.4byte	0x76c
 1739 0765 16       		.uleb128 0x16
 1740 0766 01       		.byte	0x1
 1741 0767 50       		.byte	0x50
 1742 0768 02       		.byte	0x2
 1743 0769 74       		.byte	0x74
 1744 076a 00       		.sleb128 0
 1745 076b 00       		.byte	0
ARM GAS  G:\Users\Jaxb\AppData\Local\Temp\ccfFV28j.s 			page 37


 1746 076c 19       		.uleb128 0x19
 1747 076d C4000000 		.4byte	.LVL30
 1748 0771 71090000 		.4byte	0x971
 1749 0775 80070000 		.4byte	0x780
 1750 0779 16       		.uleb128 0x16
 1751 077a 01       		.byte	0x1
 1752 077b 50       		.byte	0x50
 1753 077c 02       		.byte	0x2
 1754 077d 75       		.byte	0x75
 1755 077e 00       		.sleb128 0
 1756 077f 00       		.byte	0
 1757 0780 19       		.uleb128 0x19
 1758 0781 D4000000 		.4byte	.LVL34
 1759 0785 8B090000 		.4byte	0x98b
 1760 0789 94070000 		.4byte	0x794
 1761 078d 16       		.uleb128 0x16
 1762 078e 01       		.byte	0x1
 1763 078f 50       		.byte	0x50
 1764 0790 02       		.byte	0x2
 1765 0791 74       		.byte	0x74
 1766 0792 00       		.sleb128 0
 1767 0793 00       		.byte	0
 1768 0794 13       		.uleb128 0x13
 1769 0795 DA000000 		.4byte	.LVL36
 1770 0799 7E090000 		.4byte	0x97e
 1771 079d 19       		.uleb128 0x19
 1772 079e E0000000 		.4byte	.LVL37
 1773 07a2 57090000 		.4byte	0x957
 1774 07a6 B1070000 		.4byte	0x7b1
 1775 07aa 16       		.uleb128 0x16
 1776 07ab 01       		.byte	0x1
 1777 07ac 50       		.byte	0x50
 1778 07ad 02       		.byte	0x2
 1779 07ae 77       		.byte	0x77
 1780 07af 00       		.sleb128 0
 1781 07b0 00       		.byte	0
 1782 07b1 19       		.uleb128 0x19
 1783 07b2 EC000000 		.4byte	.LVL40
 1784 07b6 64090000 		.4byte	0x964
 1785 07ba CE070000 		.4byte	0x7ce
 1786 07be 16       		.uleb128 0x16
 1787 07bf 01       		.byte	0x1
 1788 07c0 50       		.byte	0x50
 1789 07c1 05       		.byte	0x5
 1790 07c2 03       		.byte	0x3
 1791 07c3 00000000 		.4byte	.LC0
 1792 07c7 16       		.uleb128 0x16
 1793 07c8 01       		.byte	0x1
 1794 07c9 51       		.byte	0x51
 1795 07ca 02       		.byte	0x2
 1796 07cb 08       		.byte	0x8
 1797 07cc 44       		.byte	0x44
 1798 07cd 00       		.byte	0
 1799 07ce 15       		.uleb128 0x15
 1800 07cf F2000000 		.4byte	.LVL41
 1801 07d3 A5090000 		.4byte	0x9a5
 1802 07d7 16       		.uleb128 0x16
ARM GAS  G:\Users\Jaxb\AppData\Local\Temp\ccfFV28j.s 			page 38


 1803 07d8 01       		.byte	0x1
 1804 07d9 50       		.byte	0x50
 1805 07da 05       		.byte	0x5
 1806 07db 03       		.byte	0x3
 1807 07dc 64000000 		.4byte	.LC3
 1808 07e0 00       		.byte	0
 1809 07e1 00       		.byte	0
 1810 07e2 1B       		.uleb128 0x1b
 1811 07e3 01       		.byte	0x1
 1812 07e4 A0010000 		.4byte	.LASF73
 1813 07e8 01       		.byte	0x1
 1814 07e9 19       		.byte	0x19
 1815 07ea 01       		.byte	0x1
 1816 07eb 33000000 		.4byte	0x33
 1817 07ef 14000000 		.4byte	.LFB14
 1818 07f3 8C000000 		.4byte	.LFE14
 1819 07f7 32040000 		.4byte	.LLST2
 1820 07fb 01       		.byte	0x1
 1821 07fc D8080000 		.4byte	0x8d8
 1822 0800 11       		.uleb128 0x11
 1823 0801 2E000000 		.4byte	.LASF65
 1824 0805 01       		.byte	0x1
 1825 0806 1A       		.byte	0x1a
 1826 0807 FF030000 		.4byte	0x3ff
 1827 080b 52040000 		.4byte	.LLST3
 1828 080f 1C       		.uleb128 0x1c
 1829 0810 6E756D00 		.ascii	"num\000"
 1830 0814 01       		.byte	0x1
 1831 0815 1B       		.byte	0x1b
 1832 0816 33000000 		.4byte	0x33
 1833 081a 94040000 		.4byte	.LLST4
 1834 081e 11       		.uleb128 0x11
 1835 081f EC010000 		.4byte	.LASF60
 1836 0823 01       		.byte	0x1
 1837 0824 1C       		.byte	0x1c
 1838 0825 5F000000 		.4byte	0x5f
 1839 0829 D6040000 		.4byte	.LLST5
 1840 082d 12       		.uleb128 0x12
 1841 082e 0A050000 		.4byte	.LASF66
 1842 0832 01       		.byte	0x1
 1843 0833 28       		.byte	0x28
 1844 0834 7C030000 		.4byte	0x37c
 1845 0838 18050000 		.4byte	.LLST6
 1846 083c 13       		.uleb128 0x13
 1847 083d 22000000 		.4byte	.LVL6
 1848 0841 4A090000 		.4byte	0x94a
 1849 0845 19       		.uleb128 0x19
 1850 0846 3A000000 		.4byte	.LVL9
 1851 084a 000A0000 		.4byte	0xa00
 1852 084e 70080000 		.4byte	0x870
 1853 0852 16       		.uleb128 0x16
 1854 0853 01       		.byte	0x1
 1855 0854 50       		.byte	0x50
 1856 0855 02       		.byte	0x2
 1857 0856 74       		.byte	0x74
 1858 0857 00       		.sleb128 0
 1859 0858 16       		.uleb128 0x16
ARM GAS  G:\Users\Jaxb\AppData\Local\Temp\ccfFV28j.s 			page 39


 1860 0859 01       		.byte	0x1
 1861 085a 51       		.byte	0x51
 1862 085b 05       		.byte	0x5
 1863 085c 03       		.byte	0x3
 1864 085d 00000000 		.4byte	compare
 1865 0861 16       		.uleb128 0x16
 1866 0862 01       		.byte	0x1
 1867 0863 52       		.byte	0x52
 1868 0864 01       		.byte	0x1
 1869 0865 30       		.byte	0x30
 1870 0866 16       		.uleb128 0x16
 1871 0867 01       		.byte	0x1
 1872 0868 53       		.byte	0x53
 1873 0869 05       		.byte	0x5
 1874 086a 03       		.byte	0x3
 1875 086b 00000000 		.4byte	value_cmp
 1876 086f 00       		.byte	0
 1877 0870 19       		.uleb128 0x19
 1878 0871 4C000000 		.4byte	.LVL10
 1879 0875 57090000 		.4byte	0x957
 1880 0879 84080000 		.4byte	0x884
 1881 087d 16       		.uleb128 0x16
 1882 087e 01       		.byte	0x1
 1883 087f 50       		.byte	0x50
 1884 0880 02       		.byte	0x2
 1885 0881 77       		.byte	0x77
 1886 0882 00       		.sleb128 0
 1887 0883 00       		.byte	0
 1888 0884 19       		.uleb128 0x19
 1889 0885 58000000 		.4byte	.LVL14
 1890 0889 64090000 		.4byte	0x964
 1891 088d A0080000 		.4byte	0x8a0
 1892 0891 16       		.uleb128 0x16
 1893 0892 01       		.byte	0x1
 1894 0893 50       		.byte	0x50
 1895 0894 05       		.byte	0x5
 1896 0895 03       		.byte	0x3
 1897 0896 00000000 		.4byte	.LC0
 1898 089a 16       		.uleb128 0x16
 1899 089b 01       		.byte	0x1
 1900 089c 51       		.byte	0x51
 1901 089d 01       		.byte	0x1
 1902 089e 4F       		.byte	0x4f
 1903 089f 00       		.byte	0
 1904 08a0 19       		.uleb128 0x19
 1905 08a1 5E000000 		.4byte	.LVL15
 1906 08a5 A5090000 		.4byte	0x9a5
 1907 08a9 B7080000 		.4byte	0x8b7
 1908 08ad 16       		.uleb128 0x16
 1909 08ae 01       		.byte	0x1
 1910 08af 50       		.byte	0x50
 1911 08b0 05       		.byte	0x5
 1912 08b1 03       		.byte	0x3
 1913 08b2 24000000 		.4byte	.LC1
 1914 08b6 00       		.byte	0
 1915 08b7 19       		.uleb128 0x19
 1916 08b8 64000000 		.4byte	.LVL16
ARM GAS  G:\Users\Jaxb\AppData\Local\Temp\ccfFV28j.s 			page 40


 1917 08bc A5090000 		.4byte	0x9a5
 1918 08c0 CE080000 		.4byte	0x8ce
 1919 08c4 16       		.uleb128 0x16
 1920 08c5 01       		.byte	0x1
 1921 08c6 50       		.byte	0x50
 1922 08c7 05       		.byte	0x5
 1923 08c8 03       		.byte	0x3
 1924 08c9 34000000 		.4byte	.LC2
 1925 08cd 00       		.byte	0
 1926 08ce 13       		.uleb128 0x13
 1927 08cf 6E000000 		.4byte	.LVL18
 1928 08d3 57090000 		.4byte	0x957
 1929 08d7 00       		.byte	0
 1930 08d8 1D       		.uleb128 0x1d
 1931 08d9 3E030000 		.4byte	.LASF51
 1932 08dd 01       		.byte	0x1
 1933 08de 13       		.byte	0x13
 1934 08df 01       		.byte	0x1
 1935 08e0 33000000 		.4byte	0x33
 1936 08e4 0C000000 		.4byte	.LFB13
 1937 08e8 14000000 		.4byte	.LFE13
 1938 08ec 02       		.byte	0x2
 1939 08ed 7D       		.byte	0x7d
 1940 08ee 00       		.sleb128 0
 1941 08ef 01       		.byte	0x1
 1942 08f0 11090000 		.4byte	0x911
 1943 08f4 11       		.uleb128 0x11
 1944 08f5 1F020000 		.4byte	.LASF74
 1945 08f9 01       		.byte	0x1
 1946 08fa 13       		.byte	0x13
 1947 08fb 16010000 		.4byte	0x116
 1948 08ff 58050000 		.4byte	.LLST1
 1949 0903 1E       		.uleb128 0x1e
 1950 0904 D0050000 		.4byte	.LASF75
 1951 0908 01       		.byte	0x1
 1952 0909 13       		.byte	0x13
 1953 090a 16010000 		.4byte	0x116
 1954 090e 01       		.byte	0x1
 1955 090f 51       		.byte	0x51
 1956 0910 00       		.byte	0
 1957 0911 1D       		.uleb128 0x1d
 1958 0912 9B040000 		.4byte	.LASF49
 1959 0916 01       		.byte	0x1
 1960 0917 0E       		.byte	0xe
 1961 0918 01       		.byte	0x1
 1962 0919 33000000 		.4byte	0x33
 1963 091d 00000000 		.4byte	.LFB12
 1964 0921 0C000000 		.4byte	.LFE12
 1965 0925 02       		.byte	0x2
 1966 0926 7D       		.byte	0x7d
 1967 0927 00       		.sleb128 0
 1968 0928 01       		.byte	0x1
 1969 0929 4A090000 		.4byte	0x94a
 1970 092d 11       		.uleb128 0x11
 1971 092e 1F020000 		.4byte	.LASF74
 1972 0932 01       		.byte	0x1
 1973 0933 0E       		.byte	0xe
ARM GAS  G:\Users\Jaxb\AppData\Local\Temp\ccfFV28j.s 			page 41


 1974 0934 BE020000 		.4byte	0x2be
 1975 0938 79050000 		.4byte	.LLST0
 1976 093c 1E       		.uleb128 0x1e
 1977 093d D0050000 		.4byte	.LASF75
 1978 0941 01       		.byte	0x1
 1979 0942 0E       		.byte	0xe
 1980 0943 BE020000 		.4byte	0x2be
 1981 0947 01       		.byte	0x1
 1982 0948 51       		.byte	0x51
 1983 0949 00       		.byte	0
 1984 094a 1F       		.uleb128 0x1f
 1985 094b 01       		.byte	0x1
 1986 094c 01       		.byte	0x1
 1987 094d 73020000 		.4byte	.LASF76
 1988 0951 73020000 		.4byte	.LASF76
 1989 0955 08       		.byte	0x8
 1990 0956 35       		.byte	0x35
 1991 0957 1F       		.uleb128 0x1f
 1992 0958 01       		.byte	0x1
 1993 0959 01       		.byte	0x1
 1994 095a 5B000000 		.4byte	.LASF77
 1995 095e 5B000000 		.4byte	.LASF77
 1996 0962 08       		.byte	0x8
 1997 0963 36       		.byte	0x36
 1998 0964 1F       		.uleb128 0x1f
 1999 0965 01       		.byte	0x1
 2000 0966 01       		.byte	0x1
 2001 0967 6B020000 		.4byte	.LASF78
 2002 096b 6B020000 		.4byte	.LASF78
 2003 096f 09       		.byte	0x9
 2004 0970 06       		.byte	0x6
 2005 0971 1F       		.uleb128 0x1f
 2006 0972 01       		.byte	0x1
 2007 0973 01       		.byte	0x1
 2008 0974 45040000 		.4byte	.LASF79
 2009 0978 45040000 		.4byte	.LASF79
 2010 097c 06       		.byte	0x6
 2011 097d 3B       		.byte	0x3b
 2012 097e 1F       		.uleb128 0x1f
 2013 097f 01       		.byte	0x1
 2014 0980 01       		.byte	0x1
 2015 0981 46010000 		.4byte	.LASF80
 2016 0985 46010000 		.4byte	.LASF80
 2017 0989 0A       		.byte	0xa
 2018 098a 18       		.byte	0x18
 2019 098b 1F       		.uleb128 0x1f
 2020 098c 01       		.byte	0x1
 2021 098d 01       		.byte	0x1
 2022 098e AA000000 		.4byte	.LASF81
 2023 0992 AA000000 		.4byte	.LASF81
 2024 0996 0B       		.byte	0xb
 2025 0997 08       		.byte	0x8
 2026 0998 1F       		.uleb128 0x1f
 2027 0999 01       		.byte	0x1
 2028 099a 01       		.byte	0x1
 2029 099b F2020000 		.4byte	.LASF82
 2030 099f F2020000 		.4byte	.LASF82
ARM GAS  G:\Users\Jaxb\AppData\Local\Temp\ccfFV28j.s 			page 42


 2031 09a3 0C       		.byte	0xc
 2032 09a4 09       		.byte	0x9
 2033 09a5 1F       		.uleb128 0x1f
 2034 09a6 01       		.byte	0x1
 2035 09a7 01       		.byte	0x1
 2036 09a8 25020000 		.4byte	.LASF83
 2037 09ac 25020000 		.4byte	.LASF83
 2038 09b0 0D       		.byte	0xd
 2039 09b1 0C       		.byte	0xc
 2040 09b2 1F       		.uleb128 0x1f
 2041 09b3 01       		.byte	0x1
 2042 09b4 01       		.byte	0x1
 2043 09b5 19010000 		.4byte	.LASF84
 2044 09b9 19010000 		.4byte	.LASF84
 2045 09bd 0E       		.byte	0xe
 2046 09be 07       		.byte	0x7
 2047 09bf 1F       		.uleb128 0x1f
 2048 09c0 01       		.byte	0x1
 2049 09c1 01       		.byte	0x1
 2050 09c2 F9000000 		.4byte	.LASF85
 2051 09c6 F9000000 		.4byte	.LASF85
 2052 09ca 0A       		.byte	0xa
 2053 09cb 15       		.byte	0x15
 2054 09cc 1F       		.uleb128 0x1f
 2055 09cd 01       		.byte	0x1
 2056 09ce 01       		.byte	0x1
 2057 09cf 67010000 		.4byte	.LASF86
 2058 09d3 67010000 		.4byte	.LASF86
 2059 09d7 06       		.byte	0x6
 2060 09d8 3C       		.byte	0x3c
 2061 09d9 1F       		.uleb128 0x1f
 2062 09da 01       		.byte	0x1
 2063 09db 01       		.byte	0x1
 2064 09dc F3050000 		.4byte	.LASF87
 2065 09e0 F3050000 		.4byte	.LASF87
 2066 09e4 06       		.byte	0x6
 2067 09e5 16       		.byte	0x16
 2068 09e6 1F       		.uleb128 0x1f
 2069 09e7 01       		.byte	0x1
 2070 09e8 01       		.byte	0x1
 2071 09e9 E2030000 		.4byte	.LASF88
 2072 09ed E2030000 		.4byte	.LASF88
 2073 09f1 06       		.byte	0x6
 2074 09f2 38       		.byte	0x38
 2075 09f3 1F       		.uleb128 0x1f
 2076 09f4 01       		.byte	0x1
 2077 09f5 01       		.byte	0x1
 2078 09f6 45020000 		.4byte	.LASF89
 2079 09fa 45020000 		.4byte	.LASF89
 2080 09fe 0A       		.byte	0xa
 2081 09ff 16       		.byte	0x16
 2082 0a00 1F       		.uleb128 0x1f
 2083 0a01 01       		.byte	0x1
 2084 0a02 01       		.byte	0x1
 2085 0a03 4F010000 		.4byte	.LASF90
 2086 0a07 4F010000 		.4byte	.LASF90
 2087 0a0b 06       		.byte	0x6
ARM GAS  G:\Users\Jaxb\AppData\Local\Temp\ccfFV28j.s 			page 43


 2088 0a0c 31       		.byte	0x31
 2089 0a0d 00       		.byte	0
 2090              		.section	.debug_abbrev,"",%progbits
 2091              	.Ldebug_abbrev0:
 2092 0000 01       		.uleb128 0x1
 2093 0001 11       		.uleb128 0x11
 2094 0002 01       		.byte	0x1
 2095 0003 25       		.uleb128 0x25
 2096 0004 0E       		.uleb128 0xe
 2097 0005 13       		.uleb128 0x13
 2098 0006 0B       		.uleb128 0xb
 2099 0007 03       		.uleb128 0x3
 2100 0008 0E       		.uleb128 0xe
 2101 0009 1B       		.uleb128 0x1b
 2102 000a 0E       		.uleb128 0xe
 2103 000b 11       		.uleb128 0x11
 2104 000c 01       		.uleb128 0x1
 2105 000d 12       		.uleb128 0x12
 2106 000e 01       		.uleb128 0x1
 2107 000f 10       		.uleb128 0x10
 2108 0010 06       		.uleb128 0x6
 2109 0011 00       		.byte	0
 2110 0012 00       		.byte	0
 2111 0013 02       		.uleb128 0x2
 2112 0014 24       		.uleb128 0x24
 2113 0015 00       		.byte	0
 2114 0016 0B       		.uleb128 0xb
 2115 0017 0B       		.uleb128 0xb
 2116 0018 3E       		.uleb128 0x3e
 2117 0019 0B       		.uleb128 0xb
 2118 001a 03       		.uleb128 0x3
 2119 001b 0E       		.uleb128 0xe
 2120 001c 00       		.byte	0
 2121 001d 00       		.byte	0
 2122 001e 03       		.uleb128 0x3
 2123 001f 24       		.uleb128 0x24
 2124 0020 00       		.byte	0
 2125 0021 0B       		.uleb128 0xb
 2126 0022 0B       		.uleb128 0xb
 2127 0023 3E       		.uleb128 0x3e
 2128 0024 0B       		.uleb128 0xb
 2129 0025 03       		.uleb128 0x3
 2130 0026 08       		.uleb128 0x8
 2131 0027 00       		.byte	0
 2132 0028 00       		.byte	0
 2133 0029 04       		.uleb128 0x4
 2134 002a 35       		.uleb128 0x35
 2135 002b 00       		.byte	0
 2136 002c 49       		.uleb128 0x49
 2137 002d 13       		.uleb128 0x13
 2138 002e 00       		.byte	0
 2139 002f 00       		.byte	0
 2140 0030 05       		.uleb128 0x5
 2141 0031 16       		.uleb128 0x16
 2142 0032 00       		.byte	0
 2143 0033 03       		.uleb128 0x3
 2144 0034 0E       		.uleb128 0xe
ARM GAS  G:\Users\Jaxb\AppData\Local\Temp\ccfFV28j.s 			page 44


 2145 0035 3A       		.uleb128 0x3a
 2146 0036 0B       		.uleb128 0xb
 2147 0037 3B       		.uleb128 0x3b
 2148 0038 0B       		.uleb128 0xb
 2149 0039 49       		.uleb128 0x49
 2150 003a 13       		.uleb128 0x13
 2151 003b 00       		.byte	0
 2152 003c 00       		.byte	0
 2153 003d 06       		.uleb128 0x6
 2154 003e 13       		.uleb128 0x13
 2155 003f 01       		.byte	0x1
 2156 0040 03       		.uleb128 0x3
 2157 0041 0E       		.uleb128 0xe
 2158 0042 0B       		.uleb128 0xb
 2159 0043 0B       		.uleb128 0xb
 2160 0044 3A       		.uleb128 0x3a
 2161 0045 0B       		.uleb128 0xb
 2162 0046 3B       		.uleb128 0x3b
 2163 0047 0B       		.uleb128 0xb
 2164 0048 01       		.uleb128 0x1
 2165 0049 13       		.uleb128 0x13
 2166 004a 00       		.byte	0
 2167 004b 00       		.byte	0
 2168 004c 07       		.uleb128 0x7
 2169 004d 0D       		.uleb128 0xd
 2170 004e 00       		.byte	0
 2171 004f 03       		.uleb128 0x3
 2172 0050 0E       		.uleb128 0xe
 2173 0051 3A       		.uleb128 0x3a
 2174 0052 0B       		.uleb128 0xb
 2175 0053 3B       		.uleb128 0x3b
 2176 0054 0B       		.uleb128 0xb
 2177 0055 49       		.uleb128 0x49
 2178 0056 13       		.uleb128 0x13
 2179 0057 38       		.uleb128 0x38
 2180 0058 0A       		.uleb128 0xa
 2181 0059 00       		.byte	0
 2182 005a 00       		.byte	0
 2183 005b 08       		.uleb128 0x8
 2184 005c 0F       		.uleb128 0xf
 2185 005d 00       		.byte	0
 2186 005e 0B       		.uleb128 0xb
 2187 005f 0B       		.uleb128 0xb
 2188 0060 49       		.uleb128 0x49
 2189 0061 13       		.uleb128 0x13
 2190 0062 00       		.byte	0
 2191 0063 00       		.byte	0
 2192 0064 09       		.uleb128 0x9
 2193 0065 04       		.uleb128 0x4
 2194 0066 01       		.byte	0x1
 2195 0067 03       		.uleb128 0x3
 2196 0068 0E       		.uleb128 0xe
 2197 0069 3E       		.uleb128 0x3e
 2198 006a 0B       		.uleb128 0xb
 2199 006b 0B       		.uleb128 0xb
 2200 006c 0B       		.uleb128 0xb
 2201 006d 49       		.uleb128 0x49
ARM GAS  G:\Users\Jaxb\AppData\Local\Temp\ccfFV28j.s 			page 45


 2202 006e 13       		.uleb128 0x13
 2203 006f 3A       		.uleb128 0x3a
 2204 0070 0B       		.uleb128 0xb
 2205 0071 3B       		.uleb128 0x3b
 2206 0072 0B       		.uleb128 0xb
 2207 0073 01       		.uleb128 0x1
 2208 0074 13       		.uleb128 0x13
 2209 0075 00       		.byte	0
 2210 0076 00       		.byte	0
 2211 0077 0A       		.uleb128 0xa
 2212 0078 28       		.uleb128 0x28
 2213 0079 00       		.byte	0
 2214 007a 03       		.uleb128 0x3
 2215 007b 0E       		.uleb128 0xe
 2216 007c 1C       		.uleb128 0x1c
 2217 007d 0B       		.uleb128 0xb
 2218 007e 00       		.byte	0
 2219 007f 00       		.byte	0
 2220 0080 0B       		.uleb128 0xb
 2221 0081 0F       		.uleb128 0xf
 2222 0082 00       		.byte	0
 2223 0083 0B       		.uleb128 0xb
 2224 0084 0B       		.uleb128 0xb
 2225 0085 00       		.byte	0
 2226 0086 00       		.byte	0
 2227 0087 0C       		.uleb128 0xc
 2228 0088 34       		.uleb128 0x34
 2229 0089 00       		.byte	0
 2230 008a 03       		.uleb128 0x3
 2231 008b 0E       		.uleb128 0xe
 2232 008c 3A       		.uleb128 0x3a
 2233 008d 0B       		.uleb128 0xb
 2234 008e 3B       		.uleb128 0x3b
 2235 008f 0B       		.uleb128 0xb
 2236 0090 49       		.uleb128 0x49
 2237 0091 13       		.uleb128 0x13
 2238 0092 3F       		.uleb128 0x3f
 2239 0093 0C       		.uleb128 0xc
 2240 0094 3C       		.uleb128 0x3c
 2241 0095 0C       		.uleb128 0xc
 2242 0096 00       		.byte	0
 2243 0097 00       		.byte	0
 2244 0098 0D       		.uleb128 0xd
 2245 0099 16       		.uleb128 0x16
 2246 009a 00       		.byte	0
 2247 009b 03       		.uleb128 0x3
 2248 009c 08       		.uleb128 0x8
 2249 009d 3A       		.uleb128 0x3a
 2250 009e 0B       		.uleb128 0xb
 2251 009f 3B       		.uleb128 0x3b
 2252 00a0 0B       		.uleb128 0xb
 2253 00a1 49       		.uleb128 0x49
 2254 00a2 13       		.uleb128 0x13
 2255 00a3 00       		.byte	0
 2256 00a4 00       		.byte	0
 2257 00a5 0E       		.uleb128 0xe
 2258 00a6 15       		.uleb128 0x15
ARM GAS  G:\Users\Jaxb\AppData\Local\Temp\ccfFV28j.s 			page 46


 2259 00a7 01       		.byte	0x1
 2260 00a8 27       		.uleb128 0x27
 2261 00a9 0C       		.uleb128 0xc
 2262 00aa 49       		.uleb128 0x49
 2263 00ab 13       		.uleb128 0x13
 2264 00ac 01       		.uleb128 0x1
 2265 00ad 13       		.uleb128 0x13
 2266 00ae 00       		.byte	0
 2267 00af 00       		.byte	0
 2268 00b0 0F       		.uleb128 0xf
 2269 00b1 05       		.uleb128 0x5
 2270 00b2 00       		.byte	0
 2271 00b3 49       		.uleb128 0x49
 2272 00b4 13       		.uleb128 0x13
 2273 00b5 00       		.byte	0
 2274 00b6 00       		.byte	0
 2275 00b7 10       		.uleb128 0x10
 2276 00b8 2E       		.uleb128 0x2e
 2277 00b9 01       		.byte	0x1
 2278 00ba 3F       		.uleb128 0x3f
 2279 00bb 0C       		.uleb128 0xc
 2280 00bc 03       		.uleb128 0x3
 2281 00bd 0E       		.uleb128 0xe
 2282 00be 3A       		.uleb128 0x3a
 2283 00bf 0B       		.uleb128 0xb
 2284 00c0 3B       		.uleb128 0x3b
 2285 00c1 0B       		.uleb128 0xb
 2286 00c2 27       		.uleb128 0x27
 2287 00c3 0C       		.uleb128 0xc
 2288 00c4 11       		.uleb128 0x11
 2289 00c5 01       		.uleb128 0x1
 2290 00c6 12       		.uleb128 0x12
 2291 00c7 01       		.uleb128 0x1
 2292 00c8 40       		.uleb128 0x40
 2293 00c9 06       		.uleb128 0x6
 2294 00ca 9742     		.uleb128 0x2117
 2295 00cc 0C       		.uleb128 0xc
 2296 00cd 01       		.uleb128 0x1
 2297 00ce 13       		.uleb128 0x13
 2298 00cf 00       		.byte	0
 2299 00d0 00       		.byte	0
 2300 00d1 11       		.uleb128 0x11
 2301 00d2 05       		.uleb128 0x5
 2302 00d3 00       		.byte	0
 2303 00d4 03       		.uleb128 0x3
 2304 00d5 0E       		.uleb128 0xe
 2305 00d6 3A       		.uleb128 0x3a
 2306 00d7 0B       		.uleb128 0xb
 2307 00d8 3B       		.uleb128 0x3b
 2308 00d9 0B       		.uleb128 0xb
 2309 00da 49       		.uleb128 0x49
 2310 00db 13       		.uleb128 0x13
 2311 00dc 02       		.uleb128 0x2
 2312 00dd 06       		.uleb128 0x6
 2313 00de 00       		.byte	0
 2314 00df 00       		.byte	0
 2315 00e0 12       		.uleb128 0x12
ARM GAS  G:\Users\Jaxb\AppData\Local\Temp\ccfFV28j.s 			page 47


 2316 00e1 34       		.uleb128 0x34
 2317 00e2 00       		.byte	0
 2318 00e3 03       		.uleb128 0x3
 2319 00e4 0E       		.uleb128 0xe
 2320 00e5 3A       		.uleb128 0x3a
 2321 00e6 0B       		.uleb128 0xb
 2322 00e7 3B       		.uleb128 0x3b
 2323 00e8 0B       		.uleb128 0xb
 2324 00e9 49       		.uleb128 0x49
 2325 00ea 13       		.uleb128 0x13
 2326 00eb 02       		.uleb128 0x2
 2327 00ec 06       		.uleb128 0x6
 2328 00ed 00       		.byte	0
 2329 00ee 00       		.byte	0
 2330 00ef 13       		.uleb128 0x13
 2331 00f0 898201   		.uleb128 0x4109
 2332 00f3 00       		.byte	0
 2333 00f4 11       		.uleb128 0x11
 2334 00f5 01       		.uleb128 0x1
 2335 00f6 31       		.uleb128 0x31
 2336 00f7 13       		.uleb128 0x13
 2337 00f8 00       		.byte	0
 2338 00f9 00       		.byte	0
 2339 00fa 14       		.uleb128 0x14
 2340 00fb 898201   		.uleb128 0x4109
 2341 00fe 00       		.byte	0
 2342 00ff 11       		.uleb128 0x11
 2343 0100 01       		.uleb128 0x1
 2344 0101 9542     		.uleb128 0x2115
 2345 0103 0C       		.uleb128 0xc
 2346 0104 31       		.uleb128 0x31
 2347 0105 13       		.uleb128 0x13
 2348 0106 00       		.byte	0
 2349 0107 00       		.byte	0
 2350 0108 15       		.uleb128 0x15
 2351 0109 898201   		.uleb128 0x4109
 2352 010c 01       		.byte	0x1
 2353 010d 11       		.uleb128 0x11
 2354 010e 01       		.uleb128 0x1
 2355 010f 31       		.uleb128 0x31
 2356 0110 13       		.uleb128 0x13
 2357 0111 00       		.byte	0
 2358 0112 00       		.byte	0
 2359 0113 16       		.uleb128 0x16
 2360 0114 8A8201   		.uleb128 0x410a
 2361 0117 00       		.byte	0
 2362 0118 02       		.uleb128 0x2
 2363 0119 0A       		.uleb128 0xa
 2364 011a 9142     		.uleb128 0x2111
 2365 011c 0A       		.uleb128 0xa
 2366 011d 00       		.byte	0
 2367 011e 00       		.byte	0
 2368 011f 17       		.uleb128 0x17
 2369 0120 2E       		.uleb128 0x2e
 2370 0121 01       		.byte	0x1
 2371 0122 3F       		.uleb128 0x3f
 2372 0123 0C       		.uleb128 0xc
ARM GAS  G:\Users\Jaxb\AppData\Local\Temp\ccfFV28j.s 			page 48


 2373 0124 03       		.uleb128 0x3
 2374 0125 08       		.uleb128 0x8
 2375 0126 3A       		.uleb128 0x3a
 2376 0127 0B       		.uleb128 0xb
 2377 0128 3B       		.uleb128 0x3b
 2378 0129 0B       		.uleb128 0xb
 2379 012a 27       		.uleb128 0x27
 2380 012b 0C       		.uleb128 0xc
 2381 012c 49       		.uleb128 0x49
 2382 012d 13       		.uleb128 0x13
 2383 012e 11       		.uleb128 0x11
 2384 012f 01       		.uleb128 0x1
 2385 0130 12       		.uleb128 0x12
 2386 0131 01       		.uleb128 0x1
 2387 0132 40       		.uleb128 0x40
 2388 0133 06       		.uleb128 0x6
 2389 0134 9742     		.uleb128 0x2117
 2390 0136 0C       		.uleb128 0xc
 2391 0137 01       		.uleb128 0x1
 2392 0138 13       		.uleb128 0x13
 2393 0139 00       		.byte	0
 2394 013a 00       		.byte	0
 2395 013b 18       		.uleb128 0x18
 2396 013c 0B       		.uleb128 0xb
 2397 013d 01       		.byte	0x1
 2398 013e 55       		.uleb128 0x55
 2399 013f 06       		.uleb128 0x6
 2400 0140 01       		.uleb128 0x1
 2401 0141 13       		.uleb128 0x13
 2402 0142 00       		.byte	0
 2403 0143 00       		.byte	0
 2404 0144 19       		.uleb128 0x19
 2405 0145 898201   		.uleb128 0x4109
 2406 0148 01       		.byte	0x1
 2407 0149 11       		.uleb128 0x11
 2408 014a 01       		.uleb128 0x1
 2409 014b 31       		.uleb128 0x31
 2410 014c 13       		.uleb128 0x13
 2411 014d 01       		.uleb128 0x1
 2412 014e 13       		.uleb128 0x13
 2413 014f 00       		.byte	0
 2414 0150 00       		.byte	0
 2415 0151 1A       		.uleb128 0x1a
 2416 0152 34       		.uleb128 0x34
 2417 0153 00       		.byte	0
 2418 0154 03       		.uleb128 0x3
 2419 0155 0E       		.uleb128 0xe
 2420 0156 3A       		.uleb128 0x3a
 2421 0157 0B       		.uleb128 0xb
 2422 0158 3B       		.uleb128 0x3b
 2423 0159 0B       		.uleb128 0xb
 2424 015a 49       		.uleb128 0x49
 2425 015b 13       		.uleb128 0x13
 2426 015c 02       		.uleb128 0x2
 2427 015d 0A       		.uleb128 0xa
 2428 015e 00       		.byte	0
 2429 015f 00       		.byte	0
ARM GAS  G:\Users\Jaxb\AppData\Local\Temp\ccfFV28j.s 			page 49


 2430 0160 1B       		.uleb128 0x1b
 2431 0161 2E       		.uleb128 0x2e
 2432 0162 01       		.byte	0x1
 2433 0163 3F       		.uleb128 0x3f
 2434 0164 0C       		.uleb128 0xc
 2435 0165 03       		.uleb128 0x3
 2436 0166 0E       		.uleb128 0xe
 2437 0167 3A       		.uleb128 0x3a
 2438 0168 0B       		.uleb128 0xb
 2439 0169 3B       		.uleb128 0x3b
 2440 016a 0B       		.uleb128 0xb
 2441 016b 27       		.uleb128 0x27
 2442 016c 0C       		.uleb128 0xc
 2443 016d 49       		.uleb128 0x49
 2444 016e 13       		.uleb128 0x13
 2445 016f 11       		.uleb128 0x11
 2446 0170 01       		.uleb128 0x1
 2447 0171 12       		.uleb128 0x12
 2448 0172 01       		.uleb128 0x1
 2449 0173 40       		.uleb128 0x40
 2450 0174 06       		.uleb128 0x6
 2451 0175 9742     		.uleb128 0x2117
 2452 0177 0C       		.uleb128 0xc
 2453 0178 01       		.uleb128 0x1
 2454 0179 13       		.uleb128 0x13
 2455 017a 00       		.byte	0
 2456 017b 00       		.byte	0
 2457 017c 1C       		.uleb128 0x1c
 2458 017d 05       		.uleb128 0x5
 2459 017e 00       		.byte	0
 2460 017f 03       		.uleb128 0x3
 2461 0180 08       		.uleb128 0x8
 2462 0181 3A       		.uleb128 0x3a
 2463 0182 0B       		.uleb128 0xb
 2464 0183 3B       		.uleb128 0x3b
 2465 0184 0B       		.uleb128 0xb
 2466 0185 49       		.uleb128 0x49
 2467 0186 13       		.uleb128 0x13
 2468 0187 02       		.uleb128 0x2
 2469 0188 06       		.uleb128 0x6
 2470 0189 00       		.byte	0
 2471 018a 00       		.byte	0
 2472 018b 1D       		.uleb128 0x1d
 2473 018c 2E       		.uleb128 0x2e
 2474 018d 01       		.byte	0x1
 2475 018e 03       		.uleb128 0x3
 2476 018f 0E       		.uleb128 0xe
 2477 0190 3A       		.uleb128 0x3a
 2478 0191 0B       		.uleb128 0xb
 2479 0192 3B       		.uleb128 0x3b
 2480 0193 0B       		.uleb128 0xb
 2481 0194 27       		.uleb128 0x27
 2482 0195 0C       		.uleb128 0xc
 2483 0196 49       		.uleb128 0x49
 2484 0197 13       		.uleb128 0x13
 2485 0198 11       		.uleb128 0x11
 2486 0199 01       		.uleb128 0x1
ARM GAS  G:\Users\Jaxb\AppData\Local\Temp\ccfFV28j.s 			page 50


 2487 019a 12       		.uleb128 0x12
 2488 019b 01       		.uleb128 0x1
 2489 019c 40       		.uleb128 0x40
 2490 019d 0A       		.uleb128 0xa
 2491 019e 9742     		.uleb128 0x2117
 2492 01a0 0C       		.uleb128 0xc
 2493 01a1 01       		.uleb128 0x1
 2494 01a2 13       		.uleb128 0x13
 2495 01a3 00       		.byte	0
 2496 01a4 00       		.byte	0
 2497 01a5 1E       		.uleb128 0x1e
 2498 01a6 05       		.uleb128 0x5
 2499 01a7 00       		.byte	0
 2500 01a8 03       		.uleb128 0x3
 2501 01a9 0E       		.uleb128 0xe
 2502 01aa 3A       		.uleb128 0x3a
 2503 01ab 0B       		.uleb128 0xb
 2504 01ac 3B       		.uleb128 0x3b
 2505 01ad 0B       		.uleb128 0xb
 2506 01ae 49       		.uleb128 0x49
 2507 01af 13       		.uleb128 0x13
 2508 01b0 02       		.uleb128 0x2
 2509 01b1 0A       		.uleb128 0xa
 2510 01b2 00       		.byte	0
 2511 01b3 00       		.byte	0
 2512 01b4 1F       		.uleb128 0x1f
 2513 01b5 2E       		.uleb128 0x2e
 2514 01b6 00       		.byte	0
 2515 01b7 3F       		.uleb128 0x3f
 2516 01b8 0C       		.uleb128 0xc
 2517 01b9 3C       		.uleb128 0x3c
 2518 01ba 0C       		.uleb128 0xc
 2519 01bb 8740     		.uleb128 0x2007
 2520 01bd 0E       		.uleb128 0xe
 2521 01be 03       		.uleb128 0x3
 2522 01bf 0E       		.uleb128 0xe
 2523 01c0 3A       		.uleb128 0x3a
 2524 01c1 0B       		.uleb128 0xb
 2525 01c2 3B       		.uleb128 0x3b
 2526 01c3 0B       		.uleb128 0xb
 2527 01c4 00       		.byte	0
 2528 01c5 00       		.byte	0
 2529 01c6 00       		.byte	0
 2530              		.section	.debug_loc,"",%progbits
 2531              	.Ldebug_loc0:
 2532              	.LLST22:
 2533 0000 90020000 		.4byte	.LFB18-.Ltext0
 2534 0004 92020000 		.4byte	.LCFI9-.Ltext0
 2535 0008 0200     		.2byte	0x2
 2536 000a 7D       		.byte	0x7d
 2537 000b 00       		.sleb128 0
 2538 000c 92020000 		.4byte	.LCFI9-.Ltext0
 2539 0010 A8020000 		.4byte	.LCFI10-.Ltext0
 2540 0014 0200     		.2byte	0x2
 2541 0016 7D       		.byte	0x7d
 2542 0017 08       		.sleb128 8
 2543 0018 A8020000 		.4byte	.LCFI10-.Ltext0
ARM GAS  G:\Users\Jaxb\AppData\Local\Temp\ccfFV28j.s 			page 51


 2544 001c AC020000 		.4byte	.LCFI11-.Ltext0
 2545 0020 0200     		.2byte	0x2
 2546 0022 7D       		.byte	0x7d
 2547 0023 00       		.sleb128 0
 2548 0024 AC020000 		.4byte	.LCFI11-.Ltext0
 2549 0028 BC020000 		.4byte	.LFE18-.Ltext0
 2550 002c 0200     		.2byte	0x2
 2551 002e 7D       		.byte	0x7d
 2552 002f 08       		.sleb128 8
 2553 0030 00000000 		.4byte	0
 2554 0034 00000000 		.4byte	0
 2555              	.LLST23:
 2556 0038 90020000 		.4byte	.LVL103-.Ltext0
 2557 003c 96020000 		.4byte	.LVL104-.Ltext0
 2558 0040 0100     		.2byte	0x1
 2559 0042 50       		.byte	0x50
 2560 0043 96020000 		.4byte	.LVL104-.Ltext0
 2561 0047 A8020000 		.4byte	.LVL106-.Ltext0
 2562 004b 0100     		.2byte	0x1
 2563 004d 54       		.byte	0x54
 2564 004e A8020000 		.4byte	.LVL106-.Ltext0
 2565 0052 AC020000 		.4byte	.LVL107-.Ltext0
 2566 0056 0400     		.2byte	0x4
 2567 0058 F3       		.byte	0xf3
 2568 0059 01       		.uleb128 0x1
 2569 005a 50       		.byte	0x50
 2570 005b 9F       		.byte	0x9f
 2571 005c AC020000 		.4byte	.LVL107-.Ltext0
 2572 0060 B0020000 		.4byte	.LVL108-.Ltext0
 2573 0064 0100     		.2byte	0x1
 2574 0066 50       		.byte	0x50
 2575 0067 B0020000 		.4byte	.LVL108-.Ltext0
 2576 006b BC020000 		.4byte	.LFE18-.Ltext0
 2577 006f 0100     		.2byte	0x1
 2578 0071 54       		.byte	0x54
 2579 0072 00000000 		.4byte	0
 2580 0076 00000000 		.4byte	0
 2581              	.LLST24:
 2582 007a 96020000 		.4byte	.LVL104-.Ltext0
 2583 007e 9A020000 		.4byte	.LVL105-.Ltext0
 2584 0082 0200     		.2byte	0x2
 2585 0084 30       		.byte	0x30
 2586 0085 9F       		.byte	0x9f
 2587 0086 9A020000 		.4byte	.LVL105-.Ltext0
 2588 008a AB020000 		.4byte	.LVL107-1-.Ltext0
 2589 008e 0100     		.2byte	0x1
 2590 0090 50       		.byte	0x50
 2591 0091 00000000 		.4byte	0
 2592 0095 00000000 		.4byte	0
 2593              	.LLST18:
 2594 0099 08020000 		.4byte	.LFB17-.Ltext0
 2595 009d 0A020000 		.4byte	.LCFI8-.Ltext0
 2596 00a1 0200     		.2byte	0x2
 2597 00a3 7D       		.byte	0x7d
 2598 00a4 00       		.sleb128 0
 2599 00a5 0A020000 		.4byte	.LCFI8-.Ltext0
 2600 00a9 90020000 		.4byte	.LFE17-.Ltext0
ARM GAS  G:\Users\Jaxb\AppData\Local\Temp\ccfFV28j.s 			page 52


 2601 00ad 0200     		.2byte	0x2
 2602 00af 7D       		.byte	0x7d
 2603 00b0 10       		.sleb128 16
 2604 00b1 00000000 		.4byte	0
 2605 00b5 00000000 		.4byte	0
 2606              	.LLST19:
 2607 00b9 08020000 		.4byte	.LVL79-.Ltext0
 2608 00bd 11020000 		.4byte	.LVL81-1-.Ltext0
 2609 00c1 0100     		.2byte	0x1
 2610 00c3 50       		.byte	0x50
 2611 00c4 11020000 		.4byte	.LVL81-1-.Ltext0
 2612 00c8 68020000 		.4byte	.LVL95-.Ltext0
 2613 00cc 0100     		.2byte	0x1
 2614 00ce 54       		.byte	0x54
 2615 00cf 68020000 		.4byte	.LVL95-.Ltext0
 2616 00d3 6C020000 		.4byte	.LVL96-.Ltext0
 2617 00d7 0100     		.2byte	0x1
 2618 00d9 50       		.byte	0x50
 2619 00da 6C020000 		.4byte	.LVL96-.Ltext0
 2620 00de 90020000 		.4byte	.LFE17-.Ltext0
 2621 00e2 0100     		.2byte	0x1
 2622 00e4 54       		.byte	0x54
 2623 00e5 00000000 		.4byte	0
 2624 00e9 00000000 		.4byte	0
 2625              	.LLST20:
 2626 00ed 0E020000 		.4byte	.LVL80-.Ltext0
 2627 00f1 16020000 		.4byte	.LVL82-.Ltext0
 2628 00f5 0200     		.2byte	0x2
 2629 00f7 30       		.byte	0x30
 2630 00f8 9F       		.byte	0x9f
 2631 00f9 16020000 		.4byte	.LVL82-.Ltext0
 2632 00fd 2C020000 		.4byte	.LVL83-.Ltext0
 2633 0101 0100     		.2byte	0x1
 2634 0103 50       		.byte	0x50
 2635 0104 2C020000 		.4byte	.LVL83-.Ltext0
 2636 0108 36020000 		.4byte	.LVL85-.Ltext0
 2637 010c 0100     		.2byte	0x1
 2638 010e 55       		.byte	0x55
 2639 010f 36020000 		.4byte	.LVL85-.Ltext0
 2640 0113 3C020000 		.4byte	.LVL86-.Ltext0
 2641 0117 0100     		.2byte	0x1
 2642 0119 50       		.byte	0x50
 2643 011a 3C020000 		.4byte	.LVL86-.Ltext0
 2644 011e 5A020000 		.4byte	.LVL92-.Ltext0
 2645 0122 0100     		.2byte	0x1
 2646 0124 55       		.byte	0x55
 2647 0125 5A020000 		.4byte	.LVL92-.Ltext0
 2648 0129 5E020000 		.4byte	.LVL93-.Ltext0
 2649 012d 0100     		.2byte	0x1
 2650 012f 50       		.byte	0x50
 2651 0130 5E020000 		.4byte	.LVL93-.Ltext0
 2652 0134 68020000 		.4byte	.LVL95-.Ltext0
 2653 0138 0100     		.2byte	0x1
 2654 013a 55       		.byte	0x55
 2655 013b 7A020000 		.4byte	.LVL99-.Ltext0
 2656 013f 90020000 		.4byte	.LFE17-.Ltext0
 2657 0143 0100     		.2byte	0x1
ARM GAS  G:\Users\Jaxb\AppData\Local\Temp\ccfFV28j.s 			page 53


 2658 0145 55       		.byte	0x55
 2659 0146 00000000 		.4byte	0
 2660 014a 00000000 		.4byte	0
 2661              	.LLST21:
 2662 014e 42020000 		.4byte	.LVL88-.Ltext0
 2663 0152 4C020000 		.4byte	.LVL89-.Ltext0
 2664 0156 0100     		.2byte	0x1
 2665 0158 50       		.byte	0x50
 2666 0159 7A020000 		.4byte	.LVL99-.Ltext0
 2667 015d 7D020000 		.4byte	.LVL100-1-.Ltext0
 2668 0161 0100     		.2byte	0x1
 2669 0163 50       		.byte	0x50
 2670 0164 80020000 		.4byte	.LVL101-.Ltext0
 2671 0168 83020000 		.4byte	.LVL102-1-.Ltext0
 2672 016c 0100     		.2byte	0x1
 2673 016e 50       		.byte	0x50
 2674 016f 00000000 		.4byte	0
 2675 0173 00000000 		.4byte	0
 2676              	.LLST12:
 2677 0177 00010000 		.4byte	.LFB16-.Ltext0
 2678 017b 04010000 		.4byte	.LCFI2-.Ltext0
 2679 017f 0200     		.2byte	0x2
 2680 0181 7D       		.byte	0x7d
 2681 0182 00       		.sleb128 0
 2682 0183 04010000 		.4byte	.LCFI2-.Ltext0
 2683 0187 08010000 		.4byte	.LCFI3-.Ltext0
 2684 018b 0200     		.2byte	0x2
 2685 018d 7D       		.byte	0x7d
 2686 018e 24       		.sleb128 36
 2687 018f 08010000 		.4byte	.LCFI3-.Ltext0
 2688 0193 36010000 		.4byte	.LCFI4-.Ltext0
 2689 0197 0300     		.2byte	0x3
 2690 0199 7D       		.byte	0x7d
 2691 019a C000     		.sleb128 64
 2692 019c 36010000 		.4byte	.LCFI4-.Ltext0
 2693 01a0 3A010000 		.4byte	.LCFI5-.Ltext0
 2694 01a4 0200     		.2byte	0x2
 2695 01a6 7D       		.byte	0x7d
 2696 01a7 24       		.sleb128 36
 2697 01a8 3A010000 		.4byte	.LCFI5-.Ltext0
 2698 01ac D0010000 		.4byte	.LCFI6-.Ltext0
 2699 01b0 0300     		.2byte	0x3
 2700 01b2 7D       		.byte	0x7d
 2701 01b3 C000     		.sleb128 64
 2702 01b5 D0010000 		.4byte	.LCFI6-.Ltext0
 2703 01b9 D4010000 		.4byte	.LCFI7-.Ltext0
 2704 01bd 0200     		.2byte	0x2
 2705 01bf 7D       		.byte	0x7d
 2706 01c0 24       		.sleb128 36
 2707 01c1 D4010000 		.4byte	.LCFI7-.Ltext0
 2708 01c5 08020000 		.4byte	.LFE16-.Ltext0
 2709 01c9 0300     		.2byte	0x3
 2710 01cb 7D       		.byte	0x7d
 2711 01cc C000     		.sleb128 64
 2712 01ce 00000000 		.4byte	0
 2713 01d2 00000000 		.4byte	0
 2714              	.LLST13:
ARM GAS  G:\Users\Jaxb\AppData\Local\Temp\ccfFV28j.s 			page 54


 2715 01d6 00010000 		.4byte	.LVL43-.Ltext0
 2716 01da 13010000 		.4byte	.LVL45-1-.Ltext0
 2717 01de 0100     		.2byte	0x1
 2718 01e0 50       		.byte	0x50
 2719 01e1 13010000 		.4byte	.LVL45-1-.Ltext0
 2720 01e5 2C010000 		.4byte	.LVL47-.Ltext0
 2721 01e9 0100     		.2byte	0x1
 2722 01eb 54       		.byte	0x54
 2723 01ec 2C010000 		.4byte	.LVL47-.Ltext0
 2724 01f0 3A010000 		.4byte	.LVL49-.Ltext0
 2725 01f4 0400     		.2byte	0x4
 2726 01f6 F3       		.byte	0xf3
 2727 01f7 01       		.uleb128 0x1
 2728 01f8 50       		.byte	0x50
 2729 01f9 9F       		.byte	0x9f
 2730 01fa 3A010000 		.4byte	.LVL49-.Ltext0
 2731 01fe 86010000 		.4byte	.LVL61-.Ltext0
 2732 0202 0100     		.2byte	0x1
 2733 0204 54       		.byte	0x54
 2734 0205 86010000 		.4byte	.LVL61-.Ltext0
 2735 0209 9A010000 		.4byte	.LVL63-.Ltext0
 2736 020d 0400     		.2byte	0x4
 2737 020f F3       		.byte	0xf3
 2738 0210 01       		.uleb128 0x1
 2739 0211 50       		.byte	0x50
 2740 0212 9F       		.byte	0x9f
 2741 0213 9A010000 		.4byte	.LVL63-.Ltext0
 2742 0217 BC010000 		.4byte	.LVL69-.Ltext0
 2743 021b 0100     		.2byte	0x1
 2744 021d 54       		.byte	0x54
 2745 021e BC010000 		.4byte	.LVL69-.Ltext0
 2746 0222 C0010000 		.4byte	.LVL71-.Ltext0
 2747 0226 0100     		.2byte	0x1
 2748 0228 50       		.byte	0x50
 2749 0229 C0010000 		.4byte	.LVL71-.Ltext0
 2750 022d 08020000 		.4byte	.LFE16-.Ltext0
 2751 0231 0100     		.2byte	0x1
 2752 0233 54       		.byte	0x54
 2753 0234 00000000 		.4byte	0
 2754 0238 00000000 		.4byte	0
 2755              	.LLST14:
 2756 023c 00010000 		.4byte	.LVL43-.Ltext0
 2757 0240 13010000 		.4byte	.LVL45-1-.Ltext0
 2758 0244 0100     		.2byte	0x1
 2759 0246 51       		.byte	0x51
 2760 0247 13010000 		.4byte	.LVL45-1-.Ltext0
 2761 024b BC010000 		.4byte	.LVL69-.Ltext0
 2762 024f 0400     		.2byte	0x4
 2763 0251 F3       		.byte	0xf3
 2764 0252 01       		.uleb128 0x1
 2765 0253 51       		.byte	0x51
 2766 0254 9F       		.byte	0x9f
 2767 0255 BC010000 		.4byte	.LVL69-.Ltext0
 2768 0259 BE010000 		.4byte	.LVL70-.Ltext0
 2769 025d 0100     		.2byte	0x1
 2770 025f 51       		.byte	0x51
 2771 0260 BE010000 		.4byte	.LVL70-.Ltext0
ARM GAS  G:\Users\Jaxb\AppData\Local\Temp\ccfFV28j.s 			page 55


 2772 0264 08020000 		.4byte	.LFE16-.Ltext0
 2773 0268 0400     		.2byte	0x4
 2774 026a F3       		.byte	0xf3
 2775 026b 01       		.uleb128 0x1
 2776 026c 51       		.byte	0x51
 2777 026d 9F       		.byte	0x9f
 2778 026e 00000000 		.4byte	0
 2779 0272 00000000 		.4byte	0
 2780              	.LLST15:
 2781 0276 00010000 		.4byte	.LVL43-.Ltext0
 2782 027a 13010000 		.4byte	.LVL45-1-.Ltext0
 2783 027e 0100     		.2byte	0x1
 2784 0280 52       		.byte	0x52
 2785 0281 13010000 		.4byte	.LVL45-1-.Ltext0
 2786 0285 BC010000 		.4byte	.LVL69-.Ltext0
 2787 0289 0100     		.2byte	0x1
 2788 028b 57       		.byte	0x57
 2789 028c BC010000 		.4byte	.LVL69-.Ltext0
 2790 0290 C3010000 		.4byte	.LVL72-1-.Ltext0
 2791 0294 0100     		.2byte	0x1
 2792 0296 52       		.byte	0x52
 2793 0297 C3010000 		.4byte	.LVL72-1-.Ltext0
 2794 029b 08020000 		.4byte	.LFE16-.Ltext0
 2795 029f 0100     		.2byte	0x1
 2796 02a1 57       		.byte	0x57
 2797 02a2 00000000 		.4byte	0
 2798 02a6 00000000 		.4byte	0
 2799              	.LLST16:
 2800 02aa 10010000 		.4byte	.LVL44-.Ltext0
 2801 02ae 18010000 		.4byte	.LVL46-.Ltext0
 2802 02b2 0200     		.2byte	0x2
 2803 02b4 30       		.byte	0x30
 2804 02b5 9F       		.byte	0x9f
 2805 02b6 18010000 		.4byte	.LVL46-.Ltext0
 2806 02ba 2C010000 		.4byte	.LVL47-.Ltext0
 2807 02be 0100     		.2byte	0x1
 2808 02c0 50       		.byte	0x50
 2809 02c1 2C010000 		.4byte	.LVL47-.Ltext0
 2810 02c5 3A010000 		.4byte	.LVL49-.Ltext0
 2811 02c9 0100     		.2byte	0x1
 2812 02cb 56       		.byte	0x56
 2813 02cc 3A010000 		.4byte	.LVL49-.Ltext0
 2814 02d0 3E010000 		.4byte	.LVL50-.Ltext0
 2815 02d4 0100     		.2byte	0x1
 2816 02d6 50       		.byte	0x50
 2817 02d7 3E010000 		.4byte	.LVL50-.Ltext0
 2818 02db 6A010000 		.4byte	.LVL58-.Ltext0
 2819 02df 0100     		.2byte	0x1
 2820 02e1 56       		.byte	0x56
 2821 02e2 6A010000 		.4byte	.LVL58-.Ltext0
 2822 02e6 6D010000 		.4byte	.LVL59-1-.Ltext0
 2823 02ea 0100     		.2byte	0x1
 2824 02ec 50       		.byte	0x50
 2825 02ed 6D010000 		.4byte	.LVL59-1-.Ltext0
 2826 02f1 9A010000 		.4byte	.LVL63-.Ltext0
 2827 02f5 0100     		.2byte	0x1
 2828 02f7 56       		.byte	0x56
ARM GAS  G:\Users\Jaxb\AppData\Local\Temp\ccfFV28j.s 			page 56


 2829 02f8 9A010000 		.4byte	.LVL63-.Ltext0
 2830 02fc A1010000 		.4byte	.LVL64-1-.Ltext0
 2831 0300 0100     		.2byte	0x1
 2832 0302 50       		.byte	0x50
 2833 0303 A1010000 		.4byte	.LVL64-1-.Ltext0
 2834 0307 BA010000 		.4byte	.LVL68-.Ltext0
 2835 030b 0100     		.2byte	0x1
 2836 030d 56       		.byte	0x56
 2837 030e BA010000 		.4byte	.LVL68-.Ltext0
 2838 0312 BC010000 		.4byte	.LVL69-.Ltext0
 2839 0316 0100     		.2byte	0x1
 2840 0318 50       		.byte	0x50
 2841 0319 D4010000 		.4byte	.LVL74-.Ltext0
 2842 031d D7010000 		.4byte	.LVL75-1-.Ltext0
 2843 0321 0100     		.2byte	0x1
 2844 0323 50       		.byte	0x50
 2845 0324 D7010000 		.4byte	.LVL75-1-.Ltext0
 2846 0328 08020000 		.4byte	.LFE16-.Ltext0
 2847 032c 0100     		.2byte	0x1
 2848 032e 56       		.byte	0x56
 2849 032f 00000000 		.4byte	0
 2850 0333 00000000 		.4byte	0
 2851              	.LLST17:
 2852 0337 58010000 		.4byte	.LVL54-.Ltext0
 2853 033b 7E010000 		.4byte	.LVL60-.Ltext0
 2854 033f 0600     		.2byte	0x6
 2855 0341 5A       		.byte	0x5a
 2856 0342 93       		.byte	0x93
 2857 0343 04       		.uleb128 0x4
 2858 0344 5B       		.byte	0x5b
 2859 0345 93       		.byte	0x93
 2860 0346 04       		.uleb128 0x4
 2861 0347 DE010000 		.4byte	.LVL76-.Ltext0
 2862 034b 08020000 		.4byte	.LFE16-.Ltext0
 2863 034f 0600     		.2byte	0x6
 2864 0351 5A       		.byte	0x5a
 2865 0352 93       		.byte	0x93
 2866 0353 04       		.uleb128 0x4
 2867 0354 5B       		.byte	0x5b
 2868 0355 93       		.byte	0x93
 2869 0356 04       		.uleb128 0x4
 2870 0357 00000000 		.4byte	0
 2871 035b 00000000 		.4byte	0
 2872              	.LLST7:
 2873 035f 8C000000 		.4byte	.LFB15-.Ltext0
 2874 0363 8E000000 		.4byte	.LCFI1-.Ltext0
 2875 0367 0200     		.2byte	0x2
 2876 0369 7D       		.byte	0x7d
 2877 036a 00       		.sleb128 0
 2878 036b 8E000000 		.4byte	.LCFI1-.Ltext0
 2879 036f 00010000 		.4byte	.LFE15-.Ltext0
 2880 0373 0200     		.2byte	0x2
 2881 0375 7D       		.byte	0x7d
 2882 0376 18       		.sleb128 24
 2883 0377 00000000 		.4byte	0
 2884 037b 00000000 		.4byte	0
 2885              	.LLST8:
ARM GAS  G:\Users\Jaxb\AppData\Local\Temp\ccfFV28j.s 			page 57


 2886 037f 8C000000 		.4byte	.LVL20-.Ltext0
 2887 0383 95000000 		.4byte	.LVL22-1-.Ltext0
 2888 0387 0100     		.2byte	0x1
 2889 0389 50       		.byte	0x50
 2890 038a 95000000 		.4byte	.LVL22-1-.Ltext0
 2891 038e E4000000 		.4byte	.LVL38-.Ltext0
 2892 0392 0100     		.2byte	0x1
 2893 0394 55       		.byte	0x55
 2894 0395 E4000000 		.4byte	.LVL38-.Ltext0
 2895 0399 E8000000 		.4byte	.LVL39-.Ltext0
 2896 039d 0100     		.2byte	0x1
 2897 039f 50       		.byte	0x50
 2898 03a0 E8000000 		.4byte	.LVL39-.Ltext0
 2899 03a4 F8000000 		.4byte	.LVL42-.Ltext0
 2900 03a8 0100     		.2byte	0x1
 2901 03aa 55       		.byte	0x55
 2902 03ab F8000000 		.4byte	.LVL42-.Ltext0
 2903 03af 00010000 		.4byte	.LFE15-.Ltext0
 2904 03b3 0400     		.2byte	0x4
 2905 03b5 F3       		.byte	0xf3
 2906 03b6 01       		.uleb128 0x1
 2907 03b7 50       		.byte	0x50
 2908 03b8 9F       		.byte	0x9f
 2909 03b9 00000000 		.4byte	0
 2910 03bd 00000000 		.4byte	0
 2911              	.LLST9:
 2912 03c1 A4000000 		.4byte	.LVL26-.Ltext0
 2913 03c5 C6000000 		.4byte	.LVL31-.Ltext0
 2914 03c9 0100     		.2byte	0x1
 2915 03cb 54       		.byte	0x54
 2916 03cc C8000000 		.4byte	.LVL32-.Ltext0
 2917 03d0 D6000000 		.4byte	.LVL35-.Ltext0
 2918 03d4 0100     		.2byte	0x1
 2919 03d6 54       		.byte	0x54
 2920 03d7 00000000 		.4byte	0
 2921 03db 00000000 		.4byte	0
 2922              	.LLST10:
 2923 03df 92000000 		.4byte	.LVL21-.Ltext0
 2924 03e3 98000000 		.4byte	.LVL23-.Ltext0
 2925 03e7 0200     		.2byte	0x2
 2926 03e9 30       		.byte	0x30
 2927 03ea 9F       		.byte	0x9f
 2928 03eb 98000000 		.4byte	.LVL23-.Ltext0
 2929 03ef 9A000000 		.4byte	.LVL24-.Ltext0
 2930 03f3 0100     		.2byte	0x1
 2931 03f5 50       		.byte	0x50
 2932 03f6 9A000000 		.4byte	.LVL24-.Ltext0
 2933 03fa E4000000 		.4byte	.LVL38-.Ltext0
 2934 03fe 0100     		.2byte	0x1
 2935 0400 57       		.byte	0x57
 2936 0401 00000000 		.4byte	0
 2937 0405 00000000 		.4byte	0
 2938              	.LLST11:
 2939 0409 9E000000 		.4byte	.LVL25-.Ltext0
 2940 040d AC000000 		.4byte	.LVL27-.Ltext0
 2941 0411 0100     		.2byte	0x1
 2942 0413 50       		.byte	0x50
ARM GAS  G:\Users\Jaxb\AppData\Local\Temp\ccfFV28j.s 			page 58


 2943 0414 C4000000 		.4byte	.LVL30-.Ltext0
 2944 0418 D0000000 		.4byte	.LVL33-.Ltext0
 2945 041c 0100     		.2byte	0x1
 2946 041e 50       		.byte	0x50
 2947 041f D6000000 		.4byte	.LVL35-.Ltext0
 2948 0423 D9000000 		.4byte	.LVL36-1-.Ltext0
 2949 0427 0100     		.2byte	0x1
 2950 0429 50       		.byte	0x50
 2951 042a 00000000 		.4byte	0
 2952 042e 00000000 		.4byte	0
 2953              	.LLST2:
 2954 0432 14000000 		.4byte	.LFB14-.Ltext0
 2955 0436 16000000 		.4byte	.LCFI0-.Ltext0
 2956 043a 0200     		.2byte	0x2
 2957 043c 7D       		.byte	0x7d
 2958 043d 00       		.sleb128 0
 2959 043e 16000000 		.4byte	.LCFI0-.Ltext0
 2960 0442 8C000000 		.4byte	.LFE14-.Ltext0
 2961 0446 0200     		.2byte	0x2
 2962 0448 7D       		.byte	0x7d
 2963 0449 18       		.sleb128 24
 2964 044a 00000000 		.4byte	0
 2965 044e 00000000 		.4byte	0
 2966              	.LLST3:
 2967 0452 14000000 		.4byte	.LVL4-.Ltext0
 2968 0456 21000000 		.4byte	.LVL6-1-.Ltext0
 2969 045a 0100     		.2byte	0x1
 2970 045c 50       		.byte	0x50
 2971 045d 21000000 		.4byte	.LVL6-1-.Ltext0
 2972 0461 50000000 		.4byte	.LVL11-.Ltext0
 2973 0465 0100     		.2byte	0x1
 2974 0467 54       		.byte	0x54
 2975 0468 50000000 		.4byte	.LVL11-.Ltext0
 2976 046c 54000000 		.4byte	.LVL13-.Ltext0
 2977 0470 0100     		.2byte	0x1
 2978 0472 50       		.byte	0x50
 2979 0473 54000000 		.4byte	.LVL13-.Ltext0
 2980 0477 74000000 		.4byte	.LVL19-.Ltext0
 2981 047b 0100     		.2byte	0x1
 2982 047d 54       		.byte	0x54
 2983 047e 74000000 		.4byte	.LVL19-.Ltext0
 2984 0482 8C000000 		.4byte	.LFE14-.Ltext0
 2985 0486 0400     		.2byte	0x4
 2986 0488 F3       		.byte	0xf3
 2987 0489 01       		.uleb128 0x1
 2988 048a 50       		.byte	0x50
 2989 048b 9F       		.byte	0x9f
 2990 048c 00000000 		.4byte	0
 2991 0490 00000000 		.4byte	0
 2992              	.LLST4:
 2993 0494 14000000 		.4byte	.LVL4-.Ltext0
 2994 0498 21000000 		.4byte	.LVL6-1-.Ltext0
 2995 049c 0100     		.2byte	0x1
 2996 049e 51       		.byte	0x51
 2997 049f 21000000 		.4byte	.LVL6-1-.Ltext0
 2998 04a3 50000000 		.4byte	.LVL11-.Ltext0
 2999 04a7 0100     		.2byte	0x1
ARM GAS  G:\Users\Jaxb\AppData\Local\Temp\ccfFV28j.s 			page 59


 3000 04a9 56       		.byte	0x56
 3001 04aa 50000000 		.4byte	.LVL11-.Ltext0
 3002 04ae 52000000 		.4byte	.LVL12-.Ltext0
 3003 04b2 0100     		.2byte	0x1
 3004 04b4 51       		.byte	0x51
 3005 04b5 52000000 		.4byte	.LVL12-.Ltext0
 3006 04b9 74000000 		.4byte	.LVL19-.Ltext0
 3007 04bd 0100     		.2byte	0x1
 3008 04bf 56       		.byte	0x56
 3009 04c0 74000000 		.4byte	.LVL19-.Ltext0
 3010 04c4 8C000000 		.4byte	.LFE14-.Ltext0
 3011 04c8 0400     		.2byte	0x4
 3012 04ca F3       		.byte	0xf3
 3013 04cb 01       		.uleb128 0x1
 3014 04cc 51       		.byte	0x51
 3015 04cd 9F       		.byte	0x9f
 3016 04ce 00000000 		.4byte	0
 3017 04d2 00000000 		.4byte	0
 3018              	.LLST5:
 3019 04d6 14000000 		.4byte	.LVL4-.Ltext0
 3020 04da 21000000 		.4byte	.LVL6-1-.Ltext0
 3021 04de 0100     		.2byte	0x1
 3022 04e0 52       		.byte	0x52
 3023 04e1 21000000 		.4byte	.LVL6-1-.Ltext0
 3024 04e5 50000000 		.4byte	.LVL11-.Ltext0
 3025 04e9 0100     		.2byte	0x1
 3026 04eb 55       		.byte	0x55
 3027 04ec 50000000 		.4byte	.LVL11-.Ltext0
 3028 04f0 57000000 		.4byte	.LVL14-1-.Ltext0
 3029 04f4 0100     		.2byte	0x1
 3030 04f6 52       		.byte	0x52
 3031 04f7 57000000 		.4byte	.LVL14-1-.Ltext0
 3032 04fb 74000000 		.4byte	.LVL19-.Ltext0
 3033 04ff 0100     		.2byte	0x1
 3034 0501 55       		.byte	0x55
 3035 0502 74000000 		.4byte	.LVL19-.Ltext0
 3036 0506 8C000000 		.4byte	.LFE14-.Ltext0
 3037 050a 0400     		.2byte	0x4
 3038 050c F3       		.byte	0xf3
 3039 050d 01       		.uleb128 0x1
 3040 050e 52       		.byte	0x52
 3041 050f 9F       		.byte	0x9f
 3042 0510 00000000 		.4byte	0
 3043 0514 00000000 		.4byte	0
 3044              	.LLST6:
 3045 0518 1E000000 		.4byte	.LVL5-.Ltext0
 3046 051c 26000000 		.4byte	.LVL7-.Ltext0
 3047 0520 0200     		.2byte	0x2
 3048 0522 30       		.byte	0x30
 3049 0523 9F       		.byte	0x9f
 3050 0524 26000000 		.4byte	.LVL7-.Ltext0
 3051 0528 36000000 		.4byte	.LVL8-.Ltext0
 3052 052c 0100     		.2byte	0x1
 3053 052e 50       		.byte	0x50
 3054 052f 36000000 		.4byte	.LVL8-.Ltext0
 3055 0533 50000000 		.4byte	.LVL11-.Ltext0
 3056 0537 0100     		.2byte	0x1
ARM GAS  G:\Users\Jaxb\AppData\Local\Temp\ccfFV28j.s 			page 60


 3057 0539 57       		.byte	0x57
 3058 053a 6A000000 		.4byte	.LVL17-.Ltext0
 3059 053e 6D000000 		.4byte	.LVL18-1-.Ltext0
 3060 0542 0100     		.2byte	0x1
 3061 0544 50       		.byte	0x50
 3062 0545 6D000000 		.4byte	.LVL18-1-.Ltext0
 3063 0549 74000000 		.4byte	.LVL19-.Ltext0
 3064 054d 0100     		.2byte	0x1
 3065 054f 57       		.byte	0x57
 3066 0550 00000000 		.4byte	0
 3067 0554 00000000 		.4byte	0
 3068              	.LLST1:
 3069 0558 0C000000 		.4byte	.LVL2-.Ltext0
 3070 055c 0E000000 		.4byte	.LVL3-.Ltext0
 3071 0560 0100     		.2byte	0x1
 3072 0562 50       		.byte	0x50
 3073 0563 0E000000 		.4byte	.LVL3-.Ltext0
 3074 0567 14000000 		.4byte	.LFE13-.Ltext0
 3075 056b 0400     		.2byte	0x4
 3076 056d F3       		.byte	0xf3
 3077 056e 01       		.uleb128 0x1
 3078 056f 50       		.byte	0x50
 3079 0570 9F       		.byte	0x9f
 3080 0571 00000000 		.4byte	0
 3081 0575 00000000 		.4byte	0
 3082              	.LLST0:
 3083 0579 00000000 		.4byte	.LVL0-.Ltext0
 3084 057d 06000000 		.4byte	.LVL1-.Ltext0
 3085 0581 0100     		.2byte	0x1
 3086 0583 50       		.byte	0x50
 3087 0584 06000000 		.4byte	.LVL1-.Ltext0
 3088 0588 0C000000 		.4byte	.LFE12-.Ltext0
 3089 058c 0400     		.2byte	0x4
 3090 058e F3       		.byte	0xf3
 3091 058f 01       		.uleb128 0x1
 3092 0590 50       		.byte	0x50
 3093 0591 9F       		.byte	0x9f
 3094 0592 00000000 		.4byte	0
 3095 0596 00000000 		.4byte	0
 3096              		.section	.debug_aranges,"",%progbits
 3097 0000 1C000000 		.4byte	0x1c
 3098 0004 0200     		.2byte	0x2
 3099 0006 00000000 		.4byte	.Ldebug_info0
 3100 000a 04       		.byte	0x4
 3101 000b 00       		.byte	0
 3102 000c 0000     		.2byte	0
 3103 000e 0000     		.2byte	0
 3104 0010 00000000 		.4byte	.Ltext0
 3105 0014 BC020000 		.4byte	.Letext0-.Ltext0
 3106 0018 00000000 		.4byte	0
 3107 001c 00000000 		.4byte	0
 3108              		.section	.debug_ranges,"",%progbits
 3109              	.Ldebug_ranges0:
 3110 0000 4E010000 		.4byte	.LBB2-.Ltext0
 3111 0004 7E010000 		.4byte	.LBE2-.Ltext0
 3112 0008 DE010000 		.4byte	.LBB3-.Ltext0
 3113 000c 08020000 		.4byte	.LBE3-.Ltext0
ARM GAS  G:\Users\Jaxb\AppData\Local\Temp\ccfFV28j.s 			page 61


 3114 0010 00000000 		.4byte	0
 3115 0014 00000000 		.4byte	0
 3116 0018 3A020000 		.4byte	.LBB4-.Ltext0
 3117 001c 50020000 		.4byte	.LBE4-.Ltext0
 3118 0020 7A020000 		.4byte	.LBB5-.Ltext0
 3119 0024 90020000 		.4byte	.LBE5-.Ltext0
 3120 0028 00000000 		.4byte	0
 3121 002c 00000000 		.4byte	0
 3122              		.section	.debug_line,"",%progbits
 3123              	.Ldebug_line0:
 3124 0000 BD020000 		.section	.debug_str,"MS",%progbits,1
 3124      02008101 
 3124      00000201 
 3124      FB0E0D00 
 3124      01010101 
 3125              	.LASF23:
 3126 0000 5441534B 		.ascii	"TASK_PRIO_TYPE\000"
 3126      5F505249 
 3126      4F5F5459 
 3126      504500
 3127              	.LASF13:
 3128 000f 53544154 		.ascii	"STATE_SUSPEND_NORMAL\000"
 3128      455F5355 
 3128      5350454E 
 3128      445F4E4F 
 3128      524D414C 
 3129              	.LASF24:
 3130 0024 6C697374 		.ascii	"list_head\000"
 3130      5F686561 
 3130      6400
 3131              	.LASF65:
 3132 002e 4D43425F 		.ascii	"MCB_ptr\000"
 3132      70747200 
 3133              	.LASF70:
 3134 0036 74696D65 		.ascii	"time_record\000"
 3134      5F726563 
 3134      6F726400 
 3135              	.LASF47:
 3136 0042 64617461 		.ascii	"data_list_head\000"
 3136      5F6C6973 
 3136      745F6865 
 3136      616400
 3137              	.LASF1:
 3138 0051 73686F72 		.ascii	"short int\000"
 3138      7420696E 
 3138      7400
 3139              	.LASF77:
 3140 005b 4350555F 		.ascii	"CPU_SR_Restore\000"
 3140      53525F52 
 3140      6573746F 
 3140      726500
 3141              	.LASF44:
 3142 006a 6964656E 		.ascii	"identify_data\000"
 3142      74696679 
 3142      5F646174 
 3142      6100
 3143              	.LASF45:
ARM GAS  G:\Users\Jaxb\AppData\Local\Temp\ccfFV28j.s 			page 62


 3144 0078 64617461 		.ascii	"data_list\000"
 3144      5F6C6973 
 3144      7400
 3145              	.LASF16:
 3146 0082 53544154 		.ascii	"STATE_WAIT_MESSAGE_QUEUE_FOREVER\000"
 3146      455F5741 
 3146      49545F4D 
 3146      45535341 
 3146      47455F51 
 3147              	.LASF6:
 3148 00a3 55494E54 		.ascii	"UINT32\000"
 3148      333200
 3149              	.LASF81:
 3150 00aa 72656D6F 		.ascii	"remove_from_suspend_list\000"
 3150      76655F66 
 3150      726F6D5F 
 3150      73757370 
 3150      656E645F 
 3151              	.LASF22:
 3152 00c3 53544143 		.ascii	"STACK_TYPE\000"
 3152      4B5F5459 
 3152      504500
 3153              	.LASF52:
 3154 00ce 5461736B 		.ascii	"Task_State\000"
 3154      5F537461 
 3154      746500
 3155              	.LASF18:
 3156 00d9 53544154 		.ascii	"STATE_PUT_MESSAGE_QUEUE_FOREVER\000"
 3156      455F5055 
 3156      545F4D45 
 3156      53534147 
 3156      455F5155 
 3157              	.LASF85:
 3158 00f9 7379735F 		.ascii	"sys_delay\000"
 3158      64656C61 
 3158      7900
 3159              	.LASF55:
 3160 0103 4D43425F 		.ascii	"MCB_FLAG_NON_BLOCKING\000"
 3160      464C4147 
 3160      5F4E4F4E 
 3160      5F424C4F 
 3160      434B494E 
 3161              	.LASF84:
 3162 0119 6765745F 		.ascii	"get_tick\000"
 3162      7469636B 
 3162      00
 3163              	.LASF92:
 3164 0122 2E2E2F2E 		.ascii	"../../source/src/user/OS_CORE/MCB.c\000"
 3164      2E2F736F 
 3164      75726365 
 3164      2F737263 
 3164      2F757365 
 3165              	.LASF80:
 3166 0146 73636865 		.ascii	"schedule\000"
 3166      64756C65 
 3166      00
 3167              	.LASF90:
ARM GAS  G:\Users\Jaxb\AppData\Local\Temp\ccfFV28j.s 			page 63


 3168 014f 696E6974 		.ascii	"init_insert_sort_entity\000"
 3168      5F696E73 
 3168      6572745F 
 3168      736F7274 
 3168      5F656E74 
 3169              	.LASF86:
 3170 0167 696E7365 		.ascii	"insert_sort_delete_data\000"
 3170      72745F73 
 3170      6F72745F 
 3170      64656C65 
 3170      74655F64 
 3171              	.LASF28:
 3172 017f 73746163 		.ascii	"stack_end\000"
 3172      6B5F656E 
 3172      6400
 3173              	.LASF15:
 3174 0189 53544154 		.ascii	"STATE_WAIT_MCB_TIMEOUT\000"
 3174      455F5741 
 3174      49545F4D 
 3174      43425F54 
 3174      494D454F 
 3175              	.LASF73:
 3176 01a0 696E6974 		.ascii	"init_MCB\000"
 3176      5F4D4342 
 3176      00
 3177              	.LASF17:
 3178 01a9 53544154 		.ascii	"STATE_WAIT_MESSAGE_QUEUE_TIMEOUT\000"
 3178      455F5741 
 3178      49545F4D 
 3178      45535341 
 3178      47455F51 
 3179              	.LASF2:
 3180 01ca 6C6F6E67 		.ascii	"long long int\000"
 3180      206C6F6E 
 3180      6720696E 
 3180      7400
 3181              	.LASF36:
 3182 01d8 74696D65 		.ascii	"timeslice_hope_time\000"
 3182      736C6963 
 3182      655F686F 
 3182      70655F74 
 3182      696D6500 
 3183              	.LASF60:
 3184 01ec 666C6167 		.ascii	"flag\000"
 3184      00
 3185              	.LASF42:
 3186 01f1 696E7365 		.ascii	"insert_sort_data\000"
 3186      72745F73 
 3186      6F72745F 
 3186      64617461 
 3186      00
 3187              	.LASF50:
 3188 0202 6765745F 		.ascii	"get_data_ptr\000"
 3188      64617461 
 3188      5F707472 
 3188      00
 3189              	.LASF94:
ARM GAS  G:\Users\Jaxb\AppData\Local\Temp\ccfFV28j.s 			page 64


 3190 020f 636C6561 		.ascii	"clear_MCB_index\000"
 3190      725F4D43 
 3190      425F696E 
 3190      64657800 
 3191              	.LASF74:
 3192 021f 64617461 		.ascii	"data1\000"
 3192      3100
 3193              	.LASF83:
 3194 0225 6B615F70 		.ascii	"ka_printf\000"
 3194      72696E74 
 3194      6600
 3195              	.LASF71:
 3196 022f 64656C65 		.ascii	"delete_MCB\000"
 3196      74655F4D 
 3196      434200
 3197              	.LASF21:
 3198 023a 5441534B 		.ascii	"TASK_STATE\000"
 3198      5F535441 
 3198      544500
 3199              	.LASF89:
 3200 0245 7379735F 		.ascii	"sys_suspend\000"
 3200      73757370 
 3200      656E6400 
 3201              	.LASF35:
 3202 0251 6E616D65 		.ascii	"name\000"
 3202      00
 3203              	.LASF64:
 3204 0256 4F535443 		.ascii	"OSTCBCurPtr\000"
 3204      42437572 
 3204      50747200 
 3205              	.LASF48:
 3206 0262 64617461 		.ascii	"data_num\000"
 3206      5F6E756D 
 3206      00
 3207              	.LASF78:
 3208 026b 5F415353 		.ascii	"_ASSERT\000"
 3208      45525400 
 3209              	.LASF76:
 3210 0273 4350555F 		.ascii	"CPU_SR_Save\000"
 3210      53525F53 
 3210      61766500 
 3211              	.LASF3:
 3212 027f 756E7369 		.ascii	"unsigned char\000"
 3212      676E6564 
 3212      20636861 
 3212      7200
 3213              	.LASF58:
 3214 028d 4D43425F 		.ascii	"MCB_insert_sort_list\000"
 3214      696E7365 
 3214      72745F73 
 3214      6F72745F 
 3214      6C697374 
 3215              	.LASF12:
 3216 02a2 53544154 		.ascii	"STATE_DELAY\000"
 3216      455F4445 
 3216      4C415900 
 3217              	.LASF38:
ARM GAS  G:\Users\Jaxb\AppData\Local\Temp\ccfFV28j.s 			page 65


 3218 02ae 61747472 		.ascii	"attribution\000"
 3218      69627574 
 3218      696F6E00 
 3219              	.LASF72:
 3220 02ba 696E7365 		.ascii	"insert_sort_data_ptr\000"
 3220      72745F73 
 3220      6F72745F 
 3220      64617461 
 3220      5F707472 
 3221              	.LASF0:
 3222 02cf 7369676E 		.ascii	"signed char\000"
 3222      65642063 
 3222      68617200 
 3223              	.LASF8:
 3224 02db 6C6F6E67 		.ascii	"long long unsigned int\000"
 3224      206C6F6E 
 3224      6720756E 
 3224      7369676E 
 3224      65642069 
 3225              	.LASF82:
 3226 02f2 72656D6F 		.ascii	"remove_from_delay_heap\000"
 3226      76655F66 
 3226      726F6D5F 
 3226      64656C61 
 3226      795F6865 
 3227              	.LASF5:
 3228 0309 756E7369 		.ascii	"unsigned int\000"
 3228      676E6564 
 3228      20696E74 
 3228      00
 3229              	.LASF26:
 3230 0316 73746163 		.ascii	"stack\000"
 3230      6B00
 3231              	.LASF53:
 3232 031c 4D43425F 		.ascii	"MCB_WAIT_FLAG\000"
 3232      57414954 
 3232      5F464C41 
 3232      4700
 3233              	.LASF33:
 3234 032a 73616D65 		.ascii	"same_prio_list\000"
 3234      5F707269 
 3234      6F5F6C69 
 3234      737400
 3235              	.LASF68:
 3236 0339 74696D65 		.ascii	"time\000"
 3236      00
 3237              	.LASF51:
 3238 033e 76616C75 		.ascii	"value_cmp\000"
 3238      655F636D 
 3238      7000
 3239              	.LASF4:
 3240 0348 73686F72 		.ascii	"short unsigned int\000"
 3240      7420756E 
 3240      7369676E 
 3240      65642069 
 3240      6E7400
 3241              	.LASF11:
ARM GAS  G:\Users\Jaxb\AppData\Local\Temp\ccfFV28j.s 			page 66


 3242 035b 53544154 		.ascii	"STATE_READY\000"
 3242      455F5245 
 3242      41445900 
 3243              	.LASF40:
 3244 0367 63686172 		.ascii	"char\000"
 3244      00
 3245              	.LASF56:
 3246 036c 4D43425F 		.ascii	"MCB_FLAG_BINARY\000"
 3246      464C4147 
 3246      5F42494E 
 3246      41525900 
 3247              	.LASF19:
 3248 037c 53544154 		.ascii	"STATE_PUT_MESSAGE_QUEUE_TIMEOUT\000"
 3248      455F5055 
 3248      545F4D45 
 3248      53534147 
 3248      455F5155 
 3249              	.LASF61:
 3250 039c 4350555F 		.ascii	"CPU_INT32U\000"
 3250      494E5433 
 3250      325500
 3251              	.LASF57:
 3252 03a7 6D657373 		.ascii	"message_struct\000"
 3252      6167655F 
 3252      73747275 
 3252      637400
 3253              	.LASF69:
 3254 03b6 64617461 		.ascii	"data\000"
 3254      00
 3255              	.LASF41:
 3256 03bb 69645F74 		.ascii	"id_type\000"
 3256      79706500 
 3257              	.LASF32:
 3258 03c3 64656C61 		.ascii	"delay_heap_position\000"
 3258      795F6865 
 3258      61705F70 
 3258      6F736974 
 3258      696F6E00 
 3259              	.LASF31:
 3260 03d7 7461736B 		.ascii	"task_state\000"
 3260      5F737461 
 3260      746500
 3261              	.LASF88:
 3262 03e2 696E7365 		.ascii	"insert_sort_insert_into\000"
 3262      72745F73 
 3262      6F72745F 
 3262      696E7365 
 3262      72745F69 
 3263              	.LASF93:
 3264 03fa 473A5C55 		.ascii	"G:\\Users\\Jaxb\\Desktop\\KAKAOS-0.07  2019.2.21  f"
 3264      73657273 
 3264      5C4A6178 
 3264      625C4465 
 3264      736B746F 
 3265 0429 6F722067 		.ascii	"or gcc\\Project\\RVMDK\243\250uv5\243\251\000"
 3265      63635C50 
 3265      726F6A65 
ARM GAS  G:\Users\Jaxb\AppData\Local\Temp\ccfFV28j.s 			page 67


 3265      63745C52 
 3265      564D444B 
 3266              	.LASF79:
 3267 0445 696E7365 		.ascii	"insert_sort_delete_head\000"
 3267      72745F73 
 3267      6F72745F 
 3267      64656C65 
 3267      74655F68 
 3268              	.LASF37:
 3269 045d 74696D65 		.ascii	"timeslice_rest_time\000"
 3269      736C6963 
 3269      655F7265 
 3269      73745F74 
 3269      696D6500 
 3270              	.LASF46:
 3271 0471 696E7365 		.ascii	"insert_sort_entity\000"
 3271      72745F73 
 3271      6F72745F 
 3271      656E7469 
 3271      747900
 3272              	.LASF14:
 3273 0484 53544154 		.ascii	"STATE_WAIT_MCB_FOREVER\000"
 3273      455F5741 
 3273      49545F4D 
 3273      43425F46 
 3273      4F524556 
 3274              	.LASF49:
 3275 049b 636F6D70 		.ascii	"compare\000"
 3275      61726500 
 3276              	.LASF25:
 3277 04a3 7461736B 		.ascii	"task_control_block_struct\000"
 3277      5F636F6E 
 3277      74726F6C 
 3277      5F626C6F 
 3277      636B5F73 
 3278              	.LASF27:
 3279 04bd 73746163 		.ascii	"stack_size\000"
 3279      6B5F7369 
 3279      7A6500
 3280              	.LASF54:
 3281 04c8 4D43425F 		.ascii	"MCB_FLAG_WAIT\000"
 3281      464C4147 
 3281      5F574149 
 3281      5400
 3282              	.LASF67:
 3283 04d6 5443425F 		.ascii	"TCB_ptr\000"
 3283      70747200 
 3284              	.LASF30:
 3285 04de 72657365 		.ascii	"reserve_prio\000"
 3285      7276655F 
 3285      7072696F 
 3285      00
 3286              	.LASF34:
 3287 04eb 73757370 		.ascii	"suspend_list\000"
 3287      656E645F 
 3287      6C697374 
 3287      00
ARM GAS  G:\Users\Jaxb\AppData\Local\Temp\ccfFV28j.s 			page 68


 3288              	.LASF63:
 3289 04f8 675F696E 		.ascii	"g_interrupt_count\000"
 3289      74657272 
 3289      7570745F 
 3289      636F756E 
 3289      7400
 3290              	.LASF66:
 3291 050a 6370755F 		.ascii	"cpu_sr\000"
 3291      737200
 3292              	.LASF91:
 3293 0511 474E5520 		.ascii	"GNU C11 7.3.1 20180622 (release) [ARM/embedded-7-br"
 3293      43313120 
 3293      372E332E 
 3293      31203230 
 3293      31383036 
 3294 0544 616E6368 		.ascii	"anch revision 261907] -mcpu=cortex-m3 -mthumb -mapc"
 3294      20726576 
 3294      6973696F 
 3294      6E203236 
 3294      31393037 
 3295 0577 732D6672 		.ascii	"s-frame -mthumb-interwork -mcpu=cortex-m3 -mthumb -"
 3295      616D6520 
 3295      2D6D7468 
 3295      756D622D 
 3295      696E7465 
 3296 05aa 67647761 		.ascii	"gdwarf-2 -O2\000"
 3296      72662D32 
 3296      202D4F32 
 3296      00
 3297              	.LASF20:
 3298 05b7 53544154 		.ascii	"STATE_WAIT_MUTEX_FOREVER\000"
 3298      455F5741 
 3298      49545F4D 
 3298      55544558 
 3298      5F464F52 
 3299              	.LASF75:
 3300 05d0 64617461 		.ascii	"data2\000"
 3300      3200
 3301              	.LASF10:
 3302 05d6 70726576 		.ascii	"prev\000"
 3302      00
 3303              	.LASF62:
 3304 05db 4350555F 		.ascii	"CPU_SR\000"
 3304      535200
 3305              	.LASF39:
 3306 05e2 64656C61 		.ascii	"delay_reach_time\000"
 3306      795F7265 
 3306      6163685F 
 3306      74696D65 
 3306      00
 3307              	.LASF87:
 3308 05f3 696E6974 		.ascii	"init_insert_sort_data\000"
 3308      5F696E73 
 3308      6572745F 
 3308      736F7274 
 3308      5F646174 
 3309              	.LASF59:
ARM GAS  G:\Users\Jaxb\AppData\Local\Temp\ccfFV28j.s 			page 69


 3310 0609 7265736F 		.ascii	"resource_num\000"
 3310      75726365 
 3310      5F6E756D 
 3310      00
 3311              	.LASF7:
 3312 0616 55494E54 		.ascii	"UINT64\000"
 3312      363400
 3313              	.LASF29:
 3314 061d 7072696F 		.ascii	"prio\000"
 3314      00
 3315              	.LASF43:
 3316 0622 64617461 		.ascii	"data_ptr\000"
 3316      5F707472 
 3316      00
 3317              	.LASF9:
 3318 062b 6E657874 		.ascii	"next\000"
 3318      00
 3319              		.ident	"GCC: (GNU Tools for Arm Embedded Processors 7-2018-q2-update) 7.3.1 20180622 (release) [AR
ARM GAS  G:\Users\Jaxb\AppData\Local\Temp\ccfFV28j.s 			page 70


DEFINED SYMBOLS
                            *ABS*:00000000 MCB.c
G:\Users\Jaxb\AppData\Local\Temp\ccfFV28j.s:15     .text:00000000 $t
G:\Users\Jaxb\AppData\Local\Temp\ccfFV28j.s:22     .text:00000000 compare
G:\Users\Jaxb\AppData\Local\Temp\ccfFV28j.s:50     .text:0000000c value_cmp
G:\Users\Jaxb\AppData\Local\Temp\ccfFV28j.s:76     .text:00000014 init_MCB
G:\Users\Jaxb\AppData\Local\Temp\ccfFV28j.s:176    .text:00000074 $d
G:\Users\Jaxb\AppData\Local\Temp\ccfFV28j.s:185    .text:0000008c $t
G:\Users\Jaxb\AppData\Local\Temp\ccfFV28j.s:193    .text:0000008c delete_MCB
G:\Users\Jaxb\AppData\Local\Temp\ccfFV28j.s:304    .text:000000f8 $d
G:\Users\Jaxb\AppData\Local\Temp\ccfFV28j.s:309    .text:00000100 $t
G:\Users\Jaxb\AppData\Local\Temp\ccfFV28j.s:317    .text:00000100 p
G:\Users\Jaxb\AppData\Local\Temp\ccfFV28j.s:541    .text:000001f8 $d
G:\Users\Jaxb\AppData\Local\Temp\ccfFV28j.s:549    .text:00000208 $t
G:\Users\Jaxb\AppData\Local\Temp\ccfFV28j.s:557    .text:00000208 v
G:\Users\Jaxb\AppData\Local\Temp\ccfFV28j.s:686    .text:00000288 $d
G:\Users\Jaxb\AppData\Local\Temp\ccfFV28j.s:692    .text:00000290 $t
G:\Users\Jaxb\AppData\Local\Temp\ccfFV28j.s:700    .text:00000290 clear_MCB_index
G:\Users\Jaxb\AppData\Local\Temp\ccfFV28j.s:751    .text:000002b8 $d
G:\Users\Jaxb\AppData\Local\Temp\ccfFV28j.s:756    .rodata.str1.4:00000000 $d

UNDEFINED SYMBOLS
CPU_SR_Save
init_insert_sort_entity
CPU_SR_Restore
_ASSERT
ka_printf
g_interrupt_count
insert_sort_delete_head
remove_from_delay_heap
remove_from_suspend_list
schedule
init_insert_sort_data
insert_sort_insert_into
get_tick
sys_delay
sys_suspend
insert_sort_delete_data
OSTCBCurPtr
