ARM GAS  G:\Users\Jaxb\AppData\Local\Temp\ccqTkcFy.s 			page 1


   1              		.cpu cortex-m3
   2              		.eabi_attribute 20, 1
   3              		.eabi_attribute 21, 1
   4              		.eabi_attribute 23, 3
   5              		.eabi_attribute 24, 1
   6              		.eabi_attribute 25, 1
   7              		.eabi_attribute 26, 1
   8              		.eabi_attribute 30, 2
   9              		.eabi_attribute 34, 1
  10              		.eabi_attribute 18, 4
  11              		.file	"MCB.c"
  12              		.text
  13              	.Ltext0:
  14              		.cfi_sections	.debug_frame
  15              		.align	1
  16              		.p2align 2,,3
  17              		.syntax unified
  18              		.thumb
  19              		.thumb_func
  20              		.fpu softvfp
  21              		.type	compare, %function
  22              	compare:
  23              	.LFB12:
  24              		.file 1 "../../source/src/kernel/OS_CORE/MCB.c"
   1:../../source/src/kernel/OS_CORE/MCB.c **** #include <MCB.h>
   2:../../source/src/kernel/OS_CORE/MCB.c **** #include <os_cpu.h>
   3:../../source/src/kernel/OS_CORE/MCB.c **** #include <os_time.h>
   4:../../source/src/kernel/OS_CORE/MCB.c **** #include <myassert.h>
   5:../../source/src/kernel/OS_CORE/MCB.c **** #include <myMicroLIB.h>
   6:../../source/src/kernel/OS_CORE/MCB.c **** #include <task_state.h>
   7:../../source/src/kernel/OS_CORE/MCB.c **** #include <os_schedule.h>
   8:../../source/src/kernel/OS_CORE/MCB.c **** #include <os_suspend.h>
   9:../../source/src/kernel/OS_CORE/MCB.c **** #include <os_delay.h>
  10:../../source/src/kernel/OS_CORE/MCB.c **** 
  11:../../source/src/kernel/OS_CORE/MCB.c **** 
  12:../../source/src/kernel/OS_CORE/MCB.c **** extern TCB * OSTCBCurPtr;
  13:../../source/src/kernel/OS_CORE/MCB.c **** 
  14:../../source/src/kernel/OS_CORE/MCB.c **** inline static int compare(struct insert_sort_data *data1,struct insert_sort_data *data2)
  15:../../source/src/kernel/OS_CORE/MCB.c **** {
  25              		.loc 1 15 0
  26              		.cfi_startproc
  27              		@ args = 0, pretend = 0, frame = 0
  28              		@ frame_needed = 0, uses_anonymous_args = 0
  29              		@ link register save eliminated.
  30              	.LVL0:
  16:../../source/src/kernel/OS_CORE/MCB.c **** 	return ((TCB*)(data1->data_ptr))->prio - ((TCB*)(data2->data_ptr))->prio;
  31              		.loc 1 16 0
  32 0000 0268     		ldr	r2, [r0]
  33 0002 0B68     		ldr	r3, [r1]
  34 0004 D068     		ldr	r0, [r2, #12]
  35              	.LVL1:
  36 0006 DB68     		ldr	r3, [r3, #12]
  17:../../source/src/kernel/OS_CORE/MCB.c **** }
  37              		.loc 1 17 0
  38 0008 C01A     		subs	r0, r0, r3
  39 000a 7047     		bx	lr
  40              		.cfi_endproc
ARM GAS  G:\Users\Jaxb\AppData\Local\Temp\ccqTkcFy.s 			page 2


  41              	.LFE12:
  42              		.size	compare, .-compare
  43              		.align	1
  44              		.p2align 2,,3
  45              		.syntax unified
  46              		.thumb
  47              		.thumb_func
  48              		.fpu softvfp
  49              		.type	value_cmp, %function
  50              	value_cmp:
  51              	.LFB13:
  18:../../source/src/kernel/OS_CORE/MCB.c **** 
  19:../../source/src/kernel/OS_CORE/MCB.c **** inline static int value_cmp(void *data1,void *data2)
  20:../../source/src/kernel/OS_CORE/MCB.c **** {
  52              		.loc 1 20 0
  53              		.cfi_startproc
  54              		@ args = 0, pretend = 0, frame = 0
  55              		@ frame_needed = 0, uses_anonymous_args = 0
  56              		@ link register save eliminated.
  57              	.LVL2:
  21:../../source/src/kernel/OS_CORE/MCB.c **** 	return ((TCB*)data1)->prio - ((TCB*)data2)->prio;
  58              		.loc 1 21 0
  59 000c C068     		ldr	r0, [r0, #12]
  60              	.LVL3:
  61 000e CB68     		ldr	r3, [r1, #12]
  22:../../source/src/kernel/OS_CORE/MCB.c **** }
  62              		.loc 1 22 0
  63 0010 C01A     		subs	r0, r0, r3
  64 0012 7047     		bx	lr
  65              		.cfi_endproc
  66              	.LFE13:
  67              		.size	value_cmp, .-value_cmp
  68              		.align	1
  69              		.p2align 2,,3
  70              		.global	init_MCB
  71              		.syntax unified
  72              		.thumb
  73              		.thumb_func
  74              		.fpu softvfp
  75              		.type	init_MCB, %function
  76              	init_MCB:
  77              	.LFB14:
  23:../../source/src/kernel/OS_CORE/MCB.c **** 
  24:../../source/src/kernel/OS_CORE/MCB.c **** int
  25:../../source/src/kernel/OS_CORE/MCB.c **** init_MCB(
  26:../../source/src/kernel/OS_CORE/MCB.c **** 	MCB *MCB_ptr,
  27:../../source/src/kernel/OS_CORE/MCB.c **** 	int num,
  28:../../source/src/kernel/OS_CORE/MCB.c **** 	unsigned int flag
  29:../../source/src/kernel/OS_CORE/MCB.c **** 	)
  30:../../source/src/kernel/OS_CORE/MCB.c **** {
  78              		.loc 1 30 0
  79              		.cfi_startproc
  80              		@ args = 0, pretend = 0, frame = 0
  81              		@ frame_needed = 0, uses_anonymous_args = 0
  82              	.LVL4:
  83 0014 F8B5     		push	{r3, r4, r5, r6, r7, lr}
  84              	.LCFI0:
ARM GAS  G:\Users\Jaxb\AppData\Local\Temp\ccqTkcFy.s 			page 3


  85              		.cfi_def_cfa_offset 24
  86              		.cfi_offset 3, -24
  87              		.cfi_offset 4, -20
  88              		.cfi_offset 5, -16
  89              		.cfi_offset 6, -12
  90              		.cfi_offset 7, -8
  91              		.cfi_offset 14, -4
  92              		.loc 1 30 0
  93 0016 0E46     		mov	r6, r1
  94 0018 1546     		mov	r5, r2
  31:../../source/src/kernel/OS_CORE/MCB.c **** 	ASSERT(NULL != MCB_ptr);
  95              		.loc 1 31 0
  96 001a 0446     		mov	r4, r0
  97 001c C0B1     		cbz	r0, .L17
  98              	.LVL5:
  32:../../source/src/kernel/OS_CORE/MCB.c **** #if CONFIG_PARA_CHECK
  33:../../source/src/kernel/OS_CORE/MCB.c **** 	if(NULL == MCB_ptr)
  34:../../source/src/kernel/OS_CORE/MCB.c **** 	{
  35:../../source/src/kernel/OS_CORE/MCB.c **** 		OS_ERROR_PARA_MESSAGE_DISPLAY(init_MCB,MCB_ptr);
  36:../../source/src/kernel/OS_CORE/MCB.c **** 		return -ERROR_NULL_INPUT_PTR;
  37:../../source/src/kernel/OS_CORE/MCB.c **** 	}
  38:../../source/src/kernel/OS_CORE/MCB.c **** #endif
  39:../../source/src/kernel/OS_CORE/MCB.c **** 	CPU_SR_ALLOC();
  40:../../source/src/kernel/OS_CORE/MCB.c **** 	CPU_CRITICAL_ENTER();
  99              		.loc 1 40 0
 100 001e FFF7FEFF 		bl	CPU_SR_Save
 101              	.LVL6:
  41:../../source/src/kernel/OS_CORE/MCB.c **** 	if (g_interrupt_count > 0)
 102              		.loc 1 41 0
 103 0022 134B     		ldr	r3, .L19
  40:../../source/src/kernel/OS_CORE/MCB.c **** 	if (g_interrupt_count > 0)
 104              		.loc 1 40 0
 105 0024 0746     		mov	r7, r0
 106              	.LVL7:
 107              		.loc 1 41 0
 108 0026 1B68     		ldr	r3, [r3]
 109 0028 002B     		cmp	r3, #0
 110 002a 1BDC     		bgt	.L18
  42:../../source/src/kernel/OS_CORE/MCB.c **** 	{
  43:../../source/src/kernel/OS_CORE/MCB.c **** 		CPU_CRITICAL_EXIT();
  44:../../source/src/kernel/OS_CORE/MCB.c **** 		return -ERROR_FUN_USE_IN_INTER;
  45:../../source/src/kernel/OS_CORE/MCB.c **** 	}
  46:../../source/src/kernel/OS_CORE/MCB.c **** 	MCB_ptr->resource_num = num;
  47:../../source/src/kernel/OS_CORE/MCB.c **** 	init_insert_sort_entity(
 111              		.loc 1 47 0
 112 002c 114B     		ldr	r3, .L19+4
  46:../../source/src/kernel/OS_CORE/MCB.c **** 	init_insert_sort_entity(
 113              		.loc 1 46 0
 114 002e A661     		str	r6, [r4, #24]
 115              		.loc 1 47 0
 116 0030 0022     		movs	r2, #0
 117 0032 1149     		ldr	r1, .L19+8
 118 0034 2046     		mov	r0, r4
 119              	.LVL8:
 120 0036 FFF7FEFF 		bl	init_insert_sort_entity
 121              	.LVL9:
  48:../../source/src/kernel/OS_CORE/MCB.c **** 		&MCB_ptr->MCB_insert_sort_list,
ARM GAS  G:\Users\Jaxb\AppData\Local\Temp\ccqTkcFy.s 			page 4


  49:../../source/src/kernel/OS_CORE/MCB.c **** 		compare,
  50:../../source/src/kernel/OS_CORE/MCB.c **** 		NULL,
  51:../../source/src/kernel/OS_CORE/MCB.c **** 		value_cmp
  52:../../source/src/kernel/OS_CORE/MCB.c **** 	);
  53:../../source/src/kernel/OS_CORE/MCB.c **** 	MCB_ptr->flag = flag;
  54:../../source/src/kernel/OS_CORE/MCB.c **** 	if(MCB_type_is_binary(MCB_ptr))
 122              		.loc 1 54 0
 123 003a EB07     		lsls	r3, r5, #31
  53:../../source/src/kernel/OS_CORE/MCB.c **** 	if(MCB_type_is_binary(MCB_ptr))
 124              		.loc 1 53 0
 125 003c E561     		str	r5, [r4, #28]
 126              		.loc 1 54 0
 127 003e 02D5     		bpl	.L7
  55:../../source/src/kernel/OS_CORE/MCB.c **** 	{
  56:../../source/src/kernel/OS_CORE/MCB.c **** 		if(num)
 128              		.loc 1 56 0
 129 0040 0EB1     		cbz	r6, .L7
  57:../../source/src/kernel/OS_CORE/MCB.c **** 		{
  58:../../source/src/kernel/OS_CORE/MCB.c **** 			MCB_ptr->resource_num = 1;
 130              		.loc 1 58 0
 131 0042 0123     		movs	r3, #1
 132 0044 A361     		str	r3, [r4, #24]
 133              	.L7:
  59:../../source/src/kernel/OS_CORE/MCB.c **** 		}
  60:../../source/src/kernel/OS_CORE/MCB.c **** 	}
  61:../../source/src/kernel/OS_CORE/MCB.c **** 	CPU_CRITICAL_EXIT();
 134              		.loc 1 61 0
 135 0046 3846     		mov	r0, r7
 136 0048 FFF7FEFF 		bl	CPU_SR_Restore
 137              	.LVL10:
  62:../../source/src/kernel/OS_CORE/MCB.c **** 	return FUN_EXECUTE_SUCCESSFULLY;
 138              		.loc 1 62 0
 139 004c 0020     		movs	r0, #0
  63:../../source/src/kernel/OS_CORE/MCB.c **** }
 140              		.loc 1 63 0
 141 004e F8BD     		pop	{r3, r4, r5, r6, r7, pc}
 142              	.LVL11:
 143              	.L17:
  31:../../source/src/kernel/OS_CORE/MCB.c **** #if CONFIG_PARA_CHECK
 144              		.loc 1 31 0 discriminator 1
 145 0050 1F21     		movs	r1, #31
 146              	.LVL12:
 147 0052 0A48     		ldr	r0, .L19+12
 148              	.LVL13:
 149 0054 FFF7FEFF 		bl	_ASSERT
 150              	.LVL14:
  35:../../source/src/kernel/OS_CORE/MCB.c **** 		return -ERROR_NULL_INPUT_PTR;
 151              		.loc 1 35 0 discriminator 1
 152 0058 0948     		ldr	r0, .L19+16
 153 005a FFF7FEFF 		bl	ka_printf
 154              	.LVL15:
  36:../../source/src/kernel/OS_CORE/MCB.c **** 	}
 155              		.loc 1 36 0 discriminator 1
 156 005e 6FF0FE00 		mvn	r0, #254
 157              		.loc 1 63 0 discriminator 1
 158 0062 F8BD     		pop	{r3, r4, r5, r6, r7, pc}
 159              	.LVL16:
ARM GAS  G:\Users\Jaxb\AppData\Local\Temp\ccqTkcFy.s 			page 5


 160              	.L18:
  43:../../source/src/kernel/OS_CORE/MCB.c **** 		return -ERROR_FUN_USE_IN_INTER;
 161              		.loc 1 43 0
 162 0064 FFF7FEFF 		bl	CPU_SR_Restore
 163              	.LVL17:
  44:../../source/src/kernel/OS_CORE/MCB.c **** 	}
 164              		.loc 1 44 0
 165 0068 6FF0FC00 		mvn	r0, #252
 166              		.loc 1 63 0
 167 006c F8BD     		pop	{r3, r4, r5, r6, r7, pc}
 168              	.LVL18:
 169              	.L20:
 170 006e 00BF     		.align	2
 171              	.L19:
 172 0070 00000000 		.word	g_interrupt_count
 173 0074 00000000 		.word	value_cmp
 174 0078 00000000 		.word	compare
 175 007c 00000000 		.word	.LC0
 176 0080 28000000 		.word	.LC1
 177              		.cfi_endproc
 178              	.LFE14:
 179              		.size	init_MCB, .-init_MCB
 180              		.align	1
 181              		.p2align 2,,3
 182              		.global	delete_MCB
 183              		.syntax unified
 184              		.thumb
 185              		.thumb_func
 186              		.fpu softvfp
 187              		.type	delete_MCB, %function
 188              	delete_MCB:
 189              	.LFB15:
  64:../../source/src/kernel/OS_CORE/MCB.c **** 
  65:../../source/src/kernel/OS_CORE/MCB.c **** int delete_MCB(MCB *MCB_ptr)
  66:../../source/src/kernel/OS_CORE/MCB.c **** {
 190              		.loc 1 66 0
 191              		.cfi_startproc
 192              		@ args = 0, pretend = 0, frame = 0
 193              		@ frame_needed = 0, uses_anonymous_args = 0
 194              	.LVL19:
 195 0084 F8B5     		push	{r3, r4, r5, r6, r7, lr}
 196              	.LCFI1:
 197              		.cfi_def_cfa_offset 24
 198              		.cfi_offset 3, -24
 199              		.cfi_offset 4, -20
 200              		.cfi_offset 5, -16
 201              		.cfi_offset 6, -12
 202              		.cfi_offset 7, -8
 203              		.cfi_offset 14, -4
  67:../../source/src/kernel/OS_CORE/MCB.c **** 	ASSERT(NULL != MCB_ptr);
 204              		.loc 1 67 0
 205 0086 0546     		mov	r5, r0
 206 0088 40B3     		cbz	r0, .L34
 207              	.LVL20:
  68:../../source/src/kernel/OS_CORE/MCB.c **** #if CONFIG_PARA_CHECK
  69:../../source/src/kernel/OS_CORE/MCB.c **** 	if(NULL == MCB_ptr)
  70:../../source/src/kernel/OS_CORE/MCB.c **** 	{
ARM GAS  G:\Users\Jaxb\AppData\Local\Temp\ccqTkcFy.s 			page 6


  71:../../source/src/kernel/OS_CORE/MCB.c **** 		OS_ERROR_PARA_MESSAGE_DISPLAY(delete_MCB,MCB_ptr);
  72:../../source/src/kernel/OS_CORE/MCB.c **** 		return -ERROR_NULL_INPUT_PTR;
  73:../../source/src/kernel/OS_CORE/MCB.c **** 	}
  74:../../source/src/kernel/OS_CORE/MCB.c **** #endif
  75:../../source/src/kernel/OS_CORE/MCB.c **** 	TCB *TCB_ptr;
  76:../../source/src/kernel/OS_CORE/MCB.c **** 	CPU_SR_ALLOC();
  77:../../source/src/kernel/OS_CORE/MCB.c **** 	CPU_CRITICAL_ENTER();//enter critical
 208              		.loc 1 77 0
 209 008a FFF7FEFF 		bl	CPU_SR_Save
 210              	.LVL21:
 211 008e 0746     		mov	r7, r0
 212              	.LVL22:
  78:../../source/src/kernel/OS_CORE/MCB.c **** 	struct insert_sort_data *insert_sort_data_ptr = insert_sort_delete_head(&MCB_ptr->MCB_insert_sort_
 213              		.loc 1 78 0
 214 0090 2846     		mov	r0, r5
 215              	.LVL23:
 216 0092 FFF7FEFF 		bl	insert_sort_delete_head
 217              	.LVL24:
  79:../../source/src/kernel/OS_CORE/MCB.c **** 	while(NULL != insert_sort_data_ptr)
 218              		.loc 1 79 0
 219 0096 D0B1     		cbz	r0, .L28
  80:../../source/src/kernel/OS_CORE/MCB.c **** 	{
  81:../../source/src/kernel/OS_CORE/MCB.c **** 		TCB_ptr = (TCB *)(insert_sort_data_ptr->data_ptr);
  82:../../source/src/kernel/OS_CORE/MCB.c **** 		if(STATE_WAIT_MCB_FOREVER == TCB_ptr->task_state)
  83:../../source/src/kernel/OS_CORE/MCB.c **** 		{
  84:../../source/src/kernel/OS_CORE/MCB.c **** 			remove_from_suspend_list(TCB_ptr);
  85:../../source/src/kernel/OS_CORE/MCB.c **** 		}
  86:../../source/src/kernel/OS_CORE/MCB.c **** 		else
  87:../../source/src/kernel/OS_CORE/MCB.c **** 		{
  88:../../source/src/kernel/OS_CORE/MCB.c **** 			ASSERT(STATE_WAIT_MCB_TIMEOUT == TCB_ptr->task_state);
 220              		.loc 1 88 0
 221 0098 154E     		ldr	r6, .L35
 222 009a 10E0     		b	.L27
 223              	.LVL25:
 224              	.L24:
 225 009c 052B     		cmp	r3, #5
 226 009e 03D0     		beq	.L26
 227              		.loc 1 88 0 is_stmt 0 discriminator 1
 228 00a0 5821     		movs	r1, #88
 229 00a2 3046     		mov	r0, r6
 230              	.LVL26:
 231 00a4 FFF7FEFF 		bl	_ASSERT
 232              	.LVL27:
 233              	.L26:
  89:../../source/src/kernel/OS_CORE/MCB.c **** 			remove_from_delay_heap(TCB_ptr);
 234              		.loc 1 89 0 is_stmt 1
 235 00a8 2046     		mov	r0, r4
 236 00aa FFF7FEFF 		bl	remove_from_delay_heap
 237              	.LVL28:
 238              	.L25:
  90:../../source/src/kernel/OS_CORE/MCB.c **** 		}
  91:../../source/src/kernel/OS_CORE/MCB.c **** 		set_bad_state(TCB_ptr);
 239              		.loc 1 91 0
 240 00ae A36B     		ldr	r3, [r4, #56]
  92:../../source/src/kernel/OS_CORE/MCB.c **** 		insert_sort_data_ptr = insert_sort_delete_head(&MCB_ptr->MCB_insert_sort_list);
 241              		.loc 1 92 0
 242 00b0 2846     		mov	r0, r5
ARM GAS  G:\Users\Jaxb\AppData\Local\Temp\ccqTkcFy.s 			page 7


  91:../../source/src/kernel/OS_CORE/MCB.c **** 		insert_sort_data_ptr = insert_sort_delete_head(&MCB_ptr->MCB_insert_sort_list);
 243              		.loc 1 91 0
 244 00b2 43F00203 		orr	r3, r3, #2
 245 00b6 A363     		str	r3, [r4, #56]
 246              		.loc 1 92 0
 247 00b8 FFF7FEFF 		bl	insert_sort_delete_head
 248              	.LVL29:
  79:../../source/src/kernel/OS_CORE/MCB.c **** 	{
 249              		.loc 1 79 0
 250 00bc 38B1     		cbz	r0, .L28
 251              	.LVL30:
 252              	.L27:
  81:../../source/src/kernel/OS_CORE/MCB.c **** 		if(STATE_WAIT_MCB_FOREVER == TCB_ptr->task_state)
 253              		.loc 1 81 0
 254 00be 0468     		ldr	r4, [r0]
 255              	.LVL31:
  82:../../source/src/kernel/OS_CORE/MCB.c **** 		{
 256              		.loc 1 82 0
 257 00c0 237D     		ldrb	r3, [r4, #20]	@ zero_extendqisi2
 258 00c2 042B     		cmp	r3, #4
 259 00c4 EAD1     		bne	.L24
  84:../../source/src/kernel/OS_CORE/MCB.c **** 		}
 260              		.loc 1 84 0
 261 00c6 2046     		mov	r0, r4
 262              	.LVL32:
 263 00c8 FFF7FEFF 		bl	remove_from_suspend_list
 264              	.LVL33:
 265 00cc EFE7     		b	.L25
 266              	.LVL34:
 267              	.L28:
  93:../../source/src/kernel/OS_CORE/MCB.c **** 	}
  94:../../source/src/kernel/OS_CORE/MCB.c **** 	schedule();
 268              		.loc 1 94 0
 269 00ce FFF7FEFF 		bl	schedule
 270              	.LVL35:
  95:../../source/src/kernel/OS_CORE/MCB.c **** 	CPU_CRITICAL_EXIT();
 271              		.loc 1 95 0
 272 00d2 3846     		mov	r0, r7
 273 00d4 FFF7FEFF 		bl	CPU_SR_Restore
 274              	.LVL36:
  96:../../source/src/kernel/OS_CORE/MCB.c **** 	return FUN_EXECUTE_SUCCESSFULLY;
 275              		.loc 1 96 0
 276 00d8 0020     		movs	r0, #0
  97:../../source/src/kernel/OS_CORE/MCB.c **** }
 277              		.loc 1 97 0
 278 00da F8BD     		pop	{r3, r4, r5, r6, r7, pc}
 279              	.LVL37:
 280              	.L34:
  67:../../source/src/kernel/OS_CORE/MCB.c **** #if CONFIG_PARA_CHECK
 281              		.loc 1 67 0 discriminator 1
 282 00dc 4321     		movs	r1, #67
 283 00de 0448     		ldr	r0, .L35
 284              	.LVL38:
 285 00e0 FFF7FEFF 		bl	_ASSERT
 286              	.LVL39:
  71:../../source/src/kernel/OS_CORE/MCB.c **** 		return -ERROR_NULL_INPUT_PTR;
 287              		.loc 1 71 0 discriminator 1
ARM GAS  G:\Users\Jaxb\AppData\Local\Temp\ccqTkcFy.s 			page 8


 288 00e4 0348     		ldr	r0, .L35+4
 289 00e6 FFF7FEFF 		bl	ka_printf
 290              	.LVL40:
  72:../../source/src/kernel/OS_CORE/MCB.c **** 	}
 291              		.loc 1 72 0 discriminator 1
 292 00ea 6FF0FE00 		mvn	r0, #254
 293              		.loc 1 97 0 discriminator 1
 294 00ee F8BD     		pop	{r3, r4, r5, r6, r7, pc}
 295              	.LVL41:
 296              	.L36:
 297              		.align	2
 298              	.L35:
 299 00f0 00000000 		.word	.LC0
 300 00f4 58000000 		.word	.LC2
 301              		.cfi_endproc
 302              	.LFE15:
 303              		.size	delete_MCB, .-delete_MCB
 304              		.align	1
 305              		.p2align 2,,3
 306              		.global	p
 307              		.syntax unified
 308              		.thumb
 309              		.thumb_func
 310              		.fpu softvfp
 311              		.type	p, %function
 312              	p:
 313              	.LFB16:
  98:../../source/src/kernel/OS_CORE/MCB.c **** 
  99:../../source/src/kernel/OS_CORE/MCB.c **** int 
 100:../../source/src/kernel/OS_CORE/MCB.c **** p(
 101:../../source/src/kernel/OS_CORE/MCB.c **** 	MCB *MCB_ptr,
 102:../../source/src/kernel/OS_CORE/MCB.c **** 	MCB_WAIT_FLAG flag,
 103:../../source/src/kernel/OS_CORE/MCB.c **** 	unsigned int time
 104:../../source/src/kernel/OS_CORE/MCB.c **** )
 105:../../source/src/kernel/OS_CORE/MCB.c **** {
 314              		.loc 1 105 0
 315              		.cfi_startproc
 316              		@ args = 0, pretend = 0, frame = 24
 317              		@ frame_needed = 0, uses_anonymous_args = 0
 318              	.LVL42:
 319 00f8 2DE9F04F 		push	{r4, r5, r6, r7, r8, r9, r10, fp, lr}
 320              	.LCFI2:
 321              		.cfi_def_cfa_offset 36
 322              		.cfi_offset 4, -36
 323              		.cfi_offset 5, -32
 324              		.cfi_offset 6, -28
 325              		.cfi_offset 7, -24
 326              		.cfi_offset 8, -20
 327              		.cfi_offset 9, -16
 328              		.cfi_offset 10, -12
 329              		.cfi_offset 11, -8
 330              		.cfi_offset 14, -4
 331 00fc 0D46     		mov	r5, r1
 332 00fe 87B0     		sub	sp, sp, #28
 333              	.LCFI3:
 334              		.cfi_def_cfa_offset 64
 335              		.loc 1 105 0
ARM GAS  G:\Users\Jaxb\AppData\Local\Temp\ccqTkcFy.s 			page 9


 336 0100 1746     		mov	r7, r2
 106:../../source/src/kernel/OS_CORE/MCB.c **** 	ASSERT(NULL != MCB_ptr);
 337              		.loc 1 106 0
 338 0102 0446     		mov	r4, r0
 339 0104 0028     		cmp	r0, #0
 340 0106 55D0     		beq	.L49
 341              	.LVL43:
 107:../../source/src/kernel/OS_CORE/MCB.c **** #if CONFIG_PARA_CHECK
 108:../../source/src/kernel/OS_CORE/MCB.c **** 	if(NULL == MCB_ptr)
 109:../../source/src/kernel/OS_CORE/MCB.c **** 	{
 110:../../source/src/kernel/OS_CORE/MCB.c **** 		OS_ERROR_PARA_MESSAGE_DISPLAY(p,MCB_ptr);
 111:../../source/src/kernel/OS_CORE/MCB.c **** 		return -ERROR_NULL_INPUT_PTR;
 112:../../source/src/kernel/OS_CORE/MCB.c **** 	}
 113:../../source/src/kernel/OS_CORE/MCB.c **** #endif
 114:../../source/src/kernel/OS_CORE/MCB.c **** 	CPU_SR_ALLOC();
 115:../../source/src/kernel/OS_CORE/MCB.c **** 	CPU_CRITICAL_ENTER();//enter critical
 342              		.loc 1 115 0
 343 0108 FFF7FEFF 		bl	CPU_SR_Save
 344              	.LVL44:
 116:../../source/src/kernel/OS_CORE/MCB.c **** 	
 117:../../source/src/kernel/OS_CORE/MCB.c **** 	if (g_interrupt_count > 0)
 345              		.loc 1 117 0
 346 010c 384B     		ldr	r3, .L54
 115:../../source/src/kernel/OS_CORE/MCB.c **** 	
 347              		.loc 1 115 0
 348 010e 0646     		mov	r6, r0
 349              	.LVL45:
 350              		.loc 1 117 0
 351 0110 1B68     		ldr	r3, [r3]
 352 0112 002B     		cmp	r3, #0
 353 0114 5ADC     		bgt	.L50
 118:../../source/src/kernel/OS_CORE/MCB.c **** 	{
 119:../../source/src/kernel/OS_CORE/MCB.c **** 		CPU_CRITICAL_EXIT();
 120:../../source/src/kernel/OS_CORE/MCB.c **** 		return -ERROR_FUN_USE_IN_INTER;
 121:../../source/src/kernel/OS_CORE/MCB.c **** 	}
 122:../../source/src/kernel/OS_CORE/MCB.c **** 
 123:../../source/src/kernel/OS_CORE/MCB.c **** 	if((flag ==  MCB_FLAG_NON_BLOCKING) && (MCB_ptr->resource_num <= 0))
 354              		.loc 1 123 0
 355 0116 012D     		cmp	r5, #1
 356 0118 A369     		ldr	r3, [r4, #24]
 357 011a 3AD0     		beq	.L51
 358              	.L40:
 124:../../source/src/kernel/OS_CORE/MCB.c **** 	{
 125:../../source/src/kernel/OS_CORE/MCB.c **** 		CPU_CRITICAL_EXIT();
 126:../../source/src/kernel/OS_CORE/MCB.c **** 		return -MCB_OUT_OF_RESOURCE;
 127:../../source/src/kernel/OS_CORE/MCB.c **** 	}
 128:../../source/src/kernel/OS_CORE/MCB.c **** 
 129:../../source/src/kernel/OS_CORE/MCB.c **** 	--(MCB_ptr->resource_num);
 359              		.loc 1 129 0
 360 011c 013B     		subs	r3, r3, #1
 130:../../source/src/kernel/OS_CORE/MCB.c **** 	if(MCB_ptr->resource_num >= 0)
 361              		.loc 1 130 0
 362 011e 002B     		cmp	r3, #0
 129:../../source/src/kernel/OS_CORE/MCB.c **** 	if(MCB_ptr->resource_num >= 0)
 363              		.loc 1 129 0
 364 0120 A361     		str	r3, [r4, #24]
 365              		.loc 1 130 0
ARM GAS  G:\Users\Jaxb\AppData\Local\Temp\ccqTkcFy.s 			page 10


 366 0122 06DB     		blt	.L41
 367              	.LVL46:
 368              	.L48:
 131:../../source/src/kernel/OS_CORE/MCB.c **** 	{
 132:../../source/src/kernel/OS_CORE/MCB.c **** 		CPU_CRITICAL_EXIT();
 369              		.loc 1 132 0
 370 0124 3046     		mov	r0, r6
 371 0126 FFF7FEFF 		bl	CPU_SR_Restore
 372              	.LVL47:
 133:../../source/src/kernel/OS_CORE/MCB.c **** 		return FUN_EXECUTE_SUCCESSFULLY;
 373              		.loc 1 133 0
 374 012a 0020     		movs	r0, #0
 375              	.L37:
 134:../../source/src/kernel/OS_CORE/MCB.c **** 	}
 135:../../source/src/kernel/OS_CORE/MCB.c **** 
 136:../../source/src/kernel/OS_CORE/MCB.c **** //the following program is used to deal with FLAG_WAIT && MCB_OUT_OF_RESOURCE
 137:../../source/src/kernel/OS_CORE/MCB.c **** 	DECLEAR_INSERT_SORT_DATA(data);
 138:../../source/src/kernel/OS_CORE/MCB.c **** 	init_insert_sort_data(&data,OSTCBCurPtr);
 139:../../source/src/kernel/OS_CORE/MCB.c **** 	insert_sort_insert_into(&data,&MCB_ptr->MCB_insert_sort_list);
 140:../../source/src/kernel/OS_CORE/MCB.c **** 	if(time == 0)//0 represent forever
 141:../../source/src/kernel/OS_CORE/MCB.c **** 	{
 142:../../source/src/kernel/OS_CORE/MCB.c **** 		CPU_CRITICAL_EXIT(); //exit  critical
 143:../../source/src/kernel/OS_CORE/MCB.c **** 		sys_suspend(STATE_WAIT_MCB_FOREVER);
 144:../../source/src/kernel/OS_CORE/MCB.c **** 		//go back here=========go back here
 145:../../source/src/kernel/OS_CORE/MCB.c **** 		CPU_CRITICAL_ENTER();//enter critical
 146:../../source/src/kernel/OS_CORE/MCB.c **** 	}
 147:../../source/src/kernel/OS_CORE/MCB.c **** 	else
 148:../../source/src/kernel/OS_CORE/MCB.c **** 	{
 149:../../source/src/kernel/OS_CORE/MCB.c **** 		UINT64 time_record = get_tick();
 150:../../source/src/kernel/OS_CORE/MCB.c **** 		CPU_CRITICAL_EXIT(); //exit  critical
 151:../../source/src/kernel/OS_CORE/MCB.c **** 		sys_delay(time,STATE_WAIT_MCB_TIMEOUT);
 152:../../source/src/kernel/OS_CORE/MCB.c **** 		//go back here=========go back here
 153:../../source/src/kernel/OS_CORE/MCB.c **** 		CPU_CRITICAL_ENTER();//enter critical
 154:../../source/src/kernel/OS_CORE/MCB.c **** 		if(get_tick() >= (time_record + time))//prove that timeout happened
 155:../../source/src/kernel/OS_CORE/MCB.c **** 		{
 156:../../source/src/kernel/OS_CORE/MCB.c **** 			++(MCB_ptr->resource_num);
 157:../../source/src/kernel/OS_CORE/MCB.c **** 			insert_sort_delete_data(&MCB_ptr->MCB_insert_sort_list,OSTCBCurPtr);
 158:../../source/src/kernel/OS_CORE/MCB.c **** 			CPU_CRITICAL_EXIT(); //exit  critical
 159:../../source/src/kernel/OS_CORE/MCB.c **** 			return -MCB_OUT_OF_TIME;
 160:../../source/src/kernel/OS_CORE/MCB.c **** 		}
 161:../../source/src/kernel/OS_CORE/MCB.c **** 	}
 162:../../source/src/kernel/OS_CORE/MCB.c **** 	if(TCB_state_is_bad(OSTCBCurPtr))
 163:../../source/src/kernel/OS_CORE/MCB.c **** 	{
 164:../../source/src/kernel/OS_CORE/MCB.c **** 		clear_bad_state(OSTCBCurPtr);
 165:../../source/src/kernel/OS_CORE/MCB.c **** 		CPU_CRITICAL_EXIT(); //exit  critical
 166:../../source/src/kernel/OS_CORE/MCB.c **** 		return -ERROR_MODULE_DELETED;
 167:../../source/src/kernel/OS_CORE/MCB.c **** 	}
 168:../../source/src/kernel/OS_CORE/MCB.c **** 	CPU_CRITICAL_EXIT(); //exit  critical
 169:../../source/src/kernel/OS_CORE/MCB.c **** 	return FUN_EXECUTE_SUCCESSFULLY;
 170:../../source/src/kernel/OS_CORE/MCB.c **** }
 376              		.loc 1 170 0
 377 012c 07B0     		add	sp, sp, #28
 378              	.LCFI4:
 379              		.cfi_remember_state
 380              		.cfi_def_cfa_offset 36
 381              		@ sp needed
 382 012e BDE8F08F 		pop	{r4, r5, r6, r7, r8, r9, r10, fp, pc}
ARM GAS  G:\Users\Jaxb\AppData\Local\Temp\ccqTkcFy.s 			page 11


 383              	.LVL48:
 384              	.L41:
 385              	.LCFI5:
 386              		.cfi_restore_state
 138:../../source/src/kernel/OS_CORE/MCB.c **** 	insert_sort_insert_into(&data,&MCB_ptr->MCB_insert_sort_list);
 387              		.loc 1 138 0
 388 0132 304D     		ldr	r5, .L54+4
 389 0134 6846     		mov	r0, sp
 390              	.LVL49:
 391 0136 2968     		ldr	r1, [r5]
 392 0138 FFF7FEFF 		bl	init_insert_sort_data
 393              	.LVL50:
 139:../../source/src/kernel/OS_CORE/MCB.c **** 	if(time == 0)//0 represent forever
 394              		.loc 1 139 0
 395 013c 2146     		mov	r1, r4
 396 013e 6846     		mov	r0, sp
 397 0140 FFF7FEFF 		bl	insert_sort_insert_into
 398              	.LVL51:
 140:../../source/src/kernel/OS_CORE/MCB.c **** 	{
 399              		.loc 1 140 0
 400 0144 67B3     		cbz	r7, .L52
 401              	.LBB2:
 149:../../source/src/kernel/OS_CORE/MCB.c **** 		CPU_CRITICAL_EXIT(); //exit  critical
 402              		.loc 1 149 0
 403 0146 FFF7FEFF 		bl	get_tick
 404              	.LVL52:
 405 014a 8246     		mov	r10, r0
 150:../../source/src/kernel/OS_CORE/MCB.c **** 		sys_delay(time,STATE_WAIT_MCB_TIMEOUT);
 406              		.loc 1 150 0
 407 014c 3046     		mov	r0, r6
 149:../../source/src/kernel/OS_CORE/MCB.c **** 		CPU_CRITICAL_EXIT(); //exit  critical
 408              		.loc 1 149 0
 409 014e 8B46     		mov	fp, r1
 410              	.LVL53:
 150:../../source/src/kernel/OS_CORE/MCB.c **** 		sys_delay(time,STATE_WAIT_MCB_TIMEOUT);
 411              		.loc 1 150 0
 412 0150 FFF7FEFF 		bl	CPU_SR_Restore
 413              	.LVL54:
 151:../../source/src/kernel/OS_CORE/MCB.c **** 		//go back here=========go back here
 414              		.loc 1 151 0
 415 0154 0521     		movs	r1, #5
 416 0156 3846     		mov	r0, r7
 417 0158 FFF7FEFF 		bl	sys_delay
 418              	.LVL55:
 153:../../source/src/kernel/OS_CORE/MCB.c **** 		if(get_tick() >= (time_record + time))//prove that timeout happened
 419              		.loc 1 153 0
 420 015c FFF7FEFF 		bl	CPU_SR_Save
 421              	.LVL56:
 422 0160 0646     		mov	r6, r0
 423              	.LVL57:
 154:../../source/src/kernel/OS_CORE/MCB.c **** 		{
 424              		.loc 1 154 0
 425 0162 FFF7FEFF 		bl	get_tick
 426              	.LVL58:
 427 0166 1AEB0708 		adds	r8, r10, r7
 428 016a 4BF10009 		adc	r9, fp, #0
 429 016e 4945     		cmp	r1, r9
ARM GAS  G:\Users\Jaxb\AppData\Local\Temp\ccqTkcFy.s 			page 12


 430 0170 08BF     		it	eq
 431 0172 4045     		cmpeq	r0, r8
 432 0174 2FD2     		bcs	.L53
 433              	.LVL59:
 434              	.L43:
 435              	.LBE2:
 162:../../source/src/kernel/OS_CORE/MCB.c **** 	{
 436              		.loc 1 162 0
 437 0176 2A68     		ldr	r2, [r5]
 438 0178 936B     		ldr	r3, [r2, #56]
 439 017a 13F00204 		ands	r4, r3, #2
 440              	.LVL60:
 441 017e D1D0     		beq	.L48
 164:../../source/src/kernel/OS_CORE/MCB.c **** 		CPU_CRITICAL_EXIT(); //exit  critical
 442              		.loc 1 164 0
 443 0180 23F00203 		bic	r3, r3, #2
 165:../../source/src/kernel/OS_CORE/MCB.c **** 		return -ERROR_MODULE_DELETED;
 444              		.loc 1 165 0
 445 0184 3046     		mov	r0, r6
 164:../../source/src/kernel/OS_CORE/MCB.c **** 		CPU_CRITICAL_EXIT(); //exit  critical
 446              		.loc 1 164 0
 447 0186 9363     		str	r3, [r2, #56]
 165:../../source/src/kernel/OS_CORE/MCB.c **** 		return -ERROR_MODULE_DELETED;
 448              		.loc 1 165 0
 449 0188 FFF7FEFF 		bl	CPU_SR_Restore
 450              	.LVL61:
 166:../../source/src/kernel/OS_CORE/MCB.c **** 	}
 451              		.loc 1 166 0
 452 018c 6FF0F900 		mvn	r0, #249
 453 0190 CCE7     		b	.L37
 454              	.LVL62:
 455              	.L51:
 123:../../source/src/kernel/OS_CORE/MCB.c **** 	{
 456              		.loc 1 123 0 discriminator 1
 457 0192 002B     		cmp	r3, #0
 458 0194 C2DC     		bgt	.L40
 125:../../source/src/kernel/OS_CORE/MCB.c **** 		return -MCB_OUT_OF_RESOURCE;
 459              		.loc 1 125 0
 460 0196 FFF7FEFF 		bl	CPU_SR_Restore
 461              	.LVL63:
 126:../../source/src/kernel/OS_CORE/MCB.c **** 	}
 462              		.loc 1 126 0
 463 019a 4FF0FF30 		mov	r0, #-1
 464 019e C5E7     		b	.L37
 465              	.L52:
 142:../../source/src/kernel/OS_CORE/MCB.c **** 		sys_suspend(STATE_WAIT_MCB_FOREVER);
 466              		.loc 1 142 0
 467 01a0 3046     		mov	r0, r6
 468 01a2 FFF7FEFF 		bl	CPU_SR_Restore
 469              	.LVL64:
 143:../../source/src/kernel/OS_CORE/MCB.c **** 		//go back here=========go back here
 470              		.loc 1 143 0
 471 01a6 0420     		movs	r0, #4
 472 01a8 FFF7FEFF 		bl	sys_suspend
 473              	.LVL65:
 145:../../source/src/kernel/OS_CORE/MCB.c **** 	}
 474              		.loc 1 145 0
ARM GAS  G:\Users\Jaxb\AppData\Local\Temp\ccqTkcFy.s 			page 13


 475 01ac FFF7FEFF 		bl	CPU_SR_Save
 476              	.LVL66:
 477 01b0 0646     		mov	r6, r0
 478              	.LVL67:
 479 01b2 E0E7     		b	.L43
 480              	.LVL68:
 481              	.L49:
 106:../../source/src/kernel/OS_CORE/MCB.c **** #if CONFIG_PARA_CHECK
 482              		.loc 1 106 0 discriminator 1
 483 01b4 6A21     		movs	r1, #106
 484              	.LVL69:
 485 01b6 1048     		ldr	r0, .L54+8
 486              	.LVL70:
 487 01b8 FFF7FEFF 		bl	_ASSERT
 488              	.LVL71:
 110:../../source/src/kernel/OS_CORE/MCB.c **** 		return -ERROR_NULL_INPUT_PTR;
 489              		.loc 1 110 0 discriminator 1
 490 01bc 0F48     		ldr	r0, .L54+12
 491 01be FFF7FEFF 		bl	ka_printf
 492              	.LVL72:
 111:../../source/src/kernel/OS_CORE/MCB.c **** 	}
 493              		.loc 1 111 0 discriminator 1
 494 01c2 6FF0FE00 		mvn	r0, #254
 495              		.loc 1 170 0 discriminator 1
 496 01c6 07B0     		add	sp, sp, #28
 497              	.LCFI6:
 498              		.cfi_remember_state
 499              		.cfi_def_cfa_offset 36
 500              		@ sp needed
 501 01c8 BDE8F08F 		pop	{r4, r5, r6, r7, r8, r9, r10, fp, pc}
 502              	.LVL73:
 503              	.L50:
 504              	.LCFI7:
 505              		.cfi_restore_state
 119:../../source/src/kernel/OS_CORE/MCB.c **** 		return -ERROR_FUN_USE_IN_INTER;
 506              		.loc 1 119 0
 507 01cc FFF7FEFF 		bl	CPU_SR_Restore
 508              	.LVL74:
 120:../../source/src/kernel/OS_CORE/MCB.c **** 	}
 509              		.loc 1 120 0
 510 01d0 6FF0FC00 		mvn	r0, #252
 511 01d4 AAE7     		b	.L37
 512              	.LVL75:
 513              	.L53:
 514              	.LBB3:
 156:../../source/src/kernel/OS_CORE/MCB.c **** 			insert_sort_delete_data(&MCB_ptr->MCB_insert_sort_list,OSTCBCurPtr);
 515              		.loc 1 156 0
 516 01d6 A369     		ldr	r3, [r4, #24]
 157:../../source/src/kernel/OS_CORE/MCB.c **** 			CPU_CRITICAL_EXIT(); //exit  critical
 517              		.loc 1 157 0
 518 01d8 2968     		ldr	r1, [r5]
 156:../../source/src/kernel/OS_CORE/MCB.c **** 			insert_sort_delete_data(&MCB_ptr->MCB_insert_sort_list,OSTCBCurPtr);
 519              		.loc 1 156 0
 520 01da 0133     		adds	r3, r3, #1
 521 01dc A361     		str	r3, [r4, #24]
 157:../../source/src/kernel/OS_CORE/MCB.c **** 			CPU_CRITICAL_EXIT(); //exit  critical
 522              		.loc 1 157 0
ARM GAS  G:\Users\Jaxb\AppData\Local\Temp\ccqTkcFy.s 			page 14


 523 01de 2046     		mov	r0, r4
 524 01e0 FFF7FEFF 		bl	insert_sort_delete_data
 525              	.LVL76:
 158:../../source/src/kernel/OS_CORE/MCB.c **** 			return -MCB_OUT_OF_TIME;
 526              		.loc 1 158 0
 527 01e4 3046     		mov	r0, r6
 528 01e6 FFF7FEFF 		bl	CPU_SR_Restore
 529              	.LVL77:
 159:../../source/src/kernel/OS_CORE/MCB.c **** 		}
 530              		.loc 1 159 0
 531 01ea 6FF00100 		mvn	r0, #1
 532 01ee 9DE7     		b	.L37
 533              	.L55:
 534              		.align	2
 535              	.L54:
 536 01f0 00000000 		.word	g_interrupt_count
 537 01f4 00000000 		.word	OSTCBCurPtr
 538 01f8 00000000 		.word	.LC0
 539 01fc 8C000000 		.word	.LC3
 540              	.LBE3:
 541              		.cfi_endproc
 542              	.LFE16:
 543              		.size	p, .-p
 544              		.align	1
 545              		.p2align 2,,3
 546              		.global	v
 547              		.syntax unified
 548              		.thumb
 549              		.thumb_func
 550              		.fpu softvfp
 551              		.type	v, %function
 552              	v:
 553              	.LFB17:
 171:../../source/src/kernel/OS_CORE/MCB.c **** 
 172:../../source/src/kernel/OS_CORE/MCB.c **** 
 173:../../source/src/kernel/OS_CORE/MCB.c **** int 
 174:../../source/src/kernel/OS_CORE/MCB.c **** v(MCB *MCB_ptr)
 175:../../source/src/kernel/OS_CORE/MCB.c **** {
 554              		.loc 1 175 0
 555              		.cfi_startproc
 556              		@ args = 0, pretend = 0, frame = 0
 557              		@ frame_needed = 0, uses_anonymous_args = 0
 558              	.LVL78:
 559 0200 38B5     		push	{r3, r4, r5, lr}
 560              	.LCFI8:
 561              		.cfi_def_cfa_offset 16
 562              		.cfi_offset 3, -16
 563              		.cfi_offset 4, -12
 564              		.cfi_offset 5, -8
 565              		.cfi_offset 14, -4
 176:../../source/src/kernel/OS_CORE/MCB.c **** 	ASSERT(NULL != MCB_ptr);
 566              		.loc 1 176 0
 567 0202 0446     		mov	r4, r0
 568 0204 60B3     		cbz	r0, .L72
 569              	.LVL79:
 177:../../source/src/kernel/OS_CORE/MCB.c **** #if CONFIG_PARA_CHECK
 178:../../source/src/kernel/OS_CORE/MCB.c **** 	if(NULL == MCB_ptr)
ARM GAS  G:\Users\Jaxb\AppData\Local\Temp\ccqTkcFy.s 			page 15


 179:../../source/src/kernel/OS_CORE/MCB.c **** 	{
 180:../../source/src/kernel/OS_CORE/MCB.c **** 		OS_ERROR_PARA_MESSAGE_DISPLAY(v,MCB_ptr);
 181:../../source/src/kernel/OS_CORE/MCB.c **** 		return ERROR_NULL_INPUT_PTR;
 182:../../source/src/kernel/OS_CORE/MCB.c **** 	}
 183:../../source/src/kernel/OS_CORE/MCB.c **** #endif
 184:../../source/src/kernel/OS_CORE/MCB.c ****   	CPU_SR_ALLOC();
 185:../../source/src/kernel/OS_CORE/MCB.c **** 	CPU_CRITICAL_ENTER();//enter critical
 570              		.loc 1 185 0
 571 0206 FFF7FEFF 		bl	CPU_SR_Save
 572              	.LVL80:
 186:../../source/src/kernel/OS_CORE/MCB.c **** 	if((++(MCB_ptr->resource_num) > 1) && MCB_type_is_binary(MCB_ptr))
 573              		.loc 1 186 0
 574 020a A369     		ldr	r3, [r4, #24]
 185:../../source/src/kernel/OS_CORE/MCB.c **** 	if((++(MCB_ptr->resource_num) > 1) && MCB_type_is_binary(MCB_ptr))
 575              		.loc 1 185 0
 576 020c 0546     		mov	r5, r0
 577              	.LVL81:
 578              		.loc 1 186 0
 579 020e 0133     		adds	r3, r3, #1
 580 0210 012B     		cmp	r3, #1
 581 0212 A361     		str	r3, [r4, #24]
 582 0214 0BDD     		ble	.L73
 583              		.loc 1 186 0 is_stmt 0 discriminator 1
 584 0216 E269     		ldr	r2, [r4, #28]
 585 0218 D207     		lsls	r2, r2, #31
 586 021a 03D5     		bpl	.L59
 187:../../source/src/kernel/OS_CORE/MCB.c **** 	{
 188:../../source/src/kernel/OS_CORE/MCB.c **** 		ASSERT(2 == MCB_ptr->resource_num);
 587              		.loc 1 188 0 is_stmt 1
 588 021c 022B     		cmp	r3, #2
 589 021e 18D1     		bne	.L74
 189:../../source/src/kernel/OS_CORE/MCB.c **** 		MCB_ptr->resource_num = 1;
 590              		.loc 1 189 0
 591 0220 0123     		movs	r3, #1
 592 0222 A361     		str	r3, [r4, #24]
 593              	.LVL82:
 594              	.L59:
 190:../../source/src/kernel/OS_CORE/MCB.c **** 	}
 191:../../source/src/kernel/OS_CORE/MCB.c **** 	if(MCB_ptr->resource_num <= 0)
 192:../../source/src/kernel/OS_CORE/MCB.c **** 	{
 193:../../source/src/kernel/OS_CORE/MCB.c **** 		TCB *TCB_ptr = (TCB *)(insert_sort_delete_head(&MCB_ptr->MCB_insert_sort_list))->data_ptr;
 194:../../source/src/kernel/OS_CORE/MCB.c **** 		
 195:../../source/src/kernel/OS_CORE/MCB.c **** 		if(STATE_WAIT_MCB_FOREVER == TCB_ptr->task_state)
 196:../../source/src/kernel/OS_CORE/MCB.c **** 			remove_from_suspend_list(TCB_ptr);
 197:../../source/src/kernel/OS_CORE/MCB.c **** 		else if(STATE_WAIT_MCB_TIMEOUT == TCB_ptr->task_state)//STATE_WAIT_MESSAGE_TIMEOUT
 198:../../source/src/kernel/OS_CORE/MCB.c **** 			remove_from_delay_heap(TCB_ptr);
 199:../../source/src/kernel/OS_CORE/MCB.c **** 		schedule();
 200:../../source/src/kernel/OS_CORE/MCB.c **** 	}
 201:../../source/src/kernel/OS_CORE/MCB.c **** 	CPU_CRITICAL_EXIT(); //exit  critical
 595              		.loc 1 201 0
 596 0224 2846     		mov	r0, r5
 597 0226 FFF7FEFF 		bl	CPU_SR_Restore
 598              	.LVL83:
 202:../../source/src/kernel/OS_CORE/MCB.c **** 	return FUN_EXECUTE_SUCCESSFULLY;
 599              		.loc 1 202 0
 600 022a 0020     		movs	r0, #0
 601              	.L56:
ARM GAS  G:\Users\Jaxb\AppData\Local\Temp\ccqTkcFy.s 			page 16


 203:../../source/src/kernel/OS_CORE/MCB.c **** }
 602              		.loc 1 203 0
 603 022c 38BD     		pop	{r3, r4, r5, pc}
 604              	.LVL84:
 605              	.L73:
 191:../../source/src/kernel/OS_CORE/MCB.c **** 	{
 606              		.loc 1 191 0
 607 022e 002B     		cmp	r3, #0
 608 0230 F8DC     		bgt	.L59
 609              	.LBB4:
 193:../../source/src/kernel/OS_CORE/MCB.c **** 		
 610              		.loc 1 193 0
 611 0232 2046     		mov	r0, r4
 612              	.LVL85:
 613 0234 FFF7FEFF 		bl	insert_sort_delete_head
 614              	.LVL86:
 615 0238 0068     		ldr	r0, [r0]
 616              	.LVL87:
 195:../../source/src/kernel/OS_CORE/MCB.c **** 			remove_from_suspend_list(TCB_ptr);
 617              		.loc 1 195 0
 618 023a 037D     		ldrb	r3, [r0, #20]	@ zero_extendqisi2
 619 023c 042B     		cmp	r3, #4
 620 023e 18D0     		beq	.L75
 197:../../source/src/kernel/OS_CORE/MCB.c **** 			remove_from_delay_heap(TCB_ptr);
 621              		.loc 1 197 0
 622 0240 052B     		cmp	r3, #5
 623 0242 19D0     		beq	.L76
 624              	.LVL88:
 625              	.L62:
 199:../../source/src/kernel/OS_CORE/MCB.c **** 	}
 626              		.loc 1 199 0
 627 0244 FFF7FEFF 		bl	schedule
 628              	.LVL89:
 629              	.LBE4:
 201:../../source/src/kernel/OS_CORE/MCB.c **** 	return FUN_EXECUTE_SUCCESSFULLY;
 630              		.loc 1 201 0
 631 0248 2846     		mov	r0, r5
 632 024a FFF7FEFF 		bl	CPU_SR_Restore
 633              	.LVL90:
 202:../../source/src/kernel/OS_CORE/MCB.c **** }
 634              		.loc 1 202 0
 635 024e 0020     		movs	r0, #0
 636 0250 ECE7     		b	.L56
 637              	.LVL91:
 638              	.L74:
 188:../../source/src/kernel/OS_CORE/MCB.c **** 		MCB_ptr->resource_num = 1;
 639              		.loc 1 188 0 discriminator 1
 640 0252 BC21     		movs	r1, #188
 641 0254 0A48     		ldr	r0, .L77
 642              	.LVL92:
 643 0256 FFF7FEFF 		bl	_ASSERT
 644              	.LVL93:
 189:../../source/src/kernel/OS_CORE/MCB.c **** 	}
 645              		.loc 1 189 0 discriminator 1
 646 025a 0123     		movs	r3, #1
 647 025c A361     		str	r3, [r4, #24]
 648 025e E1E7     		b	.L59
ARM GAS  G:\Users\Jaxb\AppData\Local\Temp\ccqTkcFy.s 			page 17


 649              	.LVL94:
 650              	.L72:
 176:../../source/src/kernel/OS_CORE/MCB.c **** #if CONFIG_PARA_CHECK
 651              		.loc 1 176 0 discriminator 1
 652 0260 B021     		movs	r1, #176
 653 0262 0748     		ldr	r0, .L77
 654              	.LVL95:
 655 0264 FFF7FEFF 		bl	_ASSERT
 656              	.LVL96:
 180:../../source/src/kernel/OS_CORE/MCB.c **** 		return ERROR_NULL_INPUT_PTR;
 657              		.loc 1 180 0 discriminator 1
 658 0268 0648     		ldr	r0, .L77+4
 659 026a FFF7FEFF 		bl	ka_printf
 660              	.LVL97:
 181:../../source/src/kernel/OS_CORE/MCB.c **** 	}
 661              		.loc 1 181 0 discriminator 1
 662 026e FF20     		movs	r0, #255
 663              		.loc 1 203 0 discriminator 1
 664 0270 38BD     		pop	{r3, r4, r5, pc}
 665              	.LVL98:
 666              	.L75:
 667              	.LBB5:
 196:../../source/src/kernel/OS_CORE/MCB.c **** 		else if(STATE_WAIT_MCB_TIMEOUT == TCB_ptr->task_state)//STATE_WAIT_MESSAGE_TIMEOUT
 668              		.loc 1 196 0
 669 0272 FFF7FEFF 		bl	remove_from_suspend_list
 670              	.LVL99:
 671 0276 E5E7     		b	.L62
 672              	.LVL100:
 673              	.L76:
 198:../../source/src/kernel/OS_CORE/MCB.c **** 		schedule();
 674              		.loc 1 198 0
 675 0278 FFF7FEFF 		bl	remove_from_delay_heap
 676              	.LVL101:
 677 027c E2E7     		b	.L62
 678              	.L78:
 679 027e 00BF     		.align	2
 680              	.L77:
 681 0280 00000000 		.word	.LC0
 682 0284 B8000000 		.word	.LC4
 683              	.LBE5:
 684              		.cfi_endproc
 685              	.LFE17:
 686              		.size	v, .-v
 687              		.align	1
 688              		.p2align 2,,3
 689              		.global	clear_MCB_index
 690              		.syntax unified
 691              		.thumb
 692              		.thumb_func
 693              		.fpu softvfp
 694              		.type	clear_MCB_index, %function
 695              	clear_MCB_index:
 696              	.LFB18:
 204:../../source/src/kernel/OS_CORE/MCB.c **** 
 205:../../source/src/kernel/OS_CORE/MCB.c **** void 
 206:../../source/src/kernel/OS_CORE/MCB.c **** clear_MCB_index(MCB *MCB_ptr)
 207:../../source/src/kernel/OS_CORE/MCB.c **** {
ARM GAS  G:\Users\Jaxb\AppData\Local\Temp\ccqTkcFy.s 			page 18


 697              		.loc 1 207 0
 698              		.cfi_startproc
 699              		@ args = 0, pretend = 0, frame = 0
 700              		@ frame_needed = 0, uses_anonymous_args = 0
 701              	.LVL102:
 702 0288 10B5     		push	{r4, lr}
 703              	.LCFI9:
 704              		.cfi_def_cfa_offset 8
 705              		.cfi_offset 4, -8
 706              		.cfi_offset 14, -4
 208:../../source/src/kernel/OS_CORE/MCB.c **** 	ASSERT(NULL != MCB_ptr);
 707              		.loc 1 208 0
 708 028a 0446     		mov	r4, r0
 709 028c 50B1     		cbz	r0, .L82
 710              	.LVL103:
 711              	.L80:
 209:../../source/src/kernel/OS_CORE/MCB.c **** 	CPU_SR_ALLOC();
 210:../../source/src/kernel/OS_CORE/MCB.c **** 	CPU_CRITICAL_ENTER();
 712              		.loc 1 210 0
 713 028e FFF7FEFF 		bl	CPU_SR_Save
 714              	.LVL104:
 211:../../source/src/kernel/OS_CORE/MCB.c **** 	if(MCB_ptr->resource_num > 0)
 715              		.loc 1 211 0
 716 0292 A369     		ldr	r3, [r4, #24]
 717 0294 002B     		cmp	r3, #0
 212:../../source/src/kernel/OS_CORE/MCB.c **** 		MCB_ptr->resource_num = 0;
 718              		.loc 1 212 0
 719 0296 C4BF     		itt	gt
 720 0298 0023     		movgt	r3, #0
 721 029a A361     		strgt	r3, [r4, #24]
 213:../../source/src/kernel/OS_CORE/MCB.c **** 	CPU_CRITICAL_EXIT();
 214:../../source/src/kernel/OS_CORE/MCB.c **** }
 722              		.loc 1 214 0
 723 029c BDE81040 		pop	{r4, lr}
 724              	.LCFI10:
 725              		.cfi_remember_state
 726              		.cfi_restore 14
 727              		.cfi_restore 4
 728              		.cfi_def_cfa_offset 0
 729              	.LVL105:
 213:../../source/src/kernel/OS_CORE/MCB.c **** 	CPU_CRITICAL_EXIT();
 730              		.loc 1 213 0
 731 02a0 FFF7FEBF 		b	CPU_SR_Restore
 732              	.LVL106:
 733              	.L82:
 734              	.LCFI11:
 735              		.cfi_restore_state
 208:../../source/src/kernel/OS_CORE/MCB.c **** 	CPU_SR_ALLOC();
 736              		.loc 1 208 0 discriminator 1
 737 02a4 D021     		movs	r1, #208
 738 02a6 0248     		ldr	r0, .L83
 739              	.LVL107:
 740 02a8 FFF7FEFF 		bl	_ASSERT
 741              	.LVL108:
 742 02ac EFE7     		b	.L80
 743              	.L84:
 744 02ae 00BF     		.align	2
ARM GAS  G:\Users\Jaxb\AppData\Local\Temp\ccqTkcFy.s 			page 19


 745              	.L83:
 746 02b0 00000000 		.word	.LC0
 747              		.cfi_endproc
 748              	.LFE18:
 749              		.size	clear_MCB_index, .-clear_MCB_index
 750              		.section	.rodata.str1.4,"aMS",%progbits,1
 751              		.align	2
 752              	.LC0:
 753 0000 2E2E2F2E 		.ascii	"../../source/src/kernel/OS_CORE/MCB.c\000"
 753      2E2F736F 
 753      75726365 
 753      2F737263 
 753      2F6B6572 
 754 0026 0000     		.space	2
 755              	.LC1:
 756 0028 6572726F 		.ascii	"error fun name : init_MCB\012error para : MCB_ptr\012"
 756      72206675 
 756      6E206E61 
 756      6D65203A 
 756      20696E69 
 757 0057 00       		.ascii	"\000"
 758              	.LC2:
 759 0058 6572726F 		.ascii	"error fun name : delete_MCB\012error para : MCB_ptr"
 759      72206675 
 759      6E206E61 
 759      6D65203A 
 759      2064656C 
 760 0088 0A00     		.ascii	"\012\000"
 761 008a 0000     		.space	2
 762              	.LC3:
 763 008c 6572726F 		.ascii	"error fun name : p\012error para : MCB_ptr\012\000"
 763      72206675 
 763      6E206E61 
 763      6D65203A 
 763      20700A65 
 764 00b5 000000   		.space	3
 765              	.LC4:
 766 00b8 6572726F 		.ascii	"error fun name : v\012error para : MCB_ptr\012\000"
 766      72206675 
 766      6E206E61 
 766      6D65203A 
 766      20760A65 
 767              		.text
 768              	.Letext0:
 769              		.file 2 "../../source/include/os_cpu/kakaosstdint.h"
 770              		.file 3 "../../source/include/os_lib/double_linked_list.h"
 771              		.file 4 "../../source/include/os_core/task_state.h"
 772              		.file 5 "../../source/include/os_core/TCB.h"
 773              		.file 6 "../../source/include/os_lib/insert_sort_oo.h"
 774              		.file 7 "../../source/include/os_core/MCB.h"
 775              		.file 8 "../../source/include/os_cpu/os_cpu_stm32.h"
 776              		.file 9 "../../source/include/os_lib/myassert.h"
 777              		.file 10 "../../source/include/os_core/schedule/os_schedule.h"
 778              		.file 11 "../../source/include/os_core/schedule/os_suspend.h"
 779              		.file 12 "../../source/include/os_core/schedule/os_delay.h"
 780              		.file 13 "../../source/include/os_lib/myMicroLIB.h"
 781              		.file 14 "../../source/include/os_core/os_time.h"
ARM GAS  G:\Users\Jaxb\AppData\Local\Temp\ccqTkcFy.s 			page 20


 782              		.section	.debug_info,"",%progbits
 783              	.Ldebug_info0:
 784 0000 F3090000 		.4byte	0x9f3
 785 0004 0200     		.2byte	0x2
 786 0006 00000000 		.4byte	.Ldebug_abbrev0
 787 000a 04       		.byte	0x4
 788 000b 01       		.uleb128 0x1
 789 000c F6040000 		.4byte	.LASF91
 790 0010 0C       		.byte	0xc
 791 0011 CD030000 		.4byte	.LASF92
 792 0015 A6010000 		.4byte	.LASF93
 793 0019 00000000 		.4byte	.Ltext0
 794 001d B4020000 		.4byte	.Letext0
 795 0021 00000000 		.4byte	.Ldebug_line0
 796 0025 02       		.uleb128 0x2
 797 0026 01       		.byte	0x1
 798 0027 06       		.byte	0x6
 799 0028 D9020000 		.4byte	.LASF0
 800 002c 02       		.uleb128 0x2
 801 002d 02       		.byte	0x2
 802 002e 05       		.byte	0x5
 803 002f 51000000 		.4byte	.LASF1
 804 0033 03       		.uleb128 0x3
 805 0034 04       		.byte	0x4
 806 0035 05       		.byte	0x5
 807 0036 696E7400 		.ascii	"int\000"
 808 003a 04       		.uleb128 0x4
 809 003b 33000000 		.4byte	0x33
 810 003f 02       		.uleb128 0x2
 811 0040 08       		.byte	0x8
 812 0041 05       		.byte	0x5
 813 0042 D4010000 		.4byte	.LASF2
 814 0046 02       		.uleb128 0x2
 815 0047 01       		.byte	0x1
 816 0048 08       		.byte	0x8
 817 0049 89020000 		.4byte	.LASF3
 818 004d 02       		.uleb128 0x2
 819 004e 02       		.byte	0x2
 820 004f 07       		.byte	0x7
 821 0050 52030000 		.4byte	.LASF4
 822 0054 05       		.uleb128 0x5
 823 0055 A3000000 		.4byte	.LASF6
 824 0059 02       		.byte	0x2
 825 005a 0C       		.byte	0xc
 826 005b 5F000000 		.4byte	0x5f
 827 005f 02       		.uleb128 0x2
 828 0060 04       		.byte	0x4
 829 0061 07       		.byte	0x7
 830 0062 13030000 		.4byte	.LASF5
 831 0066 05       		.uleb128 0x5
 832 0067 FB050000 		.4byte	.LASF7
 833 006b 02       		.byte	0x2
 834 006c 0D       		.byte	0xd
 835 006d 71000000 		.4byte	0x71
 836 0071 02       		.uleb128 0x2
 837 0072 08       		.byte	0x8
 838 0073 07       		.byte	0x7
ARM GAS  G:\Users\Jaxb\AppData\Local\Temp\ccqTkcFy.s 			page 21


 839 0074 E5020000 		.4byte	.LASF8
 840 0078 06       		.uleb128 0x6
 841 0079 24000000 		.4byte	.LASF24
 842 007d 08       		.byte	0x8
 843 007e 03       		.byte	0x3
 844 007f 04       		.byte	0x4
 845 0080 A1000000 		.4byte	0xa1
 846 0084 07       		.uleb128 0x7
 847 0085 10060000 		.4byte	.LASF9
 848 0089 03       		.byte	0x3
 849 008a 05       		.byte	0x5
 850 008b A1000000 		.4byte	0xa1
 851 008f 02       		.byte	0x2
 852 0090 23       		.byte	0x23
 853 0091 00       		.uleb128 0
 854 0092 07       		.uleb128 0x7
 855 0093 BB050000 		.4byte	.LASF10
 856 0097 03       		.byte	0x3
 857 0098 05       		.byte	0x5
 858 0099 A1000000 		.4byte	0xa1
 859 009d 02       		.byte	0x2
 860 009e 23       		.byte	0x23
 861 009f 04       		.uleb128 0x4
 862 00a0 00       		.byte	0
 863 00a1 08       		.uleb128 0x8
 864 00a2 04       		.byte	0x4
 865 00a3 78000000 		.4byte	0x78
 866 00a7 09       		.uleb128 0x9
 867 00a8 CE000000 		.4byte	.LASF52
 868 00ac 07       		.byte	0x7
 869 00ad 01       		.byte	0x1
 870 00ae 46000000 		.4byte	0x46
 871 00b2 04       		.byte	0x4
 872 00b3 04       		.byte	0x4
 873 00b4 F5000000 		.4byte	0xf5
 874 00b8 0A       		.uleb128 0xa
 875 00b9 65030000 		.4byte	.LASF11
 876 00bd 01       		.byte	0x1
 877 00be 0A       		.uleb128 0xa
 878 00bf AC020000 		.4byte	.LASF12
 879 00c3 02       		.byte	0x2
 880 00c4 0A       		.uleb128 0xa
 881 00c5 0F000000 		.4byte	.LASF13
 882 00c9 03       		.byte	0x3
 883 00ca 0A       		.uleb128 0xa
 884 00cb 69040000 		.4byte	.LASF14
 885 00cf 04       		.byte	0x4
 886 00d0 0A       		.uleb128 0xa
 887 00d1 65010000 		.4byte	.LASF15
 888 00d5 05       		.byte	0x5
 889 00d6 0A       		.uleb128 0xa
 890 00d7 82000000 		.4byte	.LASF16
 891 00db 06       		.byte	0x6
 892 00dc 0A       		.uleb128 0xa
 893 00dd 85010000 		.4byte	.LASF17
 894 00e1 07       		.byte	0x7
 895 00e2 0A       		.uleb128 0xa
ARM GAS  G:\Users\Jaxb\AppData\Local\Temp\ccqTkcFy.s 			page 22


 896 00e3 D9000000 		.4byte	.LASF18
 897 00e7 08       		.byte	0x8
 898 00e8 0A       		.uleb128 0xa
 899 00e9 86030000 		.4byte	.LASF19
 900 00ed 09       		.byte	0x9
 901 00ee 0A       		.uleb128 0xa
 902 00ef 9C050000 		.4byte	.LASF20
 903 00f3 0A       		.byte	0xa
 904 00f4 00       		.byte	0
 905 00f5 05       		.uleb128 0x5
 906 00f6 44020000 		.4byte	.LASF21
 907 00fa 04       		.byte	0x4
 908 00fb 0F       		.byte	0xf
 909 00fc A7000000 		.4byte	0xa7
 910 0100 05       		.uleb128 0x5
 911 0101 C3000000 		.4byte	.LASF22
 912 0105 05       		.byte	0x5
 913 0106 09       		.byte	0x9
 914 0107 5F000000 		.4byte	0x5f
 915 010b 05       		.uleb128 0x5
 916 010c 00000000 		.4byte	.LASF23
 917 0110 05       		.byte	0x5
 918 0111 0B       		.byte	0xb
 919 0112 5F000000 		.4byte	0x5f
 920 0116 0B       		.uleb128 0xb
 921 0117 04       		.byte	0x4
 922 0118 0C       		.uleb128 0xc
 923 0119 DD040000 		.4byte	.LASF63
 924 011d 05       		.byte	0x5
 925 011e 12       		.byte	0x12
 926 011f 3A000000 		.4byte	0x3a
 927 0123 01       		.byte	0x1
 928 0124 01       		.byte	0x1
 929 0125 06       		.uleb128 0x6
 930 0126 88040000 		.4byte	.LASF25
 931 012a 48       		.byte	0x48
 932 012b 05       		.byte	0x5
 933 012c 2F       		.byte	0x2f
 934 012d F6010000 		.4byte	0x1f6
 935 0131 07       		.uleb128 0x7
 936 0132 20030000 		.4byte	.LASF26
 937 0136 05       		.byte	0x5
 938 0137 30       		.byte	0x30
 939 0138 F6010000 		.4byte	0x1f6
 940 013c 02       		.byte	0x2
 941 013d 23       		.byte	0x23
 942 013e 00       		.uleb128 0
 943 013f 07       		.uleb128 0x7
 944 0140 A2040000 		.4byte	.LASF27
 945 0144 05       		.byte	0x5
 946 0145 31       		.byte	0x31
 947 0146 5F000000 		.4byte	0x5f
 948 014a 02       		.byte	0x2
 949 014b 23       		.byte	0x23
 950 014c 04       		.uleb128 0x4
 951 014d 07       		.uleb128 0x7
 952 014e 5B010000 		.4byte	.LASF28
ARM GAS  G:\Users\Jaxb\AppData\Local\Temp\ccqTkcFy.s 			page 23


 953 0152 05       		.byte	0x5
 954 0153 32       		.byte	0x32
 955 0154 F6010000 		.4byte	0x1f6
 956 0158 02       		.byte	0x2
 957 0159 23       		.byte	0x23
 958 015a 08       		.uleb128 0x8
 959 015b 07       		.uleb128 0x7
 960 015c 02060000 		.4byte	.LASF29
 961 0160 05       		.byte	0x5
 962 0161 33       		.byte	0x33
 963 0162 0B010000 		.4byte	0x10b
 964 0166 02       		.byte	0x2
 965 0167 23       		.byte	0x23
 966 0168 0C       		.uleb128 0xc
 967 0169 07       		.uleb128 0x7
 968 016a C3040000 		.4byte	.LASF30
 969 016e 05       		.byte	0x5
 970 016f 34       		.byte	0x34
 971 0170 0B010000 		.4byte	0x10b
 972 0174 02       		.byte	0x2
 973 0175 23       		.byte	0x23
 974 0176 10       		.uleb128 0x10
 975 0177 07       		.uleb128 0x7
 976 0178 07040000 		.4byte	.LASF31
 977 017c 05       		.byte	0x5
 978 017d 35       		.byte	0x35
 979 017e F5000000 		.4byte	0xf5
 980 0182 02       		.byte	0x2
 981 0183 23       		.byte	0x23
 982 0184 14       		.uleb128 0x14
 983 0185 07       		.uleb128 0x7
 984 0186 F3030000 		.4byte	.LASF32
 985 018a 05       		.byte	0x5
 986 018b 36       		.byte	0x36
 987 018c 33000000 		.4byte	0x33
 988 0190 02       		.byte	0x2
 989 0191 23       		.byte	0x23
 990 0192 18       		.uleb128 0x18
 991 0193 07       		.uleb128 0x7
 992 0194 34030000 		.4byte	.LASF33
 993 0198 05       		.byte	0x5
 994 0199 37       		.byte	0x37
 995 019a 78000000 		.4byte	0x78
 996 019e 02       		.byte	0x2
 997 019f 23       		.byte	0x23
 998 01a0 1C       		.uleb128 0x1c
 999 01a1 07       		.uleb128 0x7
 1000 01a2 D0040000 		.4byte	.LASF34
 1001 01a6 05       		.byte	0x5
 1002 01a7 38       		.byte	0x38
 1003 01a8 78000000 		.4byte	0x78
 1004 01ac 02       		.byte	0x2
 1005 01ad 23       		.byte	0x23
 1006 01ae 24       		.uleb128 0x24
 1007 01af 07       		.uleb128 0x7
 1008 01b0 5B020000 		.4byte	.LASF35
 1009 01b4 05       		.byte	0x5
ARM GAS  G:\Users\Jaxb\AppData\Local\Temp\ccqTkcFy.s 			page 24


 1010 01b5 39       		.byte	0x39
 1011 01b6 FC010000 		.4byte	0x1fc
 1012 01ba 02       		.byte	0x2
 1013 01bb 23       		.byte	0x23
 1014 01bc 2C       		.uleb128 0x2c
 1015 01bd 07       		.uleb128 0x7
 1016 01be E2010000 		.4byte	.LASF36
 1017 01c2 05       		.byte	0x5
 1018 01c3 3A       		.byte	0x3a
 1019 01c4 5F000000 		.4byte	0x5f
 1020 01c8 02       		.byte	0x2
 1021 01c9 23       		.byte	0x23
 1022 01ca 30       		.uleb128 0x30
 1023 01cb 07       		.uleb128 0x7
 1024 01cc 42040000 		.4byte	.LASF37
 1025 01d0 05       		.byte	0x5
 1026 01d1 3B       		.byte	0x3b
 1027 01d2 5F000000 		.4byte	0x5f
 1028 01d6 02       		.byte	0x2
 1029 01d7 23       		.byte	0x23
 1030 01d8 34       		.uleb128 0x34
 1031 01d9 07       		.uleb128 0x7
 1032 01da B8020000 		.4byte	.LASF38
 1033 01de 05       		.byte	0x5
 1034 01df 3C       		.byte	0x3c
 1035 01e0 54000000 		.4byte	0x54
 1036 01e4 02       		.byte	0x2
 1037 01e5 23       		.byte	0x23
 1038 01e6 38       		.uleb128 0x38
 1039 01e7 07       		.uleb128 0x7
 1040 01e8 C7050000 		.4byte	.LASF39
 1041 01ec 05       		.byte	0x5
 1042 01ed 3D       		.byte	0x3d
 1043 01ee 66000000 		.4byte	0x66
 1044 01f2 02       		.byte	0x2
 1045 01f3 23       		.byte	0x23
 1046 01f4 40       		.uleb128 0x40
 1047 01f5 00       		.byte	0
 1048 01f6 08       		.uleb128 0x8
 1049 01f7 04       		.byte	0x4
 1050 01f8 00010000 		.4byte	0x100
 1051 01fc 08       		.uleb128 0x8
 1052 01fd 04       		.byte	0x4
 1053 01fe 02020000 		.4byte	0x202
 1054 0202 02       		.uleb128 0x2
 1055 0203 01       		.byte	0x1
 1056 0204 08       		.byte	0x8
 1057 0205 71030000 		.4byte	.LASF40
 1058 0209 0D       		.uleb128 0xd
 1059 020a 54434200 		.ascii	"TCB\000"
 1060 020e 05       		.byte	0x5
 1061 020f 3E       		.byte	0x3e
 1062 0210 25010000 		.4byte	0x125
 1063 0214 05       		.uleb128 0x5
 1064 0215 C5030000 		.4byte	.LASF41
 1065 0219 06       		.byte	0x6
 1066 021a 0D       		.byte	0xd
ARM GAS  G:\Users\Jaxb\AppData\Local\Temp\ccqTkcFy.s 			page 25


 1067 021b 66000000 		.4byte	0x66
 1068 021f 06       		.uleb128 0x6
 1069 0220 FB010000 		.4byte	.LASF42
 1070 0224 18       		.byte	0x18
 1071 0225 06       		.byte	0x6
 1072 0226 0F       		.byte	0xf
 1073 0227 56020000 		.4byte	0x256
 1074 022b 07       		.uleb128 0x7
 1075 022c 07060000 		.4byte	.LASF43
 1076 0230 06       		.byte	0x6
 1077 0231 11       		.byte	0x11
 1078 0232 16010000 		.4byte	0x116
 1079 0236 02       		.byte	0x2
 1080 0237 23       		.byte	0x23
 1081 0238 00       		.uleb128 0
 1082 0239 07       		.uleb128 0x7
 1083 023a 6A000000 		.4byte	.LASF44
 1084 023e 06       		.byte	0x6
 1085 023f 12       		.byte	0x12
 1086 0240 14020000 		.4byte	0x214
 1087 0244 02       		.byte	0x2
 1088 0245 23       		.byte	0x23
 1089 0246 08       		.uleb128 0x8
 1090 0247 07       		.uleb128 0x7
 1091 0248 78000000 		.4byte	.LASF45
 1092 024c 06       		.byte	0x6
 1093 024d 13       		.byte	0x13
 1094 024e 78000000 		.4byte	0x78
 1095 0252 02       		.byte	0x2
 1096 0253 23       		.byte	0x23
 1097 0254 10       		.uleb128 0x10
 1098 0255 00       		.byte	0
 1099 0256 06       		.uleb128 0x6
 1100 0257 56040000 		.4byte	.LASF46
 1101 025b 18       		.byte	0x18
 1102 025c 06       		.byte	0x6
 1103 025d 1D       		.byte	0x1d
 1104 025e A9020000 		.4byte	0x2a9
 1105 0262 07       		.uleb128 0x7
 1106 0263 42000000 		.4byte	.LASF47
 1107 0267 06       		.byte	0x6
 1108 0268 27       		.byte	0x27
 1109 0269 78000000 		.4byte	0x78
 1110 026d 02       		.byte	0x2
 1111 026e 23       		.byte	0x23
 1112 026f 00       		.uleb128 0
 1113 0270 07       		.uleb128 0x7
 1114 0271 6C020000 		.4byte	.LASF48
 1115 0275 06       		.byte	0x6
 1116 0276 28       		.byte	0x28
 1117 0277 5F000000 		.4byte	0x5f
 1118 027b 02       		.byte	0x2
 1119 027c 23       		.byte	0x23
 1120 027d 08       		.uleb128 0x8
 1121 027e 07       		.uleb128 0x7
 1122 027f 80040000 		.4byte	.LASF49
 1123 0283 06       		.byte	0x6
ARM GAS  G:\Users\Jaxb\AppData\Local\Temp\ccqTkcFy.s 			page 26


 1124 0284 2C       		.byte	0x2c
 1125 0285 C4020000 		.4byte	0x2c4
 1126 0289 02       		.byte	0x2
 1127 028a 23       		.byte	0x23
 1128 028b 0C       		.uleb128 0xc
 1129 028c 07       		.uleb128 0x7
 1130 028d 0C020000 		.4byte	.LASF50
 1131 0291 06       		.byte	0x6
 1132 0292 2D       		.byte	0x2d
 1133 0293 DF020000 		.4byte	0x2df
 1134 0297 02       		.byte	0x2
 1135 0298 23       		.byte	0x23
 1136 0299 10       		.uleb128 0x10
 1137 029a 07       		.uleb128 0x7
 1138 029b 48030000 		.4byte	.LASF51
 1139 029f 06       		.byte	0x6
 1140 02a0 2E       		.byte	0x2e
 1141 02a1 FA020000 		.4byte	0x2fa
 1142 02a5 02       		.byte	0x2
 1143 02a6 23       		.byte	0x23
 1144 02a7 14       		.uleb128 0x14
 1145 02a8 00       		.byte	0
 1146 02a9 0E       		.uleb128 0xe
 1147 02aa 01       		.byte	0x1
 1148 02ab 33000000 		.4byte	0x33
 1149 02af BE020000 		.4byte	0x2be
 1150 02b3 0F       		.uleb128 0xf
 1151 02b4 BE020000 		.4byte	0x2be
 1152 02b8 0F       		.uleb128 0xf
 1153 02b9 BE020000 		.4byte	0x2be
 1154 02bd 00       		.byte	0
 1155 02be 08       		.uleb128 0x8
 1156 02bf 04       		.byte	0x4
 1157 02c0 1F020000 		.4byte	0x21f
 1158 02c4 08       		.uleb128 0x8
 1159 02c5 04       		.byte	0x4
 1160 02c6 A9020000 		.4byte	0x2a9
 1161 02ca 0E       		.uleb128 0xe
 1162 02cb 01       		.byte	0x1
 1163 02cc 33000000 		.4byte	0x33
 1164 02d0 DF020000 		.4byte	0x2df
 1165 02d4 0F       		.uleb128 0xf
 1166 02d5 BE020000 		.4byte	0x2be
 1167 02d9 0F       		.uleb128 0xf
 1168 02da 16010000 		.4byte	0x116
 1169 02de 00       		.byte	0
 1170 02df 08       		.uleb128 0x8
 1171 02e0 04       		.byte	0x4
 1172 02e1 CA020000 		.4byte	0x2ca
 1173 02e5 0E       		.uleb128 0xe
 1174 02e6 01       		.byte	0x1
 1175 02e7 33000000 		.4byte	0x33
 1176 02eb FA020000 		.4byte	0x2fa
 1177 02ef 0F       		.uleb128 0xf
 1178 02f0 16010000 		.4byte	0x116
 1179 02f4 0F       		.uleb128 0xf
 1180 02f5 16010000 		.4byte	0x116
ARM GAS  G:\Users\Jaxb\AppData\Local\Temp\ccqTkcFy.s 			page 27


 1181 02f9 00       		.byte	0
 1182 02fa 08       		.uleb128 0x8
 1183 02fb 04       		.byte	0x4
 1184 02fc E5020000 		.4byte	0x2e5
 1185 0300 09       		.uleb128 0x9
 1186 0301 26030000 		.4byte	.LASF53
 1187 0305 07       		.byte	0x7
 1188 0306 01       		.byte	0x1
 1189 0307 46000000 		.4byte	0x46
 1190 030b 07       		.byte	0x7
 1191 030c 07       		.byte	0x7
 1192 030d 24030000 		.4byte	0x324
 1193 0311 0A       		.uleb128 0xa
 1194 0312 AD040000 		.4byte	.LASF54
 1195 0316 00       		.byte	0
 1196 0317 0A       		.uleb128 0xa
 1197 0318 03010000 		.4byte	.LASF55
 1198 031c 01       		.byte	0x1
 1199 031d 0A       		.uleb128 0xa
 1200 031e 76030000 		.4byte	.LASF56
 1201 0322 02       		.byte	0x2
 1202 0323 00       		.byte	0
 1203 0324 05       		.uleb128 0x5
 1204 0325 26030000 		.4byte	.LASF53
 1205 0329 07       		.byte	0x7
 1206 032a 0C       		.byte	0xc
 1207 032b 00030000 		.4byte	0x300
 1208 032f 06       		.uleb128 0x6
 1209 0330 B1030000 		.4byte	.LASF57
 1210 0334 20       		.byte	0x20
 1211 0335 07       		.byte	0x7
 1212 0336 15       		.byte	0x15
 1213 0337 66030000 		.4byte	0x366
 1214 033b 07       		.uleb128 0x7
 1215 033c 97020000 		.4byte	.LASF58
 1216 0340 07       		.byte	0x7
 1217 0341 16       		.byte	0x16
 1218 0342 56020000 		.4byte	0x256
 1219 0346 02       		.byte	0x2
 1220 0347 23       		.byte	0x23
 1221 0348 00       		.uleb128 0
 1222 0349 07       		.uleb128 0x7
 1223 034a EE050000 		.4byte	.LASF59
 1224 034e 07       		.byte	0x7
 1225 034f 17       		.byte	0x17
 1226 0350 33000000 		.4byte	0x33
 1227 0354 02       		.byte	0x2
 1228 0355 23       		.byte	0x23
 1229 0356 18       		.uleb128 0x18
 1230 0357 07       		.uleb128 0x7
 1231 0358 F6010000 		.4byte	.LASF60
 1232 035c 07       		.byte	0x7
 1233 035d 18       		.byte	0x18
 1234 035e 5F000000 		.4byte	0x5f
 1235 0362 02       		.byte	0x2
 1236 0363 23       		.byte	0x23
 1237 0364 1C       		.uleb128 0x1c
ARM GAS  G:\Users\Jaxb\AppData\Local\Temp\ccqTkcFy.s 			page 28


 1238 0365 00       		.byte	0
 1239 0366 0D       		.uleb128 0xd
 1240 0367 4D434200 		.ascii	"MCB\000"
 1241 036b 07       		.byte	0x7
 1242 036c 19       		.byte	0x19
 1243 036d 2F030000 		.4byte	0x32f
 1244 0371 05       		.uleb128 0x5
 1245 0372 A6030000 		.4byte	.LASF61
 1246 0376 08       		.byte	0x8
 1247 0377 04       		.byte	0x4
 1248 0378 5F000000 		.4byte	0x5f
 1249 037c 05       		.uleb128 0x5
 1250 037d C0050000 		.4byte	.LASF62
 1251 0381 08       		.byte	0x8
 1252 0382 06       		.byte	0x6
 1253 0383 71030000 		.4byte	0x371
 1254 0387 0C       		.uleb128 0xc
 1255 0388 60020000 		.4byte	.LASF64
 1256 038c 01       		.byte	0x1
 1257 038d 0C       		.byte	0xc
 1258 038e 94030000 		.4byte	0x394
 1259 0392 01       		.byte	0x1
 1260 0393 01       		.byte	0x1
 1261 0394 08       		.uleb128 0x8
 1262 0395 04       		.byte	0x4
 1263 0396 09020000 		.4byte	0x209
 1264 039a 10       		.uleb128 0x10
 1265 039b 01       		.byte	0x1
 1266 039c 19020000 		.4byte	.LASF94
 1267 03a0 01       		.byte	0x1
 1268 03a1 CE       		.byte	0xce
 1269 03a2 01       		.byte	0x1
 1270 03a3 88020000 		.4byte	.LFB18
 1271 03a7 B4020000 		.4byte	.LFE18
 1272 03ab 00000000 		.4byte	.LLST22
 1273 03af 01       		.byte	0x1
 1274 03b0 FF030000 		.4byte	0x3ff
 1275 03b4 11       		.uleb128 0x11
 1276 03b5 2E000000 		.4byte	.LASF65
 1277 03b9 01       		.byte	0x1
 1278 03ba CE       		.byte	0xce
 1279 03bb FF030000 		.4byte	0x3ff
 1280 03bf 38000000 		.4byte	.LLST23
 1281 03c3 12       		.uleb128 0x12
 1282 03c4 EF040000 		.4byte	.LASF66
 1283 03c8 01       		.byte	0x1
 1284 03c9 D1       		.byte	0xd1
 1285 03ca 7C030000 		.4byte	0x37c
 1286 03ce 7A000000 		.4byte	.LLST24
 1287 03d2 13       		.uleb128 0x13
 1288 03d3 92020000 		.4byte	.LVL104
 1289 03d7 33090000 		.4byte	0x933
 1290 03db 14       		.uleb128 0x14
 1291 03dc A4020000 		.4byte	.LVL106
 1292 03e0 01       		.byte	0x1
 1293 03e1 40090000 		.4byte	0x940
 1294 03e5 15       		.uleb128 0x15
ARM GAS  G:\Users\Jaxb\AppData\Local\Temp\ccqTkcFy.s 			page 29


 1295 03e6 AC020000 		.4byte	.LVL108
 1296 03ea 4D090000 		.4byte	0x94d
 1297 03ee 16       		.uleb128 0x16
 1298 03ef 01       		.byte	0x1
 1299 03f0 50       		.byte	0x50
 1300 03f1 05       		.byte	0x5
 1301 03f2 03       		.byte	0x3
 1302 03f3 00000000 		.4byte	.LC0
 1303 03f7 16       		.uleb128 0x16
 1304 03f8 01       		.byte	0x1
 1305 03f9 51       		.byte	0x51
 1306 03fa 02       		.byte	0x2
 1307 03fb 08       		.byte	0x8
 1308 03fc D0       		.byte	0xd0
 1309 03fd 00       		.byte	0
 1310 03fe 00       		.byte	0
 1311 03ff 08       		.uleb128 0x8
 1312 0400 04       		.byte	0x4
 1313 0401 66030000 		.4byte	0x366
 1314 0405 17       		.uleb128 0x17
 1315 0406 01       		.byte	0x1
 1316 0407 7600     		.ascii	"v\000"
 1317 0409 01       		.byte	0x1
 1318 040a AE       		.byte	0xae
 1319 040b 01       		.byte	0x1
 1320 040c 33000000 		.4byte	0x33
 1321 0410 00020000 		.4byte	.LFB17
 1322 0414 88020000 		.4byte	.LFE17
 1323 0418 99000000 		.4byte	.LLST18
 1324 041c 01       		.byte	0x1
 1325 041d 06050000 		.4byte	0x506
 1326 0421 11       		.uleb128 0x11
 1327 0422 2E000000 		.4byte	.LASF65
 1328 0426 01       		.byte	0x1
 1329 0427 AE       		.byte	0xae
 1330 0428 FF030000 		.4byte	0x3ff
 1331 042c B9000000 		.4byte	.LLST19
 1332 0430 12       		.uleb128 0x12
 1333 0431 EF040000 		.4byte	.LASF66
 1334 0435 01       		.byte	0x1
 1335 0436 B8       		.byte	0xb8
 1336 0437 7C030000 		.4byte	0x37c
 1337 043b ED000000 		.4byte	.LLST20
 1338 043f 18       		.uleb128 0x18
 1339 0440 18000000 		.4byte	.Ldebug_ranges0+0x18
 1340 0444 87040000 		.4byte	0x487
 1341 0448 12       		.uleb128 0x12
 1342 0449 BB040000 		.4byte	.LASF67
 1343 044d 01       		.byte	0x1
 1344 044e C1       		.byte	0xc1
 1345 044f 94030000 		.4byte	0x394
 1346 0453 4E010000 		.4byte	.LLST21
 1347 0457 19       		.uleb128 0x19
 1348 0458 38020000 		.4byte	.LVL86
 1349 045c 5A090000 		.4byte	0x95a
 1350 0460 6B040000 		.4byte	0x46b
 1351 0464 16       		.uleb128 0x16
ARM GAS  G:\Users\Jaxb\AppData\Local\Temp\ccqTkcFy.s 			page 30


 1352 0465 01       		.byte	0x1
 1353 0466 50       		.byte	0x50
 1354 0467 02       		.byte	0x2
 1355 0468 74       		.byte	0x74
 1356 0469 00       		.sleb128 0
 1357 046a 00       		.byte	0
 1358 046b 13       		.uleb128 0x13
 1359 046c 48020000 		.4byte	.LVL89
 1360 0470 67090000 		.4byte	0x967
 1361 0474 13       		.uleb128 0x13
 1362 0475 76020000 		.4byte	.LVL99
 1363 0479 74090000 		.4byte	0x974
 1364 047d 13       		.uleb128 0x13
 1365 047e 7C020000 		.4byte	.LVL101
 1366 0482 81090000 		.4byte	0x981
 1367 0486 00       		.byte	0
 1368 0487 13       		.uleb128 0x13
 1369 0488 0A020000 		.4byte	.LVL80
 1370 048c 33090000 		.4byte	0x933
 1371 0490 19       		.uleb128 0x19
 1372 0491 2A020000 		.4byte	.LVL83
 1373 0495 40090000 		.4byte	0x940
 1374 0499 A4040000 		.4byte	0x4a4
 1375 049d 16       		.uleb128 0x16
 1376 049e 01       		.byte	0x1
 1377 049f 50       		.byte	0x50
 1378 04a0 02       		.byte	0x2
 1379 04a1 75       		.byte	0x75
 1380 04a2 00       		.sleb128 0
 1381 04a3 00       		.byte	0
 1382 04a4 19       		.uleb128 0x19
 1383 04a5 4E020000 		.4byte	.LVL90
 1384 04a9 40090000 		.4byte	0x940
 1385 04ad B8040000 		.4byte	0x4b8
 1386 04b1 16       		.uleb128 0x16
 1387 04b2 01       		.byte	0x1
 1388 04b3 50       		.byte	0x50
 1389 04b4 02       		.byte	0x2
 1390 04b5 75       		.byte	0x75
 1391 04b6 00       		.sleb128 0
 1392 04b7 00       		.byte	0
 1393 04b8 19       		.uleb128 0x19
 1394 04b9 5A020000 		.4byte	.LVL93
 1395 04bd 4D090000 		.4byte	0x94d
 1396 04c1 D5040000 		.4byte	0x4d5
 1397 04c5 16       		.uleb128 0x16
 1398 04c6 01       		.byte	0x1
 1399 04c7 50       		.byte	0x50
 1400 04c8 05       		.byte	0x5
 1401 04c9 03       		.byte	0x3
 1402 04ca 00000000 		.4byte	.LC0
 1403 04ce 16       		.uleb128 0x16
 1404 04cf 01       		.byte	0x1
 1405 04d0 51       		.byte	0x51
 1406 04d1 02       		.byte	0x2
 1407 04d2 08       		.byte	0x8
 1408 04d3 BC       		.byte	0xbc
ARM GAS  G:\Users\Jaxb\AppData\Local\Temp\ccqTkcFy.s 			page 31


 1409 04d4 00       		.byte	0
 1410 04d5 19       		.uleb128 0x19
 1411 04d6 68020000 		.4byte	.LVL96
 1412 04da 4D090000 		.4byte	0x94d
 1413 04de F2040000 		.4byte	0x4f2
 1414 04e2 16       		.uleb128 0x16
 1415 04e3 01       		.byte	0x1
 1416 04e4 50       		.byte	0x50
 1417 04e5 05       		.byte	0x5
 1418 04e6 03       		.byte	0x3
 1419 04e7 00000000 		.4byte	.LC0
 1420 04eb 16       		.uleb128 0x16
 1421 04ec 01       		.byte	0x1
 1422 04ed 51       		.byte	0x51
 1423 04ee 02       		.byte	0x2
 1424 04ef 08       		.byte	0x8
 1425 04f0 B0       		.byte	0xb0
 1426 04f1 00       		.byte	0
 1427 04f2 15       		.uleb128 0x15
 1428 04f3 6E020000 		.4byte	.LVL97
 1429 04f7 8E090000 		.4byte	0x98e
 1430 04fb 16       		.uleb128 0x16
 1431 04fc 01       		.byte	0x1
 1432 04fd 50       		.byte	0x50
 1433 04fe 05       		.byte	0x5
 1434 04ff 03       		.byte	0x3
 1435 0500 B8000000 		.4byte	.LC4
 1436 0504 00       		.byte	0
 1437 0505 00       		.byte	0
 1438 0506 17       		.uleb128 0x17
 1439 0507 01       		.byte	0x1
 1440 0508 7000     		.ascii	"p\000"
 1441 050a 01       		.byte	0x1
 1442 050b 64       		.byte	0x64
 1443 050c 01       		.byte	0x1
 1444 050d 33000000 		.4byte	0x33
 1445 0511 F8000000 		.4byte	.LFB16
 1446 0515 00020000 		.4byte	.LFE16
 1447 0519 77010000 		.4byte	.LLST12
 1448 051d 01       		.byte	0x1
 1449 051e C7060000 		.4byte	0x6c7
 1450 0522 11       		.uleb128 0x11
 1451 0523 2E000000 		.4byte	.LASF65
 1452 0527 01       		.byte	0x1
 1453 0528 65       		.byte	0x65
 1454 0529 FF030000 		.4byte	0x3ff
 1455 052d D6010000 		.4byte	.LLST13
 1456 0531 11       		.uleb128 0x11
 1457 0532 F6010000 		.4byte	.LASF60
 1458 0536 01       		.byte	0x1
 1459 0537 66       		.byte	0x66
 1460 0538 24030000 		.4byte	0x324
 1461 053c 3C020000 		.4byte	.LLST14
 1462 0540 11       		.uleb128 0x11
 1463 0541 43030000 		.4byte	.LASF68
 1464 0545 01       		.byte	0x1
 1465 0546 67       		.byte	0x67
ARM GAS  G:\Users\Jaxb\AppData\Local\Temp\ccqTkcFy.s 			page 32


 1466 0547 5F000000 		.4byte	0x5f
 1467 054b 76020000 		.4byte	.LLST15
 1468 054f 12       		.uleb128 0x12
 1469 0550 EF040000 		.4byte	.LASF66
 1470 0554 01       		.byte	0x1
 1471 0555 72       		.byte	0x72
 1472 0556 7C030000 		.4byte	0x37c
 1473 055a AA020000 		.4byte	.LLST16
 1474 055e 1A       		.uleb128 0x1a
 1475 055f C0030000 		.4byte	.LASF69
 1476 0563 01       		.byte	0x1
 1477 0564 89       		.byte	0x89
 1478 0565 1F020000 		.4byte	0x21f
 1479 0569 02       		.byte	0x2
 1480 056a 91       		.byte	0x91
 1481 056b 40       		.sleb128 -64
 1482 056c 18       		.uleb128 0x18
 1483 056d 00000000 		.4byte	.Ldebug_ranges0+0
 1484 0571 F1050000 		.4byte	0x5f1
 1485 0575 12       		.uleb128 0x12
 1486 0576 36000000 		.4byte	.LASF70
 1487 057a 01       		.byte	0x1
 1488 057b 95       		.byte	0x95
 1489 057c 66000000 		.4byte	0x66
 1490 0580 37030000 		.4byte	.LLST17
 1491 0584 13       		.uleb128 0x13
 1492 0585 4A010000 		.4byte	.LVL52
 1493 0589 9B090000 		.4byte	0x99b
 1494 058d 19       		.uleb128 0x19
 1495 058e 54010000 		.4byte	.LVL54
 1496 0592 40090000 		.4byte	0x940
 1497 0596 A1050000 		.4byte	0x5a1
 1498 059a 16       		.uleb128 0x16
 1499 059b 01       		.byte	0x1
 1500 059c 50       		.byte	0x50
 1501 059d 02       		.byte	0x2
 1502 059e 76       		.byte	0x76
 1503 059f 00       		.sleb128 0
 1504 05a0 00       		.byte	0
 1505 05a1 19       		.uleb128 0x19
 1506 05a2 5C010000 		.4byte	.LVL55
 1507 05a6 A8090000 		.4byte	0x9a8
 1508 05aa BA050000 		.4byte	0x5ba
 1509 05ae 16       		.uleb128 0x16
 1510 05af 01       		.byte	0x1
 1511 05b0 50       		.byte	0x50
 1512 05b1 02       		.byte	0x2
 1513 05b2 77       		.byte	0x77
 1514 05b3 00       		.sleb128 0
 1515 05b4 16       		.uleb128 0x16
 1516 05b5 01       		.byte	0x1
 1517 05b6 51       		.byte	0x51
 1518 05b7 01       		.byte	0x1
 1519 05b8 35       		.byte	0x35
 1520 05b9 00       		.byte	0
 1521 05ba 13       		.uleb128 0x13
 1522 05bb 60010000 		.4byte	.LVL56
ARM GAS  G:\Users\Jaxb\AppData\Local\Temp\ccqTkcFy.s 			page 33


 1523 05bf 33090000 		.4byte	0x933
 1524 05c3 13       		.uleb128 0x13
 1525 05c4 66010000 		.4byte	.LVL58
 1526 05c8 9B090000 		.4byte	0x99b
 1527 05cc 19       		.uleb128 0x19
 1528 05cd E4010000 		.4byte	.LVL76
 1529 05d1 B5090000 		.4byte	0x9b5
 1530 05d5 E0050000 		.4byte	0x5e0
 1531 05d9 16       		.uleb128 0x16
 1532 05da 01       		.byte	0x1
 1533 05db 50       		.byte	0x50
 1534 05dc 02       		.byte	0x2
 1535 05dd 74       		.byte	0x74
 1536 05de 00       		.sleb128 0
 1537 05df 00       		.byte	0
 1538 05e0 15       		.uleb128 0x15
 1539 05e1 EA010000 		.4byte	.LVL77
 1540 05e5 40090000 		.4byte	0x940
 1541 05e9 16       		.uleb128 0x16
 1542 05ea 01       		.byte	0x1
 1543 05eb 50       		.byte	0x50
 1544 05ec 02       		.byte	0x2
 1545 05ed 76       		.byte	0x76
 1546 05ee 00       		.sleb128 0
 1547 05ef 00       		.byte	0
 1548 05f0 00       		.byte	0
 1549 05f1 13       		.uleb128 0x13
 1550 05f2 0C010000 		.4byte	.LVL44
 1551 05f6 33090000 		.4byte	0x933
 1552 05fa 19       		.uleb128 0x19
 1553 05fb 2A010000 		.4byte	.LVL47
 1554 05ff 40090000 		.4byte	0x940
 1555 0603 0E060000 		.4byte	0x60e
 1556 0607 16       		.uleb128 0x16
 1557 0608 01       		.byte	0x1
 1558 0609 50       		.byte	0x50
 1559 060a 02       		.byte	0x2
 1560 060b 76       		.byte	0x76
 1561 060c 00       		.sleb128 0
 1562 060d 00       		.byte	0
 1563 060e 19       		.uleb128 0x19
 1564 060f 3C010000 		.4byte	.LVL50
 1565 0613 C2090000 		.4byte	0x9c2
 1566 0617 22060000 		.4byte	0x622
 1567 061b 16       		.uleb128 0x16
 1568 061c 01       		.byte	0x1
 1569 061d 50       		.byte	0x50
 1570 061e 02       		.byte	0x2
 1571 061f 7D       		.byte	0x7d
 1572 0620 00       		.sleb128 0
 1573 0621 00       		.byte	0
 1574 0622 19       		.uleb128 0x19
 1575 0623 44010000 		.4byte	.LVL51
 1576 0627 CF090000 		.4byte	0x9cf
 1577 062b 3C060000 		.4byte	0x63c
 1578 062f 16       		.uleb128 0x16
 1579 0630 01       		.byte	0x1
ARM GAS  G:\Users\Jaxb\AppData\Local\Temp\ccqTkcFy.s 			page 34


 1580 0631 50       		.byte	0x50
 1581 0632 02       		.byte	0x2
 1582 0633 7D       		.byte	0x7d
 1583 0634 00       		.sleb128 0
 1584 0635 16       		.uleb128 0x16
 1585 0636 01       		.byte	0x1
 1586 0637 51       		.byte	0x51
 1587 0638 02       		.byte	0x2
 1588 0639 74       		.byte	0x74
 1589 063a 00       		.sleb128 0
 1590 063b 00       		.byte	0
 1591 063c 19       		.uleb128 0x19
 1592 063d 8C010000 		.4byte	.LVL61
 1593 0641 40090000 		.4byte	0x940
 1594 0645 50060000 		.4byte	0x650
 1595 0649 16       		.uleb128 0x16
 1596 064a 01       		.byte	0x1
 1597 064b 50       		.byte	0x50
 1598 064c 02       		.byte	0x2
 1599 064d 76       		.byte	0x76
 1600 064e 00       		.sleb128 0
 1601 064f 00       		.byte	0
 1602 0650 13       		.uleb128 0x13
 1603 0651 9A010000 		.4byte	.LVL63
 1604 0655 40090000 		.4byte	0x940
 1605 0659 19       		.uleb128 0x19
 1606 065a A6010000 		.4byte	.LVL64
 1607 065e 40090000 		.4byte	0x940
 1608 0662 6D060000 		.4byte	0x66d
 1609 0666 16       		.uleb128 0x16
 1610 0667 01       		.byte	0x1
 1611 0668 50       		.byte	0x50
 1612 0669 02       		.byte	0x2
 1613 066a 76       		.byte	0x76
 1614 066b 00       		.sleb128 0
 1615 066c 00       		.byte	0
 1616 066d 19       		.uleb128 0x19
 1617 066e AC010000 		.4byte	.LVL65
 1618 0672 DC090000 		.4byte	0x9dc
 1619 0676 80060000 		.4byte	0x680
 1620 067a 16       		.uleb128 0x16
 1621 067b 01       		.byte	0x1
 1622 067c 50       		.byte	0x50
 1623 067d 01       		.byte	0x1
 1624 067e 34       		.byte	0x34
 1625 067f 00       		.byte	0
 1626 0680 13       		.uleb128 0x13
 1627 0681 B0010000 		.4byte	.LVL66
 1628 0685 33090000 		.4byte	0x933
 1629 0689 19       		.uleb128 0x19
 1630 068a BC010000 		.4byte	.LVL71
 1631 068e 4D090000 		.4byte	0x94d
 1632 0692 A6060000 		.4byte	0x6a6
 1633 0696 16       		.uleb128 0x16
 1634 0697 01       		.byte	0x1
 1635 0698 50       		.byte	0x50
 1636 0699 05       		.byte	0x5
ARM GAS  G:\Users\Jaxb\AppData\Local\Temp\ccqTkcFy.s 			page 35


 1637 069a 03       		.byte	0x3
 1638 069b 00000000 		.4byte	.LC0
 1639 069f 16       		.uleb128 0x16
 1640 06a0 01       		.byte	0x1
 1641 06a1 51       		.byte	0x51
 1642 06a2 02       		.byte	0x2
 1643 06a3 08       		.byte	0x8
 1644 06a4 6A       		.byte	0x6a
 1645 06a5 00       		.byte	0
 1646 06a6 19       		.uleb128 0x19
 1647 06a7 C2010000 		.4byte	.LVL72
 1648 06ab 8E090000 		.4byte	0x98e
 1649 06af BD060000 		.4byte	0x6bd
 1650 06b3 16       		.uleb128 0x16
 1651 06b4 01       		.byte	0x1
 1652 06b5 50       		.byte	0x50
 1653 06b6 05       		.byte	0x5
 1654 06b7 03       		.byte	0x3
 1655 06b8 8C000000 		.4byte	.LC3
 1656 06bc 00       		.byte	0
 1657 06bd 13       		.uleb128 0x13
 1658 06be D0010000 		.4byte	.LVL74
 1659 06c2 40090000 		.4byte	0x940
 1660 06c6 00       		.byte	0
 1661 06c7 1B       		.uleb128 0x1b
 1662 06c8 01       		.byte	0x1
 1663 06c9 39020000 		.4byte	.LASF71
 1664 06cd 01       		.byte	0x1
 1665 06ce 41       		.byte	0x41
 1666 06cf 01       		.byte	0x1
 1667 06d0 33000000 		.4byte	0x33
 1668 06d4 84000000 		.4byte	.LFB15
 1669 06d8 F8000000 		.4byte	.LFE15
 1670 06dc 5F030000 		.4byte	.LLST7
 1671 06e0 01       		.byte	0x1
 1672 06e1 E2070000 		.4byte	0x7e2
 1673 06e5 11       		.uleb128 0x11
 1674 06e6 2E000000 		.4byte	.LASF65
 1675 06ea 01       		.byte	0x1
 1676 06eb 41       		.byte	0x41
 1677 06ec FF030000 		.4byte	0x3ff
 1678 06f0 7F030000 		.4byte	.LLST8
 1679 06f4 12       		.uleb128 0x12
 1680 06f5 BB040000 		.4byte	.LASF67
 1681 06f9 01       		.byte	0x1
 1682 06fa 4B       		.byte	0x4b
 1683 06fb 94030000 		.4byte	0x394
 1684 06ff C1030000 		.4byte	.LLST9
 1685 0703 12       		.uleb128 0x12
 1686 0704 EF040000 		.4byte	.LASF66
 1687 0708 01       		.byte	0x1
 1688 0709 4C       		.byte	0x4c
 1689 070a 7C030000 		.4byte	0x37c
 1690 070e DF030000 		.4byte	.LLST10
 1691 0712 12       		.uleb128 0x12
 1692 0713 C4020000 		.4byte	.LASF72
 1693 0717 01       		.byte	0x1
ARM GAS  G:\Users\Jaxb\AppData\Local\Temp\ccqTkcFy.s 			page 36


 1694 0718 4E       		.byte	0x4e
 1695 0719 BE020000 		.4byte	0x2be
 1696 071d 09040000 		.4byte	.LLST11
 1697 0721 13       		.uleb128 0x13
 1698 0722 8E000000 		.4byte	.LVL21
 1699 0726 33090000 		.4byte	0x933
 1700 072a 19       		.uleb128 0x19
 1701 072b 96000000 		.4byte	.LVL24
 1702 072f 5A090000 		.4byte	0x95a
 1703 0733 3E070000 		.4byte	0x73e
 1704 0737 16       		.uleb128 0x16
 1705 0738 01       		.byte	0x1
 1706 0739 50       		.byte	0x50
 1707 073a 02       		.byte	0x2
 1708 073b 75       		.byte	0x75
 1709 073c 00       		.sleb128 0
 1710 073d 00       		.byte	0
 1711 073e 19       		.uleb128 0x19
 1712 073f A8000000 		.4byte	.LVL27
 1713 0743 4D090000 		.4byte	0x94d
 1714 0747 58070000 		.4byte	0x758
 1715 074b 16       		.uleb128 0x16
 1716 074c 01       		.byte	0x1
 1717 074d 50       		.byte	0x50
 1718 074e 02       		.byte	0x2
 1719 074f 76       		.byte	0x76
 1720 0750 00       		.sleb128 0
 1721 0751 16       		.uleb128 0x16
 1722 0752 01       		.byte	0x1
 1723 0753 51       		.byte	0x51
 1724 0754 02       		.byte	0x2
 1725 0755 08       		.byte	0x8
 1726 0756 58       		.byte	0x58
 1727 0757 00       		.byte	0
 1728 0758 19       		.uleb128 0x19
 1729 0759 AE000000 		.4byte	.LVL28
 1730 075d 81090000 		.4byte	0x981
 1731 0761 6C070000 		.4byte	0x76c
 1732 0765 16       		.uleb128 0x16
 1733 0766 01       		.byte	0x1
 1734 0767 50       		.byte	0x50
 1735 0768 02       		.byte	0x2
 1736 0769 74       		.byte	0x74
 1737 076a 00       		.sleb128 0
 1738 076b 00       		.byte	0
 1739 076c 19       		.uleb128 0x19
 1740 076d BC000000 		.4byte	.LVL29
 1741 0771 5A090000 		.4byte	0x95a
 1742 0775 80070000 		.4byte	0x780
 1743 0779 16       		.uleb128 0x16
 1744 077a 01       		.byte	0x1
 1745 077b 50       		.byte	0x50
 1746 077c 02       		.byte	0x2
 1747 077d 75       		.byte	0x75
 1748 077e 00       		.sleb128 0
 1749 077f 00       		.byte	0
 1750 0780 19       		.uleb128 0x19
ARM GAS  G:\Users\Jaxb\AppData\Local\Temp\ccqTkcFy.s 			page 37


 1751 0781 CC000000 		.4byte	.LVL33
 1752 0785 74090000 		.4byte	0x974
 1753 0789 94070000 		.4byte	0x794
 1754 078d 16       		.uleb128 0x16
 1755 078e 01       		.byte	0x1
 1756 078f 50       		.byte	0x50
 1757 0790 02       		.byte	0x2
 1758 0791 74       		.byte	0x74
 1759 0792 00       		.sleb128 0
 1760 0793 00       		.byte	0
 1761 0794 13       		.uleb128 0x13
 1762 0795 D2000000 		.4byte	.LVL35
 1763 0799 67090000 		.4byte	0x967
 1764 079d 19       		.uleb128 0x19
 1765 079e D8000000 		.4byte	.LVL36
 1766 07a2 40090000 		.4byte	0x940
 1767 07a6 B1070000 		.4byte	0x7b1
 1768 07aa 16       		.uleb128 0x16
 1769 07ab 01       		.byte	0x1
 1770 07ac 50       		.byte	0x50
 1771 07ad 02       		.byte	0x2
 1772 07ae 77       		.byte	0x77
 1773 07af 00       		.sleb128 0
 1774 07b0 00       		.byte	0
 1775 07b1 19       		.uleb128 0x19
 1776 07b2 E4000000 		.4byte	.LVL39
 1777 07b6 4D090000 		.4byte	0x94d
 1778 07ba CE070000 		.4byte	0x7ce
 1779 07be 16       		.uleb128 0x16
 1780 07bf 01       		.byte	0x1
 1781 07c0 50       		.byte	0x50
 1782 07c1 05       		.byte	0x5
 1783 07c2 03       		.byte	0x3
 1784 07c3 00000000 		.4byte	.LC0
 1785 07c7 16       		.uleb128 0x16
 1786 07c8 01       		.byte	0x1
 1787 07c9 51       		.byte	0x51
 1788 07ca 02       		.byte	0x2
 1789 07cb 08       		.byte	0x8
 1790 07cc 43       		.byte	0x43
 1791 07cd 00       		.byte	0
 1792 07ce 15       		.uleb128 0x15
 1793 07cf EA000000 		.4byte	.LVL40
 1794 07d3 8E090000 		.4byte	0x98e
 1795 07d7 16       		.uleb128 0x16
 1796 07d8 01       		.byte	0x1
 1797 07d9 50       		.byte	0x50
 1798 07da 05       		.byte	0x5
 1799 07db 03       		.byte	0x3
 1800 07dc 58000000 		.4byte	.LC2
 1801 07e0 00       		.byte	0
 1802 07e1 00       		.byte	0
 1803 07e2 1B       		.uleb128 0x1b
 1804 07e3 01       		.byte	0x1
 1805 07e4 7C010000 		.4byte	.LASF73
 1806 07e8 01       		.byte	0x1
 1807 07e9 19       		.byte	0x19
ARM GAS  G:\Users\Jaxb\AppData\Local\Temp\ccqTkcFy.s 			page 38


 1808 07ea 01       		.byte	0x1
 1809 07eb 33000000 		.4byte	0x33
 1810 07ef 14000000 		.4byte	.LFB14
 1811 07f3 84000000 		.4byte	.LFE14
 1812 07f7 32040000 		.4byte	.LLST2
 1813 07fb 01       		.byte	0x1
 1814 07fc C1080000 		.4byte	0x8c1
 1815 0800 11       		.uleb128 0x11
 1816 0801 2E000000 		.4byte	.LASF65
 1817 0805 01       		.byte	0x1
 1818 0806 1A       		.byte	0x1a
 1819 0807 FF030000 		.4byte	0x3ff
 1820 080b 52040000 		.4byte	.LLST3
 1821 080f 1C       		.uleb128 0x1c
 1822 0810 6E756D00 		.ascii	"num\000"
 1823 0814 01       		.byte	0x1
 1824 0815 1B       		.byte	0x1b
 1825 0816 33000000 		.4byte	0x33
 1826 081a 94040000 		.4byte	.LLST4
 1827 081e 11       		.uleb128 0x11
 1828 081f F6010000 		.4byte	.LASF60
 1829 0823 01       		.byte	0x1
 1830 0824 1C       		.byte	0x1c
 1831 0825 5F000000 		.4byte	0x5f
 1832 0829 D6040000 		.4byte	.LLST5
 1833 082d 12       		.uleb128 0x12
 1834 082e EF040000 		.4byte	.LASF66
 1835 0832 01       		.byte	0x1
 1836 0833 27       		.byte	0x27
 1837 0834 7C030000 		.4byte	0x37c
 1838 0838 18050000 		.4byte	.LLST6
 1839 083c 13       		.uleb128 0x13
 1840 083d 22000000 		.4byte	.LVL6
 1841 0841 33090000 		.4byte	0x933
 1842 0845 19       		.uleb128 0x19
 1843 0846 3A000000 		.4byte	.LVL9
 1844 084a E9090000 		.4byte	0x9e9
 1845 084e 70080000 		.4byte	0x870
 1846 0852 16       		.uleb128 0x16
 1847 0853 01       		.byte	0x1
 1848 0854 50       		.byte	0x50
 1849 0855 02       		.byte	0x2
 1850 0856 74       		.byte	0x74
 1851 0857 00       		.sleb128 0
 1852 0858 16       		.uleb128 0x16
 1853 0859 01       		.byte	0x1
 1854 085a 51       		.byte	0x51
 1855 085b 05       		.byte	0x5
 1856 085c 03       		.byte	0x3
 1857 085d 00000000 		.4byte	compare
 1858 0861 16       		.uleb128 0x16
 1859 0862 01       		.byte	0x1
 1860 0863 52       		.byte	0x52
 1861 0864 01       		.byte	0x1
 1862 0865 30       		.byte	0x30
 1863 0866 16       		.uleb128 0x16
 1864 0867 01       		.byte	0x1
ARM GAS  G:\Users\Jaxb\AppData\Local\Temp\ccqTkcFy.s 			page 39


 1865 0868 53       		.byte	0x53
 1866 0869 05       		.byte	0x5
 1867 086a 03       		.byte	0x3
 1868 086b 00000000 		.4byte	value_cmp
 1869 086f 00       		.byte	0
 1870 0870 19       		.uleb128 0x19
 1871 0871 4C000000 		.4byte	.LVL10
 1872 0875 40090000 		.4byte	0x940
 1873 0879 84080000 		.4byte	0x884
 1874 087d 16       		.uleb128 0x16
 1875 087e 01       		.byte	0x1
 1876 087f 50       		.byte	0x50
 1877 0880 02       		.byte	0x2
 1878 0881 77       		.byte	0x77
 1879 0882 00       		.sleb128 0
 1880 0883 00       		.byte	0
 1881 0884 19       		.uleb128 0x19
 1882 0885 58000000 		.4byte	.LVL14
 1883 0889 4D090000 		.4byte	0x94d
 1884 088d A0080000 		.4byte	0x8a0
 1885 0891 16       		.uleb128 0x16
 1886 0892 01       		.byte	0x1
 1887 0893 50       		.byte	0x50
 1888 0894 05       		.byte	0x5
 1889 0895 03       		.byte	0x3
 1890 0896 00000000 		.4byte	.LC0
 1891 089a 16       		.uleb128 0x16
 1892 089b 01       		.byte	0x1
 1893 089c 51       		.byte	0x51
 1894 089d 01       		.byte	0x1
 1895 089e 4F       		.byte	0x4f
 1896 089f 00       		.byte	0
 1897 08a0 19       		.uleb128 0x19
 1898 08a1 5E000000 		.4byte	.LVL15
 1899 08a5 8E090000 		.4byte	0x98e
 1900 08a9 B7080000 		.4byte	0x8b7
 1901 08ad 16       		.uleb128 0x16
 1902 08ae 01       		.byte	0x1
 1903 08af 50       		.byte	0x50
 1904 08b0 05       		.byte	0x5
 1905 08b1 03       		.byte	0x3
 1906 08b2 28000000 		.4byte	.LC1
 1907 08b6 00       		.byte	0
 1908 08b7 13       		.uleb128 0x13
 1909 08b8 68000000 		.4byte	.LVL17
 1910 08bc 40090000 		.4byte	0x940
 1911 08c0 00       		.byte	0
 1912 08c1 1D       		.uleb128 0x1d
 1913 08c2 48030000 		.4byte	.LASF51
 1914 08c6 01       		.byte	0x1
 1915 08c7 13       		.byte	0x13
 1916 08c8 01       		.byte	0x1
 1917 08c9 33000000 		.4byte	0x33
 1918 08cd 0C000000 		.4byte	.LFB13
 1919 08d1 14000000 		.4byte	.LFE13
 1920 08d5 02       		.byte	0x2
 1921 08d6 7D       		.byte	0x7d
ARM GAS  G:\Users\Jaxb\AppData\Local\Temp\ccqTkcFy.s 			page 40


 1922 08d7 00       		.sleb128 0
 1923 08d8 01       		.byte	0x1
 1924 08d9 FA080000 		.4byte	0x8fa
 1925 08dd 11       		.uleb128 0x11
 1926 08de 29020000 		.4byte	.LASF74
 1927 08e2 01       		.byte	0x1
 1928 08e3 13       		.byte	0x13
 1929 08e4 16010000 		.4byte	0x116
 1930 08e8 58050000 		.4byte	.LLST1
 1931 08ec 1E       		.uleb128 0x1e
 1932 08ed B5050000 		.4byte	.LASF75
 1933 08f1 01       		.byte	0x1
 1934 08f2 13       		.byte	0x13
 1935 08f3 16010000 		.4byte	0x116
 1936 08f7 01       		.byte	0x1
 1937 08f8 51       		.byte	0x51
 1938 08f9 00       		.byte	0
 1939 08fa 1D       		.uleb128 0x1d
 1940 08fb 80040000 		.4byte	.LASF49
 1941 08ff 01       		.byte	0x1
 1942 0900 0E       		.byte	0xe
 1943 0901 01       		.byte	0x1
 1944 0902 33000000 		.4byte	0x33
 1945 0906 00000000 		.4byte	.LFB12
 1946 090a 0C000000 		.4byte	.LFE12
 1947 090e 02       		.byte	0x2
 1948 090f 7D       		.byte	0x7d
 1949 0910 00       		.sleb128 0
 1950 0911 01       		.byte	0x1
 1951 0912 33090000 		.4byte	0x933
 1952 0916 11       		.uleb128 0x11
 1953 0917 29020000 		.4byte	.LASF74
 1954 091b 01       		.byte	0x1
 1955 091c 0E       		.byte	0xe
 1956 091d BE020000 		.4byte	0x2be
 1957 0921 79050000 		.4byte	.LLST0
 1958 0925 1E       		.uleb128 0x1e
 1959 0926 B5050000 		.4byte	.LASF75
 1960 092a 01       		.byte	0x1
 1961 092b 0E       		.byte	0xe
 1962 092c BE020000 		.4byte	0x2be
 1963 0930 01       		.byte	0x1
 1964 0931 51       		.byte	0x51
 1965 0932 00       		.byte	0
 1966 0933 1F       		.uleb128 0x1f
 1967 0934 01       		.byte	0x1
 1968 0935 01       		.byte	0x1
 1969 0936 7D020000 		.4byte	.LASF76
 1970 093a 7D020000 		.4byte	.LASF76
 1971 093e 08       		.byte	0x8
 1972 093f 35       		.byte	0x35
 1973 0940 1F       		.uleb128 0x1f
 1974 0941 01       		.byte	0x1
 1975 0942 01       		.byte	0x1
 1976 0943 5B000000 		.4byte	.LASF77
 1977 0947 5B000000 		.4byte	.LASF77
 1978 094b 08       		.byte	0x8
ARM GAS  G:\Users\Jaxb\AppData\Local\Temp\ccqTkcFy.s 			page 41


 1979 094c 36       		.byte	0x36
 1980 094d 1F       		.uleb128 0x1f
 1981 094e 01       		.byte	0x1
 1982 094f 01       		.byte	0x1
 1983 0950 75020000 		.4byte	.LASF78
 1984 0954 75020000 		.4byte	.LASF78
 1985 0958 09       		.byte	0x9
 1986 0959 06       		.byte	0x6
 1987 095a 1F       		.uleb128 0x1f
 1988 095b 01       		.byte	0x1
 1989 095c 01       		.byte	0x1
 1990 095d 2A040000 		.4byte	.LASF79
 1991 0961 2A040000 		.4byte	.LASF79
 1992 0965 06       		.byte	0x6
 1993 0966 3B       		.byte	0x3b
 1994 0967 1F       		.uleb128 0x1f
 1995 0968 01       		.byte	0x1
 1996 0969 01       		.byte	0x1
 1997 096a 22010000 		.4byte	.LASF80
 1998 096e 22010000 		.4byte	.LASF80
 1999 0972 0A       		.byte	0xa
 2000 0973 18       		.byte	0x18
 2001 0974 1F       		.uleb128 0x1f
 2002 0975 01       		.byte	0x1
 2003 0976 01       		.byte	0x1
 2004 0977 AA000000 		.4byte	.LASF81
 2005 097b AA000000 		.4byte	.LASF81
 2006 097f 0B       		.byte	0xb
 2007 0980 08       		.byte	0x8
 2008 0981 1F       		.uleb128 0x1f
 2009 0982 01       		.byte	0x1
 2010 0983 01       		.byte	0x1
 2011 0984 FC020000 		.4byte	.LASF82
 2012 0988 FC020000 		.4byte	.LASF82
 2013 098c 0C       		.byte	0xc
 2014 098d 09       		.byte	0x9
 2015 098e 1F       		.uleb128 0x1f
 2016 098f 01       		.byte	0x1
 2017 0990 01       		.byte	0x1
 2018 0991 2F020000 		.4byte	.LASF83
 2019 0995 2F020000 		.4byte	.LASF83
 2020 0999 0D       		.byte	0xd
 2021 099a 0C       		.byte	0xc
 2022 099b 1F       		.uleb128 0x1f
 2023 099c 01       		.byte	0x1
 2024 099d 01       		.byte	0x1
 2025 099e 19010000 		.4byte	.LASF84
 2026 09a2 19010000 		.4byte	.LASF84
 2027 09a6 0E       		.byte	0xe
 2028 09a7 07       		.byte	0x7
 2029 09a8 1F       		.uleb128 0x1f
 2030 09a9 01       		.byte	0x1
 2031 09aa 01       		.byte	0x1
 2032 09ab F9000000 		.4byte	.LASF85
 2033 09af F9000000 		.4byte	.LASF85
 2034 09b3 0A       		.byte	0xa
 2035 09b4 15       		.byte	0x15
ARM GAS  G:\Users\Jaxb\AppData\Local\Temp\ccqTkcFy.s 			page 42


 2036 09b5 1F       		.uleb128 0x1f
 2037 09b6 01       		.byte	0x1
 2038 09b7 01       		.byte	0x1
 2039 09b8 43010000 		.4byte	.LASF86
 2040 09bc 43010000 		.4byte	.LASF86
 2041 09c0 06       		.byte	0x6
 2042 09c1 3C       		.byte	0x3c
 2043 09c2 1F       		.uleb128 0x1f
 2044 09c3 01       		.byte	0x1
 2045 09c4 01       		.byte	0x1
 2046 09c5 D8050000 		.4byte	.LASF87
 2047 09c9 D8050000 		.4byte	.LASF87
 2048 09cd 06       		.byte	0x6
 2049 09ce 16       		.byte	0x16
 2050 09cf 1F       		.uleb128 0x1f
 2051 09d0 01       		.byte	0x1
 2052 09d1 01       		.byte	0x1
 2053 09d2 12040000 		.4byte	.LASF88
 2054 09d6 12040000 		.4byte	.LASF88
 2055 09da 06       		.byte	0x6
 2056 09db 38       		.byte	0x38
 2057 09dc 1F       		.uleb128 0x1f
 2058 09dd 01       		.byte	0x1
 2059 09de 01       		.byte	0x1
 2060 09df 4F020000 		.4byte	.LASF89
 2061 09e3 4F020000 		.4byte	.LASF89
 2062 09e7 0A       		.byte	0xa
 2063 09e8 16       		.byte	0x16
 2064 09e9 1F       		.uleb128 0x1f
 2065 09ea 01       		.byte	0x1
 2066 09eb 01       		.byte	0x1
 2067 09ec 2B010000 		.4byte	.LASF90
 2068 09f0 2B010000 		.4byte	.LASF90
 2069 09f4 06       		.byte	0x6
 2070 09f5 31       		.byte	0x31
 2071 09f6 00       		.byte	0
 2072              		.section	.debug_abbrev,"",%progbits
 2073              	.Ldebug_abbrev0:
 2074 0000 01       		.uleb128 0x1
 2075 0001 11       		.uleb128 0x11
 2076 0002 01       		.byte	0x1
 2077 0003 25       		.uleb128 0x25
 2078 0004 0E       		.uleb128 0xe
 2079 0005 13       		.uleb128 0x13
 2080 0006 0B       		.uleb128 0xb
 2081 0007 03       		.uleb128 0x3
 2082 0008 0E       		.uleb128 0xe
 2083 0009 1B       		.uleb128 0x1b
 2084 000a 0E       		.uleb128 0xe
 2085 000b 11       		.uleb128 0x11
 2086 000c 01       		.uleb128 0x1
 2087 000d 12       		.uleb128 0x12
 2088 000e 01       		.uleb128 0x1
 2089 000f 10       		.uleb128 0x10
 2090 0010 06       		.uleb128 0x6
 2091 0011 00       		.byte	0
 2092 0012 00       		.byte	0
ARM GAS  G:\Users\Jaxb\AppData\Local\Temp\ccqTkcFy.s 			page 43


 2093 0013 02       		.uleb128 0x2
 2094 0014 24       		.uleb128 0x24
 2095 0015 00       		.byte	0
 2096 0016 0B       		.uleb128 0xb
 2097 0017 0B       		.uleb128 0xb
 2098 0018 3E       		.uleb128 0x3e
 2099 0019 0B       		.uleb128 0xb
 2100 001a 03       		.uleb128 0x3
 2101 001b 0E       		.uleb128 0xe
 2102 001c 00       		.byte	0
 2103 001d 00       		.byte	0
 2104 001e 03       		.uleb128 0x3
 2105 001f 24       		.uleb128 0x24
 2106 0020 00       		.byte	0
 2107 0021 0B       		.uleb128 0xb
 2108 0022 0B       		.uleb128 0xb
 2109 0023 3E       		.uleb128 0x3e
 2110 0024 0B       		.uleb128 0xb
 2111 0025 03       		.uleb128 0x3
 2112 0026 08       		.uleb128 0x8
 2113 0027 00       		.byte	0
 2114 0028 00       		.byte	0
 2115 0029 04       		.uleb128 0x4
 2116 002a 35       		.uleb128 0x35
 2117 002b 00       		.byte	0
 2118 002c 49       		.uleb128 0x49
 2119 002d 13       		.uleb128 0x13
 2120 002e 00       		.byte	0
 2121 002f 00       		.byte	0
 2122 0030 05       		.uleb128 0x5
 2123 0031 16       		.uleb128 0x16
 2124 0032 00       		.byte	0
 2125 0033 03       		.uleb128 0x3
 2126 0034 0E       		.uleb128 0xe
 2127 0035 3A       		.uleb128 0x3a
 2128 0036 0B       		.uleb128 0xb
 2129 0037 3B       		.uleb128 0x3b
 2130 0038 0B       		.uleb128 0xb
 2131 0039 49       		.uleb128 0x49
 2132 003a 13       		.uleb128 0x13
 2133 003b 00       		.byte	0
 2134 003c 00       		.byte	0
 2135 003d 06       		.uleb128 0x6
 2136 003e 13       		.uleb128 0x13
 2137 003f 01       		.byte	0x1
 2138 0040 03       		.uleb128 0x3
 2139 0041 0E       		.uleb128 0xe
 2140 0042 0B       		.uleb128 0xb
 2141 0043 0B       		.uleb128 0xb
 2142 0044 3A       		.uleb128 0x3a
 2143 0045 0B       		.uleb128 0xb
 2144 0046 3B       		.uleb128 0x3b
 2145 0047 0B       		.uleb128 0xb
 2146 0048 01       		.uleb128 0x1
 2147 0049 13       		.uleb128 0x13
 2148 004a 00       		.byte	0
 2149 004b 00       		.byte	0
ARM GAS  G:\Users\Jaxb\AppData\Local\Temp\ccqTkcFy.s 			page 44


 2150 004c 07       		.uleb128 0x7
 2151 004d 0D       		.uleb128 0xd
 2152 004e 00       		.byte	0
 2153 004f 03       		.uleb128 0x3
 2154 0050 0E       		.uleb128 0xe
 2155 0051 3A       		.uleb128 0x3a
 2156 0052 0B       		.uleb128 0xb
 2157 0053 3B       		.uleb128 0x3b
 2158 0054 0B       		.uleb128 0xb
 2159 0055 49       		.uleb128 0x49
 2160 0056 13       		.uleb128 0x13
 2161 0057 38       		.uleb128 0x38
 2162 0058 0A       		.uleb128 0xa
 2163 0059 00       		.byte	0
 2164 005a 00       		.byte	0
 2165 005b 08       		.uleb128 0x8
 2166 005c 0F       		.uleb128 0xf
 2167 005d 00       		.byte	0
 2168 005e 0B       		.uleb128 0xb
 2169 005f 0B       		.uleb128 0xb
 2170 0060 49       		.uleb128 0x49
 2171 0061 13       		.uleb128 0x13
 2172 0062 00       		.byte	0
 2173 0063 00       		.byte	0
 2174 0064 09       		.uleb128 0x9
 2175 0065 04       		.uleb128 0x4
 2176 0066 01       		.byte	0x1
 2177 0067 03       		.uleb128 0x3
 2178 0068 0E       		.uleb128 0xe
 2179 0069 3E       		.uleb128 0x3e
 2180 006a 0B       		.uleb128 0xb
 2181 006b 0B       		.uleb128 0xb
 2182 006c 0B       		.uleb128 0xb
 2183 006d 49       		.uleb128 0x49
 2184 006e 13       		.uleb128 0x13
 2185 006f 3A       		.uleb128 0x3a
 2186 0070 0B       		.uleb128 0xb
 2187 0071 3B       		.uleb128 0x3b
 2188 0072 0B       		.uleb128 0xb
 2189 0073 01       		.uleb128 0x1
 2190 0074 13       		.uleb128 0x13
 2191 0075 00       		.byte	0
 2192 0076 00       		.byte	0
 2193 0077 0A       		.uleb128 0xa
 2194 0078 28       		.uleb128 0x28
 2195 0079 00       		.byte	0
 2196 007a 03       		.uleb128 0x3
 2197 007b 0E       		.uleb128 0xe
 2198 007c 1C       		.uleb128 0x1c
 2199 007d 0B       		.uleb128 0xb
 2200 007e 00       		.byte	0
 2201 007f 00       		.byte	0
 2202 0080 0B       		.uleb128 0xb
 2203 0081 0F       		.uleb128 0xf
 2204 0082 00       		.byte	0
 2205 0083 0B       		.uleb128 0xb
 2206 0084 0B       		.uleb128 0xb
ARM GAS  G:\Users\Jaxb\AppData\Local\Temp\ccqTkcFy.s 			page 45


 2207 0085 00       		.byte	0
 2208 0086 00       		.byte	0
 2209 0087 0C       		.uleb128 0xc
 2210 0088 34       		.uleb128 0x34
 2211 0089 00       		.byte	0
 2212 008a 03       		.uleb128 0x3
 2213 008b 0E       		.uleb128 0xe
 2214 008c 3A       		.uleb128 0x3a
 2215 008d 0B       		.uleb128 0xb
 2216 008e 3B       		.uleb128 0x3b
 2217 008f 0B       		.uleb128 0xb
 2218 0090 49       		.uleb128 0x49
 2219 0091 13       		.uleb128 0x13
 2220 0092 3F       		.uleb128 0x3f
 2221 0093 0C       		.uleb128 0xc
 2222 0094 3C       		.uleb128 0x3c
 2223 0095 0C       		.uleb128 0xc
 2224 0096 00       		.byte	0
 2225 0097 00       		.byte	0
 2226 0098 0D       		.uleb128 0xd
 2227 0099 16       		.uleb128 0x16
 2228 009a 00       		.byte	0
 2229 009b 03       		.uleb128 0x3
 2230 009c 08       		.uleb128 0x8
 2231 009d 3A       		.uleb128 0x3a
 2232 009e 0B       		.uleb128 0xb
 2233 009f 3B       		.uleb128 0x3b
 2234 00a0 0B       		.uleb128 0xb
 2235 00a1 49       		.uleb128 0x49
 2236 00a2 13       		.uleb128 0x13
 2237 00a3 00       		.byte	0
 2238 00a4 00       		.byte	0
 2239 00a5 0E       		.uleb128 0xe
 2240 00a6 15       		.uleb128 0x15
 2241 00a7 01       		.byte	0x1
 2242 00a8 27       		.uleb128 0x27
 2243 00a9 0C       		.uleb128 0xc
 2244 00aa 49       		.uleb128 0x49
 2245 00ab 13       		.uleb128 0x13
 2246 00ac 01       		.uleb128 0x1
 2247 00ad 13       		.uleb128 0x13
 2248 00ae 00       		.byte	0
 2249 00af 00       		.byte	0
 2250 00b0 0F       		.uleb128 0xf
 2251 00b1 05       		.uleb128 0x5
 2252 00b2 00       		.byte	0
 2253 00b3 49       		.uleb128 0x49
 2254 00b4 13       		.uleb128 0x13
 2255 00b5 00       		.byte	0
 2256 00b6 00       		.byte	0
 2257 00b7 10       		.uleb128 0x10
 2258 00b8 2E       		.uleb128 0x2e
 2259 00b9 01       		.byte	0x1
 2260 00ba 3F       		.uleb128 0x3f
 2261 00bb 0C       		.uleb128 0xc
 2262 00bc 03       		.uleb128 0x3
 2263 00bd 0E       		.uleb128 0xe
ARM GAS  G:\Users\Jaxb\AppData\Local\Temp\ccqTkcFy.s 			page 46


 2264 00be 3A       		.uleb128 0x3a
 2265 00bf 0B       		.uleb128 0xb
 2266 00c0 3B       		.uleb128 0x3b
 2267 00c1 0B       		.uleb128 0xb
 2268 00c2 27       		.uleb128 0x27
 2269 00c3 0C       		.uleb128 0xc
 2270 00c4 11       		.uleb128 0x11
 2271 00c5 01       		.uleb128 0x1
 2272 00c6 12       		.uleb128 0x12
 2273 00c7 01       		.uleb128 0x1
 2274 00c8 40       		.uleb128 0x40
 2275 00c9 06       		.uleb128 0x6
 2276 00ca 9742     		.uleb128 0x2117
 2277 00cc 0C       		.uleb128 0xc
 2278 00cd 01       		.uleb128 0x1
 2279 00ce 13       		.uleb128 0x13
 2280 00cf 00       		.byte	0
 2281 00d0 00       		.byte	0
 2282 00d1 11       		.uleb128 0x11
 2283 00d2 05       		.uleb128 0x5
 2284 00d3 00       		.byte	0
 2285 00d4 03       		.uleb128 0x3
 2286 00d5 0E       		.uleb128 0xe
 2287 00d6 3A       		.uleb128 0x3a
 2288 00d7 0B       		.uleb128 0xb
 2289 00d8 3B       		.uleb128 0x3b
 2290 00d9 0B       		.uleb128 0xb
 2291 00da 49       		.uleb128 0x49
 2292 00db 13       		.uleb128 0x13
 2293 00dc 02       		.uleb128 0x2
 2294 00dd 06       		.uleb128 0x6
 2295 00de 00       		.byte	0
 2296 00df 00       		.byte	0
 2297 00e0 12       		.uleb128 0x12
 2298 00e1 34       		.uleb128 0x34
 2299 00e2 00       		.byte	0
 2300 00e3 03       		.uleb128 0x3
 2301 00e4 0E       		.uleb128 0xe
 2302 00e5 3A       		.uleb128 0x3a
 2303 00e6 0B       		.uleb128 0xb
 2304 00e7 3B       		.uleb128 0x3b
 2305 00e8 0B       		.uleb128 0xb
 2306 00e9 49       		.uleb128 0x49
 2307 00ea 13       		.uleb128 0x13
 2308 00eb 02       		.uleb128 0x2
 2309 00ec 06       		.uleb128 0x6
 2310 00ed 00       		.byte	0
 2311 00ee 00       		.byte	0
 2312 00ef 13       		.uleb128 0x13
 2313 00f0 898201   		.uleb128 0x4109
 2314 00f3 00       		.byte	0
 2315 00f4 11       		.uleb128 0x11
 2316 00f5 01       		.uleb128 0x1
 2317 00f6 31       		.uleb128 0x31
 2318 00f7 13       		.uleb128 0x13
 2319 00f8 00       		.byte	0
 2320 00f9 00       		.byte	0
ARM GAS  G:\Users\Jaxb\AppData\Local\Temp\ccqTkcFy.s 			page 47


 2321 00fa 14       		.uleb128 0x14
 2322 00fb 898201   		.uleb128 0x4109
 2323 00fe 00       		.byte	0
 2324 00ff 11       		.uleb128 0x11
 2325 0100 01       		.uleb128 0x1
 2326 0101 9542     		.uleb128 0x2115
 2327 0103 0C       		.uleb128 0xc
 2328 0104 31       		.uleb128 0x31
 2329 0105 13       		.uleb128 0x13
 2330 0106 00       		.byte	0
 2331 0107 00       		.byte	0
 2332 0108 15       		.uleb128 0x15
 2333 0109 898201   		.uleb128 0x4109
 2334 010c 01       		.byte	0x1
 2335 010d 11       		.uleb128 0x11
 2336 010e 01       		.uleb128 0x1
 2337 010f 31       		.uleb128 0x31
 2338 0110 13       		.uleb128 0x13
 2339 0111 00       		.byte	0
 2340 0112 00       		.byte	0
 2341 0113 16       		.uleb128 0x16
 2342 0114 8A8201   		.uleb128 0x410a
 2343 0117 00       		.byte	0
 2344 0118 02       		.uleb128 0x2
 2345 0119 0A       		.uleb128 0xa
 2346 011a 9142     		.uleb128 0x2111
 2347 011c 0A       		.uleb128 0xa
 2348 011d 00       		.byte	0
 2349 011e 00       		.byte	0
 2350 011f 17       		.uleb128 0x17
 2351 0120 2E       		.uleb128 0x2e
 2352 0121 01       		.byte	0x1
 2353 0122 3F       		.uleb128 0x3f
 2354 0123 0C       		.uleb128 0xc
 2355 0124 03       		.uleb128 0x3
 2356 0125 08       		.uleb128 0x8
 2357 0126 3A       		.uleb128 0x3a
 2358 0127 0B       		.uleb128 0xb
 2359 0128 3B       		.uleb128 0x3b
 2360 0129 0B       		.uleb128 0xb
 2361 012a 27       		.uleb128 0x27
 2362 012b 0C       		.uleb128 0xc
 2363 012c 49       		.uleb128 0x49
 2364 012d 13       		.uleb128 0x13
 2365 012e 11       		.uleb128 0x11
 2366 012f 01       		.uleb128 0x1
 2367 0130 12       		.uleb128 0x12
 2368 0131 01       		.uleb128 0x1
 2369 0132 40       		.uleb128 0x40
 2370 0133 06       		.uleb128 0x6
 2371 0134 9742     		.uleb128 0x2117
 2372 0136 0C       		.uleb128 0xc
 2373 0137 01       		.uleb128 0x1
 2374 0138 13       		.uleb128 0x13
 2375 0139 00       		.byte	0
 2376 013a 00       		.byte	0
 2377 013b 18       		.uleb128 0x18
ARM GAS  G:\Users\Jaxb\AppData\Local\Temp\ccqTkcFy.s 			page 48


 2378 013c 0B       		.uleb128 0xb
 2379 013d 01       		.byte	0x1
 2380 013e 55       		.uleb128 0x55
 2381 013f 06       		.uleb128 0x6
 2382 0140 01       		.uleb128 0x1
 2383 0141 13       		.uleb128 0x13
 2384 0142 00       		.byte	0
 2385 0143 00       		.byte	0
 2386 0144 19       		.uleb128 0x19
 2387 0145 898201   		.uleb128 0x4109
 2388 0148 01       		.byte	0x1
 2389 0149 11       		.uleb128 0x11
 2390 014a 01       		.uleb128 0x1
 2391 014b 31       		.uleb128 0x31
 2392 014c 13       		.uleb128 0x13
 2393 014d 01       		.uleb128 0x1
 2394 014e 13       		.uleb128 0x13
 2395 014f 00       		.byte	0
 2396 0150 00       		.byte	0
 2397 0151 1A       		.uleb128 0x1a
 2398 0152 34       		.uleb128 0x34
 2399 0153 00       		.byte	0
 2400 0154 03       		.uleb128 0x3
 2401 0155 0E       		.uleb128 0xe
 2402 0156 3A       		.uleb128 0x3a
 2403 0157 0B       		.uleb128 0xb
 2404 0158 3B       		.uleb128 0x3b
 2405 0159 0B       		.uleb128 0xb
 2406 015a 49       		.uleb128 0x49
 2407 015b 13       		.uleb128 0x13
 2408 015c 02       		.uleb128 0x2
 2409 015d 0A       		.uleb128 0xa
 2410 015e 00       		.byte	0
 2411 015f 00       		.byte	0
 2412 0160 1B       		.uleb128 0x1b
 2413 0161 2E       		.uleb128 0x2e
 2414 0162 01       		.byte	0x1
 2415 0163 3F       		.uleb128 0x3f
 2416 0164 0C       		.uleb128 0xc
 2417 0165 03       		.uleb128 0x3
 2418 0166 0E       		.uleb128 0xe
 2419 0167 3A       		.uleb128 0x3a
 2420 0168 0B       		.uleb128 0xb
 2421 0169 3B       		.uleb128 0x3b
 2422 016a 0B       		.uleb128 0xb
 2423 016b 27       		.uleb128 0x27
 2424 016c 0C       		.uleb128 0xc
 2425 016d 49       		.uleb128 0x49
 2426 016e 13       		.uleb128 0x13
 2427 016f 11       		.uleb128 0x11
 2428 0170 01       		.uleb128 0x1
 2429 0171 12       		.uleb128 0x12
 2430 0172 01       		.uleb128 0x1
 2431 0173 40       		.uleb128 0x40
 2432 0174 06       		.uleb128 0x6
 2433 0175 9742     		.uleb128 0x2117
 2434 0177 0C       		.uleb128 0xc
ARM GAS  G:\Users\Jaxb\AppData\Local\Temp\ccqTkcFy.s 			page 49


 2435 0178 01       		.uleb128 0x1
 2436 0179 13       		.uleb128 0x13
 2437 017a 00       		.byte	0
 2438 017b 00       		.byte	0
 2439 017c 1C       		.uleb128 0x1c
 2440 017d 05       		.uleb128 0x5
 2441 017e 00       		.byte	0
 2442 017f 03       		.uleb128 0x3
 2443 0180 08       		.uleb128 0x8
 2444 0181 3A       		.uleb128 0x3a
 2445 0182 0B       		.uleb128 0xb
 2446 0183 3B       		.uleb128 0x3b
 2447 0184 0B       		.uleb128 0xb
 2448 0185 49       		.uleb128 0x49
 2449 0186 13       		.uleb128 0x13
 2450 0187 02       		.uleb128 0x2
 2451 0188 06       		.uleb128 0x6
 2452 0189 00       		.byte	0
 2453 018a 00       		.byte	0
 2454 018b 1D       		.uleb128 0x1d
 2455 018c 2E       		.uleb128 0x2e
 2456 018d 01       		.byte	0x1
 2457 018e 03       		.uleb128 0x3
 2458 018f 0E       		.uleb128 0xe
 2459 0190 3A       		.uleb128 0x3a
 2460 0191 0B       		.uleb128 0xb
 2461 0192 3B       		.uleb128 0x3b
 2462 0193 0B       		.uleb128 0xb
 2463 0194 27       		.uleb128 0x27
 2464 0195 0C       		.uleb128 0xc
 2465 0196 49       		.uleb128 0x49
 2466 0197 13       		.uleb128 0x13
 2467 0198 11       		.uleb128 0x11
 2468 0199 01       		.uleb128 0x1
 2469 019a 12       		.uleb128 0x12
 2470 019b 01       		.uleb128 0x1
 2471 019c 40       		.uleb128 0x40
 2472 019d 0A       		.uleb128 0xa
 2473 019e 9742     		.uleb128 0x2117
 2474 01a0 0C       		.uleb128 0xc
 2475 01a1 01       		.uleb128 0x1
 2476 01a2 13       		.uleb128 0x13
 2477 01a3 00       		.byte	0
 2478 01a4 00       		.byte	0
 2479 01a5 1E       		.uleb128 0x1e
 2480 01a6 05       		.uleb128 0x5
 2481 01a7 00       		.byte	0
 2482 01a8 03       		.uleb128 0x3
 2483 01a9 0E       		.uleb128 0xe
 2484 01aa 3A       		.uleb128 0x3a
 2485 01ab 0B       		.uleb128 0xb
 2486 01ac 3B       		.uleb128 0x3b
 2487 01ad 0B       		.uleb128 0xb
 2488 01ae 49       		.uleb128 0x49
 2489 01af 13       		.uleb128 0x13
 2490 01b0 02       		.uleb128 0x2
 2491 01b1 0A       		.uleb128 0xa
ARM GAS  G:\Users\Jaxb\AppData\Local\Temp\ccqTkcFy.s 			page 50


 2492 01b2 00       		.byte	0
 2493 01b3 00       		.byte	0
 2494 01b4 1F       		.uleb128 0x1f
 2495 01b5 2E       		.uleb128 0x2e
 2496 01b6 00       		.byte	0
 2497 01b7 3F       		.uleb128 0x3f
 2498 01b8 0C       		.uleb128 0xc
 2499 01b9 3C       		.uleb128 0x3c
 2500 01ba 0C       		.uleb128 0xc
 2501 01bb 8740     		.uleb128 0x2007
 2502 01bd 0E       		.uleb128 0xe
 2503 01be 03       		.uleb128 0x3
 2504 01bf 0E       		.uleb128 0xe
 2505 01c0 3A       		.uleb128 0x3a
 2506 01c1 0B       		.uleb128 0xb
 2507 01c2 3B       		.uleb128 0x3b
 2508 01c3 0B       		.uleb128 0xb
 2509 01c4 00       		.byte	0
 2510 01c5 00       		.byte	0
 2511 01c6 00       		.byte	0
 2512              		.section	.debug_loc,"",%progbits
 2513              	.Ldebug_loc0:
 2514              	.LLST22:
 2515 0000 88020000 		.4byte	.LFB18-.Ltext0
 2516 0004 8A020000 		.4byte	.LCFI9-.Ltext0
 2517 0008 0200     		.2byte	0x2
 2518 000a 7D       		.byte	0x7d
 2519 000b 00       		.sleb128 0
 2520 000c 8A020000 		.4byte	.LCFI9-.Ltext0
 2521 0010 A0020000 		.4byte	.LCFI10-.Ltext0
 2522 0014 0200     		.2byte	0x2
 2523 0016 7D       		.byte	0x7d
 2524 0017 08       		.sleb128 8
 2525 0018 A0020000 		.4byte	.LCFI10-.Ltext0
 2526 001c A4020000 		.4byte	.LCFI11-.Ltext0
 2527 0020 0200     		.2byte	0x2
 2528 0022 7D       		.byte	0x7d
 2529 0023 00       		.sleb128 0
 2530 0024 A4020000 		.4byte	.LCFI11-.Ltext0
 2531 0028 B4020000 		.4byte	.LFE18-.Ltext0
 2532 002c 0200     		.2byte	0x2
 2533 002e 7D       		.byte	0x7d
 2534 002f 08       		.sleb128 8
 2535 0030 00000000 		.4byte	0
 2536 0034 00000000 		.4byte	0
 2537              	.LLST23:
 2538 0038 88020000 		.4byte	.LVL102-.Ltext0
 2539 003c 8E020000 		.4byte	.LVL103-.Ltext0
 2540 0040 0100     		.2byte	0x1
 2541 0042 50       		.byte	0x50
 2542 0043 8E020000 		.4byte	.LVL103-.Ltext0
 2543 0047 A0020000 		.4byte	.LVL105-.Ltext0
 2544 004b 0100     		.2byte	0x1
 2545 004d 54       		.byte	0x54
 2546 004e A0020000 		.4byte	.LVL105-.Ltext0
 2547 0052 A4020000 		.4byte	.LVL106-.Ltext0
 2548 0056 0400     		.2byte	0x4
ARM GAS  G:\Users\Jaxb\AppData\Local\Temp\ccqTkcFy.s 			page 51


 2549 0058 F3       		.byte	0xf3
 2550 0059 01       		.uleb128 0x1
 2551 005a 50       		.byte	0x50
 2552 005b 9F       		.byte	0x9f
 2553 005c A4020000 		.4byte	.LVL106-.Ltext0
 2554 0060 A8020000 		.4byte	.LVL107-.Ltext0
 2555 0064 0100     		.2byte	0x1
 2556 0066 50       		.byte	0x50
 2557 0067 A8020000 		.4byte	.LVL107-.Ltext0
 2558 006b B4020000 		.4byte	.LFE18-.Ltext0
 2559 006f 0100     		.2byte	0x1
 2560 0071 54       		.byte	0x54
 2561 0072 00000000 		.4byte	0
 2562 0076 00000000 		.4byte	0
 2563              	.LLST24:
 2564 007a 8E020000 		.4byte	.LVL103-.Ltext0
 2565 007e 92020000 		.4byte	.LVL104-.Ltext0
 2566 0082 0200     		.2byte	0x2
 2567 0084 30       		.byte	0x30
 2568 0085 9F       		.byte	0x9f
 2569 0086 92020000 		.4byte	.LVL104-.Ltext0
 2570 008a A3020000 		.4byte	.LVL106-1-.Ltext0
 2571 008e 0100     		.2byte	0x1
 2572 0090 50       		.byte	0x50
 2573 0091 00000000 		.4byte	0
 2574 0095 00000000 		.4byte	0
 2575              	.LLST18:
 2576 0099 00020000 		.4byte	.LFB17-.Ltext0
 2577 009d 02020000 		.4byte	.LCFI8-.Ltext0
 2578 00a1 0200     		.2byte	0x2
 2579 00a3 7D       		.byte	0x7d
 2580 00a4 00       		.sleb128 0
 2581 00a5 02020000 		.4byte	.LCFI8-.Ltext0
 2582 00a9 88020000 		.4byte	.LFE17-.Ltext0
 2583 00ad 0200     		.2byte	0x2
 2584 00af 7D       		.byte	0x7d
 2585 00b0 10       		.sleb128 16
 2586 00b1 00000000 		.4byte	0
 2587 00b5 00000000 		.4byte	0
 2588              	.LLST19:
 2589 00b9 00020000 		.4byte	.LVL78-.Ltext0
 2590 00bd 09020000 		.4byte	.LVL80-1-.Ltext0
 2591 00c1 0100     		.2byte	0x1
 2592 00c3 50       		.byte	0x50
 2593 00c4 09020000 		.4byte	.LVL80-1-.Ltext0
 2594 00c8 60020000 		.4byte	.LVL94-.Ltext0
 2595 00cc 0100     		.2byte	0x1
 2596 00ce 54       		.byte	0x54
 2597 00cf 60020000 		.4byte	.LVL94-.Ltext0
 2598 00d3 64020000 		.4byte	.LVL95-.Ltext0
 2599 00d7 0100     		.2byte	0x1
 2600 00d9 50       		.byte	0x50
 2601 00da 64020000 		.4byte	.LVL95-.Ltext0
 2602 00de 88020000 		.4byte	.LFE17-.Ltext0
 2603 00e2 0100     		.2byte	0x1
 2604 00e4 54       		.byte	0x54
 2605 00e5 00000000 		.4byte	0
ARM GAS  G:\Users\Jaxb\AppData\Local\Temp\ccqTkcFy.s 			page 52


 2606 00e9 00000000 		.4byte	0
 2607              	.LLST20:
 2608 00ed 06020000 		.4byte	.LVL79-.Ltext0
 2609 00f1 0E020000 		.4byte	.LVL81-.Ltext0
 2610 00f5 0200     		.2byte	0x2
 2611 00f7 30       		.byte	0x30
 2612 00f8 9F       		.byte	0x9f
 2613 00f9 0E020000 		.4byte	.LVL81-.Ltext0
 2614 00fd 24020000 		.4byte	.LVL82-.Ltext0
 2615 0101 0100     		.2byte	0x1
 2616 0103 50       		.byte	0x50
 2617 0104 24020000 		.4byte	.LVL82-.Ltext0
 2618 0108 2E020000 		.4byte	.LVL84-.Ltext0
 2619 010c 0100     		.2byte	0x1
 2620 010e 55       		.byte	0x55
 2621 010f 2E020000 		.4byte	.LVL84-.Ltext0
 2622 0113 34020000 		.4byte	.LVL85-.Ltext0
 2623 0117 0100     		.2byte	0x1
 2624 0119 50       		.byte	0x50
 2625 011a 34020000 		.4byte	.LVL85-.Ltext0
 2626 011e 52020000 		.4byte	.LVL91-.Ltext0
 2627 0122 0100     		.2byte	0x1
 2628 0124 55       		.byte	0x55
 2629 0125 52020000 		.4byte	.LVL91-.Ltext0
 2630 0129 56020000 		.4byte	.LVL92-.Ltext0
 2631 012d 0100     		.2byte	0x1
 2632 012f 50       		.byte	0x50
 2633 0130 56020000 		.4byte	.LVL92-.Ltext0
 2634 0134 60020000 		.4byte	.LVL94-.Ltext0
 2635 0138 0100     		.2byte	0x1
 2636 013a 55       		.byte	0x55
 2637 013b 72020000 		.4byte	.LVL98-.Ltext0
 2638 013f 88020000 		.4byte	.LFE17-.Ltext0
 2639 0143 0100     		.2byte	0x1
 2640 0145 55       		.byte	0x55
 2641 0146 00000000 		.4byte	0
 2642 014a 00000000 		.4byte	0
 2643              	.LLST21:
 2644 014e 3A020000 		.4byte	.LVL87-.Ltext0
 2645 0152 44020000 		.4byte	.LVL88-.Ltext0
 2646 0156 0100     		.2byte	0x1
 2647 0158 50       		.byte	0x50
 2648 0159 72020000 		.4byte	.LVL98-.Ltext0
 2649 015d 75020000 		.4byte	.LVL99-1-.Ltext0
 2650 0161 0100     		.2byte	0x1
 2651 0163 50       		.byte	0x50
 2652 0164 78020000 		.4byte	.LVL100-.Ltext0
 2653 0168 7B020000 		.4byte	.LVL101-1-.Ltext0
 2654 016c 0100     		.2byte	0x1
 2655 016e 50       		.byte	0x50
 2656 016f 00000000 		.4byte	0
 2657 0173 00000000 		.4byte	0
 2658              	.LLST12:
 2659 0177 F8000000 		.4byte	.LFB16-.Ltext0
 2660 017b FC000000 		.4byte	.LCFI2-.Ltext0
 2661 017f 0200     		.2byte	0x2
 2662 0181 7D       		.byte	0x7d
ARM GAS  G:\Users\Jaxb\AppData\Local\Temp\ccqTkcFy.s 			page 53


 2663 0182 00       		.sleb128 0
 2664 0183 FC000000 		.4byte	.LCFI2-.Ltext0
 2665 0187 00010000 		.4byte	.LCFI3-.Ltext0
 2666 018b 0200     		.2byte	0x2
 2667 018d 7D       		.byte	0x7d
 2668 018e 24       		.sleb128 36
 2669 018f 00010000 		.4byte	.LCFI3-.Ltext0
 2670 0193 2E010000 		.4byte	.LCFI4-.Ltext0
 2671 0197 0300     		.2byte	0x3
 2672 0199 7D       		.byte	0x7d
 2673 019a C000     		.sleb128 64
 2674 019c 2E010000 		.4byte	.LCFI4-.Ltext0
 2675 01a0 32010000 		.4byte	.LCFI5-.Ltext0
 2676 01a4 0200     		.2byte	0x2
 2677 01a6 7D       		.byte	0x7d
 2678 01a7 24       		.sleb128 36
 2679 01a8 32010000 		.4byte	.LCFI5-.Ltext0
 2680 01ac C8010000 		.4byte	.LCFI6-.Ltext0
 2681 01b0 0300     		.2byte	0x3
 2682 01b2 7D       		.byte	0x7d
 2683 01b3 C000     		.sleb128 64
 2684 01b5 C8010000 		.4byte	.LCFI6-.Ltext0
 2685 01b9 CC010000 		.4byte	.LCFI7-.Ltext0
 2686 01bd 0200     		.2byte	0x2
 2687 01bf 7D       		.byte	0x7d
 2688 01c0 24       		.sleb128 36
 2689 01c1 CC010000 		.4byte	.LCFI7-.Ltext0
 2690 01c5 00020000 		.4byte	.LFE16-.Ltext0
 2691 01c9 0300     		.2byte	0x3
 2692 01cb 7D       		.byte	0x7d
 2693 01cc C000     		.sleb128 64
 2694 01ce 00000000 		.4byte	0
 2695 01d2 00000000 		.4byte	0
 2696              	.LLST13:
 2697 01d6 F8000000 		.4byte	.LVL42-.Ltext0
 2698 01da 0B010000 		.4byte	.LVL44-1-.Ltext0
 2699 01de 0100     		.2byte	0x1
 2700 01e0 50       		.byte	0x50
 2701 01e1 0B010000 		.4byte	.LVL44-1-.Ltext0
 2702 01e5 24010000 		.4byte	.LVL46-.Ltext0
 2703 01e9 0100     		.2byte	0x1
 2704 01eb 54       		.byte	0x54
 2705 01ec 24010000 		.4byte	.LVL46-.Ltext0
 2706 01f0 32010000 		.4byte	.LVL48-.Ltext0
 2707 01f4 0400     		.2byte	0x4
 2708 01f6 F3       		.byte	0xf3
 2709 01f7 01       		.uleb128 0x1
 2710 01f8 50       		.byte	0x50
 2711 01f9 9F       		.byte	0x9f
 2712 01fa 32010000 		.4byte	.LVL48-.Ltext0
 2713 01fe 7E010000 		.4byte	.LVL60-.Ltext0
 2714 0202 0100     		.2byte	0x1
 2715 0204 54       		.byte	0x54
 2716 0205 7E010000 		.4byte	.LVL60-.Ltext0
 2717 0209 92010000 		.4byte	.LVL62-.Ltext0
 2718 020d 0400     		.2byte	0x4
 2719 020f F3       		.byte	0xf3
ARM GAS  G:\Users\Jaxb\AppData\Local\Temp\ccqTkcFy.s 			page 54


 2720 0210 01       		.uleb128 0x1
 2721 0211 50       		.byte	0x50
 2722 0212 9F       		.byte	0x9f
 2723 0213 92010000 		.4byte	.LVL62-.Ltext0
 2724 0217 B4010000 		.4byte	.LVL68-.Ltext0
 2725 021b 0100     		.2byte	0x1
 2726 021d 54       		.byte	0x54
 2727 021e B4010000 		.4byte	.LVL68-.Ltext0
 2728 0222 B8010000 		.4byte	.LVL70-.Ltext0
 2729 0226 0100     		.2byte	0x1
 2730 0228 50       		.byte	0x50
 2731 0229 B8010000 		.4byte	.LVL70-.Ltext0
 2732 022d 00020000 		.4byte	.LFE16-.Ltext0
 2733 0231 0100     		.2byte	0x1
 2734 0233 54       		.byte	0x54
 2735 0234 00000000 		.4byte	0
 2736 0238 00000000 		.4byte	0
 2737              	.LLST14:
 2738 023c F8000000 		.4byte	.LVL42-.Ltext0
 2739 0240 0B010000 		.4byte	.LVL44-1-.Ltext0
 2740 0244 0100     		.2byte	0x1
 2741 0246 51       		.byte	0x51
 2742 0247 0B010000 		.4byte	.LVL44-1-.Ltext0
 2743 024b B4010000 		.4byte	.LVL68-.Ltext0
 2744 024f 0400     		.2byte	0x4
 2745 0251 F3       		.byte	0xf3
 2746 0252 01       		.uleb128 0x1
 2747 0253 51       		.byte	0x51
 2748 0254 9F       		.byte	0x9f
 2749 0255 B4010000 		.4byte	.LVL68-.Ltext0
 2750 0259 B6010000 		.4byte	.LVL69-.Ltext0
 2751 025d 0100     		.2byte	0x1
 2752 025f 51       		.byte	0x51
 2753 0260 B6010000 		.4byte	.LVL69-.Ltext0
 2754 0264 00020000 		.4byte	.LFE16-.Ltext0
 2755 0268 0400     		.2byte	0x4
 2756 026a F3       		.byte	0xf3
 2757 026b 01       		.uleb128 0x1
 2758 026c 51       		.byte	0x51
 2759 026d 9F       		.byte	0x9f
 2760 026e 00000000 		.4byte	0
 2761 0272 00000000 		.4byte	0
 2762              	.LLST15:
 2763 0276 F8000000 		.4byte	.LVL42-.Ltext0
 2764 027a 0B010000 		.4byte	.LVL44-1-.Ltext0
 2765 027e 0100     		.2byte	0x1
 2766 0280 52       		.byte	0x52
 2767 0281 0B010000 		.4byte	.LVL44-1-.Ltext0
 2768 0285 B4010000 		.4byte	.LVL68-.Ltext0
 2769 0289 0100     		.2byte	0x1
 2770 028b 57       		.byte	0x57
 2771 028c B4010000 		.4byte	.LVL68-.Ltext0
 2772 0290 BB010000 		.4byte	.LVL71-1-.Ltext0
 2773 0294 0100     		.2byte	0x1
 2774 0296 52       		.byte	0x52
 2775 0297 BB010000 		.4byte	.LVL71-1-.Ltext0
 2776 029b 00020000 		.4byte	.LFE16-.Ltext0
ARM GAS  G:\Users\Jaxb\AppData\Local\Temp\ccqTkcFy.s 			page 55


 2777 029f 0100     		.2byte	0x1
 2778 02a1 57       		.byte	0x57
 2779 02a2 00000000 		.4byte	0
 2780 02a6 00000000 		.4byte	0
 2781              	.LLST16:
 2782 02aa 08010000 		.4byte	.LVL43-.Ltext0
 2783 02ae 10010000 		.4byte	.LVL45-.Ltext0
 2784 02b2 0200     		.2byte	0x2
 2785 02b4 30       		.byte	0x30
 2786 02b5 9F       		.byte	0x9f
 2787 02b6 10010000 		.4byte	.LVL45-.Ltext0
 2788 02ba 24010000 		.4byte	.LVL46-.Ltext0
 2789 02be 0100     		.2byte	0x1
 2790 02c0 50       		.byte	0x50
 2791 02c1 24010000 		.4byte	.LVL46-.Ltext0
 2792 02c5 32010000 		.4byte	.LVL48-.Ltext0
 2793 02c9 0100     		.2byte	0x1
 2794 02cb 56       		.byte	0x56
 2795 02cc 32010000 		.4byte	.LVL48-.Ltext0
 2796 02d0 36010000 		.4byte	.LVL49-.Ltext0
 2797 02d4 0100     		.2byte	0x1
 2798 02d6 50       		.byte	0x50
 2799 02d7 36010000 		.4byte	.LVL49-.Ltext0
 2800 02db 62010000 		.4byte	.LVL57-.Ltext0
 2801 02df 0100     		.2byte	0x1
 2802 02e1 56       		.byte	0x56
 2803 02e2 62010000 		.4byte	.LVL57-.Ltext0
 2804 02e6 65010000 		.4byte	.LVL58-1-.Ltext0
 2805 02ea 0100     		.2byte	0x1
 2806 02ec 50       		.byte	0x50
 2807 02ed 65010000 		.4byte	.LVL58-1-.Ltext0
 2808 02f1 92010000 		.4byte	.LVL62-.Ltext0
 2809 02f5 0100     		.2byte	0x1
 2810 02f7 56       		.byte	0x56
 2811 02f8 92010000 		.4byte	.LVL62-.Ltext0
 2812 02fc 99010000 		.4byte	.LVL63-1-.Ltext0
 2813 0300 0100     		.2byte	0x1
 2814 0302 50       		.byte	0x50
 2815 0303 99010000 		.4byte	.LVL63-1-.Ltext0
 2816 0307 B2010000 		.4byte	.LVL67-.Ltext0
 2817 030b 0100     		.2byte	0x1
 2818 030d 56       		.byte	0x56
 2819 030e B2010000 		.4byte	.LVL67-.Ltext0
 2820 0312 B4010000 		.4byte	.LVL68-.Ltext0
 2821 0316 0100     		.2byte	0x1
 2822 0318 50       		.byte	0x50
 2823 0319 CC010000 		.4byte	.LVL73-.Ltext0
 2824 031d CF010000 		.4byte	.LVL74-1-.Ltext0
 2825 0321 0100     		.2byte	0x1
 2826 0323 50       		.byte	0x50
 2827 0324 CF010000 		.4byte	.LVL74-1-.Ltext0
 2828 0328 00020000 		.4byte	.LFE16-.Ltext0
 2829 032c 0100     		.2byte	0x1
 2830 032e 56       		.byte	0x56
 2831 032f 00000000 		.4byte	0
 2832 0333 00000000 		.4byte	0
 2833              	.LLST17:
ARM GAS  G:\Users\Jaxb\AppData\Local\Temp\ccqTkcFy.s 			page 56


 2834 0337 50010000 		.4byte	.LVL53-.Ltext0
 2835 033b 76010000 		.4byte	.LVL59-.Ltext0
 2836 033f 0600     		.2byte	0x6
 2837 0341 5A       		.byte	0x5a
 2838 0342 93       		.byte	0x93
 2839 0343 04       		.uleb128 0x4
 2840 0344 5B       		.byte	0x5b
 2841 0345 93       		.byte	0x93
 2842 0346 04       		.uleb128 0x4
 2843 0347 D6010000 		.4byte	.LVL75-.Ltext0
 2844 034b 00020000 		.4byte	.LFE16-.Ltext0
 2845 034f 0600     		.2byte	0x6
 2846 0351 5A       		.byte	0x5a
 2847 0352 93       		.byte	0x93
 2848 0353 04       		.uleb128 0x4
 2849 0354 5B       		.byte	0x5b
 2850 0355 93       		.byte	0x93
 2851 0356 04       		.uleb128 0x4
 2852 0357 00000000 		.4byte	0
 2853 035b 00000000 		.4byte	0
 2854              	.LLST7:
 2855 035f 84000000 		.4byte	.LFB15-.Ltext0
 2856 0363 86000000 		.4byte	.LCFI1-.Ltext0
 2857 0367 0200     		.2byte	0x2
 2858 0369 7D       		.byte	0x7d
 2859 036a 00       		.sleb128 0
 2860 036b 86000000 		.4byte	.LCFI1-.Ltext0
 2861 036f F8000000 		.4byte	.LFE15-.Ltext0
 2862 0373 0200     		.2byte	0x2
 2863 0375 7D       		.byte	0x7d
 2864 0376 18       		.sleb128 24
 2865 0377 00000000 		.4byte	0
 2866 037b 00000000 		.4byte	0
 2867              	.LLST8:
 2868 037f 84000000 		.4byte	.LVL19-.Ltext0
 2869 0383 8D000000 		.4byte	.LVL21-1-.Ltext0
 2870 0387 0100     		.2byte	0x1
 2871 0389 50       		.byte	0x50
 2872 038a 8D000000 		.4byte	.LVL21-1-.Ltext0
 2873 038e DC000000 		.4byte	.LVL37-.Ltext0
 2874 0392 0100     		.2byte	0x1
 2875 0394 55       		.byte	0x55
 2876 0395 DC000000 		.4byte	.LVL37-.Ltext0
 2877 0399 E0000000 		.4byte	.LVL38-.Ltext0
 2878 039d 0100     		.2byte	0x1
 2879 039f 50       		.byte	0x50
 2880 03a0 E0000000 		.4byte	.LVL38-.Ltext0
 2881 03a4 F0000000 		.4byte	.LVL41-.Ltext0
 2882 03a8 0100     		.2byte	0x1
 2883 03aa 55       		.byte	0x55
 2884 03ab F0000000 		.4byte	.LVL41-.Ltext0
 2885 03af F8000000 		.4byte	.LFE15-.Ltext0
 2886 03b3 0400     		.2byte	0x4
 2887 03b5 F3       		.byte	0xf3
 2888 03b6 01       		.uleb128 0x1
 2889 03b7 50       		.byte	0x50
 2890 03b8 9F       		.byte	0x9f
ARM GAS  G:\Users\Jaxb\AppData\Local\Temp\ccqTkcFy.s 			page 57


 2891 03b9 00000000 		.4byte	0
 2892 03bd 00000000 		.4byte	0
 2893              	.LLST9:
 2894 03c1 9C000000 		.4byte	.LVL25-.Ltext0
 2895 03c5 BE000000 		.4byte	.LVL30-.Ltext0
 2896 03c9 0100     		.2byte	0x1
 2897 03cb 54       		.byte	0x54
 2898 03cc C0000000 		.4byte	.LVL31-.Ltext0
 2899 03d0 CE000000 		.4byte	.LVL34-.Ltext0
 2900 03d4 0100     		.2byte	0x1
 2901 03d6 54       		.byte	0x54
 2902 03d7 00000000 		.4byte	0
 2903 03db 00000000 		.4byte	0
 2904              	.LLST10:
 2905 03df 8A000000 		.4byte	.LVL20-.Ltext0
 2906 03e3 90000000 		.4byte	.LVL22-.Ltext0
 2907 03e7 0200     		.2byte	0x2
 2908 03e9 30       		.byte	0x30
 2909 03ea 9F       		.byte	0x9f
 2910 03eb 90000000 		.4byte	.LVL22-.Ltext0
 2911 03ef 92000000 		.4byte	.LVL23-.Ltext0
 2912 03f3 0100     		.2byte	0x1
 2913 03f5 50       		.byte	0x50
 2914 03f6 92000000 		.4byte	.LVL23-.Ltext0
 2915 03fa DC000000 		.4byte	.LVL37-.Ltext0
 2916 03fe 0100     		.2byte	0x1
 2917 0400 57       		.byte	0x57
 2918 0401 00000000 		.4byte	0
 2919 0405 00000000 		.4byte	0
 2920              	.LLST11:
 2921 0409 96000000 		.4byte	.LVL24-.Ltext0
 2922 040d A4000000 		.4byte	.LVL26-.Ltext0
 2923 0411 0100     		.2byte	0x1
 2924 0413 50       		.byte	0x50
 2925 0414 BC000000 		.4byte	.LVL29-.Ltext0
 2926 0418 C8000000 		.4byte	.LVL32-.Ltext0
 2927 041c 0100     		.2byte	0x1
 2928 041e 50       		.byte	0x50
 2929 041f CE000000 		.4byte	.LVL34-.Ltext0
 2930 0423 D1000000 		.4byte	.LVL35-1-.Ltext0
 2931 0427 0100     		.2byte	0x1
 2932 0429 50       		.byte	0x50
 2933 042a 00000000 		.4byte	0
 2934 042e 00000000 		.4byte	0
 2935              	.LLST2:
 2936 0432 14000000 		.4byte	.LFB14-.Ltext0
 2937 0436 16000000 		.4byte	.LCFI0-.Ltext0
 2938 043a 0200     		.2byte	0x2
 2939 043c 7D       		.byte	0x7d
 2940 043d 00       		.sleb128 0
 2941 043e 16000000 		.4byte	.LCFI0-.Ltext0
 2942 0442 84000000 		.4byte	.LFE14-.Ltext0
 2943 0446 0200     		.2byte	0x2
 2944 0448 7D       		.byte	0x7d
 2945 0449 18       		.sleb128 24
 2946 044a 00000000 		.4byte	0
 2947 044e 00000000 		.4byte	0
ARM GAS  G:\Users\Jaxb\AppData\Local\Temp\ccqTkcFy.s 			page 58


 2948              	.LLST3:
 2949 0452 14000000 		.4byte	.LVL4-.Ltext0
 2950 0456 21000000 		.4byte	.LVL6-1-.Ltext0
 2951 045a 0100     		.2byte	0x1
 2952 045c 50       		.byte	0x50
 2953 045d 21000000 		.4byte	.LVL6-1-.Ltext0
 2954 0461 50000000 		.4byte	.LVL11-.Ltext0
 2955 0465 0100     		.2byte	0x1
 2956 0467 54       		.byte	0x54
 2957 0468 50000000 		.4byte	.LVL11-.Ltext0
 2958 046c 54000000 		.4byte	.LVL13-.Ltext0
 2959 0470 0100     		.2byte	0x1
 2960 0472 50       		.byte	0x50
 2961 0473 54000000 		.4byte	.LVL13-.Ltext0
 2962 0477 6E000000 		.4byte	.LVL18-.Ltext0
 2963 047b 0100     		.2byte	0x1
 2964 047d 54       		.byte	0x54
 2965 047e 6E000000 		.4byte	.LVL18-.Ltext0
 2966 0482 84000000 		.4byte	.LFE14-.Ltext0
 2967 0486 0400     		.2byte	0x4
 2968 0488 F3       		.byte	0xf3
 2969 0489 01       		.uleb128 0x1
 2970 048a 50       		.byte	0x50
 2971 048b 9F       		.byte	0x9f
 2972 048c 00000000 		.4byte	0
 2973 0490 00000000 		.4byte	0
 2974              	.LLST4:
 2975 0494 14000000 		.4byte	.LVL4-.Ltext0
 2976 0498 21000000 		.4byte	.LVL6-1-.Ltext0
 2977 049c 0100     		.2byte	0x1
 2978 049e 51       		.byte	0x51
 2979 049f 21000000 		.4byte	.LVL6-1-.Ltext0
 2980 04a3 50000000 		.4byte	.LVL11-.Ltext0
 2981 04a7 0100     		.2byte	0x1
 2982 04a9 56       		.byte	0x56
 2983 04aa 50000000 		.4byte	.LVL11-.Ltext0
 2984 04ae 52000000 		.4byte	.LVL12-.Ltext0
 2985 04b2 0100     		.2byte	0x1
 2986 04b4 51       		.byte	0x51
 2987 04b5 52000000 		.4byte	.LVL12-.Ltext0
 2988 04b9 6E000000 		.4byte	.LVL18-.Ltext0
 2989 04bd 0100     		.2byte	0x1
 2990 04bf 56       		.byte	0x56
 2991 04c0 6E000000 		.4byte	.LVL18-.Ltext0
 2992 04c4 84000000 		.4byte	.LFE14-.Ltext0
 2993 04c8 0400     		.2byte	0x4
 2994 04ca F3       		.byte	0xf3
 2995 04cb 01       		.uleb128 0x1
 2996 04cc 51       		.byte	0x51
 2997 04cd 9F       		.byte	0x9f
 2998 04ce 00000000 		.4byte	0
 2999 04d2 00000000 		.4byte	0
 3000              	.LLST5:
 3001 04d6 14000000 		.4byte	.LVL4-.Ltext0
 3002 04da 21000000 		.4byte	.LVL6-1-.Ltext0
 3003 04de 0100     		.2byte	0x1
 3004 04e0 52       		.byte	0x52
ARM GAS  G:\Users\Jaxb\AppData\Local\Temp\ccqTkcFy.s 			page 59


 3005 04e1 21000000 		.4byte	.LVL6-1-.Ltext0
 3006 04e5 50000000 		.4byte	.LVL11-.Ltext0
 3007 04e9 0100     		.2byte	0x1
 3008 04eb 55       		.byte	0x55
 3009 04ec 50000000 		.4byte	.LVL11-.Ltext0
 3010 04f0 57000000 		.4byte	.LVL14-1-.Ltext0
 3011 04f4 0100     		.2byte	0x1
 3012 04f6 52       		.byte	0x52
 3013 04f7 57000000 		.4byte	.LVL14-1-.Ltext0
 3014 04fb 6E000000 		.4byte	.LVL18-.Ltext0
 3015 04ff 0100     		.2byte	0x1
 3016 0501 55       		.byte	0x55
 3017 0502 6E000000 		.4byte	.LVL18-.Ltext0
 3018 0506 84000000 		.4byte	.LFE14-.Ltext0
 3019 050a 0400     		.2byte	0x4
 3020 050c F3       		.byte	0xf3
 3021 050d 01       		.uleb128 0x1
 3022 050e 52       		.byte	0x52
 3023 050f 9F       		.byte	0x9f
 3024 0510 00000000 		.4byte	0
 3025 0514 00000000 		.4byte	0
 3026              	.LLST6:
 3027 0518 1E000000 		.4byte	.LVL5-.Ltext0
 3028 051c 26000000 		.4byte	.LVL7-.Ltext0
 3029 0520 0200     		.2byte	0x2
 3030 0522 30       		.byte	0x30
 3031 0523 9F       		.byte	0x9f
 3032 0524 26000000 		.4byte	.LVL7-.Ltext0
 3033 0528 36000000 		.4byte	.LVL8-.Ltext0
 3034 052c 0100     		.2byte	0x1
 3035 052e 50       		.byte	0x50
 3036 052f 36000000 		.4byte	.LVL8-.Ltext0
 3037 0533 50000000 		.4byte	.LVL11-.Ltext0
 3038 0537 0100     		.2byte	0x1
 3039 0539 57       		.byte	0x57
 3040 053a 64000000 		.4byte	.LVL16-.Ltext0
 3041 053e 67000000 		.4byte	.LVL17-1-.Ltext0
 3042 0542 0100     		.2byte	0x1
 3043 0544 50       		.byte	0x50
 3044 0545 67000000 		.4byte	.LVL17-1-.Ltext0
 3045 0549 6E000000 		.4byte	.LVL18-.Ltext0
 3046 054d 0100     		.2byte	0x1
 3047 054f 57       		.byte	0x57
 3048 0550 00000000 		.4byte	0
 3049 0554 00000000 		.4byte	0
 3050              	.LLST1:
 3051 0558 0C000000 		.4byte	.LVL2-.Ltext0
 3052 055c 0E000000 		.4byte	.LVL3-.Ltext0
 3053 0560 0100     		.2byte	0x1
 3054 0562 50       		.byte	0x50
 3055 0563 0E000000 		.4byte	.LVL3-.Ltext0
 3056 0567 14000000 		.4byte	.LFE13-.Ltext0
 3057 056b 0400     		.2byte	0x4
 3058 056d F3       		.byte	0xf3
 3059 056e 01       		.uleb128 0x1
 3060 056f 50       		.byte	0x50
 3061 0570 9F       		.byte	0x9f
ARM GAS  G:\Users\Jaxb\AppData\Local\Temp\ccqTkcFy.s 			page 60


 3062 0571 00000000 		.4byte	0
 3063 0575 00000000 		.4byte	0
 3064              	.LLST0:
 3065 0579 00000000 		.4byte	.LVL0-.Ltext0
 3066 057d 06000000 		.4byte	.LVL1-.Ltext0
 3067 0581 0100     		.2byte	0x1
 3068 0583 50       		.byte	0x50
 3069 0584 06000000 		.4byte	.LVL1-.Ltext0
 3070 0588 0C000000 		.4byte	.LFE12-.Ltext0
 3071 058c 0400     		.2byte	0x4
 3072 058e F3       		.byte	0xf3
 3073 058f 01       		.uleb128 0x1
 3074 0590 50       		.byte	0x50
 3075 0591 9F       		.byte	0x9f
 3076 0592 00000000 		.4byte	0
 3077 0596 00000000 		.4byte	0
 3078              		.section	.debug_aranges,"",%progbits
 3079 0000 1C000000 		.4byte	0x1c
 3080 0004 0200     		.2byte	0x2
 3081 0006 00000000 		.4byte	.Ldebug_info0
 3082 000a 04       		.byte	0x4
 3083 000b 00       		.byte	0
 3084 000c 0000     		.2byte	0
 3085 000e 0000     		.2byte	0
 3086 0010 00000000 		.4byte	.Ltext0
 3087 0014 B4020000 		.4byte	.Letext0-.Ltext0
 3088 0018 00000000 		.4byte	0
 3089 001c 00000000 		.4byte	0
 3090              		.section	.debug_ranges,"",%progbits
 3091              	.Ldebug_ranges0:
 3092 0000 46010000 		.4byte	.LBB2-.Ltext0
 3093 0004 76010000 		.4byte	.LBE2-.Ltext0
 3094 0008 D6010000 		.4byte	.LBB3-.Ltext0
 3095 000c 00020000 		.4byte	.LBE3-.Ltext0
 3096 0010 00000000 		.4byte	0
 3097 0014 00000000 		.4byte	0
 3098 0018 32020000 		.4byte	.LBB4-.Ltext0
 3099 001c 48020000 		.4byte	.LBE4-.Ltext0
 3100 0020 72020000 		.4byte	.LBB5-.Ltext0
 3101 0024 88020000 		.4byte	.LBE5-.Ltext0
 3102 0028 00000000 		.4byte	0
 3103 002c 00000000 		.4byte	0
 3104              		.section	.debug_line,"",%progbits
 3105              	.Ldebug_line0:
 3106 0000 BA020000 		.section	.debug_str,"MS",%progbits,1
 3106      02008301 
 3106      00000201 
 3106      FB0E0D00 
 3106      01010101 
 3107              	.LASF23:
 3108 0000 5441534B 		.ascii	"TASK_PRIO_TYPE\000"
 3108      5F505249 
 3108      4F5F5459 
 3108      504500
 3109              	.LASF13:
 3110 000f 53544154 		.ascii	"STATE_SUSPEND_NORMAL\000"
 3110      455F5355 
ARM GAS  G:\Users\Jaxb\AppData\Local\Temp\ccqTkcFy.s 			page 61


 3110      5350454E 
 3110      445F4E4F 
 3110      524D414C 
 3111              	.LASF24:
 3112 0024 6C697374 		.ascii	"list_head\000"
 3112      5F686561 
 3112      6400
 3113              	.LASF65:
 3114 002e 4D43425F 		.ascii	"MCB_ptr\000"
 3114      70747200 
 3115              	.LASF70:
 3116 0036 74696D65 		.ascii	"time_record\000"
 3116      5F726563 
 3116      6F726400 
 3117              	.LASF47:
 3118 0042 64617461 		.ascii	"data_list_head\000"
 3118      5F6C6973 
 3118      745F6865 
 3118      616400
 3119              	.LASF1:
 3120 0051 73686F72 		.ascii	"short int\000"
 3120      7420696E 
 3120      7400
 3121              	.LASF77:
 3122 005b 4350555F 		.ascii	"CPU_SR_Restore\000"
 3122      53525F52 
 3122      6573746F 
 3122      726500
 3123              	.LASF44:
 3124 006a 6964656E 		.ascii	"identify_data\000"
 3124      74696679 
 3124      5F646174 
 3124      6100
 3125              	.LASF45:
 3126 0078 64617461 		.ascii	"data_list\000"
 3126      5F6C6973 
 3126      7400
 3127              	.LASF16:
 3128 0082 53544154 		.ascii	"STATE_WAIT_MESSAGE_QUEUE_FOREVER\000"
 3128      455F5741 
 3128      49545F4D 
 3128      45535341 
 3128      47455F51 
 3129              	.LASF6:
 3130 00a3 55494E54 		.ascii	"UINT32\000"
 3130      333200
 3131              	.LASF81:
 3132 00aa 72656D6F 		.ascii	"remove_from_suspend_list\000"
 3132      76655F66 
 3132      726F6D5F 
 3132      73757370 
 3132      656E645F 
 3133              	.LASF22:
 3134 00c3 53544143 		.ascii	"STACK_TYPE\000"
 3134      4B5F5459 
 3134      504500
 3135              	.LASF52:
ARM GAS  G:\Users\Jaxb\AppData\Local\Temp\ccqTkcFy.s 			page 62


 3136 00ce 5461736B 		.ascii	"Task_State\000"
 3136      5F537461 
 3136      746500
 3137              	.LASF18:
 3138 00d9 53544154 		.ascii	"STATE_PUT_MESSAGE_QUEUE_FOREVER\000"
 3138      455F5055 
 3138      545F4D45 
 3138      53534147 
 3138      455F5155 
 3139              	.LASF85:
 3140 00f9 7379735F 		.ascii	"sys_delay\000"
 3140      64656C61 
 3140      7900
 3141              	.LASF55:
 3142 0103 4D43425F 		.ascii	"MCB_FLAG_NON_BLOCKING\000"
 3142      464C4147 
 3142      5F4E4F4E 
 3142      5F424C4F 
 3142      434B494E 
 3143              	.LASF84:
 3144 0119 6765745F 		.ascii	"get_tick\000"
 3144      7469636B 
 3144      00
 3145              	.LASF80:
 3146 0122 73636865 		.ascii	"schedule\000"
 3146      64756C65 
 3146      00
 3147              	.LASF90:
 3148 012b 696E6974 		.ascii	"init_insert_sort_entity\000"
 3148      5F696E73 
 3148      6572745F 
 3148      736F7274 
 3148      5F656E74 
 3149              	.LASF86:
 3150 0143 696E7365 		.ascii	"insert_sort_delete_data\000"
 3150      72745F73 
 3150      6F72745F 
 3150      64656C65 
 3150      74655F64 
 3151              	.LASF28:
 3152 015b 73746163 		.ascii	"stack_end\000"
 3152      6B5F656E 
 3152      6400
 3153              	.LASF15:
 3154 0165 53544154 		.ascii	"STATE_WAIT_MCB_TIMEOUT\000"
 3154      455F5741 
 3154      49545F4D 
 3154      43425F54 
 3154      494D454F 
 3155              	.LASF73:
 3156 017c 696E6974 		.ascii	"init_MCB\000"
 3156      5F4D4342 
 3156      00
 3157              	.LASF17:
 3158 0185 53544154 		.ascii	"STATE_WAIT_MESSAGE_QUEUE_TIMEOUT\000"
 3158      455F5741 
 3158      49545F4D 
ARM GAS  G:\Users\Jaxb\AppData\Local\Temp\ccqTkcFy.s 			page 63


 3158      45535341 
 3158      47455F51 
 3159              	.LASF93:
 3160 01a6 463A5C6B 		.ascii	"F:\\kaka\\KAKAOS\\C\\windows\\Project\\RVMDK\243\250"
 3160      616B615C 
 3160      4B414B41 
 3160      4F535C43 
 3160      5C77696E 
 3161 01ce 757635A3 		.ascii	"uv5\243\251\000"
 3161      A900
 3162              	.LASF2:
 3163 01d4 6C6F6E67 		.ascii	"long long int\000"
 3163      206C6F6E 
 3163      6720696E 
 3163      7400
 3164              	.LASF36:
 3165 01e2 74696D65 		.ascii	"timeslice_hope_time\000"
 3165      736C6963 
 3165      655F686F 
 3165      70655F74 
 3165      696D6500 
 3166              	.LASF60:
 3167 01f6 666C6167 		.ascii	"flag\000"
 3167      00
 3168              	.LASF42:
 3169 01fb 696E7365 		.ascii	"insert_sort_data\000"
 3169      72745F73 
 3169      6F72745F 
 3169      64617461 
 3169      00
 3170              	.LASF50:
 3171 020c 6765745F 		.ascii	"get_data_ptr\000"
 3171      64617461 
 3171      5F707472 
 3171      00
 3172              	.LASF94:
 3173 0219 636C6561 		.ascii	"clear_MCB_index\000"
 3173      725F4D43 
 3173      425F696E 
 3173      64657800 
 3174              	.LASF74:
 3175 0229 64617461 		.ascii	"data1\000"
 3175      3100
 3176              	.LASF83:
 3177 022f 6B615F70 		.ascii	"ka_printf\000"
 3177      72696E74 
 3177      6600
 3178              	.LASF71:
 3179 0239 64656C65 		.ascii	"delete_MCB\000"
 3179      74655F4D 
 3179      434200
 3180              	.LASF21:
 3181 0244 5441534B 		.ascii	"TASK_STATE\000"
 3181      5F535441 
 3181      544500
 3182              	.LASF89:
 3183 024f 7379735F 		.ascii	"sys_suspend\000"
ARM GAS  G:\Users\Jaxb\AppData\Local\Temp\ccqTkcFy.s 			page 64


 3183      73757370 
 3183      656E6400 
 3184              	.LASF35:
 3185 025b 6E616D65 		.ascii	"name\000"
 3185      00
 3186              	.LASF64:
 3187 0260 4F535443 		.ascii	"OSTCBCurPtr\000"
 3187      42437572 
 3187      50747200 
 3188              	.LASF48:
 3189 026c 64617461 		.ascii	"data_num\000"
 3189      5F6E756D 
 3189      00
 3190              	.LASF78:
 3191 0275 5F415353 		.ascii	"_ASSERT\000"
 3191      45525400 
 3192              	.LASF76:
 3193 027d 4350555F 		.ascii	"CPU_SR_Save\000"
 3193      53525F53 
 3193      61766500 
 3194              	.LASF3:
 3195 0289 756E7369 		.ascii	"unsigned char\000"
 3195      676E6564 
 3195      20636861 
 3195      7200
 3196              	.LASF58:
 3197 0297 4D43425F 		.ascii	"MCB_insert_sort_list\000"
 3197      696E7365 
 3197      72745F73 
 3197      6F72745F 
 3197      6C697374 
 3198              	.LASF12:
 3199 02ac 53544154 		.ascii	"STATE_DELAY\000"
 3199      455F4445 
 3199      4C415900 
 3200              	.LASF38:
 3201 02b8 61747472 		.ascii	"attribution\000"
 3201      69627574 
 3201      696F6E00 
 3202              	.LASF72:
 3203 02c4 696E7365 		.ascii	"insert_sort_data_ptr\000"
 3203      72745F73 
 3203      6F72745F 
 3203      64617461 
 3203      5F707472 
 3204              	.LASF0:
 3205 02d9 7369676E 		.ascii	"signed char\000"
 3205      65642063 
 3205      68617200 
 3206              	.LASF8:
 3207 02e5 6C6F6E67 		.ascii	"long long unsigned int\000"
 3207      206C6F6E 
 3207      6720756E 
 3207      7369676E 
 3207      65642069 
 3208              	.LASF82:
 3209 02fc 72656D6F 		.ascii	"remove_from_delay_heap\000"
ARM GAS  G:\Users\Jaxb\AppData\Local\Temp\ccqTkcFy.s 			page 65


 3209      76655F66 
 3209      726F6D5F 
 3209      64656C61 
 3209      795F6865 
 3210              	.LASF5:
 3211 0313 756E7369 		.ascii	"unsigned int\000"
 3211      676E6564 
 3211      20696E74 
 3211      00
 3212              	.LASF26:
 3213 0320 73746163 		.ascii	"stack\000"
 3213      6B00
 3214              	.LASF53:
 3215 0326 4D43425F 		.ascii	"MCB_WAIT_FLAG\000"
 3215      57414954 
 3215      5F464C41 
 3215      4700
 3216              	.LASF33:
 3217 0334 73616D65 		.ascii	"same_prio_list\000"
 3217      5F707269 
 3217      6F5F6C69 
 3217      737400
 3218              	.LASF68:
 3219 0343 74696D65 		.ascii	"time\000"
 3219      00
 3220              	.LASF51:
 3221 0348 76616C75 		.ascii	"value_cmp\000"
 3221      655F636D 
 3221      7000
 3222              	.LASF4:
 3223 0352 73686F72 		.ascii	"short unsigned int\000"
 3223      7420756E 
 3223      7369676E 
 3223      65642069 
 3223      6E7400
 3224              	.LASF11:
 3225 0365 53544154 		.ascii	"STATE_READY\000"
 3225      455F5245 
 3225      41445900 
 3226              	.LASF40:
 3227 0371 63686172 		.ascii	"char\000"
 3227      00
 3228              	.LASF56:
 3229 0376 4D43425F 		.ascii	"MCB_FLAG_BINARY\000"
 3229      464C4147 
 3229      5F42494E 
 3229      41525900 
 3230              	.LASF19:
 3231 0386 53544154 		.ascii	"STATE_PUT_MESSAGE_QUEUE_TIMEOUT\000"
 3231      455F5055 
 3231      545F4D45 
 3231      53534147 
 3231      455F5155 
 3232              	.LASF61:
 3233 03a6 4350555F 		.ascii	"CPU_INT32U\000"
 3233      494E5433 
 3233      325500
ARM GAS  G:\Users\Jaxb\AppData\Local\Temp\ccqTkcFy.s 			page 66


 3234              	.LASF57:
 3235 03b1 6D657373 		.ascii	"message_struct\000"
 3235      6167655F 
 3235      73747275 
 3235      637400
 3236              	.LASF69:
 3237 03c0 64617461 		.ascii	"data\000"
 3237      00
 3238              	.LASF41:
 3239 03c5 69645F74 		.ascii	"id_type\000"
 3239      79706500 
 3240              	.LASF92:
 3241 03cd 2E2E2F2E 		.ascii	"../../source/src/kernel/OS_CORE/MCB.c\000"
 3241      2E2F736F 
 3241      75726365 
 3241      2F737263 
 3241      2F6B6572 
 3242              	.LASF32:
 3243 03f3 64656C61 		.ascii	"delay_heap_position\000"
 3243      795F6865 
 3243      61705F70 
 3243      6F736974 
 3243      696F6E00 
 3244              	.LASF31:
 3245 0407 7461736B 		.ascii	"task_state\000"
 3245      5F737461 
 3245      746500
 3246              	.LASF88:
 3247 0412 696E7365 		.ascii	"insert_sort_insert_into\000"
 3247      72745F73 
 3247      6F72745F 
 3247      696E7365 
 3247      72745F69 
 3248              	.LASF79:
 3249 042a 696E7365 		.ascii	"insert_sort_delete_head\000"
 3249      72745F73 
 3249      6F72745F 
 3249      64656C65 
 3249      74655F68 
 3250              	.LASF37:
 3251 0442 74696D65 		.ascii	"timeslice_rest_time\000"
 3251      736C6963 
 3251      655F7265 
 3251      73745F74 
 3251      696D6500 
 3252              	.LASF46:
 3253 0456 696E7365 		.ascii	"insert_sort_entity\000"
 3253      72745F73 
 3253      6F72745F 
 3253      656E7469 
 3253      747900
 3254              	.LASF14:
 3255 0469 53544154 		.ascii	"STATE_WAIT_MCB_FOREVER\000"
 3255      455F5741 
 3255      49545F4D 
 3255      43425F46 
 3255      4F524556 
ARM GAS  G:\Users\Jaxb\AppData\Local\Temp\ccqTkcFy.s 			page 67


 3256              	.LASF49:
 3257 0480 636F6D70 		.ascii	"compare\000"
 3257      61726500 
 3258              	.LASF25:
 3259 0488 7461736B 		.ascii	"task_control_block_struct\000"
 3259      5F636F6E 
 3259      74726F6C 
 3259      5F626C6F 
 3259      636B5F73 
 3260              	.LASF27:
 3261 04a2 73746163 		.ascii	"stack_size\000"
 3261      6B5F7369 
 3261      7A6500
 3262              	.LASF54:
 3263 04ad 4D43425F 		.ascii	"MCB_FLAG_WAIT\000"
 3263      464C4147 
 3263      5F574149 
 3263      5400
 3264              	.LASF67:
 3265 04bb 5443425F 		.ascii	"TCB_ptr\000"
 3265      70747200 
 3266              	.LASF30:
 3267 04c3 72657365 		.ascii	"reserve_prio\000"
 3267      7276655F 
 3267      7072696F 
 3267      00
 3268              	.LASF34:
 3269 04d0 73757370 		.ascii	"suspend_list\000"
 3269      656E645F 
 3269      6C697374 
 3269      00
 3270              	.LASF63:
 3271 04dd 675F696E 		.ascii	"g_interrupt_count\000"
 3271      74657272 
 3271      7570745F 
 3271      636F756E 
 3271      7400
 3272              	.LASF66:
 3273 04ef 6370755F 		.ascii	"cpu_sr\000"
 3273      737200
 3274              	.LASF91:
 3275 04f6 474E5520 		.ascii	"GNU C11 7.3.1 20180622 (release) [ARM/embedded-7-br"
 3275      43313120 
 3275      372E332E 
 3275      31203230 
 3275      31383036 
 3276 0529 616E6368 		.ascii	"anch revision 261907] -mcpu=cortex-m3 -mthumb -mapc"
 3276      20726576 
 3276      6973696F 
 3276      6E203236 
 3276      31393037 
 3277 055c 732D6672 		.ascii	"s-frame -mthumb-interwork -mcpu=cortex-m3 -mthumb -"
 3277      616D6520 
 3277      2D6D7468 
 3277      756D622D 
 3277      696E7465 
 3278 058f 67647761 		.ascii	"gdwarf-2 -O2\000"
ARM GAS  G:\Users\Jaxb\AppData\Local\Temp\ccqTkcFy.s 			page 68


 3278      72662D32 
 3278      202D4F32 
 3278      00
 3279              	.LASF20:
 3280 059c 53544154 		.ascii	"STATE_WAIT_MUTEX_FOREVER\000"
 3280      455F5741 
 3280      49545F4D 
 3280      55544558 
 3280      5F464F52 
 3281              	.LASF75:
 3282 05b5 64617461 		.ascii	"data2\000"
 3282      3200
 3283              	.LASF10:
 3284 05bb 70726576 		.ascii	"prev\000"
 3284      00
 3285              	.LASF62:
 3286 05c0 4350555F 		.ascii	"CPU_SR\000"
 3286      535200
 3287              	.LASF39:
 3288 05c7 64656C61 		.ascii	"delay_reach_time\000"
 3288      795F7265 
 3288      6163685F 
 3288      74696D65 
 3288      00
 3289              	.LASF87:
 3290 05d8 696E6974 		.ascii	"init_insert_sort_data\000"
 3290      5F696E73 
 3290      6572745F 
 3290      736F7274 
 3290      5F646174 
 3291              	.LASF59:
 3292 05ee 7265736F 		.ascii	"resource_num\000"
 3292      75726365 
 3292      5F6E756D 
 3292      00
 3293              	.LASF7:
 3294 05fb 55494E54 		.ascii	"UINT64\000"
 3294      363400
 3295              	.LASF29:
 3296 0602 7072696F 		.ascii	"prio\000"
 3296      00
 3297              	.LASF43:
 3298 0607 64617461 		.ascii	"data_ptr\000"
 3298      5F707472 
 3298      00
 3299              	.LASF9:
 3300 0610 6E657874 		.ascii	"next\000"
 3300      00
 3301              		.ident	"GCC: (GNU Tools for Arm Embedded Processors 7-2018-q2-update) 7.3.1 20180622 (release) [AR
ARM GAS  G:\Users\Jaxb\AppData\Local\Temp\ccqTkcFy.s 			page 69


DEFINED SYMBOLS
                            *ABS*:00000000 MCB.c
G:\Users\Jaxb\AppData\Local\Temp\ccqTkcFy.s:15     .text:00000000 $t
G:\Users\Jaxb\AppData\Local\Temp\ccqTkcFy.s:22     .text:00000000 compare
G:\Users\Jaxb\AppData\Local\Temp\ccqTkcFy.s:50     .text:0000000c value_cmp
G:\Users\Jaxb\AppData\Local\Temp\ccqTkcFy.s:76     .text:00000014 init_MCB
G:\Users\Jaxb\AppData\Local\Temp\ccqTkcFy.s:172    .text:00000070 $d
G:\Users\Jaxb\AppData\Local\Temp\ccqTkcFy.s:180    .text:00000084 $t
G:\Users\Jaxb\AppData\Local\Temp\ccqTkcFy.s:188    .text:00000084 delete_MCB
G:\Users\Jaxb\AppData\Local\Temp\ccqTkcFy.s:299    .text:000000f0 $d
G:\Users\Jaxb\AppData\Local\Temp\ccqTkcFy.s:304    .text:000000f8 $t
G:\Users\Jaxb\AppData\Local\Temp\ccqTkcFy.s:312    .text:000000f8 p
G:\Users\Jaxb\AppData\Local\Temp\ccqTkcFy.s:536    .text:000001f0 $d
G:\Users\Jaxb\AppData\Local\Temp\ccqTkcFy.s:544    .text:00000200 $t
G:\Users\Jaxb\AppData\Local\Temp\ccqTkcFy.s:552    .text:00000200 v
G:\Users\Jaxb\AppData\Local\Temp\ccqTkcFy.s:681    .text:00000280 $d
G:\Users\Jaxb\AppData\Local\Temp\ccqTkcFy.s:687    .text:00000288 $t
G:\Users\Jaxb\AppData\Local\Temp\ccqTkcFy.s:695    .text:00000288 clear_MCB_index
G:\Users\Jaxb\AppData\Local\Temp\ccqTkcFy.s:746    .text:000002b0 $d
G:\Users\Jaxb\AppData\Local\Temp\ccqTkcFy.s:751    .rodata.str1.4:00000000 $d

UNDEFINED SYMBOLS
CPU_SR_Save
init_insert_sort_entity
CPU_SR_Restore
_ASSERT
ka_printf
g_interrupt_count
insert_sort_delete_head
remove_from_delay_heap
remove_from_suspend_list
schedule
init_insert_sort_data
insert_sort_insert_into
get_tick
sys_delay
sys_suspend
insert_sort_delete_data
OSTCBCurPtr
