ARM GAS  G:\Users\Jaxb\AppData\Local\Temp\ccqu2fCZ.s 			page 1


   1              		.cpu cortex-m3
   2              		.eabi_attribute 20, 1
   3              		.eabi_attribute 21, 1
   4              		.eabi_attribute 23, 3
   5              		.eabi_attribute 24, 1
   6              		.eabi_attribute 25, 1
   7              		.eabi_attribute 26, 1
   8              		.eabi_attribute 30, 2
   9              		.eabi_attribute 34, 1
  10              		.eabi_attribute 18, 4
  11              		.file	"MCB.c"
  12              		.text
  13              	.Ltext0:
  14              		.cfi_sections	.debug_frame
  15              		.align	1
  16              		.p2align 2,,3
  17              		.syntax unified
  18              		.thumb
  19              		.thumb_func
  20              		.fpu softvfp
  21              		.type	compare, %function
  22              	compare:
  23              	.LFB12:
  24              		.file 1 "../../source/src/kernel/OS_CORE/MCB.c"
   1:../../source/src/kernel/OS_CORE/MCB.c **** #include <MCB.h>
   2:../../source/src/kernel/OS_CORE/MCB.c **** #include <os_cpu.h>
   3:../../source/src/kernel/OS_CORE/MCB.c **** #include <os_time.h>
   4:../../source/src/kernel/OS_CORE/MCB.c **** #include <myassert.h>
   5:../../source/src/kernel/OS_CORE/MCB.c **** #include <myMicroLIB.h>
   6:../../source/src/kernel/OS_CORE/MCB.c **** #include <task_state.h>
   7:../../source/src/kernel/OS_CORE/MCB.c **** #include <os_schedule.h>
   8:../../source/src/kernel/OS_CORE/MCB.c **** #include <os_suspend.h>
   9:../../source/src/kernel/OS_CORE/MCB.c **** #include <os_delay.h>
  10:../../source/src/kernel/OS_CORE/MCB.c **** #include <export.h>
  11:../../source/src/kernel/OS_CORE/MCB.c **** 
  12:../../source/src/kernel/OS_CORE/MCB.c **** 
  13:../../source/src/kernel/OS_CORE/MCB.c **** extern TCB * OSTCBCurPtr;
  14:../../source/src/kernel/OS_CORE/MCB.c **** 
  15:../../source/src/kernel/OS_CORE/MCB.c **** inline static int compare(struct insert_sort_data *data1,struct insert_sort_data *data2)
  16:../../source/src/kernel/OS_CORE/MCB.c **** {
  25              		.loc 1 16 0
  26              		.cfi_startproc
  27              		@ args = 0, pretend = 0, frame = 0
  28              		@ frame_needed = 0, uses_anonymous_args = 0
  29              		@ link register save eliminated.
  30              	.LVL0:
  17:../../source/src/kernel/OS_CORE/MCB.c **** 	return ((TCB*)(data1->data_ptr))->prio - ((TCB*)(data2->data_ptr))->prio;
  31              		.loc 1 17 0
  32 0000 0268     		ldr	r2, [r0]
  33 0002 0B68     		ldr	r3, [r1]
  34 0004 D068     		ldr	r0, [r2, #12]
  35              	.LVL1:
  36 0006 DB68     		ldr	r3, [r3, #12]
  18:../../source/src/kernel/OS_CORE/MCB.c **** }
  37              		.loc 1 18 0
  38 0008 C01A     		subs	r0, r0, r3
  39 000a 7047     		bx	lr
ARM GAS  G:\Users\Jaxb\AppData\Local\Temp\ccqu2fCZ.s 			page 2


  40              		.cfi_endproc
  41              	.LFE12:
  42              		.size	compare, .-compare
  43              		.align	1
  44              		.p2align 2,,3
  45              		.syntax unified
  46              		.thumb
  47              		.thumb_func
  48              		.fpu softvfp
  49              		.type	value_cmp, %function
  50              	value_cmp:
  51              	.LFB13:
  19:../../source/src/kernel/OS_CORE/MCB.c **** 
  20:../../source/src/kernel/OS_CORE/MCB.c **** inline static int value_cmp(void *data1,void *data2)
  21:../../source/src/kernel/OS_CORE/MCB.c **** {
  52              		.loc 1 21 0
  53              		.cfi_startproc
  54              		@ args = 0, pretend = 0, frame = 0
  55              		@ frame_needed = 0, uses_anonymous_args = 0
  56              		@ link register save eliminated.
  57              	.LVL2:
  22:../../source/src/kernel/OS_CORE/MCB.c **** 	return ((TCB*)data1)->prio - ((TCB*)data2)->prio;
  58              		.loc 1 22 0
  59 000c C068     		ldr	r0, [r0, #12]
  60              	.LVL3:
  61 000e CB68     		ldr	r3, [r1, #12]
  23:../../source/src/kernel/OS_CORE/MCB.c **** }
  62              		.loc 1 23 0
  63 0010 C01A     		subs	r0, r0, r3
  64 0012 7047     		bx	lr
  65              		.cfi_endproc
  66              	.LFE13:
  67              		.size	value_cmp, .-value_cmp
  68              		.align	1
  69              		.p2align 2,,3
  70              		.global	clear_MCB_index
  71              		.syntax unified
  72              		.thumb
  73              		.thumb_func
  74              		.fpu softvfp
  75              		.type	clear_MCB_index, %function
  76              	clear_MCB_index:
  77              	.LFB18:
  24:../../source/src/kernel/OS_CORE/MCB.c **** 
  25:../../source/src/kernel/OS_CORE/MCB.c **** int
  26:../../source/src/kernel/OS_CORE/MCB.c **** init_MCB(
  27:../../source/src/kernel/OS_CORE/MCB.c **** 	MCB *MCB_ptr,
  28:../../source/src/kernel/OS_CORE/MCB.c **** 	int num,
  29:../../source/src/kernel/OS_CORE/MCB.c **** 	unsigned int flag
  30:../../source/src/kernel/OS_CORE/MCB.c **** 	)
  31:../../source/src/kernel/OS_CORE/MCB.c **** {
  32:../../source/src/kernel/OS_CORE/MCB.c **** 	ASSERT(NULL != MCB_ptr);
  33:../../source/src/kernel/OS_CORE/MCB.c **** #if CONFIG_PARA_CHECK
  34:../../source/src/kernel/OS_CORE/MCB.c **** 	if(NULL == MCB_ptr)
  35:../../source/src/kernel/OS_CORE/MCB.c **** 	{
  36:../../source/src/kernel/OS_CORE/MCB.c **** 		OS_ERROR_PARA_MESSAGE_DISPLAY(init_MCB,MCB_ptr);
  37:../../source/src/kernel/OS_CORE/MCB.c **** 		return -ERROR_NULL_INPUT_PTR;
ARM GAS  G:\Users\Jaxb\AppData\Local\Temp\ccqu2fCZ.s 			page 3


  38:../../source/src/kernel/OS_CORE/MCB.c **** 	}
  39:../../source/src/kernel/OS_CORE/MCB.c **** #endif
  40:../../source/src/kernel/OS_CORE/MCB.c **** 	CPU_SR_ALLOC();
  41:../../source/src/kernel/OS_CORE/MCB.c **** 	CPU_CRITICAL_ENTER();
  42:../../source/src/kernel/OS_CORE/MCB.c **** 	if (g_interrupt_count > 0)
  43:../../source/src/kernel/OS_CORE/MCB.c **** 	{
  44:../../source/src/kernel/OS_CORE/MCB.c **** 		CPU_CRITICAL_EXIT();
  45:../../source/src/kernel/OS_CORE/MCB.c **** 		return -ERROR_FUN_USE_IN_INTER;
  46:../../source/src/kernel/OS_CORE/MCB.c **** 	}
  47:../../source/src/kernel/OS_CORE/MCB.c **** 	MCB_ptr->resource_num = num;
  48:../../source/src/kernel/OS_CORE/MCB.c **** 	init_insert_sort_entity(
  49:../../source/src/kernel/OS_CORE/MCB.c **** 		&MCB_ptr->MCB_insert_sort_list,
  50:../../source/src/kernel/OS_CORE/MCB.c **** 		compare,
  51:../../source/src/kernel/OS_CORE/MCB.c **** 		NULL,
  52:../../source/src/kernel/OS_CORE/MCB.c **** 		value_cmp
  53:../../source/src/kernel/OS_CORE/MCB.c **** 	);
  54:../../source/src/kernel/OS_CORE/MCB.c **** 	MCB_ptr->flag = flag;
  55:../../source/src/kernel/OS_CORE/MCB.c **** 	if(MCB_type_is_binary(MCB_ptr))
  56:../../source/src/kernel/OS_CORE/MCB.c **** 	{
  57:../../source/src/kernel/OS_CORE/MCB.c **** 		if(num)
  58:../../source/src/kernel/OS_CORE/MCB.c **** 		{
  59:../../source/src/kernel/OS_CORE/MCB.c **** 			MCB_ptr->resource_num = 1;
  60:../../source/src/kernel/OS_CORE/MCB.c **** 		}
  61:../../source/src/kernel/OS_CORE/MCB.c **** 	}
  62:../../source/src/kernel/OS_CORE/MCB.c **** 	CPU_CRITICAL_EXIT();
  63:../../source/src/kernel/OS_CORE/MCB.c **** 	return FUN_EXECUTE_SUCCESSFULLY;
  64:../../source/src/kernel/OS_CORE/MCB.c **** }
  65:../../source/src/kernel/OS_CORE/MCB.c **** EXPORT_SYMBOL(init_MCB);
  66:../../source/src/kernel/OS_CORE/MCB.c **** 
  67:../../source/src/kernel/OS_CORE/MCB.c **** int delete_MCB(MCB *MCB_ptr)
  68:../../source/src/kernel/OS_CORE/MCB.c **** {
  69:../../source/src/kernel/OS_CORE/MCB.c **** 	ASSERT(NULL != MCB_ptr);
  70:../../source/src/kernel/OS_CORE/MCB.c **** #if CONFIG_PARA_CHECK
  71:../../source/src/kernel/OS_CORE/MCB.c **** 	if(NULL == MCB_ptr)
  72:../../source/src/kernel/OS_CORE/MCB.c **** 	{
  73:../../source/src/kernel/OS_CORE/MCB.c **** 		OS_ERROR_PARA_MESSAGE_DISPLAY(delete_MCB,MCB_ptr);
  74:../../source/src/kernel/OS_CORE/MCB.c **** 		return -ERROR_NULL_INPUT_PTR;
  75:../../source/src/kernel/OS_CORE/MCB.c **** 	}
  76:../../source/src/kernel/OS_CORE/MCB.c **** #endif
  77:../../source/src/kernel/OS_CORE/MCB.c **** 	TCB *TCB_ptr;
  78:../../source/src/kernel/OS_CORE/MCB.c **** 	CPU_SR_ALLOC();
  79:../../source/src/kernel/OS_CORE/MCB.c **** 	CPU_CRITICAL_ENTER();//enter critical
  80:../../source/src/kernel/OS_CORE/MCB.c **** 	struct insert_sort_data *insert_sort_data_ptr = insert_sort_delete_head(&MCB_ptr->MCB_insert_sort_
  81:../../source/src/kernel/OS_CORE/MCB.c **** 	while(NULL != insert_sort_data_ptr)
  82:../../source/src/kernel/OS_CORE/MCB.c **** 	{
  83:../../source/src/kernel/OS_CORE/MCB.c **** 		TCB_ptr = (TCB *)(insert_sort_data_ptr->data_ptr);
  84:../../source/src/kernel/OS_CORE/MCB.c **** 		if(STATE_WAIT_MCB_FOREVER == TCB_ptr->task_state)
  85:../../source/src/kernel/OS_CORE/MCB.c **** 		{
  86:../../source/src/kernel/OS_CORE/MCB.c **** 			remove_from_suspend_list(TCB_ptr);
  87:../../source/src/kernel/OS_CORE/MCB.c **** 		}
  88:../../source/src/kernel/OS_CORE/MCB.c **** 		else
  89:../../source/src/kernel/OS_CORE/MCB.c **** 		{
  90:../../source/src/kernel/OS_CORE/MCB.c **** 			ASSERT(STATE_WAIT_MCB_TIMEOUT == TCB_ptr->task_state);
  91:../../source/src/kernel/OS_CORE/MCB.c **** 			remove_from_delay_heap(TCB_ptr);
  92:../../source/src/kernel/OS_CORE/MCB.c **** 		}
  93:../../source/src/kernel/OS_CORE/MCB.c **** 		set_bad_state(TCB_ptr);
  94:../../source/src/kernel/OS_CORE/MCB.c **** 		insert_sort_data_ptr = insert_sort_delete_head(&MCB_ptr->MCB_insert_sort_list);
ARM GAS  G:\Users\Jaxb\AppData\Local\Temp\ccqu2fCZ.s 			page 4


  95:../../source/src/kernel/OS_CORE/MCB.c **** 	}
  96:../../source/src/kernel/OS_CORE/MCB.c **** 	schedule();
  97:../../source/src/kernel/OS_CORE/MCB.c **** 	CPU_CRITICAL_EXIT();
  98:../../source/src/kernel/OS_CORE/MCB.c **** 	return FUN_EXECUTE_SUCCESSFULLY;
  99:../../source/src/kernel/OS_CORE/MCB.c **** }
 100:../../source/src/kernel/OS_CORE/MCB.c **** EXPORT_SYMBOL(delete_MCB);
 101:../../source/src/kernel/OS_CORE/MCB.c **** 
 102:../../source/src/kernel/OS_CORE/MCB.c **** int 
 103:../../source/src/kernel/OS_CORE/MCB.c **** p(
 104:../../source/src/kernel/OS_CORE/MCB.c **** 	MCB *MCB_ptr,
 105:../../source/src/kernel/OS_CORE/MCB.c **** 	MCB_WAIT_FLAG flag,
 106:../../source/src/kernel/OS_CORE/MCB.c **** 	unsigned int time
 107:../../source/src/kernel/OS_CORE/MCB.c **** )
 108:../../source/src/kernel/OS_CORE/MCB.c **** {
 109:../../source/src/kernel/OS_CORE/MCB.c **** 	ASSERT(NULL != MCB_ptr);
 110:../../source/src/kernel/OS_CORE/MCB.c **** #if CONFIG_PARA_CHECK
 111:../../source/src/kernel/OS_CORE/MCB.c **** 	if(NULL == MCB_ptr)
 112:../../source/src/kernel/OS_CORE/MCB.c **** 	{
 113:../../source/src/kernel/OS_CORE/MCB.c **** 		OS_ERROR_PARA_MESSAGE_DISPLAY(p,MCB_ptr);
 114:../../source/src/kernel/OS_CORE/MCB.c **** 		return -ERROR_NULL_INPUT_PTR;
 115:../../source/src/kernel/OS_CORE/MCB.c **** 	}
 116:../../source/src/kernel/OS_CORE/MCB.c **** #endif
 117:../../source/src/kernel/OS_CORE/MCB.c **** 	CPU_SR_ALLOC();
 118:../../source/src/kernel/OS_CORE/MCB.c **** 	CPU_CRITICAL_ENTER();//enter critical
 119:../../source/src/kernel/OS_CORE/MCB.c **** 	
 120:../../source/src/kernel/OS_CORE/MCB.c **** 	if (g_interrupt_count > 0)
 121:../../source/src/kernel/OS_CORE/MCB.c **** 	{
 122:../../source/src/kernel/OS_CORE/MCB.c **** 		CPU_CRITICAL_EXIT();
 123:../../source/src/kernel/OS_CORE/MCB.c **** 		return -ERROR_FUN_USE_IN_INTER;
 124:../../source/src/kernel/OS_CORE/MCB.c **** 	}
 125:../../source/src/kernel/OS_CORE/MCB.c **** 
 126:../../source/src/kernel/OS_CORE/MCB.c **** 	if((flag ==  MCB_FLAG_NON_BLOCKING) && (MCB_ptr->resource_num <= 0))
 127:../../source/src/kernel/OS_CORE/MCB.c **** 	{
 128:../../source/src/kernel/OS_CORE/MCB.c **** 		CPU_CRITICAL_EXIT();
 129:../../source/src/kernel/OS_CORE/MCB.c **** 		return -MCB_OUT_OF_RESOURCE;
 130:../../source/src/kernel/OS_CORE/MCB.c **** 	}
 131:../../source/src/kernel/OS_CORE/MCB.c **** 
 132:../../source/src/kernel/OS_CORE/MCB.c **** 	--(MCB_ptr->resource_num);
 133:../../source/src/kernel/OS_CORE/MCB.c **** 	if(MCB_ptr->resource_num >= 0)
 134:../../source/src/kernel/OS_CORE/MCB.c **** 	{
 135:../../source/src/kernel/OS_CORE/MCB.c **** 		CPU_CRITICAL_EXIT();
 136:../../source/src/kernel/OS_CORE/MCB.c **** 		return FUN_EXECUTE_SUCCESSFULLY;
 137:../../source/src/kernel/OS_CORE/MCB.c **** 	}
 138:../../source/src/kernel/OS_CORE/MCB.c **** 
 139:../../source/src/kernel/OS_CORE/MCB.c **** //the following program is used to deal with FLAG_WAIT && MCB_OUT_OF_RESOURCE
 140:../../source/src/kernel/OS_CORE/MCB.c **** 	DECLEAR_INSERT_SORT_DATA(data);
 141:../../source/src/kernel/OS_CORE/MCB.c **** 	init_insert_sort_data(&data,OSTCBCurPtr);
 142:../../source/src/kernel/OS_CORE/MCB.c **** 	insert_sort_insert_into(&data,&MCB_ptr->MCB_insert_sort_list);
 143:../../source/src/kernel/OS_CORE/MCB.c **** 	if(time == 0)//0 represent forever
 144:../../source/src/kernel/OS_CORE/MCB.c **** 	{
 145:../../source/src/kernel/OS_CORE/MCB.c **** 		CPU_CRITICAL_EXIT(); //exit  critical
 146:../../source/src/kernel/OS_CORE/MCB.c **** 		sys_suspend(STATE_WAIT_MCB_FOREVER);
 147:../../source/src/kernel/OS_CORE/MCB.c **** 		//go back here=========go back here
 148:../../source/src/kernel/OS_CORE/MCB.c **** 		CPU_CRITICAL_ENTER();//enter critical
 149:../../source/src/kernel/OS_CORE/MCB.c **** 	}
 150:../../source/src/kernel/OS_CORE/MCB.c **** 	else
 151:../../source/src/kernel/OS_CORE/MCB.c **** 	{
ARM GAS  G:\Users\Jaxb\AppData\Local\Temp\ccqu2fCZ.s 			page 5


 152:../../source/src/kernel/OS_CORE/MCB.c **** 		UINT64 time_record = get_tick();
 153:../../source/src/kernel/OS_CORE/MCB.c **** 		CPU_CRITICAL_EXIT(); //exit  critical
 154:../../source/src/kernel/OS_CORE/MCB.c **** 		sys_delay(time,STATE_WAIT_MCB_TIMEOUT);
 155:../../source/src/kernel/OS_CORE/MCB.c **** 		//go back here=========go back here
 156:../../source/src/kernel/OS_CORE/MCB.c **** 		CPU_CRITICAL_ENTER();//enter critical
 157:../../source/src/kernel/OS_CORE/MCB.c **** 		if(get_tick() >= (time_record + time))//prove that timeout happened
 158:../../source/src/kernel/OS_CORE/MCB.c **** 		{
 159:../../source/src/kernel/OS_CORE/MCB.c **** 			++(MCB_ptr->resource_num);
 160:../../source/src/kernel/OS_CORE/MCB.c **** 			insert_sort_delete_data(&MCB_ptr->MCB_insert_sort_list,OSTCBCurPtr);
 161:../../source/src/kernel/OS_CORE/MCB.c **** 			CPU_CRITICAL_EXIT(); //exit  critical
 162:../../source/src/kernel/OS_CORE/MCB.c **** 			return -MCB_OUT_OF_TIME;
 163:../../source/src/kernel/OS_CORE/MCB.c **** 		}
 164:../../source/src/kernel/OS_CORE/MCB.c **** 	}
 165:../../source/src/kernel/OS_CORE/MCB.c **** 	if(TCB_state_is_bad(OSTCBCurPtr))
 166:../../source/src/kernel/OS_CORE/MCB.c **** 	{
 167:../../source/src/kernel/OS_CORE/MCB.c **** 		clear_bad_state(OSTCBCurPtr);
 168:../../source/src/kernel/OS_CORE/MCB.c **** 		CPU_CRITICAL_EXIT(); //exit  critical
 169:../../source/src/kernel/OS_CORE/MCB.c **** 		return -ERROR_MODULE_DELETED;
 170:../../source/src/kernel/OS_CORE/MCB.c **** 	}
 171:../../source/src/kernel/OS_CORE/MCB.c **** 	CPU_CRITICAL_EXIT(); //exit  critical
 172:../../source/src/kernel/OS_CORE/MCB.c **** 	return FUN_EXECUTE_SUCCESSFULLY;
 173:../../source/src/kernel/OS_CORE/MCB.c **** }
 174:../../source/src/kernel/OS_CORE/MCB.c **** EXPORT_SYMBOL(p);
 175:../../source/src/kernel/OS_CORE/MCB.c **** 
 176:../../source/src/kernel/OS_CORE/MCB.c **** int 
 177:../../source/src/kernel/OS_CORE/MCB.c **** v(MCB *MCB_ptr)
 178:../../source/src/kernel/OS_CORE/MCB.c **** {
 179:../../source/src/kernel/OS_CORE/MCB.c **** 	ASSERT(NULL != MCB_ptr);
 180:../../source/src/kernel/OS_CORE/MCB.c **** #if CONFIG_PARA_CHECK
 181:../../source/src/kernel/OS_CORE/MCB.c **** 	if(NULL == MCB_ptr)
 182:../../source/src/kernel/OS_CORE/MCB.c **** 	{
 183:../../source/src/kernel/OS_CORE/MCB.c **** 		OS_ERROR_PARA_MESSAGE_DISPLAY(v,MCB_ptr);
 184:../../source/src/kernel/OS_CORE/MCB.c **** 		return ERROR_NULL_INPUT_PTR;
 185:../../source/src/kernel/OS_CORE/MCB.c **** 	}
 186:../../source/src/kernel/OS_CORE/MCB.c **** #endif
 187:../../source/src/kernel/OS_CORE/MCB.c ****   	CPU_SR_ALLOC();
 188:../../source/src/kernel/OS_CORE/MCB.c **** 	CPU_CRITICAL_ENTER();//enter critical
 189:../../source/src/kernel/OS_CORE/MCB.c **** 	if((++(MCB_ptr->resource_num) > 1) && MCB_type_is_binary(MCB_ptr))
 190:../../source/src/kernel/OS_CORE/MCB.c **** 	{
 191:../../source/src/kernel/OS_CORE/MCB.c **** 		ASSERT(2 == MCB_ptr->resource_num);
 192:../../source/src/kernel/OS_CORE/MCB.c **** 		MCB_ptr->resource_num = 1;
 193:../../source/src/kernel/OS_CORE/MCB.c **** 	}
 194:../../source/src/kernel/OS_CORE/MCB.c **** 	if(MCB_ptr->resource_num <= 0)
 195:../../source/src/kernel/OS_CORE/MCB.c **** 	{
 196:../../source/src/kernel/OS_CORE/MCB.c **** 		TCB *TCB_ptr = (TCB *)(insert_sort_delete_head(&MCB_ptr->MCB_insert_sort_list))->data_ptr;
 197:../../source/src/kernel/OS_CORE/MCB.c **** 		
 198:../../source/src/kernel/OS_CORE/MCB.c **** 		if(STATE_WAIT_MCB_FOREVER == TCB_ptr->task_state)
 199:../../source/src/kernel/OS_CORE/MCB.c **** 			remove_from_suspend_list(TCB_ptr);
 200:../../source/src/kernel/OS_CORE/MCB.c **** 		else if(STATE_WAIT_MCB_TIMEOUT == TCB_ptr->task_state)//STATE_WAIT_MESSAGE_TIMEOUT
 201:../../source/src/kernel/OS_CORE/MCB.c **** 			remove_from_delay_heap(TCB_ptr);
 202:../../source/src/kernel/OS_CORE/MCB.c **** 		schedule();
 203:../../source/src/kernel/OS_CORE/MCB.c **** 	}
 204:../../source/src/kernel/OS_CORE/MCB.c **** 	CPU_CRITICAL_EXIT(); //exit  critical
 205:../../source/src/kernel/OS_CORE/MCB.c **** 	return FUN_EXECUTE_SUCCESSFULLY;
 206:../../source/src/kernel/OS_CORE/MCB.c **** }
 207:../../source/src/kernel/OS_CORE/MCB.c **** EXPORT_SYMBOL(v);
 208:../../source/src/kernel/OS_CORE/MCB.c **** 
ARM GAS  G:\Users\Jaxb\AppData\Local\Temp\ccqu2fCZ.s 			page 6


 209:../../source/src/kernel/OS_CORE/MCB.c **** void 
 210:../../source/src/kernel/OS_CORE/MCB.c **** clear_MCB_index(MCB *MCB_ptr)
 211:../../source/src/kernel/OS_CORE/MCB.c **** {
  78              		.loc 1 211 0
  79              		.cfi_startproc
  80              		@ args = 0, pretend = 0, frame = 0
  81              		@ frame_needed = 0, uses_anonymous_args = 0
  82              	.LVL4:
  83 0014 10B5     		push	{r4, lr}
  84              	.LCFI0:
  85              		.cfi_def_cfa_offset 8
  86              		.cfi_offset 4, -8
  87              		.cfi_offset 14, -4
 212:../../source/src/kernel/OS_CORE/MCB.c **** 	ASSERT(NULL != MCB_ptr);
  88              		.loc 1 212 0
  89 0016 0446     		mov	r4, r0
  90 0018 50B1     		cbz	r0, .L7
  91              	.LVL5:
  92              	.L5:
 213:../../source/src/kernel/OS_CORE/MCB.c **** 	CPU_SR_ALLOC();
 214:../../source/src/kernel/OS_CORE/MCB.c **** 	CPU_CRITICAL_ENTER();
  93              		.loc 1 214 0
  94 001a FFF7FEFF 		bl	CPU_SR_Save
  95              	.LVL6:
 215:../../source/src/kernel/OS_CORE/MCB.c **** 	if(MCB_ptr->resource_num > 0)
  96              		.loc 1 215 0
  97 001e A369     		ldr	r3, [r4, #24]
  98 0020 002B     		cmp	r3, #0
 216:../../source/src/kernel/OS_CORE/MCB.c **** 		MCB_ptr->resource_num = 0;
  99              		.loc 1 216 0
 100 0022 C4BF     		itt	gt
 101 0024 0023     		movgt	r3, #0
 102 0026 A361     		strgt	r3, [r4, #24]
 217:../../source/src/kernel/OS_CORE/MCB.c **** 	CPU_CRITICAL_EXIT();
 218:../../source/src/kernel/OS_CORE/MCB.c **** }
 103              		.loc 1 218 0
 104 0028 BDE81040 		pop	{r4, lr}
 105              	.LCFI1:
 106              		.cfi_remember_state
 107              		.cfi_restore 14
 108              		.cfi_restore 4
 109              		.cfi_def_cfa_offset 0
 110              	.LVL7:
 217:../../source/src/kernel/OS_CORE/MCB.c **** 	CPU_CRITICAL_EXIT();
 111              		.loc 1 217 0
 112 002c FFF7FEBF 		b	CPU_SR_Restore
 113              	.LVL8:
 114              	.L7:
 115              	.LCFI2:
 116              		.cfi_restore_state
 212:../../source/src/kernel/OS_CORE/MCB.c **** 	CPU_SR_ALLOC();
 117              		.loc 1 212 0 discriminator 1
 118 0030 D421     		movs	r1, #212
 119 0032 0248     		ldr	r0, .L8
 120              	.LVL9:
 121 0034 FFF7FEFF 		bl	_ASSERT
 122              	.LVL10:
ARM GAS  G:\Users\Jaxb\AppData\Local\Temp\ccqu2fCZ.s 			page 7


 123 0038 EFE7     		b	.L5
 124              	.L9:
 125 003a 00BF     		.align	2
 126              	.L8:
 127 003c 00000000 		.word	.LC0
 128              		.cfi_endproc
 129              	.LFE18:
 130              		.size	clear_MCB_index, .-clear_MCB_index
 131              		.align	1
 132              		.p2align 2,,3
 133              		.global	init_MCB
 134              		.syntax unified
 135              		.thumb
 136              		.thumb_func
 137              		.fpu softvfp
 138              		.type	init_MCB, %function
 139              	init_MCB:
 140              	.LFB14:
  31:../../source/src/kernel/OS_CORE/MCB.c **** 	ASSERT(NULL != MCB_ptr);
 141              		.loc 1 31 0
 142              		.cfi_startproc
 143              		@ args = 0, pretend = 0, frame = 0
 144              		@ frame_needed = 0, uses_anonymous_args = 0
 145              	.LVL11:
 146 0040 F8B5     		push	{r3, r4, r5, r6, r7, lr}
 147              	.LCFI3:
 148              		.cfi_def_cfa_offset 24
 149              		.cfi_offset 3, -24
 150              		.cfi_offset 4, -20
 151              		.cfi_offset 5, -16
 152              		.cfi_offset 6, -12
 153              		.cfi_offset 7, -8
 154              		.cfi_offset 14, -4
  31:../../source/src/kernel/OS_CORE/MCB.c **** 	ASSERT(NULL != MCB_ptr);
 155              		.loc 1 31 0
 156 0042 0E46     		mov	r6, r1
 157 0044 1546     		mov	r5, r2
  32:../../source/src/kernel/OS_CORE/MCB.c **** #if CONFIG_PARA_CHECK
 158              		.loc 1 32 0
 159 0046 0446     		mov	r4, r0
 160 0048 C0B1     		cbz	r0, .L23
 161              	.LVL12:
  41:../../source/src/kernel/OS_CORE/MCB.c **** 	if (g_interrupt_count > 0)
 162              		.loc 1 41 0
 163 004a FFF7FEFF 		bl	CPU_SR_Save
 164              	.LVL13:
  42:../../source/src/kernel/OS_CORE/MCB.c **** 	{
 165              		.loc 1 42 0
 166 004e 134B     		ldr	r3, .L25
  41:../../source/src/kernel/OS_CORE/MCB.c **** 	if (g_interrupt_count > 0)
 167              		.loc 1 41 0
 168 0050 0746     		mov	r7, r0
 169              	.LVL14:
  42:../../source/src/kernel/OS_CORE/MCB.c **** 	{
 170              		.loc 1 42 0
 171 0052 1B68     		ldr	r3, [r3]
 172 0054 002B     		cmp	r3, #0
ARM GAS  G:\Users\Jaxb\AppData\Local\Temp\ccqu2fCZ.s 			page 8


 173 0056 1BDC     		bgt	.L24
  48:../../source/src/kernel/OS_CORE/MCB.c **** 		&MCB_ptr->MCB_insert_sort_list,
 174              		.loc 1 48 0
 175 0058 114B     		ldr	r3, .L25+4
  47:../../source/src/kernel/OS_CORE/MCB.c **** 	init_insert_sort_entity(
 176              		.loc 1 47 0
 177 005a A661     		str	r6, [r4, #24]
  48:../../source/src/kernel/OS_CORE/MCB.c **** 		&MCB_ptr->MCB_insert_sort_list,
 178              		.loc 1 48 0
 179 005c 0022     		movs	r2, #0
 180 005e 1149     		ldr	r1, .L25+8
 181 0060 2046     		mov	r0, r4
 182              	.LVL15:
 183 0062 FFF7FEFF 		bl	init_insert_sort_entity
 184              	.LVL16:
  55:../../source/src/kernel/OS_CORE/MCB.c **** 	{
 185              		.loc 1 55 0
 186 0066 EB07     		lsls	r3, r5, #31
  54:../../source/src/kernel/OS_CORE/MCB.c **** 	if(MCB_type_is_binary(MCB_ptr))
 187              		.loc 1 54 0
 188 0068 E561     		str	r5, [r4, #28]
  55:../../source/src/kernel/OS_CORE/MCB.c **** 	{
 189              		.loc 1 55 0
 190 006a 02D5     		bpl	.L13
  57:../../source/src/kernel/OS_CORE/MCB.c **** 		{
 191              		.loc 1 57 0
 192 006c 0EB1     		cbz	r6, .L13
  59:../../source/src/kernel/OS_CORE/MCB.c **** 		}
 193              		.loc 1 59 0
 194 006e 0123     		movs	r3, #1
 195 0070 A361     		str	r3, [r4, #24]
 196              	.L13:
  62:../../source/src/kernel/OS_CORE/MCB.c **** 	return FUN_EXECUTE_SUCCESSFULLY;
 197              		.loc 1 62 0
 198 0072 3846     		mov	r0, r7
 199 0074 FFF7FEFF 		bl	CPU_SR_Restore
 200              	.LVL17:
  63:../../source/src/kernel/OS_CORE/MCB.c **** }
 201              		.loc 1 63 0
 202 0078 0020     		movs	r0, #0
  64:../../source/src/kernel/OS_CORE/MCB.c **** EXPORT_SYMBOL(init_MCB);
 203              		.loc 1 64 0
 204 007a F8BD     		pop	{r3, r4, r5, r6, r7, pc}
 205              	.LVL18:
 206              	.L23:
  32:../../source/src/kernel/OS_CORE/MCB.c **** #if CONFIG_PARA_CHECK
 207              		.loc 1 32 0 discriminator 1
 208 007c 2021     		movs	r1, #32
 209              	.LVL19:
 210 007e 0A48     		ldr	r0, .L25+12
 211              	.LVL20:
 212 0080 FFF7FEFF 		bl	_ASSERT
 213              	.LVL21:
  36:../../source/src/kernel/OS_CORE/MCB.c **** 		return -ERROR_NULL_INPUT_PTR;
 214              		.loc 1 36 0 discriminator 1
 215 0084 0948     		ldr	r0, .L25+16
 216 0086 FFF7FEFF 		bl	ka_printf
ARM GAS  G:\Users\Jaxb\AppData\Local\Temp\ccqu2fCZ.s 			page 9


 217              	.LVL22:
  37:../../source/src/kernel/OS_CORE/MCB.c **** 	}
 218              		.loc 1 37 0 discriminator 1
 219 008a 6FF0FE00 		mvn	r0, #254
  64:../../source/src/kernel/OS_CORE/MCB.c **** EXPORT_SYMBOL(init_MCB);
 220              		.loc 1 64 0 discriminator 1
 221 008e F8BD     		pop	{r3, r4, r5, r6, r7, pc}
 222              	.LVL23:
 223              	.L24:
  44:../../source/src/kernel/OS_CORE/MCB.c **** 		return -ERROR_FUN_USE_IN_INTER;
 224              		.loc 1 44 0
 225 0090 FFF7FEFF 		bl	CPU_SR_Restore
 226              	.LVL24:
  45:../../source/src/kernel/OS_CORE/MCB.c **** 	}
 227              		.loc 1 45 0
 228 0094 6FF0FC00 		mvn	r0, #252
  64:../../source/src/kernel/OS_CORE/MCB.c **** EXPORT_SYMBOL(init_MCB);
 229              		.loc 1 64 0
 230 0098 F8BD     		pop	{r3, r4, r5, r6, r7, pc}
 231              	.LVL25:
 232              	.L26:
 233 009a 00BF     		.align	2
 234              	.L25:
 235 009c 00000000 		.word	g_interrupt_count
 236 00a0 00000000 		.word	value_cmp
 237 00a4 00000000 		.word	compare
 238 00a8 00000000 		.word	.LC0
 239 00ac 28000000 		.word	.LC1
 240              		.cfi_endproc
 241              	.LFE14:
 242              		.size	init_MCB, .-init_MCB
 243              		.align	1
 244              		.p2align 2,,3
 245              		.global	delete_MCB
 246              		.syntax unified
 247              		.thumb
 248              		.thumb_func
 249              		.fpu softvfp
 250              		.type	delete_MCB, %function
 251              	delete_MCB:
 252              	.LFB15:
  68:../../source/src/kernel/OS_CORE/MCB.c **** 	ASSERT(NULL != MCB_ptr);
 253              		.loc 1 68 0
 254              		.cfi_startproc
 255              		@ args = 0, pretend = 0, frame = 0
 256              		@ frame_needed = 0, uses_anonymous_args = 0
 257              	.LVL26:
 258 00b0 F8B5     		push	{r3, r4, r5, r6, r7, lr}
 259              	.LCFI4:
 260              		.cfi_def_cfa_offset 24
 261              		.cfi_offset 3, -24
 262              		.cfi_offset 4, -20
 263              		.cfi_offset 5, -16
 264              		.cfi_offset 6, -12
 265              		.cfi_offset 7, -8
 266              		.cfi_offset 14, -4
  69:../../source/src/kernel/OS_CORE/MCB.c **** #if CONFIG_PARA_CHECK
ARM GAS  G:\Users\Jaxb\AppData\Local\Temp\ccqu2fCZ.s 			page 10


 267              		.loc 1 69 0
 268 00b2 0546     		mov	r5, r0
 269 00b4 40B3     		cbz	r0, .L40
 270              	.LVL27:
  79:../../source/src/kernel/OS_CORE/MCB.c **** 	struct insert_sort_data *insert_sort_data_ptr = insert_sort_delete_head(&MCB_ptr->MCB_insert_sort_
 271              		.loc 1 79 0
 272 00b6 FFF7FEFF 		bl	CPU_SR_Save
 273              	.LVL28:
 274 00ba 0746     		mov	r7, r0
 275              	.LVL29:
  80:../../source/src/kernel/OS_CORE/MCB.c **** 	while(NULL != insert_sort_data_ptr)
 276              		.loc 1 80 0
 277 00bc 2846     		mov	r0, r5
 278              	.LVL30:
 279 00be FFF7FEFF 		bl	insert_sort_delete_head
 280              	.LVL31:
  81:../../source/src/kernel/OS_CORE/MCB.c **** 	{
 281              		.loc 1 81 0
 282 00c2 D0B1     		cbz	r0, .L34
  90:../../source/src/kernel/OS_CORE/MCB.c **** 			remove_from_delay_heap(TCB_ptr);
 283              		.loc 1 90 0
 284 00c4 154E     		ldr	r6, .L41
 285 00c6 10E0     		b	.L33
 286              	.LVL32:
 287              	.L30:
 288 00c8 052B     		cmp	r3, #5
 289 00ca 03D0     		beq	.L32
  90:../../source/src/kernel/OS_CORE/MCB.c **** 			remove_from_delay_heap(TCB_ptr);
 290              		.loc 1 90 0 is_stmt 0 discriminator 1
 291 00cc 5A21     		movs	r1, #90
 292 00ce 3046     		mov	r0, r6
 293              	.LVL33:
 294 00d0 FFF7FEFF 		bl	_ASSERT
 295              	.LVL34:
 296              	.L32:
  91:../../source/src/kernel/OS_CORE/MCB.c **** 		}
 297              		.loc 1 91 0 is_stmt 1
 298 00d4 2046     		mov	r0, r4
 299 00d6 FFF7FEFF 		bl	remove_from_delay_heap
 300              	.LVL35:
 301              	.L31:
  93:../../source/src/kernel/OS_CORE/MCB.c **** 		insert_sort_data_ptr = insert_sort_delete_head(&MCB_ptr->MCB_insert_sort_list);
 302              		.loc 1 93 0
 303 00da A36B     		ldr	r3, [r4, #56]
  94:../../source/src/kernel/OS_CORE/MCB.c **** 	}
 304              		.loc 1 94 0
 305 00dc 2846     		mov	r0, r5
  93:../../source/src/kernel/OS_CORE/MCB.c **** 		insert_sort_data_ptr = insert_sort_delete_head(&MCB_ptr->MCB_insert_sort_list);
 306              		.loc 1 93 0
 307 00de 43F00203 		orr	r3, r3, #2
 308 00e2 A363     		str	r3, [r4, #56]
  94:../../source/src/kernel/OS_CORE/MCB.c **** 	}
 309              		.loc 1 94 0
 310 00e4 FFF7FEFF 		bl	insert_sort_delete_head
 311              	.LVL36:
  81:../../source/src/kernel/OS_CORE/MCB.c **** 	{
 312              		.loc 1 81 0
ARM GAS  G:\Users\Jaxb\AppData\Local\Temp\ccqu2fCZ.s 			page 11


 313 00e8 38B1     		cbz	r0, .L34
 314              	.LVL37:
 315              	.L33:
  83:../../source/src/kernel/OS_CORE/MCB.c **** 		if(STATE_WAIT_MCB_FOREVER == TCB_ptr->task_state)
 316              		.loc 1 83 0
 317 00ea 0468     		ldr	r4, [r0]
 318              	.LVL38:
  84:../../source/src/kernel/OS_CORE/MCB.c **** 		{
 319              		.loc 1 84 0
 320 00ec 237D     		ldrb	r3, [r4, #20]	@ zero_extendqisi2
 321 00ee 042B     		cmp	r3, #4
 322 00f0 EAD1     		bne	.L30
  86:../../source/src/kernel/OS_CORE/MCB.c **** 		}
 323              		.loc 1 86 0
 324 00f2 2046     		mov	r0, r4
 325              	.LVL39:
 326 00f4 FFF7FEFF 		bl	remove_from_suspend_list
 327              	.LVL40:
 328 00f8 EFE7     		b	.L31
 329              	.LVL41:
 330              	.L34:
  96:../../source/src/kernel/OS_CORE/MCB.c **** 	CPU_CRITICAL_EXIT();
 331              		.loc 1 96 0
 332 00fa FFF7FEFF 		bl	schedule
 333              	.LVL42:
  97:../../source/src/kernel/OS_CORE/MCB.c **** 	return FUN_EXECUTE_SUCCESSFULLY;
 334              		.loc 1 97 0
 335 00fe 3846     		mov	r0, r7
 336 0100 FFF7FEFF 		bl	CPU_SR_Restore
 337              	.LVL43:
  98:../../source/src/kernel/OS_CORE/MCB.c **** }
 338              		.loc 1 98 0
 339 0104 0020     		movs	r0, #0
  99:../../source/src/kernel/OS_CORE/MCB.c **** EXPORT_SYMBOL(delete_MCB);
 340              		.loc 1 99 0
 341 0106 F8BD     		pop	{r3, r4, r5, r6, r7, pc}
 342              	.LVL44:
 343              	.L40:
  69:../../source/src/kernel/OS_CORE/MCB.c **** #if CONFIG_PARA_CHECK
 344              		.loc 1 69 0 discriminator 1
 345 0108 4521     		movs	r1, #69
 346 010a 0448     		ldr	r0, .L41
 347              	.LVL45:
 348 010c FFF7FEFF 		bl	_ASSERT
 349              	.LVL46:
  73:../../source/src/kernel/OS_CORE/MCB.c **** 		return -ERROR_NULL_INPUT_PTR;
 350              		.loc 1 73 0 discriminator 1
 351 0110 0348     		ldr	r0, .L41+4
 352 0112 FFF7FEFF 		bl	ka_printf
 353              	.LVL47:
  74:../../source/src/kernel/OS_CORE/MCB.c **** 	}
 354              		.loc 1 74 0 discriminator 1
 355 0116 6FF0FE00 		mvn	r0, #254
  99:../../source/src/kernel/OS_CORE/MCB.c **** EXPORT_SYMBOL(delete_MCB);
 356              		.loc 1 99 0 discriminator 1
 357 011a F8BD     		pop	{r3, r4, r5, r6, r7, pc}
 358              	.LVL48:
ARM GAS  G:\Users\Jaxb\AppData\Local\Temp\ccqu2fCZ.s 			page 12


 359              	.L42:
 360              		.align	2
 361              	.L41:
 362 011c 00000000 		.word	.LC0
 363 0120 58000000 		.word	.LC2
 364              		.cfi_endproc
 365              	.LFE15:
 366              		.size	delete_MCB, .-delete_MCB
 367              		.align	1
 368              		.p2align 2,,3
 369              		.global	v
 370              		.syntax unified
 371              		.thumb
 372              		.thumb_func
 373              		.fpu softvfp
 374              		.type	v, %function
 375              	v:
 376              	.LFB17:
 178:../../source/src/kernel/OS_CORE/MCB.c **** 	ASSERT(NULL != MCB_ptr);
 377              		.loc 1 178 0
 378              		.cfi_startproc
 379              		@ args = 0, pretend = 0, frame = 0
 380              		@ frame_needed = 0, uses_anonymous_args = 0
 381              	.LVL49:
 382 0124 38B5     		push	{r3, r4, r5, lr}
 383              	.LCFI5:
 384              		.cfi_def_cfa_offset 16
 385              		.cfi_offset 3, -16
 386              		.cfi_offset 4, -12
 387              		.cfi_offset 5, -8
 388              		.cfi_offset 14, -4
 179:../../source/src/kernel/OS_CORE/MCB.c **** #if CONFIG_PARA_CHECK
 389              		.loc 1 179 0
 390 0126 0446     		mov	r4, r0
 391 0128 60B3     		cbz	r0, .L59
 392              	.LVL50:
 188:../../source/src/kernel/OS_CORE/MCB.c **** 	if((++(MCB_ptr->resource_num) > 1) && MCB_type_is_binary(MCB_ptr))
 393              		.loc 1 188 0
 394 012a FFF7FEFF 		bl	CPU_SR_Save
 395              	.LVL51:
 189:../../source/src/kernel/OS_CORE/MCB.c **** 	{
 396              		.loc 1 189 0
 397 012e A369     		ldr	r3, [r4, #24]
 188:../../source/src/kernel/OS_CORE/MCB.c **** 	if((++(MCB_ptr->resource_num) > 1) && MCB_type_is_binary(MCB_ptr))
 398              		.loc 1 188 0
 399 0130 0546     		mov	r5, r0
 400              	.LVL52:
 189:../../source/src/kernel/OS_CORE/MCB.c **** 	{
 401              		.loc 1 189 0
 402 0132 0133     		adds	r3, r3, #1
 403 0134 012B     		cmp	r3, #1
 404 0136 A361     		str	r3, [r4, #24]
 405 0138 0BDD     		ble	.L60
 189:../../source/src/kernel/OS_CORE/MCB.c **** 	{
 406              		.loc 1 189 0 is_stmt 0 discriminator 1
 407 013a E269     		ldr	r2, [r4, #28]
 408 013c D207     		lsls	r2, r2, #31
ARM GAS  G:\Users\Jaxb\AppData\Local\Temp\ccqu2fCZ.s 			page 13


 409 013e 03D5     		bpl	.L46
 191:../../source/src/kernel/OS_CORE/MCB.c **** 		MCB_ptr->resource_num = 1;
 410              		.loc 1 191 0 is_stmt 1
 411 0140 022B     		cmp	r3, #2
 412 0142 18D1     		bne	.L61
 192:../../source/src/kernel/OS_CORE/MCB.c **** 	}
 413              		.loc 1 192 0
 414 0144 0123     		movs	r3, #1
 415 0146 A361     		str	r3, [r4, #24]
 416              	.LVL53:
 417              	.L46:
 204:../../source/src/kernel/OS_CORE/MCB.c **** 	return FUN_EXECUTE_SUCCESSFULLY;
 418              		.loc 1 204 0
 419 0148 2846     		mov	r0, r5
 420 014a FFF7FEFF 		bl	CPU_SR_Restore
 421              	.LVL54:
 205:../../source/src/kernel/OS_CORE/MCB.c **** }
 422              		.loc 1 205 0
 423 014e 0020     		movs	r0, #0
 424              	.L43:
 206:../../source/src/kernel/OS_CORE/MCB.c **** EXPORT_SYMBOL(v);
 425              		.loc 1 206 0
 426 0150 38BD     		pop	{r3, r4, r5, pc}
 427              	.LVL55:
 428              	.L60:
 194:../../source/src/kernel/OS_CORE/MCB.c **** 	{
 429              		.loc 1 194 0
 430 0152 002B     		cmp	r3, #0
 431 0154 F8DC     		bgt	.L46
 432              	.LBB2:
 196:../../source/src/kernel/OS_CORE/MCB.c **** 		
 433              		.loc 1 196 0
 434 0156 2046     		mov	r0, r4
 435              	.LVL56:
 436 0158 FFF7FEFF 		bl	insert_sort_delete_head
 437              	.LVL57:
 438 015c 0068     		ldr	r0, [r0]
 439              	.LVL58:
 198:../../source/src/kernel/OS_CORE/MCB.c **** 			remove_from_suspend_list(TCB_ptr);
 440              		.loc 1 198 0
 441 015e 037D     		ldrb	r3, [r0, #20]	@ zero_extendqisi2
 442 0160 042B     		cmp	r3, #4
 443 0162 18D0     		beq	.L62
 200:../../source/src/kernel/OS_CORE/MCB.c **** 			remove_from_delay_heap(TCB_ptr);
 444              		.loc 1 200 0
 445 0164 052B     		cmp	r3, #5
 446 0166 19D0     		beq	.L63
 447              	.LVL59:
 448              	.L49:
 202:../../source/src/kernel/OS_CORE/MCB.c **** 	}
 449              		.loc 1 202 0
 450 0168 FFF7FEFF 		bl	schedule
 451              	.LVL60:
 452              	.LBE2:
 204:../../source/src/kernel/OS_CORE/MCB.c **** 	return FUN_EXECUTE_SUCCESSFULLY;
 453              		.loc 1 204 0
 454 016c 2846     		mov	r0, r5
ARM GAS  G:\Users\Jaxb\AppData\Local\Temp\ccqu2fCZ.s 			page 14


 455 016e FFF7FEFF 		bl	CPU_SR_Restore
 456              	.LVL61:
 205:../../source/src/kernel/OS_CORE/MCB.c **** }
 457              		.loc 1 205 0
 458 0172 0020     		movs	r0, #0
 459 0174 ECE7     		b	.L43
 460              	.LVL62:
 461              	.L61:
 191:../../source/src/kernel/OS_CORE/MCB.c **** 		MCB_ptr->resource_num = 1;
 462              		.loc 1 191 0 discriminator 1
 463 0176 BF21     		movs	r1, #191
 464 0178 0A48     		ldr	r0, .L64
 465              	.LVL63:
 466 017a FFF7FEFF 		bl	_ASSERT
 467              	.LVL64:
 192:../../source/src/kernel/OS_CORE/MCB.c **** 	}
 468              		.loc 1 192 0 discriminator 1
 469 017e 0123     		movs	r3, #1
 470 0180 A361     		str	r3, [r4, #24]
 471 0182 E1E7     		b	.L46
 472              	.LVL65:
 473              	.L59:
 179:../../source/src/kernel/OS_CORE/MCB.c **** #if CONFIG_PARA_CHECK
 474              		.loc 1 179 0 discriminator 1
 475 0184 B321     		movs	r1, #179
 476 0186 0748     		ldr	r0, .L64
 477              	.LVL66:
 478 0188 FFF7FEFF 		bl	_ASSERT
 479              	.LVL67:
 183:../../source/src/kernel/OS_CORE/MCB.c **** 		return ERROR_NULL_INPUT_PTR;
 480              		.loc 1 183 0 discriminator 1
 481 018c 0648     		ldr	r0, .L64+4
 482 018e FFF7FEFF 		bl	ka_printf
 483              	.LVL68:
 184:../../source/src/kernel/OS_CORE/MCB.c **** 	}
 484              		.loc 1 184 0 discriminator 1
 485 0192 FF20     		movs	r0, #255
 206:../../source/src/kernel/OS_CORE/MCB.c **** EXPORT_SYMBOL(v);
 486              		.loc 1 206 0 discriminator 1
 487 0194 38BD     		pop	{r3, r4, r5, pc}
 488              	.LVL69:
 489              	.L62:
 490              	.LBB3:
 199:../../source/src/kernel/OS_CORE/MCB.c **** 		else if(STATE_WAIT_MCB_TIMEOUT == TCB_ptr->task_state)//STATE_WAIT_MESSAGE_TIMEOUT
 491              		.loc 1 199 0
 492 0196 FFF7FEFF 		bl	remove_from_suspend_list
 493              	.LVL70:
 494 019a E5E7     		b	.L49
 495              	.LVL71:
 496              	.L63:
 201:../../source/src/kernel/OS_CORE/MCB.c **** 		schedule();
 497              		.loc 1 201 0
 498 019c FFF7FEFF 		bl	remove_from_delay_heap
 499              	.LVL72:
 500 01a0 E2E7     		b	.L49
 501              	.L65:
 502 01a2 00BF     		.align	2
ARM GAS  G:\Users\Jaxb\AppData\Local\Temp\ccqu2fCZ.s 			page 15


 503              	.L64:
 504 01a4 00000000 		.word	.LC0
 505 01a8 8C000000 		.word	.LC3
 506              	.LBE3:
 507              		.cfi_endproc
 508              	.LFE17:
 509              		.size	v, .-v
 510              		.align	1
 511              		.p2align 2,,3
 512              		.global	p
 513              		.syntax unified
 514              		.thumb
 515              		.thumb_func
 516              		.fpu softvfp
 517              		.type	p, %function
 518              	p:
 519              	.LFB16:
 108:../../source/src/kernel/OS_CORE/MCB.c **** 	ASSERT(NULL != MCB_ptr);
 520              		.loc 1 108 0
 521              		.cfi_startproc
 522              		@ args = 0, pretend = 0, frame = 24
 523              		@ frame_needed = 0, uses_anonymous_args = 0
 524              	.LVL73:
 525 01ac 2DE9F04F 		push	{r4, r5, r6, r7, r8, r9, r10, fp, lr}
 526              	.LCFI6:
 527              		.cfi_def_cfa_offset 36
 528              		.cfi_offset 4, -36
 529              		.cfi_offset 5, -32
 530              		.cfi_offset 6, -28
 531              		.cfi_offset 7, -24
 532              		.cfi_offset 8, -20
 533              		.cfi_offset 9, -16
 534              		.cfi_offset 10, -12
 535              		.cfi_offset 11, -8
 536              		.cfi_offset 14, -4
 537 01b0 0D46     		mov	r5, r1
 538 01b2 87B0     		sub	sp, sp, #28
 539              	.LCFI7:
 540              		.cfi_def_cfa_offset 64
 108:../../source/src/kernel/OS_CORE/MCB.c **** 	ASSERT(NULL != MCB_ptr);
 541              		.loc 1 108 0
 542 01b4 1746     		mov	r7, r2
 109:../../source/src/kernel/OS_CORE/MCB.c **** #if CONFIG_PARA_CHECK
 543              		.loc 1 109 0
 544 01b6 0446     		mov	r4, r0
 545 01b8 0028     		cmp	r0, #0
 546 01ba 55D0     		beq	.L78
 547              	.LVL74:
 118:../../source/src/kernel/OS_CORE/MCB.c **** 	
 548              		.loc 1 118 0
 549 01bc FFF7FEFF 		bl	CPU_SR_Save
 550              	.LVL75:
 120:../../source/src/kernel/OS_CORE/MCB.c **** 	{
 551              		.loc 1 120 0
 552 01c0 384B     		ldr	r3, .L83
 118:../../source/src/kernel/OS_CORE/MCB.c **** 	
 553              		.loc 1 118 0
ARM GAS  G:\Users\Jaxb\AppData\Local\Temp\ccqu2fCZ.s 			page 16


 554 01c2 0646     		mov	r6, r0
 555              	.LVL76:
 120:../../source/src/kernel/OS_CORE/MCB.c **** 	{
 556              		.loc 1 120 0
 557 01c4 1B68     		ldr	r3, [r3]
 558 01c6 002B     		cmp	r3, #0
 559 01c8 5ADC     		bgt	.L79
 126:../../source/src/kernel/OS_CORE/MCB.c **** 	{
 560              		.loc 1 126 0
 561 01ca 012D     		cmp	r5, #1
 562 01cc A369     		ldr	r3, [r4, #24]
 563 01ce 3AD0     		beq	.L80
 564              	.L69:
 132:../../source/src/kernel/OS_CORE/MCB.c **** 	if(MCB_ptr->resource_num >= 0)
 565              		.loc 1 132 0
 566 01d0 013B     		subs	r3, r3, #1
 133:../../source/src/kernel/OS_CORE/MCB.c **** 	{
 567              		.loc 1 133 0
 568 01d2 002B     		cmp	r3, #0
 132:../../source/src/kernel/OS_CORE/MCB.c **** 	if(MCB_ptr->resource_num >= 0)
 569              		.loc 1 132 0
 570 01d4 A361     		str	r3, [r4, #24]
 133:../../source/src/kernel/OS_CORE/MCB.c **** 	{
 571              		.loc 1 133 0
 572 01d6 06DB     		blt	.L70
 573              	.LVL77:
 574              	.L77:
 135:../../source/src/kernel/OS_CORE/MCB.c **** 		return FUN_EXECUTE_SUCCESSFULLY;
 575              		.loc 1 135 0
 576 01d8 3046     		mov	r0, r6
 577 01da FFF7FEFF 		bl	CPU_SR_Restore
 578              	.LVL78:
 136:../../source/src/kernel/OS_CORE/MCB.c **** 	}
 579              		.loc 1 136 0
 580 01de 0020     		movs	r0, #0
 581              	.L66:
 173:../../source/src/kernel/OS_CORE/MCB.c **** EXPORT_SYMBOL(p);
 582              		.loc 1 173 0
 583 01e0 07B0     		add	sp, sp, #28
 584              	.LCFI8:
 585              		.cfi_remember_state
 586              		.cfi_def_cfa_offset 36
 587              		@ sp needed
 588 01e2 BDE8F08F 		pop	{r4, r5, r6, r7, r8, r9, r10, fp, pc}
 589              	.LVL79:
 590              	.L70:
 591              	.LCFI9:
 592              		.cfi_restore_state
 141:../../source/src/kernel/OS_CORE/MCB.c **** 	insert_sort_insert_into(&data,&MCB_ptr->MCB_insert_sort_list);
 593              		.loc 1 141 0
 594 01e6 304D     		ldr	r5, .L83+4
 595 01e8 6846     		mov	r0, sp
 596              	.LVL80:
 597 01ea 2968     		ldr	r1, [r5]
 598 01ec FFF7FEFF 		bl	init_insert_sort_data
 599              	.LVL81:
 142:../../source/src/kernel/OS_CORE/MCB.c **** 	if(time == 0)//0 represent forever
ARM GAS  G:\Users\Jaxb\AppData\Local\Temp\ccqu2fCZ.s 			page 17


 600              		.loc 1 142 0
 601 01f0 2146     		mov	r1, r4
 602 01f2 6846     		mov	r0, sp
 603 01f4 FFF7FEFF 		bl	insert_sort_insert_into
 604              	.LVL82:
 143:../../source/src/kernel/OS_CORE/MCB.c **** 	{
 605              		.loc 1 143 0
 606 01f8 67B3     		cbz	r7, .L81
 607              	.LBB4:
 152:../../source/src/kernel/OS_CORE/MCB.c **** 		CPU_CRITICAL_EXIT(); //exit  critical
 608              		.loc 1 152 0
 609 01fa FFF7FEFF 		bl	get_tick
 610              	.LVL83:
 611 01fe 8246     		mov	r10, r0
 153:../../source/src/kernel/OS_CORE/MCB.c **** 		sys_delay(time,STATE_WAIT_MCB_TIMEOUT);
 612              		.loc 1 153 0
 613 0200 3046     		mov	r0, r6
 152:../../source/src/kernel/OS_CORE/MCB.c **** 		CPU_CRITICAL_EXIT(); //exit  critical
 614              		.loc 1 152 0
 615 0202 8B46     		mov	fp, r1
 616              	.LVL84:
 153:../../source/src/kernel/OS_CORE/MCB.c **** 		sys_delay(time,STATE_WAIT_MCB_TIMEOUT);
 617              		.loc 1 153 0
 618 0204 FFF7FEFF 		bl	CPU_SR_Restore
 619              	.LVL85:
 154:../../source/src/kernel/OS_CORE/MCB.c **** 		//go back here=========go back here
 620              		.loc 1 154 0
 621 0208 0521     		movs	r1, #5
 622 020a 3846     		mov	r0, r7
 623 020c FFF7FEFF 		bl	sys_delay
 624              	.LVL86:
 156:../../source/src/kernel/OS_CORE/MCB.c **** 		if(get_tick() >= (time_record + time))//prove that timeout happened
 625              		.loc 1 156 0
 626 0210 FFF7FEFF 		bl	CPU_SR_Save
 627              	.LVL87:
 628 0214 0646     		mov	r6, r0
 629              	.LVL88:
 157:../../source/src/kernel/OS_CORE/MCB.c **** 		{
 630              		.loc 1 157 0
 631 0216 FFF7FEFF 		bl	get_tick
 632              	.LVL89:
 633 021a 1AEB0708 		adds	r8, r10, r7
 634 021e 4BF10009 		adc	r9, fp, #0
 635 0222 4945     		cmp	r1, r9
 636 0224 08BF     		it	eq
 637 0226 4045     		cmpeq	r0, r8
 638 0228 2FD2     		bcs	.L82
 639              	.LVL90:
 640              	.L72:
 641              	.LBE4:
 165:../../source/src/kernel/OS_CORE/MCB.c **** 	{
 642              		.loc 1 165 0
 643 022a 2A68     		ldr	r2, [r5]
 644 022c 936B     		ldr	r3, [r2, #56]
 645 022e 13F00204 		ands	r4, r3, #2
 646              	.LVL91:
 647 0232 D1D0     		beq	.L77
ARM GAS  G:\Users\Jaxb\AppData\Local\Temp\ccqu2fCZ.s 			page 18


 167:../../source/src/kernel/OS_CORE/MCB.c **** 		CPU_CRITICAL_EXIT(); //exit  critical
 648              		.loc 1 167 0
 649 0234 23F00203 		bic	r3, r3, #2
 168:../../source/src/kernel/OS_CORE/MCB.c **** 		return -ERROR_MODULE_DELETED;
 650              		.loc 1 168 0
 651 0238 3046     		mov	r0, r6
 167:../../source/src/kernel/OS_CORE/MCB.c **** 		CPU_CRITICAL_EXIT(); //exit  critical
 652              		.loc 1 167 0
 653 023a 9363     		str	r3, [r2, #56]
 168:../../source/src/kernel/OS_CORE/MCB.c **** 		return -ERROR_MODULE_DELETED;
 654              		.loc 1 168 0
 655 023c FFF7FEFF 		bl	CPU_SR_Restore
 656              	.LVL92:
 169:../../source/src/kernel/OS_CORE/MCB.c **** 	}
 657              		.loc 1 169 0
 658 0240 6FF0F900 		mvn	r0, #249
 659 0244 CCE7     		b	.L66
 660              	.LVL93:
 661              	.L80:
 126:../../source/src/kernel/OS_CORE/MCB.c **** 	{
 662              		.loc 1 126 0 discriminator 1
 663 0246 002B     		cmp	r3, #0
 664 0248 C2DC     		bgt	.L69
 128:../../source/src/kernel/OS_CORE/MCB.c **** 		return -MCB_OUT_OF_RESOURCE;
 665              		.loc 1 128 0
 666 024a FFF7FEFF 		bl	CPU_SR_Restore
 667              	.LVL94:
 129:../../source/src/kernel/OS_CORE/MCB.c **** 	}
 668              		.loc 1 129 0
 669 024e 4FF0FF30 		mov	r0, #-1
 670 0252 C5E7     		b	.L66
 671              	.L81:
 145:../../source/src/kernel/OS_CORE/MCB.c **** 		sys_suspend(STATE_WAIT_MCB_FOREVER);
 672              		.loc 1 145 0
 673 0254 3046     		mov	r0, r6
 674 0256 FFF7FEFF 		bl	CPU_SR_Restore
 675              	.LVL95:
 146:../../source/src/kernel/OS_CORE/MCB.c **** 		//go back here=========go back here
 676              		.loc 1 146 0
 677 025a 0420     		movs	r0, #4
 678 025c FFF7FEFF 		bl	sys_suspend
 679              	.LVL96:
 148:../../source/src/kernel/OS_CORE/MCB.c **** 	}
 680              		.loc 1 148 0
 681 0260 FFF7FEFF 		bl	CPU_SR_Save
 682              	.LVL97:
 683 0264 0646     		mov	r6, r0
 684              	.LVL98:
 685 0266 E0E7     		b	.L72
 686              	.LVL99:
 687              	.L78:
 109:../../source/src/kernel/OS_CORE/MCB.c **** #if CONFIG_PARA_CHECK
 688              		.loc 1 109 0 discriminator 1
 689 0268 6D21     		movs	r1, #109
 690              	.LVL100:
 691 026a 1048     		ldr	r0, .L83+8
 692              	.LVL101:
ARM GAS  G:\Users\Jaxb\AppData\Local\Temp\ccqu2fCZ.s 			page 19


 693 026c FFF7FEFF 		bl	_ASSERT
 694              	.LVL102:
 113:../../source/src/kernel/OS_CORE/MCB.c **** 		return -ERROR_NULL_INPUT_PTR;
 695              		.loc 1 113 0 discriminator 1
 696 0270 0F48     		ldr	r0, .L83+12
 697 0272 FFF7FEFF 		bl	ka_printf
 698              	.LVL103:
 114:../../source/src/kernel/OS_CORE/MCB.c **** 	}
 699              		.loc 1 114 0 discriminator 1
 700 0276 6FF0FE00 		mvn	r0, #254
 173:../../source/src/kernel/OS_CORE/MCB.c **** EXPORT_SYMBOL(p);
 701              		.loc 1 173 0 discriminator 1
 702 027a 07B0     		add	sp, sp, #28
 703              	.LCFI10:
 704              		.cfi_remember_state
 705              		.cfi_def_cfa_offset 36
 706              		@ sp needed
 707 027c BDE8F08F 		pop	{r4, r5, r6, r7, r8, r9, r10, fp, pc}
 708              	.LVL104:
 709              	.L79:
 710              	.LCFI11:
 711              		.cfi_restore_state
 122:../../source/src/kernel/OS_CORE/MCB.c **** 		return -ERROR_FUN_USE_IN_INTER;
 712              		.loc 1 122 0
 713 0280 FFF7FEFF 		bl	CPU_SR_Restore
 714              	.LVL105:
 123:../../source/src/kernel/OS_CORE/MCB.c **** 	}
 715              		.loc 1 123 0
 716 0284 6FF0FC00 		mvn	r0, #252
 717 0288 AAE7     		b	.L66
 718              	.LVL106:
 719              	.L82:
 720              	.LBB5:
 159:../../source/src/kernel/OS_CORE/MCB.c **** 			insert_sort_delete_data(&MCB_ptr->MCB_insert_sort_list,OSTCBCurPtr);
 721              		.loc 1 159 0
 722 028a A369     		ldr	r3, [r4, #24]
 160:../../source/src/kernel/OS_CORE/MCB.c **** 			CPU_CRITICAL_EXIT(); //exit  critical
 723              		.loc 1 160 0
 724 028c 2968     		ldr	r1, [r5]
 159:../../source/src/kernel/OS_CORE/MCB.c **** 			insert_sort_delete_data(&MCB_ptr->MCB_insert_sort_list,OSTCBCurPtr);
 725              		.loc 1 159 0
 726 028e 0133     		adds	r3, r3, #1
 727 0290 A361     		str	r3, [r4, #24]
 160:../../source/src/kernel/OS_CORE/MCB.c **** 			CPU_CRITICAL_EXIT(); //exit  critical
 728              		.loc 1 160 0
 729 0292 2046     		mov	r0, r4
 730 0294 FFF7FEFF 		bl	insert_sort_delete_data
 731              	.LVL107:
 161:../../source/src/kernel/OS_CORE/MCB.c **** 			return -MCB_OUT_OF_TIME;
 732              		.loc 1 161 0
 733 0298 3046     		mov	r0, r6
 734 029a FFF7FEFF 		bl	CPU_SR_Restore
 735              	.LVL108:
 162:../../source/src/kernel/OS_CORE/MCB.c **** 		}
 736              		.loc 1 162 0
 737 029e 6FF00100 		mvn	r0, #1
 738 02a2 9DE7     		b	.L66
ARM GAS  G:\Users\Jaxb\AppData\Local\Temp\ccqu2fCZ.s 			page 20


 739              	.L84:
 740              		.align	2
 741              	.L83:
 742 02a4 00000000 		.word	g_interrupt_count
 743 02a8 00000000 		.word	OSTCBCurPtr
 744 02ac 00000000 		.word	.LC0
 745 02b0 B8000000 		.word	.LC4
 746              	.LBE5:
 747              		.cfi_endproc
 748              	.LFE16:
 749              		.size	p, .-p
 750              		.global	__rtmsym_clear_MCB_index
 751              		.global	__rtmsym_clear_MCB_index_name
 752              		.global	__rtmsym_v
 753              		.global	__rtmsym_v_name
 754              		.global	__rtmsym_p
 755              		.global	__rtmsym_p_name
 756              		.global	__rtmsym_delete_MCB
 757              		.global	__rtmsym_delete_MCB_name
 758              		.global	__rtmsym_init_MCB
 759              		.global	__rtmsym_init_MCB_name
 760              		.section	.RTMSymTab,"a",%progbits
 761              		.align	2
 762              		.type	__rtmsym_clear_MCB_index, %object
 763              		.size	__rtmsym_clear_MCB_index, 8
 764              	__rtmsym_clear_MCB_index:
 765 0000 00000000 		.word	clear_MCB_index
 766 0004 00000000 		.word	__rtmsym_clear_MCB_index_name
 767              		.type	__rtmsym_v, %object
 768              		.size	__rtmsym_v, 8
 769              	__rtmsym_v:
 770 0008 00000000 		.word	v
 771 000c 00000000 		.word	__rtmsym_v_name
 772              		.type	__rtmsym_p, %object
 773              		.size	__rtmsym_p, 8
 774              	__rtmsym_p:
 775 0010 00000000 		.word	p
 776 0014 00000000 		.word	__rtmsym_p_name
 777              		.type	__rtmsym_delete_MCB, %object
 778              		.size	__rtmsym_delete_MCB, 8
 779              	__rtmsym_delete_MCB:
 780 0018 00000000 		.word	delete_MCB
 781 001c 00000000 		.word	__rtmsym_delete_MCB_name
 782              		.type	__rtmsym_init_MCB, %object
 783              		.size	__rtmsym_init_MCB, 8
 784              	__rtmsym_init_MCB:
 785 0020 00000000 		.word	init_MCB
 786 0024 00000000 		.word	__rtmsym_init_MCB_name
 787              		.section	.rodata.name,"a",%progbits
 788              		.align	2
 789              		.type	__rtmsym_clear_MCB_index_name, %object
 790              		.size	__rtmsym_clear_MCB_index_name, 16
 791              	__rtmsym_clear_MCB_index_name:
 792 0000 636C6561 		.ascii	"clear_MCB_index\000"
 792      725F4D43 
 792      425F696E 
 792      64657800 
ARM GAS  G:\Users\Jaxb\AppData\Local\Temp\ccqu2fCZ.s 			page 21


 793              		.type	__rtmsym_v_name, %object
 794              		.size	__rtmsym_v_name, 2
 795              	__rtmsym_v_name:
 796 0010 7600     		.ascii	"v\000"
 797 0012 0000     		.space	2
 798              		.type	__rtmsym_p_name, %object
 799              		.size	__rtmsym_p_name, 2
 800              	__rtmsym_p_name:
 801 0014 7000     		.ascii	"p\000"
 802 0016 0000     		.space	2
 803              		.type	__rtmsym_delete_MCB_name, %object
 804              		.size	__rtmsym_delete_MCB_name, 11
 805              	__rtmsym_delete_MCB_name:
 806 0018 64656C65 		.ascii	"delete_MCB\000"
 806      74655F4D 
 806      434200
 807 0023 00       		.space	1
 808              		.type	__rtmsym_init_MCB_name, %object
 809              		.size	__rtmsym_init_MCB_name, 9
 810              	__rtmsym_init_MCB_name:
 811 0024 696E6974 		.ascii	"init_MCB\000"
 811      5F4D4342 
 811      00
 812              		.section	.rodata.str1.4,"aMS",%progbits,1
 813              		.align	2
 814              	.LC0:
 815 0000 2E2E2F2E 		.ascii	"../../source/src/kernel/OS_CORE/MCB.c\000"
 815      2E2F736F 
 815      75726365 
 815      2F737263 
 815      2F6B6572 
 816 0026 0000     		.space	2
 817              	.LC1:
 818 0028 6572726F 		.ascii	"error fun name : init_MCB\012error para : MCB_ptr\012"
 818      72206675 
 818      6E206E61 
 818      6D65203A 
 818      20696E69 
 819 0057 00       		.ascii	"\000"
 820              	.LC2:
 821 0058 6572726F 		.ascii	"error fun name : delete_MCB\012error para : MCB_ptr"
 821      72206675 
 821      6E206E61 
 821      6D65203A 
 821      2064656C 
 822 0088 0A00     		.ascii	"\012\000"
 823 008a 0000     		.space	2
 824              	.LC3:
 825 008c 6572726F 		.ascii	"error fun name : v\012error para : MCB_ptr\012\000"
 825      72206675 
 825      6E206E61 
 825      6D65203A 
 825      20760A65 
 826 00b5 000000   		.space	3
 827              	.LC4:
 828 00b8 6572726F 		.ascii	"error fun name : p\012error para : MCB_ptr\012\000"
 828      72206675 
ARM GAS  G:\Users\Jaxb\AppData\Local\Temp\ccqu2fCZ.s 			page 22


 828      6E206E61 
 828      6D65203A 
 828      20700A65 
 829              		.text
 830              	.Letext0:
 831              		.file 2 "../../source/include/os_cpu/kakaosstdint.h"
 832              		.file 3 "../../source/include/os_lib/double_linked_list.h"
 833              		.file 4 "../../source/include/os_core/task_state.h"
 834              		.file 5 "../../source/include/os_core/TCB.h"
 835              		.file 6 "../../source/include/os_lib/insert_sort_oo.h"
 836              		.file 7 "../../source/include/os_core/MCB.h"
 837              		.file 8 "../../source/include/os_cpu/os_cpu_stm32.h"
 838              		.file 9 "../../source/include/os_core/export.h"
 839              		.file 10 "../../source/include/os_lib/myassert.h"
 840              		.file 11 "../../source/include/os_core/schedule/os_schedule.h"
 841              		.file 12 "../../source/include/os_core/schedule/os_suspend.h"
 842              		.file 13 "../../source/include/os_core/schedule/os_delay.h"
 843              		.file 14 "../../source/include/os_lib/myMicroLIB.h"
 844              		.file 15 "../../source/include/os_core/os_time.h"
 845              		.section	.debug_info,"",%progbits
 846              	.Ldebug_info0:
 847 0000 350B0000 		.4byte	0xb35
 848 0004 0200     		.2byte	0x2
 849 0006 00000000 		.4byte	.Ldebug_abbrev0
 850 000a 04       		.byte	0x4
 851 000b 01       		.uleb128 0x1
 852 000c CF050000 		.4byte	.LASF103
 853 0010 0C       		.byte	0xc
 854 0011 80040000 		.4byte	.LASF104
 855 0015 F9010000 		.4byte	.LASF105
 856 0019 00000000 		.4byte	.Ltext0
 857 001d B4020000 		.4byte	.Letext0
 858 0021 00000000 		.4byte	.Ldebug_line0
 859 0025 02       		.uleb128 0x2
 860 0026 01       		.byte	0x1
 861 0027 06       		.byte	0x6
 862 0028 36030000 		.4byte	.LASF0
 863 002c 02       		.uleb128 0x2
 864 002d 02       		.byte	0x2
 865 002e 05       		.byte	0x5
 866 002f 83000000 		.4byte	.LASF1
 867 0033 03       		.uleb128 0x3
 868 0034 04       		.byte	0x4
 869 0035 05       		.byte	0x5
 870 0036 696E7400 		.ascii	"int\000"
 871 003a 04       		.uleb128 0x4
 872 003b 33000000 		.4byte	0x33
 873 003f 02       		.uleb128 0x2
 874 0040 08       		.byte	0x8
 875 0041 05       		.byte	0x5
 876 0042 27020000 		.4byte	.LASF2
 877 0046 02       		.uleb128 0x2
 878 0047 01       		.byte	0x1
 879 0048 08       		.byte	0x8
 880 0049 E6020000 		.4byte	.LASF3
 881 004d 02       		.uleb128 0x2
 882 004e 02       		.byte	0x2
ARM GAS  G:\Users\Jaxb\AppData\Local\Temp\ccqu2fCZ.s 			page 23


 883 004f 07       		.byte	0x7
 884 0050 DC030000 		.4byte	.LASF4
 885 0054 05       		.uleb128 0x5
 886 0055 D5000000 		.4byte	.LASF6
 887 0059 02       		.byte	0x2
 888 005a 0C       		.byte	0xc
 889 005b 5F000000 		.4byte	0x5f
 890 005f 02       		.uleb128 0x2
 891 0060 04       		.byte	0x4
 892 0061 07       		.byte	0x7
 893 0062 94030000 		.4byte	.LASF5
 894 0066 05       		.uleb128 0x5
 895 0067 D4060000 		.4byte	.LASF7
 896 006b 02       		.byte	0x2
 897 006c 0D       		.byte	0xd
 898 006d 71000000 		.4byte	0x71
 899 0071 02       		.uleb128 0x2
 900 0072 08       		.byte	0x8
 901 0073 07       		.byte	0x7
 902 0074 42030000 		.4byte	.LASF8
 903 0078 06       		.uleb128 0x6
 904 0079 42000000 		.4byte	.LASF24
 905 007d 08       		.byte	0x8
 906 007e 03       		.byte	0x3
 907 007f 04       		.byte	0x4
 908 0080 A1000000 		.4byte	0xa1
 909 0084 07       		.uleb128 0x7
 910 0085 E9060000 		.4byte	.LASF9
 911 0089 03       		.byte	0x3
 912 008a 05       		.byte	0x5
 913 008b A1000000 		.4byte	0xa1
 914 008f 02       		.byte	0x2
 915 0090 23       		.byte	0x23
 916 0091 00       		.uleb128 0
 917 0092 07       		.uleb128 0x7
 918 0093 94060000 		.4byte	.LASF10
 919 0097 03       		.byte	0x3
 920 0098 05       		.byte	0x5
 921 0099 A1000000 		.4byte	0xa1
 922 009d 02       		.byte	0x2
 923 009e 23       		.byte	0x23
 924 009f 04       		.uleb128 0x4
 925 00a0 00       		.byte	0
 926 00a1 08       		.uleb128 0x8
 927 00a2 04       		.byte	0x4
 928 00a3 78000000 		.4byte	0x78
 929 00a7 09       		.uleb128 0x9
 930 00a8 00010000 		.4byte	.LASF52
 931 00ac 07       		.byte	0x7
 932 00ad 01       		.byte	0x1
 933 00ae 46000000 		.4byte	0x46
 934 00b2 04       		.byte	0x4
 935 00b3 04       		.byte	0x4
 936 00b4 F5000000 		.4byte	0xf5
 937 00b8 0A       		.uleb128 0xa
 938 00b9 EF030000 		.4byte	.LASF11
 939 00bd 01       		.byte	0x1
ARM GAS  G:\Users\Jaxb\AppData\Local\Temp\ccqu2fCZ.s 			page 24


 940 00be 0A       		.uleb128 0xa
 941 00bf 09030000 		.4byte	.LASF12
 942 00c3 02       		.byte	0x2
 943 00c4 0A       		.uleb128 0xa
 944 00c5 0F000000 		.4byte	.LASF13
 945 00c9 03       		.byte	0x3
 946 00ca 0A       		.uleb128 0xa
 947 00cb 32050000 		.4byte	.LASF14
 948 00cf 04       		.byte	0x4
 949 00d0 0A       		.uleb128 0xa
 950 00d1 B8010000 		.4byte	.LASF15
 951 00d5 05       		.byte	0x5
 952 00d6 0A       		.uleb128 0xa
 953 00d7 B4000000 		.4byte	.LASF16
 954 00db 06       		.byte	0x6
 955 00dc 0A       		.uleb128 0xa
 956 00dd D8010000 		.4byte	.LASF17
 957 00e1 07       		.byte	0x7
 958 00e2 0A       		.uleb128 0xa
 959 00e3 0B010000 		.4byte	.LASF18
 960 00e7 08       		.byte	0x8
 961 00e8 0A       		.uleb128 0xa
 962 00e9 22040000 		.4byte	.LASF19
 963 00ed 09       		.byte	0x9
 964 00ee 0A       		.uleb128 0xa
 965 00ef 75060000 		.4byte	.LASF20
 966 00f3 0A       		.byte	0xa
 967 00f4 00       		.byte	0
 968 00f5 05       		.uleb128 0x5
 969 00f6 A1020000 		.4byte	.LASF21
 970 00fa 04       		.byte	0x4
 971 00fb 0F       		.byte	0xf
 972 00fc A7000000 		.4byte	0xa7
 973 0100 05       		.uleb128 0x5
 974 0101 F5000000 		.4byte	.LASF22
 975 0105 05       		.byte	0x5
 976 0106 09       		.byte	0x9
 977 0107 5F000000 		.4byte	0x5f
 978 010b 05       		.uleb128 0x5
 979 010c 00000000 		.4byte	.LASF23
 980 0110 05       		.byte	0x5
 981 0111 0B       		.byte	0xb
 982 0112 5F000000 		.4byte	0x5f
 983 0116 0B       		.uleb128 0xb
 984 0117 04       		.byte	0x4
 985 0118 0C       		.uleb128 0xc
 986 0119 B6050000 		.4byte	.LASF65
 987 011d 05       		.byte	0x5
 988 011e 12       		.byte	0x12
 989 011f 3A000000 		.4byte	0x3a
 990 0123 01       		.byte	0x1
 991 0124 01       		.byte	0x1
 992 0125 06       		.uleb128 0x6
 993 0126 51050000 		.4byte	.LASF25
 994 012a 48       		.byte	0x48
 995 012b 05       		.byte	0x5
 996 012c 2F       		.byte	0x2f
ARM GAS  G:\Users\Jaxb\AppData\Local\Temp\ccqu2fCZ.s 			page 25


 997 012d F6010000 		.4byte	0x1f6
 998 0131 07       		.uleb128 0x7
 999 0132 AA030000 		.4byte	.LASF26
 1000 0136 05       		.byte	0x5
 1001 0137 30       		.byte	0x30
 1002 0138 F6010000 		.4byte	0x1f6
 1003 013c 02       		.byte	0x2
 1004 013d 23       		.byte	0x23
 1005 013e 00       		.uleb128 0
 1006 013f 07       		.uleb128 0x7
 1007 0140 6B050000 		.4byte	.LASF27
 1008 0144 05       		.byte	0x5
 1009 0145 31       		.byte	0x31
 1010 0146 5F000000 		.4byte	0x5f
 1011 014a 02       		.byte	0x2
 1012 014b 23       		.byte	0x23
 1013 014c 04       		.uleb128 0x4
 1014 014d 07       		.uleb128 0x7
 1015 014e AE010000 		.4byte	.LASF28
 1016 0152 05       		.byte	0x5
 1017 0153 32       		.byte	0x32
 1018 0154 F6010000 		.4byte	0x1f6
 1019 0158 02       		.byte	0x2
 1020 0159 23       		.byte	0x23
 1021 015a 08       		.uleb128 0x8
 1022 015b 07       		.uleb128 0x7
 1023 015c DB060000 		.4byte	.LASF29
 1024 0160 05       		.byte	0x5
 1025 0161 33       		.byte	0x33
 1026 0162 0B010000 		.4byte	0x10b
 1027 0166 02       		.byte	0x2
 1028 0167 23       		.byte	0x23
 1029 0168 0C       		.uleb128 0xc
 1030 0169 07       		.uleb128 0x7
 1031 016a 8C050000 		.4byte	.LASF30
 1032 016e 05       		.byte	0x5
 1033 016f 34       		.byte	0x34
 1034 0170 0B010000 		.4byte	0x10b
 1035 0174 02       		.byte	0x2
 1036 0175 23       		.byte	0x23
 1037 0176 10       		.uleb128 0x10
 1038 0177 07       		.uleb128 0x7
 1039 0178 BA040000 		.4byte	.LASF31
 1040 017c 05       		.byte	0x5
 1041 017d 35       		.byte	0x35
 1042 017e F5000000 		.4byte	0xf5
 1043 0182 02       		.byte	0x2
 1044 0183 23       		.byte	0x23
 1045 0184 14       		.uleb128 0x14
 1046 0185 07       		.uleb128 0x7
 1047 0186 A6040000 		.4byte	.LASF32
 1048 018a 05       		.byte	0x5
 1049 018b 36       		.byte	0x36
 1050 018c 33000000 		.4byte	0x33
 1051 0190 02       		.byte	0x2
 1052 0191 23       		.byte	0x23
 1053 0192 18       		.uleb128 0x18
ARM GAS  G:\Users\Jaxb\AppData\Local\Temp\ccqu2fCZ.s 			page 26


 1054 0193 07       		.uleb128 0x7
 1055 0194 BE030000 		.4byte	.LASF33
 1056 0198 05       		.byte	0x5
 1057 0199 37       		.byte	0x37
 1058 019a 78000000 		.4byte	0x78
 1059 019e 02       		.byte	0x2
 1060 019f 23       		.byte	0x23
 1061 01a0 1C       		.uleb128 0x1c
 1062 01a1 07       		.uleb128 0x7
 1063 01a2 A9050000 		.4byte	.LASF34
 1064 01a6 05       		.byte	0x5
 1065 01a7 38       		.byte	0x38
 1066 01a8 78000000 		.4byte	0x78
 1067 01ac 02       		.byte	0x2
 1068 01ad 23       		.byte	0x23
 1069 01ae 24       		.uleb128 0x24
 1070 01af 07       		.uleb128 0x7
 1071 01b0 B8020000 		.4byte	.LASF35
 1072 01b4 05       		.byte	0x5
 1073 01b5 39       		.byte	0x39
 1074 01b6 FC010000 		.4byte	0x1fc
 1075 01ba 02       		.byte	0x2
 1076 01bb 23       		.byte	0x23
 1077 01bc 2C       		.uleb128 0x2c
 1078 01bd 07       		.uleb128 0x7
 1079 01be 35020000 		.4byte	.LASF36
 1080 01c2 05       		.byte	0x5
 1081 01c3 3A       		.byte	0x3a
 1082 01c4 5F000000 		.4byte	0x5f
 1083 01c8 02       		.byte	0x2
 1084 01c9 23       		.byte	0x23
 1085 01ca 30       		.uleb128 0x30
 1086 01cb 07       		.uleb128 0x7
 1087 01cc F5040000 		.4byte	.LASF37
 1088 01d0 05       		.byte	0x5
 1089 01d1 3B       		.byte	0x3b
 1090 01d2 5F000000 		.4byte	0x5f
 1091 01d6 02       		.byte	0x2
 1092 01d7 23       		.byte	0x23
 1093 01d8 34       		.uleb128 0x34
 1094 01d9 07       		.uleb128 0x7
 1095 01da 15030000 		.4byte	.LASF38
 1096 01de 05       		.byte	0x5
 1097 01df 3C       		.byte	0x3c
 1098 01e0 54000000 		.4byte	0x54
 1099 01e4 02       		.byte	0x2
 1100 01e5 23       		.byte	0x23
 1101 01e6 38       		.uleb128 0x38
 1102 01e7 07       		.uleb128 0x7
 1103 01e8 A0060000 		.4byte	.LASF39
 1104 01ec 05       		.byte	0x5
 1105 01ed 3D       		.byte	0x3d
 1106 01ee 66000000 		.4byte	0x66
 1107 01f2 02       		.byte	0x2
 1108 01f3 23       		.byte	0x23
 1109 01f4 40       		.uleb128 0x40
 1110 01f5 00       		.byte	0
ARM GAS  G:\Users\Jaxb\AppData\Local\Temp\ccqu2fCZ.s 			page 27


 1111 01f6 08       		.uleb128 0x8
 1112 01f7 04       		.byte	0x4
 1113 01f8 00010000 		.4byte	0x100
 1114 01fc 08       		.uleb128 0x8
 1115 01fd 04       		.byte	0x4
 1116 01fe 02020000 		.4byte	0x202
 1117 0202 02       		.uleb128 0x2
 1118 0203 01       		.byte	0x1
 1119 0204 08       		.byte	0x8
 1120 0205 0D040000 		.4byte	.LASF40
 1121 0209 0D       		.uleb128 0xd
 1122 020a 02020000 		.4byte	0x202
 1123 020e 0E       		.uleb128 0xe
 1124 020f 54434200 		.ascii	"TCB\000"
 1125 0213 05       		.byte	0x5
 1126 0214 3E       		.byte	0x3e
 1127 0215 25010000 		.4byte	0x125
 1128 0219 05       		.uleb128 0x5
 1129 021a 78040000 		.4byte	.LASF41
 1130 021e 06       		.byte	0x6
 1131 021f 0D       		.byte	0xd
 1132 0220 66000000 		.4byte	0x66
 1133 0224 06       		.uleb128 0x6
 1134 0225 4E020000 		.4byte	.LASF42
 1135 0229 18       		.byte	0x18
 1136 022a 06       		.byte	0x6
 1137 022b 0F       		.byte	0xf
 1138 022c 5B020000 		.4byte	0x25b
 1139 0230 07       		.uleb128 0x7
 1140 0231 E0060000 		.4byte	.LASF43
 1141 0235 06       		.byte	0x6
 1142 0236 11       		.byte	0x11
 1143 0237 16010000 		.4byte	0x116
 1144 023b 02       		.byte	0x2
 1145 023c 23       		.byte	0x23
 1146 023d 00       		.uleb128 0
 1147 023e 07       		.uleb128 0x7
 1148 023f 9C000000 		.4byte	.LASF44
 1149 0243 06       		.byte	0x6
 1150 0244 12       		.byte	0x12
 1151 0245 19020000 		.4byte	0x219
 1152 0249 02       		.byte	0x2
 1153 024a 23       		.byte	0x23
 1154 024b 08       		.uleb128 0x8
 1155 024c 07       		.uleb128 0x7
 1156 024d AA000000 		.4byte	.LASF45
 1157 0251 06       		.byte	0x6
 1158 0252 13       		.byte	0x13
 1159 0253 78000000 		.4byte	0x78
 1160 0257 02       		.byte	0x2
 1161 0258 23       		.byte	0x23
 1162 0259 10       		.uleb128 0x10
 1163 025a 00       		.byte	0
 1164 025b 06       		.uleb128 0x6
 1165 025c 1F050000 		.4byte	.LASF46
 1166 0260 18       		.byte	0x18
 1167 0261 06       		.byte	0x6
ARM GAS  G:\Users\Jaxb\AppData\Local\Temp\ccqu2fCZ.s 			page 28


 1168 0262 1D       		.byte	0x1d
 1169 0263 AE020000 		.4byte	0x2ae
 1170 0267 07       		.uleb128 0x7
 1171 0268 74000000 		.4byte	.LASF47
 1172 026c 06       		.byte	0x6
 1173 026d 27       		.byte	0x27
 1174 026e 78000000 		.4byte	0x78
 1175 0272 02       		.byte	0x2
 1176 0273 23       		.byte	0x23
 1177 0274 00       		.uleb128 0
 1178 0275 07       		.uleb128 0x7
 1179 0276 C9020000 		.4byte	.LASF48
 1180 027a 06       		.byte	0x6
 1181 027b 28       		.byte	0x28
 1182 027c 5F000000 		.4byte	0x5f
 1183 0280 02       		.byte	0x2
 1184 0281 23       		.byte	0x23
 1185 0282 08       		.uleb128 0x8
 1186 0283 07       		.uleb128 0x7
 1187 0284 49050000 		.4byte	.LASF49
 1188 0288 06       		.byte	0x6
 1189 0289 2C       		.byte	0x2c
 1190 028a C9020000 		.4byte	0x2c9
 1191 028e 02       		.byte	0x2
 1192 028f 23       		.byte	0x23
 1193 0290 0C       		.uleb128 0xc
 1194 0291 07       		.uleb128 0x7
 1195 0292 5F020000 		.4byte	.LASF50
 1196 0296 06       		.byte	0x6
 1197 0297 2D       		.byte	0x2d
 1198 0298 E4020000 		.4byte	0x2e4
 1199 029c 02       		.byte	0x2
 1200 029d 23       		.byte	0x23
 1201 029e 10       		.uleb128 0x10
 1202 029f 07       		.uleb128 0x7
 1203 02a0 D2030000 		.4byte	.LASF51
 1204 02a4 06       		.byte	0x6
 1205 02a5 2E       		.byte	0x2e
 1206 02a6 FF020000 		.4byte	0x2ff
 1207 02aa 02       		.byte	0x2
 1208 02ab 23       		.byte	0x23
 1209 02ac 14       		.uleb128 0x14
 1210 02ad 00       		.byte	0
 1211 02ae 0F       		.uleb128 0xf
 1212 02af 01       		.byte	0x1
 1213 02b0 33000000 		.4byte	0x33
 1214 02b4 C3020000 		.4byte	0x2c3
 1215 02b8 10       		.uleb128 0x10
 1216 02b9 C3020000 		.4byte	0x2c3
 1217 02bd 10       		.uleb128 0x10
 1218 02be C3020000 		.4byte	0x2c3
 1219 02c2 00       		.byte	0
 1220 02c3 08       		.uleb128 0x8
 1221 02c4 04       		.byte	0x4
 1222 02c5 24020000 		.4byte	0x224
 1223 02c9 08       		.uleb128 0x8
 1224 02ca 04       		.byte	0x4
ARM GAS  G:\Users\Jaxb\AppData\Local\Temp\ccqu2fCZ.s 			page 29


 1225 02cb AE020000 		.4byte	0x2ae
 1226 02cf 0F       		.uleb128 0xf
 1227 02d0 01       		.byte	0x1
 1228 02d1 33000000 		.4byte	0x33
 1229 02d5 E4020000 		.4byte	0x2e4
 1230 02d9 10       		.uleb128 0x10
 1231 02da C3020000 		.4byte	0x2c3
 1232 02de 10       		.uleb128 0x10
 1233 02df 16010000 		.4byte	0x116
 1234 02e3 00       		.byte	0
 1235 02e4 08       		.uleb128 0x8
 1236 02e5 04       		.byte	0x4
 1237 02e6 CF020000 		.4byte	0x2cf
 1238 02ea 0F       		.uleb128 0xf
 1239 02eb 01       		.byte	0x1
 1240 02ec 33000000 		.4byte	0x33
 1241 02f0 FF020000 		.4byte	0x2ff
 1242 02f4 10       		.uleb128 0x10
 1243 02f5 16010000 		.4byte	0x116
 1244 02f9 10       		.uleb128 0x10
 1245 02fa 16010000 		.4byte	0x116
 1246 02fe 00       		.byte	0
 1247 02ff 08       		.uleb128 0x8
 1248 0300 04       		.byte	0x4
 1249 0301 EA020000 		.4byte	0x2ea
 1250 0305 09       		.uleb128 0x9
 1251 0306 B0030000 		.4byte	.LASF53
 1252 030a 07       		.byte	0x7
 1253 030b 01       		.byte	0x1
 1254 030c 46000000 		.4byte	0x46
 1255 0310 07       		.byte	0x7
 1256 0311 07       		.byte	0x7
 1257 0312 29030000 		.4byte	0x329
 1258 0316 0A       		.uleb128 0xa
 1259 0317 76050000 		.4byte	.LASF54
 1260 031b 00       		.byte	0
 1261 031c 0A       		.uleb128 0xa
 1262 031d 4E010000 		.4byte	.LASF55
 1263 0321 01       		.byte	0x1
 1264 0322 0A       		.uleb128 0xa
 1265 0323 12040000 		.4byte	.LASF56
 1266 0327 02       		.byte	0x2
 1267 0328 00       		.byte	0
 1268 0329 05       		.uleb128 0x5
 1269 032a B0030000 		.4byte	.LASF53
 1270 032e 07       		.byte	0x7
 1271 032f 0C       		.byte	0xc
 1272 0330 05030000 		.4byte	0x305
 1273 0334 06       		.uleb128 0x6
 1274 0335 4D040000 		.4byte	.LASF57
 1275 0339 20       		.byte	0x20
 1276 033a 07       		.byte	0x7
 1277 033b 15       		.byte	0x15
 1278 033c 6B030000 		.4byte	0x36b
 1279 0340 07       		.uleb128 0x7
 1280 0341 F4020000 		.4byte	.LASF58
 1281 0345 07       		.byte	0x7
ARM GAS  G:\Users\Jaxb\AppData\Local\Temp\ccqu2fCZ.s 			page 30


 1282 0346 16       		.byte	0x16
 1283 0347 5B020000 		.4byte	0x25b
 1284 034b 02       		.byte	0x2
 1285 034c 23       		.byte	0x23
 1286 034d 00       		.uleb128 0
 1287 034e 07       		.uleb128 0x7
 1288 034f C7060000 		.4byte	.LASF59
 1289 0353 07       		.byte	0x7
 1290 0354 17       		.byte	0x17
 1291 0355 33000000 		.4byte	0x33
 1292 0359 02       		.byte	0x2
 1293 035a 23       		.byte	0x23
 1294 035b 18       		.uleb128 0x18
 1295 035c 07       		.uleb128 0x7
 1296 035d 49020000 		.4byte	.LASF60
 1297 0361 07       		.byte	0x7
 1298 0362 18       		.byte	0x18
 1299 0363 5F000000 		.4byte	0x5f
 1300 0367 02       		.byte	0x2
 1301 0368 23       		.byte	0x23
 1302 0369 1C       		.uleb128 0x1c
 1303 036a 00       		.byte	0
 1304 036b 0E       		.uleb128 0xe
 1305 036c 4D434200 		.ascii	"MCB\000"
 1306 0370 07       		.byte	0x7
 1307 0371 19       		.byte	0x19
 1308 0372 34030000 		.4byte	0x334
 1309 0376 05       		.uleb128 0x5
 1310 0377 42040000 		.4byte	.LASF61
 1311 037b 08       		.byte	0x8
 1312 037c 04       		.byte	0x4
 1313 037d 5F000000 		.4byte	0x5f
 1314 0381 05       		.uleb128 0x5
 1315 0382 99060000 		.4byte	.LASF62
 1316 0386 08       		.byte	0x8
 1317 0387 06       		.byte	0x6
 1318 0388 76030000 		.4byte	0x376
 1319 038c 06       		.uleb128 0x6
 1320 038d 6D010000 		.4byte	.LASF63
 1321 0391 08       		.byte	0x8
 1322 0392 09       		.byte	0x9
 1323 0393 05       		.byte	0x5
 1324 0394 B5030000 		.4byte	0x3b5
 1325 0398 07       		.uleb128 0x7
 1326 0399 7C020000 		.4byte	.LASF64
 1327 039d 09       		.byte	0x9
 1328 039e 07       		.byte	0x7
 1329 039f 16010000 		.4byte	0x116
 1330 03a3 02       		.byte	0x2
 1331 03a4 23       		.byte	0x23
 1332 03a5 00       		.uleb128 0
 1333 03a6 07       		.uleb128 0x7
 1334 03a7 B8020000 		.4byte	.LASF35
 1335 03ab 09       		.byte	0x9
 1336 03ac 08       		.byte	0x8
 1337 03ad BA030000 		.4byte	0x3ba
 1338 03b1 02       		.byte	0x2
ARM GAS  G:\Users\Jaxb\AppData\Local\Temp\ccqu2fCZ.s 			page 31


 1339 03b2 23       		.byte	0x23
 1340 03b3 04       		.uleb128 0x4
 1341 03b4 00       		.byte	0
 1342 03b5 0D       		.uleb128 0xd
 1343 03b6 8C030000 		.4byte	0x38c
 1344 03ba 08       		.uleb128 0x8
 1345 03bb 04       		.byte	0x4
 1346 03bc 09020000 		.4byte	0x209
 1347 03c0 0C       		.uleb128 0xc
 1348 03c1 BD020000 		.4byte	.LASF66
 1349 03c5 01       		.byte	0x1
 1350 03c6 0D       		.byte	0xd
 1351 03c7 CD030000 		.4byte	0x3cd
 1352 03cb 01       		.byte	0x1
 1353 03cc 01       		.byte	0x1
 1354 03cd 08       		.uleb128 0x8
 1355 03ce 04       		.byte	0x4
 1356 03cf 0E020000 		.4byte	0x20e
 1357 03d3 11       		.uleb128 0x11
 1358 03d4 09020000 		.4byte	0x209
 1359 03d8 E3030000 		.4byte	0x3e3
 1360 03dc 12       		.uleb128 0x12
 1361 03dd 5F000000 		.4byte	0x5f
 1362 03e1 08       		.byte	0x8
 1363 03e2 00       		.byte	0
 1364 03e3 0D       		.uleb128 0xd
 1365 03e4 D3030000 		.4byte	0x3d3
 1366 03e8 13       		.uleb128 0x13
 1367 03e9 61040000 		.4byte	.LASF67
 1368 03ed 01       		.byte	0x1
 1369 03ee 41       		.byte	0x41
 1370 03ef E3030000 		.4byte	0x3e3
 1371 03f3 01       		.byte	0x1
 1372 03f4 05       		.byte	0x5
 1373 03f5 03       		.byte	0x3
 1374 03f6 00000000 		.4byte	__rtmsym_init_MCB_name
 1375 03fa 13       		.uleb128 0x13
 1376 03fb FB030000 		.4byte	.LASF68
 1377 03ff 01       		.byte	0x1
 1378 0400 41       		.byte	0x41
 1379 0401 B5030000 		.4byte	0x3b5
 1380 0405 01       		.byte	0x1
 1381 0406 05       		.byte	0x5
 1382 0407 03       		.byte	0x3
 1383 0408 00000000 		.4byte	__rtmsym_init_MCB
 1384 040c 11       		.uleb128 0x11
 1385 040d 09020000 		.4byte	0x209
 1386 0411 1C040000 		.4byte	0x41c
 1387 0415 12       		.uleb128 0x12
 1388 0416 5F000000 		.4byte	0x5f
 1389 041a 0A       		.byte	0xa
 1390 041b 00       		.byte	0
 1391 041c 0D       		.uleb128 0xd
 1392 041d 0C040000 		.4byte	0x40c
 1393 0421 13       		.uleb128 0x13
 1394 0422 70030000 		.4byte	.LASF69
 1395 0426 01       		.byte	0x1
ARM GAS  G:\Users\Jaxb\AppData\Local\Temp\ccqu2fCZ.s 			page 32


 1396 0427 64       		.byte	0x64
 1397 0428 1C040000 		.4byte	0x41c
 1398 042c 01       		.byte	0x1
 1399 042d 05       		.byte	0x5
 1400 042e 03       		.byte	0x3
 1401 042f 00000000 		.4byte	__rtmsym_delete_MCB_name
 1402 0433 13       		.uleb128 0x13
 1403 0434 60000000 		.4byte	.LASF70
 1404 0438 01       		.byte	0x1
 1405 0439 64       		.byte	0x64
 1406 043a B5030000 		.4byte	0x3b5
 1407 043e 01       		.byte	0x1
 1408 043f 05       		.byte	0x5
 1409 0440 03       		.byte	0x3
 1410 0441 00000000 		.4byte	__rtmsym_delete_MCB
 1411 0445 11       		.uleb128 0x11
 1412 0446 09020000 		.4byte	0x209
 1413 044a 55040000 		.4byte	0x455
 1414 044e 12       		.uleb128 0x12
 1415 044f 5F000000 		.4byte	0x5f
 1416 0453 01       		.byte	0x1
 1417 0454 00       		.byte	0
 1418 0455 0D       		.uleb128 0xd
 1419 0456 45040000 		.4byte	0x445
 1420 045a 13       		.uleb128 0x13
 1421 045b 99050000 		.4byte	.LASF71
 1422 045f 01       		.byte	0x1
 1423 0460 AE       		.byte	0xae
 1424 0461 55040000 		.4byte	0x455
 1425 0465 01       		.byte	0x1
 1426 0466 05       		.byte	0x5
 1427 0467 03       		.byte	0x3
 1428 0468 00000000 		.4byte	__rtmsym_p_name
 1429 046c 13       		.uleb128 0x13
 1430 046d 89030000 		.4byte	.LASF72
 1431 0471 01       		.byte	0x1
 1432 0472 AE       		.byte	0xae
 1433 0473 B5030000 		.4byte	0x3b5
 1434 0477 01       		.byte	0x1
 1435 0478 05       		.byte	0x5
 1436 0479 03       		.byte	0x3
 1437 047a 00000000 		.4byte	__rtmsym_p
 1438 047e 13       		.uleb128 0x13
 1439 047f 09050000 		.4byte	.LASF73
 1440 0483 01       		.byte	0x1
 1441 0484 CF       		.byte	0xcf
 1442 0485 55040000 		.4byte	0x455
 1443 0489 01       		.byte	0x1
 1444 048a 05       		.byte	0x5
 1445 048b 03       		.byte	0x3
 1446 048c 00000000 		.4byte	__rtmsym_v_name
 1447 0490 13       		.uleb128 0x13
 1448 0491 81020000 		.4byte	.LASF74
 1449 0495 01       		.byte	0x1
 1450 0496 CF       		.byte	0xcf
 1451 0497 B5030000 		.4byte	0x3b5
 1452 049b 01       		.byte	0x1
ARM GAS  G:\Users\Jaxb\AppData\Local\Temp\ccqu2fCZ.s 			page 33


 1453 049c 05       		.byte	0x5
 1454 049d 03       		.byte	0x3
 1455 049e 00000000 		.4byte	__rtmsym_v
 1456 04a2 11       		.uleb128 0x11
 1457 04a3 09020000 		.4byte	0x209
 1458 04a7 B2040000 		.4byte	0x4b2
 1459 04ab 12       		.uleb128 0x12
 1460 04ac 5F000000 		.4byte	0x5f
 1461 04b0 0F       		.byte	0xf
 1462 04b1 00       		.byte	0
 1463 04b2 0D       		.uleb128 0xd
 1464 04b3 A2040000 		.4byte	0x4a2
 1465 04b7 13       		.uleb128 0x13
 1466 04b8 24000000 		.4byte	.LASF75
 1467 04bc 01       		.byte	0x1
 1468 04bd DB       		.byte	0xdb
 1469 04be B2040000 		.4byte	0x4b2
 1470 04c2 01       		.byte	0x1
 1471 04c3 05       		.byte	0x5
 1472 04c4 03       		.byte	0x3
 1473 04c5 00000000 		.4byte	__rtmsym_clear_MCB_index_name
 1474 04c9 13       		.uleb128 0x13
 1475 04ca 35010000 		.4byte	.LASF76
 1476 04ce 01       		.byte	0x1
 1477 04cf DB       		.byte	0xdb
 1478 04d0 B5030000 		.4byte	0x3b5
 1479 04d4 01       		.byte	0x1
 1480 04d5 05       		.byte	0x5
 1481 04d6 03       		.byte	0x3
 1482 04d7 00000000 		.4byte	__rtmsym_clear_MCB_index
 1483 04db 14       		.uleb128 0x14
 1484 04dc 01       		.byte	0x1
 1485 04dd 6C020000 		.4byte	.LASF106
 1486 04e1 01       		.byte	0x1
 1487 04e2 D2       		.byte	0xd2
 1488 04e3 01       		.byte	0x1
 1489 04e4 14000000 		.4byte	.LFB18
 1490 04e8 40000000 		.4byte	.LFE18
 1491 04ec 00000000 		.4byte	.LLST2
 1492 04f0 01       		.byte	0x1
 1493 04f1 40050000 		.4byte	0x540
 1494 04f5 15       		.uleb128 0x15
 1495 04f6 4C000000 		.4byte	.LASF77
 1496 04fa 01       		.byte	0x1
 1497 04fb D2       		.byte	0xd2
 1498 04fc 40050000 		.4byte	0x540
 1499 0500 38000000 		.4byte	.LLST3
 1500 0504 16       		.uleb128 0x16
 1501 0505 C8050000 		.4byte	.LASF78
 1502 0509 01       		.byte	0x1
 1503 050a D5       		.byte	0xd5
 1504 050b 81030000 		.4byte	0x381
 1505 050f 7A000000 		.4byte	.LLST4
 1506 0513 17       		.uleb128 0x17
 1507 0514 1E000000 		.4byte	.LVL6
 1508 0518 750A0000 		.4byte	0xa75
 1509 051c 18       		.uleb128 0x18
ARM GAS  G:\Users\Jaxb\AppData\Local\Temp\ccqu2fCZ.s 			page 34


 1510 051d 30000000 		.4byte	.LVL8
 1511 0521 01       		.byte	0x1
 1512 0522 820A0000 		.4byte	0xa82
 1513 0526 19       		.uleb128 0x19
 1514 0527 38000000 		.4byte	.LVL10
 1515 052b 8F0A0000 		.4byte	0xa8f
 1516 052f 1A       		.uleb128 0x1a
 1517 0530 01       		.byte	0x1
 1518 0531 50       		.byte	0x50
 1519 0532 05       		.byte	0x5
 1520 0533 03       		.byte	0x3
 1521 0534 00000000 		.4byte	.LC0
 1522 0538 1A       		.uleb128 0x1a
 1523 0539 01       		.byte	0x1
 1524 053a 51       		.byte	0x51
 1525 053b 02       		.byte	0x2
 1526 053c 08       		.byte	0x8
 1527 053d D4       		.byte	0xd4
 1528 053e 00       		.byte	0
 1529 053f 00       		.byte	0
 1530 0540 08       		.uleb128 0x8
 1531 0541 04       		.byte	0x4
 1532 0542 6B030000 		.4byte	0x36b
 1533 0546 1B       		.uleb128 0x1b
 1534 0547 01       		.byte	0x1
 1535 0548 7600     		.ascii	"v\000"
 1536 054a 01       		.byte	0x1
 1537 054b B1       		.byte	0xb1
 1538 054c 01       		.byte	0x1
 1539 054d 33000000 		.4byte	0x33
 1540 0551 24010000 		.4byte	.LFB17
 1541 0555 AC010000 		.4byte	.LFE17
 1542 0559 99000000 		.4byte	.LLST15
 1543 055d 01       		.byte	0x1
 1544 055e 47060000 		.4byte	0x647
 1545 0562 15       		.uleb128 0x15
 1546 0563 4C000000 		.4byte	.LASF77
 1547 0567 01       		.byte	0x1
 1548 0568 B1       		.byte	0xb1
 1549 0569 40050000 		.4byte	0x540
 1550 056d B9000000 		.4byte	.LLST16
 1551 0571 16       		.uleb128 0x16
 1552 0572 C8050000 		.4byte	.LASF78
 1553 0576 01       		.byte	0x1
 1554 0577 BB       		.byte	0xbb
 1555 0578 81030000 		.4byte	0x381
 1556 057c ED000000 		.4byte	.LLST17
 1557 0580 1C       		.uleb128 0x1c
 1558 0581 00000000 		.4byte	.Ldebug_ranges0+0
 1559 0585 C8050000 		.4byte	0x5c8
 1560 0589 16       		.uleb128 0x16
 1561 058a 84050000 		.4byte	.LASF79
 1562 058e 01       		.byte	0x1
 1563 058f C4       		.byte	0xc4
 1564 0590 CD030000 		.4byte	0x3cd
 1565 0594 4E010000 		.4byte	.LLST18
 1566 0598 1D       		.uleb128 0x1d
ARM GAS  G:\Users\Jaxb\AppData\Local\Temp\ccqu2fCZ.s 			page 35


 1567 0599 5C010000 		.4byte	.LVL57
 1568 059d 9C0A0000 		.4byte	0xa9c
 1569 05a1 AC050000 		.4byte	0x5ac
 1570 05a5 1A       		.uleb128 0x1a
 1571 05a6 01       		.byte	0x1
 1572 05a7 50       		.byte	0x50
 1573 05a8 02       		.byte	0x2
 1574 05a9 74       		.byte	0x74
 1575 05aa 00       		.sleb128 0
 1576 05ab 00       		.byte	0
 1577 05ac 17       		.uleb128 0x17
 1578 05ad 6C010000 		.4byte	.LVL60
 1579 05b1 A90A0000 		.4byte	0xaa9
 1580 05b5 17       		.uleb128 0x17
 1581 05b6 9A010000 		.4byte	.LVL70
 1582 05ba B60A0000 		.4byte	0xab6
 1583 05be 17       		.uleb128 0x17
 1584 05bf A0010000 		.4byte	.LVL72
 1585 05c3 C30A0000 		.4byte	0xac3
 1586 05c7 00       		.byte	0
 1587 05c8 17       		.uleb128 0x17
 1588 05c9 2E010000 		.4byte	.LVL51
 1589 05cd 750A0000 		.4byte	0xa75
 1590 05d1 1D       		.uleb128 0x1d
 1591 05d2 4E010000 		.4byte	.LVL54
 1592 05d6 820A0000 		.4byte	0xa82
 1593 05da E5050000 		.4byte	0x5e5
 1594 05de 1A       		.uleb128 0x1a
 1595 05df 01       		.byte	0x1
 1596 05e0 50       		.byte	0x50
 1597 05e1 02       		.byte	0x2
 1598 05e2 75       		.byte	0x75
 1599 05e3 00       		.sleb128 0
 1600 05e4 00       		.byte	0
 1601 05e5 1D       		.uleb128 0x1d
 1602 05e6 72010000 		.4byte	.LVL61
 1603 05ea 820A0000 		.4byte	0xa82
 1604 05ee F9050000 		.4byte	0x5f9
 1605 05f2 1A       		.uleb128 0x1a
 1606 05f3 01       		.byte	0x1
 1607 05f4 50       		.byte	0x50
 1608 05f5 02       		.byte	0x2
 1609 05f6 75       		.byte	0x75
 1610 05f7 00       		.sleb128 0
 1611 05f8 00       		.byte	0
 1612 05f9 1D       		.uleb128 0x1d
 1613 05fa 7E010000 		.4byte	.LVL64
 1614 05fe 8F0A0000 		.4byte	0xa8f
 1615 0602 16060000 		.4byte	0x616
 1616 0606 1A       		.uleb128 0x1a
 1617 0607 01       		.byte	0x1
 1618 0608 50       		.byte	0x50
 1619 0609 05       		.byte	0x5
 1620 060a 03       		.byte	0x3
 1621 060b 00000000 		.4byte	.LC0
 1622 060f 1A       		.uleb128 0x1a
 1623 0610 01       		.byte	0x1
ARM GAS  G:\Users\Jaxb\AppData\Local\Temp\ccqu2fCZ.s 			page 36


 1624 0611 51       		.byte	0x51
 1625 0612 02       		.byte	0x2
 1626 0613 08       		.byte	0x8
 1627 0614 BF       		.byte	0xbf
 1628 0615 00       		.byte	0
 1629 0616 1D       		.uleb128 0x1d
 1630 0617 8C010000 		.4byte	.LVL67
 1631 061b 8F0A0000 		.4byte	0xa8f
 1632 061f 33060000 		.4byte	0x633
 1633 0623 1A       		.uleb128 0x1a
 1634 0624 01       		.byte	0x1
 1635 0625 50       		.byte	0x50
 1636 0626 05       		.byte	0x5
 1637 0627 03       		.byte	0x3
 1638 0628 00000000 		.4byte	.LC0
 1639 062c 1A       		.uleb128 0x1a
 1640 062d 01       		.byte	0x1
 1641 062e 51       		.byte	0x51
 1642 062f 02       		.byte	0x2
 1643 0630 08       		.byte	0x8
 1644 0631 B3       		.byte	0xb3
 1645 0632 00       		.byte	0
 1646 0633 19       		.uleb128 0x19
 1647 0634 92010000 		.4byte	.LVL68
 1648 0638 D00A0000 		.4byte	0xad0
 1649 063c 1A       		.uleb128 0x1a
 1650 063d 01       		.byte	0x1
 1651 063e 50       		.byte	0x50
 1652 063f 05       		.byte	0x5
 1653 0640 03       		.byte	0x3
 1654 0641 8C000000 		.4byte	.LC3
 1655 0645 00       		.byte	0
 1656 0646 00       		.byte	0
 1657 0647 1B       		.uleb128 0x1b
 1658 0648 01       		.byte	0x1
 1659 0649 7000     		.ascii	"p\000"
 1660 064b 01       		.byte	0x1
 1661 064c 67       		.byte	0x67
 1662 064d 01       		.byte	0x1
 1663 064e 33000000 		.4byte	0x33
 1664 0652 AC010000 		.4byte	.LFB16
 1665 0656 B4020000 		.4byte	.LFE16
 1666 065a 77010000 		.4byte	.LLST19
 1667 065e 01       		.byte	0x1
 1668 065f 08080000 		.4byte	0x808
 1669 0663 15       		.uleb128 0x15
 1670 0664 4C000000 		.4byte	.LASF77
 1671 0668 01       		.byte	0x1
 1672 0669 68       		.byte	0x68
 1673 066a 40050000 		.4byte	0x540
 1674 066e D6010000 		.4byte	.LLST20
 1675 0672 15       		.uleb128 0x15
 1676 0673 49020000 		.4byte	.LASF60
 1677 0677 01       		.byte	0x1
 1678 0678 69       		.byte	0x69
 1679 0679 29030000 		.4byte	0x329
 1680 067d 3C020000 		.4byte	.LLST21
ARM GAS  G:\Users\Jaxb\AppData\Local\Temp\ccqu2fCZ.s 			page 37


 1681 0681 15       		.uleb128 0x15
 1682 0682 CD030000 		.4byte	.LASF80
 1683 0686 01       		.byte	0x1
 1684 0687 6A       		.byte	0x6a
 1685 0688 5F000000 		.4byte	0x5f
 1686 068c 76020000 		.4byte	.LLST22
 1687 0690 16       		.uleb128 0x16
 1688 0691 C8050000 		.4byte	.LASF78
 1689 0695 01       		.byte	0x1
 1690 0696 75       		.byte	0x75
 1691 0697 81030000 		.4byte	0x381
 1692 069b AA020000 		.4byte	.LLST23
 1693 069f 1E       		.uleb128 0x1e
 1694 06a0 5C040000 		.4byte	.LASF81
 1695 06a4 01       		.byte	0x1
 1696 06a5 8C       		.byte	0x8c
 1697 06a6 24020000 		.4byte	0x224
 1698 06aa 02       		.byte	0x2
 1699 06ab 91       		.byte	0x91
 1700 06ac 40       		.sleb128 -64
 1701 06ad 1C       		.uleb128 0x1c
 1702 06ae 18000000 		.4byte	.Ldebug_ranges0+0x18
 1703 06b2 32070000 		.4byte	0x732
 1704 06b6 16       		.uleb128 0x16
 1705 06b7 54000000 		.4byte	.LASF82
 1706 06bb 01       		.byte	0x1
 1707 06bc 98       		.byte	0x98
 1708 06bd 66000000 		.4byte	0x66
 1709 06c1 37030000 		.4byte	.LLST24
 1710 06c5 17       		.uleb128 0x17
 1711 06c6 FE010000 		.4byte	.LVL83
 1712 06ca DD0A0000 		.4byte	0xadd
 1713 06ce 1D       		.uleb128 0x1d
 1714 06cf 08020000 		.4byte	.LVL85
 1715 06d3 820A0000 		.4byte	0xa82
 1716 06d7 E2060000 		.4byte	0x6e2
 1717 06db 1A       		.uleb128 0x1a
 1718 06dc 01       		.byte	0x1
 1719 06dd 50       		.byte	0x50
 1720 06de 02       		.byte	0x2
 1721 06df 76       		.byte	0x76
 1722 06e0 00       		.sleb128 0
 1723 06e1 00       		.byte	0
 1724 06e2 1D       		.uleb128 0x1d
 1725 06e3 10020000 		.4byte	.LVL86
 1726 06e7 EA0A0000 		.4byte	0xaea
 1727 06eb FB060000 		.4byte	0x6fb
 1728 06ef 1A       		.uleb128 0x1a
 1729 06f0 01       		.byte	0x1
 1730 06f1 50       		.byte	0x50
 1731 06f2 02       		.byte	0x2
 1732 06f3 77       		.byte	0x77
 1733 06f4 00       		.sleb128 0
 1734 06f5 1A       		.uleb128 0x1a
 1735 06f6 01       		.byte	0x1
 1736 06f7 51       		.byte	0x51
 1737 06f8 01       		.byte	0x1
ARM GAS  G:\Users\Jaxb\AppData\Local\Temp\ccqu2fCZ.s 			page 38


 1738 06f9 35       		.byte	0x35
 1739 06fa 00       		.byte	0
 1740 06fb 17       		.uleb128 0x17
 1741 06fc 14020000 		.4byte	.LVL87
 1742 0700 750A0000 		.4byte	0xa75
 1743 0704 17       		.uleb128 0x17
 1744 0705 1A020000 		.4byte	.LVL89
 1745 0709 DD0A0000 		.4byte	0xadd
 1746 070d 1D       		.uleb128 0x1d
 1747 070e 98020000 		.4byte	.LVL107
 1748 0712 F70A0000 		.4byte	0xaf7
 1749 0716 21070000 		.4byte	0x721
 1750 071a 1A       		.uleb128 0x1a
 1751 071b 01       		.byte	0x1
 1752 071c 50       		.byte	0x50
 1753 071d 02       		.byte	0x2
 1754 071e 74       		.byte	0x74
 1755 071f 00       		.sleb128 0
 1756 0720 00       		.byte	0
 1757 0721 19       		.uleb128 0x19
 1758 0722 9E020000 		.4byte	.LVL108
 1759 0726 820A0000 		.4byte	0xa82
 1760 072a 1A       		.uleb128 0x1a
 1761 072b 01       		.byte	0x1
 1762 072c 50       		.byte	0x50
 1763 072d 02       		.byte	0x2
 1764 072e 76       		.byte	0x76
 1765 072f 00       		.sleb128 0
 1766 0730 00       		.byte	0
 1767 0731 00       		.byte	0
 1768 0732 17       		.uleb128 0x17
 1769 0733 C0010000 		.4byte	.LVL75
 1770 0737 750A0000 		.4byte	0xa75
 1771 073b 1D       		.uleb128 0x1d
 1772 073c DE010000 		.4byte	.LVL78
 1773 0740 820A0000 		.4byte	0xa82
 1774 0744 4F070000 		.4byte	0x74f
 1775 0748 1A       		.uleb128 0x1a
 1776 0749 01       		.byte	0x1
 1777 074a 50       		.byte	0x50
 1778 074b 02       		.byte	0x2
 1779 074c 76       		.byte	0x76
 1780 074d 00       		.sleb128 0
 1781 074e 00       		.byte	0
 1782 074f 1D       		.uleb128 0x1d
 1783 0750 F0010000 		.4byte	.LVL81
 1784 0754 040B0000 		.4byte	0xb04
 1785 0758 63070000 		.4byte	0x763
 1786 075c 1A       		.uleb128 0x1a
 1787 075d 01       		.byte	0x1
 1788 075e 50       		.byte	0x50
 1789 075f 02       		.byte	0x2
 1790 0760 7D       		.byte	0x7d
 1791 0761 00       		.sleb128 0
 1792 0762 00       		.byte	0
 1793 0763 1D       		.uleb128 0x1d
 1794 0764 F8010000 		.4byte	.LVL82
ARM GAS  G:\Users\Jaxb\AppData\Local\Temp\ccqu2fCZ.s 			page 39


 1795 0768 110B0000 		.4byte	0xb11
 1796 076c 7D070000 		.4byte	0x77d
 1797 0770 1A       		.uleb128 0x1a
 1798 0771 01       		.byte	0x1
 1799 0772 50       		.byte	0x50
 1800 0773 02       		.byte	0x2
 1801 0774 7D       		.byte	0x7d
 1802 0775 00       		.sleb128 0
 1803 0776 1A       		.uleb128 0x1a
 1804 0777 01       		.byte	0x1
 1805 0778 51       		.byte	0x51
 1806 0779 02       		.byte	0x2
 1807 077a 74       		.byte	0x74
 1808 077b 00       		.sleb128 0
 1809 077c 00       		.byte	0
 1810 077d 1D       		.uleb128 0x1d
 1811 077e 40020000 		.4byte	.LVL92
 1812 0782 820A0000 		.4byte	0xa82
 1813 0786 91070000 		.4byte	0x791
 1814 078a 1A       		.uleb128 0x1a
 1815 078b 01       		.byte	0x1
 1816 078c 50       		.byte	0x50
 1817 078d 02       		.byte	0x2
 1818 078e 76       		.byte	0x76
 1819 078f 00       		.sleb128 0
 1820 0790 00       		.byte	0
 1821 0791 17       		.uleb128 0x17
 1822 0792 4E020000 		.4byte	.LVL94
 1823 0796 820A0000 		.4byte	0xa82
 1824 079a 1D       		.uleb128 0x1d
 1825 079b 5A020000 		.4byte	.LVL95
 1826 079f 820A0000 		.4byte	0xa82
 1827 07a3 AE070000 		.4byte	0x7ae
 1828 07a7 1A       		.uleb128 0x1a
 1829 07a8 01       		.byte	0x1
 1830 07a9 50       		.byte	0x50
 1831 07aa 02       		.byte	0x2
 1832 07ab 76       		.byte	0x76
 1833 07ac 00       		.sleb128 0
 1834 07ad 00       		.byte	0
 1835 07ae 1D       		.uleb128 0x1d
 1836 07af 60020000 		.4byte	.LVL96
 1837 07b3 1E0B0000 		.4byte	0xb1e
 1838 07b7 C1070000 		.4byte	0x7c1
 1839 07bb 1A       		.uleb128 0x1a
 1840 07bc 01       		.byte	0x1
 1841 07bd 50       		.byte	0x50
 1842 07be 01       		.byte	0x1
 1843 07bf 34       		.byte	0x34
 1844 07c0 00       		.byte	0
 1845 07c1 17       		.uleb128 0x17
 1846 07c2 64020000 		.4byte	.LVL97
 1847 07c6 750A0000 		.4byte	0xa75
 1848 07ca 1D       		.uleb128 0x1d
 1849 07cb 70020000 		.4byte	.LVL102
 1850 07cf 8F0A0000 		.4byte	0xa8f
 1851 07d3 E7070000 		.4byte	0x7e7
ARM GAS  G:\Users\Jaxb\AppData\Local\Temp\ccqu2fCZ.s 			page 40


 1852 07d7 1A       		.uleb128 0x1a
 1853 07d8 01       		.byte	0x1
 1854 07d9 50       		.byte	0x50
 1855 07da 05       		.byte	0x5
 1856 07db 03       		.byte	0x3
 1857 07dc 00000000 		.4byte	.LC0
 1858 07e0 1A       		.uleb128 0x1a
 1859 07e1 01       		.byte	0x1
 1860 07e2 51       		.byte	0x51
 1861 07e3 02       		.byte	0x2
 1862 07e4 08       		.byte	0x8
 1863 07e5 6D       		.byte	0x6d
 1864 07e6 00       		.byte	0
 1865 07e7 1D       		.uleb128 0x1d
 1866 07e8 76020000 		.4byte	.LVL103
 1867 07ec D00A0000 		.4byte	0xad0
 1868 07f0 FE070000 		.4byte	0x7fe
 1869 07f4 1A       		.uleb128 0x1a
 1870 07f5 01       		.byte	0x1
 1871 07f6 50       		.byte	0x50
 1872 07f7 05       		.byte	0x5
 1873 07f8 03       		.byte	0x3
 1874 07f9 B8000000 		.4byte	.LC4
 1875 07fd 00       		.byte	0
 1876 07fe 17       		.uleb128 0x17
 1877 07ff 84020000 		.4byte	.LVL105
 1878 0803 820A0000 		.4byte	0xa82
 1879 0807 00       		.byte	0
 1880 0808 1F       		.uleb128 0x1f
 1881 0809 01       		.byte	0x1
 1882 080a 96020000 		.4byte	.LASF83
 1883 080e 01       		.byte	0x1
 1884 080f 43       		.byte	0x43
 1885 0810 01       		.byte	0x1
 1886 0811 33000000 		.4byte	0x33
 1887 0815 B0000000 		.4byte	.LFB15
 1888 0819 24010000 		.4byte	.LFE15
 1889 081d 5F030000 		.4byte	.LLST10
 1890 0821 01       		.byte	0x1
 1891 0822 23090000 		.4byte	0x923
 1892 0826 15       		.uleb128 0x15
 1893 0827 4C000000 		.4byte	.LASF77
 1894 082b 01       		.byte	0x1
 1895 082c 43       		.byte	0x43
 1896 082d 40050000 		.4byte	0x540
 1897 0831 7F030000 		.4byte	.LLST11
 1898 0835 16       		.uleb128 0x16
 1899 0836 84050000 		.4byte	.LASF79
 1900 083a 01       		.byte	0x1
 1901 083b 4D       		.byte	0x4d
 1902 083c CD030000 		.4byte	0x3cd
 1903 0840 C1030000 		.4byte	.LLST12
 1904 0844 16       		.uleb128 0x16
 1905 0845 C8050000 		.4byte	.LASF78
 1906 0849 01       		.byte	0x1
 1907 084a 4E       		.byte	0x4e
 1908 084b 81030000 		.4byte	0x381
ARM GAS  G:\Users\Jaxb\AppData\Local\Temp\ccqu2fCZ.s 			page 41


 1909 084f DF030000 		.4byte	.LLST13
 1910 0853 16       		.uleb128 0x16
 1911 0854 21030000 		.4byte	.LASF84
 1912 0858 01       		.byte	0x1
 1913 0859 50       		.byte	0x50
 1914 085a C3020000 		.4byte	0x2c3
 1915 085e 09040000 		.4byte	.LLST14
 1916 0862 17       		.uleb128 0x17
 1917 0863 BA000000 		.4byte	.LVL28
 1918 0867 750A0000 		.4byte	0xa75
 1919 086b 1D       		.uleb128 0x1d
 1920 086c C2000000 		.4byte	.LVL31
 1921 0870 9C0A0000 		.4byte	0xa9c
 1922 0874 7F080000 		.4byte	0x87f
 1923 0878 1A       		.uleb128 0x1a
 1924 0879 01       		.byte	0x1
 1925 087a 50       		.byte	0x50
 1926 087b 02       		.byte	0x2
 1927 087c 75       		.byte	0x75
 1928 087d 00       		.sleb128 0
 1929 087e 00       		.byte	0
 1930 087f 1D       		.uleb128 0x1d
 1931 0880 D4000000 		.4byte	.LVL34
 1932 0884 8F0A0000 		.4byte	0xa8f
 1933 0888 99080000 		.4byte	0x899
 1934 088c 1A       		.uleb128 0x1a
 1935 088d 01       		.byte	0x1
 1936 088e 50       		.byte	0x50
 1937 088f 02       		.byte	0x2
 1938 0890 76       		.byte	0x76
 1939 0891 00       		.sleb128 0
 1940 0892 1A       		.uleb128 0x1a
 1941 0893 01       		.byte	0x1
 1942 0894 51       		.byte	0x51
 1943 0895 02       		.byte	0x2
 1944 0896 08       		.byte	0x8
 1945 0897 5A       		.byte	0x5a
 1946 0898 00       		.byte	0
 1947 0899 1D       		.uleb128 0x1d
 1948 089a DA000000 		.4byte	.LVL35
 1949 089e C30A0000 		.4byte	0xac3
 1950 08a2 AD080000 		.4byte	0x8ad
 1951 08a6 1A       		.uleb128 0x1a
 1952 08a7 01       		.byte	0x1
 1953 08a8 50       		.byte	0x50
 1954 08a9 02       		.byte	0x2
 1955 08aa 74       		.byte	0x74
 1956 08ab 00       		.sleb128 0
 1957 08ac 00       		.byte	0
 1958 08ad 1D       		.uleb128 0x1d
 1959 08ae E8000000 		.4byte	.LVL36
 1960 08b2 9C0A0000 		.4byte	0xa9c
 1961 08b6 C1080000 		.4byte	0x8c1
 1962 08ba 1A       		.uleb128 0x1a
 1963 08bb 01       		.byte	0x1
 1964 08bc 50       		.byte	0x50
 1965 08bd 02       		.byte	0x2
ARM GAS  G:\Users\Jaxb\AppData\Local\Temp\ccqu2fCZ.s 			page 42


 1966 08be 75       		.byte	0x75
 1967 08bf 00       		.sleb128 0
 1968 08c0 00       		.byte	0
 1969 08c1 1D       		.uleb128 0x1d
 1970 08c2 F8000000 		.4byte	.LVL40
 1971 08c6 B60A0000 		.4byte	0xab6
 1972 08ca D5080000 		.4byte	0x8d5
 1973 08ce 1A       		.uleb128 0x1a
 1974 08cf 01       		.byte	0x1
 1975 08d0 50       		.byte	0x50
 1976 08d1 02       		.byte	0x2
 1977 08d2 74       		.byte	0x74
 1978 08d3 00       		.sleb128 0
 1979 08d4 00       		.byte	0
 1980 08d5 17       		.uleb128 0x17
 1981 08d6 FE000000 		.4byte	.LVL42
 1982 08da A90A0000 		.4byte	0xaa9
 1983 08de 1D       		.uleb128 0x1d
 1984 08df 04010000 		.4byte	.LVL43
 1985 08e3 820A0000 		.4byte	0xa82
 1986 08e7 F2080000 		.4byte	0x8f2
 1987 08eb 1A       		.uleb128 0x1a
 1988 08ec 01       		.byte	0x1
 1989 08ed 50       		.byte	0x50
 1990 08ee 02       		.byte	0x2
 1991 08ef 77       		.byte	0x77
 1992 08f0 00       		.sleb128 0
 1993 08f1 00       		.byte	0
 1994 08f2 1D       		.uleb128 0x1d
 1995 08f3 10010000 		.4byte	.LVL46
 1996 08f7 8F0A0000 		.4byte	0xa8f
 1997 08fb 0F090000 		.4byte	0x90f
 1998 08ff 1A       		.uleb128 0x1a
 1999 0900 01       		.byte	0x1
 2000 0901 50       		.byte	0x50
 2001 0902 05       		.byte	0x5
 2002 0903 03       		.byte	0x3
 2003 0904 00000000 		.4byte	.LC0
 2004 0908 1A       		.uleb128 0x1a
 2005 0909 01       		.byte	0x1
 2006 090a 51       		.byte	0x51
 2007 090b 02       		.byte	0x2
 2008 090c 08       		.byte	0x8
 2009 090d 45       		.byte	0x45
 2010 090e 00       		.byte	0
 2011 090f 19       		.uleb128 0x19
 2012 0910 16010000 		.4byte	.LVL47
 2013 0914 D00A0000 		.4byte	0xad0
 2014 0918 1A       		.uleb128 0x1a
 2015 0919 01       		.byte	0x1
 2016 091a 50       		.byte	0x50
 2017 091b 05       		.byte	0x5
 2018 091c 03       		.byte	0x3
 2019 091d 58000000 		.4byte	.LC2
 2020 0921 00       		.byte	0
 2021 0922 00       		.byte	0
 2022 0923 1F       		.uleb128 0x1f
ARM GAS  G:\Users\Jaxb\AppData\Local\Temp\ccqu2fCZ.s 			page 43


 2023 0924 01       		.byte	0x1
 2024 0925 CF010000 		.4byte	.LASF85
 2025 0929 01       		.byte	0x1
 2026 092a 1A       		.byte	0x1a
 2027 092b 01       		.byte	0x1
 2028 092c 33000000 		.4byte	0x33
 2029 0930 40000000 		.4byte	.LFB14
 2030 0934 B0000000 		.4byte	.LFE14
 2031 0938 32040000 		.4byte	.LLST5
 2032 093c 01       		.byte	0x1
 2033 093d 030A0000 		.4byte	0xa03
 2034 0941 15       		.uleb128 0x15
 2035 0942 4C000000 		.4byte	.LASF77
 2036 0946 01       		.byte	0x1
 2037 0947 1B       		.byte	0x1b
 2038 0948 40050000 		.4byte	0x540
 2039 094c 52040000 		.4byte	.LLST6
 2040 0950 20       		.uleb128 0x20
 2041 0951 6E756D00 		.ascii	"num\000"
 2042 0955 01       		.byte	0x1
 2043 0956 1C       		.byte	0x1c
 2044 0957 33000000 		.4byte	0x33
 2045 095b 94040000 		.4byte	.LLST7
 2046 095f 15       		.uleb128 0x15
 2047 0960 49020000 		.4byte	.LASF60
 2048 0964 01       		.byte	0x1
 2049 0965 1D       		.byte	0x1d
 2050 0966 5F000000 		.4byte	0x5f
 2051 096a D6040000 		.4byte	.LLST8
 2052 096e 16       		.uleb128 0x16
 2053 096f C8050000 		.4byte	.LASF78
 2054 0973 01       		.byte	0x1
 2055 0974 28       		.byte	0x28
 2056 0975 81030000 		.4byte	0x381
 2057 0979 18050000 		.4byte	.LLST9
 2058 097d 17       		.uleb128 0x17
 2059 097e 4E000000 		.4byte	.LVL13
 2060 0982 750A0000 		.4byte	0xa75
 2061 0986 1D       		.uleb128 0x1d
 2062 0987 66000000 		.4byte	.LVL16
 2063 098b 2B0B0000 		.4byte	0xb2b
 2064 098f B1090000 		.4byte	0x9b1
 2065 0993 1A       		.uleb128 0x1a
 2066 0994 01       		.byte	0x1
 2067 0995 50       		.byte	0x50
 2068 0996 02       		.byte	0x2
 2069 0997 74       		.byte	0x74
 2070 0998 00       		.sleb128 0
 2071 0999 1A       		.uleb128 0x1a
 2072 099a 01       		.byte	0x1
 2073 099b 51       		.byte	0x51
 2074 099c 05       		.byte	0x5
 2075 099d 03       		.byte	0x3
 2076 099e 00000000 		.4byte	compare
 2077 09a2 1A       		.uleb128 0x1a
 2078 09a3 01       		.byte	0x1
 2079 09a4 52       		.byte	0x52
ARM GAS  G:\Users\Jaxb\AppData\Local\Temp\ccqu2fCZ.s 			page 44


 2080 09a5 01       		.byte	0x1
 2081 09a6 30       		.byte	0x30
 2082 09a7 1A       		.uleb128 0x1a
 2083 09a8 01       		.byte	0x1
 2084 09a9 53       		.byte	0x53
 2085 09aa 05       		.byte	0x5
 2086 09ab 03       		.byte	0x3
 2087 09ac 00000000 		.4byte	value_cmp
 2088 09b0 00       		.byte	0
 2089 09b1 1D       		.uleb128 0x1d
 2090 09b2 78000000 		.4byte	.LVL17
 2091 09b6 820A0000 		.4byte	0xa82
 2092 09ba C5090000 		.4byte	0x9c5
 2093 09be 1A       		.uleb128 0x1a
 2094 09bf 01       		.byte	0x1
 2095 09c0 50       		.byte	0x50
 2096 09c1 02       		.byte	0x2
 2097 09c2 77       		.byte	0x77
 2098 09c3 00       		.sleb128 0
 2099 09c4 00       		.byte	0
 2100 09c5 1D       		.uleb128 0x1d
 2101 09c6 84000000 		.4byte	.LVL21
 2102 09ca 8F0A0000 		.4byte	0xa8f
 2103 09ce E2090000 		.4byte	0x9e2
 2104 09d2 1A       		.uleb128 0x1a
 2105 09d3 01       		.byte	0x1
 2106 09d4 50       		.byte	0x50
 2107 09d5 05       		.byte	0x5
 2108 09d6 03       		.byte	0x3
 2109 09d7 00000000 		.4byte	.LC0
 2110 09db 1A       		.uleb128 0x1a
 2111 09dc 01       		.byte	0x1
 2112 09dd 51       		.byte	0x51
 2113 09de 02       		.byte	0x2
 2114 09df 08       		.byte	0x8
 2115 09e0 20       		.byte	0x20
 2116 09e1 00       		.byte	0
 2117 09e2 1D       		.uleb128 0x1d
 2118 09e3 8A000000 		.4byte	.LVL22
 2119 09e7 D00A0000 		.4byte	0xad0
 2120 09eb F9090000 		.4byte	0x9f9
 2121 09ef 1A       		.uleb128 0x1a
 2122 09f0 01       		.byte	0x1
 2123 09f1 50       		.byte	0x50
 2124 09f2 05       		.byte	0x5
 2125 09f3 03       		.byte	0x3
 2126 09f4 28000000 		.4byte	.LC1
 2127 09f8 00       		.byte	0
 2128 09f9 17       		.uleb128 0x17
 2129 09fa 94000000 		.4byte	.LVL24
 2130 09fe 820A0000 		.4byte	0xa82
 2131 0a02 00       		.byte	0
 2132 0a03 21       		.uleb128 0x21
 2133 0a04 D2030000 		.4byte	.LASF51
 2134 0a08 01       		.byte	0x1
 2135 0a09 14       		.byte	0x14
 2136 0a0a 01       		.byte	0x1
ARM GAS  G:\Users\Jaxb\AppData\Local\Temp\ccqu2fCZ.s 			page 45


 2137 0a0b 33000000 		.4byte	0x33
 2138 0a0f 0C000000 		.4byte	.LFB13
 2139 0a13 14000000 		.4byte	.LFE13
 2140 0a17 02       		.byte	0x2
 2141 0a18 7D       		.byte	0x7d
 2142 0a19 00       		.sleb128 0
 2143 0a1a 01       		.byte	0x1
 2144 0a1b 3C0A0000 		.4byte	0xa3c
 2145 0a1f 15       		.uleb128 0x15
 2146 0a20 19050000 		.4byte	.LASF86
 2147 0a24 01       		.byte	0x1
 2148 0a25 14       		.byte	0x14
 2149 0a26 16010000 		.4byte	0x116
 2150 0a2a 58050000 		.4byte	.LLST1
 2151 0a2e 22       		.uleb128 0x22
 2152 0a2f 8E060000 		.4byte	.LASF87
 2153 0a33 01       		.byte	0x1
 2154 0a34 14       		.byte	0x14
 2155 0a35 16010000 		.4byte	0x116
 2156 0a39 01       		.byte	0x1
 2157 0a3a 51       		.byte	0x51
 2158 0a3b 00       		.byte	0
 2159 0a3c 21       		.uleb128 0x21
 2160 0a3d 49050000 		.4byte	.LASF49
 2161 0a41 01       		.byte	0x1
 2162 0a42 0F       		.byte	0xf
 2163 0a43 01       		.byte	0x1
 2164 0a44 33000000 		.4byte	0x33
 2165 0a48 00000000 		.4byte	.LFB12
 2166 0a4c 0C000000 		.4byte	.LFE12
 2167 0a50 02       		.byte	0x2
 2168 0a51 7D       		.byte	0x7d
 2169 0a52 00       		.sleb128 0
 2170 0a53 01       		.byte	0x1
 2171 0a54 750A0000 		.4byte	0xa75
 2172 0a58 15       		.uleb128 0x15
 2173 0a59 19050000 		.4byte	.LASF86
 2174 0a5d 01       		.byte	0x1
 2175 0a5e 0F       		.byte	0xf
 2176 0a5f C3020000 		.4byte	0x2c3
 2177 0a63 79050000 		.4byte	.LLST0
 2178 0a67 22       		.uleb128 0x22
 2179 0a68 8E060000 		.4byte	.LASF87
 2180 0a6c 01       		.byte	0x1
 2181 0a6d 0F       		.byte	0xf
 2182 0a6e C3020000 		.4byte	0x2c3
 2183 0a72 01       		.byte	0x1
 2184 0a73 51       		.byte	0x51
 2185 0a74 00       		.byte	0
 2186 0a75 23       		.uleb128 0x23
 2187 0a76 01       		.byte	0x1
 2188 0a77 01       		.byte	0x1
 2189 0a78 DA020000 		.4byte	.LASF88
 2190 0a7c DA020000 		.4byte	.LASF88
 2191 0a80 08       		.byte	0x8
 2192 0a81 35       		.byte	0x35
 2193 0a82 23       		.uleb128 0x23
ARM GAS  G:\Users\Jaxb\AppData\Local\Temp\ccqu2fCZ.s 			page 46


 2194 0a83 01       		.byte	0x1
 2195 0a84 01       		.byte	0x1
 2196 0a85 8D000000 		.4byte	.LASF89
 2197 0a89 8D000000 		.4byte	.LASF89
 2198 0a8d 08       		.byte	0x8
 2199 0a8e 36       		.byte	0x36
 2200 0a8f 23       		.uleb128 0x23
 2201 0a90 01       		.byte	0x1
 2202 0a91 01       		.byte	0x1
 2203 0a92 D2020000 		.4byte	.LASF90
 2204 0a96 D2020000 		.4byte	.LASF90
 2205 0a9a 0A       		.byte	0xa
 2206 0a9b 06       		.byte	0x6
 2207 0a9c 23       		.uleb128 0x23
 2208 0a9d 01       		.byte	0x1
 2209 0a9e 01       		.byte	0x1
 2210 0a9f DD040000 		.4byte	.LASF91
 2211 0aa3 DD040000 		.4byte	.LASF91
 2212 0aa7 06       		.byte	0x6
 2213 0aa8 3B       		.byte	0x3b
 2214 0aa9 23       		.uleb128 0x23
 2215 0aaa 01       		.byte	0x1
 2216 0aab 01       		.byte	0x1
 2217 0aac A1030000 		.4byte	.LASF92
 2218 0ab0 A1030000 		.4byte	.LASF92
 2219 0ab4 0B       		.byte	0xb
 2220 0ab5 18       		.byte	0x18
 2221 0ab6 23       		.uleb128 0x23
 2222 0ab7 01       		.byte	0x1
 2223 0ab8 01       		.byte	0x1
 2224 0ab9 DC000000 		.4byte	.LASF93
 2225 0abd DC000000 		.4byte	.LASF93
 2226 0ac1 0C       		.byte	0xc
 2227 0ac2 08       		.byte	0x8
 2228 0ac3 23       		.uleb128 0x23
 2229 0ac4 01       		.byte	0x1
 2230 0ac5 01       		.byte	0x1
 2231 0ac6 59030000 		.4byte	.LASF94
 2232 0aca 59030000 		.4byte	.LASF94
 2233 0ace 0D       		.byte	0xd
 2234 0acf 09       		.byte	0x9
 2235 0ad0 23       		.uleb128 0x23
 2236 0ad1 01       		.byte	0x1
 2237 0ad2 01       		.byte	0x1
 2238 0ad3 8C020000 		.4byte	.LASF95
 2239 0ad7 8C020000 		.4byte	.LASF95
 2240 0adb 0E       		.byte	0xe
 2241 0adc 0C       		.byte	0xc
 2242 0add 23       		.uleb128 0x23
 2243 0ade 01       		.byte	0x1
 2244 0adf 01       		.byte	0x1
 2245 0ae0 64010000 		.4byte	.LASF96
 2246 0ae4 64010000 		.4byte	.LASF96
 2247 0ae8 0F       		.byte	0xf
 2248 0ae9 07       		.byte	0x7
 2249 0aea 23       		.uleb128 0x23
 2250 0aeb 01       		.byte	0x1
ARM GAS  G:\Users\Jaxb\AppData\Local\Temp\ccqu2fCZ.s 			page 47


 2251 0aec 01       		.byte	0x1
 2252 0aed 2B010000 		.4byte	.LASF97
 2253 0af1 2B010000 		.4byte	.LASF97
 2254 0af5 0B       		.byte	0xb
 2255 0af6 15       		.byte	0x15
 2256 0af7 23       		.uleb128 0x23
 2257 0af8 01       		.byte	0x1
 2258 0af9 01       		.byte	0x1
 2259 0afa 96010000 		.4byte	.LASF98
 2260 0afe 96010000 		.4byte	.LASF98
 2261 0b02 06       		.byte	0x6
 2262 0b03 3C       		.byte	0x3c
 2263 0b04 23       		.uleb128 0x23
 2264 0b05 01       		.byte	0x1
 2265 0b06 01       		.byte	0x1
 2266 0b07 B1060000 		.4byte	.LASF99
 2267 0b0b B1060000 		.4byte	.LASF99
 2268 0b0f 06       		.byte	0x6
 2269 0b10 16       		.byte	0x16
 2270 0b11 23       		.uleb128 0x23
 2271 0b12 01       		.byte	0x1
 2272 0b13 01       		.byte	0x1
 2273 0b14 C5040000 		.4byte	.LASF100
 2274 0b18 C5040000 		.4byte	.LASF100
 2275 0b1c 06       		.byte	0x6
 2276 0b1d 38       		.byte	0x38
 2277 0b1e 23       		.uleb128 0x23
 2278 0b1f 01       		.byte	0x1
 2279 0b20 01       		.byte	0x1
 2280 0b21 AC020000 		.4byte	.LASF101
 2281 0b25 AC020000 		.4byte	.LASF101
 2282 0b29 0B       		.byte	0xb
 2283 0b2a 16       		.byte	0x16
 2284 0b2b 23       		.uleb128 0x23
 2285 0b2c 01       		.byte	0x1
 2286 0b2d 01       		.byte	0x1
 2287 0b2e 7E010000 		.4byte	.LASF102
 2288 0b32 7E010000 		.4byte	.LASF102
 2289 0b36 06       		.byte	0x6
 2290 0b37 31       		.byte	0x31
 2291 0b38 00       		.byte	0
 2292              		.section	.debug_abbrev,"",%progbits
 2293              	.Ldebug_abbrev0:
 2294 0000 01       		.uleb128 0x1
 2295 0001 11       		.uleb128 0x11
 2296 0002 01       		.byte	0x1
 2297 0003 25       		.uleb128 0x25
 2298 0004 0E       		.uleb128 0xe
 2299 0005 13       		.uleb128 0x13
 2300 0006 0B       		.uleb128 0xb
 2301 0007 03       		.uleb128 0x3
 2302 0008 0E       		.uleb128 0xe
 2303 0009 1B       		.uleb128 0x1b
 2304 000a 0E       		.uleb128 0xe
 2305 000b 11       		.uleb128 0x11
 2306 000c 01       		.uleb128 0x1
 2307 000d 12       		.uleb128 0x12
ARM GAS  G:\Users\Jaxb\AppData\Local\Temp\ccqu2fCZ.s 			page 48


 2308 000e 01       		.uleb128 0x1
 2309 000f 10       		.uleb128 0x10
 2310 0010 06       		.uleb128 0x6
 2311 0011 00       		.byte	0
 2312 0012 00       		.byte	0
 2313 0013 02       		.uleb128 0x2
 2314 0014 24       		.uleb128 0x24
 2315 0015 00       		.byte	0
 2316 0016 0B       		.uleb128 0xb
 2317 0017 0B       		.uleb128 0xb
 2318 0018 3E       		.uleb128 0x3e
 2319 0019 0B       		.uleb128 0xb
 2320 001a 03       		.uleb128 0x3
 2321 001b 0E       		.uleb128 0xe
 2322 001c 00       		.byte	0
 2323 001d 00       		.byte	0
 2324 001e 03       		.uleb128 0x3
 2325 001f 24       		.uleb128 0x24
 2326 0020 00       		.byte	0
 2327 0021 0B       		.uleb128 0xb
 2328 0022 0B       		.uleb128 0xb
 2329 0023 3E       		.uleb128 0x3e
 2330 0024 0B       		.uleb128 0xb
 2331 0025 03       		.uleb128 0x3
 2332 0026 08       		.uleb128 0x8
 2333 0027 00       		.byte	0
 2334 0028 00       		.byte	0
 2335 0029 04       		.uleb128 0x4
 2336 002a 35       		.uleb128 0x35
 2337 002b 00       		.byte	0
 2338 002c 49       		.uleb128 0x49
 2339 002d 13       		.uleb128 0x13
 2340 002e 00       		.byte	0
 2341 002f 00       		.byte	0
 2342 0030 05       		.uleb128 0x5
 2343 0031 16       		.uleb128 0x16
 2344 0032 00       		.byte	0
 2345 0033 03       		.uleb128 0x3
 2346 0034 0E       		.uleb128 0xe
 2347 0035 3A       		.uleb128 0x3a
 2348 0036 0B       		.uleb128 0xb
 2349 0037 3B       		.uleb128 0x3b
 2350 0038 0B       		.uleb128 0xb
 2351 0039 49       		.uleb128 0x49
 2352 003a 13       		.uleb128 0x13
 2353 003b 00       		.byte	0
 2354 003c 00       		.byte	0
 2355 003d 06       		.uleb128 0x6
 2356 003e 13       		.uleb128 0x13
 2357 003f 01       		.byte	0x1
 2358 0040 03       		.uleb128 0x3
 2359 0041 0E       		.uleb128 0xe
 2360 0042 0B       		.uleb128 0xb
 2361 0043 0B       		.uleb128 0xb
 2362 0044 3A       		.uleb128 0x3a
 2363 0045 0B       		.uleb128 0xb
 2364 0046 3B       		.uleb128 0x3b
ARM GAS  G:\Users\Jaxb\AppData\Local\Temp\ccqu2fCZ.s 			page 49


 2365 0047 0B       		.uleb128 0xb
 2366 0048 01       		.uleb128 0x1
 2367 0049 13       		.uleb128 0x13
 2368 004a 00       		.byte	0
 2369 004b 00       		.byte	0
 2370 004c 07       		.uleb128 0x7
 2371 004d 0D       		.uleb128 0xd
 2372 004e 00       		.byte	0
 2373 004f 03       		.uleb128 0x3
 2374 0050 0E       		.uleb128 0xe
 2375 0051 3A       		.uleb128 0x3a
 2376 0052 0B       		.uleb128 0xb
 2377 0053 3B       		.uleb128 0x3b
 2378 0054 0B       		.uleb128 0xb
 2379 0055 49       		.uleb128 0x49
 2380 0056 13       		.uleb128 0x13
 2381 0057 38       		.uleb128 0x38
 2382 0058 0A       		.uleb128 0xa
 2383 0059 00       		.byte	0
 2384 005a 00       		.byte	0
 2385 005b 08       		.uleb128 0x8
 2386 005c 0F       		.uleb128 0xf
 2387 005d 00       		.byte	0
 2388 005e 0B       		.uleb128 0xb
 2389 005f 0B       		.uleb128 0xb
 2390 0060 49       		.uleb128 0x49
 2391 0061 13       		.uleb128 0x13
 2392 0062 00       		.byte	0
 2393 0063 00       		.byte	0
 2394 0064 09       		.uleb128 0x9
 2395 0065 04       		.uleb128 0x4
 2396 0066 01       		.byte	0x1
 2397 0067 03       		.uleb128 0x3
 2398 0068 0E       		.uleb128 0xe
 2399 0069 3E       		.uleb128 0x3e
 2400 006a 0B       		.uleb128 0xb
 2401 006b 0B       		.uleb128 0xb
 2402 006c 0B       		.uleb128 0xb
 2403 006d 49       		.uleb128 0x49
 2404 006e 13       		.uleb128 0x13
 2405 006f 3A       		.uleb128 0x3a
 2406 0070 0B       		.uleb128 0xb
 2407 0071 3B       		.uleb128 0x3b
 2408 0072 0B       		.uleb128 0xb
 2409 0073 01       		.uleb128 0x1
 2410 0074 13       		.uleb128 0x13
 2411 0075 00       		.byte	0
 2412 0076 00       		.byte	0
 2413 0077 0A       		.uleb128 0xa
 2414 0078 28       		.uleb128 0x28
 2415 0079 00       		.byte	0
 2416 007a 03       		.uleb128 0x3
 2417 007b 0E       		.uleb128 0xe
 2418 007c 1C       		.uleb128 0x1c
 2419 007d 0B       		.uleb128 0xb
 2420 007e 00       		.byte	0
 2421 007f 00       		.byte	0
ARM GAS  G:\Users\Jaxb\AppData\Local\Temp\ccqu2fCZ.s 			page 50


 2422 0080 0B       		.uleb128 0xb
 2423 0081 0F       		.uleb128 0xf
 2424 0082 00       		.byte	0
 2425 0083 0B       		.uleb128 0xb
 2426 0084 0B       		.uleb128 0xb
 2427 0085 00       		.byte	0
 2428 0086 00       		.byte	0
 2429 0087 0C       		.uleb128 0xc
 2430 0088 34       		.uleb128 0x34
 2431 0089 00       		.byte	0
 2432 008a 03       		.uleb128 0x3
 2433 008b 0E       		.uleb128 0xe
 2434 008c 3A       		.uleb128 0x3a
 2435 008d 0B       		.uleb128 0xb
 2436 008e 3B       		.uleb128 0x3b
 2437 008f 0B       		.uleb128 0xb
 2438 0090 49       		.uleb128 0x49
 2439 0091 13       		.uleb128 0x13
 2440 0092 3F       		.uleb128 0x3f
 2441 0093 0C       		.uleb128 0xc
 2442 0094 3C       		.uleb128 0x3c
 2443 0095 0C       		.uleb128 0xc
 2444 0096 00       		.byte	0
 2445 0097 00       		.byte	0
 2446 0098 0D       		.uleb128 0xd
 2447 0099 26       		.uleb128 0x26
 2448 009a 00       		.byte	0
 2449 009b 49       		.uleb128 0x49
 2450 009c 13       		.uleb128 0x13
 2451 009d 00       		.byte	0
 2452 009e 00       		.byte	0
 2453 009f 0E       		.uleb128 0xe
 2454 00a0 16       		.uleb128 0x16
 2455 00a1 00       		.byte	0
 2456 00a2 03       		.uleb128 0x3
 2457 00a3 08       		.uleb128 0x8
 2458 00a4 3A       		.uleb128 0x3a
 2459 00a5 0B       		.uleb128 0xb
 2460 00a6 3B       		.uleb128 0x3b
 2461 00a7 0B       		.uleb128 0xb
 2462 00a8 49       		.uleb128 0x49
 2463 00a9 13       		.uleb128 0x13
 2464 00aa 00       		.byte	0
 2465 00ab 00       		.byte	0
 2466 00ac 0F       		.uleb128 0xf
 2467 00ad 15       		.uleb128 0x15
 2468 00ae 01       		.byte	0x1
 2469 00af 27       		.uleb128 0x27
 2470 00b0 0C       		.uleb128 0xc
 2471 00b1 49       		.uleb128 0x49
 2472 00b2 13       		.uleb128 0x13
 2473 00b3 01       		.uleb128 0x1
 2474 00b4 13       		.uleb128 0x13
 2475 00b5 00       		.byte	0
 2476 00b6 00       		.byte	0
 2477 00b7 10       		.uleb128 0x10
 2478 00b8 05       		.uleb128 0x5
ARM GAS  G:\Users\Jaxb\AppData\Local\Temp\ccqu2fCZ.s 			page 51


 2479 00b9 00       		.byte	0
 2480 00ba 49       		.uleb128 0x49
 2481 00bb 13       		.uleb128 0x13
 2482 00bc 00       		.byte	0
 2483 00bd 00       		.byte	0
 2484 00be 11       		.uleb128 0x11
 2485 00bf 01       		.uleb128 0x1
 2486 00c0 01       		.byte	0x1
 2487 00c1 49       		.uleb128 0x49
 2488 00c2 13       		.uleb128 0x13
 2489 00c3 01       		.uleb128 0x1
 2490 00c4 13       		.uleb128 0x13
 2491 00c5 00       		.byte	0
 2492 00c6 00       		.byte	0
 2493 00c7 12       		.uleb128 0x12
 2494 00c8 21       		.uleb128 0x21
 2495 00c9 00       		.byte	0
 2496 00ca 49       		.uleb128 0x49
 2497 00cb 13       		.uleb128 0x13
 2498 00cc 2F       		.uleb128 0x2f
 2499 00cd 0B       		.uleb128 0xb
 2500 00ce 00       		.byte	0
 2501 00cf 00       		.byte	0
 2502 00d0 13       		.uleb128 0x13
 2503 00d1 34       		.uleb128 0x34
 2504 00d2 00       		.byte	0
 2505 00d3 03       		.uleb128 0x3
 2506 00d4 0E       		.uleb128 0xe
 2507 00d5 3A       		.uleb128 0x3a
 2508 00d6 0B       		.uleb128 0xb
 2509 00d7 3B       		.uleb128 0x3b
 2510 00d8 0B       		.uleb128 0xb
 2511 00d9 49       		.uleb128 0x49
 2512 00da 13       		.uleb128 0x13
 2513 00db 3F       		.uleb128 0x3f
 2514 00dc 0C       		.uleb128 0xc
 2515 00dd 02       		.uleb128 0x2
 2516 00de 0A       		.uleb128 0xa
 2517 00df 00       		.byte	0
 2518 00e0 00       		.byte	0
 2519 00e1 14       		.uleb128 0x14
 2520 00e2 2E       		.uleb128 0x2e
 2521 00e3 01       		.byte	0x1
 2522 00e4 3F       		.uleb128 0x3f
 2523 00e5 0C       		.uleb128 0xc
 2524 00e6 03       		.uleb128 0x3
 2525 00e7 0E       		.uleb128 0xe
 2526 00e8 3A       		.uleb128 0x3a
 2527 00e9 0B       		.uleb128 0xb
 2528 00ea 3B       		.uleb128 0x3b
 2529 00eb 0B       		.uleb128 0xb
 2530 00ec 27       		.uleb128 0x27
 2531 00ed 0C       		.uleb128 0xc
 2532 00ee 11       		.uleb128 0x11
 2533 00ef 01       		.uleb128 0x1
 2534 00f0 12       		.uleb128 0x12
 2535 00f1 01       		.uleb128 0x1
ARM GAS  G:\Users\Jaxb\AppData\Local\Temp\ccqu2fCZ.s 			page 52


 2536 00f2 40       		.uleb128 0x40
 2537 00f3 06       		.uleb128 0x6
 2538 00f4 9742     		.uleb128 0x2117
 2539 00f6 0C       		.uleb128 0xc
 2540 00f7 01       		.uleb128 0x1
 2541 00f8 13       		.uleb128 0x13
 2542 00f9 00       		.byte	0
 2543 00fa 00       		.byte	0
 2544 00fb 15       		.uleb128 0x15
 2545 00fc 05       		.uleb128 0x5
 2546 00fd 00       		.byte	0
 2547 00fe 03       		.uleb128 0x3
 2548 00ff 0E       		.uleb128 0xe
 2549 0100 3A       		.uleb128 0x3a
 2550 0101 0B       		.uleb128 0xb
 2551 0102 3B       		.uleb128 0x3b
 2552 0103 0B       		.uleb128 0xb
 2553 0104 49       		.uleb128 0x49
 2554 0105 13       		.uleb128 0x13
 2555 0106 02       		.uleb128 0x2
 2556 0107 06       		.uleb128 0x6
 2557 0108 00       		.byte	0
 2558 0109 00       		.byte	0
 2559 010a 16       		.uleb128 0x16
 2560 010b 34       		.uleb128 0x34
 2561 010c 00       		.byte	0
 2562 010d 03       		.uleb128 0x3
 2563 010e 0E       		.uleb128 0xe
 2564 010f 3A       		.uleb128 0x3a
 2565 0110 0B       		.uleb128 0xb
 2566 0111 3B       		.uleb128 0x3b
 2567 0112 0B       		.uleb128 0xb
 2568 0113 49       		.uleb128 0x49
 2569 0114 13       		.uleb128 0x13
 2570 0115 02       		.uleb128 0x2
 2571 0116 06       		.uleb128 0x6
 2572 0117 00       		.byte	0
 2573 0118 00       		.byte	0
 2574 0119 17       		.uleb128 0x17
 2575 011a 898201   		.uleb128 0x4109
 2576 011d 00       		.byte	0
 2577 011e 11       		.uleb128 0x11
 2578 011f 01       		.uleb128 0x1
 2579 0120 31       		.uleb128 0x31
 2580 0121 13       		.uleb128 0x13
 2581 0122 00       		.byte	0
 2582 0123 00       		.byte	0
 2583 0124 18       		.uleb128 0x18
 2584 0125 898201   		.uleb128 0x4109
 2585 0128 00       		.byte	0
 2586 0129 11       		.uleb128 0x11
 2587 012a 01       		.uleb128 0x1
 2588 012b 9542     		.uleb128 0x2115
 2589 012d 0C       		.uleb128 0xc
 2590 012e 31       		.uleb128 0x31
 2591 012f 13       		.uleb128 0x13
 2592 0130 00       		.byte	0
ARM GAS  G:\Users\Jaxb\AppData\Local\Temp\ccqu2fCZ.s 			page 53


 2593 0131 00       		.byte	0
 2594 0132 19       		.uleb128 0x19
 2595 0133 898201   		.uleb128 0x4109
 2596 0136 01       		.byte	0x1
 2597 0137 11       		.uleb128 0x11
 2598 0138 01       		.uleb128 0x1
 2599 0139 31       		.uleb128 0x31
 2600 013a 13       		.uleb128 0x13
 2601 013b 00       		.byte	0
 2602 013c 00       		.byte	0
 2603 013d 1A       		.uleb128 0x1a
 2604 013e 8A8201   		.uleb128 0x410a
 2605 0141 00       		.byte	0
 2606 0142 02       		.uleb128 0x2
 2607 0143 0A       		.uleb128 0xa
 2608 0144 9142     		.uleb128 0x2111
 2609 0146 0A       		.uleb128 0xa
 2610 0147 00       		.byte	0
 2611 0148 00       		.byte	0
 2612 0149 1B       		.uleb128 0x1b
 2613 014a 2E       		.uleb128 0x2e
 2614 014b 01       		.byte	0x1
 2615 014c 3F       		.uleb128 0x3f
 2616 014d 0C       		.uleb128 0xc
 2617 014e 03       		.uleb128 0x3
 2618 014f 08       		.uleb128 0x8
 2619 0150 3A       		.uleb128 0x3a
 2620 0151 0B       		.uleb128 0xb
 2621 0152 3B       		.uleb128 0x3b
 2622 0153 0B       		.uleb128 0xb
 2623 0154 27       		.uleb128 0x27
 2624 0155 0C       		.uleb128 0xc
 2625 0156 49       		.uleb128 0x49
 2626 0157 13       		.uleb128 0x13
 2627 0158 11       		.uleb128 0x11
 2628 0159 01       		.uleb128 0x1
 2629 015a 12       		.uleb128 0x12
 2630 015b 01       		.uleb128 0x1
 2631 015c 40       		.uleb128 0x40
 2632 015d 06       		.uleb128 0x6
 2633 015e 9742     		.uleb128 0x2117
 2634 0160 0C       		.uleb128 0xc
 2635 0161 01       		.uleb128 0x1
 2636 0162 13       		.uleb128 0x13
 2637 0163 00       		.byte	0
 2638 0164 00       		.byte	0
 2639 0165 1C       		.uleb128 0x1c
 2640 0166 0B       		.uleb128 0xb
 2641 0167 01       		.byte	0x1
 2642 0168 55       		.uleb128 0x55
 2643 0169 06       		.uleb128 0x6
 2644 016a 01       		.uleb128 0x1
 2645 016b 13       		.uleb128 0x13
 2646 016c 00       		.byte	0
 2647 016d 00       		.byte	0
 2648 016e 1D       		.uleb128 0x1d
 2649 016f 898201   		.uleb128 0x4109
ARM GAS  G:\Users\Jaxb\AppData\Local\Temp\ccqu2fCZ.s 			page 54


 2650 0172 01       		.byte	0x1
 2651 0173 11       		.uleb128 0x11
 2652 0174 01       		.uleb128 0x1
 2653 0175 31       		.uleb128 0x31
 2654 0176 13       		.uleb128 0x13
 2655 0177 01       		.uleb128 0x1
 2656 0178 13       		.uleb128 0x13
 2657 0179 00       		.byte	0
 2658 017a 00       		.byte	0
 2659 017b 1E       		.uleb128 0x1e
 2660 017c 34       		.uleb128 0x34
 2661 017d 00       		.byte	0
 2662 017e 03       		.uleb128 0x3
 2663 017f 0E       		.uleb128 0xe
 2664 0180 3A       		.uleb128 0x3a
 2665 0181 0B       		.uleb128 0xb
 2666 0182 3B       		.uleb128 0x3b
 2667 0183 0B       		.uleb128 0xb
 2668 0184 49       		.uleb128 0x49
 2669 0185 13       		.uleb128 0x13
 2670 0186 02       		.uleb128 0x2
 2671 0187 0A       		.uleb128 0xa
 2672 0188 00       		.byte	0
 2673 0189 00       		.byte	0
 2674 018a 1F       		.uleb128 0x1f
 2675 018b 2E       		.uleb128 0x2e
 2676 018c 01       		.byte	0x1
 2677 018d 3F       		.uleb128 0x3f
 2678 018e 0C       		.uleb128 0xc
 2679 018f 03       		.uleb128 0x3
 2680 0190 0E       		.uleb128 0xe
 2681 0191 3A       		.uleb128 0x3a
 2682 0192 0B       		.uleb128 0xb
 2683 0193 3B       		.uleb128 0x3b
 2684 0194 0B       		.uleb128 0xb
 2685 0195 27       		.uleb128 0x27
 2686 0196 0C       		.uleb128 0xc
 2687 0197 49       		.uleb128 0x49
 2688 0198 13       		.uleb128 0x13
 2689 0199 11       		.uleb128 0x11
 2690 019a 01       		.uleb128 0x1
 2691 019b 12       		.uleb128 0x12
 2692 019c 01       		.uleb128 0x1
 2693 019d 40       		.uleb128 0x40
 2694 019e 06       		.uleb128 0x6
 2695 019f 9742     		.uleb128 0x2117
 2696 01a1 0C       		.uleb128 0xc
 2697 01a2 01       		.uleb128 0x1
 2698 01a3 13       		.uleb128 0x13
 2699 01a4 00       		.byte	0
 2700 01a5 00       		.byte	0
 2701 01a6 20       		.uleb128 0x20
 2702 01a7 05       		.uleb128 0x5
 2703 01a8 00       		.byte	0
 2704 01a9 03       		.uleb128 0x3
 2705 01aa 08       		.uleb128 0x8
 2706 01ab 3A       		.uleb128 0x3a
ARM GAS  G:\Users\Jaxb\AppData\Local\Temp\ccqu2fCZ.s 			page 55


 2707 01ac 0B       		.uleb128 0xb
 2708 01ad 3B       		.uleb128 0x3b
 2709 01ae 0B       		.uleb128 0xb
 2710 01af 49       		.uleb128 0x49
 2711 01b0 13       		.uleb128 0x13
 2712 01b1 02       		.uleb128 0x2
 2713 01b2 06       		.uleb128 0x6
 2714 01b3 00       		.byte	0
 2715 01b4 00       		.byte	0
 2716 01b5 21       		.uleb128 0x21
 2717 01b6 2E       		.uleb128 0x2e
 2718 01b7 01       		.byte	0x1
 2719 01b8 03       		.uleb128 0x3
 2720 01b9 0E       		.uleb128 0xe
 2721 01ba 3A       		.uleb128 0x3a
 2722 01bb 0B       		.uleb128 0xb
 2723 01bc 3B       		.uleb128 0x3b
 2724 01bd 0B       		.uleb128 0xb
 2725 01be 27       		.uleb128 0x27
 2726 01bf 0C       		.uleb128 0xc
 2727 01c0 49       		.uleb128 0x49
 2728 01c1 13       		.uleb128 0x13
 2729 01c2 11       		.uleb128 0x11
 2730 01c3 01       		.uleb128 0x1
 2731 01c4 12       		.uleb128 0x12
 2732 01c5 01       		.uleb128 0x1
 2733 01c6 40       		.uleb128 0x40
 2734 01c7 0A       		.uleb128 0xa
 2735 01c8 9742     		.uleb128 0x2117
 2736 01ca 0C       		.uleb128 0xc
 2737 01cb 01       		.uleb128 0x1
 2738 01cc 13       		.uleb128 0x13
 2739 01cd 00       		.byte	0
 2740 01ce 00       		.byte	0
 2741 01cf 22       		.uleb128 0x22
 2742 01d0 05       		.uleb128 0x5
 2743 01d1 00       		.byte	0
 2744 01d2 03       		.uleb128 0x3
 2745 01d3 0E       		.uleb128 0xe
 2746 01d4 3A       		.uleb128 0x3a
 2747 01d5 0B       		.uleb128 0xb
 2748 01d6 3B       		.uleb128 0x3b
 2749 01d7 0B       		.uleb128 0xb
 2750 01d8 49       		.uleb128 0x49
 2751 01d9 13       		.uleb128 0x13
 2752 01da 02       		.uleb128 0x2
 2753 01db 0A       		.uleb128 0xa
 2754 01dc 00       		.byte	0
 2755 01dd 00       		.byte	0
 2756 01de 23       		.uleb128 0x23
 2757 01df 2E       		.uleb128 0x2e
 2758 01e0 00       		.byte	0
 2759 01e1 3F       		.uleb128 0x3f
 2760 01e2 0C       		.uleb128 0xc
 2761 01e3 3C       		.uleb128 0x3c
 2762 01e4 0C       		.uleb128 0xc
 2763 01e5 8740     		.uleb128 0x2007
ARM GAS  G:\Users\Jaxb\AppData\Local\Temp\ccqu2fCZ.s 			page 56


 2764 01e7 0E       		.uleb128 0xe
 2765 01e8 03       		.uleb128 0x3
 2766 01e9 0E       		.uleb128 0xe
 2767 01ea 3A       		.uleb128 0x3a
 2768 01eb 0B       		.uleb128 0xb
 2769 01ec 3B       		.uleb128 0x3b
 2770 01ed 0B       		.uleb128 0xb
 2771 01ee 00       		.byte	0
 2772 01ef 00       		.byte	0
 2773 01f0 00       		.byte	0
 2774              		.section	.debug_loc,"",%progbits
 2775              	.Ldebug_loc0:
 2776              	.LLST2:
 2777 0000 14000000 		.4byte	.LFB18-.Ltext0
 2778 0004 16000000 		.4byte	.LCFI0-.Ltext0
 2779 0008 0200     		.2byte	0x2
 2780 000a 7D       		.byte	0x7d
 2781 000b 00       		.sleb128 0
 2782 000c 16000000 		.4byte	.LCFI0-.Ltext0
 2783 0010 2C000000 		.4byte	.LCFI1-.Ltext0
 2784 0014 0200     		.2byte	0x2
 2785 0016 7D       		.byte	0x7d
 2786 0017 08       		.sleb128 8
 2787 0018 2C000000 		.4byte	.LCFI1-.Ltext0
 2788 001c 30000000 		.4byte	.LCFI2-.Ltext0
 2789 0020 0200     		.2byte	0x2
 2790 0022 7D       		.byte	0x7d
 2791 0023 00       		.sleb128 0
 2792 0024 30000000 		.4byte	.LCFI2-.Ltext0
 2793 0028 40000000 		.4byte	.LFE18-.Ltext0
 2794 002c 0200     		.2byte	0x2
 2795 002e 7D       		.byte	0x7d
 2796 002f 08       		.sleb128 8
 2797 0030 00000000 		.4byte	0
 2798 0034 00000000 		.4byte	0
 2799              	.LLST3:
 2800 0038 14000000 		.4byte	.LVL4-.Ltext0
 2801 003c 1A000000 		.4byte	.LVL5-.Ltext0
 2802 0040 0100     		.2byte	0x1
 2803 0042 50       		.byte	0x50
 2804 0043 1A000000 		.4byte	.LVL5-.Ltext0
 2805 0047 2C000000 		.4byte	.LVL7-.Ltext0
 2806 004b 0100     		.2byte	0x1
 2807 004d 54       		.byte	0x54
 2808 004e 2C000000 		.4byte	.LVL7-.Ltext0
 2809 0052 30000000 		.4byte	.LVL8-.Ltext0
 2810 0056 0400     		.2byte	0x4
 2811 0058 F3       		.byte	0xf3
 2812 0059 01       		.uleb128 0x1
 2813 005a 50       		.byte	0x50
 2814 005b 9F       		.byte	0x9f
 2815 005c 30000000 		.4byte	.LVL8-.Ltext0
 2816 0060 34000000 		.4byte	.LVL9-.Ltext0
 2817 0064 0100     		.2byte	0x1
 2818 0066 50       		.byte	0x50
 2819 0067 34000000 		.4byte	.LVL9-.Ltext0
 2820 006b 40000000 		.4byte	.LFE18-.Ltext0
ARM GAS  G:\Users\Jaxb\AppData\Local\Temp\ccqu2fCZ.s 			page 57


 2821 006f 0100     		.2byte	0x1
 2822 0071 54       		.byte	0x54
 2823 0072 00000000 		.4byte	0
 2824 0076 00000000 		.4byte	0
 2825              	.LLST4:
 2826 007a 1A000000 		.4byte	.LVL5-.Ltext0
 2827 007e 1E000000 		.4byte	.LVL6-.Ltext0
 2828 0082 0200     		.2byte	0x2
 2829 0084 30       		.byte	0x30
 2830 0085 9F       		.byte	0x9f
 2831 0086 1E000000 		.4byte	.LVL6-.Ltext0
 2832 008a 2F000000 		.4byte	.LVL8-1-.Ltext0
 2833 008e 0100     		.2byte	0x1
 2834 0090 50       		.byte	0x50
 2835 0091 00000000 		.4byte	0
 2836 0095 00000000 		.4byte	0
 2837              	.LLST15:
 2838 0099 24010000 		.4byte	.LFB17-.Ltext0
 2839 009d 26010000 		.4byte	.LCFI5-.Ltext0
 2840 00a1 0200     		.2byte	0x2
 2841 00a3 7D       		.byte	0x7d
 2842 00a4 00       		.sleb128 0
 2843 00a5 26010000 		.4byte	.LCFI5-.Ltext0
 2844 00a9 AC010000 		.4byte	.LFE17-.Ltext0
 2845 00ad 0200     		.2byte	0x2
 2846 00af 7D       		.byte	0x7d
 2847 00b0 10       		.sleb128 16
 2848 00b1 00000000 		.4byte	0
 2849 00b5 00000000 		.4byte	0
 2850              	.LLST16:
 2851 00b9 24010000 		.4byte	.LVL49-.Ltext0
 2852 00bd 2D010000 		.4byte	.LVL51-1-.Ltext0
 2853 00c1 0100     		.2byte	0x1
 2854 00c3 50       		.byte	0x50
 2855 00c4 2D010000 		.4byte	.LVL51-1-.Ltext0
 2856 00c8 84010000 		.4byte	.LVL65-.Ltext0
 2857 00cc 0100     		.2byte	0x1
 2858 00ce 54       		.byte	0x54
 2859 00cf 84010000 		.4byte	.LVL65-.Ltext0
 2860 00d3 88010000 		.4byte	.LVL66-.Ltext0
 2861 00d7 0100     		.2byte	0x1
 2862 00d9 50       		.byte	0x50
 2863 00da 88010000 		.4byte	.LVL66-.Ltext0
 2864 00de AC010000 		.4byte	.LFE17-.Ltext0
 2865 00e2 0100     		.2byte	0x1
 2866 00e4 54       		.byte	0x54
 2867 00e5 00000000 		.4byte	0
 2868 00e9 00000000 		.4byte	0
 2869              	.LLST17:
 2870 00ed 2A010000 		.4byte	.LVL50-.Ltext0
 2871 00f1 32010000 		.4byte	.LVL52-.Ltext0
 2872 00f5 0200     		.2byte	0x2
 2873 00f7 30       		.byte	0x30
 2874 00f8 9F       		.byte	0x9f
 2875 00f9 32010000 		.4byte	.LVL52-.Ltext0
 2876 00fd 48010000 		.4byte	.LVL53-.Ltext0
 2877 0101 0100     		.2byte	0x1
ARM GAS  G:\Users\Jaxb\AppData\Local\Temp\ccqu2fCZ.s 			page 58


 2878 0103 50       		.byte	0x50
 2879 0104 48010000 		.4byte	.LVL53-.Ltext0
 2880 0108 52010000 		.4byte	.LVL55-.Ltext0
 2881 010c 0100     		.2byte	0x1
 2882 010e 55       		.byte	0x55
 2883 010f 52010000 		.4byte	.LVL55-.Ltext0
 2884 0113 58010000 		.4byte	.LVL56-.Ltext0
 2885 0117 0100     		.2byte	0x1
 2886 0119 50       		.byte	0x50
 2887 011a 58010000 		.4byte	.LVL56-.Ltext0
 2888 011e 76010000 		.4byte	.LVL62-.Ltext0
 2889 0122 0100     		.2byte	0x1
 2890 0124 55       		.byte	0x55
 2891 0125 76010000 		.4byte	.LVL62-.Ltext0
 2892 0129 7A010000 		.4byte	.LVL63-.Ltext0
 2893 012d 0100     		.2byte	0x1
 2894 012f 50       		.byte	0x50
 2895 0130 7A010000 		.4byte	.LVL63-.Ltext0
 2896 0134 84010000 		.4byte	.LVL65-.Ltext0
 2897 0138 0100     		.2byte	0x1
 2898 013a 55       		.byte	0x55
 2899 013b 96010000 		.4byte	.LVL69-.Ltext0
 2900 013f AC010000 		.4byte	.LFE17-.Ltext0
 2901 0143 0100     		.2byte	0x1
 2902 0145 55       		.byte	0x55
 2903 0146 00000000 		.4byte	0
 2904 014a 00000000 		.4byte	0
 2905              	.LLST18:
 2906 014e 5E010000 		.4byte	.LVL58-.Ltext0
 2907 0152 68010000 		.4byte	.LVL59-.Ltext0
 2908 0156 0100     		.2byte	0x1
 2909 0158 50       		.byte	0x50
 2910 0159 96010000 		.4byte	.LVL69-.Ltext0
 2911 015d 99010000 		.4byte	.LVL70-1-.Ltext0
 2912 0161 0100     		.2byte	0x1
 2913 0163 50       		.byte	0x50
 2914 0164 9C010000 		.4byte	.LVL71-.Ltext0
 2915 0168 9F010000 		.4byte	.LVL72-1-.Ltext0
 2916 016c 0100     		.2byte	0x1
 2917 016e 50       		.byte	0x50
 2918 016f 00000000 		.4byte	0
 2919 0173 00000000 		.4byte	0
 2920              	.LLST19:
 2921 0177 AC010000 		.4byte	.LFB16-.Ltext0
 2922 017b B0010000 		.4byte	.LCFI6-.Ltext0
 2923 017f 0200     		.2byte	0x2
 2924 0181 7D       		.byte	0x7d
 2925 0182 00       		.sleb128 0
 2926 0183 B0010000 		.4byte	.LCFI6-.Ltext0
 2927 0187 B4010000 		.4byte	.LCFI7-.Ltext0
 2928 018b 0200     		.2byte	0x2
 2929 018d 7D       		.byte	0x7d
 2930 018e 24       		.sleb128 36
 2931 018f B4010000 		.4byte	.LCFI7-.Ltext0
 2932 0193 E2010000 		.4byte	.LCFI8-.Ltext0
 2933 0197 0300     		.2byte	0x3
 2934 0199 7D       		.byte	0x7d
ARM GAS  G:\Users\Jaxb\AppData\Local\Temp\ccqu2fCZ.s 			page 59


 2935 019a C000     		.sleb128 64
 2936 019c E2010000 		.4byte	.LCFI8-.Ltext0
 2937 01a0 E6010000 		.4byte	.LCFI9-.Ltext0
 2938 01a4 0200     		.2byte	0x2
 2939 01a6 7D       		.byte	0x7d
 2940 01a7 24       		.sleb128 36
 2941 01a8 E6010000 		.4byte	.LCFI9-.Ltext0
 2942 01ac 7C020000 		.4byte	.LCFI10-.Ltext0
 2943 01b0 0300     		.2byte	0x3
 2944 01b2 7D       		.byte	0x7d
 2945 01b3 C000     		.sleb128 64
 2946 01b5 7C020000 		.4byte	.LCFI10-.Ltext0
 2947 01b9 80020000 		.4byte	.LCFI11-.Ltext0
 2948 01bd 0200     		.2byte	0x2
 2949 01bf 7D       		.byte	0x7d
 2950 01c0 24       		.sleb128 36
 2951 01c1 80020000 		.4byte	.LCFI11-.Ltext0
 2952 01c5 B4020000 		.4byte	.LFE16-.Ltext0
 2953 01c9 0300     		.2byte	0x3
 2954 01cb 7D       		.byte	0x7d
 2955 01cc C000     		.sleb128 64
 2956 01ce 00000000 		.4byte	0
 2957 01d2 00000000 		.4byte	0
 2958              	.LLST20:
 2959 01d6 AC010000 		.4byte	.LVL73-.Ltext0
 2960 01da BF010000 		.4byte	.LVL75-1-.Ltext0
 2961 01de 0100     		.2byte	0x1
 2962 01e0 50       		.byte	0x50
 2963 01e1 BF010000 		.4byte	.LVL75-1-.Ltext0
 2964 01e5 D8010000 		.4byte	.LVL77-.Ltext0
 2965 01e9 0100     		.2byte	0x1
 2966 01eb 54       		.byte	0x54
 2967 01ec D8010000 		.4byte	.LVL77-.Ltext0
 2968 01f0 E6010000 		.4byte	.LVL79-.Ltext0
 2969 01f4 0400     		.2byte	0x4
 2970 01f6 F3       		.byte	0xf3
 2971 01f7 01       		.uleb128 0x1
 2972 01f8 50       		.byte	0x50
 2973 01f9 9F       		.byte	0x9f
 2974 01fa E6010000 		.4byte	.LVL79-.Ltext0
 2975 01fe 32020000 		.4byte	.LVL91-.Ltext0
 2976 0202 0100     		.2byte	0x1
 2977 0204 54       		.byte	0x54
 2978 0205 32020000 		.4byte	.LVL91-.Ltext0
 2979 0209 46020000 		.4byte	.LVL93-.Ltext0
 2980 020d 0400     		.2byte	0x4
 2981 020f F3       		.byte	0xf3
 2982 0210 01       		.uleb128 0x1
 2983 0211 50       		.byte	0x50
 2984 0212 9F       		.byte	0x9f
 2985 0213 46020000 		.4byte	.LVL93-.Ltext0
 2986 0217 68020000 		.4byte	.LVL99-.Ltext0
 2987 021b 0100     		.2byte	0x1
 2988 021d 54       		.byte	0x54
 2989 021e 68020000 		.4byte	.LVL99-.Ltext0
 2990 0222 6C020000 		.4byte	.LVL101-.Ltext0
 2991 0226 0100     		.2byte	0x1
ARM GAS  G:\Users\Jaxb\AppData\Local\Temp\ccqu2fCZ.s 			page 60


 2992 0228 50       		.byte	0x50
 2993 0229 6C020000 		.4byte	.LVL101-.Ltext0
 2994 022d B4020000 		.4byte	.LFE16-.Ltext0
 2995 0231 0100     		.2byte	0x1
 2996 0233 54       		.byte	0x54
 2997 0234 00000000 		.4byte	0
 2998 0238 00000000 		.4byte	0
 2999              	.LLST21:
 3000 023c AC010000 		.4byte	.LVL73-.Ltext0
 3001 0240 BF010000 		.4byte	.LVL75-1-.Ltext0
 3002 0244 0100     		.2byte	0x1
 3003 0246 51       		.byte	0x51
 3004 0247 BF010000 		.4byte	.LVL75-1-.Ltext0
 3005 024b 68020000 		.4byte	.LVL99-.Ltext0
 3006 024f 0400     		.2byte	0x4
 3007 0251 F3       		.byte	0xf3
 3008 0252 01       		.uleb128 0x1
 3009 0253 51       		.byte	0x51
 3010 0254 9F       		.byte	0x9f
 3011 0255 68020000 		.4byte	.LVL99-.Ltext0
 3012 0259 6A020000 		.4byte	.LVL100-.Ltext0
 3013 025d 0100     		.2byte	0x1
 3014 025f 51       		.byte	0x51
 3015 0260 6A020000 		.4byte	.LVL100-.Ltext0
 3016 0264 B4020000 		.4byte	.LFE16-.Ltext0
 3017 0268 0400     		.2byte	0x4
 3018 026a F3       		.byte	0xf3
 3019 026b 01       		.uleb128 0x1
 3020 026c 51       		.byte	0x51
 3021 026d 9F       		.byte	0x9f
 3022 026e 00000000 		.4byte	0
 3023 0272 00000000 		.4byte	0
 3024              	.LLST22:
 3025 0276 AC010000 		.4byte	.LVL73-.Ltext0
 3026 027a BF010000 		.4byte	.LVL75-1-.Ltext0
 3027 027e 0100     		.2byte	0x1
 3028 0280 52       		.byte	0x52
 3029 0281 BF010000 		.4byte	.LVL75-1-.Ltext0
 3030 0285 68020000 		.4byte	.LVL99-.Ltext0
 3031 0289 0100     		.2byte	0x1
 3032 028b 57       		.byte	0x57
 3033 028c 68020000 		.4byte	.LVL99-.Ltext0
 3034 0290 6F020000 		.4byte	.LVL102-1-.Ltext0
 3035 0294 0100     		.2byte	0x1
 3036 0296 52       		.byte	0x52
 3037 0297 6F020000 		.4byte	.LVL102-1-.Ltext0
 3038 029b B4020000 		.4byte	.LFE16-.Ltext0
 3039 029f 0100     		.2byte	0x1
 3040 02a1 57       		.byte	0x57
 3041 02a2 00000000 		.4byte	0
 3042 02a6 00000000 		.4byte	0
 3043              	.LLST23:
 3044 02aa BC010000 		.4byte	.LVL74-.Ltext0
 3045 02ae C4010000 		.4byte	.LVL76-.Ltext0
 3046 02b2 0200     		.2byte	0x2
 3047 02b4 30       		.byte	0x30
 3048 02b5 9F       		.byte	0x9f
ARM GAS  G:\Users\Jaxb\AppData\Local\Temp\ccqu2fCZ.s 			page 61


 3049 02b6 C4010000 		.4byte	.LVL76-.Ltext0
 3050 02ba D8010000 		.4byte	.LVL77-.Ltext0
 3051 02be 0100     		.2byte	0x1
 3052 02c0 50       		.byte	0x50
 3053 02c1 D8010000 		.4byte	.LVL77-.Ltext0
 3054 02c5 E6010000 		.4byte	.LVL79-.Ltext0
 3055 02c9 0100     		.2byte	0x1
 3056 02cb 56       		.byte	0x56
 3057 02cc E6010000 		.4byte	.LVL79-.Ltext0
 3058 02d0 EA010000 		.4byte	.LVL80-.Ltext0
 3059 02d4 0100     		.2byte	0x1
 3060 02d6 50       		.byte	0x50
 3061 02d7 EA010000 		.4byte	.LVL80-.Ltext0
 3062 02db 16020000 		.4byte	.LVL88-.Ltext0
 3063 02df 0100     		.2byte	0x1
 3064 02e1 56       		.byte	0x56
 3065 02e2 16020000 		.4byte	.LVL88-.Ltext0
 3066 02e6 19020000 		.4byte	.LVL89-1-.Ltext0
 3067 02ea 0100     		.2byte	0x1
 3068 02ec 50       		.byte	0x50
 3069 02ed 19020000 		.4byte	.LVL89-1-.Ltext0
 3070 02f1 46020000 		.4byte	.LVL93-.Ltext0
 3071 02f5 0100     		.2byte	0x1
 3072 02f7 56       		.byte	0x56
 3073 02f8 46020000 		.4byte	.LVL93-.Ltext0
 3074 02fc 4D020000 		.4byte	.LVL94-1-.Ltext0
 3075 0300 0100     		.2byte	0x1
 3076 0302 50       		.byte	0x50
 3077 0303 4D020000 		.4byte	.LVL94-1-.Ltext0
 3078 0307 66020000 		.4byte	.LVL98-.Ltext0
 3079 030b 0100     		.2byte	0x1
 3080 030d 56       		.byte	0x56
 3081 030e 66020000 		.4byte	.LVL98-.Ltext0
 3082 0312 68020000 		.4byte	.LVL99-.Ltext0
 3083 0316 0100     		.2byte	0x1
 3084 0318 50       		.byte	0x50
 3085 0319 80020000 		.4byte	.LVL104-.Ltext0
 3086 031d 83020000 		.4byte	.LVL105-1-.Ltext0
 3087 0321 0100     		.2byte	0x1
 3088 0323 50       		.byte	0x50
 3089 0324 83020000 		.4byte	.LVL105-1-.Ltext0
 3090 0328 B4020000 		.4byte	.LFE16-.Ltext0
 3091 032c 0100     		.2byte	0x1
 3092 032e 56       		.byte	0x56
 3093 032f 00000000 		.4byte	0
 3094 0333 00000000 		.4byte	0
 3095              	.LLST24:
 3096 0337 04020000 		.4byte	.LVL84-.Ltext0
 3097 033b 2A020000 		.4byte	.LVL90-.Ltext0
 3098 033f 0600     		.2byte	0x6
 3099 0341 5A       		.byte	0x5a
 3100 0342 93       		.byte	0x93
 3101 0343 04       		.uleb128 0x4
 3102 0344 5B       		.byte	0x5b
 3103 0345 93       		.byte	0x93
 3104 0346 04       		.uleb128 0x4
 3105 0347 8A020000 		.4byte	.LVL106-.Ltext0
ARM GAS  G:\Users\Jaxb\AppData\Local\Temp\ccqu2fCZ.s 			page 62


 3106 034b B4020000 		.4byte	.LFE16-.Ltext0
 3107 034f 0600     		.2byte	0x6
 3108 0351 5A       		.byte	0x5a
 3109 0352 93       		.byte	0x93
 3110 0353 04       		.uleb128 0x4
 3111 0354 5B       		.byte	0x5b
 3112 0355 93       		.byte	0x93
 3113 0356 04       		.uleb128 0x4
 3114 0357 00000000 		.4byte	0
 3115 035b 00000000 		.4byte	0
 3116              	.LLST10:
 3117 035f B0000000 		.4byte	.LFB15-.Ltext0
 3118 0363 B2000000 		.4byte	.LCFI4-.Ltext0
 3119 0367 0200     		.2byte	0x2
 3120 0369 7D       		.byte	0x7d
 3121 036a 00       		.sleb128 0
 3122 036b B2000000 		.4byte	.LCFI4-.Ltext0
 3123 036f 24010000 		.4byte	.LFE15-.Ltext0
 3124 0373 0200     		.2byte	0x2
 3125 0375 7D       		.byte	0x7d
 3126 0376 18       		.sleb128 24
 3127 0377 00000000 		.4byte	0
 3128 037b 00000000 		.4byte	0
 3129              	.LLST11:
 3130 037f B0000000 		.4byte	.LVL26-.Ltext0
 3131 0383 B9000000 		.4byte	.LVL28-1-.Ltext0
 3132 0387 0100     		.2byte	0x1
 3133 0389 50       		.byte	0x50
 3134 038a B9000000 		.4byte	.LVL28-1-.Ltext0
 3135 038e 08010000 		.4byte	.LVL44-.Ltext0
 3136 0392 0100     		.2byte	0x1
 3137 0394 55       		.byte	0x55
 3138 0395 08010000 		.4byte	.LVL44-.Ltext0
 3139 0399 0C010000 		.4byte	.LVL45-.Ltext0
 3140 039d 0100     		.2byte	0x1
 3141 039f 50       		.byte	0x50
 3142 03a0 0C010000 		.4byte	.LVL45-.Ltext0
 3143 03a4 1C010000 		.4byte	.LVL48-.Ltext0
 3144 03a8 0100     		.2byte	0x1
 3145 03aa 55       		.byte	0x55
 3146 03ab 1C010000 		.4byte	.LVL48-.Ltext0
 3147 03af 24010000 		.4byte	.LFE15-.Ltext0
 3148 03b3 0400     		.2byte	0x4
 3149 03b5 F3       		.byte	0xf3
 3150 03b6 01       		.uleb128 0x1
 3151 03b7 50       		.byte	0x50
 3152 03b8 9F       		.byte	0x9f
 3153 03b9 00000000 		.4byte	0
 3154 03bd 00000000 		.4byte	0
 3155              	.LLST12:
 3156 03c1 C8000000 		.4byte	.LVL32-.Ltext0
 3157 03c5 EA000000 		.4byte	.LVL37-.Ltext0
 3158 03c9 0100     		.2byte	0x1
 3159 03cb 54       		.byte	0x54
 3160 03cc EC000000 		.4byte	.LVL38-.Ltext0
 3161 03d0 FA000000 		.4byte	.LVL41-.Ltext0
 3162 03d4 0100     		.2byte	0x1
ARM GAS  G:\Users\Jaxb\AppData\Local\Temp\ccqu2fCZ.s 			page 63


 3163 03d6 54       		.byte	0x54
 3164 03d7 00000000 		.4byte	0
 3165 03db 00000000 		.4byte	0
 3166              	.LLST13:
 3167 03df B6000000 		.4byte	.LVL27-.Ltext0
 3168 03e3 BC000000 		.4byte	.LVL29-.Ltext0
 3169 03e7 0200     		.2byte	0x2
 3170 03e9 30       		.byte	0x30
 3171 03ea 9F       		.byte	0x9f
 3172 03eb BC000000 		.4byte	.LVL29-.Ltext0
 3173 03ef BE000000 		.4byte	.LVL30-.Ltext0
 3174 03f3 0100     		.2byte	0x1
 3175 03f5 50       		.byte	0x50
 3176 03f6 BE000000 		.4byte	.LVL30-.Ltext0
 3177 03fa 08010000 		.4byte	.LVL44-.Ltext0
 3178 03fe 0100     		.2byte	0x1
 3179 0400 57       		.byte	0x57
 3180 0401 00000000 		.4byte	0
 3181 0405 00000000 		.4byte	0
 3182              	.LLST14:
 3183 0409 C2000000 		.4byte	.LVL31-.Ltext0
 3184 040d D0000000 		.4byte	.LVL33-.Ltext0
 3185 0411 0100     		.2byte	0x1
 3186 0413 50       		.byte	0x50
 3187 0414 E8000000 		.4byte	.LVL36-.Ltext0
 3188 0418 F4000000 		.4byte	.LVL39-.Ltext0
 3189 041c 0100     		.2byte	0x1
 3190 041e 50       		.byte	0x50
 3191 041f FA000000 		.4byte	.LVL41-.Ltext0
 3192 0423 FD000000 		.4byte	.LVL42-1-.Ltext0
 3193 0427 0100     		.2byte	0x1
 3194 0429 50       		.byte	0x50
 3195 042a 00000000 		.4byte	0
 3196 042e 00000000 		.4byte	0
 3197              	.LLST5:
 3198 0432 40000000 		.4byte	.LFB14-.Ltext0
 3199 0436 42000000 		.4byte	.LCFI3-.Ltext0
 3200 043a 0200     		.2byte	0x2
 3201 043c 7D       		.byte	0x7d
 3202 043d 00       		.sleb128 0
 3203 043e 42000000 		.4byte	.LCFI3-.Ltext0
 3204 0442 B0000000 		.4byte	.LFE14-.Ltext0
 3205 0446 0200     		.2byte	0x2
 3206 0448 7D       		.byte	0x7d
 3207 0449 18       		.sleb128 24
 3208 044a 00000000 		.4byte	0
 3209 044e 00000000 		.4byte	0
 3210              	.LLST6:
 3211 0452 40000000 		.4byte	.LVL11-.Ltext0
 3212 0456 4D000000 		.4byte	.LVL13-1-.Ltext0
 3213 045a 0100     		.2byte	0x1
 3214 045c 50       		.byte	0x50
 3215 045d 4D000000 		.4byte	.LVL13-1-.Ltext0
 3216 0461 7C000000 		.4byte	.LVL18-.Ltext0
 3217 0465 0100     		.2byte	0x1
 3218 0467 54       		.byte	0x54
 3219 0468 7C000000 		.4byte	.LVL18-.Ltext0
ARM GAS  G:\Users\Jaxb\AppData\Local\Temp\ccqu2fCZ.s 			page 64


 3220 046c 80000000 		.4byte	.LVL20-.Ltext0
 3221 0470 0100     		.2byte	0x1
 3222 0472 50       		.byte	0x50
 3223 0473 80000000 		.4byte	.LVL20-.Ltext0
 3224 0477 9A000000 		.4byte	.LVL25-.Ltext0
 3225 047b 0100     		.2byte	0x1
 3226 047d 54       		.byte	0x54
 3227 047e 9A000000 		.4byte	.LVL25-.Ltext0
 3228 0482 B0000000 		.4byte	.LFE14-.Ltext0
 3229 0486 0400     		.2byte	0x4
 3230 0488 F3       		.byte	0xf3
 3231 0489 01       		.uleb128 0x1
 3232 048a 50       		.byte	0x50
 3233 048b 9F       		.byte	0x9f
 3234 048c 00000000 		.4byte	0
 3235 0490 00000000 		.4byte	0
 3236              	.LLST7:
 3237 0494 40000000 		.4byte	.LVL11-.Ltext0
 3238 0498 4D000000 		.4byte	.LVL13-1-.Ltext0
 3239 049c 0100     		.2byte	0x1
 3240 049e 51       		.byte	0x51
 3241 049f 4D000000 		.4byte	.LVL13-1-.Ltext0
 3242 04a3 7C000000 		.4byte	.LVL18-.Ltext0
 3243 04a7 0100     		.2byte	0x1
 3244 04a9 56       		.byte	0x56
 3245 04aa 7C000000 		.4byte	.LVL18-.Ltext0
 3246 04ae 7E000000 		.4byte	.LVL19-.Ltext0
 3247 04b2 0100     		.2byte	0x1
 3248 04b4 51       		.byte	0x51
 3249 04b5 7E000000 		.4byte	.LVL19-.Ltext0
 3250 04b9 9A000000 		.4byte	.LVL25-.Ltext0
 3251 04bd 0100     		.2byte	0x1
 3252 04bf 56       		.byte	0x56
 3253 04c0 9A000000 		.4byte	.LVL25-.Ltext0
 3254 04c4 B0000000 		.4byte	.LFE14-.Ltext0
 3255 04c8 0400     		.2byte	0x4
 3256 04ca F3       		.byte	0xf3
 3257 04cb 01       		.uleb128 0x1
 3258 04cc 51       		.byte	0x51
 3259 04cd 9F       		.byte	0x9f
 3260 04ce 00000000 		.4byte	0
 3261 04d2 00000000 		.4byte	0
 3262              	.LLST8:
 3263 04d6 40000000 		.4byte	.LVL11-.Ltext0
 3264 04da 4D000000 		.4byte	.LVL13-1-.Ltext0
 3265 04de 0100     		.2byte	0x1
 3266 04e0 52       		.byte	0x52
 3267 04e1 4D000000 		.4byte	.LVL13-1-.Ltext0
 3268 04e5 7C000000 		.4byte	.LVL18-.Ltext0
 3269 04e9 0100     		.2byte	0x1
 3270 04eb 55       		.byte	0x55
 3271 04ec 7C000000 		.4byte	.LVL18-.Ltext0
 3272 04f0 83000000 		.4byte	.LVL21-1-.Ltext0
 3273 04f4 0100     		.2byte	0x1
 3274 04f6 52       		.byte	0x52
 3275 04f7 83000000 		.4byte	.LVL21-1-.Ltext0
 3276 04fb 9A000000 		.4byte	.LVL25-.Ltext0
ARM GAS  G:\Users\Jaxb\AppData\Local\Temp\ccqu2fCZ.s 			page 65


 3277 04ff 0100     		.2byte	0x1
 3278 0501 55       		.byte	0x55
 3279 0502 9A000000 		.4byte	.LVL25-.Ltext0
 3280 0506 B0000000 		.4byte	.LFE14-.Ltext0
 3281 050a 0400     		.2byte	0x4
 3282 050c F3       		.byte	0xf3
 3283 050d 01       		.uleb128 0x1
 3284 050e 52       		.byte	0x52
 3285 050f 9F       		.byte	0x9f
 3286 0510 00000000 		.4byte	0
 3287 0514 00000000 		.4byte	0
 3288              	.LLST9:
 3289 0518 4A000000 		.4byte	.LVL12-.Ltext0
 3290 051c 52000000 		.4byte	.LVL14-.Ltext0
 3291 0520 0200     		.2byte	0x2
 3292 0522 30       		.byte	0x30
 3293 0523 9F       		.byte	0x9f
 3294 0524 52000000 		.4byte	.LVL14-.Ltext0
 3295 0528 62000000 		.4byte	.LVL15-.Ltext0
 3296 052c 0100     		.2byte	0x1
 3297 052e 50       		.byte	0x50
 3298 052f 62000000 		.4byte	.LVL15-.Ltext0
 3299 0533 7C000000 		.4byte	.LVL18-.Ltext0
 3300 0537 0100     		.2byte	0x1
 3301 0539 57       		.byte	0x57
 3302 053a 90000000 		.4byte	.LVL23-.Ltext0
 3303 053e 93000000 		.4byte	.LVL24-1-.Ltext0
 3304 0542 0100     		.2byte	0x1
 3305 0544 50       		.byte	0x50
 3306 0545 93000000 		.4byte	.LVL24-1-.Ltext0
 3307 0549 9A000000 		.4byte	.LVL25-.Ltext0
 3308 054d 0100     		.2byte	0x1
 3309 054f 57       		.byte	0x57
 3310 0550 00000000 		.4byte	0
 3311 0554 00000000 		.4byte	0
 3312              	.LLST1:
 3313 0558 0C000000 		.4byte	.LVL2-.Ltext0
 3314 055c 0E000000 		.4byte	.LVL3-.Ltext0
 3315 0560 0100     		.2byte	0x1
 3316 0562 50       		.byte	0x50
 3317 0563 0E000000 		.4byte	.LVL3-.Ltext0
 3318 0567 14000000 		.4byte	.LFE13-.Ltext0
 3319 056b 0400     		.2byte	0x4
 3320 056d F3       		.byte	0xf3
 3321 056e 01       		.uleb128 0x1
 3322 056f 50       		.byte	0x50
 3323 0570 9F       		.byte	0x9f
 3324 0571 00000000 		.4byte	0
 3325 0575 00000000 		.4byte	0
 3326              	.LLST0:
 3327 0579 00000000 		.4byte	.LVL0-.Ltext0
 3328 057d 06000000 		.4byte	.LVL1-.Ltext0
 3329 0581 0100     		.2byte	0x1
 3330 0583 50       		.byte	0x50
 3331 0584 06000000 		.4byte	.LVL1-.Ltext0
 3332 0588 0C000000 		.4byte	.LFE12-.Ltext0
 3333 058c 0400     		.2byte	0x4
ARM GAS  G:\Users\Jaxb\AppData\Local\Temp\ccqu2fCZ.s 			page 66


 3334 058e F3       		.byte	0xf3
 3335 058f 01       		.uleb128 0x1
 3336 0590 50       		.byte	0x50
 3337 0591 9F       		.byte	0x9f
 3338 0592 00000000 		.4byte	0
 3339 0596 00000000 		.4byte	0
 3340              		.section	.debug_aranges,"",%progbits
 3341 0000 1C000000 		.4byte	0x1c
 3342 0004 0200     		.2byte	0x2
 3343 0006 00000000 		.4byte	.Ldebug_info0
 3344 000a 04       		.byte	0x4
 3345 000b 00       		.byte	0
 3346 000c 0000     		.2byte	0
 3347 000e 0000     		.2byte	0
 3348 0010 00000000 		.4byte	.Ltext0
 3349 0014 B4020000 		.4byte	.Letext0-.Ltext0
 3350 0018 00000000 		.4byte	0
 3351 001c 00000000 		.4byte	0
 3352              		.section	.debug_ranges,"",%progbits
 3353              	.Ldebug_ranges0:
 3354 0000 56010000 		.4byte	.LBB2-.Ltext0
 3355 0004 6C010000 		.4byte	.LBE2-.Ltext0
 3356 0008 96010000 		.4byte	.LBB3-.Ltext0
 3357 000c AC010000 		.4byte	.LBE3-.Ltext0
 3358 0010 00000000 		.4byte	0
 3359 0014 00000000 		.4byte	0
 3360 0018 FA010000 		.4byte	.LBB4-.Ltext0
 3361 001c 2A020000 		.4byte	.LBE4-.Ltext0
 3362 0020 8A020000 		.4byte	.LBB5-.Ltext0
 3363 0024 B4020000 		.4byte	.LBE5-.Ltext0
 3364 0028 00000000 		.4byte	0
 3365 002c 00000000 		.4byte	0
 3366              		.section	.debug_line,"",%progbits
 3367              	.Ldebug_line0:
 3368 0000 CE020000 		.section	.debug_str,"MS",%progbits,1
 3368      02008F01 
 3368      00000201 
 3368      FB0E0D00 
 3368      01010101 
 3369              	.LASF23:
 3370 0000 5441534B 		.ascii	"TASK_PRIO_TYPE\000"
 3370      5F505249 
 3370      4F5F5459 
 3370      504500
 3371              	.LASF13:
 3372 000f 53544154 		.ascii	"STATE_SUSPEND_NORMAL\000"
 3372      455F5355 
 3372      5350454E 
 3372      445F4E4F 
 3372      524D414C 
 3373              	.LASF75:
 3374 0024 5F5F7274 		.ascii	"__rtmsym_clear_MCB_index_name\000"
 3374      6D73796D 
 3374      5F636C65 
 3374      61725F4D 
 3374      43425F69 
 3375              	.LASF24:
ARM GAS  G:\Users\Jaxb\AppData\Local\Temp\ccqu2fCZ.s 			page 67


 3376 0042 6C697374 		.ascii	"list_head\000"
 3376      5F686561 
 3376      6400
 3377              	.LASF77:
 3378 004c 4D43425F 		.ascii	"MCB_ptr\000"
 3378      70747200 
 3379              	.LASF82:
 3380 0054 74696D65 		.ascii	"time_record\000"
 3380      5F726563 
 3380      6F726400 
 3381              	.LASF70:
 3382 0060 5F5F7274 		.ascii	"__rtmsym_delete_MCB\000"
 3382      6D73796D 
 3382      5F64656C 
 3382      6574655F 
 3382      4D434200 
 3383              	.LASF47:
 3384 0074 64617461 		.ascii	"data_list_head\000"
 3384      5F6C6973 
 3384      745F6865 
 3384      616400
 3385              	.LASF1:
 3386 0083 73686F72 		.ascii	"short int\000"
 3386      7420696E 
 3386      7400
 3387              	.LASF89:
 3388 008d 4350555F 		.ascii	"CPU_SR_Restore\000"
 3388      53525F52 
 3388      6573746F 
 3388      726500
 3389              	.LASF44:
 3390 009c 6964656E 		.ascii	"identify_data\000"
 3390      74696679 
 3390      5F646174 
 3390      6100
 3391              	.LASF45:
 3392 00aa 64617461 		.ascii	"data_list\000"
 3392      5F6C6973 
 3392      7400
 3393              	.LASF16:
 3394 00b4 53544154 		.ascii	"STATE_WAIT_MESSAGE_QUEUE_FOREVER\000"
 3394      455F5741 
 3394      49545F4D 
 3394      45535341 
 3394      47455F51 
 3395              	.LASF6:
 3396 00d5 55494E54 		.ascii	"UINT32\000"
 3396      333200
 3397              	.LASF93:
 3398 00dc 72656D6F 		.ascii	"remove_from_suspend_list\000"
 3398      76655F66 
 3398      726F6D5F 
 3398      73757370 
 3398      656E645F 
 3399              	.LASF22:
 3400 00f5 53544143 		.ascii	"STACK_TYPE\000"
 3400      4B5F5459 
ARM GAS  G:\Users\Jaxb\AppData\Local\Temp\ccqu2fCZ.s 			page 68


 3400      504500
 3401              	.LASF52:
 3402 0100 5461736B 		.ascii	"Task_State\000"
 3402      5F537461 
 3402      746500
 3403              	.LASF18:
 3404 010b 53544154 		.ascii	"STATE_PUT_MESSAGE_QUEUE_FOREVER\000"
 3404      455F5055 
 3404      545F4D45 
 3404      53534147 
 3404      455F5155 
 3405              	.LASF97:
 3406 012b 7379735F 		.ascii	"sys_delay\000"
 3406      64656C61 
 3406      7900
 3407              	.LASF76:
 3408 0135 5F5F7274 		.ascii	"__rtmsym_clear_MCB_index\000"
 3408      6D73796D 
 3408      5F636C65 
 3408      61725F4D 
 3408      43425F69 
 3409              	.LASF55:
 3410 014e 4D43425F 		.ascii	"MCB_FLAG_NON_BLOCKING\000"
 3410      464C4147 
 3410      5F4E4F4E 
 3410      5F424C4F 
 3410      434B494E 
 3411              	.LASF96:
 3412 0164 6765745F 		.ascii	"get_tick\000"
 3412      7469636B 
 3412      00
 3413              	.LASF63:
 3414 016d 6B615F6D 		.ascii	"ka_module_symtab\000"
 3414      6F64756C 
 3414      655F7379 
 3414      6D746162 
 3414      00
 3415              	.LASF102:
 3416 017e 696E6974 		.ascii	"init_insert_sort_entity\000"
 3416      5F696E73 
 3416      6572745F 
 3416      736F7274 
 3416      5F656E74 
 3417              	.LASF98:
 3418 0196 696E7365 		.ascii	"insert_sort_delete_data\000"
 3418      72745F73 
 3418      6F72745F 
 3418      64656C65 
 3418      74655F64 
 3419              	.LASF28:
 3420 01ae 73746163 		.ascii	"stack_end\000"
 3420      6B5F656E 
 3420      6400
 3421              	.LASF15:
 3422 01b8 53544154 		.ascii	"STATE_WAIT_MCB_TIMEOUT\000"
 3422      455F5741 
 3422      49545F4D 
ARM GAS  G:\Users\Jaxb\AppData\Local\Temp\ccqu2fCZ.s 			page 69


 3422      43425F54 
 3422      494D454F 
 3423              	.LASF85:
 3424 01cf 696E6974 		.ascii	"init_MCB\000"
 3424      5F4D4342 
 3424      00
 3425              	.LASF17:
 3426 01d8 53544154 		.ascii	"STATE_WAIT_MESSAGE_QUEUE_TIMEOUT\000"
 3426      455F5741 
 3426      49545F4D 
 3426      45535341 
 3426      47455F51 
 3427              	.LASF105:
 3428 01f9 463A5C6B 		.ascii	"F:\\kaka\\KAKAOS\\C\\windows\\Project\\RVMDK\243\250"
 3428      616B615C 
 3428      4B414B41 
 3428      4F535C43 
 3428      5C77696E 
 3429 0221 757635A3 		.ascii	"uv5\243\251\000"
 3429      A900
 3430              	.LASF2:
 3431 0227 6C6F6E67 		.ascii	"long long int\000"
 3431      206C6F6E 
 3431      6720696E 
 3431      7400
 3432              	.LASF36:
 3433 0235 74696D65 		.ascii	"timeslice_hope_time\000"
 3433      736C6963 
 3433      655F686F 
 3433      70655F74 
 3433      696D6500 
 3434              	.LASF60:
 3435 0249 666C6167 		.ascii	"flag\000"
 3435      00
 3436              	.LASF42:
 3437 024e 696E7365 		.ascii	"insert_sort_data\000"
 3437      72745F73 
 3437      6F72745F 
 3437      64617461 
 3437      00
 3438              	.LASF50:
 3439 025f 6765745F 		.ascii	"get_data_ptr\000"
 3439      64617461 
 3439      5F707472 
 3439      00
 3440              	.LASF106:
 3441 026c 636C6561 		.ascii	"clear_MCB_index\000"
 3441      725F4D43 
 3441      425F696E 
 3441      64657800 
 3442              	.LASF64:
 3443 027c 61646472 		.ascii	"addr\000"
 3443      00
 3444              	.LASF74:
 3445 0281 5F5F7274 		.ascii	"__rtmsym_v\000"
 3445      6D73796D 
 3445      5F7600
ARM GAS  G:\Users\Jaxb\AppData\Local\Temp\ccqu2fCZ.s 			page 70


 3446              	.LASF95:
 3447 028c 6B615F70 		.ascii	"ka_printf\000"
 3447      72696E74 
 3447      6600
 3448              	.LASF83:
 3449 0296 64656C65 		.ascii	"delete_MCB\000"
 3449      74655F4D 
 3449      434200
 3450              	.LASF21:
 3451 02a1 5441534B 		.ascii	"TASK_STATE\000"
 3451      5F535441 
 3451      544500
 3452              	.LASF101:
 3453 02ac 7379735F 		.ascii	"sys_suspend\000"
 3453      73757370 
 3453      656E6400 
 3454              	.LASF35:
 3455 02b8 6E616D65 		.ascii	"name\000"
 3455      00
 3456              	.LASF66:
 3457 02bd 4F535443 		.ascii	"OSTCBCurPtr\000"
 3457      42437572 
 3457      50747200 
 3458              	.LASF48:
 3459 02c9 64617461 		.ascii	"data_num\000"
 3459      5F6E756D 
 3459      00
 3460              	.LASF90:
 3461 02d2 5F415353 		.ascii	"_ASSERT\000"
 3461      45525400 
 3462              	.LASF88:
 3463 02da 4350555F 		.ascii	"CPU_SR_Save\000"
 3463      53525F53 
 3463      61766500 
 3464              	.LASF3:
 3465 02e6 756E7369 		.ascii	"unsigned char\000"
 3465      676E6564 
 3465      20636861 
 3465      7200
 3466              	.LASF58:
 3467 02f4 4D43425F 		.ascii	"MCB_insert_sort_list\000"
 3467      696E7365 
 3467      72745F73 
 3467      6F72745F 
 3467      6C697374 
 3468              	.LASF12:
 3469 0309 53544154 		.ascii	"STATE_DELAY\000"
 3469      455F4445 
 3469      4C415900 
 3470              	.LASF38:
 3471 0315 61747472 		.ascii	"attribution\000"
 3471      69627574 
 3471      696F6E00 
 3472              	.LASF84:
 3473 0321 696E7365 		.ascii	"insert_sort_data_ptr\000"
 3473      72745F73 
 3473      6F72745F 
ARM GAS  G:\Users\Jaxb\AppData\Local\Temp\ccqu2fCZ.s 			page 71


 3473      64617461 
 3473      5F707472 
 3474              	.LASF0:
 3475 0336 7369676E 		.ascii	"signed char\000"
 3475      65642063 
 3475      68617200 
 3476              	.LASF8:
 3477 0342 6C6F6E67 		.ascii	"long long unsigned int\000"
 3477      206C6F6E 
 3477      6720756E 
 3477      7369676E 
 3477      65642069 
 3478              	.LASF94:
 3479 0359 72656D6F 		.ascii	"remove_from_delay_heap\000"
 3479      76655F66 
 3479      726F6D5F 
 3479      64656C61 
 3479      795F6865 
 3480              	.LASF69:
 3481 0370 5F5F7274 		.ascii	"__rtmsym_delete_MCB_name\000"
 3481      6D73796D 
 3481      5F64656C 
 3481      6574655F 
 3481      4D43425F 
 3482              	.LASF72:
 3483 0389 5F5F7274 		.ascii	"__rtmsym_p\000"
 3483      6D73796D 
 3483      5F7000
 3484              	.LASF5:
 3485 0394 756E7369 		.ascii	"unsigned int\000"
 3485      676E6564 
 3485      20696E74 
 3485      00
 3486              	.LASF92:
 3487 03a1 73636865 		.ascii	"schedule\000"
 3487      64756C65 
 3487      00
 3488              	.LASF26:
 3489 03aa 73746163 		.ascii	"stack\000"
 3489      6B00
 3490              	.LASF53:
 3491 03b0 4D43425F 		.ascii	"MCB_WAIT_FLAG\000"
 3491      57414954 
 3491      5F464C41 
 3491      4700
 3492              	.LASF33:
 3493 03be 73616D65 		.ascii	"same_prio_list\000"
 3493      5F707269 
 3493      6F5F6C69 
 3493      737400
 3494              	.LASF80:
 3495 03cd 74696D65 		.ascii	"time\000"
 3495      00
 3496              	.LASF51:
 3497 03d2 76616C75 		.ascii	"value_cmp\000"
 3497      655F636D 
 3497      7000
ARM GAS  G:\Users\Jaxb\AppData\Local\Temp\ccqu2fCZ.s 			page 72


 3498              	.LASF4:
 3499 03dc 73686F72 		.ascii	"short unsigned int\000"
 3499      7420756E 
 3499      7369676E 
 3499      65642069 
 3499      6E7400
 3500              	.LASF11:
 3501 03ef 53544154 		.ascii	"STATE_READY\000"
 3501      455F5245 
 3501      41445900 
 3502              	.LASF68:
 3503 03fb 5F5F7274 		.ascii	"__rtmsym_init_MCB\000"
 3503      6D73796D 
 3503      5F696E69 
 3503      745F4D43 
 3503      4200
 3504              	.LASF40:
 3505 040d 63686172 		.ascii	"char\000"
 3505      00
 3506              	.LASF56:
 3507 0412 4D43425F 		.ascii	"MCB_FLAG_BINARY\000"
 3507      464C4147 
 3507      5F42494E 
 3507      41525900 
 3508              	.LASF19:
 3509 0422 53544154 		.ascii	"STATE_PUT_MESSAGE_QUEUE_TIMEOUT\000"
 3509      455F5055 
 3509      545F4D45 
 3509      53534147 
 3509      455F5155 
 3510              	.LASF61:
 3511 0442 4350555F 		.ascii	"CPU_INT32U\000"
 3511      494E5433 
 3511      325500
 3512              	.LASF57:
 3513 044d 6D657373 		.ascii	"message_struct\000"
 3513      6167655F 
 3513      73747275 
 3513      637400
 3514              	.LASF81:
 3515 045c 64617461 		.ascii	"data\000"
 3515      00
 3516              	.LASF67:
 3517 0461 5F5F7274 		.ascii	"__rtmsym_init_MCB_name\000"
 3517      6D73796D 
 3517      5F696E69 
 3517      745F4D43 
 3517      425F6E61 
 3518              	.LASF41:
 3519 0478 69645F74 		.ascii	"id_type\000"
 3519      79706500 
 3520              	.LASF104:
 3521 0480 2E2E2F2E 		.ascii	"../../source/src/kernel/OS_CORE/MCB.c\000"
 3521      2E2F736F 
 3521      75726365 
 3521      2F737263 
 3521      2F6B6572 
ARM GAS  G:\Users\Jaxb\AppData\Local\Temp\ccqu2fCZ.s 			page 73


 3522              	.LASF32:
 3523 04a6 64656C61 		.ascii	"delay_heap_position\000"
 3523      795F6865 
 3523      61705F70 
 3523      6F736974 
 3523      696F6E00 
 3524              	.LASF31:
 3525 04ba 7461736B 		.ascii	"task_state\000"
 3525      5F737461 
 3525      746500
 3526              	.LASF100:
 3527 04c5 696E7365 		.ascii	"insert_sort_insert_into\000"
 3527      72745F73 
 3527      6F72745F 
 3527      696E7365 
 3527      72745F69 
 3528              	.LASF91:
 3529 04dd 696E7365 		.ascii	"insert_sort_delete_head\000"
 3529      72745F73 
 3529      6F72745F 
 3529      64656C65 
 3529      74655F68 
 3530              	.LASF37:
 3531 04f5 74696D65 		.ascii	"timeslice_rest_time\000"
 3531      736C6963 
 3531      655F7265 
 3531      73745F74 
 3531      696D6500 
 3532              	.LASF73:
 3533 0509 5F5F7274 		.ascii	"__rtmsym_v_name\000"
 3533      6D73796D 
 3533      5F765F6E 
 3533      616D6500 
 3534              	.LASF86:
 3535 0519 64617461 		.ascii	"data1\000"
 3535      3100
 3536              	.LASF46:
 3537 051f 696E7365 		.ascii	"insert_sort_entity\000"
 3537      72745F73 
 3537      6F72745F 
 3537      656E7469 
 3537      747900
 3538              	.LASF14:
 3539 0532 53544154 		.ascii	"STATE_WAIT_MCB_FOREVER\000"
 3539      455F5741 
 3539      49545F4D 
 3539      43425F46 
 3539      4F524556 
 3540              	.LASF49:
 3541 0549 636F6D70 		.ascii	"compare\000"
 3541      61726500 
 3542              	.LASF25:
 3543 0551 7461736B 		.ascii	"task_control_block_struct\000"
 3543      5F636F6E 
 3543      74726F6C 
 3543      5F626C6F 
 3543      636B5F73 
ARM GAS  G:\Users\Jaxb\AppData\Local\Temp\ccqu2fCZ.s 			page 74


 3544              	.LASF27:
 3545 056b 73746163 		.ascii	"stack_size\000"
 3545      6B5F7369 
 3545      7A6500
 3546              	.LASF54:
 3547 0576 4D43425F 		.ascii	"MCB_FLAG_WAIT\000"
 3547      464C4147 
 3547      5F574149 
 3547      5400
 3548              	.LASF79:
 3549 0584 5443425F 		.ascii	"TCB_ptr\000"
 3549      70747200 
 3550              	.LASF30:
 3551 058c 72657365 		.ascii	"reserve_prio\000"
 3551      7276655F 
 3551      7072696F 
 3551      00
 3552              	.LASF71:
 3553 0599 5F5F7274 		.ascii	"__rtmsym_p_name\000"
 3553      6D73796D 
 3553      5F705F6E 
 3553      616D6500 
 3554              	.LASF34:
 3555 05a9 73757370 		.ascii	"suspend_list\000"
 3555      656E645F 
 3555      6C697374 
 3555      00
 3556              	.LASF65:
 3557 05b6 675F696E 		.ascii	"g_interrupt_count\000"
 3557      74657272 
 3557      7570745F 
 3557      636F756E 
 3557      7400
 3558              	.LASF78:
 3559 05c8 6370755F 		.ascii	"cpu_sr\000"
 3559      737200
 3560              	.LASF103:
 3561 05cf 474E5520 		.ascii	"GNU C11 7.3.1 20180622 (release) [ARM/embedded-7-br"
 3561      43313120 
 3561      372E332E 
 3561      31203230 
 3561      31383036 
 3562 0602 616E6368 		.ascii	"anch revision 261907] -mcpu=cortex-m3 -mthumb -mapc"
 3562      20726576 
 3562      6973696F 
 3562      6E203236 
 3562      31393037 
 3563 0635 732D6672 		.ascii	"s-frame -mthumb-interwork -mcpu=cortex-m3 -mthumb -"
 3563      616D6520 
 3563      2D6D7468 
 3563      756D622D 
 3563      696E7465 
 3564 0668 67647761 		.ascii	"gdwarf-2 -O2\000"
 3564      72662D32 
 3564      202D4F32 
 3564      00
 3565              	.LASF20:
ARM GAS  G:\Users\Jaxb\AppData\Local\Temp\ccqu2fCZ.s 			page 75


 3566 0675 53544154 		.ascii	"STATE_WAIT_MUTEX_FOREVER\000"
 3566      455F5741 
 3566      49545F4D 
 3566      55544558 
 3566      5F464F52 
 3567              	.LASF87:
 3568 068e 64617461 		.ascii	"data2\000"
 3568      3200
 3569              	.LASF10:
 3570 0694 70726576 		.ascii	"prev\000"
 3570      00
 3571              	.LASF62:
 3572 0699 4350555F 		.ascii	"CPU_SR\000"
 3572      535200
 3573              	.LASF39:
 3574 06a0 64656C61 		.ascii	"delay_reach_time\000"
 3574      795F7265 
 3574      6163685F 
 3574      74696D65 
 3574      00
 3575              	.LASF99:
 3576 06b1 696E6974 		.ascii	"init_insert_sort_data\000"
 3576      5F696E73 
 3576      6572745F 
 3576      736F7274 
 3576      5F646174 
 3577              	.LASF59:
 3578 06c7 7265736F 		.ascii	"resource_num\000"
 3578      75726365 
 3578      5F6E756D 
 3578      00
 3579              	.LASF7:
 3580 06d4 55494E54 		.ascii	"UINT64\000"
 3580      363400
 3581              	.LASF29:
 3582 06db 7072696F 		.ascii	"prio\000"
 3582      00
 3583              	.LASF43:
 3584 06e0 64617461 		.ascii	"data_ptr\000"
 3584      5F707472 
 3584      00
 3585              	.LASF9:
 3586 06e9 6E657874 		.ascii	"next\000"
 3586      00
 3587              		.ident	"GCC: (GNU Tools for Arm Embedded Processors 7-2018-q2-update) 7.3.1 20180622 (release) [AR
ARM GAS  G:\Users\Jaxb\AppData\Local\Temp\ccqu2fCZ.s 			page 76


DEFINED SYMBOLS
                            *ABS*:00000000 MCB.c
G:\Users\Jaxb\AppData\Local\Temp\ccqu2fCZ.s:15     .text:00000000 $t
G:\Users\Jaxb\AppData\Local\Temp\ccqu2fCZ.s:22     .text:00000000 compare
G:\Users\Jaxb\AppData\Local\Temp\ccqu2fCZ.s:50     .text:0000000c value_cmp
G:\Users\Jaxb\AppData\Local\Temp\ccqu2fCZ.s:76     .text:00000014 clear_MCB_index
G:\Users\Jaxb\AppData\Local\Temp\ccqu2fCZ.s:127    .text:0000003c $d
G:\Users\Jaxb\AppData\Local\Temp\ccqu2fCZ.s:131    .text:00000040 $t
G:\Users\Jaxb\AppData\Local\Temp\ccqu2fCZ.s:139    .text:00000040 init_MCB
G:\Users\Jaxb\AppData\Local\Temp\ccqu2fCZ.s:235    .text:0000009c $d
G:\Users\Jaxb\AppData\Local\Temp\ccqu2fCZ.s:243    .text:000000b0 $t
G:\Users\Jaxb\AppData\Local\Temp\ccqu2fCZ.s:251    .text:000000b0 delete_MCB
G:\Users\Jaxb\AppData\Local\Temp\ccqu2fCZ.s:362    .text:0000011c $d
G:\Users\Jaxb\AppData\Local\Temp\ccqu2fCZ.s:367    .text:00000124 $t
G:\Users\Jaxb\AppData\Local\Temp\ccqu2fCZ.s:375    .text:00000124 v
G:\Users\Jaxb\AppData\Local\Temp\ccqu2fCZ.s:504    .text:000001a4 $d
G:\Users\Jaxb\AppData\Local\Temp\ccqu2fCZ.s:510    .text:000001ac $t
G:\Users\Jaxb\AppData\Local\Temp\ccqu2fCZ.s:518    .text:000001ac p
G:\Users\Jaxb\AppData\Local\Temp\ccqu2fCZ.s:742    .text:000002a4 $d
G:\Users\Jaxb\AppData\Local\Temp\ccqu2fCZ.s:764    .RTMSymTab:00000000 __rtmsym_clear_MCB_index
G:\Users\Jaxb\AppData\Local\Temp\ccqu2fCZ.s:791    .rodata.name:00000000 __rtmsym_clear_MCB_index_name
G:\Users\Jaxb\AppData\Local\Temp\ccqu2fCZ.s:769    .RTMSymTab:00000008 __rtmsym_v
G:\Users\Jaxb\AppData\Local\Temp\ccqu2fCZ.s:795    .rodata.name:00000010 __rtmsym_v_name
G:\Users\Jaxb\AppData\Local\Temp\ccqu2fCZ.s:774    .RTMSymTab:00000010 __rtmsym_p
G:\Users\Jaxb\AppData\Local\Temp\ccqu2fCZ.s:800    .rodata.name:00000014 __rtmsym_p_name
G:\Users\Jaxb\AppData\Local\Temp\ccqu2fCZ.s:779    .RTMSymTab:00000018 __rtmsym_delete_MCB
G:\Users\Jaxb\AppData\Local\Temp\ccqu2fCZ.s:805    .rodata.name:00000018 __rtmsym_delete_MCB_name
G:\Users\Jaxb\AppData\Local\Temp\ccqu2fCZ.s:784    .RTMSymTab:00000020 __rtmsym_init_MCB
G:\Users\Jaxb\AppData\Local\Temp\ccqu2fCZ.s:810    .rodata.name:00000024 __rtmsym_init_MCB_name
G:\Users\Jaxb\AppData\Local\Temp\ccqu2fCZ.s:761    .RTMSymTab:00000000 $d
G:\Users\Jaxb\AppData\Local\Temp\ccqu2fCZ.s:788    .rodata.name:00000000 $d
G:\Users\Jaxb\AppData\Local\Temp\ccqu2fCZ.s:813    .rodata.str1.4:00000000 $d

UNDEFINED SYMBOLS
CPU_SR_Save
CPU_SR_Restore
_ASSERT
init_insert_sort_entity
ka_printf
g_interrupt_count
insert_sort_delete_head
remove_from_delay_heap
remove_from_suspend_list
schedule
init_insert_sort_data
insert_sort_insert_into
get_tick
sys_delay
sys_suspend
insert_sort_delete_data
OSTCBCurPtr
