ARM GAS  G:\Users\Jaxb\AppData\Local\Temp\cchAS7Ki.s 			page 1


   1              		.cpu cortex-m3
   2              		.eabi_attribute 20, 1
   3              		.eabi_attribute 21, 1
   4              		.eabi_attribute 23, 3
   5              		.eabi_attribute 24, 1
   6              		.eabi_attribute 25, 1
   7              		.eabi_attribute 26, 1
   8              		.eabi_attribute 30, 6
   9              		.eabi_attribute 34, 1
  10              		.eabi_attribute 18, 4
  11              		.file	"message_queue.c"
  12              		.text
  13              	.Ltext0:
  14              		.cfi_sections	.debug_frame
  15              		.align	1
  16              		.syntax unified
  17              		.thumb
  18              		.thumb_func
  19              		.fpu softvfp
  20              		.type	INIT_LIST_HEAD, %function
  21              	INIT_LIST_HEAD:
  22              	.LFB0:
  23              		.file 1 "../../source/include/os_lib/double_linked_list.h"
   1:../../source/include/os_lib/double_linked_list.h **** #ifndef _DOUBLE_LINKED_LIST_H
   2:../../source/include/os_lib/double_linked_list.h **** #define _DOUBLE_LINKED_LIST_H
   3:../../source/include/os_lib/double_linked_list.h **** 
   4:../../source/include/os_lib/double_linked_list.h **** struct list_head {
   5:../../source/include/os_lib/double_linked_list.h ****     struct list_head *next, *prev;
   6:../../source/include/os_lib/double_linked_list.h **** };
   7:../../source/include/os_lib/double_linked_list.h **** 
   8:../../source/include/os_lib/double_linked_list.h **** 
   9:../../source/include/os_lib/double_linked_list.h **** #define LIST_HEAD_INIT(name) { &(name), &(name) }
  10:../../source/include/os_lib/double_linked_list.h **** 
  11:../../source/include/os_lib/double_linked_list.h **** 
  12:../../source/include/os_lib/double_linked_list.h **** #define LIST_HEAD(name) \
  13:../../source/include/os_lib/double_linked_list.h ****     struct list_head name = LIST_HEAD_INIT(name)
  14:../../source/include/os_lib/double_linked_list.h **** 
  15:../../source/include/os_lib/double_linked_list.h **** 
  16:../../source/include/os_lib/double_linked_list.h **** static inline void INIT_LIST_HEAD(struct list_head *list)
  17:../../source/include/os_lib/double_linked_list.h **** {
  24              		.loc 1 17 0
  25              		.cfi_startproc
  26              		@ args = 0, pretend = 0, frame = 8
  27              		@ frame_needed = 1, uses_anonymous_args = 0
  28              		@ link register save eliminated.
  29 0000 80B4     		push	{r7}
  30              	.LCFI0:
  31              		.cfi_def_cfa_offset 4
  32              		.cfi_offset 7, -4
  33 0002 83B0     		sub	sp, sp, #12
  34              	.LCFI1:
  35              		.cfi_def_cfa_offset 16
  36 0004 00AF     		add	r7, sp, #0
  37              	.LCFI2:
  38              		.cfi_def_cfa_register 7
  39 0006 7860     		str	r0, [r7, #4]
  18:../../source/include/os_lib/double_linked_list.h ****     list->next = list;
ARM GAS  G:\Users\Jaxb\AppData\Local\Temp\cchAS7Ki.s 			page 2


  40              		.loc 1 18 0
  41 0008 7B68     		ldr	r3, [r7, #4]
  42 000a 7A68     		ldr	r2, [r7, #4]
  43 000c 1A60     		str	r2, [r3]
  19:../../source/include/os_lib/double_linked_list.h ****     list->prev = list;
  44              		.loc 1 19 0
  45 000e 7B68     		ldr	r3, [r7, #4]
  46 0010 7A68     		ldr	r2, [r7, #4]
  47 0012 5A60     		str	r2, [r3, #4]
  20:../../source/include/os_lib/double_linked_list.h **** }
  48              		.loc 1 20 0
  49 0014 00BF     		nop
  50 0016 0C37     		adds	r7, r7, #12
  51              	.LCFI3:
  52              		.cfi_def_cfa_offset 4
  53 0018 BD46     		mov	sp, r7
  54              	.LCFI4:
  55              		.cfi_def_cfa_register 13
  56              		@ sp needed
  57 001a 80BC     		pop	{r7}
  58              	.LCFI5:
  59              		.cfi_restore 7
  60              		.cfi_def_cfa_offset 0
  61 001c 7047     		bx	lr
  62              		.cfi_endproc
  63              	.LFE0:
  64              		.size	INIT_LIST_HEAD, .-INIT_LIST_HEAD
  65              		.align	1
  66              		.syntax unified
  67              		.thumb
  68              		.thumb_func
  69              		.fpu softvfp
  70              		.type	__list_add, %function
  71              	__list_add:
  72              	.LFB1:
  21:../../source/include/os_lib/double_linked_list.h **** 
  22:../../source/include/os_lib/double_linked_list.h **** 
  23:../../source/include/os_lib/double_linked_list.h **** static inline void __list_add(struct list_head *new,
  24:../../source/include/os_lib/double_linked_list.h ****                   struct list_head *prev,
  25:../../source/include/os_lib/double_linked_list.h ****                   struct list_head *next)
  26:../../source/include/os_lib/double_linked_list.h **** {
  73              		.loc 1 26 0
  74              		.cfi_startproc
  75              		@ args = 0, pretend = 0, frame = 16
  76              		@ frame_needed = 1, uses_anonymous_args = 0
  77              		@ link register save eliminated.
  78 001e 80B4     		push	{r7}
  79              	.LCFI6:
  80              		.cfi_def_cfa_offset 4
  81              		.cfi_offset 7, -4
  82 0020 85B0     		sub	sp, sp, #20
  83              	.LCFI7:
  84              		.cfi_def_cfa_offset 24
  85 0022 00AF     		add	r7, sp, #0
  86              	.LCFI8:
  87              		.cfi_def_cfa_register 7
  88 0024 F860     		str	r0, [r7, #12]
ARM GAS  G:\Users\Jaxb\AppData\Local\Temp\cchAS7Ki.s 			page 3


  89 0026 B960     		str	r1, [r7, #8]
  90 0028 7A60     		str	r2, [r7, #4]
  27:../../source/include/os_lib/double_linked_list.h ****     next->prev = new;
  91              		.loc 1 27 0
  92 002a 7B68     		ldr	r3, [r7, #4]
  93 002c FA68     		ldr	r2, [r7, #12]
  94 002e 5A60     		str	r2, [r3, #4]
  28:../../source/include/os_lib/double_linked_list.h ****     new->next = next;
  95              		.loc 1 28 0
  96 0030 FB68     		ldr	r3, [r7, #12]
  97 0032 7A68     		ldr	r2, [r7, #4]
  98 0034 1A60     		str	r2, [r3]
  29:../../source/include/os_lib/double_linked_list.h ****     new->prev = prev;
  99              		.loc 1 29 0
 100 0036 FB68     		ldr	r3, [r7, #12]
 101 0038 BA68     		ldr	r2, [r7, #8]
 102 003a 5A60     		str	r2, [r3, #4]
  30:../../source/include/os_lib/double_linked_list.h ****     prev->next = new;
 103              		.loc 1 30 0
 104 003c BB68     		ldr	r3, [r7, #8]
 105 003e FA68     		ldr	r2, [r7, #12]
 106 0040 1A60     		str	r2, [r3]
  31:../../source/include/os_lib/double_linked_list.h **** }
 107              		.loc 1 31 0
 108 0042 00BF     		nop
 109 0044 1437     		adds	r7, r7, #20
 110              	.LCFI9:
 111              		.cfi_def_cfa_offset 4
 112 0046 BD46     		mov	sp, r7
 113              	.LCFI10:
 114              		.cfi_def_cfa_register 13
 115              		@ sp needed
 116 0048 80BC     		pop	{r7}
 117              	.LCFI11:
 118              		.cfi_restore 7
 119              		.cfi_def_cfa_offset 0
 120 004a 7047     		bx	lr
 121              		.cfi_endproc
 122              	.LFE1:
 123              		.size	__list_add, .-__list_add
 124              		.align	1
 125              		.syntax unified
 126              		.thumb
 127              		.thumb_func
 128              		.fpu softvfp
 129              		.type	list_add_tail, %function
 130              	list_add_tail:
 131              	.LFB3:
  32:../../source/include/os_lib/double_linked_list.h **** 
  33:../../source/include/os_lib/double_linked_list.h **** 
  34:../../source/include/os_lib/double_linked_list.h **** static inline void list_add(struct list_head *new, struct list_head *head)
  35:../../source/include/os_lib/double_linked_list.h **** {
  36:../../source/include/os_lib/double_linked_list.h ****     __list_add(new, head, head->next);
  37:../../source/include/os_lib/double_linked_list.h **** }
  38:../../source/include/os_lib/double_linked_list.h **** 
  39:../../source/include/os_lib/double_linked_list.h **** 
  40:../../source/include/os_lib/double_linked_list.h **** static inline void list_add_tail(struct list_head *new, struct list_head *head)
ARM GAS  G:\Users\Jaxb\AppData\Local\Temp\cchAS7Ki.s 			page 4


  41:../../source/include/os_lib/double_linked_list.h **** {
 132              		.loc 1 41 0
 133              		.cfi_startproc
 134              		@ args = 0, pretend = 0, frame = 8
 135              		@ frame_needed = 1, uses_anonymous_args = 0
 136 004c 80B5     		push	{r7, lr}
 137              	.LCFI12:
 138              		.cfi_def_cfa_offset 8
 139              		.cfi_offset 7, -8
 140              		.cfi_offset 14, -4
 141 004e 82B0     		sub	sp, sp, #8
 142              	.LCFI13:
 143              		.cfi_def_cfa_offset 16
 144 0050 00AF     		add	r7, sp, #0
 145              	.LCFI14:
 146              		.cfi_def_cfa_register 7
 147 0052 7860     		str	r0, [r7, #4]
 148 0054 3960     		str	r1, [r7]
  42:../../source/include/os_lib/double_linked_list.h ****     __list_add(new, head->prev, head);
 149              		.loc 1 42 0
 150 0056 3B68     		ldr	r3, [r7]
 151 0058 5B68     		ldr	r3, [r3, #4]
 152 005a 3A68     		ldr	r2, [r7]
 153 005c 1946     		mov	r1, r3
 154 005e 7868     		ldr	r0, [r7, #4]
 155 0060 FFF7DDFF 		bl	__list_add
  43:../../source/include/os_lib/double_linked_list.h **** }
 156              		.loc 1 43 0
 157 0064 00BF     		nop
 158 0066 0837     		adds	r7, r7, #8
 159              	.LCFI15:
 160              		.cfi_def_cfa_offset 8
 161 0068 BD46     		mov	sp, r7
 162              	.LCFI16:
 163              		.cfi_def_cfa_register 13
 164              		@ sp needed
 165 006a 80BD     		pop	{r7, pc}
 166              		.cfi_endproc
 167              	.LFE3:
 168              		.size	list_add_tail, .-list_add_tail
 169              		.align	1
 170              		.syntax unified
 171              		.thumb
 172              		.thumb_func
 173              		.fpu softvfp
 174              		.type	__list_del, %function
 175              	__list_del:
 176              	.LFB4:
  44:../../source/include/os_lib/double_linked_list.h **** 
  45:../../source/include/os_lib/double_linked_list.h **** 
  46:../../source/include/os_lib/double_linked_list.h **** static inline void __list_del(struct list_head * prev, struct list_head * next)
  47:../../source/include/os_lib/double_linked_list.h **** {
 177              		.loc 1 47 0
 178              		.cfi_startproc
 179              		@ args = 0, pretend = 0, frame = 8
 180              		@ frame_needed = 1, uses_anonymous_args = 0
 181              		@ link register save eliminated.
ARM GAS  G:\Users\Jaxb\AppData\Local\Temp\cchAS7Ki.s 			page 5


 182 006c 80B4     		push	{r7}
 183              	.LCFI17:
 184              		.cfi_def_cfa_offset 4
 185              		.cfi_offset 7, -4
 186 006e 83B0     		sub	sp, sp, #12
 187              	.LCFI18:
 188              		.cfi_def_cfa_offset 16
 189 0070 00AF     		add	r7, sp, #0
 190              	.LCFI19:
 191              		.cfi_def_cfa_register 7
 192 0072 7860     		str	r0, [r7, #4]
 193 0074 3960     		str	r1, [r7]
  48:../../source/include/os_lib/double_linked_list.h ****     next->prev = prev;
 194              		.loc 1 48 0
 195 0076 3B68     		ldr	r3, [r7]
 196 0078 7A68     		ldr	r2, [r7, #4]
 197 007a 5A60     		str	r2, [r3, #4]
  49:../../source/include/os_lib/double_linked_list.h ****     prev->next = next;
 198              		.loc 1 49 0
 199 007c 7B68     		ldr	r3, [r7, #4]
 200 007e 3A68     		ldr	r2, [r7]
 201 0080 1A60     		str	r2, [r3]
  50:../../source/include/os_lib/double_linked_list.h **** }
 202              		.loc 1 50 0
 203 0082 00BF     		nop
 204 0084 0C37     		adds	r7, r7, #12
 205              	.LCFI20:
 206              		.cfi_def_cfa_offset 4
 207 0086 BD46     		mov	sp, r7
 208              	.LCFI21:
 209              		.cfi_def_cfa_register 13
 210              		@ sp needed
 211 0088 80BC     		pop	{r7}
 212              	.LCFI22:
 213              		.cfi_restore 7
 214              		.cfi_def_cfa_offset 0
 215 008a 7047     		bx	lr
 216              		.cfi_endproc
 217              	.LFE4:
 218              		.size	__list_del, .-__list_del
 219              		.align	1
 220              		.syntax unified
 221              		.thumb
 222              		.thumb_func
 223              		.fpu softvfp
 224              		.type	list_del, %function
 225              	list_del:
 226              	.LFB5:
  51:../../source/include/os_lib/double_linked_list.h **** 
  52:../../source/include/os_lib/double_linked_list.h **** 
  53:../../source/include/os_lib/double_linked_list.h **** static inline void list_del(struct list_head *entry)
  54:../../source/include/os_lib/double_linked_list.h **** {
 227              		.loc 1 54 0
 228              		.cfi_startproc
 229              		@ args = 0, pretend = 0, frame = 8
 230              		@ frame_needed = 1, uses_anonymous_args = 0
 231 008c 80B5     		push	{r7, lr}
ARM GAS  G:\Users\Jaxb\AppData\Local\Temp\cchAS7Ki.s 			page 6


 232              	.LCFI23:
 233              		.cfi_def_cfa_offset 8
 234              		.cfi_offset 7, -8
 235              		.cfi_offset 14, -4
 236 008e 82B0     		sub	sp, sp, #8
 237              	.LCFI24:
 238              		.cfi_def_cfa_offset 16
 239 0090 00AF     		add	r7, sp, #0
 240              	.LCFI25:
 241              		.cfi_def_cfa_register 7
 242 0092 7860     		str	r0, [r7, #4]
  55:../../source/include/os_lib/double_linked_list.h ****     __list_del(entry->prev, entry->next);
 243              		.loc 1 55 0
 244 0094 7B68     		ldr	r3, [r7, #4]
 245 0096 5A68     		ldr	r2, [r3, #4]
 246 0098 7B68     		ldr	r3, [r7, #4]
 247 009a 1B68     		ldr	r3, [r3]
 248 009c 1946     		mov	r1, r3
 249 009e 1046     		mov	r0, r2
 250 00a0 FFF7E4FF 		bl	__list_del
  56:../../source/include/os_lib/double_linked_list.h **** }
 251              		.loc 1 56 0
 252 00a4 00BF     		nop
 253 00a6 0837     		adds	r7, r7, #8
 254              	.LCFI26:
 255              		.cfi_def_cfa_offset 8
 256 00a8 BD46     		mov	sp, r7
 257              	.LCFI27:
 258              		.cfi_def_cfa_register 13
 259              		@ sp needed
 260 00aa 80BD     		pop	{r7, pc}
 261              		.cfi_endproc
 262              	.LFE5:
 263              		.size	list_del, .-list_del
 264              		.align	1
 265              		.syntax unified
 266              		.thumb
 267              		.thumb_func
 268              		.fpu softvfp
 269              		.type	compare, %function
 270              	compare:
 271              	.LFB13:
 272              		.file 2 "../../source/src/kernel/OS_CORE/message_queue.c"
   1:../../source/src/kernel/OS_CORE/message_queue.c **** #include <message_queue.h>
   2:../../source/src/kernel/OS_CORE/message_queue.c **** #include <myassert.h>
   3:../../source/src/kernel/OS_CORE/message_queue.c **** #include <os_schedule.h>
   4:../../source/src/kernel/OS_CORE/message_queue.c **** #include <os_cpu.h>
   5:../../source/src/kernel/OS_CORE/message_queue.c **** #include <os_time.h>
   6:../../source/src/kernel/OS_CORE/message_queue.c **** #include <os_delay.h>
   7:../../source/src/kernel/OS_CORE/message_queue.c **** #include <os_suspend.h>
   8:../../source/src/kernel/OS_CORE/message_queue.c **** #include <export.h>
   9:../../source/src/kernel/OS_CORE/message_queue.c **** 
  10:../../source/src/kernel/OS_CORE/message_queue.c **** extern TCB * OSTCBCurPtr;
  11:../../source/src/kernel/OS_CORE/message_queue.c **** 
  12:../../source/src/kernel/OS_CORE/message_queue.c **** inline static int compare(struct insert_sort_data *data1,struct insert_sort_data *data2)
  13:../../source/src/kernel/OS_CORE/message_queue.c **** {
 273              		.loc 2 13 0
ARM GAS  G:\Users\Jaxb\AppData\Local\Temp\cchAS7Ki.s 			page 7


 274              		.cfi_startproc
 275              		@ args = 0, pretend = 0, frame = 8
 276              		@ frame_needed = 1, uses_anonymous_args = 0
 277              		@ link register save eliminated.
 278 00ac 80B4     		push	{r7}
 279              	.LCFI28:
 280              		.cfi_def_cfa_offset 4
 281              		.cfi_offset 7, -4
 282 00ae 83B0     		sub	sp, sp, #12
 283              	.LCFI29:
 284              		.cfi_def_cfa_offset 16
 285 00b0 00AF     		add	r7, sp, #0
 286              	.LCFI30:
 287              		.cfi_def_cfa_register 7
 288 00b2 7860     		str	r0, [r7, #4]
 289 00b4 3960     		str	r1, [r7]
  14:../../source/src/kernel/OS_CORE/message_queue.c **** 	return ((TCB*)(data1->data_ptr))->prio - ((TCB*)(data2->data_ptr))->prio;
 290              		.loc 2 14 0
 291 00b6 7B68     		ldr	r3, [r7, #4]
 292 00b8 1B68     		ldr	r3, [r3]
 293 00ba 5A69     		ldr	r2, [r3, #20]
 294 00bc 3B68     		ldr	r3, [r7]
 295 00be 1B68     		ldr	r3, [r3]
 296 00c0 5B69     		ldr	r3, [r3, #20]
 297 00c2 D31A     		subs	r3, r2, r3
  15:../../source/src/kernel/OS_CORE/message_queue.c **** }
 298              		.loc 2 15 0
 299 00c4 1846     		mov	r0, r3
 300 00c6 0C37     		adds	r7, r7, #12
 301              	.LCFI31:
 302              		.cfi_def_cfa_offset 4
 303 00c8 BD46     		mov	sp, r7
 304              	.LCFI32:
 305              		.cfi_def_cfa_register 13
 306              		@ sp needed
 307 00ca 80BC     		pop	{r7}
 308              	.LCFI33:
 309              		.cfi_restore 7
 310              		.cfi_def_cfa_offset 0
 311 00cc 7047     		bx	lr
 312              		.cfi_endproc
 313              	.LFE13:
 314              		.size	compare, .-compare
 315              		.align	1
 316              		.syntax unified
 317              		.thumb
 318              		.thumb_func
 319              		.fpu softvfp
 320              		.type	value_cmp, %function
 321              	value_cmp:
 322              	.LFB14:
  16:../../source/src/kernel/OS_CORE/message_queue.c **** 
  17:../../source/src/kernel/OS_CORE/message_queue.c **** inline static int value_cmp(void *data1,void *data2)
  18:../../source/src/kernel/OS_CORE/message_queue.c **** {
 323              		.loc 2 18 0
 324              		.cfi_startproc
 325              		@ args = 0, pretend = 0, frame = 8
ARM GAS  G:\Users\Jaxb\AppData\Local\Temp\cchAS7Ki.s 			page 8


 326              		@ frame_needed = 1, uses_anonymous_args = 0
 327              		@ link register save eliminated.
 328 00ce 80B4     		push	{r7}
 329              	.LCFI34:
 330              		.cfi_def_cfa_offset 4
 331              		.cfi_offset 7, -4
 332 00d0 83B0     		sub	sp, sp, #12
 333              	.LCFI35:
 334              		.cfi_def_cfa_offset 16
 335 00d2 00AF     		add	r7, sp, #0
 336              	.LCFI36:
 337              		.cfi_def_cfa_register 7
 338 00d4 7860     		str	r0, [r7, #4]
 339 00d6 3960     		str	r1, [r7]
  19:../../source/src/kernel/OS_CORE/message_queue.c **** 	return ((TCB*)data1)->prio - ((TCB*)data2)->prio;
 340              		.loc 2 19 0
 341 00d8 7B68     		ldr	r3, [r7, #4]
 342 00da 5A69     		ldr	r2, [r3, #20]
 343 00dc 3B68     		ldr	r3, [r7]
 344 00de 5B69     		ldr	r3, [r3, #20]
 345 00e0 D31A     		subs	r3, r2, r3
  20:../../source/src/kernel/OS_CORE/message_queue.c **** }
 346              		.loc 2 20 0
 347 00e2 1846     		mov	r0, r3
 348 00e4 0C37     		adds	r7, r7, #12
 349              	.LCFI37:
 350              		.cfi_def_cfa_offset 4
 351 00e6 BD46     		mov	sp, r7
 352              	.LCFI38:
 353              		.cfi_def_cfa_register 13
 354              		@ sp needed
 355 00e8 80BC     		pop	{r7}
 356              	.LCFI39:
 357              		.cfi_restore 7
 358              		.cfi_def_cfa_offset 0
 359 00ea 7047     		bx	lr
 360              		.cfi_endproc
 361              	.LFE14:
 362              		.size	value_cmp, .-value_cmp
 363              		.section	.rodata
 364              		.align	2
 365              	.LC0:
 366 0000 2E2E2F2E 		.ascii	"../../source/src/kernel/OS_CORE/message_queue.c\000"
 366      2E2F736F 
 366      75726365 
 366      2F737263 
 366      2F6B6572 
 367              		.align	2
 368              	.LC1:
 369 0030 6572726F 		.ascii	"error fun name : msg_init\012error para : MQB_ptr\012"
 369      72206675 
 369      6E206E61 
 369      6D65203A 
 369      206D7367 
 370 005f 00       		.ascii	"\000"
 371              		.align	2
 372              	.LC2:
ARM GAS  G:\Users\Jaxb\AppData\Local\Temp\cchAS7Ki.s 			page 9


 373 0060 6572726F 		.ascii	"error fun name : msg_init\012error para : max_messa"
 373      72206675 
 373      6E206E61 
 373      6D65203A 
 373      206D7367 
 374 0090 67655F6E 		.ascii	"ge_num\012\000"
 374      756D0A00 
 375              		.text
 376              		.align	1
 377              		.global	msg_init
 378              		.syntax unified
 379              		.thumb
 380              		.thumb_func
 381              		.fpu softvfp
 382              		.type	msg_init, %function
 383              	msg_init:
 384              	.LFB15:
  21:../../source/src/kernel/OS_CORE/message_queue.c **** 
  22:../../source/src/kernel/OS_CORE/message_queue.c **** int msg_init(MQB *MQB_ptr,char *name,unsigned int max_message_num)
  23:../../source/src/kernel/OS_CORE/message_queue.c **** {
 385              		.loc 2 23 0
 386              		.cfi_startproc
 387              		@ args = 0, pretend = 0, frame = 24
 388              		@ frame_needed = 1, uses_anonymous_args = 0
 389 00ec 80B5     		push	{r7, lr}
 390              	.LCFI40:
 391              		.cfi_def_cfa_offset 8
 392              		.cfi_offset 7, -8
 393              		.cfi_offset 14, -4
 394 00ee 86B0     		sub	sp, sp, #24
 395              	.LCFI41:
 396              		.cfi_def_cfa_offset 32
 397 00f0 00AF     		add	r7, sp, #0
 398              	.LCFI42:
 399              		.cfi_def_cfa_register 7
 400 00f2 F860     		str	r0, [r7, #12]
 401 00f4 B960     		str	r1, [r7, #8]
 402 00f6 7A60     		str	r2, [r7, #4]
  24:../../source/src/kernel/OS_CORE/message_queue.c **** 	ASSERT(NULL != MQB_ptr);
 403              		.loc 2 24 0
 404 00f8 FB68     		ldr	r3, [r7, #12]
 405 00fa 002B     		cmp	r3, #0
 406 00fc 03D1     		bne	.L11
 407              		.loc 2 24 0 is_stmt 0 discriminator 1
 408 00fe 1821     		movs	r1, #24
 409 0100 2948     		ldr	r0, .L17
 410 0102 FFF7FEFF 		bl	_ASSERT
 411              	.L11:
  25:../../source/src/kernel/OS_CORE/message_queue.c **** 	ASSERT(max_message_num > 0);
 412              		.loc 2 25 0 is_stmt 1
 413 0106 7B68     		ldr	r3, [r7, #4]
 414 0108 002B     		cmp	r3, #0
 415 010a 03D1     		bne	.L12
 416              		.loc 2 25 0 is_stmt 0 discriminator 1
 417 010c 1921     		movs	r1, #25
 418 010e 2648     		ldr	r0, .L17
 419 0110 FFF7FEFF 		bl	_ASSERT
ARM GAS  G:\Users\Jaxb\AppData\Local\Temp\cchAS7Ki.s 			page 10


 420              	.L12:
  26:../../source/src/kernel/OS_CORE/message_queue.c **** #if CONFIG_PARA_CHECK
  27:../../source/src/kernel/OS_CORE/message_queue.c **** 	if((NULL == MQB_ptr) || (0 == max_message_num))
 421              		.loc 2 27 0 is_stmt 1
 422 0114 FB68     		ldr	r3, [r7, #12]
 423 0116 002B     		cmp	r3, #0
 424 0118 02D0     		beq	.L13
 425              		.loc 2 27 0 is_stmt 0 discriminator 1
 426 011a 7B68     		ldr	r3, [r7, #4]
 427 011c 002B     		cmp	r3, #0
 428 011e 08D1     		bne	.L14
 429              	.L13:
  28:../../source/src/kernel/OS_CORE/message_queue.c **** 	{
  29:../../source/src/kernel/OS_CORE/message_queue.c **** 		OS_ERROR_PARA_MESSAGE_DISPLAY(msg_init,MQB_ptr);
 430              		.loc 2 29 0 is_stmt 1
 431 0120 2248     		ldr	r0, .L17+4
 432 0122 FFF7FEFF 		bl	ka_printf
  30:../../source/src/kernel/OS_CORE/message_queue.c **** 		OS_ERROR_PARA_MESSAGE_DISPLAY(msg_init,max_message_num);
 433              		.loc 2 30 0
 434 0126 2248     		ldr	r0, .L17+8
 435 0128 FFF7FEFF 		bl	ka_printf
  31:../../source/src/kernel/OS_CORE/message_queue.c **** 		return -ERROR_NULL_INPUT_PTR;
 436              		.loc 2 31 0
 437 012c 6FF0FE03 		mvn	r3, #254
 438 0130 35E0     		b	.L15
 439              	.L14:
  32:../../source/src/kernel/OS_CORE/message_queue.c **** 	}
  33:../../source/src/kernel/OS_CORE/message_queue.c **** #endif
  34:../../source/src/kernel/OS_CORE/message_queue.c **** 	CPU_SR_ALLOC();
 440              		.loc 2 34 0
 441 0132 0023     		movs	r3, #0
 442 0134 7B61     		str	r3, [r7, #20]
  35:../../source/src/kernel/OS_CORE/message_queue.c **** 	CPU_CRITICAL_ENTER();
 443              		.loc 2 35 0
 444 0136 FFF7FEFF 		bl	CPU_SR_Save
 445 013a 7861     		str	r0, [r7, #20]
  36:../../source/src/kernel/OS_CORE/message_queue.c **** 	if (g_interrupt_count > 0)
 446              		.loc 2 36 0
 447 013c 1D4B     		ldr	r3, .L17+12
 448 013e 1B68     		ldr	r3, [r3]
 449 0140 002B     		cmp	r3, #0
 450 0142 05DD     		ble	.L16
  37:../../source/src/kernel/OS_CORE/message_queue.c **** 	{
  38:../../source/src/kernel/OS_CORE/message_queue.c **** 		CPU_CRITICAL_EXIT();
 451              		.loc 2 38 0
 452 0144 7869     		ldr	r0, [r7, #20]
 453 0146 FFF7FEFF 		bl	CPU_SR_Restore
  39:../../source/src/kernel/OS_CORE/message_queue.c **** 		return -ERROR_FUN_USE_IN_INTER;
 454              		.loc 2 39 0
 455 014a 6FF0FC03 		mvn	r3, #252
 456 014e 26E0     		b	.L15
 457              	.L16:
  40:../../source/src/kernel/OS_CORE/message_queue.c **** 	}
  41:../../source/src/kernel/OS_CORE/message_queue.c **** 	INIT_LIST_HEAD(&MQB_ptr->message_list);
 458              		.loc 2 41 0
 459 0150 FB68     		ldr	r3, [r7, #12]
 460 0152 1846     		mov	r0, r3
ARM GAS  G:\Users\Jaxb\AppData\Local\Temp\cchAS7Ki.s 			page 11


 461 0154 FFF754FF 		bl	INIT_LIST_HEAD
  42:../../source/src/kernel/OS_CORE/message_queue.c **** 	init_insert_sort_entity(
 462              		.loc 2 42 0
 463 0158 FB68     		ldr	r3, [r7, #12]
 464 015a 03F10800 		add	r0, r3, #8
 465 015e 164B     		ldr	r3, .L17+16
 466 0160 0022     		movs	r2, #0
 467 0162 1649     		ldr	r1, .L17+20
 468 0164 FFF7FEFF 		bl	init_insert_sort_entity
  43:../../source/src/kernel/OS_CORE/message_queue.c **** 		&MQB_ptr->message_array_insert_sort_wait_TCB_list,
  44:../../source/src/kernel/OS_CORE/message_queue.c **** 		compare,
  45:../../source/src/kernel/OS_CORE/message_queue.c **** 		NULL,
  46:../../source/src/kernel/OS_CORE/message_queue.c **** 		value_cmp);
  47:../../source/src/kernel/OS_CORE/message_queue.c **** 	init_insert_sort_entity(
 469              		.loc 2 47 0
 470 0168 FB68     		ldr	r3, [r7, #12]
 471 016a 03F12000 		add	r0, r3, #32
 472 016e 124B     		ldr	r3, .L17+16
 473 0170 0022     		movs	r2, #0
 474 0172 1249     		ldr	r1, .L17+20
 475 0174 FFF7FEFF 		bl	init_insert_sort_entity
  48:../../source/src/kernel/OS_CORE/message_queue.c **** 		&MQB_ptr->message_array_insert_sort_put_TCB_list,
  49:../../source/src/kernel/OS_CORE/message_queue.c **** 		compare,
  50:../../source/src/kernel/OS_CORE/message_queue.c **** 		NULL,
  51:../../source/src/kernel/OS_CORE/message_queue.c **** 		value_cmp);
  52:../../source/src/kernel/OS_CORE/message_queue.c **** 	MQB_ptr->put_num = 0;
 476              		.loc 2 52 0
 477 0178 FB68     		ldr	r3, [r7, #12]
 478 017a 0022     		movs	r2, #0
 479 017c 9A63     		str	r2, [r3, #56]
  53:../../source/src/kernel/OS_CORE/message_queue.c **** 	MQB_ptr->wait_num = 0;
 480              		.loc 2 53 0
 481 017e FB68     		ldr	r3, [r7, #12]
 482 0180 0022     		movs	r2, #0
 483 0182 DA63     		str	r2, [r3, #60]
  54:../../source/src/kernel/OS_CORE/message_queue.c **** 	MQB_ptr->name = name;
 484              		.loc 2 54 0
 485 0184 FB68     		ldr	r3, [r7, #12]
 486 0186 BA68     		ldr	r2, [r7, #8]
 487 0188 1A64     		str	r2, [r3, #64]
  55:../../source/src/kernel/OS_CORE/message_queue.c **** 	MQB_ptr->current_message_num = 0;
 488              		.loc 2 55 0
 489 018a FB68     		ldr	r3, [r7, #12]
 490 018c 0022     		movs	r2, #0
 491 018e 5A64     		str	r2, [r3, #68]
  56:../../source/src/kernel/OS_CORE/message_queue.c **** 	MQB_ptr->max_message_num = max_message_num;
 492              		.loc 2 56 0
 493 0190 FB68     		ldr	r3, [r7, #12]
 494 0192 7A68     		ldr	r2, [r7, #4]
 495 0194 9A64     		str	r2, [r3, #72]
  57:../../source/src/kernel/OS_CORE/message_queue.c **** 	CPU_CRITICAL_EXIT();
 496              		.loc 2 57 0
 497 0196 7869     		ldr	r0, [r7, #20]
 498 0198 FFF7FEFF 		bl	CPU_SR_Restore
  58:../../source/src/kernel/OS_CORE/message_queue.c **** 	return FUN_EXECUTE_SUCCESSFULLY;
 499              		.loc 2 58 0
 500 019c 0023     		movs	r3, #0
ARM GAS  G:\Users\Jaxb\AppData\Local\Temp\cchAS7Ki.s 			page 12


 501              	.L15:
  59:../../source/src/kernel/OS_CORE/message_queue.c **** }
 502              		.loc 2 59 0
 503 019e 1846     		mov	r0, r3
 504 01a0 1837     		adds	r7, r7, #24
 505              	.LCFI43:
 506              		.cfi_def_cfa_offset 8
 507 01a2 BD46     		mov	sp, r7
 508              	.LCFI44:
 509              		.cfi_def_cfa_register 13
 510              		@ sp needed
 511 01a4 80BD     		pop	{r7, pc}
 512              	.L18:
 513 01a6 00BF     		.align	2
 514              	.L17:
 515 01a8 00000000 		.word	.LC0
 516 01ac 30000000 		.word	.LC1
 517 01b0 60000000 		.word	.LC2
 518 01b4 00000000 		.word	g_interrupt_count
 519 01b8 00000000 		.word	value_cmp
 520 01bc 00000000 		.word	compare
 521              		.cfi_endproc
 522              	.LFE15:
 523              		.size	msg_init, .-msg_init
 524              		.global	__rtmsym_msg_init_name
 525              		.section	.rodata.name,"a",%progbits
 526              		.align	2
 527              		.type	__rtmsym_msg_init_name, %object
 528              		.size	__rtmsym_msg_init_name, 9
 529              	__rtmsym_msg_init_name:
 530 0000 6D73675F 		.ascii	"msg_init\000"
 530      696E6974 
 530      00
 531              		.global	__rtmsym_msg_init
 532              		.section	.RTMSymTab,"a",%progbits
 533              		.align	2
 534              		.type	__rtmsym_msg_init, %object
 535              		.size	__rtmsym_msg_init, 8
 536              	__rtmsym_msg_init:
 537 0000 00000000 		.word	msg_init
 538 0004 00000000 		.word	__rtmsym_msg_init_name
 539              		.section	.rodata
 540              		.align	2
 541              	.LC3:
 542 0098 6572726F 		.ascii	"error fun name : msg_send\012error para : MQB_ptr\012"
 542      72206675 
 542      6E206E61 
 542      6D65203A 
 542      206D7367 
 543 00c7 00       		.ascii	"\000"
 544              		.align	2
 545              	.LC4:
 546 00c8 6572726F 		.ascii	"error fun name : msg_send\012error para : max_messa"
 546      72206675 
 546      6E206E61 
 546      6D65203A 
 546      206D7367 
ARM GAS  G:\Users\Jaxb\AppData\Local\Temp\cchAS7Ki.s 			page 13


 547 00f8 67655F6E 		.ascii	"ge_num\012\000"
 547      756D0A00 
 548              		.text
 549              		.align	1
 550              		.global	msg_send
 551              		.syntax unified
 552              		.thumb
 553              		.thumb_func
 554              		.fpu softvfp
 555              		.type	msg_send, %function
 556              	msg_send:
 557              	.LFB16:
  60:../../source/src/kernel/OS_CORE/message_queue.c **** EXPORT_SYMBOL(msg_init);
  61:../../source/src/kernel/OS_CORE/message_queue.c **** 
  62:../../source/src/kernel/OS_CORE/message_queue.c **** int msg_send(MQB *MQB_ptr,struct message *message_ptr,MSG_FLAG flag,unsigned int time)
  63:../../source/src/kernel/OS_CORE/message_queue.c **** {
 558              		.loc 2 63 0
 559              		.cfi_startproc
 560              		@ args = 0, pretend = 0, frame = 56
 561              		@ frame_needed = 1, uses_anonymous_args = 0
 562 01c0 80B5     		push	{r7, lr}
 563              	.LCFI45:
 564              		.cfi_def_cfa_offset 8
 565              		.cfi_offset 7, -8
 566              		.cfi_offset 14, -4
 567 01c2 8EB0     		sub	sp, sp, #56
 568              	.LCFI46:
 569              		.cfi_def_cfa_offset 64
 570 01c4 00AF     		add	r7, sp, #0
 571              	.LCFI47:
 572              		.cfi_def_cfa_register 7
 573 01c6 F860     		str	r0, [r7, #12]
 574 01c8 B960     		str	r1, [r7, #8]
 575 01ca 3B60     		str	r3, [r7]
 576 01cc 1346     		mov	r3, r2
 577 01ce FB71     		strb	r3, [r7, #7]
  64:../../source/src/kernel/OS_CORE/message_queue.c **** 	ASSERT(NULL != MQB_ptr);
 578              		.loc 2 64 0
 579 01d0 FB68     		ldr	r3, [r7, #12]
 580 01d2 002B     		cmp	r3, #0
 581 01d4 03D1     		bne	.L20
 582              		.loc 2 64 0 is_stmt 0 discriminator 1
 583 01d6 4021     		movs	r1, #64
 584 01d8 7548     		ldr	r0, .L38
 585 01da FFF7FEFF 		bl	_ASSERT
 586              	.L20:
  65:../../source/src/kernel/OS_CORE/message_queue.c **** 	ASSERT(NULL != message_ptr);
 587              		.loc 2 65 0 is_stmt 1
 588 01de BB68     		ldr	r3, [r7, #8]
 589 01e0 002B     		cmp	r3, #0
 590 01e2 03D1     		bne	.L21
 591              		.loc 2 65 0 is_stmt 0 discriminator 1
 592 01e4 4121     		movs	r1, #65
 593 01e6 7248     		ldr	r0, .L38
 594 01e8 FFF7FEFF 		bl	_ASSERT
 595              	.L21:
  66:../../source/src/kernel/OS_CORE/message_queue.c **** #if CONFIG_PARA_CHECK
ARM GAS  G:\Users\Jaxb\AppData\Local\Temp\cchAS7Ki.s 			page 14


  67:../../source/src/kernel/OS_CORE/message_queue.c **** 	if((NULL == MQB_ptr) || (NULL == message_ptr))
 596              		.loc 2 67 0 is_stmt 1
 597 01ec FB68     		ldr	r3, [r7, #12]
 598 01ee 002B     		cmp	r3, #0
 599 01f0 02D0     		beq	.L22
 600              		.loc 2 67 0 is_stmt 0 discriminator 1
 601 01f2 BB68     		ldr	r3, [r7, #8]
 602 01f4 002B     		cmp	r3, #0
 603 01f6 08D1     		bne	.L23
 604              	.L22:
  68:../../source/src/kernel/OS_CORE/message_queue.c **** 	{
  69:../../source/src/kernel/OS_CORE/message_queue.c **** 		OS_ERROR_PARA_MESSAGE_DISPLAY(msg_send,MQB_ptr);
 605              		.loc 2 69 0 is_stmt 1
 606 01f8 6E48     		ldr	r0, .L38+4
 607 01fa FFF7FEFF 		bl	ka_printf
  70:../../source/src/kernel/OS_CORE/message_queue.c **** 		OS_ERROR_PARA_MESSAGE_DISPLAY(msg_send,max_message_num);
 608              		.loc 2 70 0
 609 01fe 6E48     		ldr	r0, .L38+8
 610 0200 FFF7FEFF 		bl	ka_printf
  71:../../source/src/kernel/OS_CORE/message_queue.c **** 		return -ERROR_NULL_INPUT_PTR;
 611              		.loc 2 71 0
 612 0204 6FF0FE03 		mvn	r3, #254
 613 0208 CEE0     		b	.L37
 614              	.L23:
  72:../../source/src/kernel/OS_CORE/message_queue.c **** 	}
  73:../../source/src/kernel/OS_CORE/message_queue.c **** #endif
  74:../../source/src/kernel/OS_CORE/message_queue.c **** 	CPU_SR_ALLOC();
 615              		.loc 2 74 0
 616 020a 0023     		movs	r3, #0
 617 020c 7B63     		str	r3, [r7, #52]
  75:../../source/src/kernel/OS_CORE/message_queue.c **** 	CPU_CRITICAL_ENTER();
 618              		.loc 2 75 0
 619 020e FFF7FEFF 		bl	CPU_SR_Save
 620 0212 7863     		str	r0, [r7, #52]
  76:../../source/src/kernel/OS_CORE/message_queue.c **** 	if(MQB_ptr->current_message_num < MQB_ptr->max_message_num)
 621              		.loc 2 76 0
 622 0214 FB68     		ldr	r3, [r7, #12]
 623 0216 5A6C     		ldr	r2, [r3, #68]
 624 0218 FB68     		ldr	r3, [r7, #12]
 625 021a 9B6C     		ldr	r3, [r3, #72]
 626 021c 9A42     		cmp	r2, r3
 627 021e 38D2     		bcs	.L25
  77:../../source/src/kernel/OS_CORE/message_queue.c **** 	{
  78:../../source/src/kernel/OS_CORE/message_queue.c **** 		//add to tail
  79:../../source/src/kernel/OS_CORE/message_queue.c **** 		list_add_tail(&message_ptr->message_list,&MQB_ptr->message_list);
 628              		.loc 2 79 0
 629 0220 BB68     		ldr	r3, [r7, #8]
 630 0222 FA68     		ldr	r2, [r7, #12]
 631 0224 1146     		mov	r1, r2
 632 0226 1846     		mov	r0, r3
 633 0228 FFF710FF 		bl	list_add_tail
  80:../../source/src/kernel/OS_CORE/message_queue.c **** 		++(MQB_ptr->current_message_num);
 634              		.loc 2 80 0
 635 022c FB68     		ldr	r3, [r7, #12]
 636 022e 5B6C     		ldr	r3, [r3, #68]
 637 0230 5A1C     		adds	r2, r3, #1
 638 0232 FB68     		ldr	r3, [r7, #12]
ARM GAS  G:\Users\Jaxb\AppData\Local\Temp\cchAS7Ki.s 			page 15


 639 0234 5A64     		str	r2, [r3, #68]
  81:../../source/src/kernel/OS_CORE/message_queue.c **** 		//then check if there is a task waiting for receiving
  82:../../source/src/kernel/OS_CORE/message_queue.c **** 		if(MQB_ptr->wait_num)
 640              		.loc 2 82 0
 641 0236 FB68     		ldr	r3, [r7, #12]
 642 0238 DB6B     		ldr	r3, [r3, #60]
 643 023a 002B     		cmp	r3, #0
 644 023c 24D0     		beq	.L26
 645              	.LBB2:
  83:../../source/src/kernel/OS_CORE/message_queue.c **** 		{
  84:../../source/src/kernel/OS_CORE/message_queue.c **** 			struct insert_sort_data *insert_sort_data_ptr;
  85:../../source/src/kernel/OS_CORE/message_queue.c **** 			TCB *TCB_ptr;
  86:../../source/src/kernel/OS_CORE/message_queue.c **** 			insert_sort_data_ptr = insert_sort_delete_head(&MQB_ptr->message_array_insert_sort_wait_TCB_list
 646              		.loc 2 86 0
 647 023e FB68     		ldr	r3, [r7, #12]
 648 0240 0833     		adds	r3, r3, #8
 649 0242 1846     		mov	r0, r3
 650 0244 FFF7FEFF 		bl	insert_sort_delete_head
 651 0248 F862     		str	r0, [r7, #44]
  87:../../source/src/kernel/OS_CORE/message_queue.c **** 			ASSERT(NULL != insert_sort_data_ptr);
 652              		.loc 2 87 0
 653 024a FB6A     		ldr	r3, [r7, #44]
 654 024c 002B     		cmp	r3, #0
 655 024e 03D1     		bne	.L27
 656              		.loc 2 87 0 is_stmt 0 discriminator 1
 657 0250 5721     		movs	r1, #87
 658 0252 5748     		ldr	r0, .L38
 659 0254 FFF7FEFF 		bl	_ASSERT
 660              	.L27:
  88:../../source/src/kernel/OS_CORE/message_queue.c **** 			TCB_ptr = (TCB *)(insert_sort_data_ptr->data_ptr);
 661              		.loc 2 88 0 is_stmt 1
 662 0258 FB6A     		ldr	r3, [r7, #44]
 663 025a 1B68     		ldr	r3, [r3]
 664 025c BB62     		str	r3, [r7, #40]
  89:../../source/src/kernel/OS_CORE/message_queue.c **** 			if(STATE_WAIT_MESSAGE_QUEUE_FOREVER == TCB_ptr->task_state)
 665              		.loc 2 89 0
 666 025e BB6A     		ldr	r3, [r7, #40]
 667 0260 1B7C     		ldrb	r3, [r3, #16]	@ zero_extendqisi2
 668 0262 062B     		cmp	r3, #6
 669 0264 03D1     		bne	.L28
  90:../../source/src/kernel/OS_CORE/message_queue.c **** 			{
  91:../../source/src/kernel/OS_CORE/message_queue.c **** 				remove_from_suspend_list(TCB_ptr);
 670              		.loc 2 91 0
 671 0266 B86A     		ldr	r0, [r7, #40]
 672 0268 FFF7FEFF 		bl	remove_from_suspend_list
 673 026c 0AE0     		b	.L29
 674              	.L28:
  92:../../source/src/kernel/OS_CORE/message_queue.c **** 			}
  93:../../source/src/kernel/OS_CORE/message_queue.c **** 			else
  94:../../source/src/kernel/OS_CORE/message_queue.c **** 			{
  95:../../source/src/kernel/OS_CORE/message_queue.c **** 				ASSERT(STATE_WAIT_MESSAGE_QUEUE_TIMEOUT == TCB_ptr->task_state);
 675              		.loc 2 95 0
 676 026e BB6A     		ldr	r3, [r7, #40]
 677 0270 1B7C     		ldrb	r3, [r3, #16]	@ zero_extendqisi2
 678 0272 072B     		cmp	r3, #7
 679 0274 03D0     		beq	.L30
 680              		.loc 2 95 0 is_stmt 0 discriminator 1
ARM GAS  G:\Users\Jaxb\AppData\Local\Temp\cchAS7Ki.s 			page 16


 681 0276 5F21     		movs	r1, #95
 682 0278 4D48     		ldr	r0, .L38
 683 027a FFF7FEFF 		bl	_ASSERT
 684              	.L30:
  96:../../source/src/kernel/OS_CORE/message_queue.c **** 				remove_from_delay_heap(TCB_ptr);
 685              		.loc 2 96 0 is_stmt 1
 686 027e B86A     		ldr	r0, [r7, #40]
 687 0280 FFF7FEFF 		bl	remove_from_delay_heap
 688              	.L29:
  97:../../source/src/kernel/OS_CORE/message_queue.c **** 			}
  98:../../source/src/kernel/OS_CORE/message_queue.c **** 			schedule();
 689              		.loc 2 98 0
 690 0284 FFF7FEFF 		bl	schedule
 691              	.L26:
 692              	.LBE2:
  99:../../source/src/kernel/OS_CORE/message_queue.c **** 		}
 100:../../source/src/kernel/OS_CORE/message_queue.c **** 		CPU_CRITICAL_EXIT();
 693              		.loc 2 100 0
 694 0288 786B     		ldr	r0, [r7, #52]
 695 028a FFF7FEFF 		bl	CPU_SR_Restore
 101:../../source/src/kernel/OS_CORE/message_queue.c **** 		return FUN_EXECUTE_SUCCESSFULLY;
 696              		.loc 2 101 0
 697 028e 0023     		movs	r3, #0
 698 0290 8AE0     		b	.L37
 699              	.L25:
 102:../../source/src/kernel/OS_CORE/message_queue.c **** 	}
 103:../../source/src/kernel/OS_CORE/message_queue.c **** 	// else : MQB_ptr->current_message_num == MQB_ptr->max_message_num
 104:../../source/src/kernel/OS_CORE/message_queue.c **** 	ASSERT(MQB_ptr->current_message_num == MQB_ptr->max_message_num);
 700              		.loc 2 104 0
 701 0292 FB68     		ldr	r3, [r7, #12]
 702 0294 5A6C     		ldr	r2, [r3, #68]
 703 0296 FB68     		ldr	r3, [r7, #12]
 704 0298 9B6C     		ldr	r3, [r3, #72]
 705 029a 9A42     		cmp	r2, r3
 706 029c 03D0     		beq	.L31
 707              		.loc 2 104 0 is_stmt 0 discriminator 1
 708 029e 6821     		movs	r1, #104
 709 02a0 4348     		ldr	r0, .L38
 710 02a2 FFF7FEFF 		bl	_ASSERT
 711              	.L31:
 105:../../source/src/kernel/OS_CORE/message_queue.c **** 	if(MSG_FLAG_NON_BLOCKING == flag)
 712              		.loc 2 105 0 is_stmt 1
 713 02a6 FB79     		ldrb	r3, [r7, #7]	@ zero_extendqisi2
 714 02a8 012B     		cmp	r3, #1
 715 02aa 05D1     		bne	.L32
 106:../../source/src/kernel/OS_CORE/message_queue.c **** 	{
 107:../../source/src/kernel/OS_CORE/message_queue.c **** 		CPU_CRITICAL_EXIT();
 716              		.loc 2 107 0
 717 02ac 786B     		ldr	r0, [r7, #52]
 718 02ae FFF7FEFF 		bl	CPU_SR_Restore
 108:../../source/src/kernel/OS_CORE/message_queue.c **** 		return -ERROR_MSG_FULL;
 719              		.loc 2 108 0
 720 02b2 4FF0FF33 		mov	r3, #-1
 721 02b6 77E0     		b	.L37
 722              	.L32:
 109:../../source/src/kernel/OS_CORE/message_queue.c **** 	}
 110:../../source/src/kernel/OS_CORE/message_queue.c **** 	// else : flag == FLAG_WAIT
ARM GAS  G:\Users\Jaxb\AppData\Local\Temp\cchAS7Ki.s 			page 17


 111:../../source/src/kernel/OS_CORE/message_queue.c **** 	DECLEAR_INSERT_SORT_DATA(data);
 112:../../source/src/kernel/OS_CORE/message_queue.c **** 	init_insert_sort_data(&data,OSTCBCurPtr);
 723              		.loc 2 112 0
 724 02b8 404B     		ldr	r3, .L38+12
 725 02ba 1A68     		ldr	r2, [r3]
 726 02bc 07F11003 		add	r3, r7, #16
 727 02c0 1146     		mov	r1, r2
 728 02c2 1846     		mov	r0, r3
 729 02c4 FFF7FEFF 		bl	init_insert_sort_data
 113:../../source/src/kernel/OS_CORE/message_queue.c **** 	insert_sort_insert_into(&data,&MQB_ptr->message_array_insert_sort_put_TCB_list);
 730              		.loc 2 113 0
 731 02c8 FB68     		ldr	r3, [r7, #12]
 732 02ca 03F12002 		add	r2, r3, #32
 733 02ce 07F11003 		add	r3, r7, #16
 734 02d2 1146     		mov	r1, r2
 735 02d4 1846     		mov	r0, r3
 736 02d6 FFF7FEFF 		bl	insert_sort_insert_into
 114:../../source/src/kernel/OS_CORE/message_queue.c **** 	++(MQB_ptr->put_num);
 737              		.loc 2 114 0
 738 02da FB68     		ldr	r3, [r7, #12]
 739 02dc 9B6B     		ldr	r3, [r3, #56]
 740 02de 5A1C     		adds	r2, r3, #1
 741 02e0 FB68     		ldr	r3, [r7, #12]
 742 02e2 9A63     		str	r2, [r3, #56]
 115:../../source/src/kernel/OS_CORE/message_queue.c **** 	if(0 == time)
 743              		.loc 2 115 0
 744 02e4 3B68     		ldr	r3, [r7]
 745 02e6 002B     		cmp	r3, #0
 746 02e8 09D1     		bne	.L33
 116:../../source/src/kernel/OS_CORE/message_queue.c **** 	{
 117:../../source/src/kernel/OS_CORE/message_queue.c **** 		CPU_CRITICAL_EXIT(); //exit  critical
 747              		.loc 2 117 0
 748 02ea 786B     		ldr	r0, [r7, #52]
 749 02ec FFF7FEFF 		bl	CPU_SR_Restore
 118:../../source/src/kernel/OS_CORE/message_queue.c **** 		sys_suspend(STATE_PUT_MESSAGE_QUEUE_FOREVER);
 750              		.loc 2 118 0
 751 02f0 0820     		movs	r0, #8
 752 02f2 FFF7FEFF 		bl	sys_suspend
 119:../../source/src/kernel/OS_CORE/message_queue.c **** 		//go back here=========go back here
 120:../../source/src/kernel/OS_CORE/message_queue.c **** 		CPU_CRITICAL_ENTER();
 753              		.loc 2 120 0
 754 02f6 FFF7FEFF 		bl	CPU_SR_Save
 755 02fa 7863     		str	r0, [r7, #52]
 756 02fc 21E0     		b	.L34
 757              	.L33:
 758              	.LBB3:
 121:../../source/src/kernel/OS_CORE/message_queue.c **** 	}
 122:../../source/src/kernel/OS_CORE/message_queue.c **** 	else
 123:../../source/src/kernel/OS_CORE/message_queue.c **** 	{
 124:../../source/src/kernel/OS_CORE/message_queue.c **** 		CPU_CRITICAL_EXIT(); //exit  critical
 759              		.loc 2 124 0
 760 02fe 786B     		ldr	r0, [r7, #52]
 761 0300 FFF7FEFF 		bl	CPU_SR_Restore
 125:../../source/src/kernel/OS_CORE/message_queue.c **** 		int num = sys_delay(time,STATE_PUT_MESSAGE_QUEUE_TIMEOUT);
 762              		.loc 2 125 0
 763 0304 0921     		movs	r1, #9
 764 0306 3868     		ldr	r0, [r7]
ARM GAS  G:\Users\Jaxb\AppData\Local\Temp\cchAS7Ki.s 			page 18


 765 0308 FFF7FEFF 		bl	sys_delay
 766 030c 3863     		str	r0, [r7, #48]
 126:../../source/src/kernel/OS_CORE/message_queue.c **** 		//go back here=========go back here
 127:../../source/src/kernel/OS_CORE/message_queue.c **** 		CPU_CRITICAL_ENTER();//enter critical
 767              		.loc 2 127 0
 768 030e FFF7FEFF 		bl	CPU_SR_Save
 769 0312 7863     		str	r0, [r7, #52]
 128:../../source/src/kernel/OS_CORE/message_queue.c **** 		if(num <= 0)//prove that timeout happened
 770              		.loc 2 128 0
 771 0314 3B6B     		ldr	r3, [r7, #48]
 772 0316 002B     		cmp	r3, #0
 773 0318 13DC     		bgt	.L34
 129:../../source/src/kernel/OS_CORE/message_queue.c **** 		{
 130:../../source/src/kernel/OS_CORE/message_queue.c **** 			--(MQB_ptr->put_num);
 774              		.loc 2 130 0
 775 031a FB68     		ldr	r3, [r7, #12]
 776 031c 9B6B     		ldr	r3, [r3, #56]
 777 031e 5A1E     		subs	r2, r3, #1
 778 0320 FB68     		ldr	r3, [r7, #12]
 779 0322 9A63     		str	r2, [r3, #56]
 131:../../source/src/kernel/OS_CORE/message_queue.c **** 			insert_sort_delete_data(&MQB_ptr->message_array_insert_sort_put_TCB_list,OSTCBCurPtr);
 780              		.loc 2 131 0
 781 0324 FB68     		ldr	r3, [r7, #12]
 782 0326 03F12002 		add	r2, r3, #32
 783 032a 244B     		ldr	r3, .L38+12
 784 032c 1B68     		ldr	r3, [r3]
 785 032e 1946     		mov	r1, r3
 786 0330 1046     		mov	r0, r2
 787 0332 FFF7FEFF 		bl	insert_sort_delete_data
 132:../../source/src/kernel/OS_CORE/message_queue.c **** 			CPU_CRITICAL_EXIT(); //exit  critical
 788              		.loc 2 132 0
 789 0336 786B     		ldr	r0, [r7, #52]
 790 0338 FFF7FEFF 		bl	CPU_SR_Restore
 133:../../source/src/kernel/OS_CORE/message_queue.c **** 			return -MSG_OUT_OF_TIME;
 791              		.loc 2 133 0
 792 033c 6FF00103 		mvn	r3, #1
 793 0340 32E0     		b	.L37
 794              	.L34:
 795              	.LBE3:
 134:../../source/src/kernel/OS_CORE/message_queue.c **** 		}
 135:../../source/src/kernel/OS_CORE/message_queue.c **** 	}
 136:../../source/src/kernel/OS_CORE/message_queue.c **** 	if(TCB_state_is_bad(OSTCBCurPtr))
 796              		.loc 2 136 0
 797 0342 1E4B     		ldr	r3, .L38+12
 798 0344 1B68     		ldr	r3, [r3]
 799 0346 9B6B     		ldr	r3, [r3, #56]
 800 0348 03F00203 		and	r3, r3, #2
 801 034c 002B     		cmp	r3, #0
 802 034e 0DD0     		beq	.L35
 137:../../source/src/kernel/OS_CORE/message_queue.c **** 	{
 138:../../source/src/kernel/OS_CORE/message_queue.c **** 		clear_bad_state(OSTCBCurPtr);
 803              		.loc 2 138 0
 804 0350 1A4B     		ldr	r3, .L38+12
 805 0352 1B68     		ldr	r3, [r3]
 806 0354 9A6B     		ldr	r2, [r3, #56]
 807 0356 194B     		ldr	r3, .L38+12
 808 0358 1B68     		ldr	r3, [r3]
ARM GAS  G:\Users\Jaxb\AppData\Local\Temp\cchAS7Ki.s 			page 19


 809 035a 22F00202 		bic	r2, r2, #2
 810 035e 9A63     		str	r2, [r3, #56]
 139:../../source/src/kernel/OS_CORE/message_queue.c **** 		CPU_CRITICAL_EXIT();
 811              		.loc 2 139 0
 812 0360 786B     		ldr	r0, [r7, #52]
 813 0362 FFF7FEFF 		bl	CPU_SR_Restore
 140:../../source/src/kernel/OS_CORE/message_queue.c **** 		return -ERROR_MODULE_DELETED;
 814              		.loc 2 140 0
 815 0366 6FF0F903 		mvn	r3, #249
 816 036a 1DE0     		b	.L37
 817              	.L35:
 141:../../source/src/kernel/OS_CORE/message_queue.c **** 	}
 142:../../source/src/kernel/OS_CORE/message_queue.c **** 	--(MQB_ptr->put_num);
 818              		.loc 2 142 0
 819 036c FB68     		ldr	r3, [r7, #12]
 820 036e 9B6B     		ldr	r3, [r3, #56]
 821 0370 5A1E     		subs	r2, r3, #1
 822 0372 FB68     		ldr	r3, [r7, #12]
 823 0374 9A63     		str	r2, [r3, #56]
 143:../../source/src/kernel/OS_CORE/message_queue.c **** 	//add to tail
 144:../../source/src/kernel/OS_CORE/message_queue.c **** 	list_add_tail(&message_ptr->message_list,&MQB_ptr->message_list);
 824              		.loc 2 144 0
 825 0376 BB68     		ldr	r3, [r7, #8]
 826 0378 FA68     		ldr	r2, [r7, #12]
 827 037a 1146     		mov	r1, r2
 828 037c 1846     		mov	r0, r3
 829 037e FFF765FE 		bl	list_add_tail
 145:../../source/src/kernel/OS_CORE/message_queue.c **** 	++(MQB_ptr->current_message_num);
 830              		.loc 2 145 0
 831 0382 FB68     		ldr	r3, [r7, #12]
 832 0384 5B6C     		ldr	r3, [r3, #68]
 833 0386 5A1C     		adds	r2, r3, #1
 834 0388 FB68     		ldr	r3, [r7, #12]
 835 038a 5A64     		str	r2, [r3, #68]
 146:../../source/src/kernel/OS_CORE/message_queue.c **** 	ASSERT(MQB_ptr->current_message_num <= MQB_ptr->max_message_num);
 836              		.loc 2 146 0
 837 038c FB68     		ldr	r3, [r7, #12]
 838 038e 5A6C     		ldr	r2, [r3, #68]
 839 0390 FB68     		ldr	r3, [r7, #12]
 840 0392 9B6C     		ldr	r3, [r3, #72]
 841 0394 9A42     		cmp	r2, r3
 842 0396 03D9     		bls	.L36
 843              		.loc 2 146 0 is_stmt 0 discriminator 1
 844 0398 9221     		movs	r1, #146
 845 039a 0548     		ldr	r0, .L38
 846 039c FFF7FEFF 		bl	_ASSERT
 847              	.L36:
 147:../../source/src/kernel/OS_CORE/message_queue.c **** 	CPU_CRITICAL_EXIT();
 848              		.loc 2 147 0 is_stmt 1
 849 03a0 786B     		ldr	r0, [r7, #52]
 850 03a2 FFF7FEFF 		bl	CPU_SR_Restore
 148:../../source/src/kernel/OS_CORE/message_queue.c **** 	return FUN_EXECUTE_SUCCESSFULLY;
 851              		.loc 2 148 0
 852 03a6 0023     		movs	r3, #0
 853              	.L37:
 149:../../source/src/kernel/OS_CORE/message_queue.c **** }
 854              		.loc 2 149 0 discriminator 1
ARM GAS  G:\Users\Jaxb\AppData\Local\Temp\cchAS7Ki.s 			page 20


 855 03a8 1846     		mov	r0, r3
 856 03aa 3837     		adds	r7, r7, #56
 857              	.LCFI48:
 858              		.cfi_def_cfa_offset 8
 859 03ac BD46     		mov	sp, r7
 860              	.LCFI49:
 861              		.cfi_def_cfa_register 13
 862              		@ sp needed
 863 03ae 80BD     		pop	{r7, pc}
 864              	.L39:
 865              		.align	2
 866              	.L38:
 867 03b0 00000000 		.word	.LC0
 868 03b4 98000000 		.word	.LC3
 869 03b8 C8000000 		.word	.LC4
 870 03bc 00000000 		.word	OSTCBCurPtr
 871              		.cfi_endproc
 872              	.LFE16:
 873              		.size	msg_send, .-msg_send
 874              		.global	__rtmsym_msg_send_name
 875              		.section	.rodata.name
 876 0009 000000   		.align	2
 877              		.type	__rtmsym_msg_send_name, %object
 878              		.size	__rtmsym_msg_send_name, 9
 879              	__rtmsym_msg_send_name:
 880 000c 6D73675F 		.ascii	"msg_send\000"
 880      73656E64 
 880      00
 881              		.global	__rtmsym_msg_send
 882              		.section	.RTMSymTab
 883              		.align	2
 884              		.type	__rtmsym_msg_send, %object
 885              		.size	__rtmsym_msg_send, 8
 886              	__rtmsym_msg_send:
 887 0008 00000000 		.word	msg_send
 888 000c 00000000 		.word	__rtmsym_msg_send_name
 889              		.section	.rodata
 890              		.align	2
 891              	.LC5:
 892 0100 6572726F 		.ascii	"error fun name : msg_receive\012error para : MQB_pt"
 892      72206675 
 892      6E206E61 
 892      6D65203A 
 892      206D7367 
 893 0130 720A00   		.ascii	"r\012\000"
 894 0133 00       		.align	2
 895              	.LC6:
 896 0134 6572726F 		.ascii	"error fun name : msg_receive\012error para : max_me"
 896      72206675 
 896      6E206E61 
 896      6D65203A 
 896      206D7367 
 897 0164 73736167 		.ascii	"ssage_num\012\000"
 897      655F6E75 
 897      6D0A00
 898              		.text
 899              		.align	1
ARM GAS  G:\Users\Jaxb\AppData\Local\Temp\cchAS7Ki.s 			page 21


 900              		.global	msg_receive
 901              		.syntax unified
 902              		.thumb
 903              		.thumb_func
 904              		.fpu softvfp
 905              		.type	msg_receive, %function
 906              	msg_receive:
 907              	.LFB17:
 150:../../source/src/kernel/OS_CORE/message_queue.c **** EXPORT_SYMBOL(msg_send);
 151:../../source/src/kernel/OS_CORE/message_queue.c **** 
 152:../../source/src/kernel/OS_CORE/message_queue.c **** int msg_receive(MQB *MQB_ptr,struct message **message_ptr,MSG_FLAG flag,unsigned int time)
 153:../../source/src/kernel/OS_CORE/message_queue.c **** {
 908              		.loc 2 153 0
 909              		.cfi_startproc
 910              		@ args = 0, pretend = 0, frame = 64
 911              		@ frame_needed = 1, uses_anonymous_args = 0
 912 03c0 80B5     		push	{r7, lr}
 913              	.LCFI50:
 914              		.cfi_def_cfa_offset 8
 915              		.cfi_offset 7, -8
 916              		.cfi_offset 14, -4
 917 03c2 90B0     		sub	sp, sp, #64
 918              	.LCFI51:
 919              		.cfi_def_cfa_offset 72
 920 03c4 00AF     		add	r7, sp, #0
 921              	.LCFI52:
 922              		.cfi_def_cfa_register 7
 923 03c6 F860     		str	r0, [r7, #12]
 924 03c8 B960     		str	r1, [r7, #8]
 925 03ca 3B60     		str	r3, [r7]
 926 03cc 1346     		mov	r3, r2
 927 03ce FB71     		strb	r3, [r7, #7]
 154:../../source/src/kernel/OS_CORE/message_queue.c **** 	ASSERT(NULL != MQB_ptr);
 928              		.loc 2 154 0
 929 03d0 FB68     		ldr	r3, [r7, #12]
 930 03d2 002B     		cmp	r3, #0
 931 03d4 03D1     		bne	.L41
 932              		.loc 2 154 0 is_stmt 0 discriminator 1
 933 03d6 9A21     		movs	r1, #154
 934 03d8 7C48     		ldr	r0, .L60
 935 03da FFF7FEFF 		bl	_ASSERT
 936              	.L41:
 155:../../source/src/kernel/OS_CORE/message_queue.c **** 	ASSERT(NULL != message_ptr);
 937              		.loc 2 155 0 is_stmt 1
 938 03de BB68     		ldr	r3, [r7, #8]
 939 03e0 002B     		cmp	r3, #0
 940 03e2 03D1     		bne	.L42
 941              		.loc 2 155 0 is_stmt 0 discriminator 1
 942 03e4 9B21     		movs	r1, #155
 943 03e6 7948     		ldr	r0, .L60
 944 03e8 FFF7FEFF 		bl	_ASSERT
 945              	.L42:
 156:../../source/src/kernel/OS_CORE/message_queue.c **** #if CONFIG_PARA_CHECK
 157:../../source/src/kernel/OS_CORE/message_queue.c **** 	if((NULL == MQB_ptr) || (NULL == message_ptr))
 946              		.loc 2 157 0 is_stmt 1
 947 03ec FB68     		ldr	r3, [r7, #12]
 948 03ee 002B     		cmp	r3, #0
ARM GAS  G:\Users\Jaxb\AppData\Local\Temp\cchAS7Ki.s 			page 22


 949 03f0 02D0     		beq	.L43
 950              		.loc 2 157 0 is_stmt 0 discriminator 1
 951 03f2 BB68     		ldr	r3, [r7, #8]
 952 03f4 002B     		cmp	r3, #0
 953 03f6 08D1     		bne	.L44
 954              	.L43:
 158:../../source/src/kernel/OS_CORE/message_queue.c **** 	{
 159:../../source/src/kernel/OS_CORE/message_queue.c **** 		OS_ERROR_PARA_MESSAGE_DISPLAY(msg_receive,MQB_ptr);
 955              		.loc 2 159 0 is_stmt 1
 956 03f8 7548     		ldr	r0, .L60+4
 957 03fa FFF7FEFF 		bl	ka_printf
 160:../../source/src/kernel/OS_CORE/message_queue.c **** 		OS_ERROR_PARA_MESSAGE_DISPLAY(msg_receive,max_message_num);
 958              		.loc 2 160 0
 959 03fe 7548     		ldr	r0, .L60+8
 960 0400 FFF7FEFF 		bl	ka_printf
 161:../../source/src/kernel/OS_CORE/message_queue.c **** 		return -ERROR_NULL_INPUT_PTR;
 961              		.loc 2 161 0
 962 0404 6FF0FE03 		mvn	r3, #254
 963 0408 DCE0     		b	.L59
 964              	.L44:
 162:../../source/src/kernel/OS_CORE/message_queue.c **** 	}
 163:../../source/src/kernel/OS_CORE/message_queue.c **** #endif
 164:../../source/src/kernel/OS_CORE/message_queue.c **** 	CPU_SR_ALLOC();
 965              		.loc 2 164 0
 966 040a 0023     		movs	r3, #0
 967 040c FB63     		str	r3, [r7, #60]
 165:../../source/src/kernel/OS_CORE/message_queue.c **** 	CPU_CRITICAL_ENTER();
 968              		.loc 2 165 0
 969 040e FFF7FEFF 		bl	CPU_SR_Save
 970 0412 F863     		str	r0, [r7, #60]
 166:../../source/src/kernel/OS_CORE/message_queue.c **** 	if (g_interrupt_count > 0)
 971              		.loc 2 166 0
 972 0414 704B     		ldr	r3, .L60+12
 973 0416 1B68     		ldr	r3, [r3]
 974 0418 002B     		cmp	r3, #0
 975 041a 05DD     		ble	.L46
 167:../../source/src/kernel/OS_CORE/message_queue.c **** 	{
 168:../../source/src/kernel/OS_CORE/message_queue.c **** 		CPU_CRITICAL_EXIT();
 976              		.loc 2 168 0
 977 041c F86B     		ldr	r0, [r7, #60]
 978 041e FFF7FEFF 		bl	CPU_SR_Restore
 169:../../source/src/kernel/OS_CORE/message_queue.c **** 		return -ERROR_FUN_USE_IN_INTER;
 979              		.loc 2 169 0
 980 0422 6FF0FC03 		mvn	r3, #252
 981 0426 CDE0     		b	.L59
 982              	.L46:
 170:../../source/src/kernel/OS_CORE/message_queue.c **** 	}
 171:../../source/src/kernel/OS_CORE/message_queue.c **** 	if(0 < MQB_ptr->current_message_num)
 983              		.loc 2 171 0
 984 0428 FB68     		ldr	r3, [r7, #12]
 985 042a 5B6C     		ldr	r3, [r3, #68]
 986 042c 002B     		cmp	r3, #0
 987 042e 3DD0     		beq	.L47
 172:../../source/src/kernel/OS_CORE/message_queue.c **** 	{
 173:../../source/src/kernel/OS_CORE/message_queue.c **** 		--(MQB_ptr->current_message_num);
 988              		.loc 2 173 0
 989 0430 FB68     		ldr	r3, [r7, #12]
ARM GAS  G:\Users\Jaxb\AppData\Local\Temp\cchAS7Ki.s 			page 23


 990 0432 5B6C     		ldr	r3, [r3, #68]
 991 0434 5A1E     		subs	r2, r3, #1
 992 0436 FB68     		ldr	r3, [r7, #12]
 993 0438 5A64     		str	r2, [r3, #68]
 994              	.LBB4:
 174:../../source/src/kernel/OS_CORE/message_queue.c **** 		//get the first message
 175:../../source/src/kernel/OS_CORE/message_queue.c **** 		*message_ptr = list_entry(MQB_ptr->message_list.next,struct message,message_list);
 995              		.loc 2 175 0
 996 043a FB68     		ldr	r3, [r7, #12]
 997 043c 1B68     		ldr	r3, [r3]
 998 043e 3B63     		str	r3, [r7, #48]
 999 0440 3A6B     		ldr	r2, [r7, #48]
 1000              	.LBE4:
 1001 0442 BB68     		ldr	r3, [r7, #8]
 1002 0444 1A60     		str	r2, [r3]
 176:../../source/src/kernel/OS_CORE/message_queue.c **** 		//detatch it from list
 177:../../source/src/kernel/OS_CORE/message_queue.c **** 		list_del(&(*message_ptr)->message_list);
 1003              		.loc 2 177 0
 1004 0446 BB68     		ldr	r3, [r7, #8]
 1005 0448 1B68     		ldr	r3, [r3]
 1006 044a 1846     		mov	r0, r3
 1007 044c FFF71EFE 		bl	list_del
 178:../../source/src/kernel/OS_CORE/message_queue.c **** 		//then check if there is a task waiting for sending
 179:../../source/src/kernel/OS_CORE/message_queue.c **** 		if(MQB_ptr->put_num)
 1008              		.loc 2 179 0
 1009 0450 FB68     		ldr	r3, [r7, #12]
 1010 0452 9B6B     		ldr	r3, [r3, #56]
 1011 0454 002B     		cmp	r3, #0
 1012 0456 24D0     		beq	.L48
 1013              	.LBB5:
 180:../../source/src/kernel/OS_CORE/message_queue.c **** 		{
 181:../../source/src/kernel/OS_CORE/message_queue.c **** 			struct insert_sort_data *insert_sort_data_ptr;
 182:../../source/src/kernel/OS_CORE/message_queue.c **** 			TCB *TCB_ptr;
 183:../../source/src/kernel/OS_CORE/message_queue.c **** 			insert_sort_data_ptr = insert_sort_delete_head(&MQB_ptr->message_array_insert_sort_put_TCB_list)
 1014              		.loc 2 183 0
 1015 0458 FB68     		ldr	r3, [r7, #12]
 1016 045a 2033     		adds	r3, r3, #32
 1017 045c 1846     		mov	r0, r3
 1018 045e FFF7FEFF 		bl	insert_sort_delete_head
 1019 0462 F862     		str	r0, [r7, #44]
 184:../../source/src/kernel/OS_CORE/message_queue.c **** 			ASSERT(NULL != insert_sort_data_ptr);
 1020              		.loc 2 184 0
 1021 0464 FB6A     		ldr	r3, [r7, #44]
 1022 0466 002B     		cmp	r3, #0
 1023 0468 03D1     		bne	.L49
 1024              		.loc 2 184 0 is_stmt 0 discriminator 1
 1025 046a B821     		movs	r1, #184
 1026 046c 5748     		ldr	r0, .L60
 1027 046e FFF7FEFF 		bl	_ASSERT
 1028              	.L49:
 185:../../source/src/kernel/OS_CORE/message_queue.c **** 			TCB_ptr = (TCB *)(insert_sort_data_ptr->data_ptr);
 1029              		.loc 2 185 0 is_stmt 1
 1030 0472 FB6A     		ldr	r3, [r7, #44]
 1031 0474 1B68     		ldr	r3, [r3]
 1032 0476 BB62     		str	r3, [r7, #40]
 186:../../source/src/kernel/OS_CORE/message_queue.c **** 			if(STATE_PUT_MESSAGE_QUEUE_FOREVER == TCB_ptr->task_state)
 1033              		.loc 2 186 0
ARM GAS  G:\Users\Jaxb\AppData\Local\Temp\cchAS7Ki.s 			page 24


 1034 0478 BB6A     		ldr	r3, [r7, #40]
 1035 047a 1B7C     		ldrb	r3, [r3, #16]	@ zero_extendqisi2
 1036 047c 082B     		cmp	r3, #8
 1037 047e 03D1     		bne	.L50
 187:../../source/src/kernel/OS_CORE/message_queue.c **** 			{
 188:../../source/src/kernel/OS_CORE/message_queue.c **** 				remove_from_suspend_list(TCB_ptr);
 1038              		.loc 2 188 0
 1039 0480 B86A     		ldr	r0, [r7, #40]
 1040 0482 FFF7FEFF 		bl	remove_from_suspend_list
 1041 0486 0AE0     		b	.L51
 1042              	.L50:
 189:../../source/src/kernel/OS_CORE/message_queue.c **** 			}
 190:../../source/src/kernel/OS_CORE/message_queue.c **** 			else
 191:../../source/src/kernel/OS_CORE/message_queue.c **** 			{
 192:../../source/src/kernel/OS_CORE/message_queue.c **** 				ASSERT(STATE_PUT_MESSAGE_QUEUE_TIMEOUT == TCB_ptr->task_state);
 1043              		.loc 2 192 0
 1044 0488 BB6A     		ldr	r3, [r7, #40]
 1045 048a 1B7C     		ldrb	r3, [r3, #16]	@ zero_extendqisi2
 1046 048c 092B     		cmp	r3, #9
 1047 048e 03D0     		beq	.L52
 1048              		.loc 2 192 0 is_stmt 0 discriminator 1
 1049 0490 C021     		movs	r1, #192
 1050 0492 4E48     		ldr	r0, .L60
 1051 0494 FFF7FEFF 		bl	_ASSERT
 1052              	.L52:
 193:../../source/src/kernel/OS_CORE/message_queue.c **** 				remove_from_delay_heap(TCB_ptr);
 1053              		.loc 2 193 0 is_stmt 1
 1054 0498 B86A     		ldr	r0, [r7, #40]
 1055 049a FFF7FEFF 		bl	remove_from_delay_heap
 1056              	.L51:
 194:../../source/src/kernel/OS_CORE/message_queue.c **** 			}
 195:../../source/src/kernel/OS_CORE/message_queue.c **** 			schedule();
 1057              		.loc 2 195 0
 1058 049e FFF7FEFF 		bl	schedule
 1059              	.L48:
 1060              	.LBE5:
 196:../../source/src/kernel/OS_CORE/message_queue.c **** 		}
 197:../../source/src/kernel/OS_CORE/message_queue.c **** 		CPU_CRITICAL_EXIT();
 1061              		.loc 2 197 0
 1062 04a2 F86B     		ldr	r0, [r7, #60]
 1063 04a4 FFF7FEFF 		bl	CPU_SR_Restore
 198:../../source/src/kernel/OS_CORE/message_queue.c **** 		return FUN_EXECUTE_SUCCESSFULLY;
 1064              		.loc 2 198 0
 1065 04a8 0023     		movs	r3, #0
 1066 04aa 8BE0     		b	.L59
 1067              	.L47:
 199:../../source/src/kernel/OS_CORE/message_queue.c **** 	}
 200:../../source/src/kernel/OS_CORE/message_queue.c **** 	// else : MQB_ptr->current_message_num == 0
 201:../../source/src/kernel/OS_CORE/message_queue.c **** 	ASSERT(0 == MQB_ptr->current_message_num);
 1068              		.loc 2 201 0
 1069 04ac FB68     		ldr	r3, [r7, #12]
 1070 04ae 5B6C     		ldr	r3, [r3, #68]
 1071 04b0 002B     		cmp	r3, #0
 1072 04b2 03D0     		beq	.L53
 1073              		.loc 2 201 0 is_stmt 0 discriminator 1
 1074 04b4 C921     		movs	r1, #201
 1075 04b6 4548     		ldr	r0, .L60
ARM GAS  G:\Users\Jaxb\AppData\Local\Temp\cchAS7Ki.s 			page 25


 1076 04b8 FFF7FEFF 		bl	_ASSERT
 1077              	.L53:
 202:../../source/src/kernel/OS_CORE/message_queue.c **** 	if(MSG_FLAG_NON_BLOCKING == flag)
 1078              		.loc 2 202 0 is_stmt 1
 1079 04bc FB79     		ldrb	r3, [r7, #7]	@ zero_extendqisi2
 1080 04be 012B     		cmp	r3, #1
 1081 04c0 05D1     		bne	.L54
 203:../../source/src/kernel/OS_CORE/message_queue.c **** 	{
 204:../../source/src/kernel/OS_CORE/message_queue.c **** 		CPU_CRITICAL_EXIT();
 1082              		.loc 2 204 0
 1083 04c2 F86B     		ldr	r0, [r7, #60]
 1084 04c4 FFF7FEFF 		bl	CPU_SR_Restore
 205:../../source/src/kernel/OS_CORE/message_queue.c **** 		return -ERROR_MSG_FULL;
 1085              		.loc 2 205 0
 1086 04c8 4FF0FF33 		mov	r3, #-1
 1087 04cc 7AE0     		b	.L59
 1088              	.L54:
 206:../../source/src/kernel/OS_CORE/message_queue.c **** 	}
 207:../../source/src/kernel/OS_CORE/message_queue.c **** 	// else : flag == FLAG_WAIT
 208:../../source/src/kernel/OS_CORE/message_queue.c **** 	DECLEAR_INSERT_SORT_DATA(data);
 209:../../source/src/kernel/OS_CORE/message_queue.c **** 	init_insert_sort_data(&data,OSTCBCurPtr);
 1089              		.loc 2 209 0
 1090 04ce 434B     		ldr	r3, .L60+16
 1091 04d0 1A68     		ldr	r2, [r3]
 1092 04d2 07F11003 		add	r3, r7, #16
 1093 04d6 1146     		mov	r1, r2
 1094 04d8 1846     		mov	r0, r3
 1095 04da FFF7FEFF 		bl	init_insert_sort_data
 210:../../source/src/kernel/OS_CORE/message_queue.c **** 	insert_sort_insert_into(&data,&MQB_ptr->message_array_insert_sort_wait_TCB_list);
 1096              		.loc 2 210 0
 1097 04de FB68     		ldr	r3, [r7, #12]
 1098 04e0 03F10802 		add	r2, r3, #8
 1099 04e4 07F11003 		add	r3, r7, #16
 1100 04e8 1146     		mov	r1, r2
 1101 04ea 1846     		mov	r0, r3
 1102 04ec FFF7FEFF 		bl	insert_sort_insert_into
 211:../../source/src/kernel/OS_CORE/message_queue.c **** 	++(MQB_ptr->wait_num);
 1103              		.loc 2 211 0
 1104 04f0 FB68     		ldr	r3, [r7, #12]
 1105 04f2 DB6B     		ldr	r3, [r3, #60]
 1106 04f4 5A1C     		adds	r2, r3, #1
 1107 04f6 FB68     		ldr	r3, [r7, #12]
 1108 04f8 DA63     		str	r2, [r3, #60]
 212:../../source/src/kernel/OS_CORE/message_queue.c **** 	if(0 == time)
 1109              		.loc 2 212 0
 1110 04fa 3B68     		ldr	r3, [r7]
 1111 04fc 002B     		cmp	r3, #0
 1112 04fe 09D1     		bne	.L55
 213:../../source/src/kernel/OS_CORE/message_queue.c **** 	{
 214:../../source/src/kernel/OS_CORE/message_queue.c **** 		CPU_CRITICAL_EXIT(); //exit  critical
 1113              		.loc 2 214 0
 1114 0500 F86B     		ldr	r0, [r7, #60]
 1115 0502 FFF7FEFF 		bl	CPU_SR_Restore
 215:../../source/src/kernel/OS_CORE/message_queue.c **** 		sys_suspend(STATE_WAIT_MESSAGE_QUEUE_FOREVER);
 1116              		.loc 2 215 0
 1117 0506 0620     		movs	r0, #6
 1118 0508 FFF7FEFF 		bl	sys_suspend
ARM GAS  G:\Users\Jaxb\AppData\Local\Temp\cchAS7Ki.s 			page 26


 216:../../source/src/kernel/OS_CORE/message_queue.c **** 		//go back here=========go back here
 217:../../source/src/kernel/OS_CORE/message_queue.c **** 		CPU_CRITICAL_ENTER();
 1119              		.loc 2 217 0
 1120 050c FFF7FEFF 		bl	CPU_SR_Save
 1121 0510 F863     		str	r0, [r7, #60]
 1122 0512 21E0     		b	.L56
 1123              	.L55:
 1124              	.LBB6:
 218:../../source/src/kernel/OS_CORE/message_queue.c **** 	}
 219:../../source/src/kernel/OS_CORE/message_queue.c **** 	else
 220:../../source/src/kernel/OS_CORE/message_queue.c **** 	{
 221:../../source/src/kernel/OS_CORE/message_queue.c **** 		CPU_CRITICAL_EXIT(); //exit  critical
 1125              		.loc 2 221 0
 1126 0514 F86B     		ldr	r0, [r7, #60]
 1127 0516 FFF7FEFF 		bl	CPU_SR_Restore
 222:../../source/src/kernel/OS_CORE/message_queue.c **** 		int num = sys_delay(time,STATE_WAIT_MESSAGE_QUEUE_TIMEOUT);
 1128              		.loc 2 222 0
 1129 051a 0721     		movs	r1, #7
 1130 051c 3868     		ldr	r0, [r7]
 1131 051e FFF7FEFF 		bl	sys_delay
 1132 0522 B863     		str	r0, [r7, #56]
 223:../../source/src/kernel/OS_CORE/message_queue.c **** 		//go back here=========go back here
 224:../../source/src/kernel/OS_CORE/message_queue.c **** 		CPU_CRITICAL_ENTER();//enter critical
 1133              		.loc 2 224 0
 1134 0524 FFF7FEFF 		bl	CPU_SR_Save
 1135 0528 F863     		str	r0, [r7, #60]
 225:../../source/src/kernel/OS_CORE/message_queue.c **** 		if(num <= 0)//prove that timeout happened
 1136              		.loc 2 225 0
 1137 052a BB6B     		ldr	r3, [r7, #56]
 1138 052c 002B     		cmp	r3, #0
 1139 052e 13DC     		bgt	.L56
 226:../../source/src/kernel/OS_CORE/message_queue.c **** 		{
 227:../../source/src/kernel/OS_CORE/message_queue.c **** 			--(MQB_ptr->wait_num);
 1140              		.loc 2 227 0
 1141 0530 FB68     		ldr	r3, [r7, #12]
 1142 0532 DB6B     		ldr	r3, [r3, #60]
 1143 0534 5A1E     		subs	r2, r3, #1
 1144 0536 FB68     		ldr	r3, [r7, #12]
 1145 0538 DA63     		str	r2, [r3, #60]
 228:../../source/src/kernel/OS_CORE/message_queue.c **** 			insert_sort_delete_data(&MQB_ptr->message_array_insert_sort_wait_TCB_list,OSTCBCurPtr);
 1146              		.loc 2 228 0
 1147 053a FB68     		ldr	r3, [r7, #12]
 1148 053c 03F10802 		add	r2, r3, #8
 1149 0540 264B     		ldr	r3, .L60+16
 1150 0542 1B68     		ldr	r3, [r3]
 1151 0544 1946     		mov	r1, r3
 1152 0546 1046     		mov	r0, r2
 1153 0548 FFF7FEFF 		bl	insert_sort_delete_data
 229:../../source/src/kernel/OS_CORE/message_queue.c **** 			CPU_CRITICAL_EXIT(); //exit  critical
 1154              		.loc 2 229 0
 1155 054c F86B     		ldr	r0, [r7, #60]
 1156 054e FFF7FEFF 		bl	CPU_SR_Restore
 230:../../source/src/kernel/OS_CORE/message_queue.c **** 			return -MSG_OUT_OF_TIME;
 1157              		.loc 2 230 0
 1158 0552 6FF00103 		mvn	r3, #1
 1159 0556 35E0     		b	.L59
 1160              	.L56:
ARM GAS  G:\Users\Jaxb\AppData\Local\Temp\cchAS7Ki.s 			page 27


 1161              	.LBE6:
 231:../../source/src/kernel/OS_CORE/message_queue.c **** 		}
 232:../../source/src/kernel/OS_CORE/message_queue.c **** 	}
 233:../../source/src/kernel/OS_CORE/message_queue.c **** 	if(TCB_state_is_bad(OSTCBCurPtr))
 1162              		.loc 2 233 0
 1163 0558 204B     		ldr	r3, .L60+16
 1164 055a 1B68     		ldr	r3, [r3]
 1165 055c 9B6B     		ldr	r3, [r3, #56]
 1166 055e 03F00203 		and	r3, r3, #2
 1167 0562 002B     		cmp	r3, #0
 1168 0564 0DD0     		beq	.L57
 234:../../source/src/kernel/OS_CORE/message_queue.c **** 	{
 235:../../source/src/kernel/OS_CORE/message_queue.c **** 		clear_bad_state(OSTCBCurPtr);
 1169              		.loc 2 235 0
 1170 0566 1D4B     		ldr	r3, .L60+16
 1171 0568 1B68     		ldr	r3, [r3]
 1172 056a 9A6B     		ldr	r2, [r3, #56]
 1173 056c 1B4B     		ldr	r3, .L60+16
 1174 056e 1B68     		ldr	r3, [r3]
 1175 0570 22F00202 		bic	r2, r2, #2
 1176 0574 9A63     		str	r2, [r3, #56]
 236:../../source/src/kernel/OS_CORE/message_queue.c **** 		CPU_CRITICAL_EXIT();
 1177              		.loc 2 236 0
 1178 0576 F86B     		ldr	r0, [r7, #60]
 1179 0578 FFF7FEFF 		bl	CPU_SR_Restore
 237:../../source/src/kernel/OS_CORE/message_queue.c **** 		return -ERROR_MODULE_DELETED;
 1180              		.loc 2 237 0
 1181 057c 6FF0F903 		mvn	r3, #249
 1182 0580 20E0     		b	.L59
 1183              	.L57:
 238:../../source/src/kernel/OS_CORE/message_queue.c **** 	}
 239:../../source/src/kernel/OS_CORE/message_queue.c **** 	--(MQB_ptr->wait_num);
 1184              		.loc 2 239 0
 1185 0582 FB68     		ldr	r3, [r7, #12]
 1186 0584 DB6B     		ldr	r3, [r3, #60]
 1187 0586 5A1E     		subs	r2, r3, #1
 1188 0588 FB68     		ldr	r3, [r7, #12]
 1189 058a DA63     		str	r2, [r3, #60]
 240:../../source/src/kernel/OS_CORE/message_queue.c **** 	ASSERT(MQB_ptr->current_message_num > 0);
 1190              		.loc 2 240 0
 1191 058c FB68     		ldr	r3, [r7, #12]
 1192 058e 5B6C     		ldr	r3, [r3, #68]
 1193 0590 002B     		cmp	r3, #0
 1194 0592 03D1     		bne	.L58
 1195              		.loc 2 240 0 is_stmt 0 discriminator 1
 1196 0594 F021     		movs	r1, #240
 1197 0596 0D48     		ldr	r0, .L60
 1198 0598 FFF7FEFF 		bl	_ASSERT
 1199              	.L58:
 241:../../source/src/kernel/OS_CORE/message_queue.c **** 	--(MQB_ptr->current_message_num);
 1200              		.loc 2 241 0 is_stmt 1
 1201 059c FB68     		ldr	r3, [r7, #12]
 1202 059e 5B6C     		ldr	r3, [r3, #68]
 1203 05a0 5A1E     		subs	r2, r3, #1
 1204 05a2 FB68     		ldr	r3, [r7, #12]
 1205 05a4 5A64     		str	r2, [r3, #68]
 1206              	.LBB7:
ARM GAS  G:\Users\Jaxb\AppData\Local\Temp\cchAS7Ki.s 			page 28


 242:../../source/src/kernel/OS_CORE/message_queue.c **** 	//get the first message
 243:../../source/src/kernel/OS_CORE/message_queue.c **** 	*message_ptr = list_entry(MQB_ptr->message_list.next,struct message,message_list);
 1207              		.loc 2 243 0
 1208 05a6 FB68     		ldr	r3, [r7, #12]
 1209 05a8 1B68     		ldr	r3, [r3]
 1210 05aa 7B63     		str	r3, [r7, #52]
 1211 05ac 7A6B     		ldr	r2, [r7, #52]
 1212              	.LBE7:
 1213 05ae BB68     		ldr	r3, [r7, #8]
 1214 05b0 1A60     		str	r2, [r3]
 244:../../source/src/kernel/OS_CORE/message_queue.c **** 	//detatch it from list
 245:../../source/src/kernel/OS_CORE/message_queue.c **** 	list_del(&(*message_ptr)->message_list);
 1215              		.loc 2 245 0
 1216 05b2 BB68     		ldr	r3, [r7, #8]
 1217 05b4 1B68     		ldr	r3, [r3]
 1218 05b6 1846     		mov	r0, r3
 1219 05b8 FFF768FD 		bl	list_del
 246:../../source/src/kernel/OS_CORE/message_queue.c **** 	CPU_CRITICAL_EXIT();
 1220              		.loc 2 246 0
 1221 05bc F86B     		ldr	r0, [r7, #60]
 1222 05be FFF7FEFF 		bl	CPU_SR_Restore
 247:../../source/src/kernel/OS_CORE/message_queue.c **** 	return FUN_EXECUTE_SUCCESSFULLY;
 1223              		.loc 2 247 0
 1224 05c2 0023     		movs	r3, #0
 1225              	.L59:
 248:../../source/src/kernel/OS_CORE/message_queue.c **** }
 1226              		.loc 2 248 0 discriminator 1
 1227 05c4 1846     		mov	r0, r3
 1228 05c6 4037     		adds	r7, r7, #64
 1229              	.LCFI53:
 1230              		.cfi_def_cfa_offset 8
 1231 05c8 BD46     		mov	sp, r7
 1232              	.LCFI54:
 1233              		.cfi_def_cfa_register 13
 1234              		@ sp needed
 1235 05ca 80BD     		pop	{r7, pc}
 1236              	.L61:
 1237              		.align	2
 1238              	.L60:
 1239 05cc 00000000 		.word	.LC0
 1240 05d0 00010000 		.word	.LC5
 1241 05d4 34010000 		.word	.LC6
 1242 05d8 00000000 		.word	g_interrupt_count
 1243 05dc 00000000 		.word	OSTCBCurPtr
 1244              		.cfi_endproc
 1245              	.LFE17:
 1246              		.size	msg_receive, .-msg_receive
 1247              		.global	__rtmsym_msg_receive_name
 1248              		.section	.rodata.name
 1249 0015 000000   		.align	2
 1250              		.type	__rtmsym_msg_receive_name, %object
 1251              		.size	__rtmsym_msg_receive_name, 12
 1252              	__rtmsym_msg_receive_name:
 1253 0018 6D73675F 		.ascii	"msg_receive\000"
 1253      72656365 
 1253      69766500 
 1254              		.global	__rtmsym_msg_receive
ARM GAS  G:\Users\Jaxb\AppData\Local\Temp\cchAS7Ki.s 			page 29


 1255              		.section	.RTMSymTab
 1256              		.align	2
 1257              		.type	__rtmsym_msg_receive, %object
 1258              		.size	__rtmsym_msg_receive, 8
 1259              	__rtmsym_msg_receive:
 1260 0010 00000000 		.word	msg_receive
 1261 0014 00000000 		.word	__rtmsym_msg_receive_name
 1262              		.section	.rodata
 1263 016f 00       		.align	2
 1264              	.LC7:
 1265 0170 6572726F 		.ascii	"error fun name : msg_del\012error para : MQB_ptr\012"
 1265      72206675 
 1265      6E206E61 
 1265      6D65203A 
 1265      206D7367 
 1266 019e 00       		.ascii	"\000"
 1267              		.text
 1268              		.align	1
 1269              		.global	msg_del
 1270              		.syntax unified
 1271              		.thumb
 1272              		.thumb_func
 1273              		.fpu softvfp
 1274              		.type	msg_del, %function
 1275              	msg_del:
 1276              	.LFB18:
 249:../../source/src/kernel/OS_CORE/message_queue.c **** EXPORT_SYMBOL(msg_receive);
 250:../../source/src/kernel/OS_CORE/message_queue.c **** 
 251:../../source/src/kernel/OS_CORE/message_queue.c **** int msg_del(MQB *MQB_ptr)
 252:../../source/src/kernel/OS_CORE/message_queue.c **** {
 1277              		.loc 2 252 0
 1278              		.cfi_startproc
 1279              		@ args = 0, pretend = 0, frame = 16
 1280              		@ frame_needed = 1, uses_anonymous_args = 0
 1281 05e0 80B5     		push	{r7, lr}
 1282              	.LCFI55:
 1283              		.cfi_def_cfa_offset 8
 1284              		.cfi_offset 7, -8
 1285              		.cfi_offset 14, -4
 1286 05e2 84B0     		sub	sp, sp, #16
 1287              	.LCFI56:
 1288              		.cfi_def_cfa_offset 24
 1289 05e4 00AF     		add	r7, sp, #0
 1290              	.LCFI57:
 1291              		.cfi_def_cfa_register 7
 1292 05e6 7860     		str	r0, [r7, #4]
 253:../../source/src/kernel/OS_CORE/message_queue.c **** 	ASSERT(NULL != MQB_ptr);
 1293              		.loc 2 253 0
 1294 05e8 7B68     		ldr	r3, [r7, #4]
 1295 05ea 002B     		cmp	r3, #0
 1296 05ec 03D1     		bne	.L63
 1297              		.loc 2 253 0 is_stmt 0 discriminator 1
 1298 05ee FD21     		movs	r1, #253
 1299 05f0 3548     		ldr	r0, .L76
 1300 05f2 FFF7FEFF 		bl	_ASSERT
 1301              	.L63:
 254:../../source/src/kernel/OS_CORE/message_queue.c **** #if CONFIG_PARA_CHECK
ARM GAS  G:\Users\Jaxb\AppData\Local\Temp\cchAS7Ki.s 			page 30


 255:../../source/src/kernel/OS_CORE/message_queue.c **** 	if(NULL == MQB_ptr)
 1302              		.loc 2 255 0 is_stmt 1
 1303 05f6 7B68     		ldr	r3, [r7, #4]
 1304 05f8 002B     		cmp	r3, #0
 1305 05fa 05D1     		bne	.L64
 256:../../source/src/kernel/OS_CORE/message_queue.c **** 	{
 257:../../source/src/kernel/OS_CORE/message_queue.c **** 		OS_ERROR_PARA_MESSAGE_DISPLAY(msg_del,MQB_ptr);
 1306              		.loc 2 257 0
 1307 05fc 3348     		ldr	r0, .L76+4
 1308 05fe FFF7FEFF 		bl	ka_printf
 258:../../source/src/kernel/OS_CORE/message_queue.c **** 		return -ERROR_NULL_INPUT_PTR;
 1309              		.loc 2 258 0
 1310 0602 6FF0FE03 		mvn	r3, #254
 1311 0606 5AE0     		b	.L65
 1312              	.L64:
 259:../../source/src/kernel/OS_CORE/message_queue.c **** 	}
 260:../../source/src/kernel/OS_CORE/message_queue.c **** #endif
 261:../../source/src/kernel/OS_CORE/message_queue.c **** 	TCB *TCB_ptr;
 262:../../source/src/kernel/OS_CORE/message_queue.c **** 	struct insert_sort_data *insert_sort_data_ptr = insert_sort_delete_head(&MQB_ptr->message_array_in
 1313              		.loc 2 262 0
 1314 0608 7B68     		ldr	r3, [r7, #4]
 1315 060a 0833     		adds	r3, r3, #8
 1316 060c 1846     		mov	r0, r3
 1317 060e FFF7FEFF 		bl	insert_sort_delete_head
 1318 0612 F860     		str	r0, [r7, #12]
 263:../../source/src/kernel/OS_CORE/message_queue.c **** 	while(NULL != insert_sort_data_ptr)
 1319              		.loc 2 263 0
 1320 0614 22E0     		b	.L66
 1321              	.L70:
 264:../../source/src/kernel/OS_CORE/message_queue.c **** 	{
 265:../../source/src/kernel/OS_CORE/message_queue.c **** 		TCB_ptr = (TCB *)(insert_sort_data_ptr->data_ptr);
 1322              		.loc 2 265 0
 1323 0616 FB68     		ldr	r3, [r7, #12]
 1324 0618 1B68     		ldr	r3, [r3]
 1325 061a BB60     		str	r3, [r7, #8]
 266:../../source/src/kernel/OS_CORE/message_queue.c **** 		if(STATE_WAIT_MESSAGE_QUEUE_FOREVER == TCB_ptr->task_state)
 1326              		.loc 2 266 0
 1327 061c BB68     		ldr	r3, [r7, #8]
 1328 061e 1B7C     		ldrb	r3, [r3, #16]	@ zero_extendqisi2
 1329 0620 062B     		cmp	r3, #6
 1330 0622 03D1     		bne	.L67
 267:../../source/src/kernel/OS_CORE/message_queue.c **** 		{
 268:../../source/src/kernel/OS_CORE/message_queue.c **** 			remove_from_suspend_list(TCB_ptr);
 1331              		.loc 2 268 0
 1332 0624 B868     		ldr	r0, [r7, #8]
 1333 0626 FFF7FEFF 		bl	remove_from_suspend_list
 1334 062a 0BE0     		b	.L68
 1335              	.L67:
 269:../../source/src/kernel/OS_CORE/message_queue.c **** 		}
 270:../../source/src/kernel/OS_CORE/message_queue.c **** 		else
 271:../../source/src/kernel/OS_CORE/message_queue.c **** 		{
 272:../../source/src/kernel/OS_CORE/message_queue.c **** 			ASSERT(STATE_WAIT_MESSAGE_QUEUE_TIMEOUT == TCB_ptr->task_state);
 1336              		.loc 2 272 0
 1337 062c BB68     		ldr	r3, [r7, #8]
 1338 062e 1B7C     		ldrb	r3, [r3, #16]	@ zero_extendqisi2
 1339 0630 072B     		cmp	r3, #7
 1340 0632 04D0     		beq	.L69
ARM GAS  G:\Users\Jaxb\AppData\Local\Temp\cchAS7Ki.s 			page 31


 1341              		.loc 2 272 0 is_stmt 0 discriminator 1
 1342 0634 4FF48871 		mov	r1, #272
 1343 0638 2348     		ldr	r0, .L76
 1344 063a FFF7FEFF 		bl	_ASSERT
 1345              	.L69:
 273:../../source/src/kernel/OS_CORE/message_queue.c **** 			remove_from_delay_heap(TCB_ptr);
 1346              		.loc 2 273 0 is_stmt 1
 1347 063e B868     		ldr	r0, [r7, #8]
 1348 0640 FFF7FEFF 		bl	remove_from_delay_heap
 1349              	.L68:
 274:../../source/src/kernel/OS_CORE/message_queue.c **** 		}
 275:../../source/src/kernel/OS_CORE/message_queue.c **** 		set_bad_state(TCB_ptr);
 1350              		.loc 2 275 0
 1351 0644 BB68     		ldr	r3, [r7, #8]
 1352 0646 9B6B     		ldr	r3, [r3, #56]
 1353 0648 43F00202 		orr	r2, r3, #2
 1354 064c BB68     		ldr	r3, [r7, #8]
 1355 064e 9A63     		str	r2, [r3, #56]
 276:../../source/src/kernel/OS_CORE/message_queue.c **** 		insert_sort_data_ptr = insert_sort_delete_head(&MQB_ptr->message_array_insert_sort_wait_TCB_list)
 1356              		.loc 2 276 0
 1357 0650 7B68     		ldr	r3, [r7, #4]
 1358 0652 0833     		adds	r3, r3, #8
 1359 0654 1846     		mov	r0, r3
 1360 0656 FFF7FEFF 		bl	insert_sort_delete_head
 1361 065a F860     		str	r0, [r7, #12]
 1362              	.L66:
 263:../../source/src/kernel/OS_CORE/message_queue.c **** 	{
 1363              		.loc 2 263 0
 1364 065c FB68     		ldr	r3, [r7, #12]
 1365 065e 002B     		cmp	r3, #0
 1366 0660 D9D1     		bne	.L70
 277:../../source/src/kernel/OS_CORE/message_queue.c **** 	}
 278:../../source/src/kernel/OS_CORE/message_queue.c **** 	insert_sort_data_ptr = insert_sort_delete_head(&MQB_ptr->message_array_insert_sort_put_TCB_list);
 1367              		.loc 2 278 0
 1368 0662 7B68     		ldr	r3, [r7, #4]
 1369 0664 2033     		adds	r3, r3, #32
 1370 0666 1846     		mov	r0, r3
 1371 0668 FFF7FEFF 		bl	insert_sort_delete_head
 1372 066c F860     		str	r0, [r7, #12]
 279:../../source/src/kernel/OS_CORE/message_queue.c **** 	while(NULL != insert_sort_data_ptr)
 1373              		.loc 2 279 0
 1374 066e 22E0     		b	.L71
 1375              	.L75:
 280:../../source/src/kernel/OS_CORE/message_queue.c **** 	{
 281:../../source/src/kernel/OS_CORE/message_queue.c **** 		TCB_ptr = (TCB *)(insert_sort_data_ptr->data_ptr);
 1376              		.loc 2 281 0
 1377 0670 FB68     		ldr	r3, [r7, #12]
 1378 0672 1B68     		ldr	r3, [r3]
 1379 0674 BB60     		str	r3, [r7, #8]
 282:../../source/src/kernel/OS_CORE/message_queue.c **** 		if(STATE_PUT_MESSAGE_QUEUE_FOREVER == TCB_ptr->task_state)
 1380              		.loc 2 282 0
 1381 0676 BB68     		ldr	r3, [r7, #8]
 1382 0678 1B7C     		ldrb	r3, [r3, #16]	@ zero_extendqisi2
 1383 067a 082B     		cmp	r3, #8
 1384 067c 03D1     		bne	.L72
 283:../../source/src/kernel/OS_CORE/message_queue.c **** 		{
 284:../../source/src/kernel/OS_CORE/message_queue.c **** 			remove_from_suspend_list(TCB_ptr);
ARM GAS  G:\Users\Jaxb\AppData\Local\Temp\cchAS7Ki.s 			page 32


 1385              		.loc 2 284 0
 1386 067e B868     		ldr	r0, [r7, #8]
 1387 0680 FFF7FEFF 		bl	remove_from_suspend_list
 1388 0684 0BE0     		b	.L73
 1389              	.L72:
 285:../../source/src/kernel/OS_CORE/message_queue.c **** 		}
 286:../../source/src/kernel/OS_CORE/message_queue.c **** 		else
 287:../../source/src/kernel/OS_CORE/message_queue.c **** 		{
 288:../../source/src/kernel/OS_CORE/message_queue.c **** 			ASSERT(STATE_PUT_MESSAGE_QUEUE_TIMEOUT == TCB_ptr->task_state);
 1390              		.loc 2 288 0
 1391 0686 BB68     		ldr	r3, [r7, #8]
 1392 0688 1B7C     		ldrb	r3, [r3, #16]	@ zero_extendqisi2
 1393 068a 092B     		cmp	r3, #9
 1394 068c 04D0     		beq	.L74
 1395              		.loc 2 288 0 is_stmt 0 discriminator 1
 1396 068e 4FF49071 		mov	r1, #288
 1397 0692 0D48     		ldr	r0, .L76
 1398 0694 FFF7FEFF 		bl	_ASSERT
 1399              	.L74:
 289:../../source/src/kernel/OS_CORE/message_queue.c **** 			remove_from_delay_heap(TCB_ptr);
 1400              		.loc 2 289 0 is_stmt 1
 1401 0698 B868     		ldr	r0, [r7, #8]
 1402 069a FFF7FEFF 		bl	remove_from_delay_heap
 1403              	.L73:
 290:../../source/src/kernel/OS_CORE/message_queue.c **** 		}
 291:../../source/src/kernel/OS_CORE/message_queue.c **** 		set_bad_state(TCB_ptr);
 1404              		.loc 2 291 0
 1405 069e BB68     		ldr	r3, [r7, #8]
 1406 06a0 9B6B     		ldr	r3, [r3, #56]
 1407 06a2 43F00202 		orr	r2, r3, #2
 1408 06a6 BB68     		ldr	r3, [r7, #8]
 1409 06a8 9A63     		str	r2, [r3, #56]
 292:../../source/src/kernel/OS_CORE/message_queue.c **** 		insert_sort_data_ptr = insert_sort_delete_head(&MQB_ptr->message_array_insert_sort_put_TCB_list);
 1410              		.loc 2 292 0
 1411 06aa 7B68     		ldr	r3, [r7, #4]
 1412 06ac 2033     		adds	r3, r3, #32
 1413 06ae 1846     		mov	r0, r3
 1414 06b0 FFF7FEFF 		bl	insert_sort_delete_head
 1415 06b4 F860     		str	r0, [r7, #12]
 1416              	.L71:
 279:../../source/src/kernel/OS_CORE/message_queue.c **** 	{
 1417              		.loc 2 279 0
 1418 06b6 FB68     		ldr	r3, [r7, #12]
 1419 06b8 002B     		cmp	r3, #0
 1420 06ba D9D1     		bne	.L75
 293:../../source/src/kernel/OS_CORE/message_queue.c **** 	}
 294:../../source/src/kernel/OS_CORE/message_queue.c **** 	return FUN_EXECUTE_SUCCESSFULLY;
 1421              		.loc 2 294 0
 1422 06bc 0023     		movs	r3, #0
 1423              	.L65:
 295:../../source/src/kernel/OS_CORE/message_queue.c **** }
 1424              		.loc 2 295 0
 1425 06be 1846     		mov	r0, r3
 1426 06c0 1037     		adds	r7, r7, #16
 1427              	.LCFI58:
 1428              		.cfi_def_cfa_offset 8
 1429 06c2 BD46     		mov	sp, r7
ARM GAS  G:\Users\Jaxb\AppData\Local\Temp\cchAS7Ki.s 			page 33


 1430              	.LCFI59:
 1431              		.cfi_def_cfa_register 13
 1432              		@ sp needed
 1433 06c4 80BD     		pop	{r7, pc}
 1434              	.L77:
 1435 06c6 00BF     		.align	2
 1436              	.L76:
 1437 06c8 00000000 		.word	.LC0
 1438 06cc 70010000 		.word	.LC7
 1439              		.cfi_endproc
 1440              	.LFE18:
 1441              		.size	msg_del, .-msg_del
 1442              		.global	__rtmsym_msg_del_name
 1443              		.section	.rodata.name
 1444              		.align	2
 1445              		.type	__rtmsym_msg_del_name, %object
 1446              		.size	__rtmsym_msg_del_name, 8
 1447              	__rtmsym_msg_del_name:
 1448 0024 6D73675F 		.ascii	"msg_del\000"
 1448      64656C00 
 1449              		.global	__rtmsym_msg_del
 1450              		.section	.RTMSymTab
 1451              		.align	2
 1452              		.type	__rtmsym_msg_del, %object
 1453              		.size	__rtmsym_msg_del, 8
 1454              	__rtmsym_msg_del:
 1455 0018 00000000 		.word	msg_del
 1456 001c 00000000 		.word	__rtmsym_msg_del_name
 1457              		.section	.rodata
 1458 019f 00       		.align	2
 1459              	.LC8:
 1460 01a0 6572726F 		.ascii	"error fun name : message_init\012error para : messa"
 1460      72206675 
 1460      6E206E61 
 1460      6D65203A 
 1460      206D6573 
 1461 01d0 67655F70 		.ascii	"ge_ptr\012\000"
 1461      74720A00 
 1462              		.text
 1463              		.align	1
 1464              		.global	message_init
 1465              		.syntax unified
 1466              		.thumb
 1467              		.thumb_func
 1468              		.fpu softvfp
 1469              		.type	message_init, %function
 1470              	message_init:
 1471              	.LFB19:
 296:../../source/src/kernel/OS_CORE/message_queue.c **** EXPORT_SYMBOL(msg_del);
 297:../../source/src/kernel/OS_CORE/message_queue.c **** 
 298:../../source/src/kernel/OS_CORE/message_queue.c **** int message_init(struct message *message_ptr,unsigned int message_size,void *data)
 299:../../source/src/kernel/OS_CORE/message_queue.c **** {
 1472              		.loc 2 299 0
 1473              		.cfi_startproc
 1474              		@ args = 0, pretend = 0, frame = 16
 1475              		@ frame_needed = 1, uses_anonymous_args = 0
 1476 06d0 90B5     		push	{r4, r7, lr}
ARM GAS  G:\Users\Jaxb\AppData\Local\Temp\cchAS7Ki.s 			page 34


 1477              	.LCFI60:
 1478              		.cfi_def_cfa_offset 12
 1479              		.cfi_offset 4, -12
 1480              		.cfi_offset 7, -8
 1481              		.cfi_offset 14, -4
 1482 06d2 85B0     		sub	sp, sp, #20
 1483              	.LCFI61:
 1484              		.cfi_def_cfa_offset 32
 1485 06d4 00AF     		add	r7, sp, #0
 1486              	.LCFI62:
 1487              		.cfi_def_cfa_register 7
 1488 06d6 F860     		str	r0, [r7, #12]
 1489 06d8 B960     		str	r1, [r7, #8]
 1490 06da 7A60     		str	r2, [r7, #4]
 300:../../source/src/kernel/OS_CORE/message_queue.c **** 	ASSERT(NULL != message_ptr);
 1491              		.loc 2 300 0
 1492 06dc FB68     		ldr	r3, [r7, #12]
 1493 06de 002B     		cmp	r3, #0
 1494 06e0 04D1     		bne	.L79
 1495              		.loc 2 300 0 is_stmt 0 discriminator 1
 1496 06e2 4FF49671 		mov	r1, #300
 1497 06e6 1148     		ldr	r0, .L82
 1498 06e8 FFF7FEFF 		bl	_ASSERT
 1499              	.L79:
 301:../../source/src/kernel/OS_CORE/message_queue.c **** #if CONFIG_PARA_CHECK
 302:../../source/src/kernel/OS_CORE/message_queue.c **** 	if(NULL == message_ptr)
 1500              		.loc 2 302 0 is_stmt 1
 1501 06ec FB68     		ldr	r3, [r7, #12]
 1502 06ee 002B     		cmp	r3, #0
 1503 06f0 05D1     		bne	.L80
 303:../../source/src/kernel/OS_CORE/message_queue.c **** 	{
 304:../../source/src/kernel/OS_CORE/message_queue.c **** 		OS_ERROR_PARA_MESSAGE_DISPLAY(message_init,message_ptr);
 1504              		.loc 2 304 0
 1505 06f2 0F48     		ldr	r0, .L82+4
 1506 06f4 FFF7FEFF 		bl	ka_printf
 305:../../source/src/kernel/OS_CORE/message_queue.c **** 		return -ERROR_NULL_INPUT_PTR;
 1507              		.loc 2 305 0
 1508 06f8 6FF0FE03 		mvn	r3, #254
 1509 06fc 11E0     		b	.L81
 1510              	.L80:
 306:../../source/src/kernel/OS_CORE/message_queue.c **** 	}
 307:../../source/src/kernel/OS_CORE/message_queue.c **** #endif
 308:../../source/src/kernel/OS_CORE/message_queue.c **** 	INIT_LIST_HEAD(&message_ptr->message_list);
 1511              		.loc 2 308 0
 1512 06fe FB68     		ldr	r3, [r7, #12]
 1513 0700 1846     		mov	r0, r3
 1514 0702 FFF77DFC 		bl	INIT_LIST_HEAD
 309:../../source/src/kernel/OS_CORE/message_queue.c **** 	message_ptr->message_size = message_size;
 1515              		.loc 2 309 0
 1516 0706 FB68     		ldr	r3, [r7, #12]
 1517 0708 BA68     		ldr	r2, [r7, #8]
 1518 070a 9A60     		str	r2, [r3, #8]
 310:../../source/src/kernel/OS_CORE/message_queue.c **** 	message_ptr->message_data_ptr = data;
 1519              		.loc 2 310 0
 1520 070c FB68     		ldr	r3, [r7, #12]
 1521 070e 7A68     		ldr	r2, [r7, #4]
 1522 0710 DA60     		str	r2, [r3, #12]
ARM GAS  G:\Users\Jaxb\AppData\Local\Temp\cchAS7Ki.s 			page 35


 311:../../source/src/kernel/OS_CORE/message_queue.c **** 	message_ptr->tick = get_tick();
 1523              		.loc 2 311 0
 1524 0712 FFF7FEFF 		bl	get_tick
 1525 0716 0346     		mov	r3, r0
 1526 0718 0C46     		mov	r4, r1
 1527 071a FA68     		ldr	r2, [r7, #12]
 1528 071c C2E90434 		strd	r3, [r2, #16]
 312:../../source/src/kernel/OS_CORE/message_queue.c **** 	return FUN_EXECUTE_SUCCESSFULLY;
 1529              		.loc 2 312 0
 1530 0720 0023     		movs	r3, #0
 1531              	.L81:
 313:../../source/src/kernel/OS_CORE/message_queue.c **** }
 1532              		.loc 2 313 0
 1533 0722 1846     		mov	r0, r3
 1534 0724 1437     		adds	r7, r7, #20
 1535              	.LCFI63:
 1536              		.cfi_def_cfa_offset 12
 1537 0726 BD46     		mov	sp, r7
 1538              	.LCFI64:
 1539              		.cfi_def_cfa_register 13
 1540              		@ sp needed
 1541 0728 90BD     		pop	{r4, r7, pc}
 1542              	.L83:
 1543 072a 00BF     		.align	2
 1544              	.L82:
 1545 072c 00000000 		.word	.LC0
 1546 0730 A0010000 		.word	.LC8
 1547              		.cfi_endproc
 1548              	.LFE19:
 1549              		.size	message_init, .-message_init
 1550              		.global	__rtmsym_message_init_name
 1551              		.section	.rodata.name
 1552              		.align	2
 1553              		.type	__rtmsym_message_init_name, %object
 1554              		.size	__rtmsym_message_init_name, 13
 1555              	__rtmsym_message_init_name:
 1556 002c 6D657373 		.ascii	"message_init\000"
 1556      6167655F 
 1556      696E6974 
 1556      00
 1557              		.global	__rtmsym_message_init
 1558              		.section	.RTMSymTab
 1559              		.align	2
 1560              		.type	__rtmsym_message_init, %object
 1561              		.size	__rtmsym_message_init, 8
 1562              	__rtmsym_message_init:
 1563 0020 00000000 		.word	message_init
 1564 0024 00000000 		.word	__rtmsym_message_init_name
 1565              		.text
 1566              	.Letext0:
 1567              		.file 3 "../../source/include/os_cpu/kakaosstdint.h"
 1568              		.file 4 "../../source/include/os_lib/insert_sort_oo.h"
 1569              		.file 5 "../../source/include/os_core/message_queue.h"
 1570              		.file 6 "../../source/include/os_core/task_state.h"
 1571              		.file 7 "../../source/include/os_core/TCB.h"
 1572              		.file 8 "../../source/include/os_cpu/os_cpu_stm32.h"
 1573              		.file 9 "../../source/include/os_core/export.h"
ARM GAS  G:\Users\Jaxb\AppData\Local\Temp\cchAS7Ki.s 			page 36


 1574              		.section	.debug_info,"",%progbits
 1575              	.Ldebug_info0:
 1576 0000 A6090000 		.4byte	0x9a6
 1577 0004 0200     		.2byte	0x2
 1578 0006 00000000 		.4byte	.Ldebug_abbrev0
 1579 000a 04       		.byte	0x4
 1580 000b 01       		.uleb128 0x1
 1581 000c BF050000 		.4byte	.LASF110
 1582 0010 0C       		.byte	0xc
 1583 0011 98060000 		.4byte	.LASF111
 1584 0015 28020000 		.4byte	.LASF112
 1585 0019 00000000 		.4byte	.Ltext0
 1586 001d 34070000 		.4byte	.Letext0
 1587 0021 00000000 		.4byte	.Ldebug_line0
 1588 0025 02       		.uleb128 0x2
 1589 0026 44000000 		.4byte	.LASF13
 1590 002a 08       		.byte	0x8
 1591 002b 01       		.byte	0x1
 1592 002c 04       		.byte	0x4
 1593 002d 4E000000 		.4byte	0x4e
 1594 0031 03       		.uleb128 0x3
 1595 0032 31070000 		.4byte	.LASF0
 1596 0036 01       		.byte	0x1
 1597 0037 05       		.byte	0x5
 1598 0038 53000000 		.4byte	0x53
 1599 003c 02       		.byte	0x2
 1600 003d 23       		.byte	0x23
 1601 003e 00       		.uleb128 0
 1602 003f 03       		.uleb128 0x3
 1603 0040 C8060000 		.4byte	.LASF1
 1604 0044 01       		.byte	0x1
 1605 0045 05       		.byte	0x5
 1606 0046 53000000 		.4byte	0x53
 1607 004a 02       		.byte	0x2
 1608 004b 23       		.byte	0x23
 1609 004c 04       		.uleb128 0x4
 1610 004d 00       		.byte	0
 1611 004e 04       		.uleb128 0x4
 1612 004f 25000000 		.4byte	0x25
 1613 0053 05       		.uleb128 0x5
 1614 0054 04       		.byte	0x4
 1615 0055 25000000 		.4byte	0x25
 1616 0059 06       		.uleb128 0x6
 1617 005a 01       		.byte	0x1
 1618 005b 06       		.byte	0x6
 1619 005c A0030000 		.4byte	.LASF2
 1620 0060 06       		.uleb128 0x6
 1621 0061 02       		.byte	0x2
 1622 0062 05       		.byte	0x5
 1623 0063 80000000 		.4byte	.LASF3
 1624 0067 07       		.uleb128 0x7
 1625 0068 04       		.byte	0x4
 1626 0069 05       		.byte	0x5
 1627 006a 696E7400 		.ascii	"int\000"
 1628 006e 08       		.uleb128 0x8
 1629 006f 67000000 		.4byte	0x67
 1630 0073 06       		.uleb128 0x6
ARM GAS  G:\Users\Jaxb\AppData\Local\Temp\cchAS7Ki.s 			page 37


 1631 0074 08       		.byte	0x8
 1632 0075 05       		.byte	0x5
 1633 0076 56020000 		.4byte	.LASF4
 1634 007a 06       		.uleb128 0x6
 1635 007b 01       		.byte	0x1
 1636 007c 08       		.byte	0x8
 1637 007d 53030000 		.4byte	.LASF5
 1638 0081 06       		.uleb128 0x6
 1639 0082 02       		.byte	0x2
 1640 0083 07       		.byte	0x7
 1641 0084 4D040000 		.4byte	.LASF6
 1642 0088 09       		.uleb128 0x9
 1643 0089 F9000000 		.4byte	.LASF8
 1644 008d 03       		.byte	0x3
 1645 008e 0C       		.byte	0xc
 1646 008f 93000000 		.4byte	0x93
 1647 0093 06       		.uleb128 0x6
 1648 0094 04       		.byte	0x4
 1649 0095 07       		.byte	0x7
 1650 0096 D9030000 		.4byte	.LASF7
 1651 009a 09       		.uleb128 0x9
 1652 009b 11070000 		.4byte	.LASF9
 1653 009f 03       		.byte	0x3
 1654 00a0 0D       		.byte	0xd
 1655 00a1 A5000000 		.4byte	0xa5
 1656 00a5 06       		.uleb128 0x6
 1657 00a6 08       		.byte	0x8
 1658 00a7 07       		.byte	0x7
 1659 00a8 AC030000 		.4byte	.LASF10
 1660 00ac 09       		.uleb128 0x9
 1661 00ad 8A000000 		.4byte	.LASF11
 1662 00b1 03       		.byte	0x3
 1663 00b2 23       		.byte	0x23
 1664 00b3 93000000 		.4byte	0x93
 1665 00b7 09       		.uleb128 0x9
 1666 00b8 20070000 		.4byte	.LASF12
 1667 00bc 04       		.byte	0x4
 1668 00bd 0D       		.byte	0xd
 1669 00be 9A000000 		.4byte	0x9a
 1670 00c2 02       		.uleb128 0x2
 1671 00c3 89020000 		.4byte	.LASF14
 1672 00c7 18       		.byte	0x18
 1673 00c8 04       		.byte	0x4
 1674 00c9 0F       		.byte	0xf
 1675 00ca F9000000 		.4byte	0xf9
 1676 00ce 03       		.uleb128 0x3
 1677 00cf 28070000 		.4byte	.LASF15
 1678 00d3 04       		.byte	0x4
 1679 00d4 11       		.byte	0x11
 1680 00d5 F9000000 		.4byte	0xf9
 1681 00d9 02       		.byte	0x2
 1682 00da 23       		.byte	0x23
 1683 00db 00       		.uleb128 0
 1684 00dc 03       		.uleb128 0x3
 1685 00dd C0000000 		.4byte	.LASF16
 1686 00e1 04       		.byte	0x4
 1687 00e2 12       		.byte	0x12
ARM GAS  G:\Users\Jaxb\AppData\Local\Temp\cchAS7Ki.s 			page 38


 1688 00e3 B7000000 		.4byte	0xb7
 1689 00e7 02       		.byte	0x2
 1690 00e8 23       		.byte	0x23
 1691 00e9 08       		.uleb128 0x8
 1692 00ea 03       		.uleb128 0x3
 1693 00eb CE000000 		.4byte	.LASF17
 1694 00ef 04       		.byte	0x4
 1695 00f0 13       		.byte	0x13
 1696 00f1 25000000 		.4byte	0x25
 1697 00f5 02       		.byte	0x2
 1698 00f6 23       		.byte	0x23
 1699 00f7 10       		.uleb128 0x10
 1700 00f8 00       		.byte	0
 1701 00f9 0A       		.uleb128 0xa
 1702 00fa 04       		.byte	0x4
 1703 00fb 02       		.uleb128 0x2
 1704 00fc E9040000 		.4byte	.LASF18
 1705 0100 18       		.byte	0x18
 1706 0101 04       		.byte	0x4
 1707 0102 1D       		.byte	0x1d
 1708 0103 4E010000 		.4byte	0x14e
 1709 0107 03       		.uleb128 0x3
 1710 0108 71000000 		.4byte	.LASF19
 1711 010c 04       		.byte	0x4
 1712 010d 27       		.byte	0x27
 1713 010e 25000000 		.4byte	0x25
 1714 0112 02       		.byte	0x2
 1715 0113 23       		.byte	0x23
 1716 0114 00       		.uleb128 0
 1717 0115 03       		.uleb128 0x3
 1718 0116 1C030000 		.4byte	.LASF20
 1719 011a 04       		.byte	0x4
 1720 011b 28       		.byte	0x28
 1721 011c 93000000 		.4byte	0x93
 1722 0120 02       		.byte	0x2
 1723 0121 23       		.byte	0x23
 1724 0122 08       		.uleb128 0x8
 1725 0123 03       		.uleb128 0x3
 1726 0124 3A050000 		.4byte	.LASF21
 1727 0128 04       		.byte	0x4
 1728 0129 2C       		.byte	0x2c
 1729 012a 69010000 		.4byte	0x169
 1730 012e 02       		.byte	0x2
 1731 012f 23       		.byte	0x23
 1732 0130 0C       		.uleb128 0xc
 1733 0131 03       		.uleb128 0x3
 1734 0132 9A020000 		.4byte	.LASF22
 1735 0136 04       		.byte	0x4
 1736 0137 2D       		.byte	0x2d
 1737 0138 84010000 		.4byte	0x184
 1738 013c 02       		.byte	0x2
 1739 013d 23       		.byte	0x23
 1740 013e 10       		.uleb128 0x10
 1741 013f 03       		.uleb128 0x3
 1742 0140 43040000 		.4byte	.LASF23
 1743 0144 04       		.byte	0x4
 1744 0145 2E       		.byte	0x2e
ARM GAS  G:\Users\Jaxb\AppData\Local\Temp\cchAS7Ki.s 			page 39


 1745 0146 9F010000 		.4byte	0x19f
 1746 014a 02       		.byte	0x2
 1747 014b 23       		.byte	0x23
 1748 014c 14       		.uleb128 0x14
 1749 014d 00       		.byte	0
 1750 014e 0B       		.uleb128 0xb
 1751 014f 01       		.byte	0x1
 1752 0150 67000000 		.4byte	0x67
 1753 0154 63010000 		.4byte	0x163
 1754 0158 0C       		.uleb128 0xc
 1755 0159 63010000 		.4byte	0x163
 1756 015d 0C       		.uleb128 0xc
 1757 015e 63010000 		.4byte	0x163
 1758 0162 00       		.byte	0
 1759 0163 05       		.uleb128 0x5
 1760 0164 04       		.byte	0x4
 1761 0165 C2000000 		.4byte	0xc2
 1762 0169 05       		.uleb128 0x5
 1763 016a 04       		.byte	0x4
 1764 016b 4E010000 		.4byte	0x14e
 1765 016f 0B       		.uleb128 0xb
 1766 0170 01       		.byte	0x1
 1767 0171 67000000 		.4byte	0x67
 1768 0175 84010000 		.4byte	0x184
 1769 0179 0C       		.uleb128 0xc
 1770 017a 63010000 		.4byte	0x163
 1771 017e 0C       		.uleb128 0xc
 1772 017f F9000000 		.4byte	0xf9
 1773 0183 00       		.byte	0
 1774 0184 05       		.uleb128 0x5
 1775 0185 04       		.byte	0x4
 1776 0186 6F010000 		.4byte	0x16f
 1777 018a 0B       		.uleb128 0xb
 1778 018b 01       		.byte	0x1
 1779 018c 67000000 		.4byte	0x67
 1780 0190 9F010000 		.4byte	0x19f
 1781 0194 0C       		.uleb128 0xc
 1782 0195 F9000000 		.4byte	0xf9
 1783 0199 0C       		.uleb128 0xc
 1784 019a F9000000 		.4byte	0xf9
 1785 019e 00       		.byte	0
 1786 019f 05       		.uleb128 0x5
 1787 01a0 04       		.byte	0x4
 1788 01a1 8A010000 		.4byte	0x18a
 1789 01a5 0D       		.uleb128 0xd
 1790 01a6 7B020000 		.4byte	.LASF41
 1791 01aa 07       		.byte	0x7
 1792 01ab 01       		.byte	0x1
 1793 01ac 7A000000 		.4byte	0x7a
 1794 01b0 05       		.byte	0x5
 1795 01b1 07       		.byte	0x7
 1796 01b2 C3010000 		.4byte	0x1c3
 1797 01b6 0E       		.uleb128 0xe
 1798 01b7 CA020000 		.4byte	.LASF24
 1799 01bb 00       		.byte	0
 1800 01bc 0E       		.uleb128 0xe
 1801 01bd EA060000 		.4byte	.LASF25
ARM GAS  G:\Users\Jaxb\AppData\Local\Temp\cchAS7Ki.s 			page 40


 1802 01c1 01       		.byte	0x1
 1803 01c2 00       		.byte	0
 1804 01c3 09       		.uleb128 0x9
 1805 01c4 4A030000 		.4byte	.LASF26
 1806 01c8 05       		.byte	0x5
 1807 01c9 0A       		.byte	0xa
 1808 01ca A5010000 		.4byte	0x1a5
 1809 01ce 02       		.uleb128 0x2
 1810 01cf B9040000 		.4byte	.LASF27
 1811 01d3 18       		.byte	0x18
 1812 01d4 05       		.byte	0x5
 1813 01d5 0D       		.byte	0xd
 1814 01d6 13020000 		.4byte	0x213
 1815 01da 03       		.uleb128 0x3
 1816 01db 6A060000 		.4byte	.LASF28
 1817 01df 05       		.byte	0x5
 1818 01e0 0E       		.byte	0xe
 1819 01e1 25000000 		.4byte	0x25
 1820 01e5 02       		.byte	0x2
 1821 01e6 23       		.byte	0x23
 1822 01e7 00       		.uleb128 0
 1823 01e8 03       		.uleb128 0x3
 1824 01e9 C3030000 		.4byte	.LASF29
 1825 01ed 05       		.byte	0x5
 1826 01ee 0F       		.byte	0xf
 1827 01ef 93000000 		.4byte	0x93
 1828 01f3 02       		.byte	0x2
 1829 01f4 23       		.byte	0x23
 1830 01f5 08       		.uleb128 0x8
 1831 01f6 03       		.uleb128 0x3
 1832 01f7 A4010000 		.4byte	.LASF30
 1833 01fb 05       		.byte	0x5
 1834 01fc 10       		.byte	0x10
 1835 01fd F9000000 		.4byte	0xf9
 1836 0201 02       		.byte	0x2
 1837 0202 23       		.byte	0x23
 1838 0203 0C       		.uleb128 0xc
 1839 0204 03       		.uleb128 0x3
 1840 0205 D4060000 		.4byte	.LASF31
 1841 0209 05       		.byte	0x5
 1842 020a 11       		.byte	0x11
 1843 020b 9A000000 		.4byte	0x9a
 1844 020f 02       		.byte	0x2
 1845 0210 23       		.byte	0x23
 1846 0211 10       		.uleb128 0x10
 1847 0212 00       		.byte	0
 1848 0213 02       		.uleb128 0x2
 1849 0214 4E000000 		.4byte	.LASF32
 1850 0218 4C       		.byte	0x4c
 1851 0219 05       		.byte	0x5
 1852 021a 14       		.byte	0x14
 1853 021b 90020000 		.4byte	0x290
 1854 021f 03       		.uleb128 0x3
 1855 0220 6A060000 		.4byte	.LASF28
 1856 0224 05       		.byte	0x5
 1857 0225 15       		.byte	0x15
 1858 0226 25000000 		.4byte	0x25
ARM GAS  G:\Users\Jaxb\AppData\Local\Temp\cchAS7Ki.s 			page 41


 1859 022a 02       		.byte	0x2
 1860 022b 23       		.byte	0x23
 1861 022c 00       		.uleb128 0
 1862 022d 03       		.uleb128 0x3
 1863 022e E6030000 		.4byte	.LASF33
 1864 0232 05       		.byte	0x5
 1865 0233 16       		.byte	0x16
 1866 0234 FB000000 		.4byte	0xfb
 1867 0238 02       		.byte	0x2
 1868 0239 23       		.byte	0x23
 1869 023a 08       		.uleb128 0x8
 1870 023b 03       		.uleb128 0x3
 1871 023c 13050000 		.4byte	.LASF34
 1872 0240 05       		.byte	0x5
 1873 0241 17       		.byte	0x17
 1874 0242 FB000000 		.4byte	0xfb
 1875 0246 02       		.byte	0x2
 1876 0247 23       		.byte	0x23
 1877 0248 20       		.uleb128 0x20
 1878 0249 03       		.uleb128 0x3
 1879 024a A8040000 		.4byte	.LASF35
 1880 024e 05       		.byte	0x5
 1881 024f 18       		.byte	0x18
 1882 0250 93000000 		.4byte	0x93
 1883 0254 02       		.byte	0x2
 1884 0255 23       		.byte	0x23
 1885 0256 38       		.uleb128 0x38
 1886 0257 03       		.uleb128 0x3
 1887 0258 B0040000 		.4byte	.LASF36
 1888 025c 05       		.byte	0x5
 1889 025d 19       		.byte	0x19
 1890 025e 93000000 		.4byte	0x93
 1891 0262 02       		.byte	0x2
 1892 0263 23       		.byte	0x23
 1893 0264 3C       		.uleb128 0x3c
 1894 0265 03       		.uleb128 0x3
 1895 0266 0B030000 		.4byte	.LASF37
 1896 026a 05       		.byte	0x5
 1897 026b 1A       		.byte	0x1a
 1898 026c 90020000 		.4byte	0x290
 1899 0270 02       		.byte	0x2
 1900 0271 23       		.byte	0x23
 1901 0272 40       		.uleb128 0x40
 1902 0273 03       		.uleb128 0x3
 1903 0274 0B010000 		.4byte	.LASF38
 1904 0278 05       		.byte	0x5
 1905 0279 1B       		.byte	0x1b
 1906 027a 93000000 		.4byte	0x93
 1907 027e 02       		.byte	0x2
 1908 027f 23       		.byte	0x23
 1909 0280 44       		.uleb128 0x44
 1910 0281 03       		.uleb128 0x3
 1911 0282 E1010000 		.4byte	.LASF39
 1912 0286 05       		.byte	0x5
 1913 0287 1C       		.byte	0x1c
 1914 0288 93000000 		.4byte	0x93
 1915 028c 02       		.byte	0x2
ARM GAS  G:\Users\Jaxb\AppData\Local\Temp\cchAS7Ki.s 			page 42


 1916 028d 23       		.byte	0x23
 1917 028e 48       		.uleb128 0x48
 1918 028f 00       		.byte	0
 1919 0290 05       		.uleb128 0x5
 1920 0291 04       		.byte	0x4
 1921 0292 96020000 		.4byte	0x296
 1922 0296 06       		.uleb128 0x6
 1923 0297 01       		.byte	0x1
 1924 0298 08       		.byte	0x8
 1925 0299 6C040000 		.4byte	.LASF40
 1926 029d 04       		.uleb128 0x4
 1927 029e 96020000 		.4byte	0x296
 1928 02a2 0F       		.uleb128 0xf
 1929 02a3 4D514200 		.ascii	"MQB\000"
 1930 02a7 05       		.byte	0x5
 1931 02a8 1D       		.byte	0x1d
 1932 02a9 13020000 		.4byte	0x213
 1933 02ad 0D       		.uleb128 0xd
 1934 02ae 1F010000 		.4byte	.LASF42
 1935 02b2 07       		.byte	0x7
 1936 02b3 01       		.byte	0x1
 1937 02b4 7A000000 		.4byte	0x7a
 1938 02b8 06       		.byte	0x6
 1939 02b9 04       		.byte	0x4
 1940 02ba FB020000 		.4byte	0x2fb
 1941 02be 0E       		.uleb128 0xe
 1942 02bf 60040000 		.4byte	.LASF43
 1943 02c3 01       		.byte	0x1
 1944 02c4 0E       		.uleb128 0xe
 1945 02c5 73030000 		.4byte	.LASF44
 1946 02c9 02       		.byte	0x2
 1947 02ca 0E       		.uleb128 0xe
 1948 02cb 2F000000 		.4byte	.LASF45
 1949 02cf 03       		.byte	0x3
 1950 02d0 0E       		.uleb128 0xe
 1951 02d1 FC040000 		.4byte	.LASF46
 1952 02d5 04       		.byte	0x4
 1953 02d6 0E       		.uleb128 0xe
 1954 02d7 CA010000 		.4byte	.LASF47
 1955 02db 05       		.byte	0x5
 1956 02dc 0E       		.uleb128 0xe
 1957 02dd D8000000 		.4byte	.LASF48
 1958 02e1 06       		.byte	0x6
 1959 02e2 0E       		.uleb128 0xe
 1960 02e3 07020000 		.4byte	.LASF49
 1961 02e7 07       		.byte	0x7
 1962 02e8 0E       		.uleb128 0xe
 1963 02e9 2A010000 		.4byte	.LASF50
 1964 02ed 08       		.byte	0x8
 1965 02ee 0E       		.uleb128 0xe
 1966 02ef 71040000 		.4byte	.LASF51
 1967 02f3 09       		.byte	0x9
 1968 02f4 0E       		.uleb128 0xe
 1969 02f5 77060000 		.4byte	.LASF52
 1970 02f9 0A       		.byte	0xa
 1971 02fa 00       		.byte	0
 1972 02fb 09       		.uleb128 0x9
ARM GAS  G:\Users\Jaxb\AppData\Local\Temp\cchAS7Ki.s 			page 43


 1973 02fc F2020000 		.4byte	.LASF53
 1974 0300 06       		.byte	0x6
 1975 0301 0F       		.byte	0xf
 1976 0302 AD020000 		.4byte	0x2ad
 1977 0306 09       		.uleb128 0x9
 1978 0307 00010000 		.4byte	.LASF54
 1979 030b 07       		.byte	0x7
 1980 030c 0B       		.byte	0xb
 1981 030d 93000000 		.4byte	0x93
 1982 0311 09       		.uleb128 0x9
 1983 0312 0C000000 		.4byte	.LASF55
 1984 0316 07       		.byte	0x7
 1985 0317 0D       		.byte	0xd
 1986 0318 93000000 		.4byte	0x93
 1987 031c 10       		.uleb128 0x10
 1988 031d A6050000 		.4byte	.LASF75
 1989 0321 07       		.byte	0x7
 1990 0322 14       		.byte	0x14
 1991 0323 6E000000 		.4byte	0x6e
 1992 0327 01       		.byte	0x1
 1993 0328 01       		.byte	0x1
 1994 0329 02       		.uleb128 0x2
 1995 032a 51050000 		.4byte	.LASF56
 1996 032e 48       		.byte	0x48
 1997 032f 07       		.byte	0x7
 1998 0330 37       		.byte	0x37
 1999 0331 08040000 		.4byte	0x408
 2000 0335 03       		.uleb128 0x3
 2001 0336 0E040000 		.4byte	.LASF57
 2002 033a 07       		.byte	0x7
 2003 033b 38       		.byte	0x38
 2004 033c 08040000 		.4byte	0x408
 2005 0340 02       		.byte	0x2
 2006 0341 23       		.byte	0x23
 2007 0342 00       		.uleb128 0
 2008 0343 03       		.uleb128 0x3
 2009 0344 6B050000 		.4byte	.LASF58
 2010 0348 07       		.byte	0x7
 2011 0349 39       		.byte	0x39
 2012 034a 93000000 		.4byte	0x93
 2013 034e 02       		.byte	0x2
 2014 034f 23       		.byte	0x23
 2015 0350 04       		.uleb128 0x4
 2016 0351 03       		.uleb128 0x3
 2017 0352 C0010000 		.4byte	.LASF59
 2018 0356 07       		.byte	0x7
 2019 0357 3A       		.byte	0x3a
 2020 0358 08040000 		.4byte	0x408
 2021 035c 02       		.byte	0x2
 2022 035d 23       		.byte	0x23
 2023 035e 08       		.uleb128 0x8
 2024 035f 03       		.uleb128 0x3
 2025 0360 8C050000 		.4byte	.LASF60
 2026 0364 07       		.byte	0x7
 2027 0365 3B       		.byte	0x3b
 2028 0366 11030000 		.4byte	0x311
 2029 036a 02       		.byte	0x2
ARM GAS  G:\Users\Jaxb\AppData\Local\Temp\cchAS7Ki.s 			page 44


 2030 036b 23       		.byte	0x23
 2031 036c 0C       		.uleb128 0xc
 2032 036d 03       		.uleb128 0x3
 2033 036e C1040000 		.4byte	.LASF61
 2034 0372 07       		.byte	0x7
 2035 0373 3C       		.byte	0x3c
 2036 0374 FB020000 		.4byte	0x2fb
 2037 0378 02       		.byte	0x2
 2038 0379 23       		.byte	0x23
 2039 037a 10       		.uleb128 0x10
 2040 037b 03       		.uleb128 0x3
 2041 037c 3E040000 		.4byte	.LASF62
 2042 0380 07       		.byte	0x7
 2043 0381 3D       		.byte	0x3d
 2044 0382 11030000 		.4byte	0x311
 2045 0386 02       		.byte	0x2
 2046 0387 23       		.byte	0x23
 2047 0388 14       		.uleb128 0x14
 2048 0389 03       		.uleb128 0x3
 2049 038a AC000000 		.4byte	.LASF63
 2050 038e 07       		.byte	0x7
 2051 038f 3E       		.byte	0x3e
 2052 0390 67000000 		.4byte	0x67
 2053 0394 02       		.byte	0x2
 2054 0395 23       		.byte	0x23
 2055 0396 18       		.uleb128 0x18
 2056 0397 03       		.uleb128 0x3
 2057 0398 2A040000 		.4byte	.LASF64
 2058 039c 07       		.byte	0x7
 2059 039d 3F       		.byte	0x3f
 2060 039e 25000000 		.4byte	0x25
 2061 03a2 02       		.byte	0x2
 2062 03a3 23       		.byte	0x23
 2063 03a4 1C       		.uleb128 0x1c
 2064 03a5 03       		.uleb128 0x3
 2065 03a6 99050000 		.4byte	.LASF65
 2066 03aa 07       		.byte	0x7
 2067 03ab 40       		.byte	0x40
 2068 03ac 25000000 		.4byte	0x25
 2069 03b0 02       		.byte	0x2
 2070 03b1 23       		.byte	0x23
 2071 03b2 24       		.uleb128 0x24
 2072 03b3 03       		.uleb128 0x3
 2073 03b4 0B030000 		.4byte	.LASF37
 2074 03b8 07       		.byte	0x7
 2075 03b9 41       		.byte	0x41
 2076 03ba 90020000 		.4byte	0x290
 2077 03be 02       		.byte	0x2
 2078 03bf 23       		.byte	0x23
 2079 03c0 2C       		.uleb128 0x2c
 2080 03c1 03       		.uleb128 0x3
 2081 03c2 1B000000 		.4byte	.LASF66
 2082 03c6 07       		.byte	0x7
 2083 03c7 42       		.byte	0x42
 2084 03c8 93000000 		.4byte	0x93
 2085 03cc 02       		.byte	0x2
 2086 03cd 23       		.byte	0x23
ARM GAS  G:\Users\Jaxb\AppData\Local\Temp\cchAS7Ki.s 			page 45


 2087 03ce 30       		.uleb128 0x30
 2088 03cf 03       		.uleb128 0x3
 2089 03d0 D5040000 		.4byte	.LASF67
 2090 03d4 07       		.byte	0x7
 2091 03d5 43       		.byte	0x43
 2092 03d6 93000000 		.4byte	0x93
 2093 03da 02       		.byte	0x2
 2094 03db 23       		.byte	0x23
 2095 03dc 34       		.uleb128 0x34
 2096 03dd 03       		.uleb128 0x3
 2097 03de 7F030000 		.4byte	.LASF68
 2098 03e2 07       		.byte	0x7
 2099 03e3 44       		.byte	0x44
 2100 03e4 88000000 		.4byte	0x88
 2101 03e8 02       		.byte	0x2
 2102 03e9 23       		.byte	0x23
 2103 03ea 38       		.uleb128 0x38
 2104 03eb 03       		.uleb128 0x3
 2105 03ec 2B030000 		.4byte	.LASF69
 2106 03f0 07       		.byte	0x7
 2107 03f1 45       		.byte	0x45
 2108 03f2 14040000 		.4byte	0x414
 2109 03f6 02       		.byte	0x2
 2110 03f7 23       		.byte	0x23
 2111 03f8 3C       		.uleb128 0x3c
 2112 03f9 03       		.uleb128 0x3
 2113 03fa D9060000 		.4byte	.LASF70
 2114 03fe 07       		.byte	0x7
 2115 03ff 46       		.byte	0x46
 2116 0400 9A000000 		.4byte	0x9a
 2117 0404 02       		.byte	0x2
 2118 0405 23       		.byte	0x23
 2119 0406 40       		.uleb128 0x40
 2120 0407 00       		.byte	0
 2121 0408 05       		.uleb128 0x5
 2122 0409 04       		.byte	0x4
 2123 040a 06030000 		.4byte	0x306
 2124 040e 11       		.uleb128 0x11
 2125 040f 42050000 		.4byte	.LASF113
 2126 0413 01       		.byte	0x1
 2127 0414 05       		.uleb128 0x5
 2128 0415 04       		.byte	0x4
 2129 0416 0E040000 		.4byte	0x40e
 2130 041a 0F       		.uleb128 0xf
 2131 041b 54434200 		.ascii	"TCB\000"
 2132 041f 07       		.byte	0x7
 2133 0420 47       		.byte	0x47
 2134 0421 29030000 		.4byte	0x329
 2135 0425 09       		.uleb128 0x9
 2136 0426 91040000 		.4byte	.LASF71
 2137 042a 08       		.byte	0x8
 2138 042b 06       		.byte	0x6
 2139 042c 93000000 		.4byte	0x93
 2140 0430 09       		.uleb128 0x9
 2141 0431 CD060000 		.4byte	.LASF72
 2142 0435 08       		.byte	0x8
 2143 0436 08       		.byte	0x8
ARM GAS  G:\Users\Jaxb\AppData\Local\Temp\cchAS7Ki.s 			page 46


 2144 0437 25040000 		.4byte	0x425
 2145 043b 02       		.uleb128 0x2
 2146 043c 93010000 		.4byte	.LASF73
 2147 0440 08       		.byte	0x8
 2148 0441 09       		.byte	0x9
 2149 0442 08       		.byte	0x8
 2150 0443 64040000 		.4byte	0x464
 2151 0447 03       		.uleb128 0x3
 2152 0448 A7020000 		.4byte	.LASF74
 2153 044c 09       		.byte	0x9
 2154 044d 0A       		.byte	0xa
 2155 044e F9000000 		.4byte	0xf9
 2156 0452 02       		.byte	0x2
 2157 0453 23       		.byte	0x23
 2158 0454 00       		.uleb128 0
 2159 0455 03       		.uleb128 0x3
 2160 0456 0B030000 		.4byte	.LASF37
 2161 045a 09       		.byte	0x9
 2162 045b 0B       		.byte	0xb
 2163 045c 69040000 		.4byte	0x469
 2164 0460 02       		.byte	0x2
 2165 0461 23       		.byte	0x23
 2166 0462 04       		.uleb128 0x4
 2167 0463 00       		.byte	0
 2168 0464 04       		.uleb128 0x4
 2169 0465 3B040000 		.4byte	0x43b
 2170 0469 05       		.uleb128 0x5
 2171 046a 04       		.byte	0x4
 2172 046b 9D020000 		.4byte	0x29d
 2173 046f 10       		.uleb128 0x10
 2174 0470 10030000 		.4byte	.LASF76
 2175 0474 02       		.byte	0x2
 2176 0475 0A       		.byte	0xa
 2177 0476 7C040000 		.4byte	0x47c
 2178 047a 01       		.byte	0x1
 2179 047b 01       		.byte	0x1
 2180 047c 05       		.uleb128 0x5
 2181 047d 04       		.byte	0x4
 2182 047e 1A040000 		.4byte	0x41a
 2183 0482 12       		.uleb128 0x12
 2184 0483 9D020000 		.4byte	0x29d
 2185 0487 92040000 		.4byte	0x492
 2186 048b 13       		.uleb128 0x13
 2187 048c 93000000 		.4byte	0x93
 2188 0490 08       		.byte	0x8
 2189 0491 00       		.byte	0
 2190 0492 04       		.uleb128 0x4
 2191 0493 82040000 		.4byte	0x482
 2192 0497 14       		.uleb128 0x14
 2193 0498 64020000 		.4byte	.LASF77
 2194 049c 02       		.byte	0x2
 2195 049d 3C       		.byte	0x3c
 2196 049e 92040000 		.4byte	0x492
 2197 04a2 01       		.byte	0x1
 2198 04a3 05       		.byte	0x5
 2199 04a4 03       		.byte	0x3
 2200 04a5 00000000 		.4byte	__rtmsym_msg_init_name
ARM GAS  G:\Users\Jaxb\AppData\Local\Temp\cchAS7Ki.s 			page 47


 2201 04a9 14       		.uleb128 0x14
 2202 04aa 61030000 		.4byte	.LASF78
 2203 04ae 02       		.byte	0x2
 2204 04af 3C       		.byte	0x3c
 2205 04b0 64040000 		.4byte	0x464
 2206 04b4 01       		.byte	0x1
 2207 04b5 05       		.byte	0x5
 2208 04b6 03       		.byte	0x3
 2209 04b7 00000000 		.4byte	__rtmsym_msg_init
 2210 04bb 14       		.uleb128 0x14
 2211 04bc 71010000 		.4byte	.LASF79
 2212 04c0 02       		.byte	0x2
 2213 04c1 96       		.byte	0x96
 2214 04c2 92040000 		.4byte	0x492
 2215 04c6 01       		.byte	0x1
 2216 04c7 05       		.byte	0x5
 2217 04c8 03       		.byte	0x3
 2218 04c9 00000000 		.4byte	__rtmsym_msg_send_name
 2219 04cd 14       		.uleb128 0x14
 2220 04ce B2020000 		.4byte	.LASF80
 2221 04d2 02       		.byte	0x2
 2222 04d3 96       		.byte	0x96
 2223 04d4 64040000 		.4byte	0x464
 2224 04d8 01       		.byte	0x1
 2225 04d9 05       		.byte	0x5
 2226 04da 03       		.byte	0x3
 2227 04db 00000000 		.4byte	__rtmsym_msg_send
 2228 04df 12       		.uleb128 0x12
 2229 04e0 9D020000 		.4byte	0x29d
 2230 04e4 EF040000 		.4byte	0x4ef
 2231 04e8 13       		.uleb128 0x13
 2232 04e9 93000000 		.4byte	0x93
 2233 04ed 0B       		.byte	0xb
 2234 04ee 00       		.byte	0
 2235 04ef 04       		.uleb128 0x4
 2236 04f0 DF040000 		.4byte	0x4df
 2237 04f4 14       		.uleb128 0x14
 2238 04f5 D8020000 		.4byte	.LASF81
 2239 04f9 02       		.byte	0x2
 2240 04fa F9       		.byte	0xf9
 2241 04fb EF040000 		.4byte	0x4ef
 2242 04ff 01       		.byte	0x1
 2243 0500 05       		.byte	0x5
 2244 0501 03       		.byte	0x3
 2245 0502 00000000 		.4byte	__rtmsym_msg_receive_name
 2246 0506 14       		.uleb128 0x14
 2247 0507 57010000 		.4byte	.LASF82
 2248 050b 02       		.byte	0x2
 2249 050c F9       		.byte	0xf9
 2250 050d 64040000 		.4byte	0x464
 2251 0511 01       		.byte	0x1
 2252 0512 05       		.byte	0x5
 2253 0513 03       		.byte	0x3
 2254 0514 00000000 		.4byte	__rtmsym_msg_receive
 2255 0518 12       		.uleb128 0x12
 2256 0519 9D020000 		.4byte	0x29d
 2257 051d 28050000 		.4byte	0x528
ARM GAS  G:\Users\Jaxb\AppData\Local\Temp\cchAS7Ki.s 			page 48


 2258 0521 13       		.uleb128 0x13
 2259 0522 93000000 		.4byte	0x93
 2260 0526 07       		.byte	0x7
 2261 0527 00       		.byte	0
 2262 0528 04       		.uleb128 0x4
 2263 0529 18050000 		.4byte	0x518
 2264 052d 15       		.uleb128 0x15
 2265 052e 14040000 		.4byte	.LASF83
 2266 0532 02       		.byte	0x2
 2267 0533 2801     		.2byte	0x128
 2268 0535 28050000 		.4byte	0x528
 2269 0539 01       		.byte	0x1
 2270 053a 05       		.byte	0x5
 2271 053b 03       		.byte	0x3
 2272 053c 00000000 		.4byte	__rtmsym_msg_del_name
 2273 0540 15       		.uleb128 0x15
 2274 0541 00070000 		.4byte	.LASF84
 2275 0545 02       		.byte	0x2
 2276 0546 2801     		.2byte	0x128
 2277 0548 64040000 		.4byte	0x464
 2278 054c 01       		.byte	0x1
 2279 054d 05       		.byte	0x5
 2280 054e 03       		.byte	0x3
 2281 054f 00000000 		.4byte	__rtmsym_msg_del
 2282 0553 12       		.uleb128 0x12
 2283 0554 9D020000 		.4byte	0x29d
 2284 0558 63050000 		.4byte	0x563
 2285 055c 13       		.uleb128 0x13
 2286 055d 93000000 		.4byte	0x93
 2287 0561 0C       		.byte	0xc
 2288 0562 00       		.byte	0
 2289 0563 04       		.uleb128 0x4
 2290 0564 53050000 		.4byte	0x553
 2291 0568 15       		.uleb128 0x15
 2292 0569 91000000 		.4byte	.LASF85
 2293 056d 02       		.byte	0x2
 2294 056e 3A01     		.2byte	0x13a
 2295 0570 63050000 		.4byte	0x563
 2296 0574 01       		.byte	0x1
 2297 0575 05       		.byte	0x5
 2298 0576 03       		.byte	0x3
 2299 0577 00000000 		.4byte	__rtmsym_message_init_name
 2300 057b 15       		.uleb128 0x15
 2301 057c F1010000 		.4byte	.LASF86
 2302 0580 02       		.byte	0x2
 2303 0581 3A01     		.2byte	0x13a
 2304 0583 64040000 		.4byte	0x464
 2305 0587 01       		.byte	0x1
 2306 0588 05       		.byte	0x5
 2307 0589 03       		.byte	0x3
 2308 058a 00000000 		.4byte	__rtmsym_message_init
 2309 058e 16       		.uleb128 0x16
 2310 058f 01       		.byte	0x1
 2311 0590 4A010000 		.4byte	.LASF89
 2312 0594 02       		.byte	0x2
 2313 0595 2A01     		.2byte	0x12a
 2314 0597 01       		.byte	0x1
ARM GAS  G:\Users\Jaxb\AppData\Local\Temp\cchAS7Ki.s 			page 49


 2315 0598 67000000 		.4byte	0x67
 2316 059c D0060000 		.4byte	.LFB19
 2317 05a0 34070000 		.4byte	.LFE19
 2318 05a4 00000000 		.4byte	.LLST11
 2319 05a8 01       		.byte	0x1
 2320 05a9 DB050000 		.4byte	0x5db
 2321 05ad 17       		.uleb128 0x17
 2322 05ae 00000000 		.4byte	.LASF87
 2323 05b2 02       		.byte	0x2
 2324 05b3 2A01     		.2byte	0x12a
 2325 05b5 DB050000 		.4byte	0x5db
 2326 05b9 02       		.byte	0x2
 2327 05ba 91       		.byte	0x91
 2328 05bb 6C       		.sleb128 -20
 2329 05bc 17       		.uleb128 0x17
 2330 05bd C3030000 		.4byte	.LASF29
 2331 05c1 02       		.byte	0x2
 2332 05c2 2A01     		.2byte	0x12a
 2333 05c4 93000000 		.4byte	0x93
 2334 05c8 02       		.byte	0x2
 2335 05c9 91       		.byte	0x91
 2336 05ca 68       		.sleb128 -24
 2337 05cb 17       		.uleb128 0x17
 2338 05cc A3040000 		.4byte	.LASF88
 2339 05d0 02       		.byte	0x2
 2340 05d1 2A01     		.2byte	0x12a
 2341 05d3 F9000000 		.4byte	0xf9
 2342 05d7 02       		.byte	0x2
 2343 05d8 91       		.byte	0x91
 2344 05d9 64       		.sleb128 -28
 2345 05da 00       		.byte	0
 2346 05db 05       		.uleb128 0x5
 2347 05dc 04       		.byte	0x4
 2348 05dd CE010000 		.4byte	0x1ce
 2349 05e1 18       		.uleb128 0x18
 2350 05e2 01       		.byte	0x1
 2351 05e3 90060000 		.4byte	.LASF90
 2352 05e7 02       		.byte	0x2
 2353 05e8 FB       		.byte	0xfb
 2354 05e9 01       		.byte	0x1
 2355 05ea 67000000 		.4byte	0x67
 2356 05ee E0050000 		.4byte	.LFB18
 2357 05f2 D0060000 		.4byte	.LFE18
 2358 05f6 50000000 		.4byte	.LLST10
 2359 05fa 01       		.byte	0x1
 2360 05fb 2C060000 		.4byte	0x62c
 2361 05ff 19       		.uleb128 0x19
 2362 0600 18070000 		.4byte	.LASF91
 2363 0604 02       		.byte	0x2
 2364 0605 FB       		.byte	0xfb
 2365 0606 2C060000 		.4byte	0x62c
 2366 060a 02       		.byte	0x2
 2367 060b 91       		.byte	0x91
 2368 060c 6C       		.sleb128 -20
 2369 060d 1A       		.uleb128 0x1a
 2370 060e 7F050000 		.4byte	.LASF92
 2371 0612 02       		.byte	0x2
ARM GAS  G:\Users\Jaxb\AppData\Local\Temp\cchAS7Ki.s 			page 50


 2372 0613 0501     		.2byte	0x105
 2373 0615 7C040000 		.4byte	0x47c
 2374 0619 02       		.byte	0x2
 2375 061a 91       		.byte	0x91
 2376 061b 70       		.sleb128 -16
 2377 061c 1A       		.uleb128 0x1a
 2378 061d 8B030000 		.4byte	.LASF93
 2379 0621 02       		.byte	0x2
 2380 0622 0601     		.2byte	0x106
 2381 0624 63010000 		.4byte	0x163
 2382 0628 02       		.byte	0x2
 2383 0629 91       		.byte	0x91
 2384 062a 74       		.sleb128 -12
 2385 062b 00       		.byte	0
 2386 062c 05       		.uleb128 0x5
 2387 062d 04       		.byte	0x4
 2388 062e A2020000 		.4byte	0x2a2
 2389 0632 18       		.uleb128 0x18
 2390 0633 01       		.byte	0x1
 2391 0634 3E030000 		.4byte	.LASF94
 2392 0638 02       		.byte	0x2
 2393 0639 98       		.byte	0x98
 2394 063a 01       		.byte	0x1
 2395 063b 67000000 		.4byte	0x67
 2396 063f C0030000 		.4byte	.LFB17
 2397 0643 E0050000 		.4byte	.LFE17
 2398 0647 A0000000 		.4byte	.LLST9
 2399 064b 01       		.byte	0x1
 2400 064c 21070000 		.4byte	0x721
 2401 0650 19       		.uleb128 0x19
 2402 0651 18070000 		.4byte	.LASF91
 2403 0655 02       		.byte	0x2
 2404 0656 98       		.byte	0x98
 2405 0657 2C060000 		.4byte	0x62c
 2406 065b 02       		.byte	0x2
 2407 065c 91       		.byte	0x91
 2408 065d 44       		.sleb128 -60
 2409 065e 19       		.uleb128 0x19
 2410 065f 00000000 		.4byte	.LASF87
 2411 0663 02       		.byte	0x2
 2412 0664 98       		.byte	0x98
 2413 0665 21070000 		.4byte	0x721
 2414 0669 02       		.byte	0x2
 2415 066a 91       		.byte	0x91
 2416 066b 40       		.sleb128 -64
 2417 066c 19       		.uleb128 0x19
 2418 066d 65060000 		.4byte	.LASF95
 2419 0671 02       		.byte	0x2
 2420 0672 98       		.byte	0x98
 2421 0673 C3010000 		.4byte	0x1c3
 2422 0677 03       		.byte	0x3
 2423 0678 91       		.byte	0x91
 2424 0679 BF7F     		.sleb128 -65
 2425 067b 19       		.uleb128 0x19
 2426 067c 39040000 		.4byte	.LASF96
 2427 0680 02       		.byte	0x2
 2428 0681 98       		.byte	0x98
ARM GAS  G:\Users\Jaxb\AppData\Local\Temp\cchAS7Ki.s 			page 51


 2429 0682 93000000 		.4byte	0x93
 2430 0686 03       		.byte	0x3
 2431 0687 91       		.byte	0x91
 2432 0688 B87F     		.sleb128 -72
 2433 068a 1B       		.uleb128 0x1b
 2434 068b B8050000 		.4byte	.LASF97
 2435 068f 02       		.byte	0x2
 2436 0690 A4       		.byte	0xa4
 2437 0691 30040000 		.4byte	0x430
 2438 0695 02       		.byte	0x2
 2439 0696 91       		.byte	0x91
 2440 0697 74       		.sleb128 -12
 2441 0698 1B       		.uleb128 0x1b
 2442 0699 A3040000 		.4byte	.LASF88
 2443 069d 02       		.byte	0x2
 2444 069e D0       		.byte	0xd0
 2445 069f C2000000 		.4byte	0xc2
 2446 06a3 02       		.byte	0x2
 2447 06a4 91       		.byte	0x91
 2448 06a5 48       		.sleb128 -56
 2449 06a6 1C       		.uleb128 0x1c
 2450 06a7 3A040000 		.4byte	.LBB4
 2451 06ab 42040000 		.4byte	.LBE4
 2452 06af C2060000 		.4byte	0x6c2
 2453 06b3 1B       		.uleb128 0x1b
 2454 06b4 9C040000 		.4byte	.LASF98
 2455 06b8 02       		.byte	0x2
 2456 06b9 AF       		.byte	0xaf
 2457 06ba 27070000 		.4byte	0x727
 2458 06be 02       		.byte	0x2
 2459 06bf 91       		.byte	0x91
 2460 06c0 68       		.sleb128 -24
 2461 06c1 00       		.byte	0
 2462 06c2 1C       		.uleb128 0x1c
 2463 06c3 58040000 		.4byte	.LBB5
 2464 06c7 A2040000 		.4byte	.LBE5
 2465 06cb EC060000 		.4byte	0x6ec
 2466 06cf 1B       		.uleb128 0x1b
 2467 06d0 8B030000 		.4byte	.LASF93
 2468 06d4 02       		.byte	0x2
 2469 06d5 B5       		.byte	0xb5
 2470 06d6 63010000 		.4byte	0x163
 2471 06da 02       		.byte	0x2
 2472 06db 91       		.byte	0x91
 2473 06dc 64       		.sleb128 -28
 2474 06dd 1B       		.uleb128 0x1b
 2475 06de 7F050000 		.4byte	.LASF92
 2476 06e2 02       		.byte	0x2
 2477 06e3 B6       		.byte	0xb6
 2478 06e4 7C040000 		.4byte	0x47c
 2479 06e8 02       		.byte	0x2
 2480 06e9 91       		.byte	0x91
 2481 06ea 60       		.sleb128 -32
 2482 06eb 00       		.byte	0
 2483 06ec 1C       		.uleb128 0x1c
 2484 06ed 14050000 		.4byte	.LBB6
 2485 06f1 58050000 		.4byte	.LBE6
ARM GAS  G:\Users\Jaxb\AppData\Local\Temp\cchAS7Ki.s 			page 52


 2486 06f5 08070000 		.4byte	0x708
 2487 06f9 1D       		.uleb128 0x1d
 2488 06fa 6E756D00 		.ascii	"num\000"
 2489 06fe 02       		.byte	0x2
 2490 06ff DE       		.byte	0xde
 2491 0700 67000000 		.4byte	0x67
 2492 0704 02       		.byte	0x2
 2493 0705 91       		.byte	0x91
 2494 0706 70       		.sleb128 -16
 2495 0707 00       		.byte	0
 2496 0708 1E       		.uleb128 0x1e
 2497 0709 A6050000 		.4byte	.LBB7
 2498 070d AE050000 		.4byte	.LBE7
 2499 0711 1B       		.uleb128 0x1b
 2500 0712 9C040000 		.4byte	.LASF98
 2501 0716 02       		.byte	0x2
 2502 0717 F3       		.byte	0xf3
 2503 0718 27070000 		.4byte	0x727
 2504 071c 02       		.byte	0x2
 2505 071d 91       		.byte	0x91
 2506 071e 6C       		.sleb128 -20
 2507 071f 00       		.byte	0
 2508 0720 00       		.byte	0
 2509 0721 05       		.uleb128 0x5
 2510 0722 04       		.byte	0x4
 2511 0723 DB050000 		.4byte	0x5db
 2512 0727 05       		.uleb128 0x5
 2513 0728 04       		.byte	0x4
 2514 0729 4E000000 		.4byte	0x4e
 2515 072d 18       		.uleb128 0x18
 2516 072e 01       		.byte	0x1
 2517 072f D0030000 		.4byte	.LASF99
 2518 0733 02       		.byte	0x2
 2519 0734 3E       		.byte	0x3e
 2520 0735 01       		.byte	0x1
 2521 0736 67000000 		.4byte	0x67
 2522 073a C0010000 		.4byte	.LFB16
 2523 073e C0030000 		.4byte	.LFE16
 2524 0742 F2000000 		.4byte	.LLST8
 2525 0746 01       		.byte	0x1
 2526 0747 E2070000 		.4byte	0x7e2
 2527 074b 19       		.uleb128 0x19
 2528 074c 18070000 		.4byte	.LASF91
 2529 0750 02       		.byte	0x2
 2530 0751 3E       		.byte	0x3e
 2531 0752 2C060000 		.4byte	0x62c
 2532 0756 02       		.byte	0x2
 2533 0757 91       		.byte	0x91
 2534 0758 4C       		.sleb128 -52
 2535 0759 19       		.uleb128 0x19
 2536 075a 00000000 		.4byte	.LASF87
 2537 075e 02       		.byte	0x2
 2538 075f 3E       		.byte	0x3e
 2539 0760 DB050000 		.4byte	0x5db
 2540 0764 02       		.byte	0x2
 2541 0765 91       		.byte	0x91
 2542 0766 48       		.sleb128 -56
ARM GAS  G:\Users\Jaxb\AppData\Local\Temp\cchAS7Ki.s 			page 53


 2543 0767 19       		.uleb128 0x19
 2544 0768 65060000 		.4byte	.LASF95
 2545 076c 02       		.byte	0x2
 2546 076d 3E       		.byte	0x3e
 2547 076e C3010000 		.4byte	0x1c3
 2548 0772 02       		.byte	0x2
 2549 0773 91       		.byte	0x91
 2550 0774 47       		.sleb128 -57
 2551 0775 19       		.uleb128 0x19
 2552 0776 39040000 		.4byte	.LASF96
 2553 077a 02       		.byte	0x2
 2554 077b 3E       		.byte	0x3e
 2555 077c 93000000 		.4byte	0x93
 2556 0780 02       		.byte	0x2
 2557 0781 91       		.byte	0x91
 2558 0782 40       		.sleb128 -64
 2559 0783 1B       		.uleb128 0x1b
 2560 0784 B8050000 		.4byte	.LASF97
 2561 0788 02       		.byte	0x2
 2562 0789 4A       		.byte	0x4a
 2563 078a 30040000 		.4byte	0x430
 2564 078e 02       		.byte	0x2
 2565 078f 91       		.byte	0x91
 2566 0790 74       		.sleb128 -12
 2567 0791 1B       		.uleb128 0x1b
 2568 0792 A3040000 		.4byte	.LASF88
 2569 0796 02       		.byte	0x2
 2570 0797 6F       		.byte	0x6f
 2571 0798 C2000000 		.4byte	0xc2
 2572 079c 02       		.byte	0x2
 2573 079d 91       		.byte	0x91
 2574 079e 50       		.sleb128 -48
 2575 079f 1C       		.uleb128 0x1c
 2576 07a0 3E020000 		.4byte	.LBB2
 2577 07a4 88020000 		.4byte	.LBE2
 2578 07a8 C9070000 		.4byte	0x7c9
 2579 07ac 1B       		.uleb128 0x1b
 2580 07ad 8B030000 		.4byte	.LASF93
 2581 07b1 02       		.byte	0x2
 2582 07b2 54       		.byte	0x54
 2583 07b3 63010000 		.4byte	0x163
 2584 07b7 02       		.byte	0x2
 2585 07b8 91       		.byte	0x91
 2586 07b9 6C       		.sleb128 -20
 2587 07ba 1B       		.uleb128 0x1b
 2588 07bb 7F050000 		.4byte	.LASF92
 2589 07bf 02       		.byte	0x2
 2590 07c0 55       		.byte	0x55
 2591 07c1 7C040000 		.4byte	0x47c
 2592 07c5 02       		.byte	0x2
 2593 07c6 91       		.byte	0x91
 2594 07c7 68       		.sleb128 -24
 2595 07c8 00       		.byte	0
 2596 07c9 1E       		.uleb128 0x1e
 2597 07ca FE020000 		.4byte	.LBB3
 2598 07ce 42030000 		.4byte	.LBE3
 2599 07d2 1D       		.uleb128 0x1d
ARM GAS  G:\Users\Jaxb\AppData\Local\Temp\cchAS7Ki.s 			page 54


 2600 07d3 6E756D00 		.ascii	"num\000"
 2601 07d7 02       		.byte	0x2
 2602 07d8 7D       		.byte	0x7d
 2603 07d9 67000000 		.4byte	0x67
 2604 07dd 02       		.byte	0x2
 2605 07de 91       		.byte	0x91
 2606 07df 70       		.sleb128 -16
 2607 07e0 00       		.byte	0
 2608 07e1 00       		.byte	0
 2609 07e2 18       		.uleb128 0x18
 2610 07e3 01       		.byte	0x1
 2611 07e4 CC040000 		.4byte	.LASF100
 2612 07e8 02       		.byte	0x2
 2613 07e9 16       		.byte	0x16
 2614 07ea 01       		.byte	0x1
 2615 07eb 67000000 		.4byte	0x67
 2616 07ef EC000000 		.4byte	.LFB15
 2617 07f3 C0010000 		.4byte	.LFE15
 2618 07f7 44010000 		.4byte	.LLST7
 2619 07fb 01       		.byte	0x1
 2620 07fc 39080000 		.4byte	0x839
 2621 0800 19       		.uleb128 0x19
 2622 0801 18070000 		.4byte	.LASF91
 2623 0805 02       		.byte	0x2
 2624 0806 16       		.byte	0x16
 2625 0807 2C060000 		.4byte	0x62c
 2626 080b 02       		.byte	0x2
 2627 080c 91       		.byte	0x91
 2628 080d 6C       		.sleb128 -20
 2629 080e 19       		.uleb128 0x19
 2630 080f 0B030000 		.4byte	.LASF37
 2631 0813 02       		.byte	0x2
 2632 0814 16       		.byte	0x16
 2633 0815 90020000 		.4byte	0x290
 2634 0819 02       		.byte	0x2
 2635 081a 91       		.byte	0x91
 2636 081b 68       		.sleb128 -24
 2637 081c 19       		.uleb128 0x19
 2638 081d E1010000 		.4byte	.LASF39
 2639 0821 02       		.byte	0x2
 2640 0822 16       		.byte	0x16
 2641 0823 93000000 		.4byte	0x93
 2642 0827 02       		.byte	0x2
 2643 0828 91       		.byte	0x91
 2644 0829 64       		.sleb128 -28
 2645 082a 1B       		.uleb128 0x1b
 2646 082b B8050000 		.4byte	.LASF97
 2647 082f 02       		.byte	0x2
 2648 0830 22       		.byte	0x22
 2649 0831 30040000 		.4byte	0x430
 2650 0835 02       		.byte	0x2
 2651 0836 91       		.byte	0x91
 2652 0837 74       		.sleb128 -12
 2653 0838 00       		.byte	0
 2654 0839 1F       		.uleb128 0x1f
 2655 083a 43040000 		.4byte	.LASF23
 2656 083e 02       		.byte	0x2
ARM GAS  G:\Users\Jaxb\AppData\Local\Temp\cchAS7Ki.s 			page 55


 2657 083f 11       		.byte	0x11
 2658 0840 01       		.byte	0x1
 2659 0841 67000000 		.4byte	0x67
 2660 0845 CE000000 		.4byte	.LFB14
 2661 0849 EC000000 		.4byte	.LFE14
 2662 084d 94010000 		.4byte	.LLST6
 2663 0851 01       		.byte	0x1
 2664 0852 73080000 		.4byte	0x873
 2665 0856 19       		.uleb128 0x19
 2666 0857 AC020000 		.4byte	.LASF101
 2667 085b 02       		.byte	0x2
 2668 085c 11       		.byte	0x11
 2669 085d F9000000 		.4byte	0xf9
 2670 0861 02       		.byte	0x2
 2671 0862 91       		.byte	0x91
 2672 0863 74       		.sleb128 -12
 2673 0864 19       		.uleb128 0x19
 2674 0865 C4020000 		.4byte	.LASF102
 2675 0869 02       		.byte	0x2
 2676 086a 11       		.byte	0x11
 2677 086b F9000000 		.4byte	0xf9
 2678 086f 02       		.byte	0x2
 2679 0870 91       		.byte	0x91
 2680 0871 70       		.sleb128 -16
 2681 0872 00       		.byte	0
 2682 0873 1F       		.uleb128 0x1f
 2683 0874 3A050000 		.4byte	.LASF21
 2684 0878 02       		.byte	0x2
 2685 0879 0C       		.byte	0xc
 2686 087a 01       		.byte	0x1
 2687 087b 67000000 		.4byte	0x67
 2688 087f AC000000 		.4byte	.LFB13
 2689 0883 CE000000 		.4byte	.LFE13
 2690 0887 F0010000 		.4byte	.LLST5
 2691 088b 01       		.byte	0x1
 2692 088c AD080000 		.4byte	0x8ad
 2693 0890 19       		.uleb128 0x19
 2694 0891 AC020000 		.4byte	.LASF101
 2695 0895 02       		.byte	0x2
 2696 0896 0C       		.byte	0xc
 2697 0897 63010000 		.4byte	0x163
 2698 089b 02       		.byte	0x2
 2699 089c 91       		.byte	0x91
 2700 089d 74       		.sleb128 -12
 2701 089e 19       		.uleb128 0x19
 2702 089f C4020000 		.4byte	.LASF102
 2703 08a3 02       		.byte	0x2
 2704 08a4 0C       		.byte	0xc
 2705 08a5 63010000 		.4byte	0x163
 2706 08a9 02       		.byte	0x2
 2707 08aa 91       		.byte	0x91
 2708 08ab 70       		.sleb128 -16
 2709 08ac 00       		.byte	0
 2710 08ad 20       		.uleb128 0x20
 2711 08ae 76050000 		.4byte	.LASF104
 2712 08b2 01       		.byte	0x1
 2713 08b3 35       		.byte	0x35
ARM GAS  G:\Users\Jaxb\AppData\Local\Temp\cchAS7Ki.s 			page 56


 2714 08b4 01       		.byte	0x1
 2715 08b5 8C000000 		.4byte	.LFB5
 2716 08b9 AC000000 		.4byte	.LFE5
 2717 08bd 4C020000 		.4byte	.LLST4
 2718 08c1 01       		.byte	0x1
 2719 08c2 D5080000 		.4byte	0x8d5
 2720 08c6 19       		.uleb128 0x19
 2721 08c7 25030000 		.4byte	.LASF103
 2722 08cb 01       		.byte	0x1
 2723 08cc 35       		.byte	0x35
 2724 08cd 53000000 		.4byte	0x53
 2725 08d1 02       		.byte	0x2
 2726 08d2 91       		.byte	0x91
 2727 08d3 74       		.sleb128 -12
 2728 08d4 00       		.byte	0
 2729 08d5 21       		.uleb128 0x21
 2730 08d6 88010000 		.4byte	.LASF105
 2731 08da 01       		.byte	0x1
 2732 08db 2E       		.byte	0x2e
 2733 08dc 01       		.byte	0x1
 2734 08dd 6C000000 		.4byte	.LFB4
 2735 08e1 8C000000 		.4byte	.LFE4
 2736 08e5 9C020000 		.4byte	.LLST3
 2737 08e9 01       		.byte	0x1
 2738 08ea 0B090000 		.4byte	0x90b
 2739 08ee 19       		.uleb128 0x19
 2740 08ef C8060000 		.4byte	.LASF1
 2741 08f3 01       		.byte	0x1
 2742 08f4 2E       		.byte	0x2e
 2743 08f5 53000000 		.4byte	0x53
 2744 08f9 02       		.byte	0x2
 2745 08fa 91       		.byte	0x91
 2746 08fb 74       		.sleb128 -12
 2747 08fc 19       		.uleb128 0x19
 2748 08fd 31070000 		.4byte	.LASF0
 2749 0901 01       		.byte	0x1
 2750 0902 2E       		.byte	0x2e
 2751 0903 53000000 		.4byte	0x53
 2752 0907 02       		.byte	0x2
 2753 0908 91       		.byte	0x91
 2754 0909 70       		.sleb128 -16
 2755 090a 00       		.byte	0
 2756 090b 20       		.uleb128 0x20
 2757 090c FD020000 		.4byte	.LASF106
 2758 0910 01       		.byte	0x1
 2759 0911 28       		.byte	0x28
 2760 0912 01       		.byte	0x1
 2761 0913 4C000000 		.4byte	.LFB3
 2762 0917 6C000000 		.4byte	.LFE3
 2763 091b F8020000 		.4byte	.LLST2
 2764 091f 01       		.byte	0x1
 2765 0920 41090000 		.4byte	0x941
 2766 0924 22       		.uleb128 0x22
 2767 0925 6E657700 		.ascii	"new\000"
 2768 0929 01       		.byte	0x1
 2769 092a 28       		.byte	0x28
 2770 092b 53000000 		.4byte	0x53
ARM GAS  G:\Users\Jaxb\AppData\Local\Temp\cchAS7Ki.s 			page 57


 2771 092f 02       		.byte	0x2
 2772 0930 91       		.byte	0x91
 2773 0931 74       		.sleb128 -12
 2774 0932 19       		.uleb128 0x19
 2775 0933 6C010000 		.4byte	.LASF107
 2776 0937 01       		.byte	0x1
 2777 0938 28       		.byte	0x28
 2778 0939 53000000 		.4byte	0x53
 2779 093d 02       		.byte	0x2
 2780 093e 91       		.byte	0x91
 2781 093f 70       		.sleb128 -16
 2782 0940 00       		.byte	0
 2783 0941 21       		.uleb128 0x21
 2784 0942 B5010000 		.4byte	.LASF108
 2785 0946 01       		.byte	0x1
 2786 0947 17       		.byte	0x17
 2787 0948 01       		.byte	0x1
 2788 0949 1E000000 		.4byte	.LFB1
 2789 094d 4C000000 		.4byte	.LFE1
 2790 0951 48030000 		.4byte	.LLST1
 2791 0955 01       		.byte	0x1
 2792 0956 85090000 		.4byte	0x985
 2793 095a 22       		.uleb128 0x22
 2794 095b 6E657700 		.ascii	"new\000"
 2795 095f 01       		.byte	0x1
 2796 0960 17       		.byte	0x17
 2797 0961 53000000 		.4byte	0x53
 2798 0965 02       		.byte	0x2
 2799 0966 91       		.byte	0x91
 2800 0967 74       		.sleb128 -12
 2801 0968 19       		.uleb128 0x19
 2802 0969 C8060000 		.4byte	.LASF1
 2803 096d 01       		.byte	0x1
 2804 096e 18       		.byte	0x18
 2805 096f 53000000 		.4byte	0x53
 2806 0973 02       		.byte	0x2
 2807 0974 91       		.byte	0x91
 2808 0975 70       		.sleb128 -16
 2809 0976 19       		.uleb128 0x19
 2810 0977 31070000 		.4byte	.LASF0
 2811 097b 01       		.byte	0x1
 2812 097c 19       		.byte	0x19
 2813 097d 53000000 		.4byte	0x53
 2814 0981 02       		.byte	0x2
 2815 0982 91       		.byte	0x91
 2816 0983 6C       		.sleb128 -20
 2817 0984 00       		.byte	0
 2818 0985 23       		.uleb128 0x23
 2819 0986 62000000 		.4byte	.LASF114
 2820 098a 01       		.byte	0x1
 2821 098b 10       		.byte	0x10
 2822 098c 01       		.byte	0x1
 2823 098d 00000000 		.4byte	.LFB0
 2824 0991 1E000000 		.4byte	.LFE0
 2825 0995 A4030000 		.4byte	.LLST0
 2826 0999 01       		.byte	0x1
 2827 099a 19       		.uleb128 0x19
ARM GAS  G:\Users\Jaxb\AppData\Local\Temp\cchAS7Ki.s 			page 58


 2828 099b 87050000 		.4byte	.LASF109
 2829 099f 01       		.byte	0x1
 2830 09a0 10       		.byte	0x10
 2831 09a1 53000000 		.4byte	0x53
 2832 09a5 02       		.byte	0x2
 2833 09a6 91       		.byte	0x91
 2834 09a7 74       		.sleb128 -12
 2835 09a8 00       		.byte	0
 2836 09a9 00       		.byte	0
 2837              		.section	.debug_abbrev,"",%progbits
 2838              	.Ldebug_abbrev0:
 2839 0000 01       		.uleb128 0x1
 2840 0001 11       		.uleb128 0x11
 2841 0002 01       		.byte	0x1
 2842 0003 25       		.uleb128 0x25
 2843 0004 0E       		.uleb128 0xe
 2844 0005 13       		.uleb128 0x13
 2845 0006 0B       		.uleb128 0xb
 2846 0007 03       		.uleb128 0x3
 2847 0008 0E       		.uleb128 0xe
 2848 0009 1B       		.uleb128 0x1b
 2849 000a 0E       		.uleb128 0xe
 2850 000b 11       		.uleb128 0x11
 2851 000c 01       		.uleb128 0x1
 2852 000d 12       		.uleb128 0x12
 2853 000e 01       		.uleb128 0x1
 2854 000f 10       		.uleb128 0x10
 2855 0010 06       		.uleb128 0x6
 2856 0011 00       		.byte	0
 2857 0012 00       		.byte	0
 2858 0013 02       		.uleb128 0x2
 2859 0014 13       		.uleb128 0x13
 2860 0015 01       		.byte	0x1
 2861 0016 03       		.uleb128 0x3
 2862 0017 0E       		.uleb128 0xe
 2863 0018 0B       		.uleb128 0xb
 2864 0019 0B       		.uleb128 0xb
 2865 001a 3A       		.uleb128 0x3a
 2866 001b 0B       		.uleb128 0xb
 2867 001c 3B       		.uleb128 0x3b
 2868 001d 0B       		.uleb128 0xb
 2869 001e 01       		.uleb128 0x1
 2870 001f 13       		.uleb128 0x13
 2871 0020 00       		.byte	0
 2872 0021 00       		.byte	0
 2873 0022 03       		.uleb128 0x3
 2874 0023 0D       		.uleb128 0xd
 2875 0024 00       		.byte	0
 2876 0025 03       		.uleb128 0x3
 2877 0026 0E       		.uleb128 0xe
 2878 0027 3A       		.uleb128 0x3a
 2879 0028 0B       		.uleb128 0xb
 2880 0029 3B       		.uleb128 0x3b
 2881 002a 0B       		.uleb128 0xb
 2882 002b 49       		.uleb128 0x49
 2883 002c 13       		.uleb128 0x13
 2884 002d 38       		.uleb128 0x38
ARM GAS  G:\Users\Jaxb\AppData\Local\Temp\cchAS7Ki.s 			page 59


 2885 002e 0A       		.uleb128 0xa
 2886 002f 00       		.byte	0
 2887 0030 00       		.byte	0
 2888 0031 04       		.uleb128 0x4
 2889 0032 26       		.uleb128 0x26
 2890 0033 00       		.byte	0
 2891 0034 49       		.uleb128 0x49
 2892 0035 13       		.uleb128 0x13
 2893 0036 00       		.byte	0
 2894 0037 00       		.byte	0
 2895 0038 05       		.uleb128 0x5
 2896 0039 0F       		.uleb128 0xf
 2897 003a 00       		.byte	0
 2898 003b 0B       		.uleb128 0xb
 2899 003c 0B       		.uleb128 0xb
 2900 003d 49       		.uleb128 0x49
 2901 003e 13       		.uleb128 0x13
 2902 003f 00       		.byte	0
 2903 0040 00       		.byte	0
 2904 0041 06       		.uleb128 0x6
 2905 0042 24       		.uleb128 0x24
 2906 0043 00       		.byte	0
 2907 0044 0B       		.uleb128 0xb
 2908 0045 0B       		.uleb128 0xb
 2909 0046 3E       		.uleb128 0x3e
 2910 0047 0B       		.uleb128 0xb
 2911 0048 03       		.uleb128 0x3
 2912 0049 0E       		.uleb128 0xe
 2913 004a 00       		.byte	0
 2914 004b 00       		.byte	0
 2915 004c 07       		.uleb128 0x7
 2916 004d 24       		.uleb128 0x24
 2917 004e 00       		.byte	0
 2918 004f 0B       		.uleb128 0xb
 2919 0050 0B       		.uleb128 0xb
 2920 0051 3E       		.uleb128 0x3e
 2921 0052 0B       		.uleb128 0xb
 2922 0053 03       		.uleb128 0x3
 2923 0054 08       		.uleb128 0x8
 2924 0055 00       		.byte	0
 2925 0056 00       		.byte	0
 2926 0057 08       		.uleb128 0x8
 2927 0058 35       		.uleb128 0x35
 2928 0059 00       		.byte	0
 2929 005a 49       		.uleb128 0x49
 2930 005b 13       		.uleb128 0x13
 2931 005c 00       		.byte	0
 2932 005d 00       		.byte	0
 2933 005e 09       		.uleb128 0x9
 2934 005f 16       		.uleb128 0x16
 2935 0060 00       		.byte	0
 2936 0061 03       		.uleb128 0x3
 2937 0062 0E       		.uleb128 0xe
 2938 0063 3A       		.uleb128 0x3a
 2939 0064 0B       		.uleb128 0xb
 2940 0065 3B       		.uleb128 0x3b
 2941 0066 0B       		.uleb128 0xb
ARM GAS  G:\Users\Jaxb\AppData\Local\Temp\cchAS7Ki.s 			page 60


 2942 0067 49       		.uleb128 0x49
 2943 0068 13       		.uleb128 0x13
 2944 0069 00       		.byte	0
 2945 006a 00       		.byte	0
 2946 006b 0A       		.uleb128 0xa
 2947 006c 0F       		.uleb128 0xf
 2948 006d 00       		.byte	0
 2949 006e 0B       		.uleb128 0xb
 2950 006f 0B       		.uleb128 0xb
 2951 0070 00       		.byte	0
 2952 0071 00       		.byte	0
 2953 0072 0B       		.uleb128 0xb
 2954 0073 15       		.uleb128 0x15
 2955 0074 01       		.byte	0x1
 2956 0075 27       		.uleb128 0x27
 2957 0076 0C       		.uleb128 0xc
 2958 0077 49       		.uleb128 0x49
 2959 0078 13       		.uleb128 0x13
 2960 0079 01       		.uleb128 0x1
 2961 007a 13       		.uleb128 0x13
 2962 007b 00       		.byte	0
 2963 007c 00       		.byte	0
 2964 007d 0C       		.uleb128 0xc
 2965 007e 05       		.uleb128 0x5
 2966 007f 00       		.byte	0
 2967 0080 49       		.uleb128 0x49
 2968 0081 13       		.uleb128 0x13
 2969 0082 00       		.byte	0
 2970 0083 00       		.byte	0
 2971 0084 0D       		.uleb128 0xd
 2972 0085 04       		.uleb128 0x4
 2973 0086 01       		.byte	0x1
 2974 0087 03       		.uleb128 0x3
 2975 0088 0E       		.uleb128 0xe
 2976 0089 3E       		.uleb128 0x3e
 2977 008a 0B       		.uleb128 0xb
 2978 008b 0B       		.uleb128 0xb
 2979 008c 0B       		.uleb128 0xb
 2980 008d 49       		.uleb128 0x49
 2981 008e 13       		.uleb128 0x13
 2982 008f 3A       		.uleb128 0x3a
 2983 0090 0B       		.uleb128 0xb
 2984 0091 3B       		.uleb128 0x3b
 2985 0092 0B       		.uleb128 0xb
 2986 0093 01       		.uleb128 0x1
 2987 0094 13       		.uleb128 0x13
 2988 0095 00       		.byte	0
 2989 0096 00       		.byte	0
 2990 0097 0E       		.uleb128 0xe
 2991 0098 28       		.uleb128 0x28
 2992 0099 00       		.byte	0
 2993 009a 03       		.uleb128 0x3
 2994 009b 0E       		.uleb128 0xe
 2995 009c 1C       		.uleb128 0x1c
 2996 009d 0B       		.uleb128 0xb
 2997 009e 00       		.byte	0
 2998 009f 00       		.byte	0
ARM GAS  G:\Users\Jaxb\AppData\Local\Temp\cchAS7Ki.s 			page 61


 2999 00a0 0F       		.uleb128 0xf
 3000 00a1 16       		.uleb128 0x16
 3001 00a2 00       		.byte	0
 3002 00a3 03       		.uleb128 0x3
 3003 00a4 08       		.uleb128 0x8
 3004 00a5 3A       		.uleb128 0x3a
 3005 00a6 0B       		.uleb128 0xb
 3006 00a7 3B       		.uleb128 0x3b
 3007 00a8 0B       		.uleb128 0xb
 3008 00a9 49       		.uleb128 0x49
 3009 00aa 13       		.uleb128 0x13
 3010 00ab 00       		.byte	0
 3011 00ac 00       		.byte	0
 3012 00ad 10       		.uleb128 0x10
 3013 00ae 34       		.uleb128 0x34
 3014 00af 00       		.byte	0
 3015 00b0 03       		.uleb128 0x3
 3016 00b1 0E       		.uleb128 0xe
 3017 00b2 3A       		.uleb128 0x3a
 3018 00b3 0B       		.uleb128 0xb
 3019 00b4 3B       		.uleb128 0x3b
 3020 00b5 0B       		.uleb128 0xb
 3021 00b6 49       		.uleb128 0x49
 3022 00b7 13       		.uleb128 0x13
 3023 00b8 3F       		.uleb128 0x3f
 3024 00b9 0C       		.uleb128 0xc
 3025 00ba 3C       		.uleb128 0x3c
 3026 00bb 0C       		.uleb128 0xc
 3027 00bc 00       		.byte	0
 3028 00bd 00       		.byte	0
 3029 00be 11       		.uleb128 0x11
 3030 00bf 13       		.uleb128 0x13
 3031 00c0 00       		.byte	0
 3032 00c1 03       		.uleb128 0x3
 3033 00c2 0E       		.uleb128 0xe
 3034 00c3 3C       		.uleb128 0x3c
 3035 00c4 0C       		.uleb128 0xc
 3036 00c5 00       		.byte	0
 3037 00c6 00       		.byte	0
 3038 00c7 12       		.uleb128 0x12
 3039 00c8 01       		.uleb128 0x1
 3040 00c9 01       		.byte	0x1
 3041 00ca 49       		.uleb128 0x49
 3042 00cb 13       		.uleb128 0x13
 3043 00cc 01       		.uleb128 0x1
 3044 00cd 13       		.uleb128 0x13
 3045 00ce 00       		.byte	0
 3046 00cf 00       		.byte	0
 3047 00d0 13       		.uleb128 0x13
 3048 00d1 21       		.uleb128 0x21
 3049 00d2 00       		.byte	0
 3050 00d3 49       		.uleb128 0x49
 3051 00d4 13       		.uleb128 0x13
 3052 00d5 2F       		.uleb128 0x2f
 3053 00d6 0B       		.uleb128 0xb
 3054 00d7 00       		.byte	0
 3055 00d8 00       		.byte	0
ARM GAS  G:\Users\Jaxb\AppData\Local\Temp\cchAS7Ki.s 			page 62


 3056 00d9 14       		.uleb128 0x14
 3057 00da 34       		.uleb128 0x34
 3058 00db 00       		.byte	0
 3059 00dc 03       		.uleb128 0x3
 3060 00dd 0E       		.uleb128 0xe
 3061 00de 3A       		.uleb128 0x3a
 3062 00df 0B       		.uleb128 0xb
 3063 00e0 3B       		.uleb128 0x3b
 3064 00e1 0B       		.uleb128 0xb
 3065 00e2 49       		.uleb128 0x49
 3066 00e3 13       		.uleb128 0x13
 3067 00e4 3F       		.uleb128 0x3f
 3068 00e5 0C       		.uleb128 0xc
 3069 00e6 02       		.uleb128 0x2
 3070 00e7 0A       		.uleb128 0xa
 3071 00e8 00       		.byte	0
 3072 00e9 00       		.byte	0
 3073 00ea 15       		.uleb128 0x15
 3074 00eb 34       		.uleb128 0x34
 3075 00ec 00       		.byte	0
 3076 00ed 03       		.uleb128 0x3
 3077 00ee 0E       		.uleb128 0xe
 3078 00ef 3A       		.uleb128 0x3a
 3079 00f0 0B       		.uleb128 0xb
 3080 00f1 3B       		.uleb128 0x3b
 3081 00f2 05       		.uleb128 0x5
 3082 00f3 49       		.uleb128 0x49
 3083 00f4 13       		.uleb128 0x13
 3084 00f5 3F       		.uleb128 0x3f
 3085 00f6 0C       		.uleb128 0xc
 3086 00f7 02       		.uleb128 0x2
 3087 00f8 0A       		.uleb128 0xa
 3088 00f9 00       		.byte	0
 3089 00fa 00       		.byte	0
 3090 00fb 16       		.uleb128 0x16
 3091 00fc 2E       		.uleb128 0x2e
 3092 00fd 01       		.byte	0x1
 3093 00fe 3F       		.uleb128 0x3f
 3094 00ff 0C       		.uleb128 0xc
 3095 0100 03       		.uleb128 0x3
 3096 0101 0E       		.uleb128 0xe
 3097 0102 3A       		.uleb128 0x3a
 3098 0103 0B       		.uleb128 0xb
 3099 0104 3B       		.uleb128 0x3b
 3100 0105 05       		.uleb128 0x5
 3101 0106 27       		.uleb128 0x27
 3102 0107 0C       		.uleb128 0xc
 3103 0108 49       		.uleb128 0x49
 3104 0109 13       		.uleb128 0x13
 3105 010a 11       		.uleb128 0x11
 3106 010b 01       		.uleb128 0x1
 3107 010c 12       		.uleb128 0x12
 3108 010d 01       		.uleb128 0x1
 3109 010e 40       		.uleb128 0x40
 3110 010f 06       		.uleb128 0x6
 3111 0110 9642     		.uleb128 0x2116
 3112 0112 0C       		.uleb128 0xc
ARM GAS  G:\Users\Jaxb\AppData\Local\Temp\cchAS7Ki.s 			page 63


 3113 0113 01       		.uleb128 0x1
 3114 0114 13       		.uleb128 0x13
 3115 0115 00       		.byte	0
 3116 0116 00       		.byte	0
 3117 0117 17       		.uleb128 0x17
 3118 0118 05       		.uleb128 0x5
 3119 0119 00       		.byte	0
 3120 011a 03       		.uleb128 0x3
 3121 011b 0E       		.uleb128 0xe
 3122 011c 3A       		.uleb128 0x3a
 3123 011d 0B       		.uleb128 0xb
 3124 011e 3B       		.uleb128 0x3b
 3125 011f 05       		.uleb128 0x5
 3126 0120 49       		.uleb128 0x49
 3127 0121 13       		.uleb128 0x13
 3128 0122 02       		.uleb128 0x2
 3129 0123 0A       		.uleb128 0xa
 3130 0124 00       		.byte	0
 3131 0125 00       		.byte	0
 3132 0126 18       		.uleb128 0x18
 3133 0127 2E       		.uleb128 0x2e
 3134 0128 01       		.byte	0x1
 3135 0129 3F       		.uleb128 0x3f
 3136 012a 0C       		.uleb128 0xc
 3137 012b 03       		.uleb128 0x3
 3138 012c 0E       		.uleb128 0xe
 3139 012d 3A       		.uleb128 0x3a
 3140 012e 0B       		.uleb128 0xb
 3141 012f 3B       		.uleb128 0x3b
 3142 0130 0B       		.uleb128 0xb
 3143 0131 27       		.uleb128 0x27
 3144 0132 0C       		.uleb128 0xc
 3145 0133 49       		.uleb128 0x49
 3146 0134 13       		.uleb128 0x13
 3147 0135 11       		.uleb128 0x11
 3148 0136 01       		.uleb128 0x1
 3149 0137 12       		.uleb128 0x12
 3150 0138 01       		.uleb128 0x1
 3151 0139 40       		.uleb128 0x40
 3152 013a 06       		.uleb128 0x6
 3153 013b 9642     		.uleb128 0x2116
 3154 013d 0C       		.uleb128 0xc
 3155 013e 01       		.uleb128 0x1
 3156 013f 13       		.uleb128 0x13
 3157 0140 00       		.byte	0
 3158 0141 00       		.byte	0
 3159 0142 19       		.uleb128 0x19
 3160 0143 05       		.uleb128 0x5
 3161 0144 00       		.byte	0
 3162 0145 03       		.uleb128 0x3
 3163 0146 0E       		.uleb128 0xe
 3164 0147 3A       		.uleb128 0x3a
 3165 0148 0B       		.uleb128 0xb
 3166 0149 3B       		.uleb128 0x3b
 3167 014a 0B       		.uleb128 0xb
 3168 014b 49       		.uleb128 0x49
 3169 014c 13       		.uleb128 0x13
ARM GAS  G:\Users\Jaxb\AppData\Local\Temp\cchAS7Ki.s 			page 64


 3170 014d 02       		.uleb128 0x2
 3171 014e 0A       		.uleb128 0xa
 3172 014f 00       		.byte	0
 3173 0150 00       		.byte	0
 3174 0151 1A       		.uleb128 0x1a
 3175 0152 34       		.uleb128 0x34
 3176 0153 00       		.byte	0
 3177 0154 03       		.uleb128 0x3
 3178 0155 0E       		.uleb128 0xe
 3179 0156 3A       		.uleb128 0x3a
 3180 0157 0B       		.uleb128 0xb
 3181 0158 3B       		.uleb128 0x3b
 3182 0159 05       		.uleb128 0x5
 3183 015a 49       		.uleb128 0x49
 3184 015b 13       		.uleb128 0x13
 3185 015c 02       		.uleb128 0x2
 3186 015d 0A       		.uleb128 0xa
 3187 015e 00       		.byte	0
 3188 015f 00       		.byte	0
 3189 0160 1B       		.uleb128 0x1b
 3190 0161 34       		.uleb128 0x34
 3191 0162 00       		.byte	0
 3192 0163 03       		.uleb128 0x3
 3193 0164 0E       		.uleb128 0xe
 3194 0165 3A       		.uleb128 0x3a
 3195 0166 0B       		.uleb128 0xb
 3196 0167 3B       		.uleb128 0x3b
 3197 0168 0B       		.uleb128 0xb
 3198 0169 49       		.uleb128 0x49
 3199 016a 13       		.uleb128 0x13
 3200 016b 02       		.uleb128 0x2
 3201 016c 0A       		.uleb128 0xa
 3202 016d 00       		.byte	0
 3203 016e 00       		.byte	0
 3204 016f 1C       		.uleb128 0x1c
 3205 0170 0B       		.uleb128 0xb
 3206 0171 01       		.byte	0x1
 3207 0172 11       		.uleb128 0x11
 3208 0173 01       		.uleb128 0x1
 3209 0174 12       		.uleb128 0x12
 3210 0175 01       		.uleb128 0x1
 3211 0176 01       		.uleb128 0x1
 3212 0177 13       		.uleb128 0x13
 3213 0178 00       		.byte	0
 3214 0179 00       		.byte	0
 3215 017a 1D       		.uleb128 0x1d
 3216 017b 34       		.uleb128 0x34
 3217 017c 00       		.byte	0
 3218 017d 03       		.uleb128 0x3
 3219 017e 08       		.uleb128 0x8
 3220 017f 3A       		.uleb128 0x3a
 3221 0180 0B       		.uleb128 0xb
 3222 0181 3B       		.uleb128 0x3b
 3223 0182 0B       		.uleb128 0xb
 3224 0183 49       		.uleb128 0x49
 3225 0184 13       		.uleb128 0x13
 3226 0185 02       		.uleb128 0x2
ARM GAS  G:\Users\Jaxb\AppData\Local\Temp\cchAS7Ki.s 			page 65


 3227 0186 0A       		.uleb128 0xa
 3228 0187 00       		.byte	0
 3229 0188 00       		.byte	0
 3230 0189 1E       		.uleb128 0x1e
 3231 018a 0B       		.uleb128 0xb
 3232 018b 01       		.byte	0x1
 3233 018c 11       		.uleb128 0x11
 3234 018d 01       		.uleb128 0x1
 3235 018e 12       		.uleb128 0x12
 3236 018f 01       		.uleb128 0x1
 3237 0190 00       		.byte	0
 3238 0191 00       		.byte	0
 3239 0192 1F       		.uleb128 0x1f
 3240 0193 2E       		.uleb128 0x2e
 3241 0194 01       		.byte	0x1
 3242 0195 03       		.uleb128 0x3
 3243 0196 0E       		.uleb128 0xe
 3244 0197 3A       		.uleb128 0x3a
 3245 0198 0B       		.uleb128 0xb
 3246 0199 3B       		.uleb128 0x3b
 3247 019a 0B       		.uleb128 0xb
 3248 019b 27       		.uleb128 0x27
 3249 019c 0C       		.uleb128 0xc
 3250 019d 49       		.uleb128 0x49
 3251 019e 13       		.uleb128 0x13
 3252 019f 11       		.uleb128 0x11
 3253 01a0 01       		.uleb128 0x1
 3254 01a1 12       		.uleb128 0x12
 3255 01a2 01       		.uleb128 0x1
 3256 01a3 40       		.uleb128 0x40
 3257 01a4 06       		.uleb128 0x6
 3258 01a5 9742     		.uleb128 0x2117
 3259 01a7 0C       		.uleb128 0xc
 3260 01a8 01       		.uleb128 0x1
 3261 01a9 13       		.uleb128 0x13
 3262 01aa 00       		.byte	0
 3263 01ab 00       		.byte	0
 3264 01ac 20       		.uleb128 0x20
 3265 01ad 2E       		.uleb128 0x2e
 3266 01ae 01       		.byte	0x1
 3267 01af 03       		.uleb128 0x3
 3268 01b0 0E       		.uleb128 0xe
 3269 01b1 3A       		.uleb128 0x3a
 3270 01b2 0B       		.uleb128 0xb
 3271 01b3 3B       		.uleb128 0x3b
 3272 01b4 0B       		.uleb128 0xb
 3273 01b5 27       		.uleb128 0x27
 3274 01b6 0C       		.uleb128 0xc
 3275 01b7 11       		.uleb128 0x11
 3276 01b8 01       		.uleb128 0x1
 3277 01b9 12       		.uleb128 0x12
 3278 01ba 01       		.uleb128 0x1
 3279 01bb 40       		.uleb128 0x40
 3280 01bc 06       		.uleb128 0x6
 3281 01bd 9642     		.uleb128 0x2116
 3282 01bf 0C       		.uleb128 0xc
 3283 01c0 01       		.uleb128 0x1
ARM GAS  G:\Users\Jaxb\AppData\Local\Temp\cchAS7Ki.s 			page 66


 3284 01c1 13       		.uleb128 0x13
 3285 01c2 00       		.byte	0
 3286 01c3 00       		.byte	0
 3287 01c4 21       		.uleb128 0x21
 3288 01c5 2E       		.uleb128 0x2e
 3289 01c6 01       		.byte	0x1
 3290 01c7 03       		.uleb128 0x3
 3291 01c8 0E       		.uleb128 0xe
 3292 01c9 3A       		.uleb128 0x3a
 3293 01ca 0B       		.uleb128 0xb
 3294 01cb 3B       		.uleb128 0x3b
 3295 01cc 0B       		.uleb128 0xb
 3296 01cd 27       		.uleb128 0x27
 3297 01ce 0C       		.uleb128 0xc
 3298 01cf 11       		.uleb128 0x11
 3299 01d0 01       		.uleb128 0x1
 3300 01d1 12       		.uleb128 0x12
 3301 01d2 01       		.uleb128 0x1
 3302 01d3 40       		.uleb128 0x40
 3303 01d4 06       		.uleb128 0x6
 3304 01d5 9742     		.uleb128 0x2117
 3305 01d7 0C       		.uleb128 0xc
 3306 01d8 01       		.uleb128 0x1
 3307 01d9 13       		.uleb128 0x13
 3308 01da 00       		.byte	0
 3309 01db 00       		.byte	0
 3310 01dc 22       		.uleb128 0x22
 3311 01dd 05       		.uleb128 0x5
 3312 01de 00       		.byte	0
 3313 01df 03       		.uleb128 0x3
 3314 01e0 08       		.uleb128 0x8
 3315 01e1 3A       		.uleb128 0x3a
 3316 01e2 0B       		.uleb128 0xb
 3317 01e3 3B       		.uleb128 0x3b
 3318 01e4 0B       		.uleb128 0xb
 3319 01e5 49       		.uleb128 0x49
 3320 01e6 13       		.uleb128 0x13
 3321 01e7 02       		.uleb128 0x2
 3322 01e8 0A       		.uleb128 0xa
 3323 01e9 00       		.byte	0
 3324 01ea 00       		.byte	0
 3325 01eb 23       		.uleb128 0x23
 3326 01ec 2E       		.uleb128 0x2e
 3327 01ed 01       		.byte	0x1
 3328 01ee 03       		.uleb128 0x3
 3329 01ef 0E       		.uleb128 0xe
 3330 01f0 3A       		.uleb128 0x3a
 3331 01f1 0B       		.uleb128 0xb
 3332 01f2 3B       		.uleb128 0x3b
 3333 01f3 0B       		.uleb128 0xb
 3334 01f4 27       		.uleb128 0x27
 3335 01f5 0C       		.uleb128 0xc
 3336 01f6 11       		.uleb128 0x11
 3337 01f7 01       		.uleb128 0x1
 3338 01f8 12       		.uleb128 0x12
 3339 01f9 01       		.uleb128 0x1
 3340 01fa 40       		.uleb128 0x40
ARM GAS  G:\Users\Jaxb\AppData\Local\Temp\cchAS7Ki.s 			page 67


 3341 01fb 06       		.uleb128 0x6
 3342 01fc 9742     		.uleb128 0x2117
 3343 01fe 0C       		.uleb128 0xc
 3344 01ff 00       		.byte	0
 3345 0200 00       		.byte	0
 3346 0201 00       		.byte	0
 3347              		.section	.debug_loc,"",%progbits
 3348              	.Ldebug_loc0:
 3349              	.LLST11:
 3350 0000 D0060000 		.4byte	.LFB19-.Ltext0
 3351 0004 D2060000 		.4byte	.LCFI60-.Ltext0
 3352 0008 0200     		.2byte	0x2
 3353 000a 7D       		.byte	0x7d
 3354 000b 00       		.sleb128 0
 3355 000c D2060000 		.4byte	.LCFI60-.Ltext0
 3356 0010 D4060000 		.4byte	.LCFI61-.Ltext0
 3357 0014 0200     		.2byte	0x2
 3358 0016 7D       		.byte	0x7d
 3359 0017 0C       		.sleb128 12
 3360 0018 D4060000 		.4byte	.LCFI61-.Ltext0
 3361 001c D6060000 		.4byte	.LCFI62-.Ltext0
 3362 0020 0200     		.2byte	0x2
 3363 0022 7D       		.byte	0x7d
 3364 0023 20       		.sleb128 32
 3365 0024 D6060000 		.4byte	.LCFI62-.Ltext0
 3366 0028 26070000 		.4byte	.LCFI63-.Ltext0
 3367 002c 0200     		.2byte	0x2
 3368 002e 77       		.byte	0x77
 3369 002f 20       		.sleb128 32
 3370 0030 26070000 		.4byte	.LCFI63-.Ltext0
 3371 0034 28070000 		.4byte	.LCFI64-.Ltext0
 3372 0038 0200     		.2byte	0x2
 3373 003a 77       		.byte	0x77
 3374 003b 0C       		.sleb128 12
 3375 003c 28070000 		.4byte	.LCFI64-.Ltext0
 3376 0040 34070000 		.4byte	.LFE19-.Ltext0
 3377 0044 0200     		.2byte	0x2
 3378 0046 7D       		.byte	0x7d
 3379 0047 0C       		.sleb128 12
 3380 0048 00000000 		.4byte	0
 3381 004c 00000000 		.4byte	0
 3382              	.LLST10:
 3383 0050 E0050000 		.4byte	.LFB18-.Ltext0
 3384 0054 E2050000 		.4byte	.LCFI55-.Ltext0
 3385 0058 0200     		.2byte	0x2
 3386 005a 7D       		.byte	0x7d
 3387 005b 00       		.sleb128 0
 3388 005c E2050000 		.4byte	.LCFI55-.Ltext0
 3389 0060 E4050000 		.4byte	.LCFI56-.Ltext0
 3390 0064 0200     		.2byte	0x2
 3391 0066 7D       		.byte	0x7d
 3392 0067 08       		.sleb128 8
 3393 0068 E4050000 		.4byte	.LCFI56-.Ltext0
 3394 006c E6050000 		.4byte	.LCFI57-.Ltext0
 3395 0070 0200     		.2byte	0x2
 3396 0072 7D       		.byte	0x7d
 3397 0073 18       		.sleb128 24
ARM GAS  G:\Users\Jaxb\AppData\Local\Temp\cchAS7Ki.s 			page 68


 3398 0074 E6050000 		.4byte	.LCFI57-.Ltext0
 3399 0078 C2060000 		.4byte	.LCFI58-.Ltext0
 3400 007c 0200     		.2byte	0x2
 3401 007e 77       		.byte	0x77
 3402 007f 18       		.sleb128 24
 3403 0080 C2060000 		.4byte	.LCFI58-.Ltext0
 3404 0084 C4060000 		.4byte	.LCFI59-.Ltext0
 3405 0088 0200     		.2byte	0x2
 3406 008a 77       		.byte	0x77
 3407 008b 08       		.sleb128 8
 3408 008c C4060000 		.4byte	.LCFI59-.Ltext0
 3409 0090 D0060000 		.4byte	.LFE18-.Ltext0
 3410 0094 0200     		.2byte	0x2
 3411 0096 7D       		.byte	0x7d
 3412 0097 08       		.sleb128 8
 3413 0098 00000000 		.4byte	0
 3414 009c 00000000 		.4byte	0
 3415              	.LLST9:
 3416 00a0 C0030000 		.4byte	.LFB17-.Ltext0
 3417 00a4 C2030000 		.4byte	.LCFI50-.Ltext0
 3418 00a8 0200     		.2byte	0x2
 3419 00aa 7D       		.byte	0x7d
 3420 00ab 00       		.sleb128 0
 3421 00ac C2030000 		.4byte	.LCFI50-.Ltext0
 3422 00b0 C4030000 		.4byte	.LCFI51-.Ltext0
 3423 00b4 0200     		.2byte	0x2
 3424 00b6 7D       		.byte	0x7d
 3425 00b7 08       		.sleb128 8
 3426 00b8 C4030000 		.4byte	.LCFI51-.Ltext0
 3427 00bc C6030000 		.4byte	.LCFI52-.Ltext0
 3428 00c0 0300     		.2byte	0x3
 3429 00c2 7D       		.byte	0x7d
 3430 00c3 C800     		.sleb128 72
 3431 00c5 C6030000 		.4byte	.LCFI52-.Ltext0
 3432 00c9 C8050000 		.4byte	.LCFI53-.Ltext0
 3433 00cd 0300     		.2byte	0x3
 3434 00cf 77       		.byte	0x77
 3435 00d0 C800     		.sleb128 72
 3436 00d2 C8050000 		.4byte	.LCFI53-.Ltext0
 3437 00d6 CA050000 		.4byte	.LCFI54-.Ltext0
 3438 00da 0200     		.2byte	0x2
 3439 00dc 77       		.byte	0x77
 3440 00dd 08       		.sleb128 8
 3441 00de CA050000 		.4byte	.LCFI54-.Ltext0
 3442 00e2 E0050000 		.4byte	.LFE17-.Ltext0
 3443 00e6 0200     		.2byte	0x2
 3444 00e8 7D       		.byte	0x7d
 3445 00e9 08       		.sleb128 8
 3446 00ea 00000000 		.4byte	0
 3447 00ee 00000000 		.4byte	0
 3448              	.LLST8:
 3449 00f2 C0010000 		.4byte	.LFB16-.Ltext0
 3450 00f6 C2010000 		.4byte	.LCFI45-.Ltext0
 3451 00fa 0200     		.2byte	0x2
 3452 00fc 7D       		.byte	0x7d
 3453 00fd 00       		.sleb128 0
 3454 00fe C2010000 		.4byte	.LCFI45-.Ltext0
ARM GAS  G:\Users\Jaxb\AppData\Local\Temp\cchAS7Ki.s 			page 69


 3455 0102 C4010000 		.4byte	.LCFI46-.Ltext0
 3456 0106 0200     		.2byte	0x2
 3457 0108 7D       		.byte	0x7d
 3458 0109 08       		.sleb128 8
 3459 010a C4010000 		.4byte	.LCFI46-.Ltext0
 3460 010e C6010000 		.4byte	.LCFI47-.Ltext0
 3461 0112 0300     		.2byte	0x3
 3462 0114 7D       		.byte	0x7d
 3463 0115 C000     		.sleb128 64
 3464 0117 C6010000 		.4byte	.LCFI47-.Ltext0
 3465 011b AC030000 		.4byte	.LCFI48-.Ltext0
 3466 011f 0300     		.2byte	0x3
 3467 0121 77       		.byte	0x77
 3468 0122 C000     		.sleb128 64
 3469 0124 AC030000 		.4byte	.LCFI48-.Ltext0
 3470 0128 AE030000 		.4byte	.LCFI49-.Ltext0
 3471 012c 0200     		.2byte	0x2
 3472 012e 77       		.byte	0x77
 3473 012f 08       		.sleb128 8
 3474 0130 AE030000 		.4byte	.LCFI49-.Ltext0
 3475 0134 C0030000 		.4byte	.LFE16-.Ltext0
 3476 0138 0200     		.2byte	0x2
 3477 013a 7D       		.byte	0x7d
 3478 013b 08       		.sleb128 8
 3479 013c 00000000 		.4byte	0
 3480 0140 00000000 		.4byte	0
 3481              	.LLST7:
 3482 0144 EC000000 		.4byte	.LFB15-.Ltext0
 3483 0148 EE000000 		.4byte	.LCFI40-.Ltext0
 3484 014c 0200     		.2byte	0x2
 3485 014e 7D       		.byte	0x7d
 3486 014f 00       		.sleb128 0
 3487 0150 EE000000 		.4byte	.LCFI40-.Ltext0
 3488 0154 F0000000 		.4byte	.LCFI41-.Ltext0
 3489 0158 0200     		.2byte	0x2
 3490 015a 7D       		.byte	0x7d
 3491 015b 08       		.sleb128 8
 3492 015c F0000000 		.4byte	.LCFI41-.Ltext0
 3493 0160 F2000000 		.4byte	.LCFI42-.Ltext0
 3494 0164 0200     		.2byte	0x2
 3495 0166 7D       		.byte	0x7d
 3496 0167 20       		.sleb128 32
 3497 0168 F2000000 		.4byte	.LCFI42-.Ltext0
 3498 016c A2010000 		.4byte	.LCFI43-.Ltext0
 3499 0170 0200     		.2byte	0x2
 3500 0172 77       		.byte	0x77
 3501 0173 20       		.sleb128 32
 3502 0174 A2010000 		.4byte	.LCFI43-.Ltext0
 3503 0178 A4010000 		.4byte	.LCFI44-.Ltext0
 3504 017c 0200     		.2byte	0x2
 3505 017e 77       		.byte	0x77
 3506 017f 08       		.sleb128 8
 3507 0180 A4010000 		.4byte	.LCFI44-.Ltext0
 3508 0184 C0010000 		.4byte	.LFE15-.Ltext0
 3509 0188 0200     		.2byte	0x2
 3510 018a 7D       		.byte	0x7d
 3511 018b 08       		.sleb128 8
ARM GAS  G:\Users\Jaxb\AppData\Local\Temp\cchAS7Ki.s 			page 70


 3512 018c 00000000 		.4byte	0
 3513 0190 00000000 		.4byte	0
 3514              	.LLST6:
 3515 0194 CE000000 		.4byte	.LFB14-.Ltext0
 3516 0198 D0000000 		.4byte	.LCFI34-.Ltext0
 3517 019c 0200     		.2byte	0x2
 3518 019e 7D       		.byte	0x7d
 3519 019f 00       		.sleb128 0
 3520 01a0 D0000000 		.4byte	.LCFI34-.Ltext0
 3521 01a4 D2000000 		.4byte	.LCFI35-.Ltext0
 3522 01a8 0200     		.2byte	0x2
 3523 01aa 7D       		.byte	0x7d
 3524 01ab 04       		.sleb128 4
 3525 01ac D2000000 		.4byte	.LCFI35-.Ltext0
 3526 01b0 D4000000 		.4byte	.LCFI36-.Ltext0
 3527 01b4 0200     		.2byte	0x2
 3528 01b6 7D       		.byte	0x7d
 3529 01b7 10       		.sleb128 16
 3530 01b8 D4000000 		.4byte	.LCFI36-.Ltext0
 3531 01bc E6000000 		.4byte	.LCFI37-.Ltext0
 3532 01c0 0200     		.2byte	0x2
 3533 01c2 77       		.byte	0x77
 3534 01c3 10       		.sleb128 16
 3535 01c4 E6000000 		.4byte	.LCFI37-.Ltext0
 3536 01c8 E8000000 		.4byte	.LCFI38-.Ltext0
 3537 01cc 0200     		.2byte	0x2
 3538 01ce 77       		.byte	0x77
 3539 01cf 04       		.sleb128 4
 3540 01d0 E8000000 		.4byte	.LCFI38-.Ltext0
 3541 01d4 EA000000 		.4byte	.LCFI39-.Ltext0
 3542 01d8 0200     		.2byte	0x2
 3543 01da 7D       		.byte	0x7d
 3544 01db 04       		.sleb128 4
 3545 01dc EA000000 		.4byte	.LCFI39-.Ltext0
 3546 01e0 EC000000 		.4byte	.LFE14-.Ltext0
 3547 01e4 0200     		.2byte	0x2
 3548 01e6 7D       		.byte	0x7d
 3549 01e7 00       		.sleb128 0
 3550 01e8 00000000 		.4byte	0
 3551 01ec 00000000 		.4byte	0
 3552              	.LLST5:
 3553 01f0 AC000000 		.4byte	.LFB13-.Ltext0
 3554 01f4 AE000000 		.4byte	.LCFI28-.Ltext0
 3555 01f8 0200     		.2byte	0x2
 3556 01fa 7D       		.byte	0x7d
 3557 01fb 00       		.sleb128 0
 3558 01fc AE000000 		.4byte	.LCFI28-.Ltext0
 3559 0200 B0000000 		.4byte	.LCFI29-.Ltext0
 3560 0204 0200     		.2byte	0x2
 3561 0206 7D       		.byte	0x7d
 3562 0207 04       		.sleb128 4
 3563 0208 B0000000 		.4byte	.LCFI29-.Ltext0
 3564 020c B2000000 		.4byte	.LCFI30-.Ltext0
 3565 0210 0200     		.2byte	0x2
 3566 0212 7D       		.byte	0x7d
 3567 0213 10       		.sleb128 16
 3568 0214 B2000000 		.4byte	.LCFI30-.Ltext0
ARM GAS  G:\Users\Jaxb\AppData\Local\Temp\cchAS7Ki.s 			page 71


 3569 0218 C8000000 		.4byte	.LCFI31-.Ltext0
 3570 021c 0200     		.2byte	0x2
 3571 021e 77       		.byte	0x77
 3572 021f 10       		.sleb128 16
 3573 0220 C8000000 		.4byte	.LCFI31-.Ltext0
 3574 0224 CA000000 		.4byte	.LCFI32-.Ltext0
 3575 0228 0200     		.2byte	0x2
 3576 022a 77       		.byte	0x77
 3577 022b 04       		.sleb128 4
 3578 022c CA000000 		.4byte	.LCFI32-.Ltext0
 3579 0230 CC000000 		.4byte	.LCFI33-.Ltext0
 3580 0234 0200     		.2byte	0x2
 3581 0236 7D       		.byte	0x7d
 3582 0237 04       		.sleb128 4
 3583 0238 CC000000 		.4byte	.LCFI33-.Ltext0
 3584 023c CE000000 		.4byte	.LFE13-.Ltext0
 3585 0240 0200     		.2byte	0x2
 3586 0242 7D       		.byte	0x7d
 3587 0243 00       		.sleb128 0
 3588 0244 00000000 		.4byte	0
 3589 0248 00000000 		.4byte	0
 3590              	.LLST4:
 3591 024c 8C000000 		.4byte	.LFB5-.Ltext0
 3592 0250 8E000000 		.4byte	.LCFI23-.Ltext0
 3593 0254 0200     		.2byte	0x2
 3594 0256 7D       		.byte	0x7d
 3595 0257 00       		.sleb128 0
 3596 0258 8E000000 		.4byte	.LCFI23-.Ltext0
 3597 025c 90000000 		.4byte	.LCFI24-.Ltext0
 3598 0260 0200     		.2byte	0x2
 3599 0262 7D       		.byte	0x7d
 3600 0263 08       		.sleb128 8
 3601 0264 90000000 		.4byte	.LCFI24-.Ltext0
 3602 0268 92000000 		.4byte	.LCFI25-.Ltext0
 3603 026c 0200     		.2byte	0x2
 3604 026e 7D       		.byte	0x7d
 3605 026f 10       		.sleb128 16
 3606 0270 92000000 		.4byte	.LCFI25-.Ltext0
 3607 0274 A8000000 		.4byte	.LCFI26-.Ltext0
 3608 0278 0200     		.2byte	0x2
 3609 027a 77       		.byte	0x77
 3610 027b 10       		.sleb128 16
 3611 027c A8000000 		.4byte	.LCFI26-.Ltext0
 3612 0280 AA000000 		.4byte	.LCFI27-.Ltext0
 3613 0284 0200     		.2byte	0x2
 3614 0286 77       		.byte	0x77
 3615 0287 08       		.sleb128 8
 3616 0288 AA000000 		.4byte	.LCFI27-.Ltext0
 3617 028c AC000000 		.4byte	.LFE5-.Ltext0
 3618 0290 0200     		.2byte	0x2
 3619 0292 7D       		.byte	0x7d
 3620 0293 08       		.sleb128 8
 3621 0294 00000000 		.4byte	0
 3622 0298 00000000 		.4byte	0
 3623              	.LLST3:
 3624 029c 6C000000 		.4byte	.LFB4-.Ltext0
 3625 02a0 6E000000 		.4byte	.LCFI17-.Ltext0
ARM GAS  G:\Users\Jaxb\AppData\Local\Temp\cchAS7Ki.s 			page 72


 3626 02a4 0200     		.2byte	0x2
 3627 02a6 7D       		.byte	0x7d
 3628 02a7 00       		.sleb128 0
 3629 02a8 6E000000 		.4byte	.LCFI17-.Ltext0
 3630 02ac 70000000 		.4byte	.LCFI18-.Ltext0
 3631 02b0 0200     		.2byte	0x2
 3632 02b2 7D       		.byte	0x7d
 3633 02b3 04       		.sleb128 4
 3634 02b4 70000000 		.4byte	.LCFI18-.Ltext0
 3635 02b8 72000000 		.4byte	.LCFI19-.Ltext0
 3636 02bc 0200     		.2byte	0x2
 3637 02be 7D       		.byte	0x7d
 3638 02bf 10       		.sleb128 16
 3639 02c0 72000000 		.4byte	.LCFI19-.Ltext0
 3640 02c4 86000000 		.4byte	.LCFI20-.Ltext0
 3641 02c8 0200     		.2byte	0x2
 3642 02ca 77       		.byte	0x77
 3643 02cb 10       		.sleb128 16
 3644 02cc 86000000 		.4byte	.LCFI20-.Ltext0
 3645 02d0 88000000 		.4byte	.LCFI21-.Ltext0
 3646 02d4 0200     		.2byte	0x2
 3647 02d6 77       		.byte	0x77
 3648 02d7 04       		.sleb128 4
 3649 02d8 88000000 		.4byte	.LCFI21-.Ltext0
 3650 02dc 8A000000 		.4byte	.LCFI22-.Ltext0
 3651 02e0 0200     		.2byte	0x2
 3652 02e2 7D       		.byte	0x7d
 3653 02e3 04       		.sleb128 4
 3654 02e4 8A000000 		.4byte	.LCFI22-.Ltext0
 3655 02e8 8C000000 		.4byte	.LFE4-.Ltext0
 3656 02ec 0200     		.2byte	0x2
 3657 02ee 7D       		.byte	0x7d
 3658 02ef 00       		.sleb128 0
 3659 02f0 00000000 		.4byte	0
 3660 02f4 00000000 		.4byte	0
 3661              	.LLST2:
 3662 02f8 4C000000 		.4byte	.LFB3-.Ltext0
 3663 02fc 4E000000 		.4byte	.LCFI12-.Ltext0
 3664 0300 0200     		.2byte	0x2
 3665 0302 7D       		.byte	0x7d
 3666 0303 00       		.sleb128 0
 3667 0304 4E000000 		.4byte	.LCFI12-.Ltext0
 3668 0308 50000000 		.4byte	.LCFI13-.Ltext0
 3669 030c 0200     		.2byte	0x2
 3670 030e 7D       		.byte	0x7d
 3671 030f 08       		.sleb128 8
 3672 0310 50000000 		.4byte	.LCFI13-.Ltext0
 3673 0314 52000000 		.4byte	.LCFI14-.Ltext0
 3674 0318 0200     		.2byte	0x2
 3675 031a 7D       		.byte	0x7d
 3676 031b 10       		.sleb128 16
 3677 031c 52000000 		.4byte	.LCFI14-.Ltext0
 3678 0320 68000000 		.4byte	.LCFI15-.Ltext0
 3679 0324 0200     		.2byte	0x2
 3680 0326 77       		.byte	0x77
 3681 0327 10       		.sleb128 16
 3682 0328 68000000 		.4byte	.LCFI15-.Ltext0
ARM GAS  G:\Users\Jaxb\AppData\Local\Temp\cchAS7Ki.s 			page 73


 3683 032c 6A000000 		.4byte	.LCFI16-.Ltext0
 3684 0330 0200     		.2byte	0x2
 3685 0332 77       		.byte	0x77
 3686 0333 08       		.sleb128 8
 3687 0334 6A000000 		.4byte	.LCFI16-.Ltext0
 3688 0338 6C000000 		.4byte	.LFE3-.Ltext0
 3689 033c 0200     		.2byte	0x2
 3690 033e 7D       		.byte	0x7d
 3691 033f 08       		.sleb128 8
 3692 0340 00000000 		.4byte	0
 3693 0344 00000000 		.4byte	0
 3694              	.LLST1:
 3695 0348 1E000000 		.4byte	.LFB1-.Ltext0
 3696 034c 20000000 		.4byte	.LCFI6-.Ltext0
 3697 0350 0200     		.2byte	0x2
 3698 0352 7D       		.byte	0x7d
 3699 0353 00       		.sleb128 0
 3700 0354 20000000 		.4byte	.LCFI6-.Ltext0
 3701 0358 22000000 		.4byte	.LCFI7-.Ltext0
 3702 035c 0200     		.2byte	0x2
 3703 035e 7D       		.byte	0x7d
 3704 035f 04       		.sleb128 4
 3705 0360 22000000 		.4byte	.LCFI7-.Ltext0
 3706 0364 24000000 		.4byte	.LCFI8-.Ltext0
 3707 0368 0200     		.2byte	0x2
 3708 036a 7D       		.byte	0x7d
 3709 036b 18       		.sleb128 24
 3710 036c 24000000 		.4byte	.LCFI8-.Ltext0
 3711 0370 46000000 		.4byte	.LCFI9-.Ltext0
 3712 0374 0200     		.2byte	0x2
 3713 0376 77       		.byte	0x77
 3714 0377 18       		.sleb128 24
 3715 0378 46000000 		.4byte	.LCFI9-.Ltext0
 3716 037c 48000000 		.4byte	.LCFI10-.Ltext0
 3717 0380 0200     		.2byte	0x2
 3718 0382 77       		.byte	0x77
 3719 0383 04       		.sleb128 4
 3720 0384 48000000 		.4byte	.LCFI10-.Ltext0
 3721 0388 4A000000 		.4byte	.LCFI11-.Ltext0
 3722 038c 0200     		.2byte	0x2
 3723 038e 7D       		.byte	0x7d
 3724 038f 04       		.sleb128 4
 3725 0390 4A000000 		.4byte	.LCFI11-.Ltext0
 3726 0394 4C000000 		.4byte	.LFE1-.Ltext0
 3727 0398 0200     		.2byte	0x2
 3728 039a 7D       		.byte	0x7d
 3729 039b 00       		.sleb128 0
 3730 039c 00000000 		.4byte	0
 3731 03a0 00000000 		.4byte	0
 3732              	.LLST0:
 3733 03a4 00000000 		.4byte	.LFB0-.Ltext0
 3734 03a8 02000000 		.4byte	.LCFI0-.Ltext0
 3735 03ac 0200     		.2byte	0x2
 3736 03ae 7D       		.byte	0x7d
 3737 03af 00       		.sleb128 0
 3738 03b0 02000000 		.4byte	.LCFI0-.Ltext0
 3739 03b4 04000000 		.4byte	.LCFI1-.Ltext0
ARM GAS  G:\Users\Jaxb\AppData\Local\Temp\cchAS7Ki.s 			page 74


 3740 03b8 0200     		.2byte	0x2
 3741 03ba 7D       		.byte	0x7d
 3742 03bb 04       		.sleb128 4
 3743 03bc 04000000 		.4byte	.LCFI1-.Ltext0
 3744 03c0 06000000 		.4byte	.LCFI2-.Ltext0
 3745 03c4 0200     		.2byte	0x2
 3746 03c6 7D       		.byte	0x7d
 3747 03c7 10       		.sleb128 16
 3748 03c8 06000000 		.4byte	.LCFI2-.Ltext0
 3749 03cc 18000000 		.4byte	.LCFI3-.Ltext0
 3750 03d0 0200     		.2byte	0x2
 3751 03d2 77       		.byte	0x77
 3752 03d3 10       		.sleb128 16
 3753 03d4 18000000 		.4byte	.LCFI3-.Ltext0
 3754 03d8 1A000000 		.4byte	.LCFI4-.Ltext0
 3755 03dc 0200     		.2byte	0x2
 3756 03de 77       		.byte	0x77
 3757 03df 04       		.sleb128 4
 3758 03e0 1A000000 		.4byte	.LCFI4-.Ltext0
 3759 03e4 1C000000 		.4byte	.LCFI5-.Ltext0
 3760 03e8 0200     		.2byte	0x2
 3761 03ea 7D       		.byte	0x7d
 3762 03eb 04       		.sleb128 4
 3763 03ec 1C000000 		.4byte	.LCFI5-.Ltext0
 3764 03f0 1E000000 		.4byte	.LFE0-.Ltext0
 3765 03f4 0200     		.2byte	0x2
 3766 03f6 7D       		.byte	0x7d
 3767 03f7 00       		.sleb128 0
 3768 03f8 00000000 		.4byte	0
 3769 03fc 00000000 		.4byte	0
 3770              		.section	.debug_aranges,"",%progbits
 3771 0000 1C000000 		.4byte	0x1c
 3772 0004 0200     		.2byte	0x2
 3773 0006 00000000 		.4byte	.Ldebug_info0
 3774 000a 04       		.byte	0x4
 3775 000b 00       		.byte	0
 3776 000c 0000     		.2byte	0
 3777 000e 0000     		.2byte	0
 3778 0010 00000000 		.4byte	.Ltext0
 3779 0014 34070000 		.4byte	.Letext0-.Ltext0
 3780 0018 00000000 		.4byte	0
 3781 001c 00000000 		.4byte	0
 3782              		.section	.debug_line,"",%progbits
 3783              	.Ldebug_line0:
 3784 0000 A7020000 		.section	.debug_str,"MS",%progbits,1
 3784      02002301 
 3784      00000201 
 3784      FB0E0D00 
 3784      01010101 
 3785              	.LASF87:
 3786 0000 6D657373 		.ascii	"message_ptr\000"
 3786      6167655F 
 3786      70747200 
 3787              	.LASF55:
 3788 000c 5441534B 		.ascii	"TASK_PRIO_TYPE\000"
 3788      5F505249 
 3788      4F5F5459 
ARM GAS  G:\Users\Jaxb\AppData\Local\Temp\cchAS7Ki.s 			page 75


 3788      504500
 3789              	.LASF66:
 3790 001b 74696D65 		.ascii	"timeslice_hope_time\000"
 3790      736C6963 
 3790      655F686F 
 3790      70655F74 
 3790      696D6500 
 3791              	.LASF45:
 3792 002f 53544154 		.ascii	"STATE_SUSPEND_NORMAL\000"
 3792      455F5355 
 3792      5350454E 
 3792      445F4E4F 
 3792      524D414C 
 3793              	.LASF13:
 3794 0044 6C697374 		.ascii	"list_head\000"
 3794      5F686561 
 3794      6400
 3795              	.LASF32:
 3796 004e 6D657373 		.ascii	"message_queue_block\000"
 3796      6167655F 
 3796      71756575 
 3796      655F626C 
 3796      6F636B00 
 3797              	.LASF114:
 3798 0062 494E4954 		.ascii	"INIT_LIST_HEAD\000"
 3798      5F4C4953 
 3798      545F4845 
 3798      414400
 3799              	.LASF19:
 3800 0071 64617461 		.ascii	"data_list_head\000"
 3800      5F6C6973 
 3800      745F6865 
 3800      616400
 3801              	.LASF3:
 3802 0080 73686F72 		.ascii	"short int\000"
 3802      7420696E 
 3802      7400
 3803              	.LASF11:
 3804 008a 73697A65 		.ascii	"size_t\000"
 3804      5F7400
 3805              	.LASF85:
 3806 0091 5F5F7274 		.ascii	"__rtmsym_message_init_name\000"
 3806      6D73796D 
 3806      5F6D6573 
 3806      73616765 
 3806      5F696E69 
 3807              	.LASF63:
 3808 00ac 64656C61 		.ascii	"delay_heap_position\000"
 3808      795F6865 
 3808      61705F70 
 3808      6F736974 
 3808      696F6E00 
 3809              	.LASF16:
 3810 00c0 6964656E 		.ascii	"identify_data\000"
 3810      74696679 
 3810      5F646174 
 3810      6100
ARM GAS  G:\Users\Jaxb\AppData\Local\Temp\cchAS7Ki.s 			page 76


 3811              	.LASF17:
 3812 00ce 64617461 		.ascii	"data_list\000"
 3812      5F6C6973 
 3812      7400
 3813              	.LASF48:
 3814 00d8 53544154 		.ascii	"STATE_WAIT_MESSAGE_QUEUE_FOREVER\000"
 3814      455F5741 
 3814      49545F4D 
 3814      45535341 
 3814      47455F51 
 3815              	.LASF8:
 3816 00f9 55494E54 		.ascii	"UINT32\000"
 3816      333200
 3817              	.LASF54:
 3818 0100 53544143 		.ascii	"STACK_TYPE\000"
 3818      4B5F5459 
 3818      504500
 3819              	.LASF38:
 3820 010b 63757272 		.ascii	"current_message_num\000"
 3820      656E745F 
 3820      6D657373 
 3820      6167655F 
 3820      6E756D00 
 3821              	.LASF42:
 3822 011f 5461736B 		.ascii	"Task_State\000"
 3822      5F537461 
 3822      746500
 3823              	.LASF50:
 3824 012a 53544154 		.ascii	"STATE_PUT_MESSAGE_QUEUE_FOREVER\000"
 3824      455F5055 
 3824      545F4D45 
 3824      53534147 
 3824      455F5155 
 3825              	.LASF89:
 3826 014a 6D657373 		.ascii	"message_init\000"
 3826      6167655F 
 3826      696E6974 
 3826      00
 3827              	.LASF82:
 3828 0157 5F5F7274 		.ascii	"__rtmsym_msg_receive\000"
 3828      6D73796D 
 3828      5F6D7367 
 3828      5F726563 
 3828      65697665 
 3829              	.LASF107:
 3830 016c 68656164 		.ascii	"head\000"
 3830      00
 3831              	.LASF79:
 3832 0171 5F5F7274 		.ascii	"__rtmsym_msg_send_name\000"
 3832      6D73796D 
 3832      5F6D7367 
 3832      5F73656E 
 3832      645F6E61 
 3833              	.LASF105:
 3834 0188 5F5F6C69 		.ascii	"__list_del\000"
 3834      73745F64 
 3834      656C00
ARM GAS  G:\Users\Jaxb\AppData\Local\Temp\cchAS7Ki.s 			page 77


 3835              	.LASF73:
 3836 0193 6B615F6D 		.ascii	"ka_module_symtab\000"
 3836      6F64756C 
 3836      655F7379 
 3836      6D746162 
 3836      00
 3837              	.LASF30:
 3838 01a4 6D657373 		.ascii	"message_data_ptr\000"
 3838      6167655F 
 3838      64617461 
 3838      5F707472 
 3838      00
 3839              	.LASF108:
 3840 01b5 5F5F6C69 		.ascii	"__list_add\000"
 3840      73745F61 
 3840      646400
 3841              	.LASF59:
 3842 01c0 73746163 		.ascii	"stack_end\000"
 3842      6B5F656E 
 3842      6400
 3843              	.LASF47:
 3844 01ca 53544154 		.ascii	"STATE_WAIT_MCB_TIMEOUT\000"
 3844      455F5741 
 3844      49545F4D 
 3844      43425F54 
 3844      494D454F 
 3845              	.LASF39:
 3846 01e1 6D61785F 		.ascii	"max_message_num\000"
 3846      6D657373 
 3846      6167655F 
 3846      6E756D00 
 3847              	.LASF86:
 3848 01f1 5F5F7274 		.ascii	"__rtmsym_message_init\000"
 3848      6D73796D 
 3848      5F6D6573 
 3848      73616765 
 3848      5F696E69 
 3849              	.LASF49:
 3850 0207 53544154 		.ascii	"STATE_WAIT_MESSAGE_QUEUE_TIMEOUT\000"
 3850      455F5741 
 3850      49545F4D 
 3850      45535341 
 3850      47455F51 
 3851              	.LASF112:
 3852 0228 463A5C6B 		.ascii	"F:\\kaka\\KAKAOS\\C\\windows\\Project\\RVMDK\243\250"
 3852      616B615C 
 3852      4B414B41 
 3852      4F535C43 
 3852      5C77696E 
 3853 0250 757635A3 		.ascii	"uv5\243\251\000"
 3853      A900
 3854              	.LASF4:
 3855 0256 6C6F6E67 		.ascii	"long long int\000"
 3855      206C6F6E 
 3855      6720696E 
 3855      7400
 3856              	.LASF77:
ARM GAS  G:\Users\Jaxb\AppData\Local\Temp\cchAS7Ki.s 			page 78


 3857 0264 5F5F7274 		.ascii	"__rtmsym_msg_init_name\000"
 3857      6D73796D 
 3857      5F6D7367 
 3857      5F696E69 
 3857      745F6E61 
 3858              	.LASF41:
 3859 027b 4D53475F 		.ascii	"MSG_WAIT_FLAG\000"
 3859      57414954 
 3859      5F464C41 
 3859      4700
 3860              	.LASF14:
 3861 0289 696E7365 		.ascii	"insert_sort_data\000"
 3861      72745F73 
 3861      6F72745F 
 3861      64617461 
 3861      00
 3862              	.LASF22:
 3863 029a 6765745F 		.ascii	"get_data_ptr\000"
 3863      64617461 
 3863      5F707472 
 3863      00
 3864              	.LASF74:
 3865 02a7 61646472 		.ascii	"addr\000"
 3865      00
 3866              	.LASF101:
 3867 02ac 64617461 		.ascii	"data1\000"
 3867      3100
 3868              	.LASF80:
 3869 02b2 5F5F7274 		.ascii	"__rtmsym_msg_send\000"
 3869      6D73796D 
 3869      5F6D7367 
 3869      5F73656E 
 3869      6400
 3870              	.LASF102:
 3871 02c4 64617461 		.ascii	"data2\000"
 3871      3200
 3872              	.LASF24:
 3873 02ca 4D53475F 		.ascii	"MSG_FLAG_WAIT\000"
 3873      464C4147 
 3873      5F574149 
 3873      5400
 3874              	.LASF81:
 3875 02d8 5F5F7274 		.ascii	"__rtmsym_msg_receive_name\000"
 3875      6D73796D 
 3875      5F6D7367 
 3875      5F726563 
 3875      65697665 
 3876              	.LASF53:
 3877 02f2 5441534B 		.ascii	"TASK_STATE\000"
 3877      5F535441 
 3877      544500
 3878              	.LASF106:
 3879 02fd 6C697374 		.ascii	"list_add_tail\000"
 3879      5F616464 
 3879      5F746169 
 3879      6C00
 3880              	.LASF37:
ARM GAS  G:\Users\Jaxb\AppData\Local\Temp\cchAS7Ki.s 			page 79


 3881 030b 6E616D65 		.ascii	"name\000"
 3881      00
 3882              	.LASF76:
 3883 0310 4F535443 		.ascii	"OSTCBCurPtr\000"
 3883      42437572 
 3883      50747200 
 3884              	.LASF20:
 3885 031c 64617461 		.ascii	"data_num\000"
 3885      5F6E756D 
 3885      00
 3886              	.LASF103:
 3887 0325 656E7472 		.ascii	"entry\000"
 3887      7900
 3888              	.LASF69:
 3889 032b 64796E61 		.ascii	"dynamic_module_ptr\000"
 3889      6D69635F 
 3889      6D6F6475 
 3889      6C655F70 
 3889      747200
 3890              	.LASF94:
 3891 033e 6D73675F 		.ascii	"msg_receive\000"
 3891      72656365 
 3891      69766500 
 3892              	.LASF26:
 3893 034a 4D53475F 		.ascii	"MSG_FLAG\000"
 3893      464C4147 
 3893      00
 3894              	.LASF5:
 3895 0353 756E7369 		.ascii	"unsigned char\000"
 3895      676E6564 
 3895      20636861 
 3895      7200
 3896              	.LASF78:
 3897 0361 5F5F7274 		.ascii	"__rtmsym_msg_init\000"
 3897      6D73796D 
 3897      5F6D7367 
 3897      5F696E69 
 3897      7400
 3898              	.LASF44:
 3899 0373 53544154 		.ascii	"STATE_DELAY\000"
 3899      455F4445 
 3899      4C415900 
 3900              	.LASF68:
 3901 037f 61747472 		.ascii	"attribution\000"
 3901      69627574 
 3901      696F6E00 
 3902              	.LASF93:
 3903 038b 696E7365 		.ascii	"insert_sort_data_ptr\000"
 3903      72745F73 
 3903      6F72745F 
 3903      64617461 
 3903      5F707472 
 3904              	.LASF2:
 3905 03a0 7369676E 		.ascii	"signed char\000"
 3905      65642063 
 3905      68617200 
 3906              	.LASF10:
ARM GAS  G:\Users\Jaxb\AppData\Local\Temp\cchAS7Ki.s 			page 80


 3907 03ac 6C6F6E67 		.ascii	"long long unsigned int\000"
 3907      206C6F6E 
 3907      6720756E 
 3907      7369676E 
 3907      65642069 
 3908              	.LASF29:
 3909 03c3 6D657373 		.ascii	"message_size\000"
 3909      6167655F 
 3909      73697A65 
 3909      00
 3910              	.LASF99:
 3911 03d0 6D73675F 		.ascii	"msg_send\000"
 3911      73656E64 
 3911      00
 3912              	.LASF7:
 3913 03d9 756E7369 		.ascii	"unsigned int\000"
 3913      676E6564 
 3913      20696E74 
 3913      00
 3914              	.LASF33:
 3915 03e6 6D657373 		.ascii	"message_array_insert_sort_wait_TCB_list\000"
 3915      6167655F 
 3915      61727261 
 3915      795F696E 
 3915      73657274 
 3916              	.LASF57:
 3917 040e 73746163 		.ascii	"stack\000"
 3917      6B00
 3918              	.LASF83:
 3919 0414 5F5F7274 		.ascii	"__rtmsym_msg_del_name\000"
 3919      6D73796D 
 3919      5F6D7367 
 3919      5F64656C 
 3919      5F6E616D 
 3920              	.LASF64:
 3921 042a 73616D65 		.ascii	"same_prio_list\000"
 3921      5F707269 
 3921      6F5F6C69 
 3921      737400
 3922              	.LASF96:
 3923 0439 74696D65 		.ascii	"time\000"
 3923      00
 3924              	.LASF62:
 3925 043e 7072696F 		.ascii	"prio\000"
 3925      00
 3926              	.LASF23:
 3927 0443 76616C75 		.ascii	"value_cmp\000"
 3927      655F636D 
 3927      7000
 3928              	.LASF6:
 3929 044d 73686F72 		.ascii	"short unsigned int\000"
 3929      7420756E 
 3929      7369676E 
 3929      65642069 
 3929      6E7400
 3930              	.LASF43:
 3931 0460 53544154 		.ascii	"STATE_READY\000"
ARM GAS  G:\Users\Jaxb\AppData\Local\Temp\cchAS7Ki.s 			page 81


 3931      455F5245 
 3931      41445900 
 3932              	.LASF40:
 3933 046c 63686172 		.ascii	"char\000"
 3933      00
 3934              	.LASF51:
 3935 0471 53544154 		.ascii	"STATE_PUT_MESSAGE_QUEUE_TIMEOUT\000"
 3935      455F5055 
 3935      545F4D45 
 3935      53534147 
 3935      455F5155 
 3936              	.LASF71:
 3937 0491 4350555F 		.ascii	"CPU_INT32U\000"
 3937      494E5433 
 3937      325500
 3938              	.LASF98:
 3939 049c 5F5F6D70 		.ascii	"__mptr\000"
 3939      747200
 3940              	.LASF88:
 3941 04a3 64617461 		.ascii	"data\000"
 3941      00
 3942              	.LASF35:
 3943 04a8 7075745F 		.ascii	"put_num\000"
 3943      6E756D00 
 3944              	.LASF36:
 3945 04b0 77616974 		.ascii	"wait_num\000"
 3945      5F6E756D 
 3945      00
 3946              	.LASF27:
 3947 04b9 6D657373 		.ascii	"message\000"
 3947      61676500 
 3948              	.LASF61:
 3949 04c1 7461736B 		.ascii	"task_state\000"
 3949      5F737461 
 3949      746500
 3950              	.LASF100:
 3951 04cc 6D73675F 		.ascii	"msg_init\000"
 3951      696E6974 
 3951      00
 3952              	.LASF67:
 3953 04d5 74696D65 		.ascii	"timeslice_rest_time\000"
 3953      736C6963 
 3953      655F7265 
 3953      73745F74 
 3953      696D6500 
 3954              	.LASF18:
 3955 04e9 696E7365 		.ascii	"insert_sort_entity\000"
 3955      72745F73 
 3955      6F72745F 
 3955      656E7469 
 3955      747900
 3956              	.LASF46:
 3957 04fc 53544154 		.ascii	"STATE_WAIT_MCB_FOREVER\000"
 3957      455F5741 
 3957      49545F4D 
 3957      43425F46 
 3957      4F524556 
ARM GAS  G:\Users\Jaxb\AppData\Local\Temp\cchAS7Ki.s 			page 82


 3958              	.LASF34:
 3959 0513 6D657373 		.ascii	"message_array_insert_sort_put_TCB_list\000"
 3959      6167655F 
 3959      61727261 
 3959      795F696E 
 3959      73657274 
 3960              	.LASF21:
 3961 053a 636F6D70 		.ascii	"compare\000"
 3961      61726500 
 3962              	.LASF113:
 3963 0542 64796E61 		.ascii	"dynamic_module\000"
 3963      6D69635F 
 3963      6D6F6475 
 3963      6C6500
 3964              	.LASF56:
 3965 0551 7461736B 		.ascii	"task_control_block_struct\000"
 3965      5F636F6E 
 3965      74726F6C 
 3965      5F626C6F 
 3965      636B5F73 
 3966              	.LASF58:
 3967 056b 73746163 		.ascii	"stack_size\000"
 3967      6B5F7369 
 3967      7A6500
 3968              	.LASF104:
 3969 0576 6C697374 		.ascii	"list_del\000"
 3969      5F64656C 
 3969      00
 3970              	.LASF92:
 3971 057f 5443425F 		.ascii	"TCB_ptr\000"
 3971      70747200 
 3972              	.LASF109:
 3973 0587 6C697374 		.ascii	"list\000"
 3973      00
 3974              	.LASF60:
 3975 058c 72657365 		.ascii	"reserve_prio\000"
 3975      7276655F 
 3975      7072696F 
 3975      00
 3976              	.LASF65:
 3977 0599 73757370 		.ascii	"suspend_list\000"
 3977      656E645F 
 3977      6C697374 
 3977      00
 3978              	.LASF75:
 3979 05a6 675F696E 		.ascii	"g_interrupt_count\000"
 3979      74657272 
 3979      7570745F 
 3979      636F756E 
 3979      7400
 3980              	.LASF97:
 3981 05b8 6370755F 		.ascii	"cpu_sr\000"
 3981      737200
 3982              	.LASF110:
 3983 05bf 474E5520 		.ascii	"GNU C11 7.3.1 20180622 (release) [ARM/embedded-7-br"
 3983      43313120 
 3983      372E332E 
ARM GAS  G:\Users\Jaxb\AppData\Local\Temp\cchAS7Ki.s 			page 83


 3983      31203230 
 3983      31383036 
 3984 05f2 616E6368 		.ascii	"anch revision 261907] -mcpu=cortex-m3 -mthumb -mapc"
 3984      20726576 
 3984      6973696F 
 3984      6E203236 
 3984      31393037 
 3985 0625 732D6672 		.ascii	"s-frame -mthumb-interwork -mcpu=cortex-m3 -mthumb -"
 3985      616D6520 
 3985      2D6D7468 
 3985      756D622D 
 3985      696E7465 
 3986 0658 67647761 		.ascii	"gdwarf-2 -O0\000"
 3986      72662D32 
 3986      202D4F30 
 3986      00
 3987              	.LASF95:
 3988 0665 666C6167 		.ascii	"flag\000"
 3988      00
 3989              	.LASF28:
 3990 066a 6D657373 		.ascii	"message_list\000"
 3990      6167655F 
 3990      6C697374 
 3990      00
 3991              	.LASF52:
 3992 0677 53544154 		.ascii	"STATE_WAIT_MUTEX_FOREVER\000"
 3992      455F5741 
 3992      49545F4D 
 3992      55544558 
 3992      5F464F52 
 3993              	.LASF90:
 3994 0690 6D73675F 		.ascii	"msg_del\000"
 3994      64656C00 
 3995              	.LASF111:
 3996 0698 2E2E2F2E 		.ascii	"../../source/src/kernel/OS_CORE/message_queue.c\000"
 3996      2E2F736F 
 3996      75726365 
 3996      2F737263 
 3996      2F6B6572 
 3997              	.LASF1:
 3998 06c8 70726576 		.ascii	"prev\000"
 3998      00
 3999              	.LASF72:
 4000 06cd 4350555F 		.ascii	"CPU_SR\000"
 4000      535200
 4001              	.LASF31:
 4002 06d4 7469636B 		.ascii	"tick\000"
 4002      00
 4003              	.LASF70:
 4004 06d9 64656C61 		.ascii	"delay_reach_time\000"
 4004      795F7265 
 4004      6163685F 
 4004      74696D65 
 4004      00
 4005              	.LASF25:
 4006 06ea 4D53475F 		.ascii	"MSG_FLAG_NON_BLOCKING\000"
 4006      464C4147 
ARM GAS  G:\Users\Jaxb\AppData\Local\Temp\cchAS7Ki.s 			page 84


 4006      5F4E4F4E 
 4006      5F424C4F 
 4006      434B494E 
 4007              	.LASF84:
 4008 0700 5F5F7274 		.ascii	"__rtmsym_msg_del\000"
 4008      6D73796D 
 4008      5F6D7367 
 4008      5F64656C 
 4008      00
 4009              	.LASF9:
 4010 0711 55494E54 		.ascii	"UINT64\000"
 4010      363400
 4011              	.LASF91:
 4012 0718 4D51425F 		.ascii	"MQB_ptr\000"
 4012      70747200 
 4013              	.LASF12:
 4014 0720 69645F74 		.ascii	"id_type\000"
 4014      79706500 
 4015              	.LASF15:
 4016 0728 64617461 		.ascii	"data_ptr\000"
 4016      5F707472 
 4016      00
 4017              	.LASF0:
 4018 0731 6E657874 		.ascii	"next\000"
 4018      00
 4019              		.ident	"GCC: (GNU Tools for Arm Embedded Processors 7-2018-q2-update) 7.3.1 20180622 (release) [AR
ARM GAS  G:\Users\Jaxb\AppData\Local\Temp\cchAS7Ki.s 			page 85


DEFINED SYMBOLS
                            *ABS*:00000000 message_queue.c
G:\Users\Jaxb\AppData\Local\Temp\cchAS7Ki.s:15     .text:00000000 $t
G:\Users\Jaxb\AppData\Local\Temp\cchAS7Ki.s:21     .text:00000000 INIT_LIST_HEAD
G:\Users\Jaxb\AppData\Local\Temp\cchAS7Ki.s:71     .text:0000001e __list_add
G:\Users\Jaxb\AppData\Local\Temp\cchAS7Ki.s:130    .text:0000004c list_add_tail
G:\Users\Jaxb\AppData\Local\Temp\cchAS7Ki.s:175    .text:0000006c __list_del
G:\Users\Jaxb\AppData\Local\Temp\cchAS7Ki.s:225    .text:0000008c list_del
G:\Users\Jaxb\AppData\Local\Temp\cchAS7Ki.s:270    .text:000000ac compare
G:\Users\Jaxb\AppData\Local\Temp\cchAS7Ki.s:321    .text:000000ce value_cmp
G:\Users\Jaxb\AppData\Local\Temp\cchAS7Ki.s:364    .rodata:00000000 $d
G:\Users\Jaxb\AppData\Local\Temp\cchAS7Ki.s:383    .text:000000ec msg_init
G:\Users\Jaxb\AppData\Local\Temp\cchAS7Ki.s:515    .text:000001a8 $d
G:\Users\Jaxb\AppData\Local\Temp\cchAS7Ki.s:529    .rodata.name:00000000 __rtmsym_msg_init_name
G:\Users\Jaxb\AppData\Local\Temp\cchAS7Ki.s:526    .rodata.name:00000000 $d
G:\Users\Jaxb\AppData\Local\Temp\cchAS7Ki.s:536    .RTMSymTab:00000000 __rtmsym_msg_init
G:\Users\Jaxb\AppData\Local\Temp\cchAS7Ki.s:533    .RTMSymTab:00000000 $d
G:\Users\Jaxb\AppData\Local\Temp\cchAS7Ki.s:549    .text:000001c0 $t
G:\Users\Jaxb\AppData\Local\Temp\cchAS7Ki.s:556    .text:000001c0 msg_send
G:\Users\Jaxb\AppData\Local\Temp\cchAS7Ki.s:867    .text:000003b0 $d
G:\Users\Jaxb\AppData\Local\Temp\cchAS7Ki.s:879    .rodata.name:0000000c __rtmsym_msg_send_name
G:\Users\Jaxb\AppData\Local\Temp\cchAS7Ki.s:886    .RTMSymTab:00000008 __rtmsym_msg_send
G:\Users\Jaxb\AppData\Local\Temp\cchAS7Ki.s:899    .text:000003c0 $t
G:\Users\Jaxb\AppData\Local\Temp\cchAS7Ki.s:906    .text:000003c0 msg_receive
G:\Users\Jaxb\AppData\Local\Temp\cchAS7Ki.s:1239   .text:000005cc $d
G:\Users\Jaxb\AppData\Local\Temp\cchAS7Ki.s:1252   .rodata.name:00000018 __rtmsym_msg_receive_name
G:\Users\Jaxb\AppData\Local\Temp\cchAS7Ki.s:1259   .RTMSymTab:00000010 __rtmsym_msg_receive
G:\Users\Jaxb\AppData\Local\Temp\cchAS7Ki.s:1268   .text:000005e0 $t
G:\Users\Jaxb\AppData\Local\Temp\cchAS7Ki.s:1275   .text:000005e0 msg_del
G:\Users\Jaxb\AppData\Local\Temp\cchAS7Ki.s:1437   .text:000006c8 $d
G:\Users\Jaxb\AppData\Local\Temp\cchAS7Ki.s:1447   .rodata.name:00000024 __rtmsym_msg_del_name
G:\Users\Jaxb\AppData\Local\Temp\cchAS7Ki.s:1454   .RTMSymTab:00000018 __rtmsym_msg_del
G:\Users\Jaxb\AppData\Local\Temp\cchAS7Ki.s:1463   .text:000006d0 $t
G:\Users\Jaxb\AppData\Local\Temp\cchAS7Ki.s:1470   .text:000006d0 message_init
G:\Users\Jaxb\AppData\Local\Temp\cchAS7Ki.s:1545   .text:0000072c $d
G:\Users\Jaxb\AppData\Local\Temp\cchAS7Ki.s:1555   .rodata.name:0000002c __rtmsym_message_init_name
G:\Users\Jaxb\AppData\Local\Temp\cchAS7Ki.s:1562   .RTMSymTab:00000020 __rtmsym_message_init

UNDEFINED SYMBOLS
_ASSERT
ka_printf
CPU_SR_Save
CPU_SR_Restore
init_insert_sort_entity
g_interrupt_count
insert_sort_delete_head
remove_from_suspend_list
remove_from_delay_heap
schedule
init_insert_sort_data
insert_sort_insert_into
sys_suspend
sys_delay
insert_sort_delete_data
OSTCBCurPtr
get_tick
