ARM GAS  G:\Users\Jaxb\AppData\Local\Temp\cc2d6zn8.s 			page 1


   1              		.cpu cortex-m3
   2              		.eabi_attribute 20, 1
   3              		.eabi_attribute 21, 1
   4              		.eabi_attribute 23, 3
   5              		.eabi_attribute 24, 1
   6              		.eabi_attribute 25, 1
   7              		.eabi_attribute 26, 1
   8              		.eabi_attribute 30, 2
   9              		.eabi_attribute 34, 1
  10              		.eabi_attribute 18, 4
  11              		.file	"message_queue.c"
  12              		.text
  13              	.Ltext0:
  14              		.cfi_sections	.debug_frame
  15              		.align	1
  16              		.p2align 2,,3
  17              		.syntax unified
  18              		.thumb
  19              		.thumb_func
  20              		.fpu softvfp
  21              		.type	compare, %function
  22              	compare:
  23              	.LFB12:
  24              		.file 1 "../../source/src/user/OS_CORE/message_queue.c"
   1:../../source/src/user/OS_CORE/message_queue.c **** #include <message_queue.h>
   2:../../source/src/user/OS_CORE/message_queue.c **** #include <myassert.h>
   3:../../source/src/user/OS_CORE/message_queue.c **** #include <os_schedule.h>
   4:../../source/src/user/OS_CORE/message_queue.c **** #include <os_cpu.h>
   5:../../source/src/user/OS_CORE/message_queue.c **** #include <os_time.h>
   6:../../source/src/user/OS_CORE/message_queue.c **** #include <os_delay.h>
   7:../../source/src/user/OS_CORE/message_queue.c **** #include <os_suspend.h>
   8:../../source/src/user/OS_CORE/message_queue.c **** 
   9:../../source/src/user/OS_CORE/message_queue.c **** extern TCB * OSTCBCurPtr;
  10:../../source/src/user/OS_CORE/message_queue.c **** 
  11:../../source/src/user/OS_CORE/message_queue.c **** inline static int compare(struct insert_sort_data *data1,struct insert_sort_data *data2)
  12:../../source/src/user/OS_CORE/message_queue.c **** {
  25              		.loc 1 12 0
  26              		.cfi_startproc
  27              		@ args = 0, pretend = 0, frame = 0
  28              		@ frame_needed = 0, uses_anonymous_args = 0
  29              		@ link register save eliminated.
  30              	.LVL0:
  13:../../source/src/user/OS_CORE/message_queue.c **** 	return ((TCB*)(data1->data_ptr))->prio - ((TCB*)(data2->data_ptr))->prio;
  31              		.loc 1 13 0
  32 0000 0268     		ldr	r2, [r0]
  33 0002 0B68     		ldr	r3, [r1]
  34 0004 D068     		ldr	r0, [r2, #12]
  35              	.LVL1:
  36 0006 DB68     		ldr	r3, [r3, #12]
  14:../../source/src/user/OS_CORE/message_queue.c **** }
  37              		.loc 1 14 0
  38 0008 C01A     		subs	r0, r0, r3
  39 000a 7047     		bx	lr
  40              		.cfi_endproc
  41              	.LFE12:
  42              		.size	compare, .-compare
  43              		.align	1
ARM GAS  G:\Users\Jaxb\AppData\Local\Temp\cc2d6zn8.s 			page 2


  44              		.p2align 2,,3
  45              		.syntax unified
  46              		.thumb
  47              		.thumb_func
  48              		.fpu softvfp
  49              		.type	value_cmp, %function
  50              	value_cmp:
  51              	.LFB13:
  15:../../source/src/user/OS_CORE/message_queue.c **** 
  16:../../source/src/user/OS_CORE/message_queue.c **** inline static int value_cmp(void *data1,void *data2)
  17:../../source/src/user/OS_CORE/message_queue.c **** {
  52              		.loc 1 17 0
  53              		.cfi_startproc
  54              		@ args = 0, pretend = 0, frame = 0
  55              		@ frame_needed = 0, uses_anonymous_args = 0
  56              		@ link register save eliminated.
  57              	.LVL2:
  18:../../source/src/user/OS_CORE/message_queue.c **** 	return ((TCB*)data1)->prio - ((TCB*)data2)->prio;
  58              		.loc 1 18 0
  59 000c C068     		ldr	r0, [r0, #12]
  60              	.LVL3:
  61 000e CB68     		ldr	r3, [r1, #12]
  19:../../source/src/user/OS_CORE/message_queue.c **** }
  62              		.loc 1 19 0
  63 0010 C01A     		subs	r0, r0, r3
  64 0012 7047     		bx	lr
  65              		.cfi_endproc
  66              	.LFE13:
  67              		.size	value_cmp, .-value_cmp
  68              		.align	1
  69              		.p2align 2,,3
  70              		.global	msg_init
  71              		.syntax unified
  72              		.thumb
  73              		.thumb_func
  74              		.fpu softvfp
  75              		.type	msg_init, %function
  76              	msg_init:
  77              	.LFB14:
  20:../../source/src/user/OS_CORE/message_queue.c **** 
  21:../../source/src/user/OS_CORE/message_queue.c **** int msg_init(MQB *MQB_ptr,char *name,unsigned int max_message_num)
  22:../../source/src/user/OS_CORE/message_queue.c **** {
  78              		.loc 1 22 0
  79              		.cfi_startproc
  80              		@ args = 0, pretend = 0, frame = 0
  81              		@ frame_needed = 0, uses_anonymous_args = 0
  82              	.LVL4:
  83 0014 2DE9F041 		push	{r4, r5, r6, r7, r8, lr}
  84              	.LCFI0:
  85              		.cfi_def_cfa_offset 24
  86              		.cfi_offset 4, -24
  87              		.cfi_offset 5, -20
  88              		.cfi_offset 6, -16
  89              		.cfi_offset 7, -12
  90              		.cfi_offset 8, -8
  91              		.cfi_offset 14, -4
  92              		.loc 1 22 0
ARM GAS  G:\Users\Jaxb\AppData\Local\Temp\cc2d6zn8.s 			page 3


  93 0018 0F46     		mov	r7, r1
  94 001a 1646     		mov	r6, r2
  23:../../source/src/user/OS_CORE/message_queue.c **** 	ASSERT(NULL != MQB_ptr);
  95              		.loc 1 23 0
  96 001c 0446     		mov	r4, r0
  97 001e 18B3     		cbz	r0, .L11
  24:../../source/src/user/OS_CORE/message_queue.c **** 	ASSERT(max_message_num > 0);
  98              		.loc 1 24 0
  99 0020 3AB3     		cbz	r2, .L10
 100              	.LVL5:
  25:../../source/src/user/OS_CORE/message_queue.c **** #if CONFIG_PARA_CHECK
  26:../../source/src/user/OS_CORE/message_queue.c **** 	if((NULL == MQB_ptr) || (0 == max_message_num))
  27:../../source/src/user/OS_CORE/message_queue.c **** 	{
  28:../../source/src/user/OS_CORE/message_queue.c **** 		OS_ERROR_PARA_MESSAGE_DISPLAY(msg_init,MQB_ptr);
  29:../../source/src/user/OS_CORE/message_queue.c **** 		OS_ERROR_PARA_MESSAGE_DISPLAY(msg_init,max_message_num);
  30:../../source/src/user/OS_CORE/message_queue.c **** 		return -ERROR_NULL_INPUT_PTR;
  31:../../source/src/user/OS_CORE/message_queue.c **** 	}
  32:../../source/src/user/OS_CORE/message_queue.c **** #endif
  33:../../source/src/user/OS_CORE/message_queue.c **** 	CPU_SR_ALLOC();
  34:../../source/src/user/OS_CORE/message_queue.c **** 	CPU_CRITICAL_ENTER();
 101              		.loc 1 34 0
 102 0022 FFF7FEFF 		bl	CPU_SR_Save
 103              	.LVL6:
  35:../../source/src/user/OS_CORE/message_queue.c **** 	if (g_interrupt_count > 0)
 104              		.loc 1 35 0
 105 0026 1C4B     		ldr	r3, .L13
  34:../../source/src/user/OS_CORE/message_queue.c **** 	if (g_interrupt_count > 0)
 106              		.loc 1 34 0
 107 0028 8046     		mov	r8, r0
 108              	.LVL7:
 109              		.loc 1 35 0
 110 002a 1B68     		ldr	r3, [r3]
 111 002c 002B     		cmp	r3, #0
 112 002e 2DDC     		bgt	.L12
 113              	.LVL8:
  36:../../source/src/user/OS_CORE/message_queue.c **** 	{
  37:../../source/src/user/OS_CORE/message_queue.c **** 		CPU_CRITICAL_EXIT();
  38:../../source/src/user/OS_CORE/message_queue.c **** 		return -ERROR_FUN_USE_IN_INTER;
  39:../../source/src/user/OS_CORE/message_queue.c **** 	}
  40:../../source/src/user/OS_CORE/message_queue.c **** 	INIT_LIST_HEAD(&MQB_ptr->message_list);
  41:../../source/src/user/OS_CORE/message_queue.c **** 	init_insert_sort_entity(
  42:../../source/src/user/OS_CORE/message_queue.c **** 		&MQB_ptr->message_array_insert_sort_wait_TCB_list,
  43:../../source/src/user/OS_CORE/message_queue.c **** 		compare,
  44:../../source/src/user/OS_CORE/message_queue.c **** 		NULL,
  45:../../source/src/user/OS_CORE/message_queue.c **** 		value_cmp);
  46:../../source/src/user/OS_CORE/message_queue.c **** 	init_insert_sort_entity(
  47:../../source/src/user/OS_CORE/message_queue.c **** 		&MQB_ptr->message_array_insert_sort_put_TCB_list,
  48:../../source/src/user/OS_CORE/message_queue.c **** 		compare,
  49:../../source/src/user/OS_CORE/message_queue.c **** 		NULL,
  50:../../source/src/user/OS_CORE/message_queue.c **** 		value_cmp);
  51:../../source/src/user/OS_CORE/message_queue.c **** 	MQB_ptr->put_num = 0;
 114              		.loc 1 51 0
 115 0030 0025     		movs	r5, #0
  41:../../source/src/user/OS_CORE/message_queue.c **** 		&MQB_ptr->message_array_insert_sort_wait_TCB_list,
 116              		.loc 1 41 0
 117 0032 1A4B     		ldr	r3, .L13+4
 118 0034 2A46     		mov	r2, r5
ARM GAS  G:\Users\Jaxb\AppData\Local\Temp\cc2d6zn8.s 			page 4


 119 0036 1A49     		ldr	r1, .L13+8
 120              	.LBB32:
 121              	.LBB33:
 122              		.file 2 "../../source/include/os_lib/double_linked_list.h"
   1:../../source/include/os_lib/double_linked_list.h **** #ifndef _DOUBLE_LINKED_LIST_H
   2:../../source/include/os_lib/double_linked_list.h **** #define _DOUBLE_LINKED_LIST_H
   3:../../source/include/os_lib/double_linked_list.h **** 
   4:../../source/include/os_lib/double_linked_list.h **** struct list_head {
   5:../../source/include/os_lib/double_linked_list.h ****     struct list_head *next, *prev;
   6:../../source/include/os_lib/double_linked_list.h **** };
   7:../../source/include/os_lib/double_linked_list.h **** 
   8:../../source/include/os_lib/double_linked_list.h **** 
   9:../../source/include/os_lib/double_linked_list.h **** #define LIST_HEAD_INIT(name) { &(name), &(name) }
  10:../../source/include/os_lib/double_linked_list.h **** 
  11:../../source/include/os_lib/double_linked_list.h **** 
  12:../../source/include/os_lib/double_linked_list.h **** #define LIST_HEAD(name) \
  13:../../source/include/os_lib/double_linked_list.h ****     struct list_head name = LIST_HEAD_INIT(name)
  14:../../source/include/os_lib/double_linked_list.h **** 
  15:../../source/include/os_lib/double_linked_list.h **** 
  16:../../source/include/os_lib/double_linked_list.h **** static inline void INIT_LIST_HEAD(struct list_head *list)
  17:../../source/include/os_lib/double_linked_list.h **** {
  18:../../source/include/os_lib/double_linked_list.h ****     list->next = list;
  19:../../source/include/os_lib/double_linked_list.h ****     list->prev = list;
 123              		.loc 2 19 0
 124 0038 C4E90044 		strd	r4, r4, [r4]
 125              	.LVL9:
 126              	.LBE33:
 127              	.LBE32:
  41:../../source/src/user/OS_CORE/message_queue.c **** 		&MQB_ptr->message_array_insert_sort_wait_TCB_list,
 128              		.loc 1 41 0
 129 003c 04F10800 		add	r0, r4, #8
 130              	.LVL10:
 131 0040 FFF7FEFF 		bl	init_insert_sort_entity
 132              	.LVL11:
  46:../../source/src/user/OS_CORE/message_queue.c **** 		&MQB_ptr->message_array_insert_sort_put_TCB_list,
 133              		.loc 1 46 0
 134 0044 154B     		ldr	r3, .L13+4
 135 0046 2A46     		mov	r2, r5
 136 0048 1549     		ldr	r1, .L13+8
 137 004a 04F12000 		add	r0, r4, #32
 138 004e FFF7FEFF 		bl	init_insert_sort_entity
 139              	.LVL12:
  52:../../source/src/user/OS_CORE/message_queue.c **** 	MQB_ptr->wait_num = 0;
  53:../../source/src/user/OS_CORE/message_queue.c **** 	MQB_ptr->name = name;
  54:../../source/src/user/OS_CORE/message_queue.c **** 	MQB_ptr->current_message_num = 0;
  55:../../source/src/user/OS_CORE/message_queue.c **** 	MQB_ptr->max_message_num = max_message_num;
  56:../../source/src/user/OS_CORE/message_queue.c **** 	CPU_CRITICAL_EXIT();
 140              		.loc 1 56 0
 141 0052 4046     		mov	r0, r8
  53:../../source/src/user/OS_CORE/message_queue.c **** 	MQB_ptr->current_message_num = 0;
 142              		.loc 1 53 0
 143 0054 2764     		str	r7, [r4, #64]
  55:../../source/src/user/OS_CORE/message_queue.c **** 	CPU_CRITICAL_EXIT();
 144              		.loc 1 55 0
 145 0056 A664     		str	r6, [r4, #72]
  52:../../source/src/user/OS_CORE/message_queue.c **** 	MQB_ptr->wait_num = 0;
 146              		.loc 1 52 0
ARM GAS  G:\Users\Jaxb\AppData\Local\Temp\cc2d6zn8.s 			page 5


 147 0058 C4E90E55 		strd	r5, r5, [r4, #56]
  54:../../source/src/user/OS_CORE/message_queue.c **** 	MQB_ptr->max_message_num = max_message_num;
 148              		.loc 1 54 0
 149 005c 6564     		str	r5, [r4, #68]
 150              		.loc 1 56 0
 151 005e FFF7FEFF 		bl	CPU_SR_Restore
 152              	.LVL13:
  57:../../source/src/user/OS_CORE/message_queue.c **** 	return FUN_EXECUTE_SUCCESSFULLY;
 153              		.loc 1 57 0
 154 0062 2846     		mov	r0, r5
 155              	.LVL14:
 156              	.L4:
  58:../../source/src/user/OS_CORE/message_queue.c **** }
 157              		.loc 1 58 0
 158 0064 BDE8F081 		pop	{r4, r5, r6, r7, r8, pc}
 159              	.LVL15:
 160              	.L11:
  23:../../source/src/user/OS_CORE/message_queue.c **** 	ASSERT(max_message_num > 0);
 161              		.loc 1 23 0 discriminator 1
 162 0068 1721     		movs	r1, #23
 163              	.LVL16:
 164 006a 0E48     		ldr	r0, .L13+12
 165              	.LVL17:
 166 006c FFF7FEFF 		bl	_ASSERT
 167              	.LVL18:
  24:../../source/src/user/OS_CORE/message_queue.c **** #if CONFIG_PARA_CHECK
 168              		.loc 1 24 0 discriminator 1
 169 0070 1EB9     		cbnz	r6, .L6
 170              	.L10:
  24:../../source/src/user/OS_CORE/message_queue.c **** #if CONFIG_PARA_CHECK
 171              		.loc 1 24 0 is_stmt 0
 172 0072 1821     		movs	r1, #24
 173 0074 0B48     		ldr	r0, .L13+12
 174 0076 FFF7FEFF 		bl	_ASSERT
 175              	.LVL19:
 176              	.L6:
  28:../../source/src/user/OS_CORE/message_queue.c **** 		OS_ERROR_PARA_MESSAGE_DISPLAY(msg_init,max_message_num);
 177              		.loc 1 28 0 is_stmt 1
 178 007a 0B48     		ldr	r0, .L13+16
 179 007c FFF7FEFF 		bl	ka_printf
 180              	.LVL20:
  29:../../source/src/user/OS_CORE/message_queue.c **** 		return -ERROR_NULL_INPUT_PTR;
 181              		.loc 1 29 0
 182 0080 0A48     		ldr	r0, .L13+20
 183 0082 FFF7FEFF 		bl	ka_printf
 184              	.LVL21:
  30:../../source/src/user/OS_CORE/message_queue.c **** 	}
 185              		.loc 1 30 0
 186 0086 6FF0FE00 		mvn	r0, #254
 187 008a EBE7     		b	.L4
 188              	.LVL22:
 189              	.L12:
  37:../../source/src/user/OS_CORE/message_queue.c **** 		return -ERROR_FUN_USE_IN_INTER;
 190              		.loc 1 37 0
 191 008c FFF7FEFF 		bl	CPU_SR_Restore
 192              	.LVL23:
  38:../../source/src/user/OS_CORE/message_queue.c **** 	}
ARM GAS  G:\Users\Jaxb\AppData\Local\Temp\cc2d6zn8.s 			page 6


 193              		.loc 1 38 0
 194 0090 6FF0FC00 		mvn	r0, #252
 195 0094 E6E7     		b	.L4
 196              	.L14:
 197 0096 00BF     		.align	2
 198              	.L13:
 199 0098 00000000 		.word	g_interrupt_count
 200 009c 00000000 		.word	value_cmp
 201 00a0 00000000 		.word	compare
 202 00a4 00000000 		.word	.LC0
 203 00a8 30000000 		.word	.LC1
 204 00ac 60000000 		.word	.LC2
 205              		.cfi_endproc
 206              	.LFE14:
 207              		.size	msg_init, .-msg_init
 208              		.align	1
 209              		.p2align 2,,3
 210              		.global	msg_send
 211              		.syntax unified
 212              		.thumb
 213              		.thumb_func
 214              		.fpu softvfp
 215              		.type	msg_send, %function
 216              	msg_send:
 217              	.LFB15:
  59:../../source/src/user/OS_CORE/message_queue.c **** 
  60:../../source/src/user/OS_CORE/message_queue.c **** int msg_send(MQB *MQB_ptr,struct message *message_ptr,MSG_FLAG flag,unsigned int time)
  61:../../source/src/user/OS_CORE/message_queue.c **** {
 218              		.loc 1 61 0
 219              		.cfi_startproc
 220              		@ args = 0, pretend = 0, frame = 24
 221              		@ frame_needed = 0, uses_anonymous_args = 0
 222              	.LVL24:
 223 00b0 2DE9F043 		push	{r4, r5, r6, r7, r8, r9, lr}
 224              	.LCFI1:
 225              		.cfi_def_cfa_offset 28
 226              		.cfi_offset 4, -28
 227              		.cfi_offset 5, -24
 228              		.cfi_offset 6, -20
 229              		.cfi_offset 7, -16
 230              		.cfi_offset 8, -12
 231              		.cfi_offset 9, -8
 232              		.cfi_offset 14, -4
 233 00b4 0D46     		mov	r5, r1
 234 00b6 87B0     		sub	sp, sp, #28
 235              	.LCFI2:
 236              		.cfi_def_cfa_offset 56
 237              		.loc 1 61 0
 238 00b8 9046     		mov	r8, r2
 239 00ba 1F46     		mov	r7, r3
  62:../../source/src/user/OS_CORE/message_queue.c **** 	ASSERT(NULL != MQB_ptr);
 240              		.loc 1 62 0
 241 00bc 0446     		mov	r4, r0
 242 00be 0028     		cmp	r0, #0
 243 00c0 00F08380 		beq	.L39
  63:../../source/src/user/OS_CORE/message_queue.c **** 	ASSERT(NULL != message_ptr);
 244              		.loc 1 63 0
ARM GAS  G:\Users\Jaxb\AppData\Local\Temp\cc2d6zn8.s 			page 7


 245 00c4 0029     		cmp	r1, #0
 246 00c6 00F08580 		beq	.L32
 247              	.LVL25:
  64:../../source/src/user/OS_CORE/message_queue.c **** #if CONFIG_PARA_CHECK
  65:../../source/src/user/OS_CORE/message_queue.c **** 	if((NULL == MQB_ptr) || (NULL == message_ptr))
  66:../../source/src/user/OS_CORE/message_queue.c **** 	{
  67:../../source/src/user/OS_CORE/message_queue.c **** 		OS_ERROR_PARA_MESSAGE_DISPLAY(msg_send,MQB_ptr);
  68:../../source/src/user/OS_CORE/message_queue.c **** 		OS_ERROR_PARA_MESSAGE_DISPLAY(msg_send,max_message_num);
  69:../../source/src/user/OS_CORE/message_queue.c **** 		return -ERROR_NULL_INPUT_PTR;
  70:../../source/src/user/OS_CORE/message_queue.c **** 	}
  71:../../source/src/user/OS_CORE/message_queue.c **** #endif
  72:../../source/src/user/OS_CORE/message_queue.c **** 	CPU_SR_ALLOC();
  73:../../source/src/user/OS_CORE/message_queue.c **** 	CPU_CRITICAL_ENTER();
 248              		.loc 1 73 0
 249 00ca FFF7FEFF 		bl	CPU_SR_Save
 250              	.LVL26:
  74:../../source/src/user/OS_CORE/message_queue.c **** 	if(MQB_ptr->current_message_num < MQB_ptr->max_message_num)
 251              		.loc 1 74 0
 252 00ce D4E91132 		ldrd	r3, r2, [r4, #68]
 253 00d2 9342     		cmp	r3, r2
  73:../../source/src/user/OS_CORE/message_queue.c **** 	if(MQB_ptr->current_message_num < MQB_ptr->max_message_num)
 254              		.loc 1 73 0
 255 00d4 0646     		mov	r6, r0
 256              	.LVL27:
 257              		.loc 1 74 0
 258 00d6 3DD3     		bcc	.L40
  75:../../source/src/user/OS_CORE/message_queue.c **** 	{
  76:../../source/src/user/OS_CORE/message_queue.c **** 		//add to tail
  77:../../source/src/user/OS_CORE/message_queue.c **** 		list_add_tail(&message_ptr->message_list,&MQB_ptr->message_list);
  78:../../source/src/user/OS_CORE/message_queue.c **** 		++(MQB_ptr->current_message_num);
  79:../../source/src/user/OS_CORE/message_queue.c **** 		//then check if there is a task waiting for receiving
  80:../../source/src/user/OS_CORE/message_queue.c **** 		if(MQB_ptr->wait_num)
  81:../../source/src/user/OS_CORE/message_queue.c **** 		{
  82:../../source/src/user/OS_CORE/message_queue.c **** 			struct insert_sort_data *insert_sort_data_ptr;
  83:../../source/src/user/OS_CORE/message_queue.c **** 			TCB *TCB_ptr;
  84:../../source/src/user/OS_CORE/message_queue.c **** 			insert_sort_data_ptr = insert_sort_delete_head(&MQB_ptr->message_array_insert_sort_wait_TCB_list
  85:../../source/src/user/OS_CORE/message_queue.c **** 			ASSERT(NULL != insert_sort_data_ptr);
  86:../../source/src/user/OS_CORE/message_queue.c **** 			TCB_ptr = (TCB *)(insert_sort_data_ptr->data_ptr);
  87:../../source/src/user/OS_CORE/message_queue.c **** 			if(STATE_WAIT_MESSAGE_QUEUE_FOREVER == TCB_ptr->task_state)
  88:../../source/src/user/OS_CORE/message_queue.c **** 			{
  89:../../source/src/user/OS_CORE/message_queue.c **** 				remove_from_suspend_list(TCB_ptr);
  90:../../source/src/user/OS_CORE/message_queue.c **** 			}
  91:../../source/src/user/OS_CORE/message_queue.c **** 			else
  92:../../source/src/user/OS_CORE/message_queue.c **** 			{
  93:../../source/src/user/OS_CORE/message_queue.c **** 				ASSERT(STATE_WAIT_MESSAGE_QUEUE_TIMEOUT == TCB_ptr->task_state);
  94:../../source/src/user/OS_CORE/message_queue.c **** 				remove_from_delay_heap(TCB_ptr);
  95:../../source/src/user/OS_CORE/message_queue.c **** 			}
  96:../../source/src/user/OS_CORE/message_queue.c **** 			schedule();
  97:../../source/src/user/OS_CORE/message_queue.c **** 		}
  98:../../source/src/user/OS_CORE/message_queue.c **** 		CPU_CRITICAL_EXIT();
  99:../../source/src/user/OS_CORE/message_queue.c **** 		return FUN_EXECUTE_SUCCESSFULLY;
 100:../../source/src/user/OS_CORE/message_queue.c **** 	}
 101:../../source/src/user/OS_CORE/message_queue.c **** 	// else : MQB_ptr->current_message_num == MQB_ptr->max_message_num
 102:../../source/src/user/OS_CORE/message_queue.c **** 	ASSERT(MQB_ptr->current_message_num == MQB_ptr->max_message_num);
 259              		.loc 1 102 0
 260 00d8 03D0     		beq	.L25
 261              		.loc 1 102 0 is_stmt 0 discriminator 1
ARM GAS  G:\Users\Jaxb\AppData\Local\Temp\cc2d6zn8.s 			page 8


 262 00da 6621     		movs	r1, #102
 263 00dc 5248     		ldr	r0, .L46
 264              	.LVL28:
 265 00de FFF7FEFF 		bl	_ASSERT
 266              	.LVL29:
 267              	.L25:
 103:../../source/src/user/OS_CORE/message_queue.c **** 	if(MSG_FLAG_NON_BLOCKING == flag)
 268              		.loc 1 103 0 is_stmt 1
 269 00e2 B8F1010F 		cmp	r8, #1
 270 00e6 00F09080 		beq	.L41
 104:../../source/src/user/OS_CORE/message_queue.c **** 	{
 105:../../source/src/user/OS_CORE/message_queue.c **** 		CPU_CRITICAL_EXIT();
 106:../../source/src/user/OS_CORE/message_queue.c **** 		return -ERROR_MSG_FULL;
 107:../../source/src/user/OS_CORE/message_queue.c **** 	}
 108:../../source/src/user/OS_CORE/message_queue.c **** 	// else : flag == FLAG_WAIT
 109:../../source/src/user/OS_CORE/message_queue.c **** 	DECLEAR_INSERT_SORT_DATA(data);
 110:../../source/src/user/OS_CORE/message_queue.c **** 	init_insert_sort_data(&data,OSTCBCurPtr);
 271              		.loc 1 110 0
 272 00ea DFF84881 		ldr	r8, .L46+12
 273 00ee 6846     		mov	r0, sp
 274 00f0 D8F80010 		ldr	r1, [r8]
 111:../../source/src/user/OS_CORE/message_queue.c **** 	insert_sort_insert_into(&data,&MQB_ptr->message_array_insert_sort_put_TCB_list);
 275              		.loc 1 111 0
 276 00f4 04F12009 		add	r9, r4, #32
 110:../../source/src/user/OS_CORE/message_queue.c **** 	insert_sort_insert_into(&data,&MQB_ptr->message_array_insert_sort_put_TCB_list);
 277              		.loc 1 110 0
 278 00f8 FFF7FEFF 		bl	init_insert_sort_data
 279              	.LVL30:
 280              		.loc 1 111 0
 281 00fc 6846     		mov	r0, sp
 282 00fe 4946     		mov	r1, r9
 283 0100 FFF7FEFF 		bl	insert_sort_insert_into
 284              	.LVL31:
 112:../../source/src/user/OS_CORE/message_queue.c **** 	++(MQB_ptr->put_num);
 285              		.loc 1 112 0
 286 0104 A36B     		ldr	r3, [r4, #56]
 113:../../source/src/user/OS_CORE/message_queue.c **** 	if(0 == time)
 114:../../source/src/user/OS_CORE/message_queue.c **** 	{
 115:../../source/src/user/OS_CORE/message_queue.c **** 		CPU_CRITICAL_EXIT(); //exit  critical
 287              		.loc 1 115 0
 288 0106 3046     		mov	r0, r6
 112:../../source/src/user/OS_CORE/message_queue.c **** 	++(MQB_ptr->put_num);
 289              		.loc 1 112 0
 290 0108 0133     		adds	r3, r3, #1
 291 010a A363     		str	r3, [r4, #56]
 113:../../source/src/user/OS_CORE/message_queue.c **** 	if(0 == time)
 292              		.loc 1 113 0
 293 010c 002F     		cmp	r7, #0
 294 010e 42D1     		bne	.L27
 295              	.LVL32:
 296              		.loc 1 115 0
 297 0110 FFF7FEFF 		bl	CPU_SR_Restore
 298              	.LVL33:
 116:../../source/src/user/OS_CORE/message_queue.c **** 		sys_suspend(STATE_PUT_MESSAGE_QUEUE_FOREVER);
 299              		.loc 1 116 0
 300 0114 0820     		movs	r0, #8
 301 0116 FFF7FEFF 		bl	sys_suspend
ARM GAS  G:\Users\Jaxb\AppData\Local\Temp\cc2d6zn8.s 			page 9


 302              	.LVL34:
 117:../../source/src/user/OS_CORE/message_queue.c **** 		//go back here=========go back here
 118:../../source/src/user/OS_CORE/message_queue.c **** 		CPU_CRITICAL_ENTER();
 303              		.loc 1 118 0
 304 011a FFF7FEFF 		bl	CPU_SR_Save
 305              	.LVL35:
 306 011e 0646     		mov	r6, r0
 307              	.LVL36:
 308              	.L28:
 119:../../source/src/user/OS_CORE/message_queue.c **** 	}
 120:../../source/src/user/OS_CORE/message_queue.c **** 	else
 121:../../source/src/user/OS_CORE/message_queue.c **** 	{
 122:../../source/src/user/OS_CORE/message_queue.c **** 		CPU_CRITICAL_EXIT(); //exit  critical
 123:../../source/src/user/OS_CORE/message_queue.c **** 		int num = sys_delay(time,STATE_PUT_MESSAGE_QUEUE_TIMEOUT);
 124:../../source/src/user/OS_CORE/message_queue.c **** 		//go back here=========go back here
 125:../../source/src/user/OS_CORE/message_queue.c **** 		CPU_CRITICAL_ENTER();//enter critical
 126:../../source/src/user/OS_CORE/message_queue.c **** 		if(num <= 0)//prove that timeout happened
 127:../../source/src/user/OS_CORE/message_queue.c **** 		{
 128:../../source/src/user/OS_CORE/message_queue.c **** 			--(MQB_ptr->put_num);
 129:../../source/src/user/OS_CORE/message_queue.c **** 			insert_sort_delete_data(&MQB_ptr->message_array_insert_sort_put_TCB_list,OSTCBCurPtr);
 130:../../source/src/user/OS_CORE/message_queue.c **** 			CPU_CRITICAL_EXIT(); //exit  critical
 131:../../source/src/user/OS_CORE/message_queue.c **** 			return -MSG_OUT_OF_TIME;
 132:../../source/src/user/OS_CORE/message_queue.c **** 		}
 133:../../source/src/user/OS_CORE/message_queue.c **** 	}
 134:../../source/src/user/OS_CORE/message_queue.c **** 	if(TCB_state_is_bad(OSTCBCurPtr))
 309              		.loc 1 134 0
 310 0120 D8F80020 		ldr	r2, [r8]
 311 0124 936B     		ldr	r3, [r2, #56]
 312 0126 9907     		lsls	r1, r3, #30
 313 0128 75D4     		bmi	.L42
 135:../../source/src/user/OS_CORE/message_queue.c **** 	{
 136:../../source/src/user/OS_CORE/message_queue.c **** 		clear_bad_state(OSTCBCurPtr);
 137:../../source/src/user/OS_CORE/message_queue.c **** 		CPU_CRITICAL_EXIT();
 138:../../source/src/user/OS_CORE/message_queue.c **** 		return -ERROR_MODULE_DELETED;
 139:../../source/src/user/OS_CORE/message_queue.c **** 	}
 140:../../source/src/user/OS_CORE/message_queue.c **** 	--(MQB_ptr->put_num);
 314              		.loc 1 140 0
 315 012a A26B     		ldr	r2, [r4, #56]
 141:../../source/src/user/OS_CORE/message_queue.c **** 	//add to tail
 142:../../source/src/user/OS_CORE/message_queue.c **** 	list_add_tail(&message_ptr->message_list,&MQB_ptr->message_list);
 143:../../source/src/user/OS_CORE/message_queue.c **** 	++(MQB_ptr->current_message_num);
 316              		.loc 1 143 0
 317 012c 636C     		ldr	r3, [r4, #68]
 140:../../source/src/user/OS_CORE/message_queue.c **** 	//add to tail
 318              		.loc 1 140 0
 319 012e 013A     		subs	r2, r2, #1
 320 0130 A263     		str	r2, [r4, #56]
 321              	.LVL37:
 144:../../source/src/user/OS_CORE/message_queue.c **** 	ASSERT(MQB_ptr->current_message_num <= MQB_ptr->max_message_num);
 322              		.loc 1 144 0
 323 0132 A26C     		ldr	r2, [r4, #72]
 324              	.LBB34:
 325              	.LBB35:
  20:../../source/include/os_lib/double_linked_list.h **** }
  21:../../source/include/os_lib/double_linked_list.h **** 
  22:../../source/include/os_lib/double_linked_list.h **** 
  23:../../source/include/os_lib/double_linked_list.h **** static inline void __list_add(struct list_head *new,
ARM GAS  G:\Users\Jaxb\AppData\Local\Temp\cc2d6zn8.s 			page 10


  24:../../source/include/os_lib/double_linked_list.h ****                   struct list_head *prev,
  25:../../source/include/os_lib/double_linked_list.h ****                   struct list_head *next)
  26:../../source/include/os_lib/double_linked_list.h **** {
  27:../../source/include/os_lib/double_linked_list.h ****     next->prev = new;
  28:../../source/include/os_lib/double_linked_list.h ****     new->next = next;
  29:../../source/include/os_lib/double_linked_list.h ****     new->prev = prev;
  30:../../source/include/os_lib/double_linked_list.h ****     prev->next = new;
  31:../../source/include/os_lib/double_linked_list.h **** }
  32:../../source/include/os_lib/double_linked_list.h **** 
  33:../../source/include/os_lib/double_linked_list.h **** 
  34:../../source/include/os_lib/double_linked_list.h **** static inline void list_add(struct list_head *new, struct list_head *head)
  35:../../source/include/os_lib/double_linked_list.h **** {
  36:../../source/include/os_lib/double_linked_list.h ****     __list_add(new, head, head->next);
  37:../../source/include/os_lib/double_linked_list.h **** }
  38:../../source/include/os_lib/double_linked_list.h **** 
  39:../../source/include/os_lib/double_linked_list.h **** 
  40:../../source/include/os_lib/double_linked_list.h **** static inline void list_add_tail(struct list_head *new, struct list_head *head)
  41:../../source/include/os_lib/double_linked_list.h **** {
  42:../../source/include/os_lib/double_linked_list.h ****     __list_add(new, head->prev, head);
 326              		.loc 2 42 0
 327 0134 6168     		ldr	r1, [r4, #4]
 328              	.LVL38:
 329              	.LBE35:
 330              	.LBE34:
 143:../../source/src/user/OS_CORE/message_queue.c **** 	ASSERT(MQB_ptr->current_message_num <= MQB_ptr->max_message_num);
 331              		.loc 1 143 0
 332 0136 0133     		adds	r3, r3, #1
 333              		.loc 1 144 0
 334 0138 9342     		cmp	r3, r2
 335              	.LBB39:
 336              	.LBB38:
 337              	.LBB36:
 338              	.LBB37:
  27:../../source/include/os_lib/double_linked_list.h ****     new->next = next;
 339              		.loc 2 27 0
 340 013a 6560     		str	r5, [r4, #4]
  28:../../source/include/os_lib/double_linked_list.h ****     new->prev = prev;
 341              		.loc 2 28 0
 342 013c C5E90041 		strd	r4, r1, [r5]
  30:../../source/include/os_lib/double_linked_list.h **** }
 343              		.loc 2 30 0
 344 0140 0D60     		str	r5, [r1]
 345              	.LVL39:
 346              	.LBE37:
 347              	.LBE36:
 348              	.LBE38:
 349              	.LBE39:
 143:../../source/src/user/OS_CORE/message_queue.c **** 	ASSERT(MQB_ptr->current_message_num <= MQB_ptr->max_message_num);
 350              		.loc 1 143 0
 351 0142 6364     		str	r3, [r4, #68]
 352              		.loc 1 144 0
 353 0144 53D8     		bhi	.L43
 354              	.LVL40:
 355              	.L30:
 145:../../source/src/user/OS_CORE/message_queue.c **** 	CPU_CRITICAL_EXIT();
 356              		.loc 1 145 0
 357 0146 3046     		mov	r0, r6
ARM GAS  G:\Users\Jaxb\AppData\Local\Temp\cc2d6zn8.s 			page 11


 358 0148 FFF7FEFF 		bl	CPU_SR_Restore
 359              	.LVL41:
 146:../../source/src/user/OS_CORE/message_queue.c **** 	return FUN_EXECUTE_SUCCESSFULLY;
 360              		.loc 1 146 0
 361 014c 0020     		movs	r0, #0
 362              	.LVL42:
 363              	.L15:
 147:../../source/src/user/OS_CORE/message_queue.c **** }
 364              		.loc 1 147 0
 365 014e 07B0     		add	sp, sp, #28
 366              	.LCFI3:
 367              		.cfi_remember_state
 368              		.cfi_def_cfa_offset 28
 369              		@ sp needed
 370 0150 BDE8F083 		pop	{r4, r5, r6, r7, r8, r9, pc}
 371              	.LVL43:
 372              	.L40:
 373              	.LCFI4:
 374              		.cfi_restore_state
 375              	.LBB40:
 376              	.LBB41:
 377              		.loc 2 42 0
 378 0154 6268     		ldr	r2, [r4, #4]
 379              	.LVL44:
 380              	.LBE41:
 381              	.LBE40:
  80:../../source/src/user/OS_CORE/message_queue.c **** 		{
 382              		.loc 1 80 0
 383 0156 E16B     		ldr	r1, [r4, #60]
  78:../../source/src/user/OS_CORE/message_queue.c **** 		//then check if there is a task waiting for receiving
 384              		.loc 1 78 0
 385 0158 0133     		adds	r3, r3, #1
 386              	.LBB45:
 387              	.LBB44:
 388              	.LBB42:
 389              	.LBB43:
  27:../../source/include/os_lib/double_linked_list.h ****     new->next = next;
 390              		.loc 2 27 0
 391 015a 6560     		str	r5, [r4, #4]
  28:../../source/include/os_lib/double_linked_list.h ****     new->prev = prev;
 392              		.loc 2 28 0
 393 015c C5E90042 		strd	r4, r2, [r5]
  30:../../source/include/os_lib/double_linked_list.h **** }
 394              		.loc 2 30 0
 395 0160 1560     		str	r5, [r2]
 396              	.LVL45:
 397              	.LBE43:
 398              	.LBE42:
 399              	.LBE44:
 400              	.LBE45:
  78:../../source/src/user/OS_CORE/message_queue.c **** 		//then check if there is a task waiting for receiving
 401              		.loc 1 78 0
 402 0162 6364     		str	r3, [r4, #68]
  80:../../source/src/user/OS_CORE/message_queue.c **** 		{
 403              		.loc 1 80 0
 404 0164 0029     		cmp	r1, #0
 405 0166 EED0     		beq	.L30
ARM GAS  G:\Users\Jaxb\AppData\Local\Temp\cc2d6zn8.s 			page 12


 406              	.LBB46:
  84:../../source/src/user/OS_CORE/message_queue.c **** 			ASSERT(NULL != insert_sort_data_ptr);
 407              		.loc 1 84 0
 408 0168 04F10800 		add	r0, r4, #8
 409              	.LVL46:
 410 016c FFF7FEFF 		bl	insert_sort_delete_head
 411              	.LVL47:
  85:../../source/src/user/OS_CORE/message_queue.c **** 			TCB_ptr = (TCB *)(insert_sort_data_ptr->data_ptr);
 412              		.loc 1 85 0
 413 0170 0446     		mov	r4, r0
 414              	.LVL48:
 415 0172 0028     		cmp	r0, #0
 416 0174 44D0     		beq	.L44
 417              	.LVL49:
 418              	.L21:
  86:../../source/src/user/OS_CORE/message_queue.c **** 			if(STATE_WAIT_MESSAGE_QUEUE_FOREVER == TCB_ptr->task_state)
 419              		.loc 1 86 0
 420 0176 2468     		ldr	r4, [r4]
 421              	.LVL50:
  87:../../source/src/user/OS_CORE/message_queue.c **** 			{
 422              		.loc 1 87 0
 423 0178 237D     		ldrb	r3, [r4, #20]	@ zero_extendqisi2
 424 017a 062B     		cmp	r3, #6
 425 017c 3CD0     		beq	.L45
  93:../../source/src/user/OS_CORE/message_queue.c **** 				remove_from_delay_heap(TCB_ptr);
 426              		.loc 1 93 0
 427 017e 072B     		cmp	r3, #7
 428 0180 03D0     		beq	.L24
  93:../../source/src/user/OS_CORE/message_queue.c **** 				remove_from_delay_heap(TCB_ptr);
 429              		.loc 1 93 0 is_stmt 0 discriminator 1
 430 0182 5D21     		movs	r1, #93
 431 0184 2848     		ldr	r0, .L46
 432 0186 FFF7FEFF 		bl	_ASSERT
 433              	.LVL51:
 434              	.L24:
  94:../../source/src/user/OS_CORE/message_queue.c **** 			}
 435              		.loc 1 94 0 is_stmt 1
 436 018a 2046     		mov	r0, r4
 437 018c FFF7FEFF 		bl	remove_from_delay_heap
 438              	.LVL52:
 439              	.L23:
  96:../../source/src/user/OS_CORE/message_queue.c **** 		}
 440              		.loc 1 96 0
 441 0190 FFF7FEFF 		bl	schedule
 442              	.LVL53:
 443 0194 D7E7     		b	.L30
 444              	.LVL54:
 445              	.L27:
 446              	.LBE46:
 447              	.LBB47:
 122:../../source/src/user/OS_CORE/message_queue.c **** 		int num = sys_delay(time,STATE_PUT_MESSAGE_QUEUE_TIMEOUT);
 448              		.loc 1 122 0
 449 0196 FFF7FEFF 		bl	CPU_SR_Restore
 450              	.LVL55:
 123:../../source/src/user/OS_CORE/message_queue.c **** 		//go back here=========go back here
 451              		.loc 1 123 0
 452 019a 3846     		mov	r0, r7
ARM GAS  G:\Users\Jaxb\AppData\Local\Temp\cc2d6zn8.s 			page 13


 453 019c 0921     		movs	r1, #9
 454 019e FFF7FEFF 		bl	sys_delay
 455              	.LVL56:
 456 01a2 0746     		mov	r7, r0
 457              	.LVL57:
 125:../../source/src/user/OS_CORE/message_queue.c **** 		if(num <= 0)//prove that timeout happened
 458              		.loc 1 125 0
 459 01a4 FFF7FEFF 		bl	CPU_SR_Save
 460              	.LVL58:
 126:../../source/src/user/OS_CORE/message_queue.c **** 		{
 461              		.loc 1 126 0
 462 01a8 002F     		cmp	r7, #0
 125:../../source/src/user/OS_CORE/message_queue.c **** 		if(num <= 0)//prove that timeout happened
 463              		.loc 1 125 0
 464 01aa 0646     		mov	r6, r0
 465              	.LVL59:
 126:../../source/src/user/OS_CORE/message_queue.c **** 		{
 466              		.loc 1 126 0
 467 01ac B8DC     		bgt	.L28
 128:../../source/src/user/OS_CORE/message_queue.c **** 			insert_sort_delete_data(&MQB_ptr->message_array_insert_sort_put_TCB_list,OSTCBCurPtr);
 468              		.loc 1 128 0
 469 01ae A36B     		ldr	r3, [r4, #56]
 129:../../source/src/user/OS_CORE/message_queue.c **** 			CPU_CRITICAL_EXIT(); //exit  critical
 470              		.loc 1 129 0
 471 01b0 D8F80010 		ldr	r1, [r8]
 128:../../source/src/user/OS_CORE/message_queue.c **** 			insert_sort_delete_data(&MQB_ptr->message_array_insert_sort_put_TCB_list,OSTCBCurPtr);
 472              		.loc 1 128 0
 473 01b4 013B     		subs	r3, r3, #1
 474 01b6 A363     		str	r3, [r4, #56]
 129:../../source/src/user/OS_CORE/message_queue.c **** 			CPU_CRITICAL_EXIT(); //exit  critical
 475              		.loc 1 129 0
 476 01b8 4846     		mov	r0, r9
 477              	.LVL60:
 478 01ba FFF7FEFF 		bl	insert_sort_delete_data
 479              	.LVL61:
 130:../../source/src/user/OS_CORE/message_queue.c **** 			return -MSG_OUT_OF_TIME;
 480              		.loc 1 130 0
 481 01be 3046     		mov	r0, r6
 482 01c0 FFF7FEFF 		bl	CPU_SR_Restore
 483              	.LVL62:
 131:../../source/src/user/OS_CORE/message_queue.c **** 		}
 484              		.loc 1 131 0
 485 01c4 6FF00100 		mvn	r0, #1
 486 01c8 C1E7     		b	.L15
 487              	.LVL63:
 488              	.L39:
 489              	.LBE47:
  62:../../source/src/user/OS_CORE/message_queue.c **** 	ASSERT(NULL != message_ptr);
 490              		.loc 1 62 0 discriminator 1
 491 01ca 3E21     		movs	r1, #62
 492              	.LVL64:
 493 01cc 1648     		ldr	r0, .L46
 494              	.LVL65:
 495 01ce FFF7FEFF 		bl	_ASSERT
 496              	.LVL66:
  63:../../source/src/user/OS_CORE/message_queue.c **** #if CONFIG_PARA_CHECK
 497              		.loc 1 63 0 discriminator 1
ARM GAS  G:\Users\Jaxb\AppData\Local\Temp\cc2d6zn8.s 			page 14


 498 01d2 1DB9     		cbnz	r5, .L17
 499              	.L32:
  63:../../source/src/user/OS_CORE/message_queue.c **** #if CONFIG_PARA_CHECK
 500              		.loc 1 63 0 is_stmt 0
 501 01d4 3F21     		movs	r1, #63
 502 01d6 1448     		ldr	r0, .L46
 503 01d8 FFF7FEFF 		bl	_ASSERT
 504              	.LVL67:
 505              	.L17:
  67:../../source/src/user/OS_CORE/message_queue.c **** 		OS_ERROR_PARA_MESSAGE_DISPLAY(msg_send,max_message_num);
 506              		.loc 1 67 0 is_stmt 1
 507 01dc 1348     		ldr	r0, .L46+4
 508 01de FFF7FEFF 		bl	ka_printf
 509              	.LVL68:
  68:../../source/src/user/OS_CORE/message_queue.c **** 		return -ERROR_NULL_INPUT_PTR;
 510              		.loc 1 68 0
 511 01e2 1348     		ldr	r0, .L46+8
 512 01e4 FFF7FEFF 		bl	ka_printf
 513              	.LVL69:
  69:../../source/src/user/OS_CORE/message_queue.c **** 	}
 514              		.loc 1 69 0
 515 01e8 6FF0FE00 		mvn	r0, #254
 516 01ec AFE7     		b	.L15
 517              	.LVL70:
 518              	.L43:
 144:../../source/src/user/OS_CORE/message_queue.c **** 	CPU_CRITICAL_EXIT();
 519              		.loc 1 144 0 discriminator 1
 520 01ee 9021     		movs	r1, #144
 521 01f0 0D48     		ldr	r0, .L46
 522              	.LVL71:
 523 01f2 FFF7FEFF 		bl	_ASSERT
 524              	.LVL72:
 525 01f6 A6E7     		b	.L30
 526              	.LVL73:
 527              	.L45:
 528              	.LBB48:
  89:../../source/src/user/OS_CORE/message_queue.c **** 			}
 529              		.loc 1 89 0
 530 01f8 2046     		mov	r0, r4
 531 01fa FFF7FEFF 		bl	remove_from_suspend_list
 532              	.LVL74:
 533 01fe C7E7     		b	.L23
 534              	.LVL75:
 535              	.L44:
  85:../../source/src/user/OS_CORE/message_queue.c **** 			TCB_ptr = (TCB *)(insert_sort_data_ptr->data_ptr);
 536              		.loc 1 85 0 discriminator 1
 537 0200 5521     		movs	r1, #85
 538 0202 0948     		ldr	r0, .L46
 539              	.LVL76:
 540 0204 FFF7FEFF 		bl	_ASSERT
 541              	.LVL77:
 542 0208 B5E7     		b	.L21
 543              	.LVL78:
 544              	.L41:
 545              	.LBE48:
 105:../../source/src/user/OS_CORE/message_queue.c **** 		return -ERROR_MSG_FULL;
 546              		.loc 1 105 0
ARM GAS  G:\Users\Jaxb\AppData\Local\Temp\cc2d6zn8.s 			page 15


 547 020a 3046     		mov	r0, r6
 548 020c FFF7FEFF 		bl	CPU_SR_Restore
 549              	.LVL79:
 106:../../source/src/user/OS_CORE/message_queue.c **** 	}
 550              		.loc 1 106 0
 551 0210 4FF0FF30 		mov	r0, #-1
 552 0214 9BE7     		b	.L15
 553              	.LVL80:
 554              	.L42:
 136:../../source/src/user/OS_CORE/message_queue.c **** 		CPU_CRITICAL_EXIT();
 555              		.loc 1 136 0
 556 0216 23F00203 		bic	r3, r3, #2
 137:../../source/src/user/OS_CORE/message_queue.c **** 		return -ERROR_MODULE_DELETED;
 557              		.loc 1 137 0
 558 021a 3046     		mov	r0, r6
 559              	.LVL81:
 136:../../source/src/user/OS_CORE/message_queue.c **** 		CPU_CRITICAL_EXIT();
 560              		.loc 1 136 0
 561 021c 9363     		str	r3, [r2, #56]
 137:../../source/src/user/OS_CORE/message_queue.c **** 		return -ERROR_MODULE_DELETED;
 562              		.loc 1 137 0
 563 021e FFF7FEFF 		bl	CPU_SR_Restore
 564              	.LVL82:
 138:../../source/src/user/OS_CORE/message_queue.c **** 	}
 565              		.loc 1 138 0
 566 0222 6FF0F900 		mvn	r0, #249
 567 0226 92E7     		b	.L15
 568              	.L47:
 569              		.align	2
 570              	.L46:
 571 0228 00000000 		.word	.LC0
 572 022c 98000000 		.word	.LC3
 573 0230 C8000000 		.word	.LC4
 574 0234 00000000 		.word	OSTCBCurPtr
 575              		.cfi_endproc
 576              	.LFE15:
 577              		.size	msg_send, .-msg_send
 578              		.align	1
 579              		.p2align 2,,3
 580              		.global	msg_receive
 581              		.syntax unified
 582              		.thumb
 583              		.thumb_func
 584              		.fpu softvfp
 585              		.type	msg_receive, %function
 586              	msg_receive:
 587              	.LFB16:
 148:../../source/src/user/OS_CORE/message_queue.c **** 
 149:../../source/src/user/OS_CORE/message_queue.c **** int msg_receive(MQB *MQB_ptr,struct message **message_ptr,MSG_FLAG flag,unsigned int time)
 150:../../source/src/user/OS_CORE/message_queue.c **** {
 588              		.loc 1 150 0
 589              		.cfi_startproc
 590              		@ args = 0, pretend = 0, frame = 24
 591              		@ frame_needed = 0, uses_anonymous_args = 0
 592              	.LVL83:
 593 0238 2DE9F043 		push	{r4, r5, r6, r7, r8, r9, lr}
 594              	.LCFI5:
ARM GAS  G:\Users\Jaxb\AppData\Local\Temp\cc2d6zn8.s 			page 16


 595              		.cfi_def_cfa_offset 28
 596              		.cfi_offset 4, -28
 597              		.cfi_offset 5, -24
 598              		.cfi_offset 6, -20
 599              		.cfi_offset 7, -16
 600              		.cfi_offset 8, -12
 601              		.cfi_offset 9, -8
 602              		.cfi_offset 14, -4
 603 023c 0D46     		mov	r5, r1
 604 023e 87B0     		sub	sp, sp, #28
 605              	.LCFI6:
 606              		.cfi_def_cfa_offset 56
 607              		.loc 1 150 0
 608 0240 9046     		mov	r8, r2
 609 0242 1F46     		mov	r7, r3
 151:../../source/src/user/OS_CORE/message_queue.c **** 	ASSERT(NULL != MQB_ptr);
 610              		.loc 1 151 0
 611 0244 0446     		mov	r4, r0
 612 0246 0028     		cmp	r0, #0
 613 0248 00F08980 		beq	.L72
 152:../../source/src/user/OS_CORE/message_queue.c **** 	ASSERT(NULL != message_ptr);
 614              		.loc 1 152 0
 615 024c 0029     		cmp	r1, #0
 616 024e 00F08B80 		beq	.L65
 617              	.LVL84:
 153:../../source/src/user/OS_CORE/message_queue.c **** #if CONFIG_PARA_CHECK
 154:../../source/src/user/OS_CORE/message_queue.c **** 	if((NULL == MQB_ptr) || (NULL == message_ptr))
 155:../../source/src/user/OS_CORE/message_queue.c **** 	{
 156:../../source/src/user/OS_CORE/message_queue.c **** 		OS_ERROR_PARA_MESSAGE_DISPLAY(msg_receive,MQB_ptr);
 157:../../source/src/user/OS_CORE/message_queue.c **** 		OS_ERROR_PARA_MESSAGE_DISPLAY(msg_receive,max_message_num);
 158:../../source/src/user/OS_CORE/message_queue.c **** 		return -ERROR_NULL_INPUT_PTR;
 159:../../source/src/user/OS_CORE/message_queue.c **** 	}
 160:../../source/src/user/OS_CORE/message_queue.c **** #endif
 161:../../source/src/user/OS_CORE/message_queue.c **** 	CPU_SR_ALLOC();
 162:../../source/src/user/OS_CORE/message_queue.c **** 	CPU_CRITICAL_ENTER();
 618              		.loc 1 162 0
 619 0252 FFF7FEFF 		bl	CPU_SR_Save
 620              	.LVL85:
 163:../../source/src/user/OS_CORE/message_queue.c **** 	if (g_interrupt_count > 0)
 621              		.loc 1 163 0
 622 0256 5C4B     		ldr	r3, .L81
 162:../../source/src/user/OS_CORE/message_queue.c **** 	if (g_interrupt_count > 0)
 623              		.loc 1 162 0
 624 0258 0646     		mov	r6, r0
 625              	.LVL86:
 626              		.loc 1 163 0
 627 025a 1B68     		ldr	r3, [r3]
 628 025c 002B     		cmp	r3, #0
 629 025e 00F39F80 		bgt	.L73
 164:../../source/src/user/OS_CORE/message_queue.c **** 	{
 165:../../source/src/user/OS_CORE/message_queue.c **** 		CPU_CRITICAL_EXIT();
 166:../../source/src/user/OS_CORE/message_queue.c **** 		return -ERROR_FUN_USE_IN_INTER;
 167:../../source/src/user/OS_CORE/message_queue.c **** 	}
 168:../../source/src/user/OS_CORE/message_queue.c **** 	if(0 < MQB_ptr->current_message_num)
 630              		.loc 1 168 0
 631 0262 636C     		ldr	r3, [r4, #68]
 632 0264 002B     		cmp	r3, #0
ARM GAS  G:\Users\Jaxb\AppData\Local\Temp\cc2d6zn8.s 			page 17


 633 0266 39D1     		bne	.L74
 169:../../source/src/user/OS_CORE/message_queue.c **** 	{
 170:../../source/src/user/OS_CORE/message_queue.c **** 		--(MQB_ptr->current_message_num);
 171:../../source/src/user/OS_CORE/message_queue.c **** 		//get the first message
 172:../../source/src/user/OS_CORE/message_queue.c **** 		*message_ptr = list_entry(MQB_ptr->message_list.next,struct message,message_list);
 173:../../source/src/user/OS_CORE/message_queue.c **** 		//detatch it from list
 174:../../source/src/user/OS_CORE/message_queue.c **** 		list_del(&(*message_ptr)->message_list);
 175:../../source/src/user/OS_CORE/message_queue.c **** 		//then check if there is a task waiting for sending
 176:../../source/src/user/OS_CORE/message_queue.c **** 		if(MQB_ptr->put_num)
 177:../../source/src/user/OS_CORE/message_queue.c **** 		{
 178:../../source/src/user/OS_CORE/message_queue.c **** 			struct insert_sort_data *insert_sort_data_ptr;
 179:../../source/src/user/OS_CORE/message_queue.c **** 			TCB *TCB_ptr;
 180:../../source/src/user/OS_CORE/message_queue.c **** 			insert_sort_data_ptr = insert_sort_delete_head(&MQB_ptr->message_array_insert_sort_put_TCB_list)
 181:../../source/src/user/OS_CORE/message_queue.c **** 			ASSERT(NULL != insert_sort_data_ptr);
 182:../../source/src/user/OS_CORE/message_queue.c **** 			TCB_ptr = (TCB *)(insert_sort_data_ptr->data_ptr);
 183:../../source/src/user/OS_CORE/message_queue.c **** 			if(STATE_PUT_MESSAGE_QUEUE_FOREVER == TCB_ptr->task_state)
 184:../../source/src/user/OS_CORE/message_queue.c **** 			{
 185:../../source/src/user/OS_CORE/message_queue.c **** 				remove_from_suspend_list(TCB_ptr);
 186:../../source/src/user/OS_CORE/message_queue.c **** 			}
 187:../../source/src/user/OS_CORE/message_queue.c **** 			else
 188:../../source/src/user/OS_CORE/message_queue.c **** 			{
 189:../../source/src/user/OS_CORE/message_queue.c **** 				ASSERT(STATE_PUT_MESSAGE_QUEUE_TIMEOUT == TCB_ptr->task_state);
 190:../../source/src/user/OS_CORE/message_queue.c **** 				remove_from_delay_heap(TCB_ptr);
 191:../../source/src/user/OS_CORE/message_queue.c **** 			}
 192:../../source/src/user/OS_CORE/message_queue.c **** 			schedule();
 193:../../source/src/user/OS_CORE/message_queue.c **** 		}
 194:../../source/src/user/OS_CORE/message_queue.c **** 		CPU_CRITICAL_EXIT();
 195:../../source/src/user/OS_CORE/message_queue.c **** 		return FUN_EXECUTE_SUCCESSFULLY;
 196:../../source/src/user/OS_CORE/message_queue.c **** 	}
 197:../../source/src/user/OS_CORE/message_queue.c **** 	// else : MQB_ptr->current_message_num == 0
 198:../../source/src/user/OS_CORE/message_queue.c **** 	ASSERT(0 == MQB_ptr->current_message_num);
 199:../../source/src/user/OS_CORE/message_queue.c **** 	if(MSG_FLAG_NON_BLOCKING == flag)
 634              		.loc 1 199 0
 635 0268 B8F1010F 		cmp	r8, #1
 636 026c 00F09D80 		beq	.L75
 200:../../source/src/user/OS_CORE/message_queue.c **** 	{
 201:../../source/src/user/OS_CORE/message_queue.c **** 		CPU_CRITICAL_EXIT();
 202:../../source/src/user/OS_CORE/message_queue.c **** 		return -ERROR_MSG_FULL;
 203:../../source/src/user/OS_CORE/message_queue.c **** 	}
 204:../../source/src/user/OS_CORE/message_queue.c **** 	// else : flag == FLAG_WAIT
 205:../../source/src/user/OS_CORE/message_queue.c **** 	DECLEAR_INSERT_SORT_DATA(data);
 206:../../source/src/user/OS_CORE/message_queue.c **** 	init_insert_sort_data(&data,OSTCBCurPtr);
 637              		.loc 1 206 0
 638 0270 DFF86481 		ldr	r8, .L81+16
 639 0274 6846     		mov	r0, sp
 640              	.LVL87:
 641 0276 D8F80010 		ldr	r1, [r8]
 207:../../source/src/user/OS_CORE/message_queue.c **** 	insert_sort_insert_into(&data,&MQB_ptr->message_array_insert_sort_wait_TCB_list);
 642              		.loc 1 207 0
 643 027a 04F10809 		add	r9, r4, #8
 206:../../source/src/user/OS_CORE/message_queue.c **** 	insert_sort_insert_into(&data,&MQB_ptr->message_array_insert_sort_wait_TCB_list);
 644              		.loc 1 206 0
 645 027e FFF7FEFF 		bl	init_insert_sort_data
 646              	.LVL88:
 647              		.loc 1 207 0
 648 0282 6846     		mov	r0, sp
 649 0284 4946     		mov	r1, r9
ARM GAS  G:\Users\Jaxb\AppData\Local\Temp\cc2d6zn8.s 			page 18


 650 0286 FFF7FEFF 		bl	insert_sort_insert_into
 651              	.LVL89:
 208:../../source/src/user/OS_CORE/message_queue.c **** 	++(MQB_ptr->wait_num);
 652              		.loc 1 208 0
 653 028a E36B     		ldr	r3, [r4, #60]
 209:../../source/src/user/OS_CORE/message_queue.c **** 	if(0 == time)
 210:../../source/src/user/OS_CORE/message_queue.c **** 	{
 211:../../source/src/user/OS_CORE/message_queue.c **** 		CPU_CRITICAL_EXIT(); //exit  critical
 654              		.loc 1 211 0
 655 028c 3046     		mov	r0, r6
 208:../../source/src/user/OS_CORE/message_queue.c **** 	++(MQB_ptr->wait_num);
 656              		.loc 1 208 0
 657 028e 0133     		adds	r3, r3, #1
 658 0290 E363     		str	r3, [r4, #60]
 209:../../source/src/user/OS_CORE/message_queue.c **** 	if(0 == time)
 659              		.loc 1 209 0
 660 0292 002F     		cmp	r7, #0
 661 0294 33D1     		bne	.L60
 662              		.loc 1 211 0
 663 0296 FFF7FEFF 		bl	CPU_SR_Restore
 664              	.LVL90:
 212:../../source/src/user/OS_CORE/message_queue.c **** 		sys_suspend(STATE_WAIT_MESSAGE_QUEUE_FOREVER);
 665              		.loc 1 212 0
 666 029a 0620     		movs	r0, #6
 667 029c FFF7FEFF 		bl	sys_suspend
 668              	.LVL91:
 213:../../source/src/user/OS_CORE/message_queue.c **** 		//go back here=========go back here
 214:../../source/src/user/OS_CORE/message_queue.c **** 		CPU_CRITICAL_ENTER();
 669              		.loc 1 214 0
 670 02a0 FFF7FEFF 		bl	CPU_SR_Save
 671              	.LVL92:
 672 02a4 0646     		mov	r6, r0
 673              	.LVL93:
 674              	.L61:
 215:../../source/src/user/OS_CORE/message_queue.c **** 	}
 216:../../source/src/user/OS_CORE/message_queue.c **** 	else
 217:../../source/src/user/OS_CORE/message_queue.c **** 	{
 218:../../source/src/user/OS_CORE/message_queue.c **** 		CPU_CRITICAL_EXIT(); //exit  critical
 219:../../source/src/user/OS_CORE/message_queue.c **** 		int num = sys_delay(time,STATE_WAIT_MESSAGE_QUEUE_TIMEOUT);
 220:../../source/src/user/OS_CORE/message_queue.c **** 		//go back here=========go back here
 221:../../source/src/user/OS_CORE/message_queue.c **** 		CPU_CRITICAL_ENTER();//enter critical
 222:../../source/src/user/OS_CORE/message_queue.c **** 		if(num <= 0)//prove that timeout happened
 223:../../source/src/user/OS_CORE/message_queue.c **** 		{
 224:../../source/src/user/OS_CORE/message_queue.c **** 			--(MQB_ptr->wait_num);
 225:../../source/src/user/OS_CORE/message_queue.c **** 			insert_sort_delete_data(&MQB_ptr->message_array_insert_sort_wait_TCB_list,OSTCBCurPtr);
 226:../../source/src/user/OS_CORE/message_queue.c **** 			CPU_CRITICAL_EXIT(); //exit  critical
 227:../../source/src/user/OS_CORE/message_queue.c **** 			return -MSG_OUT_OF_TIME;
 228:../../source/src/user/OS_CORE/message_queue.c **** 		}
 229:../../source/src/user/OS_CORE/message_queue.c **** 	}
 230:../../source/src/user/OS_CORE/message_queue.c **** 	if(TCB_state_is_bad(OSTCBCurPtr))
 675              		.loc 1 230 0
 676 02a6 D8F80020 		ldr	r2, [r8]
 677 02aa 936B     		ldr	r3, [r2, #56]
 678 02ac 9907     		lsls	r1, r3, #30
 679 02ae 00F18180 		bmi	.L76
 231:../../source/src/user/OS_CORE/message_queue.c **** 	{
 232:../../source/src/user/OS_CORE/message_queue.c **** 		clear_bad_state(OSTCBCurPtr);
ARM GAS  G:\Users\Jaxb\AppData\Local\Temp\cc2d6zn8.s 			page 19


 233:../../source/src/user/OS_CORE/message_queue.c **** 		CPU_CRITICAL_EXIT();
 234:../../source/src/user/OS_CORE/message_queue.c **** 		return -ERROR_MODULE_DELETED;
 235:../../source/src/user/OS_CORE/message_queue.c **** 	}
 236:../../source/src/user/OS_CORE/message_queue.c **** 	--(MQB_ptr->wait_num);
 680              		.loc 1 236 0
 681 02b2 E26B     		ldr	r2, [r4, #60]
 237:../../source/src/user/OS_CORE/message_queue.c **** 	ASSERT(MQB_ptr->current_message_num > 0);
 682              		.loc 1 237 0
 683 02b4 636C     		ldr	r3, [r4, #68]
 236:../../source/src/user/OS_CORE/message_queue.c **** 	ASSERT(MQB_ptr->current_message_num > 0);
 684              		.loc 1 236 0
 685 02b6 013A     		subs	r2, r2, #1
 686 02b8 E263     		str	r2, [r4, #60]
 687              		.loc 1 237 0
 688 02ba 002B     		cmp	r3, #0
 689 02bc 61D0     		beq	.L77
 690              	.LVL94:
 691              	.L63:
 692              	.LBB49:
 238:../../source/src/user/OS_CORE/message_queue.c **** 	--(MQB_ptr->current_message_num);
 239:../../source/src/user/OS_CORE/message_queue.c **** 	//get the first message
 240:../../source/src/user/OS_CORE/message_queue.c **** 	*message_ptr = list_entry(MQB_ptr->message_list.next,struct message,message_list);
 693              		.loc 1 240 0
 694 02be 2268     		ldr	r2, [r4]
 695              	.LVL95:
 696              	.LBE49:
 238:../../source/src/user/OS_CORE/message_queue.c **** 	--(MQB_ptr->current_message_num);
 697              		.loc 1 238 0
 698 02c0 013B     		subs	r3, r3, #1
 699              	.LBB50:
 700              	.LBB51:
  43:../../source/include/os_lib/double_linked_list.h **** }
  44:../../source/include/os_lib/double_linked_list.h **** 
  45:../../source/include/os_lib/double_linked_list.h **** 
  46:../../source/include/os_lib/double_linked_list.h **** static inline void __list_del(struct list_head * prev, struct list_head * next)
  47:../../source/include/os_lib/double_linked_list.h **** {
  48:../../source/include/os_lib/double_linked_list.h ****     next->prev = prev;
  49:../../source/include/os_lib/double_linked_list.h ****     prev->next = next;
  50:../../source/include/os_lib/double_linked_list.h **** }
  51:../../source/include/os_lib/double_linked_list.h **** 
  52:../../source/include/os_lib/double_linked_list.h **** 
  53:../../source/include/os_lib/double_linked_list.h **** static inline void list_del(struct list_head *entry)
  54:../../source/include/os_lib/double_linked_list.h **** {
  55:../../source/include/os_lib/double_linked_list.h ****     __list_del(entry->prev, entry->next);
 701              		.loc 2 55 0
 702 02c2 5168     		ldr	r1, [r2, #4]
 703              	.LBE51:
 704              	.LBE50:
 238:../../source/src/user/OS_CORE/message_queue.c **** 	--(MQB_ptr->current_message_num);
 705              		.loc 1 238 0
 706 02c4 6364     		str	r3, [r4, #68]
 707              	.LBB56:
 708              	.LBB54:
 709              		.loc 2 55 0
 710 02c6 1368     		ldr	r3, [r2]
 711              	.LBE54:
 712              	.LBE56:
ARM GAS  G:\Users\Jaxb\AppData\Local\Temp\cc2d6zn8.s 			page 20


 241:../../source/src/user/OS_CORE/message_queue.c **** 	//detatch it from list
 242:../../source/src/user/OS_CORE/message_queue.c **** 	list_del(&(*message_ptr)->message_list);
 243:../../source/src/user/OS_CORE/message_queue.c **** 	CPU_CRITICAL_EXIT();
 713              		.loc 1 243 0
 714 02c8 3046     		mov	r0, r6
 240:../../source/src/user/OS_CORE/message_queue.c **** 	//detatch it from list
 715              		.loc 1 240 0
 716 02ca 2A60     		str	r2, [r5]
 717              	.LVL96:
 718              	.LBB57:
 719              	.LBB55:
 720              	.LBB52:
 721              	.LBB53:
  48:../../source/include/os_lib/double_linked_list.h ****     prev->next = next;
 722              		.loc 2 48 0
 723 02cc 5960     		str	r1, [r3, #4]
  49:../../source/include/os_lib/double_linked_list.h **** }
 724              		.loc 2 49 0
 725 02ce 0B60     		str	r3, [r1]
 726              	.LVL97:
 727              	.LBE53:
 728              	.LBE52:
 729              	.LBE55:
 730              	.LBE57:
 731              		.loc 1 243 0
 732 02d0 FFF7FEFF 		bl	CPU_SR_Restore
 733              	.LVL98:
 244:../../source/src/user/OS_CORE/message_queue.c **** 	return FUN_EXECUTE_SUCCESSFULLY;
 734              		.loc 1 244 0
 735 02d4 0020     		movs	r0, #0
 736              	.LVL99:
 737              	.L48:
 245:../../source/src/user/OS_CORE/message_queue.c **** }
 738              		.loc 1 245 0
 739 02d6 07B0     		add	sp, sp, #28
 740              	.LCFI7:
 741              		.cfi_remember_state
 742              		.cfi_def_cfa_offset 28
 743              		@ sp needed
 744 02d8 BDE8F083 		pop	{r4, r5, r6, r7, r8, r9, pc}
 745              	.LVL100:
 746              	.L74:
 747              	.LCFI8:
 748              		.cfi_restore_state
 749              	.LBB58:
 172:../../source/src/user/OS_CORE/message_queue.c **** 		//detatch it from list
 750              		.loc 1 172 0
 751 02dc 2268     		ldr	r2, [r4]
 752              	.LVL101:
 753              	.LBE58:
 170:../../source/src/user/OS_CORE/message_queue.c **** 		//get the first message
 754              		.loc 1 170 0
 755 02de 013B     		subs	r3, r3, #1
 756 02e0 6364     		str	r3, [r4, #68]
 176:../../source/src/user/OS_CORE/message_queue.c **** 		{
 757              		.loc 1 176 0
 758 02e2 A16B     		ldr	r1, [r4, #56]
ARM GAS  G:\Users\Jaxb\AppData\Local\Temp\cc2d6zn8.s 			page 21


 759              	.LBB59:
 760              	.LBB60:
 761              		.loc 2 55 0
 762 02e4 5368     		ldr	r3, [r2, #4]
 763              	.LBE60:
 764              	.LBE59:
 172:../../source/src/user/OS_CORE/message_queue.c **** 		//detatch it from list
 765              		.loc 1 172 0
 766 02e6 2A60     		str	r2, [r5]
 767              	.LVL102:
 768              	.LBB64:
 769              	.LBB63:
 770              		.loc 2 55 0
 771 02e8 1268     		ldr	r2, [r2]
 772              	.LVL103:
 773              	.LBB61:
 774              	.LBB62:
  48:../../source/include/os_lib/double_linked_list.h ****     prev->next = next;
 775              		.loc 2 48 0
 776 02ea 5360     		str	r3, [r2, #4]
  49:../../source/include/os_lib/double_linked_list.h **** }
 777              		.loc 2 49 0
 778 02ec 1A60     		str	r2, [r3]
 779              	.LVL104:
 780              	.LBE62:
 781              	.LBE61:
 782              	.LBE63:
 783              	.LBE64:
 176:../../source/src/user/OS_CORE/message_queue.c **** 		{
 784              		.loc 1 176 0
 785 02ee 01BB     		cbnz	r1, .L78
 786              	.LVL105:
 787              	.L54:
 194:../../source/src/user/OS_CORE/message_queue.c **** 		return FUN_EXECUTE_SUCCESSFULLY;
 788              		.loc 1 194 0
 789 02f0 3046     		mov	r0, r6
 790 02f2 FFF7FEFF 		bl	CPU_SR_Restore
 791              	.LVL106:
 195:../../source/src/user/OS_CORE/message_queue.c **** 	}
 792              		.loc 1 195 0
 793 02f6 0020     		movs	r0, #0
 794              		.loc 1 245 0
 795 02f8 07B0     		add	sp, sp, #28
 796              	.LCFI9:
 797              		.cfi_remember_state
 798              		.cfi_def_cfa_offset 28
 799              		@ sp needed
 800 02fa BDE8F083 		pop	{r4, r5, r6, r7, r8, r9, pc}
 801              	.LVL107:
 802              	.L60:
 803              	.LCFI10:
 804              		.cfi_restore_state
 805              	.LBB65:
 218:../../source/src/user/OS_CORE/message_queue.c **** 		int num = sys_delay(time,STATE_WAIT_MESSAGE_QUEUE_TIMEOUT);
 806              		.loc 1 218 0
 807 02fe FFF7FEFF 		bl	CPU_SR_Restore
 808              	.LVL108:
ARM GAS  G:\Users\Jaxb\AppData\Local\Temp\cc2d6zn8.s 			page 22


 219:../../source/src/user/OS_CORE/message_queue.c **** 		//go back here=========go back here
 809              		.loc 1 219 0
 810 0302 3846     		mov	r0, r7
 811 0304 0721     		movs	r1, #7
 812 0306 FFF7FEFF 		bl	sys_delay
 813              	.LVL109:
 814 030a 0746     		mov	r7, r0
 815              	.LVL110:
 221:../../source/src/user/OS_CORE/message_queue.c **** 		if(num <= 0)//prove that timeout happened
 816              		.loc 1 221 0
 817 030c FFF7FEFF 		bl	CPU_SR_Save
 818              	.LVL111:
 222:../../source/src/user/OS_CORE/message_queue.c **** 		{
 819              		.loc 1 222 0
 820 0310 002F     		cmp	r7, #0
 221:../../source/src/user/OS_CORE/message_queue.c **** 		if(num <= 0)//prove that timeout happened
 821              		.loc 1 221 0
 822 0312 0646     		mov	r6, r0
 823              	.LVL112:
 222:../../source/src/user/OS_CORE/message_queue.c **** 		{
 824              		.loc 1 222 0
 825 0314 C7DC     		bgt	.L61
 224:../../source/src/user/OS_CORE/message_queue.c **** 			insert_sort_delete_data(&MQB_ptr->message_array_insert_sort_wait_TCB_list,OSTCBCurPtr);
 826              		.loc 1 224 0
 827 0316 E36B     		ldr	r3, [r4, #60]
 225:../../source/src/user/OS_CORE/message_queue.c **** 			CPU_CRITICAL_EXIT(); //exit  critical
 828              		.loc 1 225 0
 829 0318 D8F80010 		ldr	r1, [r8]
 224:../../source/src/user/OS_CORE/message_queue.c **** 			insert_sort_delete_data(&MQB_ptr->message_array_insert_sort_wait_TCB_list,OSTCBCurPtr);
 830              		.loc 1 224 0
 831 031c 013B     		subs	r3, r3, #1
 832 031e E363     		str	r3, [r4, #60]
 225:../../source/src/user/OS_CORE/message_queue.c **** 			CPU_CRITICAL_EXIT(); //exit  critical
 833              		.loc 1 225 0
 834 0320 4846     		mov	r0, r9
 835              	.LVL113:
 836 0322 FFF7FEFF 		bl	insert_sort_delete_data
 837              	.LVL114:
 226:../../source/src/user/OS_CORE/message_queue.c **** 			return -MSG_OUT_OF_TIME;
 838              		.loc 1 226 0
 839 0326 3046     		mov	r0, r6
 840 0328 FFF7FEFF 		bl	CPU_SR_Restore
 841              	.LVL115:
 227:../../source/src/user/OS_CORE/message_queue.c **** 		}
 842              		.loc 1 227 0
 843 032c 6FF00100 		mvn	r0, #1
 844 0330 D1E7     		b	.L48
 845              	.LVL116:
 846              	.L78:
 847              	.LBE65:
 848              	.LBB66:
 180:../../source/src/user/OS_CORE/message_queue.c **** 			ASSERT(NULL != insert_sort_data_ptr);
 849              		.loc 1 180 0
 850 0332 04F12000 		add	r0, r4, #32
 851              	.LVL117:
 852 0336 FFF7FEFF 		bl	insert_sort_delete_head
 853              	.LVL118:
ARM GAS  G:\Users\Jaxb\AppData\Local\Temp\cc2d6zn8.s 			page 23


 181:../../source/src/user/OS_CORE/message_queue.c **** 			TCB_ptr = (TCB *)(insert_sort_data_ptr->data_ptr);
 854              		.loc 1 181 0
 855 033a 0446     		mov	r4, r0
 856              	.LVL119:
 857 033c 58B3     		cbz	r0, .L79
 858              	.LVL120:
 859              	.L55:
 182:../../source/src/user/OS_CORE/message_queue.c **** 			if(STATE_PUT_MESSAGE_QUEUE_FOREVER == TCB_ptr->task_state)
 860              		.loc 1 182 0
 861 033e 2468     		ldr	r4, [r4]
 862              	.LVL121:
 183:../../source/src/user/OS_CORE/message_queue.c **** 			{
 863              		.loc 1 183 0
 864 0340 237D     		ldrb	r3, [r4, #20]	@ zero_extendqisi2
 865 0342 082B     		cmp	r3, #8
 866 0344 23D0     		beq	.L80
 189:../../source/src/user/OS_CORE/message_queue.c **** 				remove_from_delay_heap(TCB_ptr);
 867              		.loc 1 189 0
 868 0346 092B     		cmp	r3, #9
 869 0348 03D0     		beq	.L58
 189:../../source/src/user/OS_CORE/message_queue.c **** 				remove_from_delay_heap(TCB_ptr);
 870              		.loc 1 189 0 is_stmt 0 discriminator 1
 871 034a BD21     		movs	r1, #189
 872 034c 1F48     		ldr	r0, .L81+4
 873 034e FFF7FEFF 		bl	_ASSERT
 874              	.LVL122:
 875              	.L58:
 190:../../source/src/user/OS_CORE/message_queue.c **** 			}
 876              		.loc 1 190 0 is_stmt 1
 877 0352 2046     		mov	r0, r4
 878 0354 FFF7FEFF 		bl	remove_from_delay_heap
 879              	.LVL123:
 880              	.L57:
 192:../../source/src/user/OS_CORE/message_queue.c **** 		}
 881              		.loc 1 192 0
 882 0358 FFF7FEFF 		bl	schedule
 883              	.LVL124:
 884 035c C8E7     		b	.L54
 885              	.LVL125:
 886              	.L72:
 887              	.LBE66:
 151:../../source/src/user/OS_CORE/message_queue.c **** 	ASSERT(NULL != message_ptr);
 888              		.loc 1 151 0 discriminator 1
 889 035e 9721     		movs	r1, #151
 890              	.LVL126:
 891 0360 1A48     		ldr	r0, .L81+4
 892              	.LVL127:
 893 0362 FFF7FEFF 		bl	_ASSERT
 894              	.LVL128:
 152:../../source/src/user/OS_CORE/message_queue.c **** #if CONFIG_PARA_CHECK
 895              		.loc 1 152 0 discriminator 1
 896 0366 1DB9     		cbnz	r5, .L50
 897              	.L65:
 152:../../source/src/user/OS_CORE/message_queue.c **** #if CONFIG_PARA_CHECK
 898              		.loc 1 152 0 is_stmt 0
 899 0368 9821     		movs	r1, #152
 900 036a 1848     		ldr	r0, .L81+4
ARM GAS  G:\Users\Jaxb\AppData\Local\Temp\cc2d6zn8.s 			page 24


 901 036c FFF7FEFF 		bl	_ASSERT
 902              	.LVL129:
 903              	.L50:
 156:../../source/src/user/OS_CORE/message_queue.c **** 		OS_ERROR_PARA_MESSAGE_DISPLAY(msg_receive,max_message_num);
 904              		.loc 1 156 0 is_stmt 1
 905 0370 1748     		ldr	r0, .L81+8
 906 0372 FFF7FEFF 		bl	ka_printf
 907              	.LVL130:
 157:../../source/src/user/OS_CORE/message_queue.c **** 		return -ERROR_NULL_INPUT_PTR;
 908              		.loc 1 157 0
 909 0376 1748     		ldr	r0, .L81+12
 910 0378 FFF7FEFF 		bl	ka_printf
 911              	.LVL131:
 158:../../source/src/user/OS_CORE/message_queue.c **** 	}
 912              		.loc 1 158 0
 913 037c 6FF0FE00 		mvn	r0, #254
 914 0380 A9E7     		b	.L48
 915              	.LVL132:
 916              	.L77:
 237:../../source/src/user/OS_CORE/message_queue.c **** 	--(MQB_ptr->current_message_num);
 917              		.loc 1 237 0 discriminator 1
 918 0382 ED21     		movs	r1, #237
 919 0384 1148     		ldr	r0, .L81+4
 920              	.LVL133:
 921 0386 FFF7FEFF 		bl	_ASSERT
 922              	.LVL134:
 923 038a 636C     		ldr	r3, [r4, #68]
 924 038c 97E7     		b	.L63
 925              	.LVL135:
 926              	.L80:
 927              	.LBB67:
 185:../../source/src/user/OS_CORE/message_queue.c **** 			}
 928              		.loc 1 185 0
 929 038e 2046     		mov	r0, r4
 930 0390 FFF7FEFF 		bl	remove_from_suspend_list
 931              	.LVL136:
 932 0394 E0E7     		b	.L57
 933              	.LVL137:
 934              	.L79:
 181:../../source/src/user/OS_CORE/message_queue.c **** 			TCB_ptr = (TCB *)(insert_sort_data_ptr->data_ptr);
 935              		.loc 1 181 0 discriminator 1
 936 0396 B521     		movs	r1, #181
 937 0398 0C48     		ldr	r0, .L81+4
 938              	.LVL138:
 939 039a FFF7FEFF 		bl	_ASSERT
 940              	.LVL139:
 941 039e CEE7     		b	.L55
 942              	.LVL140:
 943              	.L73:
 944              	.LBE67:
 165:../../source/src/user/OS_CORE/message_queue.c **** 		return -ERROR_FUN_USE_IN_INTER;
 945              		.loc 1 165 0
 946 03a0 FFF7FEFF 		bl	CPU_SR_Restore
 947              	.LVL141:
 166:../../source/src/user/OS_CORE/message_queue.c **** 	}
 948              		.loc 1 166 0
 949 03a4 6FF0FC00 		mvn	r0, #252
ARM GAS  G:\Users\Jaxb\AppData\Local\Temp\cc2d6zn8.s 			page 25


 950 03a8 95E7     		b	.L48
 951              	.LVL142:
 952              	.L75:
 201:../../source/src/user/OS_CORE/message_queue.c **** 		return -ERROR_MSG_FULL;
 953              		.loc 1 201 0
 954 03aa FFF7FEFF 		bl	CPU_SR_Restore
 955              	.LVL143:
 202:../../source/src/user/OS_CORE/message_queue.c **** 	}
 956              		.loc 1 202 0
 957 03ae 4FF0FF30 		mov	r0, #-1
 958 03b2 90E7     		b	.L48
 959              	.LVL144:
 960              	.L76:
 232:../../source/src/user/OS_CORE/message_queue.c **** 		CPU_CRITICAL_EXIT();
 961              		.loc 1 232 0
 962 03b4 23F00203 		bic	r3, r3, #2
 233:../../source/src/user/OS_CORE/message_queue.c **** 		return -ERROR_MODULE_DELETED;
 963              		.loc 1 233 0
 964 03b8 3046     		mov	r0, r6
 965              	.LVL145:
 232:../../source/src/user/OS_CORE/message_queue.c **** 		CPU_CRITICAL_EXIT();
 966              		.loc 1 232 0
 967 03ba 9363     		str	r3, [r2, #56]
 233:../../source/src/user/OS_CORE/message_queue.c **** 		return -ERROR_MODULE_DELETED;
 968              		.loc 1 233 0
 969 03bc FFF7FEFF 		bl	CPU_SR_Restore
 970              	.LVL146:
 234:../../source/src/user/OS_CORE/message_queue.c **** 	}
 971              		.loc 1 234 0
 972 03c0 6FF0F900 		mvn	r0, #249
 973 03c4 87E7     		b	.L48
 974              	.L82:
 975 03c6 00BF     		.align	2
 976              	.L81:
 977 03c8 00000000 		.word	g_interrupt_count
 978 03cc 00000000 		.word	.LC0
 979 03d0 00010000 		.word	.LC5
 980 03d4 34010000 		.word	.LC6
 981 03d8 00000000 		.word	OSTCBCurPtr
 982              		.cfi_endproc
 983              	.LFE16:
 984              		.size	msg_receive, .-msg_receive
 985              		.align	1
 986              		.p2align 2,,3
 987              		.global	msg_del
 988              		.syntax unified
 989              		.thumb
 990              		.thumb_func
 991              		.fpu softvfp
 992              		.type	msg_del, %function
 993              	msg_del:
 994              	.LFB17:
 246:../../source/src/user/OS_CORE/message_queue.c **** 
 247:../../source/src/user/OS_CORE/message_queue.c **** int msg_del(MQB *MQB_ptr)
 248:../../source/src/user/OS_CORE/message_queue.c **** {
 995              		.loc 1 248 0
 996              		.cfi_startproc
ARM GAS  G:\Users\Jaxb\AppData\Local\Temp\cc2d6zn8.s 			page 26


 997              		@ args = 0, pretend = 0, frame = 0
 998              		@ frame_needed = 0, uses_anonymous_args = 0
 999              	.LVL147:
 1000 03dc F8B5     		push	{r3, r4, r5, r6, r7, lr}
 1001              	.LCFI11:
 1002              		.cfi_def_cfa_offset 24
 1003              		.cfi_offset 3, -24
 1004              		.cfi_offset 4, -20
 1005              		.cfi_offset 5, -16
 1006              		.cfi_offset 6, -12
 1007              		.cfi_offset 7, -8
 1008              		.cfi_offset 14, -4
 249:../../source/src/user/OS_CORE/message_queue.c **** 	ASSERT(NULL != MQB_ptr);
 1009              		.loc 1 249 0
 1010 03de 0546     		mov	r5, r0
 1011 03e0 0028     		cmp	r0, #0
 1012 03e2 44D0     		beq	.L108
 250:../../source/src/user/OS_CORE/message_queue.c **** #if CONFIG_PARA_CHECK
 251:../../source/src/user/OS_CORE/message_queue.c **** 	if(NULL == MQB_ptr)
 252:../../source/src/user/OS_CORE/message_queue.c **** 	{
 253:../../source/src/user/OS_CORE/message_queue.c **** 		OS_ERROR_PARA_MESSAGE_DISPLAY(msg_del,MQB_ptr);
 254:../../source/src/user/OS_CORE/message_queue.c **** 		return -ERROR_NULL_INPUT_PTR;
 255:../../source/src/user/OS_CORE/message_queue.c **** 	}
 256:../../source/src/user/OS_CORE/message_queue.c **** #endif
 257:../../source/src/user/OS_CORE/message_queue.c **** 	TCB *TCB_ptr;
 258:../../source/src/user/OS_CORE/message_queue.c **** 	struct insert_sort_data *insert_sort_data_ptr = insert_sort_delete_head(&MQB_ptr->message_array_in
 1013              		.loc 1 258 0
 1014 03e4 00F10806 		add	r6, r0, #8
 1015 03e8 3046     		mov	r0, r6
 1016              	.LVL148:
 1017 03ea FFF7FEFF 		bl	insert_sort_delete_head
 1018              	.LVL149:
 259:../../source/src/user/OS_CORE/message_queue.c **** 	while(NULL != insert_sort_data_ptr)
 1019              		.loc 1 259 0
 1020 03ee D8B1     		cbz	r0, .L95
 260:../../source/src/user/OS_CORE/message_queue.c **** 	{
 261:../../source/src/user/OS_CORE/message_queue.c **** 		TCB_ptr = (TCB *)(insert_sort_data_ptr->data_ptr);
 262:../../source/src/user/OS_CORE/message_queue.c **** 		if(STATE_WAIT_MESSAGE_QUEUE_FOREVER == TCB_ptr->task_state)
 263:../../source/src/user/OS_CORE/message_queue.c **** 		{
 264:../../source/src/user/OS_CORE/message_queue.c **** 			remove_from_suspend_list(TCB_ptr);
 265:../../source/src/user/OS_CORE/message_queue.c **** 		}
 266:../../source/src/user/OS_CORE/message_queue.c **** 		else
 267:../../source/src/user/OS_CORE/message_queue.c **** 		{
 268:../../source/src/user/OS_CORE/message_queue.c **** 			ASSERT(STATE_WAIT_MESSAGE_QUEUE_TIMEOUT == TCB_ptr->task_state);
 1021              		.loc 1 268 0
 1022 03f0 244F     		ldr	r7, .L109
 1023 03f2 11E0     		b	.L89
 1024              	.LVL150:
 1025              	.L86:
 1026 03f4 072B     		cmp	r3, #7
 1027 03f6 04D0     		beq	.L88
 1028              		.loc 1 268 0 is_stmt 0 discriminator 1
 1029 03f8 4FF48671 		mov	r1, #268
 1030 03fc 3846     		mov	r0, r7
 1031              	.LVL151:
 1032 03fe FFF7FEFF 		bl	_ASSERT
 1033              	.LVL152:
ARM GAS  G:\Users\Jaxb\AppData\Local\Temp\cc2d6zn8.s 			page 27


 1034              	.L88:
 269:../../source/src/user/OS_CORE/message_queue.c **** 			remove_from_delay_heap(TCB_ptr);
 1035              		.loc 1 269 0 is_stmt 1
 1036 0402 2046     		mov	r0, r4
 1037 0404 FFF7FEFF 		bl	remove_from_delay_heap
 1038              	.LVL153:
 1039              	.L87:
 270:../../source/src/user/OS_CORE/message_queue.c **** 		}
 271:../../source/src/user/OS_CORE/message_queue.c **** 		set_bad_state(TCB_ptr);
 1040              		.loc 1 271 0
 1041 0408 A36B     		ldr	r3, [r4, #56]
 272:../../source/src/user/OS_CORE/message_queue.c **** 		insert_sort_data_ptr = insert_sort_delete_head(&MQB_ptr->message_array_insert_sort_wait_TCB_list)
 1042              		.loc 1 272 0
 1043 040a 3046     		mov	r0, r6
 271:../../source/src/user/OS_CORE/message_queue.c **** 		insert_sort_data_ptr = insert_sort_delete_head(&MQB_ptr->message_array_insert_sort_wait_TCB_list)
 1044              		.loc 1 271 0
 1045 040c 43F00203 		orr	r3, r3, #2
 1046 0410 A363     		str	r3, [r4, #56]
 1047              		.loc 1 272 0
 1048 0412 FFF7FEFF 		bl	insert_sort_delete_head
 1049              	.LVL154:
 259:../../source/src/user/OS_CORE/message_queue.c **** 	{
 1050              		.loc 1 259 0
 1051 0416 38B1     		cbz	r0, .L95
 1052              	.LVL155:
 1053              	.L89:
 261:../../source/src/user/OS_CORE/message_queue.c **** 		if(STATE_WAIT_MESSAGE_QUEUE_FOREVER == TCB_ptr->task_state)
 1054              		.loc 1 261 0
 1055 0418 0468     		ldr	r4, [r0]
 1056              	.LVL156:
 262:../../source/src/user/OS_CORE/message_queue.c **** 		{
 1057              		.loc 1 262 0
 1058 041a 237D     		ldrb	r3, [r4, #20]	@ zero_extendqisi2
 1059 041c 062B     		cmp	r3, #6
 1060 041e E9D1     		bne	.L86
 264:../../source/src/user/OS_CORE/message_queue.c **** 		}
 1061              		.loc 1 264 0
 1062 0420 2046     		mov	r0, r4
 1063              	.LVL157:
 1064 0422 FFF7FEFF 		bl	remove_from_suspend_list
 1065              	.LVL158:
 1066 0426 EFE7     		b	.L87
 1067              	.LVL159:
 1068              	.L95:
 273:../../source/src/user/OS_CORE/message_queue.c **** 	}
 274:../../source/src/user/OS_CORE/message_queue.c **** 	insert_sort_data_ptr = insert_sort_delete_head(&MQB_ptr->message_array_insert_sort_put_TCB_list);
 1069              		.loc 1 274 0
 1070 0428 2035     		adds	r5, r5, #32
 1071              	.LVL160:
 1072 042a 2846     		mov	r0, r5
 1073              	.LVL161:
 1074 042c FFF7FEFF 		bl	insert_sort_delete_head
 1075              	.LVL162:
 275:../../source/src/user/OS_CORE/message_queue.c **** 	while(NULL != insert_sort_data_ptr)
 1076              		.loc 1 275 0
 1077 0430 D8B1     		cbz	r0, .L90
 276:../../source/src/user/OS_CORE/message_queue.c **** 	{
ARM GAS  G:\Users\Jaxb\AppData\Local\Temp\cc2d6zn8.s 			page 28


 277:../../source/src/user/OS_CORE/message_queue.c **** 		TCB_ptr = (TCB *)(insert_sort_data_ptr->data_ptr);
 278:../../source/src/user/OS_CORE/message_queue.c **** 		if(STATE_PUT_MESSAGE_QUEUE_FOREVER == TCB_ptr->task_state)
 279:../../source/src/user/OS_CORE/message_queue.c **** 		{
 280:../../source/src/user/OS_CORE/message_queue.c **** 			remove_from_suspend_list(TCB_ptr);
 281:../../source/src/user/OS_CORE/message_queue.c **** 		}
 282:../../source/src/user/OS_CORE/message_queue.c **** 		else
 283:../../source/src/user/OS_CORE/message_queue.c **** 		{
 284:../../source/src/user/OS_CORE/message_queue.c **** 			ASSERT(STATE_PUT_MESSAGE_QUEUE_TIMEOUT == TCB_ptr->task_state);
 1078              		.loc 1 284 0
 1079 0432 144E     		ldr	r6, .L109
 1080 0434 11E0     		b	.L94
 1081              	.LVL163:
 1082              	.L91:
 1083 0436 092B     		cmp	r3, #9
 1084 0438 04D0     		beq	.L93
 1085              		.loc 1 284 0 is_stmt 0 discriminator 1
 1086 043a 4FF48E71 		mov	r1, #284
 1087 043e 3046     		mov	r0, r6
 1088              	.LVL164:
 1089 0440 FFF7FEFF 		bl	_ASSERT
 1090              	.LVL165:
 1091              	.L93:
 285:../../source/src/user/OS_CORE/message_queue.c **** 			remove_from_delay_heap(TCB_ptr);
 1092              		.loc 1 285 0 is_stmt 1
 1093 0444 2046     		mov	r0, r4
 1094 0446 FFF7FEFF 		bl	remove_from_delay_heap
 1095              	.LVL166:
 1096              	.L92:
 286:../../source/src/user/OS_CORE/message_queue.c **** 		}
 287:../../source/src/user/OS_CORE/message_queue.c **** 		set_bad_state(TCB_ptr);
 1097              		.loc 1 287 0
 1098 044a A36B     		ldr	r3, [r4, #56]
 288:../../source/src/user/OS_CORE/message_queue.c **** 		insert_sort_data_ptr = insert_sort_delete_head(&MQB_ptr->message_array_insert_sort_put_TCB_list);
 1099              		.loc 1 288 0
 1100 044c 2846     		mov	r0, r5
 287:../../source/src/user/OS_CORE/message_queue.c **** 		insert_sort_data_ptr = insert_sort_delete_head(&MQB_ptr->message_array_insert_sort_put_TCB_list);
 1101              		.loc 1 287 0
 1102 044e 43F00203 		orr	r3, r3, #2
 1103 0452 A363     		str	r3, [r4, #56]
 1104              		.loc 1 288 0
 1105 0454 FFF7FEFF 		bl	insert_sort_delete_head
 1106              	.LVL167:
 275:../../source/src/user/OS_CORE/message_queue.c **** 	{
 1107              		.loc 1 275 0
 1108 0458 38B1     		cbz	r0, .L90
 1109              	.LVL168:
 1110              	.L94:
 277:../../source/src/user/OS_CORE/message_queue.c **** 		if(STATE_PUT_MESSAGE_QUEUE_FOREVER == TCB_ptr->task_state)
 1111              		.loc 1 277 0
 1112 045a 0468     		ldr	r4, [r0]
 1113              	.LVL169:
 278:../../source/src/user/OS_CORE/message_queue.c **** 		{
 1114              		.loc 1 278 0
 1115 045c 237D     		ldrb	r3, [r4, #20]	@ zero_extendqisi2
 1116 045e 082B     		cmp	r3, #8
 1117 0460 E9D1     		bne	.L91
 280:../../source/src/user/OS_CORE/message_queue.c **** 		}
ARM GAS  G:\Users\Jaxb\AppData\Local\Temp\cc2d6zn8.s 			page 29


 1118              		.loc 1 280 0
 1119 0462 2046     		mov	r0, r4
 1120              	.LVL170:
 1121 0464 FFF7FEFF 		bl	remove_from_suspend_list
 1122              	.LVL171:
 1123 0468 EFE7     		b	.L92
 1124              	.LVL172:
 1125              	.L90:
 289:../../source/src/user/OS_CORE/message_queue.c **** 	}
 290:../../source/src/user/OS_CORE/message_queue.c **** 	return FUN_EXECUTE_SUCCESSFULLY;
 1126              		.loc 1 290 0
 1127 046a 0020     		movs	r0, #0
 1128              	.LVL173:
 291:../../source/src/user/OS_CORE/message_queue.c **** }
 1129              		.loc 1 291 0
 1130 046c F8BD     		pop	{r3, r4, r5, r6, r7, pc}
 1131              	.LVL174:
 1132              	.L108:
 249:../../source/src/user/OS_CORE/message_queue.c **** #if CONFIG_PARA_CHECK
 1133              		.loc 1 249 0 discriminator 1
 1134 046e F921     		movs	r1, #249
 1135 0470 0448     		ldr	r0, .L109
 1136              	.LVL175:
 1137 0472 FFF7FEFF 		bl	_ASSERT
 1138              	.LVL176:
 253:../../source/src/user/OS_CORE/message_queue.c **** 		return -ERROR_NULL_INPUT_PTR;
 1139              		.loc 1 253 0 discriminator 1
 1140 0476 0448     		ldr	r0, .L109+4
 1141 0478 FFF7FEFF 		bl	ka_printf
 1142              	.LVL177:
 254:../../source/src/user/OS_CORE/message_queue.c **** 	}
 1143              		.loc 1 254 0 discriminator 1
 1144 047c 6FF0FE00 		mvn	r0, #254
 1145              		.loc 1 291 0 discriminator 1
 1146 0480 F8BD     		pop	{r3, r4, r5, r6, r7, pc}
 1147              	.LVL178:
 1148              	.L110:
 1149 0482 00BF     		.align	2
 1150              	.L109:
 1151 0484 00000000 		.word	.LC0
 1152 0488 70010000 		.word	.LC7
 1153              		.cfi_endproc
 1154              	.LFE17:
 1155              		.size	msg_del, .-msg_del
 1156              		.align	1
 1157              		.p2align 2,,3
 1158              		.global	message_init
 1159              		.syntax unified
 1160              		.thumb
 1161              		.thumb_func
 1162              		.fpu softvfp
 1163              		.type	message_init, %function
 1164              	message_init:
 1165              	.LFB18:
 292:../../source/src/user/OS_CORE/message_queue.c **** 
 293:../../source/src/user/OS_CORE/message_queue.c **** int message_init(struct message *message_ptr,unsigned int message_size,void *data)
 294:../../source/src/user/OS_CORE/message_queue.c **** {
ARM GAS  G:\Users\Jaxb\AppData\Local\Temp\cc2d6zn8.s 			page 30


 1166              		.loc 1 294 0
 1167              		.cfi_startproc
 1168              		@ args = 0, pretend = 0, frame = 0
 1169              		@ frame_needed = 0, uses_anonymous_args = 0
 1170              	.LVL179:
 1171 048c 10B5     		push	{r4, lr}
 1172              	.LCFI12:
 1173              		.cfi_def_cfa_offset 8
 1174              		.cfi_offset 4, -8
 1175              		.cfi_offset 14, -4
 295:../../source/src/user/OS_CORE/message_queue.c **** 	ASSERT(NULL != message_ptr);
 1176              		.loc 1 295 0
 1177 048e 0446     		mov	r4, r0
 1178 0490 50B1     		cbz	r0, .L114
 1179              	.LVL180:
 296:../../source/src/user/OS_CORE/message_queue.c **** #if CONFIG_PARA_CHECK
 297:../../source/src/user/OS_CORE/message_queue.c **** 	if(NULL == message_ptr)
 298:../../source/src/user/OS_CORE/message_queue.c **** 	{
 299:../../source/src/user/OS_CORE/message_queue.c **** 		OS_ERROR_PARA_MESSAGE_DISPLAY(message_init,message_ptr);
 300:../../source/src/user/OS_CORE/message_queue.c **** 		return -ERROR_NULL_INPUT_PTR;
 301:../../source/src/user/OS_CORE/message_queue.c **** 	}
 302:../../source/src/user/OS_CORE/message_queue.c **** #endif
 303:../../source/src/user/OS_CORE/message_queue.c **** 	INIT_LIST_HEAD(&message_ptr->message_list);
 304:../../source/src/user/OS_CORE/message_queue.c **** 	message_ptr->message_size = message_size;
 305:../../source/src/user/OS_CORE/message_queue.c **** 	message_ptr->message_data_ptr = data;
 1180              		.loc 1 305 0
 1181 0492 C0E90212 		strd	r1, r2, [r0, #8]
 1182              	.LBB68:
 1183              	.LBB69:
  19:../../source/include/os_lib/double_linked_list.h **** }
 1184              		.loc 2 19 0
 1185 0496 C0E90000 		strd	r0, r0, [r0]
 1186              	.LVL181:
 1187              	.LBE69:
 1188              	.LBE68:
 306:../../source/src/user/OS_CORE/message_queue.c **** 	message_ptr->tick = get_tick();
 1189              		.loc 1 306 0
 1190 049a FFF7FEFF 		bl	get_tick
 1191              	.LVL182:
 307:../../source/src/user/OS_CORE/message_queue.c **** 	return FUN_EXECUTE_SUCCESSFULLY;
 1192              		.loc 1 307 0
 1193 049e 0023     		movs	r3, #0
 306:../../source/src/user/OS_CORE/message_queue.c **** 	message_ptr->tick = get_tick();
 1194              		.loc 1 306 0
 1195 04a0 C4E90401 		strd	r0, [r4, #16]
 308:../../source/src/user/OS_CORE/message_queue.c **** }
 1196              		.loc 1 308 0
 1197 04a4 1846     		mov	r0, r3
 1198 04a6 10BD     		pop	{r4, pc}
 1199              	.LVL183:
 1200              	.L114:
 295:../../source/src/user/OS_CORE/message_queue.c **** #if CONFIG_PARA_CHECK
 1201              		.loc 1 295 0 discriminator 1
 1202 04a8 40F22711 		movw	r1, #295
 1203              	.LVL184:
 1204 04ac 0448     		ldr	r0, .L115
 1205              	.LVL185:
ARM GAS  G:\Users\Jaxb\AppData\Local\Temp\cc2d6zn8.s 			page 31


 1206 04ae FFF7FEFF 		bl	_ASSERT
 1207              	.LVL186:
 299:../../source/src/user/OS_CORE/message_queue.c **** 		return -ERROR_NULL_INPUT_PTR;
 1208              		.loc 1 299 0 discriminator 1
 1209 04b2 0448     		ldr	r0, .L115+4
 1210 04b4 FFF7FEFF 		bl	ka_printf
 1211              	.LVL187:
 300:../../source/src/user/OS_CORE/message_queue.c **** 	}
 1212              		.loc 1 300 0 discriminator 1
 1213 04b8 6FF0FE03 		mvn	r3, #254
 1214              		.loc 1 308 0 discriminator 1
 1215 04bc 1846     		mov	r0, r3
 1216 04be 10BD     		pop	{r4, pc}
 1217              	.LVL188:
 1218              	.L116:
 1219              		.align	2
 1220              	.L115:
 1221 04c0 00000000 		.word	.LC0
 1222 04c4 A0010000 		.word	.LC8
 1223              		.cfi_endproc
 1224              	.LFE18:
 1225              		.size	message_init, .-message_init
 1226              		.section	.rodata.str1.4,"aMS",%progbits,1
 1227              		.align	2
 1228              	.LC0:
 1229 0000 2E2E2F2E 		.ascii	"../../source/src/user/OS_CORE/message_queue.c\000"
 1229      2E2F736F 
 1229      75726365 
 1229      2F737263 
 1229      2F757365 
 1230 002e 0000     		.space	2
 1231              	.LC1:
 1232 0030 6572726F 		.ascii	"error fun name : msg_init\012error para : MQB_ptr\012"
 1232      72206675 
 1232      6E206E61 
 1232      6D65203A 
 1232      206D7367 
 1233 005f 00       		.ascii	"\000"
 1234              	.LC2:
 1235 0060 6572726F 		.ascii	"error fun name : msg_init\012error para : max_messa"
 1235      72206675 
 1235      6E206E61 
 1235      6D65203A 
 1235      206D7367 
 1236 0090 67655F6E 		.ascii	"ge_num\012\000"
 1236      756D0A00 
 1237              	.LC3:
 1238 0098 6572726F 		.ascii	"error fun name : msg_send\012error para : MQB_ptr\012"
 1238      72206675 
 1238      6E206E61 
 1238      6D65203A 
 1238      206D7367 
 1239 00c7 00       		.ascii	"\000"
 1240              	.LC4:
 1241 00c8 6572726F 		.ascii	"error fun name : msg_send\012error para : max_messa"
 1241      72206675 
 1241      6E206E61 
ARM GAS  G:\Users\Jaxb\AppData\Local\Temp\cc2d6zn8.s 			page 32


 1241      6D65203A 
 1241      206D7367 
 1242 00f8 67655F6E 		.ascii	"ge_num\012\000"
 1242      756D0A00 
 1243              	.LC5:
 1244 0100 6572726F 		.ascii	"error fun name : msg_receive\012error para : MQB_pt"
 1244      72206675 
 1244      6E206E61 
 1244      6D65203A 
 1244      206D7367 
 1245 0130 720A00   		.ascii	"r\012\000"
 1246 0133 00       		.space	1
 1247              	.LC6:
 1248 0134 6572726F 		.ascii	"error fun name : msg_receive\012error para : max_me"
 1248      72206675 
 1248      6E206E61 
 1248      6D65203A 
 1248      206D7367 
 1249 0164 73736167 		.ascii	"ssage_num\012\000"
 1249      655F6E75 
 1249      6D0A00
 1250 016f 00       		.space	1
 1251              	.LC7:
 1252 0170 6572726F 		.ascii	"error fun name : msg_del\012error para : MQB_ptr\012"
 1252      72206675 
 1252      6E206E61 
 1252      6D65203A 
 1252      206D7367 
 1253 019e 00       		.ascii	"\000"
 1254 019f 00       		.space	1
 1255              	.LC8:
 1256 01a0 6572726F 		.ascii	"error fun name : message_init\012error para : messa"
 1256      72206675 
 1256      6E206E61 
 1256      6D65203A 
 1256      206D6573 
 1257 01d0 67655F70 		.ascii	"ge_ptr\012\000"
 1257      74720A00 
 1258              		.text
 1259              	.Letext0:
 1260              		.file 3 "../../source/include/os_cpu/kakaosstdint.h"
 1261              		.file 4 "../../source/include/os_lib/insert_sort_oo.h"
 1262              		.file 5 "../../source/include/os_core/message_queue.h"
 1263              		.file 6 "../../source/include/os_core/task_state.h"
 1264              		.file 7 "../../source/include/os_core/TCB.h"
 1265              		.file 8 "../../source/include/os_cpu/os_cpu_stm32.h"
 1266              		.file 9 "../../source/include/os_core/os_time.h"
 1267              		.file 10 "../../source/include/os_lib/myassert.h"
 1268              		.file 11 "../../source/include/os_lib/myMicroLIB.h"
 1269              		.file 12 "../../source/include/os_core/schedule/os_delay.h"
 1270              		.file 13 "../../source/include/os_core/schedule/os_suspend.h"
 1271              		.file 14 "../../source/include/os_core/schedule/os_schedule.h"