ARM GAS  G:\Users\Jaxb\AppData\Local\Temp\ccojrPnU.s 			page 1


   1              		.cpu cortex-m3
   2              		.eabi_attribute 20, 1
   3              		.eabi_attribute 21, 1
   4              		.eabi_attribute 23, 3
   5              		.eabi_attribute 24, 1
   6              		.eabi_attribute 25, 1
   7              		.eabi_attribute 26, 1
   8              		.eabi_attribute 30, 6
   9              		.eabi_attribute 34, 1
  10              		.eabi_attribute 18, 4
  11              		.file	"misc.c"
  12              		.text
  13              	.Ltext0:
  14              		.cfi_sections	.debug_frame
  15              		.align	1
  16              		.global	NVIC_PriorityGroupConfig
  17              		.syntax unified
  18              		.thumb
  19              		.thumb_func
  20              		.fpu softvfp
  21              		.type	NVIC_PriorityGroupConfig, %function
  22              	NVIC_PriorityGroupConfig:
  23              	.LFB29:
  24              		.file 1 "../../source/src/FWlib/src/misc.c"
   1:../../source/src/FWlib/src/misc.c **** /**
   2:../../source/src/FWlib/src/misc.c ****   ******************************************************************************
   3:../../source/src/FWlib/src/misc.c ****   * @file    misc.c
   4:../../source/src/FWlib/src/misc.c ****   * @author  MCD Application Team
   5:../../source/src/FWlib/src/misc.c ****   * @version V3.5.0
   6:../../source/src/FWlib/src/misc.c ****   * @date    11-March-2011
   7:../../source/src/FWlib/src/misc.c ****   * @brief   This file provides all the miscellaneous firmware functions (add-on
   8:../../source/src/FWlib/src/misc.c ****   *          to CMSIS functions).
   9:../../source/src/FWlib/src/misc.c ****   ******************************************************************************
  10:../../source/src/FWlib/src/misc.c ****   * @attention
  11:../../source/src/FWlib/src/misc.c ****   *
  12:../../source/src/FWlib/src/misc.c ****   * THE PRESENT FIRMWARE WHICH IS FOR GUIDANCE ONLY AIMS AT PROVIDING CUSTOMERS
  13:../../source/src/FWlib/src/misc.c ****   * WITH CODING INFORMATION REGARDING THEIR PRODUCTS IN ORDER FOR THEM TO SAVE
  14:../../source/src/FWlib/src/misc.c ****   * TIME. AS A RESULT, STMICROELECTRONICS SHALL NOT BE HELD LIABLE FOR ANY
  15:../../source/src/FWlib/src/misc.c ****   * DIRECT, INDIRECT OR CONSEQUENTIAL DAMAGES WITH RESPECT TO ANY CLAIMS ARISING
  16:../../source/src/FWlib/src/misc.c ****   * FROM THE CONTENT OF SUCH FIRMWARE AND/OR THE USE MADE BY CUSTOMERS OF THE
  17:../../source/src/FWlib/src/misc.c ****   * CODING INFORMATION CONTAINED HEREIN IN CONNECTION WITH THEIR PRODUCTS.
  18:../../source/src/FWlib/src/misc.c ****   *
  19:../../source/src/FWlib/src/misc.c ****   * <h2><center>&copy; COPYRIGHT 2011 STMicroelectronics</center></h2>
  20:../../source/src/FWlib/src/misc.c ****   ******************************************************************************
  21:../../source/src/FWlib/src/misc.c ****   */
  22:../../source/src/FWlib/src/misc.c **** 
  23:../../source/src/FWlib/src/misc.c **** /* Includes ------------------------------------------------------------------*/
  24:../../source/src/FWlib/src/misc.c **** #include "misc.h"
  25:../../source/src/FWlib/src/misc.c **** 
  26:../../source/src/FWlib/src/misc.c **** /** @addtogroup STM32F10x_StdPeriph_Driver
  27:../../source/src/FWlib/src/misc.c ****   * @{
  28:../../source/src/FWlib/src/misc.c ****   */
  29:../../source/src/FWlib/src/misc.c **** 
  30:../../source/src/FWlib/src/misc.c **** /** @defgroup MISC 
  31:../../source/src/FWlib/src/misc.c ****   * @brief MISC driver modules
  32:../../source/src/FWlib/src/misc.c ****   * @{
  33:../../source/src/FWlib/src/misc.c ****   */
ARM GAS  G:\Users\Jaxb\AppData\Local\Temp\ccojrPnU.s 			page 2


  34:../../source/src/FWlib/src/misc.c **** 
  35:../../source/src/FWlib/src/misc.c **** /** @defgroup MISC_Private_TypesDefinitions
  36:../../source/src/FWlib/src/misc.c ****   * @{
  37:../../source/src/FWlib/src/misc.c ****   */
  38:../../source/src/FWlib/src/misc.c **** 
  39:../../source/src/FWlib/src/misc.c **** /**
  40:../../source/src/FWlib/src/misc.c ****   * @}
  41:../../source/src/FWlib/src/misc.c ****   */ 
  42:../../source/src/FWlib/src/misc.c **** 
  43:../../source/src/FWlib/src/misc.c **** /** @defgroup MISC_Private_Defines
  44:../../source/src/FWlib/src/misc.c ****   * @{
  45:../../source/src/FWlib/src/misc.c ****   */
  46:../../source/src/FWlib/src/misc.c **** 
  47:../../source/src/FWlib/src/misc.c **** #define AIRCR_VECTKEY_MASK    ((uint32_t)0x05FA0000)
  48:../../source/src/FWlib/src/misc.c **** /**
  49:../../source/src/FWlib/src/misc.c ****   * @}
  50:../../source/src/FWlib/src/misc.c ****   */
  51:../../source/src/FWlib/src/misc.c **** 
  52:../../source/src/FWlib/src/misc.c **** /** @defgroup MISC_Private_Macros
  53:../../source/src/FWlib/src/misc.c ****   * @{
  54:../../source/src/FWlib/src/misc.c ****   */
  55:../../source/src/FWlib/src/misc.c **** 
  56:../../source/src/FWlib/src/misc.c **** /**
  57:../../source/src/FWlib/src/misc.c ****   * @}
  58:../../source/src/FWlib/src/misc.c ****   */
  59:../../source/src/FWlib/src/misc.c **** 
  60:../../source/src/FWlib/src/misc.c **** /** @defgroup MISC_Private_Variables
  61:../../source/src/FWlib/src/misc.c ****   * @{
  62:../../source/src/FWlib/src/misc.c ****   */
  63:../../source/src/FWlib/src/misc.c **** 
  64:../../source/src/FWlib/src/misc.c **** /**
  65:../../source/src/FWlib/src/misc.c ****   * @}
  66:../../source/src/FWlib/src/misc.c ****   */
  67:../../source/src/FWlib/src/misc.c **** 
  68:../../source/src/FWlib/src/misc.c **** /** @defgroup MISC_Private_FunctionPrototypes
  69:../../source/src/FWlib/src/misc.c ****   * @{
  70:../../source/src/FWlib/src/misc.c ****   */
  71:../../source/src/FWlib/src/misc.c **** 
  72:../../source/src/FWlib/src/misc.c **** /**
  73:../../source/src/FWlib/src/misc.c ****   * @}
  74:../../source/src/FWlib/src/misc.c ****   */
  75:../../source/src/FWlib/src/misc.c **** 
  76:../../source/src/FWlib/src/misc.c **** /** @defgroup MISC_Private_Functions
  77:../../source/src/FWlib/src/misc.c ****   * @{
  78:../../source/src/FWlib/src/misc.c ****   */
  79:../../source/src/FWlib/src/misc.c **** 
  80:../../source/src/FWlib/src/misc.c **** /**
  81:../../source/src/FWlib/src/misc.c ****   * @brief  Configures the priority grouping: pre-emption priority and subpriority.
  82:../../source/src/FWlib/src/misc.c ****   * @param  NVIC_PriorityGroup: specifies the priority grouping bits length. 
  83:../../source/src/FWlib/src/misc.c ****   *   This parameter can be one of the following values:
  84:../../source/src/FWlib/src/misc.c ****   *     @arg NVIC_PriorityGroup_0: 0 bits for pre-emption priority
  85:../../source/src/FWlib/src/misc.c ****   *                                4 bits for subpriority
  86:../../source/src/FWlib/src/misc.c ****   *     @arg NVIC_PriorityGroup_1: 1 bits for pre-emption priority
  87:../../source/src/FWlib/src/misc.c ****   *                                3 bits for subpriority
  88:../../source/src/FWlib/src/misc.c ****   *     @arg NVIC_PriorityGroup_2: 2 bits for pre-emption priority
  89:../../source/src/FWlib/src/misc.c ****   *                                2 bits for subpriority
  90:../../source/src/FWlib/src/misc.c ****   *     @arg NVIC_PriorityGroup_3: 3 bits for pre-emption priority
ARM GAS  G:\Users\Jaxb\AppData\Local\Temp\ccojrPnU.s 			page 3


  91:../../source/src/FWlib/src/misc.c ****   *                                1 bits for subpriority
  92:../../source/src/FWlib/src/misc.c ****   *     @arg NVIC_PriorityGroup_4: 4 bits for pre-emption priority
  93:../../source/src/FWlib/src/misc.c ****   *                                0 bits for subpriority
  94:../../source/src/FWlib/src/misc.c ****   * @retval None
  95:../../source/src/FWlib/src/misc.c ****   */
  96:../../source/src/FWlib/src/misc.c **** void NVIC_PriorityGroupConfig(uint32_t NVIC_PriorityGroup)
  97:../../source/src/FWlib/src/misc.c **** {
  25              		.loc 1 97 0
  26              		.cfi_startproc
  27              		@ args = 0, pretend = 0, frame = 8
  28              		@ frame_needed = 1, uses_anonymous_args = 0
  29              		@ link register save eliminated.
  30 0000 80B4     		push	{r7}
  31              	.LCFI0:
  32              		.cfi_def_cfa_offset 4
  33              		.cfi_offset 7, -4
  34 0002 83B0     		sub	sp, sp, #12
  35              	.LCFI1:
  36              		.cfi_def_cfa_offset 16
  37 0004 00AF     		add	r7, sp, #0
  38              	.LCFI2:
  39              		.cfi_def_cfa_register 7
  40 0006 7860     		str	r0, [r7, #4]
  98:../../source/src/FWlib/src/misc.c ****   /* Check the parameters */
  99:../../source/src/FWlib/src/misc.c ****   assert_param(IS_NVIC_PRIORITY_GROUP(NVIC_PriorityGroup));
 100:../../source/src/FWlib/src/misc.c ****   
 101:../../source/src/FWlib/src/misc.c ****   /* Set the PRIGROUP[10:8] bits according to NVIC_PriorityGroup value */
 102:../../source/src/FWlib/src/misc.c ****   SCB->AIRCR = AIRCR_VECTKEY_MASK | NVIC_PriorityGroup;
  41              		.loc 1 102 0
  42 0008 054A     		ldr	r2, .L2
  43 000a 7B68     		ldr	r3, [r7, #4]
  44 000c 43F0BF63 		orr	r3, r3, #100139008
  45 0010 43F40033 		orr	r3, r3, #131072
  46 0014 D360     		str	r3, [r2, #12]
 103:../../source/src/FWlib/src/misc.c **** }
  47              		.loc 1 103 0
  48 0016 00BF     		nop
  49 0018 0C37     		adds	r7, r7, #12
  50              	.LCFI3:
  51              		.cfi_def_cfa_offset 4
  52 001a BD46     		mov	sp, r7
  53              	.LCFI4:
  54              		.cfi_def_cfa_register 13
  55              		@ sp needed
  56 001c 80BC     		pop	{r7}
  57              	.LCFI5:
  58              		.cfi_restore 7
  59              		.cfi_def_cfa_offset 0
  60 001e 7047     		bx	lr
  61              	.L3:
  62              		.align	2
  63              	.L2:
  64 0020 00ED00E0 		.word	-536810240
  65              		.cfi_endproc
  66              	.LFE29:
  67              		.size	NVIC_PriorityGroupConfig, .-NVIC_PriorityGroupConfig
  68              		.align	1
ARM GAS  G:\Users\Jaxb\AppData\Local\Temp\ccojrPnU.s 			page 4


  69              		.global	NVIC_Init
  70              		.syntax unified
  71              		.thumb
  72              		.thumb_func
  73              		.fpu softvfp
  74              		.type	NVIC_Init, %function
  75              	NVIC_Init:
  76              	.LFB30:
 104:../../source/src/FWlib/src/misc.c **** 
 105:../../source/src/FWlib/src/misc.c **** /**
 106:../../source/src/FWlib/src/misc.c ****   * @brief  Initializes the NVIC peripheral according to the specified
 107:../../source/src/FWlib/src/misc.c ****   *         parameters in the NVIC_InitStruct.
 108:../../source/src/FWlib/src/misc.c ****   * @param  NVIC_InitStruct: pointer to a NVIC_InitTypeDef structure that contains
 109:../../source/src/FWlib/src/misc.c ****   *         the configuration information for the specified NVIC peripheral.
 110:../../source/src/FWlib/src/misc.c ****   * @retval None
 111:../../source/src/FWlib/src/misc.c ****   */
 112:../../source/src/FWlib/src/misc.c **** void NVIC_Init(NVIC_InitTypeDef* NVIC_InitStruct)
 113:../../source/src/FWlib/src/misc.c **** {
  77              		.loc 1 113 0
  78              		.cfi_startproc
  79              		@ args = 0, pretend = 0, frame = 24
  80              		@ frame_needed = 1, uses_anonymous_args = 0
  81              		@ link register save eliminated.
  82 0024 80B4     		push	{r7}
  83              	.LCFI6:
  84              		.cfi_def_cfa_offset 4
  85              		.cfi_offset 7, -4
  86 0026 87B0     		sub	sp, sp, #28
  87              	.LCFI7:
  88              		.cfi_def_cfa_offset 32
  89 0028 00AF     		add	r7, sp, #0
  90              	.LCFI8:
  91              		.cfi_def_cfa_register 7
  92 002a 7860     		str	r0, [r7, #4]
 114:../../source/src/FWlib/src/misc.c ****   uint32_t tmppriority = 0x00, tmppre = 0x00, tmpsub = 0x0F;
  93              		.loc 1 114 0
  94 002c 0023     		movs	r3, #0
  95 002e 7B61     		str	r3, [r7, #20]
  96 0030 0023     		movs	r3, #0
  97 0032 3B61     		str	r3, [r7, #16]
  98 0034 0F23     		movs	r3, #15
  99 0036 FB60     		str	r3, [r7, #12]
 115:../../source/src/FWlib/src/misc.c ****   
 116:../../source/src/FWlib/src/misc.c ****   /* Check the parameters */
 117:../../source/src/FWlib/src/misc.c ****   assert_param(IS_FUNCTIONAL_STATE(NVIC_InitStruct->NVIC_IRQChannelCmd));
 118:../../source/src/FWlib/src/misc.c ****   assert_param(IS_NVIC_PREEMPTION_PRIORITY(NVIC_InitStruct->NVIC_IRQChannelPreemptionPriority));  
 119:../../source/src/FWlib/src/misc.c ****   assert_param(IS_NVIC_SUB_PRIORITY(NVIC_InitStruct->NVIC_IRQChannelSubPriority));
 120:../../source/src/FWlib/src/misc.c ****     
 121:../../source/src/FWlib/src/misc.c ****   if (NVIC_InitStruct->NVIC_IRQChannelCmd != DISABLE)
 100              		.loc 1 121 0
 101 0038 7B68     		ldr	r3, [r7, #4]
 102 003a DB78     		ldrb	r3, [r3, #3]	@ zero_extendqisi2
 103 003c 002B     		cmp	r3, #0
 104 003e 3AD0     		beq	.L5
 122:../../source/src/FWlib/src/misc.c ****   {
 123:../../source/src/FWlib/src/misc.c ****     /* Compute the Corresponding IRQ Priority --------------------------------*/    
 124:../../source/src/FWlib/src/misc.c ****     tmppriority = (0x700 - ((SCB->AIRCR) & (uint32_t)0x700))>> 0x08;
ARM GAS  G:\Users\Jaxb\AppData\Local\Temp\ccojrPnU.s 			page 5


 105              		.loc 1 124 0
 106 0040 274B     		ldr	r3, .L8
 107 0042 DB68     		ldr	r3, [r3, #12]
 108 0044 DB43     		mvns	r3, r3
 109 0046 1B0A     		lsrs	r3, r3, #8
 110 0048 03F00703 		and	r3, r3, #7
 111 004c 7B61     		str	r3, [r7, #20]
 125:../../source/src/FWlib/src/misc.c ****     tmppre = (0x4 - tmppriority);
 112              		.loc 1 125 0
 113 004e 7B69     		ldr	r3, [r7, #20]
 114 0050 C3F10403 		rsb	r3, r3, #4
 115 0054 3B61     		str	r3, [r7, #16]
 126:../../source/src/FWlib/src/misc.c ****     tmpsub = tmpsub >> tmppriority;
 116              		.loc 1 126 0
 117 0056 FA68     		ldr	r2, [r7, #12]
 118 0058 7B69     		ldr	r3, [r7, #20]
 119 005a 22FA03F3 		lsr	r3, r2, r3
 120 005e FB60     		str	r3, [r7, #12]
 127:../../source/src/FWlib/src/misc.c **** 
 128:../../source/src/FWlib/src/misc.c ****     tmppriority = (uint32_t)NVIC_InitStruct->NVIC_IRQChannelPreemptionPriority << tmppre;
 121              		.loc 1 128 0
 122 0060 7B68     		ldr	r3, [r7, #4]
 123 0062 5B78     		ldrb	r3, [r3, #1]	@ zero_extendqisi2
 124 0064 1A46     		mov	r2, r3
 125 0066 3B69     		ldr	r3, [r7, #16]
 126 0068 02FA03F3 		lsl	r3, r2, r3
 127 006c 7B61     		str	r3, [r7, #20]
 129:../../source/src/FWlib/src/misc.c ****     tmppriority |=  NVIC_InitStruct->NVIC_IRQChannelSubPriority & tmpsub;
 128              		.loc 1 129 0
 129 006e 7B68     		ldr	r3, [r7, #4]
 130 0070 9B78     		ldrb	r3, [r3, #2]	@ zero_extendqisi2
 131 0072 1A46     		mov	r2, r3
 132 0074 FB68     		ldr	r3, [r7, #12]
 133 0076 1340     		ands	r3, r3, r2
 134 0078 7A69     		ldr	r2, [r7, #20]
 135 007a 1343     		orrs	r3, r3, r2
 136 007c 7B61     		str	r3, [r7, #20]
 130:../../source/src/FWlib/src/misc.c ****     tmppriority = tmppriority << 0x04;
 137              		.loc 1 130 0
 138 007e 7B69     		ldr	r3, [r7, #20]
 139 0080 1B01     		lsls	r3, r3, #4
 140 0082 7B61     		str	r3, [r7, #20]
 131:../../source/src/FWlib/src/misc.c ****         
 132:../../source/src/FWlib/src/misc.c ****     NVIC->IP[NVIC_InitStruct->NVIC_IRQChannel] = tmppriority;
 141              		.loc 1 132 0
 142 0084 174A     		ldr	r2, .L8+4
 143 0086 7B68     		ldr	r3, [r7, #4]
 144 0088 1B78     		ldrb	r3, [r3]	@ zero_extendqisi2
 145 008a 7969     		ldr	r1, [r7, #20]
 146 008c C9B2     		uxtb	r1, r1
 147 008e 1344     		add	r3, r3, r2
 148 0090 0A46     		mov	r2, r1
 149 0092 83F80023 		strb	r2, [r3, #768]
 133:../../source/src/FWlib/src/misc.c ****     
 134:../../source/src/FWlib/src/misc.c ****     /* Enable the Selected IRQ Channels --------------------------------------*/
 135:../../source/src/FWlib/src/misc.c ****     NVIC->ISER[NVIC_InitStruct->NVIC_IRQChannel >> 0x05] =
 136:../../source/src/FWlib/src/misc.c ****       (uint32_t)0x01 << (NVIC_InitStruct->NVIC_IRQChannel & (uint8_t)0x1F);
ARM GAS  G:\Users\Jaxb\AppData\Local\Temp\ccojrPnU.s 			page 6


 150              		.loc 1 136 0
 151 0096 7B68     		ldr	r3, [r7, #4]
 152 0098 1B78     		ldrb	r3, [r3]	@ zero_extendqisi2
 153 009a 03F01F03 		and	r3, r3, #31
 135:../../source/src/FWlib/src/misc.c ****       (uint32_t)0x01 << (NVIC_InitStruct->NVIC_IRQChannel & (uint8_t)0x1F);
 154              		.loc 1 135 0
 155 009e 1149     		ldr	r1, .L8+4
 156 00a0 7A68     		ldr	r2, [r7, #4]
 157 00a2 1278     		ldrb	r2, [r2]	@ zero_extendqisi2
 158 00a4 5209     		lsrs	r2, r2, #5
 159 00a6 D2B2     		uxtb	r2, r2
 160 00a8 1046     		mov	r0, r2
 161              		.loc 1 136 0
 162 00aa 0122     		movs	r2, #1
 163 00ac 02FA03F3 		lsl	r3, r2, r3
 135:../../source/src/FWlib/src/misc.c ****       (uint32_t)0x01 << (NVIC_InitStruct->NVIC_IRQChannel & (uint8_t)0x1F);
 164              		.loc 1 135 0
 165 00b0 41F82030 		str	r3, [r1, r0, lsl #2]
 137:../../source/src/FWlib/src/misc.c ****   }
 138:../../source/src/FWlib/src/misc.c ****   else
 139:../../source/src/FWlib/src/misc.c ****   {
 140:../../source/src/FWlib/src/misc.c ****     /* Disable the Selected IRQ Channels -------------------------------------*/
 141:../../source/src/FWlib/src/misc.c ****     NVIC->ICER[NVIC_InitStruct->NVIC_IRQChannel >> 0x05] =
 142:../../source/src/FWlib/src/misc.c ****       (uint32_t)0x01 << (NVIC_InitStruct->NVIC_IRQChannel & (uint8_t)0x1F);
 143:../../source/src/FWlib/src/misc.c ****   }
 144:../../source/src/FWlib/src/misc.c **** }
 166              		.loc 1 144 0
 167 00b4 0FE0     		b	.L7
 168              	.L5:
 142:../../source/src/FWlib/src/misc.c ****   }
 169              		.loc 1 142 0
 170 00b6 7B68     		ldr	r3, [r7, #4]
 171 00b8 1B78     		ldrb	r3, [r3]	@ zero_extendqisi2
 172 00ba 03F01F03 		and	r3, r3, #31
 141:../../source/src/FWlib/src/misc.c ****       (uint32_t)0x01 << (NVIC_InitStruct->NVIC_IRQChannel & (uint8_t)0x1F);
 173              		.loc 1 141 0
 174 00be 0949     		ldr	r1, .L8+4
 175 00c0 7A68     		ldr	r2, [r7, #4]
 176 00c2 1278     		ldrb	r2, [r2]	@ zero_extendqisi2
 177 00c4 5209     		lsrs	r2, r2, #5
 178 00c6 D2B2     		uxtb	r2, r2
 179 00c8 1046     		mov	r0, r2
 142:../../source/src/FWlib/src/misc.c ****   }
 180              		.loc 1 142 0
 181 00ca 0122     		movs	r2, #1
 182 00cc 9A40     		lsls	r2, r2, r3
 141:../../source/src/FWlib/src/misc.c ****       (uint32_t)0x01 << (NVIC_InitStruct->NVIC_IRQChannel & (uint8_t)0x1F);
 183              		.loc 1 141 0
 184 00ce 00F12003 		add	r3, r0, #32
 185 00d2 41F82320 		str	r2, [r1, r3, lsl #2]
 186              	.L7:
 187              		.loc 1 144 0
 188 00d6 00BF     		nop
 189 00d8 1C37     		adds	r7, r7, #28
 190              	.LCFI9:
 191              		.cfi_def_cfa_offset 4
 192 00da BD46     		mov	sp, r7
ARM GAS  G:\Users\Jaxb\AppData\Local\Temp\ccojrPnU.s 			page 7


 193              	.LCFI10:
 194              		.cfi_def_cfa_register 13
 195              		@ sp needed
 196 00dc 80BC     		pop	{r7}
 197              	.LCFI11:
 198              		.cfi_restore 7
 199              		.cfi_def_cfa_offset 0
 200 00de 7047     		bx	lr
 201              	.L9:
 202              		.align	2
 203              	.L8:
 204 00e0 00ED00E0 		.word	-536810240
 205 00e4 00E100E0 		.word	-536813312
 206              		.cfi_endproc
 207              	.LFE30:
 208              		.size	NVIC_Init, .-NVIC_Init
 209              		.align	1
 210              		.global	NVIC_SetVectorTable
 211              		.syntax unified
 212              		.thumb
 213              		.thumb_func
 214              		.fpu softvfp
 215              		.type	NVIC_SetVectorTable, %function
 216              	NVIC_SetVectorTable:
 217              	.LFB31:
 145:../../source/src/FWlib/src/misc.c **** 
 146:../../source/src/FWlib/src/misc.c **** /**
 147:../../source/src/FWlib/src/misc.c ****   * @brief  Sets the vector table location and Offset.
 148:../../source/src/FWlib/src/misc.c ****   * @param  NVIC_VectTab: specifies if the vector table is in RAM or FLASH memory.
 149:../../source/src/FWlib/src/misc.c ****   *   This parameter can be one of the following values:
 150:../../source/src/FWlib/src/misc.c ****   *     @arg NVIC_VectTab_RAM
 151:../../source/src/FWlib/src/misc.c ****   *     @arg NVIC_VectTab_FLASH
 152:../../source/src/FWlib/src/misc.c ****   * @param  Offset: Vector Table base offset field. This value must be a multiple 
 153:../../source/src/FWlib/src/misc.c ****   *         of 0x200.
 154:../../source/src/FWlib/src/misc.c ****   * @retval None
 155:../../source/src/FWlib/src/misc.c ****   */
 156:../../source/src/FWlib/src/misc.c **** void NVIC_SetVectorTable(uint32_t NVIC_VectTab, uint32_t Offset)
 157:../../source/src/FWlib/src/misc.c **** { 
 218              		.loc 1 157 0
 219              		.cfi_startproc
 220              		@ args = 0, pretend = 0, frame = 8
 221              		@ frame_needed = 1, uses_anonymous_args = 0
 222              		@ link register save eliminated.
 223 00e8 80B4     		push	{r7}
 224              	.LCFI12:
 225              		.cfi_def_cfa_offset 4
 226              		.cfi_offset 7, -4
 227 00ea 83B0     		sub	sp, sp, #12
 228              	.LCFI13:
 229              		.cfi_def_cfa_offset 16
 230 00ec 00AF     		add	r7, sp, #0
 231              	.LCFI14:
 232              		.cfi_def_cfa_register 7
 233 00ee 7860     		str	r0, [r7, #4]
 234 00f0 3960     		str	r1, [r7]
 158:../../source/src/FWlib/src/misc.c ****   /* Check the parameters */
 159:../../source/src/FWlib/src/misc.c ****   assert_param(IS_NVIC_VECTTAB(NVIC_VectTab));
ARM GAS  G:\Users\Jaxb\AppData\Local\Temp\ccojrPnU.s 			page 8


 160:../../source/src/FWlib/src/misc.c ****   assert_param(IS_NVIC_OFFSET(Offset));  
 161:../../source/src/FWlib/src/misc.c ****    
 162:../../source/src/FWlib/src/misc.c ****   SCB->VTOR = NVIC_VectTab | (Offset & (uint32_t)0x1FFFFF80);
 235              		.loc 1 162 0
 236 00f2 3B68     		ldr	r3, [r7]
 237 00f4 23F06043 		bic	r3, r3, #-536870912
 238 00f8 23F07F03 		bic	r3, r3, #127
 239 00fc 0449     		ldr	r1, .L11
 240 00fe 7A68     		ldr	r2, [r7, #4]
 241 0100 1343     		orrs	r3, r3, r2
 242 0102 8B60     		str	r3, [r1, #8]
 163:../../source/src/FWlib/src/misc.c **** }
 243              		.loc 1 163 0
 244 0104 00BF     		nop
 245 0106 0C37     		adds	r7, r7, #12
 246              	.LCFI15:
 247              		.cfi_def_cfa_offset 4
 248 0108 BD46     		mov	sp, r7
 249              	.LCFI16:
 250              		.cfi_def_cfa_register 13
 251              		@ sp needed
 252 010a 80BC     		pop	{r7}
 253              	.LCFI17:
 254              		.cfi_restore 7
 255              		.cfi_def_cfa_offset 0
 256 010c 7047     		bx	lr
 257              	.L12:
 258 010e 00BF     		.align	2
 259              	.L11:
 260 0110 00ED00E0 		.word	-536810240
 261              		.cfi_endproc
 262              	.LFE31:
 263              		.size	NVIC_SetVectorTable, .-NVIC_SetVectorTable
 264              		.align	1
 265              		.global	NVIC_SystemLPConfig
 266              		.syntax unified
 267              		.thumb
 268              		.thumb_func
 269              		.fpu softvfp
 270              		.type	NVIC_SystemLPConfig, %function
 271              	NVIC_SystemLPConfig:
 272              	.LFB32:
 164:../../source/src/FWlib/src/misc.c **** 
 165:../../source/src/FWlib/src/misc.c **** /**
 166:../../source/src/FWlib/src/misc.c ****   * @brief  Selects the condition for the system to enter low power mode.
 167:../../source/src/FWlib/src/misc.c ****   * @param  LowPowerMode: Specifies the new mode for the system to enter low power mode.
 168:../../source/src/FWlib/src/misc.c ****   *   This parameter can be one of the following values:
 169:../../source/src/FWlib/src/misc.c ****   *     @arg NVIC_LP_SEVONPEND
 170:../../source/src/FWlib/src/misc.c ****   *     @arg NVIC_LP_SLEEPDEEP
 171:../../source/src/FWlib/src/misc.c ****   *     @arg NVIC_LP_SLEEPONEXIT
 172:../../source/src/FWlib/src/misc.c ****   * @param  NewState: new state of LP condition. This parameter can be: ENABLE or DISABLE.
 173:../../source/src/FWlib/src/misc.c ****   * @retval None
 174:../../source/src/FWlib/src/misc.c ****   */
 175:../../source/src/FWlib/src/misc.c **** void NVIC_SystemLPConfig(uint8_t LowPowerMode, FunctionalState NewState)
 176:../../source/src/FWlib/src/misc.c **** {
 273              		.loc 1 176 0
 274              		.cfi_startproc
ARM GAS  G:\Users\Jaxb\AppData\Local\Temp\ccojrPnU.s 			page 9


 275              		@ args = 0, pretend = 0, frame = 8
 276              		@ frame_needed = 1, uses_anonymous_args = 0
 277              		@ link register save eliminated.
 278 0114 80B4     		push	{r7}
 279              	.LCFI18:
 280              		.cfi_def_cfa_offset 4
 281              		.cfi_offset 7, -4
 282 0116 83B0     		sub	sp, sp, #12
 283              	.LCFI19:
 284              		.cfi_def_cfa_offset 16
 285 0118 00AF     		add	r7, sp, #0
 286              	.LCFI20:
 287              		.cfi_def_cfa_register 7
 288 011a 0346     		mov	r3, r0
 289 011c 0A46     		mov	r2, r1
 290 011e FB71     		strb	r3, [r7, #7]
 291 0120 1346     		mov	r3, r2
 292 0122 BB71     		strb	r3, [r7, #6]
 177:../../source/src/FWlib/src/misc.c ****   /* Check the parameters */
 178:../../source/src/FWlib/src/misc.c ****   assert_param(IS_NVIC_LP(LowPowerMode));
 179:../../source/src/FWlib/src/misc.c ****   assert_param(IS_FUNCTIONAL_STATE(NewState));  
 180:../../source/src/FWlib/src/misc.c ****   
 181:../../source/src/FWlib/src/misc.c ****   if (NewState != DISABLE)
 293              		.loc 1 181 0
 294 0124 BB79     		ldrb	r3, [r7, #6]	@ zero_extendqisi2
 295 0126 002B     		cmp	r3, #0
 296 0128 06D0     		beq	.L14
 182:../../source/src/FWlib/src/misc.c ****   {
 183:../../source/src/FWlib/src/misc.c ****     SCB->SCR |= LowPowerMode;
 297              		.loc 1 183 0
 298 012a 094B     		ldr	r3, .L17
 299 012c 1A69     		ldr	r2, [r3, #16]
 300 012e FB79     		ldrb	r3, [r7, #7]	@ zero_extendqisi2
 301 0130 0749     		ldr	r1, .L17
 302 0132 1343     		orrs	r3, r3, r2
 303 0134 0B61     		str	r3, [r1, #16]
 184:../../source/src/FWlib/src/misc.c ****   }
 185:../../source/src/FWlib/src/misc.c ****   else
 186:../../source/src/FWlib/src/misc.c ****   {
 187:../../source/src/FWlib/src/misc.c ****     SCB->SCR &= (uint32_t)(~(uint32_t)LowPowerMode);
 188:../../source/src/FWlib/src/misc.c ****   }
 189:../../source/src/FWlib/src/misc.c **** }
 304              		.loc 1 189 0
 305 0136 06E0     		b	.L16
 306              	.L14:
 187:../../source/src/FWlib/src/misc.c ****   }
 307              		.loc 1 187 0
 308 0138 054B     		ldr	r3, .L17
 309 013a 1A69     		ldr	r2, [r3, #16]
 310 013c FB79     		ldrb	r3, [r7, #7]	@ zero_extendqisi2
 311 013e DB43     		mvns	r3, r3
 312 0140 0349     		ldr	r1, .L17
 313 0142 1340     		ands	r3, r3, r2
 314 0144 0B61     		str	r3, [r1, #16]
 315              	.L16:
 316              		.loc 1 189 0
 317 0146 00BF     		nop
ARM GAS  G:\Users\Jaxb\AppData\Local\Temp\ccojrPnU.s 			page 10


 318 0148 0C37     		adds	r7, r7, #12
 319              	.LCFI21:
 320              		.cfi_def_cfa_offset 4
 321 014a BD46     		mov	sp, r7
 322              	.LCFI22:
 323              		.cfi_def_cfa_register 13
 324              		@ sp needed
 325 014c 80BC     		pop	{r7}
 326              	.LCFI23:
 327              		.cfi_restore 7
 328              		.cfi_def_cfa_offset 0
 329 014e 7047     		bx	lr
 330              	.L18:
 331              		.align	2
 332              	.L17:
 333 0150 00ED00E0 		.word	-536810240
 334              		.cfi_endproc
 335              	.LFE32:
 336              		.size	NVIC_SystemLPConfig, .-NVIC_SystemLPConfig
 337              		.align	1
 338              		.global	SysTick_CLKSourceConfig
 339              		.syntax unified
 340              		.thumb
 341              		.thumb_func
 342              		.fpu softvfp
 343              		.type	SysTick_CLKSourceConfig, %function
 344              	SysTick_CLKSourceConfig:
 345              	.LFB33:
 190:../../source/src/FWlib/src/misc.c **** 
 191:../../source/src/FWlib/src/misc.c **** /**
 192:../../source/src/FWlib/src/misc.c ****   * @brief  Configures the SysTick clock source.
 193:../../source/src/FWlib/src/misc.c ****   * @param  SysTick_CLKSource: specifies the SysTick clock source.
 194:../../source/src/FWlib/src/misc.c ****   *   This parameter can be one of the following values:
 195:../../source/src/FWlib/src/misc.c ****   *     @arg SysTick_CLKSource_HCLK_Div8: AHB clock divided by 8 selected as SysTick clock source.
 196:../../source/src/FWlib/src/misc.c ****   *     @arg SysTick_CLKSource_HCLK: AHB clock selected as SysTick clock source.
 197:../../source/src/FWlib/src/misc.c ****   * @retval None
 198:../../source/src/FWlib/src/misc.c ****   */
 199:../../source/src/FWlib/src/misc.c **** void SysTick_CLKSourceConfig(uint32_t SysTick_CLKSource)
 200:../../source/src/FWlib/src/misc.c **** {
 346              		.loc 1 200 0
 347              		.cfi_startproc
 348              		@ args = 0, pretend = 0, frame = 8
 349              		@ frame_needed = 1, uses_anonymous_args = 0
 350              		@ link register save eliminated.
 351 0154 80B4     		push	{r7}
 352              	.LCFI24:
 353              		.cfi_def_cfa_offset 4
 354              		.cfi_offset 7, -4
 355 0156 83B0     		sub	sp, sp, #12
 356              	.LCFI25:
 357              		.cfi_def_cfa_offset 16
 358 0158 00AF     		add	r7, sp, #0
 359              	.LCFI26:
 360              		.cfi_def_cfa_register 7
 361 015a 7860     		str	r0, [r7, #4]
 201:../../source/src/FWlib/src/misc.c ****   /* Check the parameters */
 202:../../source/src/FWlib/src/misc.c ****   assert_param(IS_SYSTICK_CLK_SOURCE(SysTick_CLKSource));
ARM GAS  G:\Users\Jaxb\AppData\Local\Temp\ccojrPnU.s 			page 11


 203:../../source/src/FWlib/src/misc.c ****   if (SysTick_CLKSource == SysTick_CLKSource_HCLK)
 362              		.loc 1 203 0
 363 015c 7B68     		ldr	r3, [r7, #4]
 364 015e 042B     		cmp	r3, #4
 365 0160 06D1     		bne	.L20
 204:../../source/src/FWlib/src/misc.c ****   {
 205:../../source/src/FWlib/src/misc.c ****     SysTick->CTRL |= SysTick_CLKSource_HCLK;
 366              		.loc 1 205 0
 367 0162 094B     		ldr	r3, .L23
 368 0164 1B68     		ldr	r3, [r3]
 369 0166 084A     		ldr	r2, .L23
 370 0168 43F00403 		orr	r3, r3, #4
 371 016c 1360     		str	r3, [r2]
 206:../../source/src/FWlib/src/misc.c ****   }
 207:../../source/src/FWlib/src/misc.c ****   else
 208:../../source/src/FWlib/src/misc.c ****   {
 209:../../source/src/FWlib/src/misc.c ****     SysTick->CTRL &= SysTick_CLKSource_HCLK_Div8;
 210:../../source/src/FWlib/src/misc.c ****   }
 211:../../source/src/FWlib/src/misc.c **** }
 372              		.loc 1 211 0
 373 016e 05E0     		b	.L22
 374              	.L20:
 209:../../source/src/FWlib/src/misc.c ****   }
 375              		.loc 1 209 0
 376 0170 054B     		ldr	r3, .L23
 377 0172 1B68     		ldr	r3, [r3]
 378 0174 044A     		ldr	r2, .L23
 379 0176 23F00403 		bic	r3, r3, #4
 380 017a 1360     		str	r3, [r2]
 381              	.L22:
 382              		.loc 1 211 0
 383 017c 00BF     		nop
 384 017e 0C37     		adds	r7, r7, #12
 385              	.LCFI27:
 386              		.cfi_def_cfa_offset 4
 387 0180 BD46     		mov	sp, r7
 388              	.LCFI28:
 389              		.cfi_def_cfa_register 13
 390              		@ sp needed
 391 0182 80BC     		pop	{r7}
 392              	.LCFI29:
 393              		.cfi_restore 7
 394              		.cfi_def_cfa_offset 0
 395 0184 7047     		bx	lr
 396              	.L24:
 397 0186 00BF     		.align	2
 398              	.L23:
 399 0188 10E000E0 		.word	-536813552
 400              		.cfi_endproc
 401              	.LFE33:
 402              		.size	SysTick_CLKSourceConfig, .-SysTick_CLKSourceConfig
 403              	.Letext0:
 404              		.file 2 "f:\\arm\\gcc2018\\arm-none-eabi\\include\\machine\\_default_types.h"
 405              		.file 3 "f:\\arm\\gcc2018\\arm-none-eabi\\include\\sys\\_stdint.h"
 406              		.file 4 "../../source/include/core_cm3.h"
 407              		.file 5 "../../source/include/system_stm32f10x.h"
 408              		.file 6 "../../source/include/stm32f10x.h"
ARM GAS  G:\Users\Jaxb\AppData\Local\Temp\ccojrPnU.s 			page 12


 409              		.file 7 "../../source/src/FWlib/inc/misc.h"
 410              		.section	.debug_info,"",%progbits
 411              	.Ldebug_info0:
 412 0000 4E050000 		.4byte	0x54e
 413 0004 0200     		.2byte	0x2
 414 0006 00000000 		.4byte	.Ldebug_abbrev0
 415 000a 04       		.byte	0x4
 416 000b 01       		.uleb128 0x1
 417 000c 6D010000 		.4byte	.LASF68
 418 0010 0C       		.byte	0xc
 419 0011 60020000 		.4byte	.LASF69
 420 0015 EC000000 		.4byte	.LASF70
 421 0019 00000000 		.4byte	.Ltext0
 422 001d 8C010000 		.4byte	.Letext0
 423 0021 00000000 		.4byte	.Ldebug_line0
 424 0025 02       		.uleb128 0x2
 425 0026 01       		.byte	0x1
 426 0027 06       		.byte	0x6
 427 0028 27020000 		.4byte	.LASF0
 428 002c 03       		.uleb128 0x3
 429 002d 41010000 		.4byte	.LASF5
 430 0031 02       		.byte	0x2
 431 0032 2B       		.byte	0x2b
 432 0033 37000000 		.4byte	0x37
 433 0037 02       		.uleb128 0x2
 434 0038 01       		.byte	0x1
 435 0039 08       		.byte	0x8
 436 003a 50010000 		.4byte	.LASF1
 437 003e 02       		.uleb128 0x2
 438 003f 02       		.byte	0x2
 439 0040 05       		.byte	0x5
 440 0041 63000000 		.4byte	.LASF2
 441 0045 02       		.uleb128 0x2
 442 0046 02       		.byte	0x2
 443 0047 07       		.byte	0x7
 444 0048 BD020000 		.4byte	.LASF3
 445 004c 02       		.uleb128 0x2
 446 004d 04       		.byte	0x4
 447 004e 05       		.byte	0x5
 448 004f 38010000 		.4byte	.LASF4
 449 0053 03       		.uleb128 0x3
 450 0054 92000000 		.4byte	.LASF6
 451 0058 02       		.byte	0x2
 452 0059 4F       		.byte	0x4f
 453 005a 5E000000 		.4byte	0x5e
 454 005e 02       		.uleb128 0x2
 455 005f 04       		.byte	0x4
 456 0060 07       		.byte	0x7
 457 0061 62030000 		.4byte	.LASF7
 458 0065 02       		.uleb128 0x2
 459 0066 08       		.byte	0x8
 460 0067 05       		.byte	0x5
 461 0068 1A010000 		.4byte	.LASF8
 462 006c 02       		.uleb128 0x2
 463 006d 08       		.byte	0x8
 464 006e 07       		.byte	0x7
 465 006f 33020000 		.4byte	.LASF9
ARM GAS  G:\Users\Jaxb\AppData\Local\Temp\ccojrPnU.s 			page 13


 466 0073 04       		.uleb128 0x4
 467 0074 04       		.byte	0x4
 468 0075 05       		.byte	0x5
 469 0076 696E7400 		.ascii	"int\000"
 470 007a 05       		.uleb128 0x5
 471 007b 73000000 		.4byte	0x73
 472 007f 02       		.uleb128 0x2
 473 0080 04       		.byte	0x4
 474 0081 07       		.byte	0x7
 475 0082 53020000 		.4byte	.LASF10
 476 0086 03       		.uleb128 0x3
 477 0087 AD000000 		.4byte	.LASF11
 478 008b 03       		.byte	0x3
 479 008c 18       		.byte	0x18
 480 008d 2C000000 		.4byte	0x2c
 481 0091 05       		.uleb128 0x5
 482 0092 86000000 		.4byte	0x86
 483 0096 03       		.uleb128 0x3
 484 0097 4A020000 		.4byte	.LASF12
 485 009b 03       		.byte	0x3
 486 009c 30       		.byte	0x30
 487 009d 53000000 		.4byte	0x53
 488 00a1 05       		.uleb128 0x5
 489 00a2 96000000 		.4byte	0x96
 490 00a6 06       		.uleb128 0x6
 491 00a7 A1000000 		.4byte	0xa1
 492 00ab 07       		.uleb128 0x7
 493 00ac 040E     		.2byte	0xe04
 494 00ae 04       		.byte	0x4
 495 00af 84       		.byte	0x84
 496 00b0 75010000 		.4byte	0x175
 497 00b4 08       		.uleb128 0x8
 498 00b5 35030000 		.4byte	.LASF13
 499 00b9 04       		.byte	0x4
 500 00ba 86       		.byte	0x86
 501 00bb 85010000 		.4byte	0x185
 502 00bf 02       		.byte	0x2
 503 00c0 23       		.byte	0x23
 504 00c1 00       		.uleb128 0
 505 00c2 08       		.uleb128 0x8
 506 00c3 A3000000 		.4byte	.LASF14
 507 00c7 04       		.byte	0x4
 508 00c8 87       		.byte	0x87
 509 00c9 8A010000 		.4byte	0x18a
 510 00cd 02       		.byte	0x2
 511 00ce 23       		.byte	0x23
 512 00cf 20       		.uleb128 0x20
 513 00d0 08       		.uleb128 0x8
 514 00d1 2B030000 		.4byte	.LASF15
 515 00d5 04       		.byte	0x4
 516 00d6 88       		.byte	0x88
 517 00d7 85010000 		.4byte	0x185
 518 00db 03       		.byte	0x3
 519 00dc 23       		.byte	0x23
 520 00dd 8001     		.uleb128 0x80
 521 00df 08       		.uleb128 0x8
 522 00e0 E3000000 		.4byte	.LASF16
ARM GAS  G:\Users\Jaxb\AppData\Local\Temp\ccojrPnU.s 			page 14


 523 00e4 04       		.byte	0x4
 524 00e5 89       		.byte	0x89
 525 00e6 8A010000 		.4byte	0x18a
 526 00ea 03       		.byte	0x3
 527 00eb 23       		.byte	0x23
 528 00ec A001     		.uleb128 0xa0
 529 00ee 08       		.uleb128 0x8
 530 00ef E1020000 		.4byte	.LASF17
 531 00f3 04       		.byte	0x4
 532 00f4 8A       		.byte	0x8a
 533 00f5 85010000 		.4byte	0x185
 534 00f9 03       		.byte	0x3
 535 00fa 23       		.byte	0x23
 536 00fb 8002     		.uleb128 0x100
 537 00fd 08       		.uleb128 0x8
 538 00fe 3A030000 		.4byte	.LASF18
 539 0102 04       		.byte	0x4
 540 0103 8B       		.byte	0x8b
 541 0104 8A010000 		.4byte	0x18a
 542 0108 03       		.byte	0x3
 543 0109 23       		.byte	0x23
 544 010a A002     		.uleb128 0x120
 545 010c 08       		.uleb128 0x8
 546 010d 22020000 		.4byte	.LASF19
 547 0111 04       		.byte	0x4
 548 0112 8C       		.byte	0x8c
 549 0113 85010000 		.4byte	0x185
 550 0117 03       		.byte	0x3
 551 0118 23       		.byte	0x23
 552 0119 8003     		.uleb128 0x180
 553 011b 08       		.uleb128 0x8
 554 011c 44030000 		.4byte	.LASF20
 555 0120 04       		.byte	0x4
 556 0121 8D       		.byte	0x8d
 557 0122 8A010000 		.4byte	0x18a
 558 0126 03       		.byte	0x3
 559 0127 23       		.byte	0x23
 560 0128 A003     		.uleb128 0x1a0
 561 012a 08       		.uleb128 0x8
 562 012b 00000000 		.4byte	.LASF21
 563 012f 04       		.byte	0x4
 564 0130 8E       		.byte	0x8e
 565 0131 85010000 		.4byte	0x185
 566 0135 03       		.byte	0x3
 567 0136 23       		.byte	0x23
 568 0137 8004     		.uleb128 0x200
 569 0139 08       		.uleb128 0x8
 570 013a 4E030000 		.4byte	.LASF22
 571 013e 04       		.byte	0x4
 572 013f 8F       		.byte	0x8f
 573 0140 9A010000 		.4byte	0x19a
 574 0144 03       		.byte	0x3
 575 0145 23       		.byte	0x23
 576 0146 A004     		.uleb128 0x220
 577 0148 09       		.uleb128 0x9
 578 0149 495000   		.ascii	"IP\000"
 579 014c 04       		.byte	0x4
ARM GAS  G:\Users\Jaxb\AppData\Local\Temp\ccojrPnU.s 			page 15


 580 014d 90       		.byte	0x90
 581 014e BA010000 		.4byte	0x1ba
 582 0152 03       		.byte	0x3
 583 0153 23       		.byte	0x23
 584 0154 8006     		.uleb128 0x300
 585 0156 08       		.uleb128 0x8
 586 0157 58030000 		.4byte	.LASF23
 587 015b 04       		.byte	0x4
 588 015c 91       		.byte	0x91
 589 015d BF010000 		.4byte	0x1bf
 590 0161 03       		.byte	0x3
 591 0162 23       		.byte	0x23
 592 0163 F007     		.uleb128 0x3f0
 593 0165 08       		.uleb128 0x8
 594 0166 D1000000 		.4byte	.LASF24
 595 016a 04       		.byte	0x4
 596 016b 92       		.byte	0x92
 597 016c A1000000 		.4byte	0xa1
 598 0170 03       		.byte	0x3
 599 0171 23       		.byte	0x23
 600 0172 801C     		.uleb128 0xe00
 601 0174 00       		.byte	0
 602 0175 0A       		.uleb128 0xa
 603 0176 A1000000 		.4byte	0xa1
 604 017a 85010000 		.4byte	0x185
 605 017e 0B       		.uleb128 0xb
 606 017f 7F000000 		.4byte	0x7f
 607 0183 07       		.byte	0x7
 608 0184 00       		.byte	0
 609 0185 05       		.uleb128 0x5
 610 0186 75010000 		.4byte	0x175
 611 018a 0A       		.uleb128 0xa
 612 018b 96000000 		.4byte	0x96
 613 018f 9A010000 		.4byte	0x19a
 614 0193 0B       		.uleb128 0xb
 615 0194 7F000000 		.4byte	0x7f
 616 0198 17       		.byte	0x17
 617 0199 00       		.byte	0
 618 019a 0A       		.uleb128 0xa
 619 019b 96000000 		.4byte	0x96
 620 019f AA010000 		.4byte	0x1aa
 621 01a3 0B       		.uleb128 0xb
 622 01a4 7F000000 		.4byte	0x7f
 623 01a8 37       		.byte	0x37
 624 01a9 00       		.byte	0
 625 01aa 0A       		.uleb128 0xa
 626 01ab 91000000 		.4byte	0x91
 627 01af BA010000 		.4byte	0x1ba
 628 01b3 0B       		.uleb128 0xb
 629 01b4 7F000000 		.4byte	0x7f
 630 01b8 EF       		.byte	0xef
 631 01b9 00       		.byte	0
 632 01ba 05       		.uleb128 0x5
 633 01bb AA010000 		.4byte	0x1aa
 634 01bf 0A       		.uleb128 0xa
 635 01c0 96000000 		.4byte	0x96
 636 01c4 D0010000 		.4byte	0x1d0
ARM GAS  G:\Users\Jaxb\AppData\Local\Temp\ccojrPnU.s 			page 16


 637 01c8 0C       		.uleb128 0xc
 638 01c9 7F000000 		.4byte	0x7f
 639 01cd 8302     		.2byte	0x283
 640 01cf 00       		.byte	0
 641 01d0 03       		.uleb128 0x3
 642 01d1 18020000 		.4byte	.LASF25
 643 01d5 04       		.byte	0x4
 644 01d6 93       		.byte	0x93
 645 01d7 AB000000 		.4byte	0xab
 646 01db 0D       		.uleb128 0xd
 647 01dc 74       		.byte	0x74
 648 01dd 04       		.byte	0x4
 649 01de 9B       		.byte	0x9b
 650 01df EE020000 		.4byte	0x2ee
 651 01e3 08       		.uleb128 0x8
 652 01e4 9D000000 		.4byte	.LASF26
 653 01e8 04       		.byte	0x4
 654 01e9 9D       		.byte	0x9d
 655 01ea A6000000 		.4byte	0xa6
 656 01ee 02       		.byte	0x2
 657 01ef 23       		.byte	0x23
 658 01f0 00       		.uleb128 0
 659 01f1 08       		.uleb128 0x8
 660 01f2 DE000000 		.4byte	.LASF27
 661 01f6 04       		.byte	0x4
 662 01f7 9E       		.byte	0x9e
 663 01f8 A1000000 		.4byte	0xa1
 664 01fc 02       		.byte	0x2
 665 01fd 23       		.byte	0x23
 666 01fe 04       		.uleb128 0x4
 667 01ff 08       		.uleb128 0x8
 668 0200 2E010000 		.4byte	.LASF28
 669 0204 04       		.byte	0x4
 670 0205 9F       		.byte	0x9f
 671 0206 A1000000 		.4byte	0xa1
 672 020a 02       		.byte	0x2
 673 020b 23       		.byte	0x23
 674 020c 08       		.uleb128 0x8
 675 020d 08       		.uleb128 0x8
 676 020e 5E010000 		.4byte	.LASF29
 677 0212 04       		.byte	0x4
 678 0213 A0       		.byte	0xa0
 679 0214 A1000000 		.4byte	0xa1
 680 0218 02       		.byte	0x2
 681 0219 23       		.byte	0x23
 682 021a 0C       		.uleb128 0xc
 683 021b 09       		.uleb128 0x9
 684 021c 53435200 		.ascii	"SCR\000"
 685 0220 04       		.byte	0x4
 686 0221 A1       		.byte	0xa1
 687 0222 A1000000 		.4byte	0xa1
 688 0226 02       		.byte	0x2
 689 0227 23       		.byte	0x23
 690 0228 10       		.uleb128 0x10
 691 0229 09       		.uleb128 0x9
 692 022a 43435200 		.ascii	"CCR\000"
 693 022e 04       		.byte	0x4
ARM GAS  G:\Users\Jaxb\AppData\Local\Temp\ccojrPnU.s 			page 17


 694 022f A2       		.byte	0xa2
 695 0230 A1000000 		.4byte	0xa1
 696 0234 02       		.byte	0x2
 697 0235 23       		.byte	0x23
 698 0236 14       		.uleb128 0x14
 699 0237 09       		.uleb128 0x9
 700 0238 53485000 		.ascii	"SHP\000"
 701 023c 04       		.byte	0x4
 702 023d A3       		.byte	0xa3
 703 023e FE020000 		.4byte	0x2fe
 704 0242 02       		.byte	0x2
 705 0243 23       		.byte	0x23
 706 0244 18       		.uleb128 0x18
 707 0245 08       		.uleb128 0x8
 708 0246 82020000 		.4byte	.LASF30
 709 024a 04       		.byte	0x4
 710 024b A4       		.byte	0xa4
 711 024c A1000000 		.4byte	0xa1
 712 0250 02       		.byte	0x2
 713 0251 23       		.byte	0x23
 714 0252 24       		.uleb128 0x24
 715 0253 08       		.uleb128 0x8
 716 0254 4B010000 		.4byte	.LASF31
 717 0258 04       		.byte	0x4
 718 0259 A5       		.byte	0xa5
 719 025a A1000000 		.4byte	0xa1
 720 025e 02       		.byte	0x2
 721 025f 23       		.byte	0x23
 722 0260 28       		.uleb128 0x28
 723 0261 08       		.uleb128 0x8
 724 0262 26030000 		.4byte	.LASF32
 725 0266 04       		.byte	0x4
 726 0267 A6       		.byte	0xa6
 727 0268 A1000000 		.4byte	0xa1
 728 026c 02       		.byte	0x2
 729 026d 23       		.byte	0x23
 730 026e 2C       		.uleb128 0x2c
 731 026f 08       		.uleb128 0x8
 732 0270 E6020000 		.4byte	.LASF33
 733 0274 04       		.byte	0x4
 734 0275 A7       		.byte	0xa7
 735 0276 A1000000 		.4byte	0xa1
 736 027a 02       		.byte	0x2
 737 027b 23       		.byte	0x23
 738 027c 30       		.uleb128 0x30
 739 027d 08       		.uleb128 0x8
 740 027e 88020000 		.4byte	.LASF34
 741 0282 04       		.byte	0x4
 742 0283 A8       		.byte	0xa8
 743 0284 A1000000 		.4byte	0xa1
 744 0288 02       		.byte	0x2
 745 0289 23       		.byte	0x23
 746 028a 34       		.uleb128 0x34
 747 028b 08       		.uleb128 0x8
 748 028c 33010000 		.4byte	.LASF35
 749 0290 04       		.byte	0x4
 750 0291 A9       		.byte	0xa9
ARM GAS  G:\Users\Jaxb\AppData\Local\Temp\ccojrPnU.s 			page 18


 751 0292 A1000000 		.4byte	0xa1
 752 0296 02       		.byte	0x2
 753 0297 23       		.byte	0x23
 754 0298 38       		.uleb128 0x38
 755 0299 08       		.uleb128 0x8
 756 029a B8030000 		.4byte	.LASF36
 757 029e 04       		.byte	0x4
 758 029f AA       		.byte	0xaa
 759 02a0 A1000000 		.4byte	0xa1
 760 02a4 02       		.byte	0x2
 761 02a5 23       		.byte	0x23
 762 02a6 3C       		.uleb128 0x3c
 763 02a7 09       		.uleb128 0x9
 764 02a8 50465200 		.ascii	"PFR\000"
 765 02ac 04       		.byte	0x4
 766 02ad AB       		.byte	0xab
 767 02ae 18030000 		.4byte	0x318
 768 02b2 02       		.byte	0x2
 769 02b3 23       		.byte	0x23
 770 02b4 40       		.uleb128 0x40
 771 02b5 09       		.uleb128 0x9
 772 02b6 44465200 		.ascii	"DFR\000"
 773 02ba 04       		.byte	0x4
 774 02bb AC       		.byte	0xac
 775 02bc A6000000 		.4byte	0xa6
 776 02c0 02       		.byte	0x2
 777 02c1 23       		.byte	0x23
 778 02c2 48       		.uleb128 0x48
 779 02c3 09       		.uleb128 0x9
 780 02c4 41445200 		.ascii	"ADR\000"
 781 02c8 04       		.byte	0x4
 782 02c9 AD       		.byte	0xad
 783 02ca A6000000 		.4byte	0xa6
 784 02ce 02       		.byte	0x2
 785 02cf 23       		.byte	0x23
 786 02d0 4C       		.uleb128 0x4c
 787 02d1 08       		.uleb128 0x8
 788 02d2 30030000 		.4byte	.LASF37
 789 02d6 04       		.byte	0x4
 790 02d7 AE       		.byte	0xae
 791 02d8 32030000 		.4byte	0x332
 792 02dc 02       		.byte	0x2
 793 02dd 23       		.byte	0x23
 794 02de 50       		.uleb128 0x50
 795 02df 08       		.uleb128 0x8
 796 02e0 DC020000 		.4byte	.LASF38
 797 02e4 04       		.byte	0x4
 798 02e5 AF       		.byte	0xaf
 799 02e6 4C030000 		.4byte	0x34c
 800 02ea 02       		.byte	0x2
 801 02eb 23       		.byte	0x23
 802 02ec 60       		.uleb128 0x60
 803 02ed 00       		.byte	0
 804 02ee 0A       		.uleb128 0xa
 805 02ef 91000000 		.4byte	0x91
 806 02f3 FE020000 		.4byte	0x2fe
 807 02f7 0B       		.uleb128 0xb
ARM GAS  G:\Users\Jaxb\AppData\Local\Temp\ccojrPnU.s 			page 19


 808 02f8 7F000000 		.4byte	0x7f
 809 02fc 0B       		.byte	0xb
 810 02fd 00       		.byte	0
 811 02fe 05       		.uleb128 0x5
 812 02ff EE020000 		.4byte	0x2ee
 813 0303 0A       		.uleb128 0xa
 814 0304 A6000000 		.4byte	0xa6
 815 0308 13030000 		.4byte	0x313
 816 030c 0B       		.uleb128 0xb
 817 030d 7F000000 		.4byte	0x7f
 818 0311 01       		.byte	0x1
 819 0312 00       		.byte	0
 820 0313 06       		.uleb128 0x6
 821 0314 03030000 		.4byte	0x303
 822 0318 05       		.uleb128 0x5
 823 0319 13030000 		.4byte	0x313
 824 031d 0A       		.uleb128 0xa
 825 031e A6000000 		.4byte	0xa6
 826 0322 2D030000 		.4byte	0x32d
 827 0326 0B       		.uleb128 0xb
 828 0327 7F000000 		.4byte	0x7f
 829 032b 03       		.byte	0x3
 830 032c 00       		.byte	0
 831 032d 06       		.uleb128 0x6
 832 032e 1D030000 		.4byte	0x31d
 833 0332 05       		.uleb128 0x5
 834 0333 2D030000 		.4byte	0x32d
 835 0337 0A       		.uleb128 0xa
 836 0338 A6000000 		.4byte	0xa6
 837 033c 47030000 		.4byte	0x347
 838 0340 0B       		.uleb128 0xb
 839 0341 7F000000 		.4byte	0x7f
 840 0345 04       		.byte	0x4
 841 0346 00       		.byte	0
 842 0347 06       		.uleb128 0x6
 843 0348 37030000 		.4byte	0x337
 844 034c 05       		.uleb128 0x5
 845 034d 47030000 		.4byte	0x347
 846 0351 03       		.uleb128 0x3
 847 0352 64010000 		.4byte	.LASF39
 848 0356 04       		.byte	0x4
 849 0357 B0       		.byte	0xb0
 850 0358 DB010000 		.4byte	0x1db
 851 035c 0E       		.uleb128 0xe
 852 035d 10       		.byte	0x10
 853 035e 04       		.byte	0x4
 854 035f 6D01     		.2byte	0x16d
 855 0361 A2030000 		.4byte	0x3a2
 856 0365 0F       		.uleb128 0xf
 857 0366 13020000 		.4byte	.LASF40
 858 036a 04       		.byte	0x4
 859 036b 6F01     		.2byte	0x16f
 860 036d A1000000 		.4byte	0xa1
 861 0371 02       		.byte	0x2
 862 0372 23       		.byte	0x23
 863 0373 00       		.uleb128 0
 864 0374 0F       		.uleb128 0xf
ARM GAS  G:\Users\Jaxb\AppData\Local\Temp\ccojrPnU.s 			page 20


 865 0375 B3030000 		.4byte	.LASF41
 866 0379 04       		.byte	0x4
 867 037a 7001     		.2byte	0x170
 868 037c A1000000 		.4byte	0xa1
 869 0380 02       		.byte	0x2
 870 0381 23       		.byte	0x23
 871 0382 04       		.uleb128 0x4
 872 0383 10       		.uleb128 0x10
 873 0384 56414C00 		.ascii	"VAL\000"
 874 0388 04       		.byte	0x4
 875 0389 7101     		.2byte	0x171
 876 038b A1000000 		.4byte	0xa1
 877 038f 02       		.byte	0x2
 878 0390 23       		.byte	0x23
 879 0391 08       		.uleb128 0x8
 880 0392 0F       		.uleb128 0xf
 881 0393 28010000 		.4byte	.LASF42
 882 0397 04       		.byte	0x4
 883 0398 7201     		.2byte	0x172
 884 039a A6000000 		.4byte	0xa6
 885 039e 02       		.byte	0x2
 886 039f 23       		.byte	0x23
 887 03a0 0C       		.uleb128 0xc
 888 03a1 00       		.byte	0
 889 03a2 11       		.uleb128 0x11
 890 03a3 B0020000 		.4byte	.LASF43
 891 03a7 04       		.byte	0x4
 892 03a8 7301     		.2byte	0x173
 893 03aa 5C030000 		.4byte	0x35c
 894 03ae 12       		.uleb128 0x12
 895 03af CA030000 		.4byte	.LASF44
 896 03b3 04       		.byte	0x4
 897 03b4 CE06     		.2byte	0x6ce
 898 03b6 7A000000 		.4byte	0x7a
 899 03ba 01       		.byte	0x1
 900 03bb 01       		.byte	0x1
 901 03bc 13       		.uleb128 0x13
 902 03bd 16030000 		.4byte	.LASF45
 903 03c1 05       		.byte	0x5
 904 03c2 35       		.byte	0x35
 905 03c3 96000000 		.4byte	0x96
 906 03c7 01       		.byte	0x1
 907 03c8 01       		.byte	0x1
 908 03c9 14       		.uleb128 0x14
 909 03ca 07       		.byte	0x7
 910 03cb 01       		.byte	0x1
 911 03cc 37000000 		.4byte	0x37
 912 03d0 06       		.byte	0x6
 913 03d1 0902     		.2byte	0x209
 914 03d3 E4030000 		.4byte	0x3e4
 915 03d7 15       		.uleb128 0x15
 916 03d8 D6000000 		.4byte	.LASF46
 917 03dc 00       		.byte	0
 918 03dd 15       		.uleb128 0x15
 919 03de D7030000 		.4byte	.LASF47
 920 03e2 01       		.byte	0x1
 921 03e3 00       		.byte	0
ARM GAS  G:\Users\Jaxb\AppData\Local\Temp\ccojrPnU.s 			page 21


 922 03e4 11       		.uleb128 0x11
 923 03e5 96030000 		.4byte	.LASF48
 924 03e9 06       		.byte	0x6
 925 03ea 0902     		.2byte	0x209
 926 03ec C9030000 		.4byte	0x3c9
 927 03f0 0D       		.uleb128 0xd
 928 03f1 04       		.byte	0x4
 929 03f2 07       		.byte	0x7
 930 03f3 32       		.byte	0x32
 931 03f4 31040000 		.4byte	0x431
 932 03f8 08       		.uleb128 0x8
 933 03f9 EB020000 		.4byte	.LASF49
 934 03fd 07       		.byte	0x7
 935 03fe 34       		.byte	0x34
 936 03ff 86000000 		.4byte	0x86
 937 0403 02       		.byte	0x2
 938 0404 23       		.byte	0x23
 939 0405 00       		.uleb128 0
 940 0406 08       		.uleb128 0x8
 941 0407 74030000 		.4byte	.LASF50
 942 040b 07       		.byte	0x7
 943 040c 39       		.byte	0x39
 944 040d 86000000 		.4byte	0x86
 945 0411 02       		.byte	0x2
 946 0412 23       		.byte	0x23
 947 0413 01       		.uleb128 0x1
 948 0414 08       		.uleb128 0x8
 949 0415 FB020000 		.4byte	.LASF51
 950 0419 07       		.byte	0x7
 951 041a 3D       		.byte	0x3d
 952 041b 86000000 		.4byte	0x86
 953 041f 02       		.byte	0x2
 954 0420 23       		.byte	0x23
 955 0421 02       		.uleb128 0x2
 956 0422 08       		.uleb128 0x8
 957 0423 16000000 		.4byte	.LASF52
 958 0427 07       		.byte	0x7
 959 0428 41       		.byte	0x41
 960 0429 E4030000 		.4byte	0x3e4
 961 042d 02       		.byte	0x2
 962 042e 23       		.byte	0x23
 963 042f 03       		.uleb128 0x3
 964 0430 00       		.byte	0
 965 0431 03       		.uleb128 0x3
 966 0432 05000000 		.4byte	.LASF53
 967 0436 07       		.byte	0x7
 968 0437 44       		.byte	0x44
 969 0438 F0030000 		.4byte	0x3f0
 970 043c 16       		.uleb128 0x16
 971 043d 01       		.byte	0x1
 972 043e 4B000000 		.4byte	.LASF54
 973 0442 01       		.byte	0x1
 974 0443 C7       		.byte	0xc7
 975 0444 01       		.byte	0x1
 976 0445 54010000 		.4byte	.LFB33
 977 0449 8C010000 		.4byte	.LFE33
 978 044d 00000000 		.4byte	.LLST4
ARM GAS  G:\Users\Jaxb\AppData\Local\Temp\ccojrPnU.s 			page 22


 979 0451 01       		.byte	0x1
 980 0452 65040000 		.4byte	0x465
 981 0456 17       		.uleb128 0x17
 982 0457 29000000 		.4byte	.LASF56
 983 045b 01       		.byte	0x1
 984 045c C7       		.byte	0xc7
 985 045d 96000000 		.4byte	0x96
 986 0461 02       		.byte	0x2
 987 0462 91       		.byte	0x91
 988 0463 74       		.sleb128 -12
 989 0464 00       		.byte	0
 990 0465 16       		.uleb128 0x16
 991 0466 01       		.byte	0x1
 992 0467 95020000 		.4byte	.LASF55
 993 046b 01       		.byte	0x1
 994 046c AF       		.byte	0xaf
 995 046d 01       		.byte	0x1
 996 046e 14010000 		.4byte	.LFB32
 997 0472 54010000 		.4byte	.LFE32
 998 0476 5C000000 		.4byte	.LLST3
 999 047a 01       		.byte	0x1
 1000 047b 9C040000 		.4byte	0x49c
 1001 047f 17       		.uleb128 0x17
 1002 0480 BD030000 		.4byte	.LASF57
 1003 0484 01       		.byte	0x1
 1004 0485 AF       		.byte	0xaf
 1005 0486 86000000 		.4byte	0x86
 1006 048a 02       		.byte	0x2
 1007 048b 91       		.byte	0x91
 1008 048c 77       		.sleb128 -9
 1009 048d 17       		.uleb128 0x17
 1010 048e C8000000 		.4byte	.LASF58
 1011 0492 01       		.byte	0x1
 1012 0493 AF       		.byte	0xaf
 1013 0494 E4030000 		.4byte	0x3e4
 1014 0498 02       		.byte	0x2
 1015 0499 91       		.byte	0x91
 1016 049a 76       		.sleb128 -10
 1017 049b 00       		.byte	0
 1018 049c 16       		.uleb128 0x16
 1019 049d 01       		.byte	0x1
 1020 049e 6D000000 		.4byte	.LASF59
 1021 04a2 01       		.byte	0x1
 1022 04a3 9C       		.byte	0x9c
 1023 04a4 01       		.byte	0x1
 1024 04a5 E8000000 		.4byte	.LFB31
 1025 04a9 14010000 		.4byte	.LFE31
 1026 04ad B8000000 		.4byte	.LLST2
 1027 04b1 01       		.byte	0x1
 1028 04b2 D3040000 		.4byte	0x4d3
 1029 04b6 17       		.uleb128 0x17
 1030 04b7 A6030000 		.4byte	.LASF60
 1031 04bb 01       		.byte	0x1
 1032 04bc 9C       		.byte	0x9c
 1033 04bd 96000000 		.4byte	0x96
 1034 04c1 02       		.byte	0x2
 1035 04c2 91       		.byte	0x91
ARM GAS  G:\Users\Jaxb\AppData\Local\Temp\ccojrPnU.s 			page 23


 1036 04c3 74       		.sleb128 -12
 1037 04c4 17       		.uleb128 0x17
 1038 04c5 A9020000 		.4byte	.LASF61
 1039 04c9 01       		.byte	0x1
 1040 04ca 9C       		.byte	0x9c
 1041 04cb 96000000 		.4byte	0x96
 1042 04cf 02       		.byte	0x2
 1043 04d0 91       		.byte	0x91
 1044 04d1 70       		.sleb128 -16
 1045 04d2 00       		.byte	0
 1046 04d3 16       		.uleb128 0x16
 1047 04d4 01       		.byte	0x1
 1048 04d5 81000000 		.4byte	.LASF62
 1049 04d9 01       		.byte	0x1
 1050 04da 70       		.byte	0x70
 1051 04db 01       		.byte	0x1
 1052 04dc 24000000 		.4byte	.LFB30
 1053 04e0 E8000000 		.4byte	.LFE30
 1054 04e4 14010000 		.4byte	.LLST1
 1055 04e8 01       		.byte	0x1
 1056 04e9 26050000 		.4byte	0x526
 1057 04ed 17       		.uleb128 0x17
 1058 04ee 3B000000 		.4byte	.LASF63
 1059 04f2 01       		.byte	0x1
 1060 04f3 70       		.byte	0x70
 1061 04f4 26050000 		.4byte	0x526
 1062 04f8 02       		.byte	0x2
 1063 04f9 91       		.byte	0x91
 1064 04fa 64       		.sleb128 -28
 1065 04fb 18       		.uleb128 0x18
 1066 04fc D0020000 		.4byte	.LASF64
 1067 0500 01       		.byte	0x1
 1068 0501 72       		.byte	0x72
 1069 0502 96000000 		.4byte	0x96
 1070 0506 02       		.byte	0x2
 1071 0507 91       		.byte	0x91
 1072 0508 74       		.sleb128 -12
 1073 0509 18       		.uleb128 0x18
 1074 050a 8B000000 		.4byte	.LASF65
 1075 050e 01       		.byte	0x1
 1076 050f 72       		.byte	0x72
 1077 0510 96000000 		.4byte	0x96
 1078 0514 02       		.byte	0x2
 1079 0515 91       		.byte	0x91
 1080 0516 70       		.sleb128 -16
 1081 0517 18       		.uleb128 0x18
 1082 0518 8E020000 		.4byte	.LASF66
 1083 051c 01       		.byte	0x1
 1084 051d 72       		.byte	0x72
 1085 051e 96000000 		.4byte	0x96
 1086 0522 02       		.byte	0x2
 1087 0523 91       		.byte	0x91
 1088 0524 6C       		.sleb128 -20
 1089 0525 00       		.byte	0
 1090 0526 19       		.uleb128 0x19
 1091 0527 04       		.byte	0x4
 1092 0528 31040000 		.4byte	0x431
ARM GAS  G:\Users\Jaxb\AppData\Local\Temp\ccojrPnU.s 			page 24


 1093 052c 1A       		.uleb128 0x1a
 1094 052d 01       		.byte	0x1
 1095 052e DE030000 		.4byte	.LASF71
 1096 0532 01       		.byte	0x1
 1097 0533 60       		.byte	0x60
 1098 0534 01       		.byte	0x1
 1099 0535 00000000 		.4byte	.LFB29
 1100 0539 24000000 		.4byte	.LFE29
 1101 053d 70010000 		.4byte	.LLST0
 1102 0541 01       		.byte	0x1
 1103 0542 17       		.uleb128 0x17
 1104 0543 B5000000 		.4byte	.LASF67
 1105 0547 01       		.byte	0x1
 1106 0548 60       		.byte	0x60
 1107 0549 96000000 		.4byte	0x96
 1108 054d 02       		.byte	0x2
 1109 054e 91       		.byte	0x91
 1110 054f 74       		.sleb128 -12
 1111 0550 00       		.byte	0
 1112 0551 00       		.byte	0
 1113              		.section	.debug_abbrev,"",%progbits
 1114              	.Ldebug_abbrev0:
 1115 0000 01       		.uleb128 0x1
 1116 0001 11       		.uleb128 0x11
 1117 0002 01       		.byte	0x1
 1118 0003 25       		.uleb128 0x25
 1119 0004 0E       		.uleb128 0xe
 1120 0005 13       		.uleb128 0x13
 1121 0006 0B       		.uleb128 0xb
 1122 0007 03       		.uleb128 0x3
 1123 0008 0E       		.uleb128 0xe
 1124 0009 1B       		.uleb128 0x1b
 1125 000a 0E       		.uleb128 0xe
 1126 000b 11       		.uleb128 0x11
 1127 000c 01       		.uleb128 0x1
 1128 000d 12       		.uleb128 0x12
 1129 000e 01       		.uleb128 0x1
 1130 000f 10       		.uleb128 0x10
 1131 0010 06       		.uleb128 0x6
 1132 0011 00       		.byte	0
 1133 0012 00       		.byte	0
 1134 0013 02       		.uleb128 0x2
 1135 0014 24       		.uleb128 0x24
 1136 0015 00       		.byte	0
 1137 0016 0B       		.uleb128 0xb
 1138 0017 0B       		.uleb128 0xb
 1139 0018 3E       		.uleb128 0x3e
 1140 0019 0B       		.uleb128 0xb
 1141 001a 03       		.uleb128 0x3
 1142 001b 0E       		.uleb128 0xe
 1143 001c 00       		.byte	0
 1144 001d 00       		.byte	0
 1145 001e 03       		.uleb128 0x3
 1146 001f 16       		.uleb128 0x16
 1147 0020 00       		.byte	0
 1148 0021 03       		.uleb128 0x3
 1149 0022 0E       		.uleb128 0xe
ARM GAS  G:\Users\Jaxb\AppData\Local\Temp\ccojrPnU.s 			page 25


 1150 0023 3A       		.uleb128 0x3a
 1151 0024 0B       		.uleb128 0xb
 1152 0025 3B       		.uleb128 0x3b
 1153 0026 0B       		.uleb128 0xb
 1154 0027 49       		.uleb128 0x49
 1155 0028 13       		.uleb128 0x13
 1156 0029 00       		.byte	0
 1157 002a 00       		.byte	0
 1158 002b 04       		.uleb128 0x4
 1159 002c 24       		.uleb128 0x24
 1160 002d 00       		.byte	0
 1161 002e 0B       		.uleb128 0xb
 1162 002f 0B       		.uleb128 0xb
 1163 0030 3E       		.uleb128 0x3e
 1164 0031 0B       		.uleb128 0xb
 1165 0032 03       		.uleb128 0x3
 1166 0033 08       		.uleb128 0x8
 1167 0034 00       		.byte	0
 1168 0035 00       		.byte	0
 1169 0036 05       		.uleb128 0x5
 1170 0037 35       		.uleb128 0x35
 1171 0038 00       		.byte	0
 1172 0039 49       		.uleb128 0x49
 1173 003a 13       		.uleb128 0x13
 1174 003b 00       		.byte	0
 1175 003c 00       		.byte	0
 1176 003d 06       		.uleb128 0x6
 1177 003e 26       		.uleb128 0x26
 1178 003f 00       		.byte	0
 1179 0040 49       		.uleb128 0x49
 1180 0041 13       		.uleb128 0x13
 1181 0042 00       		.byte	0
 1182 0043 00       		.byte	0
 1183 0044 07       		.uleb128 0x7
 1184 0045 13       		.uleb128 0x13
 1185 0046 01       		.byte	0x1
 1186 0047 0B       		.uleb128 0xb
 1187 0048 05       		.uleb128 0x5
 1188 0049 3A       		.uleb128 0x3a
 1189 004a 0B       		.uleb128 0xb
 1190 004b 3B       		.uleb128 0x3b
 1191 004c 0B       		.uleb128 0xb
 1192 004d 01       		.uleb128 0x1
 1193 004e 13       		.uleb128 0x13
 1194 004f 00       		.byte	0
 1195 0050 00       		.byte	0
 1196 0051 08       		.uleb128 0x8
 1197 0052 0D       		.uleb128 0xd
 1198 0053 00       		.byte	0
 1199 0054 03       		.uleb128 0x3
 1200 0055 0E       		.uleb128 0xe
 1201 0056 3A       		.uleb128 0x3a
 1202 0057 0B       		.uleb128 0xb
 1203 0058 3B       		.uleb128 0x3b
 1204 0059 0B       		.uleb128 0xb
 1205 005a 49       		.uleb128 0x49
 1206 005b 13       		.uleb128 0x13
ARM GAS  G:\Users\Jaxb\AppData\Local\Temp\ccojrPnU.s 			page 26


 1207 005c 38       		.uleb128 0x38
 1208 005d 0A       		.uleb128 0xa
 1209 005e 00       		.byte	0
 1210 005f 00       		.byte	0
 1211 0060 09       		.uleb128 0x9
 1212 0061 0D       		.uleb128 0xd
 1213 0062 00       		.byte	0
 1214 0063 03       		.uleb128 0x3
 1215 0064 08       		.uleb128 0x8
 1216 0065 3A       		.uleb128 0x3a
 1217 0066 0B       		.uleb128 0xb
 1218 0067 3B       		.uleb128 0x3b
 1219 0068 0B       		.uleb128 0xb
 1220 0069 49       		.uleb128 0x49
 1221 006a 13       		.uleb128 0x13
 1222 006b 38       		.uleb128 0x38
 1223 006c 0A       		.uleb128 0xa
 1224 006d 00       		.byte	0
 1225 006e 00       		.byte	0
 1226 006f 0A       		.uleb128 0xa
 1227 0070 01       		.uleb128 0x1
 1228 0071 01       		.byte	0x1
 1229 0072 49       		.uleb128 0x49
 1230 0073 13       		.uleb128 0x13
 1231 0074 01       		.uleb128 0x1
 1232 0075 13       		.uleb128 0x13
 1233 0076 00       		.byte	0
 1234 0077 00       		.byte	0
 1235 0078 0B       		.uleb128 0xb
 1236 0079 21       		.uleb128 0x21
 1237 007a 00       		.byte	0
 1238 007b 49       		.uleb128 0x49
 1239 007c 13       		.uleb128 0x13
 1240 007d 2F       		.uleb128 0x2f
 1241 007e 0B       		.uleb128 0xb
 1242 007f 00       		.byte	0
 1243 0080 00       		.byte	0
 1244 0081 0C       		.uleb128 0xc
 1245 0082 21       		.uleb128 0x21
 1246 0083 00       		.byte	0
 1247 0084 49       		.uleb128 0x49
 1248 0085 13       		.uleb128 0x13
 1249 0086 2F       		.uleb128 0x2f
 1250 0087 05       		.uleb128 0x5
 1251 0088 00       		.byte	0
 1252 0089 00       		.byte	0
 1253 008a 0D       		.uleb128 0xd
 1254 008b 13       		.uleb128 0x13
 1255 008c 01       		.byte	0x1
 1256 008d 0B       		.uleb128 0xb
 1257 008e 0B       		.uleb128 0xb
 1258 008f 3A       		.uleb128 0x3a
 1259 0090 0B       		.uleb128 0xb
 1260 0091 3B       		.uleb128 0x3b
 1261 0092 0B       		.uleb128 0xb
 1262 0093 01       		.uleb128 0x1
 1263 0094 13       		.uleb128 0x13
ARM GAS  G:\Users\Jaxb\AppData\Local\Temp\ccojrPnU.s 			page 27


 1264 0095 00       		.byte	0
 1265 0096 00       		.byte	0
 1266 0097 0E       		.uleb128 0xe
 1267 0098 13       		.uleb128 0x13
 1268 0099 01       		.byte	0x1
 1269 009a 0B       		.uleb128 0xb
 1270 009b 0B       		.uleb128 0xb
 1271 009c 3A       		.uleb128 0x3a
 1272 009d 0B       		.uleb128 0xb
 1273 009e 3B       		.uleb128 0x3b
 1274 009f 05       		.uleb128 0x5
 1275 00a0 01       		.uleb128 0x1
 1276 00a1 13       		.uleb128 0x13
 1277 00a2 00       		.byte	0
 1278 00a3 00       		.byte	0
 1279 00a4 0F       		.uleb128 0xf
 1280 00a5 0D       		.uleb128 0xd
 1281 00a6 00       		.byte	0
 1282 00a7 03       		.uleb128 0x3
 1283 00a8 0E       		.uleb128 0xe
 1284 00a9 3A       		.uleb128 0x3a
 1285 00aa 0B       		.uleb128 0xb
 1286 00ab 3B       		.uleb128 0x3b
 1287 00ac 05       		.uleb128 0x5
 1288 00ad 49       		.uleb128 0x49
 1289 00ae 13       		.uleb128 0x13
 1290 00af 38       		.uleb128 0x38
 1291 00b0 0A       		.uleb128 0xa
 1292 00b1 00       		.byte	0
 1293 00b2 00       		.byte	0
 1294 00b3 10       		.uleb128 0x10
 1295 00b4 0D       		.uleb128 0xd
 1296 00b5 00       		.byte	0
 1297 00b6 03       		.uleb128 0x3
 1298 00b7 08       		.uleb128 0x8
 1299 00b8 3A       		.uleb128 0x3a
 1300 00b9 0B       		.uleb128 0xb
 1301 00ba 3B       		.uleb128 0x3b
 1302 00bb 05       		.uleb128 0x5
 1303 00bc 49       		.uleb128 0x49
 1304 00bd 13       		.uleb128 0x13
 1305 00be 38       		.uleb128 0x38
 1306 00bf 0A       		.uleb128 0xa
 1307 00c0 00       		.byte	0
 1308 00c1 00       		.byte	0
 1309 00c2 11       		.uleb128 0x11
 1310 00c3 16       		.uleb128 0x16
 1311 00c4 00       		.byte	0
 1312 00c5 03       		.uleb128 0x3
 1313 00c6 0E       		.uleb128 0xe
 1314 00c7 3A       		.uleb128 0x3a
 1315 00c8 0B       		.uleb128 0xb
 1316 00c9 3B       		.uleb128 0x3b
 1317 00ca 05       		.uleb128 0x5
 1318 00cb 49       		.uleb128 0x49
 1319 00cc 13       		.uleb128 0x13
 1320 00cd 00       		.byte	0
ARM GAS  G:\Users\Jaxb\AppData\Local\Temp\ccojrPnU.s 			page 28


 1321 00ce 00       		.byte	0
 1322 00cf 12       		.uleb128 0x12
 1323 00d0 34       		.uleb128 0x34
 1324 00d1 00       		.byte	0
 1325 00d2 03       		.uleb128 0x3
 1326 00d3 0E       		.uleb128 0xe
 1327 00d4 3A       		.uleb128 0x3a
 1328 00d5 0B       		.uleb128 0xb
 1329 00d6 3B       		.uleb128 0x3b
 1330 00d7 05       		.uleb128 0x5
 1331 00d8 49       		.uleb128 0x49
 1332 00d9 13       		.uleb128 0x13
 1333 00da 3F       		.uleb128 0x3f
 1334 00db 0C       		.uleb128 0xc
 1335 00dc 3C       		.uleb128 0x3c
 1336 00dd 0C       		.uleb128 0xc
 1337 00de 00       		.byte	0
 1338 00df 00       		.byte	0
 1339 00e0 13       		.uleb128 0x13
 1340 00e1 34       		.uleb128 0x34
 1341 00e2 00       		.byte	0
 1342 00e3 03       		.uleb128 0x3
 1343 00e4 0E       		.uleb128 0xe
 1344 00e5 3A       		.uleb128 0x3a
 1345 00e6 0B       		.uleb128 0xb
 1346 00e7 3B       		.uleb128 0x3b
 1347 00e8 0B       		.uleb128 0xb
 1348 00e9 49       		.uleb128 0x49
 1349 00ea 13       		.uleb128 0x13
 1350 00eb 3F       		.uleb128 0x3f
 1351 00ec 0C       		.uleb128 0xc
 1352 00ed 3C       		.uleb128 0x3c
 1353 00ee 0C       		.uleb128 0xc
 1354 00ef 00       		.byte	0
 1355 00f0 00       		.byte	0
 1356 00f1 14       		.uleb128 0x14
 1357 00f2 04       		.uleb128 0x4
 1358 00f3 01       		.byte	0x1
 1359 00f4 3E       		.uleb128 0x3e
 1360 00f5 0B       		.uleb128 0xb
 1361 00f6 0B       		.uleb128 0xb
 1362 00f7 0B       		.uleb128 0xb
 1363 00f8 49       		.uleb128 0x49
 1364 00f9 13       		.uleb128 0x13
 1365 00fa 3A       		.uleb128 0x3a
 1366 00fb 0B       		.uleb128 0xb
 1367 00fc 3B       		.uleb128 0x3b
 1368 00fd 05       		.uleb128 0x5
 1369 00fe 01       		.uleb128 0x1
 1370 00ff 13       		.uleb128 0x13
 1371 0100 00       		.byte	0
 1372 0101 00       		.byte	0
 1373 0102 15       		.uleb128 0x15
 1374 0103 28       		.uleb128 0x28
 1375 0104 00       		.byte	0
 1376 0105 03       		.uleb128 0x3
 1377 0106 0E       		.uleb128 0xe
ARM GAS  G:\Users\Jaxb\AppData\Local\Temp\ccojrPnU.s 			page 29


 1378 0107 1C       		.uleb128 0x1c
 1379 0108 0B       		.uleb128 0xb
 1380 0109 00       		.byte	0
 1381 010a 00       		.byte	0
 1382 010b 16       		.uleb128 0x16
 1383 010c 2E       		.uleb128 0x2e
 1384 010d 01       		.byte	0x1
 1385 010e 3F       		.uleb128 0x3f
 1386 010f 0C       		.uleb128 0xc
 1387 0110 03       		.uleb128 0x3
 1388 0111 0E       		.uleb128 0xe
 1389 0112 3A       		.uleb128 0x3a
 1390 0113 0B       		.uleb128 0xb
 1391 0114 3B       		.uleb128 0x3b
 1392 0115 0B       		.uleb128 0xb
 1393 0116 27       		.uleb128 0x27
 1394 0117 0C       		.uleb128 0xc
 1395 0118 11       		.uleb128 0x11
 1396 0119 01       		.uleb128 0x1
 1397 011a 12       		.uleb128 0x12
 1398 011b 01       		.uleb128 0x1
 1399 011c 40       		.uleb128 0x40
 1400 011d 06       		.uleb128 0x6
 1401 011e 9742     		.uleb128 0x2117
 1402 0120 0C       		.uleb128 0xc
 1403 0121 01       		.uleb128 0x1
 1404 0122 13       		.uleb128 0x13
 1405 0123 00       		.byte	0
 1406 0124 00       		.byte	0
 1407 0125 17       		.uleb128 0x17
 1408 0126 05       		.uleb128 0x5
 1409 0127 00       		.byte	0
 1410 0128 03       		.uleb128 0x3
 1411 0129 0E       		.uleb128 0xe
 1412 012a 3A       		.uleb128 0x3a
 1413 012b 0B       		.uleb128 0xb
 1414 012c 3B       		.uleb128 0x3b
 1415 012d 0B       		.uleb128 0xb
 1416 012e 49       		.uleb128 0x49
 1417 012f 13       		.uleb128 0x13
 1418 0130 02       		.uleb128 0x2
 1419 0131 0A       		.uleb128 0xa
 1420 0132 00       		.byte	0
 1421 0133 00       		.byte	0
 1422 0134 18       		.uleb128 0x18
 1423 0135 34       		.uleb128 0x34
 1424 0136 00       		.byte	0
 1425 0137 03       		.uleb128 0x3
 1426 0138 0E       		.uleb128 0xe
 1427 0139 3A       		.uleb128 0x3a
 1428 013a 0B       		.uleb128 0xb
 1429 013b 3B       		.uleb128 0x3b
 1430 013c 0B       		.uleb128 0xb
 1431 013d 49       		.uleb128 0x49
 1432 013e 13       		.uleb128 0x13
 1433 013f 02       		.uleb128 0x2
 1434 0140 0A       		.uleb128 0xa
ARM GAS  G:\Users\Jaxb\AppData\Local\Temp\ccojrPnU.s 			page 30


 1435 0141 00       		.byte	0
 1436 0142 00       		.byte	0
 1437 0143 19       		.uleb128 0x19
 1438 0144 0F       		.uleb128 0xf
 1439 0145 00       		.byte	0
 1440 0146 0B       		.uleb128 0xb
 1441 0147 0B       		.uleb128 0xb
 1442 0148 49       		.uleb128 0x49
 1443 0149 13       		.uleb128 0x13
 1444 014a 00       		.byte	0
 1445 014b 00       		.byte	0
 1446 014c 1A       		.uleb128 0x1a
 1447 014d 2E       		.uleb128 0x2e
 1448 014e 01       		.byte	0x1
 1449 014f 3F       		.uleb128 0x3f
 1450 0150 0C       		.uleb128 0xc
 1451 0151 03       		.uleb128 0x3
 1452 0152 0E       		.uleb128 0xe
 1453 0153 3A       		.uleb128 0x3a
 1454 0154 0B       		.uleb128 0xb
 1455 0155 3B       		.uleb128 0x3b
 1456 0156 0B       		.uleb128 0xb
 1457 0157 27       		.uleb128 0x27
 1458 0158 0C       		.uleb128 0xc
 1459 0159 11       		.uleb128 0x11
 1460 015a 01       		.uleb128 0x1
 1461 015b 12       		.uleb128 0x12
 1462 015c 01       		.uleb128 0x1
 1463 015d 40       		.uleb128 0x40
 1464 015e 06       		.uleb128 0x6
 1465 015f 9742     		.uleb128 0x2117
 1466 0161 0C       		.uleb128 0xc
 1467 0162 00       		.byte	0
 1468 0163 00       		.byte	0
 1469 0164 00       		.byte	0
 1470              		.section	.debug_loc,"",%progbits
 1471              	.Ldebug_loc0:
 1472              	.LLST4:
 1473 0000 54010000 		.4byte	.LFB33-.Ltext0
 1474 0004 56010000 		.4byte	.LCFI24-.Ltext0
 1475 0008 0200     		.2byte	0x2
 1476 000a 7D       		.byte	0x7d
 1477 000b 00       		.sleb128 0
 1478 000c 56010000 		.4byte	.LCFI24-.Ltext0
 1479 0010 58010000 		.4byte	.LCFI25-.Ltext0
 1480 0014 0200     		.2byte	0x2
 1481 0016 7D       		.byte	0x7d
 1482 0017 04       		.sleb128 4
 1483 0018 58010000 		.4byte	.LCFI25-.Ltext0
 1484 001c 5A010000 		.4byte	.LCFI26-.Ltext0
 1485 0020 0200     		.2byte	0x2
 1486 0022 7D       		.byte	0x7d
 1487 0023 10       		.sleb128 16
 1488 0024 5A010000 		.4byte	.LCFI26-.Ltext0
 1489 0028 80010000 		.4byte	.LCFI27-.Ltext0
 1490 002c 0200     		.2byte	0x2
 1491 002e 77       		.byte	0x77
ARM GAS  G:\Users\Jaxb\AppData\Local\Temp\ccojrPnU.s 			page 31


 1492 002f 10       		.sleb128 16
 1493 0030 80010000 		.4byte	.LCFI27-.Ltext0
 1494 0034 82010000 		.4byte	.LCFI28-.Ltext0
 1495 0038 0200     		.2byte	0x2
 1496 003a 77       		.byte	0x77
 1497 003b 04       		.sleb128 4
 1498 003c 82010000 		.4byte	.LCFI28-.Ltext0
 1499 0040 84010000 		.4byte	.LCFI29-.Ltext0
 1500 0044 0200     		.2byte	0x2
 1501 0046 7D       		.byte	0x7d
 1502 0047 04       		.sleb128 4
 1503 0048 84010000 		.4byte	.LCFI29-.Ltext0
 1504 004c 8C010000 		.4byte	.LFE33-.Ltext0
 1505 0050 0200     		.2byte	0x2
 1506 0052 7D       		.byte	0x7d
 1507 0053 00       		.sleb128 0
 1508 0054 00000000 		.4byte	0
 1509 0058 00000000 		.4byte	0
 1510              	.LLST3:
 1511 005c 14010000 		.4byte	.LFB32-.Ltext0
 1512 0060 16010000 		.4byte	.LCFI18-.Ltext0
 1513 0064 0200     		.2byte	0x2
 1514 0066 7D       		.byte	0x7d
 1515 0067 00       		.sleb128 0
 1516 0068 16010000 		.4byte	.LCFI18-.Ltext0
 1517 006c 18010000 		.4byte	.LCFI19-.Ltext0
 1518 0070 0200     		.2byte	0x2
 1519 0072 7D       		.byte	0x7d
 1520 0073 04       		.sleb128 4
 1521 0074 18010000 		.4byte	.LCFI19-.Ltext0
 1522 0078 1A010000 		.4byte	.LCFI20-.Ltext0
 1523 007c 0200     		.2byte	0x2
 1524 007e 7D       		.byte	0x7d
 1525 007f 10       		.sleb128 16
 1526 0080 1A010000 		.4byte	.LCFI20-.Ltext0
 1527 0084 4A010000 		.4byte	.LCFI21-.Ltext0
 1528 0088 0200     		.2byte	0x2
 1529 008a 77       		.byte	0x77
 1530 008b 10       		.sleb128 16
 1531 008c 4A010000 		.4byte	.LCFI21-.Ltext0
 1532 0090 4C010000 		.4byte	.LCFI22-.Ltext0
 1533 0094 0200     		.2byte	0x2
 1534 0096 77       		.byte	0x77
 1535 0097 04       		.sleb128 4
 1536 0098 4C010000 		.4byte	.LCFI22-.Ltext0
 1537 009c 4E010000 		.4byte	.LCFI23-.Ltext0
 1538 00a0 0200     		.2byte	0x2
 1539 00a2 7D       		.byte	0x7d
 1540 00a3 04       		.sleb128 4
 1541 00a4 4E010000 		.4byte	.LCFI23-.Ltext0
 1542 00a8 54010000 		.4byte	.LFE32-.Ltext0
 1543 00ac 0200     		.2byte	0x2
 1544 00ae 7D       		.byte	0x7d
 1545 00af 00       		.sleb128 0
 1546 00b0 00000000 		.4byte	0
 1547 00b4 00000000 		.4byte	0
 1548              	.LLST2:
ARM GAS  G:\Users\Jaxb\AppData\Local\Temp\ccojrPnU.s 			page 32


 1549 00b8 E8000000 		.4byte	.LFB31-.Ltext0
 1550 00bc EA000000 		.4byte	.LCFI12-.Ltext0
 1551 00c0 0200     		.2byte	0x2
 1552 00c2 7D       		.byte	0x7d
 1553 00c3 00       		.sleb128 0
 1554 00c4 EA000000 		.4byte	.LCFI12-.Ltext0
 1555 00c8 EC000000 		.4byte	.LCFI13-.Ltext0
 1556 00cc 0200     		.2byte	0x2
 1557 00ce 7D       		.byte	0x7d
 1558 00cf 04       		.sleb128 4
 1559 00d0 EC000000 		.4byte	.LCFI13-.Ltext0
 1560 00d4 EE000000 		.4byte	.LCFI14-.Ltext0
 1561 00d8 0200     		.2byte	0x2
 1562 00da 7D       		.byte	0x7d
 1563 00db 10       		.sleb128 16
 1564 00dc EE000000 		.4byte	.LCFI14-.Ltext0
 1565 00e0 08010000 		.4byte	.LCFI15-.Ltext0
 1566 00e4 0200     		.2byte	0x2
 1567 00e6 77       		.byte	0x77
 1568 00e7 10       		.sleb128 16
 1569 00e8 08010000 		.4byte	.LCFI15-.Ltext0
 1570 00ec 0A010000 		.4byte	.LCFI16-.Ltext0
 1571 00f0 0200     		.2byte	0x2
 1572 00f2 77       		.byte	0x77
 1573 00f3 04       		.sleb128 4
 1574 00f4 0A010000 		.4byte	.LCFI16-.Ltext0
 1575 00f8 0C010000 		.4byte	.LCFI17-.Ltext0
 1576 00fc 0200     		.2byte	0x2
 1577 00fe 7D       		.byte	0x7d
 1578 00ff 04       		.sleb128 4
 1579 0100 0C010000 		.4byte	.LCFI17-.Ltext0
 1580 0104 14010000 		.4byte	.LFE31-.Ltext0
 1581 0108 0200     		.2byte	0x2
 1582 010a 7D       		.byte	0x7d
 1583 010b 00       		.sleb128 0
 1584 010c 00000000 		.4byte	0
 1585 0110 00000000 		.4byte	0
 1586              	.LLST1:
 1587 0114 24000000 		.4byte	.LFB30-.Ltext0
 1588 0118 26000000 		.4byte	.LCFI6-.Ltext0
 1589 011c 0200     		.2byte	0x2
 1590 011e 7D       		.byte	0x7d
 1591 011f 00       		.sleb128 0
 1592 0120 26000000 		.4byte	.LCFI6-.Ltext0
 1593 0124 28000000 		.4byte	.LCFI7-.Ltext0
 1594 0128 0200     		.2byte	0x2
 1595 012a 7D       		.byte	0x7d
 1596 012b 04       		.sleb128 4
 1597 012c 28000000 		.4byte	.LCFI7-.Ltext0
 1598 0130 2A000000 		.4byte	.LCFI8-.Ltext0
 1599 0134 0200     		.2byte	0x2
 1600 0136 7D       		.byte	0x7d
 1601 0137 20       		.sleb128 32
 1602 0138 2A000000 		.4byte	.LCFI8-.Ltext0
 1603 013c DA000000 		.4byte	.LCFI9-.Ltext0
 1604 0140 0200     		.2byte	0x2
 1605 0142 77       		.byte	0x77
ARM GAS  G:\Users\Jaxb\AppData\Local\Temp\ccojrPnU.s 			page 33


 1606 0143 20       		.sleb128 32
 1607 0144 DA000000 		.4byte	.LCFI9-.Ltext0
 1608 0148 DC000000 		.4byte	.LCFI10-.Ltext0
 1609 014c 0200     		.2byte	0x2
 1610 014e 77       		.byte	0x77
 1611 014f 04       		.sleb128 4
 1612 0150 DC000000 		.4byte	.LCFI10-.Ltext0
 1613 0154 DE000000 		.4byte	.LCFI11-.Ltext0
 1614 0158 0200     		.2byte	0x2
 1615 015a 7D       		.byte	0x7d
 1616 015b 04       		.sleb128 4
 1617 015c DE000000 		.4byte	.LCFI11-.Ltext0
 1618 0160 E8000000 		.4byte	.LFE30-.Ltext0
 1619 0164 0200     		.2byte	0x2
 1620 0166 7D       		.byte	0x7d
 1621 0167 00       		.sleb128 0
 1622 0168 00000000 		.4byte	0
 1623 016c 00000000 		.4byte	0
 1624              	.LLST0:
 1625 0170 00000000 		.4byte	.LFB29-.Ltext0
 1626 0174 02000000 		.4byte	.LCFI0-.Ltext0
 1627 0178 0200     		.2byte	0x2
 1628 017a 7D       		.byte	0x7d
 1629 017b 00       		.sleb128 0
 1630 017c 02000000 		.4byte	.LCFI0-.Ltext0
 1631 0180 04000000 		.4byte	.LCFI1-.Ltext0
 1632 0184 0200     		.2byte	0x2
 1633 0186 7D       		.byte	0x7d
 1634 0187 04       		.sleb128 4
 1635 0188 04000000 		.4byte	.LCFI1-.Ltext0
 1636 018c 06000000 		.4byte	.LCFI2-.Ltext0
 1637 0190 0200     		.2byte	0x2
 1638 0192 7D       		.byte	0x7d
 1639 0193 10       		.sleb128 16
 1640 0194 06000000 		.4byte	.LCFI2-.Ltext0
 1641 0198 1A000000 		.4byte	.LCFI3-.Ltext0
 1642 019c 0200     		.2byte	0x2
 1643 019e 77       		.byte	0x77
 1644 019f 10       		.sleb128 16
 1645 01a0 1A000000 		.4byte	.LCFI3-.Ltext0
 1646 01a4 1C000000 		.4byte	.LCFI4-.Ltext0
 1647 01a8 0200     		.2byte	0x2
 1648 01aa 77       		.byte	0x77
 1649 01ab 04       		.sleb128 4
 1650 01ac 1C000000 		.4byte	.LCFI4-.Ltext0
 1651 01b0 1E000000 		.4byte	.LCFI5-.Ltext0
 1652 01b4 0200     		.2byte	0x2
 1653 01b6 7D       		.byte	0x7d
 1654 01b7 04       		.sleb128 4
 1655 01b8 1E000000 		.4byte	.LCFI5-.Ltext0
 1656 01bc 24000000 		.4byte	.LFE29-.Ltext0
 1657 01c0 0200     		.2byte	0x2
 1658 01c2 7D       		.byte	0x7d
 1659 01c3 00       		.sleb128 0
 1660 01c4 00000000 		.4byte	0
 1661 01c8 00000000 		.4byte	0
 1662              		.section	.debug_aranges,"",%progbits
ARM GAS  G:\Users\Jaxb\AppData\Local\Temp\ccojrPnU.s 			page 34


 1663 0000 1C000000 		.4byte	0x1c
 1664 0004 0200     		.2byte	0x2
 1665 0006 00000000 		.4byte	.Ldebug_info0
 1666 000a 04       		.byte	0x4
 1667 000b 00       		.byte	0
 1668 000c 0000     		.2byte	0
 1669 000e 0000     		.2byte	0
 1670 0010 00000000 		.4byte	.Ltext0
 1671 0014 8C010000 		.4byte	.Letext0-.Ltext0
 1672 0018 00000000 		.4byte	0
 1673 001c 00000000 		.4byte	0
 1674              		.section	.debug_line,"",%progbits
 1675              	.Ldebug_line0:
 1676 0000 61010000 		.section	.debug_str,"MS",%progbits,1
 1676      02001C01 
 1676      00000201 
 1676      FB0E0D00 
 1676      01010101 
 1677              	.LASF21:
 1678 0000 49414252 		.ascii	"IABR\000"
 1678      00
 1679              	.LASF53:
 1680 0005 4E564943 		.ascii	"NVIC_InitTypeDef\000"
 1680      5F496E69 
 1680      74547970 
 1680      65446566 
 1680      00
 1681              	.LASF52:
 1682 0016 4E564943 		.ascii	"NVIC_IRQChannelCmd\000"
 1682      5F495251 
 1682      4368616E 
 1682      6E656C43 
 1682      6D6400
 1683              	.LASF56:
 1684 0029 53797354 		.ascii	"SysTick_CLKSource\000"
 1684      69636B5F 
 1684      434C4B53 
 1684      6F757263 
 1684      6500
 1685              	.LASF63:
 1686 003b 4E564943 		.ascii	"NVIC_InitStruct\000"
 1686      5F496E69 
 1686      74537472 
 1686      75637400 
 1687              	.LASF54:
 1688 004b 53797354 		.ascii	"SysTick_CLKSourceConfig\000"
 1688      69636B5F 
 1688      434C4B53 
 1688      6F757263 
 1688      65436F6E 
 1689              	.LASF2:
 1690 0063 73686F72 		.ascii	"short int\000"
 1690      7420696E 
 1690      7400
 1691              	.LASF59:
 1692 006d 4E564943 		.ascii	"NVIC_SetVectorTable\000"
 1692      5F536574 
ARM GAS  G:\Users\Jaxb\AppData\Local\Temp\ccojrPnU.s 			page 35


 1692      56656374 
 1692      6F725461 
 1692      626C6500 
 1693              	.LASF62:
 1694 0081 4E564943 		.ascii	"NVIC_Init\000"
 1694      5F496E69 
 1694      7400
 1695              	.LASF65:
 1696 008b 746D7070 		.ascii	"tmppre\000"
 1696      726500
 1697              	.LASF6:
 1698 0092 5F5F7569 		.ascii	"__uint32_t\000"
 1698      6E743332 
 1698      5F7400
 1699              	.LASF26:
 1700 009d 43505549 		.ascii	"CPUID\000"
 1700      4400
 1701              	.LASF14:
 1702 00a3 52455345 		.ascii	"RESERVED0\000"
 1702      52564544 
 1702      3000
 1703              	.LASF11:
 1704 00ad 75696E74 		.ascii	"uint8_t\000"
 1704      385F7400 
 1705              	.LASF67:
 1706 00b5 4E564943 		.ascii	"NVIC_PriorityGroup\000"
 1706      5F507269 
 1706      6F726974 
 1706      7947726F 
 1706      757000
 1707              	.LASF58:
 1708 00c8 4E657753 		.ascii	"NewState\000"
 1708      74617465 
 1708      00
 1709              	.LASF24:
 1710 00d1 53544952 		.ascii	"STIR\000"
 1710      00
 1711              	.LASF46:
 1712 00d6 44495341 		.ascii	"DISABLE\000"
 1712      424C4500 
 1713              	.LASF27:
 1714 00de 49435352 		.ascii	"ICSR\000"
 1714      00
 1715              	.LASF16:
 1716 00e3 52534552 		.ascii	"RSERVED1\000"
 1716      56454431 
 1716      00
 1717              	.LASF70:
 1718 00ec 463A5C6B 		.ascii	"F:\\kaka\\KAKAOS\\C\\windows\\Project\\RVMDK\243\250"
 1718      616B615C 
 1718      4B414B41 
 1718      4F535C43 
 1718      5C77696E 
 1719 0114 757635A3 		.ascii	"uv5\243\251\000"
 1719      A900
 1720              	.LASF8:
 1721 011a 6C6F6E67 		.ascii	"long long int\000"
ARM GAS  G:\Users\Jaxb\AppData\Local\Temp\ccojrPnU.s 			page 36


 1721      206C6F6E 
 1721      6720696E 
 1721      7400
 1722              	.LASF42:
 1723 0128 43414C49 		.ascii	"CALIB\000"
 1723      4200
 1724              	.LASF28:
 1725 012e 56544F52 		.ascii	"VTOR\000"
 1725      00
 1726              	.LASF35:
 1727 0133 42464152 		.ascii	"BFAR\000"
 1727      00
 1728              	.LASF4:
 1729 0138 6C6F6E67 		.ascii	"long int\000"
 1729      20696E74 
 1729      00
 1730              	.LASF5:
 1731 0141 5F5F7569 		.ascii	"__uint8_t\000"
 1731      6E74385F 
 1731      7400
 1732              	.LASF31:
 1733 014b 43465352 		.ascii	"CFSR\000"
 1733      00
 1734              	.LASF1:
 1735 0150 756E7369 		.ascii	"unsigned char\000"
 1735      676E6564 
 1735      20636861 
 1735      7200
 1736              	.LASF29:
 1737 015e 41495243 		.ascii	"AIRCR\000"
 1737      5200
 1738              	.LASF39:
 1739 0164 5343425F 		.ascii	"SCB_Type\000"
 1739      54797065 
 1739      00
 1740              	.LASF68:
 1741 016d 474E5520 		.ascii	"GNU C11 7.3.1 20180622 (release) [ARM/embedded-7-br"
 1741      43313120 
 1741      372E332E 
 1741      31203230 
 1741      31383036 
 1742 01a0 616E6368 		.ascii	"anch revision 261907] -mcpu=cortex-m3 -mthumb -mapc"
 1742      20726576 
 1742      6973696F 
 1742      6E203236 
 1742      31393037 
 1743 01d3 732D6672 		.ascii	"s-frame -mthumb-interwork -mcpu=cortex-m3 -mthumb -"
 1743      616D6520 
 1743      2D6D7468 
 1743      756D622D 
 1743      696E7465 
 1744 0206 67647761 		.ascii	"gdwarf-2 -O0\000"
 1744      72662D32 
 1744      202D4F30 
 1744      00
 1745              	.LASF40:
 1746 0213 4354524C 		.ascii	"CTRL\000"
ARM GAS  G:\Users\Jaxb\AppData\Local\Temp\ccojrPnU.s 			page 37


 1746      00
 1747              	.LASF25:
 1748 0218 4E564943 		.ascii	"NVIC_Type\000"
 1748      5F547970 
 1748      6500
 1749              	.LASF19:
 1750 0222 49435052 		.ascii	"ICPR\000"
 1750      00
 1751              	.LASF0:
 1752 0227 7369676E 		.ascii	"signed char\000"
 1752      65642063 
 1752      68617200 
 1753              	.LASF9:
 1754 0233 6C6F6E67 		.ascii	"long long unsigned int\000"
 1754      206C6F6E 
 1754      6720756E 
 1754      7369676E 
 1754      65642069 
 1755              	.LASF12:
 1756 024a 75696E74 		.ascii	"uint32_t\000"
 1756      33325F74 
 1756      00
 1757              	.LASF10:
 1758 0253 756E7369 		.ascii	"unsigned int\000"
 1758      676E6564 
 1758      20696E74 
 1758      00
 1759              	.LASF69:
 1760 0260 2E2E2F2E 		.ascii	"../../source/src/FWlib/src/misc.c\000"
 1760      2E2F736F 
 1760      75726365 
 1760      2F737263 
 1760      2F46576C 
 1761              	.LASF30:
 1762 0282 53484353 		.ascii	"SHCSR\000"
 1762      5200
 1763              	.LASF34:
 1764 0288 4D4D4641 		.ascii	"MMFAR\000"
 1764      5200
 1765              	.LASF66:
 1766 028e 746D7073 		.ascii	"tmpsub\000"
 1766      756200
 1767              	.LASF55:
 1768 0295 4E564943 		.ascii	"NVIC_SystemLPConfig\000"
 1768      5F537973 
 1768      74656D4C 
 1768      50436F6E 
 1768      66696700 
 1769              	.LASF61:
 1770 02a9 4F666673 		.ascii	"Offset\000"
 1770      657400
 1771              	.LASF43:
 1772 02b0 53797354 		.ascii	"SysTick_Type\000"
 1772      69636B5F 
 1772      54797065 
 1772      00
 1773              	.LASF3:
ARM GAS  G:\Users\Jaxb\AppData\Local\Temp\ccojrPnU.s 			page 38


 1774 02bd 73686F72 		.ascii	"short unsigned int\000"
 1774      7420756E 
 1774      7369676E 
 1774      65642069 
 1774      6E7400
 1775              	.LASF64:
 1776 02d0 746D7070 		.ascii	"tmppriority\000"
 1776      72696F72 
 1776      69747900 
 1777              	.LASF38:
 1778 02dc 49534152 		.ascii	"ISAR\000"
 1778      00
 1779              	.LASF17:
 1780 02e1 49535052 		.ascii	"ISPR\000"
 1780      00
 1781              	.LASF33:
 1782 02e6 44465352 		.ascii	"DFSR\000"
 1782      00
 1783              	.LASF49:
 1784 02eb 4E564943 		.ascii	"NVIC_IRQChannel\000"
 1784      5F495251 
 1784      4368616E 
 1784      6E656C00 
 1785              	.LASF51:
 1786 02fb 4E564943 		.ascii	"NVIC_IRQChannelSubPriority\000"
 1786      5F495251 
 1786      4368616E 
 1786      6E656C53 
 1786      75625072 
 1787              	.LASF45:
 1788 0316 53797374 		.ascii	"SystemCoreClock\000"
 1788      656D436F 
 1788      7265436C 
 1788      6F636B00 
 1789              	.LASF32:
 1790 0326 48465352 		.ascii	"HFSR\000"
 1790      00
 1791              	.LASF15:
 1792 032b 49434552 		.ascii	"ICER\000"
 1792      00
 1793              	.LASF37:
 1794 0330 4D4D4652 		.ascii	"MMFR\000"
 1794      00
 1795              	.LASF13:
 1796 0335 49534552 		.ascii	"ISER\000"
 1796      00
 1797              	.LASF18:
 1798 033a 52455345 		.ascii	"RESERVED2\000"
 1798      52564544 
 1798      3200
 1799              	.LASF20:
 1800 0344 52455345 		.ascii	"RESERVED3\000"
 1800      52564544 
 1800      3300
 1801              	.LASF22:
 1802 034e 52455345 		.ascii	"RESERVED4\000"
 1802      52564544 
ARM GAS  G:\Users\Jaxb\AppData\Local\Temp\ccojrPnU.s 			page 39


 1802      3400
 1803              	.LASF23:
 1804 0358 52455345 		.ascii	"RESERVED5\000"
 1804      52564544 
 1804      3500
 1805              	.LASF7:
 1806 0362 6C6F6E67 		.ascii	"long unsigned int\000"
 1806      20756E73 
 1806      69676E65 
 1806      6420696E 
 1806      7400
 1807              	.LASF50:
 1808 0374 4E564943 		.ascii	"NVIC_IRQChannelPreemptionPriority\000"
 1808      5F495251 
 1808      4368616E 
 1808      6E656C50 
 1808      7265656D 
 1809              	.LASF48:
 1810 0396 46756E63 		.ascii	"FunctionalState\000"
 1810      74696F6E 
 1810      616C5374 
 1810      61746500 
 1811              	.LASF60:
 1812 03a6 4E564943 		.ascii	"NVIC_VectTab\000"
 1812      5F566563 
 1812      74546162 
 1812      00
 1813              	.LASF41:
 1814 03b3 4C4F4144 		.ascii	"LOAD\000"
 1814      00
 1815              	.LASF36:
 1816 03b8 41465352 		.ascii	"AFSR\000"
 1816      00
 1817              	.LASF57:
 1818 03bd 4C6F7750 		.ascii	"LowPowerMode\000"
 1818      6F776572 
 1818      4D6F6465 
 1818      00
 1819              	.LASF44:
 1820 03ca 49544D5F 		.ascii	"ITM_RxBuffer\000"
 1820      52784275 
 1820      66666572 
 1820      00
 1821              	.LASF47:
 1822 03d7 454E4142 		.ascii	"ENABLE\000"
 1822      4C4500
 1823              	.LASF71:
 1824 03de 4E564943 		.ascii	"NVIC_PriorityGroupConfig\000"
 1824      5F507269 
 1824      6F726974 
 1824      7947726F 
 1824      7570436F 
 1825              		.ident	"GCC: (GNU Tools for Arm Embedded Processors 7-2018-q2-update) 7.3.1 20180622 (release) [AR
ARM GAS  G:\Users\Jaxb\AppData\Local\Temp\ccojrPnU.s 			page 40


DEFINED SYMBOLS
                            *ABS*:00000000 misc.c
G:\Users\Jaxb\AppData\Local\Temp\ccojrPnU.s:15     .text:00000000 $t
G:\Users\Jaxb\AppData\Local\Temp\ccojrPnU.s:22     .text:00000000 NVIC_PriorityGroupConfig
G:\Users\Jaxb\AppData\Local\Temp\ccojrPnU.s:64     .text:00000020 $d
G:\Users\Jaxb\AppData\Local\Temp\ccojrPnU.s:68     .text:00000024 $t
G:\Users\Jaxb\AppData\Local\Temp\ccojrPnU.s:75     .text:00000024 NVIC_Init
G:\Users\Jaxb\AppData\Local\Temp\ccojrPnU.s:204    .text:000000e0 $d
G:\Users\Jaxb\AppData\Local\Temp\ccojrPnU.s:209    .text:000000e8 $t
G:\Users\Jaxb\AppData\Local\Temp\ccojrPnU.s:216    .text:000000e8 NVIC_SetVectorTable
G:\Users\Jaxb\AppData\Local\Temp\ccojrPnU.s:260    .text:00000110 $d
G:\Users\Jaxb\AppData\Local\Temp\ccojrPnU.s:264    .text:00000114 $t
G:\Users\Jaxb\AppData\Local\Temp\ccojrPnU.s:271    .text:00000114 NVIC_SystemLPConfig
G:\Users\Jaxb\AppData\Local\Temp\ccojrPnU.s:333    .text:00000150 $d
G:\Users\Jaxb\AppData\Local\Temp\ccojrPnU.s:337    .text:00000154 $t
G:\Users\Jaxb\AppData\Local\Temp\ccojrPnU.s:344    .text:00000154 SysTick_CLKSourceConfig
G:\Users\Jaxb\AppData\Local\Temp\ccojrPnU.s:399    .text:00000188 $d

NO UNDEFINED SYMBOLS
