ARM GAS  G:\Users\Jaxb\AppData\Local\Temp\ccU94aZx.s 			page 1


   1              		.cpu cortex-m3
   2              		.eabi_attribute 20, 1
   3              		.eabi_attribute 21, 1
   4              		.eabi_attribute 23, 3
   5              		.eabi_attribute 24, 1
   6              		.eabi_attribute 25, 1
   7              		.eabi_attribute 26, 1
   8              		.eabi_attribute 30, 2
   9              		.eabi_attribute 34, 1
  10              		.eabi_attribute 18, 4
  11              		.file	"misc.c"
  12              		.text
  13              	.Ltext0:
  14              		.cfi_sections	.debug_frame
  15              		.align	1
  16              		.p2align 2,,3
  17              		.global	NVIC_PriorityGroupConfig
  18              		.syntax unified
  19              		.thumb
  20              		.thumb_func
  21              		.fpu softvfp
  22              		.type	NVIC_PriorityGroupConfig, %function
  23              	NVIC_PriorityGroupConfig:
  24              	.LFB29:
  25              		.file 1 "../../source/src/FWlib/src/misc.c"
   1:../../source/src/FWlib/src/misc.c **** /**
   2:../../source/src/FWlib/src/misc.c ****   ******************************************************************************
   3:../../source/src/FWlib/src/misc.c ****   * @file    misc.c
   4:../../source/src/FWlib/src/misc.c ****   * @author  MCD Application Team
   5:../../source/src/FWlib/src/misc.c ****   * @version V3.5.0
   6:../../source/src/FWlib/src/misc.c ****   * @date    11-March-2011
   7:../../source/src/FWlib/src/misc.c ****   * @brief   This file provides all the miscellaneous firmware functions (add-on
   8:../../source/src/FWlib/src/misc.c ****   *          to CMSIS functions).
   9:../../source/src/FWlib/src/misc.c ****   ******************************************************************************
  10:../../source/src/FWlib/src/misc.c ****   * @attention
  11:../../source/src/FWlib/src/misc.c ****   *
  12:../../source/src/FWlib/src/misc.c ****   * THE PRESENT FIRMWARE WHICH IS FOR GUIDANCE ONLY AIMS AT PROVIDING CUSTOMERS
  13:../../source/src/FWlib/src/misc.c ****   * WITH CODING INFORMATION REGARDING THEIR PRODUCTS IN ORDER FOR THEM TO SAVE
  14:../../source/src/FWlib/src/misc.c ****   * TIME. AS A RESULT, STMICROELECTRONICS SHALL NOT BE HELD LIABLE FOR ANY
  15:../../source/src/FWlib/src/misc.c ****   * DIRECT, INDIRECT OR CONSEQUENTIAL DAMAGES WITH RESPECT TO ANY CLAIMS ARISING
  16:../../source/src/FWlib/src/misc.c ****   * FROM THE CONTENT OF SUCH FIRMWARE AND/OR THE USE MADE BY CUSTOMERS OF THE
  17:../../source/src/FWlib/src/misc.c ****   * CODING INFORMATION CONTAINED HEREIN IN CONNECTION WITH THEIR PRODUCTS.
  18:../../source/src/FWlib/src/misc.c ****   *
  19:../../source/src/FWlib/src/misc.c ****   * <h2><center>&copy; COPYRIGHT 2011 STMicroelectronics</center></h2>
  20:../../source/src/FWlib/src/misc.c ****   ******************************************************************************
  21:../../source/src/FWlib/src/misc.c ****   */
  22:../../source/src/FWlib/src/misc.c **** 
  23:../../source/src/FWlib/src/misc.c **** /* Includes ------------------------------------------------------------------*/
  24:../../source/src/FWlib/src/misc.c **** #include "misc.h"
  25:../../source/src/FWlib/src/misc.c **** 
  26:../../source/src/FWlib/src/misc.c **** /** @addtogroup STM32F10x_StdPeriph_Driver
  27:../../source/src/FWlib/src/misc.c ****   * @{
  28:../../source/src/FWlib/src/misc.c ****   */
  29:../../source/src/FWlib/src/misc.c **** 
  30:../../source/src/FWlib/src/misc.c **** /** @defgroup MISC 
  31:../../source/src/FWlib/src/misc.c ****   * @brief MISC driver modules
  32:../../source/src/FWlib/src/misc.c ****   * @{
ARM GAS  G:\Users\Jaxb\AppData\Local\Temp\ccU94aZx.s 			page 2


  33:../../source/src/FWlib/src/misc.c ****   */
  34:../../source/src/FWlib/src/misc.c **** 
  35:../../source/src/FWlib/src/misc.c **** /** @defgroup MISC_Private_TypesDefinitions
  36:../../source/src/FWlib/src/misc.c ****   * @{
  37:../../source/src/FWlib/src/misc.c ****   */
  38:../../source/src/FWlib/src/misc.c **** 
  39:../../source/src/FWlib/src/misc.c **** /**
  40:../../source/src/FWlib/src/misc.c ****   * @}
  41:../../source/src/FWlib/src/misc.c ****   */ 
  42:../../source/src/FWlib/src/misc.c **** 
  43:../../source/src/FWlib/src/misc.c **** /** @defgroup MISC_Private_Defines
  44:../../source/src/FWlib/src/misc.c ****   * @{
  45:../../source/src/FWlib/src/misc.c ****   */
  46:../../source/src/FWlib/src/misc.c **** 
  47:../../source/src/FWlib/src/misc.c **** #define AIRCR_VECTKEY_MASK    ((uint32_t)0x05FA0000)
  48:../../source/src/FWlib/src/misc.c **** /**
  49:../../source/src/FWlib/src/misc.c ****   * @}
  50:../../source/src/FWlib/src/misc.c ****   */
  51:../../source/src/FWlib/src/misc.c **** 
  52:../../source/src/FWlib/src/misc.c **** /** @defgroup MISC_Private_Macros
  53:../../source/src/FWlib/src/misc.c ****   * @{
  54:../../source/src/FWlib/src/misc.c ****   */
  55:../../source/src/FWlib/src/misc.c **** 
  56:../../source/src/FWlib/src/misc.c **** /**
  57:../../source/src/FWlib/src/misc.c ****   * @}
  58:../../source/src/FWlib/src/misc.c ****   */
  59:../../source/src/FWlib/src/misc.c **** 
  60:../../source/src/FWlib/src/misc.c **** /** @defgroup MISC_Private_Variables
  61:../../source/src/FWlib/src/misc.c ****   * @{
  62:../../source/src/FWlib/src/misc.c ****   */
  63:../../source/src/FWlib/src/misc.c **** 
  64:../../source/src/FWlib/src/misc.c **** /**
  65:../../source/src/FWlib/src/misc.c ****   * @}
  66:../../source/src/FWlib/src/misc.c ****   */
  67:../../source/src/FWlib/src/misc.c **** 
  68:../../source/src/FWlib/src/misc.c **** /** @defgroup MISC_Private_FunctionPrototypes
  69:../../source/src/FWlib/src/misc.c ****   * @{
  70:../../source/src/FWlib/src/misc.c ****   */
  71:../../source/src/FWlib/src/misc.c **** 
  72:../../source/src/FWlib/src/misc.c **** /**
  73:../../source/src/FWlib/src/misc.c ****   * @}
  74:../../source/src/FWlib/src/misc.c ****   */
  75:../../source/src/FWlib/src/misc.c **** 
  76:../../source/src/FWlib/src/misc.c **** /** @defgroup MISC_Private_Functions
  77:../../source/src/FWlib/src/misc.c ****   * @{
  78:../../source/src/FWlib/src/misc.c ****   */
  79:../../source/src/FWlib/src/misc.c **** 
  80:../../source/src/FWlib/src/misc.c **** /**
  81:../../source/src/FWlib/src/misc.c ****   * @brief  Configures the priority grouping: pre-emption priority and subpriority.
  82:../../source/src/FWlib/src/misc.c ****   * @param  NVIC_PriorityGroup: specifies the priority grouping bits length. 
  83:../../source/src/FWlib/src/misc.c ****   *   This parameter can be one of the following values:
  84:../../source/src/FWlib/src/misc.c ****   *     @arg NVIC_PriorityGroup_0: 0 bits for pre-emption priority
  85:../../source/src/FWlib/src/misc.c ****   *                                4 bits for subpriority
  86:../../source/src/FWlib/src/misc.c ****   *     @arg NVIC_PriorityGroup_1: 1 bits for pre-emption priority
  87:../../source/src/FWlib/src/misc.c ****   *                                3 bits for subpriority
  88:../../source/src/FWlib/src/misc.c ****   *     @arg NVIC_PriorityGroup_2: 2 bits for pre-emption priority
  89:../../source/src/FWlib/src/misc.c ****   *                                2 bits for subpriority
ARM GAS  G:\Users\Jaxb\AppData\Local\Temp\ccU94aZx.s 			page 3


  90:../../source/src/FWlib/src/misc.c ****   *     @arg NVIC_PriorityGroup_3: 3 bits for pre-emption priority
  91:../../source/src/FWlib/src/misc.c ****   *                                1 bits for subpriority
  92:../../source/src/FWlib/src/misc.c ****   *     @arg NVIC_PriorityGroup_4: 4 bits for pre-emption priority
  93:../../source/src/FWlib/src/misc.c ****   *                                0 bits for subpriority
  94:../../source/src/FWlib/src/misc.c ****   * @retval None
  95:../../source/src/FWlib/src/misc.c ****   */
  96:../../source/src/FWlib/src/misc.c **** void NVIC_PriorityGroupConfig(uint32_t NVIC_PriorityGroup)
  97:../../source/src/FWlib/src/misc.c **** {
  26              		.loc 1 97 0
  27              		.cfi_startproc
  28              		@ args = 0, pretend = 0, frame = 0
  29              		@ frame_needed = 0, uses_anonymous_args = 0
  30              		@ link register save eliminated.
  31              	.LVL0:
  98:../../source/src/FWlib/src/misc.c ****   /* Check the parameters */
  99:../../source/src/FWlib/src/misc.c ****   assert_param(IS_NVIC_PRIORITY_GROUP(NVIC_PriorityGroup));
 100:../../source/src/FWlib/src/misc.c ****   
 101:../../source/src/FWlib/src/misc.c ****   /* Set the PRIGROUP[10:8] bits according to NVIC_PriorityGroup value */
 102:../../source/src/FWlib/src/misc.c ****   SCB->AIRCR = AIRCR_VECTKEY_MASK | NVIC_PriorityGroup;
  32              		.loc 1 102 0
  33 0000 40F0BF60 		orr	r0, r0, #100139008
  34              	.LVL1:
  35 0004 024B     		ldr	r3, .L3
  36 0006 40F40030 		orr	r0, r0, #131072
  37 000a D860     		str	r0, [r3, #12]
 103:../../source/src/FWlib/src/misc.c **** }
  38              		.loc 1 103 0
  39 000c 7047     		bx	lr
  40              	.L4:
  41 000e 00BF     		.align	2
  42              	.L3:
  43 0010 00ED00E0 		.word	-536810240
  44              		.cfi_endproc
  45              	.LFE29:
  46              		.size	NVIC_PriorityGroupConfig, .-NVIC_PriorityGroupConfig
  47              		.align	1
  48              		.p2align 2,,3
  49              		.global	NVIC_Init
  50              		.syntax unified
  51              		.thumb
  52              		.thumb_func
  53              		.fpu softvfp
  54              		.type	NVIC_Init, %function
  55              	NVIC_Init:
  56              	.LFB30:
 104:../../source/src/FWlib/src/misc.c **** 
 105:../../source/src/FWlib/src/misc.c **** /**
 106:../../source/src/FWlib/src/misc.c ****   * @brief  Initializes the NVIC peripheral according to the specified
 107:../../source/src/FWlib/src/misc.c ****   *         parameters in the NVIC_InitStruct.
 108:../../source/src/FWlib/src/misc.c ****   * @param  NVIC_InitStruct: pointer to a NVIC_InitTypeDef structure that contains
 109:../../source/src/FWlib/src/misc.c ****   *         the configuration information for the specified NVIC peripheral.
 110:../../source/src/FWlib/src/misc.c ****   * @retval None
 111:../../source/src/FWlib/src/misc.c ****   */
 112:../../source/src/FWlib/src/misc.c **** void NVIC_Init(NVIC_InitTypeDef* NVIC_InitStruct)
 113:../../source/src/FWlib/src/misc.c **** {
  57              		.loc 1 113 0
  58              		.cfi_startproc
ARM GAS  G:\Users\Jaxb\AppData\Local\Temp\ccU94aZx.s 			page 4


  59              		@ args = 0, pretend = 0, frame = 0
  60              		@ frame_needed = 0, uses_anonymous_args = 0
  61              		@ link register save eliminated.
  62              	.LVL2:
  63 0014 F0B4     		push	{r4, r5, r6, r7}
  64              	.LCFI0:
  65              		.cfi_def_cfa_offset 16
  66              		.cfi_offset 4, -16
  67              		.cfi_offset 5, -12
  68              		.cfi_offset 6, -8
  69              		.cfi_offset 7, -4
  70 0016 0124     		movs	r4, #1
  71 0018 0178     		ldrb	r1, [r0]	@ zero_extendqisi2
 114:../../source/src/FWlib/src/misc.c ****   uint32_t tmppriority = 0x00, tmppre = 0x00, tmpsub = 0x0F;
 115:../../source/src/FWlib/src/misc.c ****   
 116:../../source/src/FWlib/src/misc.c ****   /* Check the parameters */
 117:../../source/src/FWlib/src/misc.c ****   assert_param(IS_FUNCTIONAL_STATE(NVIC_InitStruct->NVIC_IRQChannelCmd));
 118:../../source/src/FWlib/src/misc.c ****   assert_param(IS_NVIC_PREEMPTION_PRIORITY(NVIC_InitStruct->NVIC_IRQChannelPreemptionPriority));  
 119:../../source/src/FWlib/src/misc.c ****   assert_param(IS_NVIC_SUB_PRIORITY(NVIC_InitStruct->NVIC_IRQChannelSubPriority));
 120:../../source/src/FWlib/src/misc.c ****     
 121:../../source/src/FWlib/src/misc.c ****   if (NVIC_InitStruct->NVIC_IRQChannelCmd != DISABLE)
  72              		.loc 1 121 0
  73 001a C378     		ldrb	r3, [r0, #3]	@ zero_extendqisi2
  74 001c 01F01F02 		and	r2, r1, #31
  75 0020 9440     		lsls	r4, r4, r2
  76 0022 4E09     		lsrs	r6, r1, #5
  77 0024 2BB9     		cbnz	r3, .L8
 122:../../source/src/FWlib/src/misc.c ****   {
 123:../../source/src/FWlib/src/misc.c ****     /* Compute the Corresponding IRQ Priority --------------------------------*/    
 124:../../source/src/FWlib/src/misc.c ****     tmppriority = (0x700 - ((SCB->AIRCR) & (uint32_t)0x700))>> 0x08;
 125:../../source/src/FWlib/src/misc.c ****     tmppre = (0x4 - tmppriority);
 126:../../source/src/FWlib/src/misc.c ****     tmpsub = tmpsub >> tmppriority;
 127:../../source/src/FWlib/src/misc.c **** 
 128:../../source/src/FWlib/src/misc.c ****     tmppriority = (uint32_t)NVIC_InitStruct->NVIC_IRQChannelPreemptionPriority << tmppre;
 129:../../source/src/FWlib/src/misc.c ****     tmppriority |=  NVIC_InitStruct->NVIC_IRQChannelSubPriority & tmpsub;
 130:../../source/src/FWlib/src/misc.c ****     tmppriority = tmppriority << 0x04;
 131:../../source/src/FWlib/src/misc.c ****         
 132:../../source/src/FWlib/src/misc.c ****     NVIC->IP[NVIC_InitStruct->NVIC_IRQChannel] = tmppriority;
 133:../../source/src/FWlib/src/misc.c ****     
 134:../../source/src/FWlib/src/misc.c ****     /* Enable the Selected IRQ Channels --------------------------------------*/
 135:../../source/src/FWlib/src/misc.c ****     NVIC->ISER[NVIC_InitStruct->NVIC_IRQChannel >> 0x05] =
 136:../../source/src/FWlib/src/misc.c ****       (uint32_t)0x01 << (NVIC_InitStruct->NVIC_IRQChannel & (uint8_t)0x1F);
 137:../../source/src/FWlib/src/misc.c ****   }
 138:../../source/src/FWlib/src/misc.c ****   else
 139:../../source/src/FWlib/src/misc.c ****   {
 140:../../source/src/FWlib/src/misc.c ****     /* Disable the Selected IRQ Channels -------------------------------------*/
 141:../../source/src/FWlib/src/misc.c ****     NVIC->ICER[NVIC_InitStruct->NVIC_IRQChannel >> 0x05] =
  78              		.loc 1 141 0
  79 0026 0F4B     		ldr	r3, .L9
  80 0028 2036     		adds	r6, r6, #32
  81 002a 43F82640 		str	r4, [r3, r6, lsl #2]
 142:../../source/src/FWlib/src/misc.c ****       (uint32_t)0x01 << (NVIC_InitStruct->NVIC_IRQChannel & (uint8_t)0x1F);
 143:../../source/src/FWlib/src/misc.c ****   }
 144:../../source/src/FWlib/src/misc.c **** }
  82              		.loc 1 144 0
  83 002e F0BC     		pop	{r4, r5, r6, r7}
  84              	.LCFI1:
ARM GAS  G:\Users\Jaxb\AppData\Local\Temp\ccU94aZx.s 			page 5


  85              		.cfi_remember_state
  86              		.cfi_restore 7
  87              		.cfi_restore 6
  88              		.cfi_restore 5
  89              		.cfi_restore 4
  90              		.cfi_def_cfa_offset 0
  91 0030 7047     		bx	lr
  92              	.L8:
  93              	.LCFI2:
  94              		.cfi_restore_state
 124:../../source/src/FWlib/src/misc.c ****     tmppre = (0x4 - tmppriority);
  95              		.loc 1 124 0
  96 0032 0D4B     		ldr	r3, .L9+4
 128:../../source/src/FWlib/src/misc.c ****     tmppriority |=  NVIC_InitStruct->NVIC_IRQChannelSubPriority & tmpsub;
  97              		.loc 1 128 0
  98 0034 4778     		ldrb	r7, [r0, #1]	@ zero_extendqisi2
 124:../../source/src/FWlib/src/misc.c ****     tmppre = (0x4 - tmppriority);
  99              		.loc 1 124 0
 100 0036 DD68     		ldr	r5, [r3, #12]
 129:../../source/src/FWlib/src/misc.c ****     tmppriority = tmppriority << 0x04;
 101              		.loc 1 129 0
 102 0038 8278     		ldrb	r2, [r0, #2]	@ zero_extendqisi2
 124:../../source/src/FWlib/src/misc.c ****     tmppre = (0x4 - tmppriority);
 103              		.loc 1 124 0
 104 003a E843     		mvns	r0, r5
 105              	.LVL3:
 126:../../source/src/FWlib/src/misc.c **** 
 106              		.loc 1 126 0
 107 003c 0F23     		movs	r3, #15
 124:../../source/src/FWlib/src/misc.c ****     tmppre = (0x4 - tmppriority);
 108              		.loc 1 124 0
 109 003e C0F30220 		ubfx	r0, r0, #8, #3
 110              	.LVL4:
 125:../../source/src/FWlib/src/misc.c ****     tmpsub = tmpsub >> tmppriority;
 111              		.loc 1 125 0
 112 0042 C0F10405 		rsb	r5, r0, #4
 113              	.LVL5:
 126:../../source/src/FWlib/src/misc.c **** 
 114              		.loc 1 126 0
 115 0046 C340     		lsrs	r3, r3, r0
 116              	.LVL6:
 128:../../source/src/FWlib/src/misc.c ****     tmppriority |=  NVIC_InitStruct->NVIC_IRQChannelSubPriority & tmpsub;
 117              		.loc 1 128 0
 118 0048 07FA05F5 		lsl	r5, r7, r5
 119              	.LVL7:
 129:../../source/src/FWlib/src/misc.c ****     tmppriority = tmppriority << 0x04;
 120              		.loc 1 129 0
 121 004c 1340     		ands	r3, r3, r2
 122              	.LVL8:
 123 004e 2B43     		orrs	r3, r3, r5
 124              	.LVL9:
 132:../../source/src/FWlib/src/misc.c ****     
 125              		.loc 1 132 0
 126 0050 044A     		ldr	r2, .L9
 130:../../source/src/FWlib/src/misc.c ****         
 127              		.loc 1 130 0
 128 0052 1B01     		lsls	r3, r3, #4
ARM GAS  G:\Users\Jaxb\AppData\Local\Temp\ccU94aZx.s 			page 6


 129              	.LVL10:
 132:../../source/src/FWlib/src/misc.c ****     
 130              		.loc 1 132 0
 131 0054 DBB2     		uxtb	r3, r3
 132              	.LVL11:
 133 0056 1144     		add	r1, r1, r2
 134 0058 81F80033 		strb	r3, [r1, #768]
 135              	.LVL12:
 135:../../source/src/FWlib/src/misc.c ****       (uint32_t)0x01 << (NVIC_InitStruct->NVIC_IRQChannel & (uint8_t)0x1F);
 136              		.loc 1 135 0
 137 005c 42F82640 		str	r4, [r2, r6, lsl #2]
 138              		.loc 1 144 0
 139 0060 F0BC     		pop	{r4, r5, r6, r7}
 140              	.LCFI3:
 141              		.cfi_restore 7
 142              		.cfi_restore 6
 143              		.cfi_restore 5
 144              		.cfi_restore 4
 145              		.cfi_def_cfa_offset 0
 146 0062 7047     		bx	lr
 147              	.L10:
 148              		.align	2
 149              	.L9:
 150 0064 00E100E0 		.word	-536813312
 151 0068 00ED00E0 		.word	-536810240
 152              		.cfi_endproc
 153              	.LFE30:
 154              		.size	NVIC_Init, .-NVIC_Init
 155              		.align	1
 156              		.p2align 2,,3
 157              		.global	NVIC_SetVectorTable
 158              		.syntax unified
 159              		.thumb
 160              		.thumb_func
 161              		.fpu softvfp
 162              		.type	NVIC_SetVectorTable, %function
 163              	NVIC_SetVectorTable:
 164              	.LFB31:
 145:../../source/src/FWlib/src/misc.c **** 
 146:../../source/src/FWlib/src/misc.c **** /**
 147:../../source/src/FWlib/src/misc.c ****   * @brief  Sets the vector table location and Offset.
 148:../../source/src/FWlib/src/misc.c ****   * @param  NVIC_VectTab: specifies if the vector table is in RAM or FLASH memory.
 149:../../source/src/FWlib/src/misc.c ****   *   This parameter can be one of the following values:
 150:../../source/src/FWlib/src/misc.c ****   *     @arg NVIC_VectTab_RAM
 151:../../source/src/FWlib/src/misc.c ****   *     @arg NVIC_VectTab_FLASH
 152:../../source/src/FWlib/src/misc.c ****   * @param  Offset: Vector Table base offset field. This value must be a multiple 
 153:../../source/src/FWlib/src/misc.c ****   *         of 0x200.
 154:../../source/src/FWlib/src/misc.c ****   * @retval None
 155:../../source/src/FWlib/src/misc.c ****   */
 156:../../source/src/FWlib/src/misc.c **** void NVIC_SetVectorTable(uint32_t NVIC_VectTab, uint32_t Offset)
 157:../../source/src/FWlib/src/misc.c **** { 
 165              		.loc 1 157 0
 166              		.cfi_startproc
 167              		@ args = 0, pretend = 0, frame = 0
 168              		@ frame_needed = 0, uses_anonymous_args = 0
 169              		@ link register save eliminated.
 170              	.LVL13:
ARM GAS  G:\Users\Jaxb\AppData\Local\Temp\ccU94aZx.s 			page 7


 158:../../source/src/FWlib/src/misc.c ****   /* Check the parameters */
 159:../../source/src/FWlib/src/misc.c ****   assert_param(IS_NVIC_VECTTAB(NVIC_VectTab));
 160:../../source/src/FWlib/src/misc.c ****   assert_param(IS_NVIC_OFFSET(Offset));  
 161:../../source/src/FWlib/src/misc.c ****    
 162:../../source/src/FWlib/src/misc.c ****   SCB->VTOR = NVIC_VectTab | (Offset & (uint32_t)0x1FFFFF80);
 171              		.loc 1 162 0
 172 006c 21F06041 		bic	r1, r1, #-536870912
 173              	.LVL14:
 174 0070 21F07F01 		bic	r1, r1, #127
 175 0074 014B     		ldr	r3, .L12
 176 0076 0143     		orrs	r1, r1, r0
 177 0078 9960     		str	r1, [r3, #8]
 163:../../source/src/FWlib/src/misc.c **** }
 178              		.loc 1 163 0
 179 007a 7047     		bx	lr
 180              	.L13:
 181              		.align	2
 182              	.L12:
 183 007c 00ED00E0 		.word	-536810240
 184              		.cfi_endproc
 185              	.LFE31:
 186              		.size	NVIC_SetVectorTable, .-NVIC_SetVectorTable
 187              		.align	1
 188              		.p2align 2,,3
 189              		.global	NVIC_SystemLPConfig
 190              		.syntax unified
 191              		.thumb
 192              		.thumb_func
 193              		.fpu softvfp
 194              		.type	NVIC_SystemLPConfig, %function
 195              	NVIC_SystemLPConfig:
 196              	.LFB32:
 164:../../source/src/FWlib/src/misc.c **** 
 165:../../source/src/FWlib/src/misc.c **** /**
 166:../../source/src/FWlib/src/misc.c ****   * @brief  Selects the condition for the system to enter low power mode.
 167:../../source/src/FWlib/src/misc.c ****   * @param  LowPowerMode: Specifies the new mode for the system to enter low power mode.
 168:../../source/src/FWlib/src/misc.c ****   *   This parameter can be one of the following values:
 169:../../source/src/FWlib/src/misc.c ****   *     @arg NVIC_LP_SEVONPEND
 170:../../source/src/FWlib/src/misc.c ****   *     @arg NVIC_LP_SLEEPDEEP
 171:../../source/src/FWlib/src/misc.c ****   *     @arg NVIC_LP_SLEEPONEXIT
 172:../../source/src/FWlib/src/misc.c ****   * @param  NewState: new state of LP condition. This parameter can be: ENABLE or DISABLE.
 173:../../source/src/FWlib/src/misc.c ****   * @retval None
 174:../../source/src/FWlib/src/misc.c ****   */
 175:../../source/src/FWlib/src/misc.c **** void NVIC_SystemLPConfig(uint8_t LowPowerMode, FunctionalState NewState)
 176:../../source/src/FWlib/src/misc.c **** {
 197              		.loc 1 176 0
 198              		.cfi_startproc
 199              		@ args = 0, pretend = 0, frame = 0
 200              		@ frame_needed = 0, uses_anonymous_args = 0
 201              		@ link register save eliminated.
 202              	.LVL15:
 177:../../source/src/FWlib/src/misc.c ****   /* Check the parameters */
 178:../../source/src/FWlib/src/misc.c ****   assert_param(IS_NVIC_LP(LowPowerMode));
 179:../../source/src/FWlib/src/misc.c ****   assert_param(IS_FUNCTIONAL_STATE(NewState));  
 180:../../source/src/FWlib/src/misc.c ****   
 181:../../source/src/FWlib/src/misc.c ****   if (NewState != DISABLE)
 182:../../source/src/FWlib/src/misc.c ****   {
ARM GAS  G:\Users\Jaxb\AppData\Local\Temp\ccU94aZx.s 			page 8


 183:../../source/src/FWlib/src/misc.c ****     SCB->SCR |= LowPowerMode;
 203              		.loc 1 183 0
 204 0080 044A     		ldr	r2, .L18
 205 0082 1369     		ldr	r3, [r2, #16]
 181:../../source/src/FWlib/src/misc.c ****   {
 206              		.loc 1 181 0
 207 0084 19B9     		cbnz	r1, .L17
 184:../../source/src/FWlib/src/misc.c ****   }
 185:../../source/src/FWlib/src/misc.c ****   else
 186:../../source/src/FWlib/src/misc.c ****   {
 187:../../source/src/FWlib/src/misc.c ****     SCB->SCR &= (uint32_t)(~(uint32_t)LowPowerMode);
 208              		.loc 1 187 0
 209 0086 23EA0000 		bic	r0, r3, r0
 210              	.LVL16:
 211 008a 1061     		str	r0, [r2, #16]
 188:../../source/src/FWlib/src/misc.c ****   }
 189:../../source/src/FWlib/src/misc.c **** }
 212              		.loc 1 189 0
 213 008c 7047     		bx	lr
 214              	.LVL17:
 215              	.L17:
 183:../../source/src/FWlib/src/misc.c ****   }
 216              		.loc 1 183 0
 217 008e 1843     		orrs	r0, r0, r3
 218              	.LVL18:
 219 0090 1061     		str	r0, [r2, #16]
 220 0092 7047     		bx	lr
 221              	.L19:
 222              		.align	2
 223              	.L18:
 224 0094 00ED00E0 		.word	-536810240
 225              		.cfi_endproc
 226              	.LFE32:
 227              		.size	NVIC_SystemLPConfig, .-NVIC_SystemLPConfig
 228              		.align	1
 229              		.p2align 2,,3
 230              		.global	SysTick_CLKSourceConfig
 231              		.syntax unified
 232              		.thumb
 233              		.thumb_func
 234              		.fpu softvfp
 235              		.type	SysTick_CLKSourceConfig, %function
 236              	SysTick_CLKSourceConfig:
 237              	.LFB33:
 190:../../source/src/FWlib/src/misc.c **** 
 191:../../source/src/FWlib/src/misc.c **** /**
 192:../../source/src/FWlib/src/misc.c ****   * @brief  Configures the SysTick clock source.
 193:../../source/src/FWlib/src/misc.c ****   * @param  SysTick_CLKSource: specifies the SysTick clock source.
 194:../../source/src/FWlib/src/misc.c ****   *   This parameter can be one of the following values:
 195:../../source/src/FWlib/src/misc.c ****   *     @arg SysTick_CLKSource_HCLK_Div8: AHB clock divided by 8 selected as SysTick clock source.
 196:../../source/src/FWlib/src/misc.c ****   *     @arg SysTick_CLKSource_HCLK: AHB clock selected as SysTick clock source.
 197:../../source/src/FWlib/src/misc.c ****   * @retval None
 198:../../source/src/FWlib/src/misc.c ****   */
 199:../../source/src/FWlib/src/misc.c **** void SysTick_CLKSourceConfig(uint32_t SysTick_CLKSource)
 200:../../source/src/FWlib/src/misc.c **** {
 238              		.loc 1 200 0
 239              		.cfi_startproc
ARM GAS  G:\Users\Jaxb\AppData\Local\Temp\ccU94aZx.s 			page 9


 240              		@ args = 0, pretend = 0, frame = 0
 241              		@ frame_needed = 0, uses_anonymous_args = 0
 242              		@ link register save eliminated.
 243              	.LVL19:
 201:../../source/src/FWlib/src/misc.c ****   /* Check the parameters */
 202:../../source/src/FWlib/src/misc.c ****   assert_param(IS_SYSTICK_CLK_SOURCE(SysTick_CLKSource));
 203:../../source/src/FWlib/src/misc.c ****   if (SysTick_CLKSource == SysTick_CLKSource_HCLK)
 204:../../source/src/FWlib/src/misc.c ****   {
 205:../../source/src/FWlib/src/misc.c ****     SysTick->CTRL |= SysTick_CLKSource_HCLK;
 244              		.loc 1 205 0
 245 0098 044A     		ldr	r2, .L23
 203:../../source/src/FWlib/src/misc.c ****   {
 246              		.loc 1 203 0
 247 009a 0428     		cmp	r0, #4
 248              		.loc 1 205 0
 249 009c 1368     		ldr	r3, [r2]
 250 009e 0CBF     		ite	eq
 251 00a0 43F00403 		orreq	r3, r3, #4
 206:../../source/src/FWlib/src/misc.c ****   }
 207:../../source/src/FWlib/src/misc.c ****   else
 208:../../source/src/FWlib/src/misc.c ****   {
 209:../../source/src/FWlib/src/misc.c ****     SysTick->CTRL &= SysTick_CLKSource_HCLK_Div8;
 252              		.loc 1 209 0
 253 00a4 23F00403 		bicne	r3, r3, #4
 254 00a8 1360     		str	r3, [r2]
 210:../../source/src/FWlib/src/misc.c ****   }
 211:../../source/src/FWlib/src/misc.c **** }
 255              		.loc 1 211 0
 256 00aa 7047     		bx	lr
 257              	.L24:
 258              		.align	2
 259              	.L23:
 260 00ac 10E000E0 		.word	-536813552
 261              		.cfi_endproc
 262              	.LFE33:
 263              		.size	SysTick_CLKSourceConfig, .-SysTick_CLKSourceConfig
 264              	.Letext0:
 265              		.file 2 "f:\\arm\\gcc2018\\arm-none-eabi\\include\\machine\\_default_types.h"
 266              		.file 3 "f:\\arm\\gcc2018\\arm-none-eabi\\include\\sys\\_stdint.h"
 267              		.file 4 "../../source/include/core_cm3.h"
 268              		.file 5 "../../source/include/system_stm32f10x.h"
 269              		.file 6 "../../source/include/stm32f10x.h"
 270              		.file 7 "../../source/src/FWlib/inc/misc.h"
 271              		.section	.debug_info,"",%progbits
 272              	.Ldebug_info0:
 273 0000 4E050000 		.4byte	0x54e
 274 0004 0200     		.2byte	0x2
 275 0006 00000000 		.4byte	.Ldebug_abbrev0
 276 000a 04       		.byte	0x4
 277 000b 01       		.uleb128 0x1
 278 000c 41030000 		.4byte	.LASF68
 279 0010 0C       		.byte	0xc
 280 0011 99010000 		.4byte	.LASF69
 281 0015 CF020000 		.4byte	.LASF70
 282 0019 00000000 		.4byte	.Ltext0
 283 001d B0000000 		.4byte	.Letext0
 284 0021 00000000 		.4byte	.Ldebug_line0
ARM GAS  G:\Users\Jaxb\AppData\Local\Temp\ccU94aZx.s 			page 10


 285 0025 02       		.uleb128 0x2
 286 0026 01       		.byte	0x1
 287 0027 06       		.byte	0x6
 288 0028 60010000 		.4byte	.LASF0
 289 002c 03       		.uleb128 0x3
 290 002d 13010000 		.4byte	.LASF5
 291 0031 02       		.byte	0x2
 292 0032 2B       		.byte	0x2b
 293 0033 37000000 		.4byte	0x37
 294 0037 02       		.uleb128 0x2
 295 0038 01       		.byte	0x1
 296 0039 08       		.byte	0x8
 297 003a 2F010000 		.4byte	.LASF1
 298 003e 02       		.uleb128 0x2
 299 003f 02       		.byte	0x2
 300 0040 05       		.byte	0x5
 301 0041 63000000 		.4byte	.LASF2
 302 0045 02       		.uleb128 0x2
 303 0046 02       		.byte	0x2
 304 0047 07       		.byte	0x7
 305 0048 F6010000 		.4byte	.LASF3
 306 004c 02       		.uleb128 0x2
 307 004d 04       		.byte	0x4
 308 004e 05       		.byte	0x5
 309 004f 0A010000 		.4byte	.LASF4
 310 0053 03       		.uleb128 0x3
 311 0054 92000000 		.4byte	.LASF6
 312 0058 02       		.byte	0x2
 313 0059 4F       		.byte	0x4f
 314 005a 5E000000 		.4byte	0x5e
 315 005e 02       		.uleb128 0x2
 316 005f 04       		.byte	0x4
 317 0060 07       		.byte	0x7
 318 0061 9B020000 		.4byte	.LASF7
 319 0065 02       		.uleb128 0x2
 320 0066 08       		.byte	0x8
 321 0067 05       		.byte	0x5
 322 0068 EC000000 		.4byte	.LASF8
 323 006c 02       		.uleb128 0x2
 324 006d 08       		.byte	0x8
 325 006e 07       		.byte	0x7
 326 006f 6C010000 		.4byte	.LASF9
 327 0073 04       		.uleb128 0x4
 328 0074 04       		.byte	0x4
 329 0075 05       		.byte	0x5
 330 0076 696E7400 		.ascii	"int\000"
 331 007a 05       		.uleb128 0x5
 332 007b 73000000 		.4byte	0x73
 333 007f 02       		.uleb128 0x2
 334 0080 04       		.byte	0x4
 335 0081 07       		.byte	0x7
 336 0082 8C010000 		.4byte	.LASF10
 337 0086 03       		.uleb128 0x3
 338 0087 AD000000 		.4byte	.LASF11
 339 008b 03       		.byte	0x3
 340 008c 18       		.byte	0x18
 341 008d 2C000000 		.4byte	0x2c
ARM GAS  G:\Users\Jaxb\AppData\Local\Temp\ccU94aZx.s 			page 11


 342 0091 05       		.uleb128 0x5
 343 0092 86000000 		.4byte	0x86
 344 0096 03       		.uleb128 0x3
 345 0097 83010000 		.4byte	.LASF12
 346 009b 03       		.byte	0x3
 347 009c 30       		.byte	0x30
 348 009d 53000000 		.4byte	0x53
 349 00a1 05       		.uleb128 0x5
 350 00a2 96000000 		.4byte	0x96
 351 00a6 06       		.uleb128 0x6
 352 00a7 A1000000 		.4byte	0xa1
 353 00ab 07       		.uleb128 0x7
 354 00ac 040E     		.2byte	0xe04
 355 00ae 04       		.byte	0x4
 356 00af 84       		.byte	0x84
 357 00b0 75010000 		.4byte	0x175
 358 00b4 08       		.uleb128 0x8
 359 00b5 6E020000 		.4byte	.LASF13
 360 00b9 04       		.byte	0x4
 361 00ba 86       		.byte	0x86
 362 00bb 85010000 		.4byte	0x185
 363 00bf 02       		.byte	0x2
 364 00c0 23       		.byte	0x23
 365 00c1 00       		.uleb128 0
 366 00c2 08       		.uleb128 0x8
 367 00c3 A3000000 		.4byte	.LASF14
 368 00c7 04       		.byte	0x4
 369 00c8 87       		.byte	0x87
 370 00c9 8A010000 		.4byte	0x18a
 371 00cd 02       		.byte	0x2
 372 00ce 23       		.byte	0x23
 373 00cf 20       		.uleb128 0x20
 374 00d0 08       		.uleb128 0x8
 375 00d1 64020000 		.4byte	.LASF15
 376 00d5 04       		.byte	0x4
 377 00d6 88       		.byte	0x88
 378 00d7 85010000 		.4byte	0x185
 379 00db 03       		.byte	0x3
 380 00dc 23       		.byte	0x23
 381 00dd 8001     		.uleb128 0x80
 382 00df 08       		.uleb128 0x8
 383 00e0 E3000000 		.4byte	.LASF16
 384 00e4 04       		.byte	0x4
 385 00e5 89       		.byte	0x89
 386 00e6 8A010000 		.4byte	0x18a
 387 00ea 03       		.byte	0x3
 388 00eb 23       		.byte	0x23
 389 00ec A001     		.uleb128 0xa0
 390 00ee 08       		.uleb128 0x8
 391 00ef 1A020000 		.4byte	.LASF17
 392 00f3 04       		.byte	0x4
 393 00f4 8A       		.byte	0x8a
 394 00f5 85010000 		.4byte	0x185
 395 00f9 03       		.byte	0x3
 396 00fa 23       		.byte	0x23
 397 00fb 8002     		.uleb128 0x100
 398 00fd 08       		.uleb128 0x8
ARM GAS  G:\Users\Jaxb\AppData\Local\Temp\ccU94aZx.s 			page 12


 399 00fe 73020000 		.4byte	.LASF18
 400 0102 04       		.byte	0x4
 401 0103 8B       		.byte	0x8b
 402 0104 8A010000 		.4byte	0x18a
 403 0108 03       		.byte	0x3
 404 0109 23       		.byte	0x23
 405 010a A002     		.uleb128 0x120
 406 010c 08       		.uleb128 0x8
 407 010d 5B010000 		.4byte	.LASF19
 408 0111 04       		.byte	0x4
 409 0112 8C       		.byte	0x8c
 410 0113 85010000 		.4byte	0x185
 411 0117 03       		.byte	0x3
 412 0118 23       		.byte	0x23
 413 0119 8003     		.uleb128 0x180
 414 011b 08       		.uleb128 0x8
 415 011c 7D020000 		.4byte	.LASF20
 416 0120 04       		.byte	0x4
 417 0121 8D       		.byte	0x8d
 418 0122 8A010000 		.4byte	0x18a
 419 0126 03       		.byte	0x3
 420 0127 23       		.byte	0x23
 421 0128 A003     		.uleb128 0x1a0
 422 012a 08       		.uleb128 0x8
 423 012b 00000000 		.4byte	.LASF21
 424 012f 04       		.byte	0x4
 425 0130 8E       		.byte	0x8e
 426 0131 85010000 		.4byte	0x185
 427 0135 03       		.byte	0x3
 428 0136 23       		.byte	0x23
 429 0137 8004     		.uleb128 0x200
 430 0139 08       		.uleb128 0x8
 431 013a 87020000 		.4byte	.LASF22
 432 013e 04       		.byte	0x4
 433 013f 8F       		.byte	0x8f
 434 0140 9A010000 		.4byte	0x19a
 435 0144 03       		.byte	0x3
 436 0145 23       		.byte	0x23
 437 0146 A004     		.uleb128 0x220
 438 0148 09       		.uleb128 0x9
 439 0149 495000   		.ascii	"IP\000"
 440 014c 04       		.byte	0x4
 441 014d 90       		.byte	0x90
 442 014e BA010000 		.4byte	0x1ba
 443 0152 03       		.byte	0x3
 444 0153 23       		.byte	0x23
 445 0154 8006     		.uleb128 0x300
 446 0156 08       		.uleb128 0x8
 447 0157 91020000 		.4byte	.LASF23
 448 015b 04       		.byte	0x4
 449 015c 91       		.byte	0x91
 450 015d BF010000 		.4byte	0x1bf
 451 0161 03       		.byte	0x3
 452 0162 23       		.byte	0x23
 453 0163 F007     		.uleb128 0x3f0
 454 0165 08       		.uleb128 0x8
 455 0166 D1000000 		.4byte	.LASF24
ARM GAS  G:\Users\Jaxb\AppData\Local\Temp\ccU94aZx.s 			page 13


 456 016a 04       		.byte	0x4
 457 016b 92       		.byte	0x92
 458 016c A1000000 		.4byte	0xa1
 459 0170 03       		.byte	0x3
 460 0171 23       		.byte	0x23
 461 0172 801C     		.uleb128 0xe00
 462 0174 00       		.byte	0
 463 0175 0A       		.uleb128 0xa
 464 0176 A1000000 		.4byte	0xa1
 465 017a 85010000 		.4byte	0x185
 466 017e 0B       		.uleb128 0xb
 467 017f 7F000000 		.4byte	0x7f
 468 0183 07       		.byte	0x7
 469 0184 00       		.byte	0
 470 0185 05       		.uleb128 0x5
 471 0186 75010000 		.4byte	0x175
 472 018a 0A       		.uleb128 0xa
 473 018b 96000000 		.4byte	0x96
 474 018f 9A010000 		.4byte	0x19a
 475 0193 0B       		.uleb128 0xb
 476 0194 7F000000 		.4byte	0x7f
 477 0198 17       		.byte	0x17
 478 0199 00       		.byte	0
 479 019a 0A       		.uleb128 0xa
 480 019b 96000000 		.4byte	0x96
 481 019f AA010000 		.4byte	0x1aa
 482 01a3 0B       		.uleb128 0xb
 483 01a4 7F000000 		.4byte	0x7f
 484 01a8 37       		.byte	0x37
 485 01a9 00       		.byte	0
 486 01aa 0A       		.uleb128 0xa
 487 01ab 91000000 		.4byte	0x91
 488 01af BA010000 		.4byte	0x1ba
 489 01b3 0B       		.uleb128 0xb
 490 01b4 7F000000 		.4byte	0x7f
 491 01b8 EF       		.byte	0xef
 492 01b9 00       		.byte	0
 493 01ba 05       		.uleb128 0x5
 494 01bb AA010000 		.4byte	0x1aa
 495 01bf 0A       		.uleb128 0xa
 496 01c0 96000000 		.4byte	0x96
 497 01c4 D0010000 		.4byte	0x1d0
 498 01c8 0C       		.uleb128 0xc
 499 01c9 7F000000 		.4byte	0x7f
 500 01cd 8302     		.2byte	0x283
 501 01cf 00       		.byte	0
 502 01d0 03       		.uleb128 0x3
 503 01d1 51010000 		.4byte	.LASF25
 504 01d5 04       		.byte	0x4
 505 01d6 93       		.byte	0x93
 506 01d7 AB000000 		.4byte	0xab
 507 01db 0D       		.uleb128 0xd
 508 01dc 74       		.byte	0x74
 509 01dd 04       		.byte	0x4
 510 01de 9B       		.byte	0x9b
 511 01df EE020000 		.4byte	0x2ee
 512 01e3 08       		.uleb128 0x8
ARM GAS  G:\Users\Jaxb\AppData\Local\Temp\ccU94aZx.s 			page 14


 513 01e4 9D000000 		.4byte	.LASF26
 514 01e8 04       		.byte	0x4
 515 01e9 9D       		.byte	0x9d
 516 01ea A6000000 		.4byte	0xa6
 517 01ee 02       		.byte	0x2
 518 01ef 23       		.byte	0x23
 519 01f0 00       		.uleb128 0
 520 01f1 08       		.uleb128 0x8
 521 01f2 DE000000 		.4byte	.LASF27
 522 01f6 04       		.byte	0x4
 523 01f7 9E       		.byte	0x9e
 524 01f8 A1000000 		.4byte	0xa1
 525 01fc 02       		.byte	0x2
 526 01fd 23       		.byte	0x23
 527 01fe 04       		.uleb128 0x4
 528 01ff 08       		.uleb128 0x8
 529 0200 00010000 		.4byte	.LASF28
 530 0204 04       		.byte	0x4
 531 0205 9F       		.byte	0x9f
 532 0206 A1000000 		.4byte	0xa1
 533 020a 02       		.byte	0x2
 534 020b 23       		.byte	0x23
 535 020c 08       		.uleb128 0x8
 536 020d 08       		.uleb128 0x8
 537 020e 3D010000 		.4byte	.LASF29
 538 0212 04       		.byte	0x4
 539 0213 A0       		.byte	0xa0
 540 0214 A1000000 		.4byte	0xa1
 541 0218 02       		.byte	0x2
 542 0219 23       		.byte	0x23
 543 021a 0C       		.uleb128 0xc
 544 021b 09       		.uleb128 0x9
 545 021c 53435200 		.ascii	"SCR\000"
 546 0220 04       		.byte	0x4
 547 0221 A1       		.byte	0xa1
 548 0222 A1000000 		.4byte	0xa1
 549 0226 02       		.byte	0x2
 550 0227 23       		.byte	0x23
 551 0228 10       		.uleb128 0x10
 552 0229 09       		.uleb128 0x9
 553 022a 43435200 		.ascii	"CCR\000"
 554 022e 04       		.byte	0x4
 555 022f A2       		.byte	0xa2
 556 0230 A1000000 		.4byte	0xa1
 557 0234 02       		.byte	0x2
 558 0235 23       		.byte	0x23
 559 0236 14       		.uleb128 0x14
 560 0237 09       		.uleb128 0x9
 561 0238 53485000 		.ascii	"SHP\000"
 562 023c 04       		.byte	0x4
 563 023d A3       		.byte	0xa3
 564 023e FE020000 		.4byte	0x2fe
 565 0242 02       		.byte	0x2
 566 0243 23       		.byte	0x23
 567 0244 18       		.uleb128 0x18
 568 0245 08       		.uleb128 0x8
 569 0246 BB010000 		.4byte	.LASF30
ARM GAS  G:\Users\Jaxb\AppData\Local\Temp\ccU94aZx.s 			page 15


 570 024a 04       		.byte	0x4
 571 024b A4       		.byte	0xa4
 572 024c A1000000 		.4byte	0xa1
 573 0250 02       		.byte	0x2
 574 0251 23       		.byte	0x23
 575 0252 24       		.uleb128 0x24
 576 0253 08       		.uleb128 0x8
 577 0254 1D010000 		.4byte	.LASF31
 578 0258 04       		.byte	0x4
 579 0259 A5       		.byte	0xa5
 580 025a A1000000 		.4byte	0xa1
 581 025e 02       		.byte	0x2
 582 025f 23       		.byte	0x23
 583 0260 28       		.uleb128 0x28
 584 0261 08       		.uleb128 0x8
 585 0262 5F020000 		.4byte	.LASF32
 586 0266 04       		.byte	0x4
 587 0267 A6       		.byte	0xa6
 588 0268 A1000000 		.4byte	0xa1
 589 026c 02       		.byte	0x2
 590 026d 23       		.byte	0x23
 591 026e 2C       		.uleb128 0x2c
 592 026f 08       		.uleb128 0x8
 593 0270 1F020000 		.4byte	.LASF33
 594 0274 04       		.byte	0x4
 595 0275 A7       		.byte	0xa7
 596 0276 A1000000 		.4byte	0xa1
 597 027a 02       		.byte	0x2
 598 027b 23       		.byte	0x23
 599 027c 30       		.uleb128 0x30
 600 027d 08       		.uleb128 0x8
 601 027e C1010000 		.4byte	.LASF34
 602 0282 04       		.byte	0x4
 603 0283 A8       		.byte	0xa8
 604 0284 A1000000 		.4byte	0xa1
 605 0288 02       		.byte	0x2
 606 0289 23       		.byte	0x23
 607 028a 34       		.uleb128 0x34
 608 028b 08       		.uleb128 0x8
 609 028c 05010000 		.4byte	.LASF35
 610 0290 04       		.byte	0x4
 611 0291 A9       		.byte	0xa9
 612 0292 A1000000 		.4byte	0xa1
 613 0296 02       		.byte	0x2
 614 0297 23       		.byte	0x23
 615 0298 38       		.uleb128 0x38
 616 0299 08       		.uleb128 0x8
 617 029a 3C030000 		.4byte	.LASF36
 618 029e 04       		.byte	0x4
 619 029f AA       		.byte	0xaa
 620 02a0 A1000000 		.4byte	0xa1
 621 02a4 02       		.byte	0x2
 622 02a5 23       		.byte	0x23
 623 02a6 3C       		.uleb128 0x3c
 624 02a7 09       		.uleb128 0x9
 625 02a8 50465200 		.ascii	"PFR\000"
 626 02ac 04       		.byte	0x4
ARM GAS  G:\Users\Jaxb\AppData\Local\Temp\ccU94aZx.s 			page 16


 627 02ad AB       		.byte	0xab
 628 02ae 18030000 		.4byte	0x318
 629 02b2 02       		.byte	0x2
 630 02b3 23       		.byte	0x23
 631 02b4 40       		.uleb128 0x40
 632 02b5 09       		.uleb128 0x9
 633 02b6 44465200 		.ascii	"DFR\000"
 634 02ba 04       		.byte	0x4
 635 02bb AC       		.byte	0xac
 636 02bc A6000000 		.4byte	0xa6
 637 02c0 02       		.byte	0x2
 638 02c1 23       		.byte	0x23
 639 02c2 48       		.uleb128 0x48
 640 02c3 09       		.uleb128 0x9
 641 02c4 41445200 		.ascii	"ADR\000"
 642 02c8 04       		.byte	0x4
 643 02c9 AD       		.byte	0xad
 644 02ca A6000000 		.4byte	0xa6
 645 02ce 02       		.byte	0x2
 646 02cf 23       		.byte	0x23
 647 02d0 4C       		.uleb128 0x4c
 648 02d1 08       		.uleb128 0x8
 649 02d2 69020000 		.4byte	.LASF37
 650 02d6 04       		.byte	0x4
 651 02d7 AE       		.byte	0xae
 652 02d8 32030000 		.4byte	0x332
 653 02dc 02       		.byte	0x2
 654 02dd 23       		.byte	0x23
 655 02de 50       		.uleb128 0x50
 656 02df 08       		.uleb128 0x8
 657 02e0 15020000 		.4byte	.LASF38
 658 02e4 04       		.byte	0x4
 659 02e5 AF       		.byte	0xaf
 660 02e6 4C030000 		.4byte	0x34c
 661 02ea 02       		.byte	0x2
 662 02eb 23       		.byte	0x23
 663 02ec 60       		.uleb128 0x60
 664 02ed 00       		.byte	0
 665 02ee 0A       		.uleb128 0xa
 666 02ef 91000000 		.4byte	0x91
 667 02f3 FE020000 		.4byte	0x2fe
 668 02f7 0B       		.uleb128 0xb
 669 02f8 7F000000 		.4byte	0x7f
 670 02fc 0B       		.byte	0xb
 671 02fd 00       		.byte	0
 672 02fe 05       		.uleb128 0x5
 673 02ff EE020000 		.4byte	0x2ee
 674 0303 0A       		.uleb128 0xa
 675 0304 A6000000 		.4byte	0xa6
 676 0308 13030000 		.4byte	0x313
 677 030c 0B       		.uleb128 0xb
 678 030d 7F000000 		.4byte	0x7f
 679 0311 01       		.byte	0x1
 680 0312 00       		.byte	0
 681 0313 06       		.uleb128 0x6
 682 0314 03030000 		.4byte	0x303
 683 0318 05       		.uleb128 0x5
ARM GAS  G:\Users\Jaxb\AppData\Local\Temp\ccU94aZx.s 			page 17


 684 0319 13030000 		.4byte	0x313
 685 031d 0A       		.uleb128 0xa
 686 031e A6000000 		.4byte	0xa6
 687 0322 2D030000 		.4byte	0x32d
 688 0326 0B       		.uleb128 0xb
 689 0327 7F000000 		.4byte	0x7f
 690 032b 03       		.byte	0x3
 691 032c 00       		.byte	0
 692 032d 06       		.uleb128 0x6
 693 032e 1D030000 		.4byte	0x31d
 694 0332 05       		.uleb128 0x5
 695 0333 2D030000 		.4byte	0x32d
 696 0337 0A       		.uleb128 0xa
 697 0338 A6000000 		.4byte	0xa6
 698 033c 47030000 		.4byte	0x347
 699 0340 0B       		.uleb128 0xb
 700 0341 7F000000 		.4byte	0x7f
 701 0345 04       		.byte	0x4
 702 0346 00       		.byte	0
 703 0347 06       		.uleb128 0x6
 704 0348 37030000 		.4byte	0x337
 705 034c 05       		.uleb128 0x5
 706 034d 47030000 		.4byte	0x347
 707 0351 03       		.uleb128 0x3
 708 0352 43010000 		.4byte	.LASF39
 709 0356 04       		.byte	0x4
 710 0357 B0       		.byte	0xb0
 711 0358 DB010000 		.4byte	0x1db
 712 035c 0E       		.uleb128 0xe
 713 035d 10       		.byte	0x10
 714 035e 04       		.byte	0x4
 715 035f 6D01     		.2byte	0x16d
 716 0361 A2030000 		.4byte	0x3a2
 717 0365 0F       		.uleb128 0xf
 718 0366 4C010000 		.4byte	.LASF40
 719 036a 04       		.byte	0x4
 720 036b 6F01     		.2byte	0x16f
 721 036d A1000000 		.4byte	0xa1
 722 0371 02       		.byte	0x2
 723 0372 23       		.byte	0x23
 724 0373 00       		.uleb128 0
 725 0374 0F       		.uleb128 0xf
 726 0375 37030000 		.4byte	.LASF41
 727 0379 04       		.byte	0x4
 728 037a 7001     		.2byte	0x170
 729 037c A1000000 		.4byte	0xa1
 730 0380 02       		.byte	0x2
 731 0381 23       		.byte	0x23
 732 0382 04       		.uleb128 0x4
 733 0383 10       		.uleb128 0x10
 734 0384 56414C00 		.ascii	"VAL\000"
 735 0388 04       		.byte	0x4
 736 0389 7101     		.2byte	0x171
 737 038b A1000000 		.4byte	0xa1
 738 038f 02       		.byte	0x2
 739 0390 23       		.byte	0x23
 740 0391 08       		.uleb128 0x8
ARM GAS  G:\Users\Jaxb\AppData\Local\Temp\ccU94aZx.s 			page 18


 741 0392 0F       		.uleb128 0xf
 742 0393 FA000000 		.4byte	.LASF42
 743 0397 04       		.byte	0x4
 744 0398 7201     		.2byte	0x172
 745 039a A6000000 		.4byte	0xa6
 746 039e 02       		.byte	0x2
 747 039f 23       		.byte	0x23
 748 03a0 0C       		.uleb128 0xc
 749 03a1 00       		.byte	0
 750 03a2 11       		.uleb128 0x11
 751 03a3 E9010000 		.4byte	.LASF43
 752 03a7 04       		.byte	0x4
 753 03a8 7301     		.2byte	0x173
 754 03aa 5C030000 		.4byte	0x35c
 755 03ae 12       		.uleb128 0x12
 756 03af E7030000 		.4byte	.LASF44
 757 03b3 04       		.byte	0x4
 758 03b4 CE06     		.2byte	0x6ce
 759 03b6 7A000000 		.4byte	0x7a
 760 03ba 01       		.byte	0x1
 761 03bb 01       		.byte	0x1
 762 03bc 13       		.uleb128 0x13
 763 03bd 4F020000 		.4byte	.LASF45
 764 03c1 05       		.byte	0x5
 765 03c2 35       		.byte	0x35
 766 03c3 96000000 		.4byte	0x96
 767 03c7 01       		.byte	0x1
 768 03c8 01       		.byte	0x1
 769 03c9 14       		.uleb128 0x14
 770 03ca 07       		.byte	0x7
 771 03cb 01       		.byte	0x1
 772 03cc 37000000 		.4byte	0x37
 773 03d0 06       		.byte	0x6
 774 03d1 0902     		.2byte	0x209
 775 03d3 E4030000 		.4byte	0x3e4
 776 03d7 15       		.uleb128 0x15
 777 03d8 D6000000 		.4byte	.LASF46
 778 03dc 00       		.byte	0
 779 03dd 15       		.uleb128 0x15
 780 03de F4030000 		.4byte	.LASF47
 781 03e2 01       		.byte	0x1
 782 03e3 00       		.byte	0
 783 03e4 11       		.uleb128 0x11
 784 03e5 1A030000 		.4byte	.LASF48
 785 03e9 06       		.byte	0x6
 786 03ea 0902     		.2byte	0x209
 787 03ec C9030000 		.4byte	0x3c9
 788 03f0 0D       		.uleb128 0xd
 789 03f1 04       		.byte	0x4
 790 03f2 07       		.byte	0x7
 791 03f3 32       		.byte	0x32
 792 03f4 31040000 		.4byte	0x431
 793 03f8 08       		.uleb128 0x8
 794 03f9 24020000 		.4byte	.LASF49
 795 03fd 07       		.byte	0x7
 796 03fe 34       		.byte	0x34
 797 03ff 86000000 		.4byte	0x86
ARM GAS  G:\Users\Jaxb\AppData\Local\Temp\ccU94aZx.s 			page 19


 798 0403 02       		.byte	0x2
 799 0404 23       		.byte	0x23
 800 0405 00       		.uleb128 0
 801 0406 08       		.uleb128 0x8
 802 0407 AD020000 		.4byte	.LASF50
 803 040b 07       		.byte	0x7
 804 040c 39       		.byte	0x39
 805 040d 86000000 		.4byte	0x86
 806 0411 02       		.byte	0x2
 807 0412 23       		.byte	0x23
 808 0413 01       		.uleb128 0x1
 809 0414 08       		.uleb128 0x8
 810 0415 34020000 		.4byte	.LASF51
 811 0419 07       		.byte	0x7
 812 041a 3D       		.byte	0x3d
 813 041b 86000000 		.4byte	0x86
 814 041f 02       		.byte	0x2
 815 0420 23       		.byte	0x23
 816 0421 02       		.uleb128 0x2
 817 0422 08       		.uleb128 0x8
 818 0423 16000000 		.4byte	.LASF52
 819 0427 07       		.byte	0x7
 820 0428 41       		.byte	0x41
 821 0429 E4030000 		.4byte	0x3e4
 822 042d 02       		.byte	0x2
 823 042e 23       		.byte	0x23
 824 042f 03       		.uleb128 0x3
 825 0430 00       		.byte	0
 826 0431 03       		.uleb128 0x3
 827 0432 05000000 		.4byte	.LASF53
 828 0436 07       		.byte	0x7
 829 0437 44       		.byte	0x44
 830 0438 F0030000 		.4byte	0x3f0
 831 043c 16       		.uleb128 0x16
 832 043d 01       		.byte	0x1
 833 043e 4B000000 		.4byte	.LASF54
 834 0442 01       		.byte	0x1
 835 0443 C7       		.byte	0xc7
 836 0444 01       		.byte	0x1
 837 0445 98000000 		.4byte	.LFB33
 838 0449 B0000000 		.4byte	.LFE33
 839 044d 02       		.byte	0x2
 840 044e 7D       		.byte	0x7d
 841 044f 00       		.sleb128 0
 842 0450 01       		.byte	0x1
 843 0451 63040000 		.4byte	0x463
 844 0455 17       		.uleb128 0x17
 845 0456 29000000 		.4byte	.LASF56
 846 045a 01       		.byte	0x1
 847 045b C7       		.byte	0xc7
 848 045c 96000000 		.4byte	0x96
 849 0460 01       		.byte	0x1
 850 0461 50       		.byte	0x50
 851 0462 00       		.byte	0
 852 0463 16       		.uleb128 0x16
 853 0464 01       		.byte	0x1
 854 0465 CE010000 		.4byte	.LASF55
ARM GAS  G:\Users\Jaxb\AppData\Local\Temp\ccU94aZx.s 			page 20


 855 0469 01       		.byte	0x1
 856 046a AF       		.byte	0xaf
 857 046b 01       		.byte	0x1
 858 046c 80000000 		.4byte	.LFB32
 859 0470 98000000 		.4byte	.LFE32
 860 0474 02       		.byte	0x2
 861 0475 7D       		.byte	0x7d
 862 0476 00       		.sleb128 0
 863 0477 01       		.byte	0x1
 864 0478 99040000 		.4byte	0x499
 865 047c 18       		.uleb128 0x18
 866 047d 22010000 		.4byte	.LASF57
 867 0481 01       		.byte	0x1
 868 0482 AF       		.byte	0xaf
 869 0483 86000000 		.4byte	0x86
 870 0487 00000000 		.4byte	.LLST7
 871 048b 17       		.uleb128 0x17
 872 048c C8000000 		.4byte	.LASF58
 873 0490 01       		.byte	0x1
 874 0491 AF       		.byte	0xaf
 875 0492 E4030000 		.4byte	0x3e4
 876 0496 01       		.byte	0x1
 877 0497 51       		.byte	0x51
 878 0498 00       		.byte	0
 879 0499 16       		.uleb128 0x16
 880 049a 01       		.byte	0x1
 881 049b 6D000000 		.4byte	.LASF59
 882 049f 01       		.byte	0x1
 883 04a0 9C       		.byte	0x9c
 884 04a1 01       		.byte	0x1
 885 04a2 6C000000 		.4byte	.LFB31
 886 04a6 80000000 		.4byte	.LFE31
 887 04aa 02       		.byte	0x2
 888 04ab 7D       		.byte	0x7d
 889 04ac 00       		.sleb128 0
 890 04ad 01       		.byte	0x1
 891 04ae CF040000 		.4byte	0x4cf
 892 04b2 17       		.uleb128 0x17
 893 04b3 2A030000 		.4byte	.LASF60
 894 04b7 01       		.byte	0x1
 895 04b8 9C       		.byte	0x9c
 896 04b9 96000000 		.4byte	0x96
 897 04bd 01       		.byte	0x1
 898 04be 50       		.byte	0x50
 899 04bf 18       		.uleb128 0x18
 900 04c0 E2010000 		.4byte	.LASF61
 901 04c4 01       		.byte	0x1
 902 04c5 9C       		.byte	0x9c
 903 04c6 96000000 		.4byte	0x96
 904 04ca 3A000000 		.4byte	.LLST6
 905 04ce 00       		.byte	0
 906 04cf 19       		.uleb128 0x19
 907 04d0 01       		.byte	0x1
 908 04d1 81000000 		.4byte	.LASF62
 909 04d5 01       		.byte	0x1
 910 04d6 70       		.byte	0x70
 911 04d7 01       		.byte	0x1
ARM GAS  G:\Users\Jaxb\AppData\Local\Temp\ccU94aZx.s 			page 21


 912 04d8 14000000 		.4byte	.LFB30
 913 04dc 6C000000 		.4byte	.LFE30
 914 04e0 5B000000 		.4byte	.LLST1
 915 04e4 01       		.byte	0x1
 916 04e5 26050000 		.4byte	0x526
 917 04e9 18       		.uleb128 0x18
 918 04ea 3B000000 		.4byte	.LASF63
 919 04ee 01       		.byte	0x1
 920 04ef 70       		.byte	0x70
 921 04f0 26050000 		.4byte	0x526
 922 04f4 9F000000 		.4byte	.LLST2
 923 04f8 1A       		.uleb128 0x1a
 924 04f9 09020000 		.4byte	.LASF64
 925 04fd 01       		.byte	0x1
 926 04fe 72       		.byte	0x72
 927 04ff 96000000 		.4byte	0x96
 928 0503 C0000000 		.4byte	.LLST3
 929 0507 1A       		.uleb128 0x1a
 930 0508 8B000000 		.4byte	.LASF65
 931 050c 01       		.byte	0x1
 932 050d 72       		.byte	0x72
 933 050e 96000000 		.4byte	0x96
 934 0512 23010000 		.4byte	.LLST4
 935 0516 1A       		.uleb128 0x1a
 936 0517 C7010000 		.4byte	.LASF66
 937 051b 01       		.byte	0x1
 938 051c 72       		.byte	0x72
 939 051d 96000000 		.4byte	0x96
 940 0521 51010000 		.4byte	.LLST5
 941 0525 00       		.byte	0
 942 0526 1B       		.uleb128 0x1b
 943 0527 04       		.byte	0x4
 944 0528 31040000 		.4byte	0x431
 945 052c 1C       		.uleb128 0x1c
 946 052d 01       		.byte	0x1
 947 052e FB030000 		.4byte	.LASF71
 948 0532 01       		.byte	0x1
 949 0533 60       		.byte	0x60
 950 0534 01       		.byte	0x1
 951 0535 00000000 		.4byte	.LFB29
 952 0539 14000000 		.4byte	.LFE29
 953 053d 02       		.byte	0x2
 954 053e 7D       		.byte	0x7d
 955 053f 00       		.sleb128 0
 956 0540 01       		.byte	0x1
 957 0541 18       		.uleb128 0x18
 958 0542 B5000000 		.4byte	.LASF67
 959 0546 01       		.byte	0x1
 960 0547 60       		.byte	0x60
 961 0548 96000000 		.4byte	0x96
 962 054c 8E010000 		.4byte	.LLST0
 963 0550 00       		.byte	0
 964 0551 00       		.byte	0
 965              		.section	.debug_abbrev,"",%progbits
 966              	.Ldebug_abbrev0:
 967 0000 01       		.uleb128 0x1
 968 0001 11       		.uleb128 0x11
ARM GAS  G:\Users\Jaxb\AppData\Local\Temp\ccU94aZx.s 			page 22


 969 0002 01       		.byte	0x1
 970 0003 25       		.uleb128 0x25
 971 0004 0E       		.uleb128 0xe
 972 0005 13       		.uleb128 0x13
 973 0006 0B       		.uleb128 0xb
 974 0007 03       		.uleb128 0x3
 975 0008 0E       		.uleb128 0xe
 976 0009 1B       		.uleb128 0x1b
 977 000a 0E       		.uleb128 0xe
 978 000b 11       		.uleb128 0x11
 979 000c 01       		.uleb128 0x1
 980 000d 12       		.uleb128 0x12
 981 000e 01       		.uleb128 0x1
 982 000f 10       		.uleb128 0x10
 983 0010 06       		.uleb128 0x6
 984 0011 00       		.byte	0
 985 0012 00       		.byte	0
 986 0013 02       		.uleb128 0x2
 987 0014 24       		.uleb128 0x24
 988 0015 00       		.byte	0
 989 0016 0B       		.uleb128 0xb
 990 0017 0B       		.uleb128 0xb
 991 0018 3E       		.uleb128 0x3e
 992 0019 0B       		.uleb128 0xb
 993 001a 03       		.uleb128 0x3
 994 001b 0E       		.uleb128 0xe
 995 001c 00       		.byte	0
 996 001d 00       		.byte	0
 997 001e 03       		.uleb128 0x3
 998 001f 16       		.uleb128 0x16
 999 0020 00       		.byte	0
 1000 0021 03       		.uleb128 0x3
 1001 0022 0E       		.uleb128 0xe
 1002 0023 3A       		.uleb128 0x3a
 1003 0024 0B       		.uleb128 0xb
 1004 0025 3B       		.uleb128 0x3b
 1005 0026 0B       		.uleb128 0xb
 1006 0027 49       		.uleb128 0x49
 1007 0028 13       		.uleb128 0x13
 1008 0029 00       		.byte	0
 1009 002a 00       		.byte	0
 1010 002b 04       		.uleb128 0x4
 1011 002c 24       		.uleb128 0x24
 1012 002d 00       		.byte	0
 1013 002e 0B       		.uleb128 0xb
 1014 002f 0B       		.uleb128 0xb
 1015 0030 3E       		.uleb128 0x3e
 1016 0031 0B       		.uleb128 0xb
 1017 0032 03       		.uleb128 0x3
 1018 0033 08       		.uleb128 0x8
 1019 0034 00       		.byte	0
 1020 0035 00       		.byte	0
 1021 0036 05       		.uleb128 0x5
 1022 0037 35       		.uleb128 0x35
 1023 0038 00       		.byte	0
 1024 0039 49       		.uleb128 0x49
 1025 003a 13       		.uleb128 0x13
ARM GAS  G:\Users\Jaxb\AppData\Local\Temp\ccU94aZx.s 			page 23


 1026 003b 00       		.byte	0
 1027 003c 00       		.byte	0
 1028 003d 06       		.uleb128 0x6
 1029 003e 26       		.uleb128 0x26
 1030 003f 00       		.byte	0
 1031 0040 49       		.uleb128 0x49
 1032 0041 13       		.uleb128 0x13
 1033 0042 00       		.byte	0
 1034 0043 00       		.byte	0
 1035 0044 07       		.uleb128 0x7
 1036 0045 13       		.uleb128 0x13
 1037 0046 01       		.byte	0x1
 1038 0047 0B       		.uleb128 0xb
 1039 0048 05       		.uleb128 0x5
 1040 0049 3A       		.uleb128 0x3a
 1041 004a 0B       		.uleb128 0xb
 1042 004b 3B       		.uleb128 0x3b
 1043 004c 0B       		.uleb128 0xb
 1044 004d 01       		.uleb128 0x1
 1045 004e 13       		.uleb128 0x13
 1046 004f 00       		.byte	0
 1047 0050 00       		.byte	0
 1048 0051 08       		.uleb128 0x8
 1049 0052 0D       		.uleb128 0xd
 1050 0053 00       		.byte	0
 1051 0054 03       		.uleb128 0x3
 1052 0055 0E       		.uleb128 0xe
 1053 0056 3A       		.uleb128 0x3a
 1054 0057 0B       		.uleb128 0xb
 1055 0058 3B       		.uleb128 0x3b
 1056 0059 0B       		.uleb128 0xb
 1057 005a 49       		.uleb128 0x49
 1058 005b 13       		.uleb128 0x13
 1059 005c 38       		.uleb128 0x38
 1060 005d 0A       		.uleb128 0xa
 1061 005e 00       		.byte	0
 1062 005f 00       		.byte	0
 1063 0060 09       		.uleb128 0x9
 1064 0061 0D       		.uleb128 0xd
 1065 0062 00       		.byte	0
 1066 0063 03       		.uleb128 0x3
 1067 0064 08       		.uleb128 0x8
 1068 0065 3A       		.uleb128 0x3a
 1069 0066 0B       		.uleb128 0xb
 1070 0067 3B       		.uleb128 0x3b
 1071 0068 0B       		.uleb128 0xb
 1072 0069 49       		.uleb128 0x49
 1073 006a 13       		.uleb128 0x13
 1074 006b 38       		.uleb128 0x38
 1075 006c 0A       		.uleb128 0xa
 1076 006d 00       		.byte	0
 1077 006e 00       		.byte	0
 1078 006f 0A       		.uleb128 0xa
 1079 0070 01       		.uleb128 0x1
 1080 0071 01       		.byte	0x1
 1081 0072 49       		.uleb128 0x49
 1082 0073 13       		.uleb128 0x13
ARM GAS  G:\Users\Jaxb\AppData\Local\Temp\ccU94aZx.s 			page 24


 1083 0074 01       		.uleb128 0x1
 1084 0075 13       		.uleb128 0x13
 1085 0076 00       		.byte	0
 1086 0077 00       		.byte	0
 1087 0078 0B       		.uleb128 0xb
 1088 0079 21       		.uleb128 0x21
 1089 007a 00       		.byte	0
 1090 007b 49       		.uleb128 0x49
 1091 007c 13       		.uleb128 0x13
 1092 007d 2F       		.uleb128 0x2f
 1093 007e 0B       		.uleb128 0xb
 1094 007f 00       		.byte	0
 1095 0080 00       		.byte	0
 1096 0081 0C       		.uleb128 0xc
 1097 0082 21       		.uleb128 0x21
 1098 0083 00       		.byte	0
 1099 0084 49       		.uleb128 0x49
 1100 0085 13       		.uleb128 0x13
 1101 0086 2F       		.uleb128 0x2f
 1102 0087 05       		.uleb128 0x5
 1103 0088 00       		.byte	0
 1104 0089 00       		.byte	0
 1105 008a 0D       		.uleb128 0xd
 1106 008b 13       		.uleb128 0x13
 1107 008c 01       		.byte	0x1
 1108 008d 0B       		.uleb128 0xb
 1109 008e 0B       		.uleb128 0xb
 1110 008f 3A       		.uleb128 0x3a
 1111 0090 0B       		.uleb128 0xb
 1112 0091 3B       		.uleb128 0x3b
 1113 0092 0B       		.uleb128 0xb
 1114 0093 01       		.uleb128 0x1
 1115 0094 13       		.uleb128 0x13
 1116 0095 00       		.byte	0
 1117 0096 00       		.byte	0
 1118 0097 0E       		.uleb128 0xe
 1119 0098 13       		.uleb128 0x13
 1120 0099 01       		.byte	0x1
 1121 009a 0B       		.uleb128 0xb
 1122 009b 0B       		.uleb128 0xb
 1123 009c 3A       		.uleb128 0x3a
 1124 009d 0B       		.uleb128 0xb
 1125 009e 3B       		.uleb128 0x3b
 1126 009f 05       		.uleb128 0x5
 1127 00a0 01       		.uleb128 0x1
 1128 00a1 13       		.uleb128 0x13
 1129 00a2 00       		.byte	0
 1130 00a3 00       		.byte	0
 1131 00a4 0F       		.uleb128 0xf
 1132 00a5 0D       		.uleb128 0xd
 1133 00a6 00       		.byte	0
 1134 00a7 03       		.uleb128 0x3
 1135 00a8 0E       		.uleb128 0xe
 1136 00a9 3A       		.uleb128 0x3a
 1137 00aa 0B       		.uleb128 0xb
 1138 00ab 3B       		.uleb128 0x3b
 1139 00ac 05       		.uleb128 0x5
ARM GAS  G:\Users\Jaxb\AppData\Local\Temp\ccU94aZx.s 			page 25


 1140 00ad 49       		.uleb128 0x49
 1141 00ae 13       		.uleb128 0x13
 1142 00af 38       		.uleb128 0x38
 1143 00b0 0A       		.uleb128 0xa
 1144 00b1 00       		.byte	0
 1145 00b2 00       		.byte	0
 1146 00b3 10       		.uleb128 0x10
 1147 00b4 0D       		.uleb128 0xd
 1148 00b5 00       		.byte	0
 1149 00b6 03       		.uleb128 0x3
 1150 00b7 08       		.uleb128 0x8
 1151 00b8 3A       		.uleb128 0x3a
 1152 00b9 0B       		.uleb128 0xb
 1153 00ba 3B       		.uleb128 0x3b
 1154 00bb 05       		.uleb128 0x5
 1155 00bc 49       		.uleb128 0x49
 1156 00bd 13       		.uleb128 0x13
 1157 00be 38       		.uleb128 0x38
 1158 00bf 0A       		.uleb128 0xa
 1159 00c0 00       		.byte	0
 1160 00c1 00       		.byte	0
 1161 00c2 11       		.uleb128 0x11
 1162 00c3 16       		.uleb128 0x16
 1163 00c4 00       		.byte	0
 1164 00c5 03       		.uleb128 0x3
 1165 00c6 0E       		.uleb128 0xe
 1166 00c7 3A       		.uleb128 0x3a
 1167 00c8 0B       		.uleb128 0xb
 1168 00c9 3B       		.uleb128 0x3b
 1169 00ca 05       		.uleb128 0x5
 1170 00cb 49       		.uleb128 0x49
 1171 00cc 13       		.uleb128 0x13
 1172 00cd 00       		.byte	0
 1173 00ce 00       		.byte	0
 1174 00cf 12       		.uleb128 0x12
 1175 00d0 34       		.uleb128 0x34
 1176 00d1 00       		.byte	0
 1177 00d2 03       		.uleb128 0x3
 1178 00d3 0E       		.uleb128 0xe
 1179 00d4 3A       		.uleb128 0x3a
 1180 00d5 0B       		.uleb128 0xb
 1181 00d6 3B       		.uleb128 0x3b
 1182 00d7 05       		.uleb128 0x5
 1183 00d8 49       		.uleb128 0x49
 1184 00d9 13       		.uleb128 0x13
 1185 00da 3F       		.uleb128 0x3f
 1186 00db 0C       		.uleb128 0xc
 1187 00dc 3C       		.uleb128 0x3c
 1188 00dd 0C       		.uleb128 0xc
 1189 00de 00       		.byte	0
 1190 00df 00       		.byte	0
 1191 00e0 13       		.uleb128 0x13
 1192 00e1 34       		.uleb128 0x34
 1193 00e2 00       		.byte	0
 1194 00e3 03       		.uleb128 0x3
 1195 00e4 0E       		.uleb128 0xe
 1196 00e5 3A       		.uleb128 0x3a
ARM GAS  G:\Users\Jaxb\AppData\Local\Temp\ccU94aZx.s 			page 26


 1197 00e6 0B       		.uleb128 0xb
 1198 00e7 3B       		.uleb128 0x3b
 1199 00e8 0B       		.uleb128 0xb
 1200 00e9 49       		.uleb128 0x49
 1201 00ea 13       		.uleb128 0x13
 1202 00eb 3F       		.uleb128 0x3f
 1203 00ec 0C       		.uleb128 0xc
 1204 00ed 3C       		.uleb128 0x3c
 1205 00ee 0C       		.uleb128 0xc
 1206 00ef 00       		.byte	0
 1207 00f0 00       		.byte	0
 1208 00f1 14       		.uleb128 0x14
 1209 00f2 04       		.uleb128 0x4
 1210 00f3 01       		.byte	0x1
 1211 00f4 3E       		.uleb128 0x3e
 1212 00f5 0B       		.uleb128 0xb
 1213 00f6 0B       		.uleb128 0xb
 1214 00f7 0B       		.uleb128 0xb
 1215 00f8 49       		.uleb128 0x49
 1216 00f9 13       		.uleb128 0x13
 1217 00fa 3A       		.uleb128 0x3a
 1218 00fb 0B       		.uleb128 0xb
 1219 00fc 3B       		.uleb128 0x3b
 1220 00fd 05       		.uleb128 0x5
 1221 00fe 01       		.uleb128 0x1
 1222 00ff 13       		.uleb128 0x13
 1223 0100 00       		.byte	0
 1224 0101 00       		.byte	0
 1225 0102 15       		.uleb128 0x15
 1226 0103 28       		.uleb128 0x28
 1227 0104 00       		.byte	0
 1228 0105 03       		.uleb128 0x3
 1229 0106 0E       		.uleb128 0xe
 1230 0107 1C       		.uleb128 0x1c
 1231 0108 0B       		.uleb128 0xb
 1232 0109 00       		.byte	0
 1233 010a 00       		.byte	0
 1234 010b 16       		.uleb128 0x16
 1235 010c 2E       		.uleb128 0x2e
 1236 010d 01       		.byte	0x1
 1237 010e 3F       		.uleb128 0x3f
 1238 010f 0C       		.uleb128 0xc
 1239 0110 03       		.uleb128 0x3
 1240 0111 0E       		.uleb128 0xe
 1241 0112 3A       		.uleb128 0x3a
 1242 0113 0B       		.uleb128 0xb
 1243 0114 3B       		.uleb128 0x3b
 1244 0115 0B       		.uleb128 0xb
 1245 0116 27       		.uleb128 0x27
 1246 0117 0C       		.uleb128 0xc
 1247 0118 11       		.uleb128 0x11
 1248 0119 01       		.uleb128 0x1
 1249 011a 12       		.uleb128 0x12
 1250 011b 01       		.uleb128 0x1
 1251 011c 40       		.uleb128 0x40
 1252 011d 0A       		.uleb128 0xa
 1253 011e 9742     		.uleb128 0x2117
ARM GAS  G:\Users\Jaxb\AppData\Local\Temp\ccU94aZx.s 			page 27


 1254 0120 0C       		.uleb128 0xc
 1255 0121 01       		.uleb128 0x1
 1256 0122 13       		.uleb128 0x13
 1257 0123 00       		.byte	0
 1258 0124 00       		.byte	0
 1259 0125 17       		.uleb128 0x17
 1260 0126 05       		.uleb128 0x5
 1261 0127 00       		.byte	0
 1262 0128 03       		.uleb128 0x3
 1263 0129 0E       		.uleb128 0xe
 1264 012a 3A       		.uleb128 0x3a
 1265 012b 0B       		.uleb128 0xb
 1266 012c 3B       		.uleb128 0x3b
 1267 012d 0B       		.uleb128 0xb
 1268 012e 49       		.uleb128 0x49
 1269 012f 13       		.uleb128 0x13
 1270 0130 02       		.uleb128 0x2
 1271 0131 0A       		.uleb128 0xa
 1272 0132 00       		.byte	0
 1273 0133 00       		.byte	0
 1274 0134 18       		.uleb128 0x18
 1275 0135 05       		.uleb128 0x5
 1276 0136 00       		.byte	0
 1277 0137 03       		.uleb128 0x3
 1278 0138 0E       		.uleb128 0xe
 1279 0139 3A       		.uleb128 0x3a
 1280 013a 0B       		.uleb128 0xb
 1281 013b 3B       		.uleb128 0x3b
 1282 013c 0B       		.uleb128 0xb
 1283 013d 49       		.uleb128 0x49
 1284 013e 13       		.uleb128 0x13
 1285 013f 02       		.uleb128 0x2
 1286 0140 06       		.uleb128 0x6
 1287 0141 00       		.byte	0
 1288 0142 00       		.byte	0
 1289 0143 19       		.uleb128 0x19
 1290 0144 2E       		.uleb128 0x2e
 1291 0145 01       		.byte	0x1
 1292 0146 3F       		.uleb128 0x3f
 1293 0147 0C       		.uleb128 0xc
 1294 0148 03       		.uleb128 0x3
 1295 0149 0E       		.uleb128 0xe
 1296 014a 3A       		.uleb128 0x3a
 1297 014b 0B       		.uleb128 0xb
 1298 014c 3B       		.uleb128 0x3b
 1299 014d 0B       		.uleb128 0xb
 1300 014e 27       		.uleb128 0x27
 1301 014f 0C       		.uleb128 0xc
 1302 0150 11       		.uleb128 0x11
 1303 0151 01       		.uleb128 0x1
 1304 0152 12       		.uleb128 0x12
 1305 0153 01       		.uleb128 0x1
 1306 0154 40       		.uleb128 0x40
 1307 0155 06       		.uleb128 0x6
 1308 0156 9742     		.uleb128 0x2117
 1309 0158 0C       		.uleb128 0xc
 1310 0159 01       		.uleb128 0x1
ARM GAS  G:\Users\Jaxb\AppData\Local\Temp\ccU94aZx.s 			page 28


 1311 015a 13       		.uleb128 0x13
 1312 015b 00       		.byte	0
 1313 015c 00       		.byte	0
 1314 015d 1A       		.uleb128 0x1a
 1315 015e 34       		.uleb128 0x34
 1316 015f 00       		.byte	0
 1317 0160 03       		.uleb128 0x3
 1318 0161 0E       		.uleb128 0xe
 1319 0162 3A       		.uleb128 0x3a
 1320 0163 0B       		.uleb128 0xb
 1321 0164 3B       		.uleb128 0x3b
 1322 0165 0B       		.uleb128 0xb
 1323 0166 49       		.uleb128 0x49
 1324 0167 13       		.uleb128 0x13
 1325 0168 02       		.uleb128 0x2
 1326 0169 06       		.uleb128 0x6
 1327 016a 00       		.byte	0
 1328 016b 00       		.byte	0
 1329 016c 1B       		.uleb128 0x1b
 1330 016d 0F       		.uleb128 0xf
 1331 016e 00       		.byte	0
 1332 016f 0B       		.uleb128 0xb
 1333 0170 0B       		.uleb128 0xb
 1334 0171 49       		.uleb128 0x49
 1335 0172 13       		.uleb128 0x13
 1336 0173 00       		.byte	0
 1337 0174 00       		.byte	0
 1338 0175 1C       		.uleb128 0x1c
 1339 0176 2E       		.uleb128 0x2e
 1340 0177 01       		.byte	0x1
 1341 0178 3F       		.uleb128 0x3f
 1342 0179 0C       		.uleb128 0xc
 1343 017a 03       		.uleb128 0x3
 1344 017b 0E       		.uleb128 0xe
 1345 017c 3A       		.uleb128 0x3a
 1346 017d 0B       		.uleb128 0xb
 1347 017e 3B       		.uleb128 0x3b
 1348 017f 0B       		.uleb128 0xb
 1349 0180 27       		.uleb128 0x27
 1350 0181 0C       		.uleb128 0xc
 1351 0182 11       		.uleb128 0x11
 1352 0183 01       		.uleb128 0x1
 1353 0184 12       		.uleb128 0x12
 1354 0185 01       		.uleb128 0x1
 1355 0186 40       		.uleb128 0x40
 1356 0187 0A       		.uleb128 0xa
 1357 0188 9742     		.uleb128 0x2117
 1358 018a 0C       		.uleb128 0xc
 1359 018b 00       		.byte	0
 1360 018c 00       		.byte	0
 1361 018d 00       		.byte	0
 1362              		.section	.debug_loc,"",%progbits
 1363              	.Ldebug_loc0:
 1364              	.LLST7:
 1365 0000 80000000 		.4byte	.LVL15-.Ltext0
 1366 0004 8A000000 		.4byte	.LVL16-.Ltext0
 1367 0008 0100     		.2byte	0x1
ARM GAS  G:\Users\Jaxb\AppData\Local\Temp\ccU94aZx.s 			page 29


 1368 000a 50       		.byte	0x50
 1369 000b 8A000000 		.4byte	.LVL16-.Ltext0
 1370 000f 8E000000 		.4byte	.LVL17-.Ltext0
 1371 0013 0400     		.2byte	0x4
 1372 0015 F3       		.byte	0xf3
 1373 0016 01       		.uleb128 0x1
 1374 0017 50       		.byte	0x50
 1375 0018 9F       		.byte	0x9f
 1376 0019 8E000000 		.4byte	.LVL17-.Ltext0
 1377 001d 90000000 		.4byte	.LVL18-.Ltext0
 1378 0021 0100     		.2byte	0x1
 1379 0023 50       		.byte	0x50
 1380 0024 90000000 		.4byte	.LVL18-.Ltext0
 1381 0028 98000000 		.4byte	.LFE32-.Ltext0
 1382 002c 0400     		.2byte	0x4
 1383 002e F3       		.byte	0xf3
 1384 002f 01       		.uleb128 0x1
 1385 0030 50       		.byte	0x50
 1386 0031 9F       		.byte	0x9f
 1387 0032 00000000 		.4byte	0
 1388 0036 00000000 		.4byte	0
 1389              	.LLST6:
 1390 003a 6C000000 		.4byte	.LVL13-.Ltext0
 1391 003e 70000000 		.4byte	.LVL14-.Ltext0
 1392 0042 0100     		.2byte	0x1
 1393 0044 51       		.byte	0x51
 1394 0045 70000000 		.4byte	.LVL14-.Ltext0
 1395 0049 80000000 		.4byte	.LFE31-.Ltext0
 1396 004d 0400     		.2byte	0x4
 1397 004f F3       		.byte	0xf3
 1398 0050 01       		.uleb128 0x1
 1399 0051 51       		.byte	0x51
 1400 0052 9F       		.byte	0x9f
 1401 0053 00000000 		.4byte	0
 1402 0057 00000000 		.4byte	0
 1403              	.LLST1:
 1404 005b 14000000 		.4byte	.LFB30-.Ltext0
 1405 005f 16000000 		.4byte	.LCFI0-.Ltext0
 1406 0063 0200     		.2byte	0x2
 1407 0065 7D       		.byte	0x7d
 1408 0066 00       		.sleb128 0
 1409 0067 16000000 		.4byte	.LCFI0-.Ltext0
 1410 006b 30000000 		.4byte	.LCFI1-.Ltext0
 1411 006f 0200     		.2byte	0x2
 1412 0071 7D       		.byte	0x7d
 1413 0072 10       		.sleb128 16
 1414 0073 30000000 		.4byte	.LCFI1-.Ltext0
 1415 0077 32000000 		.4byte	.LCFI2-.Ltext0
 1416 007b 0200     		.2byte	0x2
 1417 007d 7D       		.byte	0x7d
 1418 007e 00       		.sleb128 0
 1419 007f 32000000 		.4byte	.LCFI2-.Ltext0
 1420 0083 62000000 		.4byte	.LCFI3-.Ltext0
 1421 0087 0200     		.2byte	0x2
 1422 0089 7D       		.byte	0x7d
 1423 008a 10       		.sleb128 16
 1424 008b 62000000 		.4byte	.LCFI3-.Ltext0
ARM GAS  G:\Users\Jaxb\AppData\Local\Temp\ccU94aZx.s 			page 30


 1425 008f 6C000000 		.4byte	.LFE30-.Ltext0
 1426 0093 0200     		.2byte	0x2
 1427 0095 7D       		.byte	0x7d
 1428 0096 00       		.sleb128 0
 1429 0097 00000000 		.4byte	0
 1430 009b 00000000 		.4byte	0
 1431              	.LLST2:
 1432 009f 14000000 		.4byte	.LVL2-.Ltext0
 1433 00a3 3C000000 		.4byte	.LVL3-.Ltext0
 1434 00a7 0100     		.2byte	0x1
 1435 00a9 50       		.byte	0x50
 1436 00aa 3C000000 		.4byte	.LVL3-.Ltext0
 1437 00ae 6C000000 		.4byte	.LFE30-.Ltext0
 1438 00b2 0400     		.2byte	0x4
 1439 00b4 F3       		.byte	0xf3
 1440 00b5 01       		.uleb128 0x1
 1441 00b6 50       		.byte	0x50
 1442 00b7 9F       		.byte	0x9f
 1443 00b8 00000000 		.4byte	0
 1444 00bc 00000000 		.4byte	0
 1445              	.LLST3:
 1446 00c0 14000000 		.4byte	.LVL2-.Ltext0
 1447 00c4 42000000 		.4byte	.LVL4-.Ltext0
 1448 00c8 0200     		.2byte	0x2
 1449 00ca 30       		.byte	0x30
 1450 00cb 9F       		.byte	0x9f
 1451 00cc 42000000 		.4byte	.LVL4-.Ltext0
 1452 00d0 4C000000 		.4byte	.LVL7-.Ltext0
 1453 00d4 0100     		.2byte	0x1
 1454 00d6 50       		.byte	0x50
 1455 00d7 4C000000 		.4byte	.LVL7-.Ltext0
 1456 00db 50000000 		.4byte	.LVL9-.Ltext0
 1457 00df 0100     		.2byte	0x1
 1458 00e1 55       		.byte	0x55
 1459 00e2 50000000 		.4byte	.LVL9-.Ltext0
 1460 00e6 54000000 		.4byte	.LVL10-.Ltext0
 1461 00ea 0500     		.2byte	0x5
 1462 00ec 73       		.byte	0x73
 1463 00ed 00       		.sleb128 0
 1464 00ee 34       		.byte	0x34
 1465 00ef 24       		.byte	0x24
 1466 00f0 9F       		.byte	0x9f
 1467 00f1 54000000 		.4byte	.LVL10-.Ltext0
 1468 00f5 56000000 		.4byte	.LVL11-.Ltext0
 1469 00f9 0100     		.2byte	0x1
 1470 00fb 53       		.byte	0x53
 1471 00fc 56000000 		.4byte	.LVL11-.Ltext0
 1472 0100 5C000000 		.4byte	.LVL12-.Ltext0
 1473 0104 1500     		.2byte	0x15
 1474 0106 3F       		.byte	0x3f
 1475 0107 70       		.byte	0x70
 1476 0108 00       		.sleb128 0
 1477 0109 25       		.byte	0x25
 1478 010a F3       		.byte	0xf3
 1479 010b 01       		.uleb128 0x1
 1480 010c 50       		.byte	0x50
 1481 010d 23       		.byte	0x23
ARM GAS  G:\Users\Jaxb\AppData\Local\Temp\ccU94aZx.s 			page 31


 1482 010e 02       		.uleb128 0x2
 1483 010f 94       		.byte	0x94
 1484 0110 01       		.byte	0x1
 1485 0111 08       		.byte	0x8
 1486 0112 FF       		.byte	0xff
 1487 0113 1A       		.byte	0x1a
 1488 0114 1A       		.byte	0x1a
 1489 0115 75       		.byte	0x75
 1490 0116 00       		.sleb128 0
 1491 0117 21       		.byte	0x21
 1492 0118 34       		.byte	0x34
 1493 0119 24       		.byte	0x24
 1494 011a 9F       		.byte	0x9f
 1495 011b 00000000 		.4byte	0
 1496 011f 00000000 		.4byte	0
 1497              	.LLST4:
 1498 0123 14000000 		.4byte	.LVL2-.Ltext0
 1499 0127 46000000 		.4byte	.LVL5-.Ltext0
 1500 012b 0200     		.2byte	0x2
 1501 012d 30       		.byte	0x30
 1502 012e 9F       		.byte	0x9f
 1503 012f 46000000 		.4byte	.LVL5-.Ltext0
 1504 0133 4C000000 		.4byte	.LVL7-.Ltext0
 1505 0137 0100     		.2byte	0x1
 1506 0139 55       		.byte	0x55
 1507 013a 4C000000 		.4byte	.LVL7-.Ltext0
 1508 013e 6C000000 		.4byte	.LFE30-.Ltext0
 1509 0142 0500     		.2byte	0x5
 1510 0144 34       		.byte	0x34
 1511 0145 70       		.byte	0x70
 1512 0146 00       		.sleb128 0
 1513 0147 1C       		.byte	0x1c
 1514 0148 9F       		.byte	0x9f
 1515 0149 00000000 		.4byte	0
 1516 014d 00000000 		.4byte	0
 1517              	.LLST5:
 1518 0151 14000000 		.4byte	.LVL2-.Ltext0
 1519 0155 46000000 		.4byte	.LVL5-.Ltext0
 1520 0159 0200     		.2byte	0x2
 1521 015b 3F       		.byte	0x3f
 1522 015c 9F       		.byte	0x9f
 1523 015d 46000000 		.4byte	.LVL5-.Ltext0
 1524 0161 48000000 		.4byte	.LVL6-.Ltext0
 1525 0165 0500     		.2byte	0x5
 1526 0167 3F       		.byte	0x3f
 1527 0168 70       		.byte	0x70
 1528 0169 00       		.sleb128 0
 1529 016a 25       		.byte	0x25
 1530 016b 9F       		.byte	0x9f
 1531 016c 48000000 		.4byte	.LVL6-.Ltext0
 1532 0170 4E000000 		.4byte	.LVL8-.Ltext0
 1533 0174 0100     		.2byte	0x1
 1534 0176 53       		.byte	0x53
 1535 0177 4E000000 		.4byte	.LVL8-.Ltext0
 1536 017b 6C000000 		.4byte	.LFE30-.Ltext0
 1537 017f 0500     		.2byte	0x5
 1538 0181 3F       		.byte	0x3f
ARM GAS  G:\Users\Jaxb\AppData\Local\Temp\ccU94aZx.s 			page 32


 1539 0182 70       		.byte	0x70
 1540 0183 00       		.sleb128 0
 1541 0184 25       		.byte	0x25
 1542 0185 9F       		.byte	0x9f
 1543 0186 00000000 		.4byte	0
 1544 018a 00000000 		.4byte	0
 1545              	.LLST0:
 1546 018e 00000000 		.4byte	.LVL0-.Ltext0
 1547 0192 04000000 		.4byte	.LVL1-.Ltext0
 1548 0196 0100     		.2byte	0x1
 1549 0198 50       		.byte	0x50
 1550 0199 04000000 		.4byte	.LVL1-.Ltext0
 1551 019d 14000000 		.4byte	.LFE29-.Ltext0
 1552 01a1 0400     		.2byte	0x4
 1553 01a3 F3       		.byte	0xf3
 1554 01a4 01       		.uleb128 0x1
 1555 01a5 50       		.byte	0x50
 1556 01a6 9F       		.byte	0x9f
 1557 01a7 00000000 		.4byte	0
 1558 01ab 00000000 		.4byte	0
 1559              		.section	.debug_aranges,"",%progbits
 1560 0000 1C000000 		.4byte	0x1c
 1561 0004 0200     		.2byte	0x2
 1562 0006 00000000 		.4byte	.Ldebug_info0
 1563 000a 04       		.byte	0x4
 1564 000b 00       		.byte	0
 1565 000c 0000     		.2byte	0
 1566 000e 0000     		.2byte	0
 1567 0010 00000000 		.4byte	.Ltext0
 1568 0014 B0000000 		.4byte	.Letext0-.Ltext0
 1569 0018 00000000 		.4byte	0
 1570 001c 00000000 		.4byte	0
 1571              		.section	.debug_line,"",%progbits
 1572              	.Ldebug_line0:
 1573 0000 67010000 		.section	.debug_str,"MS",%progbits,1
 1573      02001C01 
 1573      00000201 
 1573      FB0E0D00 
 1573      01010101 
 1574              	.LASF21:
 1575 0000 49414252 		.ascii	"IABR\000"
 1575      00
 1576              	.LASF53:
 1577 0005 4E564943 		.ascii	"NVIC_InitTypeDef\000"
 1577      5F496E69 
 1577      74547970 
 1577      65446566 
 1577      00
 1578              	.LASF52:
 1579 0016 4E564943 		.ascii	"NVIC_IRQChannelCmd\000"
 1579      5F495251 
 1579      4368616E 
 1579      6E656C43 
 1579      6D6400
 1580              	.LASF56:
 1581 0029 53797354 		.ascii	"SysTick_CLKSource\000"
 1581      69636B5F 
ARM GAS  G:\Users\Jaxb\AppData\Local\Temp\ccU94aZx.s 			page 33


 1581      434C4B53 
 1581      6F757263 
 1581      6500
 1582              	.LASF63:
 1583 003b 4E564943 		.ascii	"NVIC_InitStruct\000"
 1583      5F496E69 
 1583      74537472 
 1583      75637400 
 1584              	.LASF54:
 1585 004b 53797354 		.ascii	"SysTick_CLKSourceConfig\000"
 1585      69636B5F 
 1585      434C4B53 
 1585      6F757263 
 1585      65436F6E 
 1586              	.LASF2:
 1587 0063 73686F72 		.ascii	"short int\000"
 1587      7420696E 
 1587      7400
 1588              	.LASF59:
 1589 006d 4E564943 		.ascii	"NVIC_SetVectorTable\000"
 1589      5F536574 
 1589      56656374 
 1589      6F725461 
 1589      626C6500 
 1590              	.LASF62:
 1591 0081 4E564943 		.ascii	"NVIC_Init\000"
 1591      5F496E69 
 1591      7400
 1592              	.LASF65:
 1593 008b 746D7070 		.ascii	"tmppre\000"
 1593      726500
 1594              	.LASF6:
 1595 0092 5F5F7569 		.ascii	"__uint32_t\000"
 1595      6E743332 
 1595      5F7400
 1596              	.LASF26:
 1597 009d 43505549 		.ascii	"CPUID\000"
 1597      4400
 1598              	.LASF14:
 1599 00a3 52455345 		.ascii	"RESERVED0\000"
 1599      52564544 
 1599      3000
 1600              	.LASF11:
 1601 00ad 75696E74 		.ascii	"uint8_t\000"
 1601      385F7400 
 1602              	.LASF67:
 1603 00b5 4E564943 		.ascii	"NVIC_PriorityGroup\000"
 1603      5F507269 
 1603      6F726974 
 1603      7947726F 
 1603      757000
 1604              	.LASF58:
 1605 00c8 4E657753 		.ascii	"NewState\000"
 1605      74617465 
 1605      00
 1606              	.LASF24:
 1607 00d1 53544952 		.ascii	"STIR\000"
ARM GAS  G:\Users\Jaxb\AppData\Local\Temp\ccU94aZx.s 			page 34


 1607      00
 1608              	.LASF46:
 1609 00d6 44495341 		.ascii	"DISABLE\000"
 1609      424C4500 
 1610              	.LASF27:
 1611 00de 49435352 		.ascii	"ICSR\000"
 1611      00
 1612              	.LASF16:
 1613 00e3 52534552 		.ascii	"RSERVED1\000"
 1613      56454431 
 1613      00
 1614              	.LASF8:
 1615 00ec 6C6F6E67 		.ascii	"long long int\000"
 1615      206C6F6E 
 1615      6720696E 
 1615      7400
 1616              	.LASF42:
 1617 00fa 43414C49 		.ascii	"CALIB\000"
 1617      4200
 1618              	.LASF28:
 1619 0100 56544F52 		.ascii	"VTOR\000"
 1619      00
 1620              	.LASF35:
 1621 0105 42464152 		.ascii	"BFAR\000"
 1621      00
 1622              	.LASF4:
 1623 010a 6C6F6E67 		.ascii	"long int\000"
 1623      20696E74 
 1623      00
 1624              	.LASF5:
 1625 0113 5F5F7569 		.ascii	"__uint8_t\000"
 1625      6E74385F 
 1625      7400
 1626              	.LASF31:
 1627 011d 43465352 		.ascii	"CFSR\000"
 1627      00
 1628              	.LASF57:
 1629 0122 4C6F7750 		.ascii	"LowPowerMode\000"
 1629      6F776572 
 1629      4D6F6465 
 1629      00
 1630              	.LASF1:
 1631 012f 756E7369 		.ascii	"unsigned char\000"
 1631      676E6564 
 1631      20636861 
 1631      7200
 1632              	.LASF29:
 1633 013d 41495243 		.ascii	"AIRCR\000"
 1633      5200
 1634              	.LASF39:
 1635 0143 5343425F 		.ascii	"SCB_Type\000"
 1635      54797065 
 1635      00
 1636              	.LASF40:
 1637 014c 4354524C 		.ascii	"CTRL\000"
 1637      00
 1638              	.LASF25:
ARM GAS  G:\Users\Jaxb\AppData\Local\Temp\ccU94aZx.s 			page 35


 1639 0151 4E564943 		.ascii	"NVIC_Type\000"
 1639      5F547970 
 1639      6500
 1640              	.LASF19:
 1641 015b 49435052 		.ascii	"ICPR\000"
 1641      00
 1642              	.LASF0:
 1643 0160 7369676E 		.ascii	"signed char\000"
 1643      65642063 
 1643      68617200 
 1644              	.LASF9:
 1645 016c 6C6F6E67 		.ascii	"long long unsigned int\000"
 1645      206C6F6E 
 1645      6720756E 
 1645      7369676E 
 1645      65642069 
 1646              	.LASF12:
 1647 0183 75696E74 		.ascii	"uint32_t\000"
 1647      33325F74 
 1647      00
 1648              	.LASF10:
 1649 018c 756E7369 		.ascii	"unsigned int\000"
 1649      676E6564 
 1649      20696E74 
 1649      00
 1650              	.LASF69:
 1651 0199 2E2E2F2E 		.ascii	"../../source/src/FWlib/src/misc.c\000"
 1651      2E2F736F 
 1651      75726365 
 1651      2F737263 
 1651      2F46576C 
 1652              	.LASF30:
 1653 01bb 53484353 		.ascii	"SHCSR\000"
 1653      5200
 1654              	.LASF34:
 1655 01c1 4D4D4641 		.ascii	"MMFAR\000"
 1655      5200
 1656              	.LASF66:
 1657 01c7 746D7073 		.ascii	"tmpsub\000"
 1657      756200
 1658              	.LASF55:
 1659 01ce 4E564943 		.ascii	"NVIC_SystemLPConfig\000"
 1659      5F537973 
 1659      74656D4C 
 1659      50436F6E 
 1659      66696700 
 1660              	.LASF61:
 1661 01e2 4F666673 		.ascii	"Offset\000"
 1661      657400
 1662              	.LASF43:
 1663 01e9 53797354 		.ascii	"SysTick_Type\000"
 1663      69636B5F 
 1663      54797065 
 1663      00
 1664              	.LASF3:
 1665 01f6 73686F72 		.ascii	"short unsigned int\000"
 1665      7420756E 
ARM GAS  G:\Users\Jaxb\AppData\Local\Temp\ccU94aZx.s 			page 36


 1665      7369676E 
 1665      65642069 
 1665      6E7400
 1666              	.LASF64:
 1667 0209 746D7070 		.ascii	"tmppriority\000"
 1667      72696F72 
 1667      69747900 
 1668              	.LASF38:
 1669 0215 49534152 		.ascii	"ISAR\000"
 1669      00
 1670              	.LASF17:
 1671 021a 49535052 		.ascii	"ISPR\000"
 1671      00
 1672              	.LASF33:
 1673 021f 44465352 		.ascii	"DFSR\000"
 1673      00
 1674              	.LASF49:
 1675 0224 4E564943 		.ascii	"NVIC_IRQChannel\000"
 1675      5F495251 
 1675      4368616E 
 1675      6E656C00 
 1676              	.LASF51:
 1677 0234 4E564943 		.ascii	"NVIC_IRQChannelSubPriority\000"
 1677      5F495251 
 1677      4368616E 
 1677      6E656C53 
 1677      75625072 
 1678              	.LASF45:
 1679 024f 53797374 		.ascii	"SystemCoreClock\000"
 1679      656D436F 
 1679      7265436C 
 1679      6F636B00 
 1680              	.LASF32:
 1681 025f 48465352 		.ascii	"HFSR\000"
 1681      00
 1682              	.LASF15:
 1683 0264 49434552 		.ascii	"ICER\000"
 1683      00
 1684              	.LASF37:
 1685 0269 4D4D4652 		.ascii	"MMFR\000"
 1685      00
 1686              	.LASF13:
 1687 026e 49534552 		.ascii	"ISER\000"
 1687      00
 1688              	.LASF18:
 1689 0273 52455345 		.ascii	"RESERVED2\000"
 1689      52564544 
 1689      3200
 1690              	.LASF20:
 1691 027d 52455345 		.ascii	"RESERVED3\000"
 1691      52564544 
 1691      3300
 1692              	.LASF22:
 1693 0287 52455345 		.ascii	"RESERVED4\000"
 1693      52564544 
 1693      3400
 1694              	.LASF23:
ARM GAS  G:\Users\Jaxb\AppData\Local\Temp\ccU94aZx.s 			page 37


 1695 0291 52455345 		.ascii	"RESERVED5\000"
 1695      52564544 
 1695      3500
 1696              	.LASF7:
 1697 029b 6C6F6E67 		.ascii	"long unsigned int\000"
 1697      20756E73 
 1697      69676E65 
 1697      6420696E 
 1697      7400
 1698              	.LASF50:
 1699 02ad 4E564943 		.ascii	"NVIC_IRQChannelPreemptionPriority\000"
 1699      5F495251 
 1699      4368616E 
 1699      6E656C50 
 1699      7265656D 
 1700              	.LASF70:
 1701 02cf 473A5C55 		.ascii	"G:\\Users\\Jaxb\\Desktop\\KAKAOS-0.07  2019.2.21  f"
 1701      73657273 
 1701      5C4A6178 
 1701      625C4465 
 1701      736B746F 
 1702 02fe 6F722067 		.ascii	"or gcc\\Project\\RVMDK\243\250uv5\243\251\000"
 1702      63635C50 
 1702      726F6A65 
 1702      63745C52 
 1702      564D444B 
 1703              	.LASF48:
 1704 031a 46756E63 		.ascii	"FunctionalState\000"
 1704      74696F6E 
 1704      616C5374 
 1704      61746500 
 1705              	.LASF60:
 1706 032a 4E564943 		.ascii	"NVIC_VectTab\000"
 1706      5F566563 
 1706      74546162 
 1706      00
 1707              	.LASF41:
 1708 0337 4C4F4144 		.ascii	"LOAD\000"
 1708      00
 1709              	.LASF36:
 1710 033c 41465352 		.ascii	"AFSR\000"
 1710      00
 1711              	.LASF68:
 1712 0341 474E5520 		.ascii	"GNU C11 7.3.1 20180622 (release) [ARM/embedded-7-br"
 1712      43313120 
 1712      372E332E 
 1712      31203230 
 1712      31383036 
 1713 0374 616E6368 		.ascii	"anch revision 261907] -mcpu=cortex-m3 -mthumb -mapc"
 1713      20726576 
 1713      6973696F 
 1713      6E203236 
 1713      31393037 
 1714 03a7 732D6672 		.ascii	"s-frame -mthumb-interwork -mcpu=cortex-m3 -mthumb -"
 1714      616D6520 
 1714      2D6D7468 
 1714      756D622D 
ARM GAS  G:\Users\Jaxb\AppData\Local\Temp\ccU94aZx.s 			page 38


 1714      696E7465 
 1715 03da 67647761 		.ascii	"gdwarf-2 -O2\000"
 1715      72662D32 
 1715      202D4F32 
 1715      00
 1716              	.LASF44:
 1717 03e7 49544D5F 		.ascii	"ITM_RxBuffer\000"
 1717      52784275 
 1717      66666572 
 1717      00
 1718              	.LASF47:
 1719 03f4 454E4142 		.ascii	"ENABLE\000"
 1719      4C4500
 1720              	.LASF71:
 1721 03fb 4E564943 		.ascii	"NVIC_PriorityGroupConfig\000"
 1721      5F507269 
 1721      6F726974 
 1721      7947726F 
 1721      7570436F 
 1722              		.ident	"GCC: (GNU Tools for Arm Embedded Processors 7-2018-q2-update) 7.3.1 20180622 (release) [AR
ARM GAS  G:\Users\Jaxb\AppData\Local\Temp\ccU94aZx.s 			page 39


DEFINED SYMBOLS
                            *ABS*:00000000 misc.c
G:\Users\Jaxb\AppData\Local\Temp\ccU94aZx.s:15     .text:00000000 $t
G:\Users\Jaxb\AppData\Local\Temp\ccU94aZx.s:23     .text:00000000 NVIC_PriorityGroupConfig
G:\Users\Jaxb\AppData\Local\Temp\ccU94aZx.s:43     .text:00000010 $d
G:\Users\Jaxb\AppData\Local\Temp\ccU94aZx.s:47     .text:00000014 $t
G:\Users\Jaxb\AppData\Local\Temp\ccU94aZx.s:55     .text:00000014 NVIC_Init
G:\Users\Jaxb\AppData\Local\Temp\ccU94aZx.s:150    .text:00000064 $d
G:\Users\Jaxb\AppData\Local\Temp\ccU94aZx.s:155    .text:0000006c $t
G:\Users\Jaxb\AppData\Local\Temp\ccU94aZx.s:163    .text:0000006c NVIC_SetVectorTable
G:\Users\Jaxb\AppData\Local\Temp\ccU94aZx.s:183    .text:0000007c $d
G:\Users\Jaxb\AppData\Local\Temp\ccU94aZx.s:187    .text:00000080 $t
G:\Users\Jaxb\AppData\Local\Temp\ccU94aZx.s:195    .text:00000080 NVIC_SystemLPConfig
G:\Users\Jaxb\AppData\Local\Temp\ccU94aZx.s:224    .text:00000094 $d
G:\Users\Jaxb\AppData\Local\Temp\ccU94aZx.s:228    .text:00000098 $t
G:\Users\Jaxb\AppData\Local\Temp\ccU94aZx.s:236    .text:00000098 SysTick_CLKSourceConfig
G:\Users\Jaxb\AppData\Local\Temp\ccU94aZx.s:260    .text:000000ac $d

NO UNDEFINED SYMBOLS
