ARM GAS  G:\Users\Jaxb\AppData\Local\Temp\ccU94aZx.s 			page 1


   1              		.cpu cortex-m3
   2              		.eabi_attribute 20, 1
   3              		.eabi_attribute 21, 1
   4              		.eabi_attribute 23, 3
   5              		.eabi_attribute 24, 1
   6              		.eabi_attribute 25, 1
   7              		.eabi_attribute 26, 1
   8              		.eabi_attribute 30, 2
   9              		.eabi_attribute 34, 1
  10              		.eabi_attribute 18, 4
  11              		.file	"misc.c"
  12              		.text
  13              	.Ltext0:
  14              		.cfi_sections	.debug_frame
  15              		.align	1
  16              		.p2align 2,,3
  17              		.global	NVIC_PriorityGroupConfig
  18              		.syntax unified
  19              		.thumb
  20              		.thumb_func
  21              		.fpu softvfp
  22              		.type	NVIC_PriorityGroupConfig, %function
  23              	NVIC_PriorityGroupConfig:
  24              	.LFB29:
  25              		.file 1 "../../source/src/FWlib/src/misc.c"
   1:../../source/src/FWlib/src/misc.c **** /**
   2:../../source/src/FWlib/src/misc.c ****   ******************************************************************************
   3:../../source/src/FWlib/src/misc.c ****   * @file    misc.c
   4:../../source/src/FWlib/src/misc.c ****   * @author  MCD Application Team
   5:../../source/src/FWlib/src/misc.c ****   * @version V3.5.0
   6:../../source/src/FWlib/src/misc.c ****   * @date    11-March-2011
   7:../../source/src/FWlib/src/misc.c ****   * @brief   This file provides all the miscellaneous firmware functions (add-on
   8:../../source/src/FWlib/src/misc.c ****   *          to CMSIS functions).
   9:../../source/src/FWlib/src/misc.c ****   ******************************************************************************
  10:../../source/src/FWlib/src/misc.c ****   * @attention
  11:../../source/src/FWlib/src/misc.c ****   *
  12:../../source/src/FWlib/src/misc.c ****   * THE PRESENT FIRMWARE WHICH IS FOR GUIDANCE ONLY AIMS AT PROVIDING CUSTOMERS
  13:../../source/src/FWlib/src/misc.c ****   * WITH CODING INFORMATION REGARDING THEIR PRODUCTS IN ORDER FOR THEM TO SAVE
  14:../../source/src/FWlib/src/misc.c ****   * TIME. AS A RESULT, STMICROELECTRONICS SHALL NOT BE HELD LIABLE FOR ANY
  15:../../source/src/FWlib/src/misc.c ****   * DIRECT, INDIRECT OR CONSEQUENTIAL DAMAGES WITH RESPECT TO ANY CLAIMS ARISING
  16:../../source/src/FWlib/src/misc.c ****   * FROM THE CONTENT OF SUCH FIRMWARE AND/OR THE USE MADE BY CUSTOMERS OF THE
  17:../../source/src/FWlib/src/misc.c ****   * CODING INFORMATION CONTAINED HEREIN IN CONNECTION WITH THEIR PRODUCTS.
  18:../../source/src/FWlib/src/misc.c ****   *
  19:../../source/src/FWlib/src/misc.c ****   * <h2><center>&copy; COPYRIGHT 2011 STMicroelectronics</center></h2>
  20:../../source/src/FWlib/src/misc.c ****   ******************************************************************************
  21:../../source/src/FWlib/src/misc.c ****   */
  22:../../source/src/FWlib/src/misc.c **** 
  23:../../source/src/FWlib/src/misc.c **** /* Includes ------------------------------------------------------------------*/
  24:../../source/src/FWlib/src/misc.c **** #include "misc.h"
  25:../../source/src/FWlib/src/misc.c **** 
  26:../../source/src/FWlib/src/misc.c **** /** @addtogroup STM32F10x_StdPeriph_Driver
  27:../../source/src/FWlib/src/misc.c ****   * @{
  28:../../source/src/FWlib/src/misc.c ****   */
  29:../../source/src/FWlib/src/misc.c **** 
  30:../../source/src/FWlib/src/misc.c **** /** @defgroup MISC 
  31:../../source/src/FWlib/src/misc.c ****   * @brief MISC driver modules
  32:../../source/src/FWlib/src/misc.c ****   * @{
ARM GAS  G:\Users\Jaxb\AppData\Local\Temp\ccU94aZx.s 			page 2


  33:../../source/src/FWlib/src/misc.c ****   */
  34:../../source/src/FWlib/src/misc.c **** 
  35:../../source/src/FWlib/src/misc.c **** /** @defgroup MISC_Private_TypesDefinitions
  36:../../source/src/FWlib/src/misc.c ****   * @{
  37:../../source/src/FWlib/src/misc.c ****   */
  38:../../source/src/FWlib/src/misc.c **** 
  39:../../source/src/FWlib/src/misc.c **** /**
  40:../../source/src/FWlib/src/misc.c ****   * @}
  41:../../source/src/FWlib/src/misc.c ****   */ 
  42:../../source/src/FWlib/src/misc.c **** 
  43:../../source/src/FWlib/src/misc.c **** /** @defgroup MISC_Private_Defines
  44:../../source/src/FWlib/src/misc.c ****   * @{
  45:../../source/src/FWlib/src/misc.c ****   */
  46:../../source/src/FWlib/src/misc.c **** 
  47:../../source/src/FWlib/src/misc.c **** #define AIRCR_VECTKEY_MASK    ((uint32_t)0x05FA0000)
  48:../../source/src/FWlib/src/misc.c **** /**
  49:../../source/src/FWlib/src/misc.c ****   * @}
  50:../../source/src/FWlib/src/misc.c ****   */
  51:../../source/src/FWlib/src/misc.c **** 
  52:../../source/src/FWlib/src/misc.c **** /** @defgroup MISC_Private_Macros
  53:../../source/src/FWlib/src/misc.c ****   * @{
  54:../../source/src/FWlib/src/misc.c ****   */
  55:../../source/src/FWlib/src/misc.c **** 
  56:../../source/src/FWlib/src/misc.c **** /**
  57:../../source/src/FWlib/src/misc.c ****   * @}
  58:../../source/src/FWlib/src/misc.c ****   */
  59:../../source/src/FWlib/src/misc.c **** 
  60:../../source/src/FWlib/src/misc.c **** /** @defgroup MISC_Private_Variables
  61:../../source/src/FWlib/src/misc.c ****   * @{
  62:../../source/src/FWlib/src/misc.c ****   */
  63:../../source/src/FWlib/src/misc.c **** 
  64:../../source/src/FWlib/src/misc.c **** /**
  65:../../source/src/FWlib/src/misc.c ****   * @}
  66:../../source/src/FWlib/src/misc.c ****   */
  67:../../source/src/FWlib/src/misc.c **** 
  68:../../source/src/FWlib/src/misc.c **** /** @defgroup MISC_Private_FunctionPrototypes
  69:../../source/src/FWlib/src/misc.c ****   * @{
  70:../../source/src/FWlib/src/misc.c ****   */
  71:../../source/src/FWlib/src/misc.c **** 
  72:../../source/src/FWlib/src/misc.c **** /**
  73:../../source/src/FWlib/src/misc.c ****   * @}
  74:../../source/src/FWlib/src/misc.c ****   */
  75:../../source/src/FWlib/src/misc.c **** 
  76:../../source/src/FWlib/src/misc.c **** /** @defgroup MISC_Private_Functions
  77:../../source/src/FWlib/src/misc.c ****   * @{
  78:../../source/src/FWlib/src/misc.c ****   */
  79:../../source/src/FWlib/src/misc.c **** 
  80:../../source/src/FWlib/src/misc.c **** /**
  81:../../source/src/FWlib/src/misc.c ****   * @brief  Configures the priority grouping: pre-emption priority and subpriority.
  82:../../source/src/FWlib/src/misc.c ****   * @param  NVIC_PriorityGroup: specifies the priority grouping bits length. 
  83:../../source/src/FWlib/src/misc.c ****   *   This parameter can be one of the following values:
  84:../../source/src/FWlib/src/misc.c ****   *     @arg NVIC_PriorityGroup_0: 0 bits for pre-emption priority
  85:../../source/src/FWlib/src/misc.c ****   *                                4 bits for subpriority
  86:../../source/src/FWlib/src/misc.c ****   *     @arg NVIC_PriorityGroup_1: 1 bits for pre-emption priority
  87:../../source/src/FWlib/src/misc.c ****   *                                3 bits for subpriority
  88:../../source/src/FWlib/src/misc.c ****   *     @arg NVIC_PriorityGroup_2: 2 bits for pre-emption priority
  89:../../source/src/FWlib/src/misc.c ****   *                                2 bits for subpriority
ARM GAS  G:\Users\Jaxb\AppData\Local\Temp\ccU94aZx.s 			page 3


  90:../../source/src/FWlib/src/misc.c ****   *     @arg NVIC_PriorityGroup_3: 3 bits for pre-emption priority
  91:../../source/src/FWlib/src/misc.c ****   *                                1 bits for subpriority
  92:../../source/src/FWlib/src/misc.c ****   *     @arg NVIC_PriorityGroup_4: 4 bits for pre-emption priority
  93:../../source/src/FWlib/src/misc.c ****   *                                0 bits for subpriority
  94:../../source/src/FWlib/src/misc.c ****   * @retval None
  95:../../source/src/FWlib/src/misc.c ****   */
  96:../../source/src/FWlib/src/misc.c **** void NVIC_PriorityGroupConfig(uint32_t NVIC_PriorityGroup)
  97:../../source/src/FWlib/src/misc.c **** {
  26              		.loc 1 97 0
  27              		.cfi_startproc
  28              		@ args = 0, pretend = 0, frame = 0
  29              		@ frame_needed = 0, uses_anonymous_args = 0
  30              		@ link register save eliminated.
  31              	.LVL0:
  98:../../source/src/FWlib/src/misc.c ****   /* Check the parameters */
  99:../../source/src/FWlib/src/misc.c ****   assert_param(IS_NVIC_PRIORITY_GROUP(NVIC_PriorityGroup));
 100:../../source/src/FWlib/src/misc.c ****   
 101:../../source/src/FWlib/src/misc.c ****   /* Set the PRIGROUP[10:8] bits according to NVIC_PriorityGroup value */
 102:../../source/src/FWlib/src/misc.c ****   SCB->AIRCR = AIRCR_VECTKEY_MASK | NVIC_PriorityGroup;
  32              		.loc 1 102 0
  33 0000 40F0BF60 		orr	r0, r0, #100139008
  34              	.LVL1:
  35 0004 024B     		ldr	r3, .L3
  36 0006 40F40030 		orr	r0, r0, #131072
  37 000a D860     		str	r0, [r3, #12]
 103:../../source/src/FWlib/src/misc.c **** }
  38              		.loc 1 103 0
  39 000c 7047     		bx	lr
  40              	.L4:
  41 000e 00BF     		.align	2
  42              	.L3:
  43 0010 00ED00E0 		.word	-536810240
  44              		.cfi_endproc
  45              	.LFE29:
  46              		.size	NVIC_PriorityGroupConfig, .-NVIC_PriorityGroupConfig
  47              		.align	1
  48              		.p2align 2,,3
  49              		.global	NVIC_Init
  50              		.syntax unified
  51              		.thumb
  52              		.thumb_func
  53              		.fpu softvfp
  54              		.type	NVIC_Init, %function
  55              	NVIC_Init:
  56              	.LFB30:
 104:../../source/src/FWlib/src/misc.c **** 
 105:../../source/src/FWlib/src/misc.c **** /**
 106:../../source/src/FWlib/src/misc.c ****   * @brief  Initializes the NVIC peripheral according to the specified
 107:../../source/src/FWlib/src/misc.c ****   *         parameters in the NVIC_InitStruct.
 108:../../source/src/FWlib/src/misc.c ****   * @param  NVIC_InitStruct: pointer to a NVIC_InitTypeDef structure that contains
 109:../../source/src/FWlib/src/misc.c ****   *         the configuration information for the specified NVIC peripheral.
 110:../../source/src/FWlib/src/misc.c ****   * @retval None
 111:../../source/src/FWlib/src/misc.c ****   */
 112:../../source/src/FWlib/src/misc.c **** void NVIC_Init(NVIC_InitTypeDef* NVIC_InitStruct)
 113:../../source/src/FWlib/src/misc.c **** {
  57              		.loc 1 113 0
  58              		.cfi_startproc
ARM GAS  G:\Users\Jaxb\AppData\Local\Temp\ccU94aZx.s 			page 4


  59              		@ args = 0, pretend = 0, frame = 0
  60              		@ frame_needed = 0, uses_anonymous_args = 0
  61              		@ link register save eliminated.
  62              	.LVL2:
  63 0014 F0B4     		push	{r4, r5, r6, r7}
  64              	.LCFI0:
  65              		.cfi_def_cfa_offset 16
  66              		.cfi_offset 4, -16
  67              		.cfi_offset 5, -12
  68              		.cfi_offset 6, -8
  69              		.cfi_offset 7, -4
  70 0016 0124     		movs	r4, #1
  71 0018 0178     		ldrb	r1, [r0]	@ zero_extendqisi2
 114:../../source/src/FWlib/src/misc.c ****   uint32_t tmppriority = 0x00, tmppre = 0x00, tmpsub = 0x0F;
 115:../../source/src/FWlib/src/misc.c ****   
 116:../../source/src/FWlib/src/misc.c ****   /* Check the parameters */
 117:../../source/src/FWlib/src/misc.c ****   assert_param(IS_FUNCTIONAL_STATE(NVIC_InitStruct->NVIC_IRQChannelCmd));
 118:../../source/src/FWlib/src/misc.c ****   assert_param(IS_NVIC_PREEMPTION_PRIORITY(NVIC_InitStruct->NVIC_IRQChannelPreemptionPriority));  
 119:../../source/src/FWlib/src/misc.c ****   assert_param(IS_NVIC_SUB_PRIORITY(NVIC_InitStruct->NVIC_IRQChannelSubPriority));
 120:../../source/src/FWlib/src/misc.c ****     
 121:../../source/src/FWlib/src/misc.c ****   if (NVIC_InitStruct->NVIC_IRQChannelCmd != DISABLE)
  72              		.loc 1 121 0
  73 001a C378     		ldrb	r3, [r0, #3]	@ zero_extendqisi2
  74 001c 01F01F02 		and	r2, r1, #31
  75 0020 9440     		lsls	r4, r4, r2
  76 0022 4E09     		lsrs	r6, r1, #5
  77 0024 2BB9     		cbnz	r3, .L8
 122:../../source/src/FWlib/src/misc.c ****   {
 123:../../source/src/FWlib/src/misc.c ****     /* Compute the Corresponding IRQ Priority --------------------------------*/    
 124:../../source/src/FWlib/src/misc.c ****     tmppriority = (0x700 - ((SCB->AIRCR) & (uint32_t)0x700))>> 0x08;
 125:../../source/src/FWlib/src/misc.c ****     tmppre = (0x4 - tmppriority);
 126:../../source/src/FWlib/src/misc.c ****     tmpsub = tmpsub >> tmppriority;
 127:../../source/src/FWlib/src/misc.c **** 
 128:../../source/src/FWlib/src/misc.c ****     tmppriority = (uint32_t)NVIC_InitStruct->NVIC_IRQChannelPreemptionPriority << tmppre;
 129:../../source/src/FWlib/src/misc.c ****     tmppriority |=  NVIC_InitStruct->NVIC_IRQChannelSubPriority & tmpsub;
 130:../../source/src/FWlib/src/misc.c ****     tmppriority = tmppriority << 0x04;
 131:../../source/src/FWlib/src/misc.c ****         
 132:../../source/src/FWlib/src/misc.c ****     NVIC->IP[NVIC_InitStruct->NVIC_IRQChannel] = tmppriority;
 133:../../source/src/FWlib/src/misc.c ****     
 134:../../source/src/FWlib/src/misc.c ****     /* Enable the Selected IRQ Channels --------------------------------------*/
 135:../../source/src/FWlib/src/misc.c ****     NVIC->ISER[NVIC_InitStruct->NVIC_IRQChannel >> 0x05] =
 136:../../source/src/FWlib/src/misc.c ****       (uint32_t)0x01 << (NVIC_InitStruct->NVIC_IRQChannel & (uint8_t)0x1F);
 137:../../source/src/FWlib/src/misc.c ****   }
 138:../../source/src/FWlib/src/misc.c ****   else
 139:../../source/src/FWlib/src/misc.c ****   {
 140:../../source/src/FWlib/src/misc.c ****     /* Disable the Selected IRQ Channels -------------------------------------*/
 141:../../source/src/FWlib/src/misc.c ****     NVIC->ICER[NVIC_InitStruct->NVIC_IRQChannel >> 0x05] =
  78              		.loc 1 141 0
  79 0026 0F4B     		ldr	r3, .L9
  80 0028 2036     		adds	r6, r6, #32
  81 002a 43F82640 		str	r4, [r3, r6, lsl #2]
 142:../../source/src/FWlib/src/misc.c ****       (uint32_t)0x01 << (NVIC_InitStruct->NVIC_IRQChannel & (uint8_t)0x1F);
 143:../../source/src/FWlib/src/misc.c ****   }
 144:../../source/src/FWlib/src/misc.c **** }
  82              		.loc 1 144 0
  83 002e F0BC     		pop	{r4, r5, r6, r7}
  84              	.LCFI1:
ARM GAS  G:\Users\Jaxb\AppData\Local\Temp\ccU94aZx.s 			page 5


  85              		.cfi_remember_state
  86              		.cfi_restore 7
  87              		.cfi_restore 6
  88              		.cfi_restore 5
  89              		.cfi_restore 4
  90              		.cfi_def_cfa_offset 0
  91 0030 7047     		bx	lr
  92              	.L8:
  93              	.LCFI2:
  94              		.cfi_restore_state
 124:../../source/src/FWlib/src/misc.c ****     tmppre = (0x4 - tmppriority);
  95              		.loc 1 124 0
  96 0032 0D4B     		ldr	r3, .L9+4
 128:../../source/src/FWlib/src/misc.c ****     tmppriority |=  NVIC_InitStruct->NVIC_IRQChannelSubPriority & tmpsub;
  97              		.loc 1 128 0
  98 0034 4778     		ldrb	r7, [r0, #1]	@ zero_extendqisi2
 124:../../source/src/FWlib/src/misc.c ****     tmppre = (0x4 - tmppriority);
  99              		.loc 1 124 0
 100 0036 DD68     		ldr	r5, [r3, #12]
 129:../../source/src/FWlib/src/misc.c ****     tmppriority = tmppriority << 0x04;
 101              		.loc 1 129 0
 102 0038 8278     		ldrb	r2, [r0, #2]	@ zero_extendqisi2
 124:../../source/src/FWlib/src/misc.c ****     tmppre = (0x4 - tmppriority);
 103              		.loc 1 124 0
 104 003a E843     		mvns	r0, r5
 105              	.LVL3:
 126:../../source/src/FWlib/src/misc.c **** 
 106              		.loc 1 126 0
 107 003c 0F23     		movs	r3, #15
 124:../../source/src/FWlib/src/misc.c ****     tmppre = (0x4 - tmppriority);
 108              		.loc 1 124 0
 109 003e C0F30220 		ubfx	r0, r0, #8, #3
 110              	.LVL4:
 125:../../source/src/FWlib/src/misc.c ****     tmpsub = tmpsub >> tmppriority;
 111              		.loc 1 125 0
 112 0042 C0F10405 		rsb	r5, r0, #4
 113              	.LVL5:
 126:../../source/src/FWlib/src/misc.c **** 
 114              		.loc 1 126 0
 115 0046 C340     		lsrs	r3, r3, r0
 116              	.LVL6:
 128:../../source/src/FWlib/src/misc.c ****     tmppriority |=  NVIC_InitStruct->NVIC_IRQChannelSubPriority & tmpsub;
 117              		.loc 1 128 0
 118 0048 07FA05F5 		lsl	r5, r7, r5
 119              	.LVL7:
 129:../../source/src/FWlib/src/misc.c ****     tmppriority = tmppriority << 0x04;
 120              		.loc 1 129 0
 121 004c 1340     		ands	r3, r3, r2
 122              	.LVL8:
 123 004e 2B43     		orrs	r3, r3, r5
 124              	.LVL9:
 132:../../source/src/FWlib/src/misc.c ****     
 125              		.loc 1 132 0
 126 0050 044A     		ldr	r2, .L9
 130:../../source/src/FWlib/src/misc.c ****         
 127              		.loc 1 130 0
 128 0052 1B01     		lsls	r3, r3, #4
ARM GAS  G:\Users\Jaxb\AppData\Local\Temp\ccU94aZx.s 			page 6


 129              	.LVL10:
 132:../../source/src/FWlib/src/misc.c ****     
 130              		.loc 1 132 0
 131 0054 DBB2     		uxtb	r3, r3
 132              	.LVL11:
 133 0056 1144     		add	r1, r1, r2
 134 0058 81F80033 		strb	r3, [r1, #768]
 135              	.LVL12:
 135:../../source/src/FWlib/src/misc.c ****       (uint32_t)0x01 << (NVIC_InitStruct->NVIC_IRQChannel & (uint8_t)0x1F);
 136              		.loc 1 135 0
 137 005c 42F82640 		str	r4, [r2, r6, lsl #2]
 138              		.loc 1 144 0
 139 0060 F0BC     		pop	{r4, r5, r6, r7}
 140              	.LCFI3:
 141              		.cfi_restore 7
 142              		.cfi_restore 6
 143              		.cfi_restore 5
 144              		.cfi_restore 4
 145              		.cfi_def_cfa_offset 0
 146 0062 7047     		bx	lr
 147              	.L10:
 148              		.align	2
 149              	.L9:
 150 0064 00E100E0 		.word	-536813312
 151 0068 00ED00E0 		.word	-536810240
 152              		.cfi_endproc
 153              	.LFE30:
 154              		.size	NVIC_Init, .-NVIC_Init
 155              		.align	1
 156              		.p2align 2,,3
 157              		.global	NVIC_SetVectorTable
 158              		.syntax unified
 159              		.thumb
 160              		.thumb_func
 161              		.fpu softvfp
 162              		.type	NVIC_SetVectorTable, %function
 163              	NVIC_SetVectorTable:
 164              	.LFB31:
 145:../../source/src/FWlib/src/misc.c **** 
 146:../../source/src/FWlib/src/misc.c **** /**
 147:../../source/src/FWlib/src/misc.c ****   * @brief  Sets the vector table location and Offset.
 148:../../source/src/FWlib/src/misc.c ****   * @param  NVIC_VectTab: specifies if the vector table is in RAM or FLASH memory.
 149:../../source/src/FWlib/src/misc.c ****   *   This parameter can be one of the following values:
 150:../../source/src/FWlib/src/misc.c ****   *     @arg NVIC_VectTab_RAM
 151:../../source/src/FWlib/src/misc.c ****   *     @arg NVIC_VectTab_FLASH
 152:../../source/src/FWlib/src/misc.c ****   * @param  Offset: Vector Table base offset field. This value must be a multiple 
 153:../../source/src/FWlib/src/misc.c ****   *         of 0x200.
 154:../../source/src/FWlib/src/misc.c ****   * @retval None
 155:../../source/src/FWlib/src/misc.c ****   */
 156:../../source/src/FWlib/src/misc.c **** void NVIC_SetVectorTable(uint32_t NVIC_VectTab, uint32_t Offset)
 157:../../source/src/FWlib/src/misc.c **** { 
 165              		.loc 1 157 0
 166              		.cfi_startproc
 167              		@ args = 0, pretend = 0, frame = 0
 168              		@ frame_needed = 0, uses_anonymous_args = 0
 169              		@ link register save eliminated.
 170              	.LVL13:
ARM GAS  G:\Users\Jaxb\AppData\Local\Temp\ccU94aZx.s 			page 7


 158:../../source/src/FWlib/src/misc.c ****   /* Check the parameters */
 159:../../source/src/FWlib/src/misc.c ****   assert_param(IS_NVIC_VECTTAB(NVIC_VectTab));
 160:../../source/src/FWlib/src/misc.c ****   assert_param(IS_NVIC_OFFSET(Offset));  
 161:../../source/src/FWlib/src/misc.c ****    
 162:../../source/src/FWlib/src/misc.c ****   SCB->VTOR = NVIC_VectTab | (Offset & (uint32_t)0x1FFFFF80);
 171              		.loc 1 162 0
 172 006c 21F06041 		bic	r1, r1, #-536870912
 173              	.LVL14:
 174 0070 21F07F01 		bic	r1, r1, #127
 175 0074 014B     		ldr	r3, .L12
 176 0076 0143     		orrs	r1, r1, r0
 177 0078 9960     		str	r1, [r3, #8]
 163:../../source/src/FWlib/src/misc.c **** }
 178              		.loc 1 163 0
 179 007a 7047     		bx	lr
 180              	.L13:
 181              		.align	2
 182              	.L12:
 183 007c 00ED00E0 		.word	-536810240
 184              		.cfi_endproc
 185              	.LFE31:
 186              		.size	NVIC_SetVectorTable, .-NVIC_SetVectorTable
 187              		.align	1
 188              		.p2align 2,,3
 189              		.global	NVIC_SystemLPConfig
 190              		.syntax unified
 191              		.thumb
 192              		.thumb_func
 193              		.fpu softvfp
 194              		.type	NVIC_SystemLPConfig, %function
 195              	NVIC_SystemLPConfig:
 196              	.LFB32:
 164:../../source/src/FWlib/src/misc.c **** 
 165:../../source/src/FWlib/src/misc.c **** /**
 166:../../source/src/FWlib/src/misc.c ****   * @brief  Selects the condition for the system to enter low power mode.
 167:../../source/src/FWlib/src/misc.c ****   * @param  LowPowerMode: Specifies the new mode for the system to enter low power mode.
 168:../../source/src/FWlib/src/misc.c ****   *   This parameter can be one of the following values:
 169:../../source/src/FWlib/src/misc.c ****   *     @arg NVIC_LP_SEVONPEND
 170:../../source/src/FWlib/src/misc.c ****   *     @arg NVIC_LP_SLEEPDEEP
 171:../../source/src/FWlib/src/misc.c ****   *     @arg NVIC_LP_SLEEPONEXIT
 172:../../source/src/FWlib/src/misc.c ****   * @param  NewState: new state of LP condition. This parameter can be: ENABLE or DISABLE.
 173:../../source/src/FWlib/src/misc.c ****   * @retval None
 174:../../source/src/FWlib/src/misc.c ****   */
 175:../../source/src/FWlib/src/misc.c **** void NVIC_SystemLPConfig(uint8_t LowPowerMode, FunctionalState NewState)
 176:../../source/src/FWlib/src/misc.c **** {
 197              		.loc 1 176 0
 198              		.cfi_startproc
 199              		@ args = 0, pretend = 0, frame = 0
 200              		@ frame_needed = 0, uses_anonymous_args = 0
 201              		@ link register save eliminated.
 202              	.LVL15:
 177:../../source/src/FWlib/src/misc.c ****   /* Check the parameters */
 178:../../source/src/FWlib/src/misc.c ****   assert_param(IS_NVIC_LP(LowPowerMode));
 179:../../source/src/FWlib/src/misc.c ****   assert_param(IS_FUNCTIONAL_STATE(NewState));  
 180:../../source/src/FWlib/src/misc.c ****   
 181:../../source/src/FWlib/src/misc.c ****   if (NewState != DISABLE)
 182:../../source/src/FWlib/src/misc.c ****   {
ARM GAS  G:\Users\Jaxb\AppData\Local\Temp\ccU94aZx.s 			page 8


 183:../../source/src/FWlib/src/misc.c ****     SCB->SCR |= LowPowerMode;
 203              		.loc 1 183 0
 204 0080 044A     		ldr	r2, .L18
 205 0082 1369     		ldr	r3, [r2, #16]
 181:../../source/src/FWlib/src/misc.c ****   {
 206              		.loc 1 181 0
 207 0084 19B9     		cbnz	r1, .L17
 184:../../source/src/FWlib/src/misc.c ****   }
 185:../../source/src/FWlib/src/misc.c ****   else
 186:../../source/src/FWlib/src/misc.c ****   {
 187:../../source/src/FWlib/src/misc.c ****     SCB->SCR &= (uint32_t)(~(uint32_t)LowPowerMode);
 208              		.loc 1 187 0
 209 0086 23EA0000 		bic	r0, r3, r0
 210              	.LVL16:
 211 008a 1061     		str	r0, [r2, #16]
 188:../../source/src/FWlib/src/misc.c ****   }
 189:../../source/src/FWlib/src/misc.c **** }
 212              		.loc 1 189 0
 213 008c 7047     		bx	lr
 214              	.LVL17:
 215              	.L17:
 183:../../source/src/FWlib/src/misc.c ****   }
 216              		.loc 1 183 0
 217 008e 1843     		orrs	r0, r0, r3
 218              	.LVL18:
 219 0090 1061     		str	r0, [r2, #16]
 220 0092 7047     		bx	lr
 221              	.L19:
 222              		.align	2
 223              	.L18:
 224 0094 00ED00E0 		.word	-536810240
 225              		.cfi_endproc
 226              	.LFE32:
 227              		.size	NVIC_SystemLPConfig, .-NVIC_SystemLPConfig
 228              		.align	1
 229              		.p2align 2,,3
 230              		.global	SysTick_CLKSourceConfig
 231              		.syntax unified
 232              		.thumb
 233              		.thumb_func
 234              		.fpu softvfp
 235              		.type	SysTick_CLKSourceConfig, %function
 236              	SysTick_CLKSourceConfig:
 237              	.LFB33:
 190:../../source/src/FWlib/src/misc.c **** 
 191:../../source/src/FWlib/src/misc.c **** /**
 192:../../source/src/FWlib/src/misc.c ****   * @brief  Configures the SysTick clock source.
 193:../../source/src/FWlib/src/misc.c ****   * @param  SysTick_CLKSource: specifies the SysTick clock source.
 194:../../source/src/FWlib/src/misc.c ****   *   This parameter can be one of the following values:
 195:../../source/src/FWlib/src/misc.c ****   *     @arg SysTick_CLKSource_HCLK_Div8: AHB clock divided by 8 selected as SysTick clock source.
 196:../../source/src/FWlib/src/misc.c ****   *     @arg SysTick_CLKSource_HCLK: AHB clock selected as SysTick clock source.
 197:../../source/src/FWlib/src/misc.c ****   * @retval None
 198:../../source/src/FWlib/src/misc.c ****   */
 199:../../source/src/FWlib/src/misc.c **** void SysTick_CLKSourceConfig(uint32_t SysTick_CLKSource)
 200:../../source/src/FWlib/src/misc.c **** {
 238              		.loc 1 200 0
 239              		.cfi_startproc
ARM GAS  G:\Users\Jaxb\AppData\Local\Temp\ccU94aZx.s 			page 9


 240              		@ args = 0, pretend = 0, frame = 0
 241              		@ frame_needed = 0, uses_anonymous_args = 0
 242              		@ link register save eliminated.
 243              	.LVL19:
 201:../../source/src/FWlib/src/misc.c ****   /* Check the parameters */
 202:../../source/src/FWlib/src/misc.c ****   assert_param(IS_SYSTICK_CLK_SOURCE(SysTick_CLKSource));
 203:../../source/src/FWlib/src/misc.c ****   if (SysTick_CLKSource == SysTick_CLKSource_HCLK)
 204:../../source/src/FWlib/src/misc.c ****   {
 205:../../source/src/FWlib/src/misc.c ****     SysTick->CTRL |= SysTick_CLKSource_HCLK;
 244              		.loc 1 205 0
 245 0098 044A     		ldr	r2, .L23
 203:../../source/src/FWlib/src/misc.c ****   {
 246              		.loc 1 203 0
 247 009a 0428     		cmp	r0, #4
 248              		.loc 1 205 0
 249 009c 1368     		ldr	r3, [r2]
 250 009e 0CBF     		ite	eq
 251 00a0 43F00403 		orreq	r3, r3, #4
 206:../../source/src/FWlib/src/misc.c ****   }
 207:../../source/src/FWlib/src/misc.c ****   else
 208:../../source/src/FWlib/src/misc.c ****   {
 209:../../source/src/FWlib/src/misc.c ****     SysTick->CTRL &= SysTick_CLKSource_HCLK_Div8;
 252              		.loc 1 209 0
 253 00a4 23F00403 		bicne	r3, r3, #4
 254 00a8 1360     		str	r3, [r2]
 210:../../source/src/FWlib/src/misc.c ****   }
 211:../../source/src/FWlib/src/misc.c **** }
 255              		.loc 1 211 0
 256 00aa 7047     		bx	lr
 257              	.L24:
 258              		.align	2
 259              	.L23:
 260 00ac 10E000E0 		.word	-536813552
 261              		.cfi_endproc
 262              	.LFE33:
 263              		.size	SysTick_CLKSourceConfig, .-SysTick_CLKSourceConfig
 264              	.Letext0:
 265              		.file 2 "f:\\arm\\gcc2018\\arm-none-eabi\\include\\machine\\_default_types.h"
 266              		.file 3 "f:\\arm\\gcc2018\\arm-none-eabi\\include\\sys\\_stdint.h"
 267              		.file 4 "../../source/include/core_cm3.h"
 268              		.file 5 "../../source/include/system_stm32f10x.h"
 269              		.file 6 "../../source/include/stm32f10x.h"
 270              		.file 7 "../../source/src/FWlib/inc/misc.h"