ARM GAS  G:\Users\Jaxb\AppData\Local\Temp\ccRp9Rzk.s 			page 1


   1              		.cpu cortex-m3
   2              		.eabi_attribute 20, 1
   3              		.eabi_attribute 21, 1
   4              		.eabi_attribute 23, 3
   5              		.eabi_attribute 24, 1
   6              		.eabi_attribute 25, 1
   7              		.eabi_attribute 26, 1
   8              		.eabi_attribute 30, 2
   9              		.eabi_attribute 34, 1
  10              		.eabi_attribute 18, 4
  11              		.file	"module.c"
  12              		.text
  13              	.Ltext0:
  14              		.cfi_sections	.debug_frame
  15              		.align	1
  16              		.p2align 2,,3
  17              		.global	dlmodule_symbol_find
  18              		.syntax unified
  19              		.thumb
  20              		.thumb_func
  21              		.fpu softvfp
  22              		.type	dlmodule_symbol_find, %function
  23              	dlmodule_symbol_find:
  24              	.LFB10:
  25              		.file 1 "../../source/src/kernel/OS_CORE/module.c"
   1:../../source/src/kernel/OS_CORE/module.c **** #include <elf.h>
   2:../../source/src/kernel/OS_CORE/module.c **** #include <module.h>
   3:../../source/src/kernel/OS_CORE/module.c **** #include <myMicroLIB.h>
   4:../../source/src/kernel/OS_CORE/module.c **** #include <osinit.h>
   5:../../source/src/kernel/OS_CORE/module.c **** #include <os_schedule.h>
   6:../../source/src/kernel/OS_CORE/module.c **** #include <myassert.h>
   7:../../source/src/kernel/OS_CORE/module.c **** 
   8:../../source/src/kernel/OS_CORE/module.c **** /* RT-Thread error code definitions */
   9:../../source/src/kernel/OS_CORE/module.c **** #define RT_EOK                          0               /**< There is no error */
  10:../../source/src/kernel/OS_CORE/module.c **** #define RT_ERROR                        1               /**< A generic error happens */
  11:../../source/src/kernel/OS_CORE/module.c **** #define RT_ETIMEOUT                     2               /**< Timed out */
  12:../../source/src/kernel/OS_CORE/module.c **** #define RT_EFULL                        3               /**< The resource is full */
  13:../../source/src/kernel/OS_CORE/module.c **** #define RT_EEMPTY                       4               /**< The resource is empty */
  14:../../source/src/kernel/OS_CORE/module.c **** #define RT_ENOMEM                       5               /**< No memory */
  15:../../source/src/kernel/OS_CORE/module.c **** #define RT_ENOSYS                       6               /**< No system */
  16:../../source/src/kernel/OS_CORE/module.c **** #define RT_EBUSY                        7               /**< Busy */
  17:../../source/src/kernel/OS_CORE/module.c **** #define RT_EIO                          8               /**< IO error */
  18:../../source/src/kernel/OS_CORE/module.c **** #define RT_EINTR                        9               /**< Interrupted system call */
  19:../../source/src/kernel/OS_CORE/module.c **** #define RT_EINVAL                       10              /**< Invalid argument */
  20:../../source/src/kernel/OS_CORE/module.c **** 
  21:../../source/src/kernel/OS_CORE/module.c **** #define elf_module        ((Elf32_Ehdr *)module_ptr)
  22:../../source/src/kernel/OS_CORE/module.c **** 
  23:../../source/src/kernel/OS_CORE/module.c **** typedef long                       rt_err_t;       /**< Type for error number */
  24:../../source/src/kernel/OS_CORE/module.c **** 
  25:../../source/src/kernel/OS_CORE/module.c **** 
  26:../../source/src/kernel/OS_CORE/module.c **** extern unsigned long _rt_module_symtab_begin;
  27:../../source/src/kernel/OS_CORE/module.c **** extern unsigned long _rt_module_symtab_end;
  28:../../source/src/kernel/OS_CORE/module.c **** 
  29:../../source/src/kernel/OS_CORE/module.c **** static char *module_buffer = NULL;
  30:../../source/src/kernel/OS_CORE/module.c **** static unsigned int num = 0;
  31:../../source/src/kernel/OS_CORE/module.c **** 
  32:../../source/src/kernel/OS_CORE/module.c **** UINT32 dlmodule_symbol_find(const char *sym_str)
ARM GAS  G:\Users\Jaxb\AppData\Local\Temp\ccRp9Rzk.s 			page 2


  33:../../source/src/kernel/OS_CORE/module.c **** {
  26              		.loc 1 33 0
  27              		.cfi_startproc
  28              		@ args = 0, pretend = 0, frame = 0
  29              		@ frame_needed = 0, uses_anonymous_args = 0
  30              	.LVL0:
  31 0000 70B5     		push	{r4, r5, r6, lr}
  32              	.LCFI0:
  33              		.cfi_def_cfa_offset 16
  34              		.cfi_offset 4, -16
  35              		.cfi_offset 5, -12
  36              		.cfi_offset 6, -8
  37              		.cfi_offset 14, -4
  34:../../source/src/kernel/OS_CORE/module.c ****     /* find in kernel symbol table */
  35:../../source/src/kernel/OS_CORE/module.c ****     struct rt_module_symtab *index;
  36:../../source/src/kernel/OS_CORE/module.c **** 
  37:../../source/src/kernel/OS_CORE/module.c ****     for (index = (struct rt_module_symtab *)&_rt_module_symtab_begin;
  38              		.loc 1 37 0
  39 0002 094C     		ldr	r4, .L8
  40 0004 094D     		ldr	r5, .L8+4
  33:../../source/src/kernel/OS_CORE/module.c ****     /* find in kernel symbol table */
  41              		.loc 1 33 0
  42 0006 0646     		mov	r6, r0
  43              		.loc 1 37 0
  44 0008 AC42     		cmp	r4, r5
  45 000a 03D1     		bne	.L5
  46 000c 0AE0     		b	.L2
  47              	.LVL1:
  48              	.L3:
  38:../../source/src/kernel/OS_CORE/module.c ****             index != (struct rt_module_symtab *)&_rt_module_symtab_end; index ++)
  49              		.loc 1 38 0
  50 000e 0834     		adds	r4, r4, #8
  51              	.LVL2:
  37:../../source/src/kernel/OS_CORE/module.c ****             index != (struct rt_module_symtab *)&_rt_module_symtab_end; index ++)
  52              		.loc 1 37 0
  53 0010 AC42     		cmp	r4, r5
  54 0012 07D0     		beq	.L2
  55              	.LVL3:
  56              	.L5:
  39:../../source/src/kernel/OS_CORE/module.c ****     {
  40:../../source/src/kernel/OS_CORE/module.c ****         if (ka_strcmp(index->name, sym_str) == 0)
  57              		.loc 1 40 0
  58 0014 3146     		mov	r1, r6
  59 0016 6068     		ldr	r0, [r4, #4]
  60 0018 FFF7FEFF 		bl	ka_strcmp
  61              	.LVL4:
  62 001c 0028     		cmp	r0, #0
  63 001e F6D1     		bne	.L3
  41:../../source/src/kernel/OS_CORE/module.c ****             return (UINT32)index->addr;
  64              		.loc 1 41 0
  65 0020 2068     		ldr	r0, [r4]
  42:../../source/src/kernel/OS_CORE/module.c ****     }
  43:../../source/src/kernel/OS_CORE/module.c **** 
  44:../../source/src/kernel/OS_CORE/module.c ****     return 0;
  45:../../source/src/kernel/OS_CORE/module.c **** }
  66              		.loc 1 45 0
  67 0022 70BD     		pop	{r4, r5, r6, pc}
ARM GAS  G:\Users\Jaxb\AppData\Local\Temp\ccRp9Rzk.s 			page 3


  68              	.LVL5:
  69              	.L2:
  44:../../source/src/kernel/OS_CORE/module.c **** }
  70              		.loc 1 44 0
  71 0024 0020     		movs	r0, #0
  72              		.loc 1 45 0
  73 0026 70BD     		pop	{r4, r5, r6, pc}
  74              	.LVL6:
  75              	.L9:
  76              		.align	2
  77              	.L8:
  78 0028 00000000 		.word	_rt_module_symtab_begin
  79 002c 00000000 		.word	_rt_module_symtab_end
  80              		.cfi_endproc
  81              	.LFE10:
  82              		.size	dlmodule_symbol_find, .-dlmodule_symbol_find
  83              		.align	1
  84              		.p2align 2,,3
  85              		.global	dlmodule_relocate
  86              		.syntax unified
  87              		.thumb
  88              		.thumb_func
  89              		.fpu softvfp
  90              		.type	dlmodule_relocate, %function
  91              	dlmodule_relocate:
  92              	.LFB11:
  46:../../source/src/kernel/OS_CORE/module.c **** 
  47:../../source/src/kernel/OS_CORE/module.c **** int dlmodule_relocate(struct rt_dlmodule *module, Elf32_Rel *rel, Elf32_Addr sym_val)
  48:../../source/src/kernel/OS_CORE/module.c **** {
  93              		.loc 1 48 0
  94              		.cfi_startproc
  95              		@ args = 0, pretend = 0, frame = 0
  96              		@ frame_needed = 0, uses_anonymous_args = 0
  97              	.LVL7:
  98 0030 2DE9F041 		push	{r4, r5, r6, r7, r8, lr}
  99              	.LCFI1:
 100              		.cfi_def_cfa_offset 24
 101              		.cfi_offset 4, -24
 102              		.cfi_offset 5, -20
 103              		.cfi_offset 6, -16
 104              		.cfi_offset 7, -12
 105              		.cfi_offset 8, -8
 106              		.cfi_offset 14, -4
  49:../../source/src/kernel/OS_CORE/module.c ****     Elf32_Addr *where, tmp;
  50:../../source/src/kernel/OS_CORE/module.c ****     Elf32_Sword addend, offset;
  51:../../source/src/kernel/OS_CORE/module.c ****     UINT32 upper, lower, sign, j1, j2;
  52:../../source/src/kernel/OS_CORE/module.c **** 
  53:../../source/src/kernel/OS_CORE/module.c ****     where = (Elf32_Addr *)((UINT8 *)module->mem_space
  54:../../source/src/kernel/OS_CORE/module.c ****                            + rel->r_offset
  55:../../source/src/kernel/OS_CORE/module.c ****                            - module->vstart_addr);
 107              		.loc 1 55 0
 108 0034 846A     		ldr	r4, [r0, #40]
 109 0036 0E68     		ldr	r6, [r1]
  53:../../source/src/kernel/OS_CORE/module.c ****                            + rel->r_offset
 110              		.loc 1 53 0
 111 0038 456B     		ldr	r5, [r0, #52]
  56:../../source/src/kernel/OS_CORE/module.c ****     switch (ELF32_R_TYPE(rel->r_info))
ARM GAS  G:\Users\Jaxb\AppData\Local\Temp\ccRp9Rzk.s 			page 4


 112              		.loc 1 56 0
 113 003a 0B79     		ldrb	r3, [r1, #4]	@ zero_extendqisi2
  55:../../source/src/kernel/OS_CORE/module.c ****     switch (ELF32_R_TYPE(rel->r_info))
 114              		.loc 1 55 0
 115 003c 341B     		subs	r4, r6, r4
  48:../../source/src/kernel/OS_CORE/module.c ****     Elf32_Addr *where, tmp;
 116              		.loc 1 48 0
 117 003e 82B0     		sub	sp, sp, #8
 118              	.LCFI2:
 119              		.cfi_def_cfa_offset 32
  48:../../source/src/kernel/OS_CORE/module.c ****     Elf32_Addr *where, tmp;
 120              		.loc 1 48 0
 121 0040 1046     		mov	r0, r2
 122              	.LVL8:
  53:../../source/src/kernel/OS_CORE/module.c ****                            + rel->r_offset
 123              		.loc 1 53 0
 124 0042 2E19     		adds	r6, r5, r4
 125              	.LVL9:
 126              		.loc 1 56 0
 127 0044 282B     		cmp	r3, #40
 128 0046 00F2C980 		bhi	.L27
 129 004a DFE803F0 		tbb	[pc, r3]
 130              	.LVL10:
 131              	.L13:
 132 004e 1C       		.byte	(.L39-.L13)/2
 133 004f 2C       		.byte	(.L14-.L13)/2
 134 0050 15       		.byte	(.L15-.L13)/2
 135 0051 44       		.byte	(.L16-.L13)/2
 136 0052 C7       		.byte	(.L27-.L13)/2
 137 0053 C7       		.byte	(.L27-.L13)/2
 138 0054 C7       		.byte	(.L27-.L13)/2
 139 0055 C7       		.byte	(.L27-.L13)/2
 140 0056 C7       		.byte	(.L27-.L13)/2
 141 0057 C7       		.byte	(.L27-.L13)/2
 142 0058 53       		.byte	(.L17-.L13)/2
 143 0059 C7       		.byte	(.L27-.L13)/2
 144 005a C7       		.byte	(.L27-.L13)/2
 145 005b C7       		.byte	(.L27-.L13)/2
 146 005c C7       		.byte	(.L27-.L13)/2
 147 005d C7       		.byte	(.L27-.L13)/2
 148 005e C7       		.byte	(.L27-.L13)/2
 149 005f C7       		.byte	(.L27-.L13)/2
 150 0060 C7       		.byte	(.L27-.L13)/2
 151 0061 C7       		.byte	(.L27-.L13)/2
 152 0062 C7       		.byte	(.L27-.L13)/2
 153 0063 B0       		.byte	(.L18-.L13)/2
 154 0064 B0       		.byte	(.L18-.L13)/2
 155 0065 BB       		.byte	(.L19-.L13)/2
 156 0066 C7       		.byte	(.L27-.L13)/2
 157 0067 C7       		.byte	(.L27-.L13)/2
 158 0068 C7       		.byte	(.L27-.L13)/2
 159 0069 2C       		.byte	(.L14-.L13)/2
 160 006a 2C       		.byte	(.L14-.L13)/2
 161 006b 2C       		.byte	(.L14-.L13)/2
 162 006c 53       		.byte	(.L17-.L13)/2
 163 006d C7       		.byte	(.L27-.L13)/2
 164 006e C7       		.byte	(.L27-.L13)/2
ARM GAS  G:\Users\Jaxb\AppData\Local\Temp\ccRp9Rzk.s 			page 5


 165 006f C7       		.byte	(.L27-.L13)/2
 166 0070 C7       		.byte	(.L27-.L13)/2
 167 0071 C7       		.byte	(.L27-.L13)/2
 168 0072 C7       		.byte	(.L27-.L13)/2
 169 0073 C7       		.byte	(.L27-.L13)/2
 170 0074 C7       		.byte	(.L27-.L13)/2
 171 0075 C7       		.byte	(.L27-.L13)/2
 172 0076 20       		.byte	(.L20-.L13)/2
 173 0077 00       		.p2align 1
 174              	.L15:
  57:../../source/src/kernel/OS_CORE/module.c ****     {
  58:../../source/src/kernel/OS_CORE/module.c ****     case R_ARM_NONE:
  59:../../source/src/kernel/OS_CORE/module.c ****         break;
  60:../../source/src/kernel/OS_CORE/module.c ****     case R_ARM_ABS32:
  61:../../source/src/kernel/OS_CORE/module.c ****         *where += (Elf32_Addr)sym_val;
 175              		.loc 1 61 0
 176 0078 2A59     		ldr	r2, [r5, r4]
  62:../../source/src/kernel/OS_CORE/module.c ****         ka_printf("R_ARM_ABS32: %x -> %x\n",
 177              		.loc 1 62 0
 178 007a 3146     		mov	r1, r6
 179              	.LVL11:
  61:../../source/src/kernel/OS_CORE/module.c ****         ka_printf("R_ARM_ABS32: %x -> %x\n",
 180              		.loc 1 61 0
 181 007c 0244     		add	r2, r2, r0
 182 007e 2A51     		str	r2, [r5, r4]
 183              		.loc 1 62 0
 184 0080 5B48     		ldr	r0, .L40
 185              	.LVL12:
 186 0082 FFF7FEFF 		bl	ka_printf
 187              	.LVL13:
 188              	.L39:
  63:../../source/src/kernel/OS_CORE/module.c ****                   where, *where);
  64:../../source/src/kernel/OS_CORE/module.c ****         break;
  65:../../source/src/kernel/OS_CORE/module.c ****     case R_ARM_PC24:
  66:../../source/src/kernel/OS_CORE/module.c ****     case R_ARM_PLT32:
  67:../../source/src/kernel/OS_CORE/module.c ****     case R_ARM_CALL:
  68:../../source/src/kernel/OS_CORE/module.c ****     case R_ARM_JUMP24:
  69:../../source/src/kernel/OS_CORE/module.c ****         addend = *where & 0x00ffffff;
  70:../../source/src/kernel/OS_CORE/module.c ****         if (addend & 0x00800000)
  71:../../source/src/kernel/OS_CORE/module.c ****             addend |= 0xff000000;
  72:../../source/src/kernel/OS_CORE/module.c ****         tmp = sym_val - (Elf32_Addr)where + (addend << 2);
  73:../../source/src/kernel/OS_CORE/module.c ****         tmp >>= 2;
  74:../../source/src/kernel/OS_CORE/module.c ****         *where = (*where & 0xff000000) | (tmp & 0x00ffffff);
  75:../../source/src/kernel/OS_CORE/module.c ****         ka_printf("R_ARM_PC24: %x -> %x\n",
  76:../../source/src/kernel/OS_CORE/module.c ****                   where, *where);
  77:../../source/src/kernel/OS_CORE/module.c ****         break;
  78:../../source/src/kernel/OS_CORE/module.c ****     case R_ARM_REL32:
  79:../../source/src/kernel/OS_CORE/module.c ****         *where += sym_val - (Elf32_Addr)where;
  80:../../source/src/kernel/OS_CORE/module.c ****         ka_printf("R_ARM_REL32: %x -> %x, sym %x, offset %x\n",
  81:../../source/src/kernel/OS_CORE/module.c ****                   where, *where, sym_val, rel->r_offset);
  82:../../source/src/kernel/OS_CORE/module.c ****         break;
  83:../../source/src/kernel/OS_CORE/module.c ****     case R_ARM_V4BX:
  84:../../source/src/kernel/OS_CORE/module.c ****         *where &= 0xf000000f;
  85:../../source/src/kernel/OS_CORE/module.c ****         *where |= 0x01a0f000;
  86:../../source/src/kernel/OS_CORE/module.c ****         break;
  87:../../source/src/kernel/OS_CORE/module.c **** 
  88:../../source/src/kernel/OS_CORE/module.c ****     case R_ARM_GLOB_DAT:
ARM GAS  G:\Users\Jaxb\AppData\Local\Temp\ccRp9Rzk.s 			page 6


  89:../../source/src/kernel/OS_CORE/module.c ****     case R_ARM_JUMP_SLOT:
  90:../../source/src/kernel/OS_CORE/module.c ****         *where = (Elf32_Addr)sym_val;
  91:../../source/src/kernel/OS_CORE/module.c ****         ka_printf("R_ARM_JUMP_SLOT: 0x%x -> 0x%x 0x%x\n",
  92:../../source/src/kernel/OS_CORE/module.c ****                   where, *where, sym_val);
  93:../../source/src/kernel/OS_CORE/module.c ****         break;
  94:../../source/src/kernel/OS_CORE/module.c **** #if 0        /* To do */
  95:../../source/src/kernel/OS_CORE/module.c ****     case R_ARM_GOT_BREL:
  96:../../source/src/kernel/OS_CORE/module.c ****         temp   = (Elf32_Addr)sym_val;
  97:../../source/src/kernel/OS_CORE/module.c ****         *where = (Elf32_Addr)&temp;
  98:../../source/src/kernel/OS_CORE/module.c ****         RT_DEBUG_LOG(RT_DEBUG_MODULE, ("R_ARM_GOT_BREL: 0x%x -> 0x%x 0x%x\n",
  99:../../source/src/kernel/OS_CORE/module.c ****                                        where, *where, sym_val));
 100:../../source/src/kernel/OS_CORE/module.c ****         break;
 101:../../source/src/kernel/OS_CORE/module.c **** #endif
 102:../../source/src/kernel/OS_CORE/module.c **** 
 103:../../source/src/kernel/OS_CORE/module.c ****     case R_ARM_RELATIVE:
 104:../../source/src/kernel/OS_CORE/module.c ****         *where = (Elf32_Addr)sym_val + *where;
 105:../../source/src/kernel/OS_CORE/module.c ****         ka_printf("R_ARM_RELATIVE: 0x%x -> 0x%x 0x%x\n",
 106:../../source/src/kernel/OS_CORE/module.c ****                   where, *where, sym_val);
 107:../../source/src/kernel/OS_CORE/module.c ****         break;
 108:../../source/src/kernel/OS_CORE/module.c ****     case R_ARM_THM_CALL:
 109:../../source/src/kernel/OS_CORE/module.c ****     case R_ARM_THM_JUMP24:
 110:../../source/src/kernel/OS_CORE/module.c ****         upper  = *(UINT16 *)where;
 111:../../source/src/kernel/OS_CORE/module.c ****         lower  = *(UINT16 *)((Elf32_Addr)where + 2);
 112:../../source/src/kernel/OS_CORE/module.c **** 
 113:../../source/src/kernel/OS_CORE/module.c ****         sign   = (upper >> 10) & 1;
 114:../../source/src/kernel/OS_CORE/module.c ****         j1     = (lower >> 13) & 1;
 115:../../source/src/kernel/OS_CORE/module.c ****         j2     = (lower >> 11) & 1;
 116:../../source/src/kernel/OS_CORE/module.c ****         offset = (sign << 24) |
 117:../../source/src/kernel/OS_CORE/module.c ****                  ((~(j1 ^ sign) & 1) << 23) |
 118:../../source/src/kernel/OS_CORE/module.c ****                  ((~(j2 ^ sign) & 1) << 22) |
 119:../../source/src/kernel/OS_CORE/module.c ****                  ((upper & 0x03ff) << 12) |
 120:../../source/src/kernel/OS_CORE/module.c ****                  ((lower & 0x07ff) << 1);
 121:../../source/src/kernel/OS_CORE/module.c ****         if (offset & 0x01000000)
 122:../../source/src/kernel/OS_CORE/module.c ****             offset -= 0x02000000;
 123:../../source/src/kernel/OS_CORE/module.c ****         offset += sym_val - (Elf32_Addr)where;
 124:../../source/src/kernel/OS_CORE/module.c **** 
 125:../../source/src/kernel/OS_CORE/module.c ****         if (!(offset & 1) ||
 126:../../source/src/kernel/OS_CORE/module.c ****                 offset <= (INT32)0xff000000 ||
 127:../../source/src/kernel/OS_CORE/module.c ****                 offset >= (INT32)0x01000000)
 128:../../source/src/kernel/OS_CORE/module.c ****         {
 129:../../source/src/kernel/OS_CORE/module.c ****             ka_printf("Module: Only Thumb addresses allowed\n");
 130:../../source/src/kernel/OS_CORE/module.c **** 
 131:../../source/src/kernel/OS_CORE/module.c ****             return -1;
 132:../../source/src/kernel/OS_CORE/module.c ****         }
 133:../../source/src/kernel/OS_CORE/module.c **** 
 134:../../source/src/kernel/OS_CORE/module.c ****         sign = (offset >> 24) & 1;
 135:../../source/src/kernel/OS_CORE/module.c ****         j1   = sign ^ (~(offset >> 23) & 1);
 136:../../source/src/kernel/OS_CORE/module.c ****         j2   = sign ^ (~(offset >> 22) & 1);
 137:../../source/src/kernel/OS_CORE/module.c ****         *(UINT16 *)where = (UINT16)((upper & 0xf800) |
 138:../../source/src/kernel/OS_CORE/module.c ****                                     (sign << 10) |
 139:../../source/src/kernel/OS_CORE/module.c ****                                     ((offset >> 12) & 0x03ff));
 140:../../source/src/kernel/OS_CORE/module.c ****         *(UINT16 *)(where + 2) = (UINT16)((lower & 0xd000) |
 141:../../source/src/kernel/OS_CORE/module.c ****                                           (j1 << 13) | (j2 << 11) |
 142:../../source/src/kernel/OS_CORE/module.c ****                                           ((offset >> 1) & 0x07ff));
 143:../../source/src/kernel/OS_CORE/module.c ****         upper = *(UINT16 *)where;
 144:../../source/src/kernel/OS_CORE/module.c ****         lower = *(UINT16 *)((Elf32_Addr)where + 2);
 145:../../source/src/kernel/OS_CORE/module.c ****         break;
ARM GAS  G:\Users\Jaxb\AppData\Local\Temp\ccRp9Rzk.s 			page 7


 146:../../source/src/kernel/OS_CORE/module.c ****     default:
 147:../../source/src/kernel/OS_CORE/module.c ****         return -1;
 148:../../source/src/kernel/OS_CORE/module.c ****     }
 149:../../source/src/kernel/OS_CORE/module.c **** 
 150:../../source/src/kernel/OS_CORE/module.c ****     return 0;
 189              		.loc 1 150 0
 190 0086 0020     		movs	r0, #0
 191              	.L10:
 151:../../source/src/kernel/OS_CORE/module.c **** }
 192              		.loc 1 151 0
 193 0088 02B0     		add	sp, sp, #8
 194              	.LCFI3:
 195              		.cfi_remember_state
 196              		.cfi_def_cfa_offset 24
 197              		@ sp needed
 198 008a BDE8F081 		pop	{r4, r5, r6, r7, r8, pc}
 199              	.LVL14:
 200              	.L20:
 201              	.LCFI4:
 202              		.cfi_restore_state
 150:../../source/src/kernel/OS_CORE/module.c **** }
 203              		.loc 1 150 0
 204 008e 0020     		movs	r0, #0
 205              	.LVL15:
  84:../../source/src/kernel/OS_CORE/module.c ****         *where |= 0x01a0f000;
 206              		.loc 1 84 0
 207 0090 2A59     		ldr	r2, [r5, r4]
 208 0092 584B     		ldr	r3, .L40+4
 209 0094 1340     		ands	r3, r3, r2
  85:../../source/src/kernel/OS_CORE/module.c ****         break;
 210              		.loc 1 85 0
 211 0096 43F0D073 		orr	r3, r3, #27262976
 212 009a 43F47043 		orr	r3, r3, #61440
 213 009e 2B51     		str	r3, [r5, r4]
 214              		.loc 1 151 0
 215 00a0 02B0     		add	sp, sp, #8
 216              	.LCFI5:
 217              		.cfi_remember_state
 218              		.cfi_def_cfa_offset 24
 219              		@ sp needed
 220 00a2 BDE8F081 		pop	{r4, r5, r6, r7, r8, pc}
 221              	.LVL16:
 222              	.L14:
 223              	.LCFI6:
 224              		.cfi_restore_state
  69:../../source/src/kernel/OS_CORE/module.c ****         if (addend & 0x00800000)
 225              		.loc 1 69 0
 226 00a6 2B59     		ldr	r3, [r5, r4]
  70:../../source/src/kernel/OS_CORE/module.c ****             addend |= 0xff000000;
 227              		.loc 1 70 0
 228 00a8 1A02     		lsls	r2, r3, #8
  69:../../source/src/kernel/OS_CORE/module.c ****         if (addend & 0x00800000)
 229              		.loc 1 69 0
 230 00aa 23F07F41 		bic	r1, r3, #-16777216
 231              	.LVL17:
  71:../../source/src/kernel/OS_CORE/module.c ****         tmp = sym_val - (Elf32_Addr)where + (addend << 2);
 232              		.loc 1 71 0
ARM GAS  G:\Users\Jaxb\AppData\Local\Temp\ccRp9Rzk.s 			page 8


 233 00ae 48BF     		it	mi
 234 00b0 41F07F41 		orrmi	r1, r1, #-16777216
 235              	.LVL18:
  72:../../source/src/kernel/OS_CORE/module.c ****         tmp >>= 2;
 236              		.loc 1 72 0
 237 00b4 821B     		subs	r2, r0, r6
 238 00b6 02EB8102 		add	r2, r2, r1, lsl #2
 239              	.LVL19:
  74:../../source/src/kernel/OS_CORE/module.c ****         ka_printf("R_ARM_PC24: %x -> %x\n",
 240              		.loc 1 74 0
 241 00ba 03F07F43 		and	r3, r3, #-16777216
 242 00be C2F39702 		ubfx	r2, r2, #2, #24
 243              	.LVL20:
 244 00c2 1A43     		orrs	r2, r2, r3
 245 00c4 2A51     		str	r2, [r5, r4]
  75:../../source/src/kernel/OS_CORE/module.c ****                   where, *where);
 246              		.loc 1 75 0
 247 00c6 3146     		mov	r1, r6
 248              	.LVL21:
 249 00c8 4B48     		ldr	r0, .L40+8
 250              	.LVL22:
 251 00ca FFF7FEFF 		bl	ka_printf
 252              	.LVL23:
 150:../../source/src/kernel/OS_CORE/module.c **** }
 253              		.loc 1 150 0
 254 00ce 0020     		movs	r0, #0
 255              		.loc 1 151 0
 256 00d0 02B0     		add	sp, sp, #8
 257              	.LCFI7:
 258              		.cfi_remember_state
 259              		.cfi_def_cfa_offset 24
 260              		@ sp needed
 261 00d2 BDE8F081 		pop	{r4, r5, r6, r7, r8, pc}
 262              	.LVL24:
 263              	.L16:
 264              	.LCFI8:
 265              		.cfi_restore_state
  79:../../source/src/kernel/OS_CORE/module.c ****         ka_printf("R_ARM_REL32: %x -> %x, sym %x, offset %x\n",
 266              		.loc 1 79 0
 267 00d6 2A59     		ldr	r2, [r5, r4]
  80:../../source/src/kernel/OS_CORE/module.c ****                   where, *where, sym_val, rel->r_offset);
 268              		.loc 1 80 0
 269 00d8 0346     		mov	r3, r0
  79:../../source/src/kernel/OS_CORE/module.c ****         ka_printf("R_ARM_REL32: %x -> %x, sym %x, offset %x\n",
 270              		.loc 1 79 0
 271 00da 0244     		add	r2, r2, r0
 272 00dc 921B     		subs	r2, r2, r6
 273 00de 2A51     		str	r2, [r5, r4]
  80:../../source/src/kernel/OS_CORE/module.c ****                   where, *where, sym_val, rel->r_offset);
 274              		.loc 1 80 0
 275 00e0 0968     		ldr	r1, [r1]
 276              	.LVL25:
 277 00e2 4648     		ldr	r0, .L40+12
 278              	.LVL26:
 279 00e4 0091     		str	r1, [sp]
 280 00e6 3146     		mov	r1, r6
 281 00e8 FFF7FEFF 		bl	ka_printf
ARM GAS  G:\Users\Jaxb\AppData\Local\Temp\ccRp9Rzk.s 			page 9


 282              	.LVL27:
 150:../../source/src/kernel/OS_CORE/module.c **** }
 283              		.loc 1 150 0
 284 00ec 0020     		movs	r0, #0
 285              		.loc 1 151 0
 286 00ee 02B0     		add	sp, sp, #8
 287              	.LCFI9:
 288              		.cfi_remember_state
 289              		.cfi_def_cfa_offset 24
 290              		@ sp needed
 291 00f0 BDE8F081 		pop	{r4, r5, r6, r7, r8, pc}
 292              	.LVL28:
 293              	.L17:
 294              	.LCFI10:
 295              		.cfi_restore_state
 110:../../source/src/kernel/OS_CORE/module.c ****         lower  = *(UINT16 *)((Elf32_Addr)where + 2);
 296              		.loc 1 110 0
 297 00f4 295B     		ldrh	r1, [r5, r4]
 298              	.LVL29:
 111:../../source/src/kernel/OS_CORE/module.c **** 
 299              		.loc 1 111 0
 300 00f6 7288     		ldrh	r2, [r6, #2]
 301              	.LVL30:
 113:../../source/src/kernel/OS_CORE/module.c ****         j1     = (lower >> 13) & 1;
 302              		.loc 1 113 0
 303 00f8 8F0A     		lsrs	r7, r1, #10
 304              	.LVL31:
 117:../../source/src/kernel/OS_CORE/module.c ****                  ((~(j2 ^ sign) & 1) << 22) |
 305              		.loc 1 117 0
 306 00fa 87EA5233 		eor	r3, r7, r2, lsr #13
 120:../../source/src/kernel/OS_CORE/module.c ****         if (offset & 0x01000000)
 307              		.loc 1 120 0
 308 00fe 40F6FE78 		movw	r8, #4094
 117:../../source/src/kernel/OS_CORE/module.c ****                  ((~(j2 ^ sign) & 1) << 22) |
 309              		.loc 1 117 0
 310 0102 13F0010F 		tst	r3, #1
 118:../../source/src/kernel/OS_CORE/module.c ****                  ((upper & 0x03ff) << 12) |
 311              		.loc 1 118 0
 312 0106 87EAD223 		eor	r3, r7, r2, lsr #11
 117:../../source/src/kernel/OS_CORE/module.c ****                  ((~(j2 ^ sign) & 1) << 22) |
 313              		.loc 1 117 0
 314 010a 0CBF     		ite	eq
 315 010c 4FF4000E 		moveq	lr, #8388608
 316 0110 4FF0000E 		movne	lr, #0
 118:../../source/src/kernel/OS_CORE/module.c ****                  ((upper & 0x03ff) << 12) |
 317              		.loc 1 118 0
 318 0114 13F0010F 		tst	r3, #1
 319 0118 0CBF     		ite	eq
 320 011a 4FF4800C 		moveq	ip, #4194304
 321 011e 4FF0000C 		movne	ip, #0
 119:../../source/src/kernel/OS_CORE/module.c ****                  ((lower & 0x07ff) << 1);
 322              		.loc 1 119 0
 323 0122 374B     		ldr	r3, .L40+16
 116:../../source/src/kernel/OS_CORE/module.c ****                  ((~(j1 ^ sign) & 1) << 23) |
 324              		.loc 1 116 0
 325 0124 3F06     		lsls	r7, r7, #24
 326              	.LVL32:
ARM GAS  G:\Users\Jaxb\AppData\Local\Temp\ccRp9Rzk.s 			page 10


 327 0126 07F08077 		and	r7, r7, #16777216
 119:../../source/src/kernel/OS_CORE/module.c ****                  ((lower & 0x07ff) << 1);
 328              		.loc 1 119 0
 329 012a 03EA0133 		and	r3, r3, r1, lsl #12
 330 012e 3B43     		orrs	r3, r3, r7
 120:../../source/src/kernel/OS_CORE/module.c ****         if (offset & 0x01000000)
 331              		.loc 1 120 0
 332 0130 08EA4208 		and	r8, r8, r2, lsl #1
 119:../../source/src/kernel/OS_CORE/module.c ****                  ((lower & 0x07ff) << 1);
 333              		.loc 1 119 0
 334 0134 43EA0803 		orr	r3, r3, r8
 335 0138 43EA0E03 		orr	r3, r3, lr
 336 013c 43EA0C03 		orr	r3, r3, ip
 337              	.LVL33:
 121:../../source/src/kernel/OS_CORE/module.c ****             offset -= 0x02000000;
 338              		.loc 1 121 0
 339 0140 13F0807F 		tst	r3, #16777216
 122:../../source/src/kernel/OS_CORE/module.c ****         offset += sym_val - (Elf32_Addr)where;
 340              		.loc 1 122 0
 341 0144 18BF     		it	ne
 342 0146 03F17E43 		addne	r3, r3, #-33554432
 343              	.LVL34:
 123:../../source/src/kernel/OS_CORE/module.c **** 
 344              		.loc 1 123 0
 345 014a 801B     		subs	r0, r0, r6
 346              	.LVL35:
 347 014c 1844     		add	r0, r0, r3
 348              	.LVL36:
 125:../../source/src/kernel/OS_CORE/module.c ****                 offset <= (INT32)0xff000000 ||
 349              		.loc 1 125 0
 350 014e C307     		lsls	r3, r0, #31
 351 0150 47D5     		bpl	.L25
 125:../../source/src/kernel/OS_CORE/module.c ****                 offset <= (INT32)0xff000000 ||
 352              		.loc 1 125 0 is_stmt 0 discriminator 1
 353 0152 B0F17F4F 		cmp	r0, #-16777216
 354 0156 44DD     		ble	.L25
 126:../../source/src/kernel/OS_CORE/module.c ****                 offset >= (INT32)0x01000000)
 355              		.loc 1 126 0 is_stmt 1
 356 0158 B0F1807F 		cmp	r0, #16777216
 357 015c 41DA     		bge	.L25
 135:../../source/src/kernel/OS_CORE/module.c ****         j2   = sign ^ (~(offset >> 22) & 1);
 358              		.loc 1 135 0
 359 015e 10F4000F 		tst	r0, #8388608
 134:../../source/src/kernel/OS_CORE/module.c ****         j1   = sign ^ (~(offset >> 23) & 1);
 360              		.loc 1 134 0
 361 0162 C0F3006C 		ubfx	ip, r0, #24, #1
 135:../../source/src/kernel/OS_CORE/module.c ****         j2   = sign ^ (~(offset >> 22) & 1);
 362              		.loc 1 135 0
 363 0166 0CBF     		ite	eq
 364 0168 4FF0010E 		moveq	lr, #1
 365 016c 4FF0000E 		movne	lr, #0
 142:../../source/src/kernel/OS_CORE/module.c ****         upper = *(UINT16 *)where;
 366              		.loc 1 142 0
 367 0170 C0F34A03 		ubfx	r3, r0, #1, #11
 368              	.LVL37:
 136:../../source/src/kernel/OS_CORE/module.c ****         *(UINT16 *)where = (UINT16)((upper & 0xf800) |
 369              		.loc 1 136 0
ARM GAS  G:\Users\Jaxb\AppData\Local\Temp\ccRp9Rzk.s 			page 11


 370 0174 10F4800F 		tst	r0, #4194304
 137:../../source/src/kernel/OS_CORE/module.c ****                                     (sign << 10) |
 371              		.loc 1 137 0
 372 0178 01F47841 		and	r1, r1, #63488
 373              	.LVL38:
 139:../../source/src/kernel/OS_CORE/module.c ****         *(UINT16 *)(where + 2) = (UINT16)((lower & 0xd000) |
 374              		.loc 1 139 0
 375 017c C0F30930 		ubfx	r0, r0, #12, #10
 376              	.LVL39:
 136:../../source/src/kernel/OS_CORE/module.c ****         *(UINT16 *)where = (UINT16)((upper & 0xf800) |
 377              		.loc 1 136 0
 378 0180 0CBF     		ite	eq
 379 0182 0127     		moveq	r7, #1
 380 0184 0027     		movne	r7, #0
 137:../../source/src/kernel/OS_CORE/module.c ****                                     (sign << 10) |
 381              		.loc 1 137 0
 382 0186 0843     		orrs	r0, r0, r1
 383 0188 40EA8C20 		orr	r0, r0, ip, lsl #10
 384 018c 2853     		strh	r0, [r5, r4]	@ movhi
 385              	.LVL40:
 150:../../source/src/kernel/OS_CORE/module.c **** }
 386              		.loc 1 150 0
 387 018e 0020     		movs	r0, #0
 140:../../source/src/kernel/OS_CORE/module.c ****                                           (j1 << 13) | (j2 << 11) |
 388              		.loc 1 140 0
 389 0190 02F45042 		and	r2, r2, #53248
 390              	.LVL41:
 391 0194 1343     		orrs	r3, r3, r2
 135:../../source/src/kernel/OS_CORE/module.c ****         j2   = sign ^ (~(offset >> 22) & 1);
 392              		.loc 1 135 0
 393 0196 8EEA0C02 		eor	r2, lr, ip
 140:../../source/src/kernel/OS_CORE/module.c ****                                           (j1 << 13) | (j2 << 11) |
 394              		.loc 1 140 0
 395 019a 43EA4233 		orr	r3, r3, r2, lsl #13
 136:../../source/src/kernel/OS_CORE/module.c ****         *(UINT16 *)where = (UINT16)((upper & 0xf800) |
 396              		.loc 1 136 0
 397 019e 87EA0C02 		eor	r2, r7, ip
 140:../../source/src/kernel/OS_CORE/module.c ****                                           (j1 << 13) | (j2 << 11) |
 398              		.loc 1 140 0
 399 01a2 43EAC223 		orr	r3, r3, r2, lsl #11
 400 01a6 3381     		strh	r3, [r6, #8]	@ movhi
 401              	.LVL42:
 402              		.loc 1 151 0
 403 01a8 02B0     		add	sp, sp, #8
 404              	.LCFI11:
 405              		.cfi_remember_state
 406              		.cfi_def_cfa_offset 24
 407              		@ sp needed
 408 01aa BDE8F081 		pop	{r4, r5, r6, r7, r8, pc}
 409              	.LVL43:
 410              	.L18:
 411              	.LCFI12:
 412              		.cfi_restore_state
  90:../../source/src/kernel/OS_CORE/module.c ****         ka_printf("R_ARM_JUMP_SLOT: 0x%x -> 0x%x 0x%x\n",
 413              		.loc 1 90 0
 414 01ae 2851     		str	r0, [r5, r4]
  91:../../source/src/kernel/OS_CORE/module.c ****                   where, *where, sym_val);
ARM GAS  G:\Users\Jaxb\AppData\Local\Temp\ccRp9Rzk.s 			page 12


 415              		.loc 1 91 0
 416 01b0 0346     		mov	r3, r0
 417 01b2 0246     		mov	r2, r0
 418 01b4 3146     		mov	r1, r6
 419              	.LVL44:
 420 01b6 1348     		ldr	r0, .L40+20
 421              	.LVL45:
 422 01b8 FFF7FEFF 		bl	ka_printf
 423              	.LVL46:
 150:../../source/src/kernel/OS_CORE/module.c **** }
 424              		.loc 1 150 0
 425 01bc 0020     		movs	r0, #0
 426              		.loc 1 151 0
 427 01be 02B0     		add	sp, sp, #8
 428              	.LCFI13:
 429              		.cfi_remember_state
 430              		.cfi_def_cfa_offset 24
 431              		@ sp needed
 432 01c0 BDE8F081 		pop	{r4, r5, r6, r7, r8, pc}
 433              	.LVL47:
 434              	.L19:
 435              	.LCFI14:
 436              		.cfi_restore_state
 104:../../source/src/kernel/OS_CORE/module.c ****         ka_printf("R_ARM_RELATIVE: 0x%x -> 0x%x 0x%x\n",
 437              		.loc 1 104 0
 438 01c4 2A59     		ldr	r2, [r5, r4]
 105:../../source/src/kernel/OS_CORE/module.c ****                   where, *where, sym_val);
 439              		.loc 1 105 0
 440 01c6 0346     		mov	r3, r0
 104:../../source/src/kernel/OS_CORE/module.c ****         ka_printf("R_ARM_RELATIVE: 0x%x -> 0x%x 0x%x\n",
 441              		.loc 1 104 0
 442 01c8 0244     		add	r2, r2, r0
 105:../../source/src/kernel/OS_CORE/module.c ****                   where, *where, sym_val);
 443              		.loc 1 105 0
 444 01ca 3146     		mov	r1, r6
 445              	.LVL48:
 104:../../source/src/kernel/OS_CORE/module.c ****         ka_printf("R_ARM_RELATIVE: 0x%x -> 0x%x 0x%x\n",
 446              		.loc 1 104 0
 447 01cc 2A51     		str	r2, [r5, r4]
 105:../../source/src/kernel/OS_CORE/module.c ****                   where, *where, sym_val);
 448              		.loc 1 105 0
 449 01ce 0E48     		ldr	r0, .L40+24
 450              	.LVL49:
 451 01d0 FFF7FEFF 		bl	ka_printf
 452              	.LVL50:
 150:../../source/src/kernel/OS_CORE/module.c **** }
 453              		.loc 1 150 0
 454 01d4 0020     		movs	r0, #0
 455              		.loc 1 151 0
 456 01d6 02B0     		add	sp, sp, #8
 457              	.LCFI15:
 458              		.cfi_remember_state
 459              		.cfi_def_cfa_offset 24
 460              		@ sp needed
 461 01d8 BDE8F081 		pop	{r4, r5, r6, r7, r8, pc}
 462              	.LVL51:
 463              	.L27:
ARM GAS  G:\Users\Jaxb\AppData\Local\Temp\ccRp9Rzk.s 			page 13


 464              	.LCFI16:
 465              		.cfi_restore_state
 147:../../source/src/kernel/OS_CORE/module.c ****     }
 466              		.loc 1 147 0
 467 01dc 4FF0FF30 		mov	r0, #-1
 468              	.LVL52:
 469 01e0 52E7     		b	.L10
 470              	.LVL53:
 471              	.L25:
 129:../../source/src/kernel/OS_CORE/module.c **** 
 472              		.loc 1 129 0
 473 01e2 0A48     		ldr	r0, .L40+28
 474              	.LVL54:
 475 01e4 FFF7FEFF 		bl	ka_printf
 476              	.LVL55:
 131:../../source/src/kernel/OS_CORE/module.c ****         }
 477              		.loc 1 131 0
 478 01e8 4FF0FF30 		mov	r0, #-1
 479 01ec 4CE7     		b	.L10
 480              	.L41:
 481 01ee 00BF     		.align	2
 482              	.L40:
 483 01f0 00000000 		.word	.LC0
 484 01f4 0F0000F0 		.word	-268435441
 485 01f8 18000000 		.word	.LC1
 486 01fc 30000000 		.word	.LC2
 487 0200 00F03F00 		.word	4190208
 488 0204 5C000000 		.word	.LC3
 489 0208 80000000 		.word	.LC4
 490 020c A4000000 		.word	.LC5
 491              		.cfi_endproc
 492              	.LFE11:
 493              		.size	dlmodule_relocate, .-dlmodule_relocate
 494              		.align	1
 495              		.p2align 2,,3
 496              		.global	dlmodule_load_shared_object
 497              		.syntax unified
 498              		.thumb
 499              		.thumb_func
 500              		.fpu softvfp
 501              		.type	dlmodule_load_shared_object, %function
 502              	dlmodule_load_shared_object:
 503              	.LFB12:
 152:../../source/src/kernel/OS_CORE/module.c **** 
 153:../../source/src/kernel/OS_CORE/module.c **** rt_err_t dlmodule_load_shared_object(struct rt_dlmodule* module, void *module_ptr)
 154:../../source/src/kernel/OS_CORE/module.c **** {
 504              		.loc 1 154 0
 505              		.cfi_startproc
 506              		@ args = 0, pretend = 0, frame = 24
 507              		@ frame_needed = 0, uses_anonymous_args = 0
 508              	.LVL56:
 509 0210 2DE9F04F 		push	{r4, r5, r6, r7, r8, r9, r10, fp, lr}
 510              	.LCFI17:
 511              		.cfi_def_cfa_offset 36
 512              		.cfi_offset 4, -36
 513              		.cfi_offset 5, -32
 514              		.cfi_offset 6, -28
ARM GAS  G:\Users\Jaxb\AppData\Local\Temp\ccRp9Rzk.s 			page 14


 515              		.cfi_offset 7, -24
 516              		.cfi_offset 8, -20
 517              		.cfi_offset 9, -16
 518              		.cfi_offset 10, -12
 519              		.cfi_offset 11, -8
 520              		.cfi_offset 14, -4
 521 0214 8346     		mov	fp, r0
 522 0216 87B0     		sub	sp, sp, #28
 523              	.LCFI18:
 524              		.cfi_def_cfa_offset 64
 155:../../source/src/kernel/OS_CORE/module.c ****     rt_bool_t linked   = RT_FALSE;
 156:../../source/src/kernel/OS_CORE/module.c ****     UINT32 index, module_size = 0;
 157:../../source/src/kernel/OS_CORE/module.c ****     Elf32_Addr vstart_addr, vend_addr;
 158:../../source/src/kernel/OS_CORE/module.c ****     rt_bool_t has_vstart;
 159:../../source/src/kernel/OS_CORE/module.c **** 
 160:../../source/src/kernel/OS_CORE/module.c ****     ASSERT(module_ptr != NULL);
 525              		.loc 1 160 0
 526 0218 8A46     		mov	r10, r1
 527 021a 0029     		cmp	r1, #0
 528 021c 00F0EA81 		beq	.L108
 529              	.LVL57:
 530              	.L43:
 161:../../source/src/kernel/OS_CORE/module.c **** 
 162:../../source/src/kernel/OS_CORE/module.c ****     /* get the ELF image size */
 163:../../source/src/kernel/OS_CORE/module.c ****     has_vstart = RT_FALSE;
 164:../../source/src/kernel/OS_CORE/module.c ****     vstart_addr = vend_addr = NULL;
 165:../../source/src/kernel/OS_CORE/module.c ****     for (index = 0; index < elf_module->e_phnum; index++)
 531              		.loc 1 165 0 discriminator 1
 532 0220 BAF82C20 		ldrh	r2, [r10, #44]
 533 0224 002A     		cmp	r2, #0
 534 0226 00F0F981 		beq	.L44
 535              		.loc 1 165 0 is_stmt 0
 536 022a 4FF00008 		mov	r8, #0
 537 022e DAF81C00 		ldr	r0, [r10, #28]
 538 0232 4546     		mov	r5, r8
 539 0234 CDF80880 		str	r8, [sp, #8]
 540 0238 4446     		mov	r4, r8
 166:../../source/src/kernel/OS_CORE/module.c ****     {
 167:../../source/src/kernel/OS_CORE/module.c ****         if (phdr[index].p_type != PT_LOAD)
 168:../../source/src/kernel/OS_CORE/module.c ****             continue;
 169:../../source/src/kernel/OS_CORE/module.c **** 
 170:../../source/src/kernel/OS_CORE/module.c ****         ka_printf("LOAD segment: %d, 0x%p, 0x%x\n", index, phdr[index].p_vaddr, phdr[index].p_memsz
 541              		.loc 1 170 0 is_stmt 1
 542 023a DFF89893 		ldr	r9, .L117+44
 543 023e 02E0     		b	.L55
 544              	.LVL58:
 545              	.L45:
 165:../../source/src/kernel/OS_CORE/module.c ****     {
 546              		.loc 1 165 0 discriminator 2
 547 0240 0134     		adds	r4, r4, #1
 548              	.LVL59:
 549 0242 A242     		cmp	r2, r4
 550 0244 27D9     		bls	.L109
 551              	.LVL60:
 552              	.L55:
 553 0246 6601     		lsls	r6, r4, #5
 167:../../source/src/kernel/OS_CORE/module.c ****             continue;
ARM GAS  G:\Users\Jaxb\AppData\Local\Temp\ccRp9Rzk.s 			page 15


 554              		.loc 1 167 0
 555 0248 3318     		adds	r3, r6, r0
 556 024a 5AF80370 		ldr	r7, [r10, r3]
 557 024e 0AEB0301 		add	r1, r10, r3
 558 0252 012F     		cmp	r7, #1
 559 0254 F4D1     		bne	.L45
 560              		.loc 1 170 0
 561 0256 4B69     		ldr	r3, [r1, #20]
 562 0258 8A68     		ldr	r2, [r1, #8]
 563 025a 4846     		mov	r0, r9
 564 025c 2146     		mov	r1, r4
 565 025e FFF7FEFF 		bl	ka_printf
 566              	.LVL61:
 171:../../source/src/kernel/OS_CORE/module.c **** 
 172:../../source/src/kernel/OS_CORE/module.c ****         if (phdr[index].p_memsz < phdr[index].p_filesz)
 567              		.loc 1 172 0
 568 0262 DAF81C00 		ldr	r0, [r10, #28]
 569 0266 06EB000C 		add	ip, r6, r0
 570 026a D444     		add	ip, ip, r10
 571 026c DCE90432 		ldrd	r3, r2, [ip, #16]
 572 0270 9A42     		cmp	r2, r3
 573 0272 C0F0B781 		bcc	.L110
 574 0276 DCF80810 		ldr	r1, [ip, #8]
 173:../../source/src/kernel/OS_CORE/module.c ****         {
 174:../../source/src/kernel/OS_CORE/module.c ****             ka_printf("invalid elf: segment %d: p_memsz: %d, p_filesz: %d\n",
 175:../../source/src/kernel/OS_CORE/module.c ****                        index, phdr[index].p_memsz, phdr[index].p_filesz);
 176:../../source/src/kernel/OS_CORE/module.c ****             return NULL;
 177:../../source/src/kernel/OS_CORE/module.c ****         }
 178:../../source/src/kernel/OS_CORE/module.c ****         if (!has_vstart)
 575              		.loc 1 178 0
 576 027a B8F1000F 		cmp	r8, #0
 577 027e 40F0AB80 		bne	.L48
 578              	.LVL62:
 579 0282 5518     		adds	r5, r2, r1
 580              	.LVL63:
 179:../../source/src/kernel/OS_CORE/module.c ****         {
 180:../../source/src/kernel/OS_CORE/module.c ****             vstart_addr = phdr[index].p_vaddr;
 181:../../source/src/kernel/OS_CORE/module.c ****             vend_addr = phdr[index].p_vaddr + phdr[index].p_memsz;
 182:../../source/src/kernel/OS_CORE/module.c ****             has_vstart = RT_TRUE;
 183:../../source/src/kernel/OS_CORE/module.c ****             if (vend_addr < vstart_addr)
 581              		.loc 1 183 0
 582 0284 80F0BB81 		bcs	.L111
 182:../../source/src/kernel/OS_CORE/module.c ****             if (vend_addr < vstart_addr)
 583              		.loc 1 182 0
 584 0288 B846     		mov	r8, r7
 585 028a 0291     		str	r1, [sp, #8]
 586              	.LVL64:
 587              	.L107:
 588 028c BAF82C20 		ldrh	r2, [r10, #44]
 589              	.LVL65:
 165:../../source/src/kernel/OS_CORE/module.c ****     {
 590              		.loc 1 165 0
 591 0290 0134     		adds	r4, r4, #1
 592              	.LVL66:
 593 0292 A242     		cmp	r2, r4
 594 0294 D7D8     		bhi	.L55
 595              	.L109:
ARM GAS  G:\Users\Jaxb\AppData\Local\Temp\ccRp9Rzk.s 			page 16


 184:../../source/src/kernel/OS_CORE/module.c ****             {
 185:../../source/src/kernel/OS_CORE/module.c ****                 ka_printf("invalid elf: segment %d: p_vaddr: %d, p_memsz: %d\n",
 186:../../source/src/kernel/OS_CORE/module.c ****                            index, phdr[index].p_vaddr, phdr[index].p_memsz);
 187:../../source/src/kernel/OS_CORE/module.c ****                 return NULL;
 188:../../source/src/kernel/OS_CORE/module.c ****             }
 189:../../source/src/kernel/OS_CORE/module.c ****         }
 190:../../source/src/kernel/OS_CORE/module.c ****         else
 191:../../source/src/kernel/OS_CORE/module.c ****         {
 192:../../source/src/kernel/OS_CORE/module.c ****             if (phdr[index].p_vaddr < vend_addr)
 193:../../source/src/kernel/OS_CORE/module.c ****             {
 194:../../source/src/kernel/OS_CORE/module.c ****                 ka_printf("invalid elf: segment should be sorted and not overlapped\n");
 195:../../source/src/kernel/OS_CORE/module.c ****                 return NULL;
 196:../../source/src/kernel/OS_CORE/module.c ****             }
 197:../../source/src/kernel/OS_CORE/module.c ****             if (phdr[index].p_vaddr > vend_addr + 16)
 198:../../source/src/kernel/OS_CORE/module.c ****             {
 199:../../source/src/kernel/OS_CORE/module.c ****                 /* There should not be too much padding in the object files. */
 200:../../source/src/kernel/OS_CORE/module.c ****                 ka_printf("warning: too much padding before segment %d\n", index);
 201:../../source/src/kernel/OS_CORE/module.c ****             }
 202:../../source/src/kernel/OS_CORE/module.c **** 
 203:../../source/src/kernel/OS_CORE/module.c ****             vend_addr = phdr[index].p_vaddr + phdr[index].p_memsz;
 204:../../source/src/kernel/OS_CORE/module.c ****             if (vend_addr < phdr[index].p_vaddr)
 205:../../source/src/kernel/OS_CORE/module.c ****             {
 206:../../source/src/kernel/OS_CORE/module.c ****                 ka_printf("invalid elf: "
 207:../../source/src/kernel/OS_CORE/module.c ****                            "segment %d address overflow\n", index);
 208:../../source/src/kernel/OS_CORE/module.c ****                 return NULL;
 209:../../source/src/kernel/OS_CORE/module.c ****             }
 210:../../source/src/kernel/OS_CORE/module.c ****         }
 211:../../source/src/kernel/OS_CORE/module.c ****     }
 212:../../source/src/kernel/OS_CORE/module.c **** 
 213:../../source/src/kernel/OS_CORE/module.c ****     module_size = vend_addr - vstart_addr;
 596              		.loc 1 213 0
 597 0296 029A     		ldr	r2, [sp, #8]
 214:../../source/src/kernel/OS_CORE/module.c ****     ka_printf("module size: %d, vstart_addr: 0x%p\n", module_size, vstart_addr);
 598              		.loc 1 214 0
 599 0298 C348     		ldr	r0, .L117
 213:../../source/src/kernel/OS_CORE/module.c ****     ka_printf("module size: %d, vstart_addr: 0x%p\n", module_size, vstart_addr);
 600              		.loc 1 213 0
 601 029a AD1A     		subs	r5, r5, r2
 602              	.LVL67:
 603              		.loc 1 214 0
 604 029c 2946     		mov	r1, r5
 605 029e FFF7FEFF 		bl	ka_printf
 606              	.LVL68:
 215:../../source/src/kernel/OS_CORE/module.c ****     if (module_size == 0)
 607              		.loc 1 215 0
 608 02a2 002D     		cmp	r5, #0
 609 02a4 00F0BE81 		beq	.L83
 216:../../source/src/kernel/OS_CORE/module.c ****     {
 217:../../source/src/kernel/OS_CORE/module.c ****         ka_printf("Module: size error\n");
 218:../../source/src/kernel/OS_CORE/module.c ****         return -RT_ERROR;
 219:../../source/src/kernel/OS_CORE/module.c ****     }
 220:../../source/src/kernel/OS_CORE/module.c **** 
 221:../../source/src/kernel/OS_CORE/module.c ****     module->vstart_addr = vstart_addr;
 222:../../source/src/kernel/OS_CORE/module.c ****     module->nref = 0;
 610              		.loc 1 222 0
 611 02a8 0024     		movs	r4, #0
 612              	.LVL69:
ARM GAS  G:\Users\Jaxb\AppData\Local\Temp\ccRp9Rzk.s 			page 17


 221:../../source/src/kernel/OS_CORE/module.c ****     module->nref = 0;
 613              		.loc 1 221 0
 614 02aa 029B     		ldr	r3, [sp, #8]
 615              		.loc 1 222 0
 616 02ac ABF84440 		strh	r4, [fp, #68]	@ movhi
 221:../../source/src/kernel/OS_CORE/module.c ****     module->nref = 0;
 617              		.loc 1 221 0
 618 02b0 CBF82830 		str	r3, [fp, #40]
 223:../../source/src/kernel/OS_CORE/module.c **** 
 224:../../source/src/kernel/OS_CORE/module.c ****     /* allocate module space */
 225:../../source/src/kernel/OS_CORE/module.c ****     module->mem_space = ka_malloc(module_size);
 619              		.loc 1 225 0
 620 02b4 2846     		mov	r0, r5
 621 02b6 FFF7FEFF 		bl	ka_malloc
 622              	.LVL70:
 623 02ba CBF83400 		str	r0, [fp, #52]
 226:../../source/src/kernel/OS_CORE/module.c ****     if (module->mem_space == NULL)
 624              		.loc 1 226 0
 625 02be 0028     		cmp	r0, #0
 626 02c0 00F0B681 		beq	.L112
 227:../../source/src/kernel/OS_CORE/module.c ****     {
 228:../../source/src/kernel/OS_CORE/module.c ****         ka_printf("Module: allocate space failed.\n");
 229:../../source/src/kernel/OS_CORE/module.c ****         return -RT_ERROR;
 230:../../source/src/kernel/OS_CORE/module.c ****     }
 231:../../source/src/kernel/OS_CORE/module.c ****     module->mem_size = module_size;
 232:../../source/src/kernel/OS_CORE/module.c **** 
 233:../../source/src/kernel/OS_CORE/module.c ****     /* zero all space */
 234:../../source/src/kernel/OS_CORE/module.c ****     ka_memset(module->mem_space, 0, module_size);
 627              		.loc 1 234 0
 628 02c4 2A46     		mov	r2, r5
 231:../../source/src/kernel/OS_CORE/module.c **** 
 629              		.loc 1 231 0
 630 02c6 CBF83850 		str	r5, [fp, #56]
 631              		.loc 1 234 0
 632 02ca 2146     		mov	r1, r4
 633 02cc FFF7FEFF 		bl	ka_memset
 634              	.LVL71:
 235:../../source/src/kernel/OS_CORE/module.c ****     for (index = 0; index < elf_module->e_phnum; index++)
 635              		.loc 1 235 0
 636 02d0 BAF82C20 		ldrh	r2, [r10, #44]
 637 02d4 DBF83450 		ldr	r5, [fp, #52]
 638              	.LVL72:
 639 02d8 EAB1     		cbz	r2, .L61
 640 02da 2846     		mov	r0, r5
 641 02dc 01E0     		b	.L60
 642              	.LVL73:
 643              	.L59:
 644              		.loc 1 235 0 is_stmt 0 discriminator 2
 645 02de A242     		cmp	r2, r4
 646 02e0 18D9     		bls	.L113
 647              	.LVL74:
 648              	.L60:
 236:../../source/src/kernel/OS_CORE/module.c ****     {
 237:../../source/src/kernel/OS_CORE/module.c ****         if (phdr[index].p_type == PT_LOAD)
 649              		.loc 1 237 0 is_stmt 1
 650 02e2 DAF81C30 		ldr	r3, [r10, #28]
 651 02e6 03EB4413 		add	r3, r3, r4, lsl #5
ARM GAS  G:\Users\Jaxb\AppData\Local\Temp\ccRp9Rzk.s 			page 18


 652 02ea 5AF80310 		ldr	r1, [r10, r3]
 235:../../source/src/kernel/OS_CORE/module.c ****     for (index = 0; index < elf_module->e_phnum; index++)
 653              		.loc 1 235 0
 654 02ee 0134     		adds	r4, r4, #1
 655              	.LVL75:
 656              		.loc 1 237 0
 657 02f0 0129     		cmp	r1, #1
 658 02f2 5344     		add	r3, r3, r10
 659 02f4 F3D1     		bne	.L59
 238:../../source/src/kernel/OS_CORE/module.c ****         {
 239:../../source/src/kernel/OS_CORE/module.c ****             ka_memcpy(module->mem_space + phdr[index].p_vaddr - vstart_addr,
 660              		.loc 1 239 0
 661 02f6 D3E90112 		ldrd	r1, r2, [r3, #4]
 662 02fa 029D     		ldr	r5, [sp, #8]
 663 02fc 5144     		add	r1, r1, r10
 664 02fe 521B     		subs	r2, r2, r5
 665 0300 1044     		add	r0, r0, r2
 666 0302 1A69     		ldr	r2, [r3, #16]
 667 0304 FFF7FEFF 		bl	ka_memcpy
 668              	.LVL76:
 669 0308 BAF82C20 		ldrh	r2, [r10, #44]
 670              	.LVL77:
 671 030c DBF83400 		ldr	r0, [fp, #52]
 235:../../source/src/kernel/OS_CORE/module.c ****     {
 672              		.loc 1 235 0
 673 0310 A242     		cmp	r2, r4
 674 0312 E6D8     		bhi	.L60
 675              	.L113:
 676 0314 0546     		mov	r5, r0
 677              	.LVL78:
 678              	.L61:
 240:../../source/src/kernel/OS_CORE/module.c ****                       (UINT8 *)elf_module + phdr[index].p_offset,
 241:../../source/src/kernel/OS_CORE/module.c ****                       phdr[index].p_filesz);
 242:../../source/src/kernel/OS_CORE/module.c ****         }
 243:../../source/src/kernel/OS_CORE/module.c ****     }
 244:../../source/src/kernel/OS_CORE/module.c **** 
 245:../../source/src/kernel/OS_CORE/module.c ****     /* set module entry */
 246:../../source/src/kernel/OS_CORE/module.c ****     module->entry_addr = module->mem_space + elf_module->e_entry - vstart_addr;
 679              		.loc 1 246 0
 680 0316 DAF81830 		ldr	r3, [r10, #24]
 681 031a 029A     		ldr	r2, [sp, #8]
 247:../../source/src/kernel/OS_CORE/module.c ****     ka_printf("1\n");
 682              		.loc 1 247 0
 683 031c A348     		ldr	r0, .L117+4
 246:../../source/src/kernel/OS_CORE/module.c ****     ka_printf("1\n");
 684              		.loc 1 246 0
 685 031e 9B1A     		subs	r3, r3, r2
 686 0320 1D44     		add	r5, r5, r3
 687 0322 CBF82C50 		str	r5, [fp, #44]
 688              		.loc 1 247 0
 689 0326 FFF7FEFF 		bl	ka_printf
 690              	.LVL79:
 248:../../source/src/kernel/OS_CORE/module.c ****     /* handle relocation section */
 249:../../source/src/kernel/OS_CORE/module.c ****     for (index = 0; index < elf_module->e_shnum; index ++)
 691              		.loc 1 249 0
 692 032a BAF83010 		ldrh	r1, [r10, #48]
 693 032e 0029     		cmp	r1, #0
ARM GAS  G:\Users\Jaxb\AppData\Local\Temp\ccRp9Rzk.s 			page 19


 694 0330 74D0     		beq	.L62
 695 0332 0023     		movs	r3, #0
 696 0334 0193     		str	r3, [sp, #4]
 697 0336 0593     		str	r3, [sp, #20]
 698 0338 07E0     		b	.L64
 699              	.LVL80:
 700              	.L67:
 701 033a 059B     		ldr	r3, [sp, #20]
 702 033c 019A     		ldr	r2, [sp, #4]
 703 033e 0133     		adds	r3, r3, #1
 704 0340 2832     		adds	r2, r2, #40
 705 0342 9942     		cmp	r1, r3
 706 0344 0593     		str	r3, [sp, #20]
 707              	.LVL81:
 708 0346 0192     		str	r2, [sp, #4]
 709 0348 68D9     		bls	.L62
 710              	.LVL82:
 711              	.L64:
 712              	.LBB4:
 250:../../source/src/kernel/OS_CORE/module.c ****     {
 251:../../source/src/kernel/OS_CORE/module.c ****         UINT32 i, nr_reloc;
 252:../../source/src/kernel/OS_CORE/module.c ****         Elf32_Sym *symtab;
 253:../../source/src/kernel/OS_CORE/module.c ****         Elf32_Rel *rel;
 254:../../source/src/kernel/OS_CORE/module.c ****         UINT8 *strtab;
 255:../../source/src/kernel/OS_CORE/module.c ****         static rt_bool_t unsolved = RT_FALSE;
 256:../../source/src/kernel/OS_CORE/module.c **** 
 257:../../source/src/kernel/OS_CORE/module.c ****         if (!IS_REL(shdr[index]))
 713              		.loc 1 257 0
 714 034a 019B     		ldr	r3, [sp, #4]
 715 034c DAF82040 		ldr	r4, [r10, #32]
 716 0350 E218     		adds	r2, r4, r3
 717 0352 5244     		add	r2, r2, r10
 718 0354 5368     		ldr	r3, [r2, #4]
 719 0356 092B     		cmp	r3, #9
 720 0358 EFD1     		bne	.L67
 258:../../source/src/kernel/OS_CORE/module.c ****             continue;
 259:../../source/src/kernel/OS_CORE/module.c **** 
 260:../../source/src/kernel/OS_CORE/module.c ****         /* get relocate item */
 261:../../source/src/kernel/OS_CORE/module.c ****         rel = (Elf32_Rel *)((UINT8 *)module_ptr + shdr[index].sh_offset);
 262:../../source/src/kernel/OS_CORE/module.c **** 
 263:../../source/src/kernel/OS_CORE/module.c ****         /* locate .rel.plt and .rel.dyn section */
 264:../../source/src/kernel/OS_CORE/module.c ****         symtab = (Elf32_Sym *)((UINT8 *)module_ptr +
 265:../../source/src/kernel/OS_CORE/module.c ****                                shdr[shdr[index].sh_link].sh_offset);
 721              		.loc 1 265 0
 722 035a 9169     		ldr	r1, [r2, #24]
 261:../../source/src/kernel/OS_CORE/module.c **** 
 723              		.loc 1 261 0
 724 035c 1369     		ldr	r3, [r2, #16]
 725              		.loc 1 265 0
 726 035e 01EB8101 		add	r1, r1, r1, lsl #2
 727 0362 04EBC101 		add	r1, r4, r1, lsl #3
 728 0366 5144     		add	r1, r1, r10
 266:../../source/src/kernel/OS_CORE/module.c ****         strtab = (UINT8 *)module_ptr +
 267:../../source/src/kernel/OS_CORE/module.c ****                  shdr[shdr[shdr[index].sh_link].sh_link].sh_offset;
 729              		.loc 1 267 0
 730 0368 8869     		ldr	r0, [r1, #24]
 268:../../source/src/kernel/OS_CORE/module.c ****         nr_reloc = (UINT32)(shdr[index].sh_size / sizeof(Elf32_Rel));
ARM GAS  G:\Users\Jaxb\AppData\Local\Temp\ccRp9Rzk.s 			page 20


 731              		.loc 1 268 0
 732 036a 5269     		ldr	r2, [r2, #20]
 267:../../source/src/kernel/OS_CORE/module.c ****         nr_reloc = (UINT32)(shdr[index].sh_size / sizeof(Elf32_Rel));
 733              		.loc 1 267 0
 734 036c 00EB8000 		add	r0, r0, r0, lsl #2
 735 0370 0AEBC000 		add	r0, r10, r0, lsl #3
 736 0374 2044     		add	r0, r0, r4
 266:../../source/src/kernel/OS_CORE/module.c ****         strtab = (UINT8 *)module_ptr +
 737              		.loc 1 266 0
 738 0376 0769     		ldr	r7, [r0, #16]
 265:../../source/src/kernel/OS_CORE/module.c ****         strtab = (UINT8 *)module_ptr +
 739              		.loc 1 265 0
 740 0378 0969     		ldr	r1, [r1, #16]
 261:../../source/src/kernel/OS_CORE/module.c **** 
 741              		.loc 1 261 0
 742 037a 0AEB0309 		add	r9, r10, r3
 743              	.LVL83:
 269:../../source/src/kernel/OS_CORE/module.c **** 
 270:../../source/src/kernel/OS_CORE/module.c ****         /* relocate every items */
 271:../../source/src/kernel/OS_CORE/module.c ****         for (i = 0; i < nr_reloc; i ++)
 744              		.loc 1 271 0
 745 037e D308     		lsrs	r3, r2, #3
 265:../../source/src/kernel/OS_CORE/module.c ****         strtab = (UINT8 *)module_ptr +
 746              		.loc 1 265 0
 747 0380 0391     		str	r1, [sp, #12]
 748              	.LVL84:
 266:../../source/src/kernel/OS_CORE/module.c ****                  shdr[shdr[shdr[index].sh_link].sh_link].sh_offset;
 749              		.loc 1 266 0
 750 0382 5744     		add	r7, r7, r10
 751              	.LVL85:
 752              		.loc 1 271 0
 753 0384 0493     		str	r3, [sp, #16]
 754 0386 41D0     		beq	.L73
 755 0388 0026     		movs	r6, #0
 756              	.LVL86:
 757              	.L65:
 758              	.LBB5:
 272:../../source/src/kernel/OS_CORE/module.c ****         {
 273:../../source/src/kernel/OS_CORE/module.c ****             Elf32_Sym *sym = &symtab[ELF32_R_SYM(rel->r_info)];
 759              		.loc 1 273 0
 760 038a D9F80440 		ldr	r4, [r9, #4]
 761 038e 039B     		ldr	r3, [sp, #12]
 762 0390 240A     		lsrs	r4, r4, #8
 763 0392 03EB0414 		add	r4, r3, r4, lsl #4
 274:../../source/src/kernel/OS_CORE/module.c **** 
 275:../../source/src/kernel/OS_CORE/module.c ****             ka_printf("relocate symbol %s shndx %d", strtab + sym->st_name, sym->st_shndx);
 764              		.loc 1 275 0
 765 0396 5AF80410 		ldr	r1, [r10, r4]
 273:../../source/src/kernel/OS_CORE/module.c **** 
 766              		.loc 1 273 0
 767 039a 0AEB0405 		add	r5, r10, r4
 768              	.LVL87:
 769              		.loc 1 275 0
 770 039e EA89     		ldrh	r2, [r5, #14]
 771 03a0 8348     		ldr	r0, .L117+8
 772 03a2 3944     		add	r1, r1, r7
 773 03a4 FFF7FEFF 		bl	ka_printf
ARM GAS  G:\Users\Jaxb\AppData\Local\Temp\ccRp9Rzk.s 			page 21


 774              	.LVL88:
 276:../../source/src/kernel/OS_CORE/module.c **** 
 277:../../source/src/kernel/OS_CORE/module.c ****             if ((sym->st_shndx != SHT_NULL) ||(ELF_ST_BIND(sym->st_info) == STB_LOCAL))
 775              		.loc 1 277 0
 776 03a8 EA89     		ldrh	r2, [r5, #14]
 777 03aa 0136     		adds	r6, r6, #1
 778              	.LVL89:
 779 03ac 09F10808 		add	r8, r9, #8
 780 03b0 1AB9     		cbnz	r2, .L68
 781              		.loc 1 277 0 is_stmt 0 discriminator 1
 782 03b2 2A7B     		ldrb	r2, [r5, #12]	@ zero_extendqisi2
 783 03b4 1309     		lsrs	r3, r2, #4
 784 03b6 40F0D980 		bne	.L69
 785              	.L68:
 786              	.LBB6:
 278:../../source/src/kernel/OS_CORE/module.c ****             {
 279:../../source/src/kernel/OS_CORE/module.c ****                 Elf32_Addr addr;
 280:../../source/src/kernel/OS_CORE/module.c **** 
 281:../../source/src/kernel/OS_CORE/module.c ****                 addr = (Elf32_Addr)(module->mem_space + sym->st_value - vstart_addr);
 787              		.loc 1 281 0 is_stmt 1
 788 03ba 6A68     		ldr	r2, [r5, #4]
 789 03bc 029B     		ldr	r3, [sp, #8]
 790 03be DBF83400 		ldr	r0, [fp, #52]
 791 03c2 D21A     		subs	r2, r2, r3
 282:../../source/src/kernel/OS_CORE/module.c ****                 dlmodule_relocate(module, rel, addr);
 792              		.loc 1 282 0
 793 03c4 0244     		add	r2, r2, r0
 794 03c6 4946     		mov	r1, r9
 795 03c8 5846     		mov	r0, fp
 796 03ca FFF7FEFF 		bl	dlmodule_relocate
 797              	.LVL90:
 798              	.L70:
 799              	.LBE6:
 800              	.LBE5:
 271:../../source/src/kernel/OS_CORE/module.c ****         {
 801              		.loc 1 271 0 discriminator 2
 802 03ce 049B     		ldr	r3, [sp, #16]
 803 03d0 B342     		cmp	r3, r6
 804 03d2 1BD9     		bls	.L73
 805              	.LVL91:
 806              	.L72:
 807              	.LBE4:
 249:../../source/src/kernel/OS_CORE/module.c ****     {
 808              		.loc 1 249 0
 809 03d4 C146     		mov	r9, r8
 810 03d6 D8E7     		b	.L65
 811              	.LVL92:
 812              	.L48:
 192:../../source/src/kernel/OS_CORE/module.c ****             {
 813              		.loc 1 192 0
 814 03d8 8D42     		cmp	r5, r1
 815 03da 00F21881 		bhi	.L114
 197:../../source/src/kernel/OS_CORE/module.c ****             {
 816              		.loc 1 197 0
 817 03de 1035     		adds	r5, r5, #16
 818              	.LVL93:
 819 03e0 8D42     		cmp	r5, r1
ARM GAS  G:\Users\Jaxb\AppData\Local\Temp\ccRp9Rzk.s 			page 22


 820 03e2 08D3     		bcc	.L115
 821              	.L52:
 822 03e4 8D18     		adds	r5, r1, r2
 823              	.LVL94:
 204:../../source/src/kernel/OS_CORE/module.c ****             {
 824              		.loc 1 204 0
 825 03e6 FFF451AF 		bcc	.L107
 206:../../source/src/kernel/OS_CORE/module.c ****                            "segment %d address overflow\n", index);
 826              		.loc 1 206 0
 827 03ea 2146     		mov	r1, r4
 828 03ec 7148     		ldr	r0, .L117+12
 829 03ee FFF7FEFF 		bl	ka_printf
 830              	.LVL95:
 208:../../source/src/kernel/OS_CORE/module.c ****             }
 831              		.loc 1 208 0
 832 03f2 0020     		movs	r0, #0
 833 03f4 B7E0     		b	.L42
 834              	.LVL96:
 835              	.L115:
 200:../../source/src/kernel/OS_CORE/module.c ****             }
 836              		.loc 1 200 0
 837 03f6 2146     		mov	r1, r4
 838 03f8 6F48     		ldr	r0, .L117+16
 839 03fa FFF7FEFF 		bl	ka_printf
 840              	.LVL97:
 841 03fe DAF81C00 		ldr	r0, [r10, #28]
 842 0402 0644     		add	r6, r6, r0
 843 0404 5644     		add	r6, r6, r10
 844 0406 B168     		ldr	r1, [r6, #8]
 845 0408 7269     		ldr	r2, [r6, #20]
 846 040a EBE7     		b	.L52
 847              	.LVL98:
 848              	.L73:
 849              	.LBB11:
 283:../../source/src/kernel/OS_CORE/module.c ****             }
 284:../../source/src/kernel/OS_CORE/module.c ****             else if (!linked)
 285:../../source/src/kernel/OS_CORE/module.c ****             {
 286:../../source/src/kernel/OS_CORE/module.c ****                 Elf32_Addr addr;
 287:../../source/src/kernel/OS_CORE/module.c **** 
 288:../../source/src/kernel/OS_CORE/module.c ****                 ka_printf("relocate symbol: %s", strtab + sym->st_name);
 289:../../source/src/kernel/OS_CORE/module.c ****                 /* need to resolve symbol in kernel symbol table */
 290:../../source/src/kernel/OS_CORE/module.c ****                 addr = dlmodule_symbol_find((const char *)(strtab + sym->st_name));
 291:../../source/src/kernel/OS_CORE/module.c ****                 if (addr == 0)
 292:../../source/src/kernel/OS_CORE/module.c ****                 {
 293:../../source/src/kernel/OS_CORE/module.c ****                     ka_printf("Module: can't find %s in kernel symbol table", strtab + sym->st_name
 294:../../source/src/kernel/OS_CORE/module.c ****                     unsolved = RT_TRUE;
 295:../../source/src/kernel/OS_CORE/module.c ****                 }
 296:../../source/src/kernel/OS_CORE/module.c ****                 else
 297:../../source/src/kernel/OS_CORE/module.c ****                 {
 298:../../source/src/kernel/OS_CORE/module.c ****                     dlmodule_relocate(module, rel, addr);
 299:../../source/src/kernel/OS_CORE/module.c ****                 }
 300:../../source/src/kernel/OS_CORE/module.c ****             }
 301:../../source/src/kernel/OS_CORE/module.c ****             rel ++;
 302:../../source/src/kernel/OS_CORE/module.c ****         }
 303:../../source/src/kernel/OS_CORE/module.c **** 
 304:../../source/src/kernel/OS_CORE/module.c ****         if (unsolved) 
 850              		.loc 1 304 0
ARM GAS  G:\Users\Jaxb\AppData\Local\Temp\ccRp9Rzk.s 			page 23


 851 040c 6B4B     		ldr	r3, .L117+20
 852 040e 1B68     		ldr	r3, [r3]
 853 0410 002B     		cmp	r3, #0
 854 0412 40F0C480 		bne	.L66
 855 0416 BAF83010 		ldrh	r1, [r10, #48]
 856 041a 8EE7     		b	.L67
 857              	.LVL99:
 858              	.L62:
 859              	.LBE11:
 305:../../source/src/kernel/OS_CORE/module.c ****             return -RT_ERROR;
 306:../../source/src/kernel/OS_CORE/module.c ****     }
 307:../../source/src/kernel/OS_CORE/module.c ****     ka_printf("2\n");
 860              		.loc 1 307 0
 861 041c 6848     		ldr	r0, .L117+24
 862 041e FFF7FEFF 		bl	ka_printf
 863              	.LVL100:
 308:../../source/src/kernel/OS_CORE/module.c ****     /* construct module symbol table */
 309:../../source/src/kernel/OS_CORE/module.c ****     for (index = 0; index < elf_module->e_shnum; index ++)
 864              		.loc 1 309 0
 865 0422 BAF83050 		ldrh	r5, [r10, #48]
 866 0426 E5B1     		cbz	r5, .L74
 867 0428 0026     		movs	r6, #0
 868              	.LBB12:
 310:../../source/src/kernel/OS_CORE/module.c ****     {
 311:../../source/src/kernel/OS_CORE/module.c ****         /* find .dynsym section */
 312:../../source/src/kernel/OS_CORE/module.c ****         UINT8 *shstrab;
 313:../../source/src/kernel/OS_CORE/module.c ****         shstrab = (UINT8 *)module_ptr +
 314:../../source/src/kernel/OS_CORE/module.c ****                   shdr[elf_module->e_shstrndx].sh_offset;
 315:../../source/src/kernel/OS_CORE/module.c ****         if (ka_strcmp((const char *)(shstrab + shdr[index].sh_name), ELF_DYNSYM) == 0)
 869              		.loc 1 315 0
 870 042a 664C     		ldr	r4, .L117+28
 871              	.LBE12:
 309:../../source/src/kernel/OS_CORE/module.c ****     {
 872              		.loc 1 309 0
 873 042c 3546     		mov	r5, r6
 874 042e 04E0     		b	.L75
 875              	.LVL101:
 876              	.L116:
 309:../../source/src/kernel/OS_CORE/module.c ****     {
 877              		.loc 1 309 0 is_stmt 0 discriminator 2
 878 0430 BAF83030 		ldrh	r3, [r10, #48]
 879 0434 0135     		adds	r5, r5, #1
 880              	.LVL102:
 881 0436 AB42     		cmp	r3, r5
 882 0438 13D9     		bls	.L74
 883              	.LVL103:
 884              	.L75:
 885              	.LBB13:
 314:../../source/src/kernel/OS_CORE/module.c ****         if (ka_strcmp((const char *)(shstrab + shdr[index].sh_name), ELF_DYNSYM) == 0)
 886              		.loc 1 314 0 is_stmt 1
 887 043a BAF83230 		ldrh	r3, [r10, #50]
 888 043e DAF82020 		ldr	r2, [r10, #32]
 889              	.LVL104:
 890 0442 03EB8303 		add	r3, r3, r3, lsl #2
 891 0446 0AEBC303 		add	r3, r10, r3, lsl #3
 892 044a 1344     		add	r3, r3, r2
 893              		.loc 1 315 0
ARM GAS  G:\Users\Jaxb\AppData\Local\Temp\ccRp9Rzk.s 			page 24


 894 044c 5244     		add	r2, r2, r10
 895              	.LVL105:
 896 044e 1869     		ldr	r0, [r3, #16]
 897 0450 9359     		ldr	r3, [r2, r6]
 898 0452 2146     		mov	r1, r4
 899 0454 1844     		add	r0, r0, r3
 900 0456 5044     		add	r0, r0, r10
 901 0458 FFF7FEFF 		bl	ka_strcmp
 902              	.LVL106:
 903 045c 2836     		adds	r6, r6, #40
 904 045e 0028     		cmp	r0, #0
 905 0460 E6D1     		bne	.L116
 906              	.LVL107:
 907              	.L74:
 908              	.LBE13:
 316:../../source/src/kernel/OS_CORE/module.c ****             break;
 317:../../source/src/kernel/OS_CORE/module.c ****     }
 318:../../source/src/kernel/OS_CORE/module.c ****     ka_printf("3\n");
 909              		.loc 1 318 0
 910 0462 5948     		ldr	r0, .L117+32
 911 0464 FFF7FEFF 		bl	ka_printf
 912              	.LVL108:
 319:../../source/src/kernel/OS_CORE/module.c ****     /* found .dynsym section */
 320:../../source/src/kernel/OS_CORE/module.c ****     if (index != elf_module->e_shnum)
 913              		.loc 1 320 0
 914 0468 BAF83030 		ldrh	r3, [r10, #48]
 915 046c AB42     		cmp	r3, r5
 916 046e 79D0     		beq	.L80
 917              	.LVL109:
 918              	.LBB14:
 321:../../source/src/kernel/OS_CORE/module.c ****     {
 322:../../source/src/kernel/OS_CORE/module.c ****         int i, count = 0;
 323:../../source/src/kernel/OS_CORE/module.c ****         Elf32_Sym  *symtab = NULL;
 324:../../source/src/kernel/OS_CORE/module.c ****         UINT8 *strtab = NULL;
 325:../../source/src/kernel/OS_CORE/module.c **** 
 326:../../source/src/kernel/OS_CORE/module.c ****         symtab = (Elf32_Sym *)((UINT8 *)module_ptr + shdr[index].sh_offset);
 919              		.loc 1 326 0
 920 0470 05EB8504 		add	r4, r5, r5, lsl #2
 921 0474 DAF82010 		ldr	r1, [r10, #32]
 922 0478 E400     		lsls	r4, r4, #3
 923 047a 0A19     		adds	r2, r1, r4
 924 047c 5244     		add	r2, r2, r10
 327:../../source/src/kernel/OS_CORE/module.c ****         strtab = (UINT8 *)module_ptr + shdr[shdr[index].sh_link].sh_offset;
 925              		.loc 1 327 0
 926 047e 9369     		ldr	r3, [r2, #24]
 328:../../source/src/kernel/OS_CORE/module.c **** 
 329:../../source/src/kernel/OS_CORE/module.c ****         for (i = 0; i < shdr[index].sh_size / sizeof(Elf32_Sym); i++)
 927              		.loc 1 329 0
 928 0480 5069     		ldr	r0, [r2, #20]
 327:../../source/src/kernel/OS_CORE/module.c ****         strtab = (UINT8 *)module_ptr + shdr[shdr[index].sh_link].sh_offset;
 929              		.loc 1 327 0
 930 0482 03EB8303 		add	r3, r3, r3, lsl #2
 931 0486 0AEBC303 		add	r3, r10, r3, lsl #3
 932 048a 0B44     		add	r3, r3, r1
 933 048c 1B69     		ldr	r3, [r3, #16]
 326:../../source/src/kernel/OS_CORE/module.c ****         strtab = (UINT8 *)module_ptr + shdr[shdr[index].sh_link].sh_offset;
 934              		.loc 1 326 0
ARM GAS  G:\Users\Jaxb\AppData\Local\Temp\ccRp9Rzk.s 			page 25


 935 048e 1569     		ldr	r5, [r2, #16]
 327:../../source/src/kernel/OS_CORE/module.c ****         strtab = (UINT8 *)module_ptr + shdr[shdr[index].sh_link].sh_offset;
 936              		.loc 1 327 0
 937 0490 5344     		add	r3, r10, r3
 938              		.loc 1 329 0
 939 0492 0009     		lsrs	r0, r0, #4
 327:../../source/src/kernel/OS_CORE/module.c ****         strtab = (UINT8 *)module_ptr + shdr[shdr[index].sh_link].sh_offset;
 940              		.loc 1 327 0
 941 0494 0193     		str	r3, [sp, #4]
 326:../../source/src/kernel/OS_CORE/module.c ****         strtab = (UINT8 *)module_ptr + shdr[shdr[index].sh_link].sh_offset;
 942              		.loc 1 326 0
 943 0496 5544     		add	r5, r5, r10
 944              	.LVL110:
 945              		.loc 1 329 0
 946 0498 00F0BE80 		beq	.L87
 947 049c 2B46     		mov	r3, r5
 948              	.LVL111:
 322:../../source/src/kernel/OS_CORE/module.c ****         Elf32_Sym  *symtab = NULL;
 949              		.loc 1 322 0
 950 049e 0026     		movs	r6, #0
 951 04a0 05EB0011 		add	r1, r5, r0, lsl #4
 952              	.LVL112:
 953              	.L79:
 330:../../source/src/kernel/OS_CORE/module.c ****         {
 331:../../source/src/kernel/OS_CORE/module.c ****             if ((ELF_ST_BIND(symtab[i].st_info) == STB_GLOBAL) &&
 954              		.loc 1 331 0
 955 04a4 1A7B     		ldrb	r2, [r3, #12]	@ zero_extendqisi2
 956 04a6 1033     		adds	r3, r3, #16
 957 04a8 1009     		lsrs	r0, r2, #4
 958 04aa 0128     		cmp	r0, #1
 959 04ac 04D1     		bne	.L78
 960              		.loc 1 331 0 is_stmt 0 discriminator 1
 961 04ae 02F00F02 		and	r2, r2, #15
 962 04b2 022A     		cmp	r2, #2
 332:../../source/src/kernel/OS_CORE/module.c ****                 (ELF_ST_TYPE(symtab[i].st_info) == STT_FUNC))
 333:../../source/src/kernel/OS_CORE/module.c ****                 count ++;
 963              		.loc 1 333 0 is_stmt 1 discriminator 1
 964 04b4 08BF     		it	eq
 965 04b6 0136     		addeq	r6, r6, #1
 966              	.LVL113:
 967              	.L78:
 329:../../source/src/kernel/OS_CORE/module.c ****         {
 968              		.loc 1 329 0 discriminator 2
 969 04b8 9942     		cmp	r1, r3
 970 04ba F3D1     		bne	.L79
 971 04bc F000     		lsls	r0, r6, #3
 972 04be B6B2     		uxth	r6, r6
 973              	.LVL114:
 974              	.L77:
 334:../../source/src/kernel/OS_CORE/module.c ****         }
 335:../../source/src/kernel/OS_CORE/module.c **** 
 336:../../source/src/kernel/OS_CORE/module.c ****         module->symtab = (struct rt_module_symtab *)ka_malloc
 975              		.loc 1 336 0
 976 04c0 FFF7FEFF 		bl	ka_malloc
 977              	.LVL115:
 337:../../source/src/kernel/OS_CORE/module.c ****                          (count * sizeof(struct rt_module_symtab));
 338:../../source/src/kernel/OS_CORE/module.c ****         module->nsym = count;
ARM GAS  G:\Users\Jaxb\AppData\Local\Temp\ccRp9Rzk.s 			page 26


 339:../../source/src/kernel/OS_CORE/module.c ****         for (i = 0, count = 0; i < shdr[index].sh_size / sizeof(Elf32_Sym); i++)
 978              		.loc 1 339 0
 979 04c4 DAF82020 		ldr	r2, [r10, #32]
 980 04c8 5444     		add	r4, r4, r10
 981 04ca A318     		adds	r3, r4, r2
 982 04cc 5B69     		ldr	r3, [r3, #20]
 336:../../source/src/kernel/OS_CORE/module.c ****                          (count * sizeof(struct rt_module_symtab));
 983              		.loc 1 336 0
 984 04ce CBF84800 		str	r0, [fp, #72]
 985              		.loc 1 339 0
 986 04d2 1B09     		lsrs	r3, r3, #4
 338:../../source/src/kernel/OS_CORE/module.c ****         for (i = 0, count = 0; i < shdr[index].sh_size / sizeof(Elf32_Sym); i++)
 987              		.loc 1 338 0
 988 04d4 ABF84660 		strh	r6, [fp, #70]	@ movhi
 989              	.LVL116:
 990              		.loc 1 339 0
 991 04d8 44D0     		beq	.L80
 992 04da 4FF00008 		mov	r8, #0
 993 04de 4646     		mov	r6, r8
 994 04e0 CDF808A0 		str	r10, [sp, #8]
 995              	.LVL117:
 996              	.L82:
 997              	.LBB15:
 340:../../source/src/kernel/OS_CORE/module.c ****         {
 341:../../source/src/kernel/OS_CORE/module.c ****             unsigned long length;
 342:../../source/src/kernel/OS_CORE/module.c **** 
 343:../../source/src/kernel/OS_CORE/module.c ****             if ((ELF_ST_BIND(symtab[i].st_info) != STB_GLOBAL) ||
 998              		.loc 1 343 0
 999 04e4 2B7B     		ldrb	r3, [r5, #12]	@ zero_extendqisi2
 1000              	.LBE15:
 339:../../source/src/kernel/OS_CORE/module.c ****         {
 1001              		.loc 1 339 0
 1002 04e6 0136     		adds	r6, r6, #1
 1003              	.LVL118:
 1004              	.LBB16:
 1005              		.loc 1 343 0
 1006 04e8 1909     		lsrs	r1, r3, #4
 1007 04ea 0129     		cmp	r1, #1
 1008 04ec 03F00F03 		and	r3, r3, #15
 1009 04f0 32D1     		bne	.L81
 1010              		.loc 1 343 0 is_stmt 0 discriminator 1
 1011 04f2 022B     		cmp	r3, #2
 1012 04f4 30D1     		bne	.L81
 344:../../source/src/kernel/OS_CORE/module.c ****                 (ELF_ST_TYPE(symtab[i].st_info) != STT_FUNC))
 345:../../source/src/kernel/OS_CORE/module.c ****                 continue;
 346:../../source/src/kernel/OS_CORE/module.c **** 
 347:../../source/src/kernel/OS_CORE/module.c ****             length = ka_strlen((const char *)(strtab + symtab[i].st_name)) + 1;
 1013              		.loc 1 347 0 is_stmt 1
 1014 04f6 019B     		ldr	r3, [sp, #4]
 1015 04f8 2868     		ldr	r0, [r5]
 348:../../source/src/kernel/OS_CORE/module.c **** 
 349:../../source/src/kernel/OS_CORE/module.c ****             module->symtab[count].addr =
 1016              		.loc 1 349 0
 1017 04fa 4FEAC807 		lsl	r7, r8, #3
 347:../../source/src/kernel/OS_CORE/module.c **** 
 1018              		.loc 1 347 0
 1019 04fe 1844     		add	r0, r0, r3
ARM GAS  G:\Users\Jaxb\AppData\Local\Temp\ccRp9Rzk.s 			page 27


 1020 0500 FFF7FEFF 		bl	ka_strlen
 1021              	.LVL119:
 350:../../source/src/kernel/OS_CORE/module.c ****                 (void *)(module->mem_space + symtab[i].st_value - module->vstart_addr);
 1022              		.loc 1 350 0
 1023 0504 DBF82810 		ldr	r1, [fp, #40]
 1024 0508 6A68     		ldr	r2, [r5, #4]
 1025 050a DBF83430 		ldr	r3, [fp, #52]
 1026 050e 521A     		subs	r2, r2, r1
 349:../../source/src/kernel/OS_CORE/module.c ****                 (void *)(module->mem_space + symtab[i].st_value - module->vstart_addr);
 1027              		.loc 1 349 0
 1028 0510 DBF84810 		ldr	r1, [fp, #72]
 1029              		.loc 1 350 0
 1030 0514 1344     		add	r3, r3, r2
 347:../../source/src/kernel/OS_CORE/module.c **** 
 1031              		.loc 1 347 0
 1032 0516 00F10109 		add	r9, r0, #1
 1033              	.LVL120:
 349:../../source/src/kernel/OS_CORE/module.c ****                 (void *)(module->mem_space + symtab[i].st_value - module->vstart_addr);
 1034              		.loc 1 349 0
 1035 051a 41F83830 		str	r3, [r1, r8, lsl #3]
 351:../../source/src/kernel/OS_CORE/module.c ****             module->symtab[count].name = ka_malloc(length);
 1036              		.loc 1 351 0
 1037 051e 4846     		mov	r0, r9
 349:../../source/src/kernel/OS_CORE/module.c ****                 (void *)(module->mem_space + symtab[i].st_value - module->vstart_addr);
 1038              		.loc 1 349 0
 1039 0520 01EB070A 		add	r10, r1, r7
 1040              		.loc 1 351 0
 1041 0524 FFF7FEFF 		bl	ka_malloc
 1042              	.LVL121:
 352:../../source/src/kernel/OS_CORE/module.c ****             ka_memset((void *)module->symtab[count].name, 0, length);
 1043              		.loc 1 352 0
 1044 0528 DBF84830 		ldr	r3, [fp, #72]
 351:../../source/src/kernel/OS_CORE/module.c ****             module->symtab[count].name = ka_malloc(length);
 1045              		.loc 1 351 0
 1046 052c CAF80400 		str	r0, [r10, #4]
 1047              		.loc 1 352 0
 1048 0530 3B44     		add	r3, r3, r7
 1049 0532 5868     		ldr	r0, [r3, #4]
 1050 0534 4A46     		mov	r2, r9
 1051 0536 0021     		movs	r1, #0
 1052 0538 FFF7FEFF 		bl	ka_memset
 1053              	.LVL122:
 353:../../source/src/kernel/OS_CORE/module.c ****             ka_memcpy((void *)module->symtab[count].name,
 1054              		.loc 1 353 0
 1055 053c DBF84830 		ldr	r3, [fp, #72]
 354:../../source/src/kernel/OS_CORE/module.c ****                       strtab + symtab[i].st_name,
 1056              		.loc 1 354 0
 1057 0540 2968     		ldr	r1, [r5]
 353:../../source/src/kernel/OS_CORE/module.c ****             ka_memcpy((void *)module->symtab[count].name,
 1058              		.loc 1 353 0
 1059 0542 3B44     		add	r3, r3, r7
 1060 0544 5868     		ldr	r0, [r3, #4]
 1061 0546 019B     		ldr	r3, [sp, #4]
 1062 0548 4A46     		mov	r2, r9
 1063 054a 1944     		add	r1, r1, r3
 1064 054c FFF7FEFF 		bl	ka_memcpy
 1065              	.LVL123:
ARM GAS  G:\Users\Jaxb\AppData\Local\Temp\ccRp9Rzk.s 			page 28


 1066 0550 029B     		ldr	r3, [sp, #8]
 355:../../source/src/kernel/OS_CORE/module.c ****                       length);
 356:../../source/src/kernel/OS_CORE/module.c ****             count ++;
 1067              		.loc 1 356 0
 1068 0552 08F10108 		add	r8, r8, #1
 1069              	.LVL124:
 1070 0556 1A6A     		ldr	r2, [r3, #32]
 1071              	.LVL125:
 1072              	.L81:
 1073              	.LBE16:
 339:../../source/src/kernel/OS_CORE/module.c ****         {
 1074              		.loc 1 339 0 discriminator 2
 1075 0558 A318     		adds	r3, r4, r2
 1076 055a 5B69     		ldr	r3, [r3, #20]
 1077 055c 1035     		adds	r5, r5, #16
 1078 055e B6EB131F 		cmp	r6, r3, lsr #4
 1079 0562 BFD3     		bcc	.L82
 1080              	.LVL126:
 1081              	.L80:
 1082              	.LBE14:
 357:../../source/src/kernel/OS_CORE/module.c ****         }
 358:../../source/src/kernel/OS_CORE/module.c ****     }
 359:../../source/src/kernel/OS_CORE/module.c **** 
 360:../../source/src/kernel/OS_CORE/module.c ****     return RT_EOK;
 1083              		.loc 1 360 0
 1084 0564 0020     		movs	r0, #0
 1085              	.L42:
 361:../../source/src/kernel/OS_CORE/module.c **** }
 1086              		.loc 1 361 0
 1087 0566 07B0     		add	sp, sp, #28
 1088              	.LCFI19:
 1089              		.cfi_remember_state
 1090              		.cfi_def_cfa_offset 36
 1091              		@ sp needed
 1092 0568 BDE8F08F 		pop	{r4, r5, r6, r7, r8, r9, r10, fp, pc}
 1093              	.LVL127:
 1094              	.L69:
 1095              	.LCFI20:
 1096              		.cfi_restore_state
 1097              	.LBB17:
 1098              	.LBB9:
 1099              	.LBB7:
 288:../../source/src/kernel/OS_CORE/module.c ****                 /* need to resolve symbol in kernel symbol table */
 1100              		.loc 1 288 0
 1101 056c 5AF80410 		ldr	r1, [r10, r4]
 1102 0570 1648     		ldr	r0, .L117+36
 1103 0572 3944     		add	r1, r1, r7
 1104 0574 FFF7FEFF 		bl	ka_printf
 1105              	.LVL128:
 290:../../source/src/kernel/OS_CORE/module.c ****                 if (addr == 0)
 1106              		.loc 1 290 0
 1107 0578 5AF80400 		ldr	r0, [r10, r4]
 1108 057c 3844     		add	r0, r0, r7
 1109 057e FFF7FEFF 		bl	dlmodule_symbol_find
 1110              	.LVL129:
 291:../../source/src/kernel/OS_CORE/module.c ****                 {
 1111              		.loc 1 291 0
ARM GAS  G:\Users\Jaxb\AppData\Local\Temp\ccRp9Rzk.s 			page 29


 1112 0582 48BB     		cbnz	r0, .L71
 293:../../source/src/kernel/OS_CORE/module.c ****                     unsolved = RT_TRUE;
 1113              		.loc 1 293 0
 1114 0584 5AF80410 		ldr	r1, [r10, r4]
 1115 0588 1148     		ldr	r0, .L117+40
 1116              	.LVL130:
 1117 058a 3944     		add	r1, r1, r7
 1118 058c FFF7FEFF 		bl	ka_printf
 1119              	.LVL131:
 294:../../source/src/kernel/OS_CORE/module.c ****                 }
 1120              		.loc 1 294 0
 1121 0590 0123     		movs	r3, #1
 1122 0592 0A4A     		ldr	r2, .L117+20
 1123 0594 1360     		str	r3, [r2]
 1124              	.LVL132:
 1125              	.LBE7:
 1126              	.LBE9:
 271:../../source/src/kernel/OS_CORE/module.c ****         {
 1127              		.loc 1 271 0
 1128 0596 049B     		ldr	r3, [sp, #16]
 1129 0598 B342     		cmp	r3, r6
 1130 059a 3FF61BAF 		bhi	.L72
 1131              	.LVL133:
 1132              	.L66:
 305:../../source/src/kernel/OS_CORE/module.c ****     }
 1133              		.loc 1 305 0
 1134 059e 4FF0FF30 		mov	r0, #-1
 1135              	.LBE17:
 1136              		.loc 1 361 0
 1137 05a2 07B0     		add	sp, sp, #28
 1138              	.LCFI21:
 1139              		.cfi_remember_state
 1140              		.cfi_def_cfa_offset 36
 1141              		@ sp needed
 1142 05a4 BDE8F08F 		pop	{r4, r5, r6, r7, r8, r9, r10, fp, pc}
 1143              	.LVL134:
 1144              	.L118:
 1145              		.align	2
 1146              	.L117:
 1147 05a8 18020000 		.word	.LC13
 1148 05ac 70020000 		.word	.LC16
 1149 05b0 74020000 		.word	.LC17
 1150 05b4 EC010000 		.word	.LC12
 1151 05b8 BC010000 		.word	.LC11
 1152 05bc 00000000 		.word	.LANCHOR0
 1153 05c0 D4020000 		.word	.LC20
 1154 05c4 D8020000 		.word	.LC21
 1155 05c8 E0020000 		.word	.LC22
 1156 05cc 90020000 		.word	.LC18
 1157 05d0 A4020000 		.word	.LC19
 1158 05d4 F8000000 		.word	.LC7
 1159              	.LVL135:
 1160              	.L71:
 1161              	.LCFI22:
 1162              		.cfi_restore_state
 1163              	.LBB18:
 1164              	.LBB10:
ARM GAS  G:\Users\Jaxb\AppData\Local\Temp\ccRp9Rzk.s 			page 30


 1165              	.LBB8:
 298:../../source/src/kernel/OS_CORE/module.c ****                 }
 1166              		.loc 1 298 0
 1167 05d8 0246     		mov	r2, r0
 1168 05da 4946     		mov	r1, r9
 1169 05dc 5846     		mov	r0, fp
 1170              	.LVL136:
 1171 05de FFF7FEFF 		bl	dlmodule_relocate
 1172              	.LVL137:
 1173 05e2 F4E6     		b	.L70
 1174              	.LVL138:
 1175              	.L110:
 1176              	.LBE8:
 1177              	.LBE10:
 1178              	.LBE18:
 174:../../source/src/kernel/OS_CORE/module.c ****                        index, phdr[index].p_memsz, phdr[index].p_filesz);
 1179              		.loc 1 174 0
 1180 05e4 2146     		mov	r1, r4
 1181 05e6 1548     		ldr	r0, .L119
 1182 05e8 FFF7FEFF 		bl	ka_printf
 1183              	.LVL139:
 176:../../source/src/kernel/OS_CORE/module.c ****         }
 1184              		.loc 1 176 0
 1185 05ec 0020     		movs	r0, #0
 1186              		.loc 1 361 0
 1187 05ee 07B0     		add	sp, sp, #28
 1188              	.LCFI23:
 1189              		.cfi_remember_state
 1190              		.cfi_def_cfa_offset 36
 1191              		@ sp needed
 1192 05f0 BDE8F08F 		pop	{r4, r5, r6, r7, r8, r9, r10, fp, pc}
 1193              	.LVL140:
 1194              	.L108:
 1195              	.LCFI24:
 1196              		.cfi_restore_state
 160:../../source/src/kernel/OS_CORE/module.c **** 
 1197              		.loc 1 160 0 discriminator 1
 1198 05f4 A021     		movs	r1, #160
 1199              	.LVL141:
 1200 05f6 1248     		ldr	r0, .L119+4
 1201              	.LVL142:
 1202 05f8 FFF7FEFF 		bl	_ASSERT
 1203              	.LVL143:
 1204 05fc 10E6     		b	.L43
 1205              	.LVL144:
 1206              	.L111:
 185:../../source/src/kernel/OS_CORE/module.c ****                            index, phdr[index].p_vaddr, phdr[index].p_memsz);
 1207              		.loc 1 185 0
 1208 05fe 1346     		mov	r3, r2
 1209 0600 1048     		ldr	r0, .L119+8
 1210 0602 0A46     		mov	r2, r1
 1211 0604 2146     		mov	r1, r4
 1212 0606 FFF7FEFF 		bl	ka_printf
 1213              	.LVL145:
 187:../../source/src/kernel/OS_CORE/module.c ****             }
 1214              		.loc 1 187 0
 1215 060a 4046     		mov	r0, r8
ARM GAS  G:\Users\Jaxb\AppData\Local\Temp\ccRp9Rzk.s 			page 31


 1216 060c ABE7     		b	.L42
 1217              	.LVL146:
 1218              	.L114:
 194:../../source/src/kernel/OS_CORE/module.c ****                 return NULL;
 1219              		.loc 1 194 0
 1220 060e 0E48     		ldr	r0, .L119+12
 1221 0610 FFF7FEFF 		bl	ka_printf
 1222              	.LVL147:
 195:../../source/src/kernel/OS_CORE/module.c ****             }
 1223              		.loc 1 195 0
 1224 0614 0020     		movs	r0, #0
 1225 0616 A6E7     		b	.L42
 1226              	.LVL148:
 1227              	.L87:
 1228              	.LBB19:
 329:../../source/src/kernel/OS_CORE/module.c ****         {
 1229              		.loc 1 329 0
 1230 0618 0646     		mov	r6, r0
 1231 061a 51E7     		b	.L77
 1232              	.LVL149:
 1233              	.L44:
 1234              	.LBE19:
 214:../../source/src/kernel/OS_CORE/module.c ****     if (module_size == 0)
 1235              		.loc 1 214 0
 1236 061c 1146     		mov	r1, r2
 1237 061e 0B48     		ldr	r0, .L119+16
 1238 0620 FFF7FEFF 		bl	ka_printf
 1239              	.LVL150:
 1240              	.L83:
 217:../../source/src/kernel/OS_CORE/module.c ****         return -RT_ERROR;
 1241              		.loc 1 217 0
 1242 0624 0A48     		ldr	r0, .L119+20
 1243 0626 FFF7FEFF 		bl	ka_printf
 1244              	.LVL151:
 218:../../source/src/kernel/OS_CORE/module.c ****     }
 1245              		.loc 1 218 0
 1246 062a 4FF0FF30 		mov	r0, #-1
 1247 062e 9AE7     		b	.L42
 1248              	.LVL152:
 1249              	.L112:
 228:../../source/src/kernel/OS_CORE/module.c ****         return -RT_ERROR;
 1250              		.loc 1 228 0
 1251 0630 0848     		ldr	r0, .L119+24
 1252 0632 FFF7FEFF 		bl	ka_printf
 1253              	.LVL153:
 229:../../source/src/kernel/OS_CORE/module.c ****     }
 1254              		.loc 1 229 0
 1255 0636 4FF0FF30 		mov	r0, #-1
 1256 063a 94E7     		b	.L42
 1257              	.L120:
 1258              		.align	2
 1259              	.L119:
 1260 063c 18010000 		.word	.LC8
 1261 0640 CC000000 		.word	.LC6
 1262 0644 4C010000 		.word	.LC9
 1263 0648 80010000 		.word	.LC10
 1264 064c 18020000 		.word	.LC13
ARM GAS  G:\Users\Jaxb\AppData\Local\Temp\ccRp9Rzk.s 			page 32


 1265 0650 3C020000 		.word	.LC14
 1266 0654 50020000 		.word	.LC15
 1267              		.cfi_endproc
 1268              	.LFE12:
 1269              		.size	dlmodule_load_shared_object, .-dlmodule_load_shared_object
 1270              		.align	1
 1271              		.p2align 2,,3
 1272              		.global	dlmodule_load_relocated_object
 1273              		.syntax unified
 1274              		.thumb
 1275              		.thumb_func
 1276              		.fpu softvfp
 1277              		.type	dlmodule_load_relocated_object, %function
 1278              	dlmodule_load_relocated_object:
 1279              	.LFB13:
 362:../../source/src/kernel/OS_CORE/module.c **** 
 363:../../source/src/kernel/OS_CORE/module.c **** rt_err_t dlmodule_load_relocated_object(struct rt_dlmodule* module, void *module_ptr)
 364:../../source/src/kernel/OS_CORE/module.c **** {
 1280              		.loc 1 364 0
 1281              		.cfi_startproc
 1282              		@ args = 0, pretend = 0, frame = 32
 1283              		@ frame_needed = 0, uses_anonymous_args = 0
 1284              	.LVL154:
 1285 0658 2DE9F04F 		push	{r4, r5, r6, r7, r8, r9, r10, fp, lr}
 1286              	.LCFI25:
 1287              		.cfi_def_cfa_offset 36
 1288              		.cfi_offset 4, -36
 1289              		.cfi_offset 5, -32
 1290              		.cfi_offset 6, -28
 1291              		.cfi_offset 7, -24
 1292              		.cfi_offset 8, -20
 1293              		.cfi_offset 9, -16
 1294              		.cfi_offset 10, -12
 1295              		.cfi_offset 11, -8
 1296              		.cfi_offset 14, -4
 365:../../source/src/kernel/OS_CORE/module.c ****     UINT32 index, rodata_addr = 0, bss_addr = 0, data_addr = 0;
 366:../../source/src/kernel/OS_CORE/module.c ****     UINT32 module_addr = 0, module_size = 0;
 367:../../source/src/kernel/OS_CORE/module.c ****     UINT8 *ptr, *strtab, *shstrab;
 368:../../source/src/kernel/OS_CORE/module.c **** 
 369:../../source/src/kernel/OS_CORE/module.c ****     /* get the ELF image size */
 370:../../source/src/kernel/OS_CORE/module.c ****     for (index = 0; index < elf_module->e_shnum; index ++)
 1297              		.loc 1 370 0
 1298 065c 0A8E     		ldrh	r2, [r1, #48]
 364:../../source/src/kernel/OS_CORE/module.c ****     UINT32 index, rodata_addr = 0, bss_addr = 0, data_addr = 0;
 1299              		.loc 1 364 0
 1300 065e 89B0     		sub	sp, sp, #36
 1301              	.LCFI26:
 1302              		.cfi_def_cfa_offset 72
 364:../../source/src/kernel/OS_CORE/module.c ****     UINT32 index, rodata_addr = 0, bss_addr = 0, data_addr = 0;
 1303              		.loc 1 364 0
 1304 0660 0C46     		mov	r4, r1
 1305 0662 8146     		mov	r9, r0
 1306              		.loc 1 370 0
 1307 0664 12B3     		cbz	r2, .L122
 366:../../source/src/kernel/OS_CORE/module.c ****     UINT8 *ptr, *strtab, *shstrab;
 1308              		.loc 1 366 0
 1309 0666 0025     		movs	r5, #0
ARM GAS  G:\Users\Jaxb\AppData\Local\Temp\ccRp9Rzk.s 			page 33


 1310 0668 0B6A     		ldr	r3, [r1, #32]
 1311 066a 02EB8202 		add	r2, r2, r2, lsl #2
 1312 066e 0B44     		add	r3, r3, r1
 1313 0670 0195     		str	r5, [sp, #4]
 1314 0672 03EBC200 		add	r0, r3, r2, lsl #3
 1315              	.LVL155:
 1316 0676 09E0     		b	.L127
 1317              	.LVL156:
 1318              	.L123:
 371:../../source/src/kernel/OS_CORE/module.c ****     {
 372:../../source/src/kernel/OS_CORE/module.c ****         /* text */
 373:../../source/src/kernel/OS_CORE/module.c ****         if (IS_PROG(shdr[index]) && IS_AX(shdr[index]))
 374:../../source/src/kernel/OS_CORE/module.c ****         {
 375:../../source/src/kernel/OS_CORE/module.c ****             module_size += shdr[index].sh_size;
 376:../../source/src/kernel/OS_CORE/module.c ****             module_addr = shdr[index].sh_addr;
 377:../../source/src/kernel/OS_CORE/module.c ****         }
 378:../../source/src/kernel/OS_CORE/module.c ****         /* rodata */
 379:../../source/src/kernel/OS_CORE/module.c ****         if (IS_PROG(shdr[index]) && IS_ALLOC(shdr[index]))
 380:../../source/src/kernel/OS_CORE/module.c ****         {
 381:../../source/src/kernel/OS_CORE/module.c ****             module_size += shdr[index].sh_size;
 382:../../source/src/kernel/OS_CORE/module.c ****         }
 383:../../source/src/kernel/OS_CORE/module.c ****         /* data */
 384:../../source/src/kernel/OS_CORE/module.c ****         if (IS_PROG(shdr[index]) && IS_AW(shdr[index]))
 385:../../source/src/kernel/OS_CORE/module.c ****         {
 386:../../source/src/kernel/OS_CORE/module.c ****             module_size += shdr[index].sh_size;
 387:../../source/src/kernel/OS_CORE/module.c ****         }
 388:../../source/src/kernel/OS_CORE/module.c ****         /* bss */
 389:../../source/src/kernel/OS_CORE/module.c ****         if (IS_NOPROG(shdr[index]) && IS_AW(shdr[index]))
 1319              		.loc 1 389 0
 1320 0678 082A     		cmp	r2, #8
 1321 067a 04D1     		bne	.L126
 1322              		.loc 1 389 0 is_stmt 0 discriminator 1
 1323 067c 9A68     		ldr	r2, [r3, #8]
 1324              	.L174:
 1325 067e 02F00302 		and	r2, r2, #3
 1326 0682 032A     		cmp	r2, #3
 1327 0684 0CD0     		beq	.L173
 1328              	.L126:
 1329 0686 2833     		adds	r3, r3, #40
 370:../../source/src/kernel/OS_CORE/module.c ****     {
 1330              		.loc 1 370 0 is_stmt 1 discriminator 2
 1331 0688 9842     		cmp	r0, r3
 1332 068a 0ED0     		beq	.L175
 1333              	.LVL157:
 1334              	.L127:
 373:../../source/src/kernel/OS_CORE/module.c ****         {
 1335              		.loc 1 373 0
 1336 068c 5A68     		ldr	r2, [r3, #4]
 1337 068e 012A     		cmp	r2, #1
 1338 0690 F2D1     		bne	.L123
 373:../../source/src/kernel/OS_CORE/module.c ****         {
 1339              		.loc 1 373 0 is_stmt 0 discriminator 1
 1340 0692 9A68     		ldr	r2, [r3, #8]
 1341 0694 02F00601 		and	r1, r2, #6
 1342 0698 0629     		cmp	r1, #6
 1343 069a 0BD0     		beq	.L176
 379:../../source/src/kernel/OS_CORE/module.c ****         {
ARM GAS  G:\Users\Jaxb\AppData\Local\Temp\ccRp9Rzk.s 			page 34


 1344              		.loc 1 379 0 is_stmt 1
 1345 069c 022A     		cmp	r2, #2
 1346 069e EED1     		bne	.L174
 1347              	.L173:
 390:../../source/src/kernel/OS_CORE/module.c ****         {
 391:../../source/src/kernel/OS_CORE/module.c ****             module_size += shdr[index].sh_size;
 1348              		.loc 1 391 0
 1349 06a0 5A69     		ldr	r2, [r3, #20]
 1350 06a2 2833     		adds	r3, r3, #40
 370:../../source/src/kernel/OS_CORE/module.c ****     {
 1351              		.loc 1 370 0
 1352 06a4 9842     		cmp	r0, r3
 1353              		.loc 1 391 0
 1354 06a6 1544     		add	r5, r5, r2
 1355              	.LVL158:
 370:../../source/src/kernel/OS_CORE/module.c ****     {
 1356              		.loc 1 370 0
 1357 06a8 F0D1     		bne	.L127
 1358              	.L175:
 392:../../source/src/kernel/OS_CORE/module.c ****         }
 393:../../source/src/kernel/OS_CORE/module.c ****     }
 394:../../source/src/kernel/OS_CORE/module.c **** 
 395:../../source/src/kernel/OS_CORE/module.c ****     /* no text, data and bss on image */
 396:../../source/src/kernel/OS_CORE/module.c ****     if (module_size == 0) return NULL;
 1359              		.loc 1 396 0
 1360 06aa 45B9     		cbnz	r5, .L177
 1361              	.LVL159:
 1362              	.L122:
 1363 06ac 0020     		movs	r0, #0
 1364              	.L121:
 397:../../source/src/kernel/OS_CORE/module.c **** 
 398:../../source/src/kernel/OS_CORE/module.c ****     module->vstart_addr = 0;
 399:../../source/src/kernel/OS_CORE/module.c **** 
 400:../../source/src/kernel/OS_CORE/module.c ****     /* allocate module space */
 401:../../source/src/kernel/OS_CORE/module.c ****     ka_printf("module size is %u\n",module_size);
 402:../../source/src/kernel/OS_CORE/module.c ****     module->mem_space = ka_malloc(module_size);
 403:../../source/src/kernel/OS_CORE/module.c ****     if (module->mem_space == NULL)
 404:../../source/src/kernel/OS_CORE/module.c ****     {
 405:../../source/src/kernel/OS_CORE/module.c ****         ka_printf("Module: allocate space failed.\n");
 406:../../source/src/kernel/OS_CORE/module.c ****         return -RT_ERROR;
 407:../../source/src/kernel/OS_CORE/module.c ****     }
 408:../../source/src/kernel/OS_CORE/module.c ****     module->mem_size = module_size;
 409:../../source/src/kernel/OS_CORE/module.c **** 
 410:../../source/src/kernel/OS_CORE/module.c ****     /* zero all space */
 411:../../source/src/kernel/OS_CORE/module.c ****     ptr = module->mem_space;
 412:../../source/src/kernel/OS_CORE/module.c ****     ka_memset(ptr, 0, module_size);
 413:../../source/src/kernel/OS_CORE/module.c **** 
 414:../../source/src/kernel/OS_CORE/module.c ****     /* load text and data section */
 415:../../source/src/kernel/OS_CORE/module.c ****     for (index = 0; index < elf_module->e_shnum; index ++)
 416:../../source/src/kernel/OS_CORE/module.c ****     {
 417:../../source/src/kernel/OS_CORE/module.c ****         /* load text section */
 418:../../source/src/kernel/OS_CORE/module.c ****         if (IS_PROG(shdr[index]) && IS_AX(shdr[index]))
 419:../../source/src/kernel/OS_CORE/module.c ****         {
 420:../../source/src/kernel/OS_CORE/module.c ****             ka_memcpy(ptr,
 421:../../source/src/kernel/OS_CORE/module.c ****                       (UINT8 *)elf_module + shdr[index].sh_offset,
 422:../../source/src/kernel/OS_CORE/module.c ****                       shdr[index].sh_size);
 423:../../source/src/kernel/OS_CORE/module.c ****             ka_printf("load text 0x%x, size %d\n", ptr, shdr[index].sh_size);
ARM GAS  G:\Users\Jaxb\AppData\Local\Temp\ccRp9Rzk.s 			page 35


 424:../../source/src/kernel/OS_CORE/module.c ****             ptr += shdr[index].sh_size;
 425:../../source/src/kernel/OS_CORE/module.c ****         }
 426:../../source/src/kernel/OS_CORE/module.c **** 
 427:../../source/src/kernel/OS_CORE/module.c ****         /* load rodata section */
 428:../../source/src/kernel/OS_CORE/module.c ****         if (IS_PROG(shdr[index]) && IS_ALLOC(shdr[index]))
 429:../../source/src/kernel/OS_CORE/module.c ****         {
 430:../../source/src/kernel/OS_CORE/module.c ****             ka_memcpy(ptr,
 431:../../source/src/kernel/OS_CORE/module.c ****                       (UINT8 *)elf_module + shdr[index].sh_offset,
 432:../../source/src/kernel/OS_CORE/module.c ****                       shdr[index].sh_size);
 433:../../source/src/kernel/OS_CORE/module.c ****             rodata_addr = (UINT32)ptr;
 434:../../source/src/kernel/OS_CORE/module.c ****             ka_printf("load rodata 0x%x, size %d, rodata 0x%x\n", ptr,
 435:../../source/src/kernel/OS_CORE/module.c ****                       shdr[index].sh_size, *(UINT32 *)data_addr);
 436:../../source/src/kernel/OS_CORE/module.c ****             ptr += shdr[index].sh_size;
 437:../../source/src/kernel/OS_CORE/module.c ****         }
 438:../../source/src/kernel/OS_CORE/module.c **** 
 439:../../source/src/kernel/OS_CORE/module.c ****         /* load data section */
 440:../../source/src/kernel/OS_CORE/module.c ****         if (IS_PROG(shdr[index]) && IS_AW(shdr[index]))
 441:../../source/src/kernel/OS_CORE/module.c ****         {
 442:../../source/src/kernel/OS_CORE/module.c ****             ka_memcpy(ptr,
 443:../../source/src/kernel/OS_CORE/module.c ****                       (UINT8 *)elf_module + shdr[index].sh_offset,
 444:../../source/src/kernel/OS_CORE/module.c ****                       shdr[index].sh_size);
 445:../../source/src/kernel/OS_CORE/module.c ****             data_addr = (UINT32)ptr;
 446:../../source/src/kernel/OS_CORE/module.c ****             ka_printf("load data 0x%x, size %d, data 0x%x\n", ptr,
 447:../../source/src/kernel/OS_CORE/module.c ****                       shdr[index].sh_size, *(UINT32 *)data_addr);
 448:../../source/src/kernel/OS_CORE/module.c ****             ptr += shdr[index].sh_size;
 449:../../source/src/kernel/OS_CORE/module.c ****         }
 450:../../source/src/kernel/OS_CORE/module.c **** 
 451:../../source/src/kernel/OS_CORE/module.c ****         /* load bss section */
 452:../../source/src/kernel/OS_CORE/module.c ****         if (IS_NOPROG(shdr[index]) && IS_AW(shdr[index]))
 453:../../source/src/kernel/OS_CORE/module.c ****         {
 454:../../source/src/kernel/OS_CORE/module.c ****             ka_memset(ptr, 0, shdr[index].sh_size);
 455:../../source/src/kernel/OS_CORE/module.c ****             bss_addr = (UINT32)ptr;
 456:../../source/src/kernel/OS_CORE/module.c ****             ka_printf("load bss 0x%x, size %d\n", ptr, shdr[index].sh_size);
 457:../../source/src/kernel/OS_CORE/module.c ****         }
 458:../../source/src/kernel/OS_CORE/module.c ****     }
 459:../../source/src/kernel/OS_CORE/module.c **** 
 460:../../source/src/kernel/OS_CORE/module.c ****     /* set module entry */
 461:../../source/src/kernel/OS_CORE/module.c ****     module->entry_addr = (rt_dlmodule_entry_func_t)((UINT8 *)module->mem_space + elf_module->e_entr
 462:../../source/src/kernel/OS_CORE/module.c ****     ka_printf("module entry point is %p\n",module->entry_addr);
 463:../../source/src/kernel/OS_CORE/module.c ****     /* handle relocation section */
 464:../../source/src/kernel/OS_CORE/module.c ****     for (index = 0; index < elf_module->e_shnum; index ++)
 465:../../source/src/kernel/OS_CORE/module.c ****     {
 466:../../source/src/kernel/OS_CORE/module.c ****         UINT32 i, nr_reloc;
 467:../../source/src/kernel/OS_CORE/module.c ****         Elf32_Sym *symtab;
 468:../../source/src/kernel/OS_CORE/module.c ****         Elf32_Rel *rel;
 469:../../source/src/kernel/OS_CORE/module.c **** 
 470:../../source/src/kernel/OS_CORE/module.c ****         if (!IS_REL(shdr[index]))
 471:../../source/src/kernel/OS_CORE/module.c ****             continue;
 472:../../source/src/kernel/OS_CORE/module.c **** 
 473:../../source/src/kernel/OS_CORE/module.c ****         /* get relocate item */
 474:../../source/src/kernel/OS_CORE/module.c ****         rel = (Elf32_Rel *)((UINT8 *)module_ptr + shdr[index].sh_offset);
 475:../../source/src/kernel/OS_CORE/module.c **** 
 476:../../source/src/kernel/OS_CORE/module.c ****         /* locate .dynsym and .dynstr */
 477:../../source/src/kernel/OS_CORE/module.c ****         symtab   = (Elf32_Sym *)((UINT8 *)module_ptr +
 478:../../source/src/kernel/OS_CORE/module.c ****                                  shdr[shdr[index].sh_link].sh_offset);
 479:../../source/src/kernel/OS_CORE/module.c ****         strtab   = (UINT8 *)module_ptr +
 480:../../source/src/kernel/OS_CORE/module.c ****                    shdr[shdr[shdr[index].sh_link].sh_link].sh_offset;
ARM GAS  G:\Users\Jaxb\AppData\Local\Temp\ccRp9Rzk.s 			page 36


 481:../../source/src/kernel/OS_CORE/module.c ****         shstrab  = (UINT8 *)module_ptr +
 482:../../source/src/kernel/OS_CORE/module.c ****                    shdr[elf_module->e_shstrndx].sh_offset;
 483:../../source/src/kernel/OS_CORE/module.c ****         nr_reloc = (UINT32)(shdr[index].sh_size / sizeof(Elf32_Rel));
 484:../../source/src/kernel/OS_CORE/module.c **** 
 485:../../source/src/kernel/OS_CORE/module.c ****         /* relocate every items */
 486:../../source/src/kernel/OS_CORE/module.c ****         for (i = 0; i < nr_reloc; i ++)
 487:../../source/src/kernel/OS_CORE/module.c ****         {
 488:../../source/src/kernel/OS_CORE/module.c ****             Elf32_Sym *sym = &symtab[ELF32_R_SYM(rel->r_info)];
 489:../../source/src/kernel/OS_CORE/module.c **** 
 490:../../source/src/kernel/OS_CORE/module.c ****             ka_printf("relocate symbol: %s\n", strtab + sym->st_name);
 491:../../source/src/kernel/OS_CORE/module.c **** 
 492:../../source/src/kernel/OS_CORE/module.c ****             if (sym->st_shndx != STN_UNDEF)
 493:../../source/src/kernel/OS_CORE/module.c ****             {
 494:../../source/src/kernel/OS_CORE/module.c ****                 Elf32_Addr addr = 0;
 495:../../source/src/kernel/OS_CORE/module.c **** 
 496:../../source/src/kernel/OS_CORE/module.c ****                 if ((ELF_ST_TYPE(sym->st_info) == STT_SECTION) ||
 497:../../source/src/kernel/OS_CORE/module.c ****                         (ELF_ST_TYPE(sym->st_info) == STT_OBJECT))
 498:../../source/src/kernel/OS_CORE/module.c ****                 {
 499:../../source/src/kernel/OS_CORE/module.c ****                     if (ka_strncmp((const char *)(shstrab +
 500:../../source/src/kernel/OS_CORE/module.c ****                                                   shdr[sym->st_shndx].sh_name), ELF_RODATA, 8) == 0
 501:../../source/src/kernel/OS_CORE/module.c ****                     {
 502:../../source/src/kernel/OS_CORE/module.c ****                         /* relocate rodata section */
 503:../../source/src/kernel/OS_CORE/module.c ****                         ka_printf("rodata\n");
 504:../../source/src/kernel/OS_CORE/module.c ****                         addr = (Elf32_Addr)(rodata_addr + sym->st_value);
 505:../../source/src/kernel/OS_CORE/module.c ****                     }
 506:../../source/src/kernel/OS_CORE/module.c ****                     else if (ka_strncmp((const char *)
 507:../../source/src/kernel/OS_CORE/module.c ****                                         (shstrab + shdr[sym->st_shndx].sh_name), ELF_BSS, 5) == 0)
 508:../../source/src/kernel/OS_CORE/module.c ****                     {
 509:../../source/src/kernel/OS_CORE/module.c ****                         /* relocate bss section */
 510:../../source/src/kernel/OS_CORE/module.c ****                         ka_printf("bss\n");
 511:../../source/src/kernel/OS_CORE/module.c ****                         addr = (Elf32_Addr)bss_addr + sym->st_value;
 512:../../source/src/kernel/OS_CORE/module.c ****                     }
 513:../../source/src/kernel/OS_CORE/module.c ****                     else if (ka_strncmp((const char *)(shstrab + shdr[sym->st_shndx].sh_name),
 514:../../source/src/kernel/OS_CORE/module.c ****                                         ELF_DATA, 6) == 0)
 515:../../source/src/kernel/OS_CORE/module.c ****                     {
 516:../../source/src/kernel/OS_CORE/module.c ****                         /* relocate data section */
 517:../../source/src/kernel/OS_CORE/module.c ****                         ka_printf("data\n");
 518:../../source/src/kernel/OS_CORE/module.c ****                         addr = (Elf32_Addr)data_addr + sym->st_value;
 519:../../source/src/kernel/OS_CORE/module.c ****                     }
 520:../../source/src/kernel/OS_CORE/module.c **** 
 521:../../source/src/kernel/OS_CORE/module.c ****                     if (addr != 0) dlmodule_relocate(module, rel, addr);
 522:../../source/src/kernel/OS_CORE/module.c ****                 }
 523:../../source/src/kernel/OS_CORE/module.c ****                 else if (ELF_ST_TYPE(sym->st_info) == STT_FUNC)
 524:../../source/src/kernel/OS_CORE/module.c ****                 {
 525:../../source/src/kernel/OS_CORE/module.c ****                     addr = (Elf32_Addr)((UINT8 *) module->mem_space - module_addr + sym->st_value);
 526:../../source/src/kernel/OS_CORE/module.c **** 
 527:../../source/src/kernel/OS_CORE/module.c ****                     /* relocate function */
 528:../../source/src/kernel/OS_CORE/module.c ****                     dlmodule_relocate(module, rel, addr);
 529:../../source/src/kernel/OS_CORE/module.c ****                 }
 530:../../source/src/kernel/OS_CORE/module.c ****             }
 531:../../source/src/kernel/OS_CORE/module.c ****             else if (ELF_ST_TYPE(sym->st_info) == STT_FUNC)
 532:../../source/src/kernel/OS_CORE/module.c ****             {
 533:../../source/src/kernel/OS_CORE/module.c ****                 /* relocate function */
 534:../../source/src/kernel/OS_CORE/module.c ****                 dlmodule_relocate(module, rel,
 535:../../source/src/kernel/OS_CORE/module.c ****                                   (Elf32_Addr)((UINT8 *)
 536:../../source/src/kernel/OS_CORE/module.c ****                                                module->mem_space
 537:../../source/src/kernel/OS_CORE/module.c ****                                                - module_addr
ARM GAS  G:\Users\Jaxb\AppData\Local\Temp\ccRp9Rzk.s 			page 37


 538:../../source/src/kernel/OS_CORE/module.c ****                                                + sym->st_value));
 539:../../source/src/kernel/OS_CORE/module.c ****             }
 540:../../source/src/kernel/OS_CORE/module.c ****             else
 541:../../source/src/kernel/OS_CORE/module.c ****             {
 542:../../source/src/kernel/OS_CORE/module.c ****                 Elf32_Addr addr;
 543:../../source/src/kernel/OS_CORE/module.c **** 
 544:../../source/src/kernel/OS_CORE/module.c ****                 if (ELF32_R_TYPE(rel->r_info) != R_ARM_V4BX)
 545:../../source/src/kernel/OS_CORE/module.c ****                 {
 546:../../source/src/kernel/OS_CORE/module.c ****                     ka_printf("relocate symbol: %s\n", strtab + sym->st_name);
 547:../../source/src/kernel/OS_CORE/module.c **** 
 548:../../source/src/kernel/OS_CORE/module.c ****                     /* need to resolve symbol in kernel symbol table */
 549:../../source/src/kernel/OS_CORE/module.c ****                     addr = dlmodule_symbol_find((const char *)(strtab + sym->st_name));
 550:../../source/src/kernel/OS_CORE/module.c ****                     if (addr != (Elf32_Addr)NULL)
 551:../../source/src/kernel/OS_CORE/module.c ****                     {
 552:../../source/src/kernel/OS_CORE/module.c ****                         dlmodule_relocate(module, rel, addr);
 553:../../source/src/kernel/OS_CORE/module.c ****                         ka_printf("symbol addr 0x%x\n", addr);
 554:../../source/src/kernel/OS_CORE/module.c ****                     }
 555:../../source/src/kernel/OS_CORE/module.c ****                     else
 556:../../source/src/kernel/OS_CORE/module.c ****                         ka_printf("Module: can't find %s in kernel symbol table\n",
 557:../../source/src/kernel/OS_CORE/module.c ****                                   strtab + sym->st_name);
 558:../../source/src/kernel/OS_CORE/module.c ****                 }
 559:../../source/src/kernel/OS_CORE/module.c ****                 else
 560:../../source/src/kernel/OS_CORE/module.c ****                 {
 561:../../source/src/kernel/OS_CORE/module.c ****                     addr = (Elf32_Addr)((UINT8 *) module->mem_space - module_addr + sym->st_value);
 562:../../source/src/kernel/OS_CORE/module.c ****                     dlmodule_relocate(module, rel, addr);
 563:../../source/src/kernel/OS_CORE/module.c ****                 }
 564:../../source/src/kernel/OS_CORE/module.c ****             }
 565:../../source/src/kernel/OS_CORE/module.c **** 
 566:../../source/src/kernel/OS_CORE/module.c ****             rel ++;
 567:../../source/src/kernel/OS_CORE/module.c ****         }
 568:../../source/src/kernel/OS_CORE/module.c ****     }
 569:../../source/src/kernel/OS_CORE/module.c **** 
 570:../../source/src/kernel/OS_CORE/module.c ****     return RT_EOK;
 571:../../source/src/kernel/OS_CORE/module.c **** }
 1365              		.loc 1 571 0
 1366 06ae 09B0     		add	sp, sp, #36
 1367              	.LCFI27:
 1368              		.cfi_remember_state
 1369              		.cfi_def_cfa_offset 36
 1370              		@ sp needed
 1371 06b0 BDE8F08F 		pop	{r4, r5, r6, r7, r8, r9, r10, fp, pc}
 1372              	.LVL160:
 1373              	.L176:
 1374              	.LCFI28:
 1375              		.cfi_restore_state
 375:../../source/src/kernel/OS_CORE/module.c ****             module_addr = shdr[index].sh_addr;
 1376              		.loc 1 375 0
 1377 06b4 5969     		ldr	r1, [r3, #20]
 376:../../source/src/kernel/OS_CORE/module.c ****         }
 1378              		.loc 1 376 0
 1379 06b6 DE68     		ldr	r6, [r3, #12]
 375:../../source/src/kernel/OS_CORE/module.c ****             module_addr = shdr[index].sh_addr;
 1380              		.loc 1 375 0
 1381 06b8 0D44     		add	r5, r5, r1
 1382              	.LVL161:
 376:../../source/src/kernel/OS_CORE/module.c ****         }
 1383              		.loc 1 376 0
ARM GAS  G:\Users\Jaxb\AppData\Local\Temp\ccRp9Rzk.s 			page 38


 1384 06ba 0196     		str	r6, [sp, #4]
 1385              	.LVL162:
 1386 06bc DFE7     		b	.L174
 1387              	.L177:
 398:../../source/src/kernel/OS_CORE/module.c **** 
 1388              		.loc 1 398 0
 1389 06be 0026     		movs	r6, #0
 401:../../source/src/kernel/OS_CORE/module.c ****     module->mem_space = ka_malloc(module_size);
 1390              		.loc 1 401 0
 1391 06c0 2946     		mov	r1, r5
 398:../../source/src/kernel/OS_CORE/module.c **** 
 1392              		.loc 1 398 0
 1393 06c2 C9F82860 		str	r6, [r9, #40]
 401:../../source/src/kernel/OS_CORE/module.c ****     module->mem_space = ka_malloc(module_size);
 1394              		.loc 1 401 0
 1395 06c6 B748     		ldr	r0, .L185
 1396 06c8 FFF7FEFF 		bl	ka_printf
 1397              	.LVL163:
 402:../../source/src/kernel/OS_CORE/module.c ****     if (module->mem_space == NULL)
 1398              		.loc 1 402 0
 1399 06cc 2846     		mov	r0, r5
 1400 06ce FFF7FEFF 		bl	ka_malloc
 1401              	.LVL164:
 1402 06d2 0746     		mov	r7, r0
 1403 06d4 C9F83400 		str	r0, [r9, #52]
 403:../../source/src/kernel/OS_CORE/module.c ****     {
 1404              		.loc 1 403 0
 1405 06d8 0028     		cmp	r0, #0
 1406 06da 00F09C81 		beq	.L178
 408:../../source/src/kernel/OS_CORE/module.c **** 
 1407              		.loc 1 408 0
 1408 06de C9F83850 		str	r5, [r9, #56]
 1409              	.LVL165:
 412:../../source/src/kernel/OS_CORE/module.c **** 
 1410              		.loc 1 412 0
 1411 06e2 2A46     		mov	r2, r5
 1412 06e4 3146     		mov	r1, r6
 1413 06e6 FFF7FEFF 		bl	ka_memset
 1414              	.LVL166:
 415:../../source/src/kernel/OS_CORE/module.c ****     {
 1415              		.loc 1 415 0
 1416 06ea 238E     		ldrh	r3, [r4, #48]
 1417 06ec 002B     		cmp	r3, #0
 1418 06ee 00F08E81 		beq	.L153
 365:../../source/src/kernel/OS_CORE/module.c ****     UINT32 module_addr = 0, module_size = 0;
 1419              		.loc 1 365 0
 1420 06f2 CDE90666 		strd	r6, r6, [sp, #24]
 1421 06f6 0596     		str	r6, [sp, #20]
 456:../../source/src/kernel/OS_CORE/module.c ****         }
 1422              		.loc 1 456 0
 1423 06f8 DFF8D0B2 		ldr	fp, .L185+40
 446:../../source/src/kernel/OS_CORE/module.c ****                       shdr[index].sh_size, *(UINT32 *)data_addr);
 1424              		.loc 1 446 0
 1425 06fc DFF8D0A2 		ldr	r10, .L185+44
 434:../../source/src/kernel/OS_CORE/module.c ****                       shdr[index].sh_size, *(UINT32 *)data_addr);
 1426              		.loc 1 434 0
 1427 0700 DFF8D082 		ldr	r8, .L185+48
ARM GAS  G:\Users\Jaxb\AppData\Local\Temp\ccRp9Rzk.s 			page 39


 1428 0704 05E0     		b	.L135
 1429              	.LVL167:
 1430              	.L131:
 452:../../source/src/kernel/OS_CORE/module.c ****         {
 1431              		.loc 1 452 0
 1432 0706 082A     		cmp	r2, #8
 1433 0708 34D0     		beq	.L179
 1434              	.L134:
 415:../../source/src/kernel/OS_CORE/module.c ****     {
 1435              		.loc 1 415 0 discriminator 2
 1436 070a 238E     		ldrh	r3, [r4, #48]
 1437 070c 0136     		adds	r6, r6, #1
 1438              	.LVL168:
 1439 070e B342     		cmp	r3, r6
 1440 0710 47D9     		bls	.L130
 1441              	.LVL169:
 1442              	.L135:
 1443 0712 06EB8605 		add	r5, r6, r6, lsl #2
 418:../../source/src/kernel/OS_CORE/module.c ****         {
 1444              		.loc 1 418 0
 1445 0716 216A     		ldr	r1, [r4, #32]
 1446 0718 ED00     		lsls	r5, r5, #3
 1447 071a 6B18     		adds	r3, r5, r1
 1448 071c 2344     		add	r3, r3, r4
 1449 071e 5A68     		ldr	r2, [r3, #4]
 1450 0720 012A     		cmp	r2, #1
 1451 0722 F0D1     		bne	.L131
 418:../../source/src/kernel/OS_CORE/module.c ****         {
 1452              		.loc 1 418 0 is_stmt 0 discriminator 1
 1453 0724 9A68     		ldr	r2, [r3, #8]
 1454 0726 02F00600 		and	r0, r2, #6
 1455 072a 0628     		cmp	r0, #6
 1456 072c 00F05681 		beq	.L180
 1457              	.L132:
 428:../../source/src/kernel/OS_CORE/module.c ****         {
 1458              		.loc 1 428 0 is_stmt 1 discriminator 1
 1459 0730 022A     		cmp	r2, #2
 1460 0732 00F01C81 		beq	.L181
 440:../../source/src/kernel/OS_CORE/module.c ****         {
 1461              		.loc 1 440 0
 1462 0736 6B18     		adds	r3, r5, r1
 1463 0738 2344     		add	r3, r3, r4
 1464              	.L152:
 440:../../source/src/kernel/OS_CORE/module.c ****         {
 1465              		.loc 1 440 0 is_stmt 0 discriminator 1
 1466 073a 9A68     		ldr	r2, [r3, #8]
 1467 073c 02F00302 		and	r2, r2, #3
 1468 0740 032A     		cmp	r2, #3
 1469 0742 E2D1     		bne	.L134
 442:../../source/src/kernel/OS_CORE/module.c ****                       (UINT8 *)elf_module + shdr[index].sh_offset,
 1470              		.loc 1 442 0 is_stmt 1
 1471 0744 D3E90412 		ldrd	r1, r2, [r3, #16]
 1472 0748 3846     		mov	r0, r7
 1473 074a 2144     		add	r1, r1, r4
 1474 074c FFF7FEFF 		bl	ka_memcpy
 1475              	.LVL170:
 446:../../source/src/kernel/OS_CORE/module.c ****                       shdr[index].sh_size, *(UINT32 *)data_addr);
ARM GAS  G:\Users\Jaxb\AppData\Local\Temp\ccRp9Rzk.s 			page 40


 1476              		.loc 1 446 0
 1477 0750 226A     		ldr	r2, [r4, #32]
 1478 0752 6319     		adds	r3, r4, r5
 1479 0754 1344     		add	r3, r3, r2
 1480 0756 5A69     		ldr	r2, [r3, #20]
 1481 0758 3946     		mov	r1, r7
 1482 075a 3B68     		ldr	r3, [r7]
 1483 075c 5046     		mov	r0, r10
 1484 075e FFF7FEFF 		bl	ka_printf
 1485              	.LVL171:
 448:../../source/src/kernel/OS_CORE/module.c ****         }
 1486              		.loc 1 448 0
 1487 0762 236A     		ldr	r3, [r4, #32]
 445:../../source/src/kernel/OS_CORE/module.c ****             ka_printf("load data 0x%x, size %d, data 0x%x\n", ptr,
 1488              		.loc 1 445 0
 1489 0764 0797     		str	r7, [sp, #28]
 1490              	.LVL172:
 448:../../source/src/kernel/OS_CORE/module.c ****         }
 1491              		.loc 1 448 0
 1492 0766 2B44     		add	r3, r3, r5
 1493 0768 2344     		add	r3, r3, r4
 1494 076a 5A68     		ldr	r2, [r3, #4]
 1495 076c 5969     		ldr	r1, [r3, #20]
 452:../../source/src/kernel/OS_CORE/module.c ****         {
 1496              		.loc 1 452 0
 1497 076e 082A     		cmp	r2, #8
 448:../../source/src/kernel/OS_CORE/module.c ****         }
 1498              		.loc 1 448 0
 1499 0770 0F44     		add	r7, r7, r1
 1500              	.LVL173:
 452:../../source/src/kernel/OS_CORE/module.c ****         {
 1501              		.loc 1 452 0
 1502 0772 CAD1     		bne	.L134
 1503              	.L179:
 452:../../source/src/kernel/OS_CORE/module.c ****         {
 1504              		.loc 1 452 0 is_stmt 0 discriminator 1
 1505 0774 9A68     		ldr	r2, [r3, #8]
 1506 0776 02F00302 		and	r2, r2, #3
 1507 077a 032A     		cmp	r2, #3
 1508 077c C5D1     		bne	.L134
 454:../../source/src/kernel/OS_CORE/module.c ****             bss_addr = (UINT32)ptr;
 1509              		.loc 1 454 0 is_stmt 1
 1510 077e 5A69     		ldr	r2, [r3, #20]
 1511 0780 0021     		movs	r1, #0
 1512 0782 3846     		mov	r0, r7
 1513 0784 FFF7FEFF 		bl	ka_memset
 1514              	.LVL174:
 456:../../source/src/kernel/OS_CORE/module.c ****         }
 1515              		.loc 1 456 0
 1516 0788 236A     		ldr	r3, [r4, #32]
 1517 078a 2544     		add	r5, r5, r4
 1518 078c 1D44     		add	r5, r5, r3
 1519 078e 6A69     		ldr	r2, [r5, #20]
 1520 0790 3946     		mov	r1, r7
 1521 0792 5846     		mov	r0, fp
 455:../../source/src/kernel/OS_CORE/module.c ****             ka_printf("load bss 0x%x, size %d\n", ptr, shdr[index].sh_size);
 1522              		.loc 1 455 0
ARM GAS  G:\Users\Jaxb\AppData\Local\Temp\ccRp9Rzk.s 			page 41


 1523 0794 0697     		str	r7, [sp, #24]
 1524              	.LVL175:
 456:../../source/src/kernel/OS_CORE/module.c ****         }
 1525              		.loc 1 456 0
 1526 0796 FFF7FEFF 		bl	ka_printf
 1527              	.LVL176:
 415:../../source/src/kernel/OS_CORE/module.c ****     {
 1528              		.loc 1 415 0
 1529 079a 238E     		ldrh	r3, [r4, #48]
 1530 079c 0136     		adds	r6, r6, #1
 1531              	.LVL177:
 1532 079e B342     		cmp	r3, r6
 1533 07a0 B7D8     		bhi	.L135
 1534              	.LVL178:
 1535              	.L130:
 461:../../source/src/kernel/OS_CORE/module.c ****     ka_printf("module entry point is %p\n",module->entry_addr);
 1536              		.loc 1 461 0
 1537 07a2 A369     		ldr	r3, [r4, #24]
 1538 07a4 019A     		ldr	r2, [sp, #4]
 1539 07a6 D9F83410 		ldr	r1, [r9, #52]
 1540 07aa 9B1A     		subs	r3, r3, r2
 1541 07ac 1944     		add	r1, r1, r3
 1542 07ae C9F82C10 		str	r1, [r9, #44]
 462:../../source/src/kernel/OS_CORE/module.c ****     /* handle relocation section */
 1543              		.loc 1 462 0
 1544 07b2 7D48     		ldr	r0, .L185+4
 1545 07b4 FFF7FEFF 		bl	ka_printf
 1546              	.LVL179:
 464:../../source/src/kernel/OS_CORE/module.c ****     {
 1547              		.loc 1 464 0
 1548 07b8 218E     		ldrh	r1, [r4, #48]
 1549 07ba 0029     		cmp	r1, #0
 1550 07bc 3FF476AF 		beq	.L122
 1551 07c0 0026     		movs	r6, #0
 1552              	.LBB20:
 1553              	.LBB21:
 490:../../source/src/kernel/OS_CORE/module.c **** 
 1554              		.loc 1 490 0
 1555 07c2 DFF814B2 		ldr	fp, .L185+52
 1556              	.LBB22:
 553:../../source/src/kernel/OS_CORE/module.c ****                     }
 1557              		.loc 1 553 0
 1558 07c6 CDF80C90 		str	r9, [sp, #12]
 1559 07ca 03E0     		b	.L149
 1560              	.LVL180:
 1561              	.L136:
 1562              	.LBE22:
 1563              	.LBE21:
 1564              	.LBE20:
 464:../../source/src/kernel/OS_CORE/module.c ****     {
 1565              		.loc 1 464 0
 1566 07cc 0136     		adds	r6, r6, #1
 1567              	.LVL181:
 1568 07ce B142     		cmp	r1, r6
 1569 07d0 7FF66CAF 		bls	.L122
 1570              	.LVL182:
 1571              	.L149:
ARM GAS  G:\Users\Jaxb\AppData\Local\Temp\ccRp9Rzk.s 			page 42


 1572              	.LBB33:
 470:../../source/src/kernel/OS_CORE/module.c ****             continue;
 1573              		.loc 1 470 0
 1574 07d4 256A     		ldr	r5, [r4, #32]
 1575 07d6 06EB8603 		add	r3, r6, r6, lsl #2
 1576 07da 05EBC303 		add	r3, r5, r3, lsl #3
 1577 07de 2344     		add	r3, r3, r4
 1578 07e0 5A68     		ldr	r2, [r3, #4]
 1579 07e2 092A     		cmp	r2, #9
 1580 07e4 F2D1     		bne	.L136
 478:../../source/src/kernel/OS_CORE/module.c ****         strtab   = (UINT8 *)module_ptr +
 1581              		.loc 1 478 0
 1582 07e6 9A69     		ldr	r2, [r3, #24]
 482:../../source/src/kernel/OS_CORE/module.c ****         nr_reloc = (UINT32)(shdr[index].sh_size / sizeof(Elf32_Rel));
 1583              		.loc 1 482 0
 1584 07e8 608E     		ldrh	r0, [r4, #50]
 478:../../source/src/kernel/OS_CORE/module.c ****         strtab   = (UINT8 *)module_ptr +
 1585              		.loc 1 478 0
 1586 07ea 02EB8202 		add	r2, r2, r2, lsl #2
 1587 07ee 05EBC202 		add	r2, r5, r2, lsl #3
 1588 07f2 2244     		add	r2, r2, r4
 480:../../source/src/kernel/OS_CORE/module.c ****         shstrab  = (UINT8 *)module_ptr +
 1589              		.loc 1 480 0
 1590 07f4 9769     		ldr	r7, [r2, #24]
 482:../../source/src/kernel/OS_CORE/module.c ****         nr_reloc = (UINT32)(shdr[index].sh_size / sizeof(Elf32_Rel));
 1591              		.loc 1 482 0
 1592 07f6 00EB8000 		add	r0, r0, r0, lsl #2
 480:../../source/src/kernel/OS_CORE/module.c ****         shstrab  = (UINT8 *)module_ptr +
 1593              		.loc 1 480 0
 1594 07fa 07EB8707 		add	r7, r7, r7, lsl #2
 482:../../source/src/kernel/OS_CORE/module.c ****         nr_reloc = (UINT32)(shdr[index].sh_size / sizeof(Elf32_Rel));
 1595              		.loc 1 482 0
 1596 07fe 04EBC000 		add	r0, r4, r0, lsl #3
 1597 0802 2844     		add	r0, r0, r5
 480:../../source/src/kernel/OS_CORE/module.c ****         shstrab  = (UINT8 *)module_ptr +
 1598              		.loc 1 480 0
 1599 0804 04EBC707 		add	r7, r4, r7, lsl #3
 1600 0808 2F44     		add	r7, r7, r5
 478:../../source/src/kernel/OS_CORE/module.c ****         strtab   = (UINT8 *)module_ptr +
 1601              		.loc 1 478 0
 1602 080a 1269     		ldr	r2, [r2, #16]
 481:../../source/src/kernel/OS_CORE/module.c ****                    shdr[elf_module->e_shstrndx].sh_offset;
 1603              		.loc 1 481 0
 1604 080c 0069     		ldr	r0, [r0, #16]
 479:../../source/src/kernel/OS_CORE/module.c ****                    shdr[shdr[shdr[index].sh_link].sh_link].sh_offset;
 1605              		.loc 1 479 0
 1606 080e 3F69     		ldr	r7, [r7, #16]
 483:../../source/src/kernel/OS_CORE/module.c **** 
 1607              		.loc 1 483 0
 1608 0810 D3E90453 		ldrd	r5, r3, [r3, #16]
 478:../../source/src/kernel/OS_CORE/module.c ****         strtab   = (UINT8 *)module_ptr +
 1609              		.loc 1 478 0
 1610 0814 0492     		str	r2, [sp, #16]
 486:../../source/src/kernel/OS_CORE/module.c ****         {
 1611              		.loc 1 486 0
 1612 0816 5FEAD308 		lsrs	r8, r3, #3
 481:../../source/src/kernel/OS_CORE/module.c ****                    shdr[elf_module->e_shstrndx].sh_offset;
ARM GAS  G:\Users\Jaxb\AppData\Local\Temp\ccRp9Rzk.s 			page 43


 1613              		.loc 1 481 0
 1614 081a 04EB0002 		add	r2, r4, r0
 479:../../source/src/kernel/OS_CORE/module.c ****                    shdr[shdr[shdr[index].sh_link].sh_link].sh_offset;
 1615              		.loc 1 479 0
 1616 081e 2744     		add	r7, r7, r4
 481:../../source/src/kernel/OS_CORE/module.c ****                    shdr[elf_module->e_shstrndx].sh_offset;
 1617              		.loc 1 481 0
 1618 0820 0292     		str	r2, [sp, #8]
 474:../../source/src/kernel/OS_CORE/module.c **** 
 1619              		.loc 1 474 0
 1620 0822 2544     		add	r5, r5, r4
 1621              	.LVL183:
 486:../../source/src/kernel/OS_CORE/module.c ****         {
 1622              		.loc 1 486 0
 1623 0824 D2D0     		beq	.L136
 1624 0826 DDF810A0 		ldr	r10, [sp, #16]
 1625 082a 05EBC808 		add	r8, r5, r8, lsl #3
 1626              	.LVL184:
 1627 082e 0496     		str	r6, [sp, #16]
 1628 0830 2646     		mov	r6, r4
 1629              	.LVL185:
 1630 0832 0CE0     		b	.L148
 1631              	.LVL186:
 1632              	.L184:
 1633              	.LBB30:
 1634              	.LBB23:
 496:../../source/src/kernel/OS_CORE/module.c ****                         (ELF_ST_TYPE(sym->st_info) == STT_OBJECT))
 1635              		.loc 1 496 0
 1636 0834 99F80C20 		ldrb	r2, [r9, #12]	@ zero_extendqisi2
 1637 0838 02F00D00 		and	r0, r2, #13
 1638 083c 0128     		cmp	r0, #1
 1639 083e 45D0     		beq	.L182
 523:../../source/src/kernel/OS_CORE/module.c ****                 {
 1640              		.loc 1 523 0
 1641 0840 02F00F02 		and	r2, r2, #15
 1642 0844 022A     		cmp	r2, #2
 1643 0846 36D0     		beq	.L146
 1644              	.LVL187:
 1645              	.L143:
 1646              	.LBE23:
 566:../../source/src/kernel/OS_CORE/module.c ****         }
 1647              		.loc 1 566 0 discriminator 2
 1648 0848 0835     		adds	r5, r5, #8
 1649              	.LVL188:
 1650              	.LBE30:
 486:../../source/src/kernel/OS_CORE/module.c ****         {
 1651              		.loc 1 486 0 discriminator 2
 1652 084a A845     		cmp	r8, r5
 1653 084c 2FD0     		beq	.L183
 1654              	.LVL189:
 1655              	.L148:
 1656              	.LBB31:
 488:../../source/src/kernel/OS_CORE/module.c **** 
 1657              		.loc 1 488 0
 1658 084e 6A68     		ldr	r2, [r5, #4]
 490:../../source/src/kernel/OS_CORE/module.c **** 
 1659              		.loc 1 490 0
ARM GAS  G:\Users\Jaxb\AppData\Local\Temp\ccRp9Rzk.s 			page 44


 1660 0850 5846     		mov	r0, fp
 488:../../source/src/kernel/OS_CORE/module.c **** 
 1661              		.loc 1 488 0
 1662 0852 120A     		lsrs	r2, r2, #8
 1663 0854 0AEB0214 		add	r4, r10, r2, lsl #4
 490:../../source/src/kernel/OS_CORE/module.c **** 
 1664              		.loc 1 490 0
 1665 0858 3159     		ldr	r1, [r6, r4]
 488:../../source/src/kernel/OS_CORE/module.c **** 
 1666              		.loc 1 488 0
 1667 085a 06EB0409 		add	r9, r6, r4
 1668              	.LVL190:
 490:../../source/src/kernel/OS_CORE/module.c **** 
 1669              		.loc 1 490 0
 1670 085e 3944     		add	r1, r1, r7
 1671 0860 FFF7FEFF 		bl	ka_printf
 1672              	.LVL191:
 492:../../source/src/kernel/OS_CORE/module.c ****             {
 1673              		.loc 1 492 0
 1674 0864 B9F80E10 		ldrh	r1, [r9, #14]
 1675 0868 0029     		cmp	r1, #0
 1676 086a E3D1     		bne	.L184
 531:../../source/src/kernel/OS_CORE/module.c ****             {
 1677              		.loc 1 531 0
 1678 086c 99F80C10 		ldrb	r1, [r9, #12]	@ zero_extendqisi2
 1679 0870 01F00F01 		and	r1, r1, #15
 1680 0874 0229     		cmp	r1, #2
 1681 0876 1ED0     		beq	.L146
 1682              	.LBB24:
 544:../../source/src/kernel/OS_CORE/module.c ****                 {
 1683              		.loc 1 544 0
 1684 0878 2979     		ldrb	r1, [r5, #4]	@ zero_extendqisi2
 1685 087a 2829     		cmp	r1, #40
 1686 087c 1BD0     		beq	.L146
 546:../../source/src/kernel/OS_CORE/module.c **** 
 1687              		.loc 1 546 0
 1688 087e 3159     		ldr	r1, [r6, r4]
 1689 0880 5846     		mov	r0, fp
 1690 0882 3944     		add	r1, r1, r7
 1691 0884 FFF7FEFF 		bl	ka_printf
 1692              	.LVL192:
 549:../../source/src/kernel/OS_CORE/module.c ****                     if (addr != (Elf32_Addr)NULL)
 1693              		.loc 1 549 0
 1694 0888 3059     		ldr	r0, [r6, r4]
 1695 088a 3844     		add	r0, r0, r7
 1696 088c FFF7FEFF 		bl	dlmodule_symbol_find
 1697              	.LVL193:
 550:../../source/src/kernel/OS_CORE/module.c ****                     {
 1698              		.loc 1 550 0
 1699 0890 8146     		mov	r9, r0
 1700              	.LVL194:
 1701 0892 0028     		cmp	r0, #0
 1702 0894 35D0     		beq	.L147
 552:../../source/src/kernel/OS_CORE/module.c ****                         ka_printf("symbol addr 0x%x\n", addr);
 1703              		.loc 1 552 0
 1704 0896 0246     		mov	r2, r0
 1705 0898 2946     		mov	r1, r5
ARM GAS  G:\Users\Jaxb\AppData\Local\Temp\ccRp9Rzk.s 			page 45


 1706 089a 0398     		ldr	r0, [sp, #12]
 1707              	.LVL195:
 1708 089c FFF7FEFF 		bl	dlmodule_relocate
 1709              	.LVL196:
 1710              	.LBE24:
 566:../../source/src/kernel/OS_CORE/module.c ****         }
 1711              		.loc 1 566 0
 1712 08a0 0835     		adds	r5, r5, #8
 1713              	.LVL197:
 1714              	.LBB25:
 553:../../source/src/kernel/OS_CORE/module.c ****                     }
 1715              		.loc 1 553 0
 1716 08a2 4946     		mov	r1, r9
 1717 08a4 4148     		ldr	r0, .L185+8
 1718 08a6 FFF7FEFF 		bl	ka_printf
 1719              	.LVL198:
 1720              	.LBE25:
 1721              	.LBE31:
 486:../../source/src/kernel/OS_CORE/module.c ****         {
 1722              		.loc 1 486 0
 1723 08aa A845     		cmp	r8, r5
 1724 08ac CFD1     		bne	.L148
 1725              	.LVL199:
 1726              	.L183:
 1727 08ae 3446     		mov	r4, r6
 1728              	.LVL200:
 1729 08b0 049E     		ldr	r6, [sp, #16]
 1730              	.LVL201:
 1731 08b2 218E     		ldrh	r1, [r4, #48]
 1732 08b4 8AE7     		b	.L136
 1733              	.LVL202:
 1734              	.L146:
 1735              	.LBB32:
 1736              	.LBB26:
 561:../../source/src/kernel/OS_CORE/module.c ****                     dlmodule_relocate(module, rel, addr);
 1737              		.loc 1 561 0
 1738 08b6 0398     		ldr	r0, [sp, #12]
 1739 08b8 D9F80420 		ldr	r2, [r9, #4]
 1740 08bc 019B     		ldr	r3, [sp, #4]
 1741 08be 416B     		ldr	r1, [r0, #52]
 1742 08c0 D21A     		subs	r2, r2, r3
 562:../../source/src/kernel/OS_CORE/module.c ****                 }
 1743              		.loc 1 562 0
 1744 08c2 0A44     		add	r2, r2, r1
 1745 08c4 2946     		mov	r1, r5
 1746 08c6 FFF7FEFF 		bl	dlmodule_relocate
 1747              	.LVL203:
 1748 08ca BDE7     		b	.L143
 1749              	.LVL204:
 1750              	.L182:
 1751              	.LBE26:
 1752              	.LBB27:
 500:../../source/src/kernel/OS_CORE/module.c ****                     {
 1753              		.loc 1 500 0
 1754 08cc 326A     		ldr	r2, [r6, #32]
 1755 08ce 01EB8101 		add	r1, r1, r1, lsl #2
 1756 08d2 06EBC101 		add	r1, r6, r1, lsl #3
ARM GAS  G:\Users\Jaxb\AppData\Local\Temp\ccRp9Rzk.s 			page 46


 499:../../source/src/kernel/OS_CORE/module.c ****                                                   shdr[sym->st_shndx].sh_name), ELF_RODATA, 8) == 0
 1757              		.loc 1 499 0
 1758 08d6 8858     		ldr	r0, [r1, r2]
 1759 08d8 029B     		ldr	r3, [sp, #8]
 1760 08da 0822     		movs	r2, #8
 1761 08dc 1844     		add	r0, r0, r3
 1762 08de 3449     		ldr	r1, .L185+12
 1763 08e0 FFF7FEFF 		bl	ka_strncmp
 1764              	.LVL205:
 1765 08e4 98B9     		cbnz	r0, .L139
 503:../../source/src/kernel/OS_CORE/module.c ****                         addr = (Elf32_Addr)(rodata_addr + sym->st_value);
 1766              		.loc 1 503 0
 1767 08e6 3348     		ldr	r0, .L185+16
 1768 08e8 FFF7FEFF 		bl	ka_printf
 1769              	.LVL206:
 504:../../source/src/kernel/OS_CORE/module.c ****                     }
 1770              		.loc 1 504 0
 1771 08ec D9F80420 		ldr	r2, [r9, #4]
 1772 08f0 059B     		ldr	r3, [sp, #20]
 1773 08f2 1A44     		add	r2, r2, r3
 1774              	.LVL207:
 1775              	.L140:
 521:../../source/src/kernel/OS_CORE/module.c ****                 }
 1776              		.loc 1 521 0
 1777 08f4 002A     		cmp	r2, #0
 1778 08f6 A7D0     		beq	.L143
 521:../../source/src/kernel/OS_CORE/module.c ****                 }
 1779              		.loc 1 521 0 is_stmt 0 discriminator 1
 1780 08f8 2946     		mov	r1, r5
 1781 08fa 0398     		ldr	r0, [sp, #12]
 1782 08fc FFF7FEFF 		bl	dlmodule_relocate
 1783              	.LVL208:
 1784 0900 A2E7     		b	.L143
 1785              	.LVL209:
 1786              	.L147:
 1787              	.LBE27:
 1788              	.LBB28:
 556:../../source/src/kernel/OS_CORE/module.c ****                                   strtab + sym->st_name);
 1789              		.loc 1 556 0 is_stmt 1
 1790 0902 3159     		ldr	r1, [r6, r4]
 1791 0904 2C48     		ldr	r0, .L185+20
 1792              	.LVL210:
 1793 0906 3944     		add	r1, r1, r7
 1794 0908 FFF7FEFF 		bl	ka_printf
 1795              	.LVL211:
 1796 090c 9CE7     		b	.L143
 1797              	.LVL212:
 1798              	.L139:
 1799              	.LBE28:
 1800              	.LBB29:
 507:../../source/src/kernel/OS_CORE/module.c ****                     {
 1801              		.loc 1 507 0
 1802 090e B9F80E20 		ldrh	r2, [r9, #14]
 1803 0912 316A     		ldr	r1, [r6, #32]
 1804 0914 02EB8202 		add	r2, r2, r2, lsl #2
 1805 0918 06EBC202 		add	r2, r6, r2, lsl #3
 1806 091c 5058     		ldr	r0, [r2, r1]
ARM GAS  G:\Users\Jaxb\AppData\Local\Temp\ccRp9Rzk.s 			page 47


 506:../../source/src/kernel/OS_CORE/module.c ****                                         (shstrab + shdr[sym->st_shndx].sh_name), ELF_BSS, 5) == 0)
 1807              		.loc 1 506 0
 1808 091e 029B     		ldr	r3, [sp, #8]
 1809 0920 0522     		movs	r2, #5
 1810 0922 1844     		add	r0, r0, r3
 1811 0924 2549     		ldr	r1, .L185+24
 1812 0926 FFF7FEFF 		bl	ka_strncmp
 1813              	.LVL213:
 1814 092a 38B9     		cbnz	r0, .L141
 510:../../source/src/kernel/OS_CORE/module.c ****                         addr = (Elf32_Addr)bss_addr + sym->st_value;
 1815              		.loc 1 510 0
 1816 092c 2448     		ldr	r0, .L185+28
 1817 092e FFF7FEFF 		bl	ka_printf
 1818              	.LVL214:
 511:../../source/src/kernel/OS_CORE/module.c ****                     }
 1819              		.loc 1 511 0
 1820 0932 D9F80420 		ldr	r2, [r9, #4]
 1821 0936 069B     		ldr	r3, [sp, #24]
 1822 0938 1A44     		add	r2, r2, r3
 1823              	.LVL215:
 1824 093a DBE7     		b	.L140
 1825              	.LVL216:
 1826              	.L141:
 513:../../source/src/kernel/OS_CORE/module.c ****                                         ELF_DATA, 6) == 0)
 1827              		.loc 1 513 0
 1828 093c B9F80E20 		ldrh	r2, [r9, #14]
 1829 0940 316A     		ldr	r1, [r6, #32]
 1830 0942 02EB8202 		add	r2, r2, r2, lsl #2
 1831 0946 06EBC202 		add	r2, r6, r2, lsl #3
 1832 094a 5058     		ldr	r0, [r2, r1]
 1833 094c 029B     		ldr	r3, [sp, #8]
 1834 094e 0622     		movs	r2, #6
 1835 0950 1844     		add	r0, r0, r3
 1836 0952 1C49     		ldr	r1, .L185+32
 1837 0954 FFF7FEFF 		bl	ka_strncmp
 1838              	.LVL217:
 1839 0958 0028     		cmp	r0, #0
 1840 095a 7FF475AF 		bne	.L143
 517:../../source/src/kernel/OS_CORE/module.c ****                         addr = (Elf32_Addr)data_addr + sym->st_value;
 1841              		.loc 1 517 0
 1842 095e 1A48     		ldr	r0, .L185+36
 1843 0960 FFF7FEFF 		bl	ka_printf
 1844              	.LVL218:
 518:../../source/src/kernel/OS_CORE/module.c ****                     }
 1845              		.loc 1 518 0
 1846 0964 D9F80420 		ldr	r2, [r9, #4]
 1847 0968 079B     		ldr	r3, [sp, #28]
 1848 096a 1A44     		add	r2, r2, r3
 1849              	.LVL219:
 1850 096c C2E7     		b	.L140
 1851              	.LVL220:
 1852              	.L181:
 1853              	.LBE29:
 1854              	.LBE32:
 1855              	.LBE33:
 430:../../source/src/kernel/OS_CORE/module.c ****                       (UINT8 *)elf_module + shdr[index].sh_offset,
 1856              		.loc 1 430 0
ARM GAS  G:\Users\Jaxb\AppData\Local\Temp\ccRp9Rzk.s 			page 48


 1857 096e D3E90412 		ldrd	r1, r2, [r3, #16]
 1858 0972 3846     		mov	r0, r7
 1859 0974 2144     		add	r1, r1, r4
 1860 0976 FFF7FEFF 		bl	ka_memcpy
 1861              	.LVL221:
 434:../../source/src/kernel/OS_CORE/module.c ****                       shdr[index].sh_size, *(UINT32 *)data_addr);
 1862              		.loc 1 434 0
 1863 097a 226A     		ldr	r2, [r4, #32]
 1864 097c 6319     		adds	r3, r4, r5
 1865 097e 1344     		add	r3, r3, r2
 1866 0980 5A69     		ldr	r2, [r3, #20]
 1867 0982 079B     		ldr	r3, [sp, #28]
 1868 0984 3946     		mov	r1, r7
 1869 0986 1B68     		ldr	r3, [r3]
 1870 0988 4046     		mov	r0, r8
 1871 098a FFF7FEFF 		bl	ka_printf
 1872              	.LVL222:
 436:../../source/src/kernel/OS_CORE/module.c ****         }
 1873              		.loc 1 436 0
 1874 098e 236A     		ldr	r3, [r4, #32]
 433:../../source/src/kernel/OS_CORE/module.c ****             ka_printf("load rodata 0x%x, size %d, rodata 0x%x\n", ptr,
 1875              		.loc 1 433 0
 1876 0990 0597     		str	r7, [sp, #20]
 1877              	.LVL223:
 436:../../source/src/kernel/OS_CORE/module.c ****         }
 1878              		.loc 1 436 0
 1879 0992 2B44     		add	r3, r3, r5
 1880 0994 2344     		add	r3, r3, r4
 1881 0996 5A68     		ldr	r2, [r3, #4]
 1882 0998 5969     		ldr	r1, [r3, #20]
 440:../../source/src/kernel/OS_CORE/module.c ****         {
 1883              		.loc 1 440 0
 1884 099a 012A     		cmp	r2, #1
 436:../../source/src/kernel/OS_CORE/module.c ****         }
 1885              		.loc 1 436 0
 1886 099c 0F44     		add	r7, r7, r1
 1887              	.LVL224:
 440:../../source/src/kernel/OS_CORE/module.c ****         {
 1888              		.loc 1 440 0
 1889 099e 3FF4CCAE 		beq	.L152
 1890 09a2 B0E6     		b	.L131
 1891              	.L186:
 1892              		.align	2
 1893              	.L185:
 1894 09a4 E4020000 		.word	.LC23
 1895 09a8 78030000 		.word	.LC28
 1896 09ac DC030000 		.word	.LC36
 1897 09b0 AC030000 		.word	.LC30
 1898 09b4 B4030000 		.word	.LC31
 1899 09b8 F0030000 		.word	.LC37
 1900 09bc BC030000 		.word	.LC32
 1901 09c0 C4030000 		.word	.LC33
 1902 09c4 CC030000 		.word	.LC34
 1903 09c8 D4030000 		.word	.LC35
 1904 09cc 60030000 		.word	.LC27
 1905 09d0 3C030000 		.word	.LC26
 1906 09d4 14030000 		.word	.LC25
ARM GAS  G:\Users\Jaxb\AppData\Local\Temp\ccRp9Rzk.s 			page 49


 1907 09d8 94030000 		.word	.LC29
 1908              	.LVL225:
 1909              	.L180:
 420:../../source/src/kernel/OS_CORE/module.c ****                       (UINT8 *)elf_module + shdr[index].sh_offset,
 1910              		.loc 1 420 0
 1911 09dc D3E90412 		ldrd	r1, r2, [r3, #16]
 1912 09e0 3846     		mov	r0, r7
 1913 09e2 2144     		add	r1, r1, r4
 1914 09e4 FFF7FEFF 		bl	ka_memcpy
 1915              	.LVL226:
 423:../../source/src/kernel/OS_CORE/module.c ****             ptr += shdr[index].sh_size;
 1916              		.loc 1 423 0
 1917 09e8 226A     		ldr	r2, [r4, #32]
 1918 09ea 6319     		adds	r3, r4, r5
 1919 09ec 1344     		add	r3, r3, r2
 1920 09ee 5A69     		ldr	r2, [r3, #20]
 1921 09f0 3946     		mov	r1, r7
 1922 09f2 0C48     		ldr	r0, .L187
 1923 09f4 FFF7FEFF 		bl	ka_printf
 1924              	.LVL227:
 424:../../source/src/kernel/OS_CORE/module.c ****         }
 1925              		.loc 1 424 0
 1926 09f8 216A     		ldr	r1, [r4, #32]
 1927 09fa 6B18     		adds	r3, r5, r1
 1928 09fc 2344     		add	r3, r3, r4
 428:../../source/src/kernel/OS_CORE/module.c ****         {
 1929              		.loc 1 428 0
 1930 09fe 5A68     		ldr	r2, [r3, #4]
 424:../../source/src/kernel/OS_CORE/module.c ****         }
 1931              		.loc 1 424 0
 1932 0a00 5869     		ldr	r0, [r3, #20]
 428:../../source/src/kernel/OS_CORE/module.c ****         {
 1933              		.loc 1 428 0
 1934 0a02 012A     		cmp	r2, #1
 424:../../source/src/kernel/OS_CORE/module.c ****         }
 1935              		.loc 1 424 0
 1936 0a04 0744     		add	r7, r7, r0
 1937              	.LVL228:
 428:../../source/src/kernel/OS_CORE/module.c ****         {
 1938              		.loc 1 428 0
 1939 0a06 7FF47EAE 		bne	.L131
 1940 0a0a 9A68     		ldr	r2, [r3, #8]
 1941 0a0c 90E6     		b	.L132
 1942              	.LVL229:
 1943              	.L153:
 365:../../source/src/kernel/OS_CORE/module.c ****     UINT32 module_addr = 0, module_size = 0;
 1944              		.loc 1 365 0
 1945 0a0e CDE90633 		strd	r3, r3, [sp, #24]
 1946 0a12 0593     		str	r3, [sp, #20]
 1947 0a14 C5E6     		b	.L130
 1948              	.LVL230:
 1949              	.L178:
 405:../../source/src/kernel/OS_CORE/module.c ****         return -RT_ERROR;
 1950              		.loc 1 405 0
 1951 0a16 0448     		ldr	r0, .L187+4
 1952 0a18 FFF7FEFF 		bl	ka_printf
 1953              	.LVL231:
ARM GAS  G:\Users\Jaxb\AppData\Local\Temp\ccRp9Rzk.s 			page 50


 406:../../source/src/kernel/OS_CORE/module.c ****     }
 1954              		.loc 1 406 0
 1955 0a1c 4FF0FF30 		mov	r0, #-1
 1956 0a20 45E6     		b	.L121
 1957              	.L188:
 1958 0a22 00BF     		.align	2
 1959              	.L187:
 1960 0a24 F8020000 		.word	.LC24
 1961 0a28 50020000 		.word	.LC15
 1962              		.cfi_endproc
 1963              	.LFE13:
 1964              		.size	dlmodule_load_relocated_object, .-dlmodule_load_relocated_object
 1965              		.align	1
 1966              		.p2align 2,,3
 1967              		.global	dlmodule_load
 1968              		.syntax unified
 1969              		.thumb
 1970              		.thumb_func
 1971              		.fpu softvfp
 1972              		.type	dlmodule_load, %function
 1973              	dlmodule_load:
 1974              	.LFB14:
 572:../../source/src/kernel/OS_CORE/module.c **** 
 573:../../source/src/kernel/OS_CORE/module.c **** 
 574:../../source/src/kernel/OS_CORE/module.c **** 
 575:../../source/src/kernel/OS_CORE/module.c **** struct rt_dlmodule* dlmodule_load(void)
 576:../../source/src/kernel/OS_CORE/module.c **** {
 1975              		.loc 1 576 0
 1976              		.cfi_startproc
 1977              		@ args = 0, pretend = 0, frame = 0
 1978              		@ frame_needed = 0, uses_anonymous_args = 0
 1979              	.LVL232:
 577:../../source/src/kernel/OS_CORE/module.c ****     rt_err_t ret = RT_EOK;
 578:../../source/src/kernel/OS_CORE/module.c ****     UINT8 *module_ptr = (UINT8 *)module_buffer;
 1980              		.loc 1 578 0
 1981 0a2c 3B4B     		ldr	r3, .L208
 576:../../source/src/kernel/OS_CORE/module.c ****     rt_err_t ret = RT_EOK;
 1982              		.loc 1 576 0
 1983 0a2e 70B5     		push	{r4, r5, r6, lr}
 1984              	.LCFI29:
 1985              		.cfi_def_cfa_offset 16
 1986              		.cfi_offset 4, -16
 1987              		.cfi_offset 5, -12
 1988              		.cfi_offset 6, -8
 1989              		.cfi_offset 14, -4
 1990              		.loc 1 578 0
 1991 0a30 5C68     		ldr	r4, [r3, #4]
 1992              	.LVL233:
 579:../../source/src/kernel/OS_CORE/module.c ****     struct rt_dlmodule *module = NULL;
 580:../../source/src/kernel/OS_CORE/module.c **** 
 581:../../source/src/kernel/OS_CORE/module.c ****     /* check ELF header */
 582:../../source/src/kernel/OS_CORE/module.c ****     if (ka_strncmp((const char *)elf_module->e_ident, (const char *)RTMMAG, SELFMAG) != 0 &&
 1993              		.loc 1 582 0
 1994 0a32 0422     		movs	r2, #4
 1995 0a34 3A49     		ldr	r1, .L208+4
 1996 0a36 2046     		mov	r0, r4
 1997 0a38 FFF7FEFF 		bl	ka_strncmp
ARM GAS  G:\Users\Jaxb\AppData\Local\Temp\ccRp9Rzk.s 			page 51


 1998              	.LVL234:
 1999 0a3c 70B9     		cbnz	r0, .L206
 2000              	.L190:
 583:../../source/src/kernel/OS_CORE/module.c ****             ka_strncmp((const char *)elf_module->e_ident, (const char *)ELFMAG, SELFMAG) != 0)
 584:../../source/src/kernel/OS_CORE/module.c ****     {
 585:../../source/src/kernel/OS_CORE/module.c ****         ka_printf("Module: magic error\n");
 586:../../source/src/kernel/OS_CORE/module.c ****         goto __exit;
 587:../../source/src/kernel/OS_CORE/module.c ****     }
 588:../../source/src/kernel/OS_CORE/module.c **** 
 589:../../source/src/kernel/OS_CORE/module.c ****     /* check ELF class */
 590:../../source/src/kernel/OS_CORE/module.c ****     if (elf_module->e_ident[EI_CLASS] != ELFCLASS32)
 2001              		.loc 1 590 0
 2002 0a3e 2379     		ldrb	r3, [r4, #4]	@ zero_extendqisi2
 2003 0a40 012B     		cmp	r3, #1
 2004 0a42 1ED0     		beq	.L193
 591:../../source/src/kernel/OS_CORE/module.c ****     {
 592:../../source/src/kernel/OS_CORE/module.c ****         ka_printf("Module: ELF class error\n");
 2005              		.loc 1 592 0
 2006 0a44 3748     		ldr	r0, .L208+8
 2007 0a46 FFF7FEFF 		bl	ka_printf
 2008              	.LVL235:
 593:../../source/src/kernel/OS_CORE/module.c ****         goto __exit;
 594:../../source/src/kernel/OS_CORE/module.c ****     }
 595:../../source/src/kernel/OS_CORE/module.c **** 
 596:../../source/src/kernel/OS_CORE/module.c ****     module = ka_malloc(sizeof(struct rt_dlmodule));
 597:../../source/src/kernel/OS_CORE/module.c ****     if (!module) goto __exit;
 598:../../source/src/kernel/OS_CORE/module.c ****     module->stat = RT_DLMODULE_STAT_INIT;
 599:../../source/src/kernel/OS_CORE/module.c **** 
 600:../../source/src/kernel/OS_CORE/module.c ****     /* set initial priority and stack size */
 601:../../source/src/kernel/OS_CORE/module.c ****     module->priority = PRIO_MAX - 10;
 602:../../source/src/kernel/OS_CORE/module.c ****     module->stack_size = 2048;
 603:../../source/src/kernel/OS_CORE/module.c **** 
 604:../../source/src/kernel/OS_CORE/module.c ****     INIT_LIST_HEAD(&(module->object_list));
 605:../../source/src/kernel/OS_CORE/module.c **** 
 606:../../source/src/kernel/OS_CORE/module.c ****     /* set the name of module */
 607:../../source/src/kernel/OS_CORE/module.c ****     //_dlmodule_set_name(module, filename);
 608:../../source/src/kernel/OS_CORE/module.c **** 
 609:../../source/src/kernel/OS_CORE/module.c ****     ka_printf("rt_module_load: %s\n",  module->parent.name);
 610:../../source/src/kernel/OS_CORE/module.c **** 
 611:../../source/src/kernel/OS_CORE/module.c ****     if (elf_module->e_type == ET_REL)
 612:../../source/src/kernel/OS_CORE/module.c ****     {
 613:../../source/src/kernel/OS_CORE/module.c ****         ka_printf("load relocated file\n");
 614:../../source/src/kernel/OS_CORE/module.c ****         ret = dlmodule_load_relocated_object(module, module_ptr);
 615:../../source/src/kernel/OS_CORE/module.c ****     }
 616:../../source/src/kernel/OS_CORE/module.c ****     /*else if (elf_module->e_type == ET_DYN)
 617:../../source/src/kernel/OS_CORE/module.c ****     {
 618:../../source/src/kernel/OS_CORE/module.c ****         ka_printf("load shared file\n");
 619:../../source/src/kernel/OS_CORE/module.c ****         ret = dlmodule_load_shared_object(module, module_ptr);
 620:../../source/src/kernel/OS_CORE/module.c ****     }*/
 621:../../source/src/kernel/OS_CORE/module.c ****     else
 622:../../source/src/kernel/OS_CORE/module.c ****     {
 623:../../source/src/kernel/OS_CORE/module.c ****         ka_printf("Module: unsupported elf type\n");
 624:../../source/src/kernel/OS_CORE/module.c ****         goto __exit;
 625:../../source/src/kernel/OS_CORE/module.c ****     }
 626:../../source/src/kernel/OS_CORE/module.c **** 
 627:../../source/src/kernel/OS_CORE/module.c ****     /* check return value */
 628:../../source/src/kernel/OS_CORE/module.c ****     if (ret != RT_EOK) goto __exit;
ARM GAS  G:\Users\Jaxb\AppData\Local\Temp\ccRp9Rzk.s 			page 52


 629:../../source/src/kernel/OS_CORE/module.c ****     ka_printf("4\n");
 630:../../source/src/kernel/OS_CORE/module.c ****     /* release module data */
 631:../../source/src/kernel/OS_CORE/module.c ****     ka_free(module_ptr);
 632:../../source/src/kernel/OS_CORE/module.c ****     ka_printf("5\n");
 633:../../source/src/kernel/OS_CORE/module.c ****     /* increase module reference count */
 634:../../source/src/kernel/OS_CORE/module.c ****     module->nref ++;
 635:../../source/src/kernel/OS_CORE/module.c **** 
 636:../../source/src/kernel/OS_CORE/module.c ****     /* deal with cache */
 637:../../source/src/kernel/OS_CORE/module.c **** //#ifdef RT_USING_CACHE
 638:../../source/src/kernel/OS_CORE/module.c **** //    rt_hw_cpu_dcache_ops(RT_HW_CACHE_FLUSH, module->mem_space, module->mem_size);
 639:../../source/src/kernel/OS_CORE/module.c **** //    rt_hw_cpu_icache_ops(RT_HW_CACHE_INVALIDATE, module->mem_space, module->mem_size);
 640:../../source/src/kernel/OS_CORE/module.c **** //#endif
 641:../../source/src/kernel/OS_CORE/module.c **** 
 642:../../source/src/kernel/OS_CORE/module.c ****     /* set module initialization and cleanup function */
 643:../../source/src/kernel/OS_CORE/module.c ****     //module->init_func = dlsym(module, "module_init");
 644:../../source/src/kernel/OS_CORE/module.c ****     //module->cleanup_func = dlsym(module, "module_cleanup");
 645:../../source/src/kernel/OS_CORE/module.c ****     module->init_func = NULL;
 646:../../source/src/kernel/OS_CORE/module.c ****     module->cleanup_func = NULL;
 647:../../source/src/kernel/OS_CORE/module.c ****     module->stat = RT_DLMODULE_STAT_INIT;
 648:../../source/src/kernel/OS_CORE/module.c ****     /* do module initialization */
 649:../../source/src/kernel/OS_CORE/module.c ****     if (module->init_func)
 650:../../source/src/kernel/OS_CORE/module.c ****     {
 651:../../source/src/kernel/OS_CORE/module.c ****         module->init_func(module);
 652:../../source/src/kernel/OS_CORE/module.c ****     }
 653:../../source/src/kernel/OS_CORE/module.c **** 
 654:../../source/src/kernel/OS_CORE/module.c ****     return module;
 655:../../source/src/kernel/OS_CORE/module.c **** 
 656:../../source/src/kernel/OS_CORE/module.c **** __exit:
 657:../../source/src/kernel/OS_CORE/module.c ****     ka_printf("6\n");
 2009              		.loc 1 657 0
 2010 0a4a 3748     		ldr	r0, .L208+12
 2011 0a4c FFF7FEFF 		bl	ka_printf
 2012              	.LVL236:
 658:../../source/src/kernel/OS_CORE/module.c ****     if (module_ptr) ka_free(module_ptr);
 2013              		.loc 1 658 0
 2014 0a50 2046     		mov	r0, r4
 2015 0a52 FFF7FEFF 		bl	ka_free
 2016              	.LVL237:
 659:../../source/src/kernel/OS_CORE/module.c **** 		
 660:../../source/src/kernel/OS_CORE/module.c ****     //if (module) dlmodule_destroy(module);
 661:../../source/src/kernel/OS_CORE/module.c **** 		if(module) {ASSERT(0);}
 662:../../source/src/kernel/OS_CORE/module.c **** 		
 663:../../source/src/kernel/OS_CORE/module.c ****     return NULL;
 2017              		.loc 1 663 0
 2018 0a56 0025     		movs	r5, #0
 2019              	.LVL238:
 2020              	.L189:
 664:../../source/src/kernel/OS_CORE/module.c **** }
 2021              		.loc 1 664 0
 2022 0a58 2846     		mov	r0, r5
 2023 0a5a 70BD     		pop	{r4, r5, r6, pc}
 2024              	.LVL239:
 2025              	.L206:
 583:../../source/src/kernel/OS_CORE/module.c ****     {
 2026              		.loc 1 583 0 discriminator 1
 2027 0a5c 0422     		movs	r2, #4
 2028 0a5e 3349     		ldr	r1, .L208+16
ARM GAS  G:\Users\Jaxb\AppData\Local\Temp\ccRp9Rzk.s 			page 53


 2029 0a60 2046     		mov	r0, r4
 2030 0a62 FFF7FEFF 		bl	ka_strncmp
 2031              	.LVL240:
 582:../../source/src/kernel/OS_CORE/module.c ****             ka_strncmp((const char *)elf_module->e_ident, (const char *)ELFMAG, SELFMAG) != 0)
 2032              		.loc 1 582 0 discriminator 1
 2033 0a66 0028     		cmp	r0, #0
 2034 0a68 E9D0     		beq	.L190
 585:../../source/src/kernel/OS_CORE/module.c ****         goto __exit;
 2035              		.loc 1 585 0
 2036 0a6a 3148     		ldr	r0, .L208+20
 2037 0a6c FFF7FEFF 		bl	ka_printf
 2038              	.LVL241:
 657:../../source/src/kernel/OS_CORE/module.c ****     if (module_ptr) ka_free(module_ptr);
 2039              		.loc 1 657 0
 2040 0a70 2D48     		ldr	r0, .L208+12
 2041 0a72 FFF7FEFF 		bl	ka_printf
 2042              	.LVL242:
 658:../../source/src/kernel/OS_CORE/module.c **** 		
 2043              		.loc 1 658 0
 2044 0a76 4CB3     		cbz	r4, .L205
 2045 0a78 2046     		mov	r0, r4
 2046 0a7a FFF7FEFF 		bl	ka_free
 2047              	.LVL243:
 663:../../source/src/kernel/OS_CORE/module.c **** }
 2048              		.loc 1 663 0
 2049 0a7e 0025     		movs	r5, #0
 2050 0a80 EAE7     		b	.L189
 2051              	.L193:
 596:../../source/src/kernel/OS_CORE/module.c ****     if (!module) goto __exit;
 2052              		.loc 1 596 0
 2053 0a82 4C20     		movs	r0, #76
 2054 0a84 FFF7FEFF 		bl	ka_malloc
 2055              	.LVL244:
 597:../../source/src/kernel/OS_CORE/module.c ****     module->stat = RT_DLMODULE_STAT_INIT;
 2056              		.loc 1 597 0
 2057 0a88 0546     		mov	r5, r0
 2058 0a8a 10B3     		cbz	r0, .L194
 598:../../source/src/kernel/OS_CORE/module.c **** 
 2059              		.loc 1 598 0
 2060 0a8c 0020     		movs	r0, #0
 2061              	.LVL245:
 601:../../source/src/kernel/OS_CORE/module.c ****     module->stack_size = 2048;
 2062              		.loc 1 601 0
 2063 0a8e 3621     		movs	r1, #54
 602:../../source/src/kernel/OS_CORE/module.c **** 
 2064              		.loc 1 602 0
 2065 0a90 4FF40062 		mov	r2, #2048
 604:../../source/src/kernel/OS_CORE/module.c **** 
 2066              		.loc 1 604 0
 2067 0a94 05F11003 		add	r3, r5, #16
 2068              	.LVL246:
 598:../../source/src/kernel/OS_CORE/module.c **** 
 2069              		.loc 1 598 0
 2070 0a98 2876     		strb	r0, [r5, #24]
 601:../../source/src/kernel/OS_CORE/module.c ****     module->stack_size = 2048;
 2071              		.loc 1 601 0
 2072 0a9a 6983     		strh	r1, [r5, #26]	@ movhi
ARM GAS  G:\Users\Jaxb\AppData\Local\Temp\ccRp9Rzk.s 			page 54


 2073              	.LBB34:
 2074              	.LBB35:
 2075              		.file 2 "../../source/include/os_lib/double_linked_list.h"
   1:../../source/include/os_lib/double_linked_list.h **** #ifndef _DOUBLE_LINKED_LIST_H
   2:../../source/include/os_lib/double_linked_list.h **** #define _DOUBLE_LINKED_LIST_H
   3:../../source/include/os_lib/double_linked_list.h **** 
   4:../../source/include/os_lib/double_linked_list.h **** struct list_head {
   5:../../source/include/os_lib/double_linked_list.h ****     struct list_head *next, *prev;
   6:../../source/include/os_lib/double_linked_list.h **** };
   7:../../source/include/os_lib/double_linked_list.h **** 
   8:../../source/include/os_lib/double_linked_list.h **** 
   9:../../source/include/os_lib/double_linked_list.h **** #define LIST_HEAD_INIT(name) { &(name), &(name) }
  10:../../source/include/os_lib/double_linked_list.h **** 
  11:../../source/include/os_lib/double_linked_list.h **** 
  12:../../source/include/os_lib/double_linked_list.h **** #define LIST_HEAD(name) \
  13:../../source/include/os_lib/double_linked_list.h ****     struct list_head name = LIST_HEAD_INIT(name)
  14:../../source/include/os_lib/double_linked_list.h **** 
  15:../../source/include/os_lib/double_linked_list.h **** 
  16:../../source/include/os_lib/double_linked_list.h **** static inline void INIT_LIST_HEAD(struct list_head *list)
  17:../../source/include/os_lib/double_linked_list.h **** {
  18:../../source/include/os_lib/double_linked_list.h ****     list->next = list;
  19:../../source/include/os_lib/double_linked_list.h ****     list->prev = list;
 2076              		.loc 2 19 0
 2077 0a9c C5E90433 		strd	r3, r3, [r5, #16]
 2078              	.LVL247:
 2079              	.LBE35:
 2080              	.LBE34:
 602:../../source/src/kernel/OS_CORE/module.c **** 
 2081              		.loc 1 602 0
 2082 0aa0 EA61     		str	r2, [r5, #28]
 609:../../source/src/kernel/OS_CORE/module.c **** 
 2083              		.loc 1 609 0
 2084 0aa2 2946     		mov	r1, r5
 2085 0aa4 2348     		ldr	r0, .L208+24
 2086 0aa6 FFF7FEFF 		bl	ka_printf
 2087              	.LVL248:
 611:../../source/src/kernel/OS_CORE/module.c ****     {
 2088              		.loc 1 611 0
 2089 0aaa 238A     		ldrh	r3, [r4, #16]
 2090 0aac 012B     		cmp	r3, #1
 2091 0aae 18D0     		beq	.L207
 623:../../source/src/kernel/OS_CORE/module.c ****         goto __exit;
 2092              		.loc 1 623 0
 2093 0ab0 2148     		ldr	r0, .L208+28
 2094 0ab2 FFF7FEFF 		bl	ka_printf
 2095              	.LVL249:
 2096              	.L196:
 657:../../source/src/kernel/OS_CORE/module.c ****     if (module_ptr) ka_free(module_ptr);
 2097              		.loc 1 657 0
 2098 0ab6 1C48     		ldr	r0, .L208+12
 2099 0ab8 FFF7FEFF 		bl	ka_printf
 2100              	.LVL250:
 658:../../source/src/kernel/OS_CORE/module.c **** 		
 2101              		.loc 1 658 0
 2102 0abc 2046     		mov	r0, r4
 2103 0abe FFF7FEFF 		bl	ka_free
 2104              	.LVL251:
ARM GAS  G:\Users\Jaxb\AppData\Local\Temp\ccRp9Rzk.s 			page 55


 661:../../source/src/kernel/OS_CORE/module.c **** 		
 2105              		.loc 1 661 0
 2106 0ac2 40F29521 		movw	r1, #661
 2107 0ac6 1D48     		ldr	r0, .L208+32
 2108 0ac8 FFF7FEFF 		bl	_ASSERT
 2109              	.LVL252:
 2110              	.L205:
 663:../../source/src/kernel/OS_CORE/module.c **** }
 2111              		.loc 1 663 0
 2112 0acc 0025     		movs	r5, #0
 2113              		.loc 1 664 0
 2114 0ace 2846     		mov	r0, r5
 2115 0ad0 70BD     		pop	{r4, r5, r6, pc}
 2116              	.LVL253:
 2117              	.L194:
 657:../../source/src/kernel/OS_CORE/module.c ****     if (module_ptr) ka_free(module_ptr);
 2118              		.loc 1 657 0
 2119 0ad2 1548     		ldr	r0, .L208+12
 2120 0ad4 FFF7FEFF 		bl	ka_printf
 2121              	.LVL254:
 658:../../source/src/kernel/OS_CORE/module.c **** 		
 2122              		.loc 1 658 0
 2123 0ad8 2046     		mov	r0, r4
 2124 0ada FFF7FEFF 		bl	ka_free
 2125              	.LVL255:
 2126              		.loc 1 664 0
 2127 0ade 2846     		mov	r0, r5
 2128 0ae0 70BD     		pop	{r4, r5, r6, pc}
 2129              	.LVL256:
 2130              	.L207:
 613:../../source/src/kernel/OS_CORE/module.c ****         ret = dlmodule_load_relocated_object(module, module_ptr);
 2131              		.loc 1 613 0
 2132 0ae2 1748     		ldr	r0, .L208+36
 2133 0ae4 FFF7FEFF 		bl	ka_printf
 2134              	.LVL257:
 614:../../source/src/kernel/OS_CORE/module.c ****     }
 2135              		.loc 1 614 0
 2136 0ae8 2146     		mov	r1, r4
 2137 0aea 2846     		mov	r0, r5
 2138 0aec FFF7FEFF 		bl	dlmodule_load_relocated_object
 2139              	.LVL258:
 628:../../source/src/kernel/OS_CORE/module.c ****     ka_printf("4\n");
 2140              		.loc 1 628 0
 2141 0af0 0646     		mov	r6, r0
 2142 0af2 0028     		cmp	r0, #0
 2143 0af4 DFD1     		bne	.L196
 629:../../source/src/kernel/OS_CORE/module.c ****     /* release module data */
 2144              		.loc 1 629 0
 2145 0af6 1348     		ldr	r0, .L208+40
 2146              	.LVL259:
 2147 0af8 FFF7FEFF 		bl	ka_printf
 2148              	.LVL260:
 631:../../source/src/kernel/OS_CORE/module.c ****     ka_printf("5\n");
 2149              		.loc 1 631 0
 2150 0afc 2046     		mov	r0, r4
 2151 0afe FFF7FEFF 		bl	ka_free
 2152              	.LVL261:
ARM GAS  G:\Users\Jaxb\AppData\Local\Temp\ccRp9Rzk.s 			page 56


 632:../../source/src/kernel/OS_CORE/module.c ****     /* increase module reference count */
 2153              		.loc 1 632 0
 2154 0b02 1148     		ldr	r0, .L208+44
 2155 0b04 FFF7FEFF 		bl	ka_printf
 2156              	.LVL262:
 634:../../source/src/kernel/OS_CORE/module.c **** 
 2157              		.loc 1 634 0
 2158 0b08 B5F84430 		ldrh	r3, [r5, #68]
 645:../../source/src/kernel/OS_CORE/module.c ****     module->cleanup_func = NULL;
 2159              		.loc 1 645 0
 2160 0b0c EE63     		str	r6, [r5, #60]
 634:../../source/src/kernel/OS_CORE/module.c **** 
 2161              		.loc 1 634 0
 2162 0b0e 0133     		adds	r3, r3, #1
 646:../../source/src/kernel/OS_CORE/module.c ****     module->stat = RT_DLMODULE_STAT_INIT;
 2163              		.loc 1 646 0
 2164 0b10 2E64     		str	r6, [r5, #64]
 647:../../source/src/kernel/OS_CORE/module.c ****     /* do module initialization */
 2165              		.loc 1 647 0
 2166 0b12 2E76     		strb	r6, [r5, #24]
 634:../../source/src/kernel/OS_CORE/module.c **** 
 2167              		.loc 1 634 0
 2168 0b14 A5F84430 		strh	r3, [r5, #68]	@ movhi
 654:../../source/src/kernel/OS_CORE/module.c **** 
 2169              		.loc 1 654 0
 2170 0b18 9EE7     		b	.L189
 2171              	.L209:
 2172 0b1a 00BF     		.align	2
 2173              	.L208:
 2174 0b1c 00000000 		.word	.LANCHOR0
 2175 0b20 20040000 		.word	.LC38
 2176 0b24 4C040000 		.word	.LC42
 2177 0b28 48040000 		.word	.LC41
 2178 0b2c 28040000 		.word	.LC39
 2179 0b30 30040000 		.word	.LC40
 2180 0b34 68040000 		.word	.LC43
 2181 0b38 94040000 		.word	.LC45
 2182 0b3c CC000000 		.word	.LC6
 2183 0b40 7C040000 		.word	.LC44
 2184 0b44 B4040000 		.word	.LC46
 2185 0b48 B8040000 		.word	.LC47
 2186              		.cfi_endproc
 2187              	.LFE14:
 2188              		.size	dlmodule_load, .-dlmodule_load
 2189              		.align	1
 2190              		.p2align 2,,3
 2191              		.global	dlmodule_exec
 2192              		.syntax unified
 2193              		.thumb
 2194              		.thumb_func
 2195              		.fpu softvfp
 2196              		.type	dlmodule_exec, %function
 2197              	dlmodule_exec:
 2198              	.LFB15:
 665:../../source/src/kernel/OS_CORE/module.c **** 
 666:../../source/src/kernel/OS_CORE/module.c **** 
 667:../../source/src/kernel/OS_CORE/module.c **** struct rt_dlmodule* dlmodule_exec(void)
ARM GAS  G:\Users\Jaxb\AppData\Local\Temp\ccRp9Rzk.s 			page 57


 668:../../source/src/kernel/OS_CORE/module.c **** {
 2199              		.loc 1 668 0
 2200              		.cfi_startproc
 2201              		@ args = 0, pretend = 0, frame = 0
 2202              		@ frame_needed = 0, uses_anonymous_args = 0
 2203              	.LVL263:
 2204 0b4c 30B5     		push	{r4, r5, lr}
 2205              	.LCFI30:
 2206              		.cfi_def_cfa_offset 12
 2207              		.cfi_offset 4, -12
 2208              		.cfi_offset 5, -8
 2209              		.cfi_offset 14, -4
 2210 0b4e 85B0     		sub	sp, sp, #20
 2211              	.LCFI31:
 2212              		.cfi_def_cfa_offset 32
 669:../../source/src/kernel/OS_CORE/module.c ****     struct rt_dlmodule *module = NULL;
 670:../../source/src/kernel/OS_CORE/module.c ****     int error;
 671:../../source/src/kernel/OS_CORE/module.c **** 
 672:../../source/src/kernel/OS_CORE/module.c ****     module = dlmodule_load();
 2213              		.loc 1 672 0
 2214 0b50 FFF7FEFF 		bl	dlmodule_load
 2215              	.LVL264:
 673:../../source/src/kernel/OS_CORE/module.c ****     if (module)
 2216              		.loc 1 673 0
 2217 0b54 0446     		mov	r4, r0
 2218 0b56 E8B1     		cbz	r0, .L210
 674:../../source/src/kernel/OS_CORE/module.c ****     {
 675:../../source/src/kernel/OS_CORE/module.c ****         if (module->entry_addr)
 2219              		.loc 1 675 0
 2220 0b58 C36A     		ldr	r3, [r0, #44]
 2221 0b5a DBB1     		cbz	r3, .L210
 676:../../source/src/kernel/OS_CORE/module.c ****         {
 677:../../source/src/kernel/OS_CORE/module.c **** 
 678:../../source/src/kernel/OS_CORE/module.c ****             /* check stack size and priority */
 679:../../source/src/kernel/OS_CORE/module.c ****             if (module->priority > PRIO_MAX) module->priority = PRIO_MAX - 1;
 2222              		.loc 1 679 0
 2223 0b5c 418B     		ldrh	r1, [r0, #26]
 2224 0b5e 4029     		cmp	r1, #64
 2225 0b60 02D9     		bls	.L213
 2226              		.loc 1 679 0 is_stmt 0 discriminator 1
 2227 0b62 3F22     		movs	r2, #63
 2228 0b64 1146     		mov	r1, r2
 2229 0b66 4283     		strh	r2, [r0, #26]	@ movhi
 2230              	.L213:
 680:../../source/src/kernel/OS_CORE/module.c ****             if (module->stack_size < 2048 || module->stack_size > (1024 * 32)) module->stack_size =
 2231              		.loc 1 680 0 is_stmt 1
 2232 0b68 E069     		ldr	r0, [r4, #28]
 2233              	.LVL265:
 2234 0b6a A0F50062 		sub	r2, r0, #2048
 2235 0b6e B2F5F04F 		cmp	r2, #30720
 2236 0b72 03D9     		bls	.L214
 2237              		.loc 1 680 0 is_stmt 0 discriminator 1
 2238 0b74 4FF40062 		mov	r2, #2048
 2239 0b78 1046     		mov	r0, r2
 2240 0b7a E261     		str	r2, [r4, #28]
 2241              	.L214:
 681:../../source/src/kernel/OS_CORE/module.c **** 
ARM GAS  G:\Users\Jaxb\AppData\Local\Temp\ccRp9Rzk.s 			page 58


 682:../../source/src/kernel/OS_CORE/module.c ****             error = task_creat_ready(module->stack_size, module->priority, HZ / 10, "module_thread"
 2242              		.loc 1 682 0 is_stmt 1
 2243 0b7c 0025     		movs	r5, #0
 2244 0b7e 0093     		str	r3, [sp]
 2245 0b80 CDE90155 		strd	r5, r5, [sp, #4]
 2246 0b84 084B     		ldr	r3, .L222
 2247 0b86 0A22     		movs	r2, #10
 2248 0b88 FFF7FEFF 		bl	task_creat_ready
 2249              	.LVL266:
 683:../../source/src/kernel/OS_CORE/module.c ****                                      (functionptr)(module->entry_addr), NULL, NULL);
 684:../../source/src/kernel/OS_CORE/module.c ****             if (!error)
 2250              		.loc 1 684 0
 2251 0b8c 28B9     		cbnz	r0, .L215
 685:../../source/src/kernel/OS_CORE/module.c ****             {
 686:../../source/src/kernel/OS_CORE/module.c ****                 ka_printf("module_thread run\n");
 2252              		.loc 1 686 0
 2253 0b8e 0748     		ldr	r0, .L222+4
 2254              	.LVL267:
 2255 0b90 FFF7FEFF 		bl	ka_printf
 2256              	.LVL268:
 2257              	.L210:
 687:../../source/src/kernel/OS_CORE/module.c ****             }
 688:../../source/src/kernel/OS_CORE/module.c ****             else
 689:../../source/src/kernel/OS_CORE/module.c ****             {
 690:../../source/src/kernel/OS_CORE/module.c ****                 ka_printf("module_thread fail,error code is %d\n",error);
 691:../../source/src/kernel/OS_CORE/module.c ****                 module = NULL;
 692:../../source/src/kernel/OS_CORE/module.c ****             }
 693:../../source/src/kernel/OS_CORE/module.c ****         }
 694:../../source/src/kernel/OS_CORE/module.c ****     }
 695:../../source/src/kernel/OS_CORE/module.c **** 
 696:../../source/src/kernel/OS_CORE/module.c ****     return module;
 697:../../source/src/kernel/OS_CORE/module.c **** }
 2258              		.loc 1 697 0
 2259 0b94 2046     		mov	r0, r4
 2260 0b96 05B0     		add	sp, sp, #20
 2261              	.LCFI32:
 2262              		.cfi_remember_state
 2263              		.cfi_def_cfa_offset 12
 2264              		@ sp needed
 2265 0b98 30BD     		pop	{r4, r5, pc}
 2266              	.LVL269:
 2267              	.L215:
 2268              	.LCFI33:
 2269              		.cfi_restore_state
 690:../../source/src/kernel/OS_CORE/module.c ****                 module = NULL;
 2270              		.loc 1 690 0
 2271 0b9a 0146     		mov	r1, r0
 2272 0b9c 0448     		ldr	r0, .L222+8
 2273              	.LVL270:
 691:../../source/src/kernel/OS_CORE/module.c ****             }
 2274              		.loc 1 691 0
 2275 0b9e 2C46     		mov	r4, r5
 2276              	.LVL271:
 690:../../source/src/kernel/OS_CORE/module.c ****                 module = NULL;
 2277              		.loc 1 690 0
 2278 0ba0 FFF7FEFF 		bl	ka_printf
 2279              	.LVL272:
ARM GAS  G:\Users\Jaxb\AppData\Local\Temp\ccRp9Rzk.s 			page 59


 696:../../source/src/kernel/OS_CORE/module.c **** }
 2280              		.loc 1 696 0
 2281 0ba4 F6E7     		b	.L210
 2282              	.L223:
 2283 0ba6 00BF     		.align	2
 2284              	.L222:
 2285 0ba8 BC040000 		.word	.LC48
 2286 0bac CC040000 		.word	.LC49
 2287 0bb0 E0040000 		.word	.LC50
 2288              		.cfi_endproc
 2289              	.LFE15:
 2290              		.size	dlmodule_exec, .-dlmodule_exec
 2291              		.align	1
 2292              		.p2align 2,,3
 2293              		.global	put_in_module_buffer
 2294              		.syntax unified
 2295              		.thumb
 2296              		.thumb_func
 2297              		.fpu softvfp
 2298              		.type	put_in_module_buffer, %function
 2299              	put_in_module_buffer:
 2300              	.LFB16:
 698:../../source/src/kernel/OS_CORE/module.c **** 
 699:../../source/src/kernel/OS_CORE/module.c **** void put_in_module_buffer(char c)
 700:../../source/src/kernel/OS_CORE/module.c **** {
 2301              		.loc 1 700 0
 2302              		.cfi_startproc
 2303              		@ args = 0, pretend = 0, frame = 0
 2304              		@ frame_needed = 0, uses_anonymous_args = 0
 2305              		@ link register save eliminated.
 2306              	.LVL273:
 701:../../source/src/kernel/OS_CORE/module.c **** 	if(module_buffer)
 2307              		.loc 1 701 0
 2308 0bb4 064B     		ldr	r3, .L228
 700:../../source/src/kernel/OS_CORE/module.c **** 	if(module_buffer)
 2309              		.loc 1 700 0
 2310 0bb6 10B4     		push	{r4}
 2311              	.LCFI34:
 2312              		.cfi_def_cfa_offset 4
 2313              		.cfi_offset 4, -4
 2314              		.loc 1 701 0
 2315 0bb8 5A68     		ldr	r2, [r3, #4]
 2316 0bba 2AB1     		cbz	r2, .L225
 702:../../source/src/kernel/OS_CORE/module.c **** 	{
 703:../../source/src/kernel/OS_CORE/module.c **** 		*(module_buffer + num++) = c;
 2317              		.loc 1 703 0
 2318 0bbc 9968     		ldr	r1, [r3, #8]
 2319 0bbe 4C1C     		adds	r4, r1, #1
 2320 0bc0 5054     		strb	r0, [r2, r1]
 2321 0bc2 9C60     		str	r4, [r3, #8]
 704:../../source/src/kernel/OS_CORE/module.c **** 	}
 705:../../source/src/kernel/OS_CORE/module.c ****     else
 706:../../source/src/kernel/OS_CORE/module.c ****     {
 707:../../source/src/kernel/OS_CORE/module.c ****         ka_printf("no room for module\n");
 708:../../source/src/kernel/OS_CORE/module.c ****     }
 709:../../source/src/kernel/OS_CORE/module.c **** }
 2322              		.loc 1 709 0
ARM GAS  G:\Users\Jaxb\AppData\Local\Temp\ccRp9Rzk.s 			page 60


 2323 0bc4 10BC     		pop	{r4}
 2324              	.LCFI35:
 2325              		.cfi_remember_state
 2326              		.cfi_restore 4
 2327              		.cfi_def_cfa_offset 0
 2328 0bc6 7047     		bx	lr
 2329              	.L225:
 2330              	.LCFI36:
 2331              		.cfi_restore_state
 707:../../source/src/kernel/OS_CORE/module.c ****     }
 2332              		.loc 1 707 0
 2333 0bc8 0248     		ldr	r0, .L228+4
 2334              	.LVL274:
 2335              		.loc 1 709 0
 2336 0bca 10BC     		pop	{r4}
 2337              	.LCFI37:
 2338              		.cfi_restore 4
 2339              		.cfi_def_cfa_offset 0
 707:../../source/src/kernel/OS_CORE/module.c ****     }
 2340              		.loc 1 707 0
 2341 0bcc FFF7FEBF 		b	ka_printf
 2342              	.LVL275:
 2343              	.L229:
 2344              		.align	2
 2345              	.L228:
 2346 0bd0 00000000 		.word	.LANCHOR0
 2347 0bd4 08050000 		.word	.LC51
 2348              		.cfi_endproc
 2349              	.LFE16:
 2350              		.size	put_in_module_buffer, .-put_in_module_buffer
 2351              		.align	1
 2352              		.p2align 2,,3
 2353              		.global	show_get_size
 2354              		.syntax unified
 2355              		.thumb
 2356              		.thumb_func
 2357              		.fpu softvfp
 2358              		.type	show_get_size, %function
 2359              	show_get_size:
 2360              	.LFB17:
 710:../../source/src/kernel/OS_CORE/module.c **** 
 711:../../source/src/kernel/OS_CORE/module.c **** void show_get_size(void)
 712:../../source/src/kernel/OS_CORE/module.c **** {
 2361              		.loc 1 712 0
 2362              		.cfi_startproc
 2363              		@ args = 0, pretend = 0, frame = 0
 2364              		@ frame_needed = 0, uses_anonymous_args = 0
 2365              		@ link register save eliminated.
 713:../../source/src/kernel/OS_CORE/module.c ****     ka_printf("get %u bytes\n",num);
 2366              		.loc 1 713 0
 2367 0bd8 024B     		ldr	r3, .L231
 2368 0bda 0348     		ldr	r0, .L231+4
 2369 0bdc 9968     		ldr	r1, [r3, #8]
 2370 0bde FFF7FEBF 		b	ka_printf
 2371              	.LVL276:
 2372              	.L232:
 2373 0be2 00BF     		.align	2
ARM GAS  G:\Users\Jaxb\AppData\Local\Temp\ccRp9Rzk.s 			page 61


 2374              	.L231:
 2375 0be4 00000000 		.word	.LANCHOR0
 2376 0be8 1C050000 		.word	.LC52
 2377              		.cfi_endproc
 2378              	.LFE17:
 2379              		.size	show_get_size, .-show_get_size
 2380              		.align	1
 2381              		.p2align 2,,3
 2382              		.global	clear_module_buffer
 2383              		.syntax unified
 2384              		.thumb
 2385              		.thumb_func
 2386              		.fpu softvfp
 2387              		.type	clear_module_buffer, %function
 2388              	clear_module_buffer:
 2389              	.LFB18:
 714:../../source/src/kernel/OS_CORE/module.c **** }
 715:../../source/src/kernel/OS_CORE/module.c **** 
 716:../../source/src/kernel/OS_CORE/module.c **** void clear_module_buffer(void)
 717:../../source/src/kernel/OS_CORE/module.c **** {
 2390              		.loc 1 717 0
 2391              		.cfi_startproc
 2392              		@ args = 0, pretend = 0, frame = 0
 2393              		@ frame_needed = 0, uses_anonymous_args = 0
 2394              		@ link register save eliminated.
 718:../../source/src/kernel/OS_CORE/module.c **** 	module_buffer = NULL;
 2395              		.loc 1 718 0
 2396 0bec 0022     		movs	r2, #0
 2397 0bee 024B     		ldr	r3, .L234
 719:../../source/src/kernel/OS_CORE/module.c **** 	num = 0;
 2398              		.loc 1 719 0
 2399 0bf0 C3E90122 		strd	r2, r2, [r3, #4]
 720:../../source/src/kernel/OS_CORE/module.c **** }
 2400              		.loc 1 720 0
 2401 0bf4 7047     		bx	lr
 2402              	.L235:
 2403 0bf6 00BF     		.align	2
 2404              	.L234:
 2405 0bf8 00000000 		.word	.LANCHOR0
 2406              		.cfi_endproc
 2407              	.LFE18:
 2408              		.size	clear_module_buffer, .-clear_module_buffer
 2409              		.align	1
 2410              		.p2align 2,,3
 2411              		.global	set_module_buffer
 2412              		.syntax unified
 2413              		.thumb
 2414              		.thumb_func
 2415              		.fpu softvfp
 2416              		.type	set_module_buffer, %function
 2417              	set_module_buffer:
 2418              	.LFB19:
 721:../../source/src/kernel/OS_CORE/module.c **** 
 722:../../source/src/kernel/OS_CORE/module.c **** void set_module_buffer(void *add)
 723:../../source/src/kernel/OS_CORE/module.c **** {
 2419              		.loc 1 723 0
 2420              		.cfi_startproc
ARM GAS  G:\Users\Jaxb\AppData\Local\Temp\ccRp9Rzk.s 			page 62


 2421              		@ args = 0, pretend = 0, frame = 0
 2422              		@ frame_needed = 0, uses_anonymous_args = 0
 2423              		@ link register save eliminated.
 2424              	.LVL277:
 724:../../source/src/kernel/OS_CORE/module.c **** 	module_buffer = (char *)add;
 2425              		.loc 1 724 0
 2426 0bfc 014B     		ldr	r3, .L237
 2427 0bfe 5860     		str	r0, [r3, #4]
 725:../../source/src/kernel/OS_CORE/module.c **** }
 2428              		.loc 1 725 0
 2429 0c00 7047     		bx	lr
 2430              	.L238:
 2431 0c02 00BF     		.align	2
 2432              	.L237:
 2433 0c04 00000000 		.word	.LANCHOR0
 2434              		.cfi_endproc
 2435              	.LFE19:
 2436              		.size	set_module_buffer, .-set_module_buffer
 2437              		.bss
 2438              		.align	2
 2439              		.set	.LANCHOR0,. + 0
 2440              		.type	unsolved.4445, %object
 2441              		.size	unsolved.4445, 4
 2442              	unsolved.4445:
 2443 0000 00000000 		.space	4
 2444              		.type	module_buffer, %object
 2445              		.size	module_buffer, 4
 2446              	module_buffer:
 2447 0004 00000000 		.space	4
 2448              		.type	num, %object
 2449              		.size	num, 4
 2450              	num:
 2451 0008 00000000 		.space	4
 2452              		.section	.rodata.str1.4,"aMS",%progbits,1
 2453              		.align	2
 2454              	.LC0:
 2455 0000 525F4152 		.ascii	"R_ARM_ABS32: %x -> %x\012\000"
 2455      4D5F4142 
 2455      5333323A 
 2455      20257820 
 2455      2D3E2025 
 2456 0017 00       		.space	1
 2457              	.LC1:
 2458 0018 525F4152 		.ascii	"R_ARM_PC24: %x -> %x\012\000"
 2458      4D5F5043 
 2458      32343A20 
 2458      2578202D 
 2458      3E202578 
 2459 002e 0000     		.space	2
 2460              	.LC2:
 2461 0030 525F4152 		.ascii	"R_ARM_REL32: %x -> %x, sym %x, offset %x\012\000"
 2461      4D5F5245 
 2461      4C33323A 
 2461      20257820 
 2461      2D3E2025 
 2462 005a 0000     		.space	2
 2463              	.LC3:
ARM GAS  G:\Users\Jaxb\AppData\Local\Temp\ccRp9Rzk.s 			page 63


 2464 005c 525F4152 		.ascii	"R_ARM_JUMP_SLOT: 0x%x -> 0x%x 0x%x\012\000"
 2464      4D5F4A55 
 2464      4D505F53 
 2464      4C4F543A 
 2464      20307825 
 2465              	.LC4:
 2466 0080 525F4152 		.ascii	"R_ARM_RELATIVE: 0x%x -> 0x%x 0x%x\012\000"
 2466      4D5F5245 
 2466      4C415449 
 2466      56453A20 
 2466      30782578 
 2467 00a3 00       		.space	1
 2468              	.LC5:
 2469 00a4 4D6F6475 		.ascii	"Module: Only Thumb addresses allowed\012\000"
 2469      6C653A20 
 2469      4F6E6C79 
 2469      20546875 
 2469      6D622061 
 2470 00ca 0000     		.space	2
 2471              	.LC6:
 2472 00cc 2E2E2F2E 		.ascii	"../../source/src/kernel/OS_CORE/module.c\000"
 2472      2E2F736F 
 2472      75726365 
 2472      2F737263 
 2472      2F6B6572 
 2473 00f5 000000   		.space	3
 2474              	.LC7:
 2475 00f8 4C4F4144 		.ascii	"LOAD segment: %d, 0x%p, 0x%x\012\000"
 2475      20736567 
 2475      6D656E74 
 2475      3A202564 
 2475      2C203078 
 2476 0116 0000     		.space	2
 2477              	.LC8:
 2478 0118 696E7661 		.ascii	"invalid elf: segment %d: p_memsz: %d, p_filesz: %d\012"
 2478      6C696420 
 2478      656C663A 
 2478      20736567 
 2478      6D656E74 
 2479 014b 00       		.ascii	"\000"
 2480              	.LC9:
 2481 014c 696E7661 		.ascii	"invalid elf: segment %d: p_vaddr: %d, p_memsz: %d\012"
 2481      6C696420 
 2481      656C663A 
 2481      20736567 
 2481      6D656E74 
 2482 017e 00       		.ascii	"\000"
 2483 017f 00       		.space	1
 2484              	.LC10:
 2485 0180 696E7661 		.ascii	"invalid elf: segment should be sorted and not overl"
 2485      6C696420 
 2485      656C663A 
 2485      20736567 
 2485      6D656E74 
 2486 01b3 61707065 		.ascii	"apped\012\000"
 2486      640A00
 2487 01ba 0000     		.space	2
ARM GAS  G:\Users\Jaxb\AppData\Local\Temp\ccRp9Rzk.s 			page 64


 2488              	.LC11:
 2489 01bc 7761726E 		.ascii	"warning: too much padding before segment %d\012\000"
 2489      696E673A 
 2489      20746F6F 
 2489      206D7563 
 2489      68207061 
 2490 01e9 000000   		.space	3
 2491              	.LC12:
 2492 01ec 696E7661 		.ascii	"invalid elf: segment %d address overflow\012\000"
 2492      6C696420 
 2492      656C663A 
 2492      20736567 
 2492      6D656E74 
 2493 0216 0000     		.space	2
 2494              	.LC13:
 2495 0218 6D6F6475 		.ascii	"module size: %d, vstart_addr: 0x%p\012\000"
 2495      6C652073 
 2495      697A653A 
 2495      2025642C 
 2495      20767374 
 2496              	.LC14:
 2497 023c 4D6F6475 		.ascii	"Module: size error\012\000"
 2497      6C653A20 
 2497      73697A65 
 2497      20657272 
 2497      6F720A00 
 2498              	.LC15:
 2499 0250 4D6F6475 		.ascii	"Module: allocate space failed.\012\000"
 2499      6C653A20 
 2499      616C6C6F 
 2499      63617465 
 2499      20737061 
 2500              	.LC16:
 2501 0270 310A00   		.ascii	"1\012\000"
 2502 0273 00       		.space	1
 2503              	.LC17:
 2504 0274 72656C6F 		.ascii	"relocate symbol %s shndx %d\000"
 2504      63617465 
 2504      2073796D 
 2504      626F6C20 
 2504      25732073 
 2505              	.LC18:
 2506 0290 72656C6F 		.ascii	"relocate symbol: %s\000"
 2506      63617465 
 2506      2073796D 
 2506      626F6C3A 
 2506      20257300 
 2507              	.LC19:
 2508 02a4 4D6F6475 		.ascii	"Module: can't find %s in kernel symbol table\000"
 2508      6C653A20 
 2508      63616E27 
 2508      74206669 
 2508      6E642025 
 2509 02d1 000000   		.space	3
 2510              	.LC20:
 2511 02d4 320A00   		.ascii	"2\012\000"
 2512 02d7 00       		.space	1
ARM GAS  G:\Users\Jaxb\AppData\Local\Temp\ccRp9Rzk.s 			page 65


 2513              	.LC21:
 2514 02d8 2E64796E 		.ascii	".dynsym\000"
 2514      73796D00 
 2515              	.LC22:
 2516 02e0 330A00   		.ascii	"3\012\000"
 2517 02e3 00       		.space	1
 2518              	.LC23:
 2519 02e4 6D6F6475 		.ascii	"module size is %u\012\000"
 2519      6C652073 
 2519      697A6520 
 2519      69732025 
 2519      750A00
 2520 02f7 00       		.space	1
 2521              	.LC24:
 2522 02f8 6C6F6164 		.ascii	"load text 0x%x, size %d\012\000"
 2522      20746578 
 2522      74203078 
 2522      25782C20 
 2522      73697A65 
 2523 0311 000000   		.space	3
 2524              	.LC25:
 2525 0314 6C6F6164 		.ascii	"load rodata 0x%x, size %d, rodata 0x%x\012\000"
 2525      20726F64 
 2525      61746120 
 2525      30782578 
 2525      2C207369 
 2526              	.LC26:
 2527 033c 6C6F6164 		.ascii	"load data 0x%x, size %d, data 0x%x\012\000"
 2527      20646174 
 2527      61203078 
 2527      25782C20 
 2527      73697A65 
 2528              	.LC27:
 2529 0360 6C6F6164 		.ascii	"load bss 0x%x, size %d\012\000"
 2529      20627373 
 2529      20307825 
 2529      782C2073 
 2529      697A6520 
 2530              	.LC28:
 2531 0378 6D6F6475 		.ascii	"module entry point is %p\012\000"
 2531      6C652065 
 2531      6E747279 
 2531      20706F69 
 2531      6E742069 
 2532 0392 0000     		.space	2
 2533              	.LC29:
 2534 0394 72656C6F 		.ascii	"relocate symbol: %s\012\000"
 2534      63617465 
 2534      2073796D 
 2534      626F6C3A 
 2534      2025730A 
 2535 03a9 000000   		.space	3
 2536              	.LC30:
 2537 03ac 2E726F64 		.ascii	".rodata\000"
 2537      61746100 
 2538              	.LC31:
 2539 03b4 726F6461 		.ascii	"rodata\012\000"
ARM GAS  G:\Users\Jaxb\AppData\Local\Temp\ccRp9Rzk.s 			page 66


 2539      74610A00 
 2540              	.LC32:
 2541 03bc 2E627373 		.ascii	".bss\000"
 2541      00
 2542 03c1 000000   		.space	3
 2543              	.LC33:
 2544 03c4 6273730A 		.ascii	"bss\012\000"
 2544      00
 2545 03c9 000000   		.space	3
 2546              	.LC34:
 2547 03cc 2E646174 		.ascii	".data\000"
 2547      6100
 2548 03d2 0000     		.space	2
 2549              	.LC35:
 2550 03d4 64617461 		.ascii	"data\012\000"
 2550      0A00
 2551 03da 0000     		.space	2
 2552              	.LC36:
 2553 03dc 73796D62 		.ascii	"symbol addr 0x%x\012\000"
 2553      6F6C2061 
 2553      64647220 
 2553      30782578 
 2553      0A00
 2554 03ee 0000     		.space	2
 2555              	.LC37:
 2556 03f0 4D6F6475 		.ascii	"Module: can't find %s in kernel symbol table\012\000"
 2556      6C653A20 
 2556      63616E27 
 2556      74206669 
 2556      6E642025 
 2557 041e 0000     		.space	2
 2558              	.LC38:
 2559 0420 7F52544D 		.ascii	"\177RTM\000"
 2559      00
 2560 0425 000000   		.space	3
 2561              	.LC39:
 2562 0428 7F454C46 		.ascii	"\177ELF\000"
 2562      00
 2563 042d 000000   		.space	3
 2564              	.LC40:
 2565 0430 4D6F6475 		.ascii	"Module: magic error\012\000"
 2565      6C653A20 
 2565      6D616769 
 2565      63206572 
 2565      726F720A 
 2566 0445 000000   		.space	3
 2567              	.LC41:
 2568 0448 360A00   		.ascii	"6\012\000"
 2569 044b 00       		.space	1
 2570              	.LC42:
 2571 044c 4D6F6475 		.ascii	"Module: ELF class error\012\000"
 2571      6C653A20 
 2571      454C4620 
 2571      636C6173 
 2571      73206572 
 2572 0465 000000   		.space	3
 2573              	.LC43:
ARM GAS  G:\Users\Jaxb\AppData\Local\Temp\ccRp9Rzk.s 			page 67


 2574 0468 72745F6D 		.ascii	"rt_module_load: %s\012\000"
 2574      6F64756C 
 2574      655F6C6F 
 2574      61643A20 
 2574      25730A00 
 2575              	.LC44:
 2576 047c 6C6F6164 		.ascii	"load relocated file\012\000"
 2576      2072656C 
 2576      6F636174 
 2576      65642066 
 2576      696C650A 
 2577 0491 000000   		.space	3
 2578              	.LC45:
 2579 0494 4D6F6475 		.ascii	"Module: unsupported elf type\012\000"
 2579      6C653A20 
 2579      756E7375 
 2579      70706F72 
 2579      74656420 
 2580 04b2 0000     		.space	2
 2581              	.LC46:
 2582 04b4 340A00   		.ascii	"4\012\000"
 2583 04b7 00       		.space	1
 2584              	.LC47:
 2585 04b8 350A00   		.ascii	"5\012\000"
 2586 04bb 00       		.space	1
 2587              	.LC48:
 2588 04bc 6D6F6475 		.ascii	"module_thread\000"
 2588      6C655F74 
 2588      68726561 
 2588      6400
 2589 04ca 0000     		.space	2
 2590              	.LC49:
 2591 04cc 6D6F6475 		.ascii	"module_thread run\012\000"
 2591      6C655F74 
 2591      68726561 
 2591      64207275 
 2591      6E0A00
 2592 04df 00       		.space	1
 2593              	.LC50:
 2594 04e0 6D6F6475 		.ascii	"module_thread fail,error code is %d\012\000"
 2594      6C655F74 
 2594      68726561 
 2594      64206661 
 2594      696C2C65 
 2595 0505 000000   		.space	3
 2596              	.LC51:
 2597 0508 6E6F2072 		.ascii	"no room for module\012\000"
 2597      6F6F6D20 
 2597      666F7220 
 2597      6D6F6475 
 2597      6C650A00 
 2598              	.LC52:
 2599 051c 67657420 		.ascii	"get %u bytes\012\000"
 2599      25752062 
 2599      79746573 
 2599      0A00
 2600              		.text
ARM GAS  G:\Users\Jaxb\AppData\Local\Temp\ccRp9Rzk.s 			page 68


 2601              	.Letext0:
 2602              		.file 3 "../../source/include/os_cpu/kakaosstdint.h"
 2603              		.file 4 "../../source/include/os_core/elf.h"
 2604              		.file 5 "../../source/include/os_core/task_state.h"
 2605              		.file 6 "../../source/include/os_core/TCB.h"
 2606              		.file 7 "../../source/include/os_core/module.h"
 2607              		.file 8 "../../source/include/os_lib/myMicroLIB.h"
 2608              		.file 9 "../../source/include/os_core/schedule/os_schedule.h"
 2609              		.file 10 "../../source/include/os_lib/myassert.h"
 2610              		.section	.debug_info,"",%progbits
 2611              	.Ldebug_info0:
 2612 0000 E6150000 		.4byte	0x15e6
 2613 0004 0200     		.2byte	0x2
 2614 0006 00000000 		.4byte	.Ldebug_abbrev0
 2615 000a 04       		.byte	0x4
 2616 000b 01       		.uleb128 0x1
 2617 000c 09050000 		.4byte	.LASF177
 2618 0010 0C       		.byte	0xc
 2619 0011 59060000 		.4byte	.LASF178
 2620 0015 E0070000 		.4byte	.LASF179
 2621 0019 00000000 		.4byte	.Ltext0
 2622 001d 080C0000 		.4byte	.Letext0
 2623 0021 00000000 		.4byte	.Ldebug_line0
 2624 0025 02       		.uleb128 0x2
 2625 0026 01       		.byte	0x1
 2626 0027 06       		.byte	0x6
 2627 0028 7B010000 		.4byte	.LASF0
 2628 002c 02       		.uleb128 0x2
 2629 002d 02       		.byte	0x2
 2630 002e 05       		.byte	0x5
 2631 002f 0D060000 		.4byte	.LASF1
 2632 0033 03       		.uleb128 0x3
 2633 0034 27030000 		.4byte	.LASF3
 2634 0038 03       		.byte	0x3
 2635 0039 07       		.byte	0x7
 2636 003a 3E000000 		.4byte	0x3e
 2637 003e 04       		.uleb128 0x4
 2638 003f 04       		.byte	0x4
 2639 0040 05       		.byte	0x5
 2640 0041 696E7400 		.ascii	"int\000"
 2641 0045 05       		.uleb128 0x5
 2642 0046 3E000000 		.4byte	0x3e
 2643 004a 02       		.uleb128 0x2
 2644 004b 08       		.byte	0x8
 2645 004c 05       		.byte	0x5
 2646 004d 6D010000 		.4byte	.LASF2
 2647 0051 03       		.uleb128 0x3
 2648 0052 DA070000 		.4byte	.LASF4
 2649 0056 03       		.byte	0x3
 2650 0057 0A       		.byte	0xa
 2651 0058 5C000000 		.4byte	0x5c
 2652 005c 02       		.uleb128 0x2
 2653 005d 01       		.byte	0x1
 2654 005e 08       		.byte	0x8
 2655 005f DC050000 		.4byte	.LASF5
 2656 0063 03       		.uleb128 0x3
 2657 0064 5B020000 		.4byte	.LASF6
ARM GAS  G:\Users\Jaxb\AppData\Local\Temp\ccRp9Rzk.s 			page 69


 2658 0068 03       		.byte	0x3
 2659 0069 0B       		.byte	0xb
 2660 006a 6E000000 		.4byte	0x6e
 2661 006e 02       		.uleb128 0x2
 2662 006f 02       		.byte	0x2
 2663 0070 07       		.byte	0x7
 2664 0071 4F030000 		.4byte	.LASF7
 2665 0075 03       		.uleb128 0x3
 2666 0076 31040000 		.4byte	.LASF8
 2667 007a 03       		.byte	0x3
 2668 007b 0C       		.byte	0xc
 2669 007c 80000000 		.4byte	0x80
 2670 0080 02       		.uleb128 0x2
 2671 0081 04       		.byte	0x4
 2672 0082 07       		.byte	0x7
 2673 0083 D6020000 		.4byte	.LASF9
 2674 0087 03       		.uleb128 0x3
 2675 0088 7A080000 		.4byte	.LASF10
 2676 008c 03       		.byte	0x3
 2677 008d 0D       		.byte	0xd
 2678 008e 92000000 		.4byte	0x92
 2679 0092 02       		.uleb128 0x2
 2680 0093 08       		.byte	0x8
 2681 0094 07       		.byte	0x7
 2682 0095 EB000000 		.4byte	.LASF11
 2683 0099 03       		.uleb128 0x3
 2684 009a 09070000 		.4byte	.LASF12
 2685 009e 04       		.byte	0x4
 2686 009f 08       		.byte	0x8
 2687 00a0 75000000 		.4byte	0x75
 2688 00a4 03       		.uleb128 0x3
 2689 00a5 44010000 		.4byte	.LASF13
 2690 00a9 04       		.byte	0x4
 2691 00aa 09       		.byte	0x9
 2692 00ab 75000000 		.4byte	0x75
 2693 00af 03       		.uleb128 0x3
 2694 00b0 EA020000 		.4byte	.LASF14
 2695 00b4 04       		.byte	0x4
 2696 00b5 0A       		.byte	0xa
 2697 00b6 33000000 		.4byte	0x33
 2698 00ba 03       		.uleb128 0x3
 2699 00bb B4010000 		.4byte	.LASF15
 2700 00bf 04       		.byte	0x4
 2701 00c0 0B       		.byte	0xb
 2702 00c1 75000000 		.4byte	0x75
 2703 00c5 03       		.uleb128 0x3
 2704 00c6 94040000 		.4byte	.LASF16
 2705 00ca 04       		.byte	0x4
 2706 00cb 0C       		.byte	0xc
 2707 00cc 63000000 		.4byte	0x63
 2708 00d0 06       		.uleb128 0x6
 2709 00d1 A5020000 		.4byte	.LASF43
 2710 00d5 34       		.byte	0x34
 2711 00d6 04       		.byte	0x4
 2712 00d7 33       		.byte	0x33
 2713 00d8 A1010000 		.4byte	0x1a1
 2714 00dc 07       		.uleb128 0x7
ARM GAS  G:\Users\Jaxb\AppData\Local\Temp\ccRp9Rzk.s 			page 70


 2715 00dd 3F060000 		.4byte	.LASF17
 2716 00e1 04       		.byte	0x4
 2717 00e2 35       		.byte	0x35
 2718 00e3 A1010000 		.4byte	0x1a1
 2719 00e7 02       		.byte	0x2
 2720 00e8 23       		.byte	0x23
 2721 00e9 00       		.uleb128 0
 2722 00ea 07       		.uleb128 0x7
 2723 00eb C8000000 		.4byte	.LASF18
 2724 00ef 04       		.byte	0x4
 2725 00f0 36       		.byte	0x36
 2726 00f1 C5000000 		.4byte	0xc5
 2727 00f5 02       		.byte	0x2
 2728 00f6 23       		.byte	0x23
 2729 00f7 10       		.uleb128 0x10
 2730 00f8 07       		.uleb128 0x7
 2731 00f9 A3030000 		.4byte	.LASF19
 2732 00fd 04       		.byte	0x4
 2733 00fe 37       		.byte	0x37
 2734 00ff C5000000 		.4byte	0xc5
 2735 0103 02       		.byte	0x2
 2736 0104 23       		.byte	0x23
 2737 0105 12       		.uleb128 0x12
 2738 0106 07       		.uleb128 0x7
 2739 0107 61040000 		.4byte	.LASF20
 2740 010b 04       		.byte	0x4
 2741 010c 38       		.byte	0x38
 2742 010d BA000000 		.4byte	0xba
 2743 0111 02       		.byte	0x2
 2744 0112 23       		.byte	0x23
 2745 0113 14       		.uleb128 0x14
 2746 0114 07       		.uleb128 0x7
 2747 0115 3B080000 		.4byte	.LASF21
 2748 0119 04       		.byte	0x4
 2749 011a 39       		.byte	0x39
 2750 011b 99000000 		.4byte	0x99
 2751 011f 02       		.byte	0x2
 2752 0120 23       		.byte	0x23
 2753 0121 18       		.uleb128 0x18
 2754 0122 07       		.uleb128 0x7
 2755 0123 01070000 		.4byte	.LASF22
 2756 0127 04       		.byte	0x4
 2757 0128 3A       		.byte	0x3a
 2758 0129 A4000000 		.4byte	0xa4
 2759 012d 02       		.byte	0x2
 2760 012e 23       		.byte	0x23
 2761 012f 1C       		.uleb128 0x1c
 2762 0130 07       		.uleb128 0x7
 2763 0131 05060000 		.4byte	.LASF23
 2764 0135 04       		.byte	0x4
 2765 0136 3B       		.byte	0x3b
 2766 0137 A4000000 		.4byte	0xa4
 2767 013b 02       		.byte	0x2
 2768 013c 23       		.byte	0x23
 2769 013d 20       		.uleb128 0x20
 2770 013e 07       		.uleb128 0x7
 2771 013f CF060000 		.4byte	.LASF24
ARM GAS  G:\Users\Jaxb\AppData\Local\Temp\ccRp9Rzk.s 			page 71


 2772 0143 04       		.byte	0x4
 2773 0144 3C       		.byte	0x3c
 2774 0145 BA000000 		.4byte	0xba
 2775 0149 02       		.byte	0x2
 2776 014a 23       		.byte	0x23
 2777 014b 24       		.uleb128 0x24
 2778 014c 07       		.uleb128 0x7
 2779 014d 12040000 		.4byte	.LASF25
 2780 0151 04       		.byte	0x4
 2781 0152 3D       		.byte	0x3d
 2782 0153 C5000000 		.4byte	0xc5
 2783 0157 02       		.byte	0x2
 2784 0158 23       		.byte	0x23
 2785 0159 28       		.uleb128 0x28
 2786 015a 07       		.uleb128 0x7
 2787 015b 09030000 		.4byte	.LASF26
 2788 015f 04       		.byte	0x4
 2789 0160 3E       		.byte	0x3e
 2790 0161 C5000000 		.4byte	0xc5
 2791 0165 02       		.byte	0x2
 2792 0166 23       		.byte	0x23
 2793 0167 2A       		.uleb128 0x2a
 2794 0168 07       		.uleb128 0x7
 2795 0169 8F080000 		.4byte	.LASF27
 2796 016d 04       		.byte	0x4
 2797 016e 3F       		.byte	0x3f
 2798 016f C5000000 		.4byte	0xc5
 2799 0173 02       		.byte	0x2
 2800 0174 23       		.byte	0x23
 2801 0175 2C       		.uleb128 0x2c
 2802 0176 07       		.uleb128 0x7
 2803 0177 50070000 		.4byte	.LASF28
 2804 017b 04       		.byte	0x4
 2805 017c 40       		.byte	0x40
 2806 017d C5000000 		.4byte	0xc5
 2807 0181 02       		.byte	0x2
 2808 0182 23       		.byte	0x23
 2809 0183 2E       		.uleb128 0x2e
 2810 0184 07       		.uleb128 0x7
 2811 0185 94070000 		.4byte	.LASF29
 2812 0189 04       		.byte	0x4
 2813 018a 41       		.byte	0x41
 2814 018b C5000000 		.4byte	0xc5
 2815 018f 02       		.byte	0x2
 2816 0190 23       		.byte	0x23
 2817 0191 30       		.uleb128 0x30
 2818 0192 07       		.uleb128 0x7
 2819 0193 E3010000 		.4byte	.LASF30
 2820 0197 04       		.byte	0x4
 2821 0198 42       		.byte	0x42
 2822 0199 C5000000 		.4byte	0xc5
 2823 019d 02       		.byte	0x2
 2824 019e 23       		.byte	0x23
 2825 019f 32       		.uleb128 0x32
 2826 01a0 00       		.byte	0
 2827 01a1 08       		.uleb128 0x8
 2828 01a2 5C000000 		.4byte	0x5c
ARM GAS  G:\Users\Jaxb\AppData\Local\Temp\ccRp9Rzk.s 			page 72


 2829 01a6 B1010000 		.4byte	0x1b1
 2830 01aa 09       		.uleb128 0x9
 2831 01ab 80000000 		.4byte	0x80
 2832 01af 0F       		.byte	0xf
 2833 01b0 00       		.byte	0
 2834 01b1 03       		.uleb128 0x3
 2835 01b2 E5040000 		.4byte	.LASF31
 2836 01b6 04       		.byte	0x4
 2837 01b7 44       		.byte	0x44
 2838 01b8 D0000000 		.4byte	0xd0
 2839 01bc 0A       		.uleb128 0xa
 2840 01bd 28       		.byte	0x28
 2841 01be 04       		.byte	0x4
 2842 01bf 47       		.byte	0x47
 2843 01c0 51020000 		.4byte	0x251
 2844 01c4 07       		.uleb128 0x7
 2845 01c5 47030000 		.4byte	.LASF32
 2846 01c9 04       		.byte	0x4
 2847 01ca 49       		.byte	0x49
 2848 01cb BA000000 		.4byte	0xba
 2849 01cf 02       		.byte	0x2
 2850 01d0 23       		.byte	0x23
 2851 01d1 00       		.uleb128 0
 2852 01d2 07       		.uleb128 0x7
 2853 01d3 2E070000 		.4byte	.LASF33
 2854 01d7 04       		.byte	0x4
 2855 01d8 4B       		.byte	0x4b
 2856 01d9 BA000000 		.4byte	0xba
 2857 01dd 02       		.byte	0x2
 2858 01de 23       		.byte	0x23
 2859 01df 04       		.uleb128 0x4
 2860 01e0 07       		.uleb128 0x7
 2861 01e1 1E070000 		.4byte	.LASF34
 2862 01e5 04       		.byte	0x4
 2863 01e6 4C       		.byte	0x4c
 2864 01e7 BA000000 		.4byte	0xba
 2865 01eb 02       		.byte	0x2
 2866 01ec 23       		.byte	0x23
 2867 01ed 08       		.uleb128 0x8
 2868 01ee 07       		.uleb128 0x7
 2869 01ef 2B010000 		.4byte	.LASF35
 2870 01f3 04       		.byte	0x4
 2871 01f4 4D       		.byte	0x4d
 2872 01f5 99000000 		.4byte	0x99
 2873 01f9 02       		.byte	0x2
 2874 01fa 23       		.byte	0x23
 2875 01fb 0C       		.uleb128 0xc
 2876 01fc 07       		.uleb128 0x7
 2877 01fd C1080000 		.4byte	.LASF36
 2878 0201 04       		.byte	0x4
 2879 0202 4E       		.byte	0x4e
 2880 0203 A4000000 		.4byte	0xa4
 2881 0207 02       		.byte	0x2
 2882 0208 23       		.byte	0x23
 2883 0209 10       		.uleb128 0x10
 2884 020a 07       		.uleb128 0x7
 2885 020b 0A010000 		.4byte	.LASF37
ARM GAS  G:\Users\Jaxb\AppData\Local\Temp\ccRp9Rzk.s 			page 73


 2886 020f 04       		.byte	0x4
 2887 0210 4F       		.byte	0x4f
 2888 0211 BA000000 		.4byte	0xba
 2889 0215 02       		.byte	0x2
 2890 0216 23       		.byte	0x23
 2891 0217 14       		.uleb128 0x14
 2892 0218 07       		.uleb128 0x7
 2893 0219 7C020000 		.4byte	.LASF38
 2894 021d 04       		.byte	0x4
 2895 021e 50       		.byte	0x50
 2896 021f BA000000 		.4byte	0xba
 2897 0223 02       		.byte	0x2
 2898 0224 23       		.byte	0x23
 2899 0225 18       		.uleb128 0x18
 2900 0226 07       		.uleb128 0x7
 2901 0227 23060000 		.4byte	.LASF39
 2902 022b 04       		.byte	0x4
 2903 022c 51       		.byte	0x51
 2904 022d BA000000 		.4byte	0xba
 2905 0231 02       		.byte	0x2
 2906 0232 23       		.byte	0x23
 2907 0233 1C       		.uleb128 0x1c
 2908 0234 07       		.uleb128 0x7
 2909 0235 2D000000 		.4byte	.LASF40
 2910 0239 04       		.byte	0x4
 2911 023a 52       		.byte	0x52
 2912 023b BA000000 		.4byte	0xba
 2913 023f 02       		.byte	0x2
 2914 0240 23       		.byte	0x23
 2915 0241 20       		.uleb128 0x20
 2916 0242 07       		.uleb128 0x7
 2917 0243 8B000000 		.4byte	.LASF41
 2918 0247 04       		.byte	0x4
 2919 0248 53       		.byte	0x53
 2920 0249 BA000000 		.4byte	0xba
 2921 024d 02       		.byte	0x2
 2922 024e 23       		.byte	0x23
 2923 024f 24       		.uleb128 0x24
 2924 0250 00       		.byte	0
 2925 0251 03       		.uleb128 0x3
 2926 0252 A3000000 		.4byte	.LASF42
 2927 0256 04       		.byte	0x4
 2928 0257 54       		.byte	0x54
 2929 0258 BC010000 		.4byte	0x1bc
 2930 025c 06       		.uleb128 0x6
 2931 025d 43080000 		.4byte	.LASF44
 2932 0261 10       		.byte	0x10
 2933 0262 04       		.byte	0x4
 2934 0263 6F       		.byte	0x6f
 2935 0264 BD020000 		.4byte	0x2bd
 2936 0268 07       		.uleb128 0x7
 2937 0269 E0060000 		.4byte	.LASF45
 2938 026d 04       		.byte	0x4
 2939 026e 71       		.byte	0x71
 2940 026f BA000000 		.4byte	0xba
 2941 0273 02       		.byte	0x2
 2942 0274 23       		.byte	0x23
ARM GAS  G:\Users\Jaxb\AppData\Local\Temp\ccRp9Rzk.s 			page 74


 2943 0275 00       		.uleb128 0
 2944 0276 07       		.uleb128 0x7
 2945 0277 31020000 		.4byte	.LASF46
 2946 027b 04       		.byte	0x4
 2947 027c 72       		.byte	0x72
 2948 027d 99000000 		.4byte	0x99
 2949 0281 02       		.byte	0x2
 2950 0282 23       		.byte	0x23
 2951 0283 04       		.uleb128 0x4
 2952 0284 07       		.uleb128 0x7
 2953 0285 C1030000 		.4byte	.LASF47
 2954 0289 04       		.byte	0x4
 2955 028a 73       		.byte	0x73
 2956 028b BA000000 		.4byte	0xba
 2957 028f 02       		.byte	0x2
 2958 0290 23       		.byte	0x23
 2959 0291 08       		.uleb128 0x8
 2960 0292 07       		.uleb128 0x7
 2961 0293 83000000 		.4byte	.LASF48
 2962 0297 04       		.byte	0x4
 2963 0298 74       		.byte	0x74
 2964 0299 5C000000 		.4byte	0x5c
 2965 029d 02       		.byte	0x2
 2966 029e 23       		.byte	0x23
 2967 029f 0C       		.uleb128 0xc
 2968 02a0 07       		.uleb128 0x7
 2969 02a1 62030000 		.4byte	.LASF49
 2970 02a5 04       		.byte	0x4
 2971 02a6 75       		.byte	0x75
 2972 02a7 5C000000 		.4byte	0x5c
 2973 02ab 02       		.byte	0x2
 2974 02ac 23       		.byte	0x23
 2975 02ad 0D       		.uleb128 0xd
 2976 02ae 07       		.uleb128 0x7
 2977 02af 4F000000 		.4byte	.LASF50
 2978 02b3 04       		.byte	0x4
 2979 02b4 76       		.byte	0x76
 2980 02b5 C5000000 		.4byte	0xc5
 2981 02b9 02       		.byte	0x2
 2982 02ba 23       		.byte	0x23
 2983 02bb 0E       		.uleb128 0xe
 2984 02bc 00       		.byte	0
 2985 02bd 03       		.uleb128 0x3
 2986 02be 4D080000 		.4byte	.LASF51
 2987 02c2 04       		.byte	0x4
 2988 02c3 77       		.byte	0x77
 2989 02c4 5C020000 		.4byte	0x25c
 2990 02c8 0A       		.uleb128 0xa
 2991 02c9 08       		.byte	0x8
 2992 02ca 04       		.byte	0x4
 2993 02cb 95       		.byte	0x95
 2994 02cc ED020000 		.4byte	0x2ed
 2995 02d0 07       		.uleb128 0x7
 2996 02d1 A1080000 		.4byte	.LASF52
 2997 02d5 04       		.byte	0x4
 2998 02d6 97       		.byte	0x97
 2999 02d7 99000000 		.4byte	0x99
ARM GAS  G:\Users\Jaxb\AppData\Local\Temp\ccRp9Rzk.s 			page 75


 3000 02db 02       		.byte	0x2
 3001 02dc 23       		.byte	0x23
 3002 02dd 00       		.uleb128 0
 3003 02de 07       		.uleb128 0x7
 3004 02df 27070000 		.4byte	.LASF53
 3005 02e3 04       		.byte	0x4
 3006 02e4 98       		.byte	0x98
 3007 02e5 BA000000 		.4byte	0xba
 3008 02e9 02       		.byte	0x2
 3009 02ea 23       		.byte	0x23
 3010 02eb 04       		.uleb128 0x4
 3011 02ec 00       		.byte	0
 3012 02ed 03       		.uleb128 0x3
 3013 02ee AD030000 		.4byte	.LASF54
 3014 02f2 04       		.byte	0x4
 3015 02f3 99       		.byte	0x99
 3016 02f4 C8020000 		.4byte	0x2c8
 3017 02f8 0A       		.uleb128 0xa
 3018 02f9 20       		.byte	0x20
 3019 02fa 04       		.byte	0x4
 3020 02fb BB       		.byte	0xbb
 3021 02fc 71030000 		.4byte	0x371
 3022 0300 07       		.uleb128 0x7
 3023 0301 E3020000 		.4byte	.LASF55
 3024 0305 04       		.byte	0x4
 3025 0306 BD       		.byte	0xbd
 3026 0307 BA000000 		.4byte	0xba
 3027 030b 02       		.byte	0x2
 3028 030c 23       		.byte	0x23
 3029 030d 00       		.uleb128 0
 3030 030e 07       		.uleb128 0x7
 3031 030f 6B040000 		.4byte	.LASF56
 3032 0313 04       		.byte	0x4
 3033 0314 BE       		.byte	0xbe
 3034 0315 A4000000 		.4byte	0xa4
 3035 0319 02       		.byte	0x2
 3036 031a 23       		.byte	0x23
 3037 031b 04       		.uleb128 0x4
 3038 031c 07       		.uleb128 0x7
 3039 031d 47000000 		.4byte	.LASF57
 3040 0321 04       		.byte	0x4
 3041 0322 BF       		.byte	0xbf
 3042 0323 99000000 		.4byte	0x99
 3043 0327 02       		.byte	0x2
 3044 0328 23       		.byte	0x23
 3045 0329 08       		.uleb128 0x8
 3046 032a 07       		.uleb128 0x7
 3047 032b 3F020000 		.4byte	.LASF58
 3048 032f 04       		.byte	0x4
 3049 0330 C0       		.byte	0xc0
 3050 0331 99000000 		.4byte	0x99
 3051 0335 02       		.byte	0x2
 3052 0336 23       		.byte	0x23
 3053 0337 0C       		.uleb128 0xc
 3054 0338 07       		.uleb128 0x7
 3055 0339 94010000 		.4byte	.LASF59
 3056 033d 04       		.byte	0x4
ARM GAS  G:\Users\Jaxb\AppData\Local\Temp\ccRp9Rzk.s 			page 76


 3057 033e C1       		.byte	0xc1
 3058 033f BA000000 		.4byte	0xba
 3059 0343 02       		.byte	0x2
 3060 0344 23       		.byte	0x23
 3061 0345 10       		.uleb128 0x10
 3062 0346 07       		.uleb128 0x7
 3063 0347 6B020000 		.4byte	.LASF60
 3064 034b 04       		.byte	0x4
 3065 034c C2       		.byte	0xc2
 3066 034d BA000000 		.4byte	0xba
 3067 0351 02       		.byte	0x2
 3068 0352 23       		.byte	0x23
 3069 0353 14       		.uleb128 0x14
 3070 0354 07       		.uleb128 0x7
 3071 0355 37060000 		.4byte	.LASF61
 3072 0359 04       		.byte	0x4
 3073 035a C3       		.byte	0xc3
 3074 035b BA000000 		.4byte	0xba
 3075 035f 02       		.byte	0x2
 3076 0360 23       		.byte	0x23
 3077 0361 18       		.uleb128 0x18
 3078 0362 07       		.uleb128 0x7
 3079 0363 02010000 		.4byte	.LASF62
 3080 0367 04       		.byte	0x4
 3081 0368 C4       		.byte	0xc4
 3082 0369 BA000000 		.4byte	0xba
 3083 036d 02       		.byte	0x2
 3084 036e 23       		.byte	0x23
 3085 036f 1C       		.uleb128 0x1c
 3086 0370 00       		.byte	0
 3087 0371 03       		.uleb128 0x3
 3088 0372 6B030000 		.4byte	.LASF63
 3089 0376 04       		.byte	0x4
 3090 0377 C5       		.byte	0xc5
 3091 0378 F8020000 		.4byte	0x2f8
 3092 037c 06       		.uleb128 0x6
 3093 037d 36070000 		.4byte	.LASF64
 3094 0381 08       		.byte	0x8
 3095 0382 02       		.byte	0x2
 3096 0383 04       		.byte	0x4
 3097 0384 A5030000 		.4byte	0x3a5
 3098 0388 07       		.uleb128 0x7
 3099 0389 4E010000 		.4byte	.LASF65
 3100 038d 02       		.byte	0x2
 3101 038e 05       		.byte	0x5
 3102 038f A5030000 		.4byte	0x3a5
 3103 0393 02       		.byte	0x2
 3104 0394 23       		.byte	0x23
 3105 0395 00       		.uleb128 0
 3106 0396 07       		.uleb128 0x7
 3107 0397 9E000000 		.4byte	.LASF66
 3108 039b 02       		.byte	0x2
 3109 039c 05       		.byte	0x5
 3110 039d A5030000 		.4byte	0x3a5
 3111 03a1 02       		.byte	0x2
 3112 03a2 23       		.byte	0x23
 3113 03a3 04       		.uleb128 0x4
ARM GAS  G:\Users\Jaxb\AppData\Local\Temp\ccRp9Rzk.s 			page 77


 3114 03a4 00       		.byte	0
 3115 03a5 0B       		.uleb128 0xb
 3116 03a6 04       		.byte	0x4
 3117 03a7 7C030000 		.4byte	0x37c
 3118 03ab 0C       		.uleb128 0xc
 3119 03ac E3030000 		.4byte	.LASF180
 3120 03b0 07       		.byte	0x7
 3121 03b1 01       		.byte	0x1
 3122 03b2 5C000000 		.4byte	0x5c
 3123 03b6 05       		.byte	0x5
 3124 03b7 04       		.byte	0x4
 3125 03b8 F9030000 		.4byte	0x3f9
 3126 03bc 0D       		.uleb128 0xd
 3127 03bd 25040000 		.4byte	.LASF67
 3128 03c1 01       		.byte	0x1
 3129 03c2 0D       		.uleb128 0xd
 3130 03c3 F6020000 		.4byte	.LASF68
 3131 03c7 02       		.byte	0x2
 3132 03c8 0D       		.uleb128 0xd
 3133 03c9 C5070000 		.4byte	.LASF69
 3134 03cd 03       		.byte	0x3
 3135 03ce 0D       		.uleb128 0xd
 3136 03cf AA040000 		.4byte	.LASF70
 3137 03d3 04       		.byte	0x4
 3138 03d4 0D       		.uleb128 0xd
 3139 03d5 F0080000 		.4byte	.LASF71
 3140 03d9 05       		.byte	0x5
 3141 03da 0D       		.uleb128 0xd
 3142 03db 0E080000 		.4byte	.LASF72
 3143 03df 06       		.byte	0x6
 3144 03e0 0D       		.uleb128 0xd
 3145 03e1 84020000 		.4byte	.LASF73
 3146 03e5 07       		.byte	0x7
 3147 03e6 0D       		.uleb128 0xd
 3148 03e7 AC020000 		.4byte	.LASF74
 3149 03eb 08       		.byte	0x8
 3150 03ec 0D       		.uleb128 0xd
 3151 03ed AF060000 		.4byte	.LASF75
 3152 03f1 09       		.byte	0x9
 3153 03f2 0D       		.uleb128 0xd
 3154 03f3 F0040000 		.4byte	.LASF76
 3155 03f7 0A       		.byte	0xa
 3156 03f8 00       		.byte	0
 3157 03f9 03       		.uleb128 0x3
 3158 03fa 39010000 		.4byte	.LASF77
 3159 03fe 05       		.byte	0x5
 3160 03ff 0F       		.byte	0xf
 3161 0400 AB030000 		.4byte	0x3ab
 3162 0404 03       		.uleb128 0x3
 3163 0405 77070000 		.4byte	.LASF78
 3164 0409 06       		.byte	0x6
 3165 040a 09       		.byte	0x9
 3166 040b 80000000 		.4byte	0x80
 3167 040f 03       		.uleb128 0x3
 3168 0410 58000000 		.4byte	.LASF79
 3169 0414 06       		.byte	0x6
 3170 0415 0B       		.byte	0xb
ARM GAS  G:\Users\Jaxb\AppData\Local\Temp\ccRp9Rzk.s 			page 78


 3171 0416 80000000 		.4byte	0x80
 3172 041a 03       		.uleb128 0x3
 3173 041b 17060000 		.4byte	.LASF80
 3174 041f 06       		.byte	0x6
 3175 0420 0C       		.byte	0xc
 3176 0421 25040000 		.4byte	0x425
 3177 0425 0B       		.uleb128 0xb
 3178 0426 04       		.byte	0x4
 3179 0427 2B040000 		.4byte	0x42b
 3180 042b 0E       		.uleb128 0xe
 3181 042c 01       		.byte	0x1
 3182 042d 37040000 		.4byte	0x437
 3183 0431 0F       		.uleb128 0xf
 3184 0432 37040000 		.4byte	0x437
 3185 0436 00       		.byte	0
 3186 0437 10       		.uleb128 0x10
 3187 0438 04       		.byte	0x4
 3188 0439 11       		.uleb128 0x11
 3189 043a AF050000 		.4byte	.LASF127
 3190 043e 06       		.byte	0x6
 3191 043f 12       		.byte	0x12
 3192 0440 45000000 		.4byte	0x45
 3193 0444 01       		.byte	0x1
 3194 0445 01       		.byte	0x1
 3195 0446 06       		.uleb128 0x6
 3196 0447 53010000 		.4byte	.LASF81
 3197 044b 48       		.byte	0x48
 3198 044c 06       		.byte	0x6
 3199 044d 2F       		.byte	0x2f
 3200 044e 17050000 		.4byte	0x517
 3201 0452 07       		.uleb128 0x7
 3202 0453 82060000 		.4byte	.LASF82
 3203 0457 06       		.byte	0x6
 3204 0458 30       		.byte	0x30
 3205 0459 17050000 		.4byte	0x517
 3206 045d 02       		.byte	0x2
 3207 045e 23       		.byte	0x23
 3208 045f 00       		.uleb128 0
 3209 0460 07       		.uleb128 0x7
 3210 0461 57080000 		.4byte	.LASF83
 3211 0465 06       		.byte	0x6
 3212 0466 31       		.byte	0x31
 3213 0467 80000000 		.4byte	0x80
 3214 046b 02       		.byte	0x2
 3215 046c 23       		.byte	0x23
 3216 046d 04       		.uleb128 0x4
 3217 046e 07       		.uleb128 0x7
 3218 046f CD040000 		.4byte	.LASF84
 3219 0473 06       		.byte	0x6
 3220 0474 32       		.byte	0x32
 3221 0475 17050000 		.4byte	0x517
 3222 0479 02       		.byte	0x2
 3223 047a 23       		.byte	0x23
 3224 047b 08       		.uleb128 0x8
 3225 047c 07       		.uleb128 0x7
 3226 047d 8F040000 		.4byte	.LASF85
 3227 0481 06       		.byte	0x6
ARM GAS  G:\Users\Jaxb\AppData\Local\Temp\ccRp9Rzk.s 			page 79


 3228 0482 33       		.byte	0x33
 3229 0483 0F040000 		.4byte	0x40f
 3230 0487 02       		.byte	0x2
 3231 0488 23       		.byte	0x23
 3232 0489 0C       		.uleb128 0xc
 3233 048a 07       		.uleb128 0x7
 3234 048b 87010000 		.4byte	.LASF86
 3235 048f 06       		.byte	0x6
 3236 0490 34       		.byte	0x34
 3237 0491 0F040000 		.4byte	0x40f
 3238 0495 02       		.byte	0x2
 3239 0496 23       		.byte	0x23
 3240 0497 10       		.uleb128 0x10
 3241 0498 07       		.uleb128 0x7
 3242 0499 82070000 		.4byte	.LASF87
 3243 049d 06       		.byte	0x6
 3244 049e 35       		.byte	0x35
 3245 049f F9030000 		.4byte	0x3f9
 3246 04a3 02       		.byte	0x2
 3247 04a4 23       		.byte	0x23
 3248 04a5 14       		.uleb128 0x14
 3249 04a6 07       		.uleb128 0x7
 3250 04a7 11090000 		.4byte	.LASF88
 3251 04ab 06       		.byte	0x6
 3252 04ac 36       		.byte	0x36
 3253 04ad 3E000000 		.4byte	0x3e
 3254 04b1 02       		.byte	0x2
 3255 04b2 23       		.byte	0x23
 3256 04b3 18       		.uleb128 0x18
 3257 04b4 07       		.uleb128 0x7
 3258 04b5 22020000 		.4byte	.LASF89
 3259 04b9 06       		.byte	0x6
 3260 04ba 37       		.byte	0x37
 3261 04bb 7C030000 		.4byte	0x37c
 3262 04bf 02       		.byte	0x2
 3263 04c0 23       		.byte	0x23
 3264 04c1 1C       		.uleb128 0x1c
 3265 04c2 07       		.uleb128 0x7
 3266 04c3 3A000000 		.4byte	.LASF90
 3267 04c7 06       		.byte	0x6
 3268 04c8 38       		.byte	0x38
 3269 04c9 7C030000 		.4byte	0x37c
 3270 04cd 02       		.byte	0x2
 3271 04ce 23       		.byte	0x23
 3272 04cf 24       		.uleb128 0x24
 3273 04d0 07       		.uleb128 0x7
 3274 04d1 37030000 		.4byte	.LASF91
 3275 04d5 06       		.byte	0x6
 3276 04d6 39       		.byte	0x39
 3277 04d7 1D050000 		.4byte	0x51d
 3278 04db 02       		.byte	0x2
 3279 04dc 23       		.byte	0x23
 3280 04dd 2C       		.uleb128 0x2c
 3281 04de 07       		.uleb128 0x7
 3282 04df ED060000 		.4byte	.LASF92
 3283 04e3 06       		.byte	0x6
 3284 04e4 3A       		.byte	0x3a
ARM GAS  G:\Users\Jaxb\AppData\Local\Temp\ccRp9Rzk.s 			page 80


 3285 04e5 80000000 		.4byte	0x80
 3286 04e9 02       		.byte	0x2
 3287 04ea 23       		.byte	0x23
 3288 04eb 30       		.uleb128 0x30
 3289 04ec 07       		.uleb128 0x7
 3290 04ed 74040000 		.4byte	.LASF93
 3291 04f1 06       		.byte	0x6
 3292 04f2 3B       		.byte	0x3b
 3293 04f3 80000000 		.4byte	0x80
 3294 04f7 02       		.byte	0x2
 3295 04f8 23       		.byte	0x23
 3296 04f9 34       		.uleb128 0x34
 3297 04fa 07       		.uleb128 0x7
 3298 04fb BC000000 		.4byte	.LASF94
 3299 04ff 06       		.byte	0x6
 3300 0500 3C       		.byte	0x3c
 3301 0501 75000000 		.4byte	0x75
 3302 0505 02       		.byte	0x2
 3303 0506 23       		.byte	0x23
 3304 0507 38       		.uleb128 0x38
 3305 0508 07       		.uleb128 0x7
 3306 0509 5C070000 		.4byte	.LASF95
 3307 050d 06       		.byte	0x6
 3308 050e 3D       		.byte	0x3d
 3309 050f 87000000 		.4byte	0x87
 3310 0513 02       		.byte	0x2
 3311 0514 23       		.byte	0x23
 3312 0515 40       		.uleb128 0x40
 3313 0516 00       		.byte	0
 3314 0517 0B       		.uleb128 0xb
 3315 0518 04       		.byte	0x4
 3316 0519 04040000 		.4byte	0x404
 3317 051d 0B       		.uleb128 0xb
 3318 051e 04       		.byte	0x4
 3319 051f 23050000 		.4byte	0x523
 3320 0523 02       		.uleb128 0x2
 3321 0524 01       		.byte	0x1
 3322 0525 08       		.byte	0x8
 3323 0526 E8060000 		.4byte	.LASF96
 3324 052a 12       		.uleb128 0x12
 3325 052b 23050000 		.4byte	0x523
 3326 052f 13       		.uleb128 0x13
 3327 0530 54434200 		.ascii	"TCB\000"
 3328 0534 06       		.byte	0x6
 3329 0535 3E       		.byte	0x3e
 3330 0536 46040000 		.4byte	0x446
 3331 053a 03       		.uleb128 0x3
 3332 053b B4070000 		.4byte	.LASF97
 3333 053f 07       		.byte	0x7
 3334 0540 0D       		.byte	0xd
 3335 0541 3E000000 		.4byte	0x3e
 3336 0545 03       		.uleb128 0x3
 3337 0546 EE030000 		.4byte	.LASF98
 3338 054a 07       		.byte	0x7
 3339 054b 12       		.byte	0x12
 3340 054c 37040000 		.4byte	0x437
 3341 0550 06       		.uleb128 0x6
ARM GAS  G:\Users\Jaxb\AppData\Local\Temp\ccRp9Rzk.s 			page 81


 3342 0551 CF000000 		.4byte	.LASF99
 3343 0555 08       		.byte	0x8
 3344 0556 07       		.byte	0x7
 3345 0557 14       		.byte	0x14
 3346 0558 79050000 		.4byte	0x579
 3347 055c 07       		.uleb128 0x7
 3348 055d 12010000 		.4byte	.LASF100
 3349 0561 07       		.byte	0x7
 3350 0562 16       		.byte	0x16
 3351 0563 37040000 		.4byte	0x437
 3352 0567 02       		.byte	0x2
 3353 0568 23       		.byte	0x23
 3354 0569 00       		.uleb128 0
 3355 056a 07       		.uleb128 0x7
 3356 056b 37030000 		.4byte	.LASF91
 3357 056f 07       		.byte	0x7
 3358 0570 17       		.byte	0x17
 3359 0571 79050000 		.4byte	0x579
 3360 0575 02       		.byte	0x2
 3361 0576 23       		.byte	0x23
 3362 0577 04       		.uleb128 0x4
 3363 0578 00       		.byte	0
 3364 0579 0B       		.uleb128 0xb
 3365 057a 04       		.byte	0x4
 3366 057b 2A050000 		.4byte	0x52a
 3367 057f 06       		.uleb128 0x6
 3368 0580 6D070000 		.4byte	.LASF101
 3369 0584 10       		.byte	0x10
 3370 0585 07       		.byte	0x7
 3371 0586 1C       		.byte	0x1c
 3372 0587 C4050000 		.4byte	0x5c4
 3373 058b 07       		.uleb128 0x7
 3374 058c 37030000 		.4byte	.LASF91
 3375 0590 07       		.byte	0x7
 3376 0591 1E       		.byte	0x1e
 3377 0592 C4050000 		.4byte	0x5c4
 3378 0596 02       		.byte	0x2
 3379 0597 23       		.byte	0x23
 3380 0598 00       		.uleb128 0
 3381 0599 07       		.uleb128 0x7
 3382 059a AE000000 		.4byte	.LASF102
 3383 059e 07       		.byte	0x7
 3384 059f 1F       		.byte	0x1f
 3385 05a0 51000000 		.4byte	0x51
 3386 05a4 02       		.byte	0x2
 3387 05a5 23       		.byte	0x23
 3388 05a6 0A       		.uleb128 0xa
 3389 05a7 07       		.uleb128 0x7
 3390 05a8 32060000 		.4byte	.LASF103
 3391 05ac 07       		.byte	0x7
 3392 05ad 20       		.byte	0x20
 3393 05ae 51000000 		.4byte	0x51
 3394 05b2 02       		.byte	0x2
 3395 05b3 23       		.byte	0x23
 3396 05b4 0B       		.uleb128 0xb
 3397 05b5 07       		.uleb128 0x7
 3398 05b6 97080000 		.4byte	.LASF104
ARM GAS  G:\Users\Jaxb\AppData\Local\Temp\ccRp9Rzk.s 			page 82


 3399 05ba 07       		.byte	0x7
 3400 05bb 21       		.byte	0x21
 3401 05bc 37040000 		.4byte	0x437
 3402 05c0 02       		.byte	0x2
 3403 05c1 23       		.byte	0x23
 3404 05c2 0C       		.uleb128 0xc
 3405 05c3 00       		.byte	0
 3406 05c4 08       		.uleb128 0x8
 3407 05c5 23050000 		.4byte	0x523
 3408 05c9 D4050000 		.4byte	0x5d4
 3409 05cd 09       		.uleb128 0x9
 3410 05ce 80000000 		.4byte	0x80
 3411 05d2 09       		.byte	0x9
 3412 05d3 00       		.byte	0
 3413 05d4 03       		.uleb128 0x3
 3414 05d5 88060000 		.4byte	.LASF105
 3415 05d9 07       		.byte	0x7
 3416 05da 24       		.byte	0x24
 3417 05db DF050000 		.4byte	0x5df
 3418 05df 0B       		.uleb128 0xb
 3419 05e0 04       		.byte	0x4
 3420 05e1 E5050000 		.4byte	0x5e5
 3421 05e5 14       		.uleb128 0x14
 3422 05e6 01       		.byte	0x1
 3423 05e7 3E000000 		.4byte	0x3e
 3424 05eb FA050000 		.4byte	0x5fa
 3425 05ef 0F       		.uleb128 0xf
 3426 05f0 3E000000 		.4byte	0x3e
 3427 05f4 0F       		.uleb128 0xf
 3428 05f5 FA050000 		.4byte	0x5fa
 3429 05f9 00       		.byte	0
 3430 05fa 0B       		.uleb128 0xb
 3431 05fb 04       		.byte	0x4
 3432 05fc 1D050000 		.4byte	0x51d
 3433 0600 03       		.uleb128 0x3
 3434 0601 9C070000 		.4byte	.LASF106
 3435 0605 07       		.byte	0x7
 3436 0606 25       		.byte	0x25
 3437 0607 0B060000 		.4byte	0x60b
 3438 060b 0B       		.uleb128 0xb
 3439 060c 04       		.byte	0x4
 3440 060d 11060000 		.4byte	0x611
 3441 0611 0E       		.uleb128 0xe
 3442 0612 01       		.byte	0x1
 3443 0613 1D060000 		.4byte	0x61d
 3444 0617 0F       		.uleb128 0xf
 3445 0618 1D060000 		.4byte	0x61d
 3446 061c 00       		.byte	0
 3447 061d 0B       		.uleb128 0xb
 3448 061e 04       		.byte	0x4
 3449 061f 23060000 		.4byte	0x623
 3450 0623 06       		.uleb128 0x6
 3451 0624 EE010000 		.4byte	.LASF107
 3452 0628 4C       		.byte	0x4c
 3453 0629 07       		.byte	0x7
 3454 062a 28       		.byte	0x28
 3455 062b 1E070000 		.4byte	0x71e
ARM GAS  G:\Users\Jaxb\AppData\Local\Temp\ccRp9Rzk.s 			page 83


 3456 062f 07       		.uleb128 0x7
 3457 0630 C6010000 		.4byte	.LASF108
 3458 0634 07       		.byte	0x7
 3459 0635 2A       		.byte	0x2a
 3460 0636 7F050000 		.4byte	0x57f
 3461 063a 02       		.byte	0x2
 3462 063b 23       		.byte	0x23
 3463 063c 00       		.uleb128 0
 3464 063d 07       		.uleb128 0x7
 3465 063e 89030000 		.4byte	.LASF109
 3466 0642 07       		.byte	0x7
 3467 0643 2B       		.byte	0x2b
 3468 0644 7C030000 		.4byte	0x37c
 3469 0648 02       		.byte	0x2
 3470 0649 23       		.byte	0x23
 3471 064a 10       		.uleb128 0x10
 3472 064b 07       		.uleb128 0x7
 3473 064c 71000000 		.4byte	.LASF110
 3474 0650 07       		.byte	0x7
 3475 0651 2D       		.byte	0x2d
 3476 0652 51000000 		.4byte	0x51
 3477 0656 02       		.byte	0x2
 3478 0657 23       		.byte	0x23
 3479 0658 18       		.uleb128 0x18
 3480 0659 07       		.uleb128 0x7
 3481 065a 80030000 		.4byte	.LASF111
 3482 065e 07       		.byte	0x7
 3483 065f 30       		.byte	0x30
 3484 0660 63000000 		.4byte	0x63
 3485 0664 02       		.byte	0x2
 3486 0665 23       		.byte	0x23
 3487 0666 1A       		.uleb128 0x1a
 3488 0667 07       		.uleb128 0x7
 3489 0668 57080000 		.4byte	.LASF83
 3490 066c 07       		.byte	0x7
 3491 066d 31       		.byte	0x31
 3492 066e 75000000 		.4byte	0x75
 3493 0672 02       		.byte	0x2
 3494 0673 23       		.byte	0x23
 3495 0674 1C       		.uleb128 0x1c
 3496 0675 07       		.uleb128 0x7
 3497 0676 4F020000 		.4byte	.LASF112
 3498 067a 07       		.byte	0x7
 3499 067b 32       		.byte	0x32
 3500 067c 29070000 		.4byte	0x729
 3501 0680 02       		.byte	0x2
 3502 0681 23       		.byte	0x23
 3503 0682 20       		.uleb128 0x20
 3504 0683 07       		.uleb128 0x7
 3505 0684 D7060000 		.4byte	.LASF113
 3506 0688 07       		.byte	0x7
 3507 0689 34       		.byte	0x34
 3508 068a 3E000000 		.4byte	0x3e
 3509 068e 02       		.byte	0x2
 3510 068f 23       		.byte	0x23
 3511 0690 24       		.uleb128 0x24
 3512 0691 07       		.uleb128 0x7
ARM GAS  G:\Users\Jaxb\AppData\Local\Temp\ccRp9Rzk.s 			page 84


 3513 0692 06040000 		.4byte	.LASF114
 3514 0696 07       		.byte	0x7
 3515 0697 37       		.byte	0x37
 3516 0698 75000000 		.4byte	0x75
 3517 069c 02       		.byte	0x2
 3518 069d 23       		.byte	0x23
 3519 069e 28       		.uleb128 0x28
 3520 069f 07       		.uleb128 0x7
 3521 06a0 3C030000 		.4byte	.LASF115
 3522 06a4 07       		.byte	0x7
 3523 06a5 3A       		.byte	0x3a
 3524 06a6 D4050000 		.4byte	0x5d4
 3525 06aa 02       		.byte	0x2
 3526 06ab 23       		.byte	0x23
 3527 06ac 2C       		.uleb128 0x2c
 3528 06ad 07       		.uleb128 0x7
 3529 06ae 71080000 		.4byte	.LASF116
 3530 06b2 07       		.byte	0x7
 3531 06b3 3B       		.byte	0x3b
 3532 06b4 1D050000 		.4byte	0x51d
 3533 06b8 02       		.byte	0x2
 3534 06b9 23       		.byte	0x23
 3535 06ba 30       		.uleb128 0x30
 3536 06bb 07       		.uleb128 0x7
 3537 06bc 76030000 		.4byte	.LASF117
 3538 06c0 07       		.byte	0x7
 3539 06c1 3D       		.byte	0x3d
 3540 06c2 45050000 		.4byte	0x545
 3541 06c6 02       		.byte	0x2
 3542 06c7 23       		.byte	0x23
 3543 06c8 34       		.uleb128 0x34
 3544 06c9 07       		.uleb128 0x7
 3545 06ca A1060000 		.4byte	.LASF118
 3546 06ce 07       		.byte	0x7
 3547 06cf 3E       		.byte	0x3e
 3548 06d0 75000000 		.4byte	0x75
 3549 06d4 02       		.byte	0x2
 3550 06d5 23       		.byte	0x23
 3551 06d6 38       		.uleb128 0x38
 3552 06d7 07       		.uleb128 0x7
 3553 06d8 67000000 		.4byte	.LASF119
 3554 06dc 07       		.byte	0x7
 3555 06dd 41       		.byte	0x41
 3556 06de 00060000 		.4byte	0x600
 3557 06e2 02       		.byte	0x2
 3558 06e3 23       		.byte	0x23
 3559 06e4 3C       		.uleb128 0x3c
 3560 06e5 07       		.uleb128 0x7
 3561 06e6 1E010000 		.4byte	.LASF120
 3562 06ea 07       		.byte	0x7
 3563 06eb 42       		.byte	0x42
 3564 06ec 1E070000 		.4byte	0x71e
 3565 06f0 02       		.byte	0x2
 3566 06f1 23       		.byte	0x23
 3567 06f2 40       		.uleb128 0x40
 3568 06f3 07       		.uleb128 0x7
 3569 06f4 3A020000 		.4byte	.LASF121
ARM GAS  G:\Users\Jaxb\AppData\Local\Temp\ccRp9Rzk.s 			page 85


 3570 06f8 07       		.byte	0x7
 3571 06f9 44       		.byte	0x44
 3572 06fa 63000000 		.4byte	0x63
 3573 06fe 02       		.byte	0x2
 3574 06ff 23       		.byte	0x23
 3575 0700 44       		.uleb128 0x44
 3576 0701 07       		.uleb128 0x7
 3577 0702 AA060000 		.4byte	.LASF122
 3578 0706 07       		.byte	0x7
 3579 0707 46       		.byte	0x46
 3580 0708 63000000 		.4byte	0x63
 3581 070c 02       		.byte	0x2
 3582 070d 23       		.byte	0x23
 3583 070e 46       		.uleb128 0x46
 3584 070f 07       		.uleb128 0x7
 3585 0710 76000000 		.4byte	.LASF123
 3586 0714 07       		.byte	0x7
 3587 0715 47       		.byte	0x47
 3588 0716 2F070000 		.4byte	0x72f
 3589 071a 02       		.byte	0x2
 3590 071b 23       		.byte	0x23
 3591 071c 48       		.uleb128 0x48
 3592 071d 00       		.byte	0
 3593 071e 03       		.uleb128 0x3
 3594 071f EA050000 		.4byte	.LASF124
 3595 0723 07       		.byte	0x7
 3596 0724 26       		.byte	0x26
 3597 0725 0B060000 		.4byte	0x60b
 3598 0729 0B       		.uleb128 0xb
 3599 072a 04       		.byte	0x4
 3600 072b 2F050000 		.4byte	0x52f
 3601 072f 0B       		.uleb128 0xb
 3602 0730 04       		.byte	0x4
 3603 0731 50050000 		.4byte	0x550
 3604 0735 03       		.uleb128 0x3
 3605 0736 C9050000 		.4byte	.LASF125
 3606 073a 01       		.byte	0x1
 3607 073b 17       		.byte	0x17
 3608 073c 40070000 		.4byte	0x740
 3609 0740 02       		.uleb128 0x2
 3610 0741 04       		.byte	0x4
 3611 0742 05       		.byte	0x5
 3612 0743 B3000000 		.4byte	.LASF126
 3613 0747 11       		.uleb128 0x11
 3614 0748 49040000 		.4byte	.LASF128
 3615 074c 01       		.byte	0x1
 3616 074d 1A       		.byte	0x1a
 3617 074e 54070000 		.4byte	0x754
 3618 0752 01       		.byte	0x1
 3619 0753 01       		.byte	0x1
 3620 0754 02       		.uleb128 0x2
 3621 0755 04       		.byte	0x4
 3622 0756 07       		.byte	0x7
 3623 0757 15030000 		.4byte	.LASF129
 3624 075b 11       		.uleb128 0x11
 3625 075c CD010000 		.4byte	.LASF130
 3626 0760 01       		.byte	0x1
ARM GAS  G:\Users\Jaxb\AppData\Local\Temp\ccRp9Rzk.s 			page 86


 3627 0761 1B       		.byte	0x1b
 3628 0762 54070000 		.4byte	0x754
 3629 0766 01       		.byte	0x1
 3630 0767 01       		.byte	0x1
 3631 0768 15       		.uleb128 0x15
 3632 0769 FA010000 		.4byte	.LASF131
 3633 076d 01       		.byte	0x1
 3634 076e 1D       		.byte	0x1d
 3635 076f 1D050000 		.4byte	0x51d
 3636 0773 05       		.byte	0x5
 3637 0774 03       		.byte	0x3
 3638 0775 04000000 		.4byte	module_buffer
 3639 0779 16       		.uleb128 0x16
 3640 077a 6E756D00 		.ascii	"num\000"
 3641 077e 01       		.byte	0x1
 3642 077f 1E       		.byte	0x1e
 3643 0780 80000000 		.4byte	0x80
 3644 0784 05       		.byte	0x5
 3645 0785 03       		.byte	0x3
 3646 0786 08000000 		.4byte	num
 3647 078a 17       		.uleb128 0x17
 3648 078b 01       		.byte	0x1
 3649 078c 47060000 		.4byte	.LASF132
 3650 0790 01       		.byte	0x1
 3651 0791 D202     		.2byte	0x2d2
 3652 0793 01       		.byte	0x1
 3653 0794 FC0B0000 		.4byte	.LFB19
 3654 0798 080C0000 		.4byte	.LFE19
 3655 079c 02       		.byte	0x2
 3656 079d 7D       		.byte	0x7d
 3657 079e 00       		.sleb128 0
 3658 079f 01       		.byte	0x1
 3659 07a0 B3070000 		.4byte	0x7b3
 3660 07a4 18       		.uleb128 0x18
 3661 07a5 61646400 		.ascii	"add\000"
 3662 07a9 01       		.byte	0x1
 3663 07aa D202     		.2byte	0x2d2
 3664 07ac 37040000 		.4byte	0x437
 3665 07b0 01       		.byte	0x1
 3666 07b1 50       		.byte	0x50
 3667 07b2 00       		.byte	0
 3668 07b3 19       		.uleb128 0x19
 3669 07b4 01       		.byte	0x1
 3670 07b5 08020000 		.4byte	.LASF181
 3671 07b9 01       		.byte	0x1
 3672 07ba CC02     		.2byte	0x2cc
 3673 07bc 01       		.byte	0x1
 3674 07bd EC0B0000 		.4byte	.LFB18
 3675 07c1 FC0B0000 		.4byte	.LFE18
 3676 07c5 02       		.byte	0x2
 3677 07c6 7D       		.byte	0x7d
 3678 07c7 00       		.sleb128 0
 3679 07c8 01       		.byte	0x1
 3680 07c9 17       		.uleb128 0x17
 3681 07ca 01       		.byte	0x1
 3682 07cb 81080000 		.4byte	.LASF133
 3683 07cf 01       		.byte	0x1
ARM GAS  G:\Users\Jaxb\AppData\Local\Temp\ccRp9Rzk.s 			page 87


 3684 07d0 C702     		.2byte	0x2c7
 3685 07d2 01       		.byte	0x1
 3686 07d3 D80B0000 		.4byte	.LFB17
 3687 07d7 EC0B0000 		.4byte	.LFE17
 3688 07db 02       		.byte	0x2
 3689 07dc 7D       		.byte	0x7d
 3690 07dd 00       		.sleb128 0
 3691 07de 01       		.byte	0x1
 3692 07df F8070000 		.4byte	0x7f8
 3693 07e3 1A       		.uleb128 0x1a
 3694 07e4 E20B0000 		.4byte	.LVL276
 3695 07e8 01       		.byte	0x1
 3696 07e9 67150000 		.4byte	0x1567
 3697 07ed 1B       		.uleb128 0x1b
 3698 07ee 01       		.byte	0x1
 3699 07ef 50       		.byte	0x50
 3700 07f0 05       		.byte	0x5
 3701 07f1 03       		.byte	0x3
 3702 07f2 1C050000 		.4byte	.LC52
 3703 07f6 00       		.byte	0
 3704 07f7 00       		.byte	0
 3705 07f8 1C       		.uleb128 0x1c
 3706 07f9 01       		.byte	0x1
 3707 07fa CE030000 		.4byte	.LASF134
 3708 07fe 01       		.byte	0x1
 3709 07ff BB02     		.2byte	0x2bb
 3710 0801 01       		.byte	0x1
 3711 0802 B40B0000 		.4byte	.LFB16
 3712 0806 D80B0000 		.4byte	.LFE16
 3713 080a 00000000 		.4byte	.LLST63
 3714 080e 01       		.byte	0x1
 3715 080f 36080000 		.4byte	0x836
 3716 0813 1D       		.uleb128 0x1d
 3717 0814 6300     		.ascii	"c\000"
 3718 0816 01       		.byte	0x1
 3719 0817 BB02     		.2byte	0x2bb
 3720 0819 23050000 		.4byte	0x523
 3721 081d 44000000 		.4byte	.LLST64
 3722 0821 1A       		.uleb128 0x1a
 3723 0822 D00B0000 		.4byte	.LVL275
 3724 0826 01       		.byte	0x1
 3725 0827 67150000 		.4byte	0x1567
 3726 082b 1B       		.uleb128 0x1b
 3727 082c 01       		.byte	0x1
 3728 082d 50       		.byte	0x50
 3729 082e 05       		.byte	0x5
 3730 082f 03       		.byte	0x3
 3731 0830 08050000 		.4byte	.LC51
 3732 0834 00       		.byte	0
 3733 0835 00       		.byte	0
 3734 0836 1E       		.uleb128 0x1e
 3735 0837 01       		.byte	0x1
 3736 0838 95030000 		.4byte	.LASF137
 3737 083c 01       		.byte	0x1
 3738 083d 9B02     		.2byte	0x29b
 3739 083f 01       		.byte	0x1
 3740 0840 1D060000 		.4byte	0x61d
ARM GAS  G:\Users\Jaxb\AppData\Local\Temp\ccRp9Rzk.s 			page 88


 3741 0844 4C0B0000 		.4byte	.LFB15
 3742 0848 B40B0000 		.4byte	.LFE15
 3743 084c 65000000 		.4byte	.LLST60
 3744 0850 01       		.byte	0x1
 3745 0851 D3080000 		.4byte	0x8d3
 3746 0855 1F       		.uleb128 0x1f
 3747 0856 17010000 		.4byte	.LASF135
 3748 085a 01       		.byte	0x1
 3749 085b 9D02     		.2byte	0x29d
 3750 085d 1D060000 		.4byte	0x61d
 3751 0861 A9000000 		.4byte	.LLST61
 3752 0865 1F       		.uleb128 0x1f
 3753 0866 D7040000 		.4byte	.LASF136
 3754 086a 01       		.byte	0x1
 3755 086b 9E02     		.2byte	0x29e
 3756 086d 3E000000 		.4byte	0x3e
 3757 0871 EA000000 		.4byte	.LLST62
 3758 0875 20       		.uleb128 0x20
 3759 0876 540B0000 		.4byte	.LVL264
 3760 087a D3080000 		.4byte	0x8d3
 3761 087e 21       		.uleb128 0x21
 3762 087f 8C0B0000 		.4byte	.LVL266
 3763 0883 74150000 		.4byte	0x1574
 3764 0887 A8080000 		.4byte	0x8a8
 3765 088b 1B       		.uleb128 0x1b
 3766 088c 01       		.byte	0x1
 3767 088d 52       		.byte	0x52
 3768 088e 01       		.byte	0x1
 3769 088f 3A       		.byte	0x3a
 3770 0890 1B       		.uleb128 0x1b
 3771 0891 01       		.byte	0x1
 3772 0892 53       		.byte	0x53
 3773 0893 05       		.byte	0x5
 3774 0894 03       		.byte	0x3
 3775 0895 BC040000 		.4byte	.LC48
 3776 0899 1B       		.uleb128 0x1b
 3777 089a 02       		.byte	0x2
 3778 089b 7D       		.byte	0x7d
 3779 089c 04       		.sleb128 4
 3780 089d 02       		.byte	0x2
 3781 089e 75       		.byte	0x75
 3782 089f 00       		.sleb128 0
 3783 08a0 1B       		.uleb128 0x1b
 3784 08a1 02       		.byte	0x2
 3785 08a2 7D       		.byte	0x7d
 3786 08a3 08       		.sleb128 8
 3787 08a4 02       		.byte	0x2
 3788 08a5 75       		.byte	0x75
 3789 08a6 00       		.sleb128 0
 3790 08a7 00       		.byte	0
 3791 08a8 21       		.uleb128 0x21
 3792 08a9 940B0000 		.4byte	.LVL268
 3793 08ad 67150000 		.4byte	0x1567
 3794 08b1 BF080000 		.4byte	0x8bf
 3795 08b5 1B       		.uleb128 0x1b
 3796 08b6 01       		.byte	0x1
 3797 08b7 50       		.byte	0x50
ARM GAS  G:\Users\Jaxb\AppData\Local\Temp\ccRp9Rzk.s 			page 89


 3798 08b8 05       		.byte	0x5
 3799 08b9 03       		.byte	0x3
 3800 08ba CC040000 		.4byte	.LC49
 3801 08be 00       		.byte	0
 3802 08bf 22       		.uleb128 0x22
 3803 08c0 A40B0000 		.4byte	.LVL272
 3804 08c4 67150000 		.4byte	0x1567
 3805 08c8 1B       		.uleb128 0x1b
 3806 08c9 01       		.byte	0x1
 3807 08ca 50       		.byte	0x50
 3808 08cb 05       		.byte	0x5
 3809 08cc 03       		.byte	0x3
 3810 08cd E0040000 		.4byte	.LC50
 3811 08d1 00       		.byte	0
 3812 08d2 00       		.byte	0
 3813 08d3 1E       		.uleb128 0x1e
 3814 08d4 01       		.byte	0x1
 3815 08d5 F8030000 		.4byte	.LASF138
 3816 08d9 01       		.byte	0x1
 3817 08da 3F02     		.2byte	0x23f
 3818 08dc 01       		.byte	0x1
 3819 08dd 1D060000 		.4byte	0x61d
 3820 08e1 2C0A0000 		.4byte	.LFB14
 3821 08e5 4C0B0000 		.4byte	.LFE14
 3822 08e9 13010000 		.4byte	.LLST56
 3823 08ed 01       		.byte	0x1
 3824 08ee 3A0B0000 		.4byte	0xb3a
 3825 08f2 23       		.uleb128 0x23
 3826 08f3 72657400 		.ascii	"ret\000"
 3827 08f7 01       		.byte	0x1
 3828 08f8 4102     		.2byte	0x241
 3829 08fa 35070000 		.4byte	0x735
 3830 08fe 33010000 		.4byte	.LLST57
 3831 0902 24       		.uleb128 0x24
 3832 0903 A9010000 		.4byte	.LASF139
 3833 0907 01       		.byte	0x1
 3834 0908 4202     		.2byte	0x242
 3835 090a 3A0B0000 		.4byte	0xb3a
 3836 090e 01       		.byte	0x1
 3837 090f 54       		.byte	0x54
 3838 0910 1F       		.uleb128 0x1f
 3839 0911 17010000 		.4byte	.LASF135
 3840 0915 01       		.byte	0x1
 3841 0916 4302     		.2byte	0x243
 3842 0918 1D060000 		.4byte	0x61d
 3843 091c 75010000 		.4byte	.LLST58
 3844 0920 25       		.uleb128 0x25
 3845 0921 2B060000 		.4byte	.LASF182
 3846 0925 01       		.byte	0x1
 3847 0926 9002     		.2byte	0x290
 3848 0928 26       		.uleb128 0x26
 3849 0929 4E150000 		.4byte	0x154e
 3850 092d 9C0A0000 		.4byte	.LBB34
 3851 0931 A00A0000 		.4byte	.LBE34
 3852 0935 01       		.byte	0x1
 3853 0936 5C02     		.2byte	0x25c
 3854 0938 46090000 		.4byte	0x946
ARM GAS  G:\Users\Jaxb\AppData\Local\Temp\ccRp9Rzk.s 			page 90


 3855 093c 27       		.uleb128 0x27
 3856 093d 5B150000 		.4byte	0x155b
 3857 0941 C2010000 		.4byte	.LLST59
 3858 0945 00       		.byte	0
 3859 0946 21       		.uleb128 0x21
 3860 0947 3C0A0000 		.4byte	.LVL234
 3861 094b 81150000 		.4byte	0x1581
 3862 094f 68090000 		.4byte	0x968
 3863 0953 1B       		.uleb128 0x1b
 3864 0954 01       		.byte	0x1
 3865 0955 50       		.byte	0x50
 3866 0956 02       		.byte	0x2
 3867 0957 74       		.byte	0x74
 3868 0958 00       		.sleb128 0
 3869 0959 1B       		.uleb128 0x1b
 3870 095a 01       		.byte	0x1
 3871 095b 51       		.byte	0x51
 3872 095c 05       		.byte	0x5
 3873 095d 03       		.byte	0x3
 3874 095e 20040000 		.4byte	.LC38
 3875 0962 1B       		.uleb128 0x1b
 3876 0963 01       		.byte	0x1
 3877 0964 52       		.byte	0x52
 3878 0965 01       		.byte	0x1
 3879 0966 34       		.byte	0x34
 3880 0967 00       		.byte	0
 3881 0968 21       		.uleb128 0x21
 3882 0969 4A0A0000 		.4byte	.LVL235
 3883 096d 67150000 		.4byte	0x1567
 3884 0971 7F090000 		.4byte	0x97f
 3885 0975 1B       		.uleb128 0x1b
 3886 0976 01       		.byte	0x1
 3887 0977 50       		.byte	0x50
 3888 0978 05       		.byte	0x5
 3889 0979 03       		.byte	0x3
 3890 097a 4C040000 		.4byte	.LC42
 3891 097e 00       		.byte	0
 3892 097f 21       		.uleb128 0x21
 3893 0980 500A0000 		.4byte	.LVL236
 3894 0984 67150000 		.4byte	0x1567
 3895 0988 96090000 		.4byte	0x996
 3896 098c 1B       		.uleb128 0x1b
 3897 098d 01       		.byte	0x1
 3898 098e 50       		.byte	0x50
 3899 098f 05       		.byte	0x5
 3900 0990 03       		.byte	0x3
 3901 0991 48040000 		.4byte	.LC41
 3902 0995 00       		.byte	0
 3903 0996 21       		.uleb128 0x21
 3904 0997 560A0000 		.4byte	.LVL237
 3905 099b 8E150000 		.4byte	0x158e
 3906 099f AA090000 		.4byte	0x9aa
 3907 09a3 1B       		.uleb128 0x1b
 3908 09a4 01       		.byte	0x1
 3909 09a5 50       		.byte	0x50
 3910 09a6 02       		.byte	0x2
 3911 09a7 74       		.byte	0x74
ARM GAS  G:\Users\Jaxb\AppData\Local\Temp\ccRp9Rzk.s 			page 91


 3912 09a8 00       		.sleb128 0
 3913 09a9 00       		.byte	0
 3914 09aa 21       		.uleb128 0x21
 3915 09ab 660A0000 		.4byte	.LVL240
 3916 09af 81150000 		.4byte	0x1581
 3917 09b3 CC090000 		.4byte	0x9cc
 3918 09b7 1B       		.uleb128 0x1b
 3919 09b8 01       		.byte	0x1
 3920 09b9 50       		.byte	0x50
 3921 09ba 02       		.byte	0x2
 3922 09bb 74       		.byte	0x74
 3923 09bc 00       		.sleb128 0
 3924 09bd 1B       		.uleb128 0x1b
 3925 09be 01       		.byte	0x1
 3926 09bf 51       		.byte	0x51
 3927 09c0 05       		.byte	0x5
 3928 09c1 03       		.byte	0x3
 3929 09c2 28040000 		.4byte	.LC39
 3930 09c6 1B       		.uleb128 0x1b
 3931 09c7 01       		.byte	0x1
 3932 09c8 52       		.byte	0x52
 3933 09c9 01       		.byte	0x1
 3934 09ca 34       		.byte	0x34
 3935 09cb 00       		.byte	0
 3936 09cc 21       		.uleb128 0x21
 3937 09cd 700A0000 		.4byte	.LVL241
 3938 09d1 67150000 		.4byte	0x1567
 3939 09d5 E3090000 		.4byte	0x9e3
 3940 09d9 1B       		.uleb128 0x1b
 3941 09da 01       		.byte	0x1
 3942 09db 50       		.byte	0x50
 3943 09dc 05       		.byte	0x5
 3944 09dd 03       		.byte	0x3
 3945 09de 30040000 		.4byte	.LC40
 3946 09e2 00       		.byte	0
 3947 09e3 21       		.uleb128 0x21
 3948 09e4 760A0000 		.4byte	.LVL242
 3949 09e8 67150000 		.4byte	0x1567
 3950 09ec FA090000 		.4byte	0x9fa
 3951 09f0 1B       		.uleb128 0x1b
 3952 09f1 01       		.byte	0x1
 3953 09f2 50       		.byte	0x50
 3954 09f3 05       		.byte	0x5
 3955 09f4 03       		.byte	0x3
 3956 09f5 48040000 		.4byte	.LC41
 3957 09f9 00       		.byte	0
 3958 09fa 21       		.uleb128 0x21
 3959 09fb 7E0A0000 		.4byte	.LVL243
 3960 09ff 8E150000 		.4byte	0x158e
 3961 0a03 0E0A0000 		.4byte	0xa0e
 3962 0a07 1B       		.uleb128 0x1b
 3963 0a08 01       		.byte	0x1
 3964 0a09 50       		.byte	0x50
 3965 0a0a 02       		.byte	0x2
 3966 0a0b 74       		.byte	0x74
 3967 0a0c 00       		.sleb128 0
 3968 0a0d 00       		.byte	0
ARM GAS  G:\Users\Jaxb\AppData\Local\Temp\ccRp9Rzk.s 			page 92


 3969 0a0e 21       		.uleb128 0x21
 3970 0a0f 880A0000 		.4byte	.LVL244
 3971 0a13 9B150000 		.4byte	0x159b
 3972 0a17 220A0000 		.4byte	0xa22
 3973 0a1b 1B       		.uleb128 0x1b
 3974 0a1c 01       		.byte	0x1
 3975 0a1d 50       		.byte	0x50
 3976 0a1e 02       		.byte	0x2
 3977 0a1f 08       		.byte	0x8
 3978 0a20 4C       		.byte	0x4c
 3979 0a21 00       		.byte	0
 3980 0a22 21       		.uleb128 0x21
 3981 0a23 AA0A0000 		.4byte	.LVL248
 3982 0a27 67150000 		.4byte	0x1567
 3983 0a2b 3F0A0000 		.4byte	0xa3f
 3984 0a2f 1B       		.uleb128 0x1b
 3985 0a30 01       		.byte	0x1
 3986 0a31 50       		.byte	0x50
 3987 0a32 05       		.byte	0x5
 3988 0a33 03       		.byte	0x3
 3989 0a34 68040000 		.4byte	.LC43
 3990 0a38 1B       		.uleb128 0x1b
 3991 0a39 01       		.byte	0x1
 3992 0a3a 51       		.byte	0x51
 3993 0a3b 02       		.byte	0x2
 3994 0a3c 75       		.byte	0x75
 3995 0a3d 00       		.sleb128 0
 3996 0a3e 00       		.byte	0
 3997 0a3f 21       		.uleb128 0x21
 3998 0a40 B60A0000 		.4byte	.LVL249
 3999 0a44 67150000 		.4byte	0x1567
 4000 0a48 560A0000 		.4byte	0xa56
 4001 0a4c 1B       		.uleb128 0x1b
 4002 0a4d 01       		.byte	0x1
 4003 0a4e 50       		.byte	0x50
 4004 0a4f 05       		.byte	0x5
 4005 0a50 03       		.byte	0x3
 4006 0a51 94040000 		.4byte	.LC45
 4007 0a55 00       		.byte	0
 4008 0a56 21       		.uleb128 0x21
 4009 0a57 BC0A0000 		.4byte	.LVL250
 4010 0a5b 67150000 		.4byte	0x1567
 4011 0a5f 6D0A0000 		.4byte	0xa6d
 4012 0a63 1B       		.uleb128 0x1b
 4013 0a64 01       		.byte	0x1
 4014 0a65 50       		.byte	0x50
 4015 0a66 05       		.byte	0x5
 4016 0a67 03       		.byte	0x3
 4017 0a68 48040000 		.4byte	.LC41
 4018 0a6c 00       		.byte	0
 4019 0a6d 21       		.uleb128 0x21
 4020 0a6e C20A0000 		.4byte	.LVL251
 4021 0a72 8E150000 		.4byte	0x158e
 4022 0a76 810A0000 		.4byte	0xa81
 4023 0a7a 1B       		.uleb128 0x1b
 4024 0a7b 01       		.byte	0x1
 4025 0a7c 50       		.byte	0x50
ARM GAS  G:\Users\Jaxb\AppData\Local\Temp\ccRp9Rzk.s 			page 93


 4026 0a7d 02       		.byte	0x2
 4027 0a7e 74       		.byte	0x74
 4028 0a7f 00       		.sleb128 0
 4029 0a80 00       		.byte	0
 4030 0a81 21       		.uleb128 0x21
 4031 0a82 CC0A0000 		.4byte	.LVL252
 4032 0a86 A8150000 		.4byte	0x15a8
 4033 0a8a 9F0A0000 		.4byte	0xa9f
 4034 0a8e 1B       		.uleb128 0x1b
 4035 0a8f 01       		.byte	0x1
 4036 0a90 50       		.byte	0x50
 4037 0a91 05       		.byte	0x5
 4038 0a92 03       		.byte	0x3
 4039 0a93 CC000000 		.4byte	.LC6
 4040 0a97 1B       		.uleb128 0x1b
 4041 0a98 01       		.byte	0x1
 4042 0a99 51       		.byte	0x51
 4043 0a9a 03       		.byte	0x3
 4044 0a9b 0A       		.byte	0xa
 4045 0a9c 9502     		.2byte	0x295
 4046 0a9e 00       		.byte	0
 4047 0a9f 21       		.uleb128 0x21
 4048 0aa0 D80A0000 		.4byte	.LVL254
 4049 0aa4 67150000 		.4byte	0x1567
 4050 0aa8 B60A0000 		.4byte	0xab6
 4051 0aac 1B       		.uleb128 0x1b
 4052 0aad 01       		.byte	0x1
 4053 0aae 50       		.byte	0x50
 4054 0aaf 05       		.byte	0x5
 4055 0ab0 03       		.byte	0x3
 4056 0ab1 48040000 		.4byte	.LC41
 4057 0ab5 00       		.byte	0
 4058 0ab6 21       		.uleb128 0x21
 4059 0ab7 DE0A0000 		.4byte	.LVL255
 4060 0abb 8E150000 		.4byte	0x158e
 4061 0abf CA0A0000 		.4byte	0xaca
 4062 0ac3 1B       		.uleb128 0x1b
 4063 0ac4 01       		.byte	0x1
 4064 0ac5 50       		.byte	0x50
 4065 0ac6 02       		.byte	0x2
 4066 0ac7 74       		.byte	0x74
 4067 0ac8 00       		.sleb128 0
 4068 0ac9 00       		.byte	0
 4069 0aca 21       		.uleb128 0x21
 4070 0acb E80A0000 		.4byte	.LVL257
 4071 0acf 67150000 		.4byte	0x1567
 4072 0ad3 E10A0000 		.4byte	0xae1
 4073 0ad7 1B       		.uleb128 0x1b
 4074 0ad8 01       		.byte	0x1
 4075 0ad9 50       		.byte	0x50
 4076 0ada 05       		.byte	0x5
 4077 0adb 03       		.byte	0x3
 4078 0adc 7C040000 		.4byte	.LC44
 4079 0ae0 00       		.byte	0
 4080 0ae1 21       		.uleb128 0x21
 4081 0ae2 F00A0000 		.4byte	.LVL258
 4082 0ae6 400B0000 		.4byte	0xb40
ARM GAS  G:\Users\Jaxb\AppData\Local\Temp\ccRp9Rzk.s 			page 94


 4083 0aea FB0A0000 		.4byte	0xafb
 4084 0aee 1B       		.uleb128 0x1b
 4085 0aef 01       		.byte	0x1
 4086 0af0 50       		.byte	0x50
 4087 0af1 02       		.byte	0x2
 4088 0af2 75       		.byte	0x75
 4089 0af3 00       		.sleb128 0
 4090 0af4 1B       		.uleb128 0x1b
 4091 0af5 01       		.byte	0x1
 4092 0af6 51       		.byte	0x51
 4093 0af7 02       		.byte	0x2
 4094 0af8 74       		.byte	0x74
 4095 0af9 00       		.sleb128 0
 4096 0afa 00       		.byte	0
 4097 0afb 21       		.uleb128 0x21
 4098 0afc FC0A0000 		.4byte	.LVL260
 4099 0b00 67150000 		.4byte	0x1567
 4100 0b04 120B0000 		.4byte	0xb12
 4101 0b08 1B       		.uleb128 0x1b
 4102 0b09 01       		.byte	0x1
 4103 0b0a 50       		.byte	0x50
 4104 0b0b 05       		.byte	0x5
 4105 0b0c 03       		.byte	0x3
 4106 0b0d B4040000 		.4byte	.LC46
 4107 0b11 00       		.byte	0
 4108 0b12 21       		.uleb128 0x21
 4109 0b13 020B0000 		.4byte	.LVL261
 4110 0b17 8E150000 		.4byte	0x158e
 4111 0b1b 260B0000 		.4byte	0xb26
 4112 0b1f 1B       		.uleb128 0x1b
 4113 0b20 01       		.byte	0x1
 4114 0b21 50       		.byte	0x50
 4115 0b22 02       		.byte	0x2
 4116 0b23 74       		.byte	0x74
 4117 0b24 00       		.sleb128 0
 4118 0b25 00       		.byte	0
 4119 0b26 22       		.uleb128 0x22
 4120 0b27 080B0000 		.4byte	.LVL262
 4121 0b2b 67150000 		.4byte	0x1567
 4122 0b2f 1B       		.uleb128 0x1b
 4123 0b30 01       		.byte	0x1
 4124 0b31 50       		.byte	0x50
 4125 0b32 05       		.byte	0x5
 4126 0b33 03       		.byte	0x3
 4127 0b34 B8040000 		.4byte	.LC47
 4128 0b38 00       		.byte	0
 4129 0b39 00       		.byte	0
 4130 0b3a 0B       		.uleb128 0xb
 4131 0b3b 04       		.byte	0x4
 4132 0b3c 51000000 		.4byte	0x51
 4133 0b40 1E       		.uleb128 0x1e
 4134 0b41 01       		.byte	0x1
 4135 0b42 08000000 		.4byte	.LASF140
 4136 0b46 01       		.byte	0x1
 4137 0b47 6B01     		.2byte	0x16b
 4138 0b49 01       		.byte	0x1
 4139 0b4a 35070000 		.4byte	0x735
ARM GAS  G:\Users\Jaxb\AppData\Local\Temp\ccRp9Rzk.s 			page 95


 4140 0b4e 58060000 		.4byte	.LFB13
 4141 0b52 2C0A0000 		.4byte	.LFE13
 4142 0b56 D5010000 		.4byte	.LLST37
 4143 0b5a 01       		.byte	0x1
 4144 0b5b 260F0000 		.4byte	0xf26
 4145 0b5f 28       		.uleb128 0x28
 4146 0b60 17010000 		.4byte	.LASF135
 4147 0b64 01       		.byte	0x1
 4148 0b65 6B01     		.2byte	0x16b
 4149 0b67 1D060000 		.4byte	0x61d
 4150 0b6b 1B020000 		.4byte	.LLST38
 4151 0b6f 28       		.uleb128 0x28
 4152 0b70 A9010000 		.4byte	.LASF139
 4153 0b74 01       		.byte	0x1
 4154 0b75 6B01     		.2byte	0x16b
 4155 0b77 37040000 		.4byte	0x437
 4156 0b7b 69020000 		.4byte	.LLST39
 4157 0b7f 1F       		.uleb128 0x1f
 4158 0b80 40070000 		.4byte	.LASF141
 4159 0b84 01       		.byte	0x1
 4160 0b85 6D01     		.2byte	0x16d
 4161 0b87 75000000 		.4byte	0x75
 4162 0b8b B3020000 		.4byte	.LLST40
 4163 0b8f 1F       		.uleb128 0x1f
 4164 0b90 2F080000 		.4byte	.LASF142
 4165 0b94 01       		.byte	0x1
 4166 0b95 6D01     		.2byte	0x16d
 4167 0b97 75000000 		.4byte	0x75
 4168 0b9b 18030000 		.4byte	.LLST41
 4169 0b9f 1F       		.uleb128 0x1f
 4170 0ba0 73020000 		.4byte	.LASF143
 4171 0ba4 01       		.byte	0x1
 4172 0ba5 6D01     		.2byte	0x16d
 4173 0ba7 75000000 		.4byte	0x75
 4174 0bab 5B030000 		.4byte	.LLST42
 4175 0baf 1F       		.uleb128 0x1f
 4176 0bb0 B7030000 		.4byte	.LASF144
 4177 0bb4 01       		.byte	0x1
 4178 0bb5 6D01     		.2byte	0x16d
 4179 0bb7 75000000 		.4byte	0x75
 4180 0bbb 92030000 		.4byte	.LLST43
 4181 0bbf 1F       		.uleb128 0x1f
 4182 0bc0 C1040000 		.4byte	.LASF145
 4183 0bc4 01       		.byte	0x1
 4184 0bc5 6E01     		.2byte	0x16e
 4185 0bc7 75000000 		.4byte	0x75
 4186 0bcb ED030000 		.4byte	.LLST44
 4187 0bcf 1F       		.uleb128 0x1f
 4188 0bd0 9D010000 		.4byte	.LASF146
 4189 0bd4 01       		.byte	0x1
 4190 0bd5 6E01     		.2byte	0x16e
 4191 0bd7 75000000 		.4byte	0x75
 4192 0bdb 0E040000 		.4byte	.LLST45
 4193 0bdf 23       		.uleb128 0x23
 4194 0be0 70747200 		.ascii	"ptr\000"
 4195 0be4 01       		.byte	0x1
 4196 0be5 6F01     		.2byte	0x16f
ARM GAS  G:\Users\Jaxb\AppData\Local\Temp\ccRp9Rzk.s 			page 96


 4197 0be7 3A0B0000 		.4byte	0xb3a
 4198 0beb 43040000 		.4byte	.LLST46
 4199 0bef 1F       		.uleb128 0x1f
 4200 0bf0 02030000 		.4byte	.LASF147
 4201 0bf4 01       		.byte	0x1
 4202 0bf5 6F01     		.2byte	0x16f
 4203 0bf7 3A0B0000 		.4byte	0xb3a
 4204 0bfb 6C040000 		.4byte	.LLST47
 4205 0bff 1F       		.uleb128 0x1f
 4206 0c00 C1050000 		.4byte	.LASF148
 4207 0c04 01       		.byte	0x1
 4208 0c05 6F01     		.2byte	0x16f
 4209 0c07 3A0B0000 		.4byte	0xb3a
 4210 0c0b 7F040000 		.4byte	.LLST48
 4211 0c0f 29       		.uleb128 0x29
 4212 0c10 90000000 		.4byte	.Ldebug_ranges0+0x90
 4213 0c14 EA0D0000 		.4byte	0xdea
 4214 0c18 23       		.uleb128 0x23
 4215 0c19 6900     		.ascii	"i\000"
 4216 0c1b 01       		.byte	0x1
 4217 0c1c D201     		.2byte	0x1d2
 4218 0c1e 75000000 		.4byte	0x75
 4219 0c22 9E040000 		.4byte	.LLST49
 4220 0c26 1F       		.uleb128 0x1f
 4221 0c27 E7080000 		.4byte	.LASF149
 4222 0c2b 01       		.byte	0x1
 4223 0c2c D201     		.2byte	0x1d2
 4224 0c2e 75000000 		.4byte	0x75
 4225 0c32 B2040000 		.4byte	.LLST50
 4226 0c36 1F       		.uleb128 0x1f
 4227 0c37 76000000 		.4byte	.LASF123
 4228 0c3b 01       		.byte	0x1
 4229 0c3c D301     		.2byte	0x1d3
 4230 0c3e 260F0000 		.4byte	0xf26
 4231 0c42 D4040000 		.4byte	.LLST51
 4232 0c46 23       		.uleb128 0x23
 4233 0c47 72656C00 		.ascii	"rel\000"
 4234 0c4b 01       		.byte	0x1
 4235 0c4c D401     		.2byte	0x1d4
 4236 0c4e 2C0F0000 		.4byte	0xf2c
 4237 0c52 4B050000 		.4byte	.LLST52
 4238 0c56 2A       		.uleb128 0x2a
 4239 0c57 A8000000 		.4byte	.Ldebug_ranges0+0xa8
 4240 0c5b 23       		.uleb128 0x23
 4241 0c5c 73796D00 		.ascii	"sym\000"
 4242 0c60 01       		.byte	0x1
 4243 0c61 E801     		.2byte	0x1e8
 4244 0c63 260F0000 		.4byte	0xf26
 4245 0c67 76050000 		.4byte	.LLST53
 4246 0c6b 29       		.uleb128 0x29
 4247 0c6c 00010000 		.4byte	.Ldebug_ranges0+0x100
 4248 0c70 350D0000 		.4byte	0xd35
 4249 0c74 1F       		.uleb128 0x1f
 4250 0c75 12010000 		.4byte	.LASF100
 4251 0c79 01       		.byte	0x1
 4252 0c7a EE01     		.2byte	0x1ee
 4253 0c7c 99000000 		.4byte	0x99
ARM GAS  G:\Users\Jaxb\AppData\Local\Temp\ccRp9Rzk.s 			page 97


 4254 0c80 DA050000 		.4byte	.LLST55
 4255 0c84 21       		.uleb128 0x21
 4256 0c85 E4080000 		.4byte	.LVL205
 4257 0c89 81150000 		.4byte	0x1581
 4258 0c8d A00C0000 		.4byte	0xca0
 4259 0c91 1B       		.uleb128 0x1b
 4260 0c92 01       		.byte	0x1
 4261 0c93 51       		.byte	0x51
 4262 0c94 05       		.byte	0x5
 4263 0c95 03       		.byte	0x3
 4264 0c96 AC030000 		.4byte	.LC30
 4265 0c9a 1B       		.uleb128 0x1b
 4266 0c9b 01       		.byte	0x1
 4267 0c9c 52       		.byte	0x52
 4268 0c9d 01       		.byte	0x1
 4269 0c9e 38       		.byte	0x38
 4270 0c9f 00       		.byte	0
 4271 0ca0 21       		.uleb128 0x21
 4272 0ca1 EC080000 		.4byte	.LVL206
 4273 0ca5 67150000 		.4byte	0x1567
 4274 0ca9 B70C0000 		.4byte	0xcb7
 4275 0cad 1B       		.uleb128 0x1b
 4276 0cae 01       		.byte	0x1
 4277 0caf 50       		.byte	0x50
 4278 0cb0 05       		.byte	0x5
 4279 0cb1 03       		.byte	0x3
 4280 0cb2 B4030000 		.4byte	.LC31
 4281 0cb6 00       		.byte	0
 4282 0cb7 21       		.uleb128 0x21
 4283 0cb8 00090000 		.4byte	.LVL208
 4284 0cbc 6C130000 		.4byte	0x136c
 4285 0cc0 D20C0000 		.4byte	0xcd2
 4286 0cc4 1B       		.uleb128 0x1b
 4287 0cc5 01       		.byte	0x1
 4288 0cc6 50       		.byte	0x50
 4289 0cc7 03       		.byte	0x3
 4290 0cc8 91       		.byte	0x91
 4291 0cc9 44       		.sleb128 -60
 4292 0cca 06       		.byte	0x6
 4293 0ccb 1B       		.uleb128 0x1b
 4294 0ccc 01       		.byte	0x1
 4295 0ccd 51       		.byte	0x51
 4296 0cce 02       		.byte	0x2
 4297 0ccf 75       		.byte	0x75
 4298 0cd0 00       		.sleb128 0
 4299 0cd1 00       		.byte	0
 4300 0cd2 21       		.uleb128 0x21
 4301 0cd3 2A090000 		.4byte	.LVL213
 4302 0cd7 81150000 		.4byte	0x1581
 4303 0cdb EE0C0000 		.4byte	0xcee
 4304 0cdf 1B       		.uleb128 0x1b
 4305 0ce0 01       		.byte	0x1
 4306 0ce1 51       		.byte	0x51
 4307 0ce2 05       		.byte	0x5
 4308 0ce3 03       		.byte	0x3
 4309 0ce4 BC030000 		.4byte	.LC32
 4310 0ce8 1B       		.uleb128 0x1b
ARM GAS  G:\Users\Jaxb\AppData\Local\Temp\ccRp9Rzk.s 			page 98


 4311 0ce9 01       		.byte	0x1
 4312 0cea 52       		.byte	0x52
 4313 0ceb 01       		.byte	0x1
 4314 0cec 35       		.byte	0x35
 4315 0ced 00       		.byte	0
 4316 0cee 21       		.uleb128 0x21
 4317 0cef 32090000 		.4byte	.LVL214
 4318 0cf3 67150000 		.4byte	0x1567
 4319 0cf7 050D0000 		.4byte	0xd05
 4320 0cfb 1B       		.uleb128 0x1b
 4321 0cfc 01       		.byte	0x1
 4322 0cfd 50       		.byte	0x50
 4323 0cfe 05       		.byte	0x5
 4324 0cff 03       		.byte	0x3
 4325 0d00 C4030000 		.4byte	.LC33
 4326 0d04 00       		.byte	0
 4327 0d05 21       		.uleb128 0x21
 4328 0d06 58090000 		.4byte	.LVL217
 4329 0d0a 81150000 		.4byte	0x1581
 4330 0d0e 210D0000 		.4byte	0xd21
 4331 0d12 1B       		.uleb128 0x1b
 4332 0d13 01       		.byte	0x1
 4333 0d14 51       		.byte	0x51
 4334 0d15 05       		.byte	0x5
 4335 0d16 03       		.byte	0x3
 4336 0d17 CC030000 		.4byte	.LC34
 4337 0d1b 1B       		.uleb128 0x1b
 4338 0d1c 01       		.byte	0x1
 4339 0d1d 52       		.byte	0x52
 4340 0d1e 01       		.byte	0x1
 4341 0d1f 36       		.byte	0x36
 4342 0d20 00       		.byte	0
 4343 0d21 22       		.uleb128 0x22
 4344 0d22 64090000 		.4byte	.LVL218
 4345 0d26 67150000 		.4byte	0x1567
 4346 0d2a 1B       		.uleb128 0x1b
 4347 0d2b 01       		.byte	0x1
 4348 0d2c 50       		.byte	0x50
 4349 0d2d 05       		.byte	0x5
 4350 0d2e 03       		.byte	0x3
 4351 0d2f D4030000 		.4byte	.LC35
 4352 0d33 00       		.byte	0
 4353 0d34 00       		.byte	0
 4354 0d35 29       		.uleb128 0x29
 4355 0d36 D0000000 		.4byte	.Ldebug_ranges0+0xd0
 4356 0d3a D80D0000 		.4byte	0xdd8
 4357 0d3e 1F       		.uleb128 0x1f
 4358 0d3f 12010000 		.4byte	.LASF100
 4359 0d43 01       		.byte	0x1
 4360 0d44 1E02     		.2byte	0x21e
 4361 0d46 99000000 		.4byte	0x99
 4362 0d4a 33060000 		.4byte	.LLST54
 4363 0d4e 21       		.uleb128 0x21
 4364 0d4f 88080000 		.4byte	.LVL192
 4365 0d53 67150000 		.4byte	0x1567
 4366 0d57 620D0000 		.4byte	0xd62
 4367 0d5b 1B       		.uleb128 0x1b
ARM GAS  G:\Users\Jaxb\AppData\Local\Temp\ccRp9Rzk.s 			page 99


 4368 0d5c 01       		.byte	0x1
 4369 0d5d 50       		.byte	0x50
 4370 0d5e 02       		.byte	0x2
 4371 0d5f 7B       		.byte	0x7b
 4372 0d60 00       		.sleb128 0
 4373 0d61 00       		.byte	0
 4374 0d62 20       		.uleb128 0x20
 4375 0d63 90080000 		.4byte	.LVL193
 4376 0d67 01150000 		.4byte	0x1501
 4377 0d6b 21       		.uleb128 0x21
 4378 0d6c A0080000 		.4byte	.LVL196
 4379 0d70 6C130000 		.4byte	0x136c
 4380 0d74 8C0D0000 		.4byte	0xd8c
 4381 0d78 1B       		.uleb128 0x1b
 4382 0d79 01       		.byte	0x1
 4383 0d7a 50       		.byte	0x50
 4384 0d7b 03       		.byte	0x3
 4385 0d7c 91       		.byte	0x91
 4386 0d7d 44       		.sleb128 -60
 4387 0d7e 06       		.byte	0x6
 4388 0d7f 1B       		.uleb128 0x1b
 4389 0d80 01       		.byte	0x1
 4390 0d81 51       		.byte	0x51
 4391 0d82 02       		.byte	0x2
 4392 0d83 75       		.byte	0x75
 4393 0d84 00       		.sleb128 0
 4394 0d85 1B       		.uleb128 0x1b
 4395 0d86 01       		.byte	0x1
 4396 0d87 52       		.byte	0x52
 4397 0d88 02       		.byte	0x2
 4398 0d89 79       		.byte	0x79
 4399 0d8a 00       		.sleb128 0
 4400 0d8b 00       		.byte	0
 4401 0d8c 21       		.uleb128 0x21
 4402 0d8d AA080000 		.4byte	.LVL198
 4403 0d91 67150000 		.4byte	0x1567
 4404 0d95 A90D0000 		.4byte	0xda9
 4405 0d99 1B       		.uleb128 0x1b
 4406 0d9a 01       		.byte	0x1
 4407 0d9b 50       		.byte	0x50
 4408 0d9c 05       		.byte	0x5
 4409 0d9d 03       		.byte	0x3
 4410 0d9e DC030000 		.4byte	.LC36
 4411 0da2 1B       		.uleb128 0x1b
 4412 0da3 01       		.byte	0x1
 4413 0da4 51       		.byte	0x51
 4414 0da5 02       		.byte	0x2
 4415 0da6 79       		.byte	0x79
 4416 0da7 00       		.sleb128 0
 4417 0da8 00       		.byte	0
 4418 0da9 21       		.uleb128 0x21
 4419 0daa CA080000 		.4byte	.LVL203
 4420 0dae 6C130000 		.4byte	0x136c
 4421 0db2 C40D0000 		.4byte	0xdc4
 4422 0db6 1B       		.uleb128 0x1b
 4423 0db7 01       		.byte	0x1
 4424 0db8 50       		.byte	0x50
ARM GAS  G:\Users\Jaxb\AppData\Local\Temp\ccRp9Rzk.s 			page 100


 4425 0db9 03       		.byte	0x3
 4426 0dba 91       		.byte	0x91
 4427 0dbb 44       		.sleb128 -60
 4428 0dbc 06       		.byte	0x6
 4429 0dbd 1B       		.uleb128 0x1b
 4430 0dbe 01       		.byte	0x1
 4431 0dbf 51       		.byte	0x51
 4432 0dc0 02       		.byte	0x2
 4433 0dc1 75       		.byte	0x75
 4434 0dc2 00       		.sleb128 0
 4435 0dc3 00       		.byte	0
 4436 0dc4 22       		.uleb128 0x22
 4437 0dc5 0C090000 		.4byte	.LVL211
 4438 0dc9 67150000 		.4byte	0x1567
 4439 0dcd 1B       		.uleb128 0x1b
 4440 0dce 01       		.byte	0x1
 4441 0dcf 50       		.byte	0x50
 4442 0dd0 05       		.byte	0x5
 4443 0dd1 03       		.byte	0x3
 4444 0dd2 F0030000 		.4byte	.LC37
 4445 0dd6 00       		.byte	0
 4446 0dd7 00       		.byte	0
 4447 0dd8 22       		.uleb128 0x22
 4448 0dd9 64080000 		.4byte	.LVL191
 4449 0ddd 67150000 		.4byte	0x1567
 4450 0de1 1B       		.uleb128 0x1b
 4451 0de2 01       		.byte	0x1
 4452 0de3 50       		.byte	0x50
 4453 0de4 02       		.byte	0x2
 4454 0de5 7B       		.byte	0x7b
 4455 0de6 00       		.sleb128 0
 4456 0de7 00       		.byte	0
 4457 0de8 00       		.byte	0
 4458 0de9 00       		.byte	0
 4459 0dea 21       		.uleb128 0x21
 4460 0deb CC060000 		.4byte	.LVL163
 4461 0def 67150000 		.4byte	0x1567
 4462 0df3 070E0000 		.4byte	0xe07
 4463 0df7 1B       		.uleb128 0x1b
 4464 0df8 01       		.byte	0x1
 4465 0df9 50       		.byte	0x50
 4466 0dfa 05       		.byte	0x5
 4467 0dfb 03       		.byte	0x3
 4468 0dfc E4020000 		.4byte	.LC23
 4469 0e00 1B       		.uleb128 0x1b
 4470 0e01 01       		.byte	0x1
 4471 0e02 51       		.byte	0x51
 4472 0e03 02       		.byte	0x2
 4473 0e04 75       		.byte	0x75
 4474 0e05 00       		.sleb128 0
 4475 0e06 00       		.byte	0
 4476 0e07 21       		.uleb128 0x21
 4477 0e08 D2060000 		.4byte	.LVL164
 4478 0e0c 9B150000 		.4byte	0x159b
 4479 0e10 1B0E0000 		.4byte	0xe1b
 4480 0e14 1B       		.uleb128 0x1b
 4481 0e15 01       		.byte	0x1
ARM GAS  G:\Users\Jaxb\AppData\Local\Temp\ccRp9Rzk.s 			page 101


 4482 0e16 50       		.byte	0x50
 4483 0e17 02       		.byte	0x2
 4484 0e18 75       		.byte	0x75
 4485 0e19 00       		.sleb128 0
 4486 0e1a 00       		.byte	0
 4487 0e1b 21       		.uleb128 0x21
 4488 0e1c EA060000 		.4byte	.LVL166
 4489 0e20 B5150000 		.4byte	0x15b5
 4490 0e24 3B0E0000 		.4byte	0xe3b
 4491 0e28 1B       		.uleb128 0x1b
 4492 0e29 01       		.byte	0x1
 4493 0e2a 50       		.byte	0x50
 4494 0e2b 02       		.byte	0x2
 4495 0e2c 77       		.byte	0x77
 4496 0e2d 00       		.sleb128 0
 4497 0e2e 1B       		.uleb128 0x1b
 4498 0e2f 01       		.byte	0x1
 4499 0e30 51       		.byte	0x51
 4500 0e31 02       		.byte	0x2
 4501 0e32 76       		.byte	0x76
 4502 0e33 00       		.sleb128 0
 4503 0e34 1B       		.uleb128 0x1b
 4504 0e35 01       		.byte	0x1
 4505 0e36 52       		.byte	0x52
 4506 0e37 02       		.byte	0x2
 4507 0e38 75       		.byte	0x75
 4508 0e39 00       		.sleb128 0
 4509 0e3a 00       		.byte	0
 4510 0e3b 21       		.uleb128 0x21
 4511 0e3c 50070000 		.4byte	.LVL170
 4512 0e40 C2150000 		.4byte	0x15c2
 4513 0e44 4F0E0000 		.4byte	0xe4f
 4514 0e48 1B       		.uleb128 0x1b
 4515 0e49 01       		.byte	0x1
 4516 0e4a 50       		.byte	0x50
 4517 0e4b 02       		.byte	0x2
 4518 0e4c 77       		.byte	0x77
 4519 0e4d 00       		.sleb128 0
 4520 0e4e 00       		.byte	0
 4521 0e4f 21       		.uleb128 0x21
 4522 0e50 62070000 		.4byte	.LVL171
 4523 0e54 67150000 		.4byte	0x1567
 4524 0e58 690E0000 		.4byte	0xe69
 4525 0e5c 1B       		.uleb128 0x1b
 4526 0e5d 01       		.byte	0x1
 4527 0e5e 50       		.byte	0x50
 4528 0e5f 02       		.byte	0x2
 4529 0e60 7A       		.byte	0x7a
 4530 0e61 00       		.sleb128 0
 4531 0e62 1B       		.uleb128 0x1b
 4532 0e63 01       		.byte	0x1
 4533 0e64 51       		.byte	0x51
 4534 0e65 02       		.byte	0x2
 4535 0e66 77       		.byte	0x77
 4536 0e67 00       		.sleb128 0
 4537 0e68 00       		.byte	0
 4538 0e69 21       		.uleb128 0x21
ARM GAS  G:\Users\Jaxb\AppData\Local\Temp\ccRp9Rzk.s 			page 102


 4539 0e6a 88070000 		.4byte	.LVL174
 4540 0e6e B5150000 		.4byte	0x15b5
 4541 0e72 820E0000 		.4byte	0xe82
 4542 0e76 1B       		.uleb128 0x1b
 4543 0e77 01       		.byte	0x1
 4544 0e78 50       		.byte	0x50
 4545 0e79 02       		.byte	0x2
 4546 0e7a 77       		.byte	0x77
 4547 0e7b 00       		.sleb128 0
 4548 0e7c 1B       		.uleb128 0x1b
 4549 0e7d 01       		.byte	0x1
 4550 0e7e 51       		.byte	0x51
 4551 0e7f 01       		.byte	0x1
 4552 0e80 30       		.byte	0x30
 4553 0e81 00       		.byte	0
 4554 0e82 21       		.uleb128 0x21
 4555 0e83 9A070000 		.4byte	.LVL176
 4556 0e87 67150000 		.4byte	0x1567
 4557 0e8b 9C0E0000 		.4byte	0xe9c
 4558 0e8f 1B       		.uleb128 0x1b
 4559 0e90 01       		.byte	0x1
 4560 0e91 50       		.byte	0x50
 4561 0e92 02       		.byte	0x2
 4562 0e93 7B       		.byte	0x7b
 4563 0e94 00       		.sleb128 0
 4564 0e95 1B       		.uleb128 0x1b
 4565 0e96 01       		.byte	0x1
 4566 0e97 51       		.byte	0x51
 4567 0e98 02       		.byte	0x2
 4568 0e99 77       		.byte	0x77
 4569 0e9a 00       		.sleb128 0
 4570 0e9b 00       		.byte	0
 4571 0e9c 21       		.uleb128 0x21
 4572 0e9d B8070000 		.4byte	.LVL179
 4573 0ea1 67150000 		.4byte	0x1567
 4574 0ea5 B30E0000 		.4byte	0xeb3
 4575 0ea9 1B       		.uleb128 0x1b
 4576 0eaa 01       		.byte	0x1
 4577 0eab 50       		.byte	0x50
 4578 0eac 05       		.byte	0x5
 4579 0ead 03       		.byte	0x3
 4580 0eae 78030000 		.4byte	.LC28
 4581 0eb2 00       		.byte	0
 4582 0eb3 21       		.uleb128 0x21
 4583 0eb4 7A090000 		.4byte	.LVL221
 4584 0eb8 C2150000 		.4byte	0x15c2
 4585 0ebc C70E0000 		.4byte	0xec7
 4586 0ec0 1B       		.uleb128 0x1b
 4587 0ec1 01       		.byte	0x1
 4588 0ec2 50       		.byte	0x50
 4589 0ec3 02       		.byte	0x2
 4590 0ec4 77       		.byte	0x77
 4591 0ec5 00       		.sleb128 0
 4592 0ec6 00       		.byte	0
 4593 0ec7 21       		.uleb128 0x21
 4594 0ec8 8E090000 		.4byte	.LVL222
 4595 0ecc 67150000 		.4byte	0x1567
ARM GAS  G:\Users\Jaxb\AppData\Local\Temp\ccRp9Rzk.s 			page 103


 4596 0ed0 E10E0000 		.4byte	0xee1
 4597 0ed4 1B       		.uleb128 0x1b
 4598 0ed5 01       		.byte	0x1
 4599 0ed6 50       		.byte	0x50
 4600 0ed7 02       		.byte	0x2
 4601 0ed8 78       		.byte	0x78
 4602 0ed9 00       		.sleb128 0
 4603 0eda 1B       		.uleb128 0x1b
 4604 0edb 01       		.byte	0x1
 4605 0edc 51       		.byte	0x51
 4606 0edd 02       		.byte	0x2
 4607 0ede 77       		.byte	0x77
 4608 0edf 00       		.sleb128 0
 4609 0ee0 00       		.byte	0
 4610 0ee1 21       		.uleb128 0x21
 4611 0ee2 E8090000 		.4byte	.LVL226
 4612 0ee6 C2150000 		.4byte	0x15c2
 4613 0eea F50E0000 		.4byte	0xef5
 4614 0eee 1B       		.uleb128 0x1b
 4615 0eef 01       		.byte	0x1
 4616 0ef0 50       		.byte	0x50
 4617 0ef1 02       		.byte	0x2
 4618 0ef2 77       		.byte	0x77
 4619 0ef3 00       		.sleb128 0
 4620 0ef4 00       		.byte	0
 4621 0ef5 21       		.uleb128 0x21
 4622 0ef6 F8090000 		.4byte	.LVL227
 4623 0efa 67150000 		.4byte	0x1567
 4624 0efe 120F0000 		.4byte	0xf12
 4625 0f02 1B       		.uleb128 0x1b
 4626 0f03 01       		.byte	0x1
 4627 0f04 50       		.byte	0x50
 4628 0f05 05       		.byte	0x5
 4629 0f06 03       		.byte	0x3
 4630 0f07 F8020000 		.4byte	.LC24
 4631 0f0b 1B       		.uleb128 0x1b
 4632 0f0c 01       		.byte	0x1
 4633 0f0d 51       		.byte	0x51
 4634 0f0e 02       		.byte	0x2
 4635 0f0f 77       		.byte	0x77
 4636 0f10 00       		.sleb128 0
 4637 0f11 00       		.byte	0
 4638 0f12 22       		.uleb128 0x22
 4639 0f13 1C0A0000 		.4byte	.LVL231
 4640 0f17 67150000 		.4byte	0x1567
 4641 0f1b 1B       		.uleb128 0x1b
 4642 0f1c 01       		.byte	0x1
 4643 0f1d 50       		.byte	0x50
 4644 0f1e 05       		.byte	0x5
 4645 0f1f 03       		.byte	0x3
 4646 0f20 50020000 		.4byte	.LC15
 4647 0f24 00       		.byte	0
 4648 0f25 00       		.byte	0
 4649 0f26 0B       		.uleb128 0xb
 4650 0f27 04       		.byte	0x4
 4651 0f28 BD020000 		.4byte	0x2bd
 4652 0f2c 0B       		.uleb128 0xb
ARM GAS  G:\Users\Jaxb\AppData\Local\Temp\ccRp9Rzk.s 			page 104


 4653 0f2d 04       		.byte	0x4
 4654 0f2e ED020000 		.4byte	0x2ed
 4655 0f32 2B       		.uleb128 0x2b
 4656 0f33 01       		.byte	0x1
 4657 0f34 CB080000 		.4byte	.LASF150
 4658 0f38 01       		.byte	0x1
 4659 0f39 99       		.byte	0x99
 4660 0f3a 01       		.byte	0x1
 4661 0f3b 35070000 		.4byte	0x735
 4662 0f3f 10020000 		.4byte	.LFB12
 4663 0f43 58060000 		.4byte	.LFE12
 4664 0f47 8C060000 		.4byte	.LLST15
 4665 0f4b 01       		.byte	0x1
 4666 0f4c 6C130000 		.4byte	0x136c
 4667 0f50 2C       		.uleb128 0x2c
 4668 0f51 17010000 		.4byte	.LASF135
 4669 0f55 01       		.byte	0x1
 4670 0f56 99       		.byte	0x99
 4671 0f57 1D060000 		.4byte	0x61d
 4672 0f5b 04070000 		.4byte	.LLST16
 4673 0f5f 2C       		.uleb128 0x2c
 4674 0f60 A9010000 		.4byte	.LASF139
 4675 0f64 01       		.byte	0x1
 4676 0f65 99       		.byte	0x99
 4677 0f66 37040000 		.4byte	0x437
 4678 0f6a 51070000 		.4byte	.LLST17
 4679 0f6e 2D       		.uleb128 0x2d
 4680 0f6f 88040000 		.4byte	.LASF151
 4681 0f73 01       		.byte	0x1
 4682 0f74 9B       		.byte	0x9b
 4683 0f75 3A050000 		.4byte	0x53a
 4684 0f79 00       		.byte	0
 4685 0f7a 2E       		.uleb128 0x2e
 4686 0f7b 40070000 		.4byte	.LASF141
 4687 0f7f 01       		.byte	0x1
 4688 0f80 9C       		.byte	0x9c
 4689 0f81 75000000 		.4byte	0x75
 4690 0f85 C3070000 		.4byte	.LLST18
 4691 0f89 2E       		.uleb128 0x2e
 4692 0f8a 9D010000 		.4byte	.LASF146
 4693 0f8e 01       		.byte	0x1
 4694 0f8f 9C       		.byte	0x9c
 4695 0f90 75000000 		.4byte	0x75
 4696 0f94 B4080000 		.4byte	.LLST19
 4697 0f98 2E       		.uleb128 0x2e
 4698 0f99 06040000 		.4byte	.LASF114
 4699 0f9d 01       		.byte	0x1
 4700 0f9e 9D       		.byte	0x9d
 4701 0f9f 99000000 		.4byte	0x99
 4702 0fa3 02090000 		.4byte	.LLST20
 4703 0fa7 2E       		.uleb128 0x2e
 4704 0fa8 1B040000 		.4byte	.LASF152
 4705 0fac 01       		.byte	0x1
 4706 0fad 9D       		.byte	0x9d
 4707 0fae 99000000 		.4byte	0x99
 4708 0fb2 3A090000 		.4byte	.LLST21
 4709 0fb6 2E       		.uleb128 0x2e
ARM GAS  G:\Users\Jaxb\AppData\Local\Temp\ccRp9Rzk.s 			page 105


 4710 0fb7 9F040000 		.4byte	.LASF153
 4711 0fbb 01       		.byte	0x1
 4712 0fbc 9E       		.byte	0x9e
 4713 0fbd 3A050000 		.4byte	0x53a
 4714 0fc1 B6090000 		.4byte	.LLST22
 4715 0fc5 29       		.uleb128 0x29
 4716 0fc6 00000000 		.4byte	.Ldebug_ranges0+0
 4717 0fca ED100000 		.4byte	0x10ed
 4718 0fce 2F       		.uleb128 0x2f
 4719 0fcf 6900     		.ascii	"i\000"
 4720 0fd1 01       		.byte	0x1
 4721 0fd2 FB       		.byte	0xfb
 4722 0fd3 75000000 		.4byte	0x75
 4723 0fd7 300A0000 		.4byte	.LLST23
 4724 0fdb 2E       		.uleb128 0x2e
 4725 0fdc E7080000 		.4byte	.LASF149
 4726 0fe0 01       		.byte	0x1
 4727 0fe1 FB       		.byte	0xfb
 4728 0fe2 75000000 		.4byte	0x75
 4729 0fe6 900A0000 		.4byte	.LLST24
 4730 0fea 2E       		.uleb128 0x2e
 4731 0feb 76000000 		.4byte	.LASF123
 4732 0fef 01       		.byte	0x1
 4733 0ff0 FC       		.byte	0xfc
 4734 0ff1 260F0000 		.4byte	0xf26
 4735 0ff5 DF0A0000 		.4byte	.LLST25
 4736 0ff9 2F       		.uleb128 0x2f
 4737 0ffa 72656C00 		.ascii	"rel\000"
 4738 0ffe 01       		.byte	0x1
 4739 0fff FD       		.byte	0xfd
 4740 1000 2C0F0000 		.4byte	0xf2c
 4741 1004 F80A0000 		.4byte	.LLST26
 4742 1008 2E       		.uleb128 0x2e
 4743 1009 02030000 		.4byte	.LASF147
 4744 100d 01       		.byte	0x1
 4745 100e FE       		.byte	0xfe
 4746 100f 3A0B0000 		.4byte	0xb3a
 4747 1013 3B0B0000 		.4byte	.LLST27
 4748 1017 15       		.uleb128 0x15
 4749 1018 62020000 		.4byte	.LASF154
 4750 101c 01       		.byte	0x1
 4751 101d FF       		.byte	0xff
 4752 101e 3A050000 		.4byte	0x53a
 4753 1022 05       		.byte	0x5
 4754 1023 03       		.byte	0x3
 4755 1024 00000000 		.4byte	unsolved.4445
 4756 1028 2A       		.uleb128 0x2a
 4757 1029 28000000 		.4byte	.Ldebug_ranges0+0x28
 4758 102d 23       		.uleb128 0x23
 4759 102e 73796D00 		.ascii	"sym\000"
 4760 1032 01       		.byte	0x1
 4761 1033 1101     		.2byte	0x111
 4762 1035 260F0000 		.4byte	0xf26
 4763 1039 6F0B0000 		.4byte	.LLST28
 4764 103d 30       		.uleb128 0x30
 4765 103e BA030000 		.4byte	.LBB6
 4766 1042 CE030000 		.4byte	.LBE6
ARM GAS  G:\Users\Jaxb\AppData\Local\Temp\ccRp9Rzk.s 			page 106


 4767 1046 71100000 		.4byte	0x1071
 4768 104a 1F       		.uleb128 0x1f
 4769 104b 12010000 		.4byte	.LASF100
 4770 104f 01       		.byte	0x1
 4771 1050 1701     		.2byte	0x117
 4772 1052 99000000 		.4byte	0x99
 4773 1056 980B0000 		.4byte	.LLST29
 4774 105a 22       		.uleb128 0x22
 4775 105b CE030000 		.4byte	.LVL90
 4776 105f 6C130000 		.4byte	0x136c
 4777 1063 1B       		.uleb128 0x1b
 4778 1064 01       		.byte	0x1
 4779 1065 50       		.byte	0x50
 4780 1066 02       		.byte	0x2
 4781 1067 7B       		.byte	0x7b
 4782 1068 00       		.sleb128 0
 4783 1069 1B       		.uleb128 0x1b
 4784 106a 01       		.byte	0x1
 4785 106b 51       		.byte	0x51
 4786 106c 02       		.byte	0x2
 4787 106d 79       		.byte	0x79
 4788 106e 00       		.sleb128 0
 4789 106f 00       		.byte	0
 4790 1070 00       		.byte	0
 4791 1071 29       		.uleb128 0x29
 4792 1072 30000000 		.4byte	.Ldebug_ranges0+0x30
 4793 1076 D8100000 		.4byte	0x10d8
 4794 107a 1F       		.uleb128 0x1f
 4795 107b 12010000 		.4byte	.LASF100
 4796 107f 01       		.byte	0x1
 4797 1080 1E01     		.2byte	0x11e
 4798 1082 99000000 		.4byte	0x99
 4799 1086 CC0B0000 		.4byte	.LLST30
 4800 108a 21       		.uleb128 0x21
 4801 108b 78050000 		.4byte	.LVL128
 4802 108f 67150000 		.4byte	0x1567
 4803 1093 A1100000 		.4byte	0x10a1
 4804 1097 1B       		.uleb128 0x1b
 4805 1098 01       		.byte	0x1
 4806 1099 50       		.byte	0x50
 4807 109a 05       		.byte	0x5
 4808 109b 03       		.byte	0x3
 4809 109c 90020000 		.4byte	.LC18
 4810 10a0 00       		.byte	0
 4811 10a1 20       		.uleb128 0x20
 4812 10a2 82050000 		.4byte	.LVL129
 4813 10a6 01150000 		.4byte	0x1501
 4814 10aa 21       		.uleb128 0x21
 4815 10ab 90050000 		.4byte	.LVL131
 4816 10af 67150000 		.4byte	0x1567
 4817 10b3 C1100000 		.4byte	0x10c1
 4818 10b7 1B       		.uleb128 0x1b
 4819 10b8 01       		.byte	0x1
 4820 10b9 50       		.byte	0x50
 4821 10ba 05       		.byte	0x5
 4822 10bb 03       		.byte	0x3
 4823 10bc A4020000 		.4byte	.LC19
ARM GAS  G:\Users\Jaxb\AppData\Local\Temp\ccRp9Rzk.s 			page 107


 4824 10c0 00       		.byte	0
 4825 10c1 22       		.uleb128 0x22
 4826 10c2 E2050000 		.4byte	.LVL137
 4827 10c6 6C130000 		.4byte	0x136c
 4828 10ca 1B       		.uleb128 0x1b
 4829 10cb 01       		.byte	0x1
 4830 10cc 50       		.byte	0x50
 4831 10cd 02       		.byte	0x2
 4832 10ce 7B       		.byte	0x7b
 4833 10cf 00       		.sleb128 0
 4834 10d0 1B       		.uleb128 0x1b
 4835 10d1 01       		.byte	0x1
 4836 10d2 51       		.byte	0x51
 4837 10d3 02       		.byte	0x2
 4838 10d4 79       		.byte	0x79
 4839 10d5 00       		.sleb128 0
 4840 10d6 00       		.byte	0
 4841 10d7 00       		.byte	0
 4842 10d8 22       		.uleb128 0x22
 4843 10d9 A8030000 		.4byte	.LVL88
 4844 10dd 67150000 		.4byte	0x1567
 4845 10e1 1B       		.uleb128 0x1b
 4846 10e2 01       		.byte	0x1
 4847 10e3 50       		.byte	0x50
 4848 10e4 05       		.byte	0x5
 4849 10e5 03       		.byte	0x3
 4850 10e6 74020000 		.4byte	.LC17
 4851 10ea 00       		.byte	0
 4852 10eb 00       		.byte	0
 4853 10ec 00       		.byte	0
 4854 10ed 29       		.uleb128 0x29
 4855 10ee 48000000 		.4byte	.Ldebug_ranges0+0x48
 4856 10f2 17110000 		.4byte	0x1117
 4857 10f6 1F       		.uleb128 0x1f
 4858 10f7 C1050000 		.4byte	.LASF148
 4859 10fb 01       		.byte	0x1
 4860 10fc 3801     		.2byte	0x138
 4861 10fe 3A0B0000 		.4byte	0xb3a
 4862 1102 F50B0000 		.4byte	.LLST31
 4863 1106 22       		.uleb128 0x22
 4864 1107 5C040000 		.4byte	.LVL106
 4865 110b CF150000 		.4byte	0x15cf
 4866 110f 1B       		.uleb128 0x1b
 4867 1110 01       		.byte	0x1
 4868 1111 51       		.byte	0x51
 4869 1112 02       		.byte	0x2
 4870 1113 74       		.byte	0x74
 4871 1114 00       		.sleb128 0
 4872 1115 00       		.byte	0
 4873 1116 00       		.byte	0
 4874 1117 29       		.uleb128 0x29
 4875 1118 60000000 		.4byte	.Ldebug_ranges0+0x60
 4876 111c C8110000 		.4byte	0x11c8
 4877 1120 23       		.uleb128 0x23
 4878 1121 6900     		.ascii	"i\000"
 4879 1123 01       		.byte	0x1
 4880 1124 4201     		.2byte	0x142
ARM GAS  G:\Users\Jaxb\AppData\Local\Temp\ccRp9Rzk.s 			page 108


 4881 1126 3E000000 		.4byte	0x3e
 4882 112a 420C0000 		.4byte	.LLST32
 4883 112e 1F       		.uleb128 0x1f
 4884 112f 27000000 		.4byte	.LASF155
 4885 1133 01       		.byte	0x1
 4886 1134 4201     		.2byte	0x142
 4887 1136 3E000000 		.4byte	0x3e
 4888 113a 910C0000 		.4byte	.LLST33
 4889 113e 1F       		.uleb128 0x1f
 4890 113f 76000000 		.4byte	.LASF123
 4891 1143 01       		.byte	0x1
 4892 1144 4301     		.2byte	0x143
 4893 1146 260F0000 		.4byte	0xf26
 4894 114a D30C0000 		.4byte	.LLST34
 4895 114e 1F       		.uleb128 0x1f
 4896 114f 02030000 		.4byte	.LASF147
 4897 1153 01       		.byte	0x1
 4898 1154 4401     		.2byte	0x144
 4899 1156 3A0B0000 		.4byte	0xb3a
 4900 115a FD0C0000 		.4byte	.LLST35
 4901 115e 29       		.uleb128 0x29
 4902 115f 78000000 		.4byte	.Ldebug_ranges0+0x78
 4903 1163 BE110000 		.4byte	0x11be
 4904 1167 1F       		.uleb128 0x1f
 4905 1168 BE070000 		.4byte	.LASF156
 4906 116c 01       		.byte	0x1
 4907 116d 5501     		.2byte	0x155
 4908 116f 54070000 		.4byte	0x754
 4909 1173 330D0000 		.4byte	.LLST36
 4910 1177 20       		.uleb128 0x20
 4911 1178 04050000 		.4byte	.LVL119
 4912 117c DC150000 		.4byte	0x15dc
 4913 1180 21       		.uleb128 0x21
 4914 1181 28050000 		.4byte	.LVL121
 4915 1185 9B150000 		.4byte	0x159b
 4916 1189 94110000 		.4byte	0x1194
 4917 118d 1B       		.uleb128 0x1b
 4918 118e 01       		.byte	0x1
 4919 118f 50       		.byte	0x50
 4920 1190 02       		.byte	0x2
 4921 1191 79       		.byte	0x79
 4922 1192 00       		.sleb128 0
 4923 1193 00       		.byte	0
 4924 1194 21       		.uleb128 0x21
 4925 1195 3C050000 		.4byte	.LVL122
 4926 1199 B5150000 		.4byte	0x15b5
 4927 119d AD110000 		.4byte	0x11ad
 4928 11a1 1B       		.uleb128 0x1b
 4929 11a2 01       		.byte	0x1
 4930 11a3 51       		.byte	0x51
 4931 11a4 01       		.byte	0x1
 4932 11a5 30       		.byte	0x30
 4933 11a6 1B       		.uleb128 0x1b
 4934 11a7 01       		.byte	0x1
 4935 11a8 52       		.byte	0x52
 4936 11a9 02       		.byte	0x2
 4937 11aa 79       		.byte	0x79
ARM GAS  G:\Users\Jaxb\AppData\Local\Temp\ccRp9Rzk.s 			page 109


 4938 11ab 00       		.sleb128 0
 4939 11ac 00       		.byte	0
 4940 11ad 22       		.uleb128 0x22
 4941 11ae 50050000 		.4byte	.LVL123
 4942 11b2 C2150000 		.4byte	0x15c2
 4943 11b6 1B       		.uleb128 0x1b
 4944 11b7 01       		.byte	0x1
 4945 11b8 52       		.byte	0x52
 4946 11b9 02       		.byte	0x2
 4947 11ba 79       		.byte	0x79
 4948 11bb 00       		.sleb128 0
 4949 11bc 00       		.byte	0
 4950 11bd 00       		.byte	0
 4951 11be 20       		.uleb128 0x20
 4952 11bf C4040000 		.4byte	.LVL115
 4953 11c3 9B150000 		.4byte	0x159b
 4954 11c7 00       		.byte	0
 4955 11c8 21       		.uleb128 0x21
 4956 11c9 62020000 		.4byte	.LVL61
 4957 11cd 67150000 		.4byte	0x1567
 4958 11d1 E2110000 		.4byte	0x11e2
 4959 11d5 1B       		.uleb128 0x1b
 4960 11d6 01       		.byte	0x1
 4961 11d7 50       		.byte	0x50
 4962 11d8 02       		.byte	0x2
 4963 11d9 79       		.byte	0x79
 4964 11da 00       		.sleb128 0
 4965 11db 1B       		.uleb128 0x1b
 4966 11dc 01       		.byte	0x1
 4967 11dd 51       		.byte	0x51
 4968 11de 02       		.byte	0x2
 4969 11df 74       		.byte	0x74
 4970 11e0 00       		.sleb128 0
 4971 11e1 00       		.byte	0
 4972 11e2 21       		.uleb128 0x21
 4973 11e3 A2020000 		.4byte	.LVL68
 4974 11e7 67150000 		.4byte	0x1567
 4975 11eb 06120000 		.4byte	0x1206
 4976 11ef 1B       		.uleb128 0x1b
 4977 11f0 01       		.byte	0x1
 4978 11f1 50       		.byte	0x50
 4979 11f2 05       		.byte	0x5
 4980 11f3 03       		.byte	0x3
 4981 11f4 18020000 		.4byte	.LC13
 4982 11f8 1B       		.uleb128 0x1b
 4983 11f9 01       		.byte	0x1
 4984 11fa 51       		.byte	0x51
 4985 11fb 02       		.byte	0x2
 4986 11fc 75       		.byte	0x75
 4987 11fd 00       		.sleb128 0
 4988 11fe 1B       		.uleb128 0x1b
 4989 11ff 01       		.byte	0x1
 4990 1200 52       		.byte	0x52
 4991 1201 03       		.byte	0x3
 4992 1202 91       		.byte	0x91
 4993 1203 48       		.sleb128 -56
 4994 1204 06       		.byte	0x6
ARM GAS  G:\Users\Jaxb\AppData\Local\Temp\ccRp9Rzk.s 			page 110


 4995 1205 00       		.byte	0
 4996 1206 21       		.uleb128 0x21
 4997 1207 BA020000 		.4byte	.LVL70
 4998 120b 9B150000 		.4byte	0x159b
 4999 120f 1A120000 		.4byte	0x121a
 5000 1213 1B       		.uleb128 0x1b
 5001 1214 01       		.byte	0x1
 5002 1215 50       		.byte	0x50
 5003 1216 02       		.byte	0x2
 5004 1217 75       		.byte	0x75
 5005 1218 00       		.sleb128 0
 5006 1219 00       		.byte	0
 5007 121a 21       		.uleb128 0x21
 5008 121b D0020000 		.4byte	.LVL71
 5009 121f B5150000 		.4byte	0x15b5
 5010 1223 34120000 		.4byte	0x1234
 5011 1227 1B       		.uleb128 0x1b
 5012 1228 01       		.byte	0x1
 5013 1229 51       		.byte	0x51
 5014 122a 02       		.byte	0x2
 5015 122b 74       		.byte	0x74
 5016 122c 00       		.sleb128 0
 5017 122d 1B       		.uleb128 0x1b
 5018 122e 01       		.byte	0x1
 5019 122f 52       		.byte	0x52
 5020 1230 02       		.byte	0x2
 5021 1231 75       		.byte	0x75
 5022 1232 00       		.sleb128 0
 5023 1233 00       		.byte	0
 5024 1234 20       		.uleb128 0x20
 5025 1235 08030000 		.4byte	.LVL76
 5026 1239 C2150000 		.4byte	0x15c2
 5027 123d 21       		.uleb128 0x21
 5028 123e 2A030000 		.4byte	.LVL79
 5029 1242 67150000 		.4byte	0x1567
 5030 1246 54120000 		.4byte	0x1254
 5031 124a 1B       		.uleb128 0x1b
 5032 124b 01       		.byte	0x1
 5033 124c 50       		.byte	0x50
 5034 124d 05       		.byte	0x5
 5035 124e 03       		.byte	0x3
 5036 124f 70020000 		.4byte	.LC16
 5037 1253 00       		.byte	0
 5038 1254 21       		.uleb128 0x21
 5039 1255 F2030000 		.4byte	.LVL95
 5040 1259 67150000 		.4byte	0x1567
 5041 125d 71120000 		.4byte	0x1271
 5042 1261 1B       		.uleb128 0x1b
 5043 1262 01       		.byte	0x1
 5044 1263 50       		.byte	0x50
 5045 1264 05       		.byte	0x5
 5046 1265 03       		.byte	0x3
 5047 1266 EC010000 		.4byte	.LC12
 5048 126a 1B       		.uleb128 0x1b
 5049 126b 01       		.byte	0x1
 5050 126c 51       		.byte	0x51
 5051 126d 02       		.byte	0x2
ARM GAS  G:\Users\Jaxb\AppData\Local\Temp\ccRp9Rzk.s 			page 111


 5052 126e 74       		.byte	0x74
 5053 126f 00       		.sleb128 0
 5054 1270 00       		.byte	0
 5055 1271 21       		.uleb128 0x21
 5056 1272 FE030000 		.4byte	.LVL97
 5057 1276 67150000 		.4byte	0x1567
 5058 127a 8E120000 		.4byte	0x128e
 5059 127e 1B       		.uleb128 0x1b
 5060 127f 01       		.byte	0x1
 5061 1280 50       		.byte	0x50
 5062 1281 05       		.byte	0x5
 5063 1282 03       		.byte	0x3
 5064 1283 BC010000 		.4byte	.LC11
 5065 1287 1B       		.uleb128 0x1b
 5066 1288 01       		.byte	0x1
 5067 1289 51       		.byte	0x51
 5068 128a 02       		.byte	0x2
 5069 128b 74       		.byte	0x74
 5070 128c 00       		.sleb128 0
 5071 128d 00       		.byte	0
 5072 128e 21       		.uleb128 0x21
 5073 128f 22040000 		.4byte	.LVL100
 5074 1293 67150000 		.4byte	0x1567
 5075 1297 A5120000 		.4byte	0x12a5
 5076 129b 1B       		.uleb128 0x1b
 5077 129c 01       		.byte	0x1
 5078 129d 50       		.byte	0x50
 5079 129e 05       		.byte	0x5
 5080 129f 03       		.byte	0x3
 5081 12a0 D4020000 		.4byte	.LC20
 5082 12a4 00       		.byte	0
 5083 12a5 21       		.uleb128 0x21
 5084 12a6 68040000 		.4byte	.LVL108
 5085 12aa 67150000 		.4byte	0x1567
 5086 12ae BC120000 		.4byte	0x12bc
 5087 12b2 1B       		.uleb128 0x1b
 5088 12b3 01       		.byte	0x1
 5089 12b4 50       		.byte	0x50
 5090 12b5 05       		.byte	0x5
 5091 12b6 03       		.byte	0x3
 5092 12b7 E0020000 		.4byte	.LC22
 5093 12bb 00       		.byte	0
 5094 12bc 21       		.uleb128 0x21
 5095 12bd EC050000 		.4byte	.LVL139
 5096 12c1 67150000 		.4byte	0x1567
 5097 12c5 D9120000 		.4byte	0x12d9
 5098 12c9 1B       		.uleb128 0x1b
 5099 12ca 01       		.byte	0x1
 5100 12cb 50       		.byte	0x50
 5101 12cc 05       		.byte	0x5
 5102 12cd 03       		.byte	0x3
 5103 12ce 18010000 		.4byte	.LC8
 5104 12d2 1B       		.uleb128 0x1b
 5105 12d3 01       		.byte	0x1
 5106 12d4 51       		.byte	0x51
 5107 12d5 02       		.byte	0x2
 5108 12d6 74       		.byte	0x74
ARM GAS  G:\Users\Jaxb\AppData\Local\Temp\ccRp9Rzk.s 			page 112


 5109 12d7 00       		.sleb128 0
 5110 12d8 00       		.byte	0
 5111 12d9 21       		.uleb128 0x21
 5112 12da FC050000 		.4byte	.LVL143
 5113 12de A8150000 		.4byte	0x15a8
 5114 12e2 F6120000 		.4byte	0x12f6
 5115 12e6 1B       		.uleb128 0x1b
 5116 12e7 01       		.byte	0x1
 5117 12e8 50       		.byte	0x50
 5118 12e9 05       		.byte	0x5
 5119 12ea 03       		.byte	0x3
 5120 12eb CC000000 		.4byte	.LC6
 5121 12ef 1B       		.uleb128 0x1b
 5122 12f0 01       		.byte	0x1
 5123 12f1 51       		.byte	0x51
 5124 12f2 02       		.byte	0x2
 5125 12f3 08       		.byte	0x8
 5126 12f4 A0       		.byte	0xa0
 5127 12f5 00       		.byte	0
 5128 12f6 21       		.uleb128 0x21
 5129 12f7 0A060000 		.4byte	.LVL145
 5130 12fb 67150000 		.4byte	0x1567
 5131 12ff 13130000 		.4byte	0x1313
 5132 1303 1B       		.uleb128 0x1b
 5133 1304 01       		.byte	0x1
 5134 1305 50       		.byte	0x50
 5135 1306 05       		.byte	0x5
 5136 1307 03       		.byte	0x3
 5137 1308 4C010000 		.4byte	.LC9
 5138 130c 1B       		.uleb128 0x1b
 5139 130d 01       		.byte	0x1
 5140 130e 51       		.byte	0x51
 5141 130f 02       		.byte	0x2
 5142 1310 74       		.byte	0x74
 5143 1311 00       		.sleb128 0
 5144 1312 00       		.byte	0
 5145 1313 21       		.uleb128 0x21
 5146 1314 14060000 		.4byte	.LVL147
 5147 1318 67150000 		.4byte	0x1567
 5148 131c 2A130000 		.4byte	0x132a
 5149 1320 1B       		.uleb128 0x1b
 5150 1321 01       		.byte	0x1
 5151 1322 50       		.byte	0x50
 5152 1323 05       		.byte	0x5
 5153 1324 03       		.byte	0x3
 5154 1325 80010000 		.4byte	.LC10
 5155 1329 00       		.byte	0
 5156 132a 21       		.uleb128 0x21
 5157 132b 24060000 		.4byte	.LVL150
 5158 132f 67150000 		.4byte	0x1567
 5159 1333 41130000 		.4byte	0x1341
 5160 1337 1B       		.uleb128 0x1b
 5161 1338 01       		.byte	0x1
 5162 1339 50       		.byte	0x50
 5163 133a 05       		.byte	0x5
 5164 133b 03       		.byte	0x3
 5165 133c 18020000 		.4byte	.LC13
ARM GAS  G:\Users\Jaxb\AppData\Local\Temp\ccRp9Rzk.s 			page 113


 5166 1340 00       		.byte	0
 5167 1341 21       		.uleb128 0x21
 5168 1342 2A060000 		.4byte	.LVL151
 5169 1346 67150000 		.4byte	0x1567
 5170 134a 58130000 		.4byte	0x1358
 5171 134e 1B       		.uleb128 0x1b
 5172 134f 01       		.byte	0x1
 5173 1350 50       		.byte	0x50
 5174 1351 05       		.byte	0x5
 5175 1352 03       		.byte	0x3
 5176 1353 3C020000 		.4byte	.LC14
 5177 1357 00       		.byte	0
 5178 1358 22       		.uleb128 0x22
 5179 1359 36060000 		.4byte	.LVL153
 5180 135d 67150000 		.4byte	0x1567
 5181 1361 1B       		.uleb128 0x1b
 5182 1362 01       		.byte	0x1
 5183 1363 50       		.byte	0x50
 5184 1364 05       		.byte	0x5
 5185 1365 03       		.byte	0x3
 5186 1366 50020000 		.4byte	.LC15
 5187 136a 00       		.byte	0
 5188 136b 00       		.byte	0
 5189 136c 2B       		.uleb128 0x2b
 5190 136d 01       		.byte	0x1
 5191 136e AA080000 		.4byte	.LASF157
 5192 1372 01       		.byte	0x1
 5193 1373 2F       		.byte	0x2f
 5194 1374 01       		.byte	0x1
 5195 1375 3E000000 		.4byte	0x3e
 5196 1379 30000000 		.4byte	.LFB11
 5197 137d 10020000 		.4byte	.LFE11
 5198 1381 460D0000 		.4byte	.LLST3
 5199 1385 01       		.byte	0x1
 5200 1386 FB140000 		.4byte	0x14fb
 5201 138a 2C       		.uleb128 0x2c
 5202 138b 17010000 		.4byte	.LASF135
 5203 138f 01       		.byte	0x1
 5204 1390 2F       		.byte	0x2f
 5205 1391 1D060000 		.4byte	0x61d
 5206 1395 1A0E0000 		.4byte	.LLST4
 5207 1399 31       		.uleb128 0x31
 5208 139a 72656C00 		.ascii	"rel\000"
 5209 139e 01       		.byte	0x1
 5210 139f 2F       		.byte	0x2f
 5211 13a0 2C0F0000 		.4byte	0xf2c
 5212 13a4 3B0E0000 		.4byte	.LLST5
 5213 13a8 2C       		.uleb128 0x2c
 5214 13a9 96000000 		.4byte	.LASF158
 5215 13ad 01       		.byte	0x1
 5216 13ae 2F       		.byte	0x2f
 5217 13af 99000000 		.4byte	0x99
 5218 13b3 F20E0000 		.4byte	.LLST6
 5219 13b7 15       		.uleb128 0x15
 5220 13b8 7D000000 		.4byte	.LASF159
 5221 13bc 01       		.byte	0x1
 5222 13bd 31       		.byte	0x31
ARM GAS  G:\Users\Jaxb\AppData\Local\Temp\ccRp9Rzk.s 			page 114


 5223 13be FB140000 		.4byte	0x14fb
 5224 13c2 01       		.byte	0x1
 5225 13c3 56       		.byte	0x56
 5226 13c4 2F       		.uleb128 0x2f
 5227 13c5 746D7000 		.ascii	"tmp\000"
 5228 13c9 01       		.byte	0x1
 5229 13ca 31       		.byte	0x31
 5230 13cb 99000000 		.4byte	0x99
 5231 13cf EE0F0000 		.4byte	.LLST7
 5232 13d3 2E       		.uleb128 0x2e
 5233 13d4 BF010000 		.4byte	.LASF160
 5234 13d8 01       		.byte	0x1
 5235 13d9 32       		.byte	0x32
 5236 13da AF000000 		.4byte	0xaf
 5237 13de 1C100000 		.4byte	.LLST8
 5238 13e2 2E       		.uleb128 0x2e
 5239 13e3 8D070000 		.4byte	.LASF161
 5240 13e7 01       		.byte	0x1
 5241 13e8 32       		.byte	0x32
 5242 13e9 AF000000 		.4byte	0xaf
 5243 13ed 2F100000 		.4byte	.LLST9
 5244 13f1 2E       		.uleb128 0x2e
 5245 13f2 1C020000 		.4byte	.LASF162
 5246 13f6 01       		.byte	0x1
 5247 13f7 33       		.byte	0x33
 5248 13f8 75000000 		.4byte	0x75
 5249 13fc BC100000 		.4byte	.LLST10
 5250 1400 2E       		.uleb128 0x2e
 5251 1401 33010000 		.4byte	.LASF163
 5252 1405 01       		.byte	0x1
 5253 1406 33       		.byte	0x33
 5254 1407 75000000 		.4byte	0x75
 5255 140b F0100000 		.4byte	.LLST11
 5256 140f 2E       		.uleb128 0x2e
 5257 1410 C9030000 		.4byte	.LASF164
 5258 1414 01       		.byte	0x1
 5259 1415 33       		.byte	0x33
 5260 1416 75000000 		.4byte	0x75
 5261 141a 21110000 		.4byte	.LLST12
 5262 141e 2F       		.uleb128 0x2f
 5263 141f 6A3100   		.ascii	"j1\000"
 5264 1422 01       		.byte	0x1
 5265 1423 33       		.byte	0x33
 5266 1424 75000000 		.4byte	0x75
 5267 1428 65110000 		.4byte	.LLST13
 5268 142c 2F       		.uleb128 0x2f
 5269 142d 6A3200   		.ascii	"j2\000"
 5270 1430 01       		.byte	0x1
 5271 1431 33       		.byte	0x33
 5272 1432 75000000 		.4byte	0x75
 5273 1436 A8110000 		.4byte	.LLST14
 5274 143a 21       		.uleb128 0x21
 5275 143b 86000000 		.4byte	.LVL13
 5276 143f 67150000 		.4byte	0x1567
 5277 1443 57140000 		.4byte	0x1457
 5278 1447 1B       		.uleb128 0x1b
 5279 1448 01       		.byte	0x1
ARM GAS  G:\Users\Jaxb\AppData\Local\Temp\ccRp9Rzk.s 			page 115


 5280 1449 50       		.byte	0x50
 5281 144a 05       		.byte	0x5
 5282 144b 03       		.byte	0x3
 5283 144c 00000000 		.4byte	.LC0
 5284 1450 1B       		.uleb128 0x1b
 5285 1451 01       		.byte	0x1
 5286 1452 51       		.byte	0x51
 5287 1453 02       		.byte	0x2
 5288 1454 76       		.byte	0x76
 5289 1455 00       		.sleb128 0
 5290 1456 00       		.byte	0
 5291 1457 21       		.uleb128 0x21
 5292 1458 CE000000 		.4byte	.LVL23
 5293 145c 67150000 		.4byte	0x1567
 5294 1460 74140000 		.4byte	0x1474
 5295 1464 1B       		.uleb128 0x1b
 5296 1465 01       		.byte	0x1
 5297 1466 50       		.byte	0x50
 5298 1467 05       		.byte	0x5
 5299 1468 03       		.byte	0x3
 5300 1469 18000000 		.4byte	.LC1
 5301 146d 1B       		.uleb128 0x1b
 5302 146e 01       		.byte	0x1
 5303 146f 51       		.byte	0x51
 5304 1470 02       		.byte	0x2
 5305 1471 76       		.byte	0x76
 5306 1472 00       		.sleb128 0
 5307 1473 00       		.byte	0
 5308 1474 21       		.uleb128 0x21
 5309 1475 EC000000 		.4byte	.LVL27
 5310 1479 67150000 		.4byte	0x1567
 5311 147d 98140000 		.4byte	0x1498
 5312 1481 1B       		.uleb128 0x1b
 5313 1482 01       		.byte	0x1
 5314 1483 50       		.byte	0x50
 5315 1484 05       		.byte	0x5
 5316 1485 03       		.byte	0x3
 5317 1486 30000000 		.4byte	.LC2
 5318 148a 1B       		.uleb128 0x1b
 5319 148b 01       		.byte	0x1
 5320 148c 51       		.byte	0x51
 5321 148d 02       		.byte	0x2
 5322 148e 76       		.byte	0x76
 5323 148f 00       		.sleb128 0
 5324 1490 1B       		.uleb128 0x1b
 5325 1491 01       		.byte	0x1
 5326 1492 53       		.byte	0x53
 5327 1493 03       		.byte	0x3
 5328 1494 F3       		.byte	0xf3
 5329 1495 01       		.uleb128 0x1
 5330 1496 52       		.byte	0x52
 5331 1497 00       		.byte	0
 5332 1498 21       		.uleb128 0x21
 5333 1499 BC010000 		.4byte	.LVL46
 5334 149d 67150000 		.4byte	0x1567
 5335 14a1 C3140000 		.4byte	0x14c3
 5336 14a5 1B       		.uleb128 0x1b
ARM GAS  G:\Users\Jaxb\AppData\Local\Temp\ccRp9Rzk.s 			page 116


 5337 14a6 01       		.byte	0x1
 5338 14a7 50       		.byte	0x50
 5339 14a8 05       		.byte	0x5
 5340 14a9 03       		.byte	0x3
 5341 14aa 5C000000 		.4byte	.LC3
 5342 14ae 1B       		.uleb128 0x1b
 5343 14af 01       		.byte	0x1
 5344 14b0 51       		.byte	0x51
 5345 14b1 02       		.byte	0x2
 5346 14b2 76       		.byte	0x76
 5347 14b3 00       		.sleb128 0
 5348 14b4 1B       		.uleb128 0x1b
 5349 14b5 01       		.byte	0x1
 5350 14b6 52       		.byte	0x52
 5351 14b7 03       		.byte	0x3
 5352 14b8 F3       		.byte	0xf3
 5353 14b9 01       		.uleb128 0x1
 5354 14ba 52       		.byte	0x52
 5355 14bb 1B       		.uleb128 0x1b
 5356 14bc 01       		.byte	0x1
 5357 14bd 53       		.byte	0x53
 5358 14be 03       		.byte	0x3
 5359 14bf F3       		.byte	0xf3
 5360 14c0 01       		.uleb128 0x1
 5361 14c1 52       		.byte	0x52
 5362 14c2 00       		.byte	0
 5363 14c3 21       		.uleb128 0x21
 5364 14c4 D4010000 		.4byte	.LVL50
 5365 14c8 67150000 		.4byte	0x1567
 5366 14cc E7140000 		.4byte	0x14e7
 5367 14d0 1B       		.uleb128 0x1b
 5368 14d1 01       		.byte	0x1
 5369 14d2 50       		.byte	0x50
 5370 14d3 05       		.byte	0x5
 5371 14d4 03       		.byte	0x3
 5372 14d5 80000000 		.4byte	.LC4
 5373 14d9 1B       		.uleb128 0x1b
 5374 14da 01       		.byte	0x1
 5375 14db 51       		.byte	0x51
 5376 14dc 02       		.byte	0x2
 5377 14dd 76       		.byte	0x76
 5378 14de 00       		.sleb128 0
 5379 14df 1B       		.uleb128 0x1b
 5380 14e0 01       		.byte	0x1
 5381 14e1 53       		.byte	0x53
 5382 14e2 03       		.byte	0x3
 5383 14e3 F3       		.byte	0xf3
 5384 14e4 01       		.uleb128 0x1
 5385 14e5 52       		.byte	0x52
 5386 14e6 00       		.byte	0
 5387 14e7 22       		.uleb128 0x22
 5388 14e8 E8010000 		.4byte	.LVL55
 5389 14ec 67150000 		.4byte	0x1567
 5390 14f0 1B       		.uleb128 0x1b
 5391 14f1 01       		.byte	0x1
 5392 14f2 50       		.byte	0x50
 5393 14f3 05       		.byte	0x5
ARM GAS  G:\Users\Jaxb\AppData\Local\Temp\ccRp9Rzk.s 			page 117


 5394 14f4 03       		.byte	0x3
 5395 14f5 A4000000 		.4byte	.LC5
 5396 14f9 00       		.byte	0
 5397 14fa 00       		.byte	0
 5398 14fb 0B       		.uleb128 0xb
 5399 14fc 04       		.byte	0x4
 5400 14fd 99000000 		.4byte	0x99
 5401 1501 2B       		.uleb128 0x2b
 5402 1502 01       		.byte	0x1
 5403 1503 25090000 		.4byte	.LASF165
 5404 1507 01       		.byte	0x1
 5405 1508 20       		.byte	0x20
 5406 1509 01       		.byte	0x1
 5407 150a 75000000 		.4byte	0x75
 5408 150e 00000000 		.4byte	.LFB10
 5409 1512 30000000 		.4byte	.LFE10
 5410 1516 EB110000 		.4byte	.LLST0
 5411 151a 01       		.byte	0x1
 5412 151b 4E150000 		.4byte	0x154e
 5413 151f 2C       		.uleb128 0x2c
 5414 1520 DD040000 		.4byte	.LASF166
 5415 1524 01       		.byte	0x1
 5416 1525 20       		.byte	0x20
 5417 1526 79050000 		.4byte	0x579
 5418 152a 0B120000 		.4byte	.LLST1
 5419 152e 2E       		.uleb128 0x2e
 5420 152f 40070000 		.4byte	.LASF141
 5421 1533 01       		.byte	0x1
 5422 1534 23       		.byte	0x23
 5423 1535 2F070000 		.4byte	0x72f
 5424 1539 37120000 		.4byte	.LLST2
 5425 153d 22       		.uleb128 0x22
 5426 153e 1C000000 		.4byte	.LVL4
 5427 1542 CF150000 		.4byte	0x15cf
 5428 1546 1B       		.uleb128 0x1b
 5429 1547 01       		.byte	0x1
 5430 1548 51       		.byte	0x51
 5431 1549 02       		.byte	0x2
 5432 154a 76       		.byte	0x76
 5433 154b 00       		.sleb128 0
 5434 154c 00       		.byte	0
 5435 154d 00       		.byte	0
 5436 154e 32       		.uleb128 0x32
 5437 154f 62080000 		.4byte	.LASF183
 5438 1553 02       		.byte	0x2
 5439 1554 10       		.byte	0x10
 5440 1555 01       		.byte	0x1
 5441 1556 03       		.byte	0x3
 5442 1557 67150000 		.4byte	0x1567
 5443 155b 33       		.uleb128 0x33
 5444 155c BC080000 		.4byte	.LASF184
 5445 1560 02       		.byte	0x2
 5446 1561 10       		.byte	0x10
 5447 1562 A5030000 		.4byte	0x3a5
 5448 1566 00       		.byte	0
 5449 1567 34       		.uleb128 0x34
 5450 1568 01       		.byte	0x1
ARM GAS  G:\Users\Jaxb\AppData\Local\Temp\ccRp9Rzk.s 			page 118


 5451 1569 01       		.byte	0x1
 5452 156a 14070000 		.4byte	.LASF167
 5453 156e 14070000 		.4byte	.LASF167
 5454 1572 08       		.byte	0x8
 5455 1573 0C       		.byte	0xc
 5456 1574 34       		.uleb128 0x34
 5457 1575 01       		.byte	0x1
 5458 1576 01       		.byte	0x1
 5459 1577 38040000 		.4byte	.LASF168
 5460 157b 38040000 		.4byte	.LASF168
 5461 157f 09       		.byte	0x9
 5462 1580 1A       		.byte	0x1a
 5463 1581 34       		.uleb128 0x34
 5464 1582 01       		.byte	0x1
 5465 1583 01       		.byte	0x1
 5466 1584 E0000000 		.4byte	.LASF169
 5467 1588 E0000000 		.4byte	.LASF169
 5468 158c 08       		.byte	0x8
 5469 158d 12       		.byte	0x12
 5470 158e 34       		.uleb128 0x34
 5471 158f 01       		.byte	0x1
 5472 1590 01       		.byte	0x1
 5473 1591 47020000 		.4byte	.LASF170
 5474 1595 47020000 		.4byte	.LASF170
 5475 1599 08       		.byte	0x8
 5476 159a 16       		.byte	0x16
 5477 159b 34       		.uleb128 0x34
 5478 159c 01       		.byte	0x1
 5479 159d 01       		.byte	0x1
 5480 159e 46070000 		.4byte	.LASF171
 5481 15a2 46070000 		.4byte	.LASF171
 5482 15a6 08       		.byte	0x8
 5483 15a7 15       		.byte	0x15
 5484 15a8 34       		.uleb128 0x34
 5485 15a9 01       		.byte	0x1
 5486 15aa 01       		.byte	0x1
 5487 15ab 00000000 		.4byte	.LASF172
 5488 15af 00000000 		.4byte	.LASF172
 5489 15b3 0A       		.byte	0xa
 5490 15b4 06       		.byte	0x6
 5491 15b5 34       		.uleb128 0x34
 5492 15b6 01       		.byte	0x1
 5493 15b7 01       		.byte	0x1
 5494 15b8 D2050000 		.4byte	.LASF173
 5495 15bc D2050000 		.4byte	.LASF173
 5496 15c0 08       		.byte	0x8
 5497 15c1 13       		.byte	0x13
 5498 15c2 34       		.uleb128 0x34
 5499 15c3 01       		.byte	0x1
 5500 15c4 01       		.byte	0x1
 5501 15c5 07090000 		.4byte	.LASF174
 5502 15c9 07090000 		.4byte	.LASF174
 5503 15cd 08       		.byte	0x8
 5504 15ce 0E       		.byte	0xe
 5505 15cf 34       		.uleb128 0x34
 5506 15d0 01       		.byte	0x1
 5507 15d1 01       		.byte	0x1
ARM GAS  G:\Users\Jaxb\AppData\Local\Temp\ccRp9Rzk.s 			page 119


 5508 15d2 CC020000 		.4byte	.LASF175
 5509 15d6 CC020000 		.4byte	.LASF175
 5510 15da 08       		.byte	0x8
 5511 15db 19       		.byte	0x19
 5512 15dc 34       		.uleb128 0x34
 5513 15dd 01       		.byte	0x1
 5514 15de 01       		.byte	0x1
 5515 15df 2D030000 		.4byte	.LASF176
 5516 15e3 2D030000 		.4byte	.LASF176
 5517 15e7 08       		.byte	0x8
 5518 15e8 0D       		.byte	0xd
 5519 15e9 00       		.byte	0
 5520              		.section	.debug_abbrev,"",%progbits
 5521              	.Ldebug_abbrev0:
 5522 0000 01       		.uleb128 0x1
 5523 0001 11       		.uleb128 0x11
 5524 0002 01       		.byte	0x1
 5525 0003 25       		.uleb128 0x25
 5526 0004 0E       		.uleb128 0xe
 5527 0005 13       		.uleb128 0x13
 5528 0006 0B       		.uleb128 0xb
 5529 0007 03       		.uleb128 0x3
 5530 0008 0E       		.uleb128 0xe
 5531 0009 1B       		.uleb128 0x1b
 5532 000a 0E       		.uleb128 0xe
 5533 000b 11       		.uleb128 0x11
 5534 000c 01       		.uleb128 0x1
 5535 000d 12       		.uleb128 0x12
 5536 000e 01       		.uleb128 0x1
 5537 000f 10       		.uleb128 0x10
 5538 0010 06       		.uleb128 0x6
 5539 0011 00       		.byte	0
 5540 0012 00       		.byte	0
 5541 0013 02       		.uleb128 0x2
 5542 0014 24       		.uleb128 0x24
 5543 0015 00       		.byte	0
 5544 0016 0B       		.uleb128 0xb
 5545 0017 0B       		.uleb128 0xb
 5546 0018 3E       		.uleb128 0x3e
 5547 0019 0B       		.uleb128 0xb
 5548 001a 03       		.uleb128 0x3
 5549 001b 0E       		.uleb128 0xe
 5550 001c 00       		.byte	0
 5551 001d 00       		.byte	0
 5552 001e 03       		.uleb128 0x3
 5553 001f 16       		.uleb128 0x16
 5554 0020 00       		.byte	0
 5555 0021 03       		.uleb128 0x3
 5556 0022 0E       		.uleb128 0xe
 5557 0023 3A       		.uleb128 0x3a
 5558 0024 0B       		.uleb128 0xb
 5559 0025 3B       		.uleb128 0x3b
 5560 0026 0B       		.uleb128 0xb
 5561 0027 49       		.uleb128 0x49
 5562 0028 13       		.uleb128 0x13
 5563 0029 00       		.byte	0
 5564 002a 00       		.byte	0
ARM GAS  G:\Users\Jaxb\AppData\Local\Temp\ccRp9Rzk.s 			page 120


 5565 002b 04       		.uleb128 0x4
 5566 002c 24       		.uleb128 0x24
 5567 002d 00       		.byte	0
 5568 002e 0B       		.uleb128 0xb
 5569 002f 0B       		.uleb128 0xb
 5570 0030 3E       		.uleb128 0x3e
 5571 0031 0B       		.uleb128 0xb
 5572 0032 03       		.uleb128 0x3
 5573 0033 08       		.uleb128 0x8
 5574 0034 00       		.byte	0
 5575 0035 00       		.byte	0
 5576 0036 05       		.uleb128 0x5
 5577 0037 35       		.uleb128 0x35
 5578 0038 00       		.byte	0
 5579 0039 49       		.uleb128 0x49
 5580 003a 13       		.uleb128 0x13
 5581 003b 00       		.byte	0
 5582 003c 00       		.byte	0
 5583 003d 06       		.uleb128 0x6
 5584 003e 13       		.uleb128 0x13
 5585 003f 01       		.byte	0x1
 5586 0040 03       		.uleb128 0x3
 5587 0041 0E       		.uleb128 0xe
 5588 0042 0B       		.uleb128 0xb
 5589 0043 0B       		.uleb128 0xb
 5590 0044 3A       		.uleb128 0x3a
 5591 0045 0B       		.uleb128 0xb
 5592 0046 3B       		.uleb128 0x3b
 5593 0047 0B       		.uleb128 0xb
 5594 0048 01       		.uleb128 0x1
 5595 0049 13       		.uleb128 0x13
 5596 004a 00       		.byte	0
 5597 004b 00       		.byte	0
 5598 004c 07       		.uleb128 0x7
 5599 004d 0D       		.uleb128 0xd
 5600 004e 00       		.byte	0
 5601 004f 03       		.uleb128 0x3
 5602 0050 0E       		.uleb128 0xe
 5603 0051 3A       		.uleb128 0x3a
 5604 0052 0B       		.uleb128 0xb
 5605 0053 3B       		.uleb128 0x3b
 5606 0054 0B       		.uleb128 0xb
 5607 0055 49       		.uleb128 0x49
 5608 0056 13       		.uleb128 0x13
 5609 0057 38       		.uleb128 0x38
 5610 0058 0A       		.uleb128 0xa
 5611 0059 00       		.byte	0
 5612 005a 00       		.byte	0
 5613 005b 08       		.uleb128 0x8
 5614 005c 01       		.uleb128 0x1
 5615 005d 01       		.byte	0x1
 5616 005e 49       		.uleb128 0x49
 5617 005f 13       		.uleb128 0x13
 5618 0060 01       		.uleb128 0x1
 5619 0061 13       		.uleb128 0x13
 5620 0062 00       		.byte	0
 5621 0063 00       		.byte	0
ARM GAS  G:\Users\Jaxb\AppData\Local\Temp\ccRp9Rzk.s 			page 121


 5622 0064 09       		.uleb128 0x9
 5623 0065 21       		.uleb128 0x21
 5624 0066 00       		.byte	0
 5625 0067 49       		.uleb128 0x49
 5626 0068 13       		.uleb128 0x13
 5627 0069 2F       		.uleb128 0x2f
 5628 006a 0B       		.uleb128 0xb
 5629 006b 00       		.byte	0
 5630 006c 00       		.byte	0
 5631 006d 0A       		.uleb128 0xa
 5632 006e 13       		.uleb128 0x13
 5633 006f 01       		.byte	0x1
 5634 0070 0B       		.uleb128 0xb
 5635 0071 0B       		.uleb128 0xb
 5636 0072 3A       		.uleb128 0x3a
 5637 0073 0B       		.uleb128 0xb
 5638 0074 3B       		.uleb128 0x3b
 5639 0075 0B       		.uleb128 0xb
 5640 0076 01       		.uleb128 0x1
 5641 0077 13       		.uleb128 0x13
 5642 0078 00       		.byte	0
 5643 0079 00       		.byte	0
 5644 007a 0B       		.uleb128 0xb
 5645 007b 0F       		.uleb128 0xf
 5646 007c 00       		.byte	0
 5647 007d 0B       		.uleb128 0xb
 5648 007e 0B       		.uleb128 0xb
 5649 007f 49       		.uleb128 0x49
 5650 0080 13       		.uleb128 0x13
 5651 0081 00       		.byte	0
 5652 0082 00       		.byte	0
 5653 0083 0C       		.uleb128 0xc
 5654 0084 04       		.uleb128 0x4
 5655 0085 01       		.byte	0x1
 5656 0086 03       		.uleb128 0x3
 5657 0087 0E       		.uleb128 0xe
 5658 0088 3E       		.uleb128 0x3e
 5659 0089 0B       		.uleb128 0xb
 5660 008a 0B       		.uleb128 0xb
 5661 008b 0B       		.uleb128 0xb
 5662 008c 49       		.uleb128 0x49
 5663 008d 13       		.uleb128 0x13
 5664 008e 3A       		.uleb128 0x3a
 5665 008f 0B       		.uleb128 0xb
 5666 0090 3B       		.uleb128 0x3b
 5667 0091 0B       		.uleb128 0xb
 5668 0092 01       		.uleb128 0x1
 5669 0093 13       		.uleb128 0x13
 5670 0094 00       		.byte	0
 5671 0095 00       		.byte	0
 5672 0096 0D       		.uleb128 0xd
 5673 0097 28       		.uleb128 0x28
 5674 0098 00       		.byte	0
 5675 0099 03       		.uleb128 0x3
 5676 009a 0E       		.uleb128 0xe
 5677 009b 1C       		.uleb128 0x1c
 5678 009c 0B       		.uleb128 0xb
ARM GAS  G:\Users\Jaxb\AppData\Local\Temp\ccRp9Rzk.s 			page 122


 5679 009d 00       		.byte	0
 5680 009e 00       		.byte	0
 5681 009f 0E       		.uleb128 0xe
 5682 00a0 15       		.uleb128 0x15
 5683 00a1 01       		.byte	0x1
 5684 00a2 27       		.uleb128 0x27
 5685 00a3 0C       		.uleb128 0xc
 5686 00a4 01       		.uleb128 0x1
 5687 00a5 13       		.uleb128 0x13
 5688 00a6 00       		.byte	0
 5689 00a7 00       		.byte	0
 5690 00a8 0F       		.uleb128 0xf
 5691 00a9 05       		.uleb128 0x5
 5692 00aa 00       		.byte	0
 5693 00ab 49       		.uleb128 0x49
 5694 00ac 13       		.uleb128 0x13
 5695 00ad 00       		.byte	0
 5696 00ae 00       		.byte	0
 5697 00af 10       		.uleb128 0x10
 5698 00b0 0F       		.uleb128 0xf
 5699 00b1 00       		.byte	0
 5700 00b2 0B       		.uleb128 0xb
 5701 00b3 0B       		.uleb128 0xb
 5702 00b4 00       		.byte	0
 5703 00b5 00       		.byte	0
 5704 00b6 11       		.uleb128 0x11
 5705 00b7 34       		.uleb128 0x34
 5706 00b8 00       		.byte	0
 5707 00b9 03       		.uleb128 0x3
 5708 00ba 0E       		.uleb128 0xe
 5709 00bb 3A       		.uleb128 0x3a
 5710 00bc 0B       		.uleb128 0xb
 5711 00bd 3B       		.uleb128 0x3b
 5712 00be 0B       		.uleb128 0xb
 5713 00bf 49       		.uleb128 0x49
 5714 00c0 13       		.uleb128 0x13
 5715 00c1 3F       		.uleb128 0x3f
 5716 00c2 0C       		.uleb128 0xc
 5717 00c3 3C       		.uleb128 0x3c
 5718 00c4 0C       		.uleb128 0xc
 5719 00c5 00       		.byte	0
 5720 00c6 00       		.byte	0
 5721 00c7 12       		.uleb128 0x12
 5722 00c8 26       		.uleb128 0x26
 5723 00c9 00       		.byte	0
 5724 00ca 49       		.uleb128 0x49
 5725 00cb 13       		.uleb128 0x13
 5726 00cc 00       		.byte	0
 5727 00cd 00       		.byte	0
 5728 00ce 13       		.uleb128 0x13
 5729 00cf 16       		.uleb128 0x16
 5730 00d0 00       		.byte	0
 5731 00d1 03       		.uleb128 0x3
 5732 00d2 08       		.uleb128 0x8
 5733 00d3 3A       		.uleb128 0x3a
 5734 00d4 0B       		.uleb128 0xb
 5735 00d5 3B       		.uleb128 0x3b
ARM GAS  G:\Users\Jaxb\AppData\Local\Temp\ccRp9Rzk.s 			page 123


 5736 00d6 0B       		.uleb128 0xb
 5737 00d7 49       		.uleb128 0x49
 5738 00d8 13       		.uleb128 0x13
 5739 00d9 00       		.byte	0
 5740 00da 00       		.byte	0
 5741 00db 14       		.uleb128 0x14
 5742 00dc 15       		.uleb128 0x15
 5743 00dd 01       		.byte	0x1
 5744 00de 27       		.uleb128 0x27
 5745 00df 0C       		.uleb128 0xc
 5746 00e0 49       		.uleb128 0x49
 5747 00e1 13       		.uleb128 0x13
 5748 00e2 01       		.uleb128 0x1
 5749 00e3 13       		.uleb128 0x13
 5750 00e4 00       		.byte	0
 5751 00e5 00       		.byte	0
 5752 00e6 15       		.uleb128 0x15
 5753 00e7 34       		.uleb128 0x34
 5754 00e8 00       		.byte	0
 5755 00e9 03       		.uleb128 0x3
 5756 00ea 0E       		.uleb128 0xe
 5757 00eb 3A       		.uleb128 0x3a
 5758 00ec 0B       		.uleb128 0xb
 5759 00ed 3B       		.uleb128 0x3b
 5760 00ee 0B       		.uleb128 0xb
 5761 00ef 49       		.uleb128 0x49
 5762 00f0 13       		.uleb128 0x13
 5763 00f1 02       		.uleb128 0x2
 5764 00f2 0A       		.uleb128 0xa
 5765 00f3 00       		.byte	0
 5766 00f4 00       		.byte	0
 5767 00f5 16       		.uleb128 0x16
 5768 00f6 34       		.uleb128 0x34
 5769 00f7 00       		.byte	0
 5770 00f8 03       		.uleb128 0x3
 5771 00f9 08       		.uleb128 0x8
 5772 00fa 3A       		.uleb128 0x3a
 5773 00fb 0B       		.uleb128 0xb
 5774 00fc 3B       		.uleb128 0x3b
 5775 00fd 0B       		.uleb128 0xb
 5776 00fe 49       		.uleb128 0x49
 5777 00ff 13       		.uleb128 0x13
 5778 0100 02       		.uleb128 0x2
 5779 0101 0A       		.uleb128 0xa
 5780 0102 00       		.byte	0
 5781 0103 00       		.byte	0
 5782 0104 17       		.uleb128 0x17
 5783 0105 2E       		.uleb128 0x2e
 5784 0106 01       		.byte	0x1
 5785 0107 3F       		.uleb128 0x3f
 5786 0108 0C       		.uleb128 0xc
 5787 0109 03       		.uleb128 0x3
 5788 010a 0E       		.uleb128 0xe
 5789 010b 3A       		.uleb128 0x3a
 5790 010c 0B       		.uleb128 0xb
 5791 010d 3B       		.uleb128 0x3b
 5792 010e 05       		.uleb128 0x5
ARM GAS  G:\Users\Jaxb\AppData\Local\Temp\ccRp9Rzk.s 			page 124


 5793 010f 27       		.uleb128 0x27
 5794 0110 0C       		.uleb128 0xc
 5795 0111 11       		.uleb128 0x11
 5796 0112 01       		.uleb128 0x1
 5797 0113 12       		.uleb128 0x12
 5798 0114 01       		.uleb128 0x1
 5799 0115 40       		.uleb128 0x40
 5800 0116 0A       		.uleb128 0xa
 5801 0117 9742     		.uleb128 0x2117
 5802 0119 0C       		.uleb128 0xc
 5803 011a 01       		.uleb128 0x1
 5804 011b 13       		.uleb128 0x13
 5805 011c 00       		.byte	0
 5806 011d 00       		.byte	0
 5807 011e 18       		.uleb128 0x18
 5808 011f 05       		.uleb128 0x5
 5809 0120 00       		.byte	0
 5810 0121 03       		.uleb128 0x3
 5811 0122 08       		.uleb128 0x8
 5812 0123 3A       		.uleb128 0x3a
 5813 0124 0B       		.uleb128 0xb
 5814 0125 3B       		.uleb128 0x3b
 5815 0126 05       		.uleb128 0x5
 5816 0127 49       		.uleb128 0x49
 5817 0128 13       		.uleb128 0x13
 5818 0129 02       		.uleb128 0x2
 5819 012a 0A       		.uleb128 0xa
 5820 012b 00       		.byte	0
 5821 012c 00       		.byte	0
 5822 012d 19       		.uleb128 0x19
 5823 012e 2E       		.uleb128 0x2e
 5824 012f 00       		.byte	0
 5825 0130 3F       		.uleb128 0x3f
 5826 0131 0C       		.uleb128 0xc
 5827 0132 03       		.uleb128 0x3
 5828 0133 0E       		.uleb128 0xe
 5829 0134 3A       		.uleb128 0x3a
 5830 0135 0B       		.uleb128 0xb
 5831 0136 3B       		.uleb128 0x3b
 5832 0137 05       		.uleb128 0x5
 5833 0138 27       		.uleb128 0x27
 5834 0139 0C       		.uleb128 0xc
 5835 013a 11       		.uleb128 0x11
 5836 013b 01       		.uleb128 0x1
 5837 013c 12       		.uleb128 0x12
 5838 013d 01       		.uleb128 0x1
 5839 013e 40       		.uleb128 0x40
 5840 013f 0A       		.uleb128 0xa
 5841 0140 9742     		.uleb128 0x2117
 5842 0142 0C       		.uleb128 0xc
 5843 0143 00       		.byte	0
 5844 0144 00       		.byte	0
 5845 0145 1A       		.uleb128 0x1a
 5846 0146 898201   		.uleb128 0x4109
 5847 0149 01       		.byte	0x1
 5848 014a 11       		.uleb128 0x11
 5849 014b 01       		.uleb128 0x1
ARM GAS  G:\Users\Jaxb\AppData\Local\Temp\ccRp9Rzk.s 			page 125


 5850 014c 9542     		.uleb128 0x2115
 5851 014e 0C       		.uleb128 0xc
 5852 014f 31       		.uleb128 0x31
 5853 0150 13       		.uleb128 0x13
 5854 0151 00       		.byte	0
 5855 0152 00       		.byte	0
 5856 0153 1B       		.uleb128 0x1b
 5857 0154 8A8201   		.uleb128 0x410a
 5858 0157 00       		.byte	0
 5859 0158 02       		.uleb128 0x2
 5860 0159 0A       		.uleb128 0xa
 5861 015a 9142     		.uleb128 0x2111
 5862 015c 0A       		.uleb128 0xa
 5863 015d 00       		.byte	0
 5864 015e 00       		.byte	0
 5865 015f 1C       		.uleb128 0x1c
 5866 0160 2E       		.uleb128 0x2e
 5867 0161 01       		.byte	0x1
 5868 0162 3F       		.uleb128 0x3f
 5869 0163 0C       		.uleb128 0xc
 5870 0164 03       		.uleb128 0x3
 5871 0165 0E       		.uleb128 0xe
 5872 0166 3A       		.uleb128 0x3a
 5873 0167 0B       		.uleb128 0xb
 5874 0168 3B       		.uleb128 0x3b
 5875 0169 05       		.uleb128 0x5
 5876 016a 27       		.uleb128 0x27
 5877 016b 0C       		.uleb128 0xc
 5878 016c 11       		.uleb128 0x11
 5879 016d 01       		.uleb128 0x1
 5880 016e 12       		.uleb128 0x12
 5881 016f 01       		.uleb128 0x1
 5882 0170 40       		.uleb128 0x40
 5883 0171 06       		.uleb128 0x6
 5884 0172 9742     		.uleb128 0x2117
 5885 0174 0C       		.uleb128 0xc
 5886 0175 01       		.uleb128 0x1
 5887 0176 13       		.uleb128 0x13
 5888 0177 00       		.byte	0
 5889 0178 00       		.byte	0
 5890 0179 1D       		.uleb128 0x1d
 5891 017a 05       		.uleb128 0x5
 5892 017b 00       		.byte	0
 5893 017c 03       		.uleb128 0x3
 5894 017d 08       		.uleb128 0x8
 5895 017e 3A       		.uleb128 0x3a
 5896 017f 0B       		.uleb128 0xb
 5897 0180 3B       		.uleb128 0x3b
 5898 0181 05       		.uleb128 0x5
 5899 0182 49       		.uleb128 0x49
 5900 0183 13       		.uleb128 0x13
 5901 0184 02       		.uleb128 0x2
 5902 0185 06       		.uleb128 0x6
 5903 0186 00       		.byte	0
 5904 0187 00       		.byte	0
 5905 0188 1E       		.uleb128 0x1e
 5906 0189 2E       		.uleb128 0x2e
ARM GAS  G:\Users\Jaxb\AppData\Local\Temp\ccRp9Rzk.s 			page 126


 5907 018a 01       		.byte	0x1
 5908 018b 3F       		.uleb128 0x3f
 5909 018c 0C       		.uleb128 0xc
 5910 018d 03       		.uleb128 0x3
 5911 018e 0E       		.uleb128 0xe
 5912 018f 3A       		.uleb128 0x3a
 5913 0190 0B       		.uleb128 0xb
 5914 0191 3B       		.uleb128 0x3b
 5915 0192 05       		.uleb128 0x5
 5916 0193 27       		.uleb128 0x27
 5917 0194 0C       		.uleb128 0xc
 5918 0195 49       		.uleb128 0x49
 5919 0196 13       		.uleb128 0x13
 5920 0197 11       		.uleb128 0x11
 5921 0198 01       		.uleb128 0x1
 5922 0199 12       		.uleb128 0x12
 5923 019a 01       		.uleb128 0x1
 5924 019b 40       		.uleb128 0x40
 5925 019c 06       		.uleb128 0x6
 5926 019d 9742     		.uleb128 0x2117
 5927 019f 0C       		.uleb128 0xc
 5928 01a0 01       		.uleb128 0x1
 5929 01a1 13       		.uleb128 0x13
 5930 01a2 00       		.byte	0
 5931 01a3 00       		.byte	0
 5932 01a4 1F       		.uleb128 0x1f
 5933 01a5 34       		.uleb128 0x34
 5934 01a6 00       		.byte	0
 5935 01a7 03       		.uleb128 0x3
 5936 01a8 0E       		.uleb128 0xe
 5937 01a9 3A       		.uleb128 0x3a
 5938 01aa 0B       		.uleb128 0xb
 5939 01ab 3B       		.uleb128 0x3b
 5940 01ac 05       		.uleb128 0x5
 5941 01ad 49       		.uleb128 0x49
 5942 01ae 13       		.uleb128 0x13
 5943 01af 02       		.uleb128 0x2
 5944 01b0 06       		.uleb128 0x6
 5945 01b1 00       		.byte	0
 5946 01b2 00       		.byte	0
 5947 01b3 20       		.uleb128 0x20
 5948 01b4 898201   		.uleb128 0x4109
 5949 01b7 00       		.byte	0
 5950 01b8 11       		.uleb128 0x11
 5951 01b9 01       		.uleb128 0x1
 5952 01ba 31       		.uleb128 0x31
 5953 01bb 13       		.uleb128 0x13
 5954 01bc 00       		.byte	0
 5955 01bd 00       		.byte	0
 5956 01be 21       		.uleb128 0x21
 5957 01bf 898201   		.uleb128 0x4109
 5958 01c2 01       		.byte	0x1
 5959 01c3 11       		.uleb128 0x11
 5960 01c4 01       		.uleb128 0x1
 5961 01c5 31       		.uleb128 0x31
 5962 01c6 13       		.uleb128 0x13
 5963 01c7 01       		.uleb128 0x1
ARM GAS  G:\Users\Jaxb\AppData\Local\Temp\ccRp9Rzk.s 			page 127


 5964 01c8 13       		.uleb128 0x13
 5965 01c9 00       		.byte	0
 5966 01ca 00       		.byte	0
 5967 01cb 22       		.uleb128 0x22
 5968 01cc 898201   		.uleb128 0x4109
 5969 01cf 01       		.byte	0x1
 5970 01d0 11       		.uleb128 0x11
 5971 01d1 01       		.uleb128 0x1
 5972 01d2 31       		.uleb128 0x31
 5973 01d3 13       		.uleb128 0x13
 5974 01d4 00       		.byte	0
 5975 01d5 00       		.byte	0
 5976 01d6 23       		.uleb128 0x23
 5977 01d7 34       		.uleb128 0x34
 5978 01d8 00       		.byte	0
 5979 01d9 03       		.uleb128 0x3
 5980 01da 08       		.uleb128 0x8
 5981 01db 3A       		.uleb128 0x3a
 5982 01dc 0B       		.uleb128 0xb
 5983 01dd 3B       		.uleb128 0x3b
 5984 01de 05       		.uleb128 0x5
 5985 01df 49       		.uleb128 0x49
 5986 01e0 13       		.uleb128 0x13
 5987 01e1 02       		.uleb128 0x2
 5988 01e2 06       		.uleb128 0x6
 5989 01e3 00       		.byte	0
 5990 01e4 00       		.byte	0
 5991 01e5 24       		.uleb128 0x24
 5992 01e6 34       		.uleb128 0x34
 5993 01e7 00       		.byte	0
 5994 01e8 03       		.uleb128 0x3
 5995 01e9 0E       		.uleb128 0xe
 5996 01ea 3A       		.uleb128 0x3a
 5997 01eb 0B       		.uleb128 0xb
 5998 01ec 3B       		.uleb128 0x3b
 5999 01ed 05       		.uleb128 0x5
 6000 01ee 49       		.uleb128 0x49
 6001 01ef 13       		.uleb128 0x13
 6002 01f0 02       		.uleb128 0x2
 6003 01f1 0A       		.uleb128 0xa
 6004 01f2 00       		.byte	0
 6005 01f3 00       		.byte	0
 6006 01f4 25       		.uleb128 0x25
 6007 01f5 0A       		.uleb128 0xa
 6008 01f6 00       		.byte	0
 6009 01f7 03       		.uleb128 0x3
 6010 01f8 0E       		.uleb128 0xe
 6011 01f9 3A       		.uleb128 0x3a
 6012 01fa 0B       		.uleb128 0xb
 6013 01fb 3B       		.uleb128 0x3b
 6014 01fc 05       		.uleb128 0x5
 6015 01fd 00       		.byte	0
 6016 01fe 00       		.byte	0
 6017 01ff 26       		.uleb128 0x26
 6018 0200 1D       		.uleb128 0x1d
 6019 0201 01       		.byte	0x1
 6020 0202 31       		.uleb128 0x31
ARM GAS  G:\Users\Jaxb\AppData\Local\Temp\ccRp9Rzk.s 			page 128


 6021 0203 13       		.uleb128 0x13
 6022 0204 11       		.uleb128 0x11
 6023 0205 01       		.uleb128 0x1
 6024 0206 12       		.uleb128 0x12
 6025 0207 01       		.uleb128 0x1
 6026 0208 58       		.uleb128 0x58
 6027 0209 0B       		.uleb128 0xb
 6028 020a 59       		.uleb128 0x59
 6029 020b 05       		.uleb128 0x5
 6030 020c 01       		.uleb128 0x1
 6031 020d 13       		.uleb128 0x13
 6032 020e 00       		.byte	0
 6033 020f 00       		.byte	0
 6034 0210 27       		.uleb128 0x27
 6035 0211 05       		.uleb128 0x5
 6036 0212 00       		.byte	0
 6037 0213 31       		.uleb128 0x31
 6038 0214 13       		.uleb128 0x13
 6039 0215 02       		.uleb128 0x2
 6040 0216 06       		.uleb128 0x6
 6041 0217 00       		.byte	0
 6042 0218 00       		.byte	0
 6043 0219 28       		.uleb128 0x28
 6044 021a 05       		.uleb128 0x5
 6045 021b 00       		.byte	0
 6046 021c 03       		.uleb128 0x3
 6047 021d 0E       		.uleb128 0xe
 6048 021e 3A       		.uleb128 0x3a
 6049 021f 0B       		.uleb128 0xb
 6050 0220 3B       		.uleb128 0x3b
 6051 0221 05       		.uleb128 0x5
 6052 0222 49       		.uleb128 0x49
 6053 0223 13       		.uleb128 0x13
 6054 0224 02       		.uleb128 0x2
 6055 0225 06       		.uleb128 0x6
 6056 0226 00       		.byte	0
 6057 0227 00       		.byte	0
 6058 0228 29       		.uleb128 0x29
 6059 0229 0B       		.uleb128 0xb
 6060 022a 01       		.byte	0x1
 6061 022b 55       		.uleb128 0x55
 6062 022c 06       		.uleb128 0x6
 6063 022d 01       		.uleb128 0x1
 6064 022e 13       		.uleb128 0x13
 6065 022f 00       		.byte	0
 6066 0230 00       		.byte	0
 6067 0231 2A       		.uleb128 0x2a
 6068 0232 0B       		.uleb128 0xb
 6069 0233 01       		.byte	0x1
 6070 0234 55       		.uleb128 0x55
 6071 0235 06       		.uleb128 0x6
 6072 0236 00       		.byte	0
 6073 0237 00       		.byte	0
 6074 0238 2B       		.uleb128 0x2b
 6075 0239 2E       		.uleb128 0x2e
 6076 023a 01       		.byte	0x1
 6077 023b 3F       		.uleb128 0x3f
ARM GAS  G:\Users\Jaxb\AppData\Local\Temp\ccRp9Rzk.s 			page 129


 6078 023c 0C       		.uleb128 0xc
 6079 023d 03       		.uleb128 0x3
 6080 023e 0E       		.uleb128 0xe
 6081 023f 3A       		.uleb128 0x3a
 6082 0240 0B       		.uleb128 0xb
 6083 0241 3B       		.uleb128 0x3b
 6084 0242 0B       		.uleb128 0xb
 6085 0243 27       		.uleb128 0x27
 6086 0244 0C       		.uleb128 0xc
 6087 0245 49       		.uleb128 0x49
 6088 0246 13       		.uleb128 0x13
 6089 0247 11       		.uleb128 0x11
 6090 0248 01       		.uleb128 0x1
 6091 0249 12       		.uleb128 0x12
 6092 024a 01       		.uleb128 0x1
 6093 024b 40       		.uleb128 0x40
 6094 024c 06       		.uleb128 0x6
 6095 024d 9742     		.uleb128 0x2117
 6096 024f 0C       		.uleb128 0xc
 6097 0250 01       		.uleb128 0x1
 6098 0251 13       		.uleb128 0x13
 6099 0252 00       		.byte	0
 6100 0253 00       		.byte	0
 6101 0254 2C       		.uleb128 0x2c
 6102 0255 05       		.uleb128 0x5
 6103 0256 00       		.byte	0
 6104 0257 03       		.uleb128 0x3
 6105 0258 0E       		.uleb128 0xe
 6106 0259 3A       		.uleb128 0x3a
 6107 025a 0B       		.uleb128 0xb
 6108 025b 3B       		.uleb128 0x3b
 6109 025c 0B       		.uleb128 0xb
 6110 025d 49       		.uleb128 0x49
 6111 025e 13       		.uleb128 0x13
 6112 025f 02       		.uleb128 0x2
 6113 0260 06       		.uleb128 0x6
 6114 0261 00       		.byte	0
 6115 0262 00       		.byte	0
 6116 0263 2D       		.uleb128 0x2d
 6117 0264 34       		.uleb128 0x34
 6118 0265 00       		.byte	0
 6119 0266 03       		.uleb128 0x3
 6120 0267 0E       		.uleb128 0xe
 6121 0268 3A       		.uleb128 0x3a
 6122 0269 0B       		.uleb128 0xb
 6123 026a 3B       		.uleb128 0x3b
 6124 026b 0B       		.uleb128 0xb
 6125 026c 49       		.uleb128 0x49
 6126 026d 13       		.uleb128 0x13
 6127 026e 1C       		.uleb128 0x1c
 6128 026f 0B       		.uleb128 0xb
 6129 0270 00       		.byte	0
 6130 0271 00       		.byte	0
 6131 0272 2E       		.uleb128 0x2e
 6132 0273 34       		.uleb128 0x34
 6133 0274 00       		.byte	0
 6134 0275 03       		.uleb128 0x3
ARM GAS  G:\Users\Jaxb\AppData\Local\Temp\ccRp9Rzk.s 			page 130


 6135 0276 0E       		.uleb128 0xe
 6136 0277 3A       		.uleb128 0x3a
 6137 0278 0B       		.uleb128 0xb
 6138 0279 3B       		.uleb128 0x3b
 6139 027a 0B       		.uleb128 0xb
 6140 027b 49       		.uleb128 0x49
 6141 027c 13       		.uleb128 0x13
 6142 027d 02       		.uleb128 0x2
 6143 027e 06       		.uleb128 0x6
 6144 027f 00       		.byte	0
 6145 0280 00       		.byte	0
 6146 0281 2F       		.uleb128 0x2f
 6147 0282 34       		.uleb128 0x34
 6148 0283 00       		.byte	0
 6149 0284 03       		.uleb128 0x3
 6150 0285 08       		.uleb128 0x8
 6151 0286 3A       		.uleb128 0x3a
 6152 0287 0B       		.uleb128 0xb
 6153 0288 3B       		.uleb128 0x3b
 6154 0289 0B       		.uleb128 0xb
 6155 028a 49       		.uleb128 0x49
 6156 028b 13       		.uleb128 0x13
 6157 028c 02       		.uleb128 0x2
 6158 028d 06       		.uleb128 0x6
 6159 028e 00       		.byte	0
 6160 028f 00       		.byte	0
 6161 0290 30       		.uleb128 0x30
 6162 0291 0B       		.uleb128 0xb
 6163 0292 01       		.byte	0x1
 6164 0293 11       		.uleb128 0x11
 6165 0294 01       		.uleb128 0x1
 6166 0295 12       		.uleb128 0x12
 6167 0296 01       		.uleb128 0x1
 6168 0297 01       		.uleb128 0x1
 6169 0298 13       		.uleb128 0x13
 6170 0299 00       		.byte	0
 6171 029a 00       		.byte	0
 6172 029b 31       		.uleb128 0x31
 6173 029c 05       		.uleb128 0x5
 6174 029d 00       		.byte	0
 6175 029e 03       		.uleb128 0x3
 6176 029f 08       		.uleb128 0x8
 6177 02a0 3A       		.uleb128 0x3a
 6178 02a1 0B       		.uleb128 0xb
 6179 02a2 3B       		.uleb128 0x3b
 6180 02a3 0B       		.uleb128 0xb
 6181 02a4 49       		.uleb128 0x49
 6182 02a5 13       		.uleb128 0x13
 6183 02a6 02       		.uleb128 0x2
 6184 02a7 06       		.uleb128 0x6
 6185 02a8 00       		.byte	0
 6186 02a9 00       		.byte	0
 6187 02aa 32       		.uleb128 0x32
 6188 02ab 2E       		.uleb128 0x2e
 6189 02ac 01       		.byte	0x1
 6190 02ad 03       		.uleb128 0x3
 6191 02ae 0E       		.uleb128 0xe
ARM GAS  G:\Users\Jaxb\AppData\Local\Temp\ccRp9Rzk.s 			page 131


 6192 02af 3A       		.uleb128 0x3a
 6193 02b0 0B       		.uleb128 0xb
 6194 02b1 3B       		.uleb128 0x3b
 6195 02b2 0B       		.uleb128 0xb
 6196 02b3 27       		.uleb128 0x27
 6197 02b4 0C       		.uleb128 0xc
 6198 02b5 20       		.uleb128 0x20
 6199 02b6 0B       		.uleb128 0xb
 6200 02b7 01       		.uleb128 0x1
 6201 02b8 13       		.uleb128 0x13
 6202 02b9 00       		.byte	0
 6203 02ba 00       		.byte	0
 6204 02bb 33       		.uleb128 0x33
 6205 02bc 05       		.uleb128 0x5
 6206 02bd 00       		.byte	0
 6207 02be 03       		.uleb128 0x3
 6208 02bf 0E       		.uleb128 0xe
 6209 02c0 3A       		.uleb128 0x3a
 6210 02c1 0B       		.uleb128 0xb
 6211 02c2 3B       		.uleb128 0x3b
 6212 02c3 0B       		.uleb128 0xb
 6213 02c4 49       		.uleb128 0x49
 6214 02c5 13       		.uleb128 0x13
 6215 02c6 00       		.byte	0
 6216 02c7 00       		.byte	0
 6217 02c8 34       		.uleb128 0x34
 6218 02c9 2E       		.uleb128 0x2e
 6219 02ca 00       		.byte	0
 6220 02cb 3F       		.uleb128 0x3f
 6221 02cc 0C       		.uleb128 0xc
 6222 02cd 3C       		.uleb128 0x3c
 6223 02ce 0C       		.uleb128 0xc
 6224 02cf 8740     		.uleb128 0x2007
 6225 02d1 0E       		.uleb128 0xe
 6226 02d2 03       		.uleb128 0x3
 6227 02d3 0E       		.uleb128 0xe
 6228 02d4 3A       		.uleb128 0x3a
 6229 02d5 0B       		.uleb128 0xb
 6230 02d6 3B       		.uleb128 0x3b
 6231 02d7 0B       		.uleb128 0xb
 6232 02d8 00       		.byte	0
 6233 02d9 00       		.byte	0
 6234 02da 00       		.byte	0
 6235              		.section	.debug_loc,"",%progbits
 6236              	.Ldebug_loc0:
 6237              	.LLST63:
 6238 0000 B40B0000 		.4byte	.LFB16-.Ltext0
 6239 0004 B80B0000 		.4byte	.LCFI34-.Ltext0
 6240 0008 0200     		.2byte	0x2
 6241 000a 7D       		.byte	0x7d
 6242 000b 00       		.sleb128 0
 6243 000c B80B0000 		.4byte	.LCFI34-.Ltext0
 6244 0010 C60B0000 		.4byte	.LCFI35-.Ltext0
 6245 0014 0200     		.2byte	0x2
 6246 0016 7D       		.byte	0x7d
 6247 0017 04       		.sleb128 4
 6248 0018 C60B0000 		.4byte	.LCFI35-.Ltext0
ARM GAS  G:\Users\Jaxb\AppData\Local\Temp\ccRp9Rzk.s 			page 132


 6249 001c C80B0000 		.4byte	.LCFI36-.Ltext0
 6250 0020 0200     		.2byte	0x2
 6251 0022 7D       		.byte	0x7d
 6252 0023 00       		.sleb128 0
 6253 0024 C80B0000 		.4byte	.LCFI36-.Ltext0
 6254 0028 CC0B0000 		.4byte	.LCFI37-.Ltext0
 6255 002c 0200     		.2byte	0x2
 6256 002e 7D       		.byte	0x7d
 6257 002f 04       		.sleb128 4
 6258 0030 CC0B0000 		.4byte	.LCFI37-.Ltext0
 6259 0034 D80B0000 		.4byte	.LFE16-.Ltext0
 6260 0038 0200     		.2byte	0x2
 6261 003a 7D       		.byte	0x7d
 6262 003b 00       		.sleb128 0
 6263 003c 00000000 		.4byte	0
 6264 0040 00000000 		.4byte	0
 6265              	.LLST64:
 6266 0044 B40B0000 		.4byte	.LVL273-.Ltext0
 6267 0048 CA0B0000 		.4byte	.LVL274-.Ltext0
 6268 004c 0100     		.2byte	0x1
 6269 004e 50       		.byte	0x50
 6270 004f CA0B0000 		.4byte	.LVL274-.Ltext0
 6271 0053 D80B0000 		.4byte	.LFE16-.Ltext0
 6272 0057 0400     		.2byte	0x4
 6273 0059 F3       		.byte	0xf3
 6274 005a 01       		.uleb128 0x1
 6275 005b 50       		.byte	0x50
 6276 005c 9F       		.byte	0x9f
 6277 005d 00000000 		.4byte	0
 6278 0061 00000000 		.4byte	0
 6279              	.LLST60:
 6280 0065 4C0B0000 		.4byte	.LFB15-.Ltext0
 6281 0069 4E0B0000 		.4byte	.LCFI30-.Ltext0
 6282 006d 0200     		.2byte	0x2
 6283 006f 7D       		.byte	0x7d
 6284 0070 00       		.sleb128 0
 6285 0071 4E0B0000 		.4byte	.LCFI30-.Ltext0
 6286 0075 500B0000 		.4byte	.LCFI31-.Ltext0
 6287 0079 0200     		.2byte	0x2
 6288 007b 7D       		.byte	0x7d
 6289 007c 0C       		.sleb128 12
 6290 007d 500B0000 		.4byte	.LCFI31-.Ltext0
 6291 0081 980B0000 		.4byte	.LCFI32-.Ltext0
 6292 0085 0200     		.2byte	0x2
 6293 0087 7D       		.byte	0x7d
 6294 0088 20       		.sleb128 32
 6295 0089 980B0000 		.4byte	.LCFI32-.Ltext0
 6296 008d 9A0B0000 		.4byte	.LCFI33-.Ltext0
 6297 0091 0200     		.2byte	0x2
 6298 0093 7D       		.byte	0x7d
 6299 0094 0C       		.sleb128 12
 6300 0095 9A0B0000 		.4byte	.LCFI33-.Ltext0
 6301 0099 B40B0000 		.4byte	.LFE15-.Ltext0
 6302 009d 0200     		.2byte	0x2
 6303 009f 7D       		.byte	0x7d
 6304 00a0 20       		.sleb128 32
 6305 00a1 00000000 		.4byte	0
ARM GAS  G:\Users\Jaxb\AppData\Local\Temp\ccRp9Rzk.s 			page 133


 6306 00a5 00000000 		.4byte	0
 6307              	.LLST61:
 6308 00a9 4C0B0000 		.4byte	.LVL263-.Ltext0
 6309 00ad 540B0000 		.4byte	.LVL264-.Ltext0
 6310 00b1 0200     		.2byte	0x2
 6311 00b3 30       		.byte	0x30
 6312 00b4 9F       		.byte	0x9f
 6313 00b5 540B0000 		.4byte	.LVL264-.Ltext0
 6314 00b9 6A0B0000 		.4byte	.LVL265-.Ltext0
 6315 00bd 0100     		.2byte	0x1
 6316 00bf 50       		.byte	0x50
 6317 00c0 6A0B0000 		.4byte	.LVL265-.Ltext0
 6318 00c4 940B0000 		.4byte	.LVL268-.Ltext0
 6319 00c8 0100     		.2byte	0x1
 6320 00ca 54       		.byte	0x54
 6321 00cb 9A0B0000 		.4byte	.LVL269-.Ltext0
 6322 00cf A00B0000 		.4byte	.LVL271-.Ltext0
 6323 00d3 0100     		.2byte	0x1
 6324 00d5 54       		.byte	0x54
 6325 00d6 A40B0000 		.4byte	.LVL272-.Ltext0
 6326 00da B40B0000 		.4byte	.LFE15-.Ltext0
 6327 00de 0200     		.2byte	0x2
 6328 00e0 30       		.byte	0x30
 6329 00e1 9F       		.byte	0x9f
 6330 00e2 00000000 		.4byte	0
 6331 00e6 00000000 		.4byte	0
 6332              	.LLST62:
 6333 00ea 8C0B0000 		.4byte	.LVL266-.Ltext0
 6334 00ee 900B0000 		.4byte	.LVL267-.Ltext0
 6335 00f2 0100     		.2byte	0x1
 6336 00f4 50       		.byte	0x50
 6337 00f5 9A0B0000 		.4byte	.LVL269-.Ltext0
 6338 00f9 9E0B0000 		.4byte	.LVL270-.Ltext0
 6339 00fd 0100     		.2byte	0x1
 6340 00ff 50       		.byte	0x50
 6341 0100 9E0B0000 		.4byte	.LVL270-.Ltext0
 6342 0104 A30B0000 		.4byte	.LVL272-1-.Ltext0
 6343 0108 0100     		.2byte	0x1
 6344 010a 51       		.byte	0x51
 6345 010b 00000000 		.4byte	0
 6346 010f 00000000 		.4byte	0
 6347              	.LLST56:
 6348 0113 2C0A0000 		.4byte	.LFB14-.Ltext0
 6349 0117 300A0000 		.4byte	.LCFI29-.Ltext0
 6350 011b 0200     		.2byte	0x2
 6351 011d 7D       		.byte	0x7d
 6352 011e 00       		.sleb128 0
 6353 011f 300A0000 		.4byte	.LCFI29-.Ltext0
 6354 0123 4C0B0000 		.4byte	.LFE14-.Ltext0
 6355 0127 0200     		.2byte	0x2
 6356 0129 7D       		.byte	0x7d
 6357 012a 10       		.sleb128 16
 6358 012b 00000000 		.4byte	0
 6359 012f 00000000 		.4byte	0
 6360              	.LLST57:
 6361 0133 2C0A0000 		.4byte	.LVL232-.Ltext0
 6362 0137 580A0000 		.4byte	.LVL238-.Ltext0
ARM GAS  G:\Users\Jaxb\AppData\Local\Temp\ccRp9Rzk.s 			page 134


 6363 013b 0200     		.2byte	0x2
 6364 013d 30       		.byte	0x30
 6365 013e 9F       		.byte	0x9f
 6366 013f 5C0A0000 		.4byte	.LVL239-.Ltext0
 6367 0143 B60A0000 		.4byte	.LVL249-.Ltext0
 6368 0147 0200     		.2byte	0x2
 6369 0149 30       		.byte	0x30
 6370 014a 9F       		.byte	0x9f
 6371 014b D20A0000 		.4byte	.LVL253-.Ltext0
 6372 014f F00A0000 		.4byte	.LVL258-.Ltext0
 6373 0153 0200     		.2byte	0x2
 6374 0155 30       		.byte	0x30
 6375 0156 9F       		.byte	0x9f
 6376 0157 F00A0000 		.4byte	.LVL258-.Ltext0
 6377 015b F80A0000 		.4byte	.LVL259-.Ltext0
 6378 015f 0100     		.2byte	0x1
 6379 0161 50       		.byte	0x50
 6380 0162 F80A0000 		.4byte	.LVL259-.Ltext0
 6381 0166 4C0B0000 		.4byte	.LFE14-.Ltext0
 6382 016a 0100     		.2byte	0x1
 6383 016c 56       		.byte	0x56
 6384 016d 00000000 		.4byte	0
 6385 0171 00000000 		.4byte	0
 6386              	.LLST58:
 6387 0175 320A0000 		.4byte	.LVL233-.Ltext0
 6388 0179 580A0000 		.4byte	.LVL238-.Ltext0
 6389 017d 0200     		.2byte	0x2
 6390 017f 30       		.byte	0x30
 6391 0180 9F       		.byte	0x9f
 6392 0181 5C0A0000 		.4byte	.LVL239-.Ltext0
 6393 0185 880A0000 		.4byte	.LVL244-.Ltext0
 6394 0189 0200     		.2byte	0x2
 6395 018b 30       		.byte	0x30
 6396 018c 9F       		.byte	0x9f
 6397 018d 880A0000 		.4byte	.LVL244-.Ltext0
 6398 0191 8E0A0000 		.4byte	.LVL245-.Ltext0
 6399 0195 0100     		.2byte	0x1
 6400 0197 50       		.byte	0x50
 6401 0198 8E0A0000 		.4byte	.LVL245-.Ltext0
 6402 019c CC0A0000 		.4byte	.LVL252-.Ltext0
 6403 01a0 0100     		.2byte	0x1
 6404 01a2 55       		.byte	0x55
 6405 01a3 D20A0000 		.4byte	.LVL253-.Ltext0
 6406 01a7 E20A0000 		.4byte	.LVL256-.Ltext0
 6407 01ab 0200     		.2byte	0x2
 6408 01ad 30       		.byte	0x30
 6409 01ae 9F       		.byte	0x9f
 6410 01af E20A0000 		.4byte	.LVL256-.Ltext0
 6411 01b3 4C0B0000 		.4byte	.LFE14-.Ltext0
 6412 01b7 0100     		.2byte	0x1
 6413 01b9 55       		.byte	0x55
 6414 01ba 00000000 		.4byte	0
 6415 01be 00000000 		.4byte	0
 6416              	.LLST59:
 6417 01c2 980A0000 		.4byte	.LVL246-.Ltext0
 6418 01c6 A00A0000 		.4byte	.LVL247-.Ltext0
 6419 01ca 0100     		.2byte	0x1
ARM GAS  G:\Users\Jaxb\AppData\Local\Temp\ccRp9Rzk.s 			page 135


 6420 01cc 53       		.byte	0x53
 6421 01cd 00000000 		.4byte	0
 6422 01d1 00000000 		.4byte	0
 6423              	.LLST37:
 6424 01d5 58060000 		.4byte	.LFB13-.Ltext0
 6425 01d9 5C060000 		.4byte	.LCFI25-.Ltext0
 6426 01dd 0200     		.2byte	0x2
 6427 01df 7D       		.byte	0x7d
 6428 01e0 00       		.sleb128 0
 6429 01e1 5C060000 		.4byte	.LCFI25-.Ltext0
 6430 01e5 60060000 		.4byte	.LCFI26-.Ltext0
 6431 01e9 0200     		.2byte	0x2
 6432 01eb 7D       		.byte	0x7d
 6433 01ec 24       		.sleb128 36
 6434 01ed 60060000 		.4byte	.LCFI26-.Ltext0
 6435 01f1 B0060000 		.4byte	.LCFI27-.Ltext0
 6436 01f5 0300     		.2byte	0x3
 6437 01f7 7D       		.byte	0x7d
 6438 01f8 C800     		.sleb128 72
 6439 01fa B0060000 		.4byte	.LCFI27-.Ltext0
 6440 01fe B4060000 		.4byte	.LCFI28-.Ltext0
 6441 0202 0200     		.2byte	0x2
 6442 0204 7D       		.byte	0x7d
 6443 0205 24       		.sleb128 36
 6444 0206 B4060000 		.4byte	.LCFI28-.Ltext0
 6445 020a 2C0A0000 		.4byte	.LFE13-.Ltext0
 6446 020e 0300     		.2byte	0x3
 6447 0210 7D       		.byte	0x7d
 6448 0211 C800     		.sleb128 72
 6449 0213 00000000 		.4byte	0
 6450 0217 00000000 		.4byte	0
 6451              	.LLST38:
 6452 021b 58060000 		.4byte	.LVL154-.Ltext0
 6453 021f 76060000 		.4byte	.LVL155-.Ltext0
 6454 0223 0100     		.2byte	0x1
 6455 0225 50       		.byte	0x50
 6456 0226 76060000 		.4byte	.LVL155-.Ltext0
 6457 022a AC060000 		.4byte	.LVL159-.Ltext0
 6458 022e 0100     		.2byte	0x1
 6459 0230 59       		.byte	0x59
 6460 0231 AC060000 		.4byte	.LVL159-.Ltext0
 6461 0235 B4060000 		.4byte	.LVL160-.Ltext0
 6462 0239 0400     		.2byte	0x4
 6463 023b F3       		.byte	0xf3
 6464 023c 01       		.uleb128 0x1
 6465 023d 50       		.byte	0x50
 6466 023e 9F       		.byte	0x9f
 6467 023f B4060000 		.4byte	.LVL160-.Ltext0
 6468 0243 CC070000 		.4byte	.LVL180-.Ltext0
 6469 0247 0100     		.2byte	0x1
 6470 0249 59       		.byte	0x59
 6471 024a CC070000 		.4byte	.LVL180-.Ltext0
 6472 024e 6E090000 		.4byte	.LVL220-.Ltext0
 6473 0252 0200     		.2byte	0x2
 6474 0254 91       		.byte	0x91
 6475 0255 44       		.sleb128 -60
 6476 0256 6E090000 		.4byte	.LVL220-.Ltext0
ARM GAS  G:\Users\Jaxb\AppData\Local\Temp\ccRp9Rzk.s 			page 136


 6477 025a 2C0A0000 		.4byte	.LFE13-.Ltext0
 6478 025e 0100     		.2byte	0x1
 6479 0260 59       		.byte	0x59
 6480 0261 00000000 		.4byte	0
 6481 0265 00000000 		.4byte	0
 6482              	.LLST39:
 6483 0269 58060000 		.4byte	.LVL154-.Ltext0
 6484 026d 78060000 		.4byte	.LVL156-.Ltext0
 6485 0271 0100     		.2byte	0x1
 6486 0273 51       		.byte	0x51
 6487 0274 78060000 		.4byte	.LVL156-.Ltext0
 6488 0278 34080000 		.4byte	.LVL186-.Ltext0
 6489 027c 0100     		.2byte	0x1
 6490 027e 54       		.byte	0x54
 6491 027f 34080000 		.4byte	.LVL186-.Ltext0
 6492 0283 B2080000 		.4byte	.LVL201-.Ltext0
 6493 0287 0100     		.2byte	0x1
 6494 0289 56       		.byte	0x56
 6495 028a B2080000 		.4byte	.LVL201-.Ltext0
 6496 028e B6080000 		.4byte	.LVL202-.Ltext0
 6497 0292 0100     		.2byte	0x1
 6498 0294 54       		.byte	0x54
 6499 0295 B6080000 		.4byte	.LVL202-.Ltext0
 6500 0299 6E090000 		.4byte	.LVL220-.Ltext0
 6501 029d 0100     		.2byte	0x1
 6502 029f 56       		.byte	0x56
 6503 02a0 6E090000 		.4byte	.LVL220-.Ltext0
 6504 02a4 2C0A0000 		.4byte	.LFE13-.Ltext0
 6505 02a8 0100     		.2byte	0x1
 6506 02aa 54       		.byte	0x54
 6507 02ab 00000000 		.4byte	0
 6508 02af 00000000 		.4byte	0
 6509              	.LLST40:
 6510 02b3 58060000 		.4byte	.LVL154-.Ltext0
 6511 02b7 78060000 		.4byte	.LVL156-.Ltext0
 6512 02bb 0200     		.2byte	0x2
 6513 02bd 30       		.byte	0x30
 6514 02be 9F       		.byte	0x9f
 6515 02bf EA060000 		.4byte	.LVL166-.Ltext0
 6516 02c3 06070000 		.4byte	.LVL167-.Ltext0
 6517 02c7 0200     		.2byte	0x2
 6518 02c9 30       		.byte	0x30
 6519 02ca 9F       		.byte	0x9f
 6520 02cb 06070000 		.4byte	.LVL167-.Ltext0
 6521 02cf A2070000 		.4byte	.LVL178-.Ltext0
 6522 02d3 0100     		.2byte	0x1
 6523 02d5 56       		.byte	0x56
 6524 02d6 B8070000 		.4byte	.LVL179-.Ltext0
 6525 02da CC070000 		.4byte	.LVL180-.Ltext0
 6526 02de 0200     		.2byte	0x2
 6527 02e0 30       		.byte	0x30
 6528 02e1 9F       		.byte	0x9f
 6529 02e2 CE070000 		.4byte	.LVL181-.Ltext0
 6530 02e6 32080000 		.4byte	.LVL185-.Ltext0
 6531 02ea 0100     		.2byte	0x1
 6532 02ec 56       		.byte	0x56
 6533 02ed 32080000 		.4byte	.LVL185-.Ltext0
ARM GAS  G:\Users\Jaxb\AppData\Local\Temp\ccRp9Rzk.s 			page 137


 6534 02f1 6E090000 		.4byte	.LVL220-.Ltext0
 6535 02f5 0200     		.2byte	0x2
 6536 02f7 91       		.byte	0x91
 6537 02f8 48       		.sleb128 -56
 6538 02f9 6E090000 		.4byte	.LVL220-.Ltext0
 6539 02fd 0E0A0000 		.4byte	.LVL229-.Ltext0
 6540 0301 0100     		.2byte	0x1
 6541 0303 56       		.byte	0x56
 6542 0304 0E0A0000 		.4byte	.LVL229-.Ltext0
 6543 0308 160A0000 		.4byte	.LVL230-.Ltext0
 6544 030c 0200     		.2byte	0x2
 6545 030e 30       		.byte	0x30
 6546 030f 9F       		.byte	0x9f
 6547 0310 00000000 		.4byte	0
 6548 0314 00000000 		.4byte	0
 6549              	.LLST41:
 6550 0318 58060000 		.4byte	.LVL154-.Ltext0
 6551 031c AC060000 		.4byte	.LVL159-.Ltext0
 6552 0320 0200     		.2byte	0x2
 6553 0322 30       		.byte	0x30
 6554 0323 9F       		.byte	0x9f
 6555 0324 B4060000 		.4byte	.LVL160-.Ltext0
 6556 0328 06070000 		.4byte	.LVL167-.Ltext0
 6557 032c 0200     		.2byte	0x2
 6558 032e 30       		.byte	0x30
 6559 032f 9F       		.byte	0x9f
 6560 0330 92090000 		.4byte	.LVL223-.Ltext0
 6561 0334 9E090000 		.4byte	.LVL224-.Ltext0
 6562 0338 0100     		.2byte	0x1
 6563 033a 57       		.byte	0x57
 6564 033b 9E090000 		.4byte	.LVL224-.Ltext0
 6565 033f DC090000 		.4byte	.LVL225-.Ltext0
 6566 0343 0200     		.2byte	0x2
 6567 0345 91       		.byte	0x91
 6568 0346 4C       		.sleb128 -52
 6569 0347 0E0A0000 		.4byte	.LVL229-.Ltext0
 6570 034b 2C0A0000 		.4byte	.LFE13-.Ltext0
 6571 034f 0200     		.2byte	0x2
 6572 0351 30       		.byte	0x30
 6573 0352 9F       		.byte	0x9f
 6574 0353 00000000 		.4byte	0
 6575 0357 00000000 		.4byte	0
 6576              	.LLST42:
 6577 035b 58060000 		.4byte	.LVL154-.Ltext0
 6578 035f AC060000 		.4byte	.LVL159-.Ltext0
 6579 0363 0200     		.2byte	0x2
 6580 0365 30       		.byte	0x30
 6581 0366 9F       		.byte	0x9f
 6582 0367 B4060000 		.4byte	.LVL160-.Ltext0
 6583 036b 06070000 		.4byte	.LVL167-.Ltext0
 6584 036f 0200     		.2byte	0x2
 6585 0371 30       		.byte	0x30
 6586 0372 9F       		.byte	0x9f
 6587 0373 96070000 		.4byte	.LVL175-.Ltext0
 6588 0377 9A070000 		.4byte	.LVL176-.Ltext0
 6589 037b 0100     		.2byte	0x1
 6590 037d 57       		.byte	0x57
ARM GAS  G:\Users\Jaxb\AppData\Local\Temp\ccRp9Rzk.s 			page 138


 6591 037e 0E0A0000 		.4byte	.LVL229-.Ltext0
 6592 0382 2C0A0000 		.4byte	.LFE13-.Ltext0
 6593 0386 0200     		.2byte	0x2
 6594 0388 30       		.byte	0x30
 6595 0389 9F       		.byte	0x9f
 6596 038a 00000000 		.4byte	0
 6597 038e 00000000 		.4byte	0
 6598              	.LLST43:
 6599 0392 58060000 		.4byte	.LVL154-.Ltext0
 6600 0396 AC060000 		.4byte	.LVL159-.Ltext0
 6601 039a 0200     		.2byte	0x2
 6602 039c 30       		.byte	0x30
 6603 039d 9F       		.byte	0x9f
 6604 039e B4060000 		.4byte	.LVL160-.Ltext0
 6605 03a2 06070000 		.4byte	.LVL167-.Ltext0
 6606 03a6 0200     		.2byte	0x2
 6607 03a8 30       		.byte	0x30
 6608 03a9 9F       		.byte	0x9f
 6609 03aa 06070000 		.4byte	.LVL167-.Ltext0
 6610 03ae 66070000 		.4byte	.LVL172-.Ltext0
 6611 03b2 0200     		.2byte	0x2
 6612 03b4 91       		.byte	0x91
 6613 03b5 54       		.sleb128 -44
 6614 03b6 66070000 		.4byte	.LVL172-.Ltext0
 6615 03ba 72070000 		.4byte	.LVL173-.Ltext0
 6616 03be 0100     		.2byte	0x1
 6617 03c0 57       		.byte	0x57
 6618 03c1 72070000 		.4byte	.LVL173-.Ltext0
 6619 03c5 A2070000 		.4byte	.LVL178-.Ltext0
 6620 03c9 0200     		.2byte	0x2
 6621 03cb 91       		.byte	0x91
 6622 03cc 54       		.sleb128 -44
 6623 03cd 6E090000 		.4byte	.LVL220-.Ltext0
 6624 03d1 0E0A0000 		.4byte	.LVL229-.Ltext0
 6625 03d5 0200     		.2byte	0x2
 6626 03d7 91       		.byte	0x91
 6627 03d8 54       		.sleb128 -44
 6628 03d9 0E0A0000 		.4byte	.LVL229-.Ltext0
 6629 03dd 2C0A0000 		.4byte	.LFE13-.Ltext0
 6630 03e1 0200     		.2byte	0x2
 6631 03e3 30       		.byte	0x30
 6632 03e4 9F       		.byte	0x9f
 6633 03e5 00000000 		.4byte	0
 6634 03e9 00000000 		.4byte	0
 6635              	.LLST44:
 6636 03ed 58060000 		.4byte	.LVL154-.Ltext0
 6637 03f1 78060000 		.4byte	.LVL156-.Ltext0
 6638 03f5 0200     		.2byte	0x2
 6639 03f7 30       		.byte	0x30
 6640 03f8 9F       		.byte	0x9f
 6641 03f9 BA060000 		.4byte	.LVL161-.Ltext0
 6642 03fd BC060000 		.4byte	.LVL162-.Ltext0
 6643 0401 0300     		.2byte	0x3
 6644 0403 91       		.byte	0x91
 6645 0404 BC7F     		.sleb128 -68
 6646 0406 00000000 		.4byte	0
 6647 040a 00000000 		.4byte	0
ARM GAS  G:\Users\Jaxb\AppData\Local\Temp\ccRp9Rzk.s 			page 139


 6648              	.LLST45:
 6649 040e 58060000 		.4byte	.LVL154-.Ltext0
 6650 0412 78060000 		.4byte	.LVL156-.Ltext0
 6651 0416 0200     		.2byte	0x2
 6652 0418 30       		.byte	0x30
 6653 0419 9F       		.byte	0x9f
 6654 041a 78060000 		.4byte	.LVL156-.Ltext0
 6655 041e AC060000 		.4byte	.LVL159-.Ltext0
 6656 0422 0100     		.2byte	0x1
 6657 0424 55       		.byte	0x55
 6658 0425 B4060000 		.4byte	.LVL160-.Ltext0
 6659 0429 06070000 		.4byte	.LVL167-.Ltext0
 6660 042d 0100     		.2byte	0x1
 6661 042f 55       		.byte	0x55
 6662 0430 0E0A0000 		.4byte	.LVL229-.Ltext0
 6663 0434 2C0A0000 		.4byte	.LFE13-.Ltext0
 6664 0438 0100     		.2byte	0x1
 6665 043a 55       		.byte	0x55
 6666 043b 00000000 		.4byte	0
 6667 043f 00000000 		.4byte	0
 6668              	.LLST46:
 6669 0443 E2060000 		.4byte	.LVL165-.Ltext0
 6670 0447 E9060000 		.4byte	.LVL166-1-.Ltext0
 6671 044b 0100     		.2byte	0x1
 6672 044d 50       		.byte	0x50
 6673 044e E9060000 		.4byte	.LVL166-1-.Ltext0
 6674 0452 CC070000 		.4byte	.LVL180-.Ltext0
 6675 0456 0100     		.2byte	0x1
 6676 0458 57       		.byte	0x57
 6677 0459 6E090000 		.4byte	.LVL220-.Ltext0
 6678 045d 160A0000 		.4byte	.LVL230-.Ltext0
 6679 0461 0100     		.2byte	0x1
 6680 0463 57       		.byte	0x57
 6681 0464 00000000 		.4byte	0
 6682 0468 00000000 		.4byte	0
 6683              	.LLST47:
 6684 046c 24080000 		.4byte	.LVL183-.Ltext0
 6685 0470 6E090000 		.4byte	.LVL220-.Ltext0
 6686 0474 0100     		.2byte	0x1
 6687 0476 57       		.byte	0x57
 6688 0477 00000000 		.4byte	0
 6689 047b 00000000 		.4byte	0
 6690              	.LLST48:
 6691 047f 24080000 		.4byte	.LVL183-.Ltext0
 6692 0483 34080000 		.4byte	.LVL186-.Ltext0
 6693 0487 0100     		.2byte	0x1
 6694 0489 52       		.byte	0x52
 6695 048a 34080000 		.4byte	.LVL186-.Ltext0
 6696 048e 6E090000 		.4byte	.LVL220-.Ltext0
 6697 0492 0200     		.2byte	0x2
 6698 0494 91       		.byte	0x91
 6699 0495 40       		.sleb128 -64
 6700 0496 00000000 		.4byte	0
 6701 049a 00000000 		.4byte	0
 6702              	.LLST49:
 6703 049e 24080000 		.4byte	.LVL183-.Ltext0
 6704 04a2 34080000 		.4byte	.LVL186-.Ltext0
ARM GAS  G:\Users\Jaxb\AppData\Local\Temp\ccRp9Rzk.s 			page 140


 6705 04a6 0200     		.2byte	0x2
 6706 04a8 30       		.byte	0x30
 6707 04a9 9F       		.byte	0x9f
 6708 04aa 00000000 		.4byte	0
 6709 04ae 00000000 		.4byte	0
 6710              	.LLST50:
 6711 04b2 24080000 		.4byte	.LVL183-.Ltext0
 6712 04b6 2E080000 		.4byte	.LVL184-.Ltext0
 6713 04ba 0100     		.2byte	0x1
 6714 04bc 58       		.byte	0x58
 6715 04bd 2E080000 		.4byte	.LVL184-.Ltext0
 6716 04c1 34080000 		.4byte	.LVL186-.Ltext0
 6717 04c5 0500     		.2byte	0x5
 6718 04c7 73       		.byte	0x73
 6719 04c8 00       		.sleb128 0
 6720 04c9 33       		.byte	0x33
 6721 04ca 25       		.byte	0x25
 6722 04cb 9F       		.byte	0x9f
 6723 04cc 00000000 		.4byte	0
 6724 04d0 00000000 		.4byte	0
 6725              	.LLST51:
 6726 04d4 24080000 		.4byte	.LVL183-.Ltext0
 6727 04d8 32080000 		.4byte	.LVL185-.Ltext0
 6728 04dc 2500     		.2byte	0x25
 6729 04de 74       		.byte	0x74
 6730 04df 00       		.sleb128 0
 6731 04e0 76       		.byte	0x76
 6732 04e1 00       		.sleb128 0
 6733 04e2 32       		.byte	0x32
 6734 04e3 24       		.byte	0x24
 6735 04e4 76       		.byte	0x76
 6736 04e5 00       		.sleb128 0
 6737 04e6 22       		.byte	0x22
 6738 04e7 33       		.byte	0x33
 6739 04e8 24       		.byte	0x24
 6740 04e9 74       		.byte	0x74
 6741 04ea 00       		.sleb128 0
 6742 04eb 22       		.byte	0x22
 6743 04ec 74       		.byte	0x74
 6744 04ed 20       		.sleb128 32
 6745 04ee 06       		.byte	0x6
 6746 04ef 22       		.byte	0x22
 6747 04f0 23       		.byte	0x23
 6748 04f1 18       		.uleb128 0x18
 6749 04f2 06       		.byte	0x6
 6750 04f3 35       		.byte	0x35
 6751 04f4 1E       		.byte	0x1e
 6752 04f5 33       		.byte	0x33
 6753 04f6 24       		.byte	0x24
 6754 04f7 74       		.byte	0x74
 6755 04f8 00       		.sleb128 0
 6756 04f9 22       		.byte	0x22
 6757 04fa 74       		.byte	0x74
 6758 04fb 20       		.sleb128 32
 6759 04fc 06       		.byte	0x6
 6760 04fd 22       		.byte	0x22
 6761 04fe 23       		.byte	0x23
ARM GAS  G:\Users\Jaxb\AppData\Local\Temp\ccRp9Rzk.s 			page 141


 6762 04ff 10       		.uleb128 0x10
 6763 0500 06       		.byte	0x6
 6764 0501 22       		.byte	0x22
 6765 0502 9F       		.byte	0x9f
 6766 0503 32080000 		.4byte	.LVL185-.Ltext0
 6767 0507 34080000 		.4byte	.LVL186-.Ltext0
 6768 050b 0600     		.2byte	0x6
 6769 050d 74       		.byte	0x74
 6770 050e 00       		.sleb128 0
 6771 050f 7A       		.byte	0x7a
 6772 0510 00       		.sleb128 0
 6773 0511 22       		.byte	0x22
 6774 0512 9F       		.byte	0x9f
 6775 0513 34080000 		.4byte	.LVL186-.Ltext0
 6776 0517 B2080000 		.4byte	.LVL201-.Ltext0
 6777 051b 0600     		.2byte	0x6
 6778 051d 76       		.byte	0x76
 6779 051e 00       		.sleb128 0
 6780 051f 7A       		.byte	0x7a
 6781 0520 00       		.sleb128 0
 6782 0521 22       		.byte	0x22
 6783 0522 9F       		.byte	0x9f
 6784 0523 B2080000 		.4byte	.LVL201-.Ltext0
 6785 0527 B6080000 		.4byte	.LVL202-.Ltext0
 6786 052b 0600     		.2byte	0x6
 6787 052d 74       		.byte	0x74
 6788 052e 00       		.sleb128 0
 6789 052f 7A       		.byte	0x7a
 6790 0530 00       		.sleb128 0
 6791 0531 22       		.byte	0x22
 6792 0532 9F       		.byte	0x9f
 6793 0533 B6080000 		.4byte	.LVL202-.Ltext0
 6794 0537 6E090000 		.4byte	.LVL220-.Ltext0
 6795 053b 0600     		.2byte	0x6
 6796 053d 76       		.byte	0x76
 6797 053e 00       		.sleb128 0
 6798 053f 7A       		.byte	0x7a
 6799 0540 00       		.sleb128 0
 6800 0541 22       		.byte	0x22
 6801 0542 9F       		.byte	0x9f
 6802 0543 00000000 		.4byte	0
 6803 0547 00000000 		.4byte	0
 6804              	.LLST52:
 6805 054b 24080000 		.4byte	.LVL183-.Ltext0
 6806 054f A2080000 		.4byte	.LVL197-.Ltext0
 6807 0553 0100     		.2byte	0x1
 6808 0555 55       		.byte	0x55
 6809 0556 A2080000 		.4byte	.LVL197-.Ltext0
 6810 055a AA080000 		.4byte	.LVL198-.Ltext0
 6811 055e 0300     		.2byte	0x3
 6812 0560 75       		.byte	0x75
 6813 0561 78       		.sleb128 -8
 6814 0562 9F       		.byte	0x9f
 6815 0563 AA080000 		.4byte	.LVL198-.Ltext0
 6816 0567 6E090000 		.4byte	.LVL220-.Ltext0
 6817 056b 0100     		.2byte	0x1
 6818 056d 55       		.byte	0x55
ARM GAS  G:\Users\Jaxb\AppData\Local\Temp\ccRp9Rzk.s 			page 142


 6819 056e 00000000 		.4byte	0
 6820 0572 00000000 		.4byte	0
 6821              	.LLST53:
 6822 0576 34080000 		.4byte	.LVL186-.Ltext0
 6823 057a 48080000 		.4byte	.LVL187-.Ltext0
 6824 057e 0100     		.2byte	0x1
 6825 0580 59       		.byte	0x59
 6826 0581 48080000 		.4byte	.LVL187-.Ltext0
 6827 0585 4E080000 		.4byte	.LVL189-.Ltext0
 6828 0589 0600     		.2byte	0x6
 6829 058b 76       		.byte	0x76
 6830 058c 00       		.sleb128 0
 6831 058d 74       		.byte	0x74
 6832 058e 00       		.sleb128 0
 6833 058f 22       		.byte	0x22
 6834 0590 9F       		.byte	0x9f
 6835 0591 5E080000 		.4byte	.LVL190-.Ltext0
 6836 0595 92080000 		.4byte	.LVL194-.Ltext0
 6837 0599 0100     		.2byte	0x1
 6838 059b 59       		.byte	0x59
 6839 059c 92080000 		.4byte	.LVL194-.Ltext0
 6840 05a0 B0080000 		.4byte	.LVL200-.Ltext0
 6841 05a4 0600     		.2byte	0x6
 6842 05a6 76       		.byte	0x76
 6843 05a7 00       		.sleb128 0
 6844 05a8 74       		.byte	0x74
 6845 05a9 00       		.sleb128 0
 6846 05aa 22       		.byte	0x22
 6847 05ab 9F       		.byte	0x9f
 6848 05ac B6080000 		.4byte	.LVL202-.Ltext0
 6849 05b0 02090000 		.4byte	.LVL209-.Ltext0
 6850 05b4 0100     		.2byte	0x1
 6851 05b6 59       		.byte	0x59
 6852 05b7 02090000 		.4byte	.LVL209-.Ltext0
 6853 05bb 0E090000 		.4byte	.LVL212-.Ltext0
 6854 05bf 0600     		.2byte	0x6
 6855 05c1 76       		.byte	0x76
 6856 05c2 00       		.sleb128 0
 6857 05c3 74       		.byte	0x74
 6858 05c4 00       		.sleb128 0
 6859 05c5 22       		.byte	0x22
 6860 05c6 9F       		.byte	0x9f
 6861 05c7 0E090000 		.4byte	.LVL212-.Ltext0
 6862 05cb 6E090000 		.4byte	.LVL220-.Ltext0
 6863 05cf 0100     		.2byte	0x1
 6864 05d1 59       		.byte	0x59
 6865 05d2 00000000 		.4byte	0
 6866 05d6 00000000 		.4byte	0
 6867              	.LLST55:
 6868 05da 34080000 		.4byte	.LVL186-.Ltext0
 6869 05de 48080000 		.4byte	.LVL187-.Ltext0
 6870 05e2 0200     		.2byte	0x2
 6871 05e4 30       		.byte	0x30
 6872 05e5 9F       		.byte	0x9f
 6873 05e6 CC080000 		.4byte	.LVL204-.Ltext0
 6874 05ea F4080000 		.4byte	.LVL207-.Ltext0
 6875 05ee 0200     		.2byte	0x2
ARM GAS  G:\Users\Jaxb\AppData\Local\Temp\ccRp9Rzk.s 			page 143


 6876 05f0 30       		.byte	0x30
 6877 05f1 9F       		.byte	0x9f
 6878 05f2 F4080000 		.4byte	.LVL207-.Ltext0
 6879 05f6 FF080000 		.4byte	.LVL208-1-.Ltext0
 6880 05fa 0100     		.2byte	0x1
 6881 05fc 52       		.byte	0x52
 6882 05fd 0E090000 		.4byte	.LVL212-.Ltext0
 6883 0601 3A090000 		.4byte	.LVL215-.Ltext0
 6884 0605 0200     		.2byte	0x2
 6885 0607 30       		.byte	0x30
 6886 0608 9F       		.byte	0x9f
 6887 0609 3A090000 		.4byte	.LVL215-.Ltext0
 6888 060d 3C090000 		.4byte	.LVL216-.Ltext0
 6889 0611 0100     		.2byte	0x1
 6890 0613 52       		.byte	0x52
 6891 0614 3C090000 		.4byte	.LVL216-.Ltext0
 6892 0618 6C090000 		.4byte	.LVL219-.Ltext0
 6893 061c 0200     		.2byte	0x2
 6894 061e 30       		.byte	0x30
 6895 061f 9F       		.byte	0x9f
 6896 0620 6C090000 		.4byte	.LVL219-.Ltext0
 6897 0624 6E090000 		.4byte	.LVL220-.Ltext0
 6898 0628 0100     		.2byte	0x1
 6899 062a 52       		.byte	0x52
 6900 062b 00000000 		.4byte	0
 6901 062f 00000000 		.4byte	0
 6902              	.LLST54:
 6903 0633 90080000 		.4byte	.LVL193-.Ltext0
 6904 0637 9C080000 		.4byte	.LVL195-.Ltext0
 6905 063b 0100     		.2byte	0x1
 6906 063d 50       		.byte	0x50
 6907 063e 9C080000 		.4byte	.LVL195-.Ltext0
 6908 0642 9F080000 		.4byte	.LVL196-1-.Ltext0
 6909 0646 0100     		.2byte	0x1
 6910 0648 52       		.byte	0x52
 6911 0649 9F080000 		.4byte	.LVL196-1-.Ltext0
 6912 064d AE080000 		.4byte	.LVL199-.Ltext0
 6913 0651 0100     		.2byte	0x1
 6914 0653 59       		.byte	0x59
 6915 0654 B6080000 		.4byte	.LVL202-.Ltext0
 6916 0658 C9080000 		.4byte	.LVL203-1-.Ltext0
 6917 065c 1000     		.2byte	0x10
 6918 065e 91       		.byte	0x91
 6919 065f 44       		.sleb128 -60
 6920 0660 06       		.byte	0x6
 6921 0661 23       		.byte	0x23
 6922 0662 34       		.uleb128 0x34
 6923 0663 06       		.byte	0x6
 6924 0664 79       		.byte	0x79
 6925 0665 04       		.sleb128 4
 6926 0666 06       		.byte	0x6
 6927 0667 22       		.byte	0x22
 6928 0668 91       		.byte	0x91
 6929 0669 BC7F     		.sleb128 -68
 6930 066b 06       		.byte	0x6
 6931 066c 1C       		.byte	0x1c
 6932 066d 9F       		.byte	0x9f
ARM GAS  G:\Users\Jaxb\AppData\Local\Temp\ccRp9Rzk.s 			page 144


 6933 066e 02090000 		.4byte	.LVL209-.Ltext0
 6934 0672 06090000 		.4byte	.LVL210-.Ltext0
 6935 0676 0100     		.2byte	0x1
 6936 0678 50       		.byte	0x50
 6937 0679 06090000 		.4byte	.LVL210-.Ltext0
 6938 067d 0E090000 		.4byte	.LVL212-.Ltext0
 6939 0681 0100     		.2byte	0x1
 6940 0683 59       		.byte	0x59
 6941 0684 00000000 		.4byte	0
 6942 0688 00000000 		.4byte	0
 6943              	.LLST15:
 6944 068c 10020000 		.4byte	.LFB12-.Ltext0
 6945 0690 14020000 		.4byte	.LCFI17-.Ltext0
 6946 0694 0200     		.2byte	0x2
 6947 0696 7D       		.byte	0x7d
 6948 0697 00       		.sleb128 0
 6949 0698 14020000 		.4byte	.LCFI17-.Ltext0
 6950 069c 18020000 		.4byte	.LCFI18-.Ltext0
 6951 06a0 0200     		.2byte	0x2
 6952 06a2 7D       		.byte	0x7d
 6953 06a3 24       		.sleb128 36
 6954 06a4 18020000 		.4byte	.LCFI18-.Ltext0
 6955 06a8 68050000 		.4byte	.LCFI19-.Ltext0
 6956 06ac 0300     		.2byte	0x3
 6957 06ae 7D       		.byte	0x7d
 6958 06af C000     		.sleb128 64
 6959 06b1 68050000 		.4byte	.LCFI19-.Ltext0
 6960 06b5 6C050000 		.4byte	.LCFI20-.Ltext0
 6961 06b9 0200     		.2byte	0x2
 6962 06bb 7D       		.byte	0x7d
 6963 06bc 24       		.sleb128 36
 6964 06bd 6C050000 		.4byte	.LCFI20-.Ltext0
 6965 06c1 A4050000 		.4byte	.LCFI21-.Ltext0
 6966 06c5 0300     		.2byte	0x3
 6967 06c7 7D       		.byte	0x7d
 6968 06c8 C000     		.sleb128 64
 6969 06ca A4050000 		.4byte	.LCFI21-.Ltext0
 6970 06ce D8050000 		.4byte	.LCFI22-.Ltext0
 6971 06d2 0200     		.2byte	0x2
 6972 06d4 7D       		.byte	0x7d
 6973 06d5 24       		.sleb128 36
 6974 06d6 D8050000 		.4byte	.LCFI22-.Ltext0
 6975 06da F0050000 		.4byte	.LCFI23-.Ltext0
 6976 06de 0300     		.2byte	0x3
 6977 06e0 7D       		.byte	0x7d
 6978 06e1 C000     		.sleb128 64
 6979 06e3 F0050000 		.4byte	.LCFI23-.Ltext0
 6980 06e7 F4050000 		.4byte	.LCFI24-.Ltext0
 6981 06eb 0200     		.2byte	0x2
 6982 06ed 7D       		.byte	0x7d
 6983 06ee 24       		.sleb128 36
 6984 06ef F4050000 		.4byte	.LCFI24-.Ltext0
 6985 06f3 58060000 		.4byte	.LFE12-.Ltext0
 6986 06f7 0300     		.2byte	0x3
 6987 06f9 7D       		.byte	0x7d
 6988 06fa C000     		.sleb128 64
 6989 06fc 00000000 		.4byte	0
ARM GAS  G:\Users\Jaxb\AppData\Local\Temp\ccRp9Rzk.s 			page 145


 6990 0700 00000000 		.4byte	0
 6991              	.LLST16:
 6992 0704 10020000 		.4byte	.LVL56-.Ltext0
 6993 0708 20020000 		.4byte	.LVL57-.Ltext0
 6994 070c 0100     		.2byte	0x1
 6995 070e 50       		.byte	0x50
 6996 070f 20020000 		.4byte	.LVL57-.Ltext0
 6997 0713 A8050000 		.4byte	.LVL134-.Ltext0
 6998 0717 0100     		.2byte	0x1
 6999 0719 5B       		.byte	0x5b
 7000 071a A8050000 		.4byte	.LVL134-.Ltext0
 7001 071e D8050000 		.4byte	.LVL135-.Ltext0
 7002 0722 0400     		.2byte	0x4
 7003 0724 F3       		.byte	0xf3
 7004 0725 01       		.uleb128 0x1
 7005 0726 50       		.byte	0x50
 7006 0727 9F       		.byte	0x9f
 7007 0728 D8050000 		.4byte	.LVL135-.Ltext0
 7008 072c F4050000 		.4byte	.LVL140-.Ltext0
 7009 0730 0100     		.2byte	0x1
 7010 0732 5B       		.byte	0x5b
 7011 0733 F4050000 		.4byte	.LVL140-.Ltext0
 7012 0737 F8050000 		.4byte	.LVL142-.Ltext0
 7013 073b 0100     		.2byte	0x1
 7014 073d 50       		.byte	0x50
 7015 073e F8050000 		.4byte	.LVL142-.Ltext0
 7016 0742 58060000 		.4byte	.LFE12-.Ltext0
 7017 0746 0100     		.2byte	0x1
 7018 0748 5B       		.byte	0x5b
 7019 0749 00000000 		.4byte	0
 7020 074d 00000000 		.4byte	0
 7021              	.LLST17:
 7022 0751 10020000 		.4byte	.LVL56-.Ltext0
 7023 0755 20020000 		.4byte	.LVL57-.Ltext0
 7024 0759 0100     		.2byte	0x1
 7025 075b 51       		.byte	0x51
 7026 075c 20020000 		.4byte	.LVL57-.Ltext0
 7027 0760 E4040000 		.4byte	.LVL117-.Ltext0
 7028 0764 0100     		.2byte	0x1
 7029 0766 5A       		.byte	0x5a
 7030 0767 E4040000 		.4byte	.LVL117-.Ltext0
 7031 076b 64050000 		.4byte	.LVL126-.Ltext0
 7032 076f 0200     		.2byte	0x2
 7033 0771 91       		.byte	0x91
 7034 0772 48       		.sleb128 -56
 7035 0773 64050000 		.4byte	.LVL126-.Ltext0
 7036 0777 6C050000 		.4byte	.LVL127-.Ltext0
 7037 077b 0400     		.2byte	0x4
 7038 077d F3       		.byte	0xf3
 7039 077e 01       		.uleb128 0x1
 7040 077f 51       		.byte	0x51
 7041 0780 9F       		.byte	0x9f
 7042 0781 6C050000 		.4byte	.LVL127-.Ltext0
 7043 0785 A8050000 		.4byte	.LVL134-.Ltext0
 7044 0789 0100     		.2byte	0x1
 7045 078b 5A       		.byte	0x5a
 7046 078c A8050000 		.4byte	.LVL134-.Ltext0
ARM GAS  G:\Users\Jaxb\AppData\Local\Temp\ccRp9Rzk.s 			page 146


 7047 0790 D8050000 		.4byte	.LVL135-.Ltext0
 7048 0794 0400     		.2byte	0x4
 7049 0796 F3       		.byte	0xf3
 7050 0797 01       		.uleb128 0x1
 7051 0798 51       		.byte	0x51
 7052 0799 9F       		.byte	0x9f
 7053 079a D8050000 		.4byte	.LVL135-.Ltext0
 7054 079e F4050000 		.4byte	.LVL140-.Ltext0
 7055 07a2 0100     		.2byte	0x1
 7056 07a4 5A       		.byte	0x5a
 7057 07a5 F4050000 		.4byte	.LVL140-.Ltext0
 7058 07a9 F6050000 		.4byte	.LVL141-.Ltext0
 7059 07ad 0100     		.2byte	0x1
 7060 07af 51       		.byte	0x51
 7061 07b0 F6050000 		.4byte	.LVL141-.Ltext0
 7062 07b4 58060000 		.4byte	.LFE12-.Ltext0
 7063 07b8 0100     		.2byte	0x1
 7064 07ba 5A       		.byte	0x5a
 7065 07bb 00000000 		.4byte	0
 7066 07bf 00000000 		.4byte	0
 7067              	.LLST18:
 7068 07c3 20020000 		.4byte	.LVL57-.Ltext0
 7069 07c7 40020000 		.4byte	.LVL58-.Ltext0
 7070 07cb 0200     		.2byte	0x2
 7071 07cd 30       		.byte	0x30
 7072 07ce 9F       		.byte	0x9f
 7073 07cf 40020000 		.4byte	.LVL58-.Ltext0
 7074 07d3 AA020000 		.4byte	.LVL69-.Ltext0
 7075 07d7 0100     		.2byte	0x1
 7076 07d9 54       		.byte	0x54
 7077 07da D0020000 		.4byte	.LVL71-.Ltext0
 7078 07de DE020000 		.4byte	.LVL73-.Ltext0
 7079 07e2 0200     		.2byte	0x2
 7080 07e4 30       		.byte	0x30
 7081 07e5 9F       		.byte	0x9f
 7082 07e6 DE020000 		.4byte	.LVL73-.Ltext0
 7083 07ea F0020000 		.4byte	.LVL75-.Ltext0
 7084 07ee 0100     		.2byte	0x1
 7085 07f0 54       		.byte	0x54
 7086 07f1 F0020000 		.4byte	.LVL75-.Ltext0
 7087 07f5 0C030000 		.4byte	.LVL77-.Ltext0
 7088 07f9 0300     		.2byte	0x3
 7089 07fb 74       		.byte	0x74
 7090 07fc 7F       		.sleb128 -1
 7091 07fd 9F       		.byte	0x9f
 7092 07fe 0C030000 		.4byte	.LVL77-.Ltext0
 7093 0802 16030000 		.4byte	.LVL78-.Ltext0
 7094 0806 0100     		.2byte	0x1
 7095 0808 54       		.byte	0x54
 7096 0809 2A030000 		.4byte	.LVL79-.Ltext0
 7097 080d 3A030000 		.4byte	.LVL80-.Ltext0
 7098 0811 0200     		.2byte	0x2
 7099 0813 30       		.byte	0x30
 7100 0814 9F       		.byte	0x9f
 7101 0815 3A030000 		.4byte	.LVL80-.Ltext0
 7102 0819 46030000 		.4byte	.LVL81-.Ltext0
 7103 081d 0200     		.2byte	0x2
ARM GAS  G:\Users\Jaxb\AppData\Local\Temp\ccRp9Rzk.s 			page 147


 7104 081f 91       		.byte	0x91
 7105 0820 54       		.sleb128 -44
 7106 0821 46030000 		.4byte	.LVL81-.Ltext0
 7107 0825 4A030000 		.4byte	.LVL82-.Ltext0
 7108 0829 0100     		.2byte	0x1
 7109 082b 53       		.byte	0x53
 7110 082c 4A030000 		.4byte	.LVL82-.Ltext0
 7111 0830 D8030000 		.4byte	.LVL92-.Ltext0
 7112 0834 0200     		.2byte	0x2
 7113 0836 91       		.byte	0x91
 7114 0837 54       		.sleb128 -44
 7115 0838 D8030000 		.4byte	.LVL92-.Ltext0
 7116 083c 0C040000 		.4byte	.LVL98-.Ltext0
 7117 0840 0100     		.2byte	0x1
 7118 0842 54       		.byte	0x54
 7119 0843 0C040000 		.4byte	.LVL98-.Ltext0
 7120 0847 1C040000 		.4byte	.LVL99-.Ltext0
 7121 084b 0200     		.2byte	0x2
 7122 084d 91       		.byte	0x91
 7123 084e 54       		.sleb128 -44
 7124 084f 22040000 		.4byte	.LVL100-.Ltext0
 7125 0853 30040000 		.4byte	.LVL101-.Ltext0
 7126 0857 0200     		.2byte	0x2
 7127 0859 30       		.byte	0x30
 7128 085a 9F       		.byte	0x9f
 7129 085b 30040000 		.4byte	.LVL101-.Ltext0
 7130 085f 62040000 		.4byte	.LVL107-.Ltext0
 7131 0863 0100     		.2byte	0x1
 7132 0865 55       		.byte	0x55
 7133 0866 6C050000 		.4byte	.LVL127-.Ltext0
 7134 086a A8050000 		.4byte	.LVL134-.Ltext0
 7135 086e 0200     		.2byte	0x2
 7136 0870 91       		.byte	0x91
 7137 0871 54       		.sleb128 -44
 7138 0872 A8050000 		.4byte	.LVL134-.Ltext0
 7139 0876 D8050000 		.4byte	.LVL135-.Ltext0
 7140 087a 0200     		.2byte	0x2
 7141 087c 7D       		.byte	0x7d
 7142 087d 54       		.sleb128 -44
 7143 087e D8050000 		.4byte	.LVL135-.Ltext0
 7144 0882 E4050000 		.4byte	.LVL138-.Ltext0
 7145 0886 0200     		.2byte	0x2
 7146 0888 91       		.byte	0x91
 7147 0889 54       		.sleb128 -44
 7148 088a E4050000 		.4byte	.LVL138-.Ltext0
 7149 088e F4050000 		.4byte	.LVL140-.Ltext0
 7150 0892 0100     		.2byte	0x1
 7151 0894 54       		.byte	0x54
 7152 0895 FE050000 		.4byte	.LVL144-.Ltext0
 7153 0899 18060000 		.4byte	.LVL148-.Ltext0
 7154 089d 0100     		.2byte	0x1
 7155 089f 54       		.byte	0x54
 7156 08a0 1C060000 		.4byte	.LVL149-.Ltext0
 7157 08a4 24060000 		.4byte	.LVL150-.Ltext0
 7158 08a8 0200     		.2byte	0x2
 7159 08aa 30       		.byte	0x30
 7160 08ab 9F       		.byte	0x9f
ARM GAS  G:\Users\Jaxb\AppData\Local\Temp\ccRp9Rzk.s 			page 148


 7161 08ac 00000000 		.4byte	0
 7162 08b0 00000000 		.4byte	0
 7163              	.LLST19:
 7164 08b4 10020000 		.4byte	.LVL56-.Ltext0
 7165 08b8 9C020000 		.4byte	.LVL67-.Ltext0
 7166 08bc 0200     		.2byte	0x2
 7167 08be 30       		.byte	0x30
 7168 08bf 9F       		.byte	0x9f
 7169 08c0 9C020000 		.4byte	.LVL67-.Ltext0
 7170 08c4 D8020000 		.4byte	.LVL72-.Ltext0
 7171 08c8 0100     		.2byte	0x1
 7172 08ca 55       		.byte	0x55
 7173 08cb D8030000 		.4byte	.LVL92-.Ltext0
 7174 08cf 0C040000 		.4byte	.LVL98-.Ltext0
 7175 08d3 0200     		.2byte	0x2
 7176 08d5 30       		.byte	0x30
 7177 08d6 9F       		.byte	0x9f
 7178 08d7 E4050000 		.4byte	.LVL138-.Ltext0
 7179 08db 18060000 		.4byte	.LVL148-.Ltext0
 7180 08df 0200     		.2byte	0x2
 7181 08e1 30       		.byte	0x30
 7182 08e2 9F       		.byte	0x9f
 7183 08e3 1C060000 		.4byte	.LVL149-.Ltext0
 7184 08e7 24060000 		.4byte	.LVL150-.Ltext0
 7185 08eb 0200     		.2byte	0x2
 7186 08ed 30       		.byte	0x30
 7187 08ee 9F       		.byte	0x9f
 7188 08ef 30060000 		.4byte	.LVL152-.Ltext0
 7189 08f3 58060000 		.4byte	.LFE12-.Ltext0
 7190 08f7 0100     		.2byte	0x1
 7191 08f9 55       		.byte	0x55
 7192 08fa 00000000 		.4byte	0
 7193 08fe 00000000 		.4byte	0
 7194              	.LLST20:
 7195 0902 20020000 		.4byte	.LVL57-.Ltext0
 7196 0906 40020000 		.4byte	.LVL58-.Ltext0
 7197 090a 0200     		.2byte	0x2
 7198 090c 30       		.byte	0x30
 7199 090d 9F       		.byte	0x9f
 7200 090e 82020000 		.4byte	.LVL62-.Ltext0
 7201 0912 8C020000 		.4byte	.LVL64-.Ltext0
 7202 0916 0200     		.2byte	0x2
 7203 0918 7C       		.byte	0x7c
 7204 0919 08       		.sleb128 8
 7205 091a FE050000 		.4byte	.LVL144-.Ltext0
 7206 091e 09060000 		.4byte	.LVL145-1-.Ltext0
 7207 0922 0200     		.2byte	0x2
 7208 0924 7C       		.byte	0x7c
 7209 0925 08       		.sleb128 8
 7210 0926 1C060000 		.4byte	.LVL149-.Ltext0
 7211 092a 24060000 		.4byte	.LVL150-.Ltext0
 7212 092e 0200     		.2byte	0x2
 7213 0930 30       		.byte	0x30
 7214 0931 9F       		.byte	0x9f
 7215 0932 00000000 		.4byte	0
 7216 0936 00000000 		.4byte	0
 7217              	.LLST21:
ARM GAS  G:\Users\Jaxb\AppData\Local\Temp\ccRp9Rzk.s 			page 149


 7218 093a 20020000 		.4byte	.LVL57-.Ltext0
 7219 093e 40020000 		.4byte	.LVL58-.Ltext0
 7220 0942 0200     		.2byte	0x2
 7221 0944 30       		.byte	0x30
 7222 0945 9F       		.byte	0x9f
 7223 0946 40020000 		.4byte	.LVL58-.Ltext0
 7224 094a 8C020000 		.4byte	.LVL64-.Ltext0
 7225 094e 0100     		.2byte	0x1
 7226 0950 55       		.byte	0x55
 7227 0951 90020000 		.4byte	.LVL65-.Ltext0
 7228 0955 9C020000 		.4byte	.LVL67-.Ltext0
 7229 0959 0100     		.2byte	0x1
 7230 095b 55       		.byte	0x55
 7231 095c D8030000 		.4byte	.LVL92-.Ltext0
 7232 0960 E0030000 		.4byte	.LVL93-.Ltext0
 7233 0964 0100     		.2byte	0x1
 7234 0966 55       		.byte	0x55
 7235 0967 E0030000 		.4byte	.LVL93-.Ltext0
 7236 096b E6030000 		.4byte	.LVL94-.Ltext0
 7237 096f 0300     		.2byte	0x3
 7238 0971 75       		.byte	0x75
 7239 0972 70       		.sleb128 -16
 7240 0973 9F       		.byte	0x9f
 7241 0974 E6030000 		.4byte	.LVL94-.Ltext0
 7242 0978 F6030000 		.4byte	.LVL96-.Ltext0
 7243 097c 0100     		.2byte	0x1
 7244 097e 55       		.byte	0x55
 7245 097f F6030000 		.4byte	.LVL96-.Ltext0
 7246 0983 0C040000 		.4byte	.LVL98-.Ltext0
 7247 0987 0300     		.2byte	0x3
 7248 0989 75       		.byte	0x75
 7249 098a 70       		.sleb128 -16
 7250 098b 9F       		.byte	0x9f
 7251 098c E4050000 		.4byte	.LVL138-.Ltext0
 7252 0990 F4050000 		.4byte	.LVL140-.Ltext0
 7253 0994 0100     		.2byte	0x1
 7254 0996 55       		.byte	0x55
 7255 0997 FE050000 		.4byte	.LVL144-.Ltext0
 7256 099b 18060000 		.4byte	.LVL148-.Ltext0
 7257 099f 0100     		.2byte	0x1
 7258 09a1 55       		.byte	0x55
 7259 09a2 1C060000 		.4byte	.LVL149-.Ltext0
 7260 09a6 24060000 		.4byte	.LVL150-.Ltext0
 7261 09aa 0200     		.2byte	0x2
 7262 09ac 30       		.byte	0x30
 7263 09ad 9F       		.byte	0x9f
 7264 09ae 00000000 		.4byte	0
 7265 09b2 00000000 		.4byte	0
 7266              	.LLST22:
 7267 09b6 20020000 		.4byte	.LVL57-.Ltext0
 7268 09ba 40020000 		.4byte	.LVL58-.Ltext0
 7269 09be 0200     		.2byte	0x2
 7270 09c0 30       		.byte	0x30
 7271 09c1 9F       		.byte	0x9f
 7272 09c2 40020000 		.4byte	.LVL58-.Ltext0
 7273 09c6 84020000 		.4byte	.LVL63-.Ltext0
 7274 09ca 0100     		.2byte	0x1
ARM GAS  G:\Users\Jaxb\AppData\Local\Temp\ccRp9Rzk.s 			page 150


 7275 09cc 58       		.byte	0x58
 7276 09cd 84020000 		.4byte	.LVL63-.Ltext0
 7277 09d1 8C020000 		.4byte	.LVL64-.Ltext0
 7278 09d5 0200     		.2byte	0x2
 7279 09d7 31       		.byte	0x31
 7280 09d8 9F       		.byte	0x9f
 7281 09d9 90020000 		.4byte	.LVL65-.Ltext0
 7282 09dd 3A030000 		.4byte	.LVL80-.Ltext0
 7283 09e1 0100     		.2byte	0x1
 7284 09e3 58       		.byte	0x58
 7285 09e4 D8030000 		.4byte	.LVL92-.Ltext0
 7286 09e8 0C040000 		.4byte	.LVL98-.Ltext0
 7287 09ec 0100     		.2byte	0x1
 7288 09ee 58       		.byte	0x58
 7289 09ef E4050000 		.4byte	.LVL138-.Ltext0
 7290 09f3 F4050000 		.4byte	.LVL140-.Ltext0
 7291 09f7 0100     		.2byte	0x1
 7292 09f9 58       		.byte	0x58
 7293 09fa FE050000 		.4byte	.LVL144-.Ltext0
 7294 09fe 0E060000 		.4byte	.LVL146-.Ltext0
 7295 0a02 0200     		.2byte	0x2
 7296 0a04 31       		.byte	0x31
 7297 0a05 9F       		.byte	0x9f
 7298 0a06 0E060000 		.4byte	.LVL146-.Ltext0
 7299 0a0a 18060000 		.4byte	.LVL148-.Ltext0
 7300 0a0e 0100     		.2byte	0x1
 7301 0a10 58       		.byte	0x58
 7302 0a11 1C060000 		.4byte	.LVL149-.Ltext0
 7303 0a15 24060000 		.4byte	.LVL150-.Ltext0
 7304 0a19 0200     		.2byte	0x2
 7305 0a1b 30       		.byte	0x30
 7306 0a1c 9F       		.byte	0x9f
 7307 0a1d 30060000 		.4byte	.LVL152-.Ltext0
 7308 0a21 58060000 		.4byte	.LFE12-.Ltext0
 7309 0a25 0100     		.2byte	0x1
 7310 0a27 58       		.byte	0x58
 7311 0a28 00000000 		.4byte	0
 7312 0a2c 00000000 		.4byte	0
 7313              	.LLST23:
 7314 0a30 84030000 		.4byte	.LVL85-.Ltext0
 7315 0a34 8A030000 		.4byte	.LVL86-.Ltext0
 7316 0a38 0200     		.2byte	0x2
 7317 0a3a 30       		.byte	0x30
 7318 0a3b 9F       		.byte	0x9f
 7319 0a3c 8A030000 		.4byte	.LVL86-.Ltext0
 7320 0a40 AC030000 		.4byte	.LVL89-.Ltext0
 7321 0a44 0100     		.2byte	0x1
 7322 0a46 56       		.byte	0x56
 7323 0a47 AC030000 		.4byte	.LVL89-.Ltext0
 7324 0a4b CE030000 		.4byte	.LVL90-.Ltext0
 7325 0a4f 0300     		.2byte	0x3
 7326 0a51 76       		.byte	0x76
 7327 0a52 7F       		.sleb128 -1
 7328 0a53 9F       		.byte	0x9f
 7329 0a54 CE030000 		.4byte	.LVL90-.Ltext0
 7330 0a58 D4030000 		.4byte	.LVL91-.Ltext0
 7331 0a5c 0300     		.2byte	0x3
ARM GAS  G:\Users\Jaxb\AppData\Local\Temp\ccRp9Rzk.s 			page 151


 7332 0a5e 76       		.byte	0x76
 7333 0a5f 01       		.sleb128 1
 7334 0a60 9F       		.byte	0x9f
 7335 0a61 6C050000 		.4byte	.LVL127-.Ltext0
 7336 0a65 96050000 		.4byte	.LVL132-.Ltext0
 7337 0a69 0300     		.2byte	0x3
 7338 0a6b 76       		.byte	0x76
 7339 0a6c 7F       		.sleb128 -1
 7340 0a6d 9F       		.byte	0x9f
 7341 0a6e 96050000 		.4byte	.LVL132-.Ltext0
 7342 0a72 9E050000 		.4byte	.LVL133-.Ltext0
 7343 0a76 0300     		.2byte	0x3
 7344 0a78 76       		.byte	0x76
 7345 0a79 01       		.sleb128 1
 7346 0a7a 9F       		.byte	0x9f
 7347 0a7b D8050000 		.4byte	.LVL135-.Ltext0
 7348 0a7f E4050000 		.4byte	.LVL138-.Ltext0
 7349 0a83 0300     		.2byte	0x3
 7350 0a85 76       		.byte	0x76
 7351 0a86 7F       		.sleb128 -1
 7352 0a87 9F       		.byte	0x9f
 7353 0a88 00000000 		.4byte	0
 7354 0a8c 00000000 		.4byte	0
 7355              	.LLST24:
 7356 0a90 84030000 		.4byte	.LVL85-.Ltext0
 7357 0a94 8A030000 		.4byte	.LVL86-.Ltext0
 7358 0a98 0100     		.2byte	0x1
 7359 0a9a 53       		.byte	0x53
 7360 0a9b 8A030000 		.4byte	.LVL86-.Ltext0
 7361 0a9f D8030000 		.4byte	.LVL92-.Ltext0
 7362 0aa3 0200     		.2byte	0x2
 7363 0aa5 91       		.byte	0x91
 7364 0aa6 50       		.sleb128 -48
 7365 0aa7 0C040000 		.4byte	.LVL98-.Ltext0
 7366 0aab 1C040000 		.4byte	.LVL99-.Ltext0
 7367 0aaf 0200     		.2byte	0x2
 7368 0ab1 91       		.byte	0x91
 7369 0ab2 50       		.sleb128 -48
 7370 0ab3 6C050000 		.4byte	.LVL127-.Ltext0
 7371 0ab7 A8050000 		.4byte	.LVL134-.Ltext0
 7372 0abb 0200     		.2byte	0x2
 7373 0abd 91       		.byte	0x91
 7374 0abe 50       		.sleb128 -48
 7375 0abf A8050000 		.4byte	.LVL134-.Ltext0
 7376 0ac3 D8050000 		.4byte	.LVL135-.Ltext0
 7377 0ac7 0200     		.2byte	0x2
 7378 0ac9 7D       		.byte	0x7d
 7379 0aca 50       		.sleb128 -48
 7380 0acb D8050000 		.4byte	.LVL135-.Ltext0
 7381 0acf E4050000 		.4byte	.LVL138-.Ltext0
 7382 0ad3 0200     		.2byte	0x2
 7383 0ad5 91       		.byte	0x91
 7384 0ad6 50       		.sleb128 -48
 7385 0ad7 00000000 		.4byte	0
 7386 0adb 00000000 		.4byte	0
 7387              	.LLST25:
 7388 0adf 7E030000 		.4byte	.LVL83-.Ltext0
ARM GAS  G:\Users\Jaxb\AppData\Local\Temp\ccRp9Rzk.s 			page 152


 7389 0ae3 82030000 		.4byte	.LVL84-.Ltext0
 7390 0ae7 0700     		.2byte	0x7
 7391 0ae9 7A       		.byte	0x7a
 7392 0aea 00       		.sleb128 0
 7393 0aeb 91       		.byte	0x91
 7394 0aec 4C       		.sleb128 -52
 7395 0aed 06       		.byte	0x6
 7396 0aee 22       		.byte	0x22
 7397 0aef 9F       		.byte	0x9f
 7398 0af0 00000000 		.4byte	0
 7399 0af4 00000000 		.4byte	0
 7400              	.LLST26:
 7401 0af8 84030000 		.4byte	.LVL85-.Ltext0
 7402 0afc CE030000 		.4byte	.LVL90-.Ltext0
 7403 0b00 0100     		.2byte	0x1
 7404 0b02 59       		.byte	0x59
 7405 0b03 CE030000 		.4byte	.LVL90-.Ltext0
 7406 0b07 D4030000 		.4byte	.LVL91-.Ltext0
 7407 0b0b 0300     		.2byte	0x3
 7408 0b0d 79       		.byte	0x79
 7409 0b0e 08       		.sleb128 8
 7410 0b0f 9F       		.byte	0x9f
 7411 0b10 6C050000 		.4byte	.LVL127-.Ltext0
 7412 0b14 96050000 		.4byte	.LVL132-.Ltext0
 7413 0b18 0100     		.2byte	0x1
 7414 0b1a 59       		.byte	0x59
 7415 0b1b 96050000 		.4byte	.LVL132-.Ltext0
 7416 0b1f 9E050000 		.4byte	.LVL133-.Ltext0
 7417 0b23 0300     		.2byte	0x3
 7418 0b25 79       		.byte	0x79
 7419 0b26 08       		.sleb128 8
 7420 0b27 9F       		.byte	0x9f
 7421 0b28 D8050000 		.4byte	.LVL135-.Ltext0
 7422 0b2c E4050000 		.4byte	.LVL138-.Ltext0
 7423 0b30 0100     		.2byte	0x1
 7424 0b32 59       		.byte	0x59
 7425 0b33 00000000 		.4byte	0
 7426 0b37 00000000 		.4byte	0
 7427              	.LLST27:
 7428 0b3b 84030000 		.4byte	.LVL85-.Ltext0
 7429 0b3f D8030000 		.4byte	.LVL92-.Ltext0
 7430 0b43 0100     		.2byte	0x1
 7431 0b45 57       		.byte	0x57
 7432 0b46 0C040000 		.4byte	.LVL98-.Ltext0
 7433 0b4a 1C040000 		.4byte	.LVL99-.Ltext0
 7434 0b4e 0100     		.2byte	0x1
 7435 0b50 57       		.byte	0x57
 7436 0b51 6C050000 		.4byte	.LVL127-.Ltext0
 7437 0b55 A8050000 		.4byte	.LVL134-.Ltext0
 7438 0b59 0100     		.2byte	0x1
 7439 0b5b 57       		.byte	0x57
 7440 0b5c D8050000 		.4byte	.LVL135-.Ltext0
 7441 0b60 E4050000 		.4byte	.LVL138-.Ltext0
 7442 0b64 0100     		.2byte	0x1
 7443 0b66 57       		.byte	0x57
 7444 0b67 00000000 		.4byte	0
 7445 0b6b 00000000 		.4byte	0
ARM GAS  G:\Users\Jaxb\AppData\Local\Temp\ccRp9Rzk.s 			page 153


 7446              	.LLST28:
 7447 0b6f 9E030000 		.4byte	.LVL87-.Ltext0
 7448 0b73 D8030000 		.4byte	.LVL92-.Ltext0
 7449 0b77 0100     		.2byte	0x1
 7450 0b79 55       		.byte	0x55
 7451 0b7a 6C050000 		.4byte	.LVL127-.Ltext0
 7452 0b7e 9E050000 		.4byte	.LVL133-.Ltext0
 7453 0b82 0100     		.2byte	0x1
 7454 0b84 55       		.byte	0x55
 7455 0b85 D8050000 		.4byte	.LVL135-.Ltext0
 7456 0b89 E4050000 		.4byte	.LVL138-.Ltext0
 7457 0b8d 0100     		.2byte	0x1
 7458 0b8f 55       		.byte	0x55
 7459 0b90 00000000 		.4byte	0
 7460 0b94 00000000 		.4byte	0
 7461              	.LLST29:
 7462 0b98 A8030000 		.4byte	.LVL88-.Ltext0
 7463 0b9c CD030000 		.4byte	.LVL90-1-.Ltext0
 7464 0ba0 0C00     		.2byte	0xc
 7465 0ba2 7B       		.byte	0x7b
 7466 0ba3 34       		.sleb128 52
 7467 0ba4 06       		.byte	0x6
 7468 0ba5 75       		.byte	0x75
 7469 0ba6 04       		.sleb128 4
 7470 0ba7 06       		.byte	0x6
 7471 0ba8 22       		.byte	0x22
 7472 0ba9 91       		.byte	0x91
 7473 0baa 48       		.sleb128 -56
 7474 0bab 06       		.byte	0x6
 7475 0bac 1C       		.byte	0x1c
 7476 0bad 9F       		.byte	0x9f
 7477 0bae 6C050000 		.4byte	.LVL127-.Ltext0
 7478 0bb2 77050000 		.4byte	.LVL128-1-.Ltext0
 7479 0bb6 0C00     		.2byte	0xc
 7480 0bb8 7B       		.byte	0x7b
 7481 0bb9 34       		.sleb128 52
 7482 0bba 06       		.byte	0x6
 7483 0bbb 75       		.byte	0x75
 7484 0bbc 04       		.sleb128 4
 7485 0bbd 06       		.byte	0x6
 7486 0bbe 22       		.byte	0x22
 7487 0bbf 91       		.byte	0x91
 7488 0bc0 48       		.sleb128 -56
 7489 0bc1 06       		.byte	0x6
 7490 0bc2 1C       		.byte	0x1c
 7491 0bc3 9F       		.byte	0x9f
 7492 0bc4 00000000 		.4byte	0
 7493 0bc8 00000000 		.4byte	0
 7494              	.LLST30:
 7495 0bcc 82050000 		.4byte	.LVL129-.Ltext0
 7496 0bd0 8A050000 		.4byte	.LVL130-.Ltext0
 7497 0bd4 0100     		.2byte	0x1
 7498 0bd6 50       		.byte	0x50
 7499 0bd7 D8050000 		.4byte	.LVL135-.Ltext0
 7500 0bdb DE050000 		.4byte	.LVL136-.Ltext0
 7501 0bdf 0100     		.2byte	0x1
 7502 0be1 50       		.byte	0x50
ARM GAS  G:\Users\Jaxb\AppData\Local\Temp\ccRp9Rzk.s 			page 154


 7503 0be2 DE050000 		.4byte	.LVL136-.Ltext0
 7504 0be6 E1050000 		.4byte	.LVL137-1-.Ltext0
 7505 0bea 0100     		.2byte	0x1
 7506 0bec 52       		.byte	0x52
 7507 0bed 00000000 		.4byte	0
 7508 0bf1 00000000 		.4byte	0
 7509              	.LLST31:
 7510 0bf5 42040000 		.4byte	.LVL104-.Ltext0
 7511 0bf9 4E040000 		.4byte	.LVL105-.Ltext0
 7512 0bfd 1800     		.2byte	0x18
 7513 0bff 7A       		.byte	0x7a
 7514 0c00 00       		.sleb128 0
 7515 0c01 7A       		.byte	0x7a
 7516 0c02 32       		.sleb128 50
 7517 0c03 94       		.byte	0x94
 7518 0c04 02       		.byte	0x2
 7519 0c05 0A       		.byte	0xa
 7520 0c06 FFFF     		.2byte	0xffff
 7521 0c08 1A       		.byte	0x1a
 7522 0c09 08       		.byte	0x8
 7523 0c0a 28       		.byte	0x28
 7524 0c0b 1E       		.byte	0x1e
 7525 0c0c 7A       		.byte	0x7a
 7526 0c0d 00       		.sleb128 0
 7527 0c0e 22       		.byte	0x22
 7528 0c0f 72       		.byte	0x72
 7529 0c10 00       		.sleb128 0
 7530 0c11 22       		.byte	0x22
 7531 0c12 23       		.byte	0x23
 7532 0c13 10       		.uleb128 0x10
 7533 0c14 06       		.byte	0x6
 7534 0c15 22       		.byte	0x22
 7535 0c16 9F       		.byte	0x9f
 7536 0c17 4E040000 		.4byte	.LVL105-.Ltext0
 7537 0c1b 5B040000 		.4byte	.LVL106-1-.Ltext0
 7538 0c1f 1900     		.2byte	0x19
 7539 0c21 7A       		.byte	0x7a
 7540 0c22 00       		.sleb128 0
 7541 0c23 7A       		.byte	0x7a
 7542 0c24 32       		.sleb128 50
 7543 0c25 94       		.byte	0x94
 7544 0c26 02       		.byte	0x2
 7545 0c27 0A       		.byte	0xa
 7546 0c28 FFFF     		.2byte	0xffff
 7547 0c2a 1A       		.byte	0x1a
 7548 0c2b 08       		.byte	0x8
 7549 0c2c 28       		.byte	0x28
 7550 0c2d 1E       		.byte	0x1e
 7551 0c2e 7A       		.byte	0x7a
 7552 0c2f 00       		.sleb128 0
 7553 0c30 22       		.byte	0x22
 7554 0c31 7A       		.byte	0x7a
 7555 0c32 20       		.sleb128 32
 7556 0c33 06       		.byte	0x6
 7557 0c34 22       		.byte	0x22
 7558 0c35 23       		.byte	0x23
 7559 0c36 10       		.uleb128 0x10
ARM GAS  G:\Users\Jaxb\AppData\Local\Temp\ccRp9Rzk.s 			page 155


 7560 0c37 06       		.byte	0x6
 7561 0c38 22       		.byte	0x22
 7562 0c39 9F       		.byte	0x9f
 7563 0c3a 00000000 		.4byte	0
 7564 0c3e 00000000 		.4byte	0
 7565              	.LLST32:
 7566 0c42 98040000 		.4byte	.LVL110-.Ltext0
 7567 0c46 A4040000 		.4byte	.LVL112-.Ltext0
 7568 0c4a 0200     		.2byte	0x2
 7569 0c4c 30       		.byte	0x30
 7570 0c4d 9F       		.byte	0x9f
 7571 0c4e D8040000 		.4byte	.LVL116-.Ltext0
 7572 0c52 E4040000 		.4byte	.LVL117-.Ltext0
 7573 0c56 0200     		.2byte	0x2
 7574 0c58 30       		.byte	0x30
 7575 0c59 9F       		.byte	0x9f
 7576 0c5a E4040000 		.4byte	.LVL117-.Ltext0
 7577 0c5e E8040000 		.4byte	.LVL118-.Ltext0
 7578 0c62 0100     		.2byte	0x1
 7579 0c64 56       		.byte	0x56
 7580 0c65 E8040000 		.4byte	.LVL118-.Ltext0
 7581 0c69 58050000 		.4byte	.LVL125-.Ltext0
 7582 0c6d 0300     		.2byte	0x3
 7583 0c6f 76       		.byte	0x76
 7584 0c70 7F       		.sleb128 -1
 7585 0c71 9F       		.byte	0x9f
 7586 0c72 58050000 		.4byte	.LVL125-.Ltext0
 7587 0c76 64050000 		.4byte	.LVL126-.Ltext0
 7588 0c7a 0100     		.2byte	0x1
 7589 0c7c 56       		.byte	0x56
 7590 0c7d 18060000 		.4byte	.LVL148-.Ltext0
 7591 0c81 1C060000 		.4byte	.LVL149-.Ltext0
 7592 0c85 0200     		.2byte	0x2
 7593 0c87 30       		.byte	0x30
 7594 0c88 9F       		.byte	0x9f
 7595 0c89 00000000 		.4byte	0
 7596 0c8d 00000000 		.4byte	0
 7597              	.LLST33:
 7598 0c91 70040000 		.4byte	.LVL109-.Ltext0
 7599 0c95 A4040000 		.4byte	.LVL112-.Ltext0
 7600 0c99 0200     		.2byte	0x2
 7601 0c9b 30       		.byte	0x30
 7602 0c9c 9F       		.byte	0x9f
 7603 0c9d A4040000 		.4byte	.LVL112-.Ltext0
 7604 0ca1 C0040000 		.4byte	.LVL114-.Ltext0
 7605 0ca5 0100     		.2byte	0x1
 7606 0ca7 56       		.byte	0x56
 7607 0ca8 D8040000 		.4byte	.LVL116-.Ltext0
 7608 0cac E4040000 		.4byte	.LVL117-.Ltext0
 7609 0cb0 0200     		.2byte	0x2
 7610 0cb2 30       		.byte	0x30
 7611 0cb3 9F       		.byte	0x9f
 7612 0cb4 E4040000 		.4byte	.LVL117-.Ltext0
 7613 0cb8 64050000 		.4byte	.LVL126-.Ltext0
 7614 0cbc 0100     		.2byte	0x1
 7615 0cbe 58       		.byte	0x58
 7616 0cbf 18060000 		.4byte	.LVL148-.Ltext0
ARM GAS  G:\Users\Jaxb\AppData\Local\Temp\ccRp9Rzk.s 			page 156


 7617 0cc3 1C060000 		.4byte	.LVL149-.Ltext0
 7618 0cc7 0200     		.2byte	0x2
 7619 0cc9 30       		.byte	0x30
 7620 0cca 9F       		.byte	0x9f
 7621 0ccb 00000000 		.4byte	0
 7622 0ccf 00000000 		.4byte	0
 7623              	.LLST34:
 7624 0cd3 70040000 		.4byte	.LVL109-.Ltext0
 7625 0cd7 98040000 		.4byte	.LVL110-.Ltext0
 7626 0cdb 0200     		.2byte	0x2
 7627 0cdd 30       		.byte	0x30
 7628 0cde 9F       		.byte	0x9f
 7629 0cdf 98040000 		.4byte	.LVL110-.Ltext0
 7630 0ce3 E4040000 		.4byte	.LVL117-.Ltext0
 7631 0ce7 0100     		.2byte	0x1
 7632 0ce9 55       		.byte	0x55
 7633 0cea 18060000 		.4byte	.LVL148-.Ltext0
 7634 0cee 1C060000 		.4byte	.LVL149-.Ltext0
 7635 0cf2 0100     		.2byte	0x1
 7636 0cf4 55       		.byte	0x55
 7637 0cf5 00000000 		.4byte	0
 7638 0cf9 00000000 		.4byte	0
 7639              	.LLST35:
 7640 0cfd 70040000 		.4byte	.LVL109-.Ltext0
 7641 0d01 98040000 		.4byte	.LVL110-.Ltext0
 7642 0d05 0200     		.2byte	0x2
 7643 0d07 30       		.byte	0x30
 7644 0d08 9F       		.byte	0x9f
 7645 0d09 98040000 		.4byte	.LVL110-.Ltext0
 7646 0d0d 9E040000 		.4byte	.LVL111-.Ltext0
 7647 0d11 0100     		.2byte	0x1
 7648 0d13 53       		.byte	0x53
 7649 0d14 9E040000 		.4byte	.LVL111-.Ltext0
 7650 0d18 64050000 		.4byte	.LVL126-.Ltext0
 7651 0d1c 0200     		.2byte	0x2
 7652 0d1e 91       		.byte	0x91
 7653 0d1f 44       		.sleb128 -60
 7654 0d20 18060000 		.4byte	.LVL148-.Ltext0
 7655 0d24 1C060000 		.4byte	.LVL149-.Ltext0
 7656 0d28 0100     		.2byte	0x1
 7657 0d2a 53       		.byte	0x53
 7658 0d2b 00000000 		.4byte	0
 7659 0d2f 00000000 		.4byte	0
 7660              	.LLST36:
 7661 0d33 1A050000 		.4byte	.LVL120-.Ltext0
 7662 0d37 58050000 		.4byte	.LVL125-.Ltext0
 7663 0d3b 0100     		.2byte	0x1
 7664 0d3d 59       		.byte	0x59
 7665 0d3e 00000000 		.4byte	0
 7666 0d42 00000000 		.4byte	0
 7667              	.LLST3:
 7668 0d46 30000000 		.4byte	.LFB11-.Ltext0
 7669 0d4a 34000000 		.4byte	.LCFI1-.Ltext0
 7670 0d4e 0200     		.2byte	0x2
 7671 0d50 7D       		.byte	0x7d
 7672 0d51 00       		.sleb128 0
 7673 0d52 34000000 		.4byte	.LCFI1-.Ltext0
ARM GAS  G:\Users\Jaxb\AppData\Local\Temp\ccRp9Rzk.s 			page 157


 7674 0d56 40000000 		.4byte	.LCFI2-.Ltext0
 7675 0d5a 0200     		.2byte	0x2
 7676 0d5c 7D       		.byte	0x7d
 7677 0d5d 18       		.sleb128 24
 7678 0d5e 40000000 		.4byte	.LCFI2-.Ltext0
 7679 0d62 8A000000 		.4byte	.LCFI3-.Ltext0
 7680 0d66 0200     		.2byte	0x2
 7681 0d68 7D       		.byte	0x7d
 7682 0d69 20       		.sleb128 32
 7683 0d6a 8A000000 		.4byte	.LCFI3-.Ltext0
 7684 0d6e 8E000000 		.4byte	.LCFI4-.Ltext0
 7685 0d72 0200     		.2byte	0x2
 7686 0d74 7D       		.byte	0x7d
 7687 0d75 18       		.sleb128 24
 7688 0d76 8E000000 		.4byte	.LCFI4-.Ltext0
 7689 0d7a A2000000 		.4byte	.LCFI5-.Ltext0
 7690 0d7e 0200     		.2byte	0x2
 7691 0d80 7D       		.byte	0x7d
 7692 0d81 20       		.sleb128 32
 7693 0d82 A2000000 		.4byte	.LCFI5-.Ltext0
 7694 0d86 A6000000 		.4byte	.LCFI6-.Ltext0
 7695 0d8a 0200     		.2byte	0x2
 7696 0d8c 7D       		.byte	0x7d
 7697 0d8d 18       		.sleb128 24
 7698 0d8e A6000000 		.4byte	.LCFI6-.Ltext0
 7699 0d92 D2000000 		.4byte	.LCFI7-.Ltext0
 7700 0d96 0200     		.2byte	0x2
 7701 0d98 7D       		.byte	0x7d
 7702 0d99 20       		.sleb128 32
 7703 0d9a D2000000 		.4byte	.LCFI7-.Ltext0
 7704 0d9e D6000000 		.4byte	.LCFI8-.Ltext0
 7705 0da2 0200     		.2byte	0x2
 7706 0da4 7D       		.byte	0x7d
 7707 0da5 18       		.sleb128 24
 7708 0da6 D6000000 		.4byte	.LCFI8-.Ltext0
 7709 0daa F0000000 		.4byte	.LCFI9-.Ltext0
 7710 0dae 0200     		.2byte	0x2
 7711 0db0 7D       		.byte	0x7d
 7712 0db1 20       		.sleb128 32
 7713 0db2 F0000000 		.4byte	.LCFI9-.Ltext0
 7714 0db6 F4000000 		.4byte	.LCFI10-.Ltext0
 7715 0dba 0200     		.2byte	0x2
 7716 0dbc 7D       		.byte	0x7d
 7717 0dbd 18       		.sleb128 24
 7718 0dbe F4000000 		.4byte	.LCFI10-.Ltext0
 7719 0dc2 AA010000 		.4byte	.LCFI11-.Ltext0
 7720 0dc6 0200     		.2byte	0x2
 7721 0dc8 7D       		.byte	0x7d
 7722 0dc9 20       		.sleb128 32
 7723 0dca AA010000 		.4byte	.LCFI11-.Ltext0
 7724 0dce AE010000 		.4byte	.LCFI12-.Ltext0
 7725 0dd2 0200     		.2byte	0x2
 7726 0dd4 7D       		.byte	0x7d
 7727 0dd5 18       		.sleb128 24
 7728 0dd6 AE010000 		.4byte	.LCFI12-.Ltext0
 7729 0dda C0010000 		.4byte	.LCFI13-.Ltext0
 7730 0dde 0200     		.2byte	0x2
ARM GAS  G:\Users\Jaxb\AppData\Local\Temp\ccRp9Rzk.s 			page 158


 7731 0de0 7D       		.byte	0x7d
 7732 0de1 20       		.sleb128 32
 7733 0de2 C0010000 		.4byte	.LCFI13-.Ltext0
 7734 0de6 C4010000 		.4byte	.LCFI14-.Ltext0
 7735 0dea 0200     		.2byte	0x2
 7736 0dec 7D       		.byte	0x7d
 7737 0ded 18       		.sleb128 24
 7738 0dee C4010000 		.4byte	.LCFI14-.Ltext0
 7739 0df2 D8010000 		.4byte	.LCFI15-.Ltext0
 7740 0df6 0200     		.2byte	0x2
 7741 0df8 7D       		.byte	0x7d
 7742 0df9 20       		.sleb128 32
 7743 0dfa D8010000 		.4byte	.LCFI15-.Ltext0
 7744 0dfe DC010000 		.4byte	.LCFI16-.Ltext0
 7745 0e02 0200     		.2byte	0x2
 7746 0e04 7D       		.byte	0x7d
 7747 0e05 18       		.sleb128 24
 7748 0e06 DC010000 		.4byte	.LCFI16-.Ltext0
 7749 0e0a 10020000 		.4byte	.LFE11-.Ltext0
 7750 0e0e 0200     		.2byte	0x2
 7751 0e10 7D       		.byte	0x7d
 7752 0e11 20       		.sleb128 32
 7753 0e12 00000000 		.4byte	0
 7754 0e16 00000000 		.4byte	0
 7755              	.LLST4:
 7756 0e1a 30000000 		.4byte	.LVL7-.Ltext0
 7757 0e1e 42000000 		.4byte	.LVL8-.Ltext0
 7758 0e22 0100     		.2byte	0x1
 7759 0e24 50       		.byte	0x50
 7760 0e25 42000000 		.4byte	.LVL8-.Ltext0
 7761 0e29 10020000 		.4byte	.LFE11-.Ltext0
 7762 0e2d 0400     		.2byte	0x4
 7763 0e2f F3       		.byte	0xf3
 7764 0e30 01       		.uleb128 0x1
 7765 0e31 50       		.byte	0x50
 7766 0e32 9F       		.byte	0x9f
 7767 0e33 00000000 		.4byte	0
 7768 0e37 00000000 		.4byte	0
 7769              	.LLST5:
 7770 0e3b 30000000 		.4byte	.LVL7-.Ltext0
 7771 0e3f 7C000000 		.4byte	.LVL11-.Ltext0
 7772 0e43 0100     		.2byte	0x1
 7773 0e45 51       		.byte	0x51
 7774 0e46 7C000000 		.4byte	.LVL11-.Ltext0
 7775 0e4a 8E000000 		.4byte	.LVL14-.Ltext0
 7776 0e4e 0400     		.2byte	0x4
 7777 0e50 F3       		.byte	0xf3
 7778 0e51 01       		.uleb128 0x1
 7779 0e52 51       		.byte	0x51
 7780 0e53 9F       		.byte	0x9f
 7781 0e54 8E000000 		.4byte	.LVL14-.Ltext0
 7782 0e58 AE000000 		.4byte	.LVL17-.Ltext0
 7783 0e5c 0100     		.2byte	0x1
 7784 0e5e 51       		.byte	0x51
 7785 0e5f AE000000 		.4byte	.LVL17-.Ltext0
 7786 0e63 D6000000 		.4byte	.LVL24-.Ltext0
 7787 0e67 0400     		.2byte	0x4
ARM GAS  G:\Users\Jaxb\AppData\Local\Temp\ccRp9Rzk.s 			page 159


 7788 0e69 F3       		.byte	0xf3
 7789 0e6a 01       		.uleb128 0x1
 7790 0e6b 51       		.byte	0x51
 7791 0e6c 9F       		.byte	0x9f
 7792 0e6d D6000000 		.4byte	.LVL24-.Ltext0
 7793 0e71 E2000000 		.4byte	.LVL25-.Ltext0
 7794 0e75 0100     		.2byte	0x1
 7795 0e77 51       		.byte	0x51
 7796 0e78 E2000000 		.4byte	.LVL25-.Ltext0
 7797 0e7c F4000000 		.4byte	.LVL28-.Ltext0
 7798 0e80 0400     		.2byte	0x4
 7799 0e82 F3       		.byte	0xf3
 7800 0e83 01       		.uleb128 0x1
 7801 0e84 51       		.byte	0x51
 7802 0e85 9F       		.byte	0x9f
 7803 0e86 F4000000 		.4byte	.LVL28-.Ltext0
 7804 0e8a F6000000 		.4byte	.LVL29-.Ltext0
 7805 0e8e 0100     		.2byte	0x1
 7806 0e90 51       		.byte	0x51
 7807 0e91 F6000000 		.4byte	.LVL29-.Ltext0
 7808 0e95 AE010000 		.4byte	.LVL43-.Ltext0
 7809 0e99 0400     		.2byte	0x4
 7810 0e9b F3       		.byte	0xf3
 7811 0e9c 01       		.uleb128 0x1
 7812 0e9d 51       		.byte	0x51
 7813 0e9e 9F       		.byte	0x9f
 7814 0e9f AE010000 		.4byte	.LVL43-.Ltext0
 7815 0ea3 B6010000 		.4byte	.LVL44-.Ltext0
 7816 0ea7 0100     		.2byte	0x1
 7817 0ea9 51       		.byte	0x51
 7818 0eaa B6010000 		.4byte	.LVL44-.Ltext0
 7819 0eae C4010000 		.4byte	.LVL47-.Ltext0
 7820 0eb2 0400     		.2byte	0x4
 7821 0eb4 F3       		.byte	0xf3
 7822 0eb5 01       		.uleb128 0x1
 7823 0eb6 51       		.byte	0x51
 7824 0eb7 9F       		.byte	0x9f
 7825 0eb8 C4010000 		.4byte	.LVL47-.Ltext0
 7826 0ebc CC010000 		.4byte	.LVL48-.Ltext0
 7827 0ec0 0100     		.2byte	0x1
 7828 0ec2 51       		.byte	0x51
 7829 0ec3 CC010000 		.4byte	.LVL48-.Ltext0
 7830 0ec7 DC010000 		.4byte	.LVL51-.Ltext0
 7831 0ecb 0400     		.2byte	0x4
 7832 0ecd F3       		.byte	0xf3
 7833 0ece 01       		.uleb128 0x1
 7834 0ecf 51       		.byte	0x51
 7835 0ed0 9F       		.byte	0x9f
 7836 0ed1 DC010000 		.4byte	.LVL51-.Ltext0
 7837 0ed5 E2010000 		.4byte	.LVL53-.Ltext0
 7838 0ed9 0100     		.2byte	0x1
 7839 0edb 51       		.byte	0x51
 7840 0edc E2010000 		.4byte	.LVL53-.Ltext0
 7841 0ee0 10020000 		.4byte	.LFE11-.Ltext0
 7842 0ee4 0400     		.2byte	0x4
 7843 0ee6 F3       		.byte	0xf3
 7844 0ee7 01       		.uleb128 0x1
ARM GAS  G:\Users\Jaxb\AppData\Local\Temp\ccRp9Rzk.s 			page 160


 7845 0ee8 51       		.byte	0x51
 7846 0ee9 9F       		.byte	0x9f
 7847 0eea 00000000 		.4byte	0
 7848 0eee 00000000 		.4byte	0
 7849              	.LLST6:
 7850 0ef2 30000000 		.4byte	.LVL7-.Ltext0
 7851 0ef6 4E000000 		.4byte	.LVL10-.Ltext0
 7852 0efa 0100     		.2byte	0x1
 7853 0efc 52       		.byte	0x52
 7854 0efd 4E000000 		.4byte	.LVL10-.Ltext0
 7855 0f01 82000000 		.4byte	.LVL12-.Ltext0
 7856 0f05 0100     		.2byte	0x1
 7857 0f07 50       		.byte	0x50
 7858 0f08 82000000 		.4byte	.LVL12-.Ltext0
 7859 0f0c 8E000000 		.4byte	.LVL14-.Ltext0
 7860 0f10 0400     		.2byte	0x4
 7861 0f12 F3       		.byte	0xf3
 7862 0f13 01       		.uleb128 0x1
 7863 0f14 52       		.byte	0x52
 7864 0f15 9F       		.byte	0x9f
 7865 0f16 8E000000 		.4byte	.LVL14-.Ltext0
 7866 0f1a 90000000 		.4byte	.LVL15-.Ltext0
 7867 0f1e 0100     		.2byte	0x1
 7868 0f20 50       		.byte	0x50
 7869 0f21 90000000 		.4byte	.LVL15-.Ltext0
 7870 0f25 A6000000 		.4byte	.LVL16-.Ltext0
 7871 0f29 0400     		.2byte	0x4
 7872 0f2b F3       		.byte	0xf3
 7873 0f2c 01       		.uleb128 0x1
 7874 0f2d 52       		.byte	0x52
 7875 0f2e 9F       		.byte	0x9f
 7876 0f2f A6000000 		.4byte	.LVL16-.Ltext0
 7877 0f33 CA000000 		.4byte	.LVL22-.Ltext0
 7878 0f37 0100     		.2byte	0x1
 7879 0f39 50       		.byte	0x50
 7880 0f3a CA000000 		.4byte	.LVL22-.Ltext0
 7881 0f3e D6000000 		.4byte	.LVL24-.Ltext0
 7882 0f42 0400     		.2byte	0x4
 7883 0f44 F3       		.byte	0xf3
 7884 0f45 01       		.uleb128 0x1
 7885 0f46 52       		.byte	0x52
 7886 0f47 9F       		.byte	0x9f
 7887 0f48 D6000000 		.4byte	.LVL24-.Ltext0
 7888 0f4c E4000000 		.4byte	.LVL26-.Ltext0
 7889 0f50 0100     		.2byte	0x1
 7890 0f52 50       		.byte	0x50
 7891 0f53 E4000000 		.4byte	.LVL26-.Ltext0
 7892 0f57 EB000000 		.4byte	.LVL27-1-.Ltext0
 7893 0f5b 0100     		.2byte	0x1
 7894 0f5d 53       		.byte	0x53
 7895 0f5e EB000000 		.4byte	.LVL27-1-.Ltext0
 7896 0f62 F4000000 		.4byte	.LVL28-.Ltext0
 7897 0f66 0400     		.2byte	0x4
 7898 0f68 F3       		.byte	0xf3
 7899 0f69 01       		.uleb128 0x1
 7900 0f6a 52       		.byte	0x52
 7901 0f6b 9F       		.byte	0x9f
ARM GAS  G:\Users\Jaxb\AppData\Local\Temp\ccRp9Rzk.s 			page 161


 7902 0f6c F4000000 		.4byte	.LVL28-.Ltext0
 7903 0f70 4C010000 		.4byte	.LVL35-.Ltext0
 7904 0f74 0100     		.2byte	0x1
 7905 0f76 50       		.byte	0x50
 7906 0f77 4C010000 		.4byte	.LVL35-.Ltext0
 7907 0f7b AE010000 		.4byte	.LVL43-.Ltext0
 7908 0f7f 0400     		.2byte	0x4
 7909 0f81 F3       		.byte	0xf3
 7910 0f82 01       		.uleb128 0x1
 7911 0f83 52       		.byte	0x52
 7912 0f84 9F       		.byte	0x9f
 7913 0f85 AE010000 		.4byte	.LVL43-.Ltext0
 7914 0f89 B8010000 		.4byte	.LVL45-.Ltext0
 7915 0f8d 0100     		.2byte	0x1
 7916 0f8f 50       		.byte	0x50
 7917 0f90 B8010000 		.4byte	.LVL45-.Ltext0
 7918 0f94 BB010000 		.4byte	.LVL46-1-.Ltext0
 7919 0f98 0100     		.2byte	0x1
 7920 0f9a 52       		.byte	0x52
 7921 0f9b BB010000 		.4byte	.LVL46-1-.Ltext0
 7922 0f9f C4010000 		.4byte	.LVL47-.Ltext0
 7923 0fa3 0400     		.2byte	0x4
 7924 0fa5 F3       		.byte	0xf3
 7925 0fa6 01       		.uleb128 0x1
 7926 0fa7 52       		.byte	0x52
 7927 0fa8 9F       		.byte	0x9f
 7928 0fa9 C4010000 		.4byte	.LVL47-.Ltext0
 7929 0fad D0010000 		.4byte	.LVL49-.Ltext0
 7930 0fb1 0100     		.2byte	0x1
 7931 0fb3 50       		.byte	0x50
 7932 0fb4 D0010000 		.4byte	.LVL49-.Ltext0
 7933 0fb8 D3010000 		.4byte	.LVL50-1-.Ltext0
 7934 0fbc 0100     		.2byte	0x1
 7935 0fbe 53       		.byte	0x53
 7936 0fbf D3010000 		.4byte	.LVL50-1-.Ltext0
 7937 0fc3 DC010000 		.4byte	.LVL51-.Ltext0
 7938 0fc7 0400     		.2byte	0x4
 7939 0fc9 F3       		.byte	0xf3
 7940 0fca 01       		.uleb128 0x1
 7941 0fcb 52       		.byte	0x52
 7942 0fcc 9F       		.byte	0x9f
 7943 0fcd DC010000 		.4byte	.LVL51-.Ltext0
 7944 0fd1 E0010000 		.4byte	.LVL52-.Ltext0
 7945 0fd5 0100     		.2byte	0x1
 7946 0fd7 50       		.byte	0x50
 7947 0fd8 E0010000 		.4byte	.LVL52-.Ltext0
 7948 0fdc 10020000 		.4byte	.LFE11-.Ltext0
 7949 0fe0 0400     		.2byte	0x4
 7950 0fe2 F3       		.byte	0xf3
 7951 0fe3 01       		.uleb128 0x1
 7952 0fe4 52       		.byte	0x52
 7953 0fe5 9F       		.byte	0x9f
 7954 0fe6 00000000 		.4byte	0
 7955 0fea 00000000 		.4byte	0
 7956              	.LLST7:
 7957 0fee BA000000 		.4byte	.LVL19-.Ltext0
 7958 0ff2 C2000000 		.4byte	.LVL20-.Ltext0
ARM GAS  G:\Users\Jaxb\AppData\Local\Temp\ccRp9Rzk.s 			page 162


 7959 0ff6 0500     		.2byte	0x5
 7960 0ff8 72       		.byte	0x72
 7961 0ff9 00       		.sleb128 0
 7962 0ffa 32       		.byte	0x32
 7963 0ffb 25       		.byte	0x25
 7964 0ffc 9F       		.byte	0x9f
 7965 0ffd C2000000 		.4byte	.LVL20-.Ltext0
 7966 1001 C8000000 		.4byte	.LVL21-.Ltext0
 7967 1005 0D00     		.2byte	0xd
 7968 1007 71       		.byte	0x71
 7969 1008 00       		.sleb128 0
 7970 1009 32       		.byte	0x32
 7971 100a 24       		.byte	0x24
 7972 100b 76       		.byte	0x76
 7973 100c 00       		.sleb128 0
 7974 100d 1C       		.byte	0x1c
 7975 100e 70       		.byte	0x70
 7976 100f 00       		.sleb128 0
 7977 1010 22       		.byte	0x22
 7978 1011 32       		.byte	0x32
 7979 1012 25       		.byte	0x25
 7980 1013 9F       		.byte	0x9f
 7981 1014 00000000 		.4byte	0
 7982 1018 00000000 		.4byte	0
 7983              	.LLST8:
 7984 101c AE000000 		.4byte	.LVL17-.Ltext0
 7985 1020 C8000000 		.4byte	.LVL21-.Ltext0
 7986 1024 0100     		.2byte	0x1
 7987 1026 51       		.byte	0x51
 7988 1027 00000000 		.4byte	0
 7989 102b 00000000 		.4byte	0
 7990              	.LLST9:
 7991 102f 40010000 		.4byte	.LVL33-.Ltext0
 7992 1033 4E010000 		.4byte	.LVL36-.Ltext0
 7993 1037 0100     		.2byte	0x1
 7994 1039 53       		.byte	0x53
 7995 103a 4E010000 		.4byte	.LVL36-.Ltext0
 7996 103e 80010000 		.4byte	.LVL39-.Ltext0
 7997 1042 0100     		.2byte	0x1
 7998 1044 50       		.byte	0x50
 7999 1045 E2010000 		.4byte	.LVL53-.Ltext0
 8000 1049 E4010000 		.4byte	.LVL54-.Ltext0
 8001 104d 0100     		.2byte	0x1
 8002 104f 50       		.byte	0x50
 8003 1050 E4010000 		.4byte	.LVL54-.Ltext0
 8004 1054 E7010000 		.4byte	.LVL55-1-.Ltext0
 8005 1058 5A00     		.2byte	0x5a
 8006 105a 71       		.byte	0x71
 8007 105b 00       		.sleb128 0
 8008 105c 3C       		.byte	0x3c
 8009 105d 24       		.byte	0x24
 8010 105e 0C       		.byte	0xc
 8011 105f 00F03F00 		.4byte	0x3ff000
 8012 1063 1A       		.byte	0x1a
 8013 1064 77       		.byte	0x77
 8014 1065 00       		.sleb128 0
 8015 1066 21       		.byte	0x21
ARM GAS  G:\Users\Jaxb\AppData\Local\Temp\ccRp9Rzk.s 			page 163


 8016 1067 78       		.byte	0x78
 8017 1068 00       		.sleb128 0
 8018 1069 21       		.byte	0x21
 8019 106a 7E       		.byte	0x7e
 8020 106b 00       		.sleb128 0
 8021 106c 21       		.byte	0x21
 8022 106d 7C       		.byte	0x7c
 8023 106e 00       		.sleb128 0
 8024 106f 21       		.byte	0x21
 8025 1070 40       		.byte	0x40
 8026 1071 45       		.byte	0x45
 8027 1072 24       		.byte	0x24
 8028 1073 1C       		.byte	0x1c
 8029 1074 71       		.byte	0x71
 8030 1075 00       		.sleb128 0
 8031 1076 3C       		.byte	0x3c
 8032 1077 24       		.byte	0x24
 8033 1078 0C       		.byte	0xc
 8034 1079 00F03F00 		.4byte	0x3ff000
 8035 107d 1A       		.byte	0x1a
 8036 107e 77       		.byte	0x77
 8037 107f 00       		.sleb128 0
 8038 1080 21       		.byte	0x21
 8039 1081 78       		.byte	0x78
 8040 1082 00       		.sleb128 0
 8041 1083 21       		.byte	0x21
 8042 1084 7E       		.byte	0x7e
 8043 1085 00       		.sleb128 0
 8044 1086 21       		.byte	0x21
 8045 1087 7C       		.byte	0x7c
 8046 1088 00       		.sleb128 0
 8047 1089 21       		.byte	0x21
 8048 108a 71       		.byte	0x71
 8049 108b 00       		.sleb128 0
 8050 108c 3C       		.byte	0x3c
 8051 108d 24       		.byte	0x24
 8052 108e 0C       		.byte	0xc
 8053 108f 00F03F00 		.4byte	0x3ff000
 8054 1093 1A       		.byte	0x1a
 8055 1094 77       		.byte	0x77
 8056 1095 00       		.sleb128 0
 8057 1096 21       		.byte	0x21
 8058 1097 78       		.byte	0x78
 8059 1098 00       		.sleb128 0
 8060 1099 21       		.byte	0x21
 8061 109a 7E       		.byte	0x7e
 8062 109b 00       		.sleb128 0
 8063 109c 21       		.byte	0x21
 8064 109d 7C       		.byte	0x7c
 8065 109e 00       		.sleb128 0
 8066 109f 21       		.byte	0x21
 8067 10a0 09       		.byte	0x9
 8068 10a1 EB       		.byte	0xeb
 8069 10a2 24       		.byte	0x24
 8070 10a3 33       		.byte	0x33
 8071 10a4 25       		.byte	0x25
 8072 10a5 30       		.byte	0x30
ARM GAS  G:\Users\Jaxb\AppData\Local\Temp\ccRp9Rzk.s 			page 164


 8073 10a6 2E       		.byte	0x2e
 8074 10a7 28       		.byte	0x28
 8075 10a8 0100     		.2byte	0x1
 8076 10aa 16       		.byte	0x16
 8077 10ab 13       		.byte	0x13
 8078 10ac 76       		.byte	0x76
 8079 10ad 00       		.sleb128 0
 8080 10ae 1C       		.byte	0x1c
 8081 10af F3       		.byte	0xf3
 8082 10b0 01       		.uleb128 0x1
 8083 10b1 52       		.byte	0x52
 8084 10b2 22       		.byte	0x22
 8085 10b3 9F       		.byte	0x9f
 8086 10b4 00000000 		.4byte	0
 8087 10b8 00000000 		.4byte	0
 8088              	.LLST10:
 8089 10bc F6000000 		.4byte	.LVL29-.Ltext0
 8090 10c0 7C010000 		.4byte	.LVL38-.Ltext0
 8091 10c4 0100     		.2byte	0x1
 8092 10c6 51       		.byte	0x51
 8093 10c7 7C010000 		.4byte	.LVL38-.Ltext0
 8094 10cb 8E010000 		.4byte	.LVL40-.Ltext0
 8095 10cf 0C00     		.2byte	0xc
 8096 10d1 75       		.byte	0x75
 8097 10d2 00       		.sleb128 0
 8098 10d3 74       		.byte	0x74
 8099 10d4 00       		.sleb128 0
 8100 10d5 22       		.byte	0x22
 8101 10d6 94       		.byte	0x94
 8102 10d7 02       		.byte	0x2
 8103 10d8 0A       		.byte	0xa
 8104 10d9 FFFF     		.2byte	0xffff
 8105 10db 1A       		.byte	0x1a
 8106 10dc 9F       		.byte	0x9f
 8107 10dd E2010000 		.4byte	.LVL53-.Ltext0
 8108 10e1 E7010000 		.4byte	.LVL55-1-.Ltext0
 8109 10e5 0100     		.2byte	0x1
 8110 10e7 51       		.byte	0x51
 8111 10e8 00000000 		.4byte	0
 8112 10ec 00000000 		.4byte	0
 8113              	.LLST11:
 8114 10f0 F8000000 		.4byte	.LVL30-.Ltext0
 8115 10f4 94010000 		.4byte	.LVL41-.Ltext0
 8116 10f8 0100     		.2byte	0x1
 8117 10fa 52       		.byte	0x52
 8118 10fb A8010000 		.4byte	.LVL42-.Ltext0
 8119 10ff AE010000 		.4byte	.LVL43-.Ltext0
 8120 1103 0900     		.2byte	0x9
 8121 1105 76       		.byte	0x76
 8122 1106 02       		.sleb128 2
 8123 1107 94       		.byte	0x94
 8124 1108 02       		.byte	0x2
 8125 1109 0A       		.byte	0xa
 8126 110a FFFF     		.2byte	0xffff
 8127 110c 1A       		.byte	0x1a
 8128 110d 9F       		.byte	0x9f
 8129 110e E2010000 		.4byte	.LVL53-.Ltext0
ARM GAS  G:\Users\Jaxb\AppData\Local\Temp\ccRp9Rzk.s 			page 165


 8130 1112 E7010000 		.4byte	.LVL55-1-.Ltext0
 8131 1116 0100     		.2byte	0x1
 8132 1118 52       		.byte	0x52
 8133 1119 00000000 		.4byte	0
 8134 111d 00000000 		.4byte	0
 8135              	.LLST12:
 8136 1121 FA000000 		.4byte	.LVL31-.Ltext0
 8137 1125 26010000 		.4byte	.LVL32-.Ltext0
 8138 1129 0500     		.2byte	0x5
 8139 112b 77       		.byte	0x77
 8140 112c 00       		.sleb128 0
 8141 112d 31       		.byte	0x31
 8142 112e 1A       		.byte	0x1a
 8143 112f 9F       		.byte	0x9f
 8144 1130 26010000 		.4byte	.LVL32-.Ltext0
 8145 1134 74010000 		.4byte	.LVL37-.Ltext0
 8146 1138 0700     		.2byte	0x7
 8147 113a 71       		.byte	0x71
 8148 113b 00       		.sleb128 0
 8149 113c 3A       		.byte	0x3a
 8150 113d 25       		.byte	0x25
 8151 113e 31       		.byte	0x31
 8152 113f 1A       		.byte	0x1a
 8153 1140 9F       		.byte	0x9f
 8154 1141 74010000 		.4byte	.LVL37-.Ltext0
 8155 1145 AE010000 		.4byte	.LVL43-.Ltext0
 8156 1149 0100     		.2byte	0x1
 8157 114b 5C       		.byte	0x5c
 8158 114c E2010000 		.4byte	.LVL53-.Ltext0
 8159 1150 E7010000 		.4byte	.LVL55-1-.Ltext0
 8160 1154 0700     		.2byte	0x7
 8161 1156 71       		.byte	0x71
 8162 1157 00       		.sleb128 0
 8163 1158 3A       		.byte	0x3a
 8164 1159 25       		.byte	0x25
 8165 115a 31       		.byte	0x31
 8166 115b 1A       		.byte	0x1a
 8167 115c 9F       		.byte	0x9f
 8168 115d 00000000 		.4byte	0
 8169 1161 00000000 		.4byte	0
 8170              	.LLST13:
 8171 1165 FA000000 		.4byte	.LVL31-.Ltext0
 8172 1169 74010000 		.4byte	.LVL37-.Ltext0
 8173 116d 0700     		.2byte	0x7
 8174 116f 72       		.byte	0x72
 8175 1170 00       		.sleb128 0
 8176 1171 3D       		.byte	0x3d
 8177 1172 25       		.byte	0x25
 8178 1173 31       		.byte	0x31
 8179 1174 1A       		.byte	0x1a
 8180 1175 9F       		.byte	0x9f
 8181 1176 74010000 		.4byte	.LVL37-.Ltext0
 8182 117a 80010000 		.4byte	.LVL39-.Ltext0
 8183 117e 0F00     		.2byte	0xf
 8184 1180 70       		.byte	0x70
 8185 1181 00       		.sleb128 0
 8186 1182 40       		.byte	0x40
ARM GAS  G:\Users\Jaxb\AppData\Local\Temp\ccRp9Rzk.s 			page 166


 8187 1183 43       		.byte	0x43
 8188 1184 24       		.byte	0x24
 8189 1185 1A       		.byte	0x1a
 8190 1186 30       		.byte	0x30
 8191 1187 29       		.byte	0x29
 8192 1188 08       		.byte	0x8
 8193 1189 FF       		.byte	0xff
 8194 118a 1A       		.byte	0x1a
 8195 118b 7C       		.byte	0x7c
 8196 118c 00       		.sleb128 0
 8197 118d 27       		.byte	0x27
 8198 118e 9F       		.byte	0x9f
 8199 118f E2010000 		.4byte	.LVL53-.Ltext0
 8200 1193 E7010000 		.4byte	.LVL55-1-.Ltext0
 8201 1197 0700     		.2byte	0x7
 8202 1199 72       		.byte	0x72
 8203 119a 00       		.sleb128 0
 8204 119b 3D       		.byte	0x3d
 8205 119c 25       		.byte	0x25
 8206 119d 31       		.byte	0x31
 8207 119e 1A       		.byte	0x1a
 8208 119f 9F       		.byte	0x9f
 8209 11a0 00000000 		.4byte	0
 8210 11a4 00000000 		.4byte	0
 8211              	.LLST14:
 8212 11a8 FA000000 		.4byte	.LVL31-.Ltext0
 8213 11ac 74010000 		.4byte	.LVL37-.Ltext0
 8214 11b0 0700     		.2byte	0x7
 8215 11b2 72       		.byte	0x72
 8216 11b3 00       		.sleb128 0
 8217 11b4 3B       		.byte	0x3b
 8218 11b5 25       		.byte	0x25
 8219 11b6 31       		.byte	0x31
 8220 11b7 1A       		.byte	0x1a
 8221 11b8 9F       		.byte	0x9f
 8222 11b9 74010000 		.4byte	.LVL37-.Ltext0
 8223 11bd 80010000 		.4byte	.LVL39-.Ltext0
 8224 11c1 0F00     		.2byte	0xf
 8225 11c3 70       		.byte	0x70
 8226 11c4 00       		.sleb128 0
 8227 11c5 40       		.byte	0x40
 8228 11c6 42       		.byte	0x42
 8229 11c7 24       		.byte	0x24
 8230 11c8 1A       		.byte	0x1a
 8231 11c9 30       		.byte	0x30
 8232 11ca 29       		.byte	0x29
 8233 11cb 08       		.byte	0x8
 8234 11cc FF       		.byte	0xff
 8235 11cd 1A       		.byte	0x1a
 8236 11ce 7C       		.byte	0x7c
 8237 11cf 00       		.sleb128 0
 8238 11d0 27       		.byte	0x27
 8239 11d1 9F       		.byte	0x9f
 8240 11d2 E2010000 		.4byte	.LVL53-.Ltext0
 8241 11d6 E7010000 		.4byte	.LVL55-1-.Ltext0
 8242 11da 0700     		.2byte	0x7
 8243 11dc 72       		.byte	0x72
ARM GAS  G:\Users\Jaxb\AppData\Local\Temp\ccRp9Rzk.s 			page 167


 8244 11dd 00       		.sleb128 0
 8245 11de 3B       		.byte	0x3b
 8246 11df 25       		.byte	0x25
 8247 11e0 31       		.byte	0x31
 8248 11e1 1A       		.byte	0x1a
 8249 11e2 9F       		.byte	0x9f
 8250 11e3 00000000 		.4byte	0
 8251 11e7 00000000 		.4byte	0
 8252              	.LLST0:
 8253 11eb 00000000 		.4byte	.LFB10-.Ltext0
 8254 11ef 02000000 		.4byte	.LCFI0-.Ltext0
 8255 11f3 0200     		.2byte	0x2
 8256 11f5 7D       		.byte	0x7d
 8257 11f6 00       		.sleb128 0
 8258 11f7 02000000 		.4byte	.LCFI0-.Ltext0
 8259 11fb 30000000 		.4byte	.LFE10-.Ltext0
 8260 11ff 0200     		.2byte	0x2
 8261 1201 7D       		.byte	0x7d
 8262 1202 10       		.sleb128 16
 8263 1203 00000000 		.4byte	0
 8264 1207 00000000 		.4byte	0
 8265              	.LLST1:
 8266 120b 00000000 		.4byte	.LVL0-.Ltext0
 8267 120f 0E000000 		.4byte	.LVL1-.Ltext0
 8268 1213 0100     		.2byte	0x1
 8269 1215 50       		.byte	0x50
 8270 1216 0E000000 		.4byte	.LVL1-.Ltext0
 8271 121a 28000000 		.4byte	.LVL6-.Ltext0
 8272 121e 0100     		.2byte	0x1
 8273 1220 56       		.byte	0x56
 8274 1221 28000000 		.4byte	.LVL6-.Ltext0
 8275 1225 30000000 		.4byte	.LFE10-.Ltext0
 8276 1229 0400     		.2byte	0x4
 8277 122b F3       		.byte	0xf3
 8278 122c 01       		.uleb128 0x1
 8279 122d 50       		.byte	0x50
 8280 122e 9F       		.byte	0x9f
 8281 122f 00000000 		.4byte	0
 8282 1233 00000000 		.4byte	0
 8283              	.LLST2:
 8284 1237 0E000000 		.4byte	.LVL1-.Ltext0
 8285 123b 24000000 		.4byte	.LVL5-.Ltext0
 8286 123f 0100     		.2byte	0x1
 8287 1241 54       		.byte	0x54
 8288 1242 00000000 		.4byte	0
 8289 1246 00000000 		.4byte	0
 8290              		.section	.debug_aranges,"",%progbits
 8291 0000 1C000000 		.4byte	0x1c
 8292 0004 0200     		.2byte	0x2
 8293 0006 00000000 		.4byte	.Ldebug_info0
 8294 000a 04       		.byte	0x4
 8295 000b 00       		.byte	0
 8296 000c 0000     		.2byte	0
 8297 000e 0000     		.2byte	0
 8298 0010 00000000 		.4byte	.Ltext0
 8299 0014 080C0000 		.4byte	.Letext0-.Ltext0
 8300 0018 00000000 		.4byte	0
ARM GAS  G:\Users\Jaxb\AppData\Local\Temp\ccRp9Rzk.s 			page 168


 8301 001c 00000000 		.4byte	0
 8302              		.section	.debug_ranges,"",%progbits
 8303              	.Ldebug_ranges0:
 8304 0000 4A030000 		.4byte	.LBB4-.Ltext0
 8305 0004 D4030000 		.4byte	.LBE4-.Ltext0
 8306 0008 0C040000 		.4byte	.LBB11-.Ltext0
 8307 000c 1C040000 		.4byte	.LBE11-.Ltext0
 8308 0010 6C050000 		.4byte	.LBB17-.Ltext0
 8309 0014 A2050000 		.4byte	.LBE17-.Ltext0
 8310 0018 D8050000 		.4byte	.LBB18-.Ltext0
 8311 001c E4050000 		.4byte	.LBE18-.Ltext0
 8312 0020 00000000 		.4byte	0
 8313 0024 00000000 		.4byte	0
 8314 0028 8A030000 		.4byte	.LBB5-.Ltext0
 8315 002c CE030000 		.4byte	.LBE5-.Ltext0
 8316 0030 6C050000 		.4byte	.LBB9-.Ltext0
 8317 0034 96050000 		.4byte	.LBE9-.Ltext0
 8318 0038 D8050000 		.4byte	.LBB10-.Ltext0
 8319 003c E4050000 		.4byte	.LBE10-.Ltext0
 8320 0040 00000000 		.4byte	0
 8321 0044 00000000 		.4byte	0
 8322 0048 2A040000 		.4byte	.LBB12-.Ltext0
 8323 004c 2C040000 		.4byte	.LBE12-.Ltext0
 8324 0050 3A040000 		.4byte	.LBB13-.Ltext0
 8325 0054 62040000 		.4byte	.LBE13-.Ltext0
 8326 0058 00000000 		.4byte	0
 8327 005c 00000000 		.4byte	0
 8328 0060 70040000 		.4byte	.LBB14-.Ltext0
 8329 0064 64050000 		.4byte	.LBE14-.Ltext0
 8330 0068 18060000 		.4byte	.LBB19-.Ltext0
 8331 006c 1C060000 		.4byte	.LBE19-.Ltext0
 8332 0070 00000000 		.4byte	0
 8333 0074 00000000 		.4byte	0
 8334 0078 E4040000 		.4byte	.LBB15-.Ltext0
 8335 007c E6040000 		.4byte	.LBE15-.Ltext0
 8336 0080 E8040000 		.4byte	.LBB16-.Ltext0
 8337 0084 58050000 		.4byte	.LBE16-.Ltext0
 8338 0088 00000000 		.4byte	0
 8339 008c 00000000 		.4byte	0
 8340 0090 C2070000 		.4byte	.LBB20-.Ltext0
 8341 0094 CC070000 		.4byte	.LBE20-.Ltext0
 8342 0098 D4070000 		.4byte	.LBB33-.Ltext0
 8343 009c 6E090000 		.4byte	.LBE33-.Ltext0
 8344 00a0 00000000 		.4byte	0
 8345 00a4 00000000 		.4byte	0
 8346 00a8 C2070000 		.4byte	.LBB21-.Ltext0
 8347 00ac CC070000 		.4byte	.LBE21-.Ltext0
 8348 00b0 34080000 		.4byte	.LBB30-.Ltext0
 8349 00b4 4A080000 		.4byte	.LBE30-.Ltext0
 8350 00b8 4E080000 		.4byte	.LBB31-.Ltext0
 8351 00bc AA080000 		.4byte	.LBE31-.Ltext0
 8352 00c0 B6080000 		.4byte	.LBB32-.Ltext0
 8353 00c4 6E090000 		.4byte	.LBE32-.Ltext0
 8354 00c8 00000000 		.4byte	0
 8355 00cc 00000000 		.4byte	0
 8356 00d0 C6070000 		.4byte	.LBB22-.Ltext0
 8357 00d4 CC070000 		.4byte	.LBE22-.Ltext0
ARM GAS  G:\Users\Jaxb\AppData\Local\Temp\ccRp9Rzk.s 			page 169


 8358 00d8 78080000 		.4byte	.LBB24-.Ltext0
 8359 00dc A0080000 		.4byte	.LBE24-.Ltext0
 8360 00e0 A2080000 		.4byte	.LBB25-.Ltext0
 8361 00e4 AA080000 		.4byte	.LBE25-.Ltext0
 8362 00e8 B6080000 		.4byte	.LBB26-.Ltext0
 8363 00ec CC080000 		.4byte	.LBE26-.Ltext0
 8364 00f0 02090000 		.4byte	.LBB28-.Ltext0
 8365 00f4 0E090000 		.4byte	.LBE28-.Ltext0
 8366 00f8 00000000 		.4byte	0
 8367 00fc 00000000 		.4byte	0
 8368 0100 34080000 		.4byte	.LBB23-.Ltext0
 8369 0104 48080000 		.4byte	.LBE23-.Ltext0
 8370 0108 CC080000 		.4byte	.LBB27-.Ltext0
 8371 010c 02090000 		.4byte	.LBE27-.Ltext0
 8372 0110 0E090000 		.4byte	.LBB29-.Ltext0
 8373 0114 6E090000 		.4byte	.LBE29-.Ltext0
 8374 0118 00000000 		.4byte	0
 8375 011c 00000000 		.4byte	0
 8376              		.section	.debug_line,"",%progbits
 8377              	.Ldebug_line0:
 8378 0000 C0040000 		.section	.debug_str,"MS",%progbits,1
 8378      02004101 
 8378      00000201 
 8378      FB0E0D00 
 8378      01010101 
 8379              	.LASF172:
 8380 0000 5F415353 		.ascii	"_ASSERT\000"
 8380      45525400 
 8381              	.LASF140:
 8382 0008 646C6D6F 		.ascii	"dlmodule_load_relocated_object\000"
 8382      64756C65 
 8382      5F6C6F61 
 8382      645F7265 
 8382      6C6F6361 
 8383              	.LASF155:
 8384 0027 636F756E 		.ascii	"count\000"
 8384      7400
 8385              	.LASF40:
 8386 002d 73685F61 		.ascii	"sh_addralign\000"
 8386      64647261 
 8386      6C69676E 
 8386      00
 8387              	.LASF90:
 8388 003a 73757370 		.ascii	"suspend_list\000"
 8388      656E645F 
 8388      6C697374 
 8388      00
 8389              	.LASF57:
 8390 0047 705F7661 		.ascii	"p_vaddr\000"
 8390      64647200 
 8391              	.LASF50:
 8392 004f 73745F73 		.ascii	"st_shndx\000"
 8392      686E6478 
 8392      00
 8393              	.LASF79:
 8394 0058 5441534B 		.ascii	"TASK_PRIO_TYPE\000"
 8394      5F505249 
ARM GAS  G:\Users\Jaxb\AppData\Local\Temp\ccRp9Rzk.s 			page 170


 8394      4F5F5459 
 8394      504500
 8395              	.LASF119:
 8396 0067 696E6974 		.ascii	"init_func\000"
 8396      5F66756E 
 8396      6300
 8397              	.LASF110:
 8398 0071 73746174 		.ascii	"stat\000"
 8398      00
 8399              	.LASF123:
 8400 0076 73796D74 		.ascii	"symtab\000"
 8400      616200
 8401              	.LASF159:
 8402 007d 77686572 		.ascii	"where\000"
 8402      6500
 8403              	.LASF48:
 8404 0083 73745F69 		.ascii	"st_info\000"
 8404      6E666F00 
 8405              	.LASF41:
 8406 008b 73685F65 		.ascii	"sh_entsize\000"
 8406      6E747369 
 8406      7A6500
 8407              	.LASF158:
 8408 0096 73796D5F 		.ascii	"sym_val\000"
 8408      76616C00 
 8409              	.LASF66:
 8410 009e 70726576 		.ascii	"prev\000"
 8410      00
 8411              	.LASF42:
 8412 00a3 456C6633 		.ascii	"Elf32_Shdr\000"
 8412      325F5368 
 8412      647200
 8413              	.LASF102:
 8414 00ae 74797065 		.ascii	"type\000"
 8414      00
 8415              	.LASF126:
 8416 00b3 6C6F6E67 		.ascii	"long int\000"
 8416      20696E74 
 8416      00
 8417              	.LASF94:
 8418 00bc 61747472 		.ascii	"attribution\000"
 8418      69627574 
 8418      696F6E00 
 8419              	.LASF18:
 8420 00c8 655F7479 		.ascii	"e_type\000"
 8420      706500
 8421              	.LASF99:
 8422 00cf 72745F6D 		.ascii	"rt_module_symtab\000"
 8422      6F64756C 
 8422      655F7379 
 8422      6D746162 
 8422      00
 8423              	.LASF169:
 8424 00e0 6B615F73 		.ascii	"ka_strncmp\000"
 8424      74726E63 
 8424      6D7000
 8425              	.LASF11:
ARM GAS  G:\Users\Jaxb\AppData\Local\Temp\ccRp9Rzk.s 			page 171


 8426 00eb 6C6F6E67 		.ascii	"long long unsigned int\000"
 8426      206C6F6E 
 8426      6720756E 
 8426      7369676E 
 8426      65642069 
 8427              	.LASF62:
 8428 0102 705F616C 		.ascii	"p_align\000"
 8428      69676E00 
 8429              	.LASF37:
 8430 010a 73685F73 		.ascii	"sh_size\000"
 8430      697A6500 
 8431              	.LASF100:
 8432 0112 61646472 		.ascii	"addr\000"
 8432      00
 8433              	.LASF135:
 8434 0117 6D6F6475 		.ascii	"module\000"
 8434      6C6500
 8435              	.LASF120:
 8436 011e 636C6561 		.ascii	"cleanup_func\000"
 8436      6E75705F 
 8436      66756E63 
 8436      00
 8437              	.LASF35:
 8438 012b 73685F61 		.ascii	"sh_addr\000"
 8438      64647200 
 8439              	.LASF163:
 8440 0133 6C6F7765 		.ascii	"lower\000"
 8440      7200
 8441              	.LASF77:
 8442 0139 5441534B 		.ascii	"TASK_STATE\000"
 8442      5F535441 
 8442      544500
 8443              	.LASF13:
 8444 0144 456C6633 		.ascii	"Elf32_Off\000"
 8444      325F4F66 
 8444      6600
 8445              	.LASF65:
 8446 014e 6E657874 		.ascii	"next\000"
 8446      00
 8447              	.LASF81:
 8448 0153 7461736B 		.ascii	"task_control_block_struct\000"
 8448      5F636F6E 
 8448      74726F6C 
 8448      5F626C6F 
 8448      636B5F73 
 8449              	.LASF2:
 8450 016d 6C6F6E67 		.ascii	"long long int\000"
 8450      206C6F6E 
 8450      6720696E 
 8450      7400
 8451              	.LASF0:
 8452 017b 7369676E 		.ascii	"signed char\000"
 8452      65642063 
 8452      68617200 
 8453              	.LASF86:
 8454 0187 72657365 		.ascii	"reserve_prio\000"
 8454      7276655F 
ARM GAS  G:\Users\Jaxb\AppData\Local\Temp\ccRp9Rzk.s 			page 172


 8454      7072696F 
 8454      00
 8455              	.LASF59:
 8456 0194 705F6669 		.ascii	"p_filesz\000"
 8456      6C65737A 
 8456      00
 8457              	.LASF146:
 8458 019d 6D6F6475 		.ascii	"module_size\000"
 8458      6C655F73 
 8458      697A6500 
 8459              	.LASF139:
 8460 01a9 6D6F6475 		.ascii	"module_ptr\000"
 8460      6C655F70 
 8460      747200
 8461              	.LASF15:
 8462 01b4 456C6633 		.ascii	"Elf32_Word\000"
 8462      325F576F 
 8462      726400
 8463              	.LASF160:
 8464 01bf 61646465 		.ascii	"addend\000"
 8464      6E6400
 8465              	.LASF108:
 8466 01c6 70617265 		.ascii	"parent\000"
 8466      6E7400
 8467              	.LASF130:
 8468 01cd 5F72745F 		.ascii	"_rt_module_symtab_end\000"
 8468      6D6F6475 
 8468      6C655F73 
 8468      796D7461 
 8468      625F656E 
 8469              	.LASF30:
 8470 01e3 655F7368 		.ascii	"e_shstrndx\000"
 8470      7374726E 
 8470      647800
 8471              	.LASF107:
 8472 01ee 72745F64 		.ascii	"rt_dlmodule\000"
 8472      6C6D6F64 
 8472      756C6500 
 8473              	.LASF131:
 8474 01fa 6D6F6475 		.ascii	"module_buffer\000"
 8474      6C655F62 
 8474      75666665 
 8474      7200
 8475              	.LASF181:
 8476 0208 636C6561 		.ascii	"clear_module_buffer\000"
 8476      725F6D6F 
 8476      64756C65 
 8476      5F627566 
 8476      66657200 
 8477              	.LASF162:
 8478 021c 75707065 		.ascii	"upper\000"
 8478      7200
 8479              	.LASF89:
 8480 0222 73616D65 		.ascii	"same_prio_list\000"
 8480      5F707269 
 8480      6F5F6C69 
 8480      737400
ARM GAS  G:\Users\Jaxb\AppData\Local\Temp\ccRp9Rzk.s 			page 173


 8481              	.LASF46:
 8482 0231 73745F76 		.ascii	"st_value\000"
 8482      616C7565 
 8482      00
 8483              	.LASF121:
 8484 023a 6E726566 		.ascii	"nref\000"
 8484      00
 8485              	.LASF58:
 8486 023f 705F7061 		.ascii	"p_paddr\000"
 8486      64647200 
 8487              	.LASF170:
 8488 0247 6B615F66 		.ascii	"ka_free\000"
 8488      72656500 
 8489              	.LASF112:
 8490 024f 6D61696E 		.ascii	"main_thread\000"
 8490      5F746872 
 8490      65616400 
 8491              	.LASF6:
 8492 025b 55494E54 		.ascii	"UINT16\000"
 8492      313600
 8493              	.LASF154:
 8494 0262 756E736F 		.ascii	"unsolved\000"
 8494      6C766564 
 8494      00
 8495              	.LASF60:
 8496 026b 705F6D65 		.ascii	"p_memsz\000"
 8496      6D737A00 
 8497              	.LASF143:
 8498 0273 6273735F 		.ascii	"bss_addr\000"
 8498      61646472 
 8498      00
 8499              	.LASF38:
 8500 027c 73685F6C 		.ascii	"sh_link\000"
 8500      696E6B00 
 8501              	.LASF73:
 8502 0284 53544154 		.ascii	"STATE_WAIT_MESSAGE_QUEUE_TIMEOUT\000"
 8502      455F5741 
 8502      49545F4D 
 8502      45535341 
 8502      47455F51 
 8503              	.LASF43:
 8504 02a5 656C6668 		.ascii	"elfhdr\000"
 8504      647200
 8505              	.LASF74:
 8506 02ac 53544154 		.ascii	"STATE_PUT_MESSAGE_QUEUE_FOREVER\000"
 8506      455F5055 
 8506      545F4D45 
 8506      53534147 
 8506      455F5155 
 8507              	.LASF175:
 8508 02cc 6B615F73 		.ascii	"ka_strcmp\000"
 8508      7472636D 
 8508      7000
 8509              	.LASF9:
 8510 02d6 756E7369 		.ascii	"unsigned int\000"
 8510      676E6564 
 8510      20696E74 
ARM GAS  G:\Users\Jaxb\AppData\Local\Temp\ccRp9Rzk.s 			page 174


 8510      00
 8511              	.LASF55:
 8512 02e3 705F7479 		.ascii	"p_type\000"
 8512      706500
 8513              	.LASF14:
 8514 02ea 456C6633 		.ascii	"Elf32_Sword\000"
 8514      325F5377 
 8514      6F726400 
 8515              	.LASF68:
 8516 02f6 53544154 		.ascii	"STATE_DELAY\000"
 8516      455F4445 
 8516      4C415900 
 8517              	.LASF147:
 8518 0302 73747274 		.ascii	"strtab\000"
 8518      616200
 8519              	.LASF26:
 8520 0309 655F7068 		.ascii	"e_phentsize\000"
 8520      656E7473 
 8520      697A6500 
 8521              	.LASF129:
 8522 0315 6C6F6E67 		.ascii	"long unsigned int\000"
 8522      20756E73 
 8522      69676E65 
 8522      6420696E 
 8522      7400
 8523              	.LASF3:
 8524 0327 494E5433 		.ascii	"INT32\000"
 8524      3200
 8525              	.LASF176:
 8526 032d 6B615F73 		.ascii	"ka_strlen\000"
 8526      74726C65 
 8526      6E00
 8527              	.LASF91:
 8528 0337 6E616D65 		.ascii	"name\000"
 8528      00
 8529              	.LASF115:
 8530 033c 656E7472 		.ascii	"entry_addr\000"
 8530      795F6164 
 8530      647200
 8531              	.LASF32:
 8532 0347 73685F6E 		.ascii	"sh_name\000"
 8532      616D6500 
 8533              	.LASF7:
 8534 034f 73686F72 		.ascii	"short unsigned int\000"
 8534      7420756E 
 8534      7369676E 
 8534      65642069 
 8534      6E7400
 8535              	.LASF49:
 8536 0362 73745F6F 		.ascii	"st_other\000"
 8536      74686572 
 8536      00
 8537              	.LASF63:
 8538 036b 456C6633 		.ascii	"Elf32_Phdr\000"
 8538      325F5068 
 8538      647200
 8539              	.LASF117:
ARM GAS  G:\Users\Jaxb\AppData\Local\Temp\ccRp9Rzk.s 			page 175


 8540 0376 6D656D5F 		.ascii	"mem_space\000"
 8540      73706163 
 8540      6500
 8541              	.LASF111:
 8542 0380 7072696F 		.ascii	"priority\000"
 8542      72697479 
 8542      00
 8543              	.LASF109:
 8544 0389 6F626A65 		.ascii	"object_list\000"
 8544      63745F6C 
 8544      69737400 
 8545              	.LASF137:
 8546 0395 646C6D6F 		.ascii	"dlmodule_exec\000"
 8546      64756C65 
 8546      5F657865 
 8546      6300
 8547              	.LASF19:
 8548 03a3 655F6D61 		.ascii	"e_machine\000"
 8548      6368696E 
 8548      6500
 8549              	.LASF54:
 8550 03ad 456C6633 		.ascii	"Elf32_Rel\000"
 8550      325F5265 
 8550      6C00
 8551              	.LASF144:
 8552 03b7 64617461 		.ascii	"data_addr\000"
 8552      5F616464 
 8552      7200
 8553              	.LASF47:
 8554 03c1 73745F73 		.ascii	"st_size\000"
 8554      697A6500 
 8555              	.LASF164:
 8556 03c9 7369676E 		.ascii	"sign\000"
 8556      00
 8557              	.LASF134:
 8558 03ce 7075745F 		.ascii	"put_in_module_buffer\000"
 8558      696E5F6D 
 8558      6F64756C 
 8558      655F6275 
 8558      66666572 
 8559              	.LASF180:
 8560 03e3 5461736B 		.ascii	"Task_State\000"
 8560      5F537461 
 8560      746500
 8561              	.LASF98:
 8562 03ee 72745F61 		.ascii	"rt_addr_t\000"
 8562      6464725F 
 8562      7400
 8563              	.LASF138:
 8564 03f8 646C6D6F 		.ascii	"dlmodule_load\000"
 8564      64756C65 
 8564      5F6C6F61 
 8564      6400
 8565              	.LASF114:
 8566 0406 76737461 		.ascii	"vstart_addr\000"
 8566      72745F61 
 8566      64647200 
ARM GAS  G:\Users\Jaxb\AppData\Local\Temp\ccRp9Rzk.s 			page 176


 8567              	.LASF25:
 8568 0412 655F6568 		.ascii	"e_ehsize\000"
 8568      73697A65 
 8568      00
 8569              	.LASF152:
 8570 041b 76656E64 		.ascii	"vend_addr\000"
 8570      5F616464 
 8570      7200
 8571              	.LASF67:
 8572 0425 53544154 		.ascii	"STATE_READY\000"
 8572      455F5245 
 8572      41445900 
 8573              	.LASF8:
 8574 0431 55494E54 		.ascii	"UINT32\000"
 8574      333200
 8575              	.LASF168:
 8576 0438 7461736B 		.ascii	"task_creat_ready\000"
 8576      5F637265 
 8576      61745F72 
 8576      65616479 
 8576      00
 8577              	.LASF128:
 8578 0449 5F72745F 		.ascii	"_rt_module_symtab_begin\000"
 8578      6D6F6475 
 8578      6C655F73 
 8578      796D7461 
 8578      625F6265 
 8579              	.LASF20:
 8580 0461 655F7665 		.ascii	"e_version\000"
 8580      7273696F 
 8580      6E00
 8581              	.LASF56:
 8582 046b 705F6F66 		.ascii	"p_offset\000"
 8582      66736574 
 8582      00
 8583              	.LASF93:
 8584 0474 74696D65 		.ascii	"timeslice_rest_time\000"
 8584      736C6963 
 8584      655F7265 
 8584      73745F74 
 8584      696D6500 
 8585              	.LASF151:
 8586 0488 6C696E6B 		.ascii	"linked\000"
 8586      656400
 8587              	.LASF85:
 8588 048f 7072696F 		.ascii	"prio\000"
 8588      00
 8589              	.LASF16:
 8590 0494 456C6633 		.ascii	"Elf32_Half\000"
 8590      325F4861 
 8590      6C6600
 8591              	.LASF153:
 8592 049f 6861735F 		.ascii	"has_vstart\000"
 8592      76737461 
 8592      727400
 8593              	.LASF70:
 8594 04aa 53544154 		.ascii	"STATE_WAIT_MCB_FOREVER\000"
ARM GAS  G:\Users\Jaxb\AppData\Local\Temp\ccRp9Rzk.s 			page 177


 8594      455F5741 
 8594      49545F4D 
 8594      43425F46 
 8594      4F524556 
 8595              	.LASF145:
 8596 04c1 6D6F6475 		.ascii	"module_addr\000"
 8596      6C655F61 
 8596      64647200 
 8597              	.LASF84:
 8598 04cd 73746163 		.ascii	"stack_end\000"
 8598      6B5F656E 
 8598      6400
 8599              	.LASF136:
 8600 04d7 6572726F 		.ascii	"error\000"
 8600      7200
 8601              	.LASF166:
 8602 04dd 73796D5F 		.ascii	"sym_str\000"
 8602      73747200 
 8603              	.LASF31:
 8604 04e5 456C6633 		.ascii	"Elf32_Ehdr\000"
 8604      325F4568 
 8604      647200
 8605              	.LASF76:
 8606 04f0 53544154 		.ascii	"STATE_WAIT_MUTEX_FOREVER\000"
 8606      455F5741 
 8606      49545F4D 
 8606      55544558 
 8606      5F464F52 
 8607              	.LASF177:
 8608 0509 474E5520 		.ascii	"GNU C11 7.3.1 20180622 (release) [ARM/embedded-7-br"
 8608      43313120 
 8608      372E332E 
 8608      31203230 
 8608      31383036 
 8609 053c 616E6368 		.ascii	"anch revision 261907] -mcpu=cortex-m3 -mthumb -mapc"
 8609      20726576 
 8609      6973696F 
 8609      6E203236 
 8609      31393037 
 8610 056f 732D6672 		.ascii	"s-frame -mthumb-interwork -mcpu=cortex-m3 -mthumb -"
 8610      616D6520 
 8610      2D6D7468 
 8610      756D622D 
 8610      696E7465 
 8611 05a2 67647761 		.ascii	"gdwarf-2 -O2\000"
 8611      72662D32 
 8611      202D4F32 
 8611      00
 8612              	.LASF127:
 8613 05af 675F696E 		.ascii	"g_interrupt_count\000"
 8613      74657272 
 8613      7570745F 
 8613      636F756E 
 8613      7400
 8614              	.LASF148:
 8615 05c1 73687374 		.ascii	"shstrab\000"
 8615      72616200 
ARM GAS  G:\Users\Jaxb\AppData\Local\Temp\ccRp9Rzk.s 			page 178


 8616              	.LASF125:
 8617 05c9 72745F65 		.ascii	"rt_err_t\000"
 8617      72725F74 
 8617      00
 8618              	.LASF173:
 8619 05d2 6B615F6D 		.ascii	"ka_memset\000"
 8619      656D7365 
 8619      7400
 8620              	.LASF5:
 8621 05dc 756E7369 		.ascii	"unsigned char\000"
 8621      676E6564 
 8621      20636861 
 8621      7200
 8622              	.LASF124:
 8623 05ea 72745F64 		.ascii	"rt_dlmodule_cleanup_func_t\000"
 8623      6C6D6F64 
 8623      756C655F 
 8623      636C6561 
 8623      6E75705F 
 8624              	.LASF23:
 8625 0605 655F7368 		.ascii	"e_shoff\000"
 8625      6F666600 
 8626              	.LASF1:
 8627 060d 73686F72 		.ascii	"short int\000"
 8627      7420696E 
 8627      7400
 8628              	.LASF80:
 8629 0617 66756E63 		.ascii	"functionptr\000"
 8629      74696F6E 
 8629      70747200 
 8630              	.LASF39:
 8631 0623 73685F69 		.ascii	"sh_info\000"
 8631      6E666F00 
 8632              	.LASF182:
 8633 062b 5F5F6578 		.ascii	"__exit\000"
 8633      697400
 8634              	.LASF103:
 8635 0632 666C6167 		.ascii	"flag\000"
 8635      00
 8636              	.LASF61:
 8637 0637 705F666C 		.ascii	"p_flags\000"
 8637      61677300 
 8638              	.LASF17:
 8639 063f 655F6964 		.ascii	"e_ident\000"
 8639      656E7400 
 8640              	.LASF132:
 8641 0647 7365745F 		.ascii	"set_module_buffer\000"
 8641      6D6F6475 
 8641      6C655F62 
 8641      75666665 
 8641      7200
 8642              	.LASF178:
 8643 0659 2E2E2F2E 		.ascii	"../../source/src/kernel/OS_CORE/module.c\000"
 8643      2E2F736F 
 8643      75726365 
 8643      2F737263 
 8643      2F6B6572 
ARM GAS  G:\Users\Jaxb\AppData\Local\Temp\ccRp9Rzk.s 			page 179


 8644              	.LASF82:
 8645 0682 73746163 		.ascii	"stack\000"
 8645      6B00
 8646              	.LASF105:
 8647 0688 72745F64 		.ascii	"rt_dlmodule_entry_func_t\000"
 8647      6C6D6F64 
 8647      756C655F 
 8647      656E7472 
 8647      795F6675 
 8648              	.LASF118:
 8649 06a1 6D656D5F 		.ascii	"mem_size\000"
 8649      73697A65 
 8649      00
 8650              	.LASF122:
 8651 06aa 6E73796D 		.ascii	"nsym\000"
 8651      00
 8652              	.LASF75:
 8653 06af 53544154 		.ascii	"STATE_PUT_MESSAGE_QUEUE_TIMEOUT\000"
 8653      455F5055 
 8653      545F4D45 
 8653      53534147 
 8653      455F5155 
 8654              	.LASF24:
 8655 06cf 655F666C 		.ascii	"e_flags\000"
 8655      61677300 
 8656              	.LASF113:
 8657 06d7 7265745F 		.ascii	"ret_code\000"
 8657      636F6465 
 8657      00
 8658              	.LASF45:
 8659 06e0 73745F6E 		.ascii	"st_name\000"
 8659      616D6500 
 8660              	.LASF96:
 8661 06e8 63686172 		.ascii	"char\000"
 8661      00
 8662              	.LASF92:
 8663 06ed 74696D65 		.ascii	"timeslice_hope_time\000"
 8663      736C6963 
 8663      655F686F 
 8663      70655F74 
 8663      696D6500 
 8664              	.LASF22:
 8665 0701 655F7068 		.ascii	"e_phoff\000"
 8665      6F666600 
 8666              	.LASF12:
 8667 0709 456C6633 		.ascii	"Elf32_Addr\000"
 8667      325F4164 
 8667      647200
 8668              	.LASF167:
 8669 0714 6B615F70 		.ascii	"ka_printf\000"
 8669      72696E74 
 8669      6600
 8670              	.LASF34:
 8671 071e 73685F66 		.ascii	"sh_flags\000"
 8671      6C616773 
 8671      00
 8672              	.LASF53:
ARM GAS  G:\Users\Jaxb\AppData\Local\Temp\ccRp9Rzk.s 			page 180


 8673 0727 725F696E 		.ascii	"r_info\000"
 8673      666F00
 8674              	.LASF33:
 8675 072e 73685F74 		.ascii	"sh_type\000"
 8675      79706500 
 8676              	.LASF64:
 8677 0736 6C697374 		.ascii	"list_head\000"
 8677      5F686561 
 8677      6400
 8678              	.LASF141:
 8679 0740 696E6465 		.ascii	"index\000"
 8679      7800
 8680              	.LASF171:
 8681 0746 6B615F6D 		.ascii	"ka_malloc\000"
 8681      616C6C6F 
 8681      6300
 8682              	.LASF28:
 8683 0750 655F7368 		.ascii	"e_shentsize\000"
 8683      656E7473 
 8683      697A6500 
 8684              	.LASF95:
 8685 075c 64656C61 		.ascii	"delay_reach_time\000"
 8685      795F7265 
 8685      6163685F 
 8685      74696D65 
 8685      00
 8686              	.LASF101:
 8687 076d 72745F6F 		.ascii	"rt_object\000"
 8687      626A6563 
 8687      7400
 8688              	.LASF78:
 8689 0777 53544143 		.ascii	"STACK_TYPE\000"
 8689      4B5F5459 
 8689      504500
 8690              	.LASF87:
 8691 0782 7461736B 		.ascii	"task_state\000"
 8691      5F737461 
 8691      746500
 8692              	.LASF161:
 8693 078d 6F666673 		.ascii	"offset\000"
 8693      657400
 8694              	.LASF29:
 8695 0794 655F7368 		.ascii	"e_shnum\000"
 8695      6E756D00 
 8696              	.LASF106:
 8697 079c 72745F64 		.ascii	"rt_dlmodule_init_func_t\000"
 8697      6C6D6F64 
 8697      756C655F 
 8697      696E6974 
 8697      5F66756E 
 8698              	.LASF97:
 8699 07b4 72745F62 		.ascii	"rt_bool_t\000"
 8699      6F6F6C5F 
 8699      7400
 8700              	.LASF156:
 8701 07be 6C656E67 		.ascii	"length\000"
 8701      746800
ARM GAS  G:\Users\Jaxb\AppData\Local\Temp\ccRp9Rzk.s 			page 181


 8702              	.LASF69:
 8703 07c5 53544154 		.ascii	"STATE_SUSPEND_NORMAL\000"
 8703      455F5355 
 8703      5350454E 
 8703      445F4E4F 
 8703      524D414C 
 8704              	.LASF4:
 8705 07da 55494E54 		.ascii	"UINT8\000"
 8705      3800
 8706              	.LASF179:
 8707 07e0 463A5C6B 		.ascii	"F:\\kaka\\KAKAOS\\C\\windows\\Project\\RVMDK\243\250"
 8707      616B615C 
 8707      4B414B41 
 8707      4F535C43 
 8707      5C77696E 
 8708 0808 757635A3 		.ascii	"uv5\243\251\000"
 8708      A900
 8709              	.LASF72:
 8710 080e 53544154 		.ascii	"STATE_WAIT_MESSAGE_QUEUE_FOREVER\000"
 8710      455F5741 
 8710      49545F4D 
 8710      45535341 
 8710      47455F51 
 8711              	.LASF142:
 8712 082f 726F6461 		.ascii	"rodata_addr\000"
 8712      74615F61 
 8712      64647200 
 8713              	.LASF21:
 8714 083b 655F656E 		.ascii	"e_entry\000"
 8714      74727900 
 8715              	.LASF44:
 8716 0843 656C6633 		.ascii	"elf32_sym\000"
 8716      325F7379 
 8716      6D00
 8717              	.LASF51:
 8718 084d 456C6633 		.ascii	"Elf32_Sym\000"
 8718      325F5379 
 8718      6D00
 8719              	.LASF83:
 8720 0857 73746163 		.ascii	"stack_size\000"
 8720      6B5F7369 
 8720      7A6500
 8721              	.LASF183:
 8722 0862 494E4954 		.ascii	"INIT_LIST_HEAD\000"
 8722      5F4C4953 
 8722      545F4845 
 8722      414400
 8723              	.LASF116:
 8724 0871 636D645F 		.ascii	"cmd_line\000"
 8724      6C696E65 
 8724      00
 8725              	.LASF10:
 8726 087a 55494E54 		.ascii	"UINT64\000"
 8726      363400
 8727              	.LASF133:
 8728 0881 73686F77 		.ascii	"show_get_size\000"
 8728      5F676574 
ARM GAS  G:\Users\Jaxb\AppData\Local\Temp\ccRp9Rzk.s 			page 182


 8728      5F73697A 
 8728      6500
 8729              	.LASF27:
 8730 088f 655F7068 		.ascii	"e_phnum\000"
 8730      6E756D00 
 8731              	.LASF104:
 8732 0897 6D6F6475 		.ascii	"module_id\000"
 8732      6C655F69 
 8732      6400
 8733              	.LASF52:
 8734 08a1 725F6F66 		.ascii	"r_offset\000"
 8734      66736574 
 8734      00
 8735              	.LASF157:
 8736 08aa 646C6D6F 		.ascii	"dlmodule_relocate\000"
 8736      64756C65 
 8736      5F72656C 
 8736      6F636174 
 8736      6500
 8737              	.LASF184:
 8738 08bc 6C697374 		.ascii	"list\000"
 8738      00
 8739              	.LASF36:
 8740 08c1 73685F6F 		.ascii	"sh_offset\000"
 8740      66667365 
 8740      7400
 8741              	.LASF150:
 8742 08cb 646C6D6F 		.ascii	"dlmodule_load_shared_object\000"
 8742      64756C65 
 8742      5F6C6F61 
 8742      645F7368 
 8742      61726564 
 8743              	.LASF149:
 8744 08e7 6E725F72 		.ascii	"nr_reloc\000"
 8744      656C6F63 
 8744      00
 8745              	.LASF71:
 8746 08f0 53544154 		.ascii	"STATE_WAIT_MCB_TIMEOUT\000"
 8746      455F5741 
 8746      49545F4D 
 8746      43425F54 
 8746      494D454F 
 8747              	.LASF174:
 8748 0907 6B615F6D 		.ascii	"ka_memcpy\000"
 8748      656D6370 
 8748      7900
 8749              	.LASF88:
 8750 0911 64656C61 		.ascii	"delay_heap_position\000"
 8750      795F6865 
 8750      61705F70 
 8750      6F736974 
 8750      696F6E00 
 8751              	.LASF165:
 8752 0925 646C6D6F 		.ascii	"dlmodule_symbol_find\000"
 8752      64756C65 
 8752      5F73796D 
 8752      626F6C5F 
ARM GAS  G:\Users\Jaxb\AppData\Local\Temp\ccRp9Rzk.s 			page 183


 8752      66696E64 
 8753              		.ident	"GCC: (GNU Tools for Arm Embedded Processors 7-2018-q2-update) 7.3.1 20180622 (release) [AR
ARM GAS  G:\Users\Jaxb\AppData\Local\Temp\ccRp9Rzk.s 			page 184


DEFINED SYMBOLS
                            *ABS*:00000000 module.c
G:\Users\Jaxb\AppData\Local\Temp\ccRp9Rzk.s:15     .text:00000000 $t
G:\Users\Jaxb\AppData\Local\Temp\ccRp9Rzk.s:23     .text:00000000 dlmodule_symbol_find
G:\Users\Jaxb\AppData\Local\Temp\ccRp9Rzk.s:78     .text:00000028 $d
G:\Users\Jaxb\AppData\Local\Temp\ccRp9Rzk.s:83     .text:00000030 $t
G:\Users\Jaxb\AppData\Local\Temp\ccRp9Rzk.s:91     .text:00000030 dlmodule_relocate
G:\Users\Jaxb\AppData\Local\Temp\ccRp9Rzk.s:132    .text:0000004e $d
G:\Users\Jaxb\AppData\Local\Temp\ccRp9Rzk.s:483    .text:000001f0 $d
G:\Users\Jaxb\AppData\Local\Temp\ccRp9Rzk.s:494    .text:00000210 $t
G:\Users\Jaxb\AppData\Local\Temp\ccRp9Rzk.s:502    .text:00000210 dlmodule_load_shared_object
G:\Users\Jaxb\AppData\Local\Temp\ccRp9Rzk.s:1147   .text:000005a8 $d
G:\Users\Jaxb\AppData\Local\Temp\ccRp9Rzk.s:1167   .text:000005d8 $t
G:\Users\Jaxb\AppData\Local\Temp\ccRp9Rzk.s:1260   .text:0000063c $d
G:\Users\Jaxb\AppData\Local\Temp\ccRp9Rzk.s:1270   .text:00000658 $t
G:\Users\Jaxb\AppData\Local\Temp\ccRp9Rzk.s:1278   .text:00000658 dlmodule_load_relocated_object
G:\Users\Jaxb\AppData\Local\Temp\ccRp9Rzk.s:1894   .text:000009a4 $d
G:\Users\Jaxb\AppData\Local\Temp\ccRp9Rzk.s:1911   .text:000009dc $t
G:\Users\Jaxb\AppData\Local\Temp\ccRp9Rzk.s:1960   .text:00000a24 $d
G:\Users\Jaxb\AppData\Local\Temp\ccRp9Rzk.s:1965   .text:00000a2c $t
G:\Users\Jaxb\AppData\Local\Temp\ccRp9Rzk.s:1973   .text:00000a2c dlmodule_load
G:\Users\Jaxb\AppData\Local\Temp\ccRp9Rzk.s:2174   .text:00000b1c $d
G:\Users\Jaxb\AppData\Local\Temp\ccRp9Rzk.s:2189   .text:00000b4c $t
G:\Users\Jaxb\AppData\Local\Temp\ccRp9Rzk.s:2197   .text:00000b4c dlmodule_exec
G:\Users\Jaxb\AppData\Local\Temp\ccRp9Rzk.s:2285   .text:00000ba8 $d
G:\Users\Jaxb\AppData\Local\Temp\ccRp9Rzk.s:2291   .text:00000bb4 $t
G:\Users\Jaxb\AppData\Local\Temp\ccRp9Rzk.s:2299   .text:00000bb4 put_in_module_buffer
G:\Users\Jaxb\AppData\Local\Temp\ccRp9Rzk.s:2346   .text:00000bd0 $d
G:\Users\Jaxb\AppData\Local\Temp\ccRp9Rzk.s:2351   .text:00000bd8 $t
G:\Users\Jaxb\AppData\Local\Temp\ccRp9Rzk.s:2359   .text:00000bd8 show_get_size
G:\Users\Jaxb\AppData\Local\Temp\ccRp9Rzk.s:2375   .text:00000be4 $d
G:\Users\Jaxb\AppData\Local\Temp\ccRp9Rzk.s:2380   .text:00000bec $t
G:\Users\Jaxb\AppData\Local\Temp\ccRp9Rzk.s:2388   .text:00000bec clear_module_buffer
G:\Users\Jaxb\AppData\Local\Temp\ccRp9Rzk.s:2405   .text:00000bf8 $d
G:\Users\Jaxb\AppData\Local\Temp\ccRp9Rzk.s:2409   .text:00000bfc $t
G:\Users\Jaxb\AppData\Local\Temp\ccRp9Rzk.s:2417   .text:00000bfc set_module_buffer
G:\Users\Jaxb\AppData\Local\Temp\ccRp9Rzk.s:2433   .text:00000c04 $d
G:\Users\Jaxb\AppData\Local\Temp\ccRp9Rzk.s:2438   .bss:00000000 $d
G:\Users\Jaxb\AppData\Local\Temp\ccRp9Rzk.s:2442   .bss:00000000 unsolved.4445
G:\Users\Jaxb\AppData\Local\Temp\ccRp9Rzk.s:2446   .bss:00000004 module_buffer
G:\Users\Jaxb\AppData\Local\Temp\ccRp9Rzk.s:2450   .bss:00000008 num
G:\Users\Jaxb\AppData\Local\Temp\ccRp9Rzk.s:2453   .rodata.str1.4:00000000 $d
G:\Users\Jaxb\AppData\Local\Temp\ccRp9Rzk.s:173    .text:00000077 $d
G:\Users\Jaxb\AppData\Local\Temp\ccRp9Rzk.s:173    .text:00000078 $t

UNDEFINED SYMBOLS
ka_strcmp
_rt_module_symtab_begin
_rt_module_symtab_end
ka_printf
ka_malloc
ka_memset
ka_memcpy
ka_strlen
_ASSERT
ka_strncmp
ka_free
ARM GAS  G:\Users\Jaxb\AppData\Local\Temp\ccRp9Rzk.s 			page 185


task_creat_ready
