ARM GAS  G:\Users\Jaxb\AppData\Local\Temp\ccWBP0T4.s 			page 1


   1              		.cpu cortex-m3
   2              		.eabi_attribute 20, 1
   3              		.eabi_attribute 21, 1
   4              		.eabi_attribute 23, 3
   5              		.eabi_attribute 24, 1
   6              		.eabi_attribute 25, 1
   7              		.eabi_attribute 26, 1
   8              		.eabi_attribute 30, 6
   9              		.eabi_attribute 34, 1
  10              		.eabi_attribute 18, 4
  11              		.file	"module.c"
  12              		.text
  13              	.Ltext0:
  14              		.cfi_sections	.debug_frame
  15              		.align	1
  16              		.syntax unified
  17              		.thumb
  18              		.thumb_func
  19              		.fpu softvfp
  20              		.type	INIT_LIST_HEAD, %function
  21              	INIT_LIST_HEAD:
  22              	.LFB0:
  23              		.file 1 "../../source/include/os_lib/double_linked_list.h"
   1:../../source/include/os_lib/double_linked_list.h **** #ifndef _DOUBLE_LINKED_LIST_H
   2:../../source/include/os_lib/double_linked_list.h **** #define _DOUBLE_LINKED_LIST_H
   3:../../source/include/os_lib/double_linked_list.h **** 
   4:../../source/include/os_lib/double_linked_list.h **** struct list_head {
   5:../../source/include/os_lib/double_linked_list.h ****     struct list_head *next, *prev;
   6:../../source/include/os_lib/double_linked_list.h **** };
   7:../../source/include/os_lib/double_linked_list.h **** 
   8:../../source/include/os_lib/double_linked_list.h **** 
   9:../../source/include/os_lib/double_linked_list.h **** #define LIST_HEAD_INIT(name) { &(name), &(name) }
  10:../../source/include/os_lib/double_linked_list.h **** 
  11:../../source/include/os_lib/double_linked_list.h **** 
  12:../../source/include/os_lib/double_linked_list.h **** #define LIST_HEAD(name) \
  13:../../source/include/os_lib/double_linked_list.h ****     struct list_head name = LIST_HEAD_INIT(name)
  14:../../source/include/os_lib/double_linked_list.h **** 
  15:../../source/include/os_lib/double_linked_list.h **** 
  16:../../source/include/os_lib/double_linked_list.h **** static inline void INIT_LIST_HEAD(struct list_head *list)
  17:../../source/include/os_lib/double_linked_list.h **** {
  24              		.loc 1 17 0
  25              		.cfi_startproc
  26              		@ args = 0, pretend = 0, frame = 8
  27              		@ frame_needed = 1, uses_anonymous_args = 0
  28              		@ link register save eliminated.
  29 0000 80B4     		push	{r7}
  30              	.LCFI0:
  31              		.cfi_def_cfa_offset 4
  32              		.cfi_offset 7, -4
  33 0002 83B0     		sub	sp, sp, #12
  34              	.LCFI1:
  35              		.cfi_def_cfa_offset 16
  36 0004 00AF     		add	r7, sp, #0
  37              	.LCFI2:
  38              		.cfi_def_cfa_register 7
  39 0006 7860     		str	r0, [r7, #4]
  18:../../source/include/os_lib/double_linked_list.h ****     list->next = list;
ARM GAS  G:\Users\Jaxb\AppData\Local\Temp\ccWBP0T4.s 			page 2


  40              		.loc 1 18 0
  41 0008 7B68     		ldr	r3, [r7, #4]
  42 000a 7A68     		ldr	r2, [r7, #4]
  43 000c 1A60     		str	r2, [r3]
  19:../../source/include/os_lib/double_linked_list.h ****     list->prev = list;
  44              		.loc 1 19 0
  45 000e 7B68     		ldr	r3, [r7, #4]
  46 0010 7A68     		ldr	r2, [r7, #4]
  47 0012 5A60     		str	r2, [r3, #4]
  20:../../source/include/os_lib/double_linked_list.h **** }
  48              		.loc 1 20 0
  49 0014 00BF     		nop
  50 0016 0C37     		adds	r7, r7, #12
  51              	.LCFI3:
  52              		.cfi_def_cfa_offset 4
  53 0018 BD46     		mov	sp, r7
  54              	.LCFI4:
  55              		.cfi_def_cfa_register 13
  56              		@ sp needed
  57 001a 80BC     		pop	{r7}
  58              	.LCFI5:
  59              		.cfi_restore 7
  60              		.cfi_def_cfa_offset 0
  61 001c 7047     		bx	lr
  62              		.cfi_endproc
  63              	.LFE0:
  64              		.size	INIT_LIST_HEAD, .-INIT_LIST_HEAD
  65              		.align	1
  66              		.syntax unified
  67              		.thumb
  68              		.thumb_func
  69              		.fpu softvfp
  70              		.type	__list_add, %function
  71              	__list_add:
  72              	.LFB1:
  21:../../source/include/os_lib/double_linked_list.h **** 
  22:../../source/include/os_lib/double_linked_list.h **** 
  23:../../source/include/os_lib/double_linked_list.h **** static inline void __list_add(struct list_head *new,
  24:../../source/include/os_lib/double_linked_list.h ****                   struct list_head *prev,
  25:../../source/include/os_lib/double_linked_list.h ****                   struct list_head *next)
  26:../../source/include/os_lib/double_linked_list.h **** {
  73              		.loc 1 26 0
  74              		.cfi_startproc
  75              		@ args = 0, pretend = 0, frame = 16
  76              		@ frame_needed = 1, uses_anonymous_args = 0
  77              		@ link register save eliminated.
  78 001e 80B4     		push	{r7}
  79              	.LCFI6:
  80              		.cfi_def_cfa_offset 4
  81              		.cfi_offset 7, -4
  82 0020 85B0     		sub	sp, sp, #20
  83              	.LCFI7:
  84              		.cfi_def_cfa_offset 24
  85 0022 00AF     		add	r7, sp, #0
  86              	.LCFI8:
  87              		.cfi_def_cfa_register 7
  88 0024 F860     		str	r0, [r7, #12]
ARM GAS  G:\Users\Jaxb\AppData\Local\Temp\ccWBP0T4.s 			page 3


  89 0026 B960     		str	r1, [r7, #8]
  90 0028 7A60     		str	r2, [r7, #4]
  27:../../source/include/os_lib/double_linked_list.h ****     next->prev = new;
  91              		.loc 1 27 0
  92 002a 7B68     		ldr	r3, [r7, #4]
  93 002c FA68     		ldr	r2, [r7, #12]
  94 002e 5A60     		str	r2, [r3, #4]
  28:../../source/include/os_lib/double_linked_list.h ****     new->next = next;
  95              		.loc 1 28 0
  96 0030 FB68     		ldr	r3, [r7, #12]
  97 0032 7A68     		ldr	r2, [r7, #4]
  98 0034 1A60     		str	r2, [r3]
  29:../../source/include/os_lib/double_linked_list.h ****     new->prev = prev;
  99              		.loc 1 29 0
 100 0036 FB68     		ldr	r3, [r7, #12]
 101 0038 BA68     		ldr	r2, [r7, #8]
 102 003a 5A60     		str	r2, [r3, #4]
  30:../../source/include/os_lib/double_linked_list.h ****     prev->next = new;
 103              		.loc 1 30 0
 104 003c BB68     		ldr	r3, [r7, #8]
 105 003e FA68     		ldr	r2, [r7, #12]
 106 0040 1A60     		str	r2, [r3]
  31:../../source/include/os_lib/double_linked_list.h **** }
 107              		.loc 1 31 0
 108 0042 00BF     		nop
 109 0044 1437     		adds	r7, r7, #20
 110              	.LCFI9:
 111              		.cfi_def_cfa_offset 4
 112 0046 BD46     		mov	sp, r7
 113              	.LCFI10:
 114              		.cfi_def_cfa_register 13
 115              		@ sp needed
 116 0048 80BC     		pop	{r7}
 117              	.LCFI11:
 118              		.cfi_restore 7
 119              		.cfi_def_cfa_offset 0
 120 004a 7047     		bx	lr
 121              		.cfi_endproc
 122              	.LFE1:
 123              		.size	__list_add, .-__list_add
 124              		.align	1
 125              		.syntax unified
 126              		.thumb
 127              		.thumb_func
 128              		.fpu softvfp
 129              		.type	list_add, %function
 130              	list_add:
 131              	.LFB2:
  32:../../source/include/os_lib/double_linked_list.h **** 
  33:../../source/include/os_lib/double_linked_list.h **** 
  34:../../source/include/os_lib/double_linked_list.h **** static inline void list_add(struct list_head *new, struct list_head *head)
  35:../../source/include/os_lib/double_linked_list.h **** {
 132              		.loc 1 35 0
 133              		.cfi_startproc
 134              		@ args = 0, pretend = 0, frame = 8
 135              		@ frame_needed = 1, uses_anonymous_args = 0
 136 004c 80B5     		push	{r7, lr}
ARM GAS  G:\Users\Jaxb\AppData\Local\Temp\ccWBP0T4.s 			page 4


 137              	.LCFI12:
 138              		.cfi_def_cfa_offset 8
 139              		.cfi_offset 7, -8
 140              		.cfi_offset 14, -4
 141 004e 82B0     		sub	sp, sp, #8
 142              	.LCFI13:
 143              		.cfi_def_cfa_offset 16
 144 0050 00AF     		add	r7, sp, #0
 145              	.LCFI14:
 146              		.cfi_def_cfa_register 7
 147 0052 7860     		str	r0, [r7, #4]
 148 0054 3960     		str	r1, [r7]
  36:../../source/include/os_lib/double_linked_list.h ****     __list_add(new, head, head->next);
 149              		.loc 1 36 0
 150 0056 3B68     		ldr	r3, [r7]
 151 0058 1B68     		ldr	r3, [r3]
 152 005a 1A46     		mov	r2, r3
 153 005c 3968     		ldr	r1, [r7]
 154 005e 7868     		ldr	r0, [r7, #4]
 155 0060 FFF7DDFF 		bl	__list_add
  37:../../source/include/os_lib/double_linked_list.h **** }
 156              		.loc 1 37 0
 157 0064 00BF     		nop
 158 0066 0837     		adds	r7, r7, #8
 159              	.LCFI15:
 160              		.cfi_def_cfa_offset 8
 161 0068 BD46     		mov	sp, r7
 162              	.LCFI16:
 163              		.cfi_def_cfa_register 13
 164              		@ sp needed
 165 006a 80BD     		pop	{r7, pc}
 166              		.cfi_endproc
 167              	.LFE2:
 168              		.size	list_add, .-list_add
 169              		.align	1
 170              		.syntax unified
 171              		.thumb
 172              		.thumb_func
 173              		.fpu softvfp
 174              		.type	__list_del, %function
 175              	__list_del:
 176              	.LFB4:
  38:../../source/include/os_lib/double_linked_list.h **** 
  39:../../source/include/os_lib/double_linked_list.h **** 
  40:../../source/include/os_lib/double_linked_list.h **** static inline void list_add_tail(struct list_head *new, struct list_head *head)
  41:../../source/include/os_lib/double_linked_list.h **** {
  42:../../source/include/os_lib/double_linked_list.h ****     __list_add(new, head->prev, head);
  43:../../source/include/os_lib/double_linked_list.h **** }
  44:../../source/include/os_lib/double_linked_list.h **** 
  45:../../source/include/os_lib/double_linked_list.h **** 
  46:../../source/include/os_lib/double_linked_list.h **** static inline void __list_del(struct list_head * prev, struct list_head * next)
  47:../../source/include/os_lib/double_linked_list.h **** {
 177              		.loc 1 47 0
 178              		.cfi_startproc
 179              		@ args = 0, pretend = 0, frame = 8
 180              		@ frame_needed = 1, uses_anonymous_args = 0
 181              		@ link register save eliminated.
ARM GAS  G:\Users\Jaxb\AppData\Local\Temp\ccWBP0T4.s 			page 5


 182 006c 80B4     		push	{r7}
 183              	.LCFI17:
 184              		.cfi_def_cfa_offset 4
 185              		.cfi_offset 7, -4
 186 006e 83B0     		sub	sp, sp, #12
 187              	.LCFI18:
 188              		.cfi_def_cfa_offset 16
 189 0070 00AF     		add	r7, sp, #0
 190              	.LCFI19:
 191              		.cfi_def_cfa_register 7
 192 0072 7860     		str	r0, [r7, #4]
 193 0074 3960     		str	r1, [r7]
  48:../../source/include/os_lib/double_linked_list.h ****     next->prev = prev;
 194              		.loc 1 48 0
 195 0076 3B68     		ldr	r3, [r7]
 196 0078 7A68     		ldr	r2, [r7, #4]
 197 007a 5A60     		str	r2, [r3, #4]
  49:../../source/include/os_lib/double_linked_list.h ****     prev->next = next;
 198              		.loc 1 49 0
 199 007c 7B68     		ldr	r3, [r7, #4]
 200 007e 3A68     		ldr	r2, [r7]
 201 0080 1A60     		str	r2, [r3]
  50:../../source/include/os_lib/double_linked_list.h **** }
 202              		.loc 1 50 0
 203 0082 00BF     		nop
 204 0084 0C37     		adds	r7, r7, #12
 205              	.LCFI20:
 206              		.cfi_def_cfa_offset 4
 207 0086 BD46     		mov	sp, r7
 208              	.LCFI21:
 209              		.cfi_def_cfa_register 13
 210              		@ sp needed
 211 0088 80BC     		pop	{r7}
 212              	.LCFI22:
 213              		.cfi_restore 7
 214              		.cfi_def_cfa_offset 0
 215 008a 7047     		bx	lr
 216              		.cfi_endproc
 217              	.LFE4:
 218              		.size	__list_del, .-__list_del
 219              		.align	1
 220              		.syntax unified
 221              		.thumb
 222              		.thumb_func
 223              		.fpu softvfp
 224              		.type	list_del, %function
 225              	list_del:
 226              	.LFB5:
  51:../../source/include/os_lib/double_linked_list.h **** 
  52:../../source/include/os_lib/double_linked_list.h **** 
  53:../../source/include/os_lib/double_linked_list.h **** static inline void list_del(struct list_head *entry)
  54:../../source/include/os_lib/double_linked_list.h **** {
 227              		.loc 1 54 0
 228              		.cfi_startproc
 229              		@ args = 0, pretend = 0, frame = 8
 230              		@ frame_needed = 1, uses_anonymous_args = 0
 231 008c 80B5     		push	{r7, lr}
ARM GAS  G:\Users\Jaxb\AppData\Local\Temp\ccWBP0T4.s 			page 6


 232              	.LCFI23:
 233              		.cfi_def_cfa_offset 8
 234              		.cfi_offset 7, -8
 235              		.cfi_offset 14, -4
 236 008e 82B0     		sub	sp, sp, #8
 237              	.LCFI24:
 238              		.cfi_def_cfa_offset 16
 239 0090 00AF     		add	r7, sp, #0
 240              	.LCFI25:
 241              		.cfi_def_cfa_register 7
 242 0092 7860     		str	r0, [r7, #4]
  55:../../source/include/os_lib/double_linked_list.h ****     __list_del(entry->prev, entry->next);
 243              		.loc 1 55 0
 244 0094 7B68     		ldr	r3, [r7, #4]
 245 0096 5A68     		ldr	r2, [r3, #4]
 246 0098 7B68     		ldr	r3, [r7, #4]
 247 009a 1B68     		ldr	r3, [r3]
 248 009c 1946     		mov	r1, r3
 249 009e 1046     		mov	r0, r2
 250 00a0 FFF7E4FF 		bl	__list_del
  56:../../source/include/os_lib/double_linked_list.h **** }
 251              		.loc 1 56 0
 252 00a4 00BF     		nop
 253 00a6 0837     		adds	r7, r7, #8
 254              	.LCFI26:
 255              		.cfi_def_cfa_offset 8
 256 00a8 BD46     		mov	sp, r7
 257              	.LCFI27:
 258              		.cfi_def_cfa_register 13
 259              		@ sp needed
 260 00aa 80BD     		pop	{r7, pc}
 261              		.cfi_endproc
 262              	.LFE5:
 263              		.size	list_del, .-list_del
 264              		.align	1
 265              		.syntax unified
 266              		.thumb
 267              		.thumb_func
 268              		.fpu softvfp
 269              		.type	list_empty, %function
 270              	list_empty:
 271              	.LFB9:
  57:../../source/include/os_lib/double_linked_list.h **** 
  58:../../source/include/os_lib/double_linked_list.h **** 
  59:../../source/include/os_lib/double_linked_list.h **** static inline void __list_del_entry(struct list_head *entry)
  60:../../source/include/os_lib/double_linked_list.h **** {
  61:../../source/include/os_lib/double_linked_list.h ****     __list_del(entry->prev, entry->next);
  62:../../source/include/os_lib/double_linked_list.h **** }
  63:../../source/include/os_lib/double_linked_list.h **** 
  64:../../source/include/os_lib/double_linked_list.h **** 
  65:../../source/include/os_lib/double_linked_list.h **** static inline void list_del_init(struct list_head *entry)
  66:../../source/include/os_lib/double_linked_list.h **** {
  67:../../source/include/os_lib/double_linked_list.h ****     __list_del_entry(entry);
  68:../../source/include/os_lib/double_linked_list.h ****     INIT_LIST_HEAD(entry);
  69:../../source/include/os_lib/double_linked_list.h **** }
  70:../../source/include/os_lib/double_linked_list.h **** 
  71:../../source/include/os_lib/double_linked_list.h **** 
ARM GAS  G:\Users\Jaxb\AppData\Local\Temp\ccWBP0T4.s 			page 7


  72:../../source/include/os_lib/double_linked_list.h **** static inline void list_replace(struct list_head *old,
  73:../../source/include/os_lib/double_linked_list.h ****                 struct list_head *new)
  74:../../source/include/os_lib/double_linked_list.h **** {
  75:../../source/include/os_lib/double_linked_list.h ****     new->next = old->next;
  76:../../source/include/os_lib/double_linked_list.h ****     new->next->prev = new;
  77:../../source/include/os_lib/double_linked_list.h ****     new->prev = old->prev;
  78:../../source/include/os_lib/double_linked_list.h ****     new->prev->next = new;
  79:../../source/include/os_lib/double_linked_list.h **** }
  80:../../source/include/os_lib/double_linked_list.h **** 
  81:../../source/include/os_lib/double_linked_list.h **** 
  82:../../source/include/os_lib/double_linked_list.h **** static inline int list_empty(const struct list_head *head)
  83:../../source/include/os_lib/double_linked_list.h **** {
 272              		.loc 1 83 0
 273              		.cfi_startproc
 274              		@ args = 0, pretend = 0, frame = 8
 275              		@ frame_needed = 1, uses_anonymous_args = 0
 276              		@ link register save eliminated.
 277 00ac 80B4     		push	{r7}
 278              	.LCFI28:
 279              		.cfi_def_cfa_offset 4
 280              		.cfi_offset 7, -4
 281 00ae 83B0     		sub	sp, sp, #12
 282              	.LCFI29:
 283              		.cfi_def_cfa_offset 16
 284 00b0 00AF     		add	r7, sp, #0
 285              	.LCFI30:
 286              		.cfi_def_cfa_register 7
 287 00b2 7860     		str	r0, [r7, #4]
  84:../../source/include/os_lib/double_linked_list.h ****     return head->next == head;
 288              		.loc 1 84 0
 289 00b4 7B68     		ldr	r3, [r7, #4]
 290 00b6 1B68     		ldr	r3, [r3]
 291 00b8 7A68     		ldr	r2, [r7, #4]
 292 00ba 9A42     		cmp	r2, r3
 293 00bc 0CBF     		ite	eq
 294 00be 0123     		moveq	r3, #1
 295 00c0 0023     		movne	r3, #0
 296 00c2 DBB2     		uxtb	r3, r3
  85:../../source/include/os_lib/double_linked_list.h **** }
 297              		.loc 1 85 0
 298 00c4 1846     		mov	r0, r3
 299 00c6 0C37     		adds	r7, r7, #12
 300              	.LCFI31:
 301              		.cfi_def_cfa_offset 4
 302 00c8 BD46     		mov	sp, r7
 303              	.LCFI32:
 304              		.cfi_def_cfa_register 13
 305              		@ sp needed
 306 00ca 80BC     		pop	{r7}
 307              	.LCFI33:
 308              		.cfi_restore 7
 309              		.cfi_def_cfa_offset 0
 310 00cc 7047     		bx	lr
 311              		.cfi_endproc
 312              	.LFE9:
 313              		.size	list_empty, .-list_empty
 314              		.align	1
ARM GAS  G:\Users\Jaxb\AppData\Local\Temp\ccWBP0T4.s 			page 8


 315              		.syntax unified
 316              		.thumb
 317              		.thumb_func
 318              		.fpu softvfp
 319              		.type	set_tcb_module, %function
 320              	set_tcb_module:
 321              	.LFB10:
 322              		.file 2 "../../source/include/os_core/TCB.h"
   1:../../source/include/os_core/TCB.h **** #ifndef _TCB_H
   2:../../source/include/os_core/TCB.h **** #define _TCB_H
   3:../../source/include/os_core/TCB.h **** 
   4:../../source/include/os_core/TCB.h **** #include <kakaosstdint.h>
   5:../../source/include/os_core/TCB.h **** #include <double_linked_list.h>
   6:../../source/include/os_core/TCB.h **** #include <task_state.h>
   7:../../source/include/os_core/TCB.h **** #include <os_error.h>
   8:../../source/include/os_core/TCB.h **** #include <os_cpu.h>
   9:../../source/include/os_core/TCB.h **** 
  10:../../source/include/os_core/TCB.h **** typedef  unsigned  int         STACK_TYPE;
  11:../../source/include/os_core/TCB.h **** 
  12:../../source/include/os_core/TCB.h **** typedef  unsigned  int         TASK_PRIO_TYPE;
  13:../../source/include/os_core/TCB.h **** typedef  void                  (*functionptr)(void *para);
  14:../../source/include/os_core/TCB.h **** 
  15:../../source/include/os_core/TCB.h **** #define SYS_ENTER_INTERRUPT()  do { CPU_IntDis();++g_interrupt_count;CPU_IntEn();} while (0)
  16:../../source/include/os_core/TCB.h **** #define SYS_EXIT_INTERRUPT()   do { CPU_IntDis();--g_interrupt_count;CPU_IntEn();} while (0)
  17:../../source/include/os_core/TCB.h **** #define task_change_prio_self(prio)	task_change_prio((TCB *)OSTCBCurPtr,(prio))
  18:../../source/include/os_core/TCB.h **** 
  19:../../source/include/os_core/TCB.h **** extern volatile int g_interrupt_count;
  20:../../source/include/os_core/TCB.h **** 
  21:../../source/include/os_core/TCB.h **** #define PRIO_MAX 64
  22:../../source/include/os_core/TCB.h **** 
  23:../../source/include/os_core/TCB.h **** #define ERROR_ALLOCATE_STACK 1 
  24:../../source/include/os_core/TCB.h **** 
  25:../../source/include/os_core/TCB.h **** #define RESERVED_PRIO	0
  26:../../source/include/os_core/TCB.h **** 
  27:../../source/include/os_core/TCB.h **** /**** attribution macro ****/
  28:../../source/include/os_core/TCB.h **** #define DEFAULT_ATTRIBUTION 	0
  29:../../source/include/os_core/TCB.h **** /**** bit 0 ****/
  30:../../source/include/os_core/TCB.h **** //identify the struct TCB is created or init
  31:../../source/include/os_core/TCB.h **** #define TCB_ATTRIBUTION_INIT 				(0X00<<0)
  32:../../source/include/os_core/TCB.h **** #define TCB_ATTRIBUTION_CREATE 				(0X01<<0)
  33:../../source/include/os_core/TCB.h **** #define TCB_IS_CREATED(TCB_ptr) 			((TCB_ptr)->attribution & TCB_ATTRIBUTION_CREATE)
  34:../../source/include/os_core/TCB.h **** /**** bit 1 ****/			
  35:../../source/include/os_core/TCB.h **** #define TCB_ATTRIBUTION_OK					(0X00<<1)
  36:../../source/include/os_core/TCB.h **** #define TCB_ATTRIBUTION_BAD					(0X01<<1)
  37:../../source/include/os_core/TCB.h **** #define TCB_state_is_bad(TCB_ptr)			((TCB_ptr)->attribution & TCB_ATTRIBUTION_BAD)
  38:../../source/include/os_core/TCB.h **** #define clear_bad_state(TCB_ptr)			((TCB_ptr)->attribution &= ~TCB_ATTRIBUTION_BAD)
  39:../../source/include/os_core/TCB.h **** #define set_bad_state(TCB_ptr)				((TCB_ptr)->attribution |= TCB_ATTRIBUTION_BAD)
  40:../../source/include/os_core/TCB.h **** /**** bit 2 ****/	
  41:../../source/include/os_core/TCB.h **** #define TCB_ATTRIBUTION_NO_NEED_RESCHEDULED (0X00<<2)
  42:../../source/include/os_core/TCB.h **** #define TCB_ATTRIBUTION_NEED_RESCHEDULED 	(0X01<<2)
  43:../../source/include/os_core/TCB.h **** #define need_rescheduled()					(OSTCBCurPtr->attribution & TCB_ATTRIBUTION_NEED_RESCHEDULED)
  44:../../source/include/os_core/TCB.h **** #define clear_rescheduled_flag()			(OSTCBCurPtr->attribution &= ~TCB_ATTRIBUTION_NEED_RESCHEDULED)
  45:../../source/include/os_core/TCB.h **** #define set_rescheduled_flag()				(OSTCBCurPtr->attribution |= TCB_ATTRIBUTION_NEED_RESCHEDULED)
  46:../../source/include/os_core/TCB.h **** /**** bit 3 ****/	
  47:../../source/include/os_core/TCB.h **** #define TCB_ATTRIBUTION_IS_NOT_MODULE 		(0X00<<3)
  48:../../source/include/os_core/TCB.h **** #define TCB_ATTRIBUTION_IS_DYNAMIC_MODULE 	(0X01<<3)
  49:../../source/include/os_core/TCB.h **** #define is_module(TCB_ptr)					((TCB_ptr)->attribution & TCB_ATTRIBUTION_IS_DYNAMIC_MODULE)
ARM GAS  G:\Users\Jaxb\AppData\Local\Temp\ccWBP0T4.s 			page 9


  50:../../source/include/os_core/TCB.h **** #define set_module_flag(TCB_ptr)			((TCB_ptr)->attribution |= TCB_ATTRIBUTION_IS_DYNAMIC_MODULE)
  51:../../source/include/os_core/TCB.h **** #define clear_module_flag(TCB_ptr)			((TCB_ptr)->attribution &= ~TCB_ATTRIBUTION_IS_DYNAMIC_MODULE)
  52:../../source/include/os_core/TCB.h **** /****end of attribution macro ****/
  53:../../source/include/os_core/TCB.h **** 
  54:../../source/include/os_core/TCB.h **** struct dynamic_module; //a declaration
  55:../../source/include/os_core/TCB.h **** typedef struct task_control_block_struct{
  56:../../source/include/os_core/TCB.h **** 	STACK_TYPE *stack; 						/*the stack top of the task*/
  57:../../source/include/os_core/TCB.h **** 	unsigned int stack_size;				/*bytes*/
  58:../../source/include/os_core/TCB.h **** 	STACK_TYPE *stack_end; 					/*the stack tail of the task*/
  59:../../source/include/os_core/TCB.h **** 	TASK_PRIO_TYPE reserve_prio;			/*used for Priority inversion problem*/
  60:../../source/include/os_core/TCB.h **** 	TASK_STATE task_state;					/*priority 0-PRIO_MAX-1*/
  61:../../source/include/os_core/TCB.h **** 	TASK_PRIO_TYPE prio;
  62:../../source/include/os_core/TCB.h **** 	int delay_heap_position;
  63:../../source/include/os_core/TCB.h **** 	struct list_head same_prio_list;
  64:../../source/include/os_core/TCB.h **** 	struct list_head suspend_list;
  65:../../source/include/os_core/TCB.h **** 	char *name;
  66:../../source/include/os_core/TCB.h **** 	unsigned int timeslice_hope_time;
  67:../../source/include/os_core/TCB.h **** 	unsigned int timeslice_rest_time;
  68:../../source/include/os_core/TCB.h **** 	UINT32 attribution;							/*each bit of this element present an attribution*/
  69:../../source/include/os_core/TCB.h **** 	struct dynamic_module *dynamic_module_ptr;	/* the related dynamic module*/
  70:../../source/include/os_core/TCB.h **** 	UINT64 delay_reach_time; 					/* use when task is delayed*/
  71:../../source/include/os_core/TCB.h **** }TCB;
  72:../../source/include/os_core/TCB.h **** 
  73:../../source/include/os_core/TCB.h **** /*To creat a task, use one of the two following function */
  74:../../source/include/os_core/TCB.h **** TCB * _must_check _task_creat(
  75:../../source/include/os_core/TCB.h **** 	unsigned int stack_size,
  76:../../source/include/os_core/TCB.h **** 	TASK_PRIO_TYPE prio,
  77:../../source/include/os_core/TCB.h **** 	unsigned int timeslice_hope_time,
  78:../../source/include/os_core/TCB.h **** 	const char *name,
  79:../../source/include/os_core/TCB.h **** 	functionptr function,
  80:../../source/include/os_core/TCB.h **** 	void *para,
  81:../../source/include/os_core/TCB.h **** 	TASK_STATE state);/*this function use malloc to creat room for TCB*/
  82:../../source/include/os_core/TCB.h **** 
  83:../../source/include/os_core/TCB.h **** int _must_check _task_init(
  84:../../source/include/os_core/TCB.h **** 	TCB *TCB_ptr,
  85:../../source/include/os_core/TCB.h **** 	unsigned int stack_size,
  86:../../source/include/os_core/TCB.h **** 	TASK_PRIO_TYPE prio,
  87:../../source/include/os_core/TCB.h **** 	unsigned int timeslice_hope_time,
  88:../../source/include/os_core/TCB.h **** 	const char *name,
  89:../../source/include/os_core/TCB.h **** 	functionptr function,
  90:../../source/include/os_core/TCB.h **** 	void *para,
  91:../../source/include/os_core/TCB.h **** 	TASK_STATE state);
  92:../../source/include/os_core/TCB.h **** 
  93:../../source/include/os_core/TCB.h **** int _task_change_prio(TCB *TCB_ptr,TASK_PRIO_TYPE prio);
  94:../../source/include/os_core/TCB.h **** int task_change_prio(TCB *TCB_ptr,TASK_PRIO_TYPE prio);
  95:../../source/include/os_core/TCB.h **** int _task_delete(TCB *TCB_ptr);
  96:../../source/include/os_core/TCB.h **** int task_delete(TCB *TCB_ptr);
  97:../../source/include/os_core/TCB.h **** 
  98:../../source/include/os_core/TCB.h **** static inline void set_tcb_module(TCB *TCB_ptr,struct dynamic_module *mod_ptr)
  99:../../source/include/os_core/TCB.h **** {
 323              		.loc 2 99 0
 324              		.cfi_startproc
 325              		@ args = 0, pretend = 0, frame = 8
 326              		@ frame_needed = 1, uses_anonymous_args = 0
 327              		@ link register save eliminated.
 328 00ce 80B4     		push	{r7}
 329              	.LCFI34:
ARM GAS  G:\Users\Jaxb\AppData\Local\Temp\ccWBP0T4.s 			page 10


 330              		.cfi_def_cfa_offset 4
 331              		.cfi_offset 7, -4
 332 00d0 83B0     		sub	sp, sp, #12
 333              	.LCFI35:
 334              		.cfi_def_cfa_offset 16
 335 00d2 00AF     		add	r7, sp, #0
 336              	.LCFI36:
 337              		.cfi_def_cfa_register 7
 338 00d4 7860     		str	r0, [r7, #4]
 339 00d6 3960     		str	r1, [r7]
 100:../../source/include/os_core/TCB.h **** 	TCB_ptr->dynamic_module_ptr = mod_ptr;
 340              		.loc 2 100 0
 341 00d8 7B68     		ldr	r3, [r7, #4]
 342 00da 3A68     		ldr	r2, [r7]
 343 00dc DA63     		str	r2, [r3, #60]
 101:../../source/include/os_core/TCB.h **** }
 344              		.loc 2 101 0
 345 00de 00BF     		nop
 346 00e0 0C37     		adds	r7, r7, #12
 347              	.LCFI37:
 348              		.cfi_def_cfa_offset 4
 349 00e2 BD46     		mov	sp, r7
 350              	.LCFI38:
 351              		.cfi_def_cfa_register 13
 352              		@ sp needed
 353 00e4 80BC     		pop	{r7}
 354              	.LCFI39:
 355              		.cfi_restore 7
 356              		.cfi_def_cfa_offset 0
 357 00e6 7047     		bx	lr
 358              		.cfi_endproc
 359              	.LFE10:
 360              		.size	set_tcb_module, .-set_tcb_module
 361              		.align	1
 362              		.syntax unified
 363              		.thumb
 364              		.thumb_func
 365              		.fpu softvfp
 366              		.type	set_module_state, %function
 367              	set_module_state:
 368              	.LFB11:
 369              		.file 3 "../../source/include/os_core/module.h"
   1:../../source/include/os_core/module.h **** #ifndef _MODULE_H
   2:../../source/include/os_core/module.h **** #define _MODULE_H
   3:../../source/include/os_core/module.h **** 
   4:../../source/include/os_core/module.h **** #include <double_linked_list.h>
   5:../../source/include/os_core/module.h **** #include <TCB.h>
   6:../../source/include/os_core/module.h **** #include <kakaosstdint.h>
   7:../../source/include/os_core/module.h **** #include <export.h>
   8:../../source/include/os_core/module.h **** 
   9:../../source/include/os_core/module.h **** #define RT_DLMODULE_STAT_INIT       0x00
  10:../../source/include/os_core/module.h **** #define RT_DLMODULE_STAT_RUNNING    0x01
  11:../../source/include/os_core/module.h **** #define RT_DLMODULE_STAT_CLOSING    0x02
  12:../../source/include/os_core/module.h **** #define RT_DLMODULE_STAT_CLOSED     0x03
  13:../../source/include/os_core/module.h **** 
  14:../../source/include/os_core/module.h **** #define D_MODULE_NAME_MAX               32
  15:../../source/include/os_core/module.h **** #define D_MODULE_DEFAULT_NAME           "dynamicmodule"
ARM GAS  G:\Users\Jaxb\AppData\Local\Temp\ccWBP0T4.s 			page 11


  16:../../source/include/os_core/module.h **** #define D_MODULE_DEFAULT_PRIO           (PRIO_MAX-2)
  17:../../source/include/os_core/module.h **** #define D_MODULE_DEFAULT_STACK_SIZE     2048
  18:../../source/include/os_core/module.h **** 
  19:../../source/include/os_core/module.h **** #define module_init(initfn)                 \
  20:../../source/include/os_core/module.h ****     int init_module(void) __attribute__((alias(#initfn)))
  21:../../source/include/os_core/module.h ****     
  22:../../source/include/os_core/module.h **** #define module_exit(initfn)                 \
  23:../../source/include/os_core/module.h ****     int exit_module(void) __attribute__((alias(#initfn)))
  24:../../source/include/os_core/module.h **** 
  25:../../source/include/os_core/module.h **** /*===================*/
  26:../../source/include/os_core/module.h **** /*module state*/
  27:../../source/include/os_core/module.h **** 
  28:../../source/include/os_core/module.h **** #define MODULE_STATE_DEFAULT    0x00
  29:../../source/include/os_core/module.h **** #define MODULE_STATE_INIT       MODULE_STATE_DEFAULT
  30:../../source/include/os_core/module.h **** #define MODULE_STATE_LOADED     0x01
  31:../../source/include/os_core/module.h **** #define MODULE_STATE_RUN        0x02
  32:../../source/include/os_core/module.h **** /*======================================================*/
  33:../../source/include/os_core/module.h **** 
  34:../../source/include/os_core/module.h **** struct dynamic_module
  35:../../source/include/os_core/module.h **** {
  36:../../source/include/os_core/module.h ****     char name[D_MODULE_NAME_MAX];
  37:../../source/include/os_core/module.h ****     struct list_head module_list;   /*link all modules*/
  38:../../source/include/os_core/module.h ****     UINT32 module_state;
  39:../../source/include/os_core/module.h ****     int (*init)(void);              /*this function will be called before module execute*/
  40:../../source/include/os_core/module.h ****     void (*exit)(void);             /*this function will be called after module return */
  41:../../source/include/os_core/module.h ****     void *module_space;
  42:../../source/include/os_core/module.h ****     unsigned int module_size;       /*the room size that module finally use*/
  43:../../source/include/os_core/module.h ****     void *init_space;               /* not use*/
  44:../../source/include/os_core/module.h ****     void *entry;                    /*module entry point*/
  45:../../source/include/os_core/module.h ****     UINT32 vstart_addr;             /*VMA base address for the first LOAD segment*/
  46:../../source/include/os_core/module.h ****     struct ka_module_symtab *export_symbols_array;
  47:../../source/include/os_core/module.h ****     unsigned int export_symbols_num;
  48:../../source/include/os_core/module.h ****     unsigned int ref;
  49:../../source/include/os_core/module.h ****     TCB *thread_TCB_ptr;
  50:../../source/include/os_core/module.h **** };
  51:../../source/include/os_core/module.h **** 
  52:../../source/include/os_core/module.h **** typedef struct dynamic_module d_module;
  53:../../source/include/os_core/module.h **** 
  54:../../source/include/os_core/module.h **** static inline void set_module_state(struct dynamic_module *dynamic_module_ptr,UINT32 state)
  55:../../source/include/os_core/module.h **** {
 370              		.loc 3 55 0
 371              		.cfi_startproc
 372              		@ args = 0, pretend = 0, frame = 8
 373              		@ frame_needed = 1, uses_anonymous_args = 0
 374              		@ link register save eliminated.
 375 00e8 80B4     		push	{r7}
 376              	.LCFI40:
 377              		.cfi_def_cfa_offset 4
 378              		.cfi_offset 7, -4
 379 00ea 83B0     		sub	sp, sp, #12
 380              	.LCFI41:
 381              		.cfi_def_cfa_offset 16
 382 00ec 00AF     		add	r7, sp, #0
 383              	.LCFI42:
 384              		.cfi_def_cfa_register 7
 385 00ee 7860     		str	r0, [r7, #4]
 386 00f0 3960     		str	r1, [r7]
ARM GAS  G:\Users\Jaxb\AppData\Local\Temp\ccWBP0T4.s 			page 12


  56:../../source/include/os_core/module.h ****     dynamic_module_ptr->module_state = state;
 387              		.loc 3 56 0
 388 00f2 7B68     		ldr	r3, [r7, #4]
 389 00f4 3A68     		ldr	r2, [r7]
 390 00f6 9A62     		str	r2, [r3, #40]
  57:../../source/include/os_core/module.h **** }
 391              		.loc 3 57 0
 392 00f8 00BF     		nop
 393 00fa 0C37     		adds	r7, r7, #12
 394              	.LCFI43:
 395              		.cfi_def_cfa_offset 4
 396 00fc BD46     		mov	sp, r7
 397              	.LCFI44:
 398              		.cfi_def_cfa_register 13
 399              		@ sp needed
 400 00fe 80BC     		pop	{r7}
 401              	.LCFI45:
 402              		.cfi_restore 7
 403              		.cfi_def_cfa_offset 0
 404 0100 7047     		bx	lr
 405              		.cfi_endproc
 406              	.LFE11:
 407              		.size	set_module_state, .-set_module_state
 408              		.bss
 409              		.align	2
 410              	module_buffer:
 411 0000 00000000 		.space	4
 412              		.size	module_buffer, 4
 413              		.align	2
 414              	num:
 415 0004 00000000 		.space	4
 416              		.size	num, 4
 417              		.align	2
 418              	module_list_head:
 419 0008 00000000 		.space	8
 419      00000000 
 420              		.size	module_list_head, 8
 421              		.text
 422              		.align	1
 423              		.global	__init_module
 424              		.syntax unified
 425              		.thumb
 426              		.thumb_func
 427              		.fpu softvfp
 428              		.type	__init_module, %function
 429              	__init_module:
 430              	.LFB12:
 431              		.file 4 "../../source/src/kernel/OS_CORE/module.c"
   1:../../source/src/kernel/OS_CORE/module.c **** #include <elf.h>
   2:../../source/src/kernel/OS_CORE/module.c **** #include <module.h>
   3:../../source/src/kernel/OS_CORE/module.c **** #include <myMicroLIB.h>
   4:../../source/src/kernel/OS_CORE/module.c **** #include <osinit.h>
   5:../../source/src/kernel/OS_CORE/module.c **** #include <os_schedule.h>
   6:../../source/src/kernel/OS_CORE/module.c **** #include <myassert.h>
   7:../../source/src/kernel/OS_CORE/module.c **** #include <export.h>
   8:../../source/src/kernel/OS_CORE/module.c **** #include <printf_debug.h>
   9:../../source/src/kernel/OS_CORE/module.c **** #include <shell.h>
ARM GAS  G:\Users\Jaxb\AppData\Local\Temp\ccWBP0T4.s 			page 13


  10:../../source/src/kernel/OS_CORE/module.c **** #include <os_cpu.h>
  11:../../source/src/kernel/OS_CORE/module.c **** 
  12:../../source/src/kernel/OS_CORE/module.c **** #if CONFIG_MODULE
  13:../../source/src/kernel/OS_CORE/module.c **** 
  14:../../source/src/kernel/OS_CORE/module.c **** #define elf_module        ((Elf32_Ehdr *)module_ptr)
  15:../../source/src/kernel/OS_CORE/module.c **** 
  16:../../source/src/kernel/OS_CORE/module.c **** static char *module_buffer = NULL;
  17:../../source/src/kernel/OS_CORE/module.c **** static unsigned int num = 0;
  18:../../source/src/kernel/OS_CORE/module.c **** static struct list_head module_list_head;
  19:../../source/src/kernel/OS_CORE/module.c **** 
  20:../../source/src/kernel/OS_CORE/module.c **** void __init_module(void)
  21:../../source/src/kernel/OS_CORE/module.c **** {
 432              		.loc 4 21 0
 433              		.cfi_startproc
 434              		@ args = 0, pretend = 0, frame = 0
 435              		@ frame_needed = 1, uses_anonymous_args = 0
 436 0102 80B5     		push	{r7, lr}
 437              	.LCFI46:
 438              		.cfi_def_cfa_offset 8
 439              		.cfi_offset 7, -8
 440              		.cfi_offset 14, -4
 441 0104 00AF     		add	r7, sp, #0
 442              	.LCFI47:
 443              		.cfi_def_cfa_register 7
  22:../../source/src/kernel/OS_CORE/module.c ****     INIT_LIST_HEAD(&module_list_head);
 444              		.loc 4 22 0
 445 0106 0248     		ldr	r0, .L11
 446 0108 FFF77AFF 		bl	INIT_LIST_HEAD
  23:../../source/src/kernel/OS_CORE/module.c **** }
 447              		.loc 4 23 0
 448 010c 00BF     		nop
 449 010e 80BD     		pop	{r7, pc}
 450              	.L12:
 451              		.align	2
 452              	.L11:
 453 0110 08000000 		.word	module_list_head
 454              		.cfi_endproc
 455              	.LFE12:
 456              		.size	__init_module, .-__init_module
 457              		.section	.rodata
 458              		.align	2
 459              	.LC0:
 460 0000 6D6F6475 		.ascii	"module name is %s\012\000"
 460      6C65206E 
 460      616D6520 
 460      69732025 
 460      730A00
 461 0013 00       		.align	2
 462              	.LC1:
 463 0014 6D6F6475 		.ascii	"module state:\000"
 463      6C652073 
 463      74617465 
 463      3A00
 464 0022 0000     		.align	2
 465              	.LC2:
 466 0024 62616420 		.ascii	"bad state num is %d\012\000"
 466      73746174 
ARM GAS  G:\Users\Jaxb\AppData\Local\Temp\ccWBP0T4.s 			page 14


 466      65206E75 
 466      6D206973 
 466      2025640A 
 467 0039 000000   		.align	2
 468              	.LC3:
 469 003c 2E2E2F2E 		.ascii	"../../source/src/kernel/OS_CORE/module.c\000"
 469      2E2F736F 
 469      75726365 
 469      2F737263 
 469      2F6B6572 
 470 0065 000000   		.align	2
 471              	.LC4:
 472 0068 0A00     		.ascii	"\012\000"
 473 006a 0000     		.align	2
 474              	.LC5:
 475 006c 53544154 		.ascii	"STATE_INIT\012\000"
 475      455F494E 
 475      49540A00 
 476              		.align	2
 477              	.LC6:
 478 0078 53544154 		.ascii	"STATE_LOADED\012\000"
 478      455F4C4F 
 478      41444544 
 478      0A00
 479 0086 0000     		.align	2
 480              	.LC7:
 481 0088 4D4F4455 		.ascii	"MODULE_STATE_RUN\012\000"
 481      4C455F53 
 481      54415445 
 481      5F52554E 
 481      0A00
 482 009a 0000     		.align	2
 483              	.LC8:
 484 009c 6D6F6475 		.ascii	"module_space : %p\012\000"
 484      6C655F73 
 484      70616365 
 484      203A2025 
 484      700A00
 485 00af 00       		.align	2
 486              	.LC9:
 487 00b0 6D6F6475 		.ascii	"module_size : %u\012\000"
 487      6C655F73 
 487      697A6520 
 487      3A202575 
 487      0A00
 488 00c2 0000     		.align	2
 489              	.LC10:
 490 00c4 6578706F 		.ascii	"export symbols : \012\000"
 490      72742073 
 490      796D626F 
 490      6C73203A 
 490      200A00
 491 00d7 00       		.align	2
 492              	.LC11:
 493 00d8 6E6F2E25 		.ascii	"no.%u : %s\012\000"
 493      75203A20 
 493      25730A00 
ARM GAS  G:\Users\Jaxb\AppData\Local\Temp\ccWBP0T4.s 			page 15


 494              		.align	2
 495              	.LC12:
 496 00e4 72656620 		.ascii	"ref : %u\012\000"
 496      3A202575 
 496      0A00
 497              		.text
 498              		.align	1
 499              		.global	shell_modinfo
 500              		.syntax unified
 501              		.thumb
 502              		.thumb_func
 503              		.fpu softvfp
 504              		.type	shell_modinfo, %function
 505              	shell_modinfo:
 506              	.LFB13:
  24:../../source/src/kernel/OS_CORE/module.c **** 
  25:../../source/src/kernel/OS_CORE/module.c **** void shell_modinfo(int argc, char const *argv[])
  26:../../source/src/kernel/OS_CORE/module.c **** {
 507              		.loc 4 26 0
 508              		.cfi_startproc
 509              		@ args = 0, pretend = 0, frame = 24
 510              		@ frame_needed = 1, uses_anonymous_args = 0
 511 0114 80B5     		push	{r7, lr}
 512              	.LCFI48:
 513              		.cfi_def_cfa_offset 8
 514              		.cfi_offset 7, -8
 515              		.cfi_offset 14, -4
 516 0116 86B0     		sub	sp, sp, #24
 517              	.LCFI49:
 518              		.cfi_def_cfa_offset 32
 519 0118 00AF     		add	r7, sp, #0
 520              	.LCFI50:
 521              		.cfi_def_cfa_register 7
 522 011a 7860     		str	r0, [r7, #4]
 523 011c 3960     		str	r1, [r7]
 524              	.LBB2:
  27:../../source/src/kernel/OS_CORE/module.c ****     struct dynamic_module *dynamic_module_ptr;
  28:../../source/src/kernel/OS_CORE/module.c ****     unsigned int i;
  29:../../source/src/kernel/OS_CORE/module.c ****     list_for_each_entry(dynamic_module_ptr,&module_list_head,module_list)
 525              		.loc 4 29 0
 526 011e 364B     		ldr	r3, .L23
 527 0120 1B68     		ldr	r3, [r3]
 528 0122 FB60     		str	r3, [r7, #12]
 529 0124 FB68     		ldr	r3, [r7, #12]
 530 0126 203B     		subs	r3, r3, #32
 531              	.LBE2:
 532 0128 7B61     		str	r3, [r7, #20]
 533 012a 5BE0     		b	.L14
 534              	.L22:
  30:../../source/src/kernel/OS_CORE/module.c ****     {
  31:../../source/src/kernel/OS_CORE/module.c ****         ka_printf("module name is %s\n",dynamic_module_ptr->name);
 535              		.loc 4 31 0
 536 012c 7B69     		ldr	r3, [r7, #20]
 537 012e 1946     		mov	r1, r3
 538 0130 3248     		ldr	r0, .L23+4
 539 0132 FFF7FEFF 		bl	ka_printf
  32:../../source/src/kernel/OS_CORE/module.c ****         ka_printf("module state:");
ARM GAS  G:\Users\Jaxb\AppData\Local\Temp\ccWBP0T4.s 			page 16


 540              		.loc 4 32 0
 541 0136 3248     		ldr	r0, .L23+8
 542 0138 FFF7FEFF 		bl	ka_printf
  33:../../source/src/kernel/OS_CORE/module.c ****         switch(dynamic_module_ptr->module_state)
 543              		.loc 4 33 0
 544 013c 7B69     		ldr	r3, [r7, #20]
 545 013e 9B6A     		ldr	r3, [r3, #40]
 546 0140 012B     		cmp	r3, #1
 547 0142 15D0     		beq	.L16
 548 0144 012B     		cmp	r3, #1
 549 0146 0FD3     		bcc	.L17
 550 0148 022B     		cmp	r3, #2
 551 014a 15D0     		beq	.L18
  34:../../source/src/kernel/OS_CORE/module.c ****         {
  35:../../source/src/kernel/OS_CORE/module.c ****             default :
  36:../../source/src/kernel/OS_CORE/module.c ****                 PRINTF("bad state num is %d\n",dynamic_module_ptr->module_state);
 552              		.loc 4 36 0
 553 014c 7B69     		ldr	r3, [r7, #20]
 554 014e 9B6A     		ldr	r3, [r3, #40]
 555 0150 1946     		mov	r1, r3
 556 0152 2C48     		ldr	r0, .L23+12
 557 0154 FFF7FEFF 		bl	ka_printf
  37:../../source/src/kernel/OS_CORE/module.c ****                 ASSERT(0);ka_printf("\n"); break;
 558              		.loc 4 37 0
 559 0158 2521     		movs	r1, #37
 560 015a 2B48     		ldr	r0, .L23+16
 561 015c FFF7FEFF 		bl	_ASSERT
 562 0160 2A48     		ldr	r0, .L23+20
 563 0162 FFF7FEFF 		bl	ka_printf
 564 0166 0BE0     		b	.L19
 565              	.L17:
  38:../../source/src/kernel/OS_CORE/module.c ****             case MODULE_STATE_INIT:
  39:../../source/src/kernel/OS_CORE/module.c ****                 ka_printf("STATE_INIT\n"); break;
 566              		.loc 4 39 0
 567 0168 2948     		ldr	r0, .L23+24
 568 016a FFF7FEFF 		bl	ka_printf
 569 016e 07E0     		b	.L19
 570              	.L16:
  40:../../source/src/kernel/OS_CORE/module.c ****             case MODULE_STATE_LOADED:
  41:../../source/src/kernel/OS_CORE/module.c ****                 ka_printf("STATE_LOADED\n"); break;
 571              		.loc 4 41 0
 572 0170 2848     		ldr	r0, .L23+28
 573 0172 FFF7FEFF 		bl	ka_printf
 574 0176 03E0     		b	.L19
 575              	.L18:
  42:../../source/src/kernel/OS_CORE/module.c ****             case MODULE_STATE_RUN:
  43:../../source/src/kernel/OS_CORE/module.c ****                 ka_printf("MODULE_STATE_RUN\n"); break;
 576              		.loc 4 43 0
 577 0178 2748     		ldr	r0, .L23+32
 578 017a FFF7FEFF 		bl	ka_printf
 579 017e 00BF     		nop
 580              	.L19:
  44:../../source/src/kernel/OS_CORE/module.c ****         }
  45:../../source/src/kernel/OS_CORE/module.c ****         ka_printf("module_space : %p\n",dynamic_module_ptr->module_space);
 581              		.loc 4 45 0
 582 0180 7B69     		ldr	r3, [r7, #20]
 583 0182 5B6B     		ldr	r3, [r3, #52]
ARM GAS  G:\Users\Jaxb\AppData\Local\Temp\ccWBP0T4.s 			page 17


 584 0184 1946     		mov	r1, r3
 585 0186 2548     		ldr	r0, .L23+36
 586 0188 FFF7FEFF 		bl	ka_printf
  46:../../source/src/kernel/OS_CORE/module.c ****         ka_printf("module_size : %u\n",dynamic_module_ptr->module_size);
 587              		.loc 4 46 0
 588 018c 7B69     		ldr	r3, [r7, #20]
 589 018e 9B6B     		ldr	r3, [r3, #56]
 590 0190 1946     		mov	r1, r3
 591 0192 2348     		ldr	r0, .L23+40
 592 0194 FFF7FEFF 		bl	ka_printf
  47:../../source/src/kernel/OS_CORE/module.c ****         ka_printf("export symbols : \n");
 593              		.loc 4 47 0
 594 0198 2248     		ldr	r0, .L23+44
 595 019a FFF7FEFF 		bl	ka_printf
  48:../../source/src/kernel/OS_CORE/module.c ****         for(i=0;i<dynamic_module_ptr->export_symbols_num;++i)
 596              		.loc 4 48 0
 597 019e 0023     		movs	r3, #0
 598 01a0 3B61     		str	r3, [r7, #16]
 599 01a2 0EE0     		b	.L20
 600              	.L21:
  49:../../source/src/kernel/OS_CORE/module.c ****         {
  50:../../source/src/kernel/OS_CORE/module.c ****             ka_printf("no.%u : %s\n",i+1,dynamic_module_ptr->export_symbols_array[i].name);
 601              		.loc 4 50 0 discriminator 3
 602 01a4 3B69     		ldr	r3, [r7, #16]
 603 01a6 591C     		adds	r1, r3, #1
 604 01a8 7B69     		ldr	r3, [r7, #20]
 605 01aa 9A6C     		ldr	r2, [r3, #72]
 606 01ac 3B69     		ldr	r3, [r7, #16]
 607 01ae DB00     		lsls	r3, r3, #3
 608 01b0 1344     		add	r3, r3, r2
 609 01b2 5B68     		ldr	r3, [r3, #4]
 610 01b4 1A46     		mov	r2, r3
 611 01b6 1C48     		ldr	r0, .L23+48
 612 01b8 FFF7FEFF 		bl	ka_printf
  48:../../source/src/kernel/OS_CORE/module.c ****         for(i=0;i<dynamic_module_ptr->export_symbols_num;++i)
 613              		.loc 4 48 0 discriminator 3
 614 01bc 3B69     		ldr	r3, [r7, #16]
 615 01be 0133     		adds	r3, r3, #1
 616 01c0 3B61     		str	r3, [r7, #16]
 617              	.L20:
  48:../../source/src/kernel/OS_CORE/module.c ****         for(i=0;i<dynamic_module_ptr->export_symbols_num;++i)
 618              		.loc 4 48 0 is_stmt 0 discriminator 1
 619 01c2 7B69     		ldr	r3, [r7, #20]
 620 01c4 DB6C     		ldr	r3, [r3, #76]
 621 01c6 3A69     		ldr	r2, [r7, #16]
 622 01c8 9A42     		cmp	r2, r3
 623 01ca EBD3     		bcc	.L21
  51:../../source/src/kernel/OS_CORE/module.c ****         }
  52:../../source/src/kernel/OS_CORE/module.c ****         ka_printf("ref : %u\n",dynamic_module_ptr->ref);
 624              		.loc 4 52 0 is_stmt 1 discriminator 2
 625 01cc 7B69     		ldr	r3, [r7, #20]
 626 01ce 1B6D     		ldr	r3, [r3, #80]
 627 01d0 1946     		mov	r1, r3
 628 01d2 1648     		ldr	r0, .L23+52
 629 01d4 FFF7FEFF 		bl	ka_printf
 630              	.LBB3:
  29:../../source/src/kernel/OS_CORE/module.c ****     {
ARM GAS  G:\Users\Jaxb\AppData\Local\Temp\ccWBP0T4.s 			page 18


 631              		.loc 4 29 0 discriminator 2
 632 01d8 7B69     		ldr	r3, [r7, #20]
 633 01da 1B6A     		ldr	r3, [r3, #32]
 634 01dc BB60     		str	r3, [r7, #8]
 635 01de BB68     		ldr	r3, [r7, #8]
 636 01e0 203B     		subs	r3, r3, #32
 637              	.LBE3:
 638 01e2 7B61     		str	r3, [r7, #20]
 639              	.L14:
  29:../../source/src/kernel/OS_CORE/module.c ****     {
 640              		.loc 4 29 0 is_stmt 0 discriminator 1
 641 01e4 7B69     		ldr	r3, [r7, #20]
 642 01e6 2033     		adds	r3, r3, #32
 643 01e8 034A     		ldr	r2, .L23
 644 01ea 9342     		cmp	r3, r2
 645 01ec 9ED1     		bne	.L22
  53:../../source/src/kernel/OS_CORE/module.c ****     }
  54:../../source/src/kernel/OS_CORE/module.c **** }
 646              		.loc 4 54 0 is_stmt 1
 647 01ee 00BF     		nop
 648 01f0 1837     		adds	r7, r7, #24
 649              	.LCFI51:
 650              		.cfi_def_cfa_offset 8
 651 01f2 BD46     		mov	sp, r7
 652              	.LCFI52:
 653              		.cfi_def_cfa_register 13
 654              		@ sp needed
 655 01f4 80BD     		pop	{r7, pc}
 656              	.L24:
 657 01f6 00BF     		.align	2
 658              	.L23:
 659 01f8 08000000 		.word	module_list_head
 660 01fc 00000000 		.word	.LC0
 661 0200 14000000 		.word	.LC1
 662 0204 24000000 		.word	.LC2
 663 0208 3C000000 		.word	.LC3
 664 020c 68000000 		.word	.LC4
 665 0210 6C000000 		.word	.LC5
 666 0214 78000000 		.word	.LC6
 667 0218 88000000 		.word	.LC7
 668 021c 9C000000 		.word	.LC8
 669 0220 B0000000 		.word	.LC9
 670 0224 C4000000 		.word	.LC10
 671 0228 D8000000 		.word	.LC11
 672 022c E4000000 		.word	.LC12
 673              		.cfi_endproc
 674              	.LFE13:
 675              		.size	shell_modinfo, .-shell_modinfo
 676              		.section	.rodata
 677 00ee 0000     		.align	2
 678              	.LC13:
 679 00f0 746F7461 		.ascii	"total %u modules\012\000"
 679      6C202575 
 679      206D6F64 
 679      756C6573 
 679      0A00
 680              		.text
ARM GAS  G:\Users\Jaxb\AppData\Local\Temp\ccWBP0T4.s 			page 19


 681              		.align	1
 682              		.global	shell_list_module
 683              		.syntax unified
 684              		.thumb
 685              		.thumb_func
 686              		.fpu softvfp
 687              		.type	shell_list_module, %function
 688              	shell_list_module:
 689              	.LFB14:
  55:../../source/src/kernel/OS_CORE/module.c **** 
  56:../../source/src/kernel/OS_CORE/module.c **** void shell_list_module(int argc, char const *argv[])
  57:../../source/src/kernel/OS_CORE/module.c **** {
 690              		.loc 4 57 0
 691              		.cfi_startproc
 692              		@ args = 0, pretend = 0, frame = 24
 693              		@ frame_needed = 1, uses_anonymous_args = 0
 694 0230 80B5     		push	{r7, lr}
 695              	.LCFI53:
 696              		.cfi_def_cfa_offset 8
 697              		.cfi_offset 7, -8
 698              		.cfi_offset 14, -4
 699 0232 86B0     		sub	sp, sp, #24
 700              	.LCFI54:
 701              		.cfi_def_cfa_offset 32
 702 0234 00AF     		add	r7, sp, #0
 703              	.LCFI55:
 704              		.cfi_def_cfa_register 7
 705 0236 7860     		str	r0, [r7, #4]
 706 0238 3960     		str	r1, [r7]
  58:../../source/src/kernel/OS_CORE/module.c ****     struct dynamic_module *dynamic_module_ptr;
  59:../../source/src/kernel/OS_CORE/module.c ****     unsigned int i = 0;
 707              		.loc 4 59 0
 708 023a 0023     		movs	r3, #0
 709 023c 3B61     		str	r3, [r7, #16]
 710              	.LBB4:
  60:../../source/src/kernel/OS_CORE/module.c ****     list_for_each_entry(dynamic_module_ptr,&module_list_head,module_list)
 711              		.loc 4 60 0
 712 023e 114B     		ldr	r3, .L28
 713 0240 1B68     		ldr	r3, [r3]
 714 0242 FB60     		str	r3, [r7, #12]
 715 0244 FB68     		ldr	r3, [r7, #12]
 716 0246 203B     		subs	r3, r3, #32
 717              	.LBE4:
 718 0248 7B61     		str	r3, [r7, #20]
 719 024a 0DE0     		b	.L26
 720              	.L27:
  61:../../source/src/kernel/OS_CORE/module.c ****     {
  62:../../source/src/kernel/OS_CORE/module.c ****         ++i;
 721              		.loc 4 62 0 discriminator 3
 722 024c 3B69     		ldr	r3, [r7, #16]
 723 024e 0133     		adds	r3, r3, #1
 724 0250 3B61     		str	r3, [r7, #16]
  63:../../source/src/kernel/OS_CORE/module.c ****         ka_printf("module name is %s\n",dynamic_module_ptr->name);
 725              		.loc 4 63 0 discriminator 3
 726 0252 7B69     		ldr	r3, [r7, #20]
 727 0254 1946     		mov	r1, r3
 728 0256 0C48     		ldr	r0, .L28+4
ARM GAS  G:\Users\Jaxb\AppData\Local\Temp\ccWBP0T4.s 			page 20


 729 0258 FFF7FEFF 		bl	ka_printf
 730              	.LBB5:
  60:../../source/src/kernel/OS_CORE/module.c ****     list_for_each_entry(dynamic_module_ptr,&module_list_head,module_list)
 731              		.loc 4 60 0 discriminator 3
 732 025c 7B69     		ldr	r3, [r7, #20]
 733 025e 1B6A     		ldr	r3, [r3, #32]
 734 0260 BB60     		str	r3, [r7, #8]
 735 0262 BB68     		ldr	r3, [r7, #8]
 736 0264 203B     		subs	r3, r3, #32
 737              	.LBE5:
 738 0266 7B61     		str	r3, [r7, #20]
 739              	.L26:
  60:../../source/src/kernel/OS_CORE/module.c ****     list_for_each_entry(dynamic_module_ptr,&module_list_head,module_list)
 740              		.loc 4 60 0 is_stmt 0 discriminator 1
 741 0268 7B69     		ldr	r3, [r7, #20]
 742 026a 2033     		adds	r3, r3, #32
 743 026c 054A     		ldr	r2, .L28
 744 026e 9342     		cmp	r3, r2
 745 0270 ECD1     		bne	.L27
  64:../../source/src/kernel/OS_CORE/module.c ****     }
  65:../../source/src/kernel/OS_CORE/module.c ****     ka_printf("total %u modules\n",i);
 746              		.loc 4 65 0 is_stmt 1
 747 0272 3969     		ldr	r1, [r7, #16]
 748 0274 0548     		ldr	r0, .L28+8
 749 0276 FFF7FEFF 		bl	ka_printf
  66:../../source/src/kernel/OS_CORE/module.c **** }
 750              		.loc 4 66 0
 751 027a 00BF     		nop
 752 027c 1837     		adds	r7, r7, #24
 753              	.LCFI56:
 754              		.cfi_def_cfa_offset 8
 755 027e BD46     		mov	sp, r7
 756              	.LCFI57:
 757              		.cfi_def_cfa_register 13
 758              		@ sp needed
 759 0280 80BD     		pop	{r7, pc}
 760              	.L29:
 761 0282 00BF     		.align	2
 762              	.L28:
 763 0284 08000000 		.word	module_list_head
 764 0288 00000000 		.word	.LC0
 765 028c F0000000 		.word	.LC13
 766              		.cfi_endproc
 767              	.LFE14:
 768              		.size	shell_list_module, .-shell_list_module
 769              		.align	1
 770              		.syntax unified
 771              		.thumb
 772              		.thumb_func
 773              		.fpu softvfp
 774              		.type	get_mod_export_function_addr, %function
 775              	get_mod_export_function_addr:
 776              	.LFB15:
  67:../../source/src/kernel/OS_CORE/module.c **** 
  68:../../source/src/kernel/OS_CORE/module.c **** static UINT32 get_mod_export_function_addr(const char *fun_name)
  69:../../source/src/kernel/OS_CORE/module.c **** {
 777              		.loc 4 69 0
ARM GAS  G:\Users\Jaxb\AppData\Local\Temp\ccWBP0T4.s 			page 21


 778              		.cfi_startproc
 779              		@ args = 0, pretend = 0, frame = 24
 780              		@ frame_needed = 1, uses_anonymous_args = 0
 781 0290 80B5     		push	{r7, lr}
 782              	.LCFI58:
 783              		.cfi_def_cfa_offset 8
 784              		.cfi_offset 7, -8
 785              		.cfi_offset 14, -4
 786 0292 86B0     		sub	sp, sp, #24
 787              	.LCFI59:
 788              		.cfi_def_cfa_offset 32
 789 0294 00AF     		add	r7, sp, #0
 790              	.LCFI60:
 791              		.cfi_def_cfa_register 7
 792 0296 7860     		str	r0, [r7, #4]
 793              	.LBB6:
  70:../../source/src/kernel/OS_CORE/module.c ****     struct dynamic_module *dynamic_module_ptr;
  71:../../source/src/kernel/OS_CORE/module.c ****     list_for_each_entry(dynamic_module_ptr,&module_list_head,module_list)
 794              		.loc 4 71 0
 795 0298 1A4B     		ldr	r3, .L37
 796 029a 1B68     		ldr	r3, [r3]
 797 029c FB60     		str	r3, [r7, #12]
 798 029e FB68     		ldr	r3, [r7, #12]
 799 02a0 203B     		subs	r3, r3, #32
 800              	.LBE6:
 801 02a2 7B61     		str	r3, [r7, #20]
 802 02a4 24E0     		b	.L31
 803              	.L36:
 804              	.LBB7:
  72:../../source/src/kernel/OS_CORE/module.c ****     {
  73:../../source/src/kernel/OS_CORE/module.c ****         unsigned int i;
  74:../../source/src/kernel/OS_CORE/module.c ****         for(i=0;i<dynamic_module_ptr->export_symbols_num;++i)
 805              		.loc 4 74 0
 806 02a6 0023     		movs	r3, #0
 807 02a8 3B61     		str	r3, [r7, #16]
 808 02aa 16E0     		b	.L32
 809              	.L35:
  75:../../source/src/kernel/OS_CORE/module.c ****         {
  76:../../source/src/kernel/OS_CORE/module.c ****             if (0 == ka_strcmp(dynamic_module_ptr->export_symbols_array[i].name, fun_name))
 810              		.loc 4 76 0
 811 02ac 7B69     		ldr	r3, [r7, #20]
 812 02ae 9A6C     		ldr	r2, [r3, #72]
 813 02b0 3B69     		ldr	r3, [r7, #16]
 814 02b2 DB00     		lsls	r3, r3, #3
 815 02b4 1344     		add	r3, r3, r2
 816 02b6 5B68     		ldr	r3, [r3, #4]
 817 02b8 7968     		ldr	r1, [r7, #4]
 818 02ba 1846     		mov	r0, r3
 819 02bc FFF7FEFF 		bl	ka_strcmp
 820 02c0 0346     		mov	r3, r0
 821 02c2 002B     		cmp	r3, #0
 822 02c4 06D1     		bne	.L33
  77:../../source/src/kernel/OS_CORE/module.c ****             {
  78:../../source/src/kernel/OS_CORE/module.c ****                 return (UINT32)dynamic_module_ptr->export_symbols_array[i].addr;
 823              		.loc 4 78 0
 824 02c6 7B69     		ldr	r3, [r7, #20]
 825 02c8 9A6C     		ldr	r2, [r3, #72]
ARM GAS  G:\Users\Jaxb\AppData\Local\Temp\ccWBP0T4.s 			page 22


 826 02ca 3B69     		ldr	r3, [r7, #16]
 827 02cc DB00     		lsls	r3, r3, #3
 828 02ce 1344     		add	r3, r3, r2
 829 02d0 1B68     		ldr	r3, [r3]
 830 02d2 13E0     		b	.L34
 831              	.L33:
  74:../../source/src/kernel/OS_CORE/module.c ****         {
 832              		.loc 4 74 0 discriminator 2
 833 02d4 3B69     		ldr	r3, [r7, #16]
 834 02d6 0133     		adds	r3, r3, #1
 835 02d8 3B61     		str	r3, [r7, #16]
 836              	.L32:
  74:../../source/src/kernel/OS_CORE/module.c ****         {
 837              		.loc 4 74 0 is_stmt 0 discriminator 1
 838 02da 7B69     		ldr	r3, [r7, #20]
 839 02dc DB6C     		ldr	r3, [r3, #76]
 840 02de 3A69     		ldr	r2, [r7, #16]
 841 02e0 9A42     		cmp	r2, r3
 842 02e2 E3D3     		bcc	.L35
 843              	.LBE7:
 844              	.LBB8:
  71:../../source/src/kernel/OS_CORE/module.c ****     {
 845              		.loc 4 71 0 is_stmt 1 discriminator 2
 846 02e4 7B69     		ldr	r3, [r7, #20]
 847 02e6 1B6A     		ldr	r3, [r3, #32]
 848 02e8 BB60     		str	r3, [r7, #8]
 849 02ea BB68     		ldr	r3, [r7, #8]
 850 02ec 203B     		subs	r3, r3, #32
 851              	.LBE8:
 852 02ee 7B61     		str	r3, [r7, #20]
 853              	.L31:
  71:../../source/src/kernel/OS_CORE/module.c ****     {
 854              		.loc 4 71 0 is_stmt 0 discriminator 1
 855 02f0 7B69     		ldr	r3, [r7, #20]
 856 02f2 2033     		adds	r3, r3, #32
 857 02f4 034A     		ldr	r2, .L37
 858 02f6 9342     		cmp	r3, r2
 859 02f8 D5D1     		bne	.L36
  79:../../source/src/kernel/OS_CORE/module.c ****             }
  80:../../source/src/kernel/OS_CORE/module.c ****         }
  81:../../source/src/kernel/OS_CORE/module.c ****     }
  82:../../source/src/kernel/OS_CORE/module.c ****     return 0;
 860              		.loc 4 82 0 is_stmt 1
 861 02fa 0023     		movs	r3, #0
 862              	.L34:
  83:../../source/src/kernel/OS_CORE/module.c **** }
 863              		.loc 4 83 0
 864 02fc 1846     		mov	r0, r3
 865 02fe 1837     		adds	r7, r7, #24
 866              	.LCFI61:
 867              		.cfi_def_cfa_offset 8
 868 0300 BD46     		mov	sp, r7
 869              	.LCFI62:
 870              		.cfi_def_cfa_register 13
 871              		@ sp needed
 872 0302 80BD     		pop	{r7, pc}
 873              	.L38:
ARM GAS  G:\Users\Jaxb\AppData\Local\Temp\ccWBP0T4.s 			page 23


 874              		.align	2
 875              	.L37:
 876 0304 08000000 		.word	module_list_head
 877              		.cfi_endproc
 878              	.LFE15:
 879              		.size	get_mod_export_function_addr, .-get_mod_export_function_addr
 880              		.align	1
 881              		.global	_check_same_mod_name
 882              		.syntax unified
 883              		.thumb
 884              		.thumb_func
 885              		.fpu softvfp
 886              		.type	_check_same_mod_name, %function
 887              	_check_same_mod_name:
 888              	.LFB16:
  84:../../source/src/kernel/OS_CORE/module.c **** 
  85:../../source/src/kernel/OS_CORE/module.c **** /*
  86:../../source/src/kernel/OS_CORE/module.c **** check that if there is a same-name-module exists
  87:../../source/src/kernel/OS_CORE/module.c **** 
  88:../../source/src/kernel/OS_CORE/module.c **** exist ? 1,0
  89:../../source/src/kernel/OS_CORE/module.c ****  */
  90:../../source/src/kernel/OS_CORE/module.c **** int _check_same_mod_name(const char *name)
  91:../../source/src/kernel/OS_CORE/module.c **** {
 889              		.loc 4 91 0
 890              		.cfi_startproc
 891              		@ args = 0, pretend = 0, frame = 24
 892              		@ frame_needed = 1, uses_anonymous_args = 0
 893 0308 80B5     		push	{r7, lr}
 894              	.LCFI63:
 895              		.cfi_def_cfa_offset 8
 896              		.cfi_offset 7, -8
 897              		.cfi_offset 14, -4
 898 030a 86B0     		sub	sp, sp, #24
 899              	.LCFI64:
 900              		.cfi_def_cfa_offset 32
 901 030c 00AF     		add	r7, sp, #0
 902              	.LCFI65:
 903              		.cfi_def_cfa_register 7
 904 030e 7860     		str	r0, [r7, #4]
 905              	.LBB9:
  92:../../source/src/kernel/OS_CORE/module.c ****     struct dynamic_module *dynamic_module_ptr;
  93:../../source/src/kernel/OS_CORE/module.c ****     list_for_each_entry(dynamic_module_ptr,&module_list_head,module_list)
 906              		.loc 4 93 0
 907 0310 104B     		ldr	r3, .L44
 908 0312 1B68     		ldr	r3, [r3]
 909 0314 3B61     		str	r3, [r7, #16]
 910 0316 3B69     		ldr	r3, [r7, #16]
 911 0318 203B     		subs	r3, r3, #32
 912              	.LBE9:
 913 031a 7B61     		str	r3, [r7, #20]
 914 031c 0FE0     		b	.L40
 915              	.L43:
  94:../../source/src/kernel/OS_CORE/module.c ****     {
  95:../../source/src/kernel/OS_CORE/module.c ****         if(0 == ka_strcmp(name,dynamic_module_ptr->name))
 916              		.loc 4 95 0
 917 031e 7B69     		ldr	r3, [r7, #20]
 918 0320 1946     		mov	r1, r3
ARM GAS  G:\Users\Jaxb\AppData\Local\Temp\ccWBP0T4.s 			page 24


 919 0322 7868     		ldr	r0, [r7, #4]
 920 0324 FFF7FEFF 		bl	ka_strcmp
 921 0328 0346     		mov	r3, r0
 922 032a 002B     		cmp	r3, #0
 923 032c 01D1     		bne	.L41
  96:../../source/src/kernel/OS_CORE/module.c ****         {
  97:../../source/src/kernel/OS_CORE/module.c ****             return 1;
 924              		.loc 4 97 0
 925 032e 0123     		movs	r3, #1
 926 0330 0BE0     		b	.L42
 927              	.L41:
 928              	.LBB10:
  93:../../source/src/kernel/OS_CORE/module.c ****     {
 929              		.loc 4 93 0 discriminator 2
 930 0332 7B69     		ldr	r3, [r7, #20]
 931 0334 1B6A     		ldr	r3, [r3, #32]
 932 0336 FB60     		str	r3, [r7, #12]
 933 0338 FB68     		ldr	r3, [r7, #12]
 934 033a 203B     		subs	r3, r3, #32
 935              	.LBE10:
 936 033c 7B61     		str	r3, [r7, #20]
 937              	.L40:
  93:../../source/src/kernel/OS_CORE/module.c ****     {
 938              		.loc 4 93 0 is_stmt 0 discriminator 1
 939 033e 7B69     		ldr	r3, [r7, #20]
 940 0340 2033     		adds	r3, r3, #32
 941 0342 044A     		ldr	r2, .L44
 942 0344 9342     		cmp	r3, r2
 943 0346 EAD1     		bne	.L43
  98:../../source/src/kernel/OS_CORE/module.c ****         }
  99:../../source/src/kernel/OS_CORE/module.c ****     }
 100:../../source/src/kernel/OS_CORE/module.c ****     return 0;
 944              		.loc 4 100 0 is_stmt 1
 945 0348 0023     		movs	r3, #0
 946              	.L42:
 101:../../source/src/kernel/OS_CORE/module.c **** }
 947              		.loc 4 101 0
 948 034a 1846     		mov	r0, r3
 949 034c 1837     		adds	r7, r7, #24
 950              	.LCFI66:
 951              		.cfi_def_cfa_offset 8
 952 034e BD46     		mov	sp, r7
 953              	.LCFI67:
 954              		.cfi_def_cfa_register 13
 955              		@ sp needed
 956 0350 80BD     		pop	{r7, pc}
 957              	.L45:
 958 0352 00BF     		.align	2
 959              	.L44:
 960 0354 08000000 		.word	module_list_head
 961              		.cfi_endproc
 962              	.LFE16:
 963              		.size	_check_same_mod_name, .-_check_same_mod_name
 964              		.section	.rodata
 965 0102 0000     		.align	2
 966              	.LC14:
 967 0104 6D6F6475 		.ascii	"module_thread run\012\000"
ARM GAS  G:\Users\Jaxb\AppData\Local\Temp\ccWBP0T4.s 			page 25


 967      6C655F74 
 967      68726561 
 967      64207275 
 967      6E0A00
 968 0117 00       		.align	2
 969              	.LC15:
 970 0118 6D6F6475 		.ascii	"module_thread fail,error code is %d\012\000"
 970      6C655F74 
 970      68726561 
 970      64206661 
 970      696C2C65 
 971              		.text
 972              		.align	1
 973              		.global	_restart_module
 974              		.syntax unified
 975              		.thumb
 976              		.thumb_func
 977              		.fpu softvfp
 978              		.type	_restart_module, %function
 979              	_restart_module:
 980              	.LFB17:
 102:../../source/src/kernel/OS_CORE/module.c **** 
 103:../../source/src/kernel/OS_CORE/module.c **** void _restart_module(
 104:../../source/src/kernel/OS_CORE/module.c ****     unsigned int stack_size,
 105:../../source/src/kernel/OS_CORE/module.c ****     TASK_PRIO_TYPE prio,
 106:../../source/src/kernel/OS_CORE/module.c ****     const char *name)
 107:../../source/src/kernel/OS_CORE/module.c **** {
 981              		.loc 4 107 0
 982              		.cfi_startproc
 983              		@ args = 0, pretend = 0, frame = 40
 984              		@ frame_needed = 1, uses_anonymous_args = 0
 985 0358 80B5     		push	{r7, lr}
 986              	.LCFI68:
 987              		.cfi_def_cfa_offset 8
 988              		.cfi_offset 7, -8
 989              		.cfi_offset 14, -4
 990 035a 8EB0     		sub	sp, sp, #56
 991              	.LCFI69:
 992              		.cfi_def_cfa_offset 64
 993 035c 04AF     		add	r7, sp, #16
 994              	.LCFI70:
 995              		.cfi_def_cfa 7, 48
 996 035e F860     		str	r0, [r7, #12]
 997 0360 B960     		str	r1, [r7, #8]
 998 0362 7A60     		str	r2, [r7, #4]
 999              	.LBB11:
 108:../../source/src/kernel/OS_CORE/module.c ****     struct dynamic_module *dynamic_module_ptr;
 109:../../source/src/kernel/OS_CORE/module.c ****     list_for_each_entry(dynamic_module_ptr,&module_list_head,module_list)
 1000              		.loc 4 109 0
 1001 0364 2C4B     		ldr	r3, .L55
 1002 0366 1B68     		ldr	r3, [r3]
 1003 0368 3B62     		str	r3, [r7, #32]
 1004 036a 3B6A     		ldr	r3, [r7, #32]
 1005 036c 203B     		subs	r3, r3, #32
 1006              	.LBE11:
 1007 036e 7B62     		str	r3, [r7, #36]
 1008 0370 49E0     		b	.L47
ARM GAS  G:\Users\Jaxb\AppData\Local\Temp\ccWBP0T4.s 			page 26


 1009              	.L54:
 110:../../source/src/kernel/OS_CORE/module.c ****     {
 111:../../source/src/kernel/OS_CORE/module.c ****         if(0 == ka_strcmp(name,dynamic_module_ptr->name))
 1010              		.loc 4 111 0
 1011 0372 7B6A     		ldr	r3, [r7, #36]
 1012 0374 1946     		mov	r1, r3
 1013 0376 7868     		ldr	r0, [r7, #4]
 1014 0378 FFF7FEFF 		bl	ka_strcmp
 1015 037c 0346     		mov	r3, r0
 1016 037e 002B     		cmp	r3, #0
 1017 0380 3BD1     		bne	.L48
 1018              	.LBB12:
 112:../../source/src/kernel/OS_CORE/module.c ****         {
 113:../../source/src/kernel/OS_CORE/module.c ****             ASSERT(MODULE_STATE_LOADED == dynamic_module_ptr->module_state);
 1019              		.loc 4 113 0
 1020 0382 7B6A     		ldr	r3, [r7, #36]
 1021 0384 9B6A     		ldr	r3, [r3, #40]
 1022 0386 012B     		cmp	r3, #1
 1023 0388 03D0     		beq	.L49
 1024              		.loc 4 113 0 is_stmt 0 discriminator 1
 1025 038a 7121     		movs	r1, #113
 1026 038c 2348     		ldr	r0, .L55+4
 1027 038e FFF7FEFF 		bl	_ASSERT
 1028              	.L49:
 114:../../source/src/kernel/OS_CORE/module.c ****             if(prio >= PRIO_MAX)
 1029              		.loc 4 114 0 is_stmt 1
 1030 0392 BB68     		ldr	r3, [r7, #8]
 1031 0394 3F2B     		cmp	r3, #63
 1032 0396 01D9     		bls	.L50
 115:../../source/src/kernel/OS_CORE/module.c ****             {
 116:../../source/src/kernel/OS_CORE/module.c ****                 prio = D_MODULE_DEFAULT_PRIO;
 1033              		.loc 4 116 0
 1034 0398 3E23     		movs	r3, #62
 1035 039a BB60     		str	r3, [r7, #8]
 1036              	.L50:
 117:../../source/src/kernel/OS_CORE/module.c ****             }
 118:../../source/src/kernel/OS_CORE/module.c **** 						TCB *TCB_ptr;
 119:../../source/src/kernel/OS_CORE/module.c ****             int error = task_creat_ready(stack_size, prio, HZ / 10, name,
 120:../../source/src/kernel/OS_CORE/module.c ****                                  (functionptr)(dynamic_module_ptr->entry), NULL, &TCB_ptr);
 1037              		.loc 4 120 0
 1038 039c 7B6A     		ldr	r3, [r7, #36]
 1039 039e 1B6C     		ldr	r3, [r3, #64]
 119:../../source/src/kernel/OS_CORE/module.c ****                                  (functionptr)(dynamic_module_ptr->entry), NULL, &TCB_ptr);
 1040              		.loc 4 119 0
 1041 03a0 1A46     		mov	r2, r3
 1042 03a2 07F11403 		add	r3, r7, #20
 1043 03a6 0293     		str	r3, [sp, #8]
 1044 03a8 0023     		movs	r3, #0
 1045 03aa 0193     		str	r3, [sp, #4]
 1046 03ac 0092     		str	r2, [sp]
 1047 03ae 7B68     		ldr	r3, [r7, #4]
 1048 03b0 0A22     		movs	r2, #10
 1049 03b2 B968     		ldr	r1, [r7, #8]
 1050 03b4 F868     		ldr	r0, [r7, #12]
 1051 03b6 FFF7FEFF 		bl	task_creat_ready
 1052 03ba B861     		str	r0, [r7, #24]
 121:../../source/src/kernel/OS_CORE/module.c ****             if (!error)
ARM GAS  G:\Users\Jaxb\AppData\Local\Temp\ccWBP0T4.s 			page 27


 1053              		.loc 4 121 0
 1054 03bc BB69     		ldr	r3, [r7, #24]
 1055 03be 002B     		cmp	r3, #0
 1056 03c0 15D1     		bne	.L51
 122:../../source/src/kernel/OS_CORE/module.c ****             {
 123:../../source/src/kernel/OS_CORE/module.c ****                 dynamic_module_ptr->thread_TCB_ptr = TCB_ptr;
 1057              		.loc 4 123 0
 1058 03c2 7A69     		ldr	r2, [r7, #20]
 1059 03c4 7B6A     		ldr	r3, [r7, #36]
 1060 03c6 5A65     		str	r2, [r3, #84]
 124:../../source/src/kernel/OS_CORE/module.c ****                 set_module_flag(TCB_ptr);
 1061              		.loc 4 124 0
 1062 03c8 7B69     		ldr	r3, [r7, #20]
 1063 03ca 9A6B     		ldr	r2, [r3, #56]
 1064 03cc 7B69     		ldr	r3, [r7, #20]
 1065 03ce 42F00802 		orr	r2, r2, #8
 1066 03d2 9A63     		str	r2, [r3, #56]
 125:../../source/src/kernel/OS_CORE/module.c ****                 set_module_state(dynamic_module_ptr,MODULE_STATE_RUN);
 1067              		.loc 4 125 0
 1068 03d4 0221     		movs	r1, #2
 1069 03d6 786A     		ldr	r0, [r7, #36]
 1070 03d8 FFF786FE 		bl	set_module_state
 126:../../source/src/kernel/OS_CORE/module.c ****                 set_tcb_module(TCB_ptr,dynamic_module_ptr);
 1071              		.loc 4 126 0
 1072 03dc 7B69     		ldr	r3, [r7, #20]
 1073 03de 796A     		ldr	r1, [r7, #36]
 1074 03e0 1846     		mov	r0, r3
 1075 03e2 FFF774FE 		bl	set_tcb_module
 127:../../source/src/kernel/OS_CORE/module.c ****                 ka_printf("module_thread run\n");
 1076              		.loc 4 127 0
 1077 03e6 0E48     		ldr	r0, .L55+8
 1078 03e8 FFF7FEFF 		bl	ka_printf
 128:../../source/src/kernel/OS_CORE/module.c ****             }
 129:../../source/src/kernel/OS_CORE/module.c ****             else
 130:../../source/src/kernel/OS_CORE/module.c ****             {
 131:../../source/src/kernel/OS_CORE/module.c ****                 ka_printf("module_thread fail,error code is %d\n",error);
 132:../../source/src/kernel/OS_CORE/module.c ****             }
 133:../../source/src/kernel/OS_CORE/module.c ****             return ;
 1079              		.loc 4 133 0
 1080 03ec 10E0     		b	.L46
 1081              	.L51:
 131:../../source/src/kernel/OS_CORE/module.c ****             }
 1082              		.loc 4 131 0
 1083 03ee B969     		ldr	r1, [r7, #24]
 1084 03f0 0C48     		ldr	r0, .L55+12
 1085 03f2 FFF7FEFF 		bl	ka_printf
 1086              		.loc 4 133 0
 1087 03f6 00BF     		nop
 1088 03f8 0AE0     		b	.L46
 1089              	.L48:
 1090              	.LBE12:
 1091              	.LBB13:
 109:../../source/src/kernel/OS_CORE/module.c ****     {
 1092              		.loc 4 109 0 discriminator 2
 1093 03fa 7B6A     		ldr	r3, [r7, #36]
 1094 03fc 1B6A     		ldr	r3, [r3, #32]
 1095 03fe FB61     		str	r3, [r7, #28]
ARM GAS  G:\Users\Jaxb\AppData\Local\Temp\ccWBP0T4.s 			page 28


 1096 0400 FB69     		ldr	r3, [r7, #28]
 1097 0402 203B     		subs	r3, r3, #32
 1098              	.LBE13:
 1099 0404 7B62     		str	r3, [r7, #36]
 1100              	.L47:
 109:../../source/src/kernel/OS_CORE/module.c ****     {
 1101              		.loc 4 109 0 is_stmt 0 discriminator 1
 1102 0406 7B6A     		ldr	r3, [r7, #36]
 1103 0408 2033     		adds	r3, r3, #32
 1104 040a 034A     		ldr	r2, .L55
 1105 040c 9342     		cmp	r3, r2
 1106 040e B0D1     		bne	.L54
 1107              	.L46:
 134:../../source/src/kernel/OS_CORE/module.c ****         }
 135:../../source/src/kernel/OS_CORE/module.c ****     }
 136:../../source/src/kernel/OS_CORE/module.c **** }
 1108              		.loc 4 136 0 is_stmt 1
 1109 0410 2837     		adds	r7, r7, #40
 1110              	.LCFI71:
 1111              		.cfi_def_cfa_offset 8
 1112 0412 BD46     		mov	sp, r7
 1113              	.LCFI72:
 1114              		.cfi_def_cfa_register 13
 1115              		@ sp needed
 1116 0414 80BD     		pop	{r7, pc}
 1117              	.L56:
 1118 0416 00BF     		.align	2
 1119              	.L55:
 1120 0418 08000000 		.word	module_list_head
 1121 041c 3C000000 		.word	.LC3
 1122 0420 04010000 		.word	.LC14
 1123 0424 18010000 		.word	.LC15
 1124              		.cfi_endproc
 1125              	.LFE17:
 1126              		.size	_restart_module, .-_restart_module
 1127              		.section	.rodata
 1128 013d 000000   		.align	2
 1129              	.LC16:
 1130 0140 2D6E616D 		.ascii	"-name=\000"
 1130      653D00
 1131 0147 00       		.align	2
 1132              	.LC17:
 1133 0148 696E7661 		.ascii	"invalid module name\012\000"
 1133      6C696420 
 1133      6D6F6475 
 1133      6C65206E 
 1133      616D650A 
 1134 015d 000000   		.align	2
 1135              	.LC18:
 1136 0160 706C6561 		.ascii	"please input module name\012\000"
 1136      73652069 
 1136      6E707574 
 1136      206D6F64 
 1136      756C6520 
 1137              		.text
 1138              		.align	1
 1139              		.global	shell_remove_module
ARM GAS  G:\Users\Jaxb\AppData\Local\Temp\ccWBP0T4.s 			page 29


 1140              		.syntax unified
 1141              		.thumb
 1142              		.thumb_func
 1143              		.fpu softvfp
 1144              		.type	shell_remove_module, %function
 1145              	shell_remove_module:
 1146              	.LFB18:
 137:../../source/src/kernel/OS_CORE/module.c **** 
 138:../../source/src/kernel/OS_CORE/module.c **** /******************
 139:../../source/src/kernel/OS_CORE/module.c **** * 
 140:../../source/src/kernel/OS_CORE/module.c **** *   rmmod -name=dmodule
 141:../../source/src/kernel/OS_CORE/module.c **** *
 142:../../source/src/kernel/OS_CORE/module.c **** *******************/
 143:../../source/src/kernel/OS_CORE/module.c **** void shell_remove_module(int argc, char const *argv[])
 144:../../source/src/kernel/OS_CORE/module.c **** {
 1147              		.loc 4 144 0
 1148              		.cfi_startproc
 1149              		@ args = 0, pretend = 0, frame = 24
 1150              		@ frame_needed = 1, uses_anonymous_args = 0
 1151 0428 80B5     		push	{r7, lr}
 1152              	.LCFI73:
 1153              		.cfi_def_cfa_offset 8
 1154              		.cfi_offset 7, -8
 1155              		.cfi_offset 14, -4
 1156 042a 86B0     		sub	sp, sp, #24
 1157              	.LCFI74:
 1158              		.cfi_def_cfa_offset 32
 1159 042c 00AF     		add	r7, sp, #0
 1160              	.LCFI75:
 1161              		.cfi_def_cfa_register 7
 1162 042e 7860     		str	r0, [r7, #4]
 1163 0430 3960     		str	r1, [r7]
 145:../../source/src/kernel/OS_CORE/module.c ****     if(argc < 2)
 1164              		.loc 4 145 0
 1165 0432 7B68     		ldr	r3, [r7, #4]
 1166 0434 012B     		cmp	r3, #1
 1167 0436 2ADD     		ble	.L65
 146:../../source/src/kernel/OS_CORE/module.c ****     {
 147:../../source/src/kernel/OS_CORE/module.c ****         goto out;
 148:../../source/src/kernel/OS_CORE/module.c ****     }
 149:../../source/src/kernel/OS_CORE/module.c ****     char *para = get_para_add(argc,argv,"-name=");
 1168              		.loc 4 149 0
 1169 0438 1A4A     		ldr	r2, .L67
 1170 043a 3968     		ldr	r1, [r7]
 1171 043c 7868     		ldr	r0, [r7, #4]
 1172 043e FFF7FEFF 		bl	get_para_add
 1173 0442 3861     		str	r0, [r7, #16]
 150:../../source/src/kernel/OS_CORE/module.c ****     if(NULL == para)
 1174              		.loc 4 150 0
 1175 0444 3B69     		ldr	r3, [r7, #16]
 1176 0446 002B     		cmp	r3, #0
 1177 0448 23D0     		beq	.L66
 1178              	.LBB14:
 151:../../source/src/kernel/OS_CORE/module.c ****     {
 152:../../source/src/kernel/OS_CORE/module.c ****         goto out;
 153:../../source/src/kernel/OS_CORE/module.c ****     }
 154:../../source/src/kernel/OS_CORE/module.c ****     struct dynamic_module *dynamic_module_ptr;
ARM GAS  G:\Users\Jaxb\AppData\Local\Temp\ccWBP0T4.s 			page 30


 155:../../source/src/kernel/OS_CORE/module.c ****     list_for_each_entry(dynamic_module_ptr,&module_list_head,module_list)
 1179              		.loc 4 155 0
 1180 044a 174B     		ldr	r3, .L67+4
 1181 044c 1B68     		ldr	r3, [r3]
 1182 044e FB60     		str	r3, [r7, #12]
 1183 0450 FB68     		ldr	r3, [r7, #12]
 1184 0452 203B     		subs	r3, r3, #32
 1185              	.LBE14:
 1186 0454 7B61     		str	r3, [r7, #20]
 1187 0456 11E0     		b	.L61
 1188              	.L64:
 156:../../source/src/kernel/OS_CORE/module.c ****     {
 157:../../source/src/kernel/OS_CORE/module.c ****         if(0 == ka_strcmp(para,dynamic_module_ptr->name))
 1189              		.loc 4 157 0
 1190 0458 7B69     		ldr	r3, [r7, #20]
 1191 045a 1946     		mov	r1, r3
 1192 045c 3869     		ldr	r0, [r7, #16]
 1193 045e FFF7FEFF 		bl	ka_strcmp
 1194 0462 0346     		mov	r3, r0
 1195 0464 002B     		cmp	r3, #0
 1196 0466 03D1     		bne	.L62
 158:../../source/src/kernel/OS_CORE/module.c ****         {
 159:../../source/src/kernel/OS_CORE/module.c ****             remove_module(dynamic_module_ptr);
 1197              		.loc 4 159 0
 1198 0468 7869     		ldr	r0, [r7, #20]
 1199 046a FFF7FEFF 		bl	remove_module
 160:../../source/src/kernel/OS_CORE/module.c ****             return ;
 1200              		.loc 4 160 0
 1201 046e 15E0     		b	.L57
 1202              	.L62:
 1203              	.LBB15:
 155:../../source/src/kernel/OS_CORE/module.c ****     {
 1204              		.loc 4 155 0 discriminator 2
 1205 0470 7B69     		ldr	r3, [r7, #20]
 1206 0472 1B6A     		ldr	r3, [r3, #32]
 1207 0474 BB60     		str	r3, [r7, #8]
 1208 0476 BB68     		ldr	r3, [r7, #8]
 1209 0478 203B     		subs	r3, r3, #32
 1210              	.LBE15:
 1211 047a 7B61     		str	r3, [r7, #20]
 1212              	.L61:
 155:../../source/src/kernel/OS_CORE/module.c ****     {
 1213              		.loc 4 155 0 is_stmt 0 discriminator 1
 1214 047c 7B69     		ldr	r3, [r7, #20]
 1215 047e 2033     		adds	r3, r3, #32
 1216 0480 094A     		ldr	r2, .L67+4
 1217 0482 9342     		cmp	r3, r2
 1218 0484 E8D1     		bne	.L64
 161:../../source/src/kernel/OS_CORE/module.c ****         }
 162:../../source/src/kernel/OS_CORE/module.c ****     }
 163:../../source/src/kernel/OS_CORE/module.c ****     ka_printf("invalid module name\n");
 1219              		.loc 4 163 0 is_stmt 1
 1220 0486 0948     		ldr	r0, .L67+8
 1221 0488 FFF7FEFF 		bl	ka_printf
 164:../../source/src/kernel/OS_CORE/module.c ****     return ;
 1222              		.loc 4 164 0
 1223 048c 06E0     		b	.L57
ARM GAS  G:\Users\Jaxb\AppData\Local\Temp\ccWBP0T4.s 			page 31


 1224              	.L65:
 147:../../source/src/kernel/OS_CORE/module.c ****     }
 1225              		.loc 4 147 0
 1226 048e 00BF     		nop
 1227 0490 00E0     		b	.L59
 1228              	.L66:
 152:../../source/src/kernel/OS_CORE/module.c ****     }
 1229              		.loc 4 152 0
 1230 0492 00BF     		nop
 1231              	.L59:
 165:../../source/src/kernel/OS_CORE/module.c **** out:
 166:../../source/src/kernel/OS_CORE/module.c ****     ka_printf("please input module name\n");
 1232              		.loc 4 166 0
 1233 0494 0648     		ldr	r0, .L67+12
 1234 0496 FFF7FEFF 		bl	ka_printf
 167:../../source/src/kernel/OS_CORE/module.c ****     return ;
 1235              		.loc 4 167 0
 1236 049a 00BF     		nop
 1237              	.L57:
 168:../../source/src/kernel/OS_CORE/module.c **** }
 1238              		.loc 4 168 0
 1239 049c 1837     		adds	r7, r7, #24
 1240              	.LCFI76:
 1241              		.cfi_def_cfa_offset 8
 1242 049e BD46     		mov	sp, r7
 1243              	.LCFI77:
 1244              		.cfi_def_cfa_register 13
 1245              		@ sp needed
 1246 04a0 80BD     		pop	{r7, pc}
 1247              	.L68:
 1248 04a2 00BF     		.align	2
 1249              	.L67:
 1250 04a4 40010000 		.word	.LC16
 1251 04a8 08000000 		.word	module_list_head
 1252 04ac 48010000 		.word	.LC17
 1253 04b0 60010000 		.word	.LC18
 1254              		.cfi_endproc
 1255              	.LFE18:
 1256              		.size	shell_remove_module, .-shell_remove_module
 1257              		.section	.rodata
 1258 017a 0000     		.align	2
 1259              	.LC19:
 1260 017c 72656D6F 		.ascii	"remove module name is %s\012\000"
 1260      7665206D 
 1260      6F64756C 
 1260      65206E61 
 1260      6D652069 
 1261              		.text
 1262              		.align	1
 1263              		.syntax unified
 1264              		.thumb
 1265              		.thumb_func
 1266              		.fpu softvfp
 1267              		.type	_remove_a_module, %function
 1268              	_remove_a_module:
 1269              	.LFB19:
 169:../../source/src/kernel/OS_CORE/module.c **** 
ARM GAS  G:\Users\Jaxb\AppData\Local\Temp\ccWBP0T4.s 			page 32


 170:../../source/src/kernel/OS_CORE/module.c **** static int _remove_a_module(struct dynamic_module *dynamic_module_ptr)
 171:../../source/src/kernel/OS_CORE/module.c **** {
 1270              		.loc 4 171 0
 1271              		.cfi_startproc
 1272              		@ args = 0, pretend = 0, frame = 16
 1273              		@ frame_needed = 1, uses_anonymous_args = 0
 1274 04b4 80B5     		push	{r7, lr}
 1275              	.LCFI78:
 1276              		.cfi_def_cfa_offset 8
 1277              		.cfi_offset 7, -8
 1278              		.cfi_offset 14, -4
 1279 04b6 84B0     		sub	sp, sp, #16
 1280              	.LCFI79:
 1281              		.cfi_def_cfa_offset 24
 1282 04b8 00AF     		add	r7, sp, #0
 1283              	.LCFI80:
 1284              		.cfi_def_cfa_register 7
 1285 04ba 7860     		str	r0, [r7, #4]
 172:../../source/src/kernel/OS_CORE/module.c ****     ASSERT(NULL != dynamic_module_ptr);
 1286              		.loc 4 172 0
 1287 04bc 7B68     		ldr	r3, [r7, #4]
 1288 04be 002B     		cmp	r3, #0
 1289 04c0 03D1     		bne	.L70
 1290              		.loc 4 172 0 is_stmt 0 discriminator 1
 1291 04c2 AC21     		movs	r1, #172
 1292 04c4 2648     		ldr	r0, .L77
 1293 04c6 FFF7FEFF 		bl	_ASSERT
 1294              	.L70:
 173:../../source/src/kernel/OS_CORE/module.c ****     PRINTF("remove module name is %s\n",dynamic_module_ptr->name);
 1295              		.loc 4 173 0 is_stmt 1
 1296 04ca 7B68     		ldr	r3, [r7, #4]
 1297 04cc 1946     		mov	r1, r3
 1298 04ce 2548     		ldr	r0, .L77+4
 1299 04d0 FFF7FEFF 		bl	ka_printf
 174:../../source/src/kernel/OS_CORE/module.c ****     CPU_SR_ALLOC();
 1300              		.loc 4 174 0
 1301 04d4 0023     		movs	r3, #0
 1302 04d6 BB60     		str	r3, [r7, #8]
 175:../../source/src/kernel/OS_CORE/module.c ****     CPU_CRITICAL_ENTER();
 1303              		.loc 4 175 0
 1304 04d8 FFF7FEFF 		bl	CPU_SR_Save
 1305 04dc B860     		str	r0, [r7, #8]
 176:../../source/src/kernel/OS_CORE/module.c ****     if(MODULE_STATE_RUN == dynamic_module_ptr->module_state)
 1306              		.loc 4 176 0
 1307 04de 7B68     		ldr	r3, [r7, #4]
 1308 04e0 9B6A     		ldr	r3, [r3, #40]
 1309 04e2 022B     		cmp	r3, #2
 1310 04e4 0CD1     		bne	.L71
 177:../../source/src/kernel/OS_CORE/module.c ****     {
 178:../../source/src/kernel/OS_CORE/module.c ****         ASSERT(dynamic_module_ptr->thread_TCB_ptr);
 1311              		.loc 4 178 0
 1312 04e6 7B68     		ldr	r3, [r7, #4]
 1313 04e8 5B6D     		ldr	r3, [r3, #84]
 1314 04ea 002B     		cmp	r3, #0
 1315 04ec 03D1     		bne	.L72
 1316              		.loc 4 178 0 is_stmt 0 discriminator 1
 1317 04ee B221     		movs	r1, #178
ARM GAS  G:\Users\Jaxb\AppData\Local\Temp\ccWBP0T4.s 			page 33


 1318 04f0 1B48     		ldr	r0, .L77
 1319 04f2 FFF7FEFF 		bl	_ASSERT
 1320              	.L72:
 179:../../source/src/kernel/OS_CORE/module.c ****         task_delete(dynamic_module_ptr->thread_TCB_ptr);
 1321              		.loc 4 179 0 is_stmt 1
 1322 04f6 7B68     		ldr	r3, [r7, #4]
 1323 04f8 5B6D     		ldr	r3, [r3, #84]
 1324 04fa 1846     		mov	r0, r3
 1325 04fc FFF7FEFF 		bl	task_delete
 1326              	.L71:
 180:../../source/src/kernel/OS_CORE/module.c ****     }
 181:../../source/src/kernel/OS_CORE/module.c ****     if(dynamic_module_ptr->exit)
 1327              		.loc 4 181 0
 1328 0500 7B68     		ldr	r3, [r7, #4]
 1329 0502 1B6B     		ldr	r3, [r3, #48]
 1330 0504 002B     		cmp	r3, #0
 1331 0506 02D0     		beq	.L73
 182:../../source/src/kernel/OS_CORE/module.c ****     {
 183:../../source/src/kernel/OS_CORE/module.c ****         dynamic_module_ptr->exit();
 1332              		.loc 4 183 0
 1333 0508 7B68     		ldr	r3, [r7, #4]
 1334 050a 1B6B     		ldr	r3, [r3, #48]
 1335 050c 9847     		blx	r3
 1336              	.LVL0:
 1337              	.L73:
 184:../../source/src/kernel/OS_CORE/module.c ****     }
 185:../../source/src/kernel/OS_CORE/module.c ****     unsigned int i;
 186:../../source/src/kernel/OS_CORE/module.c ****     for(i=0;i<dynamic_module_ptr->export_symbols_num;++i)
 1338              		.loc 4 186 0
 1339 050e 0023     		movs	r3, #0
 1340 0510 FB60     		str	r3, [r7, #12]
 1341 0512 0BE0     		b	.L74
 1342              	.L75:
 187:../../source/src/kernel/OS_CORE/module.c ****     {
 188:../../source/src/kernel/OS_CORE/module.c ****         ka_free((void *)dynamic_module_ptr->export_symbols_array[i].name);
 1343              		.loc 4 188 0 discriminator 3
 1344 0514 7B68     		ldr	r3, [r7, #4]
 1345 0516 9A6C     		ldr	r2, [r3, #72]
 1346 0518 FB68     		ldr	r3, [r7, #12]
 1347 051a DB00     		lsls	r3, r3, #3
 1348 051c 1344     		add	r3, r3, r2
 1349 051e 5B68     		ldr	r3, [r3, #4]
 1350 0520 1846     		mov	r0, r3
 1351 0522 FFF7FEFF 		bl	ka_free
 186:../../source/src/kernel/OS_CORE/module.c ****     {
 1352              		.loc 4 186 0 discriminator 3
 1353 0526 FB68     		ldr	r3, [r7, #12]
 1354 0528 0133     		adds	r3, r3, #1
 1355 052a FB60     		str	r3, [r7, #12]
 1356              	.L74:
 186:../../source/src/kernel/OS_CORE/module.c ****     {
 1357              		.loc 4 186 0 is_stmt 0 discriminator 1
 1358 052c 7B68     		ldr	r3, [r7, #4]
 1359 052e DB6C     		ldr	r3, [r3, #76]
 1360 0530 FA68     		ldr	r2, [r7, #12]
 1361 0532 9A42     		cmp	r2, r3
 1362 0534 EED3     		bcc	.L75
ARM GAS  G:\Users\Jaxb\AppData\Local\Temp\ccWBP0T4.s 			page 34


 189:../../source/src/kernel/OS_CORE/module.c ****     }
 190:../../source/src/kernel/OS_CORE/module.c ****     ka_free(dynamic_module_ptr->module_space);
 1363              		.loc 4 190 0 is_stmt 1
 1364 0536 7B68     		ldr	r3, [r7, #4]
 1365 0538 5B6B     		ldr	r3, [r3, #52]
 1366 053a 1846     		mov	r0, r3
 1367 053c FFF7FEFF 		bl	ka_free
 191:../../source/src/kernel/OS_CORE/module.c ****     list_del(&dynamic_module_ptr->module_list);
 1368              		.loc 4 191 0
 1369 0540 7B68     		ldr	r3, [r7, #4]
 1370 0542 2033     		adds	r3, r3, #32
 1371 0544 1846     		mov	r0, r3
 1372 0546 FFF7A1FD 		bl	list_del
 192:../../source/src/kernel/OS_CORE/module.c ****     ka_free(dynamic_module_ptr);
 1373              		.loc 4 192 0
 1374 054a 7868     		ldr	r0, [r7, #4]
 1375 054c FFF7FEFF 		bl	ka_free
 193:../../source/src/kernel/OS_CORE/module.c ****     CPU_CRITICAL_EXIT();
 1376              		.loc 4 193 0
 1377 0550 B868     		ldr	r0, [r7, #8]
 1378 0552 FFF7FEFF 		bl	CPU_SR_Restore
 194:../../source/src/kernel/OS_CORE/module.c ****     return FUN_EXECUTE_SUCCESSFULLY;
 1379              		.loc 4 194 0
 1380 0556 0023     		movs	r3, #0
 195:../../source/src/kernel/OS_CORE/module.c **** }
 1381              		.loc 4 195 0
 1382 0558 1846     		mov	r0, r3
 1383 055a 1037     		adds	r7, r7, #16
 1384              	.LCFI81:
 1385              		.cfi_def_cfa_offset 8
 1386 055c BD46     		mov	sp, r7
 1387              	.LCFI82:
 1388              		.cfi_def_cfa_register 13
 1389              		@ sp needed
 1390 055e 80BD     		pop	{r7, pc}
 1391              	.L78:
 1392              		.align	2
 1393              	.L77:
 1394 0560 3C000000 		.word	.LC3
 1395 0564 7C010000 		.word	.LC19
 1396              		.cfi_endproc
 1397              	.LFE19:
 1398              		.size	_remove_a_module, .-_remove_a_module
 1399              		.section	.rodata
 1400 0196 0000     		.align	2
 1401              	.LC20:
 1402 0198 6572726F 		.ascii	"error fun name : remove_module\012error para : dyna"
 1402      72206675 
 1402      6E206E61 
 1402      6D65203A 
 1402      2072656D 
 1403 01c8 6D69635F 		.ascii	"mic_module_ptr\012\000"
 1403      6D6F6475 
 1403      6C655F70 
 1403      74720A00 
 1404              		.text
 1405              		.align	1
ARM GAS  G:\Users\Jaxb\AppData\Local\Temp\ccWBP0T4.s 			page 35


 1406              		.global	remove_module
 1407              		.syntax unified
 1408              		.thumb
 1409              		.thumb_func
 1410              		.fpu softvfp
 1411              		.type	remove_module, %function
 1412              	remove_module:
 1413              	.LFB20:
 196:../../source/src/kernel/OS_CORE/module.c **** 
 197:../../source/src/kernel/OS_CORE/module.c **** int remove_module(struct dynamic_module *dynamic_module_ptr)
 198:../../source/src/kernel/OS_CORE/module.c **** {
 1414              		.loc 4 198 0
 1415              		.cfi_startproc
 1416              		@ args = 0, pretend = 0, frame = 8
 1417              		@ frame_needed = 1, uses_anonymous_args = 0
 1418 0568 80B5     		push	{r7, lr}
 1419              	.LCFI83:
 1420              		.cfi_def_cfa_offset 8
 1421              		.cfi_offset 7, -8
 1422              		.cfi_offset 14, -4
 1423 056a 82B0     		sub	sp, sp, #8
 1424              	.LCFI84:
 1425              		.cfi_def_cfa_offset 16
 1426 056c 00AF     		add	r7, sp, #0
 1427              	.LCFI85:
 1428              		.cfi_def_cfa_register 7
 1429 056e 7860     		str	r0, [r7, #4]
 199:../../source/src/kernel/OS_CORE/module.c ****     if(NULL == dynamic_module_ptr)
 1430              		.loc 4 199 0
 1431 0570 7B68     		ldr	r3, [r7, #4]
 1432 0572 002B     		cmp	r3, #0
 1433 0574 05D1     		bne	.L80
 200:../../source/src/kernel/OS_CORE/module.c ****     {
 201:../../source/src/kernel/OS_CORE/module.c ****         OS_ERROR_PARA_MESSAGE_DISPLAY(remove_module,dynamic_module_ptr);
 1434              		.loc 4 201 0
 1435 0576 0748     		ldr	r0, .L82
 1436 0578 FFF7FEFF 		bl	ka_printf
 202:../../source/src/kernel/OS_CORE/module.c ****         return -ERROR_NULL_INPUT_PTR;
 1437              		.loc 4 202 0
 1438 057c 6FF0FE03 		mvn	r3, #254
 1439 0580 03E0     		b	.L81
 1440              	.L80:
 203:../../source/src/kernel/OS_CORE/module.c ****     }
 204:../../source/src/kernel/OS_CORE/module.c ****     return _remove_a_module(dynamic_module_ptr);
 1441              		.loc 4 204 0
 1442 0582 7868     		ldr	r0, [r7, #4]
 1443 0584 FFF796FF 		bl	_remove_a_module
 1444 0588 0346     		mov	r3, r0
 1445              	.L81:
 205:../../source/src/kernel/OS_CORE/module.c **** }
 1446              		.loc 4 205 0
 1447 058a 1846     		mov	r0, r3
 1448 058c 0837     		adds	r7, r7, #8
 1449              	.LCFI86:
 1450              		.cfi_def_cfa_offset 8
 1451 058e BD46     		mov	sp, r7
 1452              	.LCFI87:
ARM GAS  G:\Users\Jaxb\AppData\Local\Temp\ccWBP0T4.s 			page 36


 1453              		.cfi_def_cfa_register 13
 1454              		@ sp needed
 1455 0590 80BD     		pop	{r7, pc}
 1456              	.L83:
 1457 0592 00BF     		.align	2
 1458              	.L82:
 1459 0594 98010000 		.word	.LC20
 1460              		.cfi_endproc
 1461              	.LFE20:
 1462              		.size	remove_module, .-remove_module
 1463              		.section	.rodata
 1464              		.align	2
 1465              	.LC21:
 1466 01d8 4D6F6475 		.ascii	"Module: Only Thumb addresses allowed\012\000"
 1466      6C653A20 
 1466      4F6E6C79 
 1466      20546875 
 1466      6D622061 
 1467              		.text
 1468              		.align	1
 1469              		.syntax unified
 1470              		.thumb
 1471              		.thumb_func
 1472              		.fpu softvfp
 1473              		.type	dlmodule_relocate, %function
 1474              	dlmodule_relocate:
 1475              	.LFB21:
 206:../../source/src/kernel/OS_CORE/module.c **** 
 207:../../source/src/kernel/OS_CORE/module.c **** static int dlmodule_relocate(struct dynamic_module *module, Elf32_Rel *rel, Elf32_Addr sym_val)
 208:../../source/src/kernel/OS_CORE/module.c **** {
 1476              		.loc 4 208 0
 1477              		.cfi_startproc
 1478              		@ args = 0, pretend = 0, frame = 56
 1479              		@ frame_needed = 1, uses_anonymous_args = 0
 1480 0598 80B5     		push	{r7, lr}
 1481              	.LCFI88:
 1482              		.cfi_def_cfa_offset 8
 1483              		.cfi_offset 7, -8
 1484              		.cfi_offset 14, -4
 1485 059a 8EB0     		sub	sp, sp, #56
 1486              	.LCFI89:
 1487              		.cfi_def_cfa_offset 64
 1488 059c 00AF     		add	r7, sp, #0
 1489              	.LCFI90:
 1490              		.cfi_def_cfa_register 7
 1491 059e F860     		str	r0, [r7, #12]
 1492 05a0 B960     		str	r1, [r7, #8]
 1493 05a2 7A60     		str	r2, [r7, #4]
 209:../../source/src/kernel/OS_CORE/module.c ****     Elf32_Addr *where, tmp;
 210:../../source/src/kernel/OS_CORE/module.c ****     Elf32_Sword addend, offset;
 211:../../source/src/kernel/OS_CORE/module.c ****     UINT32 upper, lower, sign, j1, j2;
 212:../../source/src/kernel/OS_CORE/module.c **** 
 213:../../source/src/kernel/OS_CORE/module.c ****     where = (Elf32_Addr *)((UINT8 *)module->module_space
 1494              		.loc 4 213 0
 1495 05a4 FB68     		ldr	r3, [r7, #12]
 1496 05a6 5A6B     		ldr	r2, [r3, #52]
 214:../../source/src/kernel/OS_CORE/module.c ****                            + rel->r_offset
ARM GAS  G:\Users\Jaxb\AppData\Local\Temp\ccWBP0T4.s 			page 37


 1497              		.loc 4 214 0
 1498 05a8 BB68     		ldr	r3, [r7, #8]
 1499 05aa 1968     		ldr	r1, [r3]
 215:../../source/src/kernel/OS_CORE/module.c ****                            - module->vstart_addr);
 1500              		.loc 4 215 0
 1501 05ac FB68     		ldr	r3, [r7, #12]
 1502 05ae 5B6C     		ldr	r3, [r3, #68]
 1503 05b0 CB1A     		subs	r3, r1, r3
 213:../../source/src/kernel/OS_CORE/module.c ****                            + rel->r_offset
 1504              		.loc 4 213 0
 1505 05b2 1344     		add	r3, r3, r2
 1506 05b4 FB62     		str	r3, [r7, #44]
 216:../../source/src/kernel/OS_CORE/module.c ****     switch (ELF32_R_TYPE(rel->r_info))
 1507              		.loc 4 216 0
 1508 05b6 BB68     		ldr	r3, [r7, #8]
 1509 05b8 5B68     		ldr	r3, [r3, #4]
 1510 05ba DBB2     		uxtb	r3, r3
 1511 05bc 282B     		cmp	r3, #40
 1512 05be 00F25A81 		bhi	.L85
 1513 05c2 01A2     		adr	r2, .L87
 1514 05c4 52F823F0 		ldr	pc, [r2, r3, lsl #2]
 1515              		.p2align 2
 1516              	.L87:
 1517 05c8 7D080000 		.word	.L105+1
 1518 05cc 7B060000 		.word	.L88+1
 1519 05d0 6D060000 		.word	.L89+1
 1520 05d4 C1060000 		.word	.L90+1
 1521 05d8 77080000 		.word	.L85+1
 1522 05dc 77080000 		.word	.L85+1
 1523 05e0 77080000 		.word	.L85+1
 1524 05e4 77080000 		.word	.L85+1
 1525 05e8 77080000 		.word	.L85+1
 1526 05ec 77080000 		.word	.L85+1
 1527 05f0 07070000 		.word	.L91+1
 1528 05f4 77080000 		.word	.L85+1
 1529 05f8 77080000 		.word	.L85+1
 1530 05fc 77080000 		.word	.L85+1
 1531 0600 77080000 		.word	.L85+1
 1532 0604 77080000 		.word	.L85+1
 1533 0608 77080000 		.word	.L85+1
 1534 060c 77080000 		.word	.L85+1
 1535 0610 77080000 		.word	.L85+1
 1536 0614 77080000 		.word	.L85+1
 1537 0618 77080000 		.word	.L85+1
 1538 061c F1060000 		.word	.L92+1
 1539 0620 F1060000 		.word	.L92+1
 1540 0624 F9060000 		.word	.L93+1
 1541 0628 77080000 		.word	.L85+1
 1542 062c 77080000 		.word	.L85+1
 1543 0630 77080000 		.word	.L85+1
 1544 0634 7B060000 		.word	.L88+1
 1545 0638 7B060000 		.word	.L88+1
 1546 063c 7B060000 		.word	.L88+1
 1547 0640 07070000 		.word	.L91+1
 1548 0644 77080000 		.word	.L85+1
 1549 0648 77080000 		.word	.L85+1
 1550 064c 77080000 		.word	.L85+1
ARM GAS  G:\Users\Jaxb\AppData\Local\Temp\ccWBP0T4.s 			page 38


 1551 0650 77080000 		.word	.L85+1
 1552 0654 77080000 		.word	.L85+1
 1553 0658 77080000 		.word	.L85+1
 1554 065c 77080000 		.word	.L85+1
 1555 0660 77080000 		.word	.L85+1
 1556 0664 77080000 		.word	.L85+1
 1557 0668 D3060000 		.word	.L94+1
 1558              		.p2align 1
 1559              	.L89:
 217:../../source/src/kernel/OS_CORE/module.c ****     {
 218:../../source/src/kernel/OS_CORE/module.c ****     case R_ARM_NONE:
 219:../../source/src/kernel/OS_CORE/module.c ****         break;
 220:../../source/src/kernel/OS_CORE/module.c ****     case R_ARM_ABS32:
 221:../../source/src/kernel/OS_CORE/module.c ****         *where += (Elf32_Addr)sym_val;
 1560              		.loc 4 221 0
 1561 066c FB6A     		ldr	r3, [r7, #44]
 1562 066e 1A68     		ldr	r2, [r3]
 1563 0670 7B68     		ldr	r3, [r7, #4]
 1564 0672 1A44     		add	r2, r2, r3
 1565 0674 FB6A     		ldr	r3, [r7, #44]
 1566 0676 1A60     		str	r2, [r3]
 222:../../source/src/kernel/OS_CORE/module.c ****         /*ka_printf("R_ARM_ABS32: %x -> %x\n",
 223:../../source/src/kernel/OS_CORE/module.c ****                   where, *where);*/
 224:../../source/src/kernel/OS_CORE/module.c ****         break;
 1567              		.loc 4 224 0
 1568 0678 01E1     		b	.L95
 1569              	.L88:
 225:../../source/src/kernel/OS_CORE/module.c ****     case R_ARM_PC24:
 226:../../source/src/kernel/OS_CORE/module.c ****     case R_ARM_PLT32:
 227:../../source/src/kernel/OS_CORE/module.c ****     case R_ARM_CALL:
 228:../../source/src/kernel/OS_CORE/module.c ****     case R_ARM_JUMP24:
 229:../../source/src/kernel/OS_CORE/module.c ****         addend = *where & 0x00ffffff;
 1570              		.loc 4 229 0
 1571 067a FB6A     		ldr	r3, [r7, #44]
 1572 067c 1B68     		ldr	r3, [r3]
 1573 067e 23F07F43 		bic	r3, r3, #-16777216
 1574 0682 7B63     		str	r3, [r7, #52]
 230:../../source/src/kernel/OS_CORE/module.c ****         if (addend & 0x00800000)
 1575              		.loc 4 230 0
 1576 0684 7B6B     		ldr	r3, [r7, #52]
 1577 0686 03F40003 		and	r3, r3, #8388608
 1578 068a 002B     		cmp	r3, #0
 1579 068c 03D0     		beq	.L96
 231:../../source/src/kernel/OS_CORE/module.c ****             addend |= 0xff000000;
 1580              		.loc 4 231 0
 1581 068e 7B6B     		ldr	r3, [r7, #52]
 1582 0690 43F07F43 		orr	r3, r3, #-16777216
 1583 0694 7B63     		str	r3, [r7, #52]
 1584              	.L96:
 232:../../source/src/kernel/OS_CORE/module.c ****         tmp = sym_val - (Elf32_Addr)where + (addend << 2);
 1585              		.loc 4 232 0
 1586 0696 FB6A     		ldr	r3, [r7, #44]
 1587 0698 7A68     		ldr	r2, [r7, #4]
 1588 069a D31A     		subs	r3, r2, r3
 1589 069c 7A6B     		ldr	r2, [r7, #52]
 1590 069e 9200     		lsls	r2, r2, #2
 1591 06a0 1344     		add	r3, r3, r2
ARM GAS  G:\Users\Jaxb\AppData\Local\Temp\ccWBP0T4.s 			page 39


 1592 06a2 7B61     		str	r3, [r7, #20]
 233:../../source/src/kernel/OS_CORE/module.c ****         tmp >>= 2;
 1593              		.loc 4 233 0
 1594 06a4 7B69     		ldr	r3, [r7, #20]
 1595 06a6 9B08     		lsrs	r3, r3, #2
 1596 06a8 7B61     		str	r3, [r7, #20]
 234:../../source/src/kernel/OS_CORE/module.c ****         *where = (*where & 0xff000000) | (tmp & 0x00ffffff);
 1597              		.loc 4 234 0
 1598 06aa FB6A     		ldr	r3, [r7, #44]
 1599 06ac 1B68     		ldr	r3, [r3]
 1600 06ae 03F07F42 		and	r2, r3, #-16777216
 1601 06b2 7B69     		ldr	r3, [r7, #20]
 1602 06b4 23F07F43 		bic	r3, r3, #-16777216
 1603 06b8 1A43     		orrs	r2, r2, r3
 1604 06ba FB6A     		ldr	r3, [r7, #44]
 1605 06bc 1A60     		str	r2, [r3]
 235:../../source/src/kernel/OS_CORE/module.c ****         /*ka_printf("R_ARM_PC24: %x -> %x\n",
 236:../../source/src/kernel/OS_CORE/module.c ****                   where, *where);*/
 237:../../source/src/kernel/OS_CORE/module.c ****         break;
 1606              		.loc 4 237 0
 1607 06be DEE0     		b	.L95
 1608              	.L90:
 238:../../source/src/kernel/OS_CORE/module.c ****     case R_ARM_REL32:
 239:../../source/src/kernel/OS_CORE/module.c ****         *where += sym_val - (Elf32_Addr)where;
 1609              		.loc 4 239 0
 1610 06c0 FB6A     		ldr	r3, [r7, #44]
 1611 06c2 1A68     		ldr	r2, [r3]
 1612 06c4 FB6A     		ldr	r3, [r7, #44]
 1613 06c6 7968     		ldr	r1, [r7, #4]
 1614 06c8 CB1A     		subs	r3, r1, r3
 1615 06ca 1A44     		add	r2, r2, r3
 1616 06cc FB6A     		ldr	r3, [r7, #44]
 1617 06ce 1A60     		str	r2, [r3]
 240:../../source/src/kernel/OS_CORE/module.c ****         /*ka_printf("R_ARM_REL32: %x -> %x, sym %x, offset %x\n",
 241:../../source/src/kernel/OS_CORE/module.c ****                   where, *where, sym_val, rel->r_offset);*/
 242:../../source/src/kernel/OS_CORE/module.c ****         break;
 1618              		.loc 4 242 0
 1619 06d0 D5E0     		b	.L95
 1620              	.L94:
 243:../../source/src/kernel/OS_CORE/module.c ****     case R_ARM_V4BX:
 244:../../source/src/kernel/OS_CORE/module.c ****         *where &= 0xf000000f;
 1621              		.loc 4 244 0
 1622 06d2 FB6A     		ldr	r3, [r7, #44]
 1623 06d4 1A68     		ldr	r2, [r3]
 1624 06d6 6C4B     		ldr	r3, .L106
 1625 06d8 1340     		ands	r3, r3, r2
 1626 06da FA6A     		ldr	r2, [r7, #44]
 1627 06dc 1360     		str	r3, [r2]
 245:../../source/src/kernel/OS_CORE/module.c ****         *where |= 0x01a0f000;
 1628              		.loc 4 245 0
 1629 06de FB6A     		ldr	r3, [r7, #44]
 1630 06e0 1B68     		ldr	r3, [r3]
 1631 06e2 43F0D073 		orr	r3, r3, #27262976
 1632 06e6 43F47043 		orr	r3, r3, #61440
 1633 06ea FA6A     		ldr	r2, [r7, #44]
 1634 06ec 1360     		str	r3, [r2]
 246:../../source/src/kernel/OS_CORE/module.c ****         break;
ARM GAS  G:\Users\Jaxb\AppData\Local\Temp\ccWBP0T4.s 			page 40


 1635              		.loc 4 246 0
 1636 06ee C6E0     		b	.L95
 1637              	.L92:
 247:../../source/src/kernel/OS_CORE/module.c **** 
 248:../../source/src/kernel/OS_CORE/module.c ****     case R_ARM_GLOB_DAT:
 249:../../source/src/kernel/OS_CORE/module.c ****     case R_ARM_JUMP_SLOT:
 250:../../source/src/kernel/OS_CORE/module.c ****         *where = (Elf32_Addr)sym_val;
 1638              		.loc 4 250 0
 1639 06f0 FB6A     		ldr	r3, [r7, #44]
 1640 06f2 7A68     		ldr	r2, [r7, #4]
 1641 06f4 1A60     		str	r2, [r3]
 251:../../source/src/kernel/OS_CORE/module.c ****         /*ka_printf("R_ARM_JUMP_SLOT: 0x%x -> 0x%x 0x%x\n",
 252:../../source/src/kernel/OS_CORE/module.c ****                   where, *where, sym_val);*/
 253:../../source/src/kernel/OS_CORE/module.c ****         break;
 1642              		.loc 4 253 0
 1643 06f6 C2E0     		b	.L95
 1644              	.L93:
 254:../../source/src/kernel/OS_CORE/module.c **** #if 0        /* To do */
 255:../../source/src/kernel/OS_CORE/module.c ****     case R_ARM_GOT_BREL:
 256:../../source/src/kernel/OS_CORE/module.c ****         temp   = (Elf32_Addr)sym_val;
 257:../../source/src/kernel/OS_CORE/module.c ****         *where = (Elf32_Addr)&temp;
 258:../../source/src/kernel/OS_CORE/module.c ****         RT_DEBUG_LOG(RT_DEBUG_MODULE, ("R_ARM_GOT_BREL: 0x%x -> 0x%x 0x%x\n",
 259:../../source/src/kernel/OS_CORE/module.c ****                                        where, *where, sym_val));
 260:../../source/src/kernel/OS_CORE/module.c ****         break;
 261:../../source/src/kernel/OS_CORE/module.c **** #endif
 262:../../source/src/kernel/OS_CORE/module.c **** 
 263:../../source/src/kernel/OS_CORE/module.c ****     case R_ARM_RELATIVE:
 264:../../source/src/kernel/OS_CORE/module.c ****         *where = (Elf32_Addr)sym_val + *where;
 1645              		.loc 4 264 0
 1646 06f8 FB6A     		ldr	r3, [r7, #44]
 1647 06fa 1A68     		ldr	r2, [r3]
 1648 06fc 7B68     		ldr	r3, [r7, #4]
 1649 06fe 1A44     		add	r2, r2, r3
 1650 0700 FB6A     		ldr	r3, [r7, #44]
 1651 0702 1A60     		str	r2, [r3]
 265:../../source/src/kernel/OS_CORE/module.c ****         /*ka_printf("R_ARM_RELATIVE: 0x%x -> 0x%x 0x%x\n",
 266:../../source/src/kernel/OS_CORE/module.c ****                   where, *where, sym_val);*/
 267:../../source/src/kernel/OS_CORE/module.c ****         break;
 1652              		.loc 4 267 0
 1653 0704 BBE0     		b	.L95
 1654              	.L91:
 268:../../source/src/kernel/OS_CORE/module.c ****     case R_ARM_THM_CALL:
 269:../../source/src/kernel/OS_CORE/module.c ****     case R_ARM_THM_JUMP24:
 270:../../source/src/kernel/OS_CORE/module.c ****         upper  = *(UINT16 *)where;
 1655              		.loc 4 270 0
 1656 0706 FB6A     		ldr	r3, [r7, #44]
 1657 0708 1B88     		ldrh	r3, [r3]
 1658 070a BB62     		str	r3, [r7, #40]
 271:../../source/src/kernel/OS_CORE/module.c ****         lower  = *(UINT16 *)((Elf32_Addr)where + 2);
 1659              		.loc 4 271 0
 1660 070c FB6A     		ldr	r3, [r7, #44]
 1661 070e 0233     		adds	r3, r3, #2
 1662 0710 1B88     		ldrh	r3, [r3]
 1663 0712 7B62     		str	r3, [r7, #36]
 272:../../source/src/kernel/OS_CORE/module.c **** 
 273:../../source/src/kernel/OS_CORE/module.c ****         sign   = (upper >> 10) & 1;
 1664              		.loc 4 273 0
ARM GAS  G:\Users\Jaxb\AppData\Local\Temp\ccWBP0T4.s 			page 41


 1665 0714 BB6A     		ldr	r3, [r7, #40]
 1666 0716 9B0A     		lsrs	r3, r3, #10
 1667 0718 03F00103 		and	r3, r3, #1
 1668 071c 3B62     		str	r3, [r7, #32]
 274:../../source/src/kernel/OS_CORE/module.c ****         j1     = (lower >> 13) & 1;
 1669              		.loc 4 274 0
 1670 071e 7B6A     		ldr	r3, [r7, #36]
 1671 0720 5B0B     		lsrs	r3, r3, #13
 1672 0722 03F00103 		and	r3, r3, #1
 1673 0726 FB61     		str	r3, [r7, #28]
 275:../../source/src/kernel/OS_CORE/module.c ****         j2     = (lower >> 11) & 1;
 1674              		.loc 4 275 0
 1675 0728 7B6A     		ldr	r3, [r7, #36]
 1676 072a DB0A     		lsrs	r3, r3, #11
 1677 072c 03F00103 		and	r3, r3, #1
 1678 0730 BB61     		str	r3, [r7, #24]
 276:../../source/src/kernel/OS_CORE/module.c ****         offset = (sign << 24) |
 1679              		.loc 4 276 0
 1680 0732 3B6A     		ldr	r3, [r7, #32]
 1681 0734 1B06     		lsls	r3, r3, #24
 277:../../source/src/kernel/OS_CORE/module.c ****                  ((~(j1 ^ sign) & 1) << 23) |
 1682              		.loc 4 277 0
 1683 0736 F969     		ldr	r1, [r7, #28]
 1684 0738 3A6A     		ldr	r2, [r7, #32]
 1685 073a 4A40     		eors	r2, r2, r1
 1686 073c 02F00102 		and	r2, r2, #1
 1687 0740 002A     		cmp	r2, #0
 1688 0742 02D1     		bne	.L97
 1689              		.loc 4 277 0 is_stmt 0 discriminator 1
 1690 0744 4FF40002 		mov	r2, #8388608
 1691 0748 00E0     		b	.L98
 1692              	.L97:
 1693              		.loc 4 277 0 discriminator 2
 1694 074a 0022     		movs	r2, #0
 1695              	.L98:
 276:../../source/src/kernel/OS_CORE/module.c ****         offset = (sign << 24) |
 1696              		.loc 4 276 0 is_stmt 1
 1697 074c 1343     		orrs	r3, r3, r2
 278:../../source/src/kernel/OS_CORE/module.c ****                  ((~(j2 ^ sign) & 1) << 22) |
 1698              		.loc 4 278 0
 1699 074e B969     		ldr	r1, [r7, #24]
 1700 0750 3A6A     		ldr	r2, [r7, #32]
 1701 0752 4A40     		eors	r2, r2, r1
 1702 0754 02F00102 		and	r2, r2, #1
 1703 0758 002A     		cmp	r2, #0
 1704 075a 02D1     		bne	.L99
 1705              		.loc 4 278 0 is_stmt 0 discriminator 1
 1706 075c 4FF48002 		mov	r2, #4194304
 1707 0760 00E0     		b	.L100
 1708              	.L99:
 1709              		.loc 4 278 0 discriminator 2
 1710 0762 0022     		movs	r2, #0
 1711              	.L100:
 277:../../source/src/kernel/OS_CORE/module.c ****                  ((~(j1 ^ sign) & 1) << 23) |
 1712              		.loc 4 277 0 is_stmt 1
 1713 0764 1A43     		orrs	r2, r2, r3
 279:../../source/src/kernel/OS_CORE/module.c ****                  ((upper & 0x03ff) << 12) |
ARM GAS  G:\Users\Jaxb\AppData\Local\Temp\ccWBP0T4.s 			page 42


 1714              		.loc 4 279 0
 1715 0766 BB6A     		ldr	r3, [r7, #40]
 1716 0768 1903     		lsls	r1, r3, #12
 1717 076a 484B     		ldr	r3, .L106+4
 1718 076c 0B40     		ands	r3, r3, r1
 278:../../source/src/kernel/OS_CORE/module.c ****                  ((~(j2 ^ sign) & 1) << 22) |
 1719              		.loc 4 278 0
 1720 076e 1A43     		orrs	r2, r2, r3
 280:../../source/src/kernel/OS_CORE/module.c ****                  ((lower & 0x07ff) << 1);
 1721              		.loc 4 280 0
 1722 0770 7B6A     		ldr	r3, [r7, #36]
 1723 0772 5900     		lsls	r1, r3, #1
 1724 0774 40F6FE73 		movw	r3, #4094
 1725 0778 0B40     		ands	r3, r3, r1
 279:../../source/src/kernel/OS_CORE/module.c ****                  ((upper & 0x03ff) << 12) |
 1726              		.loc 4 279 0
 1727 077a 1343     		orrs	r3, r3, r2
 276:../../source/src/kernel/OS_CORE/module.c ****                  ((~(j1 ^ sign) & 1) << 23) |
 1728              		.loc 4 276 0
 1729 077c 3B63     		str	r3, [r7, #48]
 281:../../source/src/kernel/OS_CORE/module.c ****         if (offset & 0x01000000)
 1730              		.loc 4 281 0
 1731 077e 3B6B     		ldr	r3, [r7, #48]
 1732 0780 03F08073 		and	r3, r3, #16777216
 1733 0784 002B     		cmp	r3, #0
 1734 0786 03D0     		beq	.L101
 282:../../source/src/kernel/OS_CORE/module.c ****             offset -= 0x02000000;
 1735              		.loc 4 282 0
 1736 0788 3B6B     		ldr	r3, [r7, #48]
 1737 078a 03F17E43 		add	r3, r3, #-33554432
 1738 078e 3B63     		str	r3, [r7, #48]
 1739              	.L101:
 283:../../source/src/kernel/OS_CORE/module.c ****         offset += sym_val - (Elf32_Addr)where;
 1740              		.loc 4 283 0
 1741 0790 FB6A     		ldr	r3, [r7, #44]
 1742 0792 7A68     		ldr	r2, [r7, #4]
 1743 0794 D21A     		subs	r2, r2, r3
 1744 0796 3B6B     		ldr	r3, [r7, #48]
 1745 0798 1344     		add	r3, r3, r2
 1746 079a 3B63     		str	r3, [r7, #48]
 284:../../source/src/kernel/OS_CORE/module.c **** 
 285:../../source/src/kernel/OS_CORE/module.c ****         if (!(offset & 1) ||
 1747              		.loc 4 285 0
 1748 079c 3B6B     		ldr	r3, [r7, #48]
 1749 079e 03F00103 		and	r3, r3, #1
 1750 07a2 002B     		cmp	r3, #0
 1751 07a4 07D0     		beq	.L102
 1752              		.loc 4 285 0 is_stmt 0 discriminator 1
 1753 07a6 3B6B     		ldr	r3, [r7, #48]
 1754 07a8 B3F17F4F 		cmp	r3, #-16777216
 1755 07ac 03DD     		ble	.L102
 286:../../source/src/kernel/OS_CORE/module.c ****                 offset <= (INT32)0xff000000 ||
 1756              		.loc 4 286 0 is_stmt 1
 1757 07ae 3B6B     		ldr	r3, [r7, #48]
 1758 07b0 B3F1807F 		cmp	r3, #16777216
 1759 07b4 05DB     		blt	.L103
 1760              	.L102:
ARM GAS  G:\Users\Jaxb\AppData\Local\Temp\ccWBP0T4.s 			page 43


 287:../../source/src/kernel/OS_CORE/module.c ****                 offset >= (INT32)0x01000000)
 288:../../source/src/kernel/OS_CORE/module.c ****         {
 289:../../source/src/kernel/OS_CORE/module.c ****             ka_printf("Module: Only Thumb addresses allowed\n");
 1761              		.loc 4 289 0
 1762 07b6 3648     		ldr	r0, .L106+8
 1763 07b8 FFF7FEFF 		bl	ka_printf
 290:../../source/src/kernel/OS_CORE/module.c **** 
 291:../../source/src/kernel/OS_CORE/module.c ****             return -1;
 1764              		.loc 4 291 0
 1765 07bc 4FF0FF33 		mov	r3, #-1
 1766 07c0 5EE0     		b	.L104
 1767              	.L103:
 292:../../source/src/kernel/OS_CORE/module.c ****         }
 293:../../source/src/kernel/OS_CORE/module.c **** 
 294:../../source/src/kernel/OS_CORE/module.c ****         sign = (offset >> 24) & 1;
 1768              		.loc 4 294 0
 1769 07c2 3B6B     		ldr	r3, [r7, #48]
 1770 07c4 1B16     		asrs	r3, r3, #24
 1771 07c6 03F00103 		and	r3, r3, #1
 1772 07ca 3B62     		str	r3, [r7, #32]
 295:../../source/src/kernel/OS_CORE/module.c ****         j1   = sign ^ (~(offset >> 23) & 1);
 1773              		.loc 4 295 0
 1774 07cc 3B6B     		ldr	r3, [r7, #48]
 1775 07ce 03F40003 		and	r3, r3, #8388608
 1776 07d2 002B     		cmp	r3, #0
 1777 07d4 0CBF     		ite	eq
 1778 07d6 0123     		moveq	r3, #1
 1779 07d8 0023     		movne	r3, #0
 1780 07da DBB2     		uxtb	r3, r3
 1781 07dc 1A46     		mov	r2, r3
 1782 07de 3B6A     		ldr	r3, [r7, #32]
 1783 07e0 5340     		eors	r3, r3, r2
 1784 07e2 FB61     		str	r3, [r7, #28]
 296:../../source/src/kernel/OS_CORE/module.c ****         j2   = sign ^ (~(offset >> 22) & 1);
 1785              		.loc 4 296 0
 1786 07e4 3B6B     		ldr	r3, [r7, #48]
 1787 07e6 03F48003 		and	r3, r3, #4194304
 1788 07ea 002B     		cmp	r3, #0
 1789 07ec 0CBF     		ite	eq
 1790 07ee 0123     		moveq	r3, #1
 1791 07f0 0023     		movne	r3, #0
 1792 07f2 DBB2     		uxtb	r3, r3
 1793 07f4 1A46     		mov	r2, r3
 1794 07f6 3B6A     		ldr	r3, [r7, #32]
 1795 07f8 5340     		eors	r3, r3, r2
 1796 07fa BB61     		str	r3, [r7, #24]
 297:../../source/src/kernel/OS_CORE/module.c ****         *(UINT16 *)where = (UINT16)((upper & 0xf800) |
 1797              		.loc 4 297 0
 1798 07fc BB6A     		ldr	r3, [r7, #40]
 1799 07fe 9BB2     		uxth	r3, r3
 1800 0800 23F4FF63 		bic	r3, r3, #2040
 1801 0804 23F00703 		bic	r3, r3, #7
 1802 0808 9AB2     		uxth	r2, r3
 298:../../source/src/kernel/OS_CORE/module.c ****                                     (sign << 10) |
 1803              		.loc 4 298 0
 1804 080a 3B6A     		ldr	r3, [r7, #32]
 1805 080c 9BB2     		uxth	r3, r3
ARM GAS  G:\Users\Jaxb\AppData\Local\Temp\ccWBP0T4.s 			page 44


 1806 080e 9B02     		lsls	r3, r3, #10
 1807 0810 9BB2     		uxth	r3, r3
 297:../../source/src/kernel/OS_CORE/module.c ****         *(UINT16 *)where = (UINT16)((upper & 0xf800) |
 1808              		.loc 4 297 0
 1809 0812 1343     		orrs	r3, r3, r2
 1810 0814 9AB2     		uxth	r2, r3
 299:../../source/src/kernel/OS_CORE/module.c ****                                     ((offset >> 12) & 0x03ff));
 1811              		.loc 4 299 0
 1812 0816 3B6B     		ldr	r3, [r7, #48]
 1813 0818 1B13     		asrs	r3, r3, #12
 1814 081a 9BB2     		uxth	r3, r3
 1815 081c C3F30903 		ubfx	r3, r3, #0, #10
 1816 0820 9BB2     		uxth	r3, r3
 297:../../source/src/kernel/OS_CORE/module.c ****         *(UINT16 *)where = (UINT16)((upper & 0xf800) |
 1817              		.loc 4 297 0
 1818 0822 1343     		orrs	r3, r3, r2
 1819 0824 9AB2     		uxth	r2, r3
 1820 0826 FB6A     		ldr	r3, [r7, #44]
 1821 0828 1A80     		strh	r2, [r3]	@ movhi
 300:../../source/src/kernel/OS_CORE/module.c ****         *(UINT16 *)(where + 2) = (UINT16)((lower & 0xd000) |
 1822              		.loc 4 300 0
 1823 082a 7B6A     		ldr	r3, [r7, #36]
 1824 082c 9BB2     		uxth	r3, r3
 1825 082e 23F43F53 		bic	r3, r3, #12224
 1826 0832 23F03F03 		bic	r3, r3, #63
 1827 0836 9AB2     		uxth	r2, r3
 301:../../source/src/kernel/OS_CORE/module.c ****                                           (j1 << 13) | (j2 << 11) |
 1828              		.loc 4 301 0
 1829 0838 FB69     		ldr	r3, [r7, #28]
 1830 083a 9BB2     		uxth	r3, r3
 1831 083c 5B03     		lsls	r3, r3, #13
 1832 083e 9BB2     		uxth	r3, r3
 300:../../source/src/kernel/OS_CORE/module.c ****         *(UINT16 *)(where + 2) = (UINT16)((lower & 0xd000) |
 1833              		.loc 4 300 0
 1834 0840 1343     		orrs	r3, r3, r2
 1835 0842 9AB2     		uxth	r2, r3
 1836              		.loc 4 301 0
 1837 0844 BB69     		ldr	r3, [r7, #24]
 1838 0846 9BB2     		uxth	r3, r3
 1839 0848 DB02     		lsls	r3, r3, #11
 1840 084a 9BB2     		uxth	r3, r3
 1841 084c 1343     		orrs	r3, r3, r2
 1842 084e 99B2     		uxth	r1, r3
 302:../../source/src/kernel/OS_CORE/module.c ****                                           ((offset >> 1) & 0x07ff));
 1843              		.loc 4 302 0
 1844 0850 3B6B     		ldr	r3, [r7, #48]
 1845 0852 5B10     		asrs	r3, r3, #1
 1846 0854 9BB2     		uxth	r3, r3
 1847 0856 C3F30A03 		ubfx	r3, r3, #0, #11
 1848 085a 9AB2     		uxth	r2, r3
 300:../../source/src/kernel/OS_CORE/module.c ****         *(UINT16 *)(where + 2) = (UINT16)((lower & 0xd000) |
 1849              		.loc 4 300 0
 1850 085c FB6A     		ldr	r3, [r7, #44]
 1851 085e 0833     		adds	r3, r3, #8
 1852 0860 0A43     		orrs	r2, r2, r1
 1853 0862 92B2     		uxth	r2, r2
 1854 0864 1A80     		strh	r2, [r3]	@ movhi
ARM GAS  G:\Users\Jaxb\AppData\Local\Temp\ccWBP0T4.s 			page 45


 303:../../source/src/kernel/OS_CORE/module.c ****         upper = *(UINT16 *)where;
 1855              		.loc 4 303 0
 1856 0866 FB6A     		ldr	r3, [r7, #44]
 1857 0868 1B88     		ldrh	r3, [r3]
 1858 086a BB62     		str	r3, [r7, #40]
 304:../../source/src/kernel/OS_CORE/module.c ****         lower = *(UINT16 *)((Elf32_Addr)where + 2);
 1859              		.loc 4 304 0
 1860 086c FB6A     		ldr	r3, [r7, #44]
 1861 086e 0233     		adds	r3, r3, #2
 1862 0870 1B88     		ldrh	r3, [r3]
 1863 0872 7B62     		str	r3, [r7, #36]
 305:../../source/src/kernel/OS_CORE/module.c ****         break;
 1864              		.loc 4 305 0
 1865 0874 03E0     		b	.L95
 1866              	.L85:
 306:../../source/src/kernel/OS_CORE/module.c ****     default:
 307:../../source/src/kernel/OS_CORE/module.c ****         /*ka_printf("do nothing\n");*/
 308:../../source/src/kernel/OS_CORE/module.c ****         return -1;
 1867              		.loc 4 308 0
 1868 0876 4FF0FF33 		mov	r3, #-1
 1869 087a 01E0     		b	.L104
 1870              	.L105:
 219:../../source/src/kernel/OS_CORE/module.c ****     case R_ARM_ABS32:
 1871              		.loc 4 219 0
 1872 087c 00BF     		nop
 1873              	.L95:
 309:../../source/src/kernel/OS_CORE/module.c ****     }
 310:../../source/src/kernel/OS_CORE/module.c **** 
 311:../../source/src/kernel/OS_CORE/module.c ****     return 0;
 1874              		.loc 4 311 0
 1875 087e 0023     		movs	r3, #0
 1876              	.L104:
 312:../../source/src/kernel/OS_CORE/module.c **** }
 1877              		.loc 4 312 0
 1878 0880 1846     		mov	r0, r3
 1879 0882 3837     		adds	r7, r7, #56
 1880              	.LCFI91:
 1881              		.cfi_def_cfa_offset 8
 1882 0884 BD46     		mov	sp, r7
 1883              	.LCFI92:
 1884              		.cfi_def_cfa_register 13
 1885              		@ sp needed
 1886 0886 80BD     		pop	{r7, pc}
 1887              	.L107:
 1888              		.align	2
 1889              	.L106:
 1890 0888 0F0000F0 		.word	-268435441
 1891 088c 00F03F00 		.word	4190208
 1892 0890 D8010000 		.word	.LC21
 1893              		.cfi_endproc
 1894              	.LFE21:
 1895              		.size	dlmodule_relocate, .-dlmodule_relocate
 1896              		.section	.rodata
 1897 01fe 0000     		.align	2
 1898              	.LC22:
 1899 0200 4C4F4144 		.ascii	"LOAD segment: %d, 0x%p, 0x%x\012\000"
 1899      20736567 
ARM GAS  G:\Users\Jaxb\AppData\Local\Temp\ccWBP0T4.s 			page 46


 1899      6D656E74 
 1899      3A202564 
 1899      2C203078 
 1900 021e 0000     		.align	2
 1901              	.LC23:
 1902 0220 696E7661 		.ascii	"invalid elf: segment %d: p_memsz: %d, p_filesz: %d\012"
 1902      6C696420 
 1902      656C663A 
 1902      20736567 
 1902      6D656E74 
 1903 0253 00       		.ascii	"\000"
 1904              		.align	2
 1905              	.LC24:
 1906 0254 696E7661 		.ascii	"invalid elf: segment %d: p_vaddr: %d, p_memsz: %d\012"
 1906      6C696420 
 1906      656C663A 
 1906      20736567 
 1906      6D656E74 
 1907 0286 00       		.ascii	"\000"
 1908 0287 00       		.align	2
 1909              	.LC25:
 1910 0288 696E7661 		.ascii	"invalid elf: segment should be sorted and not overl"
 1910      6C696420 
 1910      656C663A 
 1910      20736567 
 1910      6D656E74 
 1911 02bb 61707065 		.ascii	"apped\012\000"
 1911      640A00
 1912 02c2 0000     		.align	2
 1913              	.LC26:
 1914 02c4 7761726E 		.ascii	"warning: too much padding before segment %d\012\000"
 1914      696E673A 
 1914      20746F6F 
 1914      206D7563 
 1914      68207061 
 1915 02f1 000000   		.align	2
 1916              	.LC27:
 1917 02f4 696E7661 		.ascii	"invalid elf: segment %d address overflow\012\000"
 1917      6C696420 
 1917      656C663A 
 1917      20736567 
 1917      6D656E74 
 1918 031e 0000     		.align	2
 1919              	.LC28:
 1920 0320 6D6F6475 		.ascii	"module size: %d, vstart_addr: 0x%p\012\000"
 1920      6C652073 
 1920      697A653A 
 1920      2025642C 
 1920      20767374 
 1921              		.align	2
 1922              	.LC29:
 1923 0344 4D6F6475 		.ascii	"Module: size error\012\000"
 1923      6C653A20 
 1923      73697A65 
 1923      20657272 
 1923      6F720A00 
 1924              		.align	2
ARM GAS  G:\Users\Jaxb\AppData\Local\Temp\ccWBP0T4.s 			page 47


 1925              	.LC30:
 1926 0358 4D6F6475 		.ascii	"Module: allocate space failed.\012\000"
 1926      6C653A20 
 1926      616C6C6F 
 1926      63617465 
 1926      20737061 
 1927              		.align	2
 1928              	.LC31:
 1929 0378 4D6F6475 		.ascii	"Module: can't find %s in kernel symbol table\000"
 1929      6C653A20 
 1929      63616E27 
 1929      74206669 
 1929      6E642025 
 1930 03a5 000000   		.align	2
 1931              	.LC32:
 1932 03a8 2E64796E 		.ascii	".dynsym\000"
 1932      73796D00 
 1933              		.align	2
 1934              	.LC33:
 1935 03b0 696E6974 		.ascii	"init_module\000"
 1935      5F6D6F64 
 1935      756C6500 
 1936              		.align	2
 1937              	.LC34:
 1938 03bc 65786974 		.ascii	"exit_module\000"
 1938      5F6D6F64 
 1938      756C6500 
 1939              		.text
 1940              		.align	1
 1941              		.global	dlmodule_load_shared_object
 1942              		.syntax unified
 1943              		.thumb
 1944              		.thumb_func
 1945              		.fpu softvfp
 1946              		.type	dlmodule_load_shared_object, %function
 1947              	dlmodule_load_shared_object:
 1948              	.LFB22:
 313:../../source/src/kernel/OS_CORE/module.c **** 
 314:../../source/src/kernel/OS_CORE/module.c **** int dlmodule_load_shared_object(struct dynamic_module* module, void *module_ptr)
 315:../../source/src/kernel/OS_CORE/module.c **** {
 1949              		.loc 4 315 0
 1950              		.cfi_startproc
 1951              		@ args = 0, pretend = 0, frame = 88
 1952              		@ frame_needed = 1, uses_anonymous_args = 0
 1953 0894 90B5     		push	{r4, r7, lr}
 1954              	.LCFI93:
 1955              		.cfi_def_cfa_offset 12
 1956              		.cfi_offset 4, -12
 1957              		.cfi_offset 7, -8
 1958              		.cfi_offset 14, -4
 1959 0896 97B0     		sub	sp, sp, #92
 1960              	.LCFI94:
 1961              		.cfi_def_cfa_offset 104
 1962 0898 00AF     		add	r7, sp, #0
 1963              	.LCFI95:
 1964              		.cfi_def_cfa_register 7
 1965 089a 7860     		str	r0, [r7, #4]
ARM GAS  G:\Users\Jaxb\AppData\Local\Temp\ccWBP0T4.s 			page 48


 1966 089c 3960     		str	r1, [r7]
 316:../../source/src/kernel/OS_CORE/module.c ****     int linked   = KA_FALSE;
 1967              		.loc 4 316 0
 1968 089e 0023     		movs	r3, #0
 1969 08a0 3B63     		str	r3, [r7, #48]
 317:../../source/src/kernel/OS_CORE/module.c ****     UINT32 index, module_size = 0;
 1970              		.loc 4 317 0
 1971 08a2 0023     		movs	r3, #0
 1972 08a4 FB62     		str	r3, [r7, #44]
 318:../../source/src/kernel/OS_CORE/module.c ****     Elf32_Addr vstart_addr, vend_addr;
 319:../../source/src/kernel/OS_CORE/module.c ****     int has_vstart = KA_FALSE;
 1973              		.loc 4 319 0
 1974 08a6 0023     		movs	r3, #0
 1975 08a8 BB64     		str	r3, [r7, #72]
 320:../../source/src/kernel/OS_CORE/module.c **** 
 321:../../source/src/kernel/OS_CORE/module.c ****     ASSERT(module_ptr != NULL);
 1976              		.loc 4 321 0
 1977 08aa 3B68     		ldr	r3, [r7]
 1978 08ac 002B     		cmp	r3, #0
 1979 08ae 04D1     		bne	.L109
 1980              		.loc 4 321 0 is_stmt 0 discriminator 1
 1981 08b0 40F24111 		movw	r1, #321
 1982 08b4 8948     		ldr	r0, .L155
 1983 08b6 FFF7FEFF 		bl	_ASSERT
 1984              	.L109:
 322:../../source/src/kernel/OS_CORE/module.c **** 
 323:../../source/src/kernel/OS_CORE/module.c ****     /* get the ELF image size */
 324:../../source/src/kernel/OS_CORE/module.c ****     vstart_addr = vend_addr = NULL;
 1985              		.loc 4 324 0 is_stmt 1
 1986 08ba 0023     		movs	r3, #0
 1987 08bc FB64     		str	r3, [r7, #76]
 1988 08be FB6C     		ldr	r3, [r7, #76]
 1989 08c0 3B65     		str	r3, [r7, #80]
 325:../../source/src/kernel/OS_CORE/module.c ****     for (index = 0; index < elf_module->e_phnum; index++)
 1990              		.loc 4 325 0
 1991 08c2 0023     		movs	r3, #0
 1992 08c4 7B65     		str	r3, [r7, #84]
 1993 08c6 CBE0     		b	.L110
 1994              	.L118:
 326:../../source/src/kernel/OS_CORE/module.c ****     {
 327:../../source/src/kernel/OS_CORE/module.c ****         if (phdr[index].p_type != PT_LOAD)
 1995              		.loc 4 327 0
 1996 08c8 3B68     		ldr	r3, [r7]
 1997 08ca DA69     		ldr	r2, [r3, #28]
 1998 08cc 7B6D     		ldr	r3, [r7, #84]
 1999 08ce 5B01     		lsls	r3, r3, #5
 2000 08d0 1344     		add	r3, r3, r2
 2001 08d2 3A68     		ldr	r2, [r7]
 2002 08d4 1344     		add	r3, r3, r2
 2003 08d6 1B68     		ldr	r3, [r3]
 2004 08d8 012B     		cmp	r3, #1
 2005 08da 40F0BD80 		bne	.L150
 328:../../source/src/kernel/OS_CORE/module.c ****             continue;
 329:../../source/src/kernel/OS_CORE/module.c **** 
 330:../../source/src/kernel/OS_CORE/module.c ****         ka_printf("LOAD segment: %d, 0x%p, 0x%x\n", index, (void *)phdr[index].p_vaddr, phdr[index]
 2006              		.loc 4 330 0
 2007 08de 3B68     		ldr	r3, [r7]
ARM GAS  G:\Users\Jaxb\AppData\Local\Temp\ccWBP0T4.s 			page 49


 2008 08e0 DA69     		ldr	r2, [r3, #28]
 2009 08e2 7B6D     		ldr	r3, [r7, #84]
 2010 08e4 5B01     		lsls	r3, r3, #5
 2011 08e6 1344     		add	r3, r3, r2
 2012 08e8 3A68     		ldr	r2, [r7]
 2013 08ea 1344     		add	r3, r3, r2
 2014 08ec 9B68     		ldr	r3, [r3, #8]
 2015 08ee 1946     		mov	r1, r3
 2016 08f0 3B68     		ldr	r3, [r7]
 2017 08f2 DA69     		ldr	r2, [r3, #28]
 2018 08f4 7B6D     		ldr	r3, [r7, #84]
 2019 08f6 5B01     		lsls	r3, r3, #5
 2020 08f8 1344     		add	r3, r3, r2
 2021 08fa 3A68     		ldr	r2, [r7]
 2022 08fc 1344     		add	r3, r3, r2
 2023 08fe 5B69     		ldr	r3, [r3, #20]
 2024 0900 0A46     		mov	r2, r1
 2025 0902 796D     		ldr	r1, [r7, #84]
 2026 0904 7648     		ldr	r0, .L155+4
 2027 0906 FFF7FEFF 		bl	ka_printf
 331:../../source/src/kernel/OS_CORE/module.c **** 
 332:../../source/src/kernel/OS_CORE/module.c ****         if (phdr[index].p_memsz < phdr[index].p_filesz)
 2028              		.loc 4 332 0
 2029 090a 3B68     		ldr	r3, [r7]
 2030 090c DA69     		ldr	r2, [r3, #28]
 2031 090e 7B6D     		ldr	r3, [r7, #84]
 2032 0910 5B01     		lsls	r3, r3, #5
 2033 0912 1344     		add	r3, r3, r2
 2034 0914 3A68     		ldr	r2, [r7]
 2035 0916 1344     		add	r3, r3, r2
 2036 0918 5A69     		ldr	r2, [r3, #20]
 2037 091a 3B68     		ldr	r3, [r7]
 2038 091c D969     		ldr	r1, [r3, #28]
 2039 091e 7B6D     		ldr	r3, [r7, #84]
 2040 0920 5B01     		lsls	r3, r3, #5
 2041 0922 0B44     		add	r3, r3, r1
 2042 0924 3968     		ldr	r1, [r7]
 2043 0926 0B44     		add	r3, r3, r1
 2044 0928 1B69     		ldr	r3, [r3, #16]
 2045 092a 9A42     		cmp	r2, r3
 2046 092c 16D2     		bcs	.L113
 333:../../source/src/kernel/OS_CORE/module.c ****         {
 334:../../source/src/kernel/OS_CORE/module.c ****             ka_printf("invalid elf: segment %d: p_memsz: %d, p_filesz: %d\n",
 335:../../source/src/kernel/OS_CORE/module.c ****                        index, phdr[index].p_memsz, phdr[index].p_filesz);
 2047              		.loc 4 335 0
 2048 092e 3B68     		ldr	r3, [r7]
 2049 0930 DA69     		ldr	r2, [r3, #28]
 2050 0932 7B6D     		ldr	r3, [r7, #84]
 2051 0934 5B01     		lsls	r3, r3, #5
 2052 0936 1344     		add	r3, r3, r2
 2053 0938 3A68     		ldr	r2, [r7]
 2054 093a 1344     		add	r3, r3, r2
 334:../../source/src/kernel/OS_CORE/module.c ****                        index, phdr[index].p_memsz, phdr[index].p_filesz);
 2055              		.loc 4 334 0
 2056 093c 5969     		ldr	r1, [r3, #20]
 2057              		.loc 4 335 0
 2058 093e 3B68     		ldr	r3, [r7]
ARM GAS  G:\Users\Jaxb\AppData\Local\Temp\ccWBP0T4.s 			page 50


 2059 0940 DA69     		ldr	r2, [r3, #28]
 2060 0942 7B6D     		ldr	r3, [r7, #84]
 2061 0944 5B01     		lsls	r3, r3, #5
 2062 0946 1344     		add	r3, r3, r2
 2063 0948 3A68     		ldr	r2, [r7]
 2064 094a 1344     		add	r3, r3, r2
 334:../../source/src/kernel/OS_CORE/module.c ****                        index, phdr[index].p_memsz, phdr[index].p_filesz);
 2065              		.loc 4 334 0
 2066 094c 1B69     		ldr	r3, [r3, #16]
 2067 094e 0A46     		mov	r2, r1
 2068 0950 796D     		ldr	r1, [r7, #84]
 2069 0952 6448     		ldr	r0, .L155+8
 2070 0954 FFF7FEFF 		bl	ka_printf
 336:../../source/src/kernel/OS_CORE/module.c ****             return NULL;
 2071              		.loc 4 336 0
 2072 0958 0023     		movs	r3, #0
 2073 095a 5EE3     		b	.L114
 2074              	.L113:
 337:../../source/src/kernel/OS_CORE/module.c ****         }
 338:../../source/src/kernel/OS_CORE/module.c ****         if (!has_vstart)
 2075              		.loc 4 338 0
 2076 095c BB6C     		ldr	r3, [r7, #72]
 2077 095e 002B     		cmp	r3, #0
 2078 0960 37D1     		bne	.L115
 339:../../source/src/kernel/OS_CORE/module.c ****         {
 340:../../source/src/kernel/OS_CORE/module.c ****             vstart_addr = phdr[index].p_vaddr;
 2079              		.loc 4 340 0
 2080 0962 3B68     		ldr	r3, [r7]
 2081 0964 DA69     		ldr	r2, [r3, #28]
 2082 0966 7B6D     		ldr	r3, [r7, #84]
 2083 0968 5B01     		lsls	r3, r3, #5
 2084 096a 1344     		add	r3, r3, r2
 2085 096c 3A68     		ldr	r2, [r7]
 2086 096e 1344     		add	r3, r3, r2
 2087 0970 9B68     		ldr	r3, [r3, #8]
 2088 0972 3B65     		str	r3, [r7, #80]
 341:../../source/src/kernel/OS_CORE/module.c ****             vend_addr = phdr[index].p_vaddr + phdr[index].p_memsz;
 2089              		.loc 4 341 0
 2090 0974 3B68     		ldr	r3, [r7]
 2091 0976 DA69     		ldr	r2, [r3, #28]
 2092 0978 7B6D     		ldr	r3, [r7, #84]
 2093 097a 5B01     		lsls	r3, r3, #5
 2094 097c 1344     		add	r3, r3, r2
 2095 097e 3A68     		ldr	r2, [r7]
 2096 0980 1344     		add	r3, r3, r2
 2097 0982 9A68     		ldr	r2, [r3, #8]
 2098 0984 3B68     		ldr	r3, [r7]
 2099 0986 D969     		ldr	r1, [r3, #28]
 2100 0988 7B6D     		ldr	r3, [r7, #84]
 2101 098a 5B01     		lsls	r3, r3, #5
 2102 098c 0B44     		add	r3, r3, r1
 2103 098e 3968     		ldr	r1, [r7]
 2104 0990 0B44     		add	r3, r3, r1
 2105 0992 5B69     		ldr	r3, [r3, #20]
 2106 0994 1344     		add	r3, r3, r2
 2107 0996 FB64     		str	r3, [r7, #76]
 342:../../source/src/kernel/OS_CORE/module.c ****             has_vstart = KA_TRUE;
ARM GAS  G:\Users\Jaxb\AppData\Local\Temp\ccWBP0T4.s 			page 51


 2108              		.loc 4 342 0
 2109 0998 0123     		movs	r3, #1
 2110 099a BB64     		str	r3, [r7, #72]
 343:../../source/src/kernel/OS_CORE/module.c ****             if (vend_addr < vstart_addr)
 2111              		.loc 4 343 0
 2112 099c FA6C     		ldr	r2, [r7, #76]
 2113 099e 3B6D     		ldr	r3, [r7, #80]
 2114 09a0 9A42     		cmp	r2, r3
 2115 09a2 5AD2     		bcs	.L112
 344:../../source/src/kernel/OS_CORE/module.c ****             {
 345:../../source/src/kernel/OS_CORE/module.c ****                 ka_printf("invalid elf: segment %d: p_vaddr: %d, p_memsz: %d\n",
 346:../../source/src/kernel/OS_CORE/module.c ****                            index, phdr[index].p_vaddr, phdr[index].p_memsz);
 2116              		.loc 4 346 0
 2117 09a4 3B68     		ldr	r3, [r7]
 2118 09a6 DA69     		ldr	r2, [r3, #28]
 2119 09a8 7B6D     		ldr	r3, [r7, #84]
 2120 09aa 5B01     		lsls	r3, r3, #5
 2121 09ac 1344     		add	r3, r3, r2
 2122 09ae 3A68     		ldr	r2, [r7]
 2123 09b0 1344     		add	r3, r3, r2
 345:../../source/src/kernel/OS_CORE/module.c ****                            index, phdr[index].p_vaddr, phdr[index].p_memsz);
 2124              		.loc 4 345 0
 2125 09b2 9968     		ldr	r1, [r3, #8]
 2126              		.loc 4 346 0
 2127 09b4 3B68     		ldr	r3, [r7]
 2128 09b6 DA69     		ldr	r2, [r3, #28]
 2129 09b8 7B6D     		ldr	r3, [r7, #84]
 2130 09ba 5B01     		lsls	r3, r3, #5
 2131 09bc 1344     		add	r3, r3, r2
 2132 09be 3A68     		ldr	r2, [r7]
 2133 09c0 1344     		add	r3, r3, r2
 345:../../source/src/kernel/OS_CORE/module.c ****                            index, phdr[index].p_vaddr, phdr[index].p_memsz);
 2134              		.loc 4 345 0
 2135 09c2 5B69     		ldr	r3, [r3, #20]
 2136 09c4 0A46     		mov	r2, r1
 2137 09c6 796D     		ldr	r1, [r7, #84]
 2138 09c8 4748     		ldr	r0, .L155+12
 2139 09ca FFF7FEFF 		bl	ka_printf
 347:../../source/src/kernel/OS_CORE/module.c ****                 return NULL;
 2140              		.loc 4 347 0
 2141 09ce 0023     		movs	r3, #0
 2142 09d0 23E3     		b	.L114
 2143              	.L115:
 348:../../source/src/kernel/OS_CORE/module.c ****             }
 349:../../source/src/kernel/OS_CORE/module.c ****         }
 350:../../source/src/kernel/OS_CORE/module.c ****         else
 351:../../source/src/kernel/OS_CORE/module.c ****         {
 352:../../source/src/kernel/OS_CORE/module.c ****             if (phdr[index].p_vaddr < vend_addr)
 2144              		.loc 4 352 0
 2145 09d2 3B68     		ldr	r3, [r7]
 2146 09d4 DA69     		ldr	r2, [r3, #28]
 2147 09d6 7B6D     		ldr	r3, [r7, #84]
 2148 09d8 5B01     		lsls	r3, r3, #5
 2149 09da 1344     		add	r3, r3, r2
 2150 09dc 3A68     		ldr	r2, [r7]
 2151 09de 1344     		add	r3, r3, r2
 2152 09e0 9B68     		ldr	r3, [r3, #8]
ARM GAS  G:\Users\Jaxb\AppData\Local\Temp\ccWBP0T4.s 			page 52


 2153 09e2 FA6C     		ldr	r2, [r7, #76]
 2154 09e4 9A42     		cmp	r2, r3
 2155 09e6 04D9     		bls	.L116
 353:../../source/src/kernel/OS_CORE/module.c ****             {
 354:../../source/src/kernel/OS_CORE/module.c ****                 ka_printf("invalid elf: segment should be sorted and not overlapped\n");
 2156              		.loc 4 354 0
 2157 09e8 4048     		ldr	r0, .L155+16
 2158 09ea FFF7FEFF 		bl	ka_printf
 355:../../source/src/kernel/OS_CORE/module.c ****                 return NULL;
 2159              		.loc 4 355 0
 2160 09ee 0023     		movs	r3, #0
 2161 09f0 13E3     		b	.L114
 2162              	.L116:
 356:../../source/src/kernel/OS_CORE/module.c ****             }
 357:../../source/src/kernel/OS_CORE/module.c ****             if (phdr[index].p_vaddr > vend_addr + 16)
 2163              		.loc 4 357 0
 2164 09f2 3B68     		ldr	r3, [r7]
 2165 09f4 DA69     		ldr	r2, [r3, #28]
 2166 09f6 7B6D     		ldr	r3, [r7, #84]
 2167 09f8 5B01     		lsls	r3, r3, #5
 2168 09fa 1344     		add	r3, r3, r2
 2169 09fc 3A68     		ldr	r2, [r7]
 2170 09fe 1344     		add	r3, r3, r2
 2171 0a00 9A68     		ldr	r2, [r3, #8]
 2172 0a02 FB6C     		ldr	r3, [r7, #76]
 2173 0a04 1033     		adds	r3, r3, #16
 2174 0a06 9A42     		cmp	r2, r3
 2175 0a08 03D9     		bls	.L117
 358:../../source/src/kernel/OS_CORE/module.c ****             {
 359:../../source/src/kernel/OS_CORE/module.c ****                 /* There should not be too much padding in the object files. */
 360:../../source/src/kernel/OS_CORE/module.c ****                 ka_printf("warning: too much padding before segment %d\n", index);
 2176              		.loc 4 360 0
 2177 0a0a 796D     		ldr	r1, [r7, #84]
 2178 0a0c 3848     		ldr	r0, .L155+20
 2179 0a0e FFF7FEFF 		bl	ka_printf
 2180              	.L117:
 361:../../source/src/kernel/OS_CORE/module.c ****             }
 362:../../source/src/kernel/OS_CORE/module.c **** 
 363:../../source/src/kernel/OS_CORE/module.c ****             vend_addr = phdr[index].p_vaddr + phdr[index].p_memsz;
 2181              		.loc 4 363 0
 2182 0a12 3B68     		ldr	r3, [r7]
 2183 0a14 DA69     		ldr	r2, [r3, #28]
 2184 0a16 7B6D     		ldr	r3, [r7, #84]
 2185 0a18 5B01     		lsls	r3, r3, #5
 2186 0a1a 1344     		add	r3, r3, r2
 2187 0a1c 3A68     		ldr	r2, [r7]
 2188 0a1e 1344     		add	r3, r3, r2
 2189 0a20 9A68     		ldr	r2, [r3, #8]
 2190 0a22 3B68     		ldr	r3, [r7]
 2191 0a24 D969     		ldr	r1, [r3, #28]
 2192 0a26 7B6D     		ldr	r3, [r7, #84]
 2193 0a28 5B01     		lsls	r3, r3, #5
 2194 0a2a 0B44     		add	r3, r3, r1
 2195 0a2c 3968     		ldr	r1, [r7]
 2196 0a2e 0B44     		add	r3, r3, r1
 2197 0a30 5B69     		ldr	r3, [r3, #20]
 2198 0a32 1344     		add	r3, r3, r2
ARM GAS  G:\Users\Jaxb\AppData\Local\Temp\ccWBP0T4.s 			page 53


 2199 0a34 FB64     		str	r3, [r7, #76]
 364:../../source/src/kernel/OS_CORE/module.c ****             if (vend_addr < phdr[index].p_vaddr)
 2200              		.loc 4 364 0
 2201 0a36 3B68     		ldr	r3, [r7]
 2202 0a38 DA69     		ldr	r2, [r3, #28]
 2203 0a3a 7B6D     		ldr	r3, [r7, #84]
 2204 0a3c 5B01     		lsls	r3, r3, #5
 2205 0a3e 1344     		add	r3, r3, r2
 2206 0a40 3A68     		ldr	r2, [r7]
 2207 0a42 1344     		add	r3, r3, r2
 2208 0a44 9B68     		ldr	r3, [r3, #8]
 2209 0a46 FA6C     		ldr	r2, [r7, #76]
 2210 0a48 9A42     		cmp	r2, r3
 2211 0a4a 06D2     		bcs	.L112
 365:../../source/src/kernel/OS_CORE/module.c ****             {
 366:../../source/src/kernel/OS_CORE/module.c ****                 ka_printf("invalid elf: "
 2212              		.loc 4 366 0
 2213 0a4c 796D     		ldr	r1, [r7, #84]
 2214 0a4e 2948     		ldr	r0, .L155+24
 2215 0a50 FFF7FEFF 		bl	ka_printf
 367:../../source/src/kernel/OS_CORE/module.c ****                            "segment %d address overflow\n", index);
 368:../../source/src/kernel/OS_CORE/module.c ****                 return NULL;
 2216              		.loc 4 368 0
 2217 0a54 0023     		movs	r3, #0
 2218 0a56 E0E2     		b	.L114
 2219              	.L150:
 328:../../source/src/kernel/OS_CORE/module.c **** 
 2220              		.loc 4 328 0
 2221 0a58 00BF     		nop
 2222              	.L112:
 325:../../source/src/kernel/OS_CORE/module.c ****     {
 2223              		.loc 4 325 0 discriminator 2
 2224 0a5a 7B6D     		ldr	r3, [r7, #84]
 2225 0a5c 0133     		adds	r3, r3, #1
 2226 0a5e 7B65     		str	r3, [r7, #84]
 2227              	.L110:
 325:../../source/src/kernel/OS_CORE/module.c ****     {
 2228              		.loc 4 325 0 is_stmt 0 discriminator 1
 2229 0a60 3B68     		ldr	r3, [r7]
 2230 0a62 9B8D     		ldrh	r3, [r3, #44]
 2231 0a64 1A46     		mov	r2, r3
 2232 0a66 7B6D     		ldr	r3, [r7, #84]
 2233 0a68 9342     		cmp	r3, r2
 2234 0a6a FFF42DAF 		bcc	.L118
 369:../../source/src/kernel/OS_CORE/module.c ****             }
 370:../../source/src/kernel/OS_CORE/module.c ****         }
 371:../../source/src/kernel/OS_CORE/module.c ****     }
 372:../../source/src/kernel/OS_CORE/module.c **** 
 373:../../source/src/kernel/OS_CORE/module.c ****     module_size = vend_addr - vstart_addr;
 2235              		.loc 4 373 0 is_stmt 1
 2236 0a6e FA6C     		ldr	r2, [r7, #76]
 2237 0a70 3B6D     		ldr	r3, [r7, #80]
 2238 0a72 D31A     		subs	r3, r2, r3
 2239 0a74 FB62     		str	r3, [r7, #44]
 374:../../source/src/kernel/OS_CORE/module.c ****     ka_printf("module size: %d, vstart_addr: 0x%p\n", module_size, (void *)vstart_addr);
 2240              		.loc 4 374 0
 2241 0a76 3B6D     		ldr	r3, [r7, #80]
ARM GAS  G:\Users\Jaxb\AppData\Local\Temp\ccWBP0T4.s 			page 54


 2242 0a78 1A46     		mov	r2, r3
 2243 0a7a F96A     		ldr	r1, [r7, #44]
 2244 0a7c 1E48     		ldr	r0, .L155+28
 2245 0a7e FFF7FEFF 		bl	ka_printf
 375:../../source/src/kernel/OS_CORE/module.c ****     if (module_size == 0)
 2246              		.loc 4 375 0
 2247 0a82 FB6A     		ldr	r3, [r7, #44]
 2248 0a84 002B     		cmp	r3, #0
 2249 0a86 05D1     		bne	.L119
 376:../../source/src/kernel/OS_CORE/module.c ****     {
 377:../../source/src/kernel/OS_CORE/module.c ****         ka_printf("Module: size error\n");
 2250              		.loc 4 377 0
 2251 0a88 1C48     		ldr	r0, .L155+32
 2252 0a8a FFF7FEFF 		bl	ka_printf
 378:../../source/src/kernel/OS_CORE/module.c ****         return -ERROR_LOGIC;
 2253              		.loc 4 378 0
 2254 0a8e 6FF0F803 		mvn	r3, #248
 2255 0a92 C2E2     		b	.L114
 2256              	.L119:
 379:../../source/src/kernel/OS_CORE/module.c ****     }
 380:../../source/src/kernel/OS_CORE/module.c **** 
 381:../../source/src/kernel/OS_CORE/module.c ****     module->vstart_addr = vstart_addr;
 2257              		.loc 4 381 0
 2258 0a94 7B68     		ldr	r3, [r7, #4]
 2259 0a96 3A6D     		ldr	r2, [r7, #80]
 2260 0a98 5A64     		str	r2, [r3, #68]
 382:../../source/src/kernel/OS_CORE/module.c ****     module->ref = 0;
 2261              		.loc 4 382 0
 2262 0a9a 7B68     		ldr	r3, [r7, #4]
 2263 0a9c 0022     		movs	r2, #0
 2264 0a9e 1A65     		str	r2, [r3, #80]
 383:../../source/src/kernel/OS_CORE/module.c **** 
 384:../../source/src/kernel/OS_CORE/module.c ****     /* allocate module space */
 385:../../source/src/kernel/OS_CORE/module.c ****     module->module_space = ka_malloc(module_size);
 2265              		.loc 4 385 0
 2266 0aa0 F86A     		ldr	r0, [r7, #44]
 2267 0aa2 FFF7FEFF 		bl	ka_malloc
 2268 0aa6 0246     		mov	r2, r0
 2269 0aa8 7B68     		ldr	r3, [r7, #4]
 2270 0aaa 5A63     		str	r2, [r3, #52]
 386:../../source/src/kernel/OS_CORE/module.c ****     if (NULL == module->module_space)
 2271              		.loc 4 386 0
 2272 0aac 7B68     		ldr	r3, [r7, #4]
 2273 0aae 5B6B     		ldr	r3, [r3, #52]
 2274 0ab0 002B     		cmp	r3, #0
 2275 0ab2 05D1     		bne	.L120
 387:../../source/src/kernel/OS_CORE/module.c ****     {
 388:../../source/src/kernel/OS_CORE/module.c ****         ka_printf("Module: allocate space failed.\n");
 2276              		.loc 4 388 0
 2277 0ab4 1248     		ldr	r0, .L155+36
 2278 0ab6 FFF7FEFF 		bl	ka_printf
 389:../../source/src/kernel/OS_CORE/module.c ****         return -ERROR_NO_MEM;
 2279              		.loc 4 389 0
 2280 0aba 6FF0FA03 		mvn	r3, #250
 2281 0abe ACE2     		b	.L114
 2282              	.L120:
 390:../../source/src/kernel/OS_CORE/module.c ****     }
ARM GAS  G:\Users\Jaxb\AppData\Local\Temp\ccWBP0T4.s 			page 55


 391:../../source/src/kernel/OS_CORE/module.c ****     module->module_size = module_size;
 2283              		.loc 4 391 0
 2284 0ac0 7B68     		ldr	r3, [r7, #4]
 2285 0ac2 FA6A     		ldr	r2, [r7, #44]
 2286 0ac4 9A63     		str	r2, [r3, #56]
 392:../../source/src/kernel/OS_CORE/module.c **** 
 393:../../source/src/kernel/OS_CORE/module.c ****     /* zero all space */
 394:../../source/src/kernel/OS_CORE/module.c ****     ka_memset(module->module_space, 0, module_size);
 2287              		.loc 4 394 0
 2288 0ac6 7B68     		ldr	r3, [r7, #4]
 2289 0ac8 5B6B     		ldr	r3, [r3, #52]
 2290 0aca FA6A     		ldr	r2, [r7, #44]
 2291 0acc 0021     		movs	r1, #0
 2292 0ace 1846     		mov	r0, r3
 2293 0ad0 FFF7FEFF 		bl	ka_memset
 395:../../source/src/kernel/OS_CORE/module.c ****     /*load program*/
 396:../../source/src/kernel/OS_CORE/module.c ****     for (index = 0; index < elf_module->e_phnum; index++)
 2294              		.loc 4 396 0
 2295 0ad4 0023     		movs	r3, #0
 2296 0ad6 7B65     		str	r3, [r7, #84]
 2297 0ad8 43E0     		b	.L121
 2298              	.L156:
 2299 0ada 00BF     		.align	2
 2300              	.L155:
 2301 0adc 3C000000 		.word	.LC3
 2302 0ae0 00020000 		.word	.LC22
 2303 0ae4 20020000 		.word	.LC23
 2304 0ae8 54020000 		.word	.LC24
 2305 0aec 88020000 		.word	.LC25
 2306 0af0 C4020000 		.word	.LC26
 2307 0af4 F4020000 		.word	.LC27
 2308 0af8 20030000 		.word	.LC28
 2309 0afc 44030000 		.word	.LC29
 2310 0b00 58030000 		.word	.LC30
 2311              	.L123:
 397:../../source/src/kernel/OS_CORE/module.c ****     {
 398:../../source/src/kernel/OS_CORE/module.c ****         if (phdr[index].p_type == PT_LOAD)
 2312              		.loc 4 398 0
 2313 0b04 3B68     		ldr	r3, [r7]
 2314 0b06 DA69     		ldr	r2, [r3, #28]
 2315 0b08 7B6D     		ldr	r3, [r7, #84]
 2316 0b0a 5B01     		lsls	r3, r3, #5
 2317 0b0c 1344     		add	r3, r3, r2
 2318 0b0e 3A68     		ldr	r2, [r7]
 2319 0b10 1344     		add	r3, r3, r2
 2320 0b12 1B68     		ldr	r3, [r3]
 2321 0b14 012B     		cmp	r3, #1
 2322 0b16 21D1     		bne	.L122
 399:../../source/src/kernel/OS_CORE/module.c ****         {
 400:../../source/src/kernel/OS_CORE/module.c ****             ka_memcpy(module->module_space + phdr[index].p_vaddr - vstart_addr,
 2323              		.loc 4 400 0
 2324 0b18 7B68     		ldr	r3, [r7, #4]
 2325 0b1a 5A6B     		ldr	r2, [r3, #52]
 2326 0b1c 3B68     		ldr	r3, [r7]
 2327 0b1e D969     		ldr	r1, [r3, #28]
 2328 0b20 7B6D     		ldr	r3, [r7, #84]
 2329 0b22 5B01     		lsls	r3, r3, #5
ARM GAS  G:\Users\Jaxb\AppData\Local\Temp\ccWBP0T4.s 			page 56


 2330 0b24 0B44     		add	r3, r3, r1
 2331 0b26 3968     		ldr	r1, [r7]
 2332 0b28 0B44     		add	r3, r3, r1
 2333 0b2a 9968     		ldr	r1, [r3, #8]
 2334 0b2c 3B6D     		ldr	r3, [r7, #80]
 2335 0b2e CB1A     		subs	r3, r1, r3
 2336 0b30 D018     		adds	r0, r2, r3
 401:../../source/src/kernel/OS_CORE/module.c ****                       (UINT8 *)elf_module + phdr[index].p_offset,
 2337              		.loc 4 401 0
 2338 0b32 3B68     		ldr	r3, [r7]
 2339 0b34 DA69     		ldr	r2, [r3, #28]
 2340 0b36 7B6D     		ldr	r3, [r7, #84]
 2341 0b38 5B01     		lsls	r3, r3, #5
 2342 0b3a 1344     		add	r3, r3, r2
 2343 0b3c 3A68     		ldr	r2, [r7]
 2344 0b3e 1344     		add	r3, r3, r2
 2345 0b40 5B68     		ldr	r3, [r3, #4]
 400:../../source/src/kernel/OS_CORE/module.c ****                       (UINT8 *)elf_module + phdr[index].p_offset,
 2346              		.loc 4 400 0
 2347 0b42 3A68     		ldr	r2, [r7]
 2348 0b44 D118     		adds	r1, r2, r3
 402:../../source/src/kernel/OS_CORE/module.c ****                       phdr[index].p_filesz);
 2349              		.loc 4 402 0
 2350 0b46 3B68     		ldr	r3, [r7]
 2351 0b48 DA69     		ldr	r2, [r3, #28]
 2352 0b4a 7B6D     		ldr	r3, [r7, #84]
 2353 0b4c 5B01     		lsls	r3, r3, #5
 2354 0b4e 1344     		add	r3, r3, r2
 2355 0b50 3A68     		ldr	r2, [r7]
 2356 0b52 1344     		add	r3, r3, r2
 2357 0b54 1B69     		ldr	r3, [r3, #16]
 400:../../source/src/kernel/OS_CORE/module.c ****                       (UINT8 *)elf_module + phdr[index].p_offset,
 2358              		.loc 4 400 0
 2359 0b56 1A46     		mov	r2, r3
 2360 0b58 FFF7FEFF 		bl	ka_memcpy
 2361              	.L122:
 396:../../source/src/kernel/OS_CORE/module.c ****     {
 2362              		.loc 4 396 0 discriminator 2
 2363 0b5c 7B6D     		ldr	r3, [r7, #84]
 2364 0b5e 0133     		adds	r3, r3, #1
 2365 0b60 7B65     		str	r3, [r7, #84]
 2366              	.L121:
 396:../../source/src/kernel/OS_CORE/module.c ****     {
 2367              		.loc 4 396 0 is_stmt 0 discriminator 1
 2368 0b62 3B68     		ldr	r3, [r7]
 2369 0b64 9B8D     		ldrh	r3, [r3, #44]
 2370 0b66 1A46     		mov	r2, r3
 2371 0b68 7B6D     		ldr	r3, [r7, #84]
 2372 0b6a 9342     		cmp	r3, r2
 2373 0b6c CAD3     		bcc	.L123
 403:../../source/src/kernel/OS_CORE/module.c ****         }
 404:../../source/src/kernel/OS_CORE/module.c ****     }
 405:../../source/src/kernel/OS_CORE/module.c **** 
 406:../../source/src/kernel/OS_CORE/module.c ****     /* set module entry */
 407:../../source/src/kernel/OS_CORE/module.c ****     module->entry = module->module_space + elf_module->e_entry - vstart_addr;
 2374              		.loc 4 407 0 is_stmt 1
 2375 0b6e 7B68     		ldr	r3, [r7, #4]
ARM GAS  G:\Users\Jaxb\AppData\Local\Temp\ccWBP0T4.s 			page 57


 2376 0b70 5A6B     		ldr	r2, [r3, #52]
 2377 0b72 3B68     		ldr	r3, [r7]
 2378 0b74 9969     		ldr	r1, [r3, #24]
 2379 0b76 3B6D     		ldr	r3, [r7, #80]
 2380 0b78 CB1A     		subs	r3, r1, r3
 2381 0b7a 1A44     		add	r2, r2, r3
 2382 0b7c 7B68     		ldr	r3, [r7, #4]
 2383 0b7e 1A64     		str	r2, [r3, #64]
 408:../../source/src/kernel/OS_CORE/module.c ****     /* handle relocation section */
 409:../../source/src/kernel/OS_CORE/module.c ****     for (index = 0; index < elf_module->e_shnum; index ++)
 2384              		.loc 4 409 0
 2385 0b80 0023     		movs	r3, #0
 2386 0b82 7B65     		str	r3, [r7, #84]
 2387 0b84 CFE0     		b	.L124
 2388              	.L135:
 2389              	.LBB16:
 410:../../source/src/kernel/OS_CORE/module.c ****     {
 411:../../source/src/kernel/OS_CORE/module.c ****         UINT32 i, nr_reloc;
 412:../../source/src/kernel/OS_CORE/module.c ****         Elf32_Sym *symtab;
 413:../../source/src/kernel/OS_CORE/module.c ****         Elf32_Rel *rel;
 414:../../source/src/kernel/OS_CORE/module.c ****         UINT8 *strtab;
 415:../../source/src/kernel/OS_CORE/module.c ****         static int unsolved = KA_FALSE;
 416:../../source/src/kernel/OS_CORE/module.c **** 
 417:../../source/src/kernel/OS_CORE/module.c ****         if (!IS_REL(shdr[index]))
 2390              		.loc 4 417 0
 2391 0b86 3B68     		ldr	r3, [r7]
 2392 0b88 196A     		ldr	r1, [r3, #32]
 2393 0b8a 7A6D     		ldr	r2, [r7, #84]
 2394 0b8c 1346     		mov	r3, r2
 2395 0b8e 9B00     		lsls	r3, r3, #2
 2396 0b90 1344     		add	r3, r3, r2
 2397 0b92 DB00     		lsls	r3, r3, #3
 2398 0b94 0B44     		add	r3, r3, r1
 2399 0b96 3A68     		ldr	r2, [r7]
 2400 0b98 1344     		add	r3, r3, r2
 2401 0b9a 5B68     		ldr	r3, [r3, #4]
 2402 0b9c 092B     		cmp	r3, #9
 2403 0b9e 40F0BE80 		bne	.L151
 418:../../source/src/kernel/OS_CORE/module.c ****             continue;
 419:../../source/src/kernel/OS_CORE/module.c **** 
 420:../../source/src/kernel/OS_CORE/module.c ****         /* get relocate item */
 421:../../source/src/kernel/OS_CORE/module.c ****         rel = (Elf32_Rel *)((UINT8 *)module_ptr + shdr[index].sh_offset);
 2404              		.loc 4 421 0
 2405 0ba2 3B68     		ldr	r3, [r7]
 2406 0ba4 196A     		ldr	r1, [r3, #32]
 2407 0ba6 7A6D     		ldr	r2, [r7, #84]
 2408 0ba8 1346     		mov	r3, r2
 2409 0baa 9B00     		lsls	r3, r3, #2
 2410 0bac 1344     		add	r3, r3, r2
 2411 0bae DB00     		lsls	r3, r3, #3
 2412 0bb0 0B44     		add	r3, r3, r1
 2413 0bb2 3A68     		ldr	r2, [r7]
 2414 0bb4 1344     		add	r3, r3, r2
 2415 0bb6 1B69     		ldr	r3, [r3, #16]
 2416 0bb8 3A68     		ldr	r2, [r7]
 2417 0bba 1344     		add	r3, r3, r2
 2418 0bbc 3B64     		str	r3, [r7, #64]
ARM GAS  G:\Users\Jaxb\AppData\Local\Temp\ccWBP0T4.s 			page 58


 422:../../source/src/kernel/OS_CORE/module.c **** 
 423:../../source/src/kernel/OS_CORE/module.c ****         /* locate .rel.plt and .rel.dyn section */
 424:../../source/src/kernel/OS_CORE/module.c ****         symtab = (Elf32_Sym *)((UINT8 *)module_ptr +
 425:../../source/src/kernel/OS_CORE/module.c ****                                shdr[shdr[index].sh_link].sh_offset);
 2419              		.loc 4 425 0
 2420 0bbe 3B68     		ldr	r3, [r7]
 2421 0bc0 196A     		ldr	r1, [r3, #32]
 2422 0bc2 3B68     		ldr	r3, [r7]
 2423 0bc4 186A     		ldr	r0, [r3, #32]
 2424 0bc6 7A6D     		ldr	r2, [r7, #84]
 2425 0bc8 1346     		mov	r3, r2
 2426 0bca 9B00     		lsls	r3, r3, #2
 2427 0bcc 1344     		add	r3, r3, r2
 2428 0bce DB00     		lsls	r3, r3, #3
 2429 0bd0 0344     		add	r3, r3, r0
 2430 0bd2 3A68     		ldr	r2, [r7]
 2431 0bd4 1344     		add	r3, r3, r2
 2432 0bd6 9A69     		ldr	r2, [r3, #24]
 2433 0bd8 1346     		mov	r3, r2
 2434 0bda 9B00     		lsls	r3, r3, #2
 2435 0bdc 1344     		add	r3, r3, r2
 2436 0bde DB00     		lsls	r3, r3, #3
 2437 0be0 0B44     		add	r3, r3, r1
 2438 0be2 3A68     		ldr	r2, [r7]
 2439 0be4 1344     		add	r3, r3, r2
 2440 0be6 1B69     		ldr	r3, [r3, #16]
 424:../../source/src/kernel/OS_CORE/module.c ****                                shdr[shdr[index].sh_link].sh_offset);
 2441              		.loc 4 424 0
 2442 0be8 3A68     		ldr	r2, [r7]
 2443 0bea 1344     		add	r3, r3, r2
 2444 0bec BB61     		str	r3, [r7, #24]
 426:../../source/src/kernel/OS_CORE/module.c ****         strtab = (UINT8 *)module_ptr +
 427:../../source/src/kernel/OS_CORE/module.c ****                  shdr[shdr[shdr[index].sh_link].sh_link].sh_offset;
 2445              		.loc 4 427 0
 2446 0bee 3B68     		ldr	r3, [r7]
 2447 0bf0 196A     		ldr	r1, [r3, #32]
 2448 0bf2 3B68     		ldr	r3, [r7]
 2449 0bf4 186A     		ldr	r0, [r3, #32]
 2450 0bf6 3B68     		ldr	r3, [r7]
 2451 0bf8 1C6A     		ldr	r4, [r3, #32]
 2452 0bfa 7A6D     		ldr	r2, [r7, #84]
 2453 0bfc 1346     		mov	r3, r2
 2454 0bfe 9B00     		lsls	r3, r3, #2
 2455 0c00 1344     		add	r3, r3, r2
 2456 0c02 DB00     		lsls	r3, r3, #3
 2457 0c04 2344     		add	r3, r3, r4
 2458 0c06 3A68     		ldr	r2, [r7]
 2459 0c08 1344     		add	r3, r3, r2
 2460 0c0a 9A69     		ldr	r2, [r3, #24]
 2461 0c0c 1346     		mov	r3, r2
 2462 0c0e 9B00     		lsls	r3, r3, #2
 2463 0c10 1344     		add	r3, r3, r2
 2464 0c12 DB00     		lsls	r3, r3, #3
 2465 0c14 0344     		add	r3, r3, r0
 2466 0c16 3A68     		ldr	r2, [r7]
 2467 0c18 1344     		add	r3, r3, r2
 2468 0c1a 9A69     		ldr	r2, [r3, #24]
ARM GAS  G:\Users\Jaxb\AppData\Local\Temp\ccWBP0T4.s 			page 59


 2469 0c1c 1346     		mov	r3, r2
 2470 0c1e 9B00     		lsls	r3, r3, #2
 2471 0c20 1344     		add	r3, r3, r2
 2472 0c22 DB00     		lsls	r3, r3, #3
 2473 0c24 0B44     		add	r3, r3, r1
 2474 0c26 3A68     		ldr	r2, [r7]
 2475 0c28 1344     		add	r3, r3, r2
 2476 0c2a 1B69     		ldr	r3, [r3, #16]
 426:../../source/src/kernel/OS_CORE/module.c ****         strtab = (UINT8 *)module_ptr +
 2477              		.loc 4 426 0
 2478 0c2c 3A68     		ldr	r2, [r7]
 2479 0c2e 1344     		add	r3, r3, r2
 2480 0c30 7B61     		str	r3, [r7, #20]
 428:../../source/src/kernel/OS_CORE/module.c ****         nr_reloc = (UINT32)(shdr[index].sh_size / sizeof(Elf32_Rel));
 2481              		.loc 4 428 0
 2482 0c32 3B68     		ldr	r3, [r7]
 2483 0c34 196A     		ldr	r1, [r3, #32]
 2484 0c36 7A6D     		ldr	r2, [r7, #84]
 2485 0c38 1346     		mov	r3, r2
 2486 0c3a 9B00     		lsls	r3, r3, #2
 2487 0c3c 1344     		add	r3, r3, r2
 2488 0c3e DB00     		lsls	r3, r3, #3
 2489 0c40 0B44     		add	r3, r3, r1
 2490 0c42 3A68     		ldr	r2, [r7]
 2491 0c44 1344     		add	r3, r3, r2
 2492 0c46 5B69     		ldr	r3, [r3, #20]
 2493 0c48 DB08     		lsrs	r3, r3, #3
 2494 0c4a 3B61     		str	r3, [r7, #16]
 429:../../source/src/kernel/OS_CORE/module.c **** 
 430:../../source/src/kernel/OS_CORE/module.c ****         /* relocate every items */
 431:../../source/src/kernel/OS_CORE/module.c ****         for (i = 0; i < nr_reloc; i ++)
 2495              		.loc 4 431 0
 2496 0c4c 0023     		movs	r3, #0
 2497 0c4e 7B64     		str	r3, [r7, #68]
 2498 0c50 5AE0     		b	.L127
 2499              	.L134:
 2500              	.LBB17:
 432:../../source/src/kernel/OS_CORE/module.c ****         {
 433:../../source/src/kernel/OS_CORE/module.c ****             Elf32_Sym *sym = &symtab[ELF32_R_SYM(rel->r_info)];
 2501              		.loc 4 433 0
 2502 0c52 3B6C     		ldr	r3, [r7, #64]
 2503 0c54 5B68     		ldr	r3, [r3, #4]
 2504 0c56 1B0A     		lsrs	r3, r3, #8
 2505 0c58 1B01     		lsls	r3, r3, #4
 2506 0c5a BA69     		ldr	r2, [r7, #24]
 2507 0c5c 1344     		add	r3, r3, r2
 2508 0c5e FB60     		str	r3, [r7, #12]
 434:../../source/src/kernel/OS_CORE/module.c **** 
 435:../../source/src/kernel/OS_CORE/module.c ****             /*ka_printf("relocate symbol %s shndx %d", strtab + sym->st_name, sym->st_shndx);*/
 436:../../source/src/kernel/OS_CORE/module.c **** 
 437:../../source/src/kernel/OS_CORE/module.c ****             if ((sym->st_shndx != SHT_NULL) ||(ELF_ST_BIND(sym->st_info) == STB_LOCAL))
 2509              		.loc 4 437 0
 2510 0c60 FB68     		ldr	r3, [r7, #12]
 2511 0c62 DB89     		ldrh	r3, [r3, #14]
 2512 0c64 002B     		cmp	r3, #0
 2513 0c66 05D1     		bne	.L128
 2514              		.loc 4 437 0 is_stmt 0 discriminator 1
ARM GAS  G:\Users\Jaxb\AppData\Local\Temp\ccWBP0T4.s 			page 60


 2515 0c68 FB68     		ldr	r3, [r7, #12]
 2516 0c6a 1B7B     		ldrb	r3, [r3, #12]	@ zero_extendqisi2
 2517 0c6c 1B09     		lsrs	r3, r3, #4
 2518 0c6e DBB2     		uxtb	r3, r3
 2519 0c70 002B     		cmp	r3, #0
 2520 0c72 12D1     		bne	.L129
 2521              	.L128:
 2522              	.LBB18:
 438:../../source/src/kernel/OS_CORE/module.c ****             {
 439:../../source/src/kernel/OS_CORE/module.c ****                 Elf32_Addr addr;
 440:../../source/src/kernel/OS_CORE/module.c **** 
 441:../../source/src/kernel/OS_CORE/module.c ****                 addr = (Elf32_Addr)(module->module_space + sym->st_value - vstart_addr);
 2523              		.loc 4 441 0 is_stmt 1
 2524 0c74 7B68     		ldr	r3, [r7, #4]
 2525 0c76 5A6B     		ldr	r2, [r3, #52]
 2526 0c78 FB68     		ldr	r3, [r7, #12]
 2527 0c7a 5968     		ldr	r1, [r3, #4]
 2528 0c7c 3B6D     		ldr	r3, [r7, #80]
 2529 0c7e CB1A     		subs	r3, r1, r3
 2530 0c80 1344     		add	r3, r3, r2
 2531 0c82 BB60     		str	r3, [r7, #8]
 442:../../source/src/kernel/OS_CORE/module.c ****                 if(dlmodule_relocate(module, rel, addr) < 0)
 2532              		.loc 4 442 0
 2533 0c84 BA68     		ldr	r2, [r7, #8]
 2534 0c86 396C     		ldr	r1, [r7, #64]
 2535 0c88 7868     		ldr	r0, [r7, #4]
 2536 0c8a FFF785FC 		bl	dlmodule_relocate
 2537 0c8e 0346     		mov	r3, r0
 2538 0c90 002B     		cmp	r3, #0
 2539 0c92 32DA     		bge	.L152
 443:../../source/src/kernel/OS_CORE/module.c ****                 {
 444:../../source/src/kernel/OS_CORE/module.c ****                     return -ERROR_LOGIC;
 2540              		.loc 4 444 0
 2541 0c94 6FF0F803 		mvn	r3, #248
 2542 0c98 BFE1     		b	.L114
 2543              	.L129:
 2544              	.LBE18:
 445:../../source/src/kernel/OS_CORE/module.c ****                 }
 446:../../source/src/kernel/OS_CORE/module.c ****             }
 447:../../source/src/kernel/OS_CORE/module.c ****             else if (!linked)
 2545              		.loc 4 447 0
 2546 0c9a 3B6B     		ldr	r3, [r7, #48]
 2547 0c9c 002B     		cmp	r3, #0
 2548 0c9e 2DD1     		bne	.L131
 2549              	.LBB19:
 448:../../source/src/kernel/OS_CORE/module.c ****             {
 449:../../source/src/kernel/OS_CORE/module.c ****                 Elf32_Addr addr;
 450:../../source/src/kernel/OS_CORE/module.c **** 
 451:../../source/src/kernel/OS_CORE/module.c ****                 /*ka_printf("relocate symbol: %s", strtab + sym->st_name);*/
 452:../../source/src/kernel/OS_CORE/module.c ****                 /* need to resolve symbol in kernel symbol table */
 453:../../source/src/kernel/OS_CORE/module.c ****                 addr = _get_sys_export_function_addr((const char *)(strtab + sym->st_name));
 2550              		.loc 4 453 0
 2551 0ca0 FB68     		ldr	r3, [r7, #12]
 2552 0ca2 1B68     		ldr	r3, [r3]
 2553 0ca4 7A69     		ldr	r2, [r7, #20]
 2554 0ca6 1344     		add	r3, r3, r2
 2555 0ca8 1846     		mov	r0, r3
ARM GAS  G:\Users\Jaxb\AppData\Local\Temp\ccWBP0T4.s 			page 61


 2556 0caa FFF7FEFF 		bl	_get_sys_export_function_addr
 2557 0cae F863     		str	r0, [r7, #60]
 454:../../source/src/kernel/OS_CORE/module.c ****                 if ((0 == addr) && (!(addr = get_mod_export_function_addr((const char *)(strtab + s
 2558              		.loc 4 454 0
 2559 0cb0 FB6B     		ldr	r3, [r7, #60]
 2560 0cb2 002B     		cmp	r3, #0
 2561 0cb4 16D1     		bne	.L132
 2562              		.loc 4 454 0 is_stmt 0 discriminator 1
 2563 0cb6 FB68     		ldr	r3, [r7, #12]
 2564 0cb8 1B68     		ldr	r3, [r3]
 2565 0cba 7A69     		ldr	r2, [r7, #20]
 2566 0cbc 1344     		add	r3, r3, r2
 2567 0cbe 1846     		mov	r0, r3
 2568 0cc0 FFF7E6FA 		bl	get_mod_export_function_addr
 2569 0cc4 F863     		str	r0, [r7, #60]
 2570 0cc6 FB6B     		ldr	r3, [r7, #60]
 2571 0cc8 002B     		cmp	r3, #0
 2572 0cca 0BD1     		bne	.L132
 455:../../source/src/kernel/OS_CORE/module.c ****                 {
 456:../../source/src/kernel/OS_CORE/module.c ****                     ka_printf("Module: can't find %s in kernel symbol table", strtab + sym->st_name
 2573              		.loc 4 456 0 is_stmt 1
 2574 0ccc FB68     		ldr	r3, [r7, #12]
 2575 0cce 1B68     		ldr	r3, [r3]
 2576 0cd0 7A69     		ldr	r2, [r7, #20]
 2577 0cd2 1344     		add	r3, r3, r2
 2578 0cd4 1946     		mov	r1, r3
 2579 0cd6 8648     		ldr	r0, .L157
 2580 0cd8 FFF7FEFF 		bl	ka_printf
 457:../../source/src/kernel/OS_CORE/module.c ****                     unsolved = KA_TRUE;
 2581              		.loc 4 457 0
 2582 0cdc 854B     		ldr	r3, .L157+4
 2583 0cde 0122     		movs	r2, #1
 2584 0ce0 1A60     		str	r2, [r3]
 458:../../source/src/kernel/OS_CORE/module.c ****                     break;
 2585              		.loc 4 458 0
 2586 0ce2 15E0     		b	.L133
 2587              	.L132:
 459:../../source/src/kernel/OS_CORE/module.c ****                 }
 460:../../source/src/kernel/OS_CORE/module.c ****                 else
 461:../../source/src/kernel/OS_CORE/module.c ****                 {
 462:../../source/src/kernel/OS_CORE/module.c ****                     if(dlmodule_relocate(module, rel, addr) < 0)
 2588              		.loc 4 462 0
 2589 0ce4 FA6B     		ldr	r2, [r7, #60]
 2590 0ce6 396C     		ldr	r1, [r7, #64]
 2591 0ce8 7868     		ldr	r0, [r7, #4]
 2592 0cea FFF755FC 		bl	dlmodule_relocate
 2593 0cee 0346     		mov	r3, r0
 2594 0cf0 002B     		cmp	r3, #0
 2595 0cf2 03DA     		bge	.L131
 463:../../source/src/kernel/OS_CORE/module.c ****                     {
 464:../../source/src/kernel/OS_CORE/module.c ****                         return -ERROR_LOGIC;
 2596              		.loc 4 464 0
 2597 0cf4 6FF0F803 		mvn	r3, #248
 2598 0cf8 8FE1     		b	.L114
 2599              	.L152:
 2600              	.LBE19:
 438:../../source/src/kernel/OS_CORE/module.c ****                 Elf32_Addr addr;
ARM GAS  G:\Users\Jaxb\AppData\Local\Temp\ccWBP0T4.s 			page 62


 2601              		.loc 4 438 0
 2602 0cfa 00BF     		nop
 2603              	.L131:
 465:../../source/src/kernel/OS_CORE/module.c ****                     }
 466:../../source/src/kernel/OS_CORE/module.c ****                 }
 467:../../source/src/kernel/OS_CORE/module.c ****             }
 468:../../source/src/kernel/OS_CORE/module.c ****             rel ++;
 2604              		.loc 4 468 0 discriminator 2
 2605 0cfc 3B6C     		ldr	r3, [r7, #64]
 2606 0cfe 0833     		adds	r3, r3, #8
 2607 0d00 3B64     		str	r3, [r7, #64]
 2608              	.LBE17:
 431:../../source/src/kernel/OS_CORE/module.c ****         {
 2609              		.loc 4 431 0 discriminator 2
 2610 0d02 7B6C     		ldr	r3, [r7, #68]
 2611 0d04 0133     		adds	r3, r3, #1
 2612 0d06 7B64     		str	r3, [r7, #68]
 2613              	.L127:
 431:../../source/src/kernel/OS_CORE/module.c ****         {
 2614              		.loc 4 431 0 is_stmt 0 discriminator 1
 2615 0d08 7A6C     		ldr	r2, [r7, #68]
 2616 0d0a 3B69     		ldr	r3, [r7, #16]
 2617 0d0c 9A42     		cmp	r2, r3
 2618 0d0e A0D3     		bcc	.L134
 2619              	.L133:
 469:../../source/src/kernel/OS_CORE/module.c ****         }
 470:../../source/src/kernel/OS_CORE/module.c **** 
 471:../../source/src/kernel/OS_CORE/module.c ****         if (unsolved) 
 2620              		.loc 4 471 0 is_stmt 1
 2621 0d10 784B     		ldr	r3, .L157+4
 2622 0d12 1B68     		ldr	r3, [r3]
 2623 0d14 002B     		cmp	r3, #0
 2624 0d16 03D0     		beq	.L126
 472:../../source/src/kernel/OS_CORE/module.c ****             return -ERROR_LOGIC;
 2625              		.loc 4 472 0
 2626 0d18 6FF0F803 		mvn	r3, #248
 2627 0d1c 7DE1     		b	.L114
 2628              	.L151:
 418:../../source/src/kernel/OS_CORE/module.c **** 
 2629              		.loc 4 418 0
 2630 0d1e 00BF     		nop
 2631              	.L126:
 2632              	.LBE16:
 409:../../source/src/kernel/OS_CORE/module.c ****     {
 2633              		.loc 4 409 0 discriminator 2
 2634 0d20 7B6D     		ldr	r3, [r7, #84]
 2635 0d22 0133     		adds	r3, r3, #1
 2636 0d24 7B65     		str	r3, [r7, #84]
 2637              	.L124:
 409:../../source/src/kernel/OS_CORE/module.c ****     {
 2638              		.loc 4 409 0 is_stmt 0 discriminator 1
 2639 0d26 3B68     		ldr	r3, [r7]
 2640 0d28 1B8E     		ldrh	r3, [r3, #48]
 2641 0d2a 1A46     		mov	r2, r3
 2642 0d2c 7B6D     		ldr	r3, [r7, #84]
 2643 0d2e 9342     		cmp	r3, r2
 2644 0d30 FFF429AF 		bcc	.L135
ARM GAS  G:\Users\Jaxb\AppData\Local\Temp\ccWBP0T4.s 			page 63


 473:../../source/src/kernel/OS_CORE/module.c ****     }
 474:../../source/src/kernel/OS_CORE/module.c ****     /* construct module symbol table */
 475:../../source/src/kernel/OS_CORE/module.c ****     for (index = 0; index < elf_module->e_shnum; index ++)
 2645              		.loc 4 475 0 is_stmt 1
 2646 0d34 0023     		movs	r3, #0
 2647 0d36 7B65     		str	r3, [r7, #84]
 2648 0d38 26E0     		b	.L136
 2649              	.L139:
 2650              	.LBB20:
 476:../../source/src/kernel/OS_CORE/module.c ****     {
 477:../../source/src/kernel/OS_CORE/module.c ****         /* find .dynsym section */
 478:../../source/src/kernel/OS_CORE/module.c ****         UINT8 *shstrab;
 479:../../source/src/kernel/OS_CORE/module.c ****         shstrab = (UINT8 *)module_ptr +
 480:../../source/src/kernel/OS_CORE/module.c ****                   shdr[elf_module->e_shstrndx].sh_offset;
 2651              		.loc 4 480 0
 2652 0d3a 3B68     		ldr	r3, [r7]
 2653 0d3c 1A6A     		ldr	r2, [r3, #32]
 2654 0d3e 3B68     		ldr	r3, [r7]
 2655 0d40 5B8E     		ldrh	r3, [r3, #50]
 2656 0d42 1946     		mov	r1, r3
 2657 0d44 0B46     		mov	r3, r1
 2658 0d46 9B00     		lsls	r3, r3, #2
 2659 0d48 0B44     		add	r3, r3, r1
 2660 0d4a DB00     		lsls	r3, r3, #3
 2661 0d4c 1344     		add	r3, r3, r2
 2662 0d4e 3A68     		ldr	r2, [r7]
 2663 0d50 1344     		add	r3, r3, r2
 2664 0d52 1B69     		ldr	r3, [r3, #16]
 479:../../source/src/kernel/OS_CORE/module.c ****                   shdr[elf_module->e_shstrndx].sh_offset;
 2665              		.loc 4 479 0
 2666 0d54 3A68     		ldr	r2, [r7]
 2667 0d56 1344     		add	r3, r3, r2
 2668 0d58 BB62     		str	r3, [r7, #40]
 481:../../source/src/kernel/OS_CORE/module.c ****         if (ka_strcmp((const char *)(shstrab + shdr[index].sh_name), ELF_DYNSYM) == 0)
 2669              		.loc 4 481 0
 2670 0d5a 3B68     		ldr	r3, [r7]
 2671 0d5c 196A     		ldr	r1, [r3, #32]
 2672 0d5e 7A6D     		ldr	r2, [r7, #84]
 2673 0d60 1346     		mov	r3, r2
 2674 0d62 9B00     		lsls	r3, r3, #2
 2675 0d64 1344     		add	r3, r3, r2
 2676 0d66 DB00     		lsls	r3, r3, #3
 2677 0d68 0B44     		add	r3, r3, r1
 2678 0d6a 3A68     		ldr	r2, [r7]
 2679 0d6c 1344     		add	r3, r3, r2
 2680 0d6e 1B68     		ldr	r3, [r3]
 2681 0d70 BA6A     		ldr	r2, [r7, #40]
 2682 0d72 1344     		add	r3, r3, r2
 2683 0d74 6049     		ldr	r1, .L157+8
 2684 0d76 1846     		mov	r0, r3
 2685 0d78 FFF7FEFF 		bl	ka_strcmp
 2686 0d7c 0346     		mov	r3, r0
 2687 0d7e 002B     		cmp	r3, #0
 2688 0d80 09D0     		beq	.L153
 2689              	.LBE20:
 475:../../source/src/kernel/OS_CORE/module.c ****     {
 2690              		.loc 4 475 0 discriminator 2
ARM GAS  G:\Users\Jaxb\AppData\Local\Temp\ccWBP0T4.s 			page 64


 2691 0d82 7B6D     		ldr	r3, [r7, #84]
 2692 0d84 0133     		adds	r3, r3, #1
 2693 0d86 7B65     		str	r3, [r7, #84]
 2694              	.L136:
 475:../../source/src/kernel/OS_CORE/module.c ****     {
 2695              		.loc 4 475 0 is_stmt 0 discriminator 1
 2696 0d88 3B68     		ldr	r3, [r7]
 2697 0d8a 1B8E     		ldrh	r3, [r3, #48]
 2698 0d8c 1A46     		mov	r2, r3
 2699 0d8e 7B6D     		ldr	r3, [r7, #84]
 2700 0d90 9342     		cmp	r3, r2
 2701 0d92 D2D3     		bcc	.L139
 2702 0d94 00E0     		b	.L138
 2703              	.L153:
 2704              	.LBB21:
 482:../../source/src/kernel/OS_CORE/module.c ****             break;
 2705              		.loc 4 482 0 is_stmt 1
 2706 0d96 00BF     		nop
 2707              	.L138:
 2708              	.LBE21:
 483:../../source/src/kernel/OS_CORE/module.c ****     }
 484:../../source/src/kernel/OS_CORE/module.c ****     /* found .dynsym section */
 485:../../source/src/kernel/OS_CORE/module.c ****     if (index != elf_module->e_shnum)
 2709              		.loc 4 485 0
 2710 0d98 3B68     		ldr	r3, [r7]
 2711 0d9a 1B8E     		ldrh	r3, [r3, #48]
 2712 0d9c 1A46     		mov	r2, r3
 2713 0d9e 7B6D     		ldr	r3, [r7, #84]
 2714 0da0 9342     		cmp	r3, r2
 2715 0da2 00F03981 		beq	.L140
 2716              	.LBB22:
 486:../../source/src/kernel/OS_CORE/module.c ****     {
 487:../../source/src/kernel/OS_CORE/module.c ****         int i, count = 0;
 2717              		.loc 4 487 0
 2718 0da6 0023     		movs	r3, #0
 2719 0da8 7B63     		str	r3, [r7, #52]
 488:../../source/src/kernel/OS_CORE/module.c ****         Elf32_Sym  *symtab = NULL;
 2720              		.loc 4 488 0
 2721 0daa 0023     		movs	r3, #0
 2722 0dac 7B62     		str	r3, [r7, #36]
 489:../../source/src/kernel/OS_CORE/module.c ****         UINT8 *strtab = NULL;
 2723              		.loc 4 489 0
 2724 0dae 0023     		movs	r3, #0
 2725 0db0 3B62     		str	r3, [r7, #32]
 490:../../source/src/kernel/OS_CORE/module.c **** 
 491:../../source/src/kernel/OS_CORE/module.c ****         symtab = (Elf32_Sym *)((UINT8 *)module_ptr + shdr[index].sh_offset);
 2726              		.loc 4 491 0
 2727 0db2 3B68     		ldr	r3, [r7]
 2728 0db4 196A     		ldr	r1, [r3, #32]
 2729 0db6 7A6D     		ldr	r2, [r7, #84]
 2730 0db8 1346     		mov	r3, r2
 2731 0dba 9B00     		lsls	r3, r3, #2
 2732 0dbc 1344     		add	r3, r3, r2
 2733 0dbe DB00     		lsls	r3, r3, #3
 2734 0dc0 0B44     		add	r3, r3, r1
 2735 0dc2 3A68     		ldr	r2, [r7]
 2736 0dc4 1344     		add	r3, r3, r2
ARM GAS  G:\Users\Jaxb\AppData\Local\Temp\ccWBP0T4.s 			page 65


 2737 0dc6 1B69     		ldr	r3, [r3, #16]
 2738 0dc8 3A68     		ldr	r2, [r7]
 2739 0dca 1344     		add	r3, r3, r2
 2740 0dcc 7B62     		str	r3, [r7, #36]
 492:../../source/src/kernel/OS_CORE/module.c ****         strtab = (UINT8 *)module_ptr + shdr[shdr[index].sh_link].sh_offset;
 2741              		.loc 4 492 0
 2742 0dce 3B68     		ldr	r3, [r7]
 2743 0dd0 196A     		ldr	r1, [r3, #32]
 2744 0dd2 3B68     		ldr	r3, [r7]
 2745 0dd4 186A     		ldr	r0, [r3, #32]
 2746 0dd6 7A6D     		ldr	r2, [r7, #84]
 2747 0dd8 1346     		mov	r3, r2
 2748 0dda 9B00     		lsls	r3, r3, #2
 2749 0ddc 1344     		add	r3, r3, r2
 2750 0dde DB00     		lsls	r3, r3, #3
 2751 0de0 0344     		add	r3, r3, r0
 2752 0de2 3A68     		ldr	r2, [r7]
 2753 0de4 1344     		add	r3, r3, r2
 2754 0de6 9A69     		ldr	r2, [r3, #24]
 2755 0de8 1346     		mov	r3, r2
 2756 0dea 9B00     		lsls	r3, r3, #2
 2757 0dec 1344     		add	r3, r3, r2
 2758 0dee DB00     		lsls	r3, r3, #3
 2759 0df0 0B44     		add	r3, r3, r1
 2760 0df2 3A68     		ldr	r2, [r7]
 2761 0df4 1344     		add	r3, r3, r2
 2762 0df6 1B69     		ldr	r3, [r3, #16]
 2763 0df8 3A68     		ldr	r2, [r7]
 2764 0dfa 1344     		add	r3, r3, r2
 2765 0dfc 3B62     		str	r3, [r7, #32]
 493:../../source/src/kernel/OS_CORE/module.c **** 
 494:../../source/src/kernel/OS_CORE/module.c ****         for (i = 0; i < shdr[index].sh_size / sizeof(Elf32_Sym); i++)
 2766              		.loc 4 494 0
 2767 0dfe 0023     		movs	r3, #0
 2768 0e00 BB63     		str	r3, [r7, #56]
 2769 0e02 56E0     		b	.L141
 2770              	.L144:
 495:../../source/src/kernel/OS_CORE/module.c ****         {
 496:../../source/src/kernel/OS_CORE/module.c ****             if ((ELF_ST_BIND(symtab[i].st_info) == STB_GLOBAL) &&
 2771              		.loc 4 496 0
 2772 0e04 BB6B     		ldr	r3, [r7, #56]
 2773 0e06 1B01     		lsls	r3, r3, #4
 2774 0e08 7A6A     		ldr	r2, [r7, #36]
 2775 0e0a 1344     		add	r3, r3, r2
 2776 0e0c 1B7B     		ldrb	r3, [r3, #12]	@ zero_extendqisi2
 2777 0e0e 1B09     		lsrs	r3, r3, #4
 2778 0e10 DBB2     		uxtb	r3, r3
 2779 0e12 012B     		cmp	r3, #1
 2780 0e14 4AD1     		bne	.L142
 497:../../source/src/kernel/OS_CORE/module.c ****                 (ELF_ST_TYPE(symtab[i].st_info) == STT_FUNC))   //export function only
 2781              		.loc 4 497 0 discriminator 1
 2782 0e16 BB6B     		ldr	r3, [r7, #56]
 2783 0e18 1B01     		lsls	r3, r3, #4
 2784 0e1a 7A6A     		ldr	r2, [r7, #36]
 2785 0e1c 1344     		add	r3, r3, r2
 2786 0e1e 1B7B     		ldrb	r3, [r3, #12]	@ zero_extendqisi2
 2787 0e20 03F00F03 		and	r3, r3, #15
ARM GAS  G:\Users\Jaxb\AppData\Local\Temp\ccWBP0T4.s 			page 66


 496:../../source/src/kernel/OS_CORE/module.c ****                 (ELF_ST_TYPE(symtab[i].st_info) == STT_FUNC))   //export function only
 2788              		.loc 4 496 0 discriminator 1
 2789 0e24 022B     		cmp	r3, #2
 2790 0e26 41D1     		bne	.L142
 498:../../source/src/kernel/OS_CORE/module.c ****             {
 499:../../source/src/kernel/OS_CORE/module.c ****                 ++count;
 2791              		.loc 4 499 0
 2792 0e28 7B6B     		ldr	r3, [r7, #52]
 2793 0e2a 0133     		adds	r3, r3, #1
 2794 0e2c 7B63     		str	r3, [r7, #52]
 500:../../source/src/kernel/OS_CORE/module.c ****                 if(0 == ka_strcmp("init_module",(const char *)(strtab + symtab[i].st_name)))
 2795              		.loc 4 500 0
 2796 0e2e BB6B     		ldr	r3, [r7, #56]
 2797 0e30 1B01     		lsls	r3, r3, #4
 2798 0e32 7A6A     		ldr	r2, [r7, #36]
 2799 0e34 1344     		add	r3, r3, r2
 2800 0e36 1B68     		ldr	r3, [r3]
 2801 0e38 3A6A     		ldr	r2, [r7, #32]
 2802 0e3a 1344     		add	r3, r3, r2
 2803 0e3c 1946     		mov	r1, r3
 2804 0e3e 2F48     		ldr	r0, .L157+12
 2805 0e40 FFF7FEFF 		bl	ka_strcmp
 2806 0e44 0346     		mov	r3, r0
 2807 0e46 002B     		cmp	r3, #0
 2808 0e48 11D1     		bne	.L143
 501:../../source/src/kernel/OS_CORE/module.c ****                 {
 502:../../source/src/kernel/OS_CORE/module.c ****                     --count;
 2809              		.loc 4 502 0
 2810 0e4a 7B6B     		ldr	r3, [r7, #52]
 2811 0e4c 013B     		subs	r3, r3, #1
 2812 0e4e 7B63     		str	r3, [r7, #52]
 503:../../source/src/kernel/OS_CORE/module.c ****                     module->init = module->module_space + symtab[i].st_value - module->vstart_addr;
 2813              		.loc 4 503 0
 2814 0e50 7B68     		ldr	r3, [r7, #4]
 2815 0e52 5A6B     		ldr	r2, [r3, #52]
 2816 0e54 BB6B     		ldr	r3, [r7, #56]
 2817 0e56 1B01     		lsls	r3, r3, #4
 2818 0e58 796A     		ldr	r1, [r7, #36]
 2819 0e5a 0B44     		add	r3, r3, r1
 2820 0e5c 5968     		ldr	r1, [r3, #4]
 2821 0e5e 7B68     		ldr	r3, [r7, #4]
 2822 0e60 5B6C     		ldr	r3, [r3, #68]
 2823 0e62 CB1A     		subs	r3, r1, r3
 2824 0e64 1344     		add	r3, r3, r2
 2825 0e66 1A46     		mov	r2, r3
 2826 0e68 7B68     		ldr	r3, [r7, #4]
 2827 0e6a DA62     		str	r2, [r3, #44]
 2828 0e6c 1EE0     		b	.L142
 2829              	.L143:
 504:../../source/src/kernel/OS_CORE/module.c ****                 }
 505:../../source/src/kernel/OS_CORE/module.c ****                 else if(0 == ka_strcmp("exit_module",(const char *)(strtab + symtab[i].st_name)))
 2830              		.loc 4 505 0
 2831 0e6e BB6B     		ldr	r3, [r7, #56]
 2832 0e70 1B01     		lsls	r3, r3, #4
 2833 0e72 7A6A     		ldr	r2, [r7, #36]
 2834 0e74 1344     		add	r3, r3, r2
 2835 0e76 1B68     		ldr	r3, [r3]
ARM GAS  G:\Users\Jaxb\AppData\Local\Temp\ccWBP0T4.s 			page 67


 2836 0e78 3A6A     		ldr	r2, [r7, #32]
 2837 0e7a 1344     		add	r3, r3, r2
 2838 0e7c 1946     		mov	r1, r3
 2839 0e7e 2048     		ldr	r0, .L157+16
 2840 0e80 FFF7FEFF 		bl	ka_strcmp
 2841 0e84 0346     		mov	r3, r0
 2842 0e86 002B     		cmp	r3, #0
 2843 0e88 10D1     		bne	.L142
 506:../../source/src/kernel/OS_CORE/module.c ****                 {
 507:../../source/src/kernel/OS_CORE/module.c ****                     --count;
 2844              		.loc 4 507 0
 2845 0e8a 7B6B     		ldr	r3, [r7, #52]
 2846 0e8c 013B     		subs	r3, r3, #1
 2847 0e8e 7B63     		str	r3, [r7, #52]
 508:../../source/src/kernel/OS_CORE/module.c ****                     module->exit = module->module_space + symtab[i].st_value - module->vstart_addr;
 2848              		.loc 4 508 0
 2849 0e90 7B68     		ldr	r3, [r7, #4]
 2850 0e92 5A6B     		ldr	r2, [r3, #52]
 2851 0e94 BB6B     		ldr	r3, [r7, #56]
 2852 0e96 1B01     		lsls	r3, r3, #4
 2853 0e98 796A     		ldr	r1, [r7, #36]
 2854 0e9a 0B44     		add	r3, r3, r1
 2855 0e9c 5968     		ldr	r1, [r3, #4]
 2856 0e9e 7B68     		ldr	r3, [r7, #4]
 2857 0ea0 5B6C     		ldr	r3, [r3, #68]
 2858 0ea2 CB1A     		subs	r3, r1, r3
 2859 0ea4 1344     		add	r3, r3, r2
 2860 0ea6 1A46     		mov	r2, r3
 2861 0ea8 7B68     		ldr	r3, [r7, #4]
 2862 0eaa 1A63     		str	r2, [r3, #48]
 2863              	.L142:
 494:../../source/src/kernel/OS_CORE/module.c ****         {
 2864              		.loc 4 494 0 discriminator 2
 2865 0eac BB6B     		ldr	r3, [r7, #56]
 2866 0eae 0133     		adds	r3, r3, #1
 2867 0eb0 BB63     		str	r3, [r7, #56]
 2868              	.L141:
 494:../../source/src/kernel/OS_CORE/module.c ****         {
 2869              		.loc 4 494 0 is_stmt 0 discriminator 1
 2870 0eb2 3B68     		ldr	r3, [r7]
 2871 0eb4 196A     		ldr	r1, [r3, #32]
 2872 0eb6 7A6D     		ldr	r2, [r7, #84]
 2873 0eb8 1346     		mov	r3, r2
 2874 0eba 9B00     		lsls	r3, r3, #2
 2875 0ebc 1344     		add	r3, r3, r2
 2876 0ebe DB00     		lsls	r3, r3, #3
 2877 0ec0 0B44     		add	r3, r3, r1
 2878 0ec2 3A68     		ldr	r2, [r7]
 2879 0ec4 1344     		add	r3, r3, r2
 2880 0ec6 5B69     		ldr	r3, [r3, #20]
 2881 0ec8 1A09     		lsrs	r2, r3, #4
 2882 0eca BB6B     		ldr	r3, [r7, #56]
 2883 0ecc 9A42     		cmp	r2, r3
 2884 0ece 99D8     		bhi	.L144
 509:../../source/src/kernel/OS_CORE/module.c ****                 }
 510:../../source/src/kernel/OS_CORE/module.c ****             }
 511:../../source/src/kernel/OS_CORE/module.c ****         }
ARM GAS  G:\Users\Jaxb\AppData\Local\Temp\ccWBP0T4.s 			page 68


 512:../../source/src/kernel/OS_CORE/module.c **** 
 513:../../source/src/kernel/OS_CORE/module.c ****         module->export_symbols_array = (struct ka_module_symtab *)ka_malloc
 2885              		.loc 4 513 0 is_stmt 1
 2886 0ed0 7B6B     		ldr	r3, [r7, #52]
 2887 0ed2 DB00     		lsls	r3, r3, #3
 2888 0ed4 1846     		mov	r0, r3
 2889 0ed6 FFF7FEFF 		bl	ka_malloc
 2890 0eda 0246     		mov	r2, r0
 2891 0edc 7B68     		ldr	r3, [r7, #4]
 2892 0ede 9A64     		str	r2, [r3, #72]
 514:../../source/src/kernel/OS_CORE/module.c ****                                         (count * sizeof(struct ka_module_symtab));
 515:../../source/src/kernel/OS_CORE/module.c ****         module->export_symbols_num = count;
 2893              		.loc 4 515 0
 2894 0ee0 7A6B     		ldr	r2, [r7, #52]
 2895 0ee2 7B68     		ldr	r3, [r7, #4]
 2896 0ee4 DA64     		str	r2, [r3, #76]
 516:../../source/src/kernel/OS_CORE/module.c ****         for (i = 0, count = 0; i < shdr[index].sh_size / sizeof(Elf32_Sym); i++)
 2897              		.loc 4 516 0
 2898 0ee6 0023     		movs	r3, #0
 2899 0ee8 BB63     		str	r3, [r7, #56]
 2900 0eea 0023     		movs	r3, #0
 2901 0eec 7B63     		str	r3, [r7, #52]
 2902 0eee 83E0     		b	.L145
 2903              	.L158:
 2904              		.align	2
 2905              	.L157:
 2906 0ef0 78030000 		.word	.LC31
 2907 0ef4 10000000 		.word	unsolved.4612
 2908 0ef8 A8030000 		.word	.LC32
 2909 0efc B0030000 		.word	.LC33
 2910 0f00 BC030000 		.word	.LC34
 2911              	.L149:
 2912              	.LBB23:
 517:../../source/src/kernel/OS_CORE/module.c ****         {
 518:../../source/src/kernel/OS_CORE/module.c ****             unsigned long length;
 519:../../source/src/kernel/OS_CORE/module.c **** 
 520:../../source/src/kernel/OS_CORE/module.c ****             if ((ELF_ST_BIND(symtab[i].st_info) != STB_GLOBAL) ||
 2913              		.loc 4 520 0
 2914 0f04 BB6B     		ldr	r3, [r7, #56]
 2915 0f06 1B01     		lsls	r3, r3, #4
 2916 0f08 7A6A     		ldr	r2, [r7, #36]
 2917 0f0a 1344     		add	r3, r3, r2
 2918 0f0c 1B7B     		ldrb	r3, [r3, #12]	@ zero_extendqisi2
 2919 0f0e 1B09     		lsrs	r3, r3, #4
 2920 0f10 DBB2     		uxtb	r3, r3
 2921 0f12 012B     		cmp	r3, #1
 2922 0f14 6CD1     		bne	.L154
 521:../../source/src/kernel/OS_CORE/module.c ****                 (ELF_ST_TYPE(symtab[i].st_info) != STT_FUNC)   ||
 2923              		.loc 4 521 0 discriminator 1
 2924 0f16 BB6B     		ldr	r3, [r7, #56]
 2925 0f18 1B01     		lsls	r3, r3, #4
 2926 0f1a 7A6A     		ldr	r2, [r7, #36]
 2927 0f1c 1344     		add	r3, r3, r2
 2928 0f1e 1B7B     		ldrb	r3, [r3, #12]	@ zero_extendqisi2
 2929 0f20 03F00F03 		and	r3, r3, #15
 520:../../source/src/kernel/OS_CORE/module.c ****                 (ELF_ST_TYPE(symtab[i].st_info) != STT_FUNC)   ||
 2930              		.loc 4 520 0 discriminator 1
ARM GAS  G:\Users\Jaxb\AppData\Local\Temp\ccWBP0T4.s 			page 69


 2931 0f24 022B     		cmp	r3, #2
 2932 0f26 63D1     		bne	.L154
 522:../../source/src/kernel/OS_CORE/module.c ****                 (0 == ka_strcmp("init_module",(const char *)(strtab + symtab[i].st_name))) ||
 2933              		.loc 4 522 0
 2934 0f28 BB6B     		ldr	r3, [r7, #56]
 2935 0f2a 1B01     		lsls	r3, r3, #4
 2936 0f2c 7A6A     		ldr	r2, [r7, #36]
 2937 0f2e 1344     		add	r3, r3, r2
 2938 0f30 1B68     		ldr	r3, [r3]
 2939 0f32 3A6A     		ldr	r2, [r7, #32]
 2940 0f34 1344     		add	r3, r3, r2
 2941 0f36 1946     		mov	r1, r3
 2942 0f38 3A48     		ldr	r0, .L159
 2943 0f3a FFF7FEFF 		bl	ka_strcmp
 2944 0f3e 0346     		mov	r3, r0
 521:../../source/src/kernel/OS_CORE/module.c ****                 (ELF_ST_TYPE(symtab[i].st_info) != STT_FUNC)   ||
 2945              		.loc 4 521 0
 2946 0f40 002B     		cmp	r3, #0
 2947 0f42 55D0     		beq	.L154
 523:../../source/src/kernel/OS_CORE/module.c ****                 (0 == ka_strcmp("exit_module",(const char *)(strtab + symtab[i].st_name))))
 2948              		.loc 4 523 0
 2949 0f44 BB6B     		ldr	r3, [r7, #56]
 2950 0f46 1B01     		lsls	r3, r3, #4
 2951 0f48 7A6A     		ldr	r2, [r7, #36]
 2952 0f4a 1344     		add	r3, r3, r2
 2953 0f4c 1B68     		ldr	r3, [r3]
 2954 0f4e 3A6A     		ldr	r2, [r7, #32]
 2955 0f50 1344     		add	r3, r3, r2
 2956 0f52 1946     		mov	r1, r3
 2957 0f54 3448     		ldr	r0, .L159+4
 2958 0f56 FFF7FEFF 		bl	ka_strcmp
 2959 0f5a 0346     		mov	r3, r0
 522:../../source/src/kernel/OS_CORE/module.c ****                 (0 == ka_strcmp("init_module",(const char *)(strtab + symtab[i].st_name))) ||
 2960              		.loc 4 522 0
 2961 0f5c 002B     		cmp	r3, #0
 2962 0f5e 47D0     		beq	.L154
 524:../../source/src/kernel/OS_CORE/module.c ****                 continue;
 525:../../source/src/kernel/OS_CORE/module.c **** 
 526:../../source/src/kernel/OS_CORE/module.c ****             length = ka_strlen((const char *)(strtab + symtab[i].st_name)) + 1;
 2963              		.loc 4 526 0
 2964 0f60 BB6B     		ldr	r3, [r7, #56]
 2965 0f62 1B01     		lsls	r3, r3, #4
 2966 0f64 7A6A     		ldr	r2, [r7, #36]
 2967 0f66 1344     		add	r3, r3, r2
 2968 0f68 1B68     		ldr	r3, [r3]
 2969 0f6a 3A6A     		ldr	r2, [r7, #32]
 2970 0f6c 1344     		add	r3, r3, r2
 2971 0f6e 1846     		mov	r0, r3
 2972 0f70 FFF7FEFF 		bl	ka_strlen
 2973 0f74 0346     		mov	r3, r0
 2974 0f76 0133     		adds	r3, r3, #1
 2975 0f78 FB61     		str	r3, [r7, #28]
 527:../../source/src/kernel/OS_CORE/module.c **** 
 528:../../source/src/kernel/OS_CORE/module.c ****             module->export_symbols_array[count].addr =
 529:../../source/src/kernel/OS_CORE/module.c ****                 (void *)(module->module_space + symtab[i].st_value - module->vstart_addr);
 2976              		.loc 4 529 0
 2977 0f7a 7B68     		ldr	r3, [r7, #4]
ARM GAS  G:\Users\Jaxb\AppData\Local\Temp\ccWBP0T4.s 			page 70


 2978 0f7c 596B     		ldr	r1, [r3, #52]
 2979 0f7e BB6B     		ldr	r3, [r7, #56]
 2980 0f80 1B01     		lsls	r3, r3, #4
 2981 0f82 7A6A     		ldr	r2, [r7, #36]
 2982 0f84 1344     		add	r3, r3, r2
 2983 0f86 5A68     		ldr	r2, [r3, #4]
 2984 0f88 7B68     		ldr	r3, [r7, #4]
 2985 0f8a 5B6C     		ldr	r3, [r3, #68]
 2986 0f8c D21A     		subs	r2, r2, r3
 528:../../source/src/kernel/OS_CORE/module.c ****                 (void *)(module->module_space + symtab[i].st_value - module->vstart_addr);
 2987              		.loc 4 528 0
 2988 0f8e 7B68     		ldr	r3, [r7, #4]
 2989 0f90 986C     		ldr	r0, [r3, #72]
 2990 0f92 7B6B     		ldr	r3, [r7, #52]
 2991 0f94 DB00     		lsls	r3, r3, #3
 2992 0f96 0344     		add	r3, r3, r0
 2993              		.loc 4 529 0
 2994 0f98 0A44     		add	r2, r2, r1
 528:../../source/src/kernel/OS_CORE/module.c ****                 (void *)(module->module_space + symtab[i].st_value - module->vstart_addr);
 2995              		.loc 4 528 0
 2996 0f9a 1A60     		str	r2, [r3]
 530:../../source/src/kernel/OS_CORE/module.c ****             module->export_symbols_array[count].name = ka_malloc(length);
 2997              		.loc 4 530 0
 2998 0f9c 7B68     		ldr	r3, [r7, #4]
 2999 0f9e 9A6C     		ldr	r2, [r3, #72]
 3000 0fa0 7B6B     		ldr	r3, [r7, #52]
 3001 0fa2 DB00     		lsls	r3, r3, #3
 3002 0fa4 D418     		adds	r4, r2, r3
 3003 0fa6 F869     		ldr	r0, [r7, #28]
 3004 0fa8 FFF7FEFF 		bl	ka_malloc
 3005 0fac 0346     		mov	r3, r0
 3006 0fae 6360     		str	r3, [r4, #4]
 531:../../source/src/kernel/OS_CORE/module.c ****             ka_memset((void *)module->export_symbols_array[count].name, 0, length);
 3007              		.loc 4 531 0
 3008 0fb0 7B68     		ldr	r3, [r7, #4]
 3009 0fb2 9A6C     		ldr	r2, [r3, #72]
 3010 0fb4 7B6B     		ldr	r3, [r7, #52]
 3011 0fb6 DB00     		lsls	r3, r3, #3
 3012 0fb8 1344     		add	r3, r3, r2
 3013 0fba 5B68     		ldr	r3, [r3, #4]
 3014 0fbc FA69     		ldr	r2, [r7, #28]
 3015 0fbe 0021     		movs	r1, #0
 3016 0fc0 1846     		mov	r0, r3
 3017 0fc2 FFF7FEFF 		bl	ka_memset
 532:../../source/src/kernel/OS_CORE/module.c ****             ka_memcpy((void *)module->export_symbols_array[count].name,
 3018              		.loc 4 532 0
 3019 0fc6 7B68     		ldr	r3, [r7, #4]
 3020 0fc8 9A6C     		ldr	r2, [r3, #72]
 3021 0fca 7B6B     		ldr	r3, [r7, #52]
 3022 0fcc DB00     		lsls	r3, r3, #3
 3023 0fce 1344     		add	r3, r3, r2
 3024 0fd0 5868     		ldr	r0, [r3, #4]
 533:../../source/src/kernel/OS_CORE/module.c ****                       strtab + symtab[i].st_name,
 3025              		.loc 4 533 0
 3026 0fd2 BB6B     		ldr	r3, [r7, #56]
 3027 0fd4 1B01     		lsls	r3, r3, #4
 3028 0fd6 7A6A     		ldr	r2, [r7, #36]
ARM GAS  G:\Users\Jaxb\AppData\Local\Temp\ccWBP0T4.s 			page 71


 3029 0fd8 1344     		add	r3, r3, r2
 3030 0fda 1B68     		ldr	r3, [r3]
 3031 0fdc 3A6A     		ldr	r2, [r7, #32]
 3032 0fde 1344     		add	r3, r3, r2
 532:../../source/src/kernel/OS_CORE/module.c ****             ka_memcpy((void *)module->export_symbols_array[count].name,
 3033              		.loc 4 532 0
 3034 0fe0 FA69     		ldr	r2, [r7, #28]
 3035 0fe2 1946     		mov	r1, r3
 3036 0fe4 FFF7FEFF 		bl	ka_memcpy
 534:../../source/src/kernel/OS_CORE/module.c ****                       length);
 535:../../source/src/kernel/OS_CORE/module.c ****             count ++;
 3037              		.loc 4 535 0
 3038 0fe8 7B6B     		ldr	r3, [r7, #52]
 3039 0fea 0133     		adds	r3, r3, #1
 3040 0fec 7B63     		str	r3, [r7, #52]
 3041 0fee 00E0     		b	.L148
 3042              	.L154:
 524:../../source/src/kernel/OS_CORE/module.c **** 
 3043              		.loc 4 524 0
 3044 0ff0 00BF     		nop
 3045              	.L148:
 3046              	.LBE23:
 516:../../source/src/kernel/OS_CORE/module.c ****         {
 3047              		.loc 4 516 0 discriminator 2
 3048 0ff2 BB6B     		ldr	r3, [r7, #56]
 3049 0ff4 0133     		adds	r3, r3, #1
 3050 0ff6 BB63     		str	r3, [r7, #56]
 3051              	.L145:
 516:../../source/src/kernel/OS_CORE/module.c ****         {
 3052              		.loc 4 516 0 is_stmt 0 discriminator 1
 3053 0ff8 3B68     		ldr	r3, [r7]
 3054 0ffa 196A     		ldr	r1, [r3, #32]
 3055 0ffc 7A6D     		ldr	r2, [r7, #84]
 3056 0ffe 1346     		mov	r3, r2
 3057 1000 9B00     		lsls	r3, r3, #2
 3058 1002 1344     		add	r3, r3, r2
 3059 1004 DB00     		lsls	r3, r3, #3
 3060 1006 0B44     		add	r3, r3, r1
 3061 1008 3A68     		ldr	r2, [r7]
 3062 100a 1344     		add	r3, r3, r2
 3063 100c 5B69     		ldr	r3, [r3, #20]
 3064 100e 1A09     		lsrs	r2, r3, #4
 3065 1010 BB6B     		ldr	r3, [r7, #56]
 3066 1012 9A42     		cmp	r2, r3
 3067 1014 3FF676AF 		bhi	.L149
 3068              	.L140:
 3069              	.LBE22:
 536:../../source/src/kernel/OS_CORE/module.c ****         }
 537:../../source/src/kernel/OS_CORE/module.c ****     }
 538:../../source/src/kernel/OS_CORE/module.c **** 
 539:../../source/src/kernel/OS_CORE/module.c ****     return FUN_EXECUTE_SUCCESSFULLY;
 3070              		.loc 4 539 0 is_stmt 1
 3071 1018 0023     		movs	r3, #0
 3072              	.L114:
 540:../../source/src/kernel/OS_CORE/module.c **** }
 3073              		.loc 4 540 0
 3074 101a 1846     		mov	r0, r3
ARM GAS  G:\Users\Jaxb\AppData\Local\Temp\ccWBP0T4.s 			page 72


 3075 101c 5C37     		adds	r7, r7, #92
 3076              	.LCFI96:
 3077              		.cfi_def_cfa_offset 12
 3078 101e BD46     		mov	sp, r7
 3079              	.LCFI97:
 3080              		.cfi_def_cfa_register 13
 3081              		@ sp needed
 3082 1020 90BD     		pop	{r4, r7, pc}
 3083              	.L160:
 3084 1022 00BF     		.align	2
 3085              	.L159:
 3086 1024 B0030000 		.word	.LC33
 3087 1028 BC030000 		.word	.LC34
 3088              		.cfi_endproc
 3089              	.LFE22:
 3090              		.size	dlmodule_load_shared_object, .-dlmodule_load_shared_object
 3091              		.section	.rodata
 3092              		.align	2
 3093              	.LC35:
 3094 03c8 64796E61 		.ascii	"dynamicmodule\000"
 3094      6D69636D 
 3094      6F64756C 
 3094      6500
 3095              		.text
 3096              		.align	1
 3097              		.syntax unified
 3098              		.thumb
 3099              		.thumb_func
 3100              		.fpu softvfp
 3101              		.type	__init_d_module, %function
 3102              	__init_d_module:
 3103              	.LFB23:
 541:../../source/src/kernel/OS_CORE/module.c **** 
 542:../../source/src/kernel/OS_CORE/module.c **** static void __init_d_module(struct dynamic_module *dynamic_module_ptr)
 543:../../source/src/kernel/OS_CORE/module.c **** {
 3104              		.loc 4 543 0
 3105              		.cfi_startproc
 3106              		@ args = 0, pretend = 0, frame = 8
 3107              		@ frame_needed = 1, uses_anonymous_args = 0
 3108 102c 80B5     		push	{r7, lr}
 3109              	.LCFI98:
 3110              		.cfi_def_cfa_offset 8
 3111              		.cfi_offset 7, -8
 3112              		.cfi_offset 14, -4
 3113 102e 82B0     		sub	sp, sp, #8
 3114              	.LCFI99:
 3115              		.cfi_def_cfa_offset 16
 3116 1030 00AF     		add	r7, sp, #0
 3117              	.LCFI100:
 3118              		.cfi_def_cfa_register 7
 3119 1032 7860     		str	r0, [r7, #4]
 544:../../source/src/kernel/OS_CORE/module.c ****     ka_strcpy(dynamic_module_ptr->name,D_MODULE_DEFAULT_NAME);
 3120              		.loc 4 544 0
 3121 1034 7B68     		ldr	r3, [r7, #4]
 3122 1036 1849     		ldr	r1, .L162
 3123 1038 1846     		mov	r0, r3
 3124 103a FFF7FEFF 		bl	ka_strcpy
ARM GAS  G:\Users\Jaxb\AppData\Local\Temp\ccWBP0T4.s 			page 73


 545:../../source/src/kernel/OS_CORE/module.c ****     INIT_LIST_HEAD(&(dynamic_module_ptr->module_list));
 3125              		.loc 4 545 0
 3126 103e 7B68     		ldr	r3, [r7, #4]
 3127 1040 2033     		adds	r3, r3, #32
 3128 1042 1846     		mov	r0, r3
 3129 1044 FEF7DCFF 		bl	INIT_LIST_HEAD
 546:../../source/src/kernel/OS_CORE/module.c ****     dynamic_module_ptr->module_state = MODULE_STATE_INIT;
 3130              		.loc 4 546 0
 3131 1048 7B68     		ldr	r3, [r7, #4]
 3132 104a 0022     		movs	r2, #0
 3133 104c 9A62     		str	r2, [r3, #40]
 547:../../source/src/kernel/OS_CORE/module.c ****     dynamic_module_ptr->init                    = NULL;
 3134              		.loc 4 547 0
 3135 104e 7B68     		ldr	r3, [r7, #4]
 3136 1050 0022     		movs	r2, #0
 3137 1052 DA62     		str	r2, [r3, #44]
 548:../../source/src/kernel/OS_CORE/module.c ****     dynamic_module_ptr->exit                    = NULL;
 3138              		.loc 4 548 0
 3139 1054 7B68     		ldr	r3, [r7, #4]
 3140 1056 0022     		movs	r2, #0
 3141 1058 1A63     		str	r2, [r3, #48]
 549:../../source/src/kernel/OS_CORE/module.c ****     dynamic_module_ptr->module_space            = NULL;
 3142              		.loc 4 549 0
 3143 105a 7B68     		ldr	r3, [r7, #4]
 3144 105c 0022     		movs	r2, #0
 3145 105e 5A63     		str	r2, [r3, #52]
 550:../../source/src/kernel/OS_CORE/module.c ****     dynamic_module_ptr->module_size             = 0;
 3146              		.loc 4 550 0
 3147 1060 7B68     		ldr	r3, [r7, #4]
 3148 1062 0022     		movs	r2, #0
 3149 1064 9A63     		str	r2, [r3, #56]
 551:../../source/src/kernel/OS_CORE/module.c ****     dynamic_module_ptr->init_space              = NULL;
 3150              		.loc 4 551 0
 3151 1066 7B68     		ldr	r3, [r7, #4]
 3152 1068 0022     		movs	r2, #0
 3153 106a DA63     		str	r2, [r3, #60]
 552:../../source/src/kernel/OS_CORE/module.c ****     dynamic_module_ptr->entry                   = NULL;
 3154              		.loc 4 552 0
 3155 106c 7B68     		ldr	r3, [r7, #4]
 3156 106e 0022     		movs	r2, #0
 3157 1070 1A64     		str	r2, [r3, #64]
 553:../../source/src/kernel/OS_CORE/module.c ****     dynamic_module_ptr->vstart_addr             = NULL;
 3158              		.loc 4 553 0
 3159 1072 7B68     		ldr	r3, [r7, #4]
 3160 1074 0022     		movs	r2, #0
 3161 1076 5A64     		str	r2, [r3, #68]
 554:../../source/src/kernel/OS_CORE/module.c ****     dynamic_module_ptr->export_symbols_array    = NULL;
 3162              		.loc 4 554 0
 3163 1078 7B68     		ldr	r3, [r7, #4]
 3164 107a 0022     		movs	r2, #0
 3165 107c 9A64     		str	r2, [r3, #72]
 555:../../source/src/kernel/OS_CORE/module.c ****     dynamic_module_ptr->export_symbols_num      = 0;
 3166              		.loc 4 555 0
 3167 107e 7B68     		ldr	r3, [r7, #4]
 3168 1080 0022     		movs	r2, #0
 3169 1082 DA64     		str	r2, [r3, #76]
 556:../../source/src/kernel/OS_CORE/module.c ****     dynamic_module_ptr->ref                     = 0;
ARM GAS  G:\Users\Jaxb\AppData\Local\Temp\ccWBP0T4.s 			page 74


 3170              		.loc 4 556 0
 3171 1084 7B68     		ldr	r3, [r7, #4]
 3172 1086 0022     		movs	r2, #0
 3173 1088 1A65     		str	r2, [r3, #80]
 557:../../source/src/kernel/OS_CORE/module.c ****     dynamic_module_ptr->thread_TCB_ptr          = NULL;
 3174              		.loc 4 557 0
 3175 108a 7B68     		ldr	r3, [r7, #4]
 3176 108c 0022     		movs	r2, #0
 3177 108e 5A65     		str	r2, [r3, #84]
 558:../../source/src/kernel/OS_CORE/module.c **** }
 3178              		.loc 4 558 0
 3179 1090 00BF     		nop
 3180 1092 0837     		adds	r7, r7, #8
 3181              	.LCFI101:
 3182              		.cfi_def_cfa_offset 8
 3183 1094 BD46     		mov	sp, r7
 3184              	.LCFI102:
 3185              		.cfi_def_cfa_register 13
 3186              		@ sp needed
 3187 1096 80BD     		pop	{r7, pc}
 3188              	.L163:
 3189              		.align	2
 3190              	.L162:
 3191 1098 C8030000 		.word	.LC35
 3192              		.cfi_endproc
 3193              	.LFE23:
 3194              		.size	__init_d_module, .-__init_d_module
 3195              		.section	.rodata
 3196 03d6 0000     		.align	2
 3197              	.LC36:
 3198 03d8 7F52544D 		.ascii	"\177RTM\000"
 3198      00
 3199 03dd 000000   		.align	2
 3200              	.LC37:
 3201 03e0 7F454C46 		.ascii	"\177ELF\000"
 3201      00
 3202 03e5 000000   		.align	2
 3203              	.LC38:
 3204 03e8 4D6F6475 		.ascii	"Module: magic error\012\000"
 3204      6C653A20 
 3204      6D616769 
 3204      63206572 
 3204      726F720A 
 3205 03fd 000000   		.align	2
 3206              	.LC39:
 3207 0400 4D6F6475 		.ascii	"Module: ELF class error\012\000"
 3207      6C653A20 
 3207      454C4620 
 3207      636C6173 
 3207      73206572 
 3208 0419 000000   		.align	2
 3209              	.LC40:
 3210 041c 6C6F6164 		.ascii	"load shared file\012\000"
 3210      20736861 
 3210      72656420 
 3210      66696C65 
 3210      0A00
ARM GAS  G:\Users\Jaxb\AppData\Local\Temp\ccWBP0T4.s 			page 75


 3211 042e 0000     		.align	2
 3212              	.LC41:
 3213 0430 4D6F6475 		.ascii	"Module: unsupported elf type\012\000"
 3213      6C653A20 
 3213      756E7375 
 3213      70706F72 
 3213      74656420 
 3214              		.text
 3215              		.align	1
 3216              		.global	dlmodule_load
 3217              		.syntax unified
 3218              		.thumb
 3219              		.thumb_func
 3220              		.fpu softvfp
 3221              		.type	dlmodule_load, %function
 3222              	dlmodule_load:
 3223              	.LFB24:
 559:../../source/src/kernel/OS_CORE/module.c **** 
 560:../../source/src/kernel/OS_CORE/module.c **** struct dynamic_module* dlmodule_load(void)
 561:../../source/src/kernel/OS_CORE/module.c **** {
 3224              		.loc 4 561 0
 3225              		.cfi_startproc
 3226              		@ args = 0, pretend = 0, frame = 16
 3227              		@ frame_needed = 1, uses_anonymous_args = 0
 3228 109c 80B5     		push	{r7, lr}
 3229              	.LCFI103:
 3230              		.cfi_def_cfa_offset 8
 3231              		.cfi_offset 7, -8
 3232              		.cfi_offset 14, -4
 3233 109e 84B0     		sub	sp, sp, #16
 3234              	.LCFI104:
 3235              		.cfi_def_cfa_offset 24
 3236 10a0 00AF     		add	r7, sp, #0
 3237              	.LCFI105:
 3238              		.cfi_def_cfa_register 7
 562:../../source/src/kernel/OS_CORE/module.c ****     CPU_SR_ALLOC();
 3239              		.loc 4 562 0
 3240 10a2 0023     		movs	r3, #0
 3241 10a4 BB60     		str	r3, [r7, #8]
 563:../../source/src/kernel/OS_CORE/module.c ****     CPU_CRITICAL_ENTER();
 3242              		.loc 4 563 0
 3243 10a6 FFF7FEFF 		bl	CPU_SR_Save
 3244 10aa B860     		str	r0, [r7, #8]
 564:../../source/src/kernel/OS_CORE/module.c ****     int error = FUN_EXECUTE_SUCCESSFULLY;
 3245              		.loc 4 564 0
 3246 10ac 0023     		movs	r3, #0
 3247 10ae 7B60     		str	r3, [r7, #4]
 565:../../source/src/kernel/OS_CORE/module.c ****     UINT8 *module_ptr = (UINT8 *)module_buffer;
 3248              		.loc 4 565 0
 3249 10b0 394B     		ldr	r3, .L176
 3250 10b2 1B68     		ldr	r3, [r3]
 3251 10b4 3B60     		str	r3, [r7]
 566:../../source/src/kernel/OS_CORE/module.c ****     struct dynamic_module *module = NULL;
 3252              		.loc 4 566 0
 3253 10b6 0023     		movs	r3, #0
 3254 10b8 FB60     		str	r3, [r7, #12]
 567:../../source/src/kernel/OS_CORE/module.c **** 
ARM GAS  G:\Users\Jaxb\AppData\Local\Temp\ccWBP0T4.s 			page 76


 568:../../source/src/kernel/OS_CORE/module.c ****     /* check ELF header */
 569:../../source/src/kernel/OS_CORE/module.c ****     if (ka_strncmp((const char *)elf_module->e_ident, (const char *)RTMMAG, SELFMAG) != 0 &&
 3255              		.loc 4 569 0
 3256 10ba 3B68     		ldr	r3, [r7]
 3257 10bc 0422     		movs	r2, #4
 3258 10be 3749     		ldr	r1, .L176+4
 3259 10c0 1846     		mov	r0, r3
 3260 10c2 FFF7FEFF 		bl	ka_strncmp
 3261 10c6 0346     		mov	r3, r0
 3262 10c8 002B     		cmp	r3, #0
 3263 10ca 0CD0     		beq	.L165
 570:../../source/src/kernel/OS_CORE/module.c ****             ka_strncmp((const char *)elf_module->e_ident, (const char *)ELFMAG, SELFMAG) != 0)
 3264              		.loc 4 570 0 discriminator 1
 3265 10cc 3B68     		ldr	r3, [r7]
 3266 10ce 0422     		movs	r2, #4
 3267 10d0 3349     		ldr	r1, .L176+8
 3268 10d2 1846     		mov	r0, r3
 3269 10d4 FFF7FEFF 		bl	ka_strncmp
 3270 10d8 0346     		mov	r3, r0
 569:../../source/src/kernel/OS_CORE/module.c ****             ka_strncmp((const char *)elf_module->e_ident, (const char *)ELFMAG, SELFMAG) != 0)
 3271              		.loc 4 569 0 discriminator 1
 3272 10da 002B     		cmp	r3, #0
 3273 10dc 03D0     		beq	.L165
 571:../../source/src/kernel/OS_CORE/module.c ****     {
 572:../../source/src/kernel/OS_CORE/module.c ****         ka_printf("Module: magic error\n");
 3274              		.loc 4 572 0
 3275 10de 3148     		ldr	r0, .L176+12
 3276 10e0 FFF7FEFF 		bl	ka_printf
 573:../../source/src/kernel/OS_CORE/module.c ****         goto __exit;
 3277              		.loc 4 573 0
 3278 10e4 3AE0     		b	.L166
 3279              	.L165:
 574:../../source/src/kernel/OS_CORE/module.c ****     }
 575:../../source/src/kernel/OS_CORE/module.c **** 
 576:../../source/src/kernel/OS_CORE/module.c ****     /* check ELF class */
 577:../../source/src/kernel/OS_CORE/module.c ****     if (elf_module->e_ident[EI_CLASS] != ELFCLASS32)
 3280              		.loc 4 577 0
 3281 10e6 3B68     		ldr	r3, [r7]
 3282 10e8 1B79     		ldrb	r3, [r3, #4]	@ zero_extendqisi2
 3283 10ea 012B     		cmp	r3, #1
 3284 10ec 03D0     		beq	.L167
 578:../../source/src/kernel/OS_CORE/module.c ****     {
 579:../../source/src/kernel/OS_CORE/module.c ****         ka_printf("Module: ELF class error\n");
 3285              		.loc 4 579 0
 3286 10ee 2E48     		ldr	r0, .L176+16
 3287 10f0 FFF7FEFF 		bl	ka_printf
 580:../../source/src/kernel/OS_CORE/module.c ****         goto __exit;
 3288              		.loc 4 580 0
 3289 10f4 32E0     		b	.L166
 3290              	.L167:
 581:../../source/src/kernel/OS_CORE/module.c ****     }
 582:../../source/src/kernel/OS_CORE/module.c **** 
 583:../../source/src/kernel/OS_CORE/module.c ****     module = (struct dynamic_module *)ka_malloc(sizeof(struct dynamic_module));
 3291              		.loc 4 583 0
 3292 10f6 5820     		movs	r0, #88
 3293 10f8 FFF7FEFF 		bl	ka_malloc
 3294 10fc F860     		str	r0, [r7, #12]
ARM GAS  G:\Users\Jaxb\AppData\Local\Temp\ccWBP0T4.s 			page 77


 584:../../source/src/kernel/OS_CORE/module.c ****     if (!module) goto __exit;
 3295              		.loc 4 584 0
 3296 10fe FB68     		ldr	r3, [r7, #12]
 3297 1100 002B     		cmp	r3, #0
 3298 1102 2AD0     		beq	.L175
 585:../../source/src/kernel/OS_CORE/module.c ****     __init_d_module(module);
 3299              		.loc 4 585 0
 3300 1104 F868     		ldr	r0, [r7, #12]
 3301 1106 FFF791FF 		bl	__init_d_module
 586:../../source/src/kernel/OS_CORE/module.c **** 
 587:../../source/src/kernel/OS_CORE/module.c ****     if (elf_module->e_type == ET_DYN)
 3302              		.loc 4 587 0
 3303 110a 3B68     		ldr	r3, [r7]
 3304 110c 1B8A     		ldrh	r3, [r3, #16]
 3305 110e 032B     		cmp	r3, #3
 3306 1110 0BD1     		bne	.L169
 588:../../source/src/kernel/OS_CORE/module.c ****     {
 589:../../source/src/kernel/OS_CORE/module.c ****         ka_printf("load shared file\n");
 3307              		.loc 4 589 0
 3308 1112 2648     		ldr	r0, .L176+20
 3309 1114 FFF7FEFF 		bl	ka_printf
 590:../../source/src/kernel/OS_CORE/module.c ****         error = dlmodule_load_shared_object(module, module_ptr);
 3310              		.loc 4 590 0
 3311 1118 3968     		ldr	r1, [r7]
 3312 111a F868     		ldr	r0, [r7, #12]
 3313 111c FFF7FEFF 		bl	dlmodule_load_shared_object
 3314 1120 7860     		str	r0, [r7, #4]
 591:../../source/src/kernel/OS_CORE/module.c ****     }
 592:../../source/src/kernel/OS_CORE/module.c ****     else
 593:../../source/src/kernel/OS_CORE/module.c ****     {
 594:../../source/src/kernel/OS_CORE/module.c ****         ka_printf("Module: unsupported elf type\n");
 595:../../source/src/kernel/OS_CORE/module.c ****         goto __exit;
 596:../../source/src/kernel/OS_CORE/module.c ****     }
 597:../../source/src/kernel/OS_CORE/module.c **** 
 598:../../source/src/kernel/OS_CORE/module.c ****     /* check return value */
 599:../../source/src/kernel/OS_CORE/module.c ****     if (FUN_EXECUTE_SUCCESSFULLY != error) goto __exit;
 3315              		.loc 4 599 0
 3316 1122 7B68     		ldr	r3, [r7, #4]
 3317 1124 002B     		cmp	r3, #0
 3318 1126 04D0     		beq	.L171
 3319 1128 18E0     		b	.L166
 3320              	.L169:
 594:../../source/src/kernel/OS_CORE/module.c ****         goto __exit;
 3321              		.loc 4 594 0
 3322 112a 2148     		ldr	r0, .L176+24
 3323 112c FFF7FEFF 		bl	ka_printf
 595:../../source/src/kernel/OS_CORE/module.c ****     }
 3324              		.loc 4 595 0
 3325 1130 14E0     		b	.L166
 3326              	.L171:
 600:../../source/src/kernel/OS_CORE/module.c **** 
 601:../../source/src/kernel/OS_CORE/module.c ****     /* increase module reference count */
 602:../../source/src/kernel/OS_CORE/module.c ****     module->ref ++;
 3327              		.loc 4 602 0
 3328 1132 FB68     		ldr	r3, [r7, #12]
 3329 1134 1B6D     		ldr	r3, [r3, #80]
 3330 1136 5A1C     		adds	r2, r3, #1
ARM GAS  G:\Users\Jaxb\AppData\Local\Temp\ccWBP0T4.s 			page 78


 3331 1138 FB68     		ldr	r3, [r7, #12]
 3332 113a 1A65     		str	r2, [r3, #80]
 603:../../source/src/kernel/OS_CORE/module.c ****     list_add(&module->module_list,&module_list_head);
 3333              		.loc 4 603 0
 3334 113c FB68     		ldr	r3, [r7, #12]
 3335 113e 2033     		adds	r3, r3, #32
 3336 1140 1C49     		ldr	r1, .L176+28
 3337 1142 1846     		mov	r0, r3
 3338 1144 FEF782FF 		bl	list_add
 604:../../source/src/kernel/OS_CORE/module.c **** 
 605:../../source/src/kernel/OS_CORE/module.c ****     set_module_state(module,MODULE_STATE_LOADED);
 3339              		.loc 4 605 0
 3340 1148 0121     		movs	r1, #1
 3341 114a F868     		ldr	r0, [r7, #12]
 3342 114c FEF7CCFF 		bl	set_module_state
 606:../../source/src/kernel/OS_CORE/module.c ****     CPU_CRITICAL_EXIT();
 3343              		.loc 4 606 0
 3344 1150 B868     		ldr	r0, [r7, #8]
 3345 1152 FFF7FEFF 		bl	CPU_SR_Restore
 607:../../source/src/kernel/OS_CORE/module.c ****     return module;
 3346              		.loc 4 607 0
 3347 1156 FB68     		ldr	r3, [r7, #12]
 3348 1158 19E0     		b	.L172
 3349              	.L175:
 584:../../source/src/kernel/OS_CORE/module.c ****     __init_d_module(module);
 3350              		.loc 4 584 0
 3351 115a 00BF     		nop
 3352              	.L166:
 608:../../source/src/kernel/OS_CORE/module.c **** 
 609:../../source/src/kernel/OS_CORE/module.c **** __exit:
 610:../../source/src/kernel/OS_CORE/module.c **** 		
 611:../../source/src/kernel/OS_CORE/module.c **** 	if(module) 
 3353              		.loc 4 611 0
 3354 115c FB68     		ldr	r3, [r7, #12]
 3355 115e 002B     		cmp	r3, #0
 3356 1160 0FD0     		beq	.L173
 612:../../source/src/kernel/OS_CORE/module.c ****     {
 613:../../source/src/kernel/OS_CORE/module.c ****         if(!list_empty(&module->module_list))
 3357              		.loc 4 613 0
 3358 1162 FB68     		ldr	r3, [r7, #12]
 3359 1164 2033     		adds	r3, r3, #32
 3360 1166 1846     		mov	r0, r3
 3361 1168 FEF7A0FF 		bl	list_empty
 3362 116c 0346     		mov	r3, r0
 3363 116e 002B     		cmp	r3, #0
 3364 1170 04D1     		bne	.L174
 614:../../source/src/kernel/OS_CORE/module.c ****         {
 615:../../source/src/kernel/OS_CORE/module.c ****             list_del(&module->module_list);
 3365              		.loc 4 615 0
 3366 1172 FB68     		ldr	r3, [r7, #12]
 3367 1174 2033     		adds	r3, r3, #32
 3368 1176 1846     		mov	r0, r3
 3369 1178 FEF788FF 		bl	list_del
 3370              	.L174:
 616:../../source/src/kernel/OS_CORE/module.c ****         }
 617:../../source/src/kernel/OS_CORE/module.c ****         ka_free(module);
 3371              		.loc 4 617 0
ARM GAS  G:\Users\Jaxb\AppData\Local\Temp\ccWBP0T4.s 			page 79


 3372 117c F868     		ldr	r0, [r7, #12]
 3373 117e FFF7FEFF 		bl	ka_free
 3374              	.L173:
 618:../../source/src/kernel/OS_CORE/module.c ****     }
 619:../../source/src/kernel/OS_CORE/module.c **** 
 620:../../source/src/kernel/OS_CORE/module.c ****     _clear_module_buffer();
 3375              		.loc 4 620 0
 3376 1182 FFF7FEFF 		bl	_clear_module_buffer
 621:../../source/src/kernel/OS_CORE/module.c **** 	CPU_CRITICAL_EXIT();
 3377              		.loc 4 621 0
 3378 1186 B868     		ldr	r0, [r7, #8]
 3379 1188 FFF7FEFF 		bl	CPU_SR_Restore
 622:../../source/src/kernel/OS_CORE/module.c ****     return NULL;
 3380              		.loc 4 622 0
 3381 118c 0023     		movs	r3, #0
 3382              	.L172:
 623:../../source/src/kernel/OS_CORE/module.c **** }
 3383              		.loc 4 623 0
 3384 118e 1846     		mov	r0, r3
 3385 1190 1037     		adds	r7, r7, #16
 3386              	.LCFI106:
 3387              		.cfi_def_cfa_offset 8
 3388 1192 BD46     		mov	sp, r7
 3389              	.LCFI107:
 3390              		.cfi_def_cfa_register 13
 3391              		@ sp needed
 3392 1194 80BD     		pop	{r7, pc}
 3393              	.L177:
 3394 1196 00BF     		.align	2
 3395              	.L176:
 3396 1198 00000000 		.word	module_buffer
 3397 119c D8030000 		.word	.LC36
 3398 11a0 E0030000 		.word	.LC37
 3399 11a4 E8030000 		.word	.LC38
 3400 11a8 00040000 		.word	.LC39
 3401 11ac 1C040000 		.word	.LC40
 3402 11b0 30040000 		.word	.LC41
 3403 11b4 08000000 		.word	module_list_head
 3404              		.cfi_endproc
 3405              	.LFE24:
 3406              		.size	dlmodule_load, .-dlmodule_load
 3407              		.section	.rodata
 3408 044e 0000     		.align	2
 3409              	.LC42:
 3410 0450 6D6F6475 		.ascii	"module init error\012\000"
 3410      6C652069 
 3410      6E697420 
 3410      6572726F 
 3410      720A00
 3411              		.text
 3412              		.align	1
 3413              		.global	_dlmodule_exec
 3414              		.syntax unified
 3415              		.thumb
 3416              		.thumb_func
 3417              		.fpu softvfp
 3418              		.type	_dlmodule_exec, %function
ARM GAS  G:\Users\Jaxb\AppData\Local\Temp\ccWBP0T4.s 			page 80


 3419              	_dlmodule_exec:
 3420              	.LFB25:
 624:../../source/src/kernel/OS_CORE/module.c **** 
 625:../../source/src/kernel/OS_CORE/module.c **** 
 626:../../source/src/kernel/OS_CORE/module.c **** int _dlmodule_exec(
 627:../../source/src/kernel/OS_CORE/module.c ****     unsigned int stack_size,
 628:../../source/src/kernel/OS_CORE/module.c ****     TASK_PRIO_TYPE prio,
 629:../../source/src/kernel/OS_CORE/module.c ****     const char *name)
 630:../../source/src/kernel/OS_CORE/module.c **** {
 3421              		.loc 4 630 0
 3422              		.cfi_startproc
 3423              		@ args = 0, pretend = 0, frame = 32
 3424              		@ frame_needed = 1, uses_anonymous_args = 0
 3425 11b8 80B5     		push	{r7, lr}
 3426              	.LCFI108:
 3427              		.cfi_def_cfa_offset 8
 3428              		.cfi_offset 7, -8
 3429              		.cfi_offset 14, -4
 3430 11ba 8CB0     		sub	sp, sp, #48
 3431              	.LCFI109:
 3432              		.cfi_def_cfa_offset 56
 3433 11bc 04AF     		add	r7, sp, #16
 3434              	.LCFI110:
 3435              		.cfi_def_cfa 7, 40
 3436 11be F860     		str	r0, [r7, #12]
 3437 11c0 B960     		str	r1, [r7, #8]
 3438 11c2 7A60     		str	r2, [r7, #4]
 631:../../source/src/kernel/OS_CORE/module.c ****     struct dynamic_module *module = NULL;
 3439              		.loc 4 631 0
 3440 11c4 0023     		movs	r3, #0
 3441 11c6 FB61     		str	r3, [r7, #28]
 632:../../source/src/kernel/OS_CORE/module.c ****     int error;
 633:../../source/src/kernel/OS_CORE/module.c ****     TCB *TCB_ptr;
 634:../../source/src/kernel/OS_CORE/module.c **** 
 635:../../source/src/kernel/OS_CORE/module.c ****     module = dlmodule_load();
 3442              		.loc 4 635 0
 3443 11c8 FFF7FEFF 		bl	dlmodule_load
 3444 11cc F861     		str	r0, [r7, #28]
 636:../../source/src/kernel/OS_CORE/module.c ****     if ((module) && (module->entry))
 3445              		.loc 4 636 0
 3446 11ce FB69     		ldr	r3, [r7, #28]
 3447 11d0 002B     		cmp	r3, #0
 3448 11d2 5ED0     		beq	.L179
 3449              		.loc 4 636 0 is_stmt 0 discriminator 1
 3450 11d4 FB69     		ldr	r3, [r7, #28]
 3451 11d6 1B6C     		ldr	r3, [r3, #64]
 3452 11d8 002B     		cmp	r3, #0
 3453 11da 5AD0     		beq	.L179
 637:../../source/src/kernel/OS_CORE/module.c ****     {
 638:../../source/src/kernel/OS_CORE/module.c ****         set_module_state(module,MODULE_STATE_LOADED);
 3454              		.loc 4 638 0 is_stmt 1
 3455 11dc 0121     		movs	r1, #1
 3456 11de F869     		ldr	r0, [r7, #28]
 3457 11e0 FEF782FF 		bl	set_module_state
 639:../../source/src/kernel/OS_CORE/module.c ****         if(name)
 3458              		.loc 4 639 0
 3459 11e4 7B68     		ldr	r3, [r7, #4]
ARM GAS  G:\Users\Jaxb\AppData\Local\Temp\ccWBP0T4.s 			page 81


 3460 11e6 002B     		cmp	r3, #0
 3461 11e8 0BD0     		beq	.L180
 640:../../source/src/kernel/OS_CORE/module.c ****         {
 641:../../source/src/kernel/OS_CORE/module.c ****             ka_strcpy(module->name,name);
 3462              		.loc 4 641 0
 3463 11ea FB69     		ldr	r3, [r7, #28]
 3464 11ec 7968     		ldr	r1, [r7, #4]
 3465 11ee 1846     		mov	r0, r3
 3466 11f0 FFF7FEFF 		bl	ka_strcpy
 642:../../source/src/kernel/OS_CORE/module.c ****             module->name[ka_strlen(name)] = '\0';
 3467              		.loc 4 642 0
 3468 11f4 7868     		ldr	r0, [r7, #4]
 3469 11f6 FFF7FEFF 		bl	ka_strlen
 3470 11fa 0246     		mov	r2, r0
 3471 11fc FB69     		ldr	r3, [r7, #28]
 3472 11fe 0021     		movs	r1, #0
 3473 1200 9954     		strb	r1, [r3, r2]
 3474              	.L180:
 643:../../source/src/kernel/OS_CORE/module.c ****         }
 644:../../source/src/kernel/OS_CORE/module.c ****         if(prio >= PRIO_MAX)
 3475              		.loc 4 644 0
 3476 1202 BB68     		ldr	r3, [r7, #8]
 3477 1204 3F2B     		cmp	r3, #63
 3478 1206 01D9     		bls	.L181
 645:../../source/src/kernel/OS_CORE/module.c ****         {
 646:../../source/src/kernel/OS_CORE/module.c ****             prio = D_MODULE_DEFAULT_PRIO;
 3479              		.loc 4 646 0
 3480 1208 3E23     		movs	r3, #62
 3481 120a BB60     		str	r3, [r7, #8]
 3482              	.L181:
 647:../../source/src/kernel/OS_CORE/module.c ****         }
 648:../../source/src/kernel/OS_CORE/module.c ****         error = task_creat_ready(stack_size, prio, HZ / 10, module->name,
 3483              		.loc 4 648 0
 3484 120c FA69     		ldr	r2, [r7, #28]
 649:../../source/src/kernel/OS_CORE/module.c ****                                  (functionptr)(module->entry), NULL, &TCB_ptr);
 3485              		.loc 4 649 0
 3486 120e FB69     		ldr	r3, [r7, #28]
 3487 1210 1B6C     		ldr	r3, [r3, #64]
 648:../../source/src/kernel/OS_CORE/module.c ****                                  (functionptr)(module->entry), NULL, &TCB_ptr);
 3488              		.loc 4 648 0
 3489 1212 1946     		mov	r1, r3
 3490 1214 07F11403 		add	r3, r7, #20
 3491 1218 0293     		str	r3, [sp, #8]
 3492 121a 0023     		movs	r3, #0
 3493 121c 0193     		str	r3, [sp, #4]
 3494 121e 0091     		str	r1, [sp]
 3495 1220 1346     		mov	r3, r2
 3496 1222 0A22     		movs	r2, #10
 3497 1224 B968     		ldr	r1, [r7, #8]
 3498 1226 F868     		ldr	r0, [r7, #12]
 3499 1228 FFF7FEFF 		bl	task_creat_ready
 3500 122c B861     		str	r0, [r7, #24]
 650:../../source/src/kernel/OS_CORE/module.c ****         if (!error)
 3501              		.loc 4 650 0
 3502 122e BB69     		ldr	r3, [r7, #24]
 3503 1230 002B     		cmp	r3, #0
 3504 1232 19D1     		bne	.L182
ARM GAS  G:\Users\Jaxb\AppData\Local\Temp\ccWBP0T4.s 			page 82


 651:../../source/src/kernel/OS_CORE/module.c ****         {
 652:../../source/src/kernel/OS_CORE/module.c ****             module->thread_TCB_ptr = TCB_ptr;
 3505              		.loc 4 652 0
 3506 1234 7A69     		ldr	r2, [r7, #20]
 3507 1236 FB69     		ldr	r3, [r7, #28]
 3508 1238 5A65     		str	r2, [r3, #84]
 653:../../source/src/kernel/OS_CORE/module.c ****             set_module_flag(TCB_ptr);
 3509              		.loc 4 653 0
 3510 123a 7B69     		ldr	r3, [r7, #20]
 3511 123c 9A6B     		ldr	r2, [r3, #56]
 3512 123e 7B69     		ldr	r3, [r7, #20]
 3513 1240 42F00802 		orr	r2, r2, #8
 3514 1244 9A63     		str	r2, [r3, #56]
 654:../../source/src/kernel/OS_CORE/module.c ****             set_module_state(module,MODULE_STATE_RUN);
 3515              		.loc 4 654 0
 3516 1246 0221     		movs	r1, #2
 3517 1248 F869     		ldr	r0, [r7, #28]
 3518 124a FEF74DFF 		bl	set_module_state
 655:../../source/src/kernel/OS_CORE/module.c ****             set_tcb_module(TCB_ptr,module);
 3519              		.loc 4 655 0
 3520 124e 7B69     		ldr	r3, [r7, #20]
 3521 1250 F969     		ldr	r1, [r7, #28]
 3522 1252 1846     		mov	r0, r3
 3523 1254 FEF73BFF 		bl	set_tcb_module
 656:../../source/src/kernel/OS_CORE/module.c ****             ka_printf("module_thread run\n");
 3524              		.loc 4 656 0
 3525 1258 1248     		ldr	r0, .L190
 3526 125a FFF7FEFF 		bl	ka_printf
 657:../../source/src/kernel/OS_CORE/module.c ****         }
 658:../../source/src/kernel/OS_CORE/module.c ****         else
 659:../../source/src/kernel/OS_CORE/module.c ****         {
 660:../../source/src/kernel/OS_CORE/module.c ****             ka_printf("module_thread fail,error code is %d\n",error);
 661:../../source/src/kernel/OS_CORE/module.c ****             return error;
 662:../../source/src/kernel/OS_CORE/module.c ****         }
 663:../../source/src/kernel/OS_CORE/module.c ****         if(module->init)
 3527              		.loc 4 663 0
 3528 125e FB69     		ldr	r3, [r7, #28]
 3529 1260 DB6A     		ldr	r3, [r3, #44]
 3530 1262 002B     		cmp	r3, #0
 3531 1264 18D0     		beq	.L189
 3532 1266 05E0     		b	.L188
 3533              	.L182:
 660:../../source/src/kernel/OS_CORE/module.c ****             return error;
 3534              		.loc 4 660 0
 3535 1268 B969     		ldr	r1, [r7, #24]
 3536 126a 0F48     		ldr	r0, .L190+4
 3537 126c FFF7FEFF 		bl	ka_printf
 661:../../source/src/kernel/OS_CORE/module.c ****         }
 3538              		.loc 4 661 0
 3539 1270 BB69     		ldr	r3, [r7, #24]
 3540 1272 13E0     		b	.L187
 3541              	.L188:
 664:../../source/src/kernel/OS_CORE/module.c ****         {
 665:../../source/src/kernel/OS_CORE/module.c ****             error = module->init();
 3542              		.loc 4 665 0
 3543 1274 FB69     		ldr	r3, [r7, #28]
 3544 1276 DB6A     		ldr	r3, [r3, #44]
ARM GAS  G:\Users\Jaxb\AppData\Local\Temp\ccWBP0T4.s 			page 83


 3545 1278 9847     		blx	r3
 3546              	.LVL1:
 3547 127a B861     		str	r0, [r7, #24]
 666:../../source/src/kernel/OS_CORE/module.c ****             if(error < 0)
 3548              		.loc 4 666 0
 3549 127c BB69     		ldr	r3, [r7, #24]
 3550 127e 002B     		cmp	r3, #0
 3551 1280 0ADA     		bge	.L189
 667:../../source/src/kernel/OS_CORE/module.c ****             {
 668:../../source/src/kernel/OS_CORE/module.c ****                 ka_printf("module init error\n");
 3552              		.loc 4 668 0
 3553 1282 0A48     		ldr	r0, .L190+8
 3554 1284 FFF7FEFF 		bl	ka_printf
 669:../../source/src/kernel/OS_CORE/module.c ****                 task_delete(TCB_ptr);
 3555              		.loc 4 669 0
 3556 1288 7B69     		ldr	r3, [r7, #20]
 3557 128a 1846     		mov	r0, r3
 3558 128c FFF7FEFF 		bl	task_delete
 663:../../source/src/kernel/OS_CORE/module.c ****         {
 3559              		.loc 4 663 0
 3560 1290 02E0     		b	.L189
 3561              	.L179:
 670:../../source/src/kernel/OS_CORE/module.c ****             }
 671:../../source/src/kernel/OS_CORE/module.c ****         }
 672:../../source/src/kernel/OS_CORE/module.c ****     }
 673:../../source/src/kernel/OS_CORE/module.c ****     else
 674:../../source/src/kernel/OS_CORE/module.c ****     {
 675:../../source/src/kernel/OS_CORE/module.c ****         return -ERROR_LOGIC;
 3562              		.loc 4 675 0
 3563 1292 6FF0F803 		mvn	r3, #248
 3564 1296 01E0     		b	.L187
 3565              	.L189:
 663:../../source/src/kernel/OS_CORE/module.c ****         {
 3566              		.loc 4 663 0
 3567 1298 00BF     		nop
 676:../../source/src/kernel/OS_CORE/module.c ****     }
 677:../../source/src/kernel/OS_CORE/module.c **** 
 678:../../source/src/kernel/OS_CORE/module.c ****     return FUN_EXECUTE_SUCCESSFULLY;
 3568              		.loc 4 678 0
 3569 129a 0023     		movs	r3, #0
 3570              	.L187:
 679:../../source/src/kernel/OS_CORE/module.c **** }
 3571              		.loc 4 679 0 discriminator 1
 3572 129c 1846     		mov	r0, r3
 3573 129e 2037     		adds	r7, r7, #32
 3574              	.LCFI111:
 3575              		.cfi_def_cfa_offset 8
 3576 12a0 BD46     		mov	sp, r7
 3577              	.LCFI112:
 3578              		.cfi_def_cfa_register 13
 3579              		@ sp needed
 3580 12a2 80BD     		pop	{r7, pc}
 3581              	.L191:
 3582              		.align	2
 3583              	.L190:
 3584 12a4 04010000 		.word	.LC14
 3585 12a8 18010000 		.word	.LC15
ARM GAS  G:\Users\Jaxb\AppData\Local\Temp\ccWBP0T4.s 			page 84


 3586 12ac 50040000 		.word	.LC42
 3587              		.cfi_endproc
 3588              	.LFE25:
 3589              		.size	_dlmodule_exec, .-_dlmodule_exec
 3590              		.section	.rodata
 3591 0463 00       		.align	2
 3592              	.LC43:
 3593 0464 6E6F2072 		.ascii	"no room for module\012\000"
 3593      6F6F6D20 
 3593      666F7220 
 3593      6D6F6475 
 3593      6C650A00 
 3594              		.text
 3595              		.align	1
 3596              		.global	_put_in_module_buffer
 3597              		.syntax unified
 3598              		.thumb
 3599              		.thumb_func
 3600              		.fpu softvfp
 3601              		.type	_put_in_module_buffer, %function
 3602              	_put_in_module_buffer:
 3603              	.LFB26:
 680:../../source/src/kernel/OS_CORE/module.c **** 
 681:../../source/src/kernel/OS_CORE/module.c **** void _put_in_module_buffer(char c)
 682:../../source/src/kernel/OS_CORE/module.c **** {
 3604              		.loc 4 682 0
 3605              		.cfi_startproc
 3606              		@ args = 0, pretend = 0, frame = 8
 3607              		@ frame_needed = 1, uses_anonymous_args = 0
 3608 12b0 80B5     		push	{r7, lr}
 3609              	.LCFI113:
 3610              		.cfi_def_cfa_offset 8
 3611              		.cfi_offset 7, -8
 3612              		.cfi_offset 14, -4
 3613 12b2 82B0     		sub	sp, sp, #8
 3614              	.LCFI114:
 3615              		.cfi_def_cfa_offset 16
 3616 12b4 00AF     		add	r7, sp, #0
 3617              	.LCFI115:
 3618              		.cfi_def_cfa_register 7
 3619 12b6 0346     		mov	r3, r0
 3620 12b8 FB71     		strb	r3, [r7, #7]
 683:../../source/src/kernel/OS_CORE/module.c **** 	if(module_buffer)
 3621              		.loc 4 683 0
 3622 12ba 0B4B     		ldr	r3, .L196
 3623 12bc 1B68     		ldr	r3, [r3]
 3624 12be 002B     		cmp	r3, #0
 3625 12c0 0AD0     		beq	.L193
 684:../../source/src/kernel/OS_CORE/module.c **** 	{
 685:../../source/src/kernel/OS_CORE/module.c **** 		*(module_buffer + num++) = c;
 3626              		.loc 4 685 0
 3627 12c2 094B     		ldr	r3, .L196
 3628 12c4 1A68     		ldr	r2, [r3]
 3629 12c6 094B     		ldr	r3, .L196+4
 3630 12c8 1B68     		ldr	r3, [r3]
 3631 12ca 591C     		adds	r1, r3, #1
 3632 12cc 0748     		ldr	r0, .L196+4
ARM GAS  G:\Users\Jaxb\AppData\Local\Temp\ccWBP0T4.s 			page 85


 3633 12ce 0160     		str	r1, [r0]
 3634 12d0 1344     		add	r3, r3, r2
 3635 12d2 FA79     		ldrb	r2, [r7, #7]
 3636 12d4 1A70     		strb	r2, [r3]
 686:../../source/src/kernel/OS_CORE/module.c **** 	}
 687:../../source/src/kernel/OS_CORE/module.c ****     else
 688:../../source/src/kernel/OS_CORE/module.c ****     {
 689:../../source/src/kernel/OS_CORE/module.c ****         ka_printf("no room for module\n");
 690:../../source/src/kernel/OS_CORE/module.c ****     }
 691:../../source/src/kernel/OS_CORE/module.c **** }
 3637              		.loc 4 691 0
 3638 12d6 02E0     		b	.L195
 3639              	.L193:
 689:../../source/src/kernel/OS_CORE/module.c ****     }
 3640              		.loc 4 689 0
 3641 12d8 0548     		ldr	r0, .L196+8
 3642 12da FFF7FEFF 		bl	ka_printf
 3643              	.L195:
 3644              		.loc 4 691 0
 3645 12de 00BF     		nop
 3646 12e0 0837     		adds	r7, r7, #8
 3647              	.LCFI116:
 3648              		.cfi_def_cfa_offset 8
 3649 12e2 BD46     		mov	sp, r7
 3650              	.LCFI117:
 3651              		.cfi_def_cfa_register 13
 3652              		@ sp needed
 3653 12e4 80BD     		pop	{r7, pc}
 3654              	.L197:
 3655 12e6 00BF     		.align	2
 3656              	.L196:
 3657 12e8 00000000 		.word	module_buffer
 3658 12ec 04000000 		.word	num
 3659 12f0 64040000 		.word	.LC43
 3660              		.cfi_endproc
 3661              	.LFE26:
 3662              		.size	_put_in_module_buffer, .-_put_in_module_buffer
 3663              		.section	.rodata
 3664              		.align	2
 3665              	.LC44:
 3666 0478 67657420 		.ascii	"get %u bytes\012\000"
 3666      25752062 
 3666      79746573 
 3666      0A00
 3667              		.text
 3668              		.align	1
 3669              		.global	show_get_size
 3670              		.syntax unified
 3671              		.thumb
 3672              		.thumb_func
 3673              		.fpu softvfp
 3674              		.type	show_get_size, %function
 3675              	show_get_size:
 3676              	.LFB27:
 692:../../source/src/kernel/OS_CORE/module.c **** 
 693:../../source/src/kernel/OS_CORE/module.c **** void show_get_size(void)
 694:../../source/src/kernel/OS_CORE/module.c **** {
ARM GAS  G:\Users\Jaxb\AppData\Local\Temp\ccWBP0T4.s 			page 86


 3677              		.loc 4 694 0
 3678              		.cfi_startproc
 3679              		@ args = 0, pretend = 0, frame = 0
 3680              		@ frame_needed = 1, uses_anonymous_args = 0
 3681 12f4 80B5     		push	{r7, lr}
 3682              	.LCFI118:
 3683              		.cfi_def_cfa_offset 8
 3684              		.cfi_offset 7, -8
 3685              		.cfi_offset 14, -4
 3686 12f6 00AF     		add	r7, sp, #0
 3687              	.LCFI119:
 3688              		.cfi_def_cfa_register 7
 695:../../source/src/kernel/OS_CORE/module.c ****     ka_printf("get %u bytes\n",num);
 3689              		.loc 4 695 0
 3690 12f8 034B     		ldr	r3, .L199
 3691 12fa 1B68     		ldr	r3, [r3]
 3692 12fc 1946     		mov	r1, r3
 3693 12fe 0348     		ldr	r0, .L199+4
 3694 1300 FFF7FEFF 		bl	ka_printf
 696:../../source/src/kernel/OS_CORE/module.c **** }
 3695              		.loc 4 696 0
 3696 1304 00BF     		nop
 3697 1306 80BD     		pop	{r7, pc}
 3698              	.L200:
 3699              		.align	2
 3700              	.L199:
 3701 1308 04000000 		.word	num
 3702 130c 78040000 		.word	.LC44
 3703              		.cfi_endproc
 3704              	.LFE27:
 3705              		.size	show_get_size, .-show_get_size
 3706              		.align	1
 3707              		.global	_clear_module_buffer
 3708              		.syntax unified
 3709              		.thumb
 3710              		.thumb_func
 3711              		.fpu softvfp
 3712              		.type	_clear_module_buffer, %function
 3713              	_clear_module_buffer:
 3714              	.LFB28:
 697:../../source/src/kernel/OS_CORE/module.c **** 
 698:../../source/src/kernel/OS_CORE/module.c **** void _clear_module_buffer(void)
 699:../../source/src/kernel/OS_CORE/module.c **** {
 3715              		.loc 4 699 0
 3716              		.cfi_startproc
 3717              		@ args = 0, pretend = 0, frame = 0
 3718              		@ frame_needed = 1, uses_anonymous_args = 0
 3719              		@ link register save eliminated.
 3720 1310 80B4     		push	{r7}
 3721              	.LCFI120:
 3722              		.cfi_def_cfa_offset 4
 3723              		.cfi_offset 7, -4
 3724 1312 00AF     		add	r7, sp, #0
 3725              	.LCFI121:
 3726              		.cfi_def_cfa_register 7
 700:../../source/src/kernel/OS_CORE/module.c **** 	module_buffer = NULL;
 3727              		.loc 4 700 0
ARM GAS  G:\Users\Jaxb\AppData\Local\Temp\ccWBP0T4.s 			page 87


 3728 1314 044B     		ldr	r3, .L202
 3729 1316 0022     		movs	r2, #0
 3730 1318 1A60     		str	r2, [r3]
 701:../../source/src/kernel/OS_CORE/module.c **** 	num = 0;
 3731              		.loc 4 701 0
 3732 131a 044B     		ldr	r3, .L202+4
 3733 131c 0022     		movs	r2, #0
 3734 131e 1A60     		str	r2, [r3]
 702:../../source/src/kernel/OS_CORE/module.c **** }
 3735              		.loc 4 702 0
 3736 1320 00BF     		nop
 3737 1322 BD46     		mov	sp, r7
 3738              	.LCFI122:
 3739              		.cfi_def_cfa_register 13
 3740              		@ sp needed
 3741 1324 80BC     		pop	{r7}
 3742              	.LCFI123:
 3743              		.cfi_restore 7
 3744              		.cfi_def_cfa_offset 0
 3745 1326 7047     		bx	lr
 3746              	.L203:
 3747              		.align	2
 3748              	.L202:
 3749 1328 00000000 		.word	module_buffer
 3750 132c 04000000 		.word	num
 3751              		.cfi_endproc
 3752              	.LFE28:
 3753              		.size	_clear_module_buffer, .-_clear_module_buffer
 3754              		.align	1
 3755              		.global	_set_module_buffer
 3756              		.syntax unified
 3757              		.thumb
 3758              		.thumb_func
 3759              		.fpu softvfp
 3760              		.type	_set_module_buffer, %function
 3761              	_set_module_buffer:
 3762              	.LFB29:
 703:../../source/src/kernel/OS_CORE/module.c **** 
 704:../../source/src/kernel/OS_CORE/module.c **** void _set_module_buffer(void *add)
 705:../../source/src/kernel/OS_CORE/module.c **** {
 3763              		.loc 4 705 0
 3764              		.cfi_startproc
 3765              		@ args = 0, pretend = 0, frame = 8
 3766              		@ frame_needed = 1, uses_anonymous_args = 0
 3767              		@ link register save eliminated.
 3768 1330 80B4     		push	{r7}
 3769              	.LCFI124:
 3770              		.cfi_def_cfa_offset 4
 3771              		.cfi_offset 7, -4
 3772 1332 83B0     		sub	sp, sp, #12
 3773              	.LCFI125:
 3774              		.cfi_def_cfa_offset 16
 3775 1334 00AF     		add	r7, sp, #0
 3776              	.LCFI126:
 3777              		.cfi_def_cfa_register 7
 3778 1336 7860     		str	r0, [r7, #4]
 706:../../source/src/kernel/OS_CORE/module.c **** 	module_buffer = (char *)add;
ARM GAS  G:\Users\Jaxb\AppData\Local\Temp\ccWBP0T4.s 			page 88


 3779              		.loc 4 706 0
 3780 1338 034A     		ldr	r2, .L205
 3781 133a 7B68     		ldr	r3, [r7, #4]
 3782 133c 1360     		str	r3, [r2]
 707:../../source/src/kernel/OS_CORE/module.c **** }
 3783              		.loc 4 707 0
 3784 133e 00BF     		nop
 3785 1340 0C37     		adds	r7, r7, #12
 3786              	.LCFI127:
 3787              		.cfi_def_cfa_offset 4
 3788 1342 BD46     		mov	sp, r7
 3789              	.LCFI128:
 3790              		.cfi_def_cfa_register 13
 3791              		@ sp needed
 3792 1344 80BC     		pop	{r7}
 3793              	.LCFI129:
 3794              		.cfi_restore 7
 3795              		.cfi_def_cfa_offset 0
 3796 1346 7047     		bx	lr
 3797              	.L206:
 3798              		.align	2
 3799              	.L205:
 3800 1348 00000000 		.word	module_buffer
 3801              		.cfi_endproc
 3802              	.LFE29:
 3803              		.size	_set_module_buffer, .-_set_module_buffer
 3804              		.bss
 3805              		.align	2
 3806              	unsolved.4612:
 3807 0010 00000000 		.space	4
 3808              		.size	unsolved.4612, 4
 3809              		.text
 3810              	.Letext0:
 3811              		.file 5 "../../source/include/os_cpu/kakaosstdint.h"
 3812              		.file 6 "../../source/include/os_core/elf.h"
 3813              		.file 7 "../../source/include/os_core/task_state.h"
 3814              		.file 8 "../../source/include/os_cpu/os_cpu_stm32.h"
 3815              		.file 9 "../../source/include/os_core/export.h"
 3816              		.section	.debug_info,"",%progbits
 3817              	.Ldebug_info0:
 3818 0000 82100000 		.4byte	0x1082
 3819 0004 0200     		.2byte	0x2
 3820 0006 00000000 		.4byte	.Ldebug_abbrev0
 3821 000a 04       		.byte	0x4
 3822 000b 01       		.uleb128 0x1
 3823 000c D4040000 		.4byte	.LASF177
 3824 0010 0C       		.byte	0xc
 3825 0011 16060000 		.4byte	.LASF178
 3826 0015 DA070000 		.4byte	.LASF179
 3827 0019 00000000 		.4byte	.Ltext0
 3828 001d 4C130000 		.4byte	.Letext0
 3829 0021 00000000 		.4byte	.Ldebug_line0
 3830 0025 02       		.uleb128 0x2
 3831 0026 01       		.byte	0x1
 3832 0027 06       		.byte	0x6
 3833 0028 35010000 		.4byte	.LASF0
 3834 002c 02       		.uleb128 0x2
ARM GAS  G:\Users\Jaxb\AppData\Local\Temp\ccWBP0T4.s 			page 89


 3835 002d 02       		.byte	0x2
 3836 002e 05       		.byte	0x5
 3837 002f E1050000 		.4byte	.LASF1
 3838 0033 03       		.uleb128 0x3
 3839 0034 E8020000 		.4byte	.LASF3
 3840 0038 05       		.byte	0x5
 3841 0039 07       		.byte	0x7
 3842 003a 3E000000 		.4byte	0x3e
 3843 003e 04       		.uleb128 0x4
 3844 003f 04       		.byte	0x4
 3845 0040 05       		.byte	0x5
 3846 0041 696E7400 		.ascii	"int\000"
 3847 0045 05       		.uleb128 0x5
 3848 0046 3E000000 		.4byte	0x3e
 3849 004a 02       		.uleb128 0x2
 3850 004b 08       		.byte	0x8
 3851 004c 05       		.byte	0x5
 3852 004d 27010000 		.4byte	.LASF2
 3853 0051 03       		.uleb128 0x3
 3854 0052 D4070000 		.4byte	.LASF4
 3855 0056 05       		.byte	0x5
 3856 0057 0A       		.byte	0xa
 3857 0058 5C000000 		.4byte	0x5c
 3858 005c 02       		.uleb128 0x2
 3859 005d 01       		.byte	0x1
 3860 005e 08       		.byte	0x8
 3861 005f BC050000 		.4byte	.LASF5
 3862 0063 03       		.uleb128 0x3
 3863 0064 FB010000 		.4byte	.LASF6
 3864 0068 05       		.byte	0x5
 3865 0069 0B       		.byte	0xb
 3866 006a 6E000000 		.4byte	0x6e
 3867 006e 02       		.uleb128 0x2
 3868 006f 02       		.byte	0x2
 3869 0070 07       		.byte	0x7
 3870 0071 00030000 		.4byte	.LASF7
 3871 0075 03       		.uleb128 0x3
 3872 0076 03040000 		.4byte	.LASF8
 3873 007a 05       		.byte	0x5
 3874 007b 0C       		.byte	0xc
 3875 007c 80000000 		.4byte	0x80
 3876 0080 02       		.uleb128 0x2
 3877 0081 04       		.byte	0x4
 3878 0082 07       		.byte	0x7
 3879 0083 8F020000 		.4byte	.LASF9
 3880 0087 03       		.uleb128 0x3
 3881 0088 6C080000 		.4byte	.LASF10
 3882 008c 05       		.byte	0x5
 3883 008d 0D       		.byte	0xd
 3884 008e 92000000 		.4byte	0x92
 3885 0092 02       		.uleb128 0x2
 3886 0093 08       		.byte	0x8
 3887 0094 07       		.byte	0x7
 3888 0095 B2000000 		.4byte	.LASF11
 3889 0099 03       		.uleb128 0x3
 3890 009a 40000000 		.4byte	.LASF12
 3891 009e 05       		.byte	0x5
ARM GAS  G:\Users\Jaxb\AppData\Local\Temp\ccWBP0T4.s 			page 90


 3892 009f 23       		.byte	0x23
 3893 00a0 80000000 		.4byte	0x80
 3894 00a4 03       		.uleb128 0x3
 3895 00a5 E0060000 		.4byte	.LASF13
 3896 00a9 06       		.byte	0x6
 3897 00aa 08       		.byte	0x8
 3898 00ab 75000000 		.4byte	0x75
 3899 00af 03       		.uleb128 0x3
 3900 00b0 FE000000 		.4byte	.LASF14
 3901 00b4 06       		.byte	0x6
 3902 00b5 09       		.byte	0x9
 3903 00b6 75000000 		.4byte	0x75
 3904 00ba 03       		.uleb128 0x3
 3905 00bb A3020000 		.4byte	.LASF15
 3906 00bf 06       		.byte	0x6
 3907 00c0 0A       		.byte	0xa
 3908 00c1 33000000 		.4byte	0x33
 3909 00c5 03       		.uleb128 0x3
 3910 00c6 7F010000 		.4byte	.LASF16
 3911 00ca 06       		.byte	0x6
 3912 00cb 0B       		.byte	0xb
 3913 00cc 75000000 		.4byte	0x75
 3914 00d0 03       		.uleb128 0x3
 3915 00d1 4D040000 		.4byte	.LASF17
 3916 00d5 06       		.byte	0x6
 3917 00d6 0C       		.byte	0xc
 3918 00d7 63000000 		.4byte	0x63
 3919 00db 06       		.uleb128 0x6
 3920 00dc 68020000 		.4byte	.LASF44
 3921 00e0 34       		.byte	0x34
 3922 00e1 06       		.byte	0x6
 3923 00e2 33       		.byte	0x33
 3924 00e3 AC010000 		.4byte	0x1ac
 3925 00e7 07       		.uleb128 0x7
 3926 00e8 0E060000 		.4byte	.LASF18
 3927 00ec 06       		.byte	0x6
 3928 00ed 35       		.byte	0x35
 3929 00ee AC010000 		.4byte	0x1ac
 3930 00f2 02       		.byte	0x2
 3931 00f3 23       		.byte	0x23
 3932 00f4 00       		.uleb128 0
 3933 00f5 07       		.uleb128 0x7
 3934 00f6 A5000000 		.4byte	.LASF19
 3935 00fa 06       		.byte	0x6
 3936 00fb 36       		.byte	0x36
 3937 00fc D0000000 		.4byte	0xd0
 3938 0100 02       		.byte	0x2
 3939 0101 23       		.byte	0x23
 3940 0102 10       		.uleb128 0x10
 3941 0103 07       		.uleb128 0x7
 3942 0104 4B030000 		.4byte	.LASF20
 3943 0108 06       		.byte	0x6
 3944 0109 37       		.byte	0x37
 3945 010a D0000000 		.4byte	0xd0
 3946 010e 02       		.byte	0x2
 3947 010f 23       		.byte	0x23
 3948 0110 12       		.uleb128 0x12
ARM GAS  G:\Users\Jaxb\AppData\Local\Temp\ccWBP0T4.s 			page 91


 3949 0111 07       		.uleb128 0x7
 3950 0112 0A040000 		.4byte	.LASF21
 3951 0116 06       		.byte	0x6
 3952 0117 38       		.byte	0x38
 3953 0118 C5000000 		.4byte	0xc5
 3954 011c 02       		.byte	0x2
 3955 011d 23       		.byte	0x23
 3956 011e 14       		.uleb128 0x14
 3957 011f 07       		.uleb128 0x7
 3958 0120 29080000 		.4byte	.LASF22
 3959 0124 06       		.byte	0x6
 3960 0125 39       		.byte	0x39
 3961 0126 A4000000 		.4byte	0xa4
 3962 012a 02       		.byte	0x2
 3963 012b 23       		.byte	0x23
 3964 012c 18       		.uleb128 0x18
 3965 012d 07       		.uleb128 0x7
 3966 012e D8060000 		.4byte	.LASF23
 3967 0132 06       		.byte	0x6
 3968 0133 3A       		.byte	0x3a
 3969 0134 AF000000 		.4byte	0xaf
 3970 0138 02       		.byte	0x2
 3971 0139 23       		.byte	0x23
 3972 013a 1C       		.uleb128 0x1c
 3973 013b 07       		.uleb128 0x7
 3974 013c CA050000 		.4byte	.LASF24
 3975 0140 06       		.byte	0x6
 3976 0141 3B       		.byte	0x3b
 3977 0142 AF000000 		.4byte	0xaf
 3978 0146 02       		.byte	0x2
 3979 0147 23       		.byte	0x23
 3980 0148 20       		.uleb128 0x20
 3981 0149 07       		.uleb128 0x7
 3982 014a 99060000 		.4byte	.LASF25
 3983 014e 06       		.byte	0x6
 3984 014f 3C       		.byte	0x3c
 3985 0150 C5000000 		.4byte	0xc5
 3986 0154 02       		.byte	0x2
 3987 0155 23       		.byte	0x23
 3988 0156 24       		.uleb128 0x24
 3989 0157 07       		.uleb128 0x7
 3990 0158 DD030000 		.4byte	.LASF26
 3991 015c 06       		.byte	0x6
 3992 015d 3D       		.byte	0x3d
 3993 015e D0000000 		.4byte	0xd0
 3994 0162 02       		.byte	0x2
 3995 0163 23       		.byte	0x23
 3996 0164 28       		.uleb128 0x28
 3997 0165 07       		.uleb128 0x7
 3998 0166 CA020000 		.4byte	.LASF27
 3999 016a 06       		.byte	0x6
 4000 016b 3E       		.byte	0x3e
 4001 016c D0000000 		.4byte	0xd0
 4002 0170 02       		.byte	0x2
 4003 0171 23       		.byte	0x23
 4004 0172 2A       		.uleb128 0x2a
 4005 0173 07       		.uleb128 0x7
ARM GAS  G:\Users\Jaxb\AppData\Local\Temp\ccWBP0T4.s 			page 92


 4006 0174 94080000 		.4byte	.LASF28
 4007 0178 06       		.byte	0x6
 4008 0179 3F       		.byte	0x3f
 4009 017a D0000000 		.4byte	0xd0
 4010 017e 02       		.byte	0x2
 4011 017f 23       		.byte	0x23
 4012 0180 2C       		.uleb128 0x2c
 4013 0181 07       		.uleb128 0x7
 4014 0182 21070000 		.4byte	.LASF29
 4015 0186 06       		.byte	0x6
 4016 0187 40       		.byte	0x40
 4017 0188 D0000000 		.4byte	0xd0
 4018 018c 02       		.byte	0x2
 4019 018d 23       		.byte	0x23
 4020 018e 2E       		.uleb128 0x2e
 4021 018f 07       		.uleb128 0x7
 4022 0190 81070000 		.4byte	.LASF30
 4023 0194 06       		.byte	0x6
 4024 0195 41       		.byte	0x41
 4025 0196 D0000000 		.4byte	0xd0
 4026 019a 02       		.byte	0x2
 4027 019b 23       		.byte	0x23
 4028 019c 30       		.uleb128 0x30
 4029 019d 07       		.uleb128 0x7
 4030 019e 9C010000 		.4byte	.LASF31
 4031 01a2 06       		.byte	0x6
 4032 01a3 42       		.byte	0x42
 4033 01a4 D0000000 		.4byte	0xd0
 4034 01a8 02       		.byte	0x2
 4035 01a9 23       		.byte	0x23
 4036 01aa 32       		.uleb128 0x32
 4037 01ab 00       		.byte	0
 4038 01ac 08       		.uleb128 0x8
 4039 01ad 5C000000 		.4byte	0x5c
 4040 01b1 BC010000 		.4byte	0x1bc
 4041 01b5 09       		.uleb128 0x9
 4042 01b6 80000000 		.4byte	0x80
 4043 01ba 0F       		.byte	0xf
 4044 01bb 00       		.byte	0
 4045 01bc 03       		.uleb128 0x3
 4046 01bd 9B040000 		.4byte	.LASF32
 4047 01c1 06       		.byte	0x6
 4048 01c2 44       		.byte	0x44
 4049 01c3 DB000000 		.4byte	0xdb
 4050 01c7 0A       		.uleb128 0xa
 4051 01c8 28       		.byte	0x28
 4052 01c9 06       		.byte	0x6
 4053 01ca 47       		.byte	0x47
 4054 01cb 5C020000 		.4byte	0x25c
 4055 01cf 07       		.uleb128 0x7
 4056 01d0 F8020000 		.4byte	.LASF33
 4057 01d4 06       		.byte	0x6
 4058 01d5 49       		.byte	0x49
 4059 01d6 C5000000 		.4byte	0xc5
 4060 01da 02       		.byte	0x2
 4061 01db 23       		.byte	0x23
 4062 01dc 00       		.uleb128 0
ARM GAS  G:\Users\Jaxb\AppData\Local\Temp\ccWBP0T4.s 			page 93


 4063 01dd 07       		.uleb128 0x7
 4064 01de FB060000 		.4byte	.LASF34
 4065 01e2 06       		.byte	0x6
 4066 01e3 4B       		.byte	0x4b
 4067 01e4 C5000000 		.4byte	0xc5
 4068 01e8 02       		.byte	0x2
 4069 01e9 23       		.byte	0x23
 4070 01ea 04       		.uleb128 0x4
 4071 01eb 07       		.uleb128 0x7
 4072 01ec EB060000 		.4byte	.LASF35
 4073 01f0 06       		.byte	0x6
 4074 01f1 4C       		.byte	0x4c
 4075 01f2 C5000000 		.4byte	0xc5
 4076 01f6 02       		.byte	0x2
 4077 01f7 23       		.byte	0x23
 4078 01f8 08       		.uleb128 0x8
 4079 01f9 07       		.uleb128 0x7
 4080 01fa E5000000 		.4byte	.LASF36
 4081 01fe 06       		.byte	0x6
 4082 01ff 4D       		.byte	0x4d
 4083 0200 A4000000 		.4byte	0xa4
 4084 0204 02       		.byte	0x2
 4085 0205 23       		.byte	0x23
 4086 0206 0C       		.uleb128 0xc
 4087 0207 07       		.uleb128 0x7
 4088 0208 C0080000 		.4byte	.LASF37
 4089 020c 06       		.byte	0x6
 4090 020d 4E       		.byte	0x4e
 4091 020e AF000000 		.4byte	0xaf
 4092 0212 02       		.byte	0x2
 4093 0213 23       		.byte	0x23
 4094 0214 10       		.uleb128 0x10
 4095 0215 07       		.uleb128 0x7
 4096 0216 D1000000 		.4byte	.LASF38
 4097 021a 06       		.byte	0x6
 4098 021b 4F       		.byte	0x4f
 4099 021c C5000000 		.4byte	0xc5
 4100 0220 02       		.byte	0x2
 4101 0221 23       		.byte	0x23
 4102 0222 14       		.uleb128 0x14
 4103 0223 07       		.uleb128 0x7
 4104 0224 34020000 		.4byte	.LASF39
 4105 0228 06       		.byte	0x6
 4106 0229 50       		.byte	0x50
 4107 022a C5000000 		.4byte	0xc5
 4108 022e 02       		.byte	0x2
 4109 022f 23       		.byte	0x23
 4110 0230 18       		.uleb128 0x18
 4111 0231 07       		.uleb128 0x7
 4112 0232 F7050000 		.4byte	.LASF40
 4113 0236 06       		.byte	0x6
 4114 0237 51       		.byte	0x51
 4115 0238 C5000000 		.4byte	0xc5
 4116 023c 02       		.byte	0x2
 4117 023d 23       		.byte	0x23
 4118 023e 1C       		.uleb128 0x1c
 4119 023f 07       		.uleb128 0x7
ARM GAS  G:\Users\Jaxb\AppData\Local\Temp\ccWBP0T4.s 			page 94


 4120 0240 06000000 		.4byte	.LASF41
 4121 0244 06       		.byte	0x6
 4122 0245 52       		.byte	0x52
 4123 0246 C5000000 		.4byte	0xc5
 4124 024a 02       		.byte	0x2
 4125 024b 23       		.byte	0x23
 4126 024c 20       		.uleb128 0x20
 4127 024d 07       		.uleb128 0x7
 4128 024e 7A050000 		.4byte	.LASF42
 4129 0252 06       		.byte	0x6
 4130 0253 53       		.byte	0x53
 4131 0254 C5000000 		.4byte	0xc5
 4132 0258 02       		.byte	0x2
 4133 0259 23       		.byte	0x23
 4134 025a 24       		.uleb128 0x24
 4135 025b 00       		.byte	0
 4136 025c 03       		.uleb128 0x3
 4137 025d 78000000 		.4byte	.LASF43
 4138 0261 06       		.byte	0x6
 4139 0262 54       		.byte	0x54
 4140 0263 C7010000 		.4byte	0x1c7
 4141 0267 06       		.uleb128 0x6
 4142 0268 31080000 		.4byte	.LASF45
 4143 026c 10       		.byte	0x10
 4144 026d 06       		.byte	0x6
 4145 026e 6F       		.byte	0x6f
 4146 026f C8020000 		.4byte	0x2c8
 4147 0273 07       		.uleb128 0x7
 4148 0274 B7060000 		.4byte	.LASF46
 4149 0278 06       		.byte	0x6
 4150 0279 71       		.byte	0x71
 4151 027a C5000000 		.4byte	0xc5
 4152 027e 02       		.byte	0x2
 4153 027f 23       		.byte	0x23
 4154 0280 00       		.uleb128 0
 4155 0281 07       		.uleb128 0x7
 4156 0282 DC010000 		.4byte	.LASF47
 4157 0286 06       		.byte	0x6
 4158 0287 72       		.byte	0x72
 4159 0288 A4000000 		.4byte	0xa4
 4160 028c 02       		.byte	0x2
 4161 028d 23       		.byte	0x23
 4162 028e 04       		.uleb128 0x4
 4163 028f 07       		.uleb128 0x7
 4164 0290 6B030000 		.4byte	.LASF48
 4165 0294 06       		.byte	0x6
 4166 0295 73       		.byte	0x73
 4167 0296 C5000000 		.4byte	0xc5
 4168 029a 02       		.byte	0x2
 4169 029b 23       		.byte	0x23
 4170 029c 08       		.uleb128 0x8
 4171 029d 07       		.uleb128 0x7
 4172 029e 58000000 		.4byte	.LASF49
 4173 02a2 06       		.byte	0x6
 4174 02a3 74       		.byte	0x74
 4175 02a4 5C000000 		.4byte	0x5c
 4176 02a8 02       		.byte	0x2
ARM GAS  G:\Users\Jaxb\AppData\Local\Temp\ccWBP0T4.s 			page 95


 4177 02a9 23       		.byte	0x23
 4178 02aa 0C       		.uleb128 0xc
 4179 02ab 07       		.uleb128 0x7
 4180 02ac 22030000 		.4byte	.LASF50
 4181 02b0 06       		.byte	0x6
 4182 02b1 75       		.byte	0x75
 4183 02b2 5C000000 		.4byte	0x5c
 4184 02b6 02       		.byte	0x2
 4185 02b7 23       		.byte	0x23
 4186 02b8 0D       		.uleb128 0xd
 4187 02b9 07       		.uleb128 0x7
 4188 02ba 28000000 		.4byte	.LASF51
 4189 02be 06       		.byte	0x6
 4190 02bf 76       		.byte	0x76
 4191 02c0 D0000000 		.4byte	0xd0
 4192 02c4 02       		.byte	0x2
 4193 02c5 23       		.byte	0x23
 4194 02c6 0E       		.uleb128 0xe
 4195 02c7 00       		.byte	0
 4196 02c8 03       		.uleb128 0x3
 4197 02c9 48080000 		.4byte	.LASF52
 4198 02cd 06       		.byte	0x6
 4199 02ce 77       		.byte	0x77
 4200 02cf 67020000 		.4byte	0x267
 4201 02d3 0A       		.uleb128 0xa
 4202 02d4 08       		.byte	0x8
 4203 02d5 06       		.byte	0x6
 4204 02d6 95       		.byte	0x95
 4205 02d7 F8020000 		.4byte	0x2f8
 4206 02db 07       		.uleb128 0x7
 4207 02dc 9C080000 		.4byte	.LASF53
 4208 02e0 06       		.byte	0x6
 4209 02e1 97       		.byte	0x97
 4210 02e2 A4000000 		.4byte	0xa4
 4211 02e6 02       		.byte	0x2
 4212 02e7 23       		.byte	0x23
 4213 02e8 00       		.uleb128 0
 4214 02e9 07       		.uleb128 0x7
 4215 02ea F4060000 		.4byte	.LASF54
 4216 02ee 06       		.byte	0x6
 4217 02ef 98       		.byte	0x98
 4218 02f0 C5000000 		.4byte	0xc5
 4219 02f4 02       		.byte	0x2
 4220 02f5 23       		.byte	0x23
 4221 02f6 04       		.uleb128 0x4
 4222 02f7 00       		.byte	0
 4223 02f8 03       		.uleb128 0x3
 4224 02f9 61030000 		.4byte	.LASF55
 4225 02fd 06       		.byte	0x6
 4226 02fe 99       		.byte	0x99
 4227 02ff D3020000 		.4byte	0x2d3
 4228 0303 0A       		.uleb128 0xa
 4229 0304 20       		.byte	0x20
 4230 0305 06       		.byte	0x6
 4231 0306 BB       		.byte	0xbb
 4232 0307 7C030000 		.4byte	0x37c
 4233 030b 07       		.uleb128 0x7
ARM GAS  G:\Users\Jaxb\AppData\Local\Temp\ccWBP0T4.s 			page 96


 4234 030c 9C020000 		.4byte	.LASF56
 4235 0310 06       		.byte	0x6
 4236 0311 BD       		.byte	0xbd
 4237 0312 C5000000 		.4byte	0xc5
 4238 0316 02       		.byte	0x2
 4239 0317 23       		.byte	0x23
 4240 0318 00       		.uleb128 0
 4241 0319 07       		.uleb128 0x7
 4242 031a 14040000 		.4byte	.LASF57
 4243 031e 06       		.byte	0x6
 4244 031f BE       		.byte	0xbe
 4245 0320 AF000000 		.4byte	0xaf
 4246 0324 02       		.byte	0x2
 4247 0325 23       		.byte	0x23
 4248 0326 04       		.uleb128 0x4
 4249 0327 07       		.uleb128 0x7
 4250 0328 20000000 		.4byte	.LASF58
 4251 032c 06       		.byte	0x6
 4252 032d BF       		.byte	0xbf
 4253 032e A4000000 		.4byte	0xa4
 4254 0332 02       		.byte	0x2
 4255 0333 23       		.byte	0x23
 4256 0334 08       		.uleb128 0x8
 4257 0335 07       		.uleb128 0x7
 4258 0336 E5010000 		.4byte	.LASF59
 4259 033a 06       		.byte	0x6
 4260 033b C0       		.byte	0xc0
 4261 033c A4000000 		.4byte	0xa4
 4262 0340 02       		.byte	0x2
 4263 0341 23       		.byte	0x23
 4264 0342 0C       		.uleb128 0xc
 4265 0343 07       		.uleb128 0x7
 4266 0344 4E010000 		.4byte	.LASF60
 4267 0348 06       		.byte	0x6
 4268 0349 C1       		.byte	0xc1
 4269 034a C5000000 		.4byte	0xc5
 4270 034e 02       		.byte	0x2
 4271 034f 23       		.byte	0x23
 4272 0350 10       		.uleb128 0x10
 4273 0351 07       		.uleb128 0x7
 4274 0352 1A020000 		.4byte	.LASF61
 4275 0356 06       		.byte	0x6
 4276 0357 C2       		.byte	0xc2
 4277 0358 C5000000 		.4byte	0xc5
 4278 035c 02       		.byte	0x2
 4279 035d 23       		.byte	0x23
 4280 035e 14       		.uleb128 0x14
 4281 035f 07       		.uleb128 0x7
 4282 0360 06060000 		.4byte	.LASF62
 4283 0364 06       		.byte	0x6
 4284 0365 C3       		.byte	0xc3
 4285 0366 C5000000 		.4byte	0xc5
 4286 036a 02       		.byte	0x2
 4287 036b 23       		.byte	0x23
 4288 036c 18       		.uleb128 0x18
 4289 036d 07       		.uleb128 0x7
 4290 036e C9000000 		.4byte	.LASF63
ARM GAS  G:\Users\Jaxb\AppData\Local\Temp\ccWBP0T4.s 			page 97


 4291 0372 06       		.byte	0x6
 4292 0373 C4       		.byte	0xc4
 4293 0374 C5000000 		.4byte	0xc5
 4294 0378 02       		.byte	0x2
 4295 0379 23       		.byte	0x23
 4296 037a 1C       		.uleb128 0x1c
 4297 037b 00       		.byte	0
 4298 037c 03       		.uleb128 0x3
 4299 037d 2B030000 		.4byte	.LASF64
 4300 0381 06       		.byte	0x6
 4301 0382 C5       		.byte	0xc5
 4302 0383 03030000 		.4byte	0x303
 4303 0387 06       		.uleb128 0x6
 4304 0388 03070000 		.4byte	.LASF65
 4305 038c 08       		.byte	0x8
 4306 038d 01       		.byte	0x1
 4307 038e 04       		.byte	0x4
 4308 038f B0030000 		.4byte	0x3b0
 4309 0393 07       		.uleb128 0x7
 4310 0394 08010000 		.4byte	.LASF66
 4311 0398 01       		.byte	0x1
 4312 0399 05       		.byte	0x5
 4313 039a B5030000 		.4byte	0x3b5
 4314 039e 02       		.byte	0x2
 4315 039f 23       		.byte	0x23
 4316 03a0 00       		.uleb128 0
 4317 03a1 07       		.uleb128 0x7
 4318 03a2 68000000 		.4byte	.LASF67
 4319 03a6 01       		.byte	0x1
 4320 03a7 05       		.byte	0x5
 4321 03a8 B5030000 		.4byte	0x3b5
 4322 03ac 02       		.byte	0x2
 4323 03ad 23       		.byte	0x23
 4324 03ae 04       		.uleb128 0x4
 4325 03af 00       		.byte	0
 4326 03b0 0B       		.uleb128 0xb
 4327 03b1 87030000 		.4byte	0x387
 4328 03b5 0C       		.uleb128 0xc
 4329 03b6 04       		.byte	0x4
 4330 03b7 87030000 		.4byte	0x387
 4331 03bb 0D       		.uleb128 0xd
 4332 03bc 7C030000 		.4byte	.LASF180
 4333 03c0 07       		.byte	0x7
 4334 03c1 01       		.byte	0x1
 4335 03c2 5C000000 		.4byte	0x5c
 4336 03c6 07       		.byte	0x7
 4337 03c7 04       		.byte	0x4
 4338 03c8 09040000 		.4byte	0x409
 4339 03cc 0E       		.uleb128 0xe
 4340 03cd F0030000 		.4byte	.LASF68
 4341 03d1 01       		.byte	0x1
 4342 03d2 0E       		.uleb128 0xe
 4343 03d3 B7020000 		.4byte	.LASF69
 4344 03d7 02       		.byte	0x2
 4345 03d8 0E       		.uleb128 0xe
 4346 03d9 9F070000 		.4byte	.LASF70
 4347 03dd 03       		.byte	0x3
ARM GAS  G:\Users\Jaxb\AppData\Local\Temp\ccWBP0T4.s 			page 98


 4348 03de 0E       		.uleb128 0xe
 4349 03df 63040000 		.4byte	.LASF71
 4350 03e3 04       		.byte	0x4
 4351 03e4 0E       		.uleb128 0xe
 4352 03e5 F4080000 		.4byte	.LASF72
 4353 03e9 05       		.byte	0x5
 4354 03ea 0E       		.uleb128 0xe
 4355 03eb 08080000 		.4byte	.LASF73
 4356 03ef 06       		.byte	0x6
 4357 03f0 0E       		.uleb128 0xe
 4358 03f1 3C020000 		.4byte	.LASF74
 4359 03f5 07       		.byte	0x7
 4360 03f6 0E       		.uleb128 0xe
 4361 03f7 6F020000 		.4byte	.LASF75
 4362 03fb 08       		.byte	0x8
 4363 03fc 0E       		.uleb128 0xe
 4364 03fd 74060000 		.4byte	.LASF76
 4365 0401 09       		.byte	0x9
 4366 0402 0E       		.uleb128 0xe
 4367 0403 A6040000 		.4byte	.LASF77
 4368 0407 0A       		.byte	0xa
 4369 0408 00       		.byte	0
 4370 0409 03       		.uleb128 0x3
 4371 040a F3000000 		.4byte	.LASF78
 4372 040e 07       		.byte	0x7
 4373 040f 0F       		.byte	0xf
 4374 0410 BB030000 		.4byte	0x3bb
 4375 0414 03       		.uleb128 0x3
 4376 0415 47000000 		.4byte	.LASF79
 4377 0419 08       		.byte	0x8
 4378 041a 06       		.byte	0x6
 4379 041b 80000000 		.4byte	0x80
 4380 041f 03       		.uleb128 0x3
 4381 0420 44030000 		.4byte	.LASF80
 4382 0424 08       		.byte	0x8
 4383 0425 08       		.byte	0x8
 4384 0426 14040000 		.4byte	0x414
 4385 042a 03       		.uleb128 0x3
 4386 042b 51070000 		.4byte	.LASF81
 4387 042f 02       		.byte	0x2
 4388 0430 0A       		.byte	0xa
 4389 0431 80000000 		.4byte	0x80
 4390 0435 03       		.uleb128 0x3
 4391 0436 31000000 		.4byte	.LASF82
 4392 043a 02       		.byte	0x2
 4393 043b 0C       		.byte	0xc
 4394 043c 80000000 		.4byte	0x80
 4395 0440 03       		.uleb128 0x3
 4396 0441 EB050000 		.4byte	.LASF83
 4397 0445 02       		.byte	0x2
 4398 0446 0D       		.byte	0xd
 4399 0447 4B040000 		.4byte	0x44b
 4400 044b 0C       		.uleb128 0xc
 4401 044c 04       		.byte	0x4
 4402 044d 51040000 		.4byte	0x451
 4403 0451 0F       		.uleb128 0xf
 4404 0452 01       		.byte	0x1
ARM GAS  G:\Users\Jaxb\AppData\Local\Temp\ccWBP0T4.s 			page 99


 4405 0453 5D040000 		.4byte	0x45d
 4406 0457 10       		.uleb128 0x10
 4407 0458 5D040000 		.4byte	0x45d
 4408 045c 00       		.byte	0
 4409 045d 11       		.uleb128 0x11
 4410 045e 04       		.byte	0x4
 4411 045f 12       		.uleb128 0x12
 4412 0460 85050000 		.4byte	.LASF181
 4413 0464 02       		.byte	0x2
 4414 0465 13       		.byte	0x13
 4415 0466 45000000 		.4byte	0x45
 4416 046a 01       		.byte	0x1
 4417 046b 01       		.byte	0x1
 4418 046c 06       		.uleb128 0x6
 4419 046d 0D010000 		.4byte	.LASF84
 4420 0471 48       		.byte	0x48
 4421 0472 02       		.byte	0x2
 4422 0473 37       		.byte	0x37
 4423 0474 4B050000 		.4byte	0x54b
 4424 0478 07       		.uleb128 0x7
 4425 0479 3F060000 		.4byte	.LASF85
 4426 047d 02       		.byte	0x2
 4427 047e 38       		.byte	0x38
 4428 047f 4B050000 		.4byte	0x54b
 4429 0483 02       		.byte	0x2
 4430 0484 23       		.byte	0x23
 4431 0485 00       		.uleb128 0
 4432 0486 07       		.uleb128 0x7
 4433 0487 52080000 		.4byte	.LASF86
 4434 048b 02       		.byte	0x2
 4435 048c 39       		.byte	0x39
 4436 048d 80000000 		.4byte	0x80
 4437 0491 02       		.byte	0x2
 4438 0492 23       		.byte	0x23
 4439 0493 04       		.uleb128 0x4
 4440 0494 07       		.uleb128 0x7
 4441 0495 8B040000 		.4byte	.LASF87
 4442 0499 02       		.byte	0x2
 4443 049a 3A       		.byte	0x3a
 4444 049b 4B050000 		.4byte	0x54b
 4445 049f 02       		.byte	0x2
 4446 04a0 23       		.byte	0x23
 4447 04a1 08       		.uleb128 0x8
 4448 04a2 07       		.uleb128 0x7
 4449 04a3 41010000 		.4byte	.LASF88
 4450 04a7 02       		.byte	0x2
 4451 04a8 3B       		.byte	0x3b
 4452 04a9 35040000 		.4byte	0x435
 4453 04ad 02       		.byte	0x2
 4454 04ae 23       		.byte	0x23
 4455 04af 0C       		.uleb128 0xc
 4456 04b0 07       		.uleb128 0x7
 4457 04b1 6F070000 		.4byte	.LASF89
 4458 04b5 02       		.byte	0x2
 4459 04b6 3C       		.byte	0x3c
 4460 04b7 09040000 		.4byte	0x409
 4461 04bb 02       		.byte	0x2
ARM GAS  G:\Users\Jaxb\AppData\Local\Temp\ccWBP0T4.s 			page 100


 4462 04bc 23       		.byte	0x23
 4463 04bd 10       		.uleb128 0x10
 4464 04be 07       		.uleb128 0x7
 4465 04bf 48040000 		.4byte	.LASF90
 4466 04c3 02       		.byte	0x2
 4467 04c4 3D       		.byte	0x3d
 4468 04c5 35040000 		.4byte	0x435
 4469 04c9 02       		.byte	0x2
 4470 04ca 23       		.byte	0x23
 4471 04cb 14       		.uleb128 0x14
 4472 04cc 07       		.uleb128 0x7
 4473 04cd 0B090000 		.4byte	.LASF91
 4474 04d1 02       		.byte	0x2
 4475 04d2 3E       		.byte	0x3e
 4476 04d3 3E000000 		.4byte	0x3e
 4477 04d7 02       		.byte	0x2
 4478 04d8 23       		.byte	0x23
 4479 04d9 18       		.uleb128 0x18
 4480 04da 07       		.uleb128 0x7
 4481 04db CD010000 		.4byte	.LASF92
 4482 04df 02       		.byte	0x2
 4483 04e0 3F       		.byte	0x3f
 4484 04e1 87030000 		.4byte	0x387
 4485 04e5 02       		.byte	0x2
 4486 04e6 23       		.byte	0x23
 4487 04e7 1C       		.uleb128 0x1c
 4488 04e8 07       		.uleb128 0x7
 4489 04e9 13000000 		.4byte	.LASF93
 4490 04ed 02       		.byte	0x2
 4491 04ee 40       		.byte	0x40
 4492 04ef 87030000 		.4byte	0x387
 4493 04f3 02       		.byte	0x2
 4494 04f4 23       		.byte	0x23
 4495 04f5 24       		.uleb128 0x24
 4496 04f6 07       		.uleb128 0x7
 4497 04f7 F3020000 		.4byte	.LASF94
 4498 04fb 02       		.byte	0x2
 4499 04fc 41       		.byte	0x41
 4500 04fd 51050000 		.4byte	0x551
 4501 0501 02       		.byte	0x2
 4502 0502 23       		.byte	0x23
 4503 0503 2C       		.uleb128 0x2c
 4504 0504 07       		.uleb128 0x7
 4505 0505 C4060000 		.4byte	.LASF95
 4506 0509 02       		.byte	0x2
 4507 050a 42       		.byte	0x42
 4508 050b 80000000 		.4byte	0x80
 4509 050f 02       		.byte	0x2
 4510 0510 23       		.byte	0x23
 4511 0511 30       		.uleb128 0x30
 4512 0512 07       		.uleb128 0x7
 4513 0513 1D040000 		.4byte	.LASF96
 4514 0517 02       		.byte	0x2
 4515 0518 43       		.byte	0x43
 4516 0519 80000000 		.4byte	0x80
 4517 051d 02       		.byte	0x2
 4518 051e 23       		.byte	0x23
ARM GAS  G:\Users\Jaxb\AppData\Local\Temp\ccWBP0T4.s 			page 101


 4519 051f 34       		.uleb128 0x34
 4520 0520 07       		.uleb128 0x7
 4521 0521 99000000 		.4byte	.LASF97
 4522 0525 02       		.byte	0x2
 4523 0526 44       		.byte	0x44
 4524 0527 75000000 		.4byte	0x75
 4525 052b 02       		.byte	0x2
 4526 052c 23       		.byte	0x23
 4527 052d 38       		.uleb128 0x38
 4528 052e 07       		.uleb128 0x7
 4529 052f 1F090000 		.4byte	.LASF98
 4530 0533 02       		.byte	0x2
 4531 0534 45       		.byte	0x45
 4532 0535 34060000 		.4byte	0x634
 4533 0539 02       		.byte	0x2
 4534 053a 23       		.byte	0x23
 4535 053b 3C       		.uleb128 0x3c
 4536 053c 07       		.uleb128 0x7
 4537 053d 3B070000 		.4byte	.LASF99
 4538 0541 02       		.byte	0x2
 4539 0542 46       		.byte	0x46
 4540 0543 87000000 		.4byte	0x87
 4541 0547 02       		.byte	0x2
 4542 0548 23       		.byte	0x23
 4543 0549 40       		.uleb128 0x40
 4544 054a 00       		.byte	0
 4545 054b 0C       		.uleb128 0xc
 4546 054c 04       		.byte	0x4
 4547 054d 2A040000 		.4byte	0x42a
 4548 0551 0C       		.uleb128 0xc
 4549 0552 04       		.byte	0x4
 4550 0553 57050000 		.4byte	0x557
 4551 0557 02       		.uleb128 0x2
 4552 0558 01       		.byte	0x1
 4553 0559 08       		.byte	0x8
 4554 055a BF060000 		.4byte	.LASF100
 4555 055e 0B       		.uleb128 0xb
 4556 055f 57050000 		.4byte	0x557
 4557 0563 06       		.uleb128 0x6
 4558 0564 90070000 		.4byte	.LASF101
 4559 0568 58       		.byte	0x58
 4560 0569 03       		.byte	0x3
 4561 056a 22       		.byte	0x22
 4562 056b 34060000 		.4byte	0x634
 4563 056f 07       		.uleb128 0x7
 4564 0570 F3020000 		.4byte	.LASF94
 4565 0574 03       		.byte	0x3
 4566 0575 24       		.byte	0x24
 4567 0576 74060000 		.4byte	0x674
 4568 057a 02       		.byte	0x2
 4569 057b 23       		.byte	0x23
 4570 057c 00       		.uleb128 0
 4571 057d 07       		.uleb128 0x7
 4572 057e 55030000 		.4byte	.LASF102
 4573 0582 03       		.byte	0x3
 4574 0583 25       		.byte	0x25
 4575 0584 87030000 		.4byte	0x387
ARM GAS  G:\Users\Jaxb\AppData\Local\Temp\ccWBP0T4.s 			page 102


 4576 0588 02       		.byte	0x2
 4577 0589 23       		.byte	0x23
 4578 058a 20       		.uleb128 0x20
 4579 058b 07       		.uleb128 0x7
 4580 058c 4A060000 		.4byte	.LASF103
 4581 0590 03       		.byte	0x3
 4582 0591 26       		.byte	0x26
 4583 0592 75000000 		.4byte	0x75
 4584 0596 02       		.byte	0x2
 4585 0597 23       		.byte	0x23
 4586 0598 28       		.uleb128 0x28
 4587 0599 07       		.uleb128 0x7
 4588 059a 83000000 		.4byte	.LASF104
 4589 059e 03       		.byte	0x3
 4590 059f 27       		.byte	0x27
 4591 05a0 8A060000 		.4byte	0x68a
 4592 05a4 02       		.byte	0x2
 4593 05a5 23       		.byte	0x23
 4594 05a6 2C       		.uleb128 0x2c
 4595 05a7 07       		.uleb128 0x7
 4596 05a8 45060000 		.4byte	.LASF105
 4597 05ac 03       		.byte	0x3
 4598 05ad 28       		.byte	0x28
 4599 05ae 92060000 		.4byte	0x692
 4600 05b2 02       		.byte	0x2
 4601 05b3 23       		.byte	0x23
 4602 05b4 30       		.uleb128 0x30
 4603 05b5 07       		.uleb128 0x7
 4604 05b6 3B080000 		.4byte	.LASF106
 4605 05ba 03       		.byte	0x3
 4606 05bb 29       		.byte	0x29
 4607 05bc 5D040000 		.4byte	0x45d
 4608 05c0 02       		.byte	0x2
 4609 05c1 23       		.byte	0x23
 4610 05c2 34       		.uleb128 0x34
 4611 05c3 07       		.uleb128 0x7
 4612 05c4 57010000 		.4byte	.LASF107
 4613 05c8 03       		.byte	0x3
 4614 05c9 2A       		.byte	0x2a
 4615 05ca 80000000 		.4byte	0x80
 4616 05ce 02       		.byte	0x2
 4617 05cf 23       		.byte	0x23
 4618 05d0 38       		.uleb128 0x38
 4619 05d1 07       		.uleb128 0x7
 4620 05d2 C9070000 		.4byte	.LASF108
 4621 05d6 03       		.byte	0x3
 4622 05d7 2B       		.byte	0x2b
 4623 05d8 5D040000 		.4byte	0x45d
 4624 05dc 02       		.byte	0x2
 4625 05dd 23       		.byte	0x23
 4626 05de 3C       		.uleb128 0x3c
 4627 05df 07       		.uleb128 0x7
 4628 05e0 AC000000 		.4byte	.LASF109
 4629 05e4 03       		.byte	0x3
 4630 05e5 2C       		.byte	0x2c
 4631 05e6 5D040000 		.4byte	0x45d
 4632 05ea 02       		.byte	0x2
ARM GAS  G:\Users\Jaxb\AppData\Local\Temp\ccWBP0T4.s 			page 103


 4633 05eb 23       		.byte	0x23
 4634 05ec 40       		.uleb128 0x40
 4635 05ed 07       		.uleb128 0x7
 4636 05ee AC030000 		.4byte	.LASF110
 4637 05f2 03       		.byte	0x3
 4638 05f3 2D       		.byte	0x2d
 4639 05f4 75000000 		.4byte	0x75
 4640 05f8 02       		.byte	0x2
 4641 05f9 23       		.byte	0x23
 4642 05fa 44       		.uleb128 0x44
 4643 05fb 07       		.uleb128 0x7
 4644 05fc BF040000 		.4byte	.LASF111
 4645 0600 03       		.byte	0x3
 4646 0601 2E       		.byte	0x2e
 4647 0602 98060000 		.4byte	0x698
 4648 0606 02       		.byte	0x2
 4649 0607 23       		.byte	0x23
 4650 0608 48       		.uleb128 0x48
 4651 0609 07       		.uleb128 0x7
 4652 060a 81080000 		.4byte	.LASF112
 4653 060e 03       		.byte	0x3
 4654 060f 2F       		.byte	0x2f
 4655 0610 80000000 		.4byte	0x80
 4656 0614 02       		.byte	0x2
 4657 0615 23       		.byte	0x23
 4658 0616 4C       		.uleb128 0x4c
 4659 0617 13       		.uleb128 0x13
 4660 0618 72656600 		.ascii	"ref\000"
 4661 061c 03       		.byte	0x3
 4662 061d 30       		.byte	0x30
 4663 061e 80000000 		.4byte	0x80
 4664 0622 02       		.byte	0x2
 4665 0623 23       		.byte	0x23
 4666 0624 50       		.uleb128 0x50
 4667 0625 07       		.uleb128 0x7
 4668 0626 D2050000 		.4byte	.LASF113
 4669 062a 03       		.byte	0x3
 4670 062b 31       		.byte	0x31
 4671 062c 9E060000 		.4byte	0x69e
 4672 0630 02       		.byte	0x2
 4673 0631 23       		.byte	0x23
 4674 0632 54       		.uleb128 0x54
 4675 0633 00       		.byte	0
 4676 0634 0C       		.uleb128 0xc
 4677 0635 04       		.byte	0x4
 4678 0636 63050000 		.4byte	0x563
 4679 063a 14       		.uleb128 0x14
 4680 063b 54434200 		.ascii	"TCB\000"
 4681 063f 02       		.byte	0x2
 4682 0640 47       		.byte	0x47
 4683 0641 6C040000 		.4byte	0x46c
 4684 0645 06       		.uleb128 0x6
 4685 0646 63010000 		.4byte	.LASF114
 4686 064a 08       		.byte	0x8
 4687 064b 09       		.byte	0x9
 4688 064c 08       		.byte	0x8
 4689 064d 6E060000 		.4byte	0x66e
ARM GAS  G:\Users\Jaxb\AppData\Local\Temp\ccWBP0T4.s 			page 104


 4690 0651 07       		.uleb128 0x7
 4691 0652 D9000000 		.4byte	.LASF115
 4692 0656 09       		.byte	0x9
 4693 0657 0A       		.byte	0xa
 4694 0658 5D040000 		.4byte	0x45d
 4695 065c 02       		.byte	0x2
 4696 065d 23       		.byte	0x23
 4697 065e 00       		.uleb128 0
 4698 065f 07       		.uleb128 0x7
 4699 0660 F3020000 		.4byte	.LASF94
 4700 0664 09       		.byte	0x9
 4701 0665 0B       		.byte	0xb
 4702 0666 6E060000 		.4byte	0x66e
 4703 066a 02       		.byte	0x2
 4704 066b 23       		.byte	0x23
 4705 066c 04       		.uleb128 0x4
 4706 066d 00       		.byte	0
 4707 066e 0C       		.uleb128 0xc
 4708 066f 04       		.byte	0x4
 4709 0670 5E050000 		.4byte	0x55e
 4710 0674 08       		.uleb128 0x8
 4711 0675 57050000 		.4byte	0x557
 4712 0679 84060000 		.4byte	0x684
 4713 067d 09       		.uleb128 0x9
 4714 067e 80000000 		.4byte	0x80
 4715 0682 1F       		.byte	0x1f
 4716 0683 00       		.byte	0
 4717 0684 15       		.uleb128 0x15
 4718 0685 01       		.byte	0x1
 4719 0686 3E000000 		.4byte	0x3e
 4720 068a 0C       		.uleb128 0xc
 4721 068b 04       		.byte	0x4
 4722 068c 84060000 		.4byte	0x684
 4723 0690 16       		.uleb128 0x16
 4724 0691 01       		.byte	0x1
 4725 0692 0C       		.uleb128 0xc
 4726 0693 04       		.byte	0x4
 4727 0694 90060000 		.4byte	0x690
 4728 0698 0C       		.uleb128 0xc
 4729 0699 04       		.byte	0x4
 4730 069a 45060000 		.4byte	0x645
 4731 069e 0C       		.uleb128 0xc
 4732 069f 04       		.byte	0x4
 4733 06a0 3A060000 		.4byte	0x63a
 4734 06a4 17       		.uleb128 0x17
 4735 06a5 B2010000 		.4byte	.LASF116
 4736 06a9 04       		.byte	0x4
 4737 06aa 10       		.byte	0x10
 4738 06ab 51050000 		.4byte	0x551
 4739 06af 05       		.byte	0x5
 4740 06b0 03       		.byte	0x3
 4741 06b1 00000000 		.4byte	module_buffer
 4742 06b5 18       		.uleb128 0x18
 4743 06b6 6E756D00 		.ascii	"num\000"
 4744 06ba 04       		.byte	0x4
 4745 06bb 11       		.byte	0x11
 4746 06bc 80000000 		.4byte	0x80
ARM GAS  G:\Users\Jaxb\AppData\Local\Temp\ccWBP0T4.s 			page 105


 4747 06c0 05       		.byte	0x5
 4748 06c1 03       		.byte	0x3
 4749 06c2 04000000 		.4byte	num
 4750 06c6 17       		.uleb128 0x17
 4751 06c7 B8030000 		.4byte	.LASF117
 4752 06cb 04       		.byte	0x4
 4753 06cc 12       		.byte	0x12
 4754 06cd 87030000 		.4byte	0x387
 4755 06d1 05       		.byte	0x5
 4756 06d2 03       		.byte	0x3
 4757 06d3 08000000 		.4byte	module_list_head
 4758 06d7 19       		.uleb128 0x19
 4759 06d8 01       		.byte	0x1
 4760 06d9 5C070000 		.4byte	.LASF120
 4761 06dd 04       		.byte	0x4
 4762 06de C002     		.2byte	0x2c0
 4763 06e0 01       		.byte	0x1
 4764 06e1 30130000 		.4byte	.LFB29
 4765 06e5 4C130000 		.4byte	.LFE29
 4766 06e9 00000000 		.4byte	.LLST25
 4767 06ed 01       		.byte	0x1
 4768 06ee 02070000 		.4byte	0x702
 4769 06f2 1A       		.uleb128 0x1a
 4770 06f3 61646400 		.ascii	"add\000"
 4771 06f7 04       		.byte	0x4
 4772 06f8 C002     		.2byte	0x2c0
 4773 06fa 5D040000 		.4byte	0x45d
 4774 06fe 02       		.byte	0x2
 4775 06ff 91       		.byte	0x91
 4776 0700 74       		.sleb128 -12
 4777 0701 00       		.byte	0
 4778 0702 1B       		.uleb128 0x1b
 4779 0703 01       		.byte	0x1
 4780 0704 B4070000 		.4byte	.LASF118
 4781 0708 04       		.byte	0x4
 4782 0709 BA02     		.2byte	0x2ba
 4783 070b 01       		.byte	0x1
 4784 070c 10130000 		.4byte	.LFB28
 4785 0710 30130000 		.4byte	.LFE28
 4786 0714 5C000000 		.4byte	.LLST24
 4787 0718 01       		.byte	0x1
 4788 0719 1C       		.uleb128 0x1c
 4789 071a 01       		.byte	0x1
 4790 071b 73080000 		.4byte	.LASF119
 4791 071f 04       		.byte	0x4
 4792 0720 B502     		.2byte	0x2b5
 4793 0722 01       		.byte	0x1
 4794 0723 F4120000 		.4byte	.LFB27
 4795 0727 10130000 		.4byte	.LFE27
 4796 072b A0000000 		.4byte	.LLST23
 4797 072f 01       		.byte	0x1
 4798 0730 1D       		.uleb128 0x1d
 4799 0731 01       		.byte	0x1
 4800 0732 A1060000 		.4byte	.LASF121
 4801 0736 04       		.byte	0x4
 4802 0737 A902     		.2byte	0x2a9
 4803 0739 01       		.byte	0x1
ARM GAS  G:\Users\Jaxb\AppData\Local\Temp\ccWBP0T4.s 			page 106


 4804 073a B0120000 		.4byte	.LFB26
 4805 073e F4120000 		.4byte	.LFE26
 4806 0742 CC000000 		.4byte	.LLST22
 4807 0746 01       		.byte	0x1
 4808 0747 59070000 		.4byte	0x759
 4809 074b 1A       		.uleb128 0x1a
 4810 074c 6300     		.ascii	"c\000"
 4811 074e 04       		.byte	0x4
 4812 074f A902     		.2byte	0x2a9
 4813 0751 57050000 		.4byte	0x557
 4814 0755 02       		.byte	0x2
 4815 0756 91       		.byte	0x91
 4816 0757 77       		.sleb128 -9
 4817 0758 00       		.byte	0
 4818 0759 1E       		.uleb128 0x1e
 4819 075a 01       		.byte	0x1
 4820 075b 65060000 		.4byte	.LASF125
 4821 075f 04       		.byte	0x4
 4822 0760 7202     		.2byte	0x272
 4823 0762 01       		.byte	0x1
 4824 0763 3E000000 		.4byte	0x3e
 4825 0767 B8110000 		.4byte	.LFB25
 4826 076b B0120000 		.4byte	.LFE25
 4827 076f 1C010000 		.4byte	.LLST21
 4828 0773 01       		.byte	0x1
 4829 0774 D3070000 		.4byte	0x7d3
 4830 0778 1F       		.uleb128 0x1f
 4831 0779 52080000 		.4byte	.LASF86
 4832 077d 04       		.byte	0x4
 4833 077e 7302     		.2byte	0x273
 4834 0780 80000000 		.4byte	0x80
 4835 0784 02       		.byte	0x2
 4836 0785 91       		.byte	0x91
 4837 0786 64       		.sleb128 -28
 4838 0787 1F       		.uleb128 0x1f
 4839 0788 48040000 		.4byte	.LASF90
 4840 078c 04       		.byte	0x4
 4841 078d 7402     		.2byte	0x274
 4842 078f 35040000 		.4byte	0x435
 4843 0793 02       		.byte	0x2
 4844 0794 91       		.byte	0x91
 4845 0795 60       		.sleb128 -32
 4846 0796 1F       		.uleb128 0x1f
 4847 0797 F3020000 		.4byte	.LASF94
 4848 079b 04       		.byte	0x4
 4849 079c 7502     		.2byte	0x275
 4850 079e 6E060000 		.4byte	0x66e
 4851 07a2 02       		.byte	0x2
 4852 07a3 91       		.byte	0x91
 4853 07a4 5C       		.sleb128 -36
 4854 07a5 20       		.uleb128 0x20
 4855 07a6 DE000000 		.4byte	.LASF122
 4856 07aa 04       		.byte	0x4
 4857 07ab 7702     		.2byte	0x277
 4858 07ad 34060000 		.4byte	0x634
 4859 07b1 02       		.byte	0x2
 4860 07b2 91       		.byte	0x91
ARM GAS  G:\Users\Jaxb\AppData\Local\Temp\ccWBP0T4.s 			page 107


 4861 07b3 74       		.sleb128 -12
 4862 07b4 20       		.uleb128 0x20
 4863 07b5 95040000 		.4byte	.LASF123
 4864 07b9 04       		.byte	0x4
 4865 07ba 7802     		.2byte	0x278
 4866 07bc 3E000000 		.4byte	0x3e
 4867 07c0 02       		.byte	0x2
 4868 07c1 91       		.byte	0x91
 4869 07c2 70       		.sleb128 -16
 4870 07c3 20       		.uleb128 0x20
 4871 07c4 AF020000 		.4byte	.LASF124
 4872 07c8 04       		.byte	0x4
 4873 07c9 7902     		.2byte	0x279
 4874 07cb 9E060000 		.4byte	0x69e
 4875 07cf 02       		.byte	0x2
 4876 07d0 91       		.byte	0x91
 4877 07d1 6C       		.sleb128 -20
 4878 07d2 00       		.byte	0
 4879 07d3 1E       		.uleb128 0x1e
 4880 07d4 01       		.byte	0x1
 4881 07d5 57060000 		.4byte	.LASF126
 4882 07d9 04       		.byte	0x4
 4883 07da 3002     		.2byte	0x230
 4884 07dc 01       		.byte	0x1
 4885 07dd 34060000 		.4byte	0x634
 4886 07e1 9C100000 		.4byte	.LFB24
 4887 07e5 B8110000 		.4byte	.LFE24
 4888 07e9 6C010000 		.4byte	.LLST20
 4889 07ed 01       		.byte	0x1
 4890 07ee 3B080000 		.4byte	0x83b
 4891 07f2 20       		.uleb128 0x20
 4892 07f3 C6010000 		.4byte	.LASF127
 4893 07f7 04       		.byte	0x4
 4894 07f8 3202     		.2byte	0x232
 4895 07fa 1F040000 		.4byte	0x41f
 4896 07fe 02       		.byte	0x2
 4897 07ff 91       		.byte	0x91
 4898 0800 70       		.sleb128 -16
 4899 0801 20       		.uleb128 0x20
 4900 0802 95040000 		.4byte	.LASF123
 4901 0806 04       		.byte	0x4
 4902 0807 3402     		.2byte	0x234
 4903 0809 3E000000 		.4byte	0x3e
 4904 080d 02       		.byte	0x2
 4905 080e 91       		.byte	0x91
 4906 080f 6C       		.sleb128 -20
 4907 0810 20       		.uleb128 0x20
 4908 0811 74010000 		.4byte	.LASF128
 4909 0815 04       		.byte	0x4
 4910 0816 3502     		.2byte	0x235
 4911 0818 3B080000 		.4byte	0x83b
 4912 081c 02       		.byte	0x2
 4913 081d 91       		.byte	0x91
 4914 081e 68       		.sleb128 -24
 4915 081f 20       		.uleb128 0x20
 4916 0820 DE000000 		.4byte	.LASF122
 4917 0824 04       		.byte	0x4
ARM GAS  G:\Users\Jaxb\AppData\Local\Temp\ccWBP0T4.s 			page 108


 4918 0825 3602     		.2byte	0x236
 4919 0827 34060000 		.4byte	0x634
 4920 082b 02       		.byte	0x2
 4921 082c 91       		.byte	0x91
 4922 082d 74       		.sleb128 -12
 4923 082e 21       		.uleb128 0x21
 4924 082f FF050000 		.4byte	.LASF155
 4925 0833 04       		.byte	0x4
 4926 0834 6102     		.2byte	0x261
 4927 0836 5C110000 		.4byte	.L166
 4928 083a 00       		.byte	0
 4929 083b 0C       		.uleb128 0xc
 4930 083c 04       		.byte	0x4
 4931 083d 51000000 		.4byte	0x51
 4932 0841 22       		.uleb128 0x22
 4933 0842 9C030000 		.4byte	.LASF165
 4934 0846 04       		.byte	0x4
 4935 0847 1E02     		.2byte	0x21e
 4936 0849 01       		.byte	0x1
 4937 084a 2C100000 		.4byte	.LFB23
 4938 084e 9C100000 		.4byte	.LFE23
 4939 0852 BC010000 		.4byte	.LLST19
 4940 0856 01       		.byte	0x1
 4941 0857 6B080000 		.4byte	0x86b
 4942 085b 1F       		.uleb128 0x1f
 4943 085c 1F090000 		.4byte	.LASF98
 4944 0860 04       		.byte	0x4
 4945 0861 1E02     		.2byte	0x21e
 4946 0863 34060000 		.4byte	0x634
 4947 0867 02       		.byte	0x2
 4948 0868 91       		.byte	0x91
 4949 0869 74       		.sleb128 -12
 4950 086a 00       		.byte	0
 4951 086b 1E       		.uleb128 0x1e
 4952 086c 01       		.byte	0x1
 4953 086d CF080000 		.4byte	.LASF129
 4954 0871 04       		.byte	0x4
 4955 0872 3A01     		.2byte	0x13a
 4956 0874 01       		.byte	0x1
 4957 0875 3E000000 		.4byte	0x3e
 4958 0879 94080000 		.4byte	.LFB22
 4959 087d 2C100000 		.4byte	.LFE22
 4960 0881 0C020000 		.4byte	.LLST18
 4961 0885 01       		.byte	0x1
 4962 0886 3B0A0000 		.4byte	0xa3b
 4963 088a 1F       		.uleb128 0x1f
 4964 088b DE000000 		.4byte	.LASF122
 4965 088f 04       		.byte	0x4
 4966 0890 3A01     		.2byte	0x13a
 4967 0892 34060000 		.4byte	0x634
 4968 0896 03       		.byte	0x3
 4969 0897 91       		.byte	0x91
 4970 0898 9C7F     		.sleb128 -100
 4971 089a 1F       		.uleb128 0x1f
 4972 089b 74010000 		.4byte	.LASF128
 4973 089f 04       		.byte	0x4
 4974 08a0 3A01     		.2byte	0x13a
ARM GAS  G:\Users\Jaxb\AppData\Local\Temp\ccWBP0T4.s 			page 109


 4975 08a2 5D040000 		.4byte	0x45d
 4976 08a6 03       		.byte	0x3
 4977 08a7 91       		.byte	0x91
 4978 08a8 987F     		.sleb128 -104
 4979 08aa 20       		.uleb128 0x20
 4980 08ab 31040000 		.4byte	.LASF130
 4981 08af 04       		.byte	0x4
 4982 08b0 3C01     		.2byte	0x13c
 4983 08b2 3E000000 		.4byte	0x3e
 4984 08b6 02       		.byte	0x2
 4985 08b7 91       		.byte	0x91
 4986 08b8 48       		.sleb128 -56
 4987 08b9 20       		.uleb128 0x20
 4988 08ba 0D070000 		.4byte	.LASF131
 4989 08be 04       		.byte	0x4
 4990 08bf 3D01     		.2byte	0x13d
 4991 08c1 75000000 		.4byte	0x75
 4992 08c5 02       		.byte	0x2
 4993 08c6 91       		.byte	0x91
 4994 08c7 6C       		.sleb128 -20
 4995 08c8 20       		.uleb128 0x20
 4996 08c9 57010000 		.4byte	.LASF107
 4997 08cd 04       		.byte	0x4
 4998 08ce 3D01     		.2byte	0x13d
 4999 08d0 75000000 		.4byte	0x75
 5000 08d4 02       		.byte	0x2
 5001 08d5 91       		.byte	0x91
 5002 08d6 44       		.sleb128 -60
 5003 08d7 20       		.uleb128 0x20
 5004 08d8 AC030000 		.4byte	.LASF110
 5005 08dc 04       		.byte	0x4
 5006 08dd 3E01     		.2byte	0x13e
 5007 08df A4000000 		.4byte	0xa4
 5008 08e3 02       		.byte	0x2
 5009 08e4 91       		.byte	0x91
 5010 08e5 68       		.sleb128 -24
 5011 08e6 20       		.uleb128 0x20
 5012 08e7 E6030000 		.4byte	.LASF132
 5013 08eb 04       		.byte	0x4
 5014 08ec 3E01     		.2byte	0x13e
 5015 08ee A4000000 		.4byte	0xa4
 5016 08f2 02       		.byte	0x2
 5017 08f3 91       		.byte	0x91
 5018 08f4 64       		.sleb128 -28
 5019 08f5 20       		.uleb128 0x20
 5020 08f6 58040000 		.4byte	.LASF133
 5021 08fa 04       		.byte	0x4
 5022 08fb 3F01     		.2byte	0x13f
 5023 08fd 3E000000 		.4byte	0x3e
 5024 0901 02       		.byte	0x2
 5025 0902 91       		.byte	0x91
 5026 0903 60       		.sleb128 -32
 5027 0904 23       		.uleb128 0x23
 5028 0905 860B0000 		.4byte	.LBB16
 5029 0909 200D0000 		.4byte	.LBE16
 5030 090d C1090000 		.4byte	0x9c1
 5031 0911 24       		.uleb128 0x24
ARM GAS  G:\Users\Jaxb\AppData\Local\Temp\ccWBP0T4.s 			page 110


 5032 0912 6900     		.ascii	"i\000"
 5033 0914 04       		.byte	0x4
 5034 0915 9B01     		.2byte	0x19b
 5035 0917 75000000 		.4byte	0x75
 5036 091b 02       		.byte	0x2
 5037 091c 91       		.byte	0x91
 5038 091d 5C       		.sleb128 -36
 5039 091e 20       		.uleb128 0x20
 5040 091f EB080000 		.4byte	.LASF134
 5041 0923 04       		.byte	0x4
 5042 0924 9B01     		.2byte	0x19b
 5043 0926 75000000 		.4byte	0x75
 5044 092a 03       		.byte	0x3
 5045 092b 91       		.byte	0x91
 5046 092c A87F     		.sleb128 -88
 5047 092e 20       		.uleb128 0x20
 5048 092f 13020000 		.4byte	.LASF135
 5049 0933 04       		.byte	0x4
 5050 0934 9C01     		.2byte	0x19c
 5051 0936 3B0A0000 		.4byte	0xa3b
 5052 093a 03       		.byte	0x3
 5053 093b 91       		.byte	0x91
 5054 093c B07F     		.sleb128 -80
 5055 093e 24       		.uleb128 0x24
 5056 093f 72656C00 		.ascii	"rel\000"
 5057 0943 04       		.byte	0x4
 5058 0944 9D01     		.2byte	0x19d
 5059 0946 410A0000 		.4byte	0xa41
 5060 094a 02       		.byte	0x2
 5061 094b 91       		.byte	0x91
 5062 094c 58       		.sleb128 -40
 5063 094d 20       		.uleb128 0x20
 5064 094e C3020000 		.4byte	.LASF136
 5065 0952 04       		.byte	0x4
 5066 0953 9E01     		.2byte	0x19e
 5067 0955 3B080000 		.4byte	0x83b
 5068 0959 03       		.byte	0x3
 5069 095a 91       		.byte	0x91
 5070 095b AC7F     		.sleb128 -84
 5071 095d 20       		.uleb128 0x20
 5072 095e 02020000 		.4byte	.LASF137
 5073 0962 04       		.byte	0x4
 5074 0963 9F01     		.2byte	0x19f
 5075 0965 3E000000 		.4byte	0x3e
 5076 0969 05       		.byte	0x5
 5077 096a 03       		.byte	0x3
 5078 096b 10000000 		.4byte	unsolved.4612
 5079 096f 25       		.uleb128 0x25
 5080 0970 520C0000 		.4byte	.LBB17
 5081 0974 020D0000 		.4byte	.LBE17
 5082 0978 24       		.uleb128 0x24
 5083 0979 73796D00 		.ascii	"sym\000"
 5084 097d 04       		.byte	0x4
 5085 097e B101     		.2byte	0x1b1
 5086 0980 3B0A0000 		.4byte	0xa3b
 5087 0984 03       		.byte	0x3
 5088 0985 91       		.byte	0x91
ARM GAS  G:\Users\Jaxb\AppData\Local\Temp\ccWBP0T4.s 			page 111


 5089 0986 A47F     		.sleb128 -92
 5090 0988 23       		.uleb128 0x23
 5091 0989 740C0000 		.4byte	.LBB18
 5092 098d 9A0C0000 		.4byte	.LBE18
 5093 0991 A6090000 		.4byte	0x9a6
 5094 0995 20       		.uleb128 0x20
 5095 0996 D9000000 		.4byte	.LASF115
 5096 099a 04       		.byte	0x4
 5097 099b B701     		.2byte	0x1b7
 5098 099d A4000000 		.4byte	0xa4
 5099 09a1 03       		.byte	0x3
 5100 09a2 91       		.byte	0x91
 5101 09a3 A07F     		.sleb128 -96
 5102 09a5 00       		.byte	0
 5103 09a6 25       		.uleb128 0x25
 5104 09a7 A00C0000 		.4byte	.LBB19
 5105 09ab FA0C0000 		.4byte	.LBE19
 5106 09af 20       		.uleb128 0x20
 5107 09b0 D9000000 		.4byte	.LASF115
 5108 09b4 04       		.byte	0x4
 5109 09b5 C101     		.2byte	0x1c1
 5110 09b7 A4000000 		.4byte	0xa4
 5111 09bb 02       		.byte	0x2
 5112 09bc 91       		.byte	0x91
 5113 09bd 54       		.sleb128 -44
 5114 09be 00       		.byte	0
 5115 09bf 00       		.byte	0
 5116 09c0 00       		.byte	0
 5117 09c1 26       		.uleb128 0x26
 5118 09c2 00000000 		.4byte	.Ldebug_ranges0+0
 5119 09c6 DA090000 		.4byte	0x9da
 5120 09ca 20       		.uleb128 0x20
 5121 09cb B4050000 		.4byte	.LASF138
 5122 09cf 04       		.byte	0x4
 5123 09d0 DE01     		.2byte	0x1de
 5124 09d2 3B080000 		.4byte	0x83b
 5125 09d6 02       		.byte	0x2
 5126 09d7 91       		.byte	0x91
 5127 09d8 40       		.sleb128 -64
 5128 09d9 00       		.byte	0
 5129 09da 25       		.uleb128 0x25
 5130 09db A60D0000 		.4byte	.LBB22
 5131 09df 18100000 		.4byte	.LBE22
 5132 09e3 24       		.uleb128 0x24
 5133 09e4 6900     		.ascii	"i\000"
 5134 09e6 04       		.byte	0x4
 5135 09e7 E701     		.2byte	0x1e7
 5136 09e9 3E000000 		.4byte	0x3e
 5137 09ed 02       		.byte	0x2
 5138 09ee 91       		.byte	0x91
 5139 09ef 50       		.sleb128 -48
 5140 09f0 20       		.uleb128 0x20
 5141 09f1 00000000 		.4byte	.LASF139
 5142 09f5 04       		.byte	0x4
 5143 09f6 E701     		.2byte	0x1e7
 5144 09f8 3E000000 		.4byte	0x3e
 5145 09fc 02       		.byte	0x2
ARM GAS  G:\Users\Jaxb\AppData\Local\Temp\ccWBP0T4.s 			page 112


 5146 09fd 91       		.byte	0x91
 5147 09fe 4C       		.sleb128 -52
 5148 09ff 20       		.uleb128 0x20
 5149 0a00 13020000 		.4byte	.LASF135
 5150 0a04 04       		.byte	0x4
 5151 0a05 E801     		.2byte	0x1e8
 5152 0a07 3B0A0000 		.4byte	0xa3b
 5153 0a0b 03       		.byte	0x3
 5154 0a0c 91       		.byte	0x91
 5155 0a0d BC7F     		.sleb128 -68
 5156 0a0f 20       		.uleb128 0x20
 5157 0a10 C3020000 		.4byte	.LASF136
 5158 0a14 04       		.byte	0x4
 5159 0a15 E901     		.2byte	0x1e9
 5160 0a17 3B080000 		.4byte	0x83b
 5161 0a1b 03       		.byte	0x3
 5162 0a1c 91       		.byte	0x91
 5163 0a1d B87F     		.sleb128 -72
 5164 0a1f 25       		.uleb128 0x25
 5165 0a20 040F0000 		.4byte	.LBB23
 5166 0a24 F20F0000 		.4byte	.LBE23
 5167 0a28 20       		.uleb128 0x20
 5168 0a29 89070000 		.4byte	.LASF140
 5169 0a2d 04       		.byte	0x4
 5170 0a2e 0602     		.2byte	0x206
 5171 0a30 470A0000 		.4byte	0xa47
 5172 0a34 03       		.byte	0x3
 5173 0a35 91       		.byte	0x91
 5174 0a36 B47F     		.sleb128 -76
 5175 0a38 00       		.byte	0
 5176 0a39 00       		.byte	0
 5177 0a3a 00       		.byte	0
 5178 0a3b 0C       		.uleb128 0xc
 5179 0a3c 04       		.byte	0x4
 5180 0a3d C8020000 		.4byte	0x2c8
 5181 0a41 0C       		.uleb128 0xc
 5182 0a42 04       		.byte	0x4
 5183 0a43 F8020000 		.4byte	0x2f8
 5184 0a47 02       		.uleb128 0x2
 5185 0a48 04       		.byte	0x4
 5186 0a49 07       		.byte	0x7
 5187 0a4a D6020000 		.4byte	.LASF141
 5188 0a4e 27       		.uleb128 0x27
 5189 0a4f A5080000 		.4byte	.LASF150
 5190 0a53 04       		.byte	0x4
 5191 0a54 CF       		.byte	0xcf
 5192 0a55 01       		.byte	0x1
 5193 0a56 3E000000 		.4byte	0x3e
 5194 0a5a 98050000 		.4byte	.LFB21
 5195 0a5e 94080000 		.4byte	.LFE21
 5196 0a62 5E020000 		.4byte	.LLST17
 5197 0a66 01       		.byte	0x1
 5198 0a67 120B0000 		.4byte	0xb12
 5199 0a6b 28       		.uleb128 0x28
 5200 0a6c DE000000 		.4byte	.LASF122
 5201 0a70 04       		.byte	0x4
 5202 0a71 CF       		.byte	0xcf
ARM GAS  G:\Users\Jaxb\AppData\Local\Temp\ccWBP0T4.s 			page 113


 5203 0a72 34060000 		.4byte	0x634
 5204 0a76 02       		.byte	0x2
 5205 0a77 91       		.byte	0x91
 5206 0a78 4C       		.sleb128 -52
 5207 0a79 29       		.uleb128 0x29
 5208 0a7a 72656C00 		.ascii	"rel\000"
 5209 0a7e 04       		.byte	0x4
 5210 0a7f CF       		.byte	0xcf
 5211 0a80 410A0000 		.4byte	0xa41
 5212 0a84 02       		.byte	0x2
 5213 0a85 91       		.byte	0x91
 5214 0a86 48       		.sleb128 -56
 5215 0a87 28       		.uleb128 0x28
 5216 0a88 60000000 		.4byte	.LASF142
 5217 0a8c 04       		.byte	0x4
 5218 0a8d CF       		.byte	0xcf
 5219 0a8e A4000000 		.4byte	0xa4
 5220 0a92 02       		.byte	0x2
 5221 0a93 91       		.byte	0x91
 5222 0a94 44       		.sleb128 -60
 5223 0a95 17       		.uleb128 0x17
 5224 0a96 52000000 		.4byte	.LASF143
 5225 0a9a 04       		.byte	0x4
 5226 0a9b D1       		.byte	0xd1
 5227 0a9c 120B0000 		.4byte	0xb12
 5228 0aa0 02       		.byte	0x2
 5229 0aa1 91       		.byte	0x91
 5230 0aa2 6C       		.sleb128 -20
 5231 0aa3 18       		.uleb128 0x18
 5232 0aa4 746D7000 		.ascii	"tmp\000"
 5233 0aa8 04       		.byte	0x4
 5234 0aa9 D1       		.byte	0xd1
 5235 0aaa A4000000 		.4byte	0xa4
 5236 0aae 02       		.byte	0x2
 5237 0aaf 91       		.byte	0x91
 5238 0ab0 54       		.sleb128 -44
 5239 0ab1 17       		.uleb128 0x17
 5240 0ab2 8A010000 		.4byte	.LASF144
 5241 0ab6 04       		.byte	0x4
 5242 0ab7 D2       		.byte	0xd2
 5243 0ab8 BA000000 		.4byte	0xba
 5244 0abc 02       		.byte	0x2
 5245 0abd 91       		.byte	0x91
 5246 0abe 74       		.sleb128 -12
 5247 0abf 17       		.uleb128 0x17
 5248 0ac0 7A070000 		.4byte	.LASF145
 5249 0ac4 04       		.byte	0x4
 5250 0ac5 D2       		.byte	0xd2
 5251 0ac6 BA000000 		.4byte	0xba
 5252 0aca 02       		.byte	0x2
 5253 0acb 91       		.byte	0x91
 5254 0acc 70       		.sleb128 -16
 5255 0acd 17       		.uleb128 0x17
 5256 0ace C0010000 		.4byte	.LASF146
 5257 0ad2 04       		.byte	0x4
 5258 0ad3 D3       		.byte	0xd3
 5259 0ad4 75000000 		.4byte	0x75
ARM GAS  G:\Users\Jaxb\AppData\Local\Temp\ccWBP0T4.s 			page 114


 5260 0ad8 02       		.byte	0x2
 5261 0ad9 91       		.byte	0x91
 5262 0ada 68       		.sleb128 -24
 5263 0adb 17       		.uleb128 0x17
 5264 0adc ED000000 		.4byte	.LASF147
 5265 0ae0 04       		.byte	0x4
 5266 0ae1 D3       		.byte	0xd3
 5267 0ae2 75000000 		.4byte	0x75
 5268 0ae6 02       		.byte	0x2
 5269 0ae7 91       		.byte	0x91
 5270 0ae8 64       		.sleb128 -28
 5271 0ae9 17       		.uleb128 0x17
 5272 0aea 91010000 		.4byte	.LASF148
 5273 0aee 04       		.byte	0x4
 5274 0aef D3       		.byte	0xd3
 5275 0af0 75000000 		.4byte	0x75
 5276 0af4 02       		.byte	0x2
 5277 0af5 91       		.byte	0x91
 5278 0af6 60       		.sleb128 -32
 5279 0af7 18       		.uleb128 0x18
 5280 0af8 6A3100   		.ascii	"j1\000"
 5281 0afb 04       		.byte	0x4
 5282 0afc D3       		.byte	0xd3
 5283 0afd 75000000 		.4byte	0x75
 5284 0b01 02       		.byte	0x2
 5285 0b02 91       		.byte	0x91
 5286 0b03 5C       		.sleb128 -36
 5287 0b04 18       		.uleb128 0x18
 5288 0b05 6A3200   		.ascii	"j2\000"
 5289 0b08 04       		.byte	0x4
 5290 0b09 D3       		.byte	0xd3
 5291 0b0a 75000000 		.4byte	0x75
 5292 0b0e 02       		.byte	0x2
 5293 0b0f 91       		.byte	0x91
 5294 0b10 58       		.sleb128 -40
 5295 0b11 00       		.byte	0
 5296 0b12 0C       		.uleb128 0xc
 5297 0b13 04       		.byte	0x4
 5298 0b14 A4000000 		.4byte	0xa4
 5299 0b18 2A       		.uleb128 0x2a
 5300 0b19 01       		.byte	0x1
 5301 0b1a ED010000 		.4byte	.LASF149
 5302 0b1e 04       		.byte	0x4
 5303 0b1f C5       		.byte	0xc5
 5304 0b20 01       		.byte	0x1
 5305 0b21 3E000000 		.4byte	0x3e
 5306 0b25 68050000 		.4byte	.LFB20
 5307 0b29 98050000 		.4byte	.LFE20
 5308 0b2d B0020000 		.4byte	.LLST16
 5309 0b31 01       		.byte	0x1
 5310 0b32 450B0000 		.4byte	0xb45
 5311 0b36 28       		.uleb128 0x28
 5312 0b37 1F090000 		.4byte	.LASF98
 5313 0b3b 04       		.byte	0x4
 5314 0b3c C5       		.byte	0xc5
 5315 0b3d 34060000 		.4byte	0x634
 5316 0b41 02       		.byte	0x2
ARM GAS  G:\Users\Jaxb\AppData\Local\Temp\ccWBP0T4.s 			page 115


 5317 0b42 91       		.byte	0x91
 5318 0b43 74       		.sleb128 -12
 5319 0b44 00       		.byte	0
 5320 0b45 27       		.uleb128 0x27
 5321 0b46 7A040000 		.4byte	.LASF151
 5322 0b4a 04       		.byte	0x4
 5323 0b4b AA       		.byte	0xaa
 5324 0b4c 01       		.byte	0x1
 5325 0b4d 3E000000 		.4byte	0x3e
 5326 0b51 B4040000 		.4byte	.LFB19
 5327 0b55 68050000 		.4byte	.LFE19
 5328 0b59 00030000 		.4byte	.LLST15
 5329 0b5d 01       		.byte	0x1
 5330 0b5e 8B0B0000 		.4byte	0xb8b
 5331 0b62 28       		.uleb128 0x28
 5332 0b63 1F090000 		.4byte	.LASF98
 5333 0b67 04       		.byte	0x4
 5334 0b68 AA       		.byte	0xaa
 5335 0b69 34060000 		.4byte	0x634
 5336 0b6d 02       		.byte	0x2
 5337 0b6e 91       		.byte	0x91
 5338 0b6f 6C       		.sleb128 -20
 5339 0b70 17       		.uleb128 0x17
 5340 0b71 C6010000 		.4byte	.LASF127
 5341 0b75 04       		.byte	0x4
 5342 0b76 AE       		.byte	0xae
 5343 0b77 1F040000 		.4byte	0x41f
 5344 0b7b 02       		.byte	0x2
 5345 0b7c 91       		.byte	0x91
 5346 0b7d 70       		.sleb128 -16
 5347 0b7e 18       		.uleb128 0x18
 5348 0b7f 6900     		.ascii	"i\000"
 5349 0b81 04       		.byte	0x4
 5350 0b82 B9       		.byte	0xb9
 5351 0b83 80000000 		.4byte	0x80
 5352 0b87 02       		.byte	0x2
 5353 0b88 91       		.byte	0x91
 5354 0b89 74       		.sleb128 -12
 5355 0b8a 00       		.byte	0
 5356 0b8b 2B       		.uleb128 0x2b
 5357 0b8c 01       		.byte	0x1
 5358 0b8d C9030000 		.4byte	.LASF152
 5359 0b91 04       		.byte	0x4
 5360 0b92 8F       		.byte	0x8f
 5361 0b93 01       		.byte	0x1
 5362 0b94 28040000 		.4byte	.LFB18
 5363 0b98 B4040000 		.4byte	.LFE18
 5364 0b9c 50030000 		.4byte	.LLST14
 5365 0ba0 01       		.byte	0x1
 5366 0ba1 1D0C0000 		.4byte	0xc1d
 5367 0ba5 28       		.uleb128 0x28
 5368 0ba6 EE020000 		.4byte	.LASF153
 5369 0baa 04       		.byte	0x4
 5370 0bab 8F       		.byte	0x8f
 5371 0bac 3E000000 		.4byte	0x3e
 5372 0bb0 02       		.byte	0x2
 5373 0bb1 91       		.byte	0x91
ARM GAS  G:\Users\Jaxb\AppData\Local\Temp\ccWBP0T4.s 			page 116


 5374 0bb2 64       		.sleb128 -28
 5375 0bb3 28       		.uleb128 0x28
 5376 0bb4 CA080000 		.4byte	.LASF154
 5377 0bb8 04       		.byte	0x4
 5378 0bb9 8F       		.byte	0x8f
 5379 0bba 1D0C0000 		.4byte	0xc1d
 5380 0bbe 02       		.byte	0x2
 5381 0bbf 91       		.byte	0x91
 5382 0bc0 60       		.sleb128 -32
 5383 0bc1 2C       		.uleb128 0x2c
 5384 0bc2 6F757400 		.ascii	"out\000"
 5385 0bc6 04       		.byte	0x4
 5386 0bc7 A5       		.byte	0xa5
 5387 0bc8 94040000 		.4byte	.L59
 5388 0bcc 17       		.uleb128 0x17
 5389 0bcd 4C070000 		.4byte	.LASF156
 5390 0bd1 04       		.byte	0x4
 5391 0bd2 95       		.byte	0x95
 5392 0bd3 51050000 		.4byte	0x551
 5393 0bd7 02       		.byte	0x2
 5394 0bd8 91       		.byte	0x91
 5395 0bd9 70       		.sleb128 -16
 5396 0bda 17       		.uleb128 0x17
 5397 0bdb 1F090000 		.4byte	.LASF98
 5398 0bdf 04       		.byte	0x4
 5399 0be0 9A       		.byte	0x9a
 5400 0be1 34060000 		.4byte	0x634
 5401 0be5 02       		.byte	0x2
 5402 0be6 91       		.byte	0x91
 5403 0be7 74       		.sleb128 -12
 5404 0be8 23       		.uleb128 0x23
 5405 0be9 4A040000 		.4byte	.LBB14
 5406 0bed 54040000 		.4byte	.LBE14
 5407 0bf1 040C0000 		.4byte	0xc04
 5408 0bf5 17       		.uleb128 0x17
 5409 0bf6 FC030000 		.4byte	.LASF157
 5410 0bfa 04       		.byte	0x4
 5411 0bfb 9B       		.byte	0x9b
 5412 0bfc 230C0000 		.4byte	0xc23
 5413 0c00 02       		.byte	0x2
 5414 0c01 91       		.byte	0x91
 5415 0c02 6C       		.sleb128 -20
 5416 0c03 00       		.byte	0
 5417 0c04 25       		.uleb128 0x25
 5418 0c05 70040000 		.4byte	.LBB15
 5419 0c09 7A040000 		.4byte	.LBE15
 5420 0c0d 17       		.uleb128 0x17
 5421 0c0e FC030000 		.4byte	.LASF157
 5422 0c12 04       		.byte	0x4
 5423 0c13 9B       		.byte	0x9b
 5424 0c14 230C0000 		.4byte	0xc23
 5425 0c18 02       		.byte	0x2
 5426 0c19 91       		.byte	0x91
 5427 0c1a 68       		.sleb128 -24
 5428 0c1b 00       		.byte	0
 5429 0c1c 00       		.byte	0
 5430 0c1d 0C       		.uleb128 0xc
ARM GAS  G:\Users\Jaxb\AppData\Local\Temp\ccWBP0T4.s 			page 117


 5431 0c1e 04       		.byte	0x4
 5432 0c1f 6E060000 		.4byte	0x66e
 5433 0c23 0C       		.uleb128 0xc
 5434 0c24 04       		.byte	0x4
 5435 0c25 B0030000 		.4byte	0x3b0
 5436 0c29 2B       		.uleb128 0x2b
 5437 0c2a 01       		.byte	0x1
 5438 0c2b 38040000 		.4byte	.LASF158
 5439 0c2f 04       		.byte	0x4
 5440 0c30 67       		.byte	0x67
 5441 0c31 01       		.byte	0x1
 5442 0c32 58030000 		.4byte	.LFB17
 5443 0c36 28040000 		.4byte	.LFE17
 5444 0c3a A0030000 		.4byte	.LLST13
 5445 0c3e 01       		.byte	0x1
 5446 0c3f DA0C0000 		.4byte	0xcda
 5447 0c43 28       		.uleb128 0x28
 5448 0c44 52080000 		.4byte	.LASF86
 5449 0c48 04       		.byte	0x4
 5450 0c49 68       		.byte	0x68
 5451 0c4a 80000000 		.4byte	0x80
 5452 0c4e 02       		.byte	0x2
 5453 0c4f 91       		.byte	0x91
 5454 0c50 5C       		.sleb128 -36
 5455 0c51 28       		.uleb128 0x28
 5456 0c52 48040000 		.4byte	.LASF90
 5457 0c56 04       		.byte	0x4
 5458 0c57 69       		.byte	0x69
 5459 0c58 35040000 		.4byte	0x435
 5460 0c5c 02       		.byte	0x2
 5461 0c5d 91       		.byte	0x91
 5462 0c5e 58       		.sleb128 -40
 5463 0c5f 28       		.uleb128 0x28
 5464 0c60 F3020000 		.4byte	.LASF94
 5465 0c64 04       		.byte	0x4
 5466 0c65 6A       		.byte	0x6a
 5467 0c66 6E060000 		.4byte	0x66e
 5468 0c6a 02       		.byte	0x2
 5469 0c6b 91       		.byte	0x91
 5470 0c6c 54       		.sleb128 -44
 5471 0c6d 17       		.uleb128 0x17
 5472 0c6e 1F090000 		.4byte	.LASF98
 5473 0c72 04       		.byte	0x4
 5474 0c73 6C       		.byte	0x6c
 5475 0c74 34060000 		.4byte	0x634
 5476 0c78 02       		.byte	0x2
 5477 0c79 91       		.byte	0x91
 5478 0c7a 74       		.sleb128 -12
 5479 0c7b 23       		.uleb128 0x23
 5480 0c7c 64030000 		.4byte	.LBB11
 5481 0c80 6E030000 		.4byte	.LBE11
 5482 0c84 970C0000 		.4byte	0xc97
 5483 0c88 17       		.uleb128 0x17
 5484 0c89 FC030000 		.4byte	.LASF157
 5485 0c8d 04       		.byte	0x4
 5486 0c8e 6D       		.byte	0x6d
 5487 0c8f 230C0000 		.4byte	0xc23
ARM GAS  G:\Users\Jaxb\AppData\Local\Temp\ccWBP0T4.s 			page 118


 5488 0c93 02       		.byte	0x2
 5489 0c94 91       		.byte	0x91
 5490 0c95 70       		.sleb128 -16
 5491 0c96 00       		.byte	0
 5492 0c97 23       		.uleb128 0x23
 5493 0c98 82030000 		.4byte	.LBB12
 5494 0c9c FA030000 		.4byte	.LBE12
 5495 0ca0 C10C0000 		.4byte	0xcc1
 5496 0ca4 17       		.uleb128 0x17
 5497 0ca5 AF020000 		.4byte	.LASF124
 5498 0ca9 04       		.byte	0x4
 5499 0caa 76       		.byte	0x76
 5500 0cab 9E060000 		.4byte	0x69e
 5501 0caf 02       		.byte	0x2
 5502 0cb0 91       		.byte	0x91
 5503 0cb1 64       		.sleb128 -28
 5504 0cb2 17       		.uleb128 0x17
 5505 0cb3 95040000 		.4byte	.LASF123
 5506 0cb7 04       		.byte	0x4
 5507 0cb8 77       		.byte	0x77
 5508 0cb9 3E000000 		.4byte	0x3e
 5509 0cbd 02       		.byte	0x2
 5510 0cbe 91       		.byte	0x91
 5511 0cbf 68       		.sleb128 -24
 5512 0cc0 00       		.byte	0
 5513 0cc1 25       		.uleb128 0x25
 5514 0cc2 FA030000 		.4byte	.LBB13
 5515 0cc6 04040000 		.4byte	.LBE13
 5516 0cca 17       		.uleb128 0x17
 5517 0ccb FC030000 		.4byte	.LASF157
 5518 0ccf 04       		.byte	0x4
 5519 0cd0 6D       		.byte	0x6d
 5520 0cd1 230C0000 		.4byte	0xc23
 5521 0cd5 02       		.byte	0x2
 5522 0cd6 91       		.byte	0x91
 5523 0cd7 6C       		.sleb128 -20
 5524 0cd8 00       		.byte	0
 5525 0cd9 00       		.byte	0
 5526 0cda 2A       		.uleb128 0x2a
 5527 0cdb 01       		.byte	0x1
 5528 0cdc 87030000 		.4byte	.LASF159
 5529 0ce0 04       		.byte	0x4
 5530 0ce1 5A       		.byte	0x5a
 5531 0ce2 01       		.byte	0x1
 5532 0ce3 3E000000 		.4byte	0x3e
 5533 0ce7 08030000 		.4byte	.LFB16
 5534 0ceb 58030000 		.4byte	.LFE16
 5535 0cef F1030000 		.4byte	.LLST12
 5536 0cf3 01       		.byte	0x1
 5537 0cf4 490D0000 		.4byte	0xd49
 5538 0cf8 28       		.uleb128 0x28
 5539 0cf9 F3020000 		.4byte	.LASF94
 5540 0cfd 04       		.byte	0x4
 5541 0cfe 5A       		.byte	0x5a
 5542 0cff 6E060000 		.4byte	0x66e
 5543 0d03 02       		.byte	0x2
 5544 0d04 91       		.byte	0x91
ARM GAS  G:\Users\Jaxb\AppData\Local\Temp\ccWBP0T4.s 			page 119


 5545 0d05 64       		.sleb128 -28
 5546 0d06 17       		.uleb128 0x17
 5547 0d07 1F090000 		.4byte	.LASF98
 5548 0d0b 04       		.byte	0x4
 5549 0d0c 5C       		.byte	0x5c
 5550 0d0d 34060000 		.4byte	0x634
 5551 0d11 02       		.byte	0x2
 5552 0d12 91       		.byte	0x91
 5553 0d13 74       		.sleb128 -12
 5554 0d14 23       		.uleb128 0x23
 5555 0d15 10030000 		.4byte	.LBB9
 5556 0d19 1A030000 		.4byte	.LBE9
 5557 0d1d 300D0000 		.4byte	0xd30
 5558 0d21 17       		.uleb128 0x17
 5559 0d22 FC030000 		.4byte	.LASF157
 5560 0d26 04       		.byte	0x4
 5561 0d27 5D       		.byte	0x5d
 5562 0d28 230C0000 		.4byte	0xc23
 5563 0d2c 02       		.byte	0x2
 5564 0d2d 91       		.byte	0x91
 5565 0d2e 70       		.sleb128 -16
 5566 0d2f 00       		.byte	0
 5567 0d30 25       		.uleb128 0x25
 5568 0d31 32030000 		.4byte	.LBB10
 5569 0d35 3C030000 		.4byte	.LBE10
 5570 0d39 17       		.uleb128 0x17
 5571 0d3a FC030000 		.4byte	.LASF157
 5572 0d3e 04       		.byte	0x4
 5573 0d3f 5D       		.byte	0x5d
 5574 0d40 230C0000 		.4byte	0xc23
 5575 0d44 02       		.byte	0x2
 5576 0d45 91       		.byte	0x91
 5577 0d46 6C       		.sleb128 -20
 5578 0d47 00       		.byte	0
 5579 0d48 00       		.byte	0
 5580 0d49 27       		.uleb128 0x27
 5581 0d4a 97050000 		.4byte	.LASF160
 5582 0d4e 04       		.byte	0x4
 5583 0d4f 44       		.byte	0x44
 5584 0d50 01       		.byte	0x1
 5585 0d51 75000000 		.4byte	0x75
 5586 0d55 90020000 		.4byte	.LFB15
 5587 0d59 08030000 		.4byte	.LFE15
 5588 0d5d 41040000 		.4byte	.LLST11
 5589 0d61 01       		.byte	0x1
 5590 0d62 D10D0000 		.4byte	0xdd1
 5591 0d66 28       		.uleb128 0x28
 5592 0d67 73030000 		.4byte	.LASF161
 5593 0d6b 04       		.byte	0x4
 5594 0d6c 44       		.byte	0x44
 5595 0d6d 6E060000 		.4byte	0x66e
 5596 0d71 02       		.byte	0x2
 5597 0d72 91       		.byte	0x91
 5598 0d73 64       		.sleb128 -28
 5599 0d74 17       		.uleb128 0x17
 5600 0d75 1F090000 		.4byte	.LASF98
 5601 0d79 04       		.byte	0x4
ARM GAS  G:\Users\Jaxb\AppData\Local\Temp\ccWBP0T4.s 			page 120


 5602 0d7a 46       		.byte	0x46
 5603 0d7b 34060000 		.4byte	0x634
 5604 0d7f 02       		.byte	0x2
 5605 0d80 91       		.byte	0x91
 5606 0d81 74       		.sleb128 -12
 5607 0d82 23       		.uleb128 0x23
 5608 0d83 98020000 		.4byte	.LBB6
 5609 0d87 A2020000 		.4byte	.LBE6
 5610 0d8b 9E0D0000 		.4byte	0xd9e
 5611 0d8f 17       		.uleb128 0x17
 5612 0d90 FC030000 		.4byte	.LASF157
 5613 0d94 04       		.byte	0x4
 5614 0d95 47       		.byte	0x47
 5615 0d96 230C0000 		.4byte	0xc23
 5616 0d9a 02       		.byte	0x2
 5617 0d9b 91       		.byte	0x91
 5618 0d9c 6C       		.sleb128 -20
 5619 0d9d 00       		.byte	0
 5620 0d9e 23       		.uleb128 0x23
 5621 0d9f A6020000 		.4byte	.LBB7
 5622 0da3 E4020000 		.4byte	.LBE7
 5623 0da7 B80D0000 		.4byte	0xdb8
 5624 0dab 18       		.uleb128 0x18
 5625 0dac 6900     		.ascii	"i\000"
 5626 0dae 04       		.byte	0x4
 5627 0daf 49       		.byte	0x49
 5628 0db0 80000000 		.4byte	0x80
 5629 0db4 02       		.byte	0x2
 5630 0db5 91       		.byte	0x91
 5631 0db6 70       		.sleb128 -16
 5632 0db7 00       		.byte	0
 5633 0db8 25       		.uleb128 0x25
 5634 0db9 E4020000 		.4byte	.LBB8
 5635 0dbd EE020000 		.4byte	.LBE8
 5636 0dc1 17       		.uleb128 0x17
 5637 0dc2 FC030000 		.4byte	.LASF157
 5638 0dc6 04       		.byte	0x4
 5639 0dc7 47       		.byte	0x47
 5640 0dc8 230C0000 		.4byte	0xc23
 5641 0dcc 02       		.byte	0x2
 5642 0dcd 91       		.byte	0x91
 5643 0dce 68       		.sleb128 -24
 5644 0dcf 00       		.byte	0
 5645 0dd0 00       		.byte	0
 5646 0dd1 2B       		.uleb128 0x2b
 5647 0dd2 01       		.byte	0x1
 5648 0dd3 22020000 		.4byte	.LASF162
 5649 0dd7 04       		.byte	0x4
 5650 0dd8 38       		.byte	0x38
 5651 0dd9 01       		.byte	0x1
 5652 0dda 30020000 		.4byte	.LFB14
 5653 0dde 90020000 		.4byte	.LFE14
 5654 0de2 91040000 		.4byte	.LLST10
 5655 0de6 01       		.byte	0x1
 5656 0de7 560E0000 		.4byte	0xe56
 5657 0deb 28       		.uleb128 0x28
 5658 0dec EE020000 		.4byte	.LASF153
ARM GAS  G:\Users\Jaxb\AppData\Local\Temp\ccWBP0T4.s 			page 121


 5659 0df0 04       		.byte	0x4
 5660 0df1 38       		.byte	0x38
 5661 0df2 3E000000 		.4byte	0x3e
 5662 0df6 02       		.byte	0x2
 5663 0df7 91       		.byte	0x91
 5664 0df8 64       		.sleb128 -28
 5665 0df9 28       		.uleb128 0x28
 5666 0dfa CA080000 		.4byte	.LASF154
 5667 0dfe 04       		.byte	0x4
 5668 0dff 38       		.byte	0x38
 5669 0e00 1D0C0000 		.4byte	0xc1d
 5670 0e04 02       		.byte	0x2
 5671 0e05 91       		.byte	0x91
 5672 0e06 60       		.sleb128 -32
 5673 0e07 17       		.uleb128 0x17
 5674 0e08 1F090000 		.4byte	.LASF98
 5675 0e0c 04       		.byte	0x4
 5676 0e0d 3A       		.byte	0x3a
 5677 0e0e 34060000 		.4byte	0x634
 5678 0e12 02       		.byte	0x2
 5679 0e13 91       		.byte	0x91
 5680 0e14 74       		.sleb128 -12
 5681 0e15 18       		.uleb128 0x18
 5682 0e16 6900     		.ascii	"i\000"
 5683 0e18 04       		.byte	0x4
 5684 0e19 3B       		.byte	0x3b
 5685 0e1a 80000000 		.4byte	0x80
 5686 0e1e 02       		.byte	0x2
 5687 0e1f 91       		.byte	0x91
 5688 0e20 70       		.sleb128 -16
 5689 0e21 23       		.uleb128 0x23
 5690 0e22 3E020000 		.4byte	.LBB4
 5691 0e26 48020000 		.4byte	.LBE4
 5692 0e2a 3D0E0000 		.4byte	0xe3d
 5693 0e2e 17       		.uleb128 0x17
 5694 0e2f FC030000 		.4byte	.LASF157
 5695 0e33 04       		.byte	0x4
 5696 0e34 3C       		.byte	0x3c
 5697 0e35 230C0000 		.4byte	0xc23
 5698 0e39 02       		.byte	0x2
 5699 0e3a 91       		.byte	0x91
 5700 0e3b 6C       		.sleb128 -20
 5701 0e3c 00       		.byte	0
 5702 0e3d 25       		.uleb128 0x25
 5703 0e3e 5C020000 		.4byte	.LBB5
 5704 0e42 66020000 		.4byte	.LBE5
 5705 0e46 17       		.uleb128 0x17
 5706 0e47 FC030000 		.4byte	.LASF157
 5707 0e4b 04       		.byte	0x4
 5708 0e4c 3C       		.byte	0x3c
 5709 0e4d 230C0000 		.4byte	0xc23
 5710 0e51 02       		.byte	0x2
 5711 0e52 91       		.byte	0x91
 5712 0e53 68       		.sleb128 -24
 5713 0e54 00       		.byte	0
 5714 0e55 00       		.byte	0
 5715 0e56 2B       		.uleb128 0x2b
ARM GAS  G:\Users\Jaxb\AppData\Local\Temp\ccWBP0T4.s 			page 122


 5716 0e57 01       		.byte	0x1
 5717 0e58 2D070000 		.4byte	.LASF163
 5718 0e5c 04       		.byte	0x4
 5719 0e5d 19       		.byte	0x19
 5720 0e5e 01       		.byte	0x1
 5721 0e5f 14010000 		.4byte	.LFB13
 5722 0e63 30020000 		.4byte	.LFE13
 5723 0e67 E1040000 		.4byte	.LLST9
 5724 0e6b 01       		.byte	0x1
 5725 0e6c DB0E0000 		.4byte	0xedb
 5726 0e70 28       		.uleb128 0x28
 5727 0e71 EE020000 		.4byte	.LASF153
 5728 0e75 04       		.byte	0x4
 5729 0e76 19       		.byte	0x19
 5730 0e77 3E000000 		.4byte	0x3e
 5731 0e7b 02       		.byte	0x2
 5732 0e7c 91       		.byte	0x91
 5733 0e7d 64       		.sleb128 -28
 5734 0e7e 28       		.uleb128 0x28
 5735 0e7f CA080000 		.4byte	.LASF154
 5736 0e83 04       		.byte	0x4
 5737 0e84 19       		.byte	0x19
 5738 0e85 1D0C0000 		.4byte	0xc1d
 5739 0e89 02       		.byte	0x2
 5740 0e8a 91       		.byte	0x91
 5741 0e8b 60       		.sleb128 -32
 5742 0e8c 17       		.uleb128 0x17
 5743 0e8d 1F090000 		.4byte	.LASF98
 5744 0e91 04       		.byte	0x4
 5745 0e92 1B       		.byte	0x1b
 5746 0e93 34060000 		.4byte	0x634
 5747 0e97 02       		.byte	0x2
 5748 0e98 91       		.byte	0x91
 5749 0e99 74       		.sleb128 -12
 5750 0e9a 18       		.uleb128 0x18
 5751 0e9b 6900     		.ascii	"i\000"
 5752 0e9d 04       		.byte	0x4
 5753 0e9e 1C       		.byte	0x1c
 5754 0e9f 80000000 		.4byte	0x80
 5755 0ea3 02       		.byte	0x2
 5756 0ea4 91       		.byte	0x91
 5757 0ea5 70       		.sleb128 -16
 5758 0ea6 23       		.uleb128 0x23
 5759 0ea7 1E010000 		.4byte	.LBB2
 5760 0eab 28010000 		.4byte	.LBE2
 5761 0eaf C20E0000 		.4byte	0xec2
 5762 0eb3 17       		.uleb128 0x17
 5763 0eb4 FC030000 		.4byte	.LASF157
 5764 0eb8 04       		.byte	0x4
 5765 0eb9 1D       		.byte	0x1d
 5766 0eba 230C0000 		.4byte	0xc23
 5767 0ebe 02       		.byte	0x2
 5768 0ebf 91       		.byte	0x91
 5769 0ec0 6C       		.sleb128 -20
 5770 0ec1 00       		.byte	0
 5771 0ec2 25       		.uleb128 0x25
 5772 0ec3 D8010000 		.4byte	.LBB3
ARM GAS  G:\Users\Jaxb\AppData\Local\Temp\ccWBP0T4.s 			page 123


 5773 0ec7 E2010000 		.4byte	.LBE3
 5774 0ecb 17       		.uleb128 0x17
 5775 0ecc FC030000 		.4byte	.LASF157
 5776 0ed0 04       		.byte	0x4
 5777 0ed1 1D       		.byte	0x1d
 5778 0ed2 230C0000 		.4byte	0xc23
 5779 0ed6 02       		.byte	0x2
 5780 0ed7 91       		.byte	0x91
 5781 0ed8 68       		.sleb128 -24
 5782 0ed9 00       		.byte	0
 5783 0eda 00       		.byte	0
 5784 0edb 2D       		.uleb128 0x2d
 5785 0edc 01       		.byte	0x1
 5786 0edd 13070000 		.4byte	.LASF164
 5787 0ee1 04       		.byte	0x4
 5788 0ee2 14       		.byte	0x14
 5789 0ee3 01       		.byte	0x1
 5790 0ee4 02010000 		.4byte	.LFB12
 5791 0ee8 14010000 		.4byte	.LFE12
 5792 0eec 31050000 		.4byte	.LLST8
 5793 0ef0 01       		.byte	0x1
 5794 0ef1 2E       		.uleb128 0x2e
 5795 0ef2 88000000 		.4byte	.LASF166
 5796 0ef6 03       		.byte	0x3
 5797 0ef7 36       		.byte	0x36
 5798 0ef8 01       		.byte	0x1
 5799 0ef9 E8000000 		.4byte	.LFB11
 5800 0efd 02010000 		.4byte	.LFE11
 5801 0f01 5D050000 		.4byte	.LLST7
 5802 0f05 01       		.byte	0x1
 5803 0f06 270F0000 		.4byte	0xf27
 5804 0f0a 28       		.uleb128 0x28
 5805 0f0b 1F090000 		.4byte	.LASF98
 5806 0f0f 03       		.byte	0x3
 5807 0f10 36       		.byte	0x36
 5808 0f11 34060000 		.4byte	0x634
 5809 0f15 02       		.byte	0x2
 5810 0f16 91       		.byte	0x91
 5811 0f17 74       		.sleb128 -12
 5812 0f18 28       		.uleb128 0x28
 5813 0f19 96010000 		.4byte	.LASF167
 5814 0f1d 03       		.byte	0x3
 5815 0f1e 36       		.byte	0x36
 5816 0f1f 75000000 		.4byte	0x75
 5817 0f23 02       		.byte	0x2
 5818 0f24 91       		.byte	0x91
 5819 0f25 70       		.sleb128 -16
 5820 0f26 00       		.byte	0
 5821 0f27 2E       		.uleb128 0x2e
 5822 0f28 13030000 		.4byte	.LASF168
 5823 0f2c 02       		.byte	0x2
 5824 0f2d 62       		.byte	0x62
 5825 0f2e 01       		.byte	0x1
 5826 0f2f CE000000 		.4byte	.LFB10
 5827 0f33 E8000000 		.4byte	.LFE10
 5828 0f37 B9050000 		.4byte	.LLST6
 5829 0f3b 01       		.byte	0x1
ARM GAS  G:\Users\Jaxb\AppData\Local\Temp\ccWBP0T4.s 			page 124


 5830 0f3c 5D0F0000 		.4byte	0xf5d
 5831 0f40 28       		.uleb128 0x28
 5832 0f41 AF020000 		.4byte	.LASF124
 5833 0f45 02       		.byte	0x2
 5834 0f46 62       		.byte	0x62
 5835 0f47 9E060000 		.4byte	0x69e
 5836 0f4b 02       		.byte	0x2
 5837 0f4c 91       		.byte	0x91
 5838 0f4d 74       		.sleb128 -12
 5839 0f4e 28       		.uleb128 0x28
 5840 0f4f 0B020000 		.4byte	.LASF169
 5841 0f53 02       		.byte	0x2
 5842 0f54 62       		.byte	0x62
 5843 0f55 34060000 		.4byte	0x634
 5844 0f59 02       		.byte	0x2
 5845 0f5a 91       		.byte	0x91
 5846 0f5b 70       		.sleb128 -16
 5847 0f5c 00       		.byte	0
 5848 0f5d 2F       		.uleb128 0x2f
 5849 0f5e 6D000000 		.4byte	.LASF170
 5850 0f62 01       		.byte	0x1
 5851 0f63 52       		.byte	0x52
 5852 0f64 01       		.byte	0x1
 5853 0f65 3E000000 		.4byte	0x3e
 5854 0f69 AC000000 		.4byte	.LFB9
 5855 0f6d CE000000 		.4byte	.LFE9
 5856 0f71 15060000 		.4byte	.LLST5
 5857 0f75 01       		.byte	0x1
 5858 0f76 890F0000 		.4byte	0xf89
 5859 0f7a 28       		.uleb128 0x28
 5860 0f7b 94060000 		.4byte	.LASF171
 5861 0f7f 01       		.byte	0x1
 5862 0f80 52       		.byte	0x52
 5863 0f81 230C0000 		.4byte	0xc23
 5864 0f85 02       		.byte	0x2
 5865 0f86 91       		.byte	0x91
 5866 0f87 74       		.sleb128 -12
 5867 0f88 00       		.byte	0
 5868 0f89 30       		.uleb128 0x30
 5869 0f8a B7080000 		.4byte	.LASF172
 5870 0f8e 01       		.byte	0x1
 5871 0f8f 35       		.byte	0x35
 5872 0f90 01       		.byte	0x1
 5873 0f91 8C000000 		.4byte	.LFB5
 5874 0f95 AC000000 		.4byte	.LFE5
 5875 0f99 71060000 		.4byte	.LLST4
 5876 0f9d 01       		.byte	0x1
 5877 0f9e B10F0000 		.4byte	0xfb1
 5878 0fa2 28       		.uleb128 0x28
 5879 0fa3 AC000000 		.4byte	.LASF109
 5880 0fa7 01       		.byte	0x1
 5881 0fa8 35       		.byte	0x35
 5882 0fa9 B5030000 		.4byte	0x3b5
 5883 0fad 02       		.byte	0x2
 5884 0fae 91       		.byte	0x91
 5885 0faf 74       		.sleb128 -12
 5886 0fb0 00       		.byte	0
ARM GAS  G:\Users\Jaxb\AppData\Local\Temp\ccWBP0T4.s 			page 125


 5887 0fb1 2E       		.uleb128 0x2e
 5888 0fb2 5D020000 		.4byte	.LASF173
 5889 0fb6 01       		.byte	0x1
 5890 0fb7 2E       		.byte	0x2e
 5891 0fb8 01       		.byte	0x1
 5892 0fb9 6C000000 		.4byte	.LFB4
 5893 0fbd 8C000000 		.4byte	.LFE4
 5894 0fc1 C1060000 		.4byte	.LLST3
 5895 0fc5 01       		.byte	0x1
 5896 0fc6 E70F0000 		.4byte	0xfe7
 5897 0fca 28       		.uleb128 0x28
 5898 0fcb 68000000 		.4byte	.LASF67
 5899 0fcf 01       		.byte	0x1
 5900 0fd0 2E       		.byte	0x2e
 5901 0fd1 B5030000 		.4byte	0x3b5
 5902 0fd5 02       		.byte	0x2
 5903 0fd6 91       		.byte	0x91
 5904 0fd7 74       		.sleb128 -12
 5905 0fd8 28       		.uleb128 0x28
 5906 0fd9 08010000 		.4byte	.LASF66
 5907 0fdd 01       		.byte	0x1
 5908 0fde 2E       		.byte	0x2e
 5909 0fdf B5030000 		.4byte	0x3b5
 5910 0fe3 02       		.byte	0x2
 5911 0fe4 91       		.byte	0x91
 5912 0fe5 70       		.sleb128 -16
 5913 0fe6 00       		.byte	0
 5914 0fe7 30       		.uleb128 0x30
 5915 0fe8 3B030000 		.4byte	.LASF174
 5916 0fec 01       		.byte	0x1
 5917 0fed 22       		.byte	0x22
 5918 0fee 01       		.byte	0x1
 5919 0fef 4C000000 		.4byte	.LFB2
 5920 0ff3 6C000000 		.4byte	.LFE2
 5921 0ff7 1D070000 		.4byte	.LLST2
 5922 0ffb 01       		.byte	0x1
 5923 0ffc 1D100000 		.4byte	0x101d
 5924 1000 29       		.uleb128 0x29
 5925 1001 6E657700 		.ascii	"new\000"
 5926 1005 01       		.byte	0x1
 5927 1006 22       		.byte	0x22
 5928 1007 B5030000 		.4byte	0x3b5
 5929 100b 02       		.byte	0x2
 5930 100c 91       		.byte	0x91
 5931 100d 74       		.sleb128 -12
 5932 100e 28       		.uleb128 0x28
 5933 100f 94060000 		.4byte	.LASF171
 5934 1013 01       		.byte	0x1
 5935 1014 22       		.byte	0x22
 5936 1015 B5030000 		.4byte	0x3b5
 5937 1019 02       		.byte	0x2
 5938 101a 91       		.byte	0x91
 5939 101b 70       		.sleb128 -16
 5940 101c 00       		.byte	0
 5941 101d 2E       		.uleb128 0x2e
 5942 101e A7010000 		.4byte	.LASF175
 5943 1022 01       		.byte	0x1
ARM GAS  G:\Users\Jaxb\AppData\Local\Temp\ccWBP0T4.s 			page 126


 5944 1023 17       		.byte	0x17
 5945 1024 01       		.byte	0x1
 5946 1025 1E000000 		.4byte	.LFB1
 5947 1029 4C000000 		.4byte	.LFE1
 5948 102d 6D070000 		.4byte	.LLST1
 5949 1031 01       		.byte	0x1
 5950 1032 61100000 		.4byte	0x1061
 5951 1036 29       		.uleb128 0x29
 5952 1037 6E657700 		.ascii	"new\000"
 5953 103b 01       		.byte	0x1
 5954 103c 17       		.byte	0x17
 5955 103d B5030000 		.4byte	0x3b5
 5956 1041 02       		.byte	0x2
 5957 1042 91       		.byte	0x91
 5958 1043 74       		.sleb128 -12
 5959 1044 28       		.uleb128 0x28
 5960 1045 68000000 		.4byte	.LASF67
 5961 1049 01       		.byte	0x1
 5962 104a 18       		.byte	0x18
 5963 104b B5030000 		.4byte	0x3b5
 5964 104f 02       		.byte	0x2
 5965 1050 91       		.byte	0x91
 5966 1051 70       		.sleb128 -16
 5967 1052 28       		.uleb128 0x28
 5968 1053 08010000 		.4byte	.LASF66
 5969 1057 01       		.byte	0x1
 5970 1058 19       		.byte	0x19
 5971 1059 B5030000 		.4byte	0x3b5
 5972 105d 02       		.byte	0x2
 5973 105e 91       		.byte	0x91
 5974 105f 6C       		.sleb128 -20
 5975 1060 00       		.byte	0
 5976 1061 31       		.uleb128 0x31
 5977 1062 5D080000 		.4byte	.LASF182
 5978 1066 01       		.byte	0x1
 5979 1067 10       		.byte	0x10
 5980 1068 01       		.byte	0x1
 5981 1069 00000000 		.4byte	.LFB0
 5982 106d 1E000000 		.4byte	.LFE0
 5983 1071 C9070000 		.4byte	.LLST0
 5984 1075 01       		.byte	0x1
 5985 1076 28       		.uleb128 0x28
 5986 1077 36030000 		.4byte	.LASF176
 5987 107b 01       		.byte	0x1
 5988 107c 10       		.byte	0x10
 5989 107d B5030000 		.4byte	0x3b5
 5990 1081 02       		.byte	0x2
 5991 1082 91       		.byte	0x91
 5992 1083 74       		.sleb128 -12
 5993 1084 00       		.byte	0
 5994 1085 00       		.byte	0
 5995              		.section	.debug_abbrev,"",%progbits
 5996              	.Ldebug_abbrev0:
 5997 0000 01       		.uleb128 0x1
 5998 0001 11       		.uleb128 0x11
 5999 0002 01       		.byte	0x1
 6000 0003 25       		.uleb128 0x25
ARM GAS  G:\Users\Jaxb\AppData\Local\Temp\ccWBP0T4.s 			page 127


 6001 0004 0E       		.uleb128 0xe
 6002 0005 13       		.uleb128 0x13
 6003 0006 0B       		.uleb128 0xb
 6004 0007 03       		.uleb128 0x3
 6005 0008 0E       		.uleb128 0xe
 6006 0009 1B       		.uleb128 0x1b
 6007 000a 0E       		.uleb128 0xe
 6008 000b 11       		.uleb128 0x11
 6009 000c 01       		.uleb128 0x1
 6010 000d 12       		.uleb128 0x12
 6011 000e 01       		.uleb128 0x1
 6012 000f 10       		.uleb128 0x10
 6013 0010 06       		.uleb128 0x6
 6014 0011 00       		.byte	0
 6015 0012 00       		.byte	0
 6016 0013 02       		.uleb128 0x2
 6017 0014 24       		.uleb128 0x24
 6018 0015 00       		.byte	0
 6019 0016 0B       		.uleb128 0xb
 6020 0017 0B       		.uleb128 0xb
 6021 0018 3E       		.uleb128 0x3e
 6022 0019 0B       		.uleb128 0xb
 6023 001a 03       		.uleb128 0x3
 6024 001b 0E       		.uleb128 0xe
 6025 001c 00       		.byte	0
 6026 001d 00       		.byte	0
 6027 001e 03       		.uleb128 0x3
 6028 001f 16       		.uleb128 0x16
 6029 0020 00       		.byte	0
 6030 0021 03       		.uleb128 0x3
 6031 0022 0E       		.uleb128 0xe
 6032 0023 3A       		.uleb128 0x3a
 6033 0024 0B       		.uleb128 0xb
 6034 0025 3B       		.uleb128 0x3b
 6035 0026 0B       		.uleb128 0xb
 6036 0027 49       		.uleb128 0x49
 6037 0028 13       		.uleb128 0x13
 6038 0029 00       		.byte	0
 6039 002a 00       		.byte	0
 6040 002b 04       		.uleb128 0x4
 6041 002c 24       		.uleb128 0x24
 6042 002d 00       		.byte	0
 6043 002e 0B       		.uleb128 0xb
 6044 002f 0B       		.uleb128 0xb
 6045 0030 3E       		.uleb128 0x3e
 6046 0031 0B       		.uleb128 0xb
 6047 0032 03       		.uleb128 0x3
 6048 0033 08       		.uleb128 0x8
 6049 0034 00       		.byte	0
 6050 0035 00       		.byte	0
 6051 0036 05       		.uleb128 0x5
 6052 0037 35       		.uleb128 0x35
 6053 0038 00       		.byte	0
 6054 0039 49       		.uleb128 0x49
 6055 003a 13       		.uleb128 0x13
 6056 003b 00       		.byte	0
 6057 003c 00       		.byte	0
ARM GAS  G:\Users\Jaxb\AppData\Local\Temp\ccWBP0T4.s 			page 128


 6058 003d 06       		.uleb128 0x6
 6059 003e 13       		.uleb128 0x13
 6060 003f 01       		.byte	0x1
 6061 0040 03       		.uleb128 0x3
 6062 0041 0E       		.uleb128 0xe
 6063 0042 0B       		.uleb128 0xb
 6064 0043 0B       		.uleb128 0xb
 6065 0044 3A       		.uleb128 0x3a
 6066 0045 0B       		.uleb128 0xb
 6067 0046 3B       		.uleb128 0x3b
 6068 0047 0B       		.uleb128 0xb
 6069 0048 01       		.uleb128 0x1
 6070 0049 13       		.uleb128 0x13
 6071 004a 00       		.byte	0
 6072 004b 00       		.byte	0
 6073 004c 07       		.uleb128 0x7
 6074 004d 0D       		.uleb128 0xd
 6075 004e 00       		.byte	0
 6076 004f 03       		.uleb128 0x3
 6077 0050 0E       		.uleb128 0xe
 6078 0051 3A       		.uleb128 0x3a
 6079 0052 0B       		.uleb128 0xb
 6080 0053 3B       		.uleb128 0x3b
 6081 0054 0B       		.uleb128 0xb
 6082 0055 49       		.uleb128 0x49
 6083 0056 13       		.uleb128 0x13
 6084 0057 38       		.uleb128 0x38
 6085 0058 0A       		.uleb128 0xa
 6086 0059 00       		.byte	0
 6087 005a 00       		.byte	0
 6088 005b 08       		.uleb128 0x8
 6089 005c 01       		.uleb128 0x1
 6090 005d 01       		.byte	0x1
 6091 005e 49       		.uleb128 0x49
 6092 005f 13       		.uleb128 0x13
 6093 0060 01       		.uleb128 0x1
 6094 0061 13       		.uleb128 0x13
 6095 0062 00       		.byte	0
 6096 0063 00       		.byte	0
 6097 0064 09       		.uleb128 0x9
 6098 0065 21       		.uleb128 0x21
 6099 0066 00       		.byte	0
 6100 0067 49       		.uleb128 0x49
 6101 0068 13       		.uleb128 0x13
 6102 0069 2F       		.uleb128 0x2f
 6103 006a 0B       		.uleb128 0xb
 6104 006b 00       		.byte	0
 6105 006c 00       		.byte	0
 6106 006d 0A       		.uleb128 0xa
 6107 006e 13       		.uleb128 0x13
 6108 006f 01       		.byte	0x1
 6109 0070 0B       		.uleb128 0xb
 6110 0071 0B       		.uleb128 0xb
 6111 0072 3A       		.uleb128 0x3a
 6112 0073 0B       		.uleb128 0xb
 6113 0074 3B       		.uleb128 0x3b
 6114 0075 0B       		.uleb128 0xb
ARM GAS  G:\Users\Jaxb\AppData\Local\Temp\ccWBP0T4.s 			page 129


 6115 0076 01       		.uleb128 0x1
 6116 0077 13       		.uleb128 0x13
 6117 0078 00       		.byte	0
 6118 0079 00       		.byte	0
 6119 007a 0B       		.uleb128 0xb
 6120 007b 26       		.uleb128 0x26
 6121 007c 00       		.byte	0
 6122 007d 49       		.uleb128 0x49
 6123 007e 13       		.uleb128 0x13
 6124 007f 00       		.byte	0
 6125 0080 00       		.byte	0
 6126 0081 0C       		.uleb128 0xc
 6127 0082 0F       		.uleb128 0xf
 6128 0083 00       		.byte	0
 6129 0084 0B       		.uleb128 0xb
 6130 0085 0B       		.uleb128 0xb
 6131 0086 49       		.uleb128 0x49
 6132 0087 13       		.uleb128 0x13
 6133 0088 00       		.byte	0
 6134 0089 00       		.byte	0
 6135 008a 0D       		.uleb128 0xd
 6136 008b 04       		.uleb128 0x4
 6137 008c 01       		.byte	0x1
 6138 008d 03       		.uleb128 0x3
 6139 008e 0E       		.uleb128 0xe
 6140 008f 3E       		.uleb128 0x3e
 6141 0090 0B       		.uleb128 0xb
 6142 0091 0B       		.uleb128 0xb
 6143 0092 0B       		.uleb128 0xb
 6144 0093 49       		.uleb128 0x49
 6145 0094 13       		.uleb128 0x13
 6146 0095 3A       		.uleb128 0x3a
 6147 0096 0B       		.uleb128 0xb
 6148 0097 3B       		.uleb128 0x3b
 6149 0098 0B       		.uleb128 0xb
 6150 0099 01       		.uleb128 0x1
 6151 009a 13       		.uleb128 0x13
 6152 009b 00       		.byte	0
 6153 009c 00       		.byte	0
 6154 009d 0E       		.uleb128 0xe
 6155 009e 28       		.uleb128 0x28
 6156 009f 00       		.byte	0
 6157 00a0 03       		.uleb128 0x3
 6158 00a1 0E       		.uleb128 0xe
 6159 00a2 1C       		.uleb128 0x1c
 6160 00a3 0B       		.uleb128 0xb
 6161 00a4 00       		.byte	0
 6162 00a5 00       		.byte	0
 6163 00a6 0F       		.uleb128 0xf
 6164 00a7 15       		.uleb128 0x15
 6165 00a8 01       		.byte	0x1
 6166 00a9 27       		.uleb128 0x27
 6167 00aa 0C       		.uleb128 0xc
 6168 00ab 01       		.uleb128 0x1
 6169 00ac 13       		.uleb128 0x13
 6170 00ad 00       		.byte	0
 6171 00ae 00       		.byte	0
ARM GAS  G:\Users\Jaxb\AppData\Local\Temp\ccWBP0T4.s 			page 130


 6172 00af 10       		.uleb128 0x10
 6173 00b0 05       		.uleb128 0x5
 6174 00b1 00       		.byte	0
 6175 00b2 49       		.uleb128 0x49
 6176 00b3 13       		.uleb128 0x13
 6177 00b4 00       		.byte	0
 6178 00b5 00       		.byte	0
 6179 00b6 11       		.uleb128 0x11
 6180 00b7 0F       		.uleb128 0xf
 6181 00b8 00       		.byte	0
 6182 00b9 0B       		.uleb128 0xb
 6183 00ba 0B       		.uleb128 0xb
 6184 00bb 00       		.byte	0
 6185 00bc 00       		.byte	0
 6186 00bd 12       		.uleb128 0x12
 6187 00be 34       		.uleb128 0x34
 6188 00bf 00       		.byte	0
 6189 00c0 03       		.uleb128 0x3
 6190 00c1 0E       		.uleb128 0xe
 6191 00c2 3A       		.uleb128 0x3a
 6192 00c3 0B       		.uleb128 0xb
 6193 00c4 3B       		.uleb128 0x3b
 6194 00c5 0B       		.uleb128 0xb
 6195 00c6 49       		.uleb128 0x49
 6196 00c7 13       		.uleb128 0x13
 6197 00c8 3F       		.uleb128 0x3f
 6198 00c9 0C       		.uleb128 0xc
 6199 00ca 3C       		.uleb128 0x3c
 6200 00cb 0C       		.uleb128 0xc
 6201 00cc 00       		.byte	0
 6202 00cd 00       		.byte	0
 6203 00ce 13       		.uleb128 0x13
 6204 00cf 0D       		.uleb128 0xd
 6205 00d0 00       		.byte	0
 6206 00d1 03       		.uleb128 0x3
 6207 00d2 08       		.uleb128 0x8
 6208 00d3 3A       		.uleb128 0x3a
 6209 00d4 0B       		.uleb128 0xb
 6210 00d5 3B       		.uleb128 0x3b
 6211 00d6 0B       		.uleb128 0xb
 6212 00d7 49       		.uleb128 0x49
 6213 00d8 13       		.uleb128 0x13
 6214 00d9 38       		.uleb128 0x38
 6215 00da 0A       		.uleb128 0xa
 6216 00db 00       		.byte	0
 6217 00dc 00       		.byte	0
 6218 00dd 14       		.uleb128 0x14
 6219 00de 16       		.uleb128 0x16
 6220 00df 00       		.byte	0
 6221 00e0 03       		.uleb128 0x3
 6222 00e1 08       		.uleb128 0x8
 6223 00e2 3A       		.uleb128 0x3a
 6224 00e3 0B       		.uleb128 0xb
 6225 00e4 3B       		.uleb128 0x3b
 6226 00e5 0B       		.uleb128 0xb
 6227 00e6 49       		.uleb128 0x49
 6228 00e7 13       		.uleb128 0x13
ARM GAS  G:\Users\Jaxb\AppData\Local\Temp\ccWBP0T4.s 			page 131


 6229 00e8 00       		.byte	0
 6230 00e9 00       		.byte	0
 6231 00ea 15       		.uleb128 0x15
 6232 00eb 15       		.uleb128 0x15
 6233 00ec 00       		.byte	0
 6234 00ed 27       		.uleb128 0x27
 6235 00ee 0C       		.uleb128 0xc
 6236 00ef 49       		.uleb128 0x49
 6237 00f0 13       		.uleb128 0x13
 6238 00f1 00       		.byte	0
 6239 00f2 00       		.byte	0
 6240 00f3 16       		.uleb128 0x16
 6241 00f4 15       		.uleb128 0x15
 6242 00f5 00       		.byte	0
 6243 00f6 27       		.uleb128 0x27
 6244 00f7 0C       		.uleb128 0xc
 6245 00f8 00       		.byte	0
 6246 00f9 00       		.byte	0
 6247 00fa 17       		.uleb128 0x17
 6248 00fb 34       		.uleb128 0x34
 6249 00fc 00       		.byte	0
 6250 00fd 03       		.uleb128 0x3
 6251 00fe 0E       		.uleb128 0xe
 6252 00ff 3A       		.uleb128 0x3a
 6253 0100 0B       		.uleb128 0xb
 6254 0101 3B       		.uleb128 0x3b
 6255 0102 0B       		.uleb128 0xb
 6256 0103 49       		.uleb128 0x49
 6257 0104 13       		.uleb128 0x13
 6258 0105 02       		.uleb128 0x2
 6259 0106 0A       		.uleb128 0xa
 6260 0107 00       		.byte	0
 6261 0108 00       		.byte	0
 6262 0109 18       		.uleb128 0x18
 6263 010a 34       		.uleb128 0x34
 6264 010b 00       		.byte	0
 6265 010c 03       		.uleb128 0x3
 6266 010d 08       		.uleb128 0x8
 6267 010e 3A       		.uleb128 0x3a
 6268 010f 0B       		.uleb128 0xb
 6269 0110 3B       		.uleb128 0x3b
 6270 0111 0B       		.uleb128 0xb
 6271 0112 49       		.uleb128 0x49
 6272 0113 13       		.uleb128 0x13
 6273 0114 02       		.uleb128 0x2
 6274 0115 0A       		.uleb128 0xa
 6275 0116 00       		.byte	0
 6276 0117 00       		.byte	0
 6277 0118 19       		.uleb128 0x19
 6278 0119 2E       		.uleb128 0x2e
 6279 011a 01       		.byte	0x1
 6280 011b 3F       		.uleb128 0x3f
 6281 011c 0C       		.uleb128 0xc
 6282 011d 03       		.uleb128 0x3
 6283 011e 0E       		.uleb128 0xe
 6284 011f 3A       		.uleb128 0x3a
 6285 0120 0B       		.uleb128 0xb
ARM GAS  G:\Users\Jaxb\AppData\Local\Temp\ccWBP0T4.s 			page 132


 6286 0121 3B       		.uleb128 0x3b
 6287 0122 05       		.uleb128 0x5
 6288 0123 27       		.uleb128 0x27
 6289 0124 0C       		.uleb128 0xc
 6290 0125 11       		.uleb128 0x11
 6291 0126 01       		.uleb128 0x1
 6292 0127 12       		.uleb128 0x12
 6293 0128 01       		.uleb128 0x1
 6294 0129 40       		.uleb128 0x40
 6295 012a 06       		.uleb128 0x6
 6296 012b 9742     		.uleb128 0x2117
 6297 012d 0C       		.uleb128 0xc
 6298 012e 01       		.uleb128 0x1
 6299 012f 13       		.uleb128 0x13
 6300 0130 00       		.byte	0
 6301 0131 00       		.byte	0
 6302 0132 1A       		.uleb128 0x1a
 6303 0133 05       		.uleb128 0x5
 6304 0134 00       		.byte	0
 6305 0135 03       		.uleb128 0x3
 6306 0136 08       		.uleb128 0x8
 6307 0137 3A       		.uleb128 0x3a
 6308 0138 0B       		.uleb128 0xb
 6309 0139 3B       		.uleb128 0x3b
 6310 013a 05       		.uleb128 0x5
 6311 013b 49       		.uleb128 0x49
 6312 013c 13       		.uleb128 0x13
 6313 013d 02       		.uleb128 0x2
 6314 013e 0A       		.uleb128 0xa
 6315 013f 00       		.byte	0
 6316 0140 00       		.byte	0
 6317 0141 1B       		.uleb128 0x1b
 6318 0142 2E       		.uleb128 0x2e
 6319 0143 00       		.byte	0
 6320 0144 3F       		.uleb128 0x3f
 6321 0145 0C       		.uleb128 0xc
 6322 0146 03       		.uleb128 0x3
 6323 0147 0E       		.uleb128 0xe
 6324 0148 3A       		.uleb128 0x3a
 6325 0149 0B       		.uleb128 0xb
 6326 014a 3B       		.uleb128 0x3b
 6327 014b 05       		.uleb128 0x5
 6328 014c 27       		.uleb128 0x27
 6329 014d 0C       		.uleb128 0xc
 6330 014e 11       		.uleb128 0x11
 6331 014f 01       		.uleb128 0x1
 6332 0150 12       		.uleb128 0x12
 6333 0151 01       		.uleb128 0x1
 6334 0152 40       		.uleb128 0x40
 6335 0153 06       		.uleb128 0x6
 6336 0154 9742     		.uleb128 0x2117
 6337 0156 0C       		.uleb128 0xc
 6338 0157 00       		.byte	0
 6339 0158 00       		.byte	0
 6340 0159 1C       		.uleb128 0x1c
 6341 015a 2E       		.uleb128 0x2e
 6342 015b 00       		.byte	0
ARM GAS  G:\Users\Jaxb\AppData\Local\Temp\ccWBP0T4.s 			page 133


 6343 015c 3F       		.uleb128 0x3f
 6344 015d 0C       		.uleb128 0xc
 6345 015e 03       		.uleb128 0x3
 6346 015f 0E       		.uleb128 0xe
 6347 0160 3A       		.uleb128 0x3a
 6348 0161 0B       		.uleb128 0xb
 6349 0162 3B       		.uleb128 0x3b
 6350 0163 05       		.uleb128 0x5
 6351 0164 27       		.uleb128 0x27
 6352 0165 0C       		.uleb128 0xc
 6353 0166 11       		.uleb128 0x11
 6354 0167 01       		.uleb128 0x1
 6355 0168 12       		.uleb128 0x12
 6356 0169 01       		.uleb128 0x1
 6357 016a 40       		.uleb128 0x40
 6358 016b 06       		.uleb128 0x6
 6359 016c 9642     		.uleb128 0x2116
 6360 016e 0C       		.uleb128 0xc
 6361 016f 00       		.byte	0
 6362 0170 00       		.byte	0
 6363 0171 1D       		.uleb128 0x1d
 6364 0172 2E       		.uleb128 0x2e
 6365 0173 01       		.byte	0x1
 6366 0174 3F       		.uleb128 0x3f
 6367 0175 0C       		.uleb128 0xc
 6368 0176 03       		.uleb128 0x3
 6369 0177 0E       		.uleb128 0xe
 6370 0178 3A       		.uleb128 0x3a
 6371 0179 0B       		.uleb128 0xb
 6372 017a 3B       		.uleb128 0x3b
 6373 017b 05       		.uleb128 0x5
 6374 017c 27       		.uleb128 0x27
 6375 017d 0C       		.uleb128 0xc
 6376 017e 11       		.uleb128 0x11
 6377 017f 01       		.uleb128 0x1
 6378 0180 12       		.uleb128 0x12
 6379 0181 01       		.uleb128 0x1
 6380 0182 40       		.uleb128 0x40
 6381 0183 06       		.uleb128 0x6
 6382 0184 9642     		.uleb128 0x2116
 6383 0186 0C       		.uleb128 0xc
 6384 0187 01       		.uleb128 0x1
 6385 0188 13       		.uleb128 0x13
 6386 0189 00       		.byte	0
 6387 018a 00       		.byte	0
 6388 018b 1E       		.uleb128 0x1e
 6389 018c 2E       		.uleb128 0x2e
 6390 018d 01       		.byte	0x1
 6391 018e 3F       		.uleb128 0x3f
 6392 018f 0C       		.uleb128 0xc
 6393 0190 03       		.uleb128 0x3
 6394 0191 0E       		.uleb128 0xe
 6395 0192 3A       		.uleb128 0x3a
 6396 0193 0B       		.uleb128 0xb
 6397 0194 3B       		.uleb128 0x3b
 6398 0195 05       		.uleb128 0x5
 6399 0196 27       		.uleb128 0x27
ARM GAS  G:\Users\Jaxb\AppData\Local\Temp\ccWBP0T4.s 			page 134


 6400 0197 0C       		.uleb128 0xc
 6401 0198 49       		.uleb128 0x49
 6402 0199 13       		.uleb128 0x13
 6403 019a 11       		.uleb128 0x11
 6404 019b 01       		.uleb128 0x1
 6405 019c 12       		.uleb128 0x12
 6406 019d 01       		.uleb128 0x1
 6407 019e 40       		.uleb128 0x40
 6408 019f 06       		.uleb128 0x6
 6409 01a0 9642     		.uleb128 0x2116
 6410 01a2 0C       		.uleb128 0xc
 6411 01a3 01       		.uleb128 0x1
 6412 01a4 13       		.uleb128 0x13
 6413 01a5 00       		.byte	0
 6414 01a6 00       		.byte	0
 6415 01a7 1F       		.uleb128 0x1f
 6416 01a8 05       		.uleb128 0x5
 6417 01a9 00       		.byte	0
 6418 01aa 03       		.uleb128 0x3
 6419 01ab 0E       		.uleb128 0xe
 6420 01ac 3A       		.uleb128 0x3a
 6421 01ad 0B       		.uleb128 0xb
 6422 01ae 3B       		.uleb128 0x3b
 6423 01af 05       		.uleb128 0x5
 6424 01b0 49       		.uleb128 0x49
 6425 01b1 13       		.uleb128 0x13
 6426 01b2 02       		.uleb128 0x2
 6427 01b3 0A       		.uleb128 0xa
 6428 01b4 00       		.byte	0
 6429 01b5 00       		.byte	0
 6430 01b6 20       		.uleb128 0x20
 6431 01b7 34       		.uleb128 0x34
 6432 01b8 00       		.byte	0
 6433 01b9 03       		.uleb128 0x3
 6434 01ba 0E       		.uleb128 0xe
 6435 01bb 3A       		.uleb128 0x3a
 6436 01bc 0B       		.uleb128 0xb
 6437 01bd 3B       		.uleb128 0x3b
 6438 01be 05       		.uleb128 0x5
 6439 01bf 49       		.uleb128 0x49
 6440 01c0 13       		.uleb128 0x13
 6441 01c1 02       		.uleb128 0x2
 6442 01c2 0A       		.uleb128 0xa
 6443 01c3 00       		.byte	0
 6444 01c4 00       		.byte	0
 6445 01c5 21       		.uleb128 0x21
 6446 01c6 0A       		.uleb128 0xa
 6447 01c7 00       		.byte	0
 6448 01c8 03       		.uleb128 0x3
 6449 01c9 0E       		.uleb128 0xe
 6450 01ca 3A       		.uleb128 0x3a
 6451 01cb 0B       		.uleb128 0xb
 6452 01cc 3B       		.uleb128 0x3b
 6453 01cd 05       		.uleb128 0x5
 6454 01ce 11       		.uleb128 0x11
 6455 01cf 01       		.uleb128 0x1
 6456 01d0 00       		.byte	0
ARM GAS  G:\Users\Jaxb\AppData\Local\Temp\ccWBP0T4.s 			page 135


 6457 01d1 00       		.byte	0
 6458 01d2 22       		.uleb128 0x22
 6459 01d3 2E       		.uleb128 0x2e
 6460 01d4 01       		.byte	0x1
 6461 01d5 03       		.uleb128 0x3
 6462 01d6 0E       		.uleb128 0xe
 6463 01d7 3A       		.uleb128 0x3a
 6464 01d8 0B       		.uleb128 0xb
 6465 01d9 3B       		.uleb128 0x3b
 6466 01da 05       		.uleb128 0x5
 6467 01db 27       		.uleb128 0x27
 6468 01dc 0C       		.uleb128 0xc
 6469 01dd 11       		.uleb128 0x11
 6470 01de 01       		.uleb128 0x1
 6471 01df 12       		.uleb128 0x12
 6472 01e0 01       		.uleb128 0x1
 6473 01e1 40       		.uleb128 0x40
 6474 01e2 06       		.uleb128 0x6
 6475 01e3 9642     		.uleb128 0x2116
 6476 01e5 0C       		.uleb128 0xc
 6477 01e6 01       		.uleb128 0x1
 6478 01e7 13       		.uleb128 0x13
 6479 01e8 00       		.byte	0
 6480 01e9 00       		.byte	0
 6481 01ea 23       		.uleb128 0x23
 6482 01eb 0B       		.uleb128 0xb
 6483 01ec 01       		.byte	0x1
 6484 01ed 11       		.uleb128 0x11
 6485 01ee 01       		.uleb128 0x1
 6486 01ef 12       		.uleb128 0x12
 6487 01f0 01       		.uleb128 0x1
 6488 01f1 01       		.uleb128 0x1
 6489 01f2 13       		.uleb128 0x13
 6490 01f3 00       		.byte	0
 6491 01f4 00       		.byte	0
 6492 01f5 24       		.uleb128 0x24
 6493 01f6 34       		.uleb128 0x34
 6494 01f7 00       		.byte	0
 6495 01f8 03       		.uleb128 0x3
 6496 01f9 08       		.uleb128 0x8
 6497 01fa 3A       		.uleb128 0x3a
 6498 01fb 0B       		.uleb128 0xb
 6499 01fc 3B       		.uleb128 0x3b
 6500 01fd 05       		.uleb128 0x5
 6501 01fe 49       		.uleb128 0x49
 6502 01ff 13       		.uleb128 0x13
 6503 0200 02       		.uleb128 0x2
 6504 0201 0A       		.uleb128 0xa
 6505 0202 00       		.byte	0
 6506 0203 00       		.byte	0
 6507 0204 25       		.uleb128 0x25
 6508 0205 0B       		.uleb128 0xb
 6509 0206 01       		.byte	0x1
 6510 0207 11       		.uleb128 0x11
 6511 0208 01       		.uleb128 0x1
 6512 0209 12       		.uleb128 0x12
 6513 020a 01       		.uleb128 0x1
ARM GAS  G:\Users\Jaxb\AppData\Local\Temp\ccWBP0T4.s 			page 136


 6514 020b 00       		.byte	0
 6515 020c 00       		.byte	0
 6516 020d 26       		.uleb128 0x26
 6517 020e 0B       		.uleb128 0xb
 6518 020f 01       		.byte	0x1
 6519 0210 55       		.uleb128 0x55
 6520 0211 06       		.uleb128 0x6
 6521 0212 01       		.uleb128 0x1
 6522 0213 13       		.uleb128 0x13
 6523 0214 00       		.byte	0
 6524 0215 00       		.byte	0
 6525 0216 27       		.uleb128 0x27
 6526 0217 2E       		.uleb128 0x2e
 6527 0218 01       		.byte	0x1
 6528 0219 03       		.uleb128 0x3
 6529 021a 0E       		.uleb128 0xe
 6530 021b 3A       		.uleb128 0x3a
 6531 021c 0B       		.uleb128 0xb
 6532 021d 3B       		.uleb128 0x3b
 6533 021e 0B       		.uleb128 0xb
 6534 021f 27       		.uleb128 0x27
 6535 0220 0C       		.uleb128 0xc
 6536 0221 49       		.uleb128 0x49
 6537 0222 13       		.uleb128 0x13
 6538 0223 11       		.uleb128 0x11
 6539 0224 01       		.uleb128 0x1
 6540 0225 12       		.uleb128 0x12
 6541 0226 01       		.uleb128 0x1
 6542 0227 40       		.uleb128 0x40
 6543 0228 06       		.uleb128 0x6
 6544 0229 9642     		.uleb128 0x2116
 6545 022b 0C       		.uleb128 0xc
 6546 022c 01       		.uleb128 0x1
 6547 022d 13       		.uleb128 0x13
 6548 022e 00       		.byte	0
 6549 022f 00       		.byte	0
 6550 0230 28       		.uleb128 0x28
 6551 0231 05       		.uleb128 0x5
 6552 0232 00       		.byte	0
 6553 0233 03       		.uleb128 0x3
 6554 0234 0E       		.uleb128 0xe
 6555 0235 3A       		.uleb128 0x3a
 6556 0236 0B       		.uleb128 0xb
 6557 0237 3B       		.uleb128 0x3b
 6558 0238 0B       		.uleb128 0xb
 6559 0239 49       		.uleb128 0x49
 6560 023a 13       		.uleb128 0x13
 6561 023b 02       		.uleb128 0x2
 6562 023c 0A       		.uleb128 0xa
 6563 023d 00       		.byte	0
 6564 023e 00       		.byte	0
 6565 023f 29       		.uleb128 0x29
 6566 0240 05       		.uleb128 0x5
 6567 0241 00       		.byte	0
 6568 0242 03       		.uleb128 0x3
 6569 0243 08       		.uleb128 0x8
 6570 0244 3A       		.uleb128 0x3a
ARM GAS  G:\Users\Jaxb\AppData\Local\Temp\ccWBP0T4.s 			page 137


 6571 0245 0B       		.uleb128 0xb
 6572 0246 3B       		.uleb128 0x3b
 6573 0247 0B       		.uleb128 0xb
 6574 0248 49       		.uleb128 0x49
 6575 0249 13       		.uleb128 0x13
 6576 024a 02       		.uleb128 0x2
 6577 024b 0A       		.uleb128 0xa
 6578 024c 00       		.byte	0
 6579 024d 00       		.byte	0
 6580 024e 2A       		.uleb128 0x2a
 6581 024f 2E       		.uleb128 0x2e
 6582 0250 01       		.byte	0x1
 6583 0251 3F       		.uleb128 0x3f
 6584 0252 0C       		.uleb128 0xc
 6585 0253 03       		.uleb128 0x3
 6586 0254 0E       		.uleb128 0xe
 6587 0255 3A       		.uleb128 0x3a
 6588 0256 0B       		.uleb128 0xb
 6589 0257 3B       		.uleb128 0x3b
 6590 0258 0B       		.uleb128 0xb
 6591 0259 27       		.uleb128 0x27
 6592 025a 0C       		.uleb128 0xc
 6593 025b 49       		.uleb128 0x49
 6594 025c 13       		.uleb128 0x13
 6595 025d 11       		.uleb128 0x11
 6596 025e 01       		.uleb128 0x1
 6597 025f 12       		.uleb128 0x12
 6598 0260 01       		.uleb128 0x1
 6599 0261 40       		.uleb128 0x40
 6600 0262 06       		.uleb128 0x6
 6601 0263 9642     		.uleb128 0x2116
 6602 0265 0C       		.uleb128 0xc
 6603 0266 01       		.uleb128 0x1
 6604 0267 13       		.uleb128 0x13
 6605 0268 00       		.byte	0
 6606 0269 00       		.byte	0
 6607 026a 2B       		.uleb128 0x2b
 6608 026b 2E       		.uleb128 0x2e
 6609 026c 01       		.byte	0x1
 6610 026d 3F       		.uleb128 0x3f
 6611 026e 0C       		.uleb128 0xc
 6612 026f 03       		.uleb128 0x3
 6613 0270 0E       		.uleb128 0xe
 6614 0271 3A       		.uleb128 0x3a
 6615 0272 0B       		.uleb128 0xb
 6616 0273 3B       		.uleb128 0x3b
 6617 0274 0B       		.uleb128 0xb
 6618 0275 27       		.uleb128 0x27
 6619 0276 0C       		.uleb128 0xc
 6620 0277 11       		.uleb128 0x11
 6621 0278 01       		.uleb128 0x1
 6622 0279 12       		.uleb128 0x12
 6623 027a 01       		.uleb128 0x1
 6624 027b 40       		.uleb128 0x40
 6625 027c 06       		.uleb128 0x6
 6626 027d 9642     		.uleb128 0x2116
 6627 027f 0C       		.uleb128 0xc
ARM GAS  G:\Users\Jaxb\AppData\Local\Temp\ccWBP0T4.s 			page 138


 6628 0280 01       		.uleb128 0x1
 6629 0281 13       		.uleb128 0x13
 6630 0282 00       		.byte	0
 6631 0283 00       		.byte	0
 6632 0284 2C       		.uleb128 0x2c
 6633 0285 0A       		.uleb128 0xa
 6634 0286 00       		.byte	0
 6635 0287 03       		.uleb128 0x3
 6636 0288 08       		.uleb128 0x8
 6637 0289 3A       		.uleb128 0x3a
 6638 028a 0B       		.uleb128 0xb
 6639 028b 3B       		.uleb128 0x3b
 6640 028c 0B       		.uleb128 0xb
 6641 028d 11       		.uleb128 0x11
 6642 028e 01       		.uleb128 0x1
 6643 028f 00       		.byte	0
 6644 0290 00       		.byte	0
 6645 0291 2D       		.uleb128 0x2d
 6646 0292 2E       		.uleb128 0x2e
 6647 0293 00       		.byte	0
 6648 0294 3F       		.uleb128 0x3f
 6649 0295 0C       		.uleb128 0xc
 6650 0296 03       		.uleb128 0x3
 6651 0297 0E       		.uleb128 0xe
 6652 0298 3A       		.uleb128 0x3a
 6653 0299 0B       		.uleb128 0xb
 6654 029a 3B       		.uleb128 0x3b
 6655 029b 0B       		.uleb128 0xb
 6656 029c 27       		.uleb128 0x27
 6657 029d 0C       		.uleb128 0xc
 6658 029e 11       		.uleb128 0x11
 6659 029f 01       		.uleb128 0x1
 6660 02a0 12       		.uleb128 0x12
 6661 02a1 01       		.uleb128 0x1
 6662 02a2 40       		.uleb128 0x40
 6663 02a3 06       		.uleb128 0x6
 6664 02a4 9642     		.uleb128 0x2116
 6665 02a6 0C       		.uleb128 0xc
 6666 02a7 00       		.byte	0
 6667 02a8 00       		.byte	0
 6668 02a9 2E       		.uleb128 0x2e
 6669 02aa 2E       		.uleb128 0x2e
 6670 02ab 01       		.byte	0x1
 6671 02ac 03       		.uleb128 0x3
 6672 02ad 0E       		.uleb128 0xe
 6673 02ae 3A       		.uleb128 0x3a
 6674 02af 0B       		.uleb128 0xb
 6675 02b0 3B       		.uleb128 0x3b
 6676 02b1 0B       		.uleb128 0xb
 6677 02b2 27       		.uleb128 0x27
 6678 02b3 0C       		.uleb128 0xc
 6679 02b4 11       		.uleb128 0x11
 6680 02b5 01       		.uleb128 0x1
 6681 02b6 12       		.uleb128 0x12
 6682 02b7 01       		.uleb128 0x1
 6683 02b8 40       		.uleb128 0x40
 6684 02b9 06       		.uleb128 0x6
ARM GAS  G:\Users\Jaxb\AppData\Local\Temp\ccWBP0T4.s 			page 139


 6685 02ba 9742     		.uleb128 0x2117
 6686 02bc 0C       		.uleb128 0xc
 6687 02bd 01       		.uleb128 0x1
 6688 02be 13       		.uleb128 0x13
 6689 02bf 00       		.byte	0
 6690 02c0 00       		.byte	0
 6691 02c1 2F       		.uleb128 0x2f
 6692 02c2 2E       		.uleb128 0x2e
 6693 02c3 01       		.byte	0x1
 6694 02c4 03       		.uleb128 0x3
 6695 02c5 0E       		.uleb128 0xe
 6696 02c6 3A       		.uleb128 0x3a
 6697 02c7 0B       		.uleb128 0xb
 6698 02c8 3B       		.uleb128 0x3b
 6699 02c9 0B       		.uleb128 0xb
 6700 02ca 27       		.uleb128 0x27
 6701 02cb 0C       		.uleb128 0xc
 6702 02cc 49       		.uleb128 0x49
 6703 02cd 13       		.uleb128 0x13
 6704 02ce 11       		.uleb128 0x11
 6705 02cf 01       		.uleb128 0x1
 6706 02d0 12       		.uleb128 0x12
 6707 02d1 01       		.uleb128 0x1
 6708 02d2 40       		.uleb128 0x40
 6709 02d3 06       		.uleb128 0x6
 6710 02d4 9742     		.uleb128 0x2117
 6711 02d6 0C       		.uleb128 0xc
 6712 02d7 01       		.uleb128 0x1
 6713 02d8 13       		.uleb128 0x13
 6714 02d9 00       		.byte	0
 6715 02da 00       		.byte	0
 6716 02db 30       		.uleb128 0x30
 6717 02dc 2E       		.uleb128 0x2e
 6718 02dd 01       		.byte	0x1
 6719 02de 03       		.uleb128 0x3
 6720 02df 0E       		.uleb128 0xe
 6721 02e0 3A       		.uleb128 0x3a
 6722 02e1 0B       		.uleb128 0xb
 6723 02e2 3B       		.uleb128 0x3b
 6724 02e3 0B       		.uleb128 0xb
 6725 02e4 27       		.uleb128 0x27
 6726 02e5 0C       		.uleb128 0xc
 6727 02e6 11       		.uleb128 0x11
 6728 02e7 01       		.uleb128 0x1
 6729 02e8 12       		.uleb128 0x12
 6730 02e9 01       		.uleb128 0x1
 6731 02ea 40       		.uleb128 0x40
 6732 02eb 06       		.uleb128 0x6
 6733 02ec 9642     		.uleb128 0x2116
 6734 02ee 0C       		.uleb128 0xc
 6735 02ef 01       		.uleb128 0x1
 6736 02f0 13       		.uleb128 0x13
 6737 02f1 00       		.byte	0
 6738 02f2 00       		.byte	0
 6739 02f3 31       		.uleb128 0x31
 6740 02f4 2E       		.uleb128 0x2e
 6741 02f5 01       		.byte	0x1
ARM GAS  G:\Users\Jaxb\AppData\Local\Temp\ccWBP0T4.s 			page 140


 6742 02f6 03       		.uleb128 0x3
 6743 02f7 0E       		.uleb128 0xe
 6744 02f8 3A       		.uleb128 0x3a
 6745 02f9 0B       		.uleb128 0xb
 6746 02fa 3B       		.uleb128 0x3b
 6747 02fb 0B       		.uleb128 0xb
 6748 02fc 27       		.uleb128 0x27
 6749 02fd 0C       		.uleb128 0xc
 6750 02fe 11       		.uleb128 0x11
 6751 02ff 01       		.uleb128 0x1
 6752 0300 12       		.uleb128 0x12
 6753 0301 01       		.uleb128 0x1
 6754 0302 40       		.uleb128 0x40
 6755 0303 06       		.uleb128 0x6
 6756 0304 9742     		.uleb128 0x2117
 6757 0306 0C       		.uleb128 0xc
 6758 0307 00       		.byte	0
 6759 0308 00       		.byte	0
 6760 0309 00       		.byte	0
 6761              		.section	.debug_loc,"",%progbits
 6762              	.Ldebug_loc0:
 6763              	.LLST25:
 6764 0000 30130000 		.4byte	.LFB29-.Ltext0
 6765 0004 32130000 		.4byte	.LCFI124-.Ltext0
 6766 0008 0200     		.2byte	0x2
 6767 000a 7D       		.byte	0x7d
 6768 000b 00       		.sleb128 0
 6769 000c 32130000 		.4byte	.LCFI124-.Ltext0
 6770 0010 34130000 		.4byte	.LCFI125-.Ltext0
 6771 0014 0200     		.2byte	0x2
 6772 0016 7D       		.byte	0x7d
 6773 0017 04       		.sleb128 4
 6774 0018 34130000 		.4byte	.LCFI125-.Ltext0
 6775 001c 36130000 		.4byte	.LCFI126-.Ltext0
 6776 0020 0200     		.2byte	0x2
 6777 0022 7D       		.byte	0x7d
 6778 0023 10       		.sleb128 16
 6779 0024 36130000 		.4byte	.LCFI126-.Ltext0
 6780 0028 42130000 		.4byte	.LCFI127-.Ltext0
 6781 002c 0200     		.2byte	0x2
 6782 002e 77       		.byte	0x77
 6783 002f 10       		.sleb128 16
 6784 0030 42130000 		.4byte	.LCFI127-.Ltext0
 6785 0034 44130000 		.4byte	.LCFI128-.Ltext0
 6786 0038 0200     		.2byte	0x2
 6787 003a 77       		.byte	0x77
 6788 003b 04       		.sleb128 4
 6789 003c 44130000 		.4byte	.LCFI128-.Ltext0
 6790 0040 46130000 		.4byte	.LCFI129-.Ltext0
 6791 0044 0200     		.2byte	0x2
 6792 0046 7D       		.byte	0x7d
 6793 0047 04       		.sleb128 4
 6794 0048 46130000 		.4byte	.LCFI129-.Ltext0
 6795 004c 4C130000 		.4byte	.LFE29-.Ltext0
 6796 0050 0200     		.2byte	0x2
 6797 0052 7D       		.byte	0x7d
 6798 0053 00       		.sleb128 0
ARM GAS  G:\Users\Jaxb\AppData\Local\Temp\ccWBP0T4.s 			page 141


 6799 0054 00000000 		.4byte	0
 6800 0058 00000000 		.4byte	0
 6801              	.LLST24:
 6802 005c 10130000 		.4byte	.LFB28-.Ltext0
 6803 0060 12130000 		.4byte	.LCFI120-.Ltext0
 6804 0064 0200     		.2byte	0x2
 6805 0066 7D       		.byte	0x7d
 6806 0067 00       		.sleb128 0
 6807 0068 12130000 		.4byte	.LCFI120-.Ltext0
 6808 006c 14130000 		.4byte	.LCFI121-.Ltext0
 6809 0070 0200     		.2byte	0x2
 6810 0072 7D       		.byte	0x7d
 6811 0073 04       		.sleb128 4
 6812 0074 14130000 		.4byte	.LCFI121-.Ltext0
 6813 0078 24130000 		.4byte	.LCFI122-.Ltext0
 6814 007c 0200     		.2byte	0x2
 6815 007e 77       		.byte	0x77
 6816 007f 04       		.sleb128 4
 6817 0080 24130000 		.4byte	.LCFI122-.Ltext0
 6818 0084 26130000 		.4byte	.LCFI123-.Ltext0
 6819 0088 0200     		.2byte	0x2
 6820 008a 7D       		.byte	0x7d
 6821 008b 04       		.sleb128 4
 6822 008c 26130000 		.4byte	.LCFI123-.Ltext0
 6823 0090 30130000 		.4byte	.LFE28-.Ltext0
 6824 0094 0200     		.2byte	0x2
 6825 0096 7D       		.byte	0x7d
 6826 0097 00       		.sleb128 0
 6827 0098 00000000 		.4byte	0
 6828 009c 00000000 		.4byte	0
 6829              	.LLST23:
 6830 00a0 F4120000 		.4byte	.LFB27-.Ltext0
 6831 00a4 F6120000 		.4byte	.LCFI118-.Ltext0
 6832 00a8 0200     		.2byte	0x2
 6833 00aa 7D       		.byte	0x7d
 6834 00ab 00       		.sleb128 0
 6835 00ac F6120000 		.4byte	.LCFI118-.Ltext0
 6836 00b0 F8120000 		.4byte	.LCFI119-.Ltext0
 6837 00b4 0200     		.2byte	0x2
 6838 00b6 7D       		.byte	0x7d
 6839 00b7 08       		.sleb128 8
 6840 00b8 F8120000 		.4byte	.LCFI119-.Ltext0
 6841 00bc 10130000 		.4byte	.LFE27-.Ltext0
 6842 00c0 0200     		.2byte	0x2
 6843 00c2 77       		.byte	0x77
 6844 00c3 08       		.sleb128 8
 6845 00c4 00000000 		.4byte	0
 6846 00c8 00000000 		.4byte	0
 6847              	.LLST22:
 6848 00cc B0120000 		.4byte	.LFB26-.Ltext0
 6849 00d0 B2120000 		.4byte	.LCFI113-.Ltext0
 6850 00d4 0200     		.2byte	0x2
 6851 00d6 7D       		.byte	0x7d
 6852 00d7 00       		.sleb128 0
 6853 00d8 B2120000 		.4byte	.LCFI113-.Ltext0
 6854 00dc B4120000 		.4byte	.LCFI114-.Ltext0
 6855 00e0 0200     		.2byte	0x2
ARM GAS  G:\Users\Jaxb\AppData\Local\Temp\ccWBP0T4.s 			page 142


 6856 00e2 7D       		.byte	0x7d
 6857 00e3 08       		.sleb128 8
 6858 00e4 B4120000 		.4byte	.LCFI114-.Ltext0
 6859 00e8 B6120000 		.4byte	.LCFI115-.Ltext0
 6860 00ec 0200     		.2byte	0x2
 6861 00ee 7D       		.byte	0x7d
 6862 00ef 10       		.sleb128 16
 6863 00f0 B6120000 		.4byte	.LCFI115-.Ltext0
 6864 00f4 E2120000 		.4byte	.LCFI116-.Ltext0
 6865 00f8 0200     		.2byte	0x2
 6866 00fa 77       		.byte	0x77
 6867 00fb 10       		.sleb128 16
 6868 00fc E2120000 		.4byte	.LCFI116-.Ltext0
 6869 0100 E4120000 		.4byte	.LCFI117-.Ltext0
 6870 0104 0200     		.2byte	0x2
 6871 0106 77       		.byte	0x77
 6872 0107 08       		.sleb128 8
 6873 0108 E4120000 		.4byte	.LCFI117-.Ltext0
 6874 010c F4120000 		.4byte	.LFE26-.Ltext0
 6875 0110 0200     		.2byte	0x2
 6876 0112 7D       		.byte	0x7d
 6877 0113 08       		.sleb128 8
 6878 0114 00000000 		.4byte	0
 6879 0118 00000000 		.4byte	0
 6880              	.LLST21:
 6881 011c B8110000 		.4byte	.LFB25-.Ltext0
 6882 0120 BA110000 		.4byte	.LCFI108-.Ltext0
 6883 0124 0200     		.2byte	0x2
 6884 0126 7D       		.byte	0x7d
 6885 0127 00       		.sleb128 0
 6886 0128 BA110000 		.4byte	.LCFI108-.Ltext0
 6887 012c BC110000 		.4byte	.LCFI109-.Ltext0
 6888 0130 0200     		.2byte	0x2
 6889 0132 7D       		.byte	0x7d
 6890 0133 08       		.sleb128 8
 6891 0134 BC110000 		.4byte	.LCFI109-.Ltext0
 6892 0138 BE110000 		.4byte	.LCFI110-.Ltext0
 6893 013c 0200     		.2byte	0x2
 6894 013e 7D       		.byte	0x7d
 6895 013f 38       		.sleb128 56
 6896 0140 BE110000 		.4byte	.LCFI110-.Ltext0
 6897 0144 A0120000 		.4byte	.LCFI111-.Ltext0
 6898 0148 0200     		.2byte	0x2
 6899 014a 77       		.byte	0x77
 6900 014b 28       		.sleb128 40
 6901 014c A0120000 		.4byte	.LCFI111-.Ltext0
 6902 0150 A2120000 		.4byte	.LCFI112-.Ltext0
 6903 0154 0200     		.2byte	0x2
 6904 0156 77       		.byte	0x77
 6905 0157 08       		.sleb128 8
 6906 0158 A2120000 		.4byte	.LCFI112-.Ltext0
 6907 015c B0120000 		.4byte	.LFE25-.Ltext0
 6908 0160 0200     		.2byte	0x2
 6909 0162 7D       		.byte	0x7d
 6910 0163 08       		.sleb128 8
 6911 0164 00000000 		.4byte	0
 6912 0168 00000000 		.4byte	0
ARM GAS  G:\Users\Jaxb\AppData\Local\Temp\ccWBP0T4.s 			page 143


 6913              	.LLST20:
 6914 016c 9C100000 		.4byte	.LFB24-.Ltext0
 6915 0170 9E100000 		.4byte	.LCFI103-.Ltext0
 6916 0174 0200     		.2byte	0x2
 6917 0176 7D       		.byte	0x7d
 6918 0177 00       		.sleb128 0
 6919 0178 9E100000 		.4byte	.LCFI103-.Ltext0
 6920 017c A0100000 		.4byte	.LCFI104-.Ltext0
 6921 0180 0200     		.2byte	0x2
 6922 0182 7D       		.byte	0x7d
 6923 0183 08       		.sleb128 8
 6924 0184 A0100000 		.4byte	.LCFI104-.Ltext0
 6925 0188 A2100000 		.4byte	.LCFI105-.Ltext0
 6926 018c 0200     		.2byte	0x2
 6927 018e 7D       		.byte	0x7d
 6928 018f 18       		.sleb128 24
 6929 0190 A2100000 		.4byte	.LCFI105-.Ltext0
 6930 0194 92110000 		.4byte	.LCFI106-.Ltext0
 6931 0198 0200     		.2byte	0x2
 6932 019a 77       		.byte	0x77
 6933 019b 18       		.sleb128 24
 6934 019c 92110000 		.4byte	.LCFI106-.Ltext0
 6935 01a0 94110000 		.4byte	.LCFI107-.Ltext0
 6936 01a4 0200     		.2byte	0x2
 6937 01a6 77       		.byte	0x77
 6938 01a7 08       		.sleb128 8
 6939 01a8 94110000 		.4byte	.LCFI107-.Ltext0
 6940 01ac B8110000 		.4byte	.LFE24-.Ltext0
 6941 01b0 0200     		.2byte	0x2
 6942 01b2 7D       		.byte	0x7d
 6943 01b3 08       		.sleb128 8
 6944 01b4 00000000 		.4byte	0
 6945 01b8 00000000 		.4byte	0
 6946              	.LLST19:
 6947 01bc 2C100000 		.4byte	.LFB23-.Ltext0
 6948 01c0 2E100000 		.4byte	.LCFI98-.Ltext0
 6949 01c4 0200     		.2byte	0x2
 6950 01c6 7D       		.byte	0x7d
 6951 01c7 00       		.sleb128 0
 6952 01c8 2E100000 		.4byte	.LCFI98-.Ltext0
 6953 01cc 30100000 		.4byte	.LCFI99-.Ltext0
 6954 01d0 0200     		.2byte	0x2
 6955 01d2 7D       		.byte	0x7d
 6956 01d3 08       		.sleb128 8
 6957 01d4 30100000 		.4byte	.LCFI99-.Ltext0
 6958 01d8 32100000 		.4byte	.LCFI100-.Ltext0
 6959 01dc 0200     		.2byte	0x2
 6960 01de 7D       		.byte	0x7d
 6961 01df 10       		.sleb128 16
 6962 01e0 32100000 		.4byte	.LCFI100-.Ltext0
 6963 01e4 94100000 		.4byte	.LCFI101-.Ltext0
 6964 01e8 0200     		.2byte	0x2
 6965 01ea 77       		.byte	0x77
 6966 01eb 10       		.sleb128 16
 6967 01ec 94100000 		.4byte	.LCFI101-.Ltext0
 6968 01f0 96100000 		.4byte	.LCFI102-.Ltext0
 6969 01f4 0200     		.2byte	0x2
ARM GAS  G:\Users\Jaxb\AppData\Local\Temp\ccWBP0T4.s 			page 144


 6970 01f6 77       		.byte	0x77
 6971 01f7 08       		.sleb128 8
 6972 01f8 96100000 		.4byte	.LCFI102-.Ltext0
 6973 01fc 9C100000 		.4byte	.LFE23-.Ltext0
 6974 0200 0200     		.2byte	0x2
 6975 0202 7D       		.byte	0x7d
 6976 0203 08       		.sleb128 8
 6977 0204 00000000 		.4byte	0
 6978 0208 00000000 		.4byte	0
 6979              	.LLST18:
 6980 020c 94080000 		.4byte	.LFB22-.Ltext0
 6981 0210 96080000 		.4byte	.LCFI93-.Ltext0
 6982 0214 0200     		.2byte	0x2
 6983 0216 7D       		.byte	0x7d
 6984 0217 00       		.sleb128 0
 6985 0218 96080000 		.4byte	.LCFI93-.Ltext0
 6986 021c 98080000 		.4byte	.LCFI94-.Ltext0
 6987 0220 0200     		.2byte	0x2
 6988 0222 7D       		.byte	0x7d
 6989 0223 0C       		.sleb128 12
 6990 0224 98080000 		.4byte	.LCFI94-.Ltext0
 6991 0228 9A080000 		.4byte	.LCFI95-.Ltext0
 6992 022c 0300     		.2byte	0x3
 6993 022e 7D       		.byte	0x7d
 6994 022f E800     		.sleb128 104
 6995 0231 9A080000 		.4byte	.LCFI95-.Ltext0
 6996 0235 1E100000 		.4byte	.LCFI96-.Ltext0
 6997 0239 0300     		.2byte	0x3
 6998 023b 77       		.byte	0x77
 6999 023c E800     		.sleb128 104
 7000 023e 1E100000 		.4byte	.LCFI96-.Ltext0
 7001 0242 20100000 		.4byte	.LCFI97-.Ltext0
 7002 0246 0200     		.2byte	0x2
 7003 0248 77       		.byte	0x77
 7004 0249 0C       		.sleb128 12
 7005 024a 20100000 		.4byte	.LCFI97-.Ltext0
 7006 024e 2C100000 		.4byte	.LFE22-.Ltext0
 7007 0252 0200     		.2byte	0x2
 7008 0254 7D       		.byte	0x7d
 7009 0255 0C       		.sleb128 12
 7010 0256 00000000 		.4byte	0
 7011 025a 00000000 		.4byte	0
 7012              	.LLST17:
 7013 025e 98050000 		.4byte	.LFB21-.Ltext0
 7014 0262 9A050000 		.4byte	.LCFI88-.Ltext0
 7015 0266 0200     		.2byte	0x2
 7016 0268 7D       		.byte	0x7d
 7017 0269 00       		.sleb128 0
 7018 026a 9A050000 		.4byte	.LCFI88-.Ltext0
 7019 026e 9C050000 		.4byte	.LCFI89-.Ltext0
 7020 0272 0200     		.2byte	0x2
 7021 0274 7D       		.byte	0x7d
 7022 0275 08       		.sleb128 8
 7023 0276 9C050000 		.4byte	.LCFI89-.Ltext0
 7024 027a 9E050000 		.4byte	.LCFI90-.Ltext0
 7025 027e 0300     		.2byte	0x3
 7026 0280 7D       		.byte	0x7d
ARM GAS  G:\Users\Jaxb\AppData\Local\Temp\ccWBP0T4.s 			page 145


 7027 0281 C000     		.sleb128 64
 7028 0283 9E050000 		.4byte	.LCFI90-.Ltext0
 7029 0287 84080000 		.4byte	.LCFI91-.Ltext0
 7030 028b 0300     		.2byte	0x3
 7031 028d 77       		.byte	0x77
 7032 028e C000     		.sleb128 64
 7033 0290 84080000 		.4byte	.LCFI91-.Ltext0
 7034 0294 86080000 		.4byte	.LCFI92-.Ltext0
 7035 0298 0200     		.2byte	0x2
 7036 029a 77       		.byte	0x77
 7037 029b 08       		.sleb128 8
 7038 029c 86080000 		.4byte	.LCFI92-.Ltext0
 7039 02a0 94080000 		.4byte	.LFE21-.Ltext0
 7040 02a4 0200     		.2byte	0x2
 7041 02a6 7D       		.byte	0x7d
 7042 02a7 08       		.sleb128 8
 7043 02a8 00000000 		.4byte	0
 7044 02ac 00000000 		.4byte	0
 7045              	.LLST16:
 7046 02b0 68050000 		.4byte	.LFB20-.Ltext0
 7047 02b4 6A050000 		.4byte	.LCFI83-.Ltext0
 7048 02b8 0200     		.2byte	0x2
 7049 02ba 7D       		.byte	0x7d
 7050 02bb 00       		.sleb128 0
 7051 02bc 6A050000 		.4byte	.LCFI83-.Ltext0
 7052 02c0 6C050000 		.4byte	.LCFI84-.Ltext0
 7053 02c4 0200     		.2byte	0x2
 7054 02c6 7D       		.byte	0x7d
 7055 02c7 08       		.sleb128 8
 7056 02c8 6C050000 		.4byte	.LCFI84-.Ltext0
 7057 02cc 6E050000 		.4byte	.LCFI85-.Ltext0
 7058 02d0 0200     		.2byte	0x2
 7059 02d2 7D       		.byte	0x7d
 7060 02d3 10       		.sleb128 16
 7061 02d4 6E050000 		.4byte	.LCFI85-.Ltext0
 7062 02d8 8E050000 		.4byte	.LCFI86-.Ltext0
 7063 02dc 0200     		.2byte	0x2
 7064 02de 77       		.byte	0x77
 7065 02df 10       		.sleb128 16
 7066 02e0 8E050000 		.4byte	.LCFI86-.Ltext0
 7067 02e4 90050000 		.4byte	.LCFI87-.Ltext0
 7068 02e8 0200     		.2byte	0x2
 7069 02ea 77       		.byte	0x77
 7070 02eb 08       		.sleb128 8
 7071 02ec 90050000 		.4byte	.LCFI87-.Ltext0
 7072 02f0 98050000 		.4byte	.LFE20-.Ltext0
 7073 02f4 0200     		.2byte	0x2
 7074 02f6 7D       		.byte	0x7d
 7075 02f7 08       		.sleb128 8
 7076 02f8 00000000 		.4byte	0
 7077 02fc 00000000 		.4byte	0
 7078              	.LLST15:
 7079 0300 B4040000 		.4byte	.LFB19-.Ltext0
 7080 0304 B6040000 		.4byte	.LCFI78-.Ltext0
 7081 0308 0200     		.2byte	0x2
 7082 030a 7D       		.byte	0x7d
 7083 030b 00       		.sleb128 0
ARM GAS  G:\Users\Jaxb\AppData\Local\Temp\ccWBP0T4.s 			page 146


 7084 030c B6040000 		.4byte	.LCFI78-.Ltext0
 7085 0310 B8040000 		.4byte	.LCFI79-.Ltext0
 7086 0314 0200     		.2byte	0x2
 7087 0316 7D       		.byte	0x7d
 7088 0317 08       		.sleb128 8
 7089 0318 B8040000 		.4byte	.LCFI79-.Ltext0
 7090 031c BA040000 		.4byte	.LCFI80-.Ltext0
 7091 0320 0200     		.2byte	0x2
 7092 0322 7D       		.byte	0x7d
 7093 0323 18       		.sleb128 24
 7094 0324 BA040000 		.4byte	.LCFI80-.Ltext0
 7095 0328 5C050000 		.4byte	.LCFI81-.Ltext0
 7096 032c 0200     		.2byte	0x2
 7097 032e 77       		.byte	0x77
 7098 032f 18       		.sleb128 24
 7099 0330 5C050000 		.4byte	.LCFI81-.Ltext0
 7100 0334 5E050000 		.4byte	.LCFI82-.Ltext0
 7101 0338 0200     		.2byte	0x2
 7102 033a 77       		.byte	0x77
 7103 033b 08       		.sleb128 8
 7104 033c 5E050000 		.4byte	.LCFI82-.Ltext0
 7105 0340 68050000 		.4byte	.LFE19-.Ltext0
 7106 0344 0200     		.2byte	0x2
 7107 0346 7D       		.byte	0x7d
 7108 0347 08       		.sleb128 8
 7109 0348 00000000 		.4byte	0
 7110 034c 00000000 		.4byte	0
 7111              	.LLST14:
 7112 0350 28040000 		.4byte	.LFB18-.Ltext0
 7113 0354 2A040000 		.4byte	.LCFI73-.Ltext0
 7114 0358 0200     		.2byte	0x2
 7115 035a 7D       		.byte	0x7d
 7116 035b 00       		.sleb128 0
 7117 035c 2A040000 		.4byte	.LCFI73-.Ltext0
 7118 0360 2C040000 		.4byte	.LCFI74-.Ltext0
 7119 0364 0200     		.2byte	0x2
 7120 0366 7D       		.byte	0x7d
 7121 0367 08       		.sleb128 8
 7122 0368 2C040000 		.4byte	.LCFI74-.Ltext0
 7123 036c 2E040000 		.4byte	.LCFI75-.Ltext0
 7124 0370 0200     		.2byte	0x2
 7125 0372 7D       		.byte	0x7d
 7126 0373 20       		.sleb128 32
 7127 0374 2E040000 		.4byte	.LCFI75-.Ltext0
 7128 0378 9E040000 		.4byte	.LCFI76-.Ltext0
 7129 037c 0200     		.2byte	0x2
 7130 037e 77       		.byte	0x77
 7131 037f 20       		.sleb128 32
 7132 0380 9E040000 		.4byte	.LCFI76-.Ltext0
 7133 0384 A0040000 		.4byte	.LCFI77-.Ltext0
 7134 0388 0200     		.2byte	0x2
 7135 038a 77       		.byte	0x77
 7136 038b 08       		.sleb128 8
 7137 038c A0040000 		.4byte	.LCFI77-.Ltext0
 7138 0390 B4040000 		.4byte	.LFE18-.Ltext0
 7139 0394 0200     		.2byte	0x2
 7140 0396 7D       		.byte	0x7d
ARM GAS  G:\Users\Jaxb\AppData\Local\Temp\ccWBP0T4.s 			page 147


 7141 0397 08       		.sleb128 8
 7142 0398 00000000 		.4byte	0
 7143 039c 00000000 		.4byte	0
 7144              	.LLST13:
 7145 03a0 58030000 		.4byte	.LFB17-.Ltext0
 7146 03a4 5A030000 		.4byte	.LCFI68-.Ltext0
 7147 03a8 0200     		.2byte	0x2
 7148 03aa 7D       		.byte	0x7d
 7149 03ab 00       		.sleb128 0
 7150 03ac 5A030000 		.4byte	.LCFI68-.Ltext0
 7151 03b0 5C030000 		.4byte	.LCFI69-.Ltext0
 7152 03b4 0200     		.2byte	0x2
 7153 03b6 7D       		.byte	0x7d
 7154 03b7 08       		.sleb128 8
 7155 03b8 5C030000 		.4byte	.LCFI69-.Ltext0
 7156 03bc 5E030000 		.4byte	.LCFI70-.Ltext0
 7157 03c0 0300     		.2byte	0x3
 7158 03c2 7D       		.byte	0x7d
 7159 03c3 C000     		.sleb128 64
 7160 03c5 5E030000 		.4byte	.LCFI70-.Ltext0
 7161 03c9 12040000 		.4byte	.LCFI71-.Ltext0
 7162 03cd 0200     		.2byte	0x2
 7163 03cf 77       		.byte	0x77
 7164 03d0 30       		.sleb128 48
 7165 03d1 12040000 		.4byte	.LCFI71-.Ltext0
 7166 03d5 14040000 		.4byte	.LCFI72-.Ltext0
 7167 03d9 0200     		.2byte	0x2
 7168 03db 77       		.byte	0x77
 7169 03dc 08       		.sleb128 8
 7170 03dd 14040000 		.4byte	.LCFI72-.Ltext0
 7171 03e1 28040000 		.4byte	.LFE17-.Ltext0
 7172 03e5 0200     		.2byte	0x2
 7173 03e7 7D       		.byte	0x7d
 7174 03e8 08       		.sleb128 8
 7175 03e9 00000000 		.4byte	0
 7176 03ed 00000000 		.4byte	0
 7177              	.LLST12:
 7178 03f1 08030000 		.4byte	.LFB16-.Ltext0
 7179 03f5 0A030000 		.4byte	.LCFI63-.Ltext0
 7180 03f9 0200     		.2byte	0x2
 7181 03fb 7D       		.byte	0x7d
 7182 03fc 00       		.sleb128 0
 7183 03fd 0A030000 		.4byte	.LCFI63-.Ltext0
 7184 0401 0C030000 		.4byte	.LCFI64-.Ltext0
 7185 0405 0200     		.2byte	0x2
 7186 0407 7D       		.byte	0x7d
 7187 0408 08       		.sleb128 8
 7188 0409 0C030000 		.4byte	.LCFI64-.Ltext0
 7189 040d 0E030000 		.4byte	.LCFI65-.Ltext0
 7190 0411 0200     		.2byte	0x2
 7191 0413 7D       		.byte	0x7d
 7192 0414 20       		.sleb128 32
 7193 0415 0E030000 		.4byte	.LCFI65-.Ltext0
 7194 0419 4E030000 		.4byte	.LCFI66-.Ltext0
 7195 041d 0200     		.2byte	0x2
 7196 041f 77       		.byte	0x77
 7197 0420 20       		.sleb128 32
ARM GAS  G:\Users\Jaxb\AppData\Local\Temp\ccWBP0T4.s 			page 148


 7198 0421 4E030000 		.4byte	.LCFI66-.Ltext0
 7199 0425 50030000 		.4byte	.LCFI67-.Ltext0
 7200 0429 0200     		.2byte	0x2
 7201 042b 77       		.byte	0x77
 7202 042c 08       		.sleb128 8
 7203 042d 50030000 		.4byte	.LCFI67-.Ltext0
 7204 0431 58030000 		.4byte	.LFE16-.Ltext0
 7205 0435 0200     		.2byte	0x2
 7206 0437 7D       		.byte	0x7d
 7207 0438 08       		.sleb128 8
 7208 0439 00000000 		.4byte	0
 7209 043d 00000000 		.4byte	0
 7210              	.LLST11:
 7211 0441 90020000 		.4byte	.LFB15-.Ltext0
 7212 0445 92020000 		.4byte	.LCFI58-.Ltext0
 7213 0449 0200     		.2byte	0x2
 7214 044b 7D       		.byte	0x7d
 7215 044c 00       		.sleb128 0
 7216 044d 92020000 		.4byte	.LCFI58-.Ltext0
 7217 0451 94020000 		.4byte	.LCFI59-.Ltext0
 7218 0455 0200     		.2byte	0x2
 7219 0457 7D       		.byte	0x7d
 7220 0458 08       		.sleb128 8
 7221 0459 94020000 		.4byte	.LCFI59-.Ltext0
 7222 045d 96020000 		.4byte	.LCFI60-.Ltext0
 7223 0461 0200     		.2byte	0x2
 7224 0463 7D       		.byte	0x7d
 7225 0464 20       		.sleb128 32
 7226 0465 96020000 		.4byte	.LCFI60-.Ltext0
 7227 0469 00030000 		.4byte	.LCFI61-.Ltext0
 7228 046d 0200     		.2byte	0x2
 7229 046f 77       		.byte	0x77
 7230 0470 20       		.sleb128 32
 7231 0471 00030000 		.4byte	.LCFI61-.Ltext0
 7232 0475 02030000 		.4byte	.LCFI62-.Ltext0
 7233 0479 0200     		.2byte	0x2
 7234 047b 77       		.byte	0x77
 7235 047c 08       		.sleb128 8
 7236 047d 02030000 		.4byte	.LCFI62-.Ltext0
 7237 0481 08030000 		.4byte	.LFE15-.Ltext0
 7238 0485 0200     		.2byte	0x2
 7239 0487 7D       		.byte	0x7d
 7240 0488 08       		.sleb128 8
 7241 0489 00000000 		.4byte	0
 7242 048d 00000000 		.4byte	0
 7243              	.LLST10:
 7244 0491 30020000 		.4byte	.LFB14-.Ltext0
 7245 0495 32020000 		.4byte	.LCFI53-.Ltext0
 7246 0499 0200     		.2byte	0x2
 7247 049b 7D       		.byte	0x7d
 7248 049c 00       		.sleb128 0
 7249 049d 32020000 		.4byte	.LCFI53-.Ltext0
 7250 04a1 34020000 		.4byte	.LCFI54-.Ltext0
 7251 04a5 0200     		.2byte	0x2
 7252 04a7 7D       		.byte	0x7d
 7253 04a8 08       		.sleb128 8
 7254 04a9 34020000 		.4byte	.LCFI54-.Ltext0
ARM GAS  G:\Users\Jaxb\AppData\Local\Temp\ccWBP0T4.s 			page 149


 7255 04ad 36020000 		.4byte	.LCFI55-.Ltext0
 7256 04b1 0200     		.2byte	0x2
 7257 04b3 7D       		.byte	0x7d
 7258 04b4 20       		.sleb128 32
 7259 04b5 36020000 		.4byte	.LCFI55-.Ltext0
 7260 04b9 7E020000 		.4byte	.LCFI56-.Ltext0
 7261 04bd 0200     		.2byte	0x2
 7262 04bf 77       		.byte	0x77
 7263 04c0 20       		.sleb128 32
 7264 04c1 7E020000 		.4byte	.LCFI56-.Ltext0
 7265 04c5 80020000 		.4byte	.LCFI57-.Ltext0
 7266 04c9 0200     		.2byte	0x2
 7267 04cb 77       		.byte	0x77
 7268 04cc 08       		.sleb128 8
 7269 04cd 80020000 		.4byte	.LCFI57-.Ltext0
 7270 04d1 90020000 		.4byte	.LFE14-.Ltext0
 7271 04d5 0200     		.2byte	0x2
 7272 04d7 7D       		.byte	0x7d
 7273 04d8 08       		.sleb128 8
 7274 04d9 00000000 		.4byte	0
 7275 04dd 00000000 		.4byte	0
 7276              	.LLST9:
 7277 04e1 14010000 		.4byte	.LFB13-.Ltext0
 7278 04e5 16010000 		.4byte	.LCFI48-.Ltext0
 7279 04e9 0200     		.2byte	0x2
 7280 04eb 7D       		.byte	0x7d
 7281 04ec 00       		.sleb128 0
 7282 04ed 16010000 		.4byte	.LCFI48-.Ltext0
 7283 04f1 18010000 		.4byte	.LCFI49-.Ltext0
 7284 04f5 0200     		.2byte	0x2
 7285 04f7 7D       		.byte	0x7d
 7286 04f8 08       		.sleb128 8
 7287 04f9 18010000 		.4byte	.LCFI49-.Ltext0
 7288 04fd 1A010000 		.4byte	.LCFI50-.Ltext0
 7289 0501 0200     		.2byte	0x2
 7290 0503 7D       		.byte	0x7d
 7291 0504 20       		.sleb128 32
 7292 0505 1A010000 		.4byte	.LCFI50-.Ltext0
 7293 0509 F2010000 		.4byte	.LCFI51-.Ltext0
 7294 050d 0200     		.2byte	0x2
 7295 050f 77       		.byte	0x77
 7296 0510 20       		.sleb128 32
 7297 0511 F2010000 		.4byte	.LCFI51-.Ltext0
 7298 0515 F4010000 		.4byte	.LCFI52-.Ltext0
 7299 0519 0200     		.2byte	0x2
 7300 051b 77       		.byte	0x77
 7301 051c 08       		.sleb128 8
 7302 051d F4010000 		.4byte	.LCFI52-.Ltext0
 7303 0521 30020000 		.4byte	.LFE13-.Ltext0
 7304 0525 0200     		.2byte	0x2
 7305 0527 7D       		.byte	0x7d
 7306 0528 08       		.sleb128 8
 7307 0529 00000000 		.4byte	0
 7308 052d 00000000 		.4byte	0
 7309              	.LLST8:
 7310 0531 02010000 		.4byte	.LFB12-.Ltext0
 7311 0535 04010000 		.4byte	.LCFI46-.Ltext0
ARM GAS  G:\Users\Jaxb\AppData\Local\Temp\ccWBP0T4.s 			page 150


 7312 0539 0200     		.2byte	0x2
 7313 053b 7D       		.byte	0x7d
 7314 053c 00       		.sleb128 0
 7315 053d 04010000 		.4byte	.LCFI46-.Ltext0
 7316 0541 06010000 		.4byte	.LCFI47-.Ltext0
 7317 0545 0200     		.2byte	0x2
 7318 0547 7D       		.byte	0x7d
 7319 0548 08       		.sleb128 8
 7320 0549 06010000 		.4byte	.LCFI47-.Ltext0
 7321 054d 14010000 		.4byte	.LFE12-.Ltext0
 7322 0551 0200     		.2byte	0x2
 7323 0553 77       		.byte	0x77
 7324 0554 08       		.sleb128 8
 7325 0555 00000000 		.4byte	0
 7326 0559 00000000 		.4byte	0
 7327              	.LLST7:
 7328 055d E8000000 		.4byte	.LFB11-.Ltext0
 7329 0561 EA000000 		.4byte	.LCFI40-.Ltext0
 7330 0565 0200     		.2byte	0x2
 7331 0567 7D       		.byte	0x7d
 7332 0568 00       		.sleb128 0
 7333 0569 EA000000 		.4byte	.LCFI40-.Ltext0
 7334 056d EC000000 		.4byte	.LCFI41-.Ltext0
 7335 0571 0200     		.2byte	0x2
 7336 0573 7D       		.byte	0x7d
 7337 0574 04       		.sleb128 4
 7338 0575 EC000000 		.4byte	.LCFI41-.Ltext0
 7339 0579 EE000000 		.4byte	.LCFI42-.Ltext0
 7340 057d 0200     		.2byte	0x2
 7341 057f 7D       		.byte	0x7d
 7342 0580 10       		.sleb128 16
 7343 0581 EE000000 		.4byte	.LCFI42-.Ltext0
 7344 0585 FC000000 		.4byte	.LCFI43-.Ltext0
 7345 0589 0200     		.2byte	0x2
 7346 058b 77       		.byte	0x77
 7347 058c 10       		.sleb128 16
 7348 058d FC000000 		.4byte	.LCFI43-.Ltext0
 7349 0591 FE000000 		.4byte	.LCFI44-.Ltext0
 7350 0595 0200     		.2byte	0x2
 7351 0597 77       		.byte	0x77
 7352 0598 04       		.sleb128 4
 7353 0599 FE000000 		.4byte	.LCFI44-.Ltext0
 7354 059d 00010000 		.4byte	.LCFI45-.Ltext0
 7355 05a1 0200     		.2byte	0x2
 7356 05a3 7D       		.byte	0x7d
 7357 05a4 04       		.sleb128 4
 7358 05a5 00010000 		.4byte	.LCFI45-.Ltext0
 7359 05a9 02010000 		.4byte	.LFE11-.Ltext0
 7360 05ad 0200     		.2byte	0x2
 7361 05af 7D       		.byte	0x7d
 7362 05b0 00       		.sleb128 0
 7363 05b1 00000000 		.4byte	0
 7364 05b5 00000000 		.4byte	0
 7365              	.LLST6:
 7366 05b9 CE000000 		.4byte	.LFB10-.Ltext0
 7367 05bd D0000000 		.4byte	.LCFI34-.Ltext0
 7368 05c1 0200     		.2byte	0x2
ARM GAS  G:\Users\Jaxb\AppData\Local\Temp\ccWBP0T4.s 			page 151


 7369 05c3 7D       		.byte	0x7d
 7370 05c4 00       		.sleb128 0
 7371 05c5 D0000000 		.4byte	.LCFI34-.Ltext0
 7372 05c9 D2000000 		.4byte	.LCFI35-.Ltext0
 7373 05cd 0200     		.2byte	0x2
 7374 05cf 7D       		.byte	0x7d
 7375 05d0 04       		.sleb128 4
 7376 05d1 D2000000 		.4byte	.LCFI35-.Ltext0
 7377 05d5 D4000000 		.4byte	.LCFI36-.Ltext0
 7378 05d9 0200     		.2byte	0x2
 7379 05db 7D       		.byte	0x7d
 7380 05dc 10       		.sleb128 16
 7381 05dd D4000000 		.4byte	.LCFI36-.Ltext0
 7382 05e1 E2000000 		.4byte	.LCFI37-.Ltext0
 7383 05e5 0200     		.2byte	0x2
 7384 05e7 77       		.byte	0x77
 7385 05e8 10       		.sleb128 16
 7386 05e9 E2000000 		.4byte	.LCFI37-.Ltext0
 7387 05ed E4000000 		.4byte	.LCFI38-.Ltext0
 7388 05f1 0200     		.2byte	0x2
 7389 05f3 77       		.byte	0x77
 7390 05f4 04       		.sleb128 4
 7391 05f5 E4000000 		.4byte	.LCFI38-.Ltext0
 7392 05f9 E6000000 		.4byte	.LCFI39-.Ltext0
 7393 05fd 0200     		.2byte	0x2
 7394 05ff 7D       		.byte	0x7d
 7395 0600 04       		.sleb128 4
 7396 0601 E6000000 		.4byte	.LCFI39-.Ltext0
 7397 0605 E8000000 		.4byte	.LFE10-.Ltext0
 7398 0609 0200     		.2byte	0x2
 7399 060b 7D       		.byte	0x7d
 7400 060c 00       		.sleb128 0
 7401 060d 00000000 		.4byte	0
 7402 0611 00000000 		.4byte	0
 7403              	.LLST5:
 7404 0615 AC000000 		.4byte	.LFB9-.Ltext0
 7405 0619 AE000000 		.4byte	.LCFI28-.Ltext0
 7406 061d 0200     		.2byte	0x2
 7407 061f 7D       		.byte	0x7d
 7408 0620 00       		.sleb128 0
 7409 0621 AE000000 		.4byte	.LCFI28-.Ltext0
 7410 0625 B0000000 		.4byte	.LCFI29-.Ltext0
 7411 0629 0200     		.2byte	0x2
 7412 062b 7D       		.byte	0x7d
 7413 062c 04       		.sleb128 4
 7414 062d B0000000 		.4byte	.LCFI29-.Ltext0
 7415 0631 B2000000 		.4byte	.LCFI30-.Ltext0
 7416 0635 0200     		.2byte	0x2
 7417 0637 7D       		.byte	0x7d
 7418 0638 10       		.sleb128 16
 7419 0639 B2000000 		.4byte	.LCFI30-.Ltext0
 7420 063d C8000000 		.4byte	.LCFI31-.Ltext0
 7421 0641 0200     		.2byte	0x2
 7422 0643 77       		.byte	0x77
 7423 0644 10       		.sleb128 16
 7424 0645 C8000000 		.4byte	.LCFI31-.Ltext0
 7425 0649 CA000000 		.4byte	.LCFI32-.Ltext0
ARM GAS  G:\Users\Jaxb\AppData\Local\Temp\ccWBP0T4.s 			page 152


 7426 064d 0200     		.2byte	0x2
 7427 064f 77       		.byte	0x77
 7428 0650 04       		.sleb128 4
 7429 0651 CA000000 		.4byte	.LCFI32-.Ltext0
 7430 0655 CC000000 		.4byte	.LCFI33-.Ltext0
 7431 0659 0200     		.2byte	0x2
 7432 065b 7D       		.byte	0x7d
 7433 065c 04       		.sleb128 4
 7434 065d CC000000 		.4byte	.LCFI33-.Ltext0
 7435 0661 CE000000 		.4byte	.LFE9-.Ltext0
 7436 0665 0200     		.2byte	0x2
 7437 0667 7D       		.byte	0x7d
 7438 0668 00       		.sleb128 0
 7439 0669 00000000 		.4byte	0
 7440 066d 00000000 		.4byte	0
 7441              	.LLST4:
 7442 0671 8C000000 		.4byte	.LFB5-.Ltext0
 7443 0675 8E000000 		.4byte	.LCFI23-.Ltext0
 7444 0679 0200     		.2byte	0x2
 7445 067b 7D       		.byte	0x7d
 7446 067c 00       		.sleb128 0
 7447 067d 8E000000 		.4byte	.LCFI23-.Ltext0
 7448 0681 90000000 		.4byte	.LCFI24-.Ltext0
 7449 0685 0200     		.2byte	0x2
 7450 0687 7D       		.byte	0x7d
 7451 0688 08       		.sleb128 8
 7452 0689 90000000 		.4byte	.LCFI24-.Ltext0
 7453 068d 92000000 		.4byte	.LCFI25-.Ltext0
 7454 0691 0200     		.2byte	0x2
 7455 0693 7D       		.byte	0x7d
 7456 0694 10       		.sleb128 16
 7457 0695 92000000 		.4byte	.LCFI25-.Ltext0
 7458 0699 A8000000 		.4byte	.LCFI26-.Ltext0
 7459 069d 0200     		.2byte	0x2
 7460 069f 77       		.byte	0x77
 7461 06a0 10       		.sleb128 16
 7462 06a1 A8000000 		.4byte	.LCFI26-.Ltext0
 7463 06a5 AA000000 		.4byte	.LCFI27-.Ltext0
 7464 06a9 0200     		.2byte	0x2
 7465 06ab 77       		.byte	0x77
 7466 06ac 08       		.sleb128 8
 7467 06ad AA000000 		.4byte	.LCFI27-.Ltext0
 7468 06b1 AC000000 		.4byte	.LFE5-.Ltext0
 7469 06b5 0200     		.2byte	0x2
 7470 06b7 7D       		.byte	0x7d
 7471 06b8 08       		.sleb128 8
 7472 06b9 00000000 		.4byte	0
 7473 06bd 00000000 		.4byte	0
 7474              	.LLST3:
 7475 06c1 6C000000 		.4byte	.LFB4-.Ltext0
 7476 06c5 6E000000 		.4byte	.LCFI17-.Ltext0
 7477 06c9 0200     		.2byte	0x2
 7478 06cb 7D       		.byte	0x7d
 7479 06cc 00       		.sleb128 0
 7480 06cd 6E000000 		.4byte	.LCFI17-.Ltext0
 7481 06d1 70000000 		.4byte	.LCFI18-.Ltext0
 7482 06d5 0200     		.2byte	0x2
ARM GAS  G:\Users\Jaxb\AppData\Local\Temp\ccWBP0T4.s 			page 153


 7483 06d7 7D       		.byte	0x7d
 7484 06d8 04       		.sleb128 4
 7485 06d9 70000000 		.4byte	.LCFI18-.Ltext0
 7486 06dd 72000000 		.4byte	.LCFI19-.Ltext0
 7487 06e1 0200     		.2byte	0x2
 7488 06e3 7D       		.byte	0x7d
 7489 06e4 10       		.sleb128 16
 7490 06e5 72000000 		.4byte	.LCFI19-.Ltext0
 7491 06e9 86000000 		.4byte	.LCFI20-.Ltext0
 7492 06ed 0200     		.2byte	0x2
 7493 06ef 77       		.byte	0x77
 7494 06f0 10       		.sleb128 16
 7495 06f1 86000000 		.4byte	.LCFI20-.Ltext0
 7496 06f5 88000000 		.4byte	.LCFI21-.Ltext0
 7497 06f9 0200     		.2byte	0x2
 7498 06fb 77       		.byte	0x77
 7499 06fc 04       		.sleb128 4
 7500 06fd 88000000 		.4byte	.LCFI21-.Ltext0
 7501 0701 8A000000 		.4byte	.LCFI22-.Ltext0
 7502 0705 0200     		.2byte	0x2
 7503 0707 7D       		.byte	0x7d
 7504 0708 04       		.sleb128 4
 7505 0709 8A000000 		.4byte	.LCFI22-.Ltext0
 7506 070d 8C000000 		.4byte	.LFE4-.Ltext0
 7507 0711 0200     		.2byte	0x2
 7508 0713 7D       		.byte	0x7d
 7509 0714 00       		.sleb128 0
 7510 0715 00000000 		.4byte	0
 7511 0719 00000000 		.4byte	0
 7512              	.LLST2:
 7513 071d 4C000000 		.4byte	.LFB2-.Ltext0
 7514 0721 4E000000 		.4byte	.LCFI12-.Ltext0
 7515 0725 0200     		.2byte	0x2
 7516 0727 7D       		.byte	0x7d
 7517 0728 00       		.sleb128 0
 7518 0729 4E000000 		.4byte	.LCFI12-.Ltext0
 7519 072d 50000000 		.4byte	.LCFI13-.Ltext0
 7520 0731 0200     		.2byte	0x2
 7521 0733 7D       		.byte	0x7d
 7522 0734 08       		.sleb128 8
 7523 0735 50000000 		.4byte	.LCFI13-.Ltext0
 7524 0739 52000000 		.4byte	.LCFI14-.Ltext0
 7525 073d 0200     		.2byte	0x2
 7526 073f 7D       		.byte	0x7d
 7527 0740 10       		.sleb128 16
 7528 0741 52000000 		.4byte	.LCFI14-.Ltext0
 7529 0745 68000000 		.4byte	.LCFI15-.Ltext0
 7530 0749 0200     		.2byte	0x2
 7531 074b 77       		.byte	0x77
 7532 074c 10       		.sleb128 16
 7533 074d 68000000 		.4byte	.LCFI15-.Ltext0
 7534 0751 6A000000 		.4byte	.LCFI16-.Ltext0
 7535 0755 0200     		.2byte	0x2
 7536 0757 77       		.byte	0x77
 7537 0758 08       		.sleb128 8
 7538 0759 6A000000 		.4byte	.LCFI16-.Ltext0
 7539 075d 6C000000 		.4byte	.LFE2-.Ltext0
ARM GAS  G:\Users\Jaxb\AppData\Local\Temp\ccWBP0T4.s 			page 154


 7540 0761 0200     		.2byte	0x2
 7541 0763 7D       		.byte	0x7d
 7542 0764 08       		.sleb128 8
 7543 0765 00000000 		.4byte	0
 7544 0769 00000000 		.4byte	0
 7545              	.LLST1:
 7546 076d 1E000000 		.4byte	.LFB1-.Ltext0
 7547 0771 20000000 		.4byte	.LCFI6-.Ltext0
 7548 0775 0200     		.2byte	0x2
 7549 0777 7D       		.byte	0x7d
 7550 0778 00       		.sleb128 0
 7551 0779 20000000 		.4byte	.LCFI6-.Ltext0
 7552 077d 22000000 		.4byte	.LCFI7-.Ltext0
 7553 0781 0200     		.2byte	0x2
 7554 0783 7D       		.byte	0x7d
 7555 0784 04       		.sleb128 4
 7556 0785 22000000 		.4byte	.LCFI7-.Ltext0
 7557 0789 24000000 		.4byte	.LCFI8-.Ltext0
 7558 078d 0200     		.2byte	0x2
 7559 078f 7D       		.byte	0x7d
 7560 0790 18       		.sleb128 24
 7561 0791 24000000 		.4byte	.LCFI8-.Ltext0
 7562 0795 46000000 		.4byte	.LCFI9-.Ltext0
 7563 0799 0200     		.2byte	0x2
 7564 079b 77       		.byte	0x77
 7565 079c 18       		.sleb128 24
 7566 079d 46000000 		.4byte	.LCFI9-.Ltext0
 7567 07a1 48000000 		.4byte	.LCFI10-.Ltext0
 7568 07a5 0200     		.2byte	0x2
 7569 07a7 77       		.byte	0x77
 7570 07a8 04       		.sleb128 4
 7571 07a9 48000000 		.4byte	.LCFI10-.Ltext0
 7572 07ad 4A000000 		.4byte	.LCFI11-.Ltext0
 7573 07b1 0200     		.2byte	0x2
 7574 07b3 7D       		.byte	0x7d
 7575 07b4 04       		.sleb128 4
 7576 07b5 4A000000 		.4byte	.LCFI11-.Ltext0
 7577 07b9 4C000000 		.4byte	.LFE1-.Ltext0
 7578 07bd 0200     		.2byte	0x2
 7579 07bf 7D       		.byte	0x7d
 7580 07c0 00       		.sleb128 0
 7581 07c1 00000000 		.4byte	0
 7582 07c5 00000000 		.4byte	0
 7583              	.LLST0:
 7584 07c9 00000000 		.4byte	.LFB0-.Ltext0
 7585 07cd 02000000 		.4byte	.LCFI0-.Ltext0
 7586 07d1 0200     		.2byte	0x2
 7587 07d3 7D       		.byte	0x7d
 7588 07d4 00       		.sleb128 0
 7589 07d5 02000000 		.4byte	.LCFI0-.Ltext0
 7590 07d9 04000000 		.4byte	.LCFI1-.Ltext0
 7591 07dd 0200     		.2byte	0x2
 7592 07df 7D       		.byte	0x7d
 7593 07e0 04       		.sleb128 4
 7594 07e1 04000000 		.4byte	.LCFI1-.Ltext0
 7595 07e5 06000000 		.4byte	.LCFI2-.Ltext0
 7596 07e9 0200     		.2byte	0x2
ARM GAS  G:\Users\Jaxb\AppData\Local\Temp\ccWBP0T4.s 			page 155


 7597 07eb 7D       		.byte	0x7d
 7598 07ec 10       		.sleb128 16
 7599 07ed 06000000 		.4byte	.LCFI2-.Ltext0
 7600 07f1 18000000 		.4byte	.LCFI3-.Ltext0
 7601 07f5 0200     		.2byte	0x2
 7602 07f7 77       		.byte	0x77
 7603 07f8 10       		.sleb128 16
 7604 07f9 18000000 		.4byte	.LCFI3-.Ltext0
 7605 07fd 1A000000 		.4byte	.LCFI4-.Ltext0
 7606 0801 0200     		.2byte	0x2
 7607 0803 77       		.byte	0x77
 7608 0804 04       		.sleb128 4
 7609 0805 1A000000 		.4byte	.LCFI4-.Ltext0
 7610 0809 1C000000 		.4byte	.LCFI5-.Ltext0
 7611 080d 0200     		.2byte	0x2
 7612 080f 7D       		.byte	0x7d
 7613 0810 04       		.sleb128 4
 7614 0811 1C000000 		.4byte	.LCFI5-.Ltext0
 7615 0815 1E000000 		.4byte	.LFE0-.Ltext0
 7616 0819 0200     		.2byte	0x2
 7617 081b 7D       		.byte	0x7d
 7618 081c 00       		.sleb128 0
 7619 081d 00000000 		.4byte	0
 7620 0821 00000000 		.4byte	0
 7621              		.section	.debug_aranges,"",%progbits
 7622 0000 1C000000 		.4byte	0x1c
 7623 0004 0200     		.2byte	0x2
 7624 0006 00000000 		.4byte	.Ldebug_info0
 7625 000a 04       		.byte	0x4
 7626 000b 00       		.byte	0
 7627 000c 0000     		.2byte	0
 7628 000e 0000     		.2byte	0
 7629 0010 00000000 		.4byte	.Ltext0
 7630 0014 4C130000 		.4byte	.Letext0-.Ltext0
 7631 0018 00000000 		.4byte	0
 7632 001c 00000000 		.4byte	0
 7633              		.section	.debug_ranges,"",%progbits
 7634              	.Ldebug_ranges0:
 7635 0000 3A0D0000 		.4byte	.LBB20-.Ltext0
 7636 0004 820D0000 		.4byte	.LBE20-.Ltext0
 7637 0008 960D0000 		.4byte	.LBB21-.Ltext0
 7638 000c 980D0000 		.4byte	.LBE21-.Ltext0
 7639 0010 00000000 		.4byte	0
 7640 0014 00000000 		.4byte	0
 7641              		.section	.debug_line,"",%progbits
 7642              	.Ldebug_line0:
 7643 0000 6A040000 		.section	.debug_str,"MS",%progbits,1
 7643      02000A01 
 7643      00000201 
 7643      FB0E0D00 
 7643      01010101 
 7644              	.LASF139:
 7645 0000 636F756E 		.ascii	"count\000"
 7645      7400
 7646              	.LASF41:
 7647 0006 73685F61 		.ascii	"sh_addralign\000"
 7647      64647261 
ARM GAS  G:\Users\Jaxb\AppData\Local\Temp\ccWBP0T4.s 			page 156


 7647      6C69676E 
 7647      00
 7648              	.LASF93:
 7649 0013 73757370 		.ascii	"suspend_list\000"
 7649      656E645F 
 7649      6C697374 
 7649      00
 7650              	.LASF58:
 7651 0020 705F7661 		.ascii	"p_vaddr\000"
 7651      64647200 
 7652              	.LASF51:
 7653 0028 73745F73 		.ascii	"st_shndx\000"
 7653      686E6478 
 7653      00
 7654              	.LASF82:
 7655 0031 5441534B 		.ascii	"TASK_PRIO_TYPE\000"
 7655      5F505249 
 7655      4F5F5459 
 7655      504500
 7656              	.LASF12:
 7657 0040 73697A65 		.ascii	"size_t\000"
 7657      5F7400
 7658              	.LASF79:
 7659 0047 4350555F 		.ascii	"CPU_INT32U\000"
 7659      494E5433 
 7659      325500
 7660              	.LASF143:
 7661 0052 77686572 		.ascii	"where\000"
 7661      6500
 7662              	.LASF49:
 7663 0058 73745F69 		.ascii	"st_info\000"
 7663      6E666F00 
 7664              	.LASF142:
 7665 0060 73796D5F 		.ascii	"sym_val\000"
 7665      76616C00 
 7666              	.LASF67:
 7667 0068 70726576 		.ascii	"prev\000"
 7667      00
 7668              	.LASF170:
 7669 006d 6C697374 		.ascii	"list_empty\000"
 7669      5F656D70 
 7669      747900
 7670              	.LASF43:
 7671 0078 456C6633 		.ascii	"Elf32_Shdr\000"
 7671      325F5368 
 7671      647200
 7672              	.LASF104:
 7673 0083 696E6974 		.ascii	"init\000"
 7673      00
 7674              	.LASF166:
 7675 0088 7365745F 		.ascii	"set_module_state\000"
 7675      6D6F6475 
 7675      6C655F73 
 7675      74617465 
 7675      00
 7676              	.LASF97:
 7677 0099 61747472 		.ascii	"attribution\000"
ARM GAS  G:\Users\Jaxb\AppData\Local\Temp\ccWBP0T4.s 			page 157


 7677      69627574 
 7677      696F6E00 
 7678              	.LASF19:
 7679 00a5 655F7479 		.ascii	"e_type\000"
 7679      706500
 7680              	.LASF109:
 7681 00ac 656E7472 		.ascii	"entry\000"
 7681      7900
 7682              	.LASF11:
 7683 00b2 6C6F6E67 		.ascii	"long long unsigned int\000"
 7683      206C6F6E 
 7683      6720756E 
 7683      7369676E 
 7683      65642069 
 7684              	.LASF63:
 7685 00c9 705F616C 		.ascii	"p_align\000"
 7685      69676E00 
 7686              	.LASF38:
 7687 00d1 73685F73 		.ascii	"sh_size\000"
 7687      697A6500 
 7688              	.LASF115:
 7689 00d9 61646472 		.ascii	"addr\000"
 7689      00
 7690              	.LASF122:
 7691 00de 6D6F6475 		.ascii	"module\000"
 7691      6C6500
 7692              	.LASF36:
 7693 00e5 73685F61 		.ascii	"sh_addr\000"
 7693      64647200 
 7694              	.LASF147:
 7695 00ed 6C6F7765 		.ascii	"lower\000"
 7695      7200
 7696              	.LASF78:
 7697 00f3 5441534B 		.ascii	"TASK_STATE\000"
 7697      5F535441 
 7697      544500
 7698              	.LASF14:
 7699 00fe 456C6633 		.ascii	"Elf32_Off\000"
 7699      325F4F66 
 7699      6600
 7700              	.LASF66:
 7701 0108 6E657874 		.ascii	"next\000"
 7701      00
 7702              	.LASF84:
 7703 010d 7461736B 		.ascii	"task_control_block_struct\000"
 7703      5F636F6E 
 7703      74726F6C 
 7703      5F626C6F 
 7703      636B5F73 
 7704              	.LASF2:
 7705 0127 6C6F6E67 		.ascii	"long long int\000"
 7705      206C6F6E 
 7705      6720696E 
 7705      7400
 7706              	.LASF0:
 7707 0135 7369676E 		.ascii	"signed char\000"
 7707      65642063 
ARM GAS  G:\Users\Jaxb\AppData\Local\Temp\ccWBP0T4.s 			page 158


 7707      68617200 
 7708              	.LASF88:
 7709 0141 72657365 		.ascii	"reserve_prio\000"
 7709      7276655F 
 7709      7072696F 
 7709      00
 7710              	.LASF60:
 7711 014e 705F6669 		.ascii	"p_filesz\000"
 7711      6C65737A 
 7711      00
 7712              	.LASF107:
 7713 0157 6D6F6475 		.ascii	"module_size\000"
 7713      6C655F73 
 7713      697A6500 
 7714              	.LASF114:
 7715 0163 6B615F6D 		.ascii	"ka_module_symtab\000"
 7715      6F64756C 
 7715      655F7379 
 7715      6D746162 
 7715      00
 7716              	.LASF128:
 7717 0174 6D6F6475 		.ascii	"module_ptr\000"
 7717      6C655F70 
 7717      747200
 7718              	.LASF16:
 7719 017f 456C6633 		.ascii	"Elf32_Word\000"
 7719      325F576F 
 7719      726400
 7720              	.LASF144:
 7721 018a 61646465 		.ascii	"addend\000"
 7721      6E6400
 7722              	.LASF148:
 7723 0191 7369676E 		.ascii	"sign\000"
 7723      00
 7724              	.LASF167:
 7725 0196 73746174 		.ascii	"state\000"
 7725      6500
 7726              	.LASF31:
 7727 019c 655F7368 		.ascii	"e_shstrndx\000"
 7727      7374726E 
 7727      647800
 7728              	.LASF175:
 7729 01a7 5F5F6C69 		.ascii	"__list_add\000"
 7729      73745F61 
 7729      646400
 7730              	.LASF116:
 7731 01b2 6D6F6475 		.ascii	"module_buffer\000"
 7731      6C655F62 
 7731      75666665 
 7731      7200
 7732              	.LASF146:
 7733 01c0 75707065 		.ascii	"upper\000"
 7733      7200
 7734              	.LASF127:
 7735 01c6 6370755F 		.ascii	"cpu_sr\000"
 7735      737200
 7736              	.LASF92:
ARM GAS  G:\Users\Jaxb\AppData\Local\Temp\ccWBP0T4.s 			page 159


 7737 01cd 73616D65 		.ascii	"same_prio_list\000"
 7737      5F707269 
 7737      6F5F6C69 
 7737      737400
 7738              	.LASF47:
 7739 01dc 73745F76 		.ascii	"st_value\000"
 7739      616C7565 
 7739      00
 7740              	.LASF59:
 7741 01e5 705F7061 		.ascii	"p_paddr\000"
 7741      64647200 
 7742              	.LASF149:
 7743 01ed 72656D6F 		.ascii	"remove_module\000"
 7743      76655F6D 
 7743      6F64756C 
 7743      6500
 7744              	.LASF6:
 7745 01fb 55494E54 		.ascii	"UINT16\000"
 7745      313600
 7746              	.LASF137:
 7747 0202 756E736F 		.ascii	"unsolved\000"
 7747      6C766564 
 7747      00
 7748              	.LASF169:
 7749 020b 6D6F645F 		.ascii	"mod_ptr\000"
 7749      70747200 
 7750              	.LASF135:
 7751 0213 73796D74 		.ascii	"symtab\000"
 7751      616200
 7752              	.LASF61:
 7753 021a 705F6D65 		.ascii	"p_memsz\000"
 7753      6D737A00 
 7754              	.LASF162:
 7755 0222 7368656C 		.ascii	"shell_list_module\000"
 7755      6C5F6C69 
 7755      73745F6D 
 7755      6F64756C 
 7755      6500
 7756              	.LASF39:
 7757 0234 73685F6C 		.ascii	"sh_link\000"
 7757      696E6B00 
 7758              	.LASF74:
 7759 023c 53544154 		.ascii	"STATE_WAIT_MESSAGE_QUEUE_TIMEOUT\000"
 7759      455F5741 
 7759      49545F4D 
 7759      45535341 
 7759      47455F51 
 7760              	.LASF173:
 7761 025d 5F5F6C69 		.ascii	"__list_del\000"
 7761      73745F64 
 7761      656C00
 7762              	.LASF44:
 7763 0268 656C6668 		.ascii	"elfhdr\000"
 7763      647200
 7764              	.LASF75:
 7765 026f 53544154 		.ascii	"STATE_PUT_MESSAGE_QUEUE_FOREVER\000"
 7765      455F5055 
ARM GAS  G:\Users\Jaxb\AppData\Local\Temp\ccWBP0T4.s 			page 160


 7765      545F4D45 
 7765      53534147 
 7765      455F5155 
 7766              	.LASF9:
 7767 028f 756E7369 		.ascii	"unsigned int\000"
 7767      676E6564 
 7767      20696E74 
 7767      00
 7768              	.LASF56:
 7769 029c 705F7479 		.ascii	"p_type\000"
 7769      706500
 7770              	.LASF15:
 7771 02a3 456C6633 		.ascii	"Elf32_Sword\000"
 7771      325F5377 
 7771      6F726400 
 7772              	.LASF124:
 7773 02af 5443425F 		.ascii	"TCB_ptr\000"
 7773      70747200 
 7774              	.LASF69:
 7775 02b7 53544154 		.ascii	"STATE_DELAY\000"
 7775      455F4445 
 7775      4C415900 
 7776              	.LASF136:
 7777 02c3 73747274 		.ascii	"strtab\000"
 7777      616200
 7778              	.LASF27:
 7779 02ca 655F7068 		.ascii	"e_phentsize\000"
 7779      656E7473 
 7779      697A6500 
 7780              	.LASF141:
 7781 02d6 6C6F6E67 		.ascii	"long unsigned int\000"
 7781      20756E73 
 7781      69676E65 
 7781      6420696E 
 7781      7400
 7782              	.LASF3:
 7783 02e8 494E5433 		.ascii	"INT32\000"
 7783      3200
 7784              	.LASF153:
 7785 02ee 61726763 		.ascii	"argc\000"
 7785      00
 7786              	.LASF94:
 7787 02f3 6E616D65 		.ascii	"name\000"
 7787      00
 7788              	.LASF33:
 7789 02f8 73685F6E 		.ascii	"sh_name\000"
 7789      616D6500 
 7790              	.LASF7:
 7791 0300 73686F72 		.ascii	"short unsigned int\000"
 7791      7420756E 
 7791      7369676E 
 7791      65642069 
 7791      6E7400
 7792              	.LASF168:
 7793 0313 7365745F 		.ascii	"set_tcb_module\000"
 7793      7463625F 
 7793      6D6F6475 
ARM GAS  G:\Users\Jaxb\AppData\Local\Temp\ccWBP0T4.s 			page 161


 7793      6C6500
 7794              	.LASF50:
 7795 0322 73745F6F 		.ascii	"st_other\000"
 7795      74686572 
 7795      00
 7796              	.LASF64:
 7797 032b 456C6633 		.ascii	"Elf32_Phdr\000"
 7797      325F5068 
 7797      647200
 7798              	.LASF176:
 7799 0336 6C697374 		.ascii	"list\000"
 7799      00
 7800              	.LASF174:
 7801 033b 6C697374 		.ascii	"list_add\000"
 7801      5F616464 
 7801      00
 7802              	.LASF80:
 7803 0344 4350555F 		.ascii	"CPU_SR\000"
 7803      535200
 7804              	.LASF20:
 7805 034b 655F6D61 		.ascii	"e_machine\000"
 7805      6368696E 
 7805      6500
 7806              	.LASF102:
 7807 0355 6D6F6475 		.ascii	"module_list\000"
 7807      6C655F6C 
 7807      69737400 
 7808              	.LASF55:
 7809 0361 456C6633 		.ascii	"Elf32_Rel\000"
 7809      325F5265 
 7809      6C00
 7810              	.LASF48:
 7811 036b 73745F73 		.ascii	"st_size\000"
 7811      697A6500 
 7812              	.LASF161:
 7813 0373 66756E5F 		.ascii	"fun_name\000"
 7813      6E616D65 
 7813      00
 7814              	.LASF180:
 7815 037c 5461736B 		.ascii	"Task_State\000"
 7815      5F537461 
 7815      746500
 7816              	.LASF159:
 7817 0387 5F636865 		.ascii	"_check_same_mod_name\000"
 7817      636B5F73 
 7817      616D655F 
 7817      6D6F645F 
 7817      6E616D65 
 7818              	.LASF165:
 7819 039c 5F5F696E 		.ascii	"__init_d_module\000"
 7819      69745F64 
 7819      5F6D6F64 
 7819      756C6500 
 7820              	.LASF110:
 7821 03ac 76737461 		.ascii	"vstart_addr\000"
 7821      72745F61 
 7821      64647200 
ARM GAS  G:\Users\Jaxb\AppData\Local\Temp\ccWBP0T4.s 			page 162


 7822              	.LASF117:
 7823 03b8 6D6F6475 		.ascii	"module_list_head\000"
 7823      6C655F6C 
 7823      6973745F 
 7823      68656164 
 7823      00
 7824              	.LASF152:
 7825 03c9 7368656C 		.ascii	"shell_remove_module\000"
 7825      6C5F7265 
 7825      6D6F7665 
 7825      5F6D6F64 
 7825      756C6500 
 7826              	.LASF26:
 7827 03dd 655F6568 		.ascii	"e_ehsize\000"
 7827      73697A65 
 7827      00
 7828              	.LASF132:
 7829 03e6 76656E64 		.ascii	"vend_addr\000"
 7829      5F616464 
 7829      7200
 7830              	.LASF68:
 7831 03f0 53544154 		.ascii	"STATE_READY\000"
 7831      455F5245 
 7831      41445900 
 7832              	.LASF157:
 7833 03fc 5F5F6D70 		.ascii	"__mptr\000"
 7833      747200
 7834              	.LASF8:
 7835 0403 55494E54 		.ascii	"UINT32\000"
 7835      333200
 7836              	.LASF21:
 7837 040a 655F7665 		.ascii	"e_version\000"
 7837      7273696F 
 7837      6E00
 7838              	.LASF57:
 7839 0414 705F6F66 		.ascii	"p_offset\000"
 7839      66736574 
 7839      00
 7840              	.LASF96:
 7841 041d 74696D65 		.ascii	"timeslice_rest_time\000"
 7841      736C6963 
 7841      655F7265 
 7841      73745F74 
 7841      696D6500 
 7842              	.LASF130:
 7843 0431 6C696E6B 		.ascii	"linked\000"
 7843      656400
 7844              	.LASF158:
 7845 0438 5F726573 		.ascii	"_restart_module\000"
 7845      74617274 
 7845      5F6D6F64 
 7845      756C6500 
 7846              	.LASF90:
 7847 0448 7072696F 		.ascii	"prio\000"
 7847      00
 7848              	.LASF17:
 7849 044d 456C6633 		.ascii	"Elf32_Half\000"
ARM GAS  G:\Users\Jaxb\AppData\Local\Temp\ccWBP0T4.s 			page 163


 7849      325F4861 
 7849      6C6600
 7850              	.LASF133:
 7851 0458 6861735F 		.ascii	"has_vstart\000"
 7851      76737461 
 7851      727400
 7852              	.LASF71:
 7853 0463 53544154 		.ascii	"STATE_WAIT_MCB_FOREVER\000"
 7853      455F5741 
 7853      49545F4D 
 7853      43425F46 
 7853      4F524556 
 7854              	.LASF151:
 7855 047a 5F72656D 		.ascii	"_remove_a_module\000"
 7855      6F76655F 
 7855      615F6D6F 
 7855      64756C65 
 7855      00
 7856              	.LASF87:
 7857 048b 73746163 		.ascii	"stack_end\000"
 7857      6B5F656E 
 7857      6400
 7858              	.LASF123:
 7859 0495 6572726F 		.ascii	"error\000"
 7859      7200
 7860              	.LASF32:
 7861 049b 456C6633 		.ascii	"Elf32_Ehdr\000"
 7861      325F4568 
 7861      647200
 7862              	.LASF77:
 7863 04a6 53544154 		.ascii	"STATE_WAIT_MUTEX_FOREVER\000"
 7863      455F5741 
 7863      49545F4D 
 7863      55544558 
 7863      5F464F52 
 7864              	.LASF111:
 7865 04bf 6578706F 		.ascii	"export_symbols_array\000"
 7865      72745F73 
 7865      796D626F 
 7865      6C735F61 
 7865      72726179 
 7866              	.LASF177:
 7867 04d4 474E5520 		.ascii	"GNU C11 7.3.1 20180622 (release) [ARM/embedded-7-br"
 7867      43313120 
 7867      372E332E 
 7867      31203230 
 7867      31383036 
 7868 0507 616E6368 		.ascii	"anch revision 261907] -mcpu=cortex-m3 -mthumb -mapc"
 7868      20726576 
 7868      6973696F 
 7868      6E203236 
 7868      31393037 
 7869 053a 732D6672 		.ascii	"s-frame -mthumb-interwork -mcpu=cortex-m3 -mthumb -"
 7869      616D6520 
 7869      2D6D7468 
 7869      756D622D 
 7869      696E7465 
ARM GAS  G:\Users\Jaxb\AppData\Local\Temp\ccWBP0T4.s 			page 164


 7870 056d 67647761 		.ascii	"gdwarf-2 -O0\000"
 7870      72662D32 
 7870      202D4F30 
 7870      00
 7871              	.LASF42:
 7872 057a 73685F65 		.ascii	"sh_entsize\000"
 7872      6E747369 
 7872      7A6500
 7873              	.LASF181:
 7874 0585 675F696E 		.ascii	"g_interrupt_count\000"
 7874      74657272 
 7874      7570745F 
 7874      636F756E 
 7874      7400
 7875              	.LASF160:
 7876 0597 6765745F 		.ascii	"get_mod_export_function_addr\000"
 7876      6D6F645F 
 7876      6578706F 
 7876      72745F66 
 7876      756E6374 
 7877              	.LASF138:
 7878 05b4 73687374 		.ascii	"shstrab\000"
 7878      72616200 
 7879              	.LASF5:
 7880 05bc 756E7369 		.ascii	"unsigned char\000"
 7880      676E6564 
 7880      20636861 
 7880      7200
 7881              	.LASF24:
 7882 05ca 655F7368 		.ascii	"e_shoff\000"
 7882      6F666600 
 7883              	.LASF113:
 7884 05d2 74687265 		.ascii	"thread_TCB_ptr\000"
 7884      61645F54 
 7884      43425F70 
 7884      747200
 7885              	.LASF1:
 7886 05e1 73686F72 		.ascii	"short int\000"
 7886      7420696E 
 7886      7400
 7887              	.LASF83:
 7888 05eb 66756E63 		.ascii	"functionptr\000"
 7888      74696F6E 
 7888      70747200 
 7889              	.LASF40:
 7890 05f7 73685F69 		.ascii	"sh_info\000"
 7890      6E666F00 
 7891              	.LASF155:
 7892 05ff 5F5F6578 		.ascii	"__exit\000"
 7892      697400
 7893              	.LASF62:
 7894 0606 705F666C 		.ascii	"p_flags\000"
 7894      61677300 
 7895              	.LASF18:
 7896 060e 655F6964 		.ascii	"e_ident\000"
 7896      656E7400 
 7897              	.LASF178:
ARM GAS  G:\Users\Jaxb\AppData\Local\Temp\ccWBP0T4.s 			page 165


 7898 0616 2E2E2F2E 		.ascii	"../../source/src/kernel/OS_CORE/module.c\000"
 7898      2E2F736F 
 7898      75726365 
 7898      2F737263 
 7898      2F6B6572 
 7899              	.LASF85:
 7900 063f 73746163 		.ascii	"stack\000"
 7900      6B00
 7901              	.LASF105:
 7902 0645 65786974 		.ascii	"exit\000"
 7902      00
 7903              	.LASF103:
 7904 064a 6D6F6475 		.ascii	"module_state\000"
 7904      6C655F73 
 7904      74617465 
 7904      00
 7905              	.LASF126:
 7906 0657 646C6D6F 		.ascii	"dlmodule_load\000"
 7906      64756C65 
 7906      5F6C6F61 
 7906      6400
 7907              	.LASF125:
 7908 0665 5F646C6D 		.ascii	"_dlmodule_exec\000"
 7908      6F64756C 
 7908      655F6578 
 7908      656300
 7909              	.LASF76:
 7910 0674 53544154 		.ascii	"STATE_PUT_MESSAGE_QUEUE_TIMEOUT\000"
 7910      455F5055 
 7910      545F4D45 
 7910      53534147 
 7910      455F5155 
 7911              	.LASF171:
 7912 0694 68656164 		.ascii	"head\000"
 7912      00
 7913              	.LASF25:
 7914 0699 655F666C 		.ascii	"e_flags\000"
 7914      61677300 
 7915              	.LASF121:
 7916 06a1 5F707574 		.ascii	"_put_in_module_buffer\000"
 7916      5F696E5F 
 7916      6D6F6475 
 7916      6C655F62 
 7916      75666665 
 7917              	.LASF46:
 7918 06b7 73745F6E 		.ascii	"st_name\000"
 7918      616D6500 
 7919              	.LASF100:
 7920 06bf 63686172 		.ascii	"char\000"
 7920      00
 7921              	.LASF95:
 7922 06c4 74696D65 		.ascii	"timeslice_hope_time\000"
 7922      736C6963 
 7922      655F686F 
 7922      70655F74 
 7922      696D6500 
 7923              	.LASF23:
ARM GAS  G:\Users\Jaxb\AppData\Local\Temp\ccWBP0T4.s 			page 166


 7924 06d8 655F7068 		.ascii	"e_phoff\000"
 7924      6F666600 
 7925              	.LASF13:
 7926 06e0 456C6633 		.ascii	"Elf32_Addr\000"
 7926      325F4164 
 7926      647200
 7927              	.LASF35:
 7928 06eb 73685F66 		.ascii	"sh_flags\000"
 7928      6C616773 
 7928      00
 7929              	.LASF54:
 7930 06f4 725F696E 		.ascii	"r_info\000"
 7930      666F00
 7931              	.LASF34:
 7932 06fb 73685F74 		.ascii	"sh_type\000"
 7932      79706500 
 7933              	.LASF65:
 7934 0703 6C697374 		.ascii	"list_head\000"
 7934      5F686561 
 7934      6400
 7935              	.LASF131:
 7936 070d 696E6465 		.ascii	"index\000"
 7936      7800
 7937              	.LASF164:
 7938 0713 5F5F696E 		.ascii	"__init_module\000"
 7938      69745F6D 
 7938      6F64756C 
 7938      6500
 7939              	.LASF29:
 7940 0721 655F7368 		.ascii	"e_shentsize\000"
 7940      656E7473 
 7940      697A6500 
 7941              	.LASF163:
 7942 072d 7368656C 		.ascii	"shell_modinfo\000"
 7942      6C5F6D6F 
 7942      64696E66 
 7942      6F00
 7943              	.LASF99:
 7944 073b 64656C61 		.ascii	"delay_reach_time\000"
 7944      795F7265 
 7944      6163685F 
 7944      74696D65 
 7944      00
 7945              	.LASF156:
 7946 074c 70617261 		.ascii	"para\000"
 7946      00
 7947              	.LASF81:
 7948 0751 53544143 		.ascii	"STACK_TYPE\000"
 7948      4B5F5459 
 7948      504500
 7949              	.LASF120:
 7950 075c 5F736574 		.ascii	"_set_module_buffer\000"
 7950      5F6D6F64 
 7950      756C655F 
 7950      62756666 
 7950      657200
 7951              	.LASF89:
ARM GAS  G:\Users\Jaxb\AppData\Local\Temp\ccWBP0T4.s 			page 167


 7952 076f 7461736B 		.ascii	"task_state\000"
 7952      5F737461 
 7952      746500
 7953              	.LASF145:
 7954 077a 6F666673 		.ascii	"offset\000"
 7954      657400
 7955              	.LASF30:
 7956 0781 655F7368 		.ascii	"e_shnum\000"
 7956      6E756D00 
 7957              	.LASF140:
 7958 0789 6C656E67 		.ascii	"length\000"
 7958      746800
 7959              	.LASF101:
 7960 0790 64796E61 		.ascii	"dynamic_module\000"
 7960      6D69635F 
 7960      6D6F6475 
 7960      6C6500
 7961              	.LASF70:
 7962 079f 53544154 		.ascii	"STATE_SUSPEND_NORMAL\000"
 7962      455F5355 
 7962      5350454E 
 7962      445F4E4F 
 7962      524D414C 
 7963              	.LASF118:
 7964 07b4 5F636C65 		.ascii	"_clear_module_buffer\000"
 7964      61725F6D 
 7964      6F64756C 
 7964      655F6275 
 7964      66666572 
 7965              	.LASF108:
 7966 07c9 696E6974 		.ascii	"init_space\000"
 7966      5F737061 
 7966      636500
 7967              	.LASF4:
 7968 07d4 55494E54 		.ascii	"UINT8\000"
 7968      3800
 7969              	.LASF179:
 7970 07da 463A5C6B 		.ascii	"F:\\kaka\\KAKAOS\\C\\windows\\Project\\RVMDK\243\250"
 7970      616B615C 
 7970      4B414B41 
 7970      4F535C43 
 7970      5C77696E 
 7971 0802 757635A3 		.ascii	"uv5\243\251\000"
 7971      A900
 7972              	.LASF73:
 7973 0808 53544154 		.ascii	"STATE_WAIT_MESSAGE_QUEUE_FOREVER\000"
 7973      455F5741 
 7973      49545F4D 
 7973      45535341 
 7973      47455F51 
 7974              	.LASF22:
 7975 0829 655F656E 		.ascii	"e_entry\000"
 7975      74727900 
 7976              	.LASF45:
 7977 0831 656C6633 		.ascii	"elf32_sym\000"
 7977      325F7379 
 7977      6D00
ARM GAS  G:\Users\Jaxb\AppData\Local\Temp\ccWBP0T4.s 			page 168


 7978              	.LASF106:
 7979 083b 6D6F6475 		.ascii	"module_space\000"
 7979      6C655F73 
 7979      70616365 
 7979      00
 7980              	.LASF52:
 7981 0848 456C6633 		.ascii	"Elf32_Sym\000"
 7981      325F5379 
 7981      6D00
 7982              	.LASF86:
 7983 0852 73746163 		.ascii	"stack_size\000"
 7983      6B5F7369 
 7983      7A6500
 7984              	.LASF182:
 7985 085d 494E4954 		.ascii	"INIT_LIST_HEAD\000"
 7985      5F4C4953 
 7985      545F4845 
 7985      414400
 7986              	.LASF10:
 7987 086c 55494E54 		.ascii	"UINT64\000"
 7987      363400
 7988              	.LASF119:
 7989 0873 73686F77 		.ascii	"show_get_size\000"
 7989      5F676574 
 7989      5F73697A 
 7989      6500
 7990              	.LASF112:
 7991 0881 6578706F 		.ascii	"export_symbols_num\000"
 7991      72745F73 
 7991      796D626F 
 7991      6C735F6E 
 7991      756D00
 7992              	.LASF28:
 7993 0894 655F7068 		.ascii	"e_phnum\000"
 7993      6E756D00 
 7994              	.LASF53:
 7995 089c 725F6F66 		.ascii	"r_offset\000"
 7995      66736574 
 7995      00
 7996              	.LASF150:
 7997 08a5 646C6D6F 		.ascii	"dlmodule_relocate\000"
 7997      64756C65 
 7997      5F72656C 
 7997      6F636174 
 7997      6500
 7998              	.LASF172:
 7999 08b7 6C697374 		.ascii	"list_del\000"
 7999      5F64656C 
 7999      00
 8000              	.LASF37:
 8001 08c0 73685F6F 		.ascii	"sh_offset\000"
 8001      66667365 
 8001      7400
 8002              	.LASF154:
 8003 08ca 61726776 		.ascii	"argv\000"
 8003      00
 8004              	.LASF129:
ARM GAS  G:\Users\Jaxb\AppData\Local\Temp\ccWBP0T4.s 			page 169


 8005 08cf 646C6D6F 		.ascii	"dlmodule_load_shared_object\000"
 8005      64756C65 
 8005      5F6C6F61 
 8005      645F7368 
 8005      61726564 
 8006              	.LASF134:
 8007 08eb 6E725F72 		.ascii	"nr_reloc\000"
 8007      656C6F63 
 8007      00
 8008              	.LASF72:
 8009 08f4 53544154 		.ascii	"STATE_WAIT_MCB_TIMEOUT\000"
 8009      455F5741 
 8009      49545F4D 
 8009      43425F54 
 8009      494D454F 
 8010              	.LASF91:
 8011 090b 64656C61 		.ascii	"delay_heap_position\000"
 8011      795F6865 
 8011      61705F70 
 8011      6F736974 
 8011      696F6E00 
 8012              	.LASF98:
 8013 091f 64796E61 		.ascii	"dynamic_module_ptr\000"
 8013      6D69635F 
 8013      6D6F6475 
 8013      6C655F70 
 8013      747200
 8014              		.ident	"GCC: (GNU Tools for Arm Embedded Processors 7-2018-q2-update) 7.3.1 20180622 (release) [AR
ARM GAS  G:\Users\Jaxb\AppData\Local\Temp\ccWBP0T4.s 			page 170


DEFINED SYMBOLS
                            *ABS*:00000000 module.c
G:\Users\Jaxb\AppData\Local\Temp\ccWBP0T4.s:15     .text:00000000 $t
G:\Users\Jaxb\AppData\Local\Temp\ccWBP0T4.s:21     .text:00000000 INIT_LIST_HEAD
G:\Users\Jaxb\AppData\Local\Temp\ccWBP0T4.s:71     .text:0000001e __list_add
G:\Users\Jaxb\AppData\Local\Temp\ccWBP0T4.s:130    .text:0000004c list_add
G:\Users\Jaxb\AppData\Local\Temp\ccWBP0T4.s:175    .text:0000006c __list_del
G:\Users\Jaxb\AppData\Local\Temp\ccWBP0T4.s:225    .text:0000008c list_del
G:\Users\Jaxb\AppData\Local\Temp\ccWBP0T4.s:270    .text:000000ac list_empty
G:\Users\Jaxb\AppData\Local\Temp\ccWBP0T4.s:320    .text:000000ce set_tcb_module
G:\Users\Jaxb\AppData\Local\Temp\ccWBP0T4.s:367    .text:000000e8 set_module_state
G:\Users\Jaxb\AppData\Local\Temp\ccWBP0T4.s:409    .bss:00000000 $d
G:\Users\Jaxb\AppData\Local\Temp\ccWBP0T4.s:410    .bss:00000000 module_buffer
G:\Users\Jaxb\AppData\Local\Temp\ccWBP0T4.s:414    .bss:00000004 num
G:\Users\Jaxb\AppData\Local\Temp\ccWBP0T4.s:418    .bss:00000008 module_list_head
G:\Users\Jaxb\AppData\Local\Temp\ccWBP0T4.s:429    .text:00000102 __init_module
G:\Users\Jaxb\AppData\Local\Temp\ccWBP0T4.s:453    .text:00000110 $d
G:\Users\Jaxb\AppData\Local\Temp\ccWBP0T4.s:458    .rodata:00000000 $d
G:\Users\Jaxb\AppData\Local\Temp\ccWBP0T4.s:498    .text:00000114 $t
G:\Users\Jaxb\AppData\Local\Temp\ccWBP0T4.s:505    .text:00000114 shell_modinfo
G:\Users\Jaxb\AppData\Local\Temp\ccWBP0T4.s:659    .text:000001f8 $d
G:\Users\Jaxb\AppData\Local\Temp\ccWBP0T4.s:681    .text:00000230 $t
G:\Users\Jaxb\AppData\Local\Temp\ccWBP0T4.s:688    .text:00000230 shell_list_module
G:\Users\Jaxb\AppData\Local\Temp\ccWBP0T4.s:763    .text:00000284 $d
G:\Users\Jaxb\AppData\Local\Temp\ccWBP0T4.s:769    .text:00000290 $t
G:\Users\Jaxb\AppData\Local\Temp\ccWBP0T4.s:775    .text:00000290 get_mod_export_function_addr
G:\Users\Jaxb\AppData\Local\Temp\ccWBP0T4.s:876    .text:00000304 $d
G:\Users\Jaxb\AppData\Local\Temp\ccWBP0T4.s:880    .text:00000308 $t
G:\Users\Jaxb\AppData\Local\Temp\ccWBP0T4.s:887    .text:00000308 _check_same_mod_name
G:\Users\Jaxb\AppData\Local\Temp\ccWBP0T4.s:960    .text:00000354 $d
G:\Users\Jaxb\AppData\Local\Temp\ccWBP0T4.s:972    .text:00000358 $t
G:\Users\Jaxb\AppData\Local\Temp\ccWBP0T4.s:979    .text:00000358 _restart_module
G:\Users\Jaxb\AppData\Local\Temp\ccWBP0T4.s:1120   .text:00000418 $d
G:\Users\Jaxb\AppData\Local\Temp\ccWBP0T4.s:1138   .text:00000428 $t
G:\Users\Jaxb\AppData\Local\Temp\ccWBP0T4.s:1145   .text:00000428 shell_remove_module
G:\Users\Jaxb\AppData\Local\Temp\ccWBP0T4.s:1412   .text:00000568 remove_module
G:\Users\Jaxb\AppData\Local\Temp\ccWBP0T4.s:1250   .text:000004a4 $d
G:\Users\Jaxb\AppData\Local\Temp\ccWBP0T4.s:1262   .text:000004b4 $t
G:\Users\Jaxb\AppData\Local\Temp\ccWBP0T4.s:1268   .text:000004b4 _remove_a_module
G:\Users\Jaxb\AppData\Local\Temp\ccWBP0T4.s:1394   .text:00000560 $d
G:\Users\Jaxb\AppData\Local\Temp\ccWBP0T4.s:1405   .text:00000568 $t
G:\Users\Jaxb\AppData\Local\Temp\ccWBP0T4.s:1459   .text:00000594 $d
G:\Users\Jaxb\AppData\Local\Temp\ccWBP0T4.s:1468   .text:00000598 $t
G:\Users\Jaxb\AppData\Local\Temp\ccWBP0T4.s:1474   .text:00000598 dlmodule_relocate
G:\Users\Jaxb\AppData\Local\Temp\ccWBP0T4.s:1517   .text:000005c8 $d
G:\Users\Jaxb\AppData\Local\Temp\ccWBP0T4.s:1558   .text:0000066c $t
G:\Users\Jaxb\AppData\Local\Temp\ccWBP0T4.s:1890   .text:00000888 $d
G:\Users\Jaxb\AppData\Local\Temp\ccWBP0T4.s:1940   .text:00000894 $t
G:\Users\Jaxb\AppData\Local\Temp\ccWBP0T4.s:1947   .text:00000894 dlmodule_load_shared_object
G:\Users\Jaxb\AppData\Local\Temp\ccWBP0T4.s:2301   .text:00000adc $d
G:\Users\Jaxb\AppData\Local\Temp\ccWBP0T4.s:2313   .text:00000b04 $t
G:\Users\Jaxb\AppData\Local\Temp\ccWBP0T4.s:2906   .text:00000ef0 $d
G:\Users\Jaxb\AppData\Local\Temp\ccWBP0T4.s:3806   .bss:00000010 unsolved.4612
G:\Users\Jaxb\AppData\Local\Temp\ccWBP0T4.s:2914   .text:00000f04 $t
G:\Users\Jaxb\AppData\Local\Temp\ccWBP0T4.s:3086   .text:00001024 $d
G:\Users\Jaxb\AppData\Local\Temp\ccWBP0T4.s:3096   .text:0000102c $t
G:\Users\Jaxb\AppData\Local\Temp\ccWBP0T4.s:3102   .text:0000102c __init_d_module
ARM GAS  G:\Users\Jaxb\AppData\Local\Temp\ccWBP0T4.s 			page 171


G:\Users\Jaxb\AppData\Local\Temp\ccWBP0T4.s:3191   .text:00001098 $d
G:\Users\Jaxb\AppData\Local\Temp\ccWBP0T4.s:3215   .text:0000109c $t
G:\Users\Jaxb\AppData\Local\Temp\ccWBP0T4.s:3222   .text:0000109c dlmodule_load
G:\Users\Jaxb\AppData\Local\Temp\ccWBP0T4.s:3713   .text:00001310 _clear_module_buffer
G:\Users\Jaxb\AppData\Local\Temp\ccWBP0T4.s:3396   .text:00001198 $d
G:\Users\Jaxb\AppData\Local\Temp\ccWBP0T4.s:3412   .text:000011b8 $t
G:\Users\Jaxb\AppData\Local\Temp\ccWBP0T4.s:3419   .text:000011b8 _dlmodule_exec
G:\Users\Jaxb\AppData\Local\Temp\ccWBP0T4.s:3584   .text:000012a4 $d
G:\Users\Jaxb\AppData\Local\Temp\ccWBP0T4.s:3595   .text:000012b0 $t
G:\Users\Jaxb\AppData\Local\Temp\ccWBP0T4.s:3602   .text:000012b0 _put_in_module_buffer
G:\Users\Jaxb\AppData\Local\Temp\ccWBP0T4.s:3657   .text:000012e8 $d
G:\Users\Jaxb\AppData\Local\Temp\ccWBP0T4.s:3668   .text:000012f4 $t
G:\Users\Jaxb\AppData\Local\Temp\ccWBP0T4.s:3675   .text:000012f4 show_get_size
G:\Users\Jaxb\AppData\Local\Temp\ccWBP0T4.s:3701   .text:00001308 $d
G:\Users\Jaxb\AppData\Local\Temp\ccWBP0T4.s:3706   .text:00001310 $t
G:\Users\Jaxb\AppData\Local\Temp\ccWBP0T4.s:3749   .text:00001328 $d
G:\Users\Jaxb\AppData\Local\Temp\ccWBP0T4.s:3754   .text:00001330 $t
G:\Users\Jaxb\AppData\Local\Temp\ccWBP0T4.s:3761   .text:00001330 _set_module_buffer
G:\Users\Jaxb\AppData\Local\Temp\ccWBP0T4.s:3800   .text:00001348 $d

UNDEFINED SYMBOLS
ka_printf
_ASSERT
ka_strcmp
task_creat_ready
get_para_add
CPU_SR_Save
task_delete
ka_free
CPU_SR_Restore
ka_malloc
ka_memset
ka_memcpy
_get_sys_export_function_addr
ka_strlen
ka_strcpy
ka_strncmp
