ARM GAS  G:\Users\Jaxb\AppData\Local\Temp\cc4KUlGg.s 			page 1


   1              		.cpu cortex-m3
   2              		.eabi_attribute 20, 1
   3              		.eabi_attribute 21, 1
   4              		.eabi_attribute 23, 3
   5              		.eabi_attribute 24, 1
   6              		.eabi_attribute 25, 1
   7              		.eabi_attribute 26, 1
   8              		.eabi_attribute 30, 6
   9              		.eabi_attribute 34, 1
  10              		.eabi_attribute 18, 4
  11              		.file	"module.c"
  12              		.text
  13              	.Ltext0:
  14              		.cfi_sections	.debug_frame
  15              		.align	1
  16              		.syntax unified
  17              		.thumb
  18              		.thumb_func
  19              		.fpu softvfp
  20              		.type	INIT_LIST_HEAD, %function
  21              	INIT_LIST_HEAD:
  22              	.LFB0:
  23              		.file 1 "../../source/include/os_lib/double_linked_list.h"
   1:../../source/include/os_lib/double_linked_list.h **** #ifndef _DOUBLE_LINKED_LIST_H
   2:../../source/include/os_lib/double_linked_list.h **** #define _DOUBLE_LINKED_LIST_H
   3:../../source/include/os_lib/double_linked_list.h **** 
   4:../../source/include/os_lib/double_linked_list.h **** struct list_head {
   5:../../source/include/os_lib/double_linked_list.h ****     struct list_head *next, *prev;
   6:../../source/include/os_lib/double_linked_list.h **** };
   7:../../source/include/os_lib/double_linked_list.h **** 
   8:../../source/include/os_lib/double_linked_list.h **** 
   9:../../source/include/os_lib/double_linked_list.h **** #define LIST_HEAD_INIT(name) { &(name), &(name) }
  10:../../source/include/os_lib/double_linked_list.h **** 
  11:../../source/include/os_lib/double_linked_list.h **** 
  12:../../source/include/os_lib/double_linked_list.h **** #define LIST_HEAD(name) \
  13:../../source/include/os_lib/double_linked_list.h ****     struct list_head name = LIST_HEAD_INIT(name)
  14:../../source/include/os_lib/double_linked_list.h **** 
  15:../../source/include/os_lib/double_linked_list.h **** 
  16:../../source/include/os_lib/double_linked_list.h **** static inline void INIT_LIST_HEAD(struct list_head *list)
  17:../../source/include/os_lib/double_linked_list.h **** {
  24              		.loc 1 17 0
  25              		.cfi_startproc
  26              		@ args = 0, pretend = 0, frame = 8
  27              		@ frame_needed = 1, uses_anonymous_args = 0
  28              		@ link register save eliminated.
  29 0000 80B4     		push	{r7}
  30              	.LCFI0:
  31              		.cfi_def_cfa_offset 4
  32              		.cfi_offset 7, -4
  33 0002 83B0     		sub	sp, sp, #12
  34              	.LCFI1:
  35              		.cfi_def_cfa_offset 16
  36 0004 00AF     		add	r7, sp, #0
  37              	.LCFI2:
  38              		.cfi_def_cfa_register 7
  39 0006 7860     		str	r0, [r7, #4]
  18:../../source/include/os_lib/double_linked_list.h ****     list->next = list;
ARM GAS  G:\Users\Jaxb\AppData\Local\Temp\cc4KUlGg.s 			page 2


  40              		.loc 1 18 0
  41 0008 7B68     		ldr	r3, [r7, #4]
  42 000a 7A68     		ldr	r2, [r7, #4]
  43 000c 1A60     		str	r2, [r3]
  19:../../source/include/os_lib/double_linked_list.h ****     list->prev = list;
  44              		.loc 1 19 0
  45 000e 7B68     		ldr	r3, [r7, #4]
  46 0010 7A68     		ldr	r2, [r7, #4]
  47 0012 5A60     		str	r2, [r3, #4]
  20:../../source/include/os_lib/double_linked_list.h **** }
  48              		.loc 1 20 0
  49 0014 00BF     		nop
  50 0016 0C37     		adds	r7, r7, #12
  51              	.LCFI3:
  52              		.cfi_def_cfa_offset 4
  53 0018 BD46     		mov	sp, r7
  54              	.LCFI4:
  55              		.cfi_def_cfa_register 13
  56              		@ sp needed
  57 001a 80BC     		pop	{r7}
  58              	.LCFI5:
  59              		.cfi_restore 7
  60              		.cfi_def_cfa_offset 0
  61 001c 7047     		bx	lr
  62              		.cfi_endproc
  63              	.LFE0:
  64              		.size	INIT_LIST_HEAD, .-INIT_LIST_HEAD
  65              		.bss
  66              		.align	2
  67              	module_buffer:
  68 0000 00000000 		.space	4
  69              		.size	module_buffer, 4
  70              		.align	2
  71              	num:
  72 0004 00000000 		.space	4
  73              		.size	num, 4
  74              		.section	.rodata
  75              		.align	2
  76              	.LC0:
  77 0000 525F4152 		.ascii	"R_ARM_ABS32: %x -> %x\012\000"
  77      4D5F4142 
  77      5333323A 
  77      20257820 
  77      2D3E2025 
  78 0017 00       		.align	2
  79              	.LC1:
  80 0018 525F4152 		.ascii	"R_ARM_PC24: %x -> %x\012\000"
  80      4D5F5043 
  80      32343A20 
  80      2578202D 
  80      3E202578 
  81 002e 0000     		.align	2
  82              	.LC2:
  83 0030 525F4152 		.ascii	"R_ARM_REL32: %x -> %x, sym %x, offset %x\012\000"
  83      4D5F5245 
  83      4C33323A 
  83      20257820 
ARM GAS  G:\Users\Jaxb\AppData\Local\Temp\cc4KUlGg.s 			page 3


  83      2D3E2025 
  84 005a 0000     		.align	2
  85              	.LC3:
  86 005c 525F4152 		.ascii	"R_ARM_JUMP_SLOT: 0x%x -> 0x%x 0x%x\012\000"
  86      4D5F4A55 
  86      4D505F53 
  86      4C4F543A 
  86      20307825 
  87              		.align	2
  88              	.LC4:
  89 0080 525F4152 		.ascii	"R_ARM_RELATIVE: 0x%x -> 0x%x 0x%x\012\000"
  89      4D5F5245 
  89      4C415449 
  89      56453A20 
  89      30782578 
  90 00a3 00       		.align	2
  91              	.LC5:
  92 00a4 4D6F6475 		.ascii	"Module: Only Thumb addresses allowed\012\000"
  92      6C653A20 
  92      4F6E6C79 
  92      20546875 
  92      6D622061 
  93 00ca 0000     		.align	2
  94              	.LC6:
  95 00cc 646F206E 		.ascii	"do nothing\012\000"
  95      6F746869 
  95      6E670A00 
  96              		.text
  97              		.align	1
  98              		.global	dlmodule_relocate
  99              		.syntax unified
 100              		.thumb
 101              		.thumb_func
 102              		.fpu softvfp
 103              		.type	dlmodule_relocate, %function
 104              	dlmodule_relocate:
 105              	.LFB10:
 106              		.file 2 "../../source/src/kernel/OS_CORE/module.c"
   1:../../source/src/kernel/OS_CORE/module.c **** #include <elf.h>
   2:../../source/src/kernel/OS_CORE/module.c **** #include <module.h>
   3:../../source/src/kernel/OS_CORE/module.c **** #include <myMicroLIB.h>
   4:../../source/src/kernel/OS_CORE/module.c **** #include <osinit.h>
   5:../../source/src/kernel/OS_CORE/module.c **** #include <os_schedule.h>
   6:../../source/src/kernel/OS_CORE/module.c **** #include <myassert.h>
   7:../../source/src/kernel/OS_CORE/module.c **** #include <export.h>
   8:../../source/src/kernel/OS_CORE/module.c **** 
   9:../../source/src/kernel/OS_CORE/module.c **** /* RT-Thread error code definitions */
  10:../../source/src/kernel/OS_CORE/module.c **** #define RT_EOK                          0               /**< There is no error */
  11:../../source/src/kernel/OS_CORE/module.c **** #define RT_ERROR                        1               /**< A generic error happens */
  12:../../source/src/kernel/OS_CORE/module.c **** #define RT_ETIMEOUT                     2               /**< Timed out */
  13:../../source/src/kernel/OS_CORE/module.c **** #define RT_EFULL                        3               /**< The resource is full */
  14:../../source/src/kernel/OS_CORE/module.c **** #define RT_EEMPTY                       4               /**< The resource is empty */
  15:../../source/src/kernel/OS_CORE/module.c **** #define RT_ENOMEM                       5               /**< No memory */
  16:../../source/src/kernel/OS_CORE/module.c **** #define RT_ENOSYS                       6               /**< No system */
  17:../../source/src/kernel/OS_CORE/module.c **** #define RT_EBUSY                        7               /**< Busy */
  18:../../source/src/kernel/OS_CORE/module.c **** #define RT_EIO                          8               /**< IO error */
  19:../../source/src/kernel/OS_CORE/module.c **** #define RT_EINTR                        9               /**< Interrupted system call */
ARM GAS  G:\Users\Jaxb\AppData\Local\Temp\cc4KUlGg.s 			page 4


  20:../../source/src/kernel/OS_CORE/module.c **** #define RT_EINVAL                       10              /**< Invalid argument */
  21:../../source/src/kernel/OS_CORE/module.c **** 
  22:../../source/src/kernel/OS_CORE/module.c **** #define elf_module        ((Elf32_Ehdr *)module_ptr)
  23:../../source/src/kernel/OS_CORE/module.c **** 
  24:../../source/src/kernel/OS_CORE/module.c **** typedef long                       rt_err_t;       /**< Type for error number */
  25:../../source/src/kernel/OS_CORE/module.c **** 
  26:../../source/src/kernel/OS_CORE/module.c **** static char *module_buffer = NULL;
  27:../../source/src/kernel/OS_CORE/module.c **** static unsigned int num = 0;
  28:../../source/src/kernel/OS_CORE/module.c **** 
  29:../../source/src/kernel/OS_CORE/module.c **** int dlmodule_relocate(struct rt_dlmodule *module, Elf32_Rel *rel, Elf32_Addr sym_val)
  30:../../source/src/kernel/OS_CORE/module.c **** {
 107              		.loc 2 30 0
 108              		.cfi_startproc
 109              		@ args = 0, pretend = 0, frame = 56
 110              		@ frame_needed = 1, uses_anonymous_args = 0
 111 001e 80B5     		push	{r7, lr}
 112              	.LCFI6:
 113              		.cfi_def_cfa_offset 8
 114              		.cfi_offset 7, -8
 115              		.cfi_offset 14, -4
 116 0020 90B0     		sub	sp, sp, #64
 117              	.LCFI7:
 118              		.cfi_def_cfa_offset 72
 119 0022 02AF     		add	r7, sp, #8
 120              	.LCFI8:
 121              		.cfi_def_cfa 7, 64
 122 0024 F860     		str	r0, [r7, #12]
 123 0026 B960     		str	r1, [r7, #8]
 124 0028 7A60     		str	r2, [r7, #4]
  31:../../source/src/kernel/OS_CORE/module.c ****     Elf32_Addr *where, tmp;
  32:../../source/src/kernel/OS_CORE/module.c ****     Elf32_Sword addend, offset;
  33:../../source/src/kernel/OS_CORE/module.c ****     UINT32 upper, lower, sign, j1, j2;
  34:../../source/src/kernel/OS_CORE/module.c **** 
  35:../../source/src/kernel/OS_CORE/module.c ****     where = (Elf32_Addr *)((UINT8 *)module->mem_space
 125              		.loc 2 35 0
 126 002a FB68     		ldr	r3, [r7, #12]
 127 002c 5A6B     		ldr	r2, [r3, #52]
  36:../../source/src/kernel/OS_CORE/module.c ****                            + rel->r_offset
 128              		.loc 2 36 0
 129 002e BB68     		ldr	r3, [r7, #8]
 130 0030 1968     		ldr	r1, [r3]
  37:../../source/src/kernel/OS_CORE/module.c ****                            - module->vstart_addr);
 131              		.loc 2 37 0
 132 0032 FB68     		ldr	r3, [r7, #12]
 133 0034 9B6A     		ldr	r3, [r3, #40]
 134 0036 CB1A     		subs	r3, r1, r3
  35:../../source/src/kernel/OS_CORE/module.c ****                            + rel->r_offset
 135              		.loc 2 35 0
 136 0038 1344     		add	r3, r3, r2
 137 003a FB62     		str	r3, [r7, #44]
  38:../../source/src/kernel/OS_CORE/module.c ****     switch (ELF32_R_TYPE(rel->r_info))
 138              		.loc 2 38 0
 139 003c BB68     		ldr	r3, [r7, #8]
 140 003e 5B68     		ldr	r3, [r3, #4]
 141 0040 DBB2     		uxtb	r3, r3
 142 0042 282B     		cmp	r3, #40
 143 0044 00F28181 		bhi	.L3
ARM GAS  G:\Users\Jaxb\AppData\Local\Temp\cc4KUlGg.s 			page 5


 144 0048 01A2     		adr	r2, .L5
 145 004a 52F823F0 		ldr	pc, [r2, r3, lsl #2]
 146 004e 00BF     		.p2align 2
 147              	.L5:
 148 0050 57030000 		.word	.L23+1
 149 0054 11010000 		.word	.L6+1
 150 0058 F5000000 		.word	.L7+1
 151 005c 65010000 		.word	.L8+1
 152 0060 4B030000 		.word	.L3+1
 153 0064 4B030000 		.word	.L3+1
 154 0068 4B030000 		.word	.L3+1
 155 006c 4B030000 		.word	.L3+1
 156 0070 4B030000 		.word	.L3+1
 157 0074 4B030000 		.word	.L3+1
 158 0078 DB010000 		.word	.L9+1
 159 007c 4B030000 		.word	.L3+1
 160 0080 4B030000 		.word	.L3+1
 161 0084 4B030000 		.word	.L3+1
 162 0088 4B030000 		.word	.L3+1
 163 008c 4B030000 		.word	.L3+1
 164 0090 4B030000 		.word	.L3+1
 165 0094 4B030000 		.word	.L3+1
 166 0098 4B030000 		.word	.L3+1
 167 009c 4B030000 		.word	.L3+1
 168 00a0 4B030000 		.word	.L3+1
 169 00a4 A9010000 		.word	.L10+1
 170 00a8 A9010000 		.word	.L10+1
 171 00ac BF010000 		.word	.L11+1
 172 00b0 4B030000 		.word	.L3+1
 173 00b4 4B030000 		.word	.L3+1
 174 00b8 4B030000 		.word	.L3+1
 175 00bc 11010000 		.word	.L6+1
 176 00c0 11010000 		.word	.L6+1
 177 00c4 11010000 		.word	.L6+1
 178 00c8 DB010000 		.word	.L9+1
 179 00cc 4B030000 		.word	.L3+1
 180 00d0 4B030000 		.word	.L3+1
 181 00d4 4B030000 		.word	.L3+1
 182 00d8 4B030000 		.word	.L3+1
 183 00dc 4B030000 		.word	.L3+1
 184 00e0 4B030000 		.word	.L3+1
 185 00e4 4B030000 		.word	.L3+1
 186 00e8 4B030000 		.word	.L3+1
 187 00ec 4B030000 		.word	.L3+1
 188 00f0 8B010000 		.word	.L12+1
 189              		.p2align 1
 190              	.L7:
  39:../../source/src/kernel/OS_CORE/module.c ****     {
  40:../../source/src/kernel/OS_CORE/module.c ****     case R_ARM_NONE:
  41:../../source/src/kernel/OS_CORE/module.c ****         break;
  42:../../source/src/kernel/OS_CORE/module.c ****     case R_ARM_ABS32:
  43:../../source/src/kernel/OS_CORE/module.c ****         *where += (Elf32_Addr)sym_val;
 191              		.loc 2 43 0
 192 00f4 FB6A     		ldr	r3, [r7, #44]
 193 00f6 1A68     		ldr	r2, [r3]
 194 00f8 7B68     		ldr	r3, [r7, #4]
 195 00fa 1A44     		add	r2, r2, r3
ARM GAS  G:\Users\Jaxb\AppData\Local\Temp\cc4KUlGg.s 			page 6


 196 00fc FB6A     		ldr	r3, [r7, #44]
 197 00fe 1A60     		str	r2, [r3]
  44:../../source/src/kernel/OS_CORE/module.c ****         ka_printf("R_ARM_ABS32: %x -> %x\n",
 198              		.loc 2 44 0
 199 0100 FB6A     		ldr	r3, [r7, #44]
 200 0102 1B68     		ldr	r3, [r3]
 201 0104 1A46     		mov	r2, r3
 202 0106 F96A     		ldr	r1, [r7, #44]
 203 0108 9648     		ldr	r0, .L24
 204 010a FFF7FEFF 		bl	ka_printf
  45:../../source/src/kernel/OS_CORE/module.c ****                   where, *where);
  46:../../source/src/kernel/OS_CORE/module.c ****         break;
 205              		.loc 2 46 0
 206 010e 23E1     		b	.L13
 207              	.L6:
  47:../../source/src/kernel/OS_CORE/module.c ****     case R_ARM_PC24:
  48:../../source/src/kernel/OS_CORE/module.c ****     case R_ARM_PLT32:
  49:../../source/src/kernel/OS_CORE/module.c ****     case R_ARM_CALL:
  50:../../source/src/kernel/OS_CORE/module.c ****     case R_ARM_JUMP24:
  51:../../source/src/kernel/OS_CORE/module.c ****         addend = *where & 0x00ffffff;
 208              		.loc 2 51 0
 209 0110 FB6A     		ldr	r3, [r7, #44]
 210 0112 1B68     		ldr	r3, [r3]
 211 0114 23F07F43 		bic	r3, r3, #-16777216
 212 0118 7B63     		str	r3, [r7, #52]
  52:../../source/src/kernel/OS_CORE/module.c ****         if (addend & 0x00800000)
 213              		.loc 2 52 0
 214 011a 7B6B     		ldr	r3, [r7, #52]
 215 011c 03F40003 		and	r3, r3, #8388608
 216 0120 002B     		cmp	r3, #0
 217 0122 03D0     		beq	.L14
  53:../../source/src/kernel/OS_CORE/module.c ****             addend |= 0xff000000;
 218              		.loc 2 53 0
 219 0124 7B6B     		ldr	r3, [r7, #52]
 220 0126 43F07F43 		orr	r3, r3, #-16777216
 221 012a 7B63     		str	r3, [r7, #52]
 222              	.L14:
  54:../../source/src/kernel/OS_CORE/module.c ****         tmp = sym_val - (Elf32_Addr)where + (addend << 2);
 223              		.loc 2 54 0
 224 012c FB6A     		ldr	r3, [r7, #44]
 225 012e 7A68     		ldr	r2, [r7, #4]
 226 0130 D31A     		subs	r3, r2, r3
 227 0132 7A6B     		ldr	r2, [r7, #52]
 228 0134 9200     		lsls	r2, r2, #2
 229 0136 1344     		add	r3, r3, r2
 230 0138 7B61     		str	r3, [r7, #20]
  55:../../source/src/kernel/OS_CORE/module.c ****         tmp >>= 2;
 231              		.loc 2 55 0
 232 013a 7B69     		ldr	r3, [r7, #20]
 233 013c 9B08     		lsrs	r3, r3, #2
 234 013e 7B61     		str	r3, [r7, #20]
  56:../../source/src/kernel/OS_CORE/module.c ****         *where = (*where & 0xff000000) | (tmp & 0x00ffffff);
 235              		.loc 2 56 0
 236 0140 FB6A     		ldr	r3, [r7, #44]
 237 0142 1B68     		ldr	r3, [r3]
 238 0144 03F07F42 		and	r2, r3, #-16777216
 239 0148 7B69     		ldr	r3, [r7, #20]
ARM GAS  G:\Users\Jaxb\AppData\Local\Temp\cc4KUlGg.s 			page 7


 240 014a 23F07F43 		bic	r3, r3, #-16777216
 241 014e 1A43     		orrs	r2, r2, r3
 242 0150 FB6A     		ldr	r3, [r7, #44]
 243 0152 1A60     		str	r2, [r3]
  57:../../source/src/kernel/OS_CORE/module.c ****         ka_printf("R_ARM_PC24: %x -> %x\n",
 244              		.loc 2 57 0
 245 0154 FB6A     		ldr	r3, [r7, #44]
 246 0156 1B68     		ldr	r3, [r3]
 247 0158 1A46     		mov	r2, r3
 248 015a F96A     		ldr	r1, [r7, #44]
 249 015c 8248     		ldr	r0, .L24+4
 250 015e FFF7FEFF 		bl	ka_printf
  58:../../source/src/kernel/OS_CORE/module.c ****                   where, *where);
  59:../../source/src/kernel/OS_CORE/module.c ****         break;
 251              		.loc 2 59 0
 252 0162 F9E0     		b	.L13
 253              	.L8:
  60:../../source/src/kernel/OS_CORE/module.c ****     case R_ARM_REL32:
  61:../../source/src/kernel/OS_CORE/module.c ****         *where += sym_val - (Elf32_Addr)where;
 254              		.loc 2 61 0
 255 0164 FB6A     		ldr	r3, [r7, #44]
 256 0166 1A68     		ldr	r2, [r3]
 257 0168 FB6A     		ldr	r3, [r7, #44]
 258 016a 7968     		ldr	r1, [r7, #4]
 259 016c CB1A     		subs	r3, r1, r3
 260 016e 1A44     		add	r2, r2, r3
 261 0170 FB6A     		ldr	r3, [r7, #44]
 262 0172 1A60     		str	r2, [r3]
  62:../../source/src/kernel/OS_CORE/module.c ****         ka_printf("R_ARM_REL32: %x -> %x, sym %x, offset %x\n",
 263              		.loc 2 62 0
 264 0174 FB6A     		ldr	r3, [r7, #44]
 265 0176 1A68     		ldr	r2, [r3]
 266 0178 BB68     		ldr	r3, [r7, #8]
 267 017a 1B68     		ldr	r3, [r3]
 268 017c 0093     		str	r3, [sp]
 269 017e 7B68     		ldr	r3, [r7, #4]
 270 0180 F96A     		ldr	r1, [r7, #44]
 271 0182 7A48     		ldr	r0, .L24+8
 272 0184 FFF7FEFF 		bl	ka_printf
  63:../../source/src/kernel/OS_CORE/module.c ****                   where, *where, sym_val, rel->r_offset);
  64:../../source/src/kernel/OS_CORE/module.c ****         break;
 273              		.loc 2 64 0
 274 0188 E6E0     		b	.L13
 275              	.L12:
  65:../../source/src/kernel/OS_CORE/module.c ****     case R_ARM_V4BX:
  66:../../source/src/kernel/OS_CORE/module.c ****         *where &= 0xf000000f;
 276              		.loc 2 66 0
 277 018a FB6A     		ldr	r3, [r7, #44]
 278 018c 1A68     		ldr	r2, [r3]
 279 018e 784B     		ldr	r3, .L24+12
 280 0190 1340     		ands	r3, r3, r2
 281 0192 FA6A     		ldr	r2, [r7, #44]
 282 0194 1360     		str	r3, [r2]
  67:../../source/src/kernel/OS_CORE/module.c ****         *where |= 0x01a0f000;
 283              		.loc 2 67 0
 284 0196 FB6A     		ldr	r3, [r7, #44]
 285 0198 1B68     		ldr	r3, [r3]
ARM GAS  G:\Users\Jaxb\AppData\Local\Temp\cc4KUlGg.s 			page 8


 286 019a 43F0D073 		orr	r3, r3, #27262976
 287 019e 43F47043 		orr	r3, r3, #61440
 288 01a2 FA6A     		ldr	r2, [r7, #44]
 289 01a4 1360     		str	r3, [r2]
  68:../../source/src/kernel/OS_CORE/module.c ****         break;
 290              		.loc 2 68 0
 291 01a6 D7E0     		b	.L13
 292              	.L10:
  69:../../source/src/kernel/OS_CORE/module.c **** 
  70:../../source/src/kernel/OS_CORE/module.c ****     case R_ARM_GLOB_DAT:
  71:../../source/src/kernel/OS_CORE/module.c ****     case R_ARM_JUMP_SLOT:
  72:../../source/src/kernel/OS_CORE/module.c ****         *where = (Elf32_Addr)sym_val;
 293              		.loc 2 72 0
 294 01a8 FB6A     		ldr	r3, [r7, #44]
 295 01aa 7A68     		ldr	r2, [r7, #4]
 296 01ac 1A60     		str	r2, [r3]
  73:../../source/src/kernel/OS_CORE/module.c ****         ka_printf("R_ARM_JUMP_SLOT: 0x%x -> 0x%x 0x%x\n",
 297              		.loc 2 73 0
 298 01ae FB6A     		ldr	r3, [r7, #44]
 299 01b0 1A68     		ldr	r2, [r3]
 300 01b2 7B68     		ldr	r3, [r7, #4]
 301 01b4 F96A     		ldr	r1, [r7, #44]
 302 01b6 6F48     		ldr	r0, .L24+16
 303 01b8 FFF7FEFF 		bl	ka_printf
  74:../../source/src/kernel/OS_CORE/module.c ****                   where, *where, sym_val);
  75:../../source/src/kernel/OS_CORE/module.c ****         break;
 304              		.loc 2 75 0
 305 01bc CCE0     		b	.L13
 306              	.L11:
  76:../../source/src/kernel/OS_CORE/module.c **** #if 0        /* To do */
  77:../../source/src/kernel/OS_CORE/module.c ****     case R_ARM_GOT_BREL:
  78:../../source/src/kernel/OS_CORE/module.c ****         temp   = (Elf32_Addr)sym_val;
  79:../../source/src/kernel/OS_CORE/module.c ****         *where = (Elf32_Addr)&temp;
  80:../../source/src/kernel/OS_CORE/module.c ****         RT_DEBUG_LOG(RT_DEBUG_MODULE, ("R_ARM_GOT_BREL: 0x%x -> 0x%x 0x%x\n",
  81:../../source/src/kernel/OS_CORE/module.c ****                                        where, *where, sym_val));
  82:../../source/src/kernel/OS_CORE/module.c ****         break;
  83:../../source/src/kernel/OS_CORE/module.c **** #endif
  84:../../source/src/kernel/OS_CORE/module.c **** 
  85:../../source/src/kernel/OS_CORE/module.c ****     case R_ARM_RELATIVE:
  86:../../source/src/kernel/OS_CORE/module.c ****         *where = (Elf32_Addr)sym_val + *where;
 307              		.loc 2 86 0
 308 01be FB6A     		ldr	r3, [r7, #44]
 309 01c0 1A68     		ldr	r2, [r3]
 310 01c2 7B68     		ldr	r3, [r7, #4]
 311 01c4 1A44     		add	r2, r2, r3
 312 01c6 FB6A     		ldr	r3, [r7, #44]
 313 01c8 1A60     		str	r2, [r3]
  87:../../source/src/kernel/OS_CORE/module.c ****         ka_printf("R_ARM_RELATIVE: 0x%x -> 0x%x 0x%x\n",
 314              		.loc 2 87 0
 315 01ca FB6A     		ldr	r3, [r7, #44]
 316 01cc 1A68     		ldr	r2, [r3]
 317 01ce 7B68     		ldr	r3, [r7, #4]
 318 01d0 F96A     		ldr	r1, [r7, #44]
 319 01d2 6948     		ldr	r0, .L24+20
 320 01d4 FFF7FEFF 		bl	ka_printf
  88:../../source/src/kernel/OS_CORE/module.c ****                   where, *where, sym_val);
  89:../../source/src/kernel/OS_CORE/module.c ****         break;
ARM GAS  G:\Users\Jaxb\AppData\Local\Temp\cc4KUlGg.s 			page 9


 321              		.loc 2 89 0
 322 01d8 BEE0     		b	.L13
 323              	.L9:
  90:../../source/src/kernel/OS_CORE/module.c ****     case R_ARM_THM_CALL:
  91:../../source/src/kernel/OS_CORE/module.c ****     case R_ARM_THM_JUMP24:
  92:../../source/src/kernel/OS_CORE/module.c ****         upper  = *(UINT16 *)where;
 324              		.loc 2 92 0
 325 01da FB6A     		ldr	r3, [r7, #44]
 326 01dc 1B88     		ldrh	r3, [r3]
 327 01de BB62     		str	r3, [r7, #40]
  93:../../source/src/kernel/OS_CORE/module.c ****         lower  = *(UINT16 *)((Elf32_Addr)where + 2);
 328              		.loc 2 93 0
 329 01e0 FB6A     		ldr	r3, [r7, #44]
 330 01e2 0233     		adds	r3, r3, #2
 331 01e4 1B88     		ldrh	r3, [r3]
 332 01e6 7B62     		str	r3, [r7, #36]
  94:../../source/src/kernel/OS_CORE/module.c **** 
  95:../../source/src/kernel/OS_CORE/module.c ****         sign   = (upper >> 10) & 1;
 333              		.loc 2 95 0
 334 01e8 BB6A     		ldr	r3, [r7, #40]
 335 01ea 9B0A     		lsrs	r3, r3, #10
 336 01ec 03F00103 		and	r3, r3, #1
 337 01f0 3B62     		str	r3, [r7, #32]
  96:../../source/src/kernel/OS_CORE/module.c ****         j1     = (lower >> 13) & 1;
 338              		.loc 2 96 0
 339 01f2 7B6A     		ldr	r3, [r7, #36]
 340 01f4 5B0B     		lsrs	r3, r3, #13
 341 01f6 03F00103 		and	r3, r3, #1
 342 01fa FB61     		str	r3, [r7, #28]
  97:../../source/src/kernel/OS_CORE/module.c ****         j2     = (lower >> 11) & 1;
 343              		.loc 2 97 0
 344 01fc 7B6A     		ldr	r3, [r7, #36]
 345 01fe DB0A     		lsrs	r3, r3, #11
 346 0200 03F00103 		and	r3, r3, #1
 347 0204 BB61     		str	r3, [r7, #24]
  98:../../source/src/kernel/OS_CORE/module.c ****         offset = (sign << 24) |
 348              		.loc 2 98 0
 349 0206 3B6A     		ldr	r3, [r7, #32]
 350 0208 1B06     		lsls	r3, r3, #24
  99:../../source/src/kernel/OS_CORE/module.c ****                  ((~(j1 ^ sign) & 1) << 23) |
 351              		.loc 2 99 0
 352 020a F969     		ldr	r1, [r7, #28]
 353 020c 3A6A     		ldr	r2, [r7, #32]
 354 020e 4A40     		eors	r2, r2, r1
 355 0210 02F00102 		and	r2, r2, #1
 356 0214 002A     		cmp	r2, #0
 357 0216 02D1     		bne	.L15
 358              		.loc 2 99 0 is_stmt 0 discriminator 1
 359 0218 4FF40002 		mov	r2, #8388608
 360 021c 00E0     		b	.L16
 361              	.L15:
 362              		.loc 2 99 0 discriminator 2
 363 021e 0022     		movs	r2, #0
 364              	.L16:
  98:../../source/src/kernel/OS_CORE/module.c ****         offset = (sign << 24) |
 365              		.loc 2 98 0 is_stmt 1
 366 0220 1343     		orrs	r3, r3, r2
ARM GAS  G:\Users\Jaxb\AppData\Local\Temp\cc4KUlGg.s 			page 10


 100:../../source/src/kernel/OS_CORE/module.c ****                  ((~(j2 ^ sign) & 1) << 22) |
 367              		.loc 2 100 0
 368 0222 B969     		ldr	r1, [r7, #24]
 369 0224 3A6A     		ldr	r2, [r7, #32]
 370 0226 4A40     		eors	r2, r2, r1
 371 0228 02F00102 		and	r2, r2, #1
 372 022c 002A     		cmp	r2, #0
 373 022e 02D1     		bne	.L17
 374              		.loc 2 100 0 is_stmt 0 discriminator 1
 375 0230 4FF48002 		mov	r2, #4194304
 376 0234 00E0     		b	.L18
 377              	.L17:
 378              		.loc 2 100 0 discriminator 2
 379 0236 0022     		movs	r2, #0
 380              	.L18:
  99:../../source/src/kernel/OS_CORE/module.c ****                  ((~(j1 ^ sign) & 1) << 23) |
 381              		.loc 2 99 0 is_stmt 1
 382 0238 1A43     		orrs	r2, r2, r3
 101:../../source/src/kernel/OS_CORE/module.c ****                  ((upper & 0x03ff) << 12) |
 383              		.loc 2 101 0
 384 023a BB6A     		ldr	r3, [r7, #40]
 385 023c 1903     		lsls	r1, r3, #12
 386 023e 4F4B     		ldr	r3, .L24+24
 387 0240 0B40     		ands	r3, r3, r1
 100:../../source/src/kernel/OS_CORE/module.c ****                  ((~(j2 ^ sign) & 1) << 22) |
 388              		.loc 2 100 0
 389 0242 1A43     		orrs	r2, r2, r3
 102:../../source/src/kernel/OS_CORE/module.c ****                  ((lower & 0x07ff) << 1);
 390              		.loc 2 102 0
 391 0244 7B6A     		ldr	r3, [r7, #36]
 392 0246 5900     		lsls	r1, r3, #1
 393 0248 40F6FE73 		movw	r3, #4094
 394 024c 0B40     		ands	r3, r3, r1
 101:../../source/src/kernel/OS_CORE/module.c ****                  ((upper & 0x03ff) << 12) |
 395              		.loc 2 101 0
 396 024e 1343     		orrs	r3, r3, r2
  98:../../source/src/kernel/OS_CORE/module.c ****                  ((~(j1 ^ sign) & 1) << 23) |
 397              		.loc 2 98 0
 398 0250 3B63     		str	r3, [r7, #48]
 103:../../source/src/kernel/OS_CORE/module.c ****         if (offset & 0x01000000)
 399              		.loc 2 103 0
 400 0252 3B6B     		ldr	r3, [r7, #48]
 401 0254 03F08073 		and	r3, r3, #16777216
 402 0258 002B     		cmp	r3, #0
 403 025a 03D0     		beq	.L19
 104:../../source/src/kernel/OS_CORE/module.c ****             offset -= 0x02000000;
 404              		.loc 2 104 0
 405 025c 3B6B     		ldr	r3, [r7, #48]
 406 025e 03F17E43 		add	r3, r3, #-33554432
 407 0262 3B63     		str	r3, [r7, #48]
 408              	.L19:
 105:../../source/src/kernel/OS_CORE/module.c ****         offset += sym_val - (Elf32_Addr)where;
 409              		.loc 2 105 0
 410 0264 FB6A     		ldr	r3, [r7, #44]
 411 0266 7A68     		ldr	r2, [r7, #4]
 412 0268 D21A     		subs	r2, r2, r3
 413 026a 3B6B     		ldr	r3, [r7, #48]
ARM GAS  G:\Users\Jaxb\AppData\Local\Temp\cc4KUlGg.s 			page 11


 414 026c 1344     		add	r3, r3, r2
 415 026e 3B63     		str	r3, [r7, #48]
 106:../../source/src/kernel/OS_CORE/module.c **** 
 107:../../source/src/kernel/OS_CORE/module.c ****         if (!(offset & 1) ||
 416              		.loc 2 107 0
 417 0270 3B6B     		ldr	r3, [r7, #48]
 418 0272 03F00103 		and	r3, r3, #1
 419 0276 002B     		cmp	r3, #0
 420 0278 07D0     		beq	.L20
 421              		.loc 2 107 0 is_stmt 0 discriminator 1
 422 027a 3B6B     		ldr	r3, [r7, #48]
 423 027c B3F17F4F 		cmp	r3, #-16777216
 424 0280 03DD     		ble	.L20
 108:../../source/src/kernel/OS_CORE/module.c ****                 offset <= (INT32)0xff000000 ||
 425              		.loc 2 108 0 is_stmt 1
 426 0282 3B6B     		ldr	r3, [r7, #48]
 427 0284 B3F1807F 		cmp	r3, #16777216
 428 0288 05DB     		blt	.L21
 429              	.L20:
 109:../../source/src/kernel/OS_CORE/module.c ****                 offset >= (INT32)0x01000000)
 110:../../source/src/kernel/OS_CORE/module.c ****         {
 111:../../source/src/kernel/OS_CORE/module.c ****             ka_printf("Module: Only Thumb addresses allowed\n");
 430              		.loc 2 111 0
 431 028a 3D48     		ldr	r0, .L24+28
 432 028c FFF7FEFF 		bl	ka_printf
 112:../../source/src/kernel/OS_CORE/module.c **** 
 113:../../source/src/kernel/OS_CORE/module.c ****             return -1;
 433              		.loc 2 113 0
 434 0290 4FF0FF33 		mov	r3, #-1
 435 0294 61E0     		b	.L22
 436              	.L21:
 114:../../source/src/kernel/OS_CORE/module.c ****         }
 115:../../source/src/kernel/OS_CORE/module.c **** 
 116:../../source/src/kernel/OS_CORE/module.c ****         sign = (offset >> 24) & 1;
 437              		.loc 2 116 0
 438 0296 3B6B     		ldr	r3, [r7, #48]
 439 0298 1B16     		asrs	r3, r3, #24
 440 029a 03F00103 		and	r3, r3, #1
 441 029e 3B62     		str	r3, [r7, #32]
 117:../../source/src/kernel/OS_CORE/module.c ****         j1   = sign ^ (~(offset >> 23) & 1);
 442              		.loc 2 117 0
 443 02a0 3B6B     		ldr	r3, [r7, #48]
 444 02a2 03F40003 		and	r3, r3, #8388608
 445 02a6 002B     		cmp	r3, #0
 446 02a8 0CBF     		ite	eq
 447 02aa 0123     		moveq	r3, #1
 448 02ac 0023     		movne	r3, #0
 449 02ae DBB2     		uxtb	r3, r3
 450 02b0 1A46     		mov	r2, r3
 451 02b2 3B6A     		ldr	r3, [r7, #32]
 452 02b4 5340     		eors	r3, r3, r2
 453 02b6 FB61     		str	r3, [r7, #28]
 118:../../source/src/kernel/OS_CORE/module.c ****         j2   = sign ^ (~(offset >> 22) & 1);
 454              		.loc 2 118 0
 455 02b8 3B6B     		ldr	r3, [r7, #48]
 456 02ba 03F48003 		and	r3, r3, #4194304
 457 02be 002B     		cmp	r3, #0
ARM GAS  G:\Users\Jaxb\AppData\Local\Temp\cc4KUlGg.s 			page 12


 458 02c0 0CBF     		ite	eq
 459 02c2 0123     		moveq	r3, #1
 460 02c4 0023     		movne	r3, #0
 461 02c6 DBB2     		uxtb	r3, r3
 462 02c8 1A46     		mov	r2, r3
 463 02ca 3B6A     		ldr	r3, [r7, #32]
 464 02cc 5340     		eors	r3, r3, r2
 465 02ce BB61     		str	r3, [r7, #24]
 119:../../source/src/kernel/OS_CORE/module.c ****         *(UINT16 *)where = (UINT16)((upper & 0xf800) |
 466              		.loc 2 119 0
 467 02d0 BB6A     		ldr	r3, [r7, #40]
 468 02d2 9BB2     		uxth	r3, r3
 469 02d4 23F4FF63 		bic	r3, r3, #2040
 470 02d8 23F00703 		bic	r3, r3, #7
 471 02dc 9AB2     		uxth	r2, r3
 120:../../source/src/kernel/OS_CORE/module.c ****                                     (sign << 10) |
 472              		.loc 2 120 0
 473 02de 3B6A     		ldr	r3, [r7, #32]
 474 02e0 9BB2     		uxth	r3, r3
 475 02e2 9B02     		lsls	r3, r3, #10
 476 02e4 9BB2     		uxth	r3, r3
 119:../../source/src/kernel/OS_CORE/module.c ****         *(UINT16 *)where = (UINT16)((upper & 0xf800) |
 477              		.loc 2 119 0
 478 02e6 1343     		orrs	r3, r3, r2
 479 02e8 9AB2     		uxth	r2, r3
 121:../../source/src/kernel/OS_CORE/module.c ****                                     ((offset >> 12) & 0x03ff));
 480              		.loc 2 121 0
 481 02ea 3B6B     		ldr	r3, [r7, #48]
 482 02ec 1B13     		asrs	r3, r3, #12
 483 02ee 9BB2     		uxth	r3, r3
 484 02f0 C3F30903 		ubfx	r3, r3, #0, #10
 485 02f4 9BB2     		uxth	r3, r3
 119:../../source/src/kernel/OS_CORE/module.c ****         *(UINT16 *)where = (UINT16)((upper & 0xf800) |
 486              		.loc 2 119 0
 487 02f6 1343     		orrs	r3, r3, r2
 488 02f8 9AB2     		uxth	r2, r3
 489 02fa FB6A     		ldr	r3, [r7, #44]
 490 02fc 1A80     		strh	r2, [r3]	@ movhi
 122:../../source/src/kernel/OS_CORE/module.c ****         *(UINT16 *)(where + 2) = (UINT16)((lower & 0xd000) |
 491              		.loc 2 122 0
 492 02fe 7B6A     		ldr	r3, [r7, #36]
 493 0300 9BB2     		uxth	r3, r3
 494 0302 23F43F53 		bic	r3, r3, #12224
 495 0306 23F03F03 		bic	r3, r3, #63
 496 030a 9AB2     		uxth	r2, r3
 123:../../source/src/kernel/OS_CORE/module.c ****                                           (j1 << 13) | (j2 << 11) |
 497              		.loc 2 123 0
 498 030c FB69     		ldr	r3, [r7, #28]
 499 030e 9BB2     		uxth	r3, r3
 500 0310 5B03     		lsls	r3, r3, #13
 501 0312 9BB2     		uxth	r3, r3
 122:../../source/src/kernel/OS_CORE/module.c ****         *(UINT16 *)(where + 2) = (UINT16)((lower & 0xd000) |
 502              		.loc 2 122 0
 503 0314 1343     		orrs	r3, r3, r2
 504 0316 9AB2     		uxth	r2, r3
 505              		.loc 2 123 0
 506 0318 BB69     		ldr	r3, [r7, #24]
ARM GAS  G:\Users\Jaxb\AppData\Local\Temp\cc4KUlGg.s 			page 13


 507 031a 9BB2     		uxth	r3, r3
 508 031c DB02     		lsls	r3, r3, #11
 509 031e 9BB2     		uxth	r3, r3
 510 0320 1343     		orrs	r3, r3, r2
 511 0322 99B2     		uxth	r1, r3
 124:../../source/src/kernel/OS_CORE/module.c ****                                           ((offset >> 1) & 0x07ff));
 512              		.loc 2 124 0
 513 0324 3B6B     		ldr	r3, [r7, #48]
 514 0326 5B10     		asrs	r3, r3, #1
 515 0328 9BB2     		uxth	r3, r3
 516 032a C3F30A03 		ubfx	r3, r3, #0, #11
 517 032e 9AB2     		uxth	r2, r3
 122:../../source/src/kernel/OS_CORE/module.c ****         *(UINT16 *)(where + 2) = (UINT16)((lower & 0xd000) |
 518              		.loc 2 122 0
 519 0330 FB6A     		ldr	r3, [r7, #44]
 520 0332 0833     		adds	r3, r3, #8
 521 0334 0A43     		orrs	r2, r2, r1
 522 0336 92B2     		uxth	r2, r2
 523 0338 1A80     		strh	r2, [r3]	@ movhi
 125:../../source/src/kernel/OS_CORE/module.c ****         upper = *(UINT16 *)where;
 524              		.loc 2 125 0
 525 033a FB6A     		ldr	r3, [r7, #44]
 526 033c 1B88     		ldrh	r3, [r3]
 527 033e BB62     		str	r3, [r7, #40]
 126:../../source/src/kernel/OS_CORE/module.c ****         lower = *(UINT16 *)((Elf32_Addr)where + 2);
 528              		.loc 2 126 0
 529 0340 FB6A     		ldr	r3, [r7, #44]
 530 0342 0233     		adds	r3, r3, #2
 531 0344 1B88     		ldrh	r3, [r3]
 532 0346 7B62     		str	r3, [r7, #36]
 127:../../source/src/kernel/OS_CORE/module.c ****         break;
 533              		.loc 2 127 0
 534 0348 06E0     		b	.L13
 535              	.L3:
 128:../../source/src/kernel/OS_CORE/module.c ****     default:
 129:../../source/src/kernel/OS_CORE/module.c ****         ka_printf("do nothing\n");
 536              		.loc 2 129 0
 537 034a 0E48     		ldr	r0, .L24+32
 538 034c FFF7FEFF 		bl	ka_printf
 130:../../source/src/kernel/OS_CORE/module.c ****         return -1;
 539              		.loc 2 130 0
 540 0350 4FF0FF33 		mov	r3, #-1
 541 0354 01E0     		b	.L22
 542              	.L23:
  41:../../source/src/kernel/OS_CORE/module.c ****     case R_ARM_ABS32:
 543              		.loc 2 41 0
 544 0356 00BF     		nop
 545              	.L13:
 131:../../source/src/kernel/OS_CORE/module.c ****     }
 132:../../source/src/kernel/OS_CORE/module.c **** 
 133:../../source/src/kernel/OS_CORE/module.c ****     return 0;
 546              		.loc 2 133 0
 547 0358 0023     		movs	r3, #0
 548              	.L22:
 134:../../source/src/kernel/OS_CORE/module.c **** }
 549              		.loc 2 134 0
 550 035a 1846     		mov	r0, r3
ARM GAS  G:\Users\Jaxb\AppData\Local\Temp\cc4KUlGg.s 			page 14


 551 035c 3837     		adds	r7, r7, #56
 552              	.LCFI9:
 553              		.cfi_def_cfa_offset 8
 554 035e BD46     		mov	sp, r7
 555              	.LCFI10:
 556              		.cfi_def_cfa_register 13
 557              		@ sp needed
 558 0360 80BD     		pop	{r7, pc}
 559              	.L25:
 560 0362 00BF     		.align	2
 561              	.L24:
 562 0364 00000000 		.word	.LC0
 563 0368 18000000 		.word	.LC1
 564 036c 30000000 		.word	.LC2
 565 0370 0F0000F0 		.word	-268435441
 566 0374 5C000000 		.word	.LC3
 567 0378 80000000 		.word	.LC4
 568 037c 00F03F00 		.word	4190208
 569 0380 A4000000 		.word	.LC5
 570 0384 CC000000 		.word	.LC6
 571              		.cfi_endproc
 572              	.LFE10:
 573              		.size	dlmodule_relocate, .-dlmodule_relocate
 574              		.section	.rodata
 575              		.align	2
 576              	.LC7:
 577 00d8 2E2E2F2E 		.ascii	"../../source/src/kernel/OS_CORE/module.c\000"
 577      2E2F736F 
 577      75726365 
 577      2F737263 
 577      2F6B6572 
 578 0101 000000   		.align	2
 579              	.LC8:
 580 0104 4C4F4144 		.ascii	"LOAD segment: %d, 0x%p, 0x%x\012\000"
 580      20736567 
 580      6D656E74 
 580      3A202564 
 580      2C203078 
 581 0122 0000     		.align	2
 582              	.LC9:
 583 0124 696E7661 		.ascii	"invalid elf: segment %d: p_memsz: %d, p_filesz: %d\012"
 583      6C696420 
 583      656C663A 
 583      20736567 
 583      6D656E74 
 584 0157 00       		.ascii	"\000"
 585              		.align	2
 586              	.LC10:
 587 0158 696E7661 		.ascii	"invalid elf: segment %d: p_vaddr: %d, p_memsz: %d\012"
 587      6C696420 
 587      656C663A 
 587      20736567 
 587      6D656E74 
 588 018a 00       		.ascii	"\000"
 589 018b 00       		.align	2
 590              	.LC11:
 591 018c 696E7661 		.ascii	"invalid elf: segment should be sorted and not overl"
ARM GAS  G:\Users\Jaxb\AppData\Local\Temp\cc4KUlGg.s 			page 15


 591      6C696420 
 591      656C663A 
 591      20736567 
 591      6D656E74 
 592 01bf 61707065 		.ascii	"apped\012\000"
 592      640A00
 593 01c6 0000     		.align	2
 594              	.LC12:
 595 01c8 7761726E 		.ascii	"warning: too much padding before segment %d\012\000"
 595      696E673A 
 595      20746F6F 
 595      206D7563 
 595      68207061 
 596 01f5 000000   		.align	2
 597              	.LC13:
 598 01f8 696E7661 		.ascii	"invalid elf: segment %d address overflow\012\000"
 598      6C696420 
 598      656C663A 
 598      20736567 
 598      6D656E74 
 599 0222 0000     		.align	2
 600              	.LC14:
 601 0224 6D6F6475 		.ascii	"module size: %d, vstart_addr: 0x%p\012\000"
 601      6C652073 
 601      697A653A 
 601      2025642C 
 601      20767374 
 602              		.align	2
 603              	.LC15:
 604 0248 4D6F6475 		.ascii	"Module: size error\012\000"
 604      6C653A20 
 604      73697A65 
 604      20657272 
 604      6F720A00 
 605              		.align	2
 606              	.LC16:
 607 025c 4D6F6475 		.ascii	"Module: allocate space failed.\012\000"
 607      6C653A20 
 607      616C6C6F 
 607      63617465 
 607      20737061 
 608              		.align	2
 609              	.LC17:
 610 027c 310A00   		.ascii	"1\012\000"
 611 027f 00       		.align	2
 612              	.LC18:
 613 0280 72656C6F 		.ascii	"relocate symbol %s shndx %d\000"
 613      63617465 
 613      2073796D 
 613      626F6C20 
 613      25732073 
 614              		.align	2
 615              	.LC19:
 616 029c 72656C6F 		.ascii	"relocate symbol: %s\000"
 616      63617465 
 616      2073796D 
 616      626F6C3A 
ARM GAS  G:\Users\Jaxb\AppData\Local\Temp\cc4KUlGg.s 			page 16


 616      20257300 
 617              		.align	2
 618              	.LC20:
 619 02b0 4D6F6475 		.ascii	"Module: can't find %s in kernel symbol table\000"
 619      6C653A20 
 619      63616E27 
 619      74206669 
 619      6E642025 
 620 02dd 000000   		.align	2
 621              	.LC21:
 622 02e0 320A00   		.ascii	"2\012\000"
 623 02e3 00       		.align	2
 624              	.LC22:
 625 02e4 2E64796E 		.ascii	".dynsym\000"
 625      73796D00 
 626              		.align	2
 627              	.LC23:
 628 02ec 330A00   		.ascii	"3\012\000"
 629              		.text
 630              		.align	1
 631              		.global	dlmodule_load_shared_object
 632              		.syntax unified
 633              		.thumb
 634              		.thumb_func
 635              		.fpu softvfp
 636              		.type	dlmodule_load_shared_object, %function
 637              	dlmodule_load_shared_object:
 638              	.LFB11:
 135:../../source/src/kernel/OS_CORE/module.c **** 
 136:../../source/src/kernel/OS_CORE/module.c **** rt_err_t dlmodule_load_shared_object(struct rt_dlmodule* module, void *module_ptr)
 137:../../source/src/kernel/OS_CORE/module.c **** {
 639              		.loc 2 137 0
 640              		.cfi_startproc
 641              		@ args = 0, pretend = 0, frame = 88
 642              		@ frame_needed = 1, uses_anonymous_args = 0
 643 0388 90B5     		push	{r4, r7, lr}
 644              	.LCFI11:
 645              		.cfi_def_cfa_offset 12
 646              		.cfi_offset 4, -12
 647              		.cfi_offset 7, -8
 648              		.cfi_offset 14, -4
 649 038a 97B0     		sub	sp, sp, #92
 650              	.LCFI12:
 651              		.cfi_def_cfa_offset 104
 652 038c 00AF     		add	r7, sp, #0
 653              	.LCFI13:
 654              		.cfi_def_cfa_register 7
 655 038e 7860     		str	r0, [r7, #4]
 656 0390 3960     		str	r1, [r7]
 138:../../source/src/kernel/OS_CORE/module.c ****     rt_bool_t linked   = RT_FALSE;
 657              		.loc 2 138 0
 658 0392 0023     		movs	r3, #0
 659 0394 7B63     		str	r3, [r7, #52]
 139:../../source/src/kernel/OS_CORE/module.c ****     UINT32 index, module_size = 0;
 660              		.loc 2 139 0
 661 0396 0023     		movs	r3, #0
 662 0398 3B63     		str	r3, [r7, #48]
ARM GAS  G:\Users\Jaxb\AppData\Local\Temp\cc4KUlGg.s 			page 17


 140:../../source/src/kernel/OS_CORE/module.c ****     Elf32_Addr vstart_addr, vend_addr;
 141:../../source/src/kernel/OS_CORE/module.c ****     rt_bool_t has_vstart;
 142:../../source/src/kernel/OS_CORE/module.c **** 
 143:../../source/src/kernel/OS_CORE/module.c ****     ASSERT(module_ptr != NULL);
 663              		.loc 2 143 0
 664 039a 3B68     		ldr	r3, [r7]
 665 039c 002B     		cmp	r3, #0
 666 039e 03D1     		bne	.L27
 667              		.loc 2 143 0 is_stmt 0 discriminator 1
 668 03a0 8F21     		movs	r1, #143
 669 03a2 8A48     		ldr	r0, .L69
 670 03a4 FFF7FEFF 		bl	_ASSERT
 671              	.L27:
 144:../../source/src/kernel/OS_CORE/module.c **** 
 145:../../source/src/kernel/OS_CORE/module.c ****     /* get the ELF image size */
 146:../../source/src/kernel/OS_CORE/module.c ****     has_vstart = RT_FALSE;
 672              		.loc 2 146 0 is_stmt 1
 673 03a8 0023     		movs	r3, #0
 674 03aa BB64     		str	r3, [r7, #72]
 147:../../source/src/kernel/OS_CORE/module.c ****     vstart_addr = vend_addr = NULL;
 675              		.loc 2 147 0
 676 03ac 0023     		movs	r3, #0
 677 03ae FB64     		str	r3, [r7, #76]
 678 03b0 FB6C     		ldr	r3, [r7, #76]
 679 03b2 3B65     		str	r3, [r7, #80]
 148:../../source/src/kernel/OS_CORE/module.c ****     for (index = 0; index < elf_module->e_phnum; index++)
 680              		.loc 2 148 0
 681 03b4 0023     		movs	r3, #0
 682 03b6 7B65     		str	r3, [r7, #84]
 683 03b8 CAE0     		b	.L28
 684              	.L36:
 149:../../source/src/kernel/OS_CORE/module.c ****     {
 150:../../source/src/kernel/OS_CORE/module.c ****         if (phdr[index].p_type != PT_LOAD)
 685              		.loc 2 150 0
 686 03ba 3B68     		ldr	r3, [r7]
 687 03bc DA69     		ldr	r2, [r3, #28]
 688 03be 7B6D     		ldr	r3, [r7, #84]
 689 03c0 5B01     		lsls	r3, r3, #5
 690 03c2 1344     		add	r3, r3, r2
 691 03c4 3A68     		ldr	r2, [r7]
 692 03c6 1344     		add	r3, r3, r2
 693 03c8 1B68     		ldr	r3, [r3]
 694 03ca 012B     		cmp	r3, #1
 695 03cc 40F0BC80 		bne	.L65
 151:../../source/src/kernel/OS_CORE/module.c ****             continue;
 152:../../source/src/kernel/OS_CORE/module.c **** 
 153:../../source/src/kernel/OS_CORE/module.c ****         ka_printf("LOAD segment: %d, 0x%p, 0x%x\n", index, phdr[index].p_vaddr, phdr[index].p_memsz
 696              		.loc 2 153 0
 697 03d0 3B68     		ldr	r3, [r7]
 698 03d2 DA69     		ldr	r2, [r3, #28]
 699 03d4 7B6D     		ldr	r3, [r7, #84]
 700 03d6 5B01     		lsls	r3, r3, #5
 701 03d8 1344     		add	r3, r3, r2
 702 03da 3A68     		ldr	r2, [r7]
 703 03dc 1344     		add	r3, r3, r2
 704 03de 9968     		ldr	r1, [r3, #8]
 705 03e0 3B68     		ldr	r3, [r7]
ARM GAS  G:\Users\Jaxb\AppData\Local\Temp\cc4KUlGg.s 			page 18


 706 03e2 DA69     		ldr	r2, [r3, #28]
 707 03e4 7B6D     		ldr	r3, [r7, #84]
 708 03e6 5B01     		lsls	r3, r3, #5
 709 03e8 1344     		add	r3, r3, r2
 710 03ea 3A68     		ldr	r2, [r7]
 711 03ec 1344     		add	r3, r3, r2
 712 03ee 5B69     		ldr	r3, [r3, #20]
 713 03f0 0A46     		mov	r2, r1
 714 03f2 796D     		ldr	r1, [r7, #84]
 715 03f4 7648     		ldr	r0, .L69+4
 716 03f6 FFF7FEFF 		bl	ka_printf
 154:../../source/src/kernel/OS_CORE/module.c **** 
 155:../../source/src/kernel/OS_CORE/module.c ****         if (phdr[index].p_memsz < phdr[index].p_filesz)
 717              		.loc 2 155 0
 718 03fa 3B68     		ldr	r3, [r7]
 719 03fc DA69     		ldr	r2, [r3, #28]
 720 03fe 7B6D     		ldr	r3, [r7, #84]
 721 0400 5B01     		lsls	r3, r3, #5
 722 0402 1344     		add	r3, r3, r2
 723 0404 3A68     		ldr	r2, [r7]
 724 0406 1344     		add	r3, r3, r2
 725 0408 5A69     		ldr	r2, [r3, #20]
 726 040a 3B68     		ldr	r3, [r7]
 727 040c D969     		ldr	r1, [r3, #28]
 728 040e 7B6D     		ldr	r3, [r7, #84]
 729 0410 5B01     		lsls	r3, r3, #5
 730 0412 0B44     		add	r3, r3, r1
 731 0414 3968     		ldr	r1, [r7]
 732 0416 0B44     		add	r3, r3, r1
 733 0418 1B69     		ldr	r3, [r3, #16]
 734 041a 9A42     		cmp	r2, r3
 735 041c 16D2     		bcs	.L31
 156:../../source/src/kernel/OS_CORE/module.c ****         {
 157:../../source/src/kernel/OS_CORE/module.c ****             ka_printf("invalid elf: segment %d: p_memsz: %d, p_filesz: %d\n",
 158:../../source/src/kernel/OS_CORE/module.c ****                        index, phdr[index].p_memsz, phdr[index].p_filesz);
 736              		.loc 2 158 0
 737 041e 3B68     		ldr	r3, [r7]
 738 0420 DA69     		ldr	r2, [r3, #28]
 739 0422 7B6D     		ldr	r3, [r7, #84]
 740 0424 5B01     		lsls	r3, r3, #5
 741 0426 1344     		add	r3, r3, r2
 742 0428 3A68     		ldr	r2, [r7]
 743 042a 1344     		add	r3, r3, r2
 157:../../source/src/kernel/OS_CORE/module.c ****                        index, phdr[index].p_memsz, phdr[index].p_filesz);
 744              		.loc 2 157 0
 745 042c 5969     		ldr	r1, [r3, #20]
 746              		.loc 2 158 0
 747 042e 3B68     		ldr	r3, [r7]
 748 0430 DA69     		ldr	r2, [r3, #28]
 749 0432 7B6D     		ldr	r3, [r7, #84]
 750 0434 5B01     		lsls	r3, r3, #5
 751 0436 1344     		add	r3, r3, r2
 752 0438 3A68     		ldr	r2, [r7]
 753 043a 1344     		add	r3, r3, r2
 157:../../source/src/kernel/OS_CORE/module.c ****                        index, phdr[index].p_memsz, phdr[index].p_filesz);
 754              		.loc 2 157 0
 755 043c 1B69     		ldr	r3, [r3, #16]
ARM GAS  G:\Users\Jaxb\AppData\Local\Temp\cc4KUlGg.s 			page 19


 756 043e 0A46     		mov	r2, r1
 757 0440 796D     		ldr	r1, [r7, #84]
 758 0442 6448     		ldr	r0, .L69+8
 759 0444 FFF7FEFF 		bl	ka_printf
 159:../../source/src/kernel/OS_CORE/module.c ****             return NULL;
 760              		.loc 2 159 0
 761 0448 0023     		movs	r3, #0
 762 044a 10E3     		b	.L32
 763              	.L31:
 160:../../source/src/kernel/OS_CORE/module.c ****         }
 161:../../source/src/kernel/OS_CORE/module.c ****         if (!has_vstart)
 764              		.loc 2 161 0
 765 044c BB6C     		ldr	r3, [r7, #72]
 766 044e 002B     		cmp	r3, #0
 767 0450 37D1     		bne	.L33
 162:../../source/src/kernel/OS_CORE/module.c ****         {
 163:../../source/src/kernel/OS_CORE/module.c ****             vstart_addr = phdr[index].p_vaddr;
 768              		.loc 2 163 0
 769 0452 3B68     		ldr	r3, [r7]
 770 0454 DA69     		ldr	r2, [r3, #28]
 771 0456 7B6D     		ldr	r3, [r7, #84]
 772 0458 5B01     		lsls	r3, r3, #5
 773 045a 1344     		add	r3, r3, r2
 774 045c 3A68     		ldr	r2, [r7]
 775 045e 1344     		add	r3, r3, r2
 776 0460 9B68     		ldr	r3, [r3, #8]
 777 0462 3B65     		str	r3, [r7, #80]
 164:../../source/src/kernel/OS_CORE/module.c ****             vend_addr = phdr[index].p_vaddr + phdr[index].p_memsz;
 778              		.loc 2 164 0
 779 0464 3B68     		ldr	r3, [r7]
 780 0466 DA69     		ldr	r2, [r3, #28]
 781 0468 7B6D     		ldr	r3, [r7, #84]
 782 046a 5B01     		lsls	r3, r3, #5
 783 046c 1344     		add	r3, r3, r2
 784 046e 3A68     		ldr	r2, [r7]
 785 0470 1344     		add	r3, r3, r2
 786 0472 9A68     		ldr	r2, [r3, #8]
 787 0474 3B68     		ldr	r3, [r7]
 788 0476 D969     		ldr	r1, [r3, #28]
 789 0478 7B6D     		ldr	r3, [r7, #84]
 790 047a 5B01     		lsls	r3, r3, #5
 791 047c 0B44     		add	r3, r3, r1
 792 047e 3968     		ldr	r1, [r7]
 793 0480 0B44     		add	r3, r3, r1
 794 0482 5B69     		ldr	r3, [r3, #20]
 795 0484 1344     		add	r3, r3, r2
 796 0486 FB64     		str	r3, [r7, #76]
 165:../../source/src/kernel/OS_CORE/module.c ****             has_vstart = RT_TRUE;
 797              		.loc 2 165 0
 798 0488 0123     		movs	r3, #1
 799 048a BB64     		str	r3, [r7, #72]
 166:../../source/src/kernel/OS_CORE/module.c ****             if (vend_addr < vstart_addr)
 800              		.loc 2 166 0
 801 048c FA6C     		ldr	r2, [r7, #76]
 802 048e 3B6D     		ldr	r3, [r7, #80]
 803 0490 9A42     		cmp	r2, r3
 804 0492 5AD2     		bcs	.L30
ARM GAS  G:\Users\Jaxb\AppData\Local\Temp\cc4KUlGg.s 			page 20


 167:../../source/src/kernel/OS_CORE/module.c ****             {
 168:../../source/src/kernel/OS_CORE/module.c ****                 ka_printf("invalid elf: segment %d: p_vaddr: %d, p_memsz: %d\n",
 169:../../source/src/kernel/OS_CORE/module.c ****                            index, phdr[index].p_vaddr, phdr[index].p_memsz);
 805              		.loc 2 169 0
 806 0494 3B68     		ldr	r3, [r7]
 807 0496 DA69     		ldr	r2, [r3, #28]
 808 0498 7B6D     		ldr	r3, [r7, #84]
 809 049a 5B01     		lsls	r3, r3, #5
 810 049c 1344     		add	r3, r3, r2
 811 049e 3A68     		ldr	r2, [r7]
 812 04a0 1344     		add	r3, r3, r2
 168:../../source/src/kernel/OS_CORE/module.c ****                            index, phdr[index].p_vaddr, phdr[index].p_memsz);
 813              		.loc 2 168 0
 814 04a2 9968     		ldr	r1, [r3, #8]
 815              		.loc 2 169 0
 816 04a4 3B68     		ldr	r3, [r7]
 817 04a6 DA69     		ldr	r2, [r3, #28]
 818 04a8 7B6D     		ldr	r3, [r7, #84]
 819 04aa 5B01     		lsls	r3, r3, #5
 820 04ac 1344     		add	r3, r3, r2
 821 04ae 3A68     		ldr	r2, [r7]
 822 04b0 1344     		add	r3, r3, r2
 168:../../source/src/kernel/OS_CORE/module.c ****                            index, phdr[index].p_vaddr, phdr[index].p_memsz);
 823              		.loc 2 168 0
 824 04b2 5B69     		ldr	r3, [r3, #20]
 825 04b4 0A46     		mov	r2, r1
 826 04b6 796D     		ldr	r1, [r7, #84]
 827 04b8 4748     		ldr	r0, .L69+12
 828 04ba FFF7FEFF 		bl	ka_printf
 170:../../source/src/kernel/OS_CORE/module.c ****                 return NULL;
 829              		.loc 2 170 0
 830 04be 0023     		movs	r3, #0
 831 04c0 D5E2     		b	.L32
 832              	.L33:
 171:../../source/src/kernel/OS_CORE/module.c ****             }
 172:../../source/src/kernel/OS_CORE/module.c ****         }
 173:../../source/src/kernel/OS_CORE/module.c ****         else
 174:../../source/src/kernel/OS_CORE/module.c ****         {
 175:../../source/src/kernel/OS_CORE/module.c ****             if (phdr[index].p_vaddr < vend_addr)
 833              		.loc 2 175 0
 834 04c2 3B68     		ldr	r3, [r7]
 835 04c4 DA69     		ldr	r2, [r3, #28]
 836 04c6 7B6D     		ldr	r3, [r7, #84]
 837 04c8 5B01     		lsls	r3, r3, #5
 838 04ca 1344     		add	r3, r3, r2
 839 04cc 3A68     		ldr	r2, [r7]
 840 04ce 1344     		add	r3, r3, r2
 841 04d0 9B68     		ldr	r3, [r3, #8]
 842 04d2 FA6C     		ldr	r2, [r7, #76]
 843 04d4 9A42     		cmp	r2, r3
 844 04d6 04D9     		bls	.L34
 176:../../source/src/kernel/OS_CORE/module.c ****             {
 177:../../source/src/kernel/OS_CORE/module.c ****                 ka_printf("invalid elf: segment should be sorted and not overlapped\n");
 845              		.loc 2 177 0
 846 04d8 4048     		ldr	r0, .L69+16
 847 04da FFF7FEFF 		bl	ka_printf
 178:../../source/src/kernel/OS_CORE/module.c ****                 return NULL;
ARM GAS  G:\Users\Jaxb\AppData\Local\Temp\cc4KUlGg.s 			page 21


 848              		.loc 2 178 0
 849 04de 0023     		movs	r3, #0
 850 04e0 C5E2     		b	.L32
 851              	.L34:
 179:../../source/src/kernel/OS_CORE/module.c ****             }
 180:../../source/src/kernel/OS_CORE/module.c ****             if (phdr[index].p_vaddr > vend_addr + 16)
 852              		.loc 2 180 0
 853 04e2 3B68     		ldr	r3, [r7]
 854 04e4 DA69     		ldr	r2, [r3, #28]
 855 04e6 7B6D     		ldr	r3, [r7, #84]
 856 04e8 5B01     		lsls	r3, r3, #5
 857 04ea 1344     		add	r3, r3, r2
 858 04ec 3A68     		ldr	r2, [r7]
 859 04ee 1344     		add	r3, r3, r2
 860 04f0 9A68     		ldr	r2, [r3, #8]
 861 04f2 FB6C     		ldr	r3, [r7, #76]
 862 04f4 1033     		adds	r3, r3, #16
 863 04f6 9A42     		cmp	r2, r3
 864 04f8 03D9     		bls	.L35
 181:../../source/src/kernel/OS_CORE/module.c ****             {
 182:../../source/src/kernel/OS_CORE/module.c ****                 /* There should not be too much padding in the object files. */
 183:../../source/src/kernel/OS_CORE/module.c ****                 ka_printf("warning: too much padding before segment %d\n", index);
 865              		.loc 2 183 0
 866 04fa 796D     		ldr	r1, [r7, #84]
 867 04fc 3848     		ldr	r0, .L69+20
 868 04fe FFF7FEFF 		bl	ka_printf
 869              	.L35:
 184:../../source/src/kernel/OS_CORE/module.c ****             }
 185:../../source/src/kernel/OS_CORE/module.c **** 
 186:../../source/src/kernel/OS_CORE/module.c ****             vend_addr = phdr[index].p_vaddr + phdr[index].p_memsz;
 870              		.loc 2 186 0
 871 0502 3B68     		ldr	r3, [r7]
 872 0504 DA69     		ldr	r2, [r3, #28]
 873 0506 7B6D     		ldr	r3, [r7, #84]
 874 0508 5B01     		lsls	r3, r3, #5
 875 050a 1344     		add	r3, r3, r2
 876 050c 3A68     		ldr	r2, [r7]
 877 050e 1344     		add	r3, r3, r2
 878 0510 9A68     		ldr	r2, [r3, #8]
 879 0512 3B68     		ldr	r3, [r7]
 880 0514 D969     		ldr	r1, [r3, #28]
 881 0516 7B6D     		ldr	r3, [r7, #84]
 882 0518 5B01     		lsls	r3, r3, #5
 883 051a 0B44     		add	r3, r3, r1
 884 051c 3968     		ldr	r1, [r7]
 885 051e 0B44     		add	r3, r3, r1
 886 0520 5B69     		ldr	r3, [r3, #20]
 887 0522 1344     		add	r3, r3, r2
 888 0524 FB64     		str	r3, [r7, #76]
 187:../../source/src/kernel/OS_CORE/module.c ****             if (vend_addr < phdr[index].p_vaddr)
 889              		.loc 2 187 0
 890 0526 3B68     		ldr	r3, [r7]
 891 0528 DA69     		ldr	r2, [r3, #28]
 892 052a 7B6D     		ldr	r3, [r7, #84]
 893 052c 5B01     		lsls	r3, r3, #5
 894 052e 1344     		add	r3, r3, r2
 895 0530 3A68     		ldr	r2, [r7]
ARM GAS  G:\Users\Jaxb\AppData\Local\Temp\cc4KUlGg.s 			page 22


 896 0532 1344     		add	r3, r3, r2
 897 0534 9B68     		ldr	r3, [r3, #8]
 898 0536 FA6C     		ldr	r2, [r7, #76]
 899 0538 9A42     		cmp	r2, r3
 900 053a 06D2     		bcs	.L30
 188:../../source/src/kernel/OS_CORE/module.c ****             {
 189:../../source/src/kernel/OS_CORE/module.c ****                 ka_printf("invalid elf: "
 901              		.loc 2 189 0
 902 053c 796D     		ldr	r1, [r7, #84]
 903 053e 2948     		ldr	r0, .L69+24
 904 0540 FFF7FEFF 		bl	ka_printf
 190:../../source/src/kernel/OS_CORE/module.c ****                            "segment %d address overflow\n", index);
 191:../../source/src/kernel/OS_CORE/module.c ****                 return NULL;
 905              		.loc 2 191 0
 906 0544 0023     		movs	r3, #0
 907 0546 92E2     		b	.L32
 908              	.L65:
 151:../../source/src/kernel/OS_CORE/module.c **** 
 909              		.loc 2 151 0
 910 0548 00BF     		nop
 911              	.L30:
 148:../../source/src/kernel/OS_CORE/module.c ****     {
 912              		.loc 2 148 0 discriminator 2
 913 054a 7B6D     		ldr	r3, [r7, #84]
 914 054c 0133     		adds	r3, r3, #1
 915 054e 7B65     		str	r3, [r7, #84]
 916              	.L28:
 148:../../source/src/kernel/OS_CORE/module.c ****     {
 917              		.loc 2 148 0 is_stmt 0 discriminator 1
 918 0550 3B68     		ldr	r3, [r7]
 919 0552 9B8D     		ldrh	r3, [r3, #44]
 920 0554 1A46     		mov	r2, r3
 921 0556 7B6D     		ldr	r3, [r7, #84]
 922 0558 9342     		cmp	r3, r2
 923 055a FFF42EAF 		bcc	.L36
 192:../../source/src/kernel/OS_CORE/module.c ****             }
 193:../../source/src/kernel/OS_CORE/module.c ****         }
 194:../../source/src/kernel/OS_CORE/module.c ****     }
 195:../../source/src/kernel/OS_CORE/module.c **** 
 196:../../source/src/kernel/OS_CORE/module.c ****     module_size = vend_addr - vstart_addr;
 924              		.loc 2 196 0 is_stmt 1
 925 055e FA6C     		ldr	r2, [r7, #76]
 926 0560 3B6D     		ldr	r3, [r7, #80]
 927 0562 D31A     		subs	r3, r2, r3
 928 0564 3B63     		str	r3, [r7, #48]
 197:../../source/src/kernel/OS_CORE/module.c ****     ka_printf("module size: %d, vstart_addr: 0x%p\n", module_size, vstart_addr);
 929              		.loc 2 197 0
 930 0566 3A6D     		ldr	r2, [r7, #80]
 931 0568 396B     		ldr	r1, [r7, #48]
 932 056a 1F48     		ldr	r0, .L69+28
 933 056c FFF7FEFF 		bl	ka_printf
 198:../../source/src/kernel/OS_CORE/module.c ****     if (module_size == 0)
 934              		.loc 2 198 0
 935 0570 3B6B     		ldr	r3, [r7, #48]
 936 0572 002B     		cmp	r3, #0
 937 0574 05D1     		bne	.L37
 199:../../source/src/kernel/OS_CORE/module.c ****     {
ARM GAS  G:\Users\Jaxb\AppData\Local\Temp\cc4KUlGg.s 			page 23


 200:../../source/src/kernel/OS_CORE/module.c ****         ka_printf("Module: size error\n");
 938              		.loc 2 200 0
 939 0576 1D48     		ldr	r0, .L69+32
 940 0578 FFF7FEFF 		bl	ka_printf
 201:../../source/src/kernel/OS_CORE/module.c ****         return -RT_ERROR;
 941              		.loc 2 201 0
 942 057c 4FF0FF33 		mov	r3, #-1
 943 0580 75E2     		b	.L32
 944              	.L37:
 202:../../source/src/kernel/OS_CORE/module.c ****     }
 203:../../source/src/kernel/OS_CORE/module.c **** 
 204:../../source/src/kernel/OS_CORE/module.c ****     module->vstart_addr = vstart_addr;
 945              		.loc 2 204 0
 946 0582 7B68     		ldr	r3, [r7, #4]
 947 0584 3A6D     		ldr	r2, [r7, #80]
 948 0586 9A62     		str	r2, [r3, #40]
 205:../../source/src/kernel/OS_CORE/module.c ****     module->nref = 0;
 949              		.loc 2 205 0
 950 0588 7B68     		ldr	r3, [r7, #4]
 951 058a 0022     		movs	r2, #0
 952 058c A3F84420 		strh	r2, [r3, #68]	@ movhi
 206:../../source/src/kernel/OS_CORE/module.c **** 
 207:../../source/src/kernel/OS_CORE/module.c ****     /* allocate module space */
 208:../../source/src/kernel/OS_CORE/module.c ****     module->mem_space = ka_malloc(module_size);
 953              		.loc 2 208 0
 954 0590 386B     		ldr	r0, [r7, #48]
 955 0592 FFF7FEFF 		bl	ka_malloc
 956 0596 0246     		mov	r2, r0
 957 0598 7B68     		ldr	r3, [r7, #4]
 958 059a 5A63     		str	r2, [r3, #52]
 209:../../source/src/kernel/OS_CORE/module.c ****     if (module->mem_space == NULL)
 959              		.loc 2 209 0
 960 059c 7B68     		ldr	r3, [r7, #4]
 961 059e 5B6B     		ldr	r3, [r3, #52]
 962 05a0 002B     		cmp	r3, #0
 963 05a2 05D1     		bne	.L38
 210:../../source/src/kernel/OS_CORE/module.c ****     {
 211:../../source/src/kernel/OS_CORE/module.c ****         ka_printf("Module: allocate space failed.\n");
 964              		.loc 2 211 0
 965 05a4 1248     		ldr	r0, .L69+36
 966 05a6 FFF7FEFF 		bl	ka_printf
 212:../../source/src/kernel/OS_CORE/module.c ****         return -RT_ERROR;
 967              		.loc 2 212 0
 968 05aa 4FF0FF33 		mov	r3, #-1
 969 05ae 5EE2     		b	.L32
 970              	.L38:
 213:../../source/src/kernel/OS_CORE/module.c ****     }
 214:../../source/src/kernel/OS_CORE/module.c ****     module->mem_size = module_size;
 971              		.loc 2 214 0
 972 05b0 7B68     		ldr	r3, [r7, #4]
 973 05b2 3A6B     		ldr	r2, [r7, #48]
 974 05b4 9A63     		str	r2, [r3, #56]
 215:../../source/src/kernel/OS_CORE/module.c **** 
 216:../../source/src/kernel/OS_CORE/module.c ****     /* zero all space */
 217:../../source/src/kernel/OS_CORE/module.c ****     ka_memset(module->mem_space, 0, module_size);
 975              		.loc 2 217 0
 976 05b6 7B68     		ldr	r3, [r7, #4]
ARM GAS  G:\Users\Jaxb\AppData\Local\Temp\cc4KUlGg.s 			page 24


 977 05b8 5B6B     		ldr	r3, [r3, #52]
 978 05ba 3A6B     		ldr	r2, [r7, #48]
 979 05bc 0021     		movs	r1, #0
 980 05be 1846     		mov	r0, r3
 981 05c0 FFF7FEFF 		bl	ka_memset
 218:../../source/src/kernel/OS_CORE/module.c ****     for (index = 0; index < elf_module->e_phnum; index++)
 982              		.loc 2 218 0
 983 05c4 0023     		movs	r3, #0
 984 05c6 7B65     		str	r3, [r7, #84]
 985 05c8 43E0     		b	.L39
 986              	.L70:
 987 05ca 00BF     		.align	2
 988              	.L69:
 989 05cc D8000000 		.word	.LC7
 990 05d0 04010000 		.word	.LC8
 991 05d4 24010000 		.word	.LC9
 992 05d8 58010000 		.word	.LC10
 993 05dc 8C010000 		.word	.LC11
 994 05e0 C8010000 		.word	.LC12
 995 05e4 F8010000 		.word	.LC13
 996 05e8 24020000 		.word	.LC14
 997 05ec 48020000 		.word	.LC15
 998 05f0 5C020000 		.word	.LC16
 999              	.L41:
 219:../../source/src/kernel/OS_CORE/module.c ****     {
 220:../../source/src/kernel/OS_CORE/module.c ****         if (phdr[index].p_type == PT_LOAD)
 1000              		.loc 2 220 0
 1001 05f4 3B68     		ldr	r3, [r7]
 1002 05f6 DA69     		ldr	r2, [r3, #28]
 1003 05f8 7B6D     		ldr	r3, [r7, #84]
 1004 05fa 5B01     		lsls	r3, r3, #5
 1005 05fc 1344     		add	r3, r3, r2
 1006 05fe 3A68     		ldr	r2, [r7]
 1007 0600 1344     		add	r3, r3, r2
 1008 0602 1B68     		ldr	r3, [r3]
 1009 0604 012B     		cmp	r3, #1
 1010 0606 21D1     		bne	.L40
 221:../../source/src/kernel/OS_CORE/module.c ****         {
 222:../../source/src/kernel/OS_CORE/module.c ****             ka_memcpy(module->mem_space + phdr[index].p_vaddr - vstart_addr,
 1011              		.loc 2 222 0
 1012 0608 7B68     		ldr	r3, [r7, #4]
 1013 060a 5A6B     		ldr	r2, [r3, #52]
 1014 060c 3B68     		ldr	r3, [r7]
 1015 060e D969     		ldr	r1, [r3, #28]
 1016 0610 7B6D     		ldr	r3, [r7, #84]
 1017 0612 5B01     		lsls	r3, r3, #5
 1018 0614 0B44     		add	r3, r3, r1
 1019 0616 3968     		ldr	r1, [r7]
 1020 0618 0B44     		add	r3, r3, r1
 1021 061a 9968     		ldr	r1, [r3, #8]
 1022 061c 3B6D     		ldr	r3, [r7, #80]
 1023 061e CB1A     		subs	r3, r1, r3
 1024 0620 D018     		adds	r0, r2, r3
 223:../../source/src/kernel/OS_CORE/module.c ****                       (UINT8 *)elf_module + phdr[index].p_offset,
 1025              		.loc 2 223 0
 1026 0622 3B68     		ldr	r3, [r7]
 1027 0624 DA69     		ldr	r2, [r3, #28]
ARM GAS  G:\Users\Jaxb\AppData\Local\Temp\cc4KUlGg.s 			page 25


 1028 0626 7B6D     		ldr	r3, [r7, #84]
 1029 0628 5B01     		lsls	r3, r3, #5
 1030 062a 1344     		add	r3, r3, r2
 1031 062c 3A68     		ldr	r2, [r7]
 1032 062e 1344     		add	r3, r3, r2
 1033 0630 5B68     		ldr	r3, [r3, #4]
 222:../../source/src/kernel/OS_CORE/module.c ****                       (UINT8 *)elf_module + phdr[index].p_offset,
 1034              		.loc 2 222 0
 1035 0632 3A68     		ldr	r2, [r7]
 1036 0634 D118     		adds	r1, r2, r3
 224:../../source/src/kernel/OS_CORE/module.c ****                       phdr[index].p_filesz);
 1037              		.loc 2 224 0
 1038 0636 3B68     		ldr	r3, [r7]
 1039 0638 DA69     		ldr	r2, [r3, #28]
 1040 063a 7B6D     		ldr	r3, [r7, #84]
 1041 063c 5B01     		lsls	r3, r3, #5
 1042 063e 1344     		add	r3, r3, r2
 1043 0640 3A68     		ldr	r2, [r7]
 1044 0642 1344     		add	r3, r3, r2
 1045 0644 1B69     		ldr	r3, [r3, #16]
 222:../../source/src/kernel/OS_CORE/module.c ****                       (UINT8 *)elf_module + phdr[index].p_offset,
 1046              		.loc 2 222 0
 1047 0646 1A46     		mov	r2, r3
 1048 0648 FFF7FEFF 		bl	ka_memcpy
 1049              	.L40:
 218:../../source/src/kernel/OS_CORE/module.c ****     {
 1050              		.loc 2 218 0 discriminator 2
 1051 064c 7B6D     		ldr	r3, [r7, #84]
 1052 064e 0133     		adds	r3, r3, #1
 1053 0650 7B65     		str	r3, [r7, #84]
 1054              	.L39:
 218:../../source/src/kernel/OS_CORE/module.c ****     {
 1055              		.loc 2 218 0 is_stmt 0 discriminator 1
 1056 0652 3B68     		ldr	r3, [r7]
 1057 0654 9B8D     		ldrh	r3, [r3, #44]
 1058 0656 1A46     		mov	r2, r3
 1059 0658 7B6D     		ldr	r3, [r7, #84]
 1060 065a 9342     		cmp	r3, r2
 1061 065c CAD3     		bcc	.L41
 225:../../source/src/kernel/OS_CORE/module.c ****         }
 226:../../source/src/kernel/OS_CORE/module.c ****     }
 227:../../source/src/kernel/OS_CORE/module.c **** 
 228:../../source/src/kernel/OS_CORE/module.c ****     /* set module entry */
 229:../../source/src/kernel/OS_CORE/module.c ****     module->entry_addr = module->mem_space + elf_module->e_entry - vstart_addr;
 1062              		.loc 2 229 0 is_stmt 1
 1063 065e 7B68     		ldr	r3, [r7, #4]
 1064 0660 5A6B     		ldr	r2, [r3, #52]
 1065 0662 3B68     		ldr	r3, [r7]
 1066 0664 9969     		ldr	r1, [r3, #24]
 1067 0666 3B6D     		ldr	r3, [r7, #80]
 1068 0668 CB1A     		subs	r3, r1, r3
 1069 066a 1344     		add	r3, r3, r2
 1070 066c 1A46     		mov	r2, r3
 1071 066e 7B68     		ldr	r3, [r7, #4]
 1072 0670 DA62     		str	r2, [r3, #44]
 230:../../source/src/kernel/OS_CORE/module.c ****     ka_printf("1\n");
 1073              		.loc 2 230 0
ARM GAS  G:\Users\Jaxb\AppData\Local\Temp\cc4KUlGg.s 			page 26


 1074 0672 A348     		ldr	r0, .L71
 1075 0674 FFF7FEFF 		bl	ka_printf
 231:../../source/src/kernel/OS_CORE/module.c ****     /* handle relocation section */
 232:../../source/src/kernel/OS_CORE/module.c ****     for (index = 0; index < elf_module->e_shnum; index ++)
 1076              		.loc 2 232 0
 1077 0678 0023     		movs	r3, #0
 1078 067a 7B65     		str	r3, [r7, #84]
 1079 067c CAE0     		b	.L42
 1080              	.L51:
 1081              	.LBB2:
 233:../../source/src/kernel/OS_CORE/module.c ****     {
 234:../../source/src/kernel/OS_CORE/module.c ****         UINT32 i, nr_reloc;
 235:../../source/src/kernel/OS_CORE/module.c ****         Elf32_Sym *symtab;
 236:../../source/src/kernel/OS_CORE/module.c ****         Elf32_Rel *rel;
 237:../../source/src/kernel/OS_CORE/module.c ****         UINT8 *strtab;
 238:../../source/src/kernel/OS_CORE/module.c ****         static rt_bool_t unsolved = RT_FALSE;
 239:../../source/src/kernel/OS_CORE/module.c **** 
 240:../../source/src/kernel/OS_CORE/module.c ****         if (!IS_REL(shdr[index]))
 1082              		.loc 2 240 0
 1083 067e 3B68     		ldr	r3, [r7]
 1084 0680 196A     		ldr	r1, [r3, #32]
 1085 0682 7A6D     		ldr	r2, [r7, #84]
 1086 0684 1346     		mov	r3, r2
 1087 0686 9B00     		lsls	r3, r3, #2
 1088 0688 1344     		add	r3, r3, r2
 1089 068a DB00     		lsls	r3, r3, #3
 1090 068c 0B44     		add	r3, r3, r1
 1091 068e 3A68     		ldr	r2, [r7]
 1092 0690 1344     		add	r3, r3, r2
 1093 0692 5B68     		ldr	r3, [r3, #4]
 1094 0694 092B     		cmp	r3, #9
 1095 0696 40F0B980 		bne	.L66
 241:../../source/src/kernel/OS_CORE/module.c ****             continue;
 242:../../source/src/kernel/OS_CORE/module.c **** 
 243:../../source/src/kernel/OS_CORE/module.c ****         /* get relocate item */
 244:../../source/src/kernel/OS_CORE/module.c ****         rel = (Elf32_Rel *)((UINT8 *)module_ptr + shdr[index].sh_offset);
 1096              		.loc 2 244 0
 1097 069a 3B68     		ldr	r3, [r7]
 1098 069c 196A     		ldr	r1, [r3, #32]
 1099 069e 7A6D     		ldr	r2, [r7, #84]
 1100 06a0 1346     		mov	r3, r2
 1101 06a2 9B00     		lsls	r3, r3, #2
 1102 06a4 1344     		add	r3, r3, r2
 1103 06a6 DB00     		lsls	r3, r3, #3
 1104 06a8 0B44     		add	r3, r3, r1
 1105 06aa 3A68     		ldr	r2, [r7]
 1106 06ac 1344     		add	r3, r3, r2
 1107 06ae 1B69     		ldr	r3, [r3, #16]
 1108 06b0 3A68     		ldr	r2, [r7]
 1109 06b2 1344     		add	r3, r3, r2
 1110 06b4 3B64     		str	r3, [r7, #64]
 245:../../source/src/kernel/OS_CORE/module.c **** 
 246:../../source/src/kernel/OS_CORE/module.c ****         /* locate .rel.plt and .rel.dyn section */
 247:../../source/src/kernel/OS_CORE/module.c ****         symtab = (Elf32_Sym *)((UINT8 *)module_ptr +
 248:../../source/src/kernel/OS_CORE/module.c ****                                shdr[shdr[index].sh_link].sh_offset);
 1111              		.loc 2 248 0
 1112 06b6 3B68     		ldr	r3, [r7]
ARM GAS  G:\Users\Jaxb\AppData\Local\Temp\cc4KUlGg.s 			page 27


 1113 06b8 196A     		ldr	r1, [r3, #32]
 1114 06ba 3B68     		ldr	r3, [r7]
 1115 06bc 186A     		ldr	r0, [r3, #32]
 1116 06be 7A6D     		ldr	r2, [r7, #84]
 1117 06c0 1346     		mov	r3, r2
 1118 06c2 9B00     		lsls	r3, r3, #2
 1119 06c4 1344     		add	r3, r3, r2
 1120 06c6 DB00     		lsls	r3, r3, #3
 1121 06c8 0344     		add	r3, r3, r0
 1122 06ca 3A68     		ldr	r2, [r7]
 1123 06cc 1344     		add	r3, r3, r2
 1124 06ce 9A69     		ldr	r2, [r3, #24]
 1125 06d0 1346     		mov	r3, r2
 1126 06d2 9B00     		lsls	r3, r3, #2
 1127 06d4 1344     		add	r3, r3, r2
 1128 06d6 DB00     		lsls	r3, r3, #3
 1129 06d8 0B44     		add	r3, r3, r1
 1130 06da 3A68     		ldr	r2, [r7]
 1131 06dc 1344     		add	r3, r3, r2
 1132 06de 1B69     		ldr	r3, [r3, #16]
 247:../../source/src/kernel/OS_CORE/module.c ****                                shdr[shdr[index].sh_link].sh_offset);
 1133              		.loc 2 247 0
 1134 06e0 3A68     		ldr	r2, [r7]
 1135 06e2 1344     		add	r3, r3, r2
 1136 06e4 FB61     		str	r3, [r7, #28]
 249:../../source/src/kernel/OS_CORE/module.c ****         strtab = (UINT8 *)module_ptr +
 250:../../source/src/kernel/OS_CORE/module.c ****                  shdr[shdr[shdr[index].sh_link].sh_link].sh_offset;
 1137              		.loc 2 250 0
 1138 06e6 3B68     		ldr	r3, [r7]
 1139 06e8 196A     		ldr	r1, [r3, #32]
 1140 06ea 3B68     		ldr	r3, [r7]
 1141 06ec 186A     		ldr	r0, [r3, #32]
 1142 06ee 3B68     		ldr	r3, [r7]
 1143 06f0 1C6A     		ldr	r4, [r3, #32]
 1144 06f2 7A6D     		ldr	r2, [r7, #84]
 1145 06f4 1346     		mov	r3, r2
 1146 06f6 9B00     		lsls	r3, r3, #2
 1147 06f8 1344     		add	r3, r3, r2
 1148 06fa DB00     		lsls	r3, r3, #3
 1149 06fc 2344     		add	r3, r3, r4
 1150 06fe 3A68     		ldr	r2, [r7]
 1151 0700 1344     		add	r3, r3, r2
 1152 0702 9A69     		ldr	r2, [r3, #24]
 1153 0704 1346     		mov	r3, r2
 1154 0706 9B00     		lsls	r3, r3, #2
 1155 0708 1344     		add	r3, r3, r2
 1156 070a DB00     		lsls	r3, r3, #3
 1157 070c 0344     		add	r3, r3, r0
 1158 070e 3A68     		ldr	r2, [r7]
 1159 0710 1344     		add	r3, r3, r2
 1160 0712 9A69     		ldr	r2, [r3, #24]
 1161 0714 1346     		mov	r3, r2
 1162 0716 9B00     		lsls	r3, r3, #2
 1163 0718 1344     		add	r3, r3, r2
 1164 071a DB00     		lsls	r3, r3, #3
 1165 071c 0B44     		add	r3, r3, r1
 1166 071e 3A68     		ldr	r2, [r7]
ARM GAS  G:\Users\Jaxb\AppData\Local\Temp\cc4KUlGg.s 			page 28


 1167 0720 1344     		add	r3, r3, r2
 1168 0722 1B69     		ldr	r3, [r3, #16]
 249:../../source/src/kernel/OS_CORE/module.c ****         strtab = (UINT8 *)module_ptr +
 1169              		.loc 2 249 0
 1170 0724 3A68     		ldr	r2, [r7]
 1171 0726 1344     		add	r3, r3, r2
 1172 0728 BB61     		str	r3, [r7, #24]
 251:../../source/src/kernel/OS_CORE/module.c ****         nr_reloc = (UINT32)(shdr[index].sh_size / sizeof(Elf32_Rel));
 1173              		.loc 2 251 0
 1174 072a 3B68     		ldr	r3, [r7]
 1175 072c 196A     		ldr	r1, [r3, #32]
 1176 072e 7A6D     		ldr	r2, [r7, #84]
 1177 0730 1346     		mov	r3, r2
 1178 0732 9B00     		lsls	r3, r3, #2
 1179 0734 1344     		add	r3, r3, r2
 1180 0736 DB00     		lsls	r3, r3, #3
 1181 0738 0B44     		add	r3, r3, r1
 1182 073a 3A68     		ldr	r2, [r7]
 1183 073c 1344     		add	r3, r3, r2
 1184 073e 5B69     		ldr	r3, [r3, #20]
 1185 0740 DB08     		lsrs	r3, r3, #3
 1186 0742 7B61     		str	r3, [r7, #20]
 252:../../source/src/kernel/OS_CORE/module.c **** 
 253:../../source/src/kernel/OS_CORE/module.c ****         /* relocate every items */
 254:../../source/src/kernel/OS_CORE/module.c ****         for (i = 0; i < nr_reloc; i ++)
 1187              		.loc 2 254 0
 1188 0744 0023     		movs	r3, #0
 1189 0746 7B64     		str	r3, [r7, #68]
 1190 0748 55E0     		b	.L45
 1191              	.L50:
 1192              	.LBB3:
 255:../../source/src/kernel/OS_CORE/module.c ****         {
 256:../../source/src/kernel/OS_CORE/module.c ****             Elf32_Sym *sym = &symtab[ELF32_R_SYM(rel->r_info)];
 1193              		.loc 2 256 0
 1194 074a 3B6C     		ldr	r3, [r7, #64]
 1195 074c 5B68     		ldr	r3, [r3, #4]
 1196 074e 1B0A     		lsrs	r3, r3, #8
 1197 0750 1B01     		lsls	r3, r3, #4
 1198 0752 FA69     		ldr	r2, [r7, #28]
 1199 0754 1344     		add	r3, r3, r2
 1200 0756 3B61     		str	r3, [r7, #16]
 257:../../source/src/kernel/OS_CORE/module.c **** 
 258:../../source/src/kernel/OS_CORE/module.c ****             ka_printf("relocate symbol %s shndx %d", strtab + sym->st_name, sym->st_shndx);
 1201              		.loc 2 258 0
 1202 0758 3B69     		ldr	r3, [r7, #16]
 1203 075a 1B68     		ldr	r3, [r3]
 1204 075c BA69     		ldr	r2, [r7, #24]
 1205 075e D118     		adds	r1, r2, r3
 1206 0760 3B69     		ldr	r3, [r7, #16]
 1207 0762 DB89     		ldrh	r3, [r3, #14]
 1208 0764 1A46     		mov	r2, r3
 1209 0766 6748     		ldr	r0, .L71+4
 1210 0768 FFF7FEFF 		bl	ka_printf
 259:../../source/src/kernel/OS_CORE/module.c **** 
 260:../../source/src/kernel/OS_CORE/module.c ****             if ((sym->st_shndx != SHT_NULL) ||(ELF_ST_BIND(sym->st_info) == STB_LOCAL))
 1211              		.loc 2 260 0
 1212 076c 3B69     		ldr	r3, [r7, #16]
ARM GAS  G:\Users\Jaxb\AppData\Local\Temp\cc4KUlGg.s 			page 29


 1213 076e DB89     		ldrh	r3, [r3, #14]
 1214 0770 002B     		cmp	r3, #0
 1215 0772 05D1     		bne	.L46
 1216              		.loc 2 260 0 is_stmt 0 discriminator 1
 1217 0774 3B69     		ldr	r3, [r7, #16]
 1218 0776 1B7B     		ldrb	r3, [r3, #12]	@ zero_extendqisi2
 1219 0778 1B09     		lsrs	r3, r3, #4
 1220 077a DBB2     		uxtb	r3, r3
 1221 077c 002B     		cmp	r3, #0
 1222 077e 0DD1     		bne	.L47
 1223              	.L46:
 1224              	.LBB4:
 261:../../source/src/kernel/OS_CORE/module.c ****             {
 262:../../source/src/kernel/OS_CORE/module.c ****                 Elf32_Addr addr;
 263:../../source/src/kernel/OS_CORE/module.c **** 
 264:../../source/src/kernel/OS_CORE/module.c ****                 addr = (Elf32_Addr)(module->mem_space + sym->st_value - vstart_addr);
 1225              		.loc 2 264 0 is_stmt 1
 1226 0780 7B68     		ldr	r3, [r7, #4]
 1227 0782 5A6B     		ldr	r2, [r3, #52]
 1228 0784 3B69     		ldr	r3, [r7, #16]
 1229 0786 5968     		ldr	r1, [r3, #4]
 1230 0788 3B6D     		ldr	r3, [r7, #80]
 1231 078a CB1A     		subs	r3, r1, r3
 1232 078c 1344     		add	r3, r3, r2
 1233 078e BB60     		str	r3, [r7, #8]
 265:../../source/src/kernel/OS_CORE/module.c ****                 dlmodule_relocate(module, rel, addr);
 1234              		.loc 2 265 0
 1235 0790 BA68     		ldr	r2, [r7, #8]
 1236 0792 396C     		ldr	r1, [r7, #64]
 1237 0794 7868     		ldr	r0, [r7, #4]
 1238 0796 FFF7FEFF 		bl	dlmodule_relocate
 1239              	.LBE4:
 261:../../source/src/kernel/OS_CORE/module.c ****             {
 1240              		.loc 2 261 0
 1241 079a 26E0     		b	.L48
 1242              	.L47:
 266:../../source/src/kernel/OS_CORE/module.c ****             }
 267:../../source/src/kernel/OS_CORE/module.c ****             else if (!linked)
 1243              		.loc 2 267 0
 1244 079c 7B6B     		ldr	r3, [r7, #52]
 1245 079e 002B     		cmp	r3, #0
 1246 07a0 23D1     		bne	.L48
 1247              	.LBB5:
 268:../../source/src/kernel/OS_CORE/module.c ****             {
 269:../../source/src/kernel/OS_CORE/module.c ****                 Elf32_Addr addr;
 270:../../source/src/kernel/OS_CORE/module.c **** 
 271:../../source/src/kernel/OS_CORE/module.c ****                 ka_printf("relocate symbol: %s", strtab + sym->st_name);
 1248              		.loc 2 271 0
 1249 07a2 3B69     		ldr	r3, [r7, #16]
 1250 07a4 1B68     		ldr	r3, [r3]
 1251 07a6 BA69     		ldr	r2, [r7, #24]
 1252 07a8 1344     		add	r3, r3, r2
 1253 07aa 1946     		mov	r1, r3
 1254 07ac 5648     		ldr	r0, .L71+8
 1255 07ae FFF7FEFF 		bl	ka_printf
 272:../../source/src/kernel/OS_CORE/module.c ****                 /* need to resolve symbol in kernel symbol table */
 273:../../source/src/kernel/OS_CORE/module.c ****                 addr = get_export_function_addr((const char *)(strtab + sym->st_name));
ARM GAS  G:\Users\Jaxb\AppData\Local\Temp\cc4KUlGg.s 			page 30


 1256              		.loc 2 273 0
 1257 07b2 3B69     		ldr	r3, [r7, #16]
 1258 07b4 1B68     		ldr	r3, [r3]
 1259 07b6 BA69     		ldr	r2, [r7, #24]
 1260 07b8 1344     		add	r3, r3, r2
 1261 07ba 1846     		mov	r0, r3
 1262 07bc FFF7FEFF 		bl	get_export_function_addr
 1263 07c0 F860     		str	r0, [r7, #12]
 274:../../source/src/kernel/OS_CORE/module.c ****                 if (addr == 0)
 1264              		.loc 2 274 0
 1265 07c2 FB68     		ldr	r3, [r7, #12]
 1266 07c4 002B     		cmp	r3, #0
 1267 07c6 0BD1     		bne	.L49
 275:../../source/src/kernel/OS_CORE/module.c ****                 {
 276:../../source/src/kernel/OS_CORE/module.c ****                     ka_printf("Module: can't find %s in kernel symbol table", strtab + sym->st_name
 1268              		.loc 2 276 0
 1269 07c8 3B69     		ldr	r3, [r7, #16]
 1270 07ca 1B68     		ldr	r3, [r3]
 1271 07cc BA69     		ldr	r2, [r7, #24]
 1272 07ce 1344     		add	r3, r3, r2
 1273 07d0 1946     		mov	r1, r3
 1274 07d2 4E48     		ldr	r0, .L71+12
 1275 07d4 FFF7FEFF 		bl	ka_printf
 277:../../source/src/kernel/OS_CORE/module.c ****                     unsolved = RT_TRUE;
 1276              		.loc 2 277 0
 1277 07d8 4D4B     		ldr	r3, .L71+16
 1278 07da 0122     		movs	r2, #1
 1279 07dc 1A60     		str	r2, [r3]
 1280 07de 04E0     		b	.L48
 1281              	.L49:
 278:../../source/src/kernel/OS_CORE/module.c ****                 }
 279:../../source/src/kernel/OS_CORE/module.c ****                 else
 280:../../source/src/kernel/OS_CORE/module.c ****                 {
 281:../../source/src/kernel/OS_CORE/module.c ****                     dlmodule_relocate(module, rel, addr);
 1282              		.loc 2 281 0
 1283 07e0 FA68     		ldr	r2, [r7, #12]
 1284 07e2 396C     		ldr	r1, [r7, #64]
 1285 07e4 7868     		ldr	r0, [r7, #4]
 1286 07e6 FFF7FEFF 		bl	dlmodule_relocate
 1287              	.L48:
 1288              	.LBE5:
 282:../../source/src/kernel/OS_CORE/module.c ****                 }
 283:../../source/src/kernel/OS_CORE/module.c ****             }
 284:../../source/src/kernel/OS_CORE/module.c ****             rel ++;
 1289              		.loc 2 284 0 discriminator 2
 1290 07ea 3B6C     		ldr	r3, [r7, #64]
 1291 07ec 0833     		adds	r3, r3, #8
 1292 07ee 3B64     		str	r3, [r7, #64]
 1293              	.LBE3:
 254:../../source/src/kernel/OS_CORE/module.c ****         {
 1294              		.loc 2 254 0 discriminator 2
 1295 07f0 7B6C     		ldr	r3, [r7, #68]
 1296 07f2 0133     		adds	r3, r3, #1
 1297 07f4 7B64     		str	r3, [r7, #68]
 1298              	.L45:
 254:../../source/src/kernel/OS_CORE/module.c ****         {
 1299              		.loc 2 254 0 is_stmt 0 discriminator 1
ARM GAS  G:\Users\Jaxb\AppData\Local\Temp\cc4KUlGg.s 			page 31


 1300 07f6 7A6C     		ldr	r2, [r7, #68]
 1301 07f8 7B69     		ldr	r3, [r7, #20]
 1302 07fa 9A42     		cmp	r2, r3
 1303 07fc A5D3     		bcc	.L50
 285:../../source/src/kernel/OS_CORE/module.c ****         }
 286:../../source/src/kernel/OS_CORE/module.c **** 
 287:../../source/src/kernel/OS_CORE/module.c ****         if (unsolved) 
 1304              		.loc 2 287 0 is_stmt 1
 1305 07fe 444B     		ldr	r3, .L71+16
 1306 0800 1B68     		ldr	r3, [r3]
 1307 0802 002B     		cmp	r3, #0
 1308 0804 03D0     		beq	.L44
 288:../../source/src/kernel/OS_CORE/module.c ****             return -RT_ERROR;
 1309              		.loc 2 288 0
 1310 0806 4FF0FF33 		mov	r3, #-1
 1311 080a 30E1     		b	.L32
 1312              	.L66:
 241:../../source/src/kernel/OS_CORE/module.c **** 
 1313              		.loc 2 241 0
 1314 080c 00BF     		nop
 1315              	.L44:
 1316              	.LBE2:
 232:../../source/src/kernel/OS_CORE/module.c ****     {
 1317              		.loc 2 232 0 discriminator 2
 1318 080e 7B6D     		ldr	r3, [r7, #84]
 1319 0810 0133     		adds	r3, r3, #1
 1320 0812 7B65     		str	r3, [r7, #84]
 1321              	.L42:
 232:../../source/src/kernel/OS_CORE/module.c ****     {
 1322              		.loc 2 232 0 is_stmt 0 discriminator 1
 1323 0814 3B68     		ldr	r3, [r7]
 1324 0816 1B8E     		ldrh	r3, [r3, #48]
 1325 0818 1A46     		mov	r2, r3
 1326 081a 7B6D     		ldr	r3, [r7, #84]
 1327 081c 9342     		cmp	r3, r2
 1328 081e FFF42EAF 		bcc	.L51
 289:../../source/src/kernel/OS_CORE/module.c ****     }
 290:../../source/src/kernel/OS_CORE/module.c ****     ka_printf("2\n");
 1329              		.loc 2 290 0 is_stmt 1
 1330 0822 3C48     		ldr	r0, .L71+20
 1331 0824 FFF7FEFF 		bl	ka_printf
 291:../../source/src/kernel/OS_CORE/module.c ****     /* construct module symbol table */
 292:../../source/src/kernel/OS_CORE/module.c ****     for (index = 0; index < elf_module->e_shnum; index ++)
 1332              		.loc 2 292 0
 1333 0828 0023     		movs	r3, #0
 1334 082a 7B65     		str	r3, [r7, #84]
 1335 082c 26E0     		b	.L52
 1336              	.L55:
 1337              	.LBB6:
 293:../../source/src/kernel/OS_CORE/module.c ****     {
 294:../../source/src/kernel/OS_CORE/module.c ****         /* find .dynsym section */
 295:../../source/src/kernel/OS_CORE/module.c ****         UINT8 *shstrab;
 296:../../source/src/kernel/OS_CORE/module.c ****         shstrab = (UINT8 *)module_ptr +
 297:../../source/src/kernel/OS_CORE/module.c ****                   shdr[elf_module->e_shstrndx].sh_offset;
 1338              		.loc 2 297 0
 1339 082e 3B68     		ldr	r3, [r7]
 1340 0830 1A6A     		ldr	r2, [r3, #32]
ARM GAS  G:\Users\Jaxb\AppData\Local\Temp\cc4KUlGg.s 			page 32


 1341 0832 3B68     		ldr	r3, [r7]
 1342 0834 5B8E     		ldrh	r3, [r3, #50]
 1343 0836 1946     		mov	r1, r3
 1344 0838 0B46     		mov	r3, r1
 1345 083a 9B00     		lsls	r3, r3, #2
 1346 083c 0B44     		add	r3, r3, r1
 1347 083e DB00     		lsls	r3, r3, #3
 1348 0840 1344     		add	r3, r3, r2
 1349 0842 3A68     		ldr	r2, [r7]
 1350 0844 1344     		add	r3, r3, r2
 1351 0846 1B69     		ldr	r3, [r3, #16]
 296:../../source/src/kernel/OS_CORE/module.c ****                   shdr[elf_module->e_shstrndx].sh_offset;
 1352              		.loc 2 296 0
 1353 0848 3A68     		ldr	r2, [r7]
 1354 084a 1344     		add	r3, r3, r2
 1355 084c FB62     		str	r3, [r7, #44]
 298:../../source/src/kernel/OS_CORE/module.c ****         if (ka_strcmp((const char *)(shstrab + shdr[index].sh_name), ELF_DYNSYM) == 0)
 1356              		.loc 2 298 0
 1357 084e 3B68     		ldr	r3, [r7]
 1358 0850 196A     		ldr	r1, [r3, #32]
 1359 0852 7A6D     		ldr	r2, [r7, #84]
 1360 0854 1346     		mov	r3, r2
 1361 0856 9B00     		lsls	r3, r3, #2
 1362 0858 1344     		add	r3, r3, r2
 1363 085a DB00     		lsls	r3, r3, #3
 1364 085c 0B44     		add	r3, r3, r1
 1365 085e 3A68     		ldr	r2, [r7]
 1366 0860 1344     		add	r3, r3, r2
 1367 0862 1B68     		ldr	r3, [r3]
 1368 0864 FA6A     		ldr	r2, [r7, #44]
 1369 0866 1344     		add	r3, r3, r2
 1370 0868 2B49     		ldr	r1, .L71+24
 1371 086a 1846     		mov	r0, r3
 1372 086c FFF7FEFF 		bl	ka_strcmp
 1373 0870 0346     		mov	r3, r0
 1374 0872 002B     		cmp	r3, #0
 1375 0874 09D0     		beq	.L67
 1376              	.LBE6:
 292:../../source/src/kernel/OS_CORE/module.c ****     {
 1377              		.loc 2 292 0 discriminator 2
 1378 0876 7B6D     		ldr	r3, [r7, #84]
 1379 0878 0133     		adds	r3, r3, #1
 1380 087a 7B65     		str	r3, [r7, #84]
 1381              	.L52:
 292:../../source/src/kernel/OS_CORE/module.c ****     {
 1382              		.loc 2 292 0 is_stmt 0 discriminator 1
 1383 087c 3B68     		ldr	r3, [r7]
 1384 087e 1B8E     		ldrh	r3, [r3, #48]
 1385 0880 1A46     		mov	r2, r3
 1386 0882 7B6D     		ldr	r3, [r7, #84]
 1387 0884 9342     		cmp	r3, r2
 1388 0886 D2D3     		bcc	.L55
 1389 0888 00E0     		b	.L54
 1390              	.L67:
 1391              	.LBB7:
 299:../../source/src/kernel/OS_CORE/module.c ****             break;
 1392              		.loc 2 299 0 is_stmt 1
ARM GAS  G:\Users\Jaxb\AppData\Local\Temp\cc4KUlGg.s 			page 33


 1393 088a 00BF     		nop
 1394              	.L54:
 1395              	.LBE7:
 300:../../source/src/kernel/OS_CORE/module.c ****     }
 301:../../source/src/kernel/OS_CORE/module.c ****     ka_printf("3\n");
 1396              		.loc 2 301 0
 1397 088c 2348     		ldr	r0, .L71+28
 1398 088e FFF7FEFF 		bl	ka_printf
 302:../../source/src/kernel/OS_CORE/module.c ****     /* found .dynsym section */
 303:../../source/src/kernel/OS_CORE/module.c ****     if (index != elf_module->e_shnum)
 1399              		.loc 2 303 0
 1400 0892 3B68     		ldr	r3, [r7]
 1401 0894 1B8E     		ldrh	r3, [r3, #48]
 1402 0896 1A46     		mov	r2, r3
 1403 0898 7B6D     		ldr	r3, [r7, #84]
 1404 089a 9342     		cmp	r3, r2
 1405 089c 00F0E680 		beq	.L56
 1406              	.LBB8:
 304:../../source/src/kernel/OS_CORE/module.c ****     {
 305:../../source/src/kernel/OS_CORE/module.c ****         int i, count = 0;
 1407              		.loc 2 305 0
 1408 08a0 0023     		movs	r3, #0
 1409 08a2 BB63     		str	r3, [r7, #56]
 306:../../source/src/kernel/OS_CORE/module.c ****         Elf32_Sym  *symtab = NULL;
 1410              		.loc 2 306 0
 1411 08a4 0023     		movs	r3, #0
 1412 08a6 BB62     		str	r3, [r7, #40]
 307:../../source/src/kernel/OS_CORE/module.c ****         UINT8 *strtab = NULL;
 1413              		.loc 2 307 0
 1414 08a8 0023     		movs	r3, #0
 1415 08aa 7B62     		str	r3, [r7, #36]
 308:../../source/src/kernel/OS_CORE/module.c **** 
 309:../../source/src/kernel/OS_CORE/module.c ****         symtab = (Elf32_Sym *)((UINT8 *)module_ptr + shdr[index].sh_offset);
 1416              		.loc 2 309 0
 1417 08ac 3B68     		ldr	r3, [r7]
 1418 08ae 196A     		ldr	r1, [r3, #32]
 1419 08b0 7A6D     		ldr	r2, [r7, #84]
 1420 08b2 1346     		mov	r3, r2
 1421 08b4 9B00     		lsls	r3, r3, #2
 1422 08b6 1344     		add	r3, r3, r2
 1423 08b8 DB00     		lsls	r3, r3, #3
 1424 08ba 0B44     		add	r3, r3, r1
 1425 08bc 3A68     		ldr	r2, [r7]
 1426 08be 1344     		add	r3, r3, r2
 1427 08c0 1B69     		ldr	r3, [r3, #16]
 1428 08c2 3A68     		ldr	r2, [r7]
 1429 08c4 1344     		add	r3, r3, r2
 1430 08c6 BB62     		str	r3, [r7, #40]
 310:../../source/src/kernel/OS_CORE/module.c ****         strtab = (UINT8 *)module_ptr + shdr[shdr[index].sh_link].sh_offset;
 1431              		.loc 2 310 0
 1432 08c8 3B68     		ldr	r3, [r7]
 1433 08ca 196A     		ldr	r1, [r3, #32]
 1434 08cc 3B68     		ldr	r3, [r7]
 1435 08ce 186A     		ldr	r0, [r3, #32]
 1436 08d0 7A6D     		ldr	r2, [r7, #84]
 1437 08d2 1346     		mov	r3, r2
 1438 08d4 9B00     		lsls	r3, r3, #2
ARM GAS  G:\Users\Jaxb\AppData\Local\Temp\cc4KUlGg.s 			page 34


 1439 08d6 1344     		add	r3, r3, r2
 1440 08d8 DB00     		lsls	r3, r3, #3
 1441 08da 0344     		add	r3, r3, r0
 1442 08dc 3A68     		ldr	r2, [r7]
 1443 08de 1344     		add	r3, r3, r2
 1444 08e0 9A69     		ldr	r2, [r3, #24]
 1445 08e2 1346     		mov	r3, r2
 1446 08e4 9B00     		lsls	r3, r3, #2
 1447 08e6 1344     		add	r3, r3, r2
 1448 08e8 DB00     		lsls	r3, r3, #3
 1449 08ea 0B44     		add	r3, r3, r1
 1450 08ec 3A68     		ldr	r2, [r7]
 1451 08ee 1344     		add	r3, r3, r2
 1452 08f0 1B69     		ldr	r3, [r3, #16]
 1453 08f2 3A68     		ldr	r2, [r7]
 1454 08f4 1344     		add	r3, r3, r2
 1455 08f6 7B62     		str	r3, [r7, #36]
 311:../../source/src/kernel/OS_CORE/module.c **** 
 312:../../source/src/kernel/OS_CORE/module.c ****         for (i = 0; i < shdr[index].sh_size / sizeof(Elf32_Sym); i++)
 1456              		.loc 2 312 0
 1457 08f8 0023     		movs	r3, #0
 1458 08fa FB63     		str	r3, [r7, #60]
 1459 08fc 28E0     		b	.L57
 1460              	.L72:
 1461 08fe 00BF     		.align	2
 1462              	.L71:
 1463 0900 7C020000 		.word	.LC17
 1464 0904 80020000 		.word	.LC18
 1465 0908 9C020000 		.word	.LC19
 1466 090c B0020000 		.word	.LC20
 1467 0910 08000000 		.word	unsolved.4441
 1468 0914 E0020000 		.word	.LC21
 1469 0918 E4020000 		.word	.LC22
 1470 091c EC020000 		.word	.LC23
 1471              	.L59:
 313:../../source/src/kernel/OS_CORE/module.c ****         {
 314:../../source/src/kernel/OS_CORE/module.c ****             if ((ELF_ST_BIND(symtab[i].st_info) == STB_GLOBAL) &&
 1472              		.loc 2 314 0
 1473 0920 FB6B     		ldr	r3, [r7, #60]
 1474 0922 1B01     		lsls	r3, r3, #4
 1475 0924 BA6A     		ldr	r2, [r7, #40]
 1476 0926 1344     		add	r3, r3, r2
 1477 0928 1B7B     		ldrb	r3, [r3, #12]	@ zero_extendqisi2
 1478 092a 1B09     		lsrs	r3, r3, #4
 1479 092c DBB2     		uxtb	r3, r3
 1480 092e 012B     		cmp	r3, #1
 1481 0930 0BD1     		bne	.L58
 315:../../source/src/kernel/OS_CORE/module.c ****                 (ELF_ST_TYPE(symtab[i].st_info) == STT_FUNC))
 1482              		.loc 2 315 0 discriminator 1
 1483 0932 FB6B     		ldr	r3, [r7, #60]
 1484 0934 1B01     		lsls	r3, r3, #4
 1485 0936 BA6A     		ldr	r2, [r7, #40]
 1486 0938 1344     		add	r3, r3, r2
 1487 093a 1B7B     		ldrb	r3, [r3, #12]	@ zero_extendqisi2
 1488 093c 03F00F03 		and	r3, r3, #15
 314:../../source/src/kernel/OS_CORE/module.c ****                 (ELF_ST_TYPE(symtab[i].st_info) == STT_FUNC))
 1489              		.loc 2 314 0 discriminator 1
ARM GAS  G:\Users\Jaxb\AppData\Local\Temp\cc4KUlGg.s 			page 35


 1490 0940 022B     		cmp	r3, #2
 1491 0942 02D1     		bne	.L58
 316:../../source/src/kernel/OS_CORE/module.c ****                 count ++;
 1492              		.loc 2 316 0
 1493 0944 BB6B     		ldr	r3, [r7, #56]
 1494 0946 0133     		adds	r3, r3, #1
 1495 0948 BB63     		str	r3, [r7, #56]
 1496              	.L58:
 312:../../source/src/kernel/OS_CORE/module.c ****         {
 1497              		.loc 2 312 0 discriminator 2
 1498 094a FB6B     		ldr	r3, [r7, #60]
 1499 094c 0133     		adds	r3, r3, #1
 1500 094e FB63     		str	r3, [r7, #60]
 1501              	.L57:
 312:../../source/src/kernel/OS_CORE/module.c ****         {
 1502              		.loc 2 312 0 is_stmt 0 discriminator 1
 1503 0950 3B68     		ldr	r3, [r7]
 1504 0952 196A     		ldr	r1, [r3, #32]
 1505 0954 7A6D     		ldr	r2, [r7, #84]
 1506 0956 1346     		mov	r3, r2
 1507 0958 9B00     		lsls	r3, r3, #2
 1508 095a 1344     		add	r3, r3, r2
 1509 095c DB00     		lsls	r3, r3, #3
 1510 095e 0B44     		add	r3, r3, r1
 1511 0960 3A68     		ldr	r2, [r7]
 1512 0962 1344     		add	r3, r3, r2
 1513 0964 5B69     		ldr	r3, [r3, #20]
 1514 0966 1A09     		lsrs	r2, r3, #4
 1515 0968 FB6B     		ldr	r3, [r7, #60]
 1516 096a 9A42     		cmp	r2, r3
 1517 096c D8D8     		bhi	.L59
 317:../../source/src/kernel/OS_CORE/module.c ****         }
 318:../../source/src/kernel/OS_CORE/module.c **** 
 319:../../source/src/kernel/OS_CORE/module.c ****         module->symtab = (struct rt_module_symtab *)ka_malloc
 1518              		.loc 2 319 0 is_stmt 1
 1519 096e BB6B     		ldr	r3, [r7, #56]
 1520 0970 DB00     		lsls	r3, r3, #3
 1521 0972 1846     		mov	r0, r3
 1522 0974 FFF7FEFF 		bl	ka_malloc
 1523 0978 0246     		mov	r2, r0
 1524 097a 7B68     		ldr	r3, [r7, #4]
 1525 097c 9A64     		str	r2, [r3, #72]
 320:../../source/src/kernel/OS_CORE/module.c ****                          (count * sizeof(struct rt_module_symtab));
 321:../../source/src/kernel/OS_CORE/module.c ****         module->nsym = count;
 1526              		.loc 2 321 0
 1527 097e BB6B     		ldr	r3, [r7, #56]
 1528 0980 9AB2     		uxth	r2, r3
 1529 0982 7B68     		ldr	r3, [r7, #4]
 1530 0984 A3F84620 		strh	r2, [r3, #70]	@ movhi
 322:../../source/src/kernel/OS_CORE/module.c ****         for (i = 0, count = 0; i < shdr[index].sh_size / sizeof(Elf32_Sym); i++)
 1531              		.loc 2 322 0
 1532 0988 0023     		movs	r3, #0
 1533 098a FB63     		str	r3, [r7, #60]
 1534 098c 0023     		movs	r3, #0
 1535 098e BB63     		str	r3, [r7, #56]
 1536 0990 5DE0     		b	.L60
 1537              	.L64:
ARM GAS  G:\Users\Jaxb\AppData\Local\Temp\cc4KUlGg.s 			page 36


 1538              	.LBB9:
 323:../../source/src/kernel/OS_CORE/module.c ****         {
 324:../../source/src/kernel/OS_CORE/module.c ****             unsigned long length;
 325:../../source/src/kernel/OS_CORE/module.c **** 
 326:../../source/src/kernel/OS_CORE/module.c ****             if ((ELF_ST_BIND(symtab[i].st_info) != STB_GLOBAL) ||
 1539              		.loc 2 326 0
 1540 0992 FB6B     		ldr	r3, [r7, #60]
 1541 0994 1B01     		lsls	r3, r3, #4
 1542 0996 BA6A     		ldr	r2, [r7, #40]
 1543 0998 1344     		add	r3, r3, r2
 1544 099a 1B7B     		ldrb	r3, [r3, #12]	@ zero_extendqisi2
 1545 099c 1B09     		lsrs	r3, r3, #4
 1546 099e DBB2     		uxtb	r3, r3
 1547 09a0 012B     		cmp	r3, #1
 1548 09a2 50D1     		bne	.L68
 327:../../source/src/kernel/OS_CORE/module.c ****                 (ELF_ST_TYPE(symtab[i].st_info) != STT_FUNC))
 1549              		.loc 2 327 0 discriminator 1
 1550 09a4 FB6B     		ldr	r3, [r7, #60]
 1551 09a6 1B01     		lsls	r3, r3, #4
 1552 09a8 BA6A     		ldr	r2, [r7, #40]
 1553 09aa 1344     		add	r3, r3, r2
 1554 09ac 1B7B     		ldrb	r3, [r3, #12]	@ zero_extendqisi2
 1555 09ae 03F00F03 		and	r3, r3, #15
 326:../../source/src/kernel/OS_CORE/module.c ****                 (ELF_ST_TYPE(symtab[i].st_info) != STT_FUNC))
 1556              		.loc 2 326 0 discriminator 1
 1557 09b2 022B     		cmp	r3, #2
 1558 09b4 47D1     		bne	.L68
 328:../../source/src/kernel/OS_CORE/module.c ****                 continue;
 329:../../source/src/kernel/OS_CORE/module.c **** 
 330:../../source/src/kernel/OS_CORE/module.c ****             length = ka_strlen((const char *)(strtab + symtab[i].st_name)) + 1;
 1559              		.loc 2 330 0
 1560 09b6 FB6B     		ldr	r3, [r7, #60]
 1561 09b8 1B01     		lsls	r3, r3, #4
 1562 09ba BA6A     		ldr	r2, [r7, #40]
 1563 09bc 1344     		add	r3, r3, r2
 1564 09be 1B68     		ldr	r3, [r3]
 1565 09c0 7A6A     		ldr	r2, [r7, #36]
 1566 09c2 1344     		add	r3, r3, r2
 1567 09c4 1846     		mov	r0, r3
 1568 09c6 FFF7FEFF 		bl	ka_strlen
 1569 09ca 0346     		mov	r3, r0
 1570 09cc 0133     		adds	r3, r3, #1
 1571 09ce 3B62     		str	r3, [r7, #32]
 331:../../source/src/kernel/OS_CORE/module.c **** 
 332:../../source/src/kernel/OS_CORE/module.c ****             module->symtab[count].addr =
 333:../../source/src/kernel/OS_CORE/module.c ****                 (void *)(module->mem_space + symtab[i].st_value - module->vstart_addr);
 1572              		.loc 2 333 0
 1573 09d0 7B68     		ldr	r3, [r7, #4]
 1574 09d2 596B     		ldr	r1, [r3, #52]
 1575 09d4 FB6B     		ldr	r3, [r7, #60]
 1576 09d6 1B01     		lsls	r3, r3, #4
 1577 09d8 BA6A     		ldr	r2, [r7, #40]
 1578 09da 1344     		add	r3, r3, r2
 1579 09dc 5A68     		ldr	r2, [r3, #4]
 1580 09de 7B68     		ldr	r3, [r7, #4]
 1581 09e0 9B6A     		ldr	r3, [r3, #40]
 1582 09e2 D21A     		subs	r2, r2, r3
ARM GAS  G:\Users\Jaxb\AppData\Local\Temp\cc4KUlGg.s 			page 37


 332:../../source/src/kernel/OS_CORE/module.c ****                 (void *)(module->mem_space + symtab[i].st_value - module->vstart_addr);
 1583              		.loc 2 332 0
 1584 09e4 7B68     		ldr	r3, [r7, #4]
 1585 09e6 986C     		ldr	r0, [r3, #72]
 1586 09e8 BB6B     		ldr	r3, [r7, #56]
 1587 09ea DB00     		lsls	r3, r3, #3
 1588 09ec 0344     		add	r3, r3, r0
 1589              		.loc 2 333 0
 1590 09ee 0A44     		add	r2, r2, r1
 332:../../source/src/kernel/OS_CORE/module.c ****                 (void *)(module->mem_space + symtab[i].st_value - module->vstart_addr);
 1591              		.loc 2 332 0
 1592 09f0 1A60     		str	r2, [r3]
 334:../../source/src/kernel/OS_CORE/module.c ****             module->symtab[count].name = ka_malloc(length);
 1593              		.loc 2 334 0
 1594 09f2 7B68     		ldr	r3, [r7, #4]
 1595 09f4 9A6C     		ldr	r2, [r3, #72]
 1596 09f6 BB6B     		ldr	r3, [r7, #56]
 1597 09f8 DB00     		lsls	r3, r3, #3
 1598 09fa D418     		adds	r4, r2, r3
 1599 09fc 386A     		ldr	r0, [r7, #32]
 1600 09fe FFF7FEFF 		bl	ka_malloc
 1601 0a02 0346     		mov	r3, r0
 1602 0a04 6360     		str	r3, [r4, #4]
 335:../../source/src/kernel/OS_CORE/module.c ****             ka_memset((void *)module->symtab[count].name, 0, length);
 1603              		.loc 2 335 0
 1604 0a06 7B68     		ldr	r3, [r7, #4]
 1605 0a08 9A6C     		ldr	r2, [r3, #72]
 1606 0a0a BB6B     		ldr	r3, [r7, #56]
 1607 0a0c DB00     		lsls	r3, r3, #3
 1608 0a0e 1344     		add	r3, r3, r2
 1609 0a10 5B68     		ldr	r3, [r3, #4]
 1610 0a12 3A6A     		ldr	r2, [r7, #32]
 1611 0a14 0021     		movs	r1, #0
 1612 0a16 1846     		mov	r0, r3
 1613 0a18 FFF7FEFF 		bl	ka_memset
 336:../../source/src/kernel/OS_CORE/module.c ****             ka_memcpy((void *)module->symtab[count].name,
 1614              		.loc 2 336 0
 1615 0a1c 7B68     		ldr	r3, [r7, #4]
 1616 0a1e 9A6C     		ldr	r2, [r3, #72]
 1617 0a20 BB6B     		ldr	r3, [r7, #56]
 1618 0a22 DB00     		lsls	r3, r3, #3
 1619 0a24 1344     		add	r3, r3, r2
 1620 0a26 5868     		ldr	r0, [r3, #4]
 337:../../source/src/kernel/OS_CORE/module.c ****                       strtab + symtab[i].st_name,
 1621              		.loc 2 337 0
 1622 0a28 FB6B     		ldr	r3, [r7, #60]
 1623 0a2a 1B01     		lsls	r3, r3, #4
 1624 0a2c BA6A     		ldr	r2, [r7, #40]
 1625 0a2e 1344     		add	r3, r3, r2
 1626 0a30 1B68     		ldr	r3, [r3]
 1627 0a32 7A6A     		ldr	r2, [r7, #36]
 1628 0a34 1344     		add	r3, r3, r2
 336:../../source/src/kernel/OS_CORE/module.c ****             ka_memcpy((void *)module->symtab[count].name,
 1629              		.loc 2 336 0
 1630 0a36 3A6A     		ldr	r2, [r7, #32]
 1631 0a38 1946     		mov	r1, r3
 1632 0a3a FFF7FEFF 		bl	ka_memcpy
ARM GAS  G:\Users\Jaxb\AppData\Local\Temp\cc4KUlGg.s 			page 38


 338:../../source/src/kernel/OS_CORE/module.c ****                       length);
 339:../../source/src/kernel/OS_CORE/module.c ****             count ++;
 1633              		.loc 2 339 0
 1634 0a3e BB6B     		ldr	r3, [r7, #56]
 1635 0a40 0133     		adds	r3, r3, #1
 1636 0a42 BB63     		str	r3, [r7, #56]
 1637 0a44 00E0     		b	.L63
 1638              	.L68:
 328:../../source/src/kernel/OS_CORE/module.c **** 
 1639              		.loc 2 328 0
 1640 0a46 00BF     		nop
 1641              	.L63:
 1642              	.LBE9:
 322:../../source/src/kernel/OS_CORE/module.c ****         {
 1643              		.loc 2 322 0 discriminator 2
 1644 0a48 FB6B     		ldr	r3, [r7, #60]
 1645 0a4a 0133     		adds	r3, r3, #1
 1646 0a4c FB63     		str	r3, [r7, #60]
 1647              	.L60:
 322:../../source/src/kernel/OS_CORE/module.c ****         {
 1648              		.loc 2 322 0 is_stmt 0 discriminator 1
 1649 0a4e 3B68     		ldr	r3, [r7]
 1650 0a50 196A     		ldr	r1, [r3, #32]
 1651 0a52 7A6D     		ldr	r2, [r7, #84]
 1652 0a54 1346     		mov	r3, r2
 1653 0a56 9B00     		lsls	r3, r3, #2
 1654 0a58 1344     		add	r3, r3, r2
 1655 0a5a DB00     		lsls	r3, r3, #3
 1656 0a5c 0B44     		add	r3, r3, r1
 1657 0a5e 3A68     		ldr	r2, [r7]
 1658 0a60 1344     		add	r3, r3, r2
 1659 0a62 5B69     		ldr	r3, [r3, #20]
 1660 0a64 1A09     		lsrs	r2, r3, #4
 1661 0a66 FB6B     		ldr	r3, [r7, #60]
 1662 0a68 9A42     		cmp	r2, r3
 1663 0a6a 92D8     		bhi	.L64
 1664              	.L56:
 1665              	.LBE8:
 340:../../source/src/kernel/OS_CORE/module.c ****         }
 341:../../source/src/kernel/OS_CORE/module.c ****     }
 342:../../source/src/kernel/OS_CORE/module.c **** 
 343:../../source/src/kernel/OS_CORE/module.c ****     return RT_EOK;
 1666              		.loc 2 343 0 is_stmt 1
 1667 0a6c 0023     		movs	r3, #0
 1668              	.L32:
 344:../../source/src/kernel/OS_CORE/module.c **** }
 1669              		.loc 2 344 0
 1670 0a6e 1846     		mov	r0, r3
 1671 0a70 5C37     		adds	r7, r7, #92
 1672              	.LCFI14:
 1673              		.cfi_def_cfa_offset 12
 1674 0a72 BD46     		mov	sp, r7
 1675              	.LCFI15:
 1676              		.cfi_def_cfa_register 13
 1677              		@ sp needed
 1678 0a74 90BD     		pop	{r4, r7, pc}
 1679              		.cfi_endproc
ARM GAS  G:\Users\Jaxb\AppData\Local\Temp\cc4KUlGg.s 			page 39


 1680              	.LFE11:
 1681              		.size	dlmodule_load_shared_object, .-dlmodule_load_shared_object
 1682              		.section	.rodata
 1683 02ef 00       		.align	2
 1684              	.LC24:
 1685 02f0 6D6F6475 		.ascii	"module size is %u\012\000"
 1685      6C652073 
 1685      697A6520 
 1685      69732025 
 1685      750A00
 1686 0303 00       		.align	2
 1687              	.LC25:
 1688 0304 6D656D5F 		.ascii	"mem_space is %p\012\000"
 1688      73706163 
 1688      65206973 
 1688      2025700A 
 1688      00
 1689 0315 000000   		.align	2
 1690              	.LC26:
 1691 0318 6C6F6164 		.ascii	"load text 0x%x, size %d\012\000"
 1691      20746578 
 1691      74203078 
 1691      25782C20 
 1691      73697A65 
 1692 0331 000000   		.align	2
 1693              	.LC27:
 1694 0334 6C6F6164 		.ascii	"load rodata 0x%x, size %d, rodata 0x%x\012\000"
 1694      20726F64 
 1694      61746120 
 1694      30782578 
 1694      2C207369 
 1695              		.align	2
 1696              	.LC28:
 1697 035c 6C6F6164 		.ascii	"load data 0x%x, size %d, data 0x%x\012\000"
 1697      20646174 
 1697      61203078 
 1697      25782C20 
 1697      73697A65 
 1698              		.align	2
 1699              	.LC29:
 1700 0380 6C6F6164 		.ascii	"load bss 0x%x, size %d\012\000"
 1700      20627373 
 1700      20307825 
 1700      782C2073 
 1700      697A6520 
 1701              		.align	2
 1702              	.LC30:
 1703 0398 6D6F6475 		.ascii	"module entry point is %p\012\000"
 1703      6C652065 
 1703      6E747279 
 1703      20706F69 
 1703      6E742069 
 1704 03b2 0000     		.align	2
 1705              	.LC31:
 1706 03b4 74797065 		.ascii	"type is %u\012\000"
 1706      20697320 
 1706      25750A00 
ARM GAS  G:\Users\Jaxb\AppData\Local\Temp\cc4KUlGg.s 			page 40


 1707              		.align	2
 1708              	.LC32:
 1709 03c0 72656C6F 		.ascii	"relocate items round %d\012\000"
 1709      63617465 
 1709      20697465 
 1709      6D732072 
 1709      6F756E64 
 1710 03d9 000000   		.align	2
 1711              	.LC33:
 1712 03dc 72656C6F 		.ascii	"relocate symbol: %s\012\000"
 1712      63617465 
 1712      2073796D 
 1712      626F6C3A 
 1712      2025730A 
 1713 03f1 000000   		.align	2
 1714              	.LC34:
 1715 03f4 2153544E 		.ascii	"!STN_UNDEF\012\000"
 1715      5F554E44 
 1715      45460A00 
 1716              		.align	2
 1717              	.LC35:
 1718 0400 2E726F64 		.ascii	".rodata\000"
 1718      61746100 
 1719              		.align	2
 1720              	.LC36:
 1721 0408 726F6461 		.ascii	"rodata\012\000"
 1721      74610A00 
 1722              		.align	2
 1723              	.LC37:
 1724 0410 2E627373 		.ascii	".bss\000"
 1724      00
 1725 0415 000000   		.align	2
 1726              	.LC38:
 1727 0418 6273730A 		.ascii	"bss\012\000"
 1727      00
 1728 041d 000000   		.align	2
 1729              	.LC39:
 1730 0420 2E646174 		.ascii	".data\000"
 1730      6100
 1731 0426 0000     		.align	2
 1732              	.LC40:
 1733 0428 64617461 		.ascii	"data\012\000"
 1733      0A00
 1734 042e 0000     		.align	2
 1735              	.LC41:
 1736 0430 66756E63 		.ascii	"function\012\000"
 1736      74696F6E 
 1736      0A00
 1737 043a 0000     		.align	2
 1738              	.LC42:
 1739 043c 5354545F 		.ascii	"STT_FUNC\012\000"
 1739      46554E43 
 1739      0A00
 1740 0446 0000     		.align	2
 1741              	.LC43:
 1742 0448 6F746865 		.ascii	"other\012\000"
 1742      720A00
ARM GAS  G:\Users\Jaxb\AppData\Local\Temp\cc4KUlGg.s 			page 41


 1743 044f 00       		.align	2
 1744              	.LC44:
 1745 0450 67657420 		.ascii	"get addr is %p\012\000"
 1745      61646472 
 1745      20697320 
 1745      25700A00 
 1746              		.align	2
 1747              	.LC45:
 1748 0460 73796D62 		.ascii	"symbol addr 0x%x\012\000"
 1748      6F6C2061 
 1748      64647220 
 1748      30782578 
 1748      0A00
 1749 0472 0000     		.align	2
 1750              	.LC46:
 1751 0474 4D6F6475 		.ascii	"Module: can't find %s in kernel symbol table\012\000"
 1751      6C653A20 
 1751      63616E27 
 1751      74206669 
 1751      6E642025 
 1752              		.text
 1753              		.align	1
 1754              		.global	dlmodule_load_relocated_object
 1755              		.syntax unified
 1756              		.thumb
 1757              		.thumb_func
 1758              		.fpu softvfp
 1759              		.type	dlmodule_load_relocated_object, %function
 1760              	dlmodule_load_relocated_object:
 1761              	.LFB12:
 345:../../source/src/kernel/OS_CORE/module.c **** 
 346:../../source/src/kernel/OS_CORE/module.c **** rt_err_t dlmodule_load_relocated_object(struct rt_dlmodule* module, void *module_ptr)
 347:../../source/src/kernel/OS_CORE/module.c **** {
 1762              		.loc 2 347 0
 1763              		.cfi_startproc
 1764              		@ args = 0, pretend = 0, frame = 72
 1765              		@ frame_needed = 1, uses_anonymous_args = 0
 1766 0a76 F0B5     		push	{r4, r5, r6, r7, lr}
 1767              	.LCFI16:
 1768              		.cfi_def_cfa_offset 20
 1769              		.cfi_offset 4, -20
 1770              		.cfi_offset 5, -16
 1771              		.cfi_offset 6, -12
 1772              		.cfi_offset 7, -8
 1773              		.cfi_offset 14, -4
 1774 0a78 9BB0     		sub	sp, sp, #108
 1775              	.LCFI17:
 1776              		.cfi_def_cfa_offset 128
 1777 0a7a 08AF     		add	r7, sp, #32
 1778              	.LCFI18:
 1779              		.cfi_def_cfa 7, 96
 1780 0a7c 7860     		str	r0, [r7, #4]
 1781 0a7e 3960     		str	r1, [r7]
 348:../../source/src/kernel/OS_CORE/module.c ****     UINT32 index, rodata_addr = 0, bss_addr = 0, data_addr = 0;
 1782              		.loc 2 348 0
 1783 0a80 0023     		movs	r3, #0
 1784 0a82 3B64     		str	r3, [r7, #64]
ARM GAS  G:\Users\Jaxb\AppData\Local\Temp\cc4KUlGg.s 			page 42


 1785 0a84 0023     		movs	r3, #0
 1786 0a86 FB63     		str	r3, [r7, #60]
 1787 0a88 0023     		movs	r3, #0
 1788 0a8a BB63     		str	r3, [r7, #56]
 349:../../source/src/kernel/OS_CORE/module.c ****     UINT32 module_addr = 0, module_size = 0;
 1789              		.loc 2 349 0
 1790 0a8c 0023     		movs	r3, #0
 1791 0a8e 7B63     		str	r3, [r7, #52]
 1792 0a90 0023     		movs	r3, #0
 1793 0a92 3B63     		str	r3, [r7, #48]
 350:../../source/src/kernel/OS_CORE/module.c ****     UINT8 *ptr, *strtab, *shstrab;
 351:../../source/src/kernel/OS_CORE/module.c **** 
 352:../../source/src/kernel/OS_CORE/module.c ****     /* get the ELF image size */
 353:../../source/src/kernel/OS_CORE/module.c ****     for (index = 0; index < elf_module->e_shnum; index ++)
 1794              		.loc 2 353 0
 1795 0a94 0023     		movs	r3, #0
 1796 0a96 7B64     		str	r3, [r7, #68]
 1797 0a98 E1E0     		b	.L74
 1798              	.L79:
 354:../../source/src/kernel/OS_CORE/module.c ****     {
 355:../../source/src/kernel/OS_CORE/module.c ****         /* text */
 356:../../source/src/kernel/OS_CORE/module.c ****         if (IS_PROG(shdr[index]) && IS_AX(shdr[index]))
 1799              		.loc 2 356 0
 1800 0a9a 3B68     		ldr	r3, [r7]
 1801 0a9c 196A     		ldr	r1, [r3, #32]
 1802 0a9e 7A6C     		ldr	r2, [r7, #68]
 1803 0aa0 1346     		mov	r3, r2
 1804 0aa2 9B00     		lsls	r3, r3, #2
 1805 0aa4 1344     		add	r3, r3, r2
 1806 0aa6 DB00     		lsls	r3, r3, #3
 1807 0aa8 0B44     		add	r3, r3, r1
 1808 0aaa 3A68     		ldr	r2, [r7]
 1809 0aac 1344     		add	r3, r3, r2
 1810 0aae 5B68     		ldr	r3, [r3, #4]
 1811 0ab0 012B     		cmp	r3, #1
 1812 0ab2 37D1     		bne	.L75
 1813              		.loc 2 356 0 is_stmt 0 discriminator 1
 1814 0ab4 3B68     		ldr	r3, [r7]
 1815 0ab6 196A     		ldr	r1, [r3, #32]
 1816 0ab8 7A6C     		ldr	r2, [r7, #68]
 1817 0aba 1346     		mov	r3, r2
 1818 0abc 9B00     		lsls	r3, r3, #2
 1819 0abe 1344     		add	r3, r3, r2
 1820 0ac0 DB00     		lsls	r3, r3, #3
 1821 0ac2 0B44     		add	r3, r3, r1
 1822 0ac4 3A68     		ldr	r2, [r7]
 1823 0ac6 1344     		add	r3, r3, r2
 1824 0ac8 9B68     		ldr	r3, [r3, #8]
 1825 0aca 03F00203 		and	r3, r3, #2
 1826 0ace 002B     		cmp	r3, #0
 1827 0ad0 28D0     		beq	.L75
 1828              		.loc 2 356 0 discriminator 2
 1829 0ad2 3B68     		ldr	r3, [r7]
 1830 0ad4 196A     		ldr	r1, [r3, #32]
 1831 0ad6 7A6C     		ldr	r2, [r7, #68]
 1832 0ad8 1346     		mov	r3, r2
 1833 0ada 9B00     		lsls	r3, r3, #2
ARM GAS  G:\Users\Jaxb\AppData\Local\Temp\cc4KUlGg.s 			page 43


 1834 0adc 1344     		add	r3, r3, r2
 1835 0ade DB00     		lsls	r3, r3, #3
 1836 0ae0 0B44     		add	r3, r3, r1
 1837 0ae2 3A68     		ldr	r2, [r7]
 1838 0ae4 1344     		add	r3, r3, r2
 1839 0ae6 9B68     		ldr	r3, [r3, #8]
 1840 0ae8 03F00403 		and	r3, r3, #4
 1841 0aec 002B     		cmp	r3, #0
 1842 0aee 19D0     		beq	.L75
 357:../../source/src/kernel/OS_CORE/module.c ****         {
 358:../../source/src/kernel/OS_CORE/module.c ****             module_size += shdr[index].sh_size;
 1843              		.loc 2 358 0 is_stmt 1
 1844 0af0 3B68     		ldr	r3, [r7]
 1845 0af2 196A     		ldr	r1, [r3, #32]
 1846 0af4 7A6C     		ldr	r2, [r7, #68]
 1847 0af6 1346     		mov	r3, r2
 1848 0af8 9B00     		lsls	r3, r3, #2
 1849 0afa 1344     		add	r3, r3, r2
 1850 0afc DB00     		lsls	r3, r3, #3
 1851 0afe 0B44     		add	r3, r3, r1
 1852 0b00 3A68     		ldr	r2, [r7]
 1853 0b02 1344     		add	r3, r3, r2
 1854 0b04 5B69     		ldr	r3, [r3, #20]
 1855 0b06 3A6B     		ldr	r2, [r7, #48]
 1856 0b08 1344     		add	r3, r3, r2
 1857 0b0a 3B63     		str	r3, [r7, #48]
 359:../../source/src/kernel/OS_CORE/module.c ****             module_addr = shdr[index].sh_addr;
 1858              		.loc 2 359 0
 1859 0b0c 3B68     		ldr	r3, [r7]
 1860 0b0e 196A     		ldr	r1, [r3, #32]
 1861 0b10 7A6C     		ldr	r2, [r7, #68]
 1862 0b12 1346     		mov	r3, r2
 1863 0b14 9B00     		lsls	r3, r3, #2
 1864 0b16 1344     		add	r3, r3, r2
 1865 0b18 DB00     		lsls	r3, r3, #3
 1866 0b1a 0B44     		add	r3, r3, r1
 1867 0b1c 3A68     		ldr	r2, [r7]
 1868 0b1e 1344     		add	r3, r3, r2
 1869 0b20 DB68     		ldr	r3, [r3, #12]
 1870 0b22 7B63     		str	r3, [r7, #52]
 1871              	.L75:
 360:../../source/src/kernel/OS_CORE/module.c ****         }
 361:../../source/src/kernel/OS_CORE/module.c ****         /* rodata */
 362:../../source/src/kernel/OS_CORE/module.c ****         if (IS_PROG(shdr[index]) && IS_ALLOC(shdr[index]))
 1872              		.loc 2 362 0
 1873 0b24 3B68     		ldr	r3, [r7]
 1874 0b26 196A     		ldr	r1, [r3, #32]
 1875 0b28 7A6C     		ldr	r2, [r7, #68]
 1876 0b2a 1346     		mov	r3, r2
 1877 0b2c 9B00     		lsls	r3, r3, #2
 1878 0b2e 1344     		add	r3, r3, r2
 1879 0b30 DB00     		lsls	r3, r3, #3
 1880 0b32 0B44     		add	r3, r3, r1
 1881 0b34 3A68     		ldr	r2, [r7]
 1882 0b36 1344     		add	r3, r3, r2
 1883 0b38 5B68     		ldr	r3, [r3, #4]
 1884 0b3a 012B     		cmp	r3, #1
ARM GAS  G:\Users\Jaxb\AppData\Local\Temp\cc4KUlGg.s 			page 44


 1885 0b3c 1AD1     		bne	.L76
 1886              		.loc 2 362 0 is_stmt 0 discriminator 1
 1887 0b3e 3B68     		ldr	r3, [r7]
 1888 0b40 196A     		ldr	r1, [r3, #32]
 1889 0b42 7A6C     		ldr	r2, [r7, #68]
 1890 0b44 1346     		mov	r3, r2
 1891 0b46 9B00     		lsls	r3, r3, #2
 1892 0b48 1344     		add	r3, r3, r2
 1893 0b4a DB00     		lsls	r3, r3, #3
 1894 0b4c 0B44     		add	r3, r3, r1
 1895 0b4e 3A68     		ldr	r2, [r7]
 1896 0b50 1344     		add	r3, r3, r2
 1897 0b52 9B68     		ldr	r3, [r3, #8]
 1898 0b54 022B     		cmp	r3, #2
 1899 0b56 0DD1     		bne	.L76
 363:../../source/src/kernel/OS_CORE/module.c ****         {
 364:../../source/src/kernel/OS_CORE/module.c ****             module_size += shdr[index].sh_size;
 1900              		.loc 2 364 0 is_stmt 1
 1901 0b58 3B68     		ldr	r3, [r7]
 1902 0b5a 196A     		ldr	r1, [r3, #32]
 1903 0b5c 7A6C     		ldr	r2, [r7, #68]
 1904 0b5e 1346     		mov	r3, r2
 1905 0b60 9B00     		lsls	r3, r3, #2
 1906 0b62 1344     		add	r3, r3, r2
 1907 0b64 DB00     		lsls	r3, r3, #3
 1908 0b66 0B44     		add	r3, r3, r1
 1909 0b68 3A68     		ldr	r2, [r7]
 1910 0b6a 1344     		add	r3, r3, r2
 1911 0b6c 5B69     		ldr	r3, [r3, #20]
 1912 0b6e 3A6B     		ldr	r2, [r7, #48]
 1913 0b70 1344     		add	r3, r3, r2
 1914 0b72 3B63     		str	r3, [r7, #48]
 1915              	.L76:
 365:../../source/src/kernel/OS_CORE/module.c ****         }
 366:../../source/src/kernel/OS_CORE/module.c ****         /* data */
 367:../../source/src/kernel/OS_CORE/module.c ****         if (IS_PROG(shdr[index]) && IS_AW(shdr[index]))
 1916              		.loc 2 367 0
 1917 0b74 3B68     		ldr	r3, [r7]
 1918 0b76 196A     		ldr	r1, [r3, #32]
 1919 0b78 7A6C     		ldr	r2, [r7, #68]
 1920 0b7a 1346     		mov	r3, r2
 1921 0b7c 9B00     		lsls	r3, r3, #2
 1922 0b7e 1344     		add	r3, r3, r2
 1923 0b80 DB00     		lsls	r3, r3, #3
 1924 0b82 0B44     		add	r3, r3, r1
 1925 0b84 3A68     		ldr	r2, [r7]
 1926 0b86 1344     		add	r3, r3, r2
 1927 0b88 5B68     		ldr	r3, [r3, #4]
 1928 0b8a 012B     		cmp	r3, #1
 1929 0b8c 2BD1     		bne	.L77
 1930              		.loc 2 367 0 is_stmt 0 discriminator 1
 1931 0b8e 3B68     		ldr	r3, [r7]
 1932 0b90 196A     		ldr	r1, [r3, #32]
 1933 0b92 7A6C     		ldr	r2, [r7, #68]
 1934 0b94 1346     		mov	r3, r2
 1935 0b96 9B00     		lsls	r3, r3, #2
 1936 0b98 1344     		add	r3, r3, r2
ARM GAS  G:\Users\Jaxb\AppData\Local\Temp\cc4KUlGg.s 			page 45


 1937 0b9a DB00     		lsls	r3, r3, #3
 1938 0b9c 0B44     		add	r3, r3, r1
 1939 0b9e 3A68     		ldr	r2, [r7]
 1940 0ba0 1344     		add	r3, r3, r2
 1941 0ba2 9B68     		ldr	r3, [r3, #8]
 1942 0ba4 03F00203 		and	r3, r3, #2
 1943 0ba8 002B     		cmp	r3, #0
 1944 0baa 1CD0     		beq	.L77
 1945              		.loc 2 367 0 discriminator 2
 1946 0bac 3B68     		ldr	r3, [r7]
 1947 0bae 196A     		ldr	r1, [r3, #32]
 1948 0bb0 7A6C     		ldr	r2, [r7, #68]
 1949 0bb2 1346     		mov	r3, r2
 1950 0bb4 9B00     		lsls	r3, r3, #2
 1951 0bb6 1344     		add	r3, r3, r2
 1952 0bb8 DB00     		lsls	r3, r3, #3
 1953 0bba 0B44     		add	r3, r3, r1
 1954 0bbc 3A68     		ldr	r2, [r7]
 1955 0bbe 1344     		add	r3, r3, r2
 1956 0bc0 9B68     		ldr	r3, [r3, #8]
 1957 0bc2 03F00103 		and	r3, r3, #1
 1958 0bc6 002B     		cmp	r3, #0
 1959 0bc8 0DD0     		beq	.L77
 368:../../source/src/kernel/OS_CORE/module.c ****         {
 369:../../source/src/kernel/OS_CORE/module.c ****             module_size += shdr[index].sh_size;
 1960              		.loc 2 369 0 is_stmt 1
 1961 0bca 3B68     		ldr	r3, [r7]
 1962 0bcc 196A     		ldr	r1, [r3, #32]
 1963 0bce 7A6C     		ldr	r2, [r7, #68]
 1964 0bd0 1346     		mov	r3, r2
 1965 0bd2 9B00     		lsls	r3, r3, #2
 1966 0bd4 1344     		add	r3, r3, r2
 1967 0bd6 DB00     		lsls	r3, r3, #3
 1968 0bd8 0B44     		add	r3, r3, r1
 1969 0bda 3A68     		ldr	r2, [r7]
 1970 0bdc 1344     		add	r3, r3, r2
 1971 0bde 5B69     		ldr	r3, [r3, #20]
 1972 0be0 3A6B     		ldr	r2, [r7, #48]
 1973 0be2 1344     		add	r3, r3, r2
 1974 0be4 3B63     		str	r3, [r7, #48]
 1975              	.L77:
 370:../../source/src/kernel/OS_CORE/module.c ****         }
 371:../../source/src/kernel/OS_CORE/module.c ****         /* bss */
 372:../../source/src/kernel/OS_CORE/module.c ****         if (IS_NOPROG(shdr[index]) && IS_AW(shdr[index]))
 1976              		.loc 2 372 0
 1977 0be6 3B68     		ldr	r3, [r7]
 1978 0be8 196A     		ldr	r1, [r3, #32]
 1979 0bea 7A6C     		ldr	r2, [r7, #68]
 1980 0bec 1346     		mov	r3, r2
 1981 0bee 9B00     		lsls	r3, r3, #2
 1982 0bf0 1344     		add	r3, r3, r2
 1983 0bf2 DB00     		lsls	r3, r3, #3
 1984 0bf4 0B44     		add	r3, r3, r1
 1985 0bf6 3A68     		ldr	r2, [r7]
 1986 0bf8 1344     		add	r3, r3, r2
 1987 0bfa 5B68     		ldr	r3, [r3, #4]
 1988 0bfc 082B     		cmp	r3, #8
ARM GAS  G:\Users\Jaxb\AppData\Local\Temp\cc4KUlGg.s 			page 46


 1989 0bfe 2BD1     		bne	.L78
 1990              		.loc 2 372 0 is_stmt 0 discriminator 1
 1991 0c00 3B68     		ldr	r3, [r7]
 1992 0c02 196A     		ldr	r1, [r3, #32]
 1993 0c04 7A6C     		ldr	r2, [r7, #68]
 1994 0c06 1346     		mov	r3, r2
 1995 0c08 9B00     		lsls	r3, r3, #2
 1996 0c0a 1344     		add	r3, r3, r2
 1997 0c0c DB00     		lsls	r3, r3, #3
 1998 0c0e 0B44     		add	r3, r3, r1
 1999 0c10 3A68     		ldr	r2, [r7]
 2000 0c12 1344     		add	r3, r3, r2
 2001 0c14 9B68     		ldr	r3, [r3, #8]
 2002 0c16 03F00203 		and	r3, r3, #2
 2003 0c1a 002B     		cmp	r3, #0
 2004 0c1c 1CD0     		beq	.L78
 2005              		.loc 2 372 0 discriminator 2
 2006 0c1e 3B68     		ldr	r3, [r7]
 2007 0c20 196A     		ldr	r1, [r3, #32]
 2008 0c22 7A6C     		ldr	r2, [r7, #68]
 2009 0c24 1346     		mov	r3, r2
 2010 0c26 9B00     		lsls	r3, r3, #2
 2011 0c28 1344     		add	r3, r3, r2
 2012 0c2a DB00     		lsls	r3, r3, #3
 2013 0c2c 0B44     		add	r3, r3, r1
 2014 0c2e 3A68     		ldr	r2, [r7]
 2015 0c30 1344     		add	r3, r3, r2
 2016 0c32 9B68     		ldr	r3, [r3, #8]
 2017 0c34 03F00103 		and	r3, r3, #1
 2018 0c38 002B     		cmp	r3, #0
 2019 0c3a 0DD0     		beq	.L78
 373:../../source/src/kernel/OS_CORE/module.c ****         {
 374:../../source/src/kernel/OS_CORE/module.c ****             module_size += shdr[index].sh_size;
 2020              		.loc 2 374 0 is_stmt 1
 2021 0c3c 3B68     		ldr	r3, [r7]
 2022 0c3e 196A     		ldr	r1, [r3, #32]
 2023 0c40 7A6C     		ldr	r2, [r7, #68]
 2024 0c42 1346     		mov	r3, r2
 2025 0c44 9B00     		lsls	r3, r3, #2
 2026 0c46 1344     		add	r3, r3, r2
 2027 0c48 DB00     		lsls	r3, r3, #3
 2028 0c4a 0B44     		add	r3, r3, r1
 2029 0c4c 3A68     		ldr	r2, [r7]
 2030 0c4e 1344     		add	r3, r3, r2
 2031 0c50 5B69     		ldr	r3, [r3, #20]
 2032 0c52 3A6B     		ldr	r2, [r7, #48]
 2033 0c54 1344     		add	r3, r3, r2
 2034 0c56 3B63     		str	r3, [r7, #48]
 2035              	.L78:
 353:../../source/src/kernel/OS_CORE/module.c ****     {
 2036              		.loc 2 353 0 discriminator 2
 2037 0c58 7B6C     		ldr	r3, [r7, #68]
 2038 0c5a 0133     		adds	r3, r3, #1
 2039 0c5c 7B64     		str	r3, [r7, #68]
 2040              	.L74:
 353:../../source/src/kernel/OS_CORE/module.c ****     {
 2041              		.loc 2 353 0 is_stmt 0 discriminator 1
ARM GAS  G:\Users\Jaxb\AppData\Local\Temp\cc4KUlGg.s 			page 47


 2042 0c5e 3B68     		ldr	r3, [r7]
 2043 0c60 1B8E     		ldrh	r3, [r3, #48]
 2044 0c62 1A46     		mov	r2, r3
 2045 0c64 7B6C     		ldr	r3, [r7, #68]
 2046 0c66 9342     		cmp	r3, r2
 2047 0c68 FFF417AF 		bcc	.L79
 375:../../source/src/kernel/OS_CORE/module.c ****         }
 376:../../source/src/kernel/OS_CORE/module.c ****     }
 377:../../source/src/kernel/OS_CORE/module.c **** 
 378:../../source/src/kernel/OS_CORE/module.c ****     /* no text, data and bss on image */
 379:../../source/src/kernel/OS_CORE/module.c ****     if (module_size == 0) return NULL;
 2048              		.loc 2 379 0 is_stmt 1
 2049 0c6c 3B6B     		ldr	r3, [r7, #48]
 2050 0c6e 002B     		cmp	r3, #0
 2051 0c70 01D1     		bne	.L80
 2052              		.loc 2 379 0 is_stmt 0 discriminator 1
 2053 0c72 0023     		movs	r3, #0
 2054 0c74 8BE3     		b	.L81
 2055              	.L80:
 380:../../source/src/kernel/OS_CORE/module.c **** 
 381:../../source/src/kernel/OS_CORE/module.c ****     module->vstart_addr = 0;
 2056              		.loc 2 381 0 is_stmt 1
 2057 0c76 7B68     		ldr	r3, [r7, #4]
 2058 0c78 0022     		movs	r2, #0
 2059 0c7a 9A62     		str	r2, [r3, #40]
 382:../../source/src/kernel/OS_CORE/module.c **** 
 383:../../source/src/kernel/OS_CORE/module.c ****     /* allocate module space */
 384:../../source/src/kernel/OS_CORE/module.c ****     ka_printf("module size is %u\n",module_size);
 2060              		.loc 2 384 0
 2061 0c7c 396B     		ldr	r1, [r7, #48]
 2062 0c7e 1448     		ldr	r0, .L108
 2063 0c80 FFF7FEFF 		bl	ka_printf
 385:../../source/src/kernel/OS_CORE/module.c ****     module->mem_space = ka_malloc(module_size);
 2064              		.loc 2 385 0
 2065 0c84 386B     		ldr	r0, [r7, #48]
 2066 0c86 FFF7FEFF 		bl	ka_malloc
 2067 0c8a 0246     		mov	r2, r0
 2068 0c8c 7B68     		ldr	r3, [r7, #4]
 2069 0c8e 5A63     		str	r2, [r3, #52]
 386:../../source/src/kernel/OS_CORE/module.c ****     if (module->mem_space == NULL)
 2070              		.loc 2 386 0
 2071 0c90 7B68     		ldr	r3, [r7, #4]
 2072 0c92 5B6B     		ldr	r3, [r3, #52]
 2073 0c94 002B     		cmp	r3, #0
 2074 0c96 05D1     		bne	.L82
 387:../../source/src/kernel/OS_CORE/module.c ****     {
 388:../../source/src/kernel/OS_CORE/module.c ****         ka_printf("Module: allocate space failed.\n");
 2075              		.loc 2 388 0
 2076 0c98 0E48     		ldr	r0, .L108+4
 2077 0c9a FFF7FEFF 		bl	ka_printf
 389:../../source/src/kernel/OS_CORE/module.c ****         return -RT_ERROR;
 2078              		.loc 2 389 0
 2079 0c9e 4FF0FF33 		mov	r3, #-1
 2080 0ca2 74E3     		b	.L81
 2081              	.L82:
 390:../../source/src/kernel/OS_CORE/module.c ****     }
 391:../../source/src/kernel/OS_CORE/module.c ****     module->mem_size = module_size;
ARM GAS  G:\Users\Jaxb\AppData\Local\Temp\cc4KUlGg.s 			page 48


 2082              		.loc 2 391 0
 2083 0ca4 7B68     		ldr	r3, [r7, #4]
 2084 0ca6 3A6B     		ldr	r2, [r7, #48]
 2085 0ca8 9A63     		str	r2, [r3, #56]
 392:../../source/src/kernel/OS_CORE/module.c ****     ka_printf("mem_space is %p\n",module->mem_space);
 2086              		.loc 2 392 0
 2087 0caa 7B68     		ldr	r3, [r7, #4]
 2088 0cac 5B6B     		ldr	r3, [r3, #52]
 2089 0cae 1946     		mov	r1, r3
 2090 0cb0 0948     		ldr	r0, .L108+8
 2091 0cb2 FFF7FEFF 		bl	ka_printf
 393:../../source/src/kernel/OS_CORE/module.c **** 
 394:../../source/src/kernel/OS_CORE/module.c ****     /* zero all space */
 395:../../source/src/kernel/OS_CORE/module.c ****     ptr = module->mem_space;
 2092              		.loc 2 395 0
 2093 0cb6 7B68     		ldr	r3, [r7, #4]
 2094 0cb8 5B6B     		ldr	r3, [r3, #52]
 2095 0cba FB62     		str	r3, [r7, #44]
 396:../../source/src/kernel/OS_CORE/module.c ****     ka_memset(ptr, 0, module_size);
 2096              		.loc 2 396 0
 2097 0cbc 3B6B     		ldr	r3, [r7, #48]
 2098 0cbe 1A46     		mov	r2, r3
 2099 0cc0 0021     		movs	r1, #0
 2100 0cc2 F86A     		ldr	r0, [r7, #44]
 2101 0cc4 FFF7FEFF 		bl	ka_memset
 397:../../source/src/kernel/OS_CORE/module.c **** 
 398:../../source/src/kernel/OS_CORE/module.c ****     /* load text and data section */
 399:../../source/src/kernel/OS_CORE/module.c ****     for (index = 0; index < elf_module->e_shnum; index ++)
 2102              		.loc 2 399 0
 2103 0cc8 0023     		movs	r3, #0
 2104 0cca 7B64     		str	r3, [r7, #68]
 2105 0ccc 7DE1     		b	.L83
 2106              	.L109:
 2107 0cce 00BF     		.align	2
 2108              	.L108:
 2109 0cd0 F0020000 		.word	.LC24
 2110 0cd4 5C020000 		.word	.LC16
 2111 0cd8 04030000 		.word	.LC25
 2112              	.L88:
 400:../../source/src/kernel/OS_CORE/module.c ****     {
 401:../../source/src/kernel/OS_CORE/module.c ****         /* load text section */
 402:../../source/src/kernel/OS_CORE/module.c ****         if (IS_PROG(shdr[index]) && IS_AX(shdr[index]))
 2113              		.loc 2 402 0
 2114 0cdc 3B68     		ldr	r3, [r7]
 2115 0cde 196A     		ldr	r1, [r3, #32]
 2116 0ce0 7A6C     		ldr	r2, [r7, #68]
 2117 0ce2 1346     		mov	r3, r2
 2118 0ce4 9B00     		lsls	r3, r3, #2
 2119 0ce6 1344     		add	r3, r3, r2
 2120 0ce8 DB00     		lsls	r3, r3, #3
 2121 0cea 0B44     		add	r3, r3, r1
 2122 0cec 3A68     		ldr	r2, [r7]
 2123 0cee 1344     		add	r3, r3, r2
 2124 0cf0 5B68     		ldr	r3, [r3, #4]
 2125 0cf2 012B     		cmp	r3, #1
 2126 0cf4 58D1     		bne	.L84
 2127              		.loc 2 402 0 is_stmt 0 discriminator 1
ARM GAS  G:\Users\Jaxb\AppData\Local\Temp\cc4KUlGg.s 			page 49


 2128 0cf6 3B68     		ldr	r3, [r7]
 2129 0cf8 196A     		ldr	r1, [r3, #32]
 2130 0cfa 7A6C     		ldr	r2, [r7, #68]
 2131 0cfc 1346     		mov	r3, r2
 2132 0cfe 9B00     		lsls	r3, r3, #2
 2133 0d00 1344     		add	r3, r3, r2
 2134 0d02 DB00     		lsls	r3, r3, #3
 2135 0d04 0B44     		add	r3, r3, r1
 2136 0d06 3A68     		ldr	r2, [r7]
 2137 0d08 1344     		add	r3, r3, r2
 2138 0d0a 9B68     		ldr	r3, [r3, #8]
 2139 0d0c 03F00203 		and	r3, r3, #2
 2140 0d10 002B     		cmp	r3, #0
 2141 0d12 49D0     		beq	.L84
 2142              		.loc 2 402 0 discriminator 2
 2143 0d14 3B68     		ldr	r3, [r7]
 2144 0d16 196A     		ldr	r1, [r3, #32]
 2145 0d18 7A6C     		ldr	r2, [r7, #68]
 2146 0d1a 1346     		mov	r3, r2
 2147 0d1c 9B00     		lsls	r3, r3, #2
 2148 0d1e 1344     		add	r3, r3, r2
 2149 0d20 DB00     		lsls	r3, r3, #3
 2150 0d22 0B44     		add	r3, r3, r1
 2151 0d24 3A68     		ldr	r2, [r7]
 2152 0d26 1344     		add	r3, r3, r2
 2153 0d28 9B68     		ldr	r3, [r3, #8]
 2154 0d2a 03F00403 		and	r3, r3, #4
 2155 0d2e 002B     		cmp	r3, #0
 2156 0d30 3AD0     		beq	.L84
 403:../../source/src/kernel/OS_CORE/module.c ****         {
 404:../../source/src/kernel/OS_CORE/module.c ****             ka_memcpy(ptr,
 405:../../source/src/kernel/OS_CORE/module.c ****                       (UINT8 *)elf_module + shdr[index].sh_offset,
 2157              		.loc 2 405 0 is_stmt 1
 2158 0d32 3B68     		ldr	r3, [r7]
 2159 0d34 196A     		ldr	r1, [r3, #32]
 2160 0d36 7A6C     		ldr	r2, [r7, #68]
 2161 0d38 1346     		mov	r3, r2
 2162 0d3a 9B00     		lsls	r3, r3, #2
 2163 0d3c 1344     		add	r3, r3, r2
 2164 0d3e DB00     		lsls	r3, r3, #3
 2165 0d40 0B44     		add	r3, r3, r1
 2166 0d42 3A68     		ldr	r2, [r7]
 2167 0d44 1344     		add	r3, r3, r2
 2168 0d46 1B69     		ldr	r3, [r3, #16]
 404:../../source/src/kernel/OS_CORE/module.c ****                       (UINT8 *)elf_module + shdr[index].sh_offset,
 2169              		.loc 2 404 0
 2170 0d48 3A68     		ldr	r2, [r7]
 2171 0d4a D018     		adds	r0, r2, r3
 406:../../source/src/kernel/OS_CORE/module.c ****                       shdr[index].sh_size);
 2172              		.loc 2 406 0
 2173 0d4c 3B68     		ldr	r3, [r7]
 2174 0d4e 196A     		ldr	r1, [r3, #32]
 2175 0d50 7A6C     		ldr	r2, [r7, #68]
 2176 0d52 1346     		mov	r3, r2
 2177 0d54 9B00     		lsls	r3, r3, #2
 2178 0d56 1344     		add	r3, r3, r2
 2179 0d58 DB00     		lsls	r3, r3, #3
ARM GAS  G:\Users\Jaxb\AppData\Local\Temp\cc4KUlGg.s 			page 50


 2180 0d5a 0B44     		add	r3, r3, r1
 2181 0d5c 3A68     		ldr	r2, [r7]
 2182 0d5e 1344     		add	r3, r3, r2
 2183 0d60 5B69     		ldr	r3, [r3, #20]
 404:../../source/src/kernel/OS_CORE/module.c ****                       (UINT8 *)elf_module + shdr[index].sh_offset,
 2184              		.loc 2 404 0
 2185 0d62 1A46     		mov	r2, r3
 2186 0d64 0146     		mov	r1, r0
 2187 0d66 F86A     		ldr	r0, [r7, #44]
 2188 0d68 FFF7FEFF 		bl	ka_memcpy
 407:../../source/src/kernel/OS_CORE/module.c ****             ka_printf("load text 0x%x, size %d\n", ptr, shdr[index].sh_size);
 2189              		.loc 2 407 0
 2190 0d6c 3B68     		ldr	r3, [r7]
 2191 0d6e 196A     		ldr	r1, [r3, #32]
 2192 0d70 7A6C     		ldr	r2, [r7, #68]
 2193 0d72 1346     		mov	r3, r2
 2194 0d74 9B00     		lsls	r3, r3, #2
 2195 0d76 1344     		add	r3, r3, r2
 2196 0d78 DB00     		lsls	r3, r3, #3
 2197 0d7a 0B44     		add	r3, r3, r1
 2198 0d7c 3A68     		ldr	r2, [r7]
 2199 0d7e 1344     		add	r3, r3, r2
 2200 0d80 5B69     		ldr	r3, [r3, #20]
 2201 0d82 1A46     		mov	r2, r3
 2202 0d84 F96A     		ldr	r1, [r7, #44]
 2203 0d86 9E48     		ldr	r0, .L110
 2204 0d88 FFF7FEFF 		bl	ka_printf
 408:../../source/src/kernel/OS_CORE/module.c ****             ptr += shdr[index].sh_size;
 2205              		.loc 2 408 0
 2206 0d8c 3B68     		ldr	r3, [r7]
 2207 0d8e 196A     		ldr	r1, [r3, #32]
 2208 0d90 7A6C     		ldr	r2, [r7, #68]
 2209 0d92 1346     		mov	r3, r2
 2210 0d94 9B00     		lsls	r3, r3, #2
 2211 0d96 1344     		add	r3, r3, r2
 2212 0d98 DB00     		lsls	r3, r3, #3
 2213 0d9a 0B44     		add	r3, r3, r1
 2214 0d9c 3A68     		ldr	r2, [r7]
 2215 0d9e 1344     		add	r3, r3, r2
 2216 0da0 5B69     		ldr	r3, [r3, #20]
 2217 0da2 FA6A     		ldr	r2, [r7, #44]
 2218 0da4 1344     		add	r3, r3, r2
 2219 0da6 FB62     		str	r3, [r7, #44]
 2220              	.L84:
 409:../../source/src/kernel/OS_CORE/module.c ****         }
 410:../../source/src/kernel/OS_CORE/module.c **** 
 411:../../source/src/kernel/OS_CORE/module.c ****         /* load rodata section */
 412:../../source/src/kernel/OS_CORE/module.c ****         if (IS_PROG(shdr[index]) && IS_ALLOC(shdr[index]))
 2221              		.loc 2 412 0
 2222 0da8 3B68     		ldr	r3, [r7]
 2223 0daa 196A     		ldr	r1, [r3, #32]
 2224 0dac 7A6C     		ldr	r2, [r7, #68]
 2225 0dae 1346     		mov	r3, r2
 2226 0db0 9B00     		lsls	r3, r3, #2
 2227 0db2 1344     		add	r3, r3, r2
 2228 0db4 DB00     		lsls	r3, r3, #3
 2229 0db6 0B44     		add	r3, r3, r1
ARM GAS  G:\Users\Jaxb\AppData\Local\Temp\cc4KUlGg.s 			page 51


 2230 0db8 3A68     		ldr	r2, [r7]
 2231 0dba 1344     		add	r3, r3, r2
 2232 0dbc 5B68     		ldr	r3, [r3, #4]
 2233 0dbe 012B     		cmp	r3, #1
 2234 0dc0 4AD1     		bne	.L85
 2235              		.loc 2 412 0 is_stmt 0 discriminator 1
 2236 0dc2 3B68     		ldr	r3, [r7]
 2237 0dc4 196A     		ldr	r1, [r3, #32]
 2238 0dc6 7A6C     		ldr	r2, [r7, #68]
 2239 0dc8 1346     		mov	r3, r2
 2240 0dca 9B00     		lsls	r3, r3, #2
 2241 0dcc 1344     		add	r3, r3, r2
 2242 0dce DB00     		lsls	r3, r3, #3
 2243 0dd0 0B44     		add	r3, r3, r1
 2244 0dd2 3A68     		ldr	r2, [r7]
 2245 0dd4 1344     		add	r3, r3, r2
 2246 0dd6 9B68     		ldr	r3, [r3, #8]
 2247 0dd8 022B     		cmp	r3, #2
 2248 0dda 3DD1     		bne	.L85
 413:../../source/src/kernel/OS_CORE/module.c ****         {
 414:../../source/src/kernel/OS_CORE/module.c ****             ka_memcpy(ptr,
 415:../../source/src/kernel/OS_CORE/module.c ****                       (UINT8 *)elf_module + shdr[index].sh_offset,
 2249              		.loc 2 415 0 is_stmt 1
 2250 0ddc 3B68     		ldr	r3, [r7]
 2251 0dde 196A     		ldr	r1, [r3, #32]
 2252 0de0 7A6C     		ldr	r2, [r7, #68]
 2253 0de2 1346     		mov	r3, r2
 2254 0de4 9B00     		lsls	r3, r3, #2
 2255 0de6 1344     		add	r3, r3, r2
 2256 0de8 DB00     		lsls	r3, r3, #3
 2257 0dea 0B44     		add	r3, r3, r1
 2258 0dec 3A68     		ldr	r2, [r7]
 2259 0dee 1344     		add	r3, r3, r2
 2260 0df0 1B69     		ldr	r3, [r3, #16]
 414:../../source/src/kernel/OS_CORE/module.c ****                       (UINT8 *)elf_module + shdr[index].sh_offset,
 2261              		.loc 2 414 0
 2262 0df2 3A68     		ldr	r2, [r7]
 2263 0df4 D018     		adds	r0, r2, r3
 416:../../source/src/kernel/OS_CORE/module.c ****                       shdr[index].sh_size);
 2264              		.loc 2 416 0
 2265 0df6 3B68     		ldr	r3, [r7]
 2266 0df8 196A     		ldr	r1, [r3, #32]
 2267 0dfa 7A6C     		ldr	r2, [r7, #68]
 2268 0dfc 1346     		mov	r3, r2
 2269 0dfe 9B00     		lsls	r3, r3, #2
 2270 0e00 1344     		add	r3, r3, r2
 2271 0e02 DB00     		lsls	r3, r3, #3
 2272 0e04 0B44     		add	r3, r3, r1
 2273 0e06 3A68     		ldr	r2, [r7]
 2274 0e08 1344     		add	r3, r3, r2
 2275 0e0a 5B69     		ldr	r3, [r3, #20]
 414:../../source/src/kernel/OS_CORE/module.c ****                       (UINT8 *)elf_module + shdr[index].sh_offset,
 2276              		.loc 2 414 0
 2277 0e0c 1A46     		mov	r2, r3
 2278 0e0e 0146     		mov	r1, r0
 2279 0e10 F86A     		ldr	r0, [r7, #44]
 2280 0e12 FFF7FEFF 		bl	ka_memcpy
ARM GAS  G:\Users\Jaxb\AppData\Local\Temp\cc4KUlGg.s 			page 52


 417:../../source/src/kernel/OS_CORE/module.c ****             rodata_addr = (UINT32)ptr;
 2281              		.loc 2 417 0
 2282 0e16 FB6A     		ldr	r3, [r7, #44]
 2283 0e18 3B64     		str	r3, [r7, #64]
 418:../../source/src/kernel/OS_CORE/module.c ****             ka_printf("load rodata 0x%x, size %d, rodata 0x%x\n", ptr,
 419:../../source/src/kernel/OS_CORE/module.c ****                       shdr[index].sh_size, *(UINT32 *)data_addr);
 2284              		.loc 2 419 0
 2285 0e1a 3B68     		ldr	r3, [r7]
 2286 0e1c 196A     		ldr	r1, [r3, #32]
 2287 0e1e 7A6C     		ldr	r2, [r7, #68]
 2288 0e20 1346     		mov	r3, r2
 2289 0e22 9B00     		lsls	r3, r3, #2
 2290 0e24 1344     		add	r3, r3, r2
 2291 0e26 DB00     		lsls	r3, r3, #3
 2292 0e28 0B44     		add	r3, r3, r1
 2293 0e2a 3A68     		ldr	r2, [r7]
 2294 0e2c 1344     		add	r3, r3, r2
 418:../../source/src/kernel/OS_CORE/module.c ****             ka_printf("load rodata 0x%x, size %d, rodata 0x%x\n", ptr,
 2295              		.loc 2 418 0
 2296 0e2e 5A69     		ldr	r2, [r3, #20]
 2297              		.loc 2 419 0
 2298 0e30 BB6B     		ldr	r3, [r7, #56]
 418:../../source/src/kernel/OS_CORE/module.c ****             ka_printf("load rodata 0x%x, size %d, rodata 0x%x\n", ptr,
 2299              		.loc 2 418 0
 2300 0e32 1B68     		ldr	r3, [r3]
 2301 0e34 F96A     		ldr	r1, [r7, #44]
 2302 0e36 7348     		ldr	r0, .L110+4
 2303 0e38 FFF7FEFF 		bl	ka_printf
 420:../../source/src/kernel/OS_CORE/module.c ****             ptr += shdr[index].sh_size;
 2304              		.loc 2 420 0
 2305 0e3c 3B68     		ldr	r3, [r7]
 2306 0e3e 196A     		ldr	r1, [r3, #32]
 2307 0e40 7A6C     		ldr	r2, [r7, #68]
 2308 0e42 1346     		mov	r3, r2
 2309 0e44 9B00     		lsls	r3, r3, #2
 2310 0e46 1344     		add	r3, r3, r2
 2311 0e48 DB00     		lsls	r3, r3, #3
 2312 0e4a 0B44     		add	r3, r3, r1
 2313 0e4c 3A68     		ldr	r2, [r7]
 2314 0e4e 1344     		add	r3, r3, r2
 2315 0e50 5B69     		ldr	r3, [r3, #20]
 2316 0e52 FA6A     		ldr	r2, [r7, #44]
 2317 0e54 1344     		add	r3, r3, r2
 2318 0e56 FB62     		str	r3, [r7, #44]
 2319              	.L85:
 421:../../source/src/kernel/OS_CORE/module.c ****         }
 422:../../source/src/kernel/OS_CORE/module.c **** 
 423:../../source/src/kernel/OS_CORE/module.c ****         /* load data section */
 424:../../source/src/kernel/OS_CORE/module.c ****         if (IS_PROG(shdr[index]) && IS_AW(shdr[index]))
 2320              		.loc 2 424 0
 2321 0e58 3B68     		ldr	r3, [r7]
 2322 0e5a 196A     		ldr	r1, [r3, #32]
 2323 0e5c 7A6C     		ldr	r2, [r7, #68]
 2324 0e5e 1346     		mov	r3, r2
 2325 0e60 9B00     		lsls	r3, r3, #2
 2326 0e62 1344     		add	r3, r3, r2
 2327 0e64 DB00     		lsls	r3, r3, #3
ARM GAS  G:\Users\Jaxb\AppData\Local\Temp\cc4KUlGg.s 			page 53


 2328 0e66 0B44     		add	r3, r3, r1
 2329 0e68 3A68     		ldr	r2, [r7]
 2330 0e6a 1344     		add	r3, r3, r2
 2331 0e6c 5B68     		ldr	r3, [r3, #4]
 2332 0e6e 012B     		cmp	r3, #1
 2333 0e70 5BD1     		bne	.L86
 2334              		.loc 2 424 0 is_stmt 0 discriminator 1
 2335 0e72 3B68     		ldr	r3, [r7]
 2336 0e74 196A     		ldr	r1, [r3, #32]
 2337 0e76 7A6C     		ldr	r2, [r7, #68]
 2338 0e78 1346     		mov	r3, r2
 2339 0e7a 9B00     		lsls	r3, r3, #2
 2340 0e7c 1344     		add	r3, r3, r2
 2341 0e7e DB00     		lsls	r3, r3, #3
 2342 0e80 0B44     		add	r3, r3, r1
 2343 0e82 3A68     		ldr	r2, [r7]
 2344 0e84 1344     		add	r3, r3, r2
 2345 0e86 9B68     		ldr	r3, [r3, #8]
 2346 0e88 03F00203 		and	r3, r3, #2
 2347 0e8c 002B     		cmp	r3, #0
 2348 0e8e 4CD0     		beq	.L86
 2349              		.loc 2 424 0 discriminator 2
 2350 0e90 3B68     		ldr	r3, [r7]
 2351 0e92 196A     		ldr	r1, [r3, #32]
 2352 0e94 7A6C     		ldr	r2, [r7, #68]
 2353 0e96 1346     		mov	r3, r2
 2354 0e98 9B00     		lsls	r3, r3, #2
 2355 0e9a 1344     		add	r3, r3, r2
 2356 0e9c DB00     		lsls	r3, r3, #3
 2357 0e9e 0B44     		add	r3, r3, r1
 2358 0ea0 3A68     		ldr	r2, [r7]
 2359 0ea2 1344     		add	r3, r3, r2
 2360 0ea4 9B68     		ldr	r3, [r3, #8]
 2361 0ea6 03F00103 		and	r3, r3, #1
 2362 0eaa 002B     		cmp	r3, #0
 2363 0eac 3DD0     		beq	.L86
 425:../../source/src/kernel/OS_CORE/module.c ****         {
 426:../../source/src/kernel/OS_CORE/module.c ****             ka_memcpy(ptr,
 427:../../source/src/kernel/OS_CORE/module.c ****                       (UINT8 *)elf_module + shdr[index].sh_offset,
 2364              		.loc 2 427 0 is_stmt 1
 2365 0eae 3B68     		ldr	r3, [r7]
 2366 0eb0 196A     		ldr	r1, [r3, #32]
 2367 0eb2 7A6C     		ldr	r2, [r7, #68]
 2368 0eb4 1346     		mov	r3, r2
 2369 0eb6 9B00     		lsls	r3, r3, #2
 2370 0eb8 1344     		add	r3, r3, r2
 2371 0eba DB00     		lsls	r3, r3, #3
 2372 0ebc 0B44     		add	r3, r3, r1
 2373 0ebe 3A68     		ldr	r2, [r7]
 2374 0ec0 1344     		add	r3, r3, r2
 2375 0ec2 1B69     		ldr	r3, [r3, #16]
 426:../../source/src/kernel/OS_CORE/module.c ****                       (UINT8 *)elf_module + shdr[index].sh_offset,
 2376              		.loc 2 426 0
 2377 0ec4 3A68     		ldr	r2, [r7]
 2378 0ec6 D018     		adds	r0, r2, r3
 428:../../source/src/kernel/OS_CORE/module.c ****                       shdr[index].sh_size);
 2379              		.loc 2 428 0
ARM GAS  G:\Users\Jaxb\AppData\Local\Temp\cc4KUlGg.s 			page 54


 2380 0ec8 3B68     		ldr	r3, [r7]
 2381 0eca 196A     		ldr	r1, [r3, #32]
 2382 0ecc 7A6C     		ldr	r2, [r7, #68]
 2383 0ece 1346     		mov	r3, r2
 2384 0ed0 9B00     		lsls	r3, r3, #2
 2385 0ed2 1344     		add	r3, r3, r2
 2386 0ed4 DB00     		lsls	r3, r3, #3
 2387 0ed6 0B44     		add	r3, r3, r1
 2388 0ed8 3A68     		ldr	r2, [r7]
 2389 0eda 1344     		add	r3, r3, r2
 2390 0edc 5B69     		ldr	r3, [r3, #20]
 426:../../source/src/kernel/OS_CORE/module.c ****                       (UINT8 *)elf_module + shdr[index].sh_offset,
 2391              		.loc 2 426 0
 2392 0ede 1A46     		mov	r2, r3
 2393 0ee0 0146     		mov	r1, r0
 2394 0ee2 F86A     		ldr	r0, [r7, #44]
 2395 0ee4 FFF7FEFF 		bl	ka_memcpy
 429:../../source/src/kernel/OS_CORE/module.c ****             data_addr = (UINT32)ptr;
 2396              		.loc 2 429 0
 2397 0ee8 FB6A     		ldr	r3, [r7, #44]
 2398 0eea BB63     		str	r3, [r7, #56]
 430:../../source/src/kernel/OS_CORE/module.c ****             ka_printf("load data 0x%x, size %d, data 0x%x\n", ptr,
 431:../../source/src/kernel/OS_CORE/module.c ****                       shdr[index].sh_size, *(UINT32 *)data_addr);
 2399              		.loc 2 431 0
 2400 0eec 3B68     		ldr	r3, [r7]
 2401 0eee 196A     		ldr	r1, [r3, #32]
 2402 0ef0 7A6C     		ldr	r2, [r7, #68]
 2403 0ef2 1346     		mov	r3, r2
 2404 0ef4 9B00     		lsls	r3, r3, #2
 2405 0ef6 1344     		add	r3, r3, r2
 2406 0ef8 DB00     		lsls	r3, r3, #3
 2407 0efa 0B44     		add	r3, r3, r1
 2408 0efc 3A68     		ldr	r2, [r7]
 2409 0efe 1344     		add	r3, r3, r2
 430:../../source/src/kernel/OS_CORE/module.c ****             ka_printf("load data 0x%x, size %d, data 0x%x\n", ptr,
 2410              		.loc 2 430 0
 2411 0f00 5A69     		ldr	r2, [r3, #20]
 2412              		.loc 2 431 0
 2413 0f02 BB6B     		ldr	r3, [r7, #56]
 430:../../source/src/kernel/OS_CORE/module.c ****             ka_printf("load data 0x%x, size %d, data 0x%x\n", ptr,
 2414              		.loc 2 430 0
 2415 0f04 1B68     		ldr	r3, [r3]
 2416 0f06 F96A     		ldr	r1, [r7, #44]
 2417 0f08 3F48     		ldr	r0, .L110+8
 2418 0f0a FFF7FEFF 		bl	ka_printf
 432:../../source/src/kernel/OS_CORE/module.c ****             ptr += shdr[index].sh_size;
 2419              		.loc 2 432 0
 2420 0f0e 3B68     		ldr	r3, [r7]
 2421 0f10 196A     		ldr	r1, [r3, #32]
 2422 0f12 7A6C     		ldr	r2, [r7, #68]
 2423 0f14 1346     		mov	r3, r2
 2424 0f16 9B00     		lsls	r3, r3, #2
 2425 0f18 1344     		add	r3, r3, r2
 2426 0f1a DB00     		lsls	r3, r3, #3
 2427 0f1c 0B44     		add	r3, r3, r1
 2428 0f1e 3A68     		ldr	r2, [r7]
 2429 0f20 1344     		add	r3, r3, r2
ARM GAS  G:\Users\Jaxb\AppData\Local\Temp\cc4KUlGg.s 			page 55


 2430 0f22 5B69     		ldr	r3, [r3, #20]
 2431 0f24 FA6A     		ldr	r2, [r7, #44]
 2432 0f26 1344     		add	r3, r3, r2
 2433 0f28 FB62     		str	r3, [r7, #44]
 2434              	.L86:
 433:../../source/src/kernel/OS_CORE/module.c ****         }
 434:../../source/src/kernel/OS_CORE/module.c **** 
 435:../../source/src/kernel/OS_CORE/module.c ****         /* load bss section */
 436:../../source/src/kernel/OS_CORE/module.c ****         if (IS_NOPROG(shdr[index]) && IS_AW(shdr[index]))
 2435              		.loc 2 436 0
 2436 0f2a 3B68     		ldr	r3, [r7]
 2437 0f2c 196A     		ldr	r1, [r3, #32]
 2438 0f2e 7A6C     		ldr	r2, [r7, #68]
 2439 0f30 1346     		mov	r3, r2
 2440 0f32 9B00     		lsls	r3, r3, #2
 2441 0f34 1344     		add	r3, r3, r2
 2442 0f36 DB00     		lsls	r3, r3, #3
 2443 0f38 0B44     		add	r3, r3, r1
 2444 0f3a 3A68     		ldr	r2, [r7]
 2445 0f3c 1344     		add	r3, r3, r2
 2446 0f3e 5B68     		ldr	r3, [r3, #4]
 2447 0f40 082B     		cmp	r3, #8
 2448 0f42 3FD1     		bne	.L87
 2449              		.loc 2 436 0 is_stmt 0 discriminator 1
 2450 0f44 3B68     		ldr	r3, [r7]
 2451 0f46 196A     		ldr	r1, [r3, #32]
 2452 0f48 7A6C     		ldr	r2, [r7, #68]
 2453 0f4a 1346     		mov	r3, r2
 2454 0f4c 9B00     		lsls	r3, r3, #2
 2455 0f4e 1344     		add	r3, r3, r2
 2456 0f50 DB00     		lsls	r3, r3, #3
 2457 0f52 0B44     		add	r3, r3, r1
 2458 0f54 3A68     		ldr	r2, [r7]
 2459 0f56 1344     		add	r3, r3, r2
 2460 0f58 9B68     		ldr	r3, [r3, #8]
 2461 0f5a 03F00203 		and	r3, r3, #2
 2462 0f5e 002B     		cmp	r3, #0
 2463 0f60 30D0     		beq	.L87
 2464              		.loc 2 436 0 discriminator 2
 2465 0f62 3B68     		ldr	r3, [r7]
 2466 0f64 196A     		ldr	r1, [r3, #32]
 2467 0f66 7A6C     		ldr	r2, [r7, #68]
 2468 0f68 1346     		mov	r3, r2
 2469 0f6a 9B00     		lsls	r3, r3, #2
 2470 0f6c 1344     		add	r3, r3, r2
 2471 0f6e DB00     		lsls	r3, r3, #3
 2472 0f70 0B44     		add	r3, r3, r1
 2473 0f72 3A68     		ldr	r2, [r7]
 2474 0f74 1344     		add	r3, r3, r2
 2475 0f76 9B68     		ldr	r3, [r3, #8]
 2476 0f78 03F00103 		and	r3, r3, #1
 2477 0f7c 002B     		cmp	r3, #0
 2478 0f7e 21D0     		beq	.L87
 437:../../source/src/kernel/OS_CORE/module.c ****         {
 438:../../source/src/kernel/OS_CORE/module.c ****             ka_memset(ptr, 0, shdr[index].sh_size);
 2479              		.loc 2 438 0 is_stmt 1
 2480 0f80 3B68     		ldr	r3, [r7]
ARM GAS  G:\Users\Jaxb\AppData\Local\Temp\cc4KUlGg.s 			page 56


 2481 0f82 196A     		ldr	r1, [r3, #32]
 2482 0f84 7A6C     		ldr	r2, [r7, #68]
 2483 0f86 1346     		mov	r3, r2
 2484 0f88 9B00     		lsls	r3, r3, #2
 2485 0f8a 1344     		add	r3, r3, r2
 2486 0f8c DB00     		lsls	r3, r3, #3
 2487 0f8e 0B44     		add	r3, r3, r1
 2488 0f90 3A68     		ldr	r2, [r7]
 2489 0f92 1344     		add	r3, r3, r2
 2490 0f94 5B69     		ldr	r3, [r3, #20]
 2491 0f96 1A46     		mov	r2, r3
 2492 0f98 0021     		movs	r1, #0
 2493 0f9a F86A     		ldr	r0, [r7, #44]
 2494 0f9c FFF7FEFF 		bl	ka_memset
 439:../../source/src/kernel/OS_CORE/module.c ****             bss_addr = (UINT32)ptr;
 2495              		.loc 2 439 0
 2496 0fa0 FB6A     		ldr	r3, [r7, #44]
 2497 0fa2 FB63     		str	r3, [r7, #60]
 440:../../source/src/kernel/OS_CORE/module.c ****             ka_printf("load bss 0x%x, size %d\n", ptr, shdr[index].sh_size);
 2498              		.loc 2 440 0
 2499 0fa4 3B68     		ldr	r3, [r7]
 2500 0fa6 196A     		ldr	r1, [r3, #32]
 2501 0fa8 7A6C     		ldr	r2, [r7, #68]
 2502 0faa 1346     		mov	r3, r2
 2503 0fac 9B00     		lsls	r3, r3, #2
 2504 0fae 1344     		add	r3, r3, r2
 2505 0fb0 DB00     		lsls	r3, r3, #3
 2506 0fb2 0B44     		add	r3, r3, r1
 2507 0fb4 3A68     		ldr	r2, [r7]
 2508 0fb6 1344     		add	r3, r3, r2
 2509 0fb8 5B69     		ldr	r3, [r3, #20]
 2510 0fba 1A46     		mov	r2, r3
 2511 0fbc F96A     		ldr	r1, [r7, #44]
 2512 0fbe 1348     		ldr	r0, .L110+12
 2513 0fc0 FFF7FEFF 		bl	ka_printf
 2514              	.L87:
 399:../../source/src/kernel/OS_CORE/module.c ****     {
 2515              		.loc 2 399 0 discriminator 2
 2516 0fc4 7B6C     		ldr	r3, [r7, #68]
 2517 0fc6 0133     		adds	r3, r3, #1
 2518 0fc8 7B64     		str	r3, [r7, #68]
 2519              	.L83:
 399:../../source/src/kernel/OS_CORE/module.c ****     {
 2520              		.loc 2 399 0 is_stmt 0 discriminator 1
 2521 0fca 3B68     		ldr	r3, [r7]
 2522 0fcc 1B8E     		ldrh	r3, [r3, #48]
 2523 0fce 1A46     		mov	r2, r3
 2524 0fd0 7B6C     		ldr	r3, [r7, #68]
 2525 0fd2 9342     		cmp	r3, r2
 2526 0fd4 FFF482AE 		bcc	.L88
 441:../../source/src/kernel/OS_CORE/module.c ****         }
 442:../../source/src/kernel/OS_CORE/module.c ****     }
 443:../../source/src/kernel/OS_CORE/module.c **** 
 444:../../source/src/kernel/OS_CORE/module.c ****     /* set module entry */
 445:../../source/src/kernel/OS_CORE/module.c ****     module->entry_addr = (rt_dlmodule_entry_func_t)((UINT8 *)module->mem_space + elf_module->e_entr
 2527              		.loc 2 445 0 is_stmt 1
 2528 0fd8 7B68     		ldr	r3, [r7, #4]
ARM GAS  G:\Users\Jaxb\AppData\Local\Temp\cc4KUlGg.s 			page 57


 2529 0fda 5B6B     		ldr	r3, [r3, #52]
 2530 0fdc 1946     		mov	r1, r3
 2531 0fde 3B68     		ldr	r3, [r7]
 2532 0fe0 9A69     		ldr	r2, [r3, #24]
 2533 0fe2 7B6B     		ldr	r3, [r7, #52]
 2534 0fe4 D31A     		subs	r3, r2, r3
 2535 0fe6 CA18     		adds	r2, r1, r3
 2536 0fe8 7B68     		ldr	r3, [r7, #4]
 2537 0fea DA62     		str	r2, [r3, #44]
 446:../../source/src/kernel/OS_CORE/module.c ****     ka_printf("module entry point is %p\n",module->entry_addr);
 2538              		.loc 2 446 0
 2539 0fec 7B68     		ldr	r3, [r7, #4]
 2540 0fee DB6A     		ldr	r3, [r3, #44]
 2541 0ff0 1946     		mov	r1, r3
 2542 0ff2 0748     		ldr	r0, .L110+16
 2543 0ff4 FFF7FEFF 		bl	ka_printf
 447:../../source/src/kernel/OS_CORE/module.c ****     /* handle relocation section */
 448:../../source/src/kernel/OS_CORE/module.c ****     for (index = 0; index < elf_module->e_shnum; index ++) //number of section headers
 2544              		.loc 2 448 0
 2545 0ff8 0023     		movs	r3, #0
 2546 0ffa 7B64     		str	r3, [r7, #68]
 2547 0ffc BFE1     		b	.L89
 2548              	.L111:
 2549 0ffe 00BF     		.align	2
 2550              	.L110:
 2551 1000 18030000 		.word	.LC26
 2552 1004 34030000 		.word	.LC27
 2553 1008 5C030000 		.word	.LC28
 2554 100c 80030000 		.word	.LC29
 2555 1010 98030000 		.word	.LC30
 2556              	.L107:
 2557              	.LBB10:
 449:../../source/src/kernel/OS_CORE/module.c ****     {
 450:../../source/src/kernel/OS_CORE/module.c ****         UINT32 i, nr_reloc;
 451:../../source/src/kernel/OS_CORE/module.c ****         Elf32_Sym *symtab;
 452:../../source/src/kernel/OS_CORE/module.c ****         Elf32_Rel *rel;
 453:../../source/src/kernel/OS_CORE/module.c **** 
 454:../../source/src/kernel/OS_CORE/module.c ****         if (!IS_REL(shdr[index]))
 2558              		.loc 2 454 0
 2559 1014 3B68     		ldr	r3, [r7]
 2560 1016 196A     		ldr	r1, [r3, #32]
 2561 1018 7A6C     		ldr	r2, [r7, #68]
 2562 101a 1346     		mov	r3, r2
 2563 101c 9B00     		lsls	r3, r3, #2
 2564 101e 1344     		add	r3, r3, r2
 2565 1020 DB00     		lsls	r3, r3, #3
 2566 1022 0B44     		add	r3, r3, r1
 2567 1024 3A68     		ldr	r2, [r7]
 2568 1026 1344     		add	r3, r3, r2
 2569 1028 5B68     		ldr	r3, [r3, #4]
 2570 102a 092B     		cmp	r3, #9
 2571 102c 18D0     		beq	.L90
 455:../../source/src/kernel/OS_CORE/module.c ****         {
 456:../../source/src/kernel/OS_CORE/module.c ****             ka_printf("type is %u\n",shdr[index]);
 2572              		.loc 2 456 0
 2573 102e 3B68     		ldr	r3, [r7]
 2574 1030 196A     		ldr	r1, [r3, #32]
ARM GAS  G:\Users\Jaxb\AppData\Local\Temp\cc4KUlGg.s 			page 58


 2575 1032 7A6C     		ldr	r2, [r7, #68]
 2576 1034 1346     		mov	r3, r2
 2577 1036 9B00     		lsls	r3, r3, #2
 2578 1038 1344     		add	r3, r3, r2
 2579 103a DB00     		lsls	r3, r3, #3
 2580 103c 0B44     		add	r3, r3, r1
 2581 103e 3A68     		ldr	r2, [r7]
 2582 1040 D618     		adds	r6, r2, r3
 2583 1042 6D46     		mov	r5, sp
 2584 1044 06F10C04 		add	r4, r6, #12
 2585 1048 0FCC     		ldmia	r4!, {r0, r1, r2, r3}
 2586 104a 0FC5     		stmia	r5!, {r0, r1, r2, r3}
 2587 104c 94E80700 		ldm	r4, {r0, r1, r2}
 2588 1050 85E80700 		stm	r5, {r0, r1, r2}
 2589 1054 96E80E00 		ldm	r6, {r1, r2, r3}
 2590 1058 9548     		ldr	r0, .L112
 2591 105a FFF7FEFF 		bl	ka_printf
 457:../../source/src/kernel/OS_CORE/module.c ****             continue;
 2592              		.loc 2 457 0
 2593 105e 8BE1     		b	.L91
 2594              	.L90:
 458:../../source/src/kernel/OS_CORE/module.c ****         }
 459:../../source/src/kernel/OS_CORE/module.c **** 
 460:../../source/src/kernel/OS_CORE/module.c ****         /* get relocate item */
 461:../../source/src/kernel/OS_CORE/module.c ****         rel = (Elf32_Rel *)((UINT8 *)module_ptr + shdr[index].sh_offset);
 2595              		.loc 2 461 0
 2596 1060 3B68     		ldr	r3, [r7]
 2597 1062 196A     		ldr	r1, [r3, #32]
 2598 1064 7A6C     		ldr	r2, [r7, #68]
 2599 1066 1346     		mov	r3, r2
 2600 1068 9B00     		lsls	r3, r3, #2
 2601 106a 1344     		add	r3, r3, r2
 2602 106c DB00     		lsls	r3, r3, #3
 2603 106e 0B44     		add	r3, r3, r1
 2604 1070 3A68     		ldr	r2, [r7]
 2605 1072 1344     		add	r3, r3, r2
 2606 1074 1B69     		ldr	r3, [r3, #16]
 2607 1076 3A68     		ldr	r2, [r7]
 2608 1078 1344     		add	r3, r3, r2
 2609 107a 7B62     		str	r3, [r7, #36]
 462:../../source/src/kernel/OS_CORE/module.c **** 
 463:../../source/src/kernel/OS_CORE/module.c ****         /* locate .dynsym and .dynstr */
 464:../../source/src/kernel/OS_CORE/module.c ****         symtab   = (Elf32_Sym *)((UINT8 *)module_ptr +
 465:../../source/src/kernel/OS_CORE/module.c ****                                  shdr[shdr[index].sh_link].sh_offset);
 2610              		.loc 2 465 0
 2611 107c 3B68     		ldr	r3, [r7]
 2612 107e 196A     		ldr	r1, [r3, #32]
 2613 1080 3B68     		ldr	r3, [r7]
 2614 1082 186A     		ldr	r0, [r3, #32]
 2615 1084 7A6C     		ldr	r2, [r7, #68]
 2616 1086 1346     		mov	r3, r2
 2617 1088 9B00     		lsls	r3, r3, #2
 2618 108a 1344     		add	r3, r3, r2
 2619 108c DB00     		lsls	r3, r3, #3
 2620 108e 0344     		add	r3, r3, r0
 2621 1090 3A68     		ldr	r2, [r7]
 2622 1092 1344     		add	r3, r3, r2
ARM GAS  G:\Users\Jaxb\AppData\Local\Temp\cc4KUlGg.s 			page 59


 2623 1094 9A69     		ldr	r2, [r3, #24]
 2624 1096 1346     		mov	r3, r2
 2625 1098 9B00     		lsls	r3, r3, #2
 2626 109a 1344     		add	r3, r3, r2
 2627 109c DB00     		lsls	r3, r3, #3
 2628 109e 0B44     		add	r3, r3, r1
 2629 10a0 3A68     		ldr	r2, [r7]
 2630 10a2 1344     		add	r3, r3, r2
 2631 10a4 1B69     		ldr	r3, [r3, #16]
 464:../../source/src/kernel/OS_CORE/module.c ****                                  shdr[shdr[index].sh_link].sh_offset);
 2632              		.loc 2 464 0
 2633 10a6 3A68     		ldr	r2, [r7]
 2634 10a8 1344     		add	r3, r3, r2
 2635 10aa FB61     		str	r3, [r7, #28]
 466:../../source/src/kernel/OS_CORE/module.c ****         strtab   = (UINT8 *)module_ptr +
 467:../../source/src/kernel/OS_CORE/module.c ****                    shdr[shdr[shdr[index].sh_link].sh_link].sh_offset;
 2636              		.loc 2 467 0
 2637 10ac 3B68     		ldr	r3, [r7]
 2638 10ae 196A     		ldr	r1, [r3, #32]
 2639 10b0 3B68     		ldr	r3, [r7]
 2640 10b2 186A     		ldr	r0, [r3, #32]
 2641 10b4 3B68     		ldr	r3, [r7]
 2642 10b6 1C6A     		ldr	r4, [r3, #32]
 2643 10b8 7A6C     		ldr	r2, [r7, #68]
 2644 10ba 1346     		mov	r3, r2
 2645 10bc 9B00     		lsls	r3, r3, #2
 2646 10be 1344     		add	r3, r3, r2
 2647 10c0 DB00     		lsls	r3, r3, #3
 2648 10c2 2344     		add	r3, r3, r4
 2649 10c4 3A68     		ldr	r2, [r7]
 2650 10c6 1344     		add	r3, r3, r2
 2651 10c8 9A69     		ldr	r2, [r3, #24]
 2652 10ca 1346     		mov	r3, r2
 2653 10cc 9B00     		lsls	r3, r3, #2
 2654 10ce 1344     		add	r3, r3, r2
 2655 10d0 DB00     		lsls	r3, r3, #3
 2656 10d2 0344     		add	r3, r3, r0
 2657 10d4 3A68     		ldr	r2, [r7]
 2658 10d6 1344     		add	r3, r3, r2
 2659 10d8 9A69     		ldr	r2, [r3, #24]
 2660 10da 1346     		mov	r3, r2
 2661 10dc 9B00     		lsls	r3, r3, #2
 2662 10de 1344     		add	r3, r3, r2
 2663 10e0 DB00     		lsls	r3, r3, #3
 2664 10e2 0B44     		add	r3, r3, r1
 2665 10e4 3A68     		ldr	r2, [r7]
 2666 10e6 1344     		add	r3, r3, r2
 2667 10e8 1B69     		ldr	r3, [r3, #16]
 466:../../source/src/kernel/OS_CORE/module.c ****         strtab   = (UINT8 *)module_ptr +
 2668              		.loc 2 466 0
 2669 10ea 3A68     		ldr	r2, [r7]
 2670 10ec 1344     		add	r3, r3, r2
 2671 10ee BB61     		str	r3, [r7, #24]
 468:../../source/src/kernel/OS_CORE/module.c ****         shstrab  = (UINT8 *)module_ptr +
 469:../../source/src/kernel/OS_CORE/module.c ****                    shdr[elf_module->e_shstrndx].sh_offset;
 2672              		.loc 2 469 0
 2673 10f0 3B68     		ldr	r3, [r7]
ARM GAS  G:\Users\Jaxb\AppData\Local\Temp\cc4KUlGg.s 			page 60


 2674 10f2 1A6A     		ldr	r2, [r3, #32]
 2675 10f4 3B68     		ldr	r3, [r7]
 2676 10f6 5B8E     		ldrh	r3, [r3, #50]
 2677 10f8 1946     		mov	r1, r3
 2678 10fa 0B46     		mov	r3, r1
 2679 10fc 9B00     		lsls	r3, r3, #2
 2680 10fe 0B44     		add	r3, r3, r1
 2681 1100 DB00     		lsls	r3, r3, #3
 2682 1102 1344     		add	r3, r3, r2
 2683 1104 3A68     		ldr	r2, [r7]
 2684 1106 1344     		add	r3, r3, r2
 2685 1108 1B69     		ldr	r3, [r3, #16]
 468:../../source/src/kernel/OS_CORE/module.c ****         shstrab  = (UINT8 *)module_ptr +
 2686              		.loc 2 468 0
 2687 110a 3A68     		ldr	r2, [r7]
 2688 110c 1344     		add	r3, r3, r2
 2689 110e 7B61     		str	r3, [r7, #20]
 470:../../source/src/kernel/OS_CORE/module.c ****         nr_reloc = (UINT32)(shdr[index].sh_size / sizeof(Elf32_Rel));
 2690              		.loc 2 470 0
 2691 1110 3B68     		ldr	r3, [r7]
 2692 1112 196A     		ldr	r1, [r3, #32]
 2693 1114 7A6C     		ldr	r2, [r7, #68]
 2694 1116 1346     		mov	r3, r2
 2695 1118 9B00     		lsls	r3, r3, #2
 2696 111a 1344     		add	r3, r3, r2
 2697 111c DB00     		lsls	r3, r3, #3
 2698 111e 0B44     		add	r3, r3, r1
 2699 1120 3A68     		ldr	r2, [r7]
 2700 1122 1344     		add	r3, r3, r2
 2701 1124 5B69     		ldr	r3, [r3, #20]
 2702 1126 DB08     		lsrs	r3, r3, #3
 2703 1128 3B61     		str	r3, [r7, #16]
 471:../../source/src/kernel/OS_CORE/module.c **** 
 472:../../source/src/kernel/OS_CORE/module.c ****         /* relocate every items */
 473:../../source/src/kernel/OS_CORE/module.c ****         for (i = 0; i < nr_reloc; i ++)
 2704              		.loc 2 473 0
 2705 112a 0023     		movs	r3, #0
 2706 112c BB62     		str	r3, [r7, #40]
 2707 112e 1EE1     		b	.L92
 2708              	.L106:
 2709              	.LBB11:
 474:../../source/src/kernel/OS_CORE/module.c ****         {
 475:../../source/src/kernel/OS_CORE/module.c ****             ka_printf("relocate items round %d\n",i);
 2710              		.loc 2 475 0
 2711 1130 B96A     		ldr	r1, [r7, #40]
 2712 1132 6048     		ldr	r0, .L112+4
 2713 1134 FFF7FEFF 		bl	ka_printf
 476:../../source/src/kernel/OS_CORE/module.c **** 
 477:../../source/src/kernel/OS_CORE/module.c ****             Elf32_Sym *sym = &symtab[ELF32_R_SYM(rel->r_info)];
 2714              		.loc 2 477 0
 2715 1138 7B6A     		ldr	r3, [r7, #36]
 2716 113a 5B68     		ldr	r3, [r3, #4]
 2717 113c 1B0A     		lsrs	r3, r3, #8
 2718 113e 1B01     		lsls	r3, r3, #4
 2719 1140 FA69     		ldr	r2, [r7, #28]
 2720 1142 1344     		add	r3, r3, r2
 2721 1144 FB60     		str	r3, [r7, #12]
ARM GAS  G:\Users\Jaxb\AppData\Local\Temp\cc4KUlGg.s 			page 61


 478:../../source/src/kernel/OS_CORE/module.c **** 
 479:../../source/src/kernel/OS_CORE/module.c ****             ka_printf("relocate symbol: %s\n", strtab + sym->st_name);
 2722              		.loc 2 479 0
 2723 1146 FB68     		ldr	r3, [r7, #12]
 2724 1148 1B68     		ldr	r3, [r3]
 2725 114a BA69     		ldr	r2, [r7, #24]
 2726 114c 1344     		add	r3, r3, r2
 2727 114e 1946     		mov	r1, r3
 2728 1150 5948     		ldr	r0, .L112+8
 2729 1152 FFF7FEFF 		bl	ka_printf
 480:../../source/src/kernel/OS_CORE/module.c **** 
 481:../../source/src/kernel/OS_CORE/module.c ****             if (sym->st_shndx != STN_UNDEF)  //
 2730              		.loc 2 481 0
 2731 1156 FB68     		ldr	r3, [r7, #12]
 2732 1158 DB89     		ldrh	r3, [r3, #14]
 2733 115a 002B     		cmp	r3, #0
 2734 115c 00F09280 		beq	.L93
 2735              	.LBB12:
 482:../../source/src/kernel/OS_CORE/module.c ****             {
 483:../../source/src/kernel/OS_CORE/module.c **** 
 484:../../source/src/kernel/OS_CORE/module.c ****                 ka_printf("!STN_UNDEF\n");
 2736              		.loc 2 484 0
 2737 1160 5648     		ldr	r0, .L112+12
 2738 1162 FFF7FEFF 		bl	ka_printf
 485:../../source/src/kernel/OS_CORE/module.c **** 
 486:../../source/src/kernel/OS_CORE/module.c ****                 Elf32_Addr addr = 0;
 2739              		.loc 2 486 0
 2740 1166 0023     		movs	r3, #0
 2741 1168 3B62     		str	r3, [r7, #32]
 487:../../source/src/kernel/OS_CORE/module.c **** 
 488:../../source/src/kernel/OS_CORE/module.c ****                 if ((ELF_ST_TYPE(sym->st_info) == STT_SECTION) ||
 2742              		.loc 2 488 0
 2743 116a FB68     		ldr	r3, [r7, #12]
 2744 116c 1B7B     		ldrb	r3, [r3, #12]	@ zero_extendqisi2
 2745 116e 03F00F03 		and	r3, r3, #15
 2746 1172 032B     		cmp	r3, #3
 2747 1174 05D0     		beq	.L94
 489:../../source/src/kernel/OS_CORE/module.c ****                         (ELF_ST_TYPE(sym->st_info) == STT_OBJECT))
 2748              		.loc 2 489 0 discriminator 1
 2749 1176 FB68     		ldr	r3, [r7, #12]
 2750 1178 1B7B     		ldrb	r3, [r3, #12]	@ zero_extendqisi2
 2751 117a 03F00F03 		and	r3, r3, #15
 488:../../source/src/kernel/OS_CORE/module.c ****                         (ELF_ST_TYPE(sym->st_info) == STT_OBJECT))
 2752              		.loc 2 488 0 discriminator 1
 2753 117e 012B     		cmp	r3, #1
 2754 1180 68D1     		bne	.L95
 2755              	.L94:
 490:../../source/src/kernel/OS_CORE/module.c ****                 {
 491:../../source/src/kernel/OS_CORE/module.c ****                     if (ka_strncmp((const char *)(shstrab +
 492:../../source/src/kernel/OS_CORE/module.c ****                                                   shdr[sym->st_shndx].sh_name), ELF_RODATA, 8) == 0
 2756              		.loc 2 492 0
 2757 1182 3B68     		ldr	r3, [r7]
 2758 1184 1A6A     		ldr	r2, [r3, #32]
 2759 1186 FB68     		ldr	r3, [r7, #12]
 2760 1188 DB89     		ldrh	r3, [r3, #14]
 2761 118a 1946     		mov	r1, r3
 2762 118c 0B46     		mov	r3, r1
ARM GAS  G:\Users\Jaxb\AppData\Local\Temp\cc4KUlGg.s 			page 62


 2763 118e 9B00     		lsls	r3, r3, #2
 2764 1190 0B44     		add	r3, r3, r1
 2765 1192 DB00     		lsls	r3, r3, #3
 2766 1194 1344     		add	r3, r3, r2
 2767 1196 3A68     		ldr	r2, [r7]
 2768 1198 1344     		add	r3, r3, r2
 2769 119a 1B68     		ldr	r3, [r3]
 491:../../source/src/kernel/OS_CORE/module.c ****                                                   shdr[sym->st_shndx].sh_name), ELF_RODATA, 8) == 0
 2770              		.loc 2 491 0
 2771 119c 7A69     		ldr	r2, [r7, #20]
 2772 119e 1344     		add	r3, r3, r2
 2773 11a0 0822     		movs	r2, #8
 2774 11a2 4749     		ldr	r1, .L112+16
 2775 11a4 1846     		mov	r0, r3
 2776 11a6 FFF7FEFF 		bl	ka_strncmp
 2777 11aa 0346     		mov	r3, r0
 2778 11ac 002B     		cmp	r3, #0
 2779 11ae 08D1     		bne	.L96
 493:../../source/src/kernel/OS_CORE/module.c ****                     {
 494:../../source/src/kernel/OS_CORE/module.c ****                         /* relocate rodata section */
 495:../../source/src/kernel/OS_CORE/module.c ****                         ka_printf("rodata\n");
 2780              		.loc 2 495 0
 2781 11b0 4448     		ldr	r0, .L112+20
 2782 11b2 FFF7FEFF 		bl	ka_printf
 496:../../source/src/kernel/OS_CORE/module.c ****                         addr = (Elf32_Addr)(rodata_addr + sym->st_value);
 2783              		.loc 2 496 0
 2784 11b6 FB68     		ldr	r3, [r7, #12]
 2785 11b8 5B68     		ldr	r3, [r3, #4]
 2786 11ba 3A6C     		ldr	r2, [r7, #64]
 2787 11bc 1344     		add	r3, r3, r2
 2788 11be 3B62     		str	r3, [r7, #32]
 2789 11c0 3EE0     		b	.L97
 2790              	.L96:
 497:../../source/src/kernel/OS_CORE/module.c ****                     }
 498:../../source/src/kernel/OS_CORE/module.c ****                     else if (ka_strncmp((const char *)
 499:../../source/src/kernel/OS_CORE/module.c ****                                         (shstrab + shdr[sym->st_shndx].sh_name), ELF_BSS, 5) == 0)
 2791              		.loc 2 499 0
 2792 11c2 3B68     		ldr	r3, [r7]
 2793 11c4 1A6A     		ldr	r2, [r3, #32]
 2794 11c6 FB68     		ldr	r3, [r7, #12]
 2795 11c8 DB89     		ldrh	r3, [r3, #14]
 2796 11ca 1946     		mov	r1, r3
 2797 11cc 0B46     		mov	r3, r1
 2798 11ce 9B00     		lsls	r3, r3, #2
 2799 11d0 0B44     		add	r3, r3, r1
 2800 11d2 DB00     		lsls	r3, r3, #3
 2801 11d4 1344     		add	r3, r3, r2
 2802 11d6 3A68     		ldr	r2, [r7]
 2803 11d8 1344     		add	r3, r3, r2
 2804 11da 1B68     		ldr	r3, [r3]
 2805 11dc 7A69     		ldr	r2, [r7, #20]
 2806 11de 1344     		add	r3, r3, r2
 498:../../source/src/kernel/OS_CORE/module.c ****                                         (shstrab + shdr[sym->st_shndx].sh_name), ELF_BSS, 5) == 0)
 2807              		.loc 2 498 0
 2808 11e0 0522     		movs	r2, #5
 2809 11e2 3949     		ldr	r1, .L112+24
 2810 11e4 1846     		mov	r0, r3
ARM GAS  G:\Users\Jaxb\AppData\Local\Temp\cc4KUlGg.s 			page 63


 2811 11e6 FFF7FEFF 		bl	ka_strncmp
 2812 11ea 0346     		mov	r3, r0
 2813 11ec 002B     		cmp	r3, #0
 2814 11ee 08D1     		bne	.L98
 500:../../source/src/kernel/OS_CORE/module.c ****                     {
 501:../../source/src/kernel/OS_CORE/module.c ****                         /* relocate bss section */
 502:../../source/src/kernel/OS_CORE/module.c ****                         ka_printf("bss\n");
 2815              		.loc 2 502 0
 2816 11f0 3648     		ldr	r0, .L112+28
 2817 11f2 FFF7FEFF 		bl	ka_printf
 503:../../source/src/kernel/OS_CORE/module.c ****                         addr = (Elf32_Addr)bss_addr + sym->st_value;
 2818              		.loc 2 503 0
 2819 11f6 FB68     		ldr	r3, [r7, #12]
 2820 11f8 5B68     		ldr	r3, [r3, #4]
 2821 11fa FA6B     		ldr	r2, [r7, #60]
 2822 11fc 1344     		add	r3, r3, r2
 2823 11fe 3B62     		str	r3, [r7, #32]
 2824 1200 1EE0     		b	.L97
 2825              	.L98:
 504:../../source/src/kernel/OS_CORE/module.c ****                     }
 505:../../source/src/kernel/OS_CORE/module.c ****                     else if (ka_strncmp((const char *)(shstrab + shdr[sym->st_shndx].sh_name),
 2826              		.loc 2 505 0
 2827 1202 3B68     		ldr	r3, [r7]
 2828 1204 1A6A     		ldr	r2, [r3, #32]
 2829 1206 FB68     		ldr	r3, [r7, #12]
 2830 1208 DB89     		ldrh	r3, [r3, #14]
 2831 120a 1946     		mov	r1, r3
 2832 120c 0B46     		mov	r3, r1
 2833 120e 9B00     		lsls	r3, r3, #2
 2834 1210 0B44     		add	r3, r3, r1
 2835 1212 DB00     		lsls	r3, r3, #3
 2836 1214 1344     		add	r3, r3, r2
 2837 1216 3A68     		ldr	r2, [r7]
 2838 1218 1344     		add	r3, r3, r2
 2839 121a 1B68     		ldr	r3, [r3]
 2840 121c 7A69     		ldr	r2, [r7, #20]
 2841 121e 1344     		add	r3, r3, r2
 2842 1220 0622     		movs	r2, #6
 2843 1222 2B49     		ldr	r1, .L112+32
 2844 1224 1846     		mov	r0, r3
 2845 1226 FFF7FEFF 		bl	ka_strncmp
 2846 122a 0346     		mov	r3, r0
 2847 122c 002B     		cmp	r3, #0
 2848 122e 07D1     		bne	.L97
 506:../../source/src/kernel/OS_CORE/module.c ****                                         ELF_DATA, 6) == 0)
 507:../../source/src/kernel/OS_CORE/module.c ****                     {
 508:../../source/src/kernel/OS_CORE/module.c ****                         /* relocate data section */
 509:../../source/src/kernel/OS_CORE/module.c ****                         ka_printf("data\n");
 2849              		.loc 2 509 0
 2850 1230 2848     		ldr	r0, .L112+36
 2851 1232 FFF7FEFF 		bl	ka_printf
 510:../../source/src/kernel/OS_CORE/module.c ****                         addr = (Elf32_Addr)data_addr + sym->st_value;
 2852              		.loc 2 510 0
 2853 1236 FB68     		ldr	r3, [r7, #12]
 2854 1238 5B68     		ldr	r3, [r3, #4]
 2855 123a BA6B     		ldr	r2, [r7, #56]
 2856 123c 1344     		add	r3, r3, r2
ARM GAS  G:\Users\Jaxb\AppData\Local\Temp\cc4KUlGg.s 			page 64


 2857 123e 3B62     		str	r3, [r7, #32]
 2858              	.L97:
 511:../../source/src/kernel/OS_CORE/module.c ****                     }
 512:../../source/src/kernel/OS_CORE/module.c **** 
 513:../../source/src/kernel/OS_CORE/module.c ****                     if (addr != 0) dlmodule_relocate(module, rel, addr);
 2859              		.loc 2 513 0
 2860 1240 3B6A     		ldr	r3, [r7, #32]
 2861 1242 002B     		cmp	r3, #0
 2862 1244 00F08D80 		beq	.L101
 2863              		.loc 2 513 0 is_stmt 0 discriminator 1
 2864 1248 3A6A     		ldr	r2, [r7, #32]
 2865 124a 796A     		ldr	r1, [r7, #36]
 2866 124c 7868     		ldr	r0, [r7, #4]
 2867 124e FFF7FEFF 		bl	dlmodule_relocate
 2868 1252 86E0     		b	.L101
 2869              	.L95:
 514:../../source/src/kernel/OS_CORE/module.c ****                 }
 515:../../source/src/kernel/OS_CORE/module.c ****                 else if (ELF_ST_TYPE(sym->st_info) == STT_FUNC)
 2870              		.loc 2 515 0 is_stmt 1
 2871 1254 FB68     		ldr	r3, [r7, #12]
 2872 1256 1B7B     		ldrb	r3, [r3, #12]	@ zero_extendqisi2
 2873 1258 03F00F03 		and	r3, r3, #15
 2874 125c 022B     		cmp	r3, #2
 2875 125e 40F08080 		bne	.L101
 516:../../source/src/kernel/OS_CORE/module.c ****                 {
 517:../../source/src/kernel/OS_CORE/module.c ****                     ka_printf("function\n");
 2876              		.loc 2 517 0
 2877 1262 1D48     		ldr	r0, .L112+40
 2878 1264 FFF7FEFF 		bl	ka_printf
 518:../../source/src/kernel/OS_CORE/module.c **** 
 519:../../source/src/kernel/OS_CORE/module.c ****                     addr = (Elf32_Addr)((UINT8 *) module->mem_space - module_addr + sym->st_value);
 2879              		.loc 2 519 0
 2880 1268 7B68     		ldr	r3, [r7, #4]
 2881 126a 5A6B     		ldr	r2, [r3, #52]
 2882 126c FB68     		ldr	r3, [r7, #12]
 2883 126e 5968     		ldr	r1, [r3, #4]
 2884 1270 7B6B     		ldr	r3, [r7, #52]
 2885 1272 CB1A     		subs	r3, r1, r3
 2886 1274 1344     		add	r3, r3, r2
 2887 1276 3B62     		str	r3, [r7, #32]
 520:../../source/src/kernel/OS_CORE/module.c **** 
 521:../../source/src/kernel/OS_CORE/module.c ****                     /* relocate function */
 522:../../source/src/kernel/OS_CORE/module.c ****                     dlmodule_relocate(module, rel, addr);
 2888              		.loc 2 522 0
 2889 1278 3A6A     		ldr	r2, [r7, #32]
 2890 127a 796A     		ldr	r1, [r7, #36]
 2891 127c 7868     		ldr	r0, [r7, #4]
 2892 127e FFF7FEFF 		bl	dlmodule_relocate
 2893 1282 6EE0     		b	.L101
 2894              	.L93:
 2895              	.LBE12:
 523:../../source/src/kernel/OS_CORE/module.c ****                 }
 524:../../source/src/kernel/OS_CORE/module.c ****             }
 525:../../source/src/kernel/OS_CORE/module.c ****             else if (ELF_ST_TYPE(sym->st_info) == STT_FUNC)
 2896              		.loc 2 525 0
 2897 1284 FB68     		ldr	r3, [r7, #12]
 2898 1286 1B7B     		ldrb	r3, [r3, #12]	@ zero_extendqisi2
ARM GAS  G:\Users\Jaxb\AppData\Local\Temp\cc4KUlGg.s 			page 65


 2899 1288 03F00F03 		and	r3, r3, #15
 2900 128c 022B     		cmp	r3, #2
 2901 128e 27D1     		bne	.L102
 526:../../source/src/kernel/OS_CORE/module.c ****             {
 527:../../source/src/kernel/OS_CORE/module.c ****                 ka_printf("STT_FUNC\n");
 2902              		.loc 2 527 0
 2903 1290 1248     		ldr	r0, .L112+44
 2904 1292 FFF7FEFF 		bl	ka_printf
 528:../../source/src/kernel/OS_CORE/module.c **** 
 529:../../source/src/kernel/OS_CORE/module.c ****                 /* relocate function */
 530:../../source/src/kernel/OS_CORE/module.c ****                 dlmodule_relocate(module, rel,
 531:../../source/src/kernel/OS_CORE/module.c ****                                   (Elf32_Addr)((UINT8 *)
 532:../../source/src/kernel/OS_CORE/module.c ****                                                module->mem_space
 2905              		.loc 2 532 0
 2906 1296 7B68     		ldr	r3, [r7, #4]
 2907 1298 5A6B     		ldr	r2, [r3, #52]
 533:../../source/src/kernel/OS_CORE/module.c ****                                                - module_addr
 534:../../source/src/kernel/OS_CORE/module.c ****                                                + sym->st_value));
 2908              		.loc 2 534 0
 2909 129a FB68     		ldr	r3, [r7, #12]
 2910 129c 5968     		ldr	r1, [r3, #4]
 2911 129e 7B6B     		ldr	r3, [r7, #52]
 2912 12a0 CB1A     		subs	r3, r1, r3
 2913 12a2 1344     		add	r3, r3, r2
 530:../../source/src/kernel/OS_CORE/module.c ****                                   (Elf32_Addr)((UINT8 *)
 2914              		.loc 2 530 0
 2915 12a4 1A46     		mov	r2, r3
 2916 12a6 796A     		ldr	r1, [r7, #36]
 2917 12a8 7868     		ldr	r0, [r7, #4]
 2918 12aa FFF7FEFF 		bl	dlmodule_relocate
 2919 12ae 58E0     		b	.L101
 2920              	.L113:
 2921              		.align	2
 2922              	.L112:
 2923 12b0 B4030000 		.word	.LC31
 2924 12b4 C0030000 		.word	.LC32
 2925 12b8 DC030000 		.word	.LC33
 2926 12bc F4030000 		.word	.LC34
 2927 12c0 00040000 		.word	.LC35
 2928 12c4 08040000 		.word	.LC36
 2929 12c8 10040000 		.word	.LC37
 2930 12cc 18040000 		.word	.LC38
 2931 12d0 20040000 		.word	.LC39
 2932 12d4 28040000 		.word	.LC40
 2933 12d8 30040000 		.word	.LC41
 2934 12dc 3C040000 		.word	.LC42
 2935              	.L102:
 2936              	.LBB13:
 535:../../source/src/kernel/OS_CORE/module.c ****             }
 536:../../source/src/kernel/OS_CORE/module.c ****             else
 537:../../source/src/kernel/OS_CORE/module.c ****             {
 538:../../source/src/kernel/OS_CORE/module.c ****                 ka_printf("other\n");
 2937              		.loc 2 538 0
 2938 12e0 2D48     		ldr	r0, .L114
 2939 12e2 FFF7FEFF 		bl	ka_printf
 539:../../source/src/kernel/OS_CORE/module.c **** 
 540:../../source/src/kernel/OS_CORE/module.c ****                 Elf32_Addr addr = NULL;
ARM GAS  G:\Users\Jaxb\AppData\Local\Temp\cc4KUlGg.s 			page 66


 2940              		.loc 2 540 0
 2941 12e6 0023     		movs	r3, #0
 2942 12e8 BB60     		str	r3, [r7, #8]
 541:../../source/src/kernel/OS_CORE/module.c **** 
 542:../../source/src/kernel/OS_CORE/module.c ****                 if (ELF32_R_TYPE(rel->r_info) != R_ARM_V4BX)
 2943              		.loc 2 542 0
 2944 12ea 7B6A     		ldr	r3, [r7, #36]
 2945 12ec 5B68     		ldr	r3, [r3, #4]
 2946 12ee DBB2     		uxtb	r3, r3
 2947 12f0 282B     		cmp	r3, #40
 2948 12f2 29D0     		beq	.L103
 543:../../source/src/kernel/OS_CORE/module.c ****                 {
 544:../../source/src/kernel/OS_CORE/module.c ****                     ka_printf("relocate symbol: %s\n", strtab + sym->st_name);
 2949              		.loc 2 544 0
 2950 12f4 FB68     		ldr	r3, [r7, #12]
 2951 12f6 1B68     		ldr	r3, [r3]
 2952 12f8 BA69     		ldr	r2, [r7, #24]
 2953 12fa 1344     		add	r3, r3, r2
 2954 12fc 1946     		mov	r1, r3
 2955 12fe 2748     		ldr	r0, .L114+4
 2956 1300 FFF7FEFF 		bl	ka_printf
 545:../../source/src/kernel/OS_CORE/module.c **** 
 546:../../source/src/kernel/OS_CORE/module.c ****                     /* need to resolve symbol in kernel symbol table */
 547:../../source/src/kernel/OS_CORE/module.c ****                     addr = get_export_function_addr((const char *)(strtab + sym->st_name));
 2957              		.loc 2 547 0
 2958 1304 FB68     		ldr	r3, [r7, #12]
 2959 1306 1B68     		ldr	r3, [r3]
 2960 1308 BA69     		ldr	r2, [r7, #24]
 2961 130a 1344     		add	r3, r3, r2
 2962 130c 1846     		mov	r0, r3
 2963 130e FFF7FEFF 		bl	get_export_function_addr
 2964 1312 B860     		str	r0, [r7, #8]
 548:../../source/src/kernel/OS_CORE/module.c ****                     ka_printf("get addr is %p\n",addr);
 2965              		.loc 2 548 0
 2966 1314 B968     		ldr	r1, [r7, #8]
 2967 1316 2248     		ldr	r0, .L114+8
 2968 1318 FFF7FEFF 		bl	ka_printf
 549:../../source/src/kernel/OS_CORE/module.c ****                     if (addr != (Elf32_Addr)NULL)
 2969              		.loc 2 549 0
 2970 131c BB68     		ldr	r3, [r7, #8]
 2971 131e 002B     		cmp	r3, #0
 2972 1320 09D0     		beq	.L104
 550:../../source/src/kernel/OS_CORE/module.c ****                     {
 551:../../source/src/kernel/OS_CORE/module.c ****                         dlmodule_relocate(module, rel, addr);
 2973              		.loc 2 551 0
 2974 1322 BA68     		ldr	r2, [r7, #8]
 2975 1324 796A     		ldr	r1, [r7, #36]
 2976 1326 7868     		ldr	r0, [r7, #4]
 2977 1328 FFF7FEFF 		bl	dlmodule_relocate
 552:../../source/src/kernel/OS_CORE/module.c ****                         ka_printf("symbol addr 0x%x\n", addr);
 2978              		.loc 2 552 0
 2979 132c B968     		ldr	r1, [r7, #8]
 2980 132e 1D48     		ldr	r0, .L114+12
 2981 1330 FFF7FEFF 		bl	ka_printf
 2982 1334 15E0     		b	.L101
 2983              	.L104:
 553:../../source/src/kernel/OS_CORE/module.c ****                     }
ARM GAS  G:\Users\Jaxb\AppData\Local\Temp\cc4KUlGg.s 			page 67


 554:../../source/src/kernel/OS_CORE/module.c ****                     else
 555:../../source/src/kernel/OS_CORE/module.c ****                         ka_printf("Module: can't find %s in kernel symbol table\n",
 556:../../source/src/kernel/OS_CORE/module.c ****                                   strtab + sym->st_name);
 2984              		.loc 2 556 0
 2985 1336 FB68     		ldr	r3, [r7, #12]
 2986 1338 1B68     		ldr	r3, [r3]
 555:../../source/src/kernel/OS_CORE/module.c ****                                   strtab + sym->st_name);
 2987              		.loc 2 555 0
 2988 133a BA69     		ldr	r2, [r7, #24]
 2989 133c 1344     		add	r3, r3, r2
 2990 133e 1946     		mov	r1, r3
 2991 1340 1948     		ldr	r0, .L114+16
 2992 1342 FFF7FEFF 		bl	ka_printf
 2993 1346 0CE0     		b	.L101
 2994              	.L103:
 557:../../source/src/kernel/OS_CORE/module.c ****                 }
 558:../../source/src/kernel/OS_CORE/module.c ****                 else
 559:../../source/src/kernel/OS_CORE/module.c ****                 {
 560:../../source/src/kernel/OS_CORE/module.c ****                     addr = (Elf32_Addr)((UINT8 *) module->mem_space - module_addr + sym->st_value);
 2995              		.loc 2 560 0
 2996 1348 7B68     		ldr	r3, [r7, #4]
 2997 134a 5A6B     		ldr	r2, [r3, #52]
 2998 134c FB68     		ldr	r3, [r7, #12]
 2999 134e 5968     		ldr	r1, [r3, #4]
 3000 1350 7B6B     		ldr	r3, [r7, #52]
 3001 1352 CB1A     		subs	r3, r1, r3
 3002 1354 1344     		add	r3, r3, r2
 3003 1356 BB60     		str	r3, [r7, #8]
 561:../../source/src/kernel/OS_CORE/module.c ****                     dlmodule_relocate(module, rel, addr);
 3004              		.loc 2 561 0
 3005 1358 BA68     		ldr	r2, [r7, #8]
 3006 135a 796A     		ldr	r1, [r7, #36]
 3007 135c 7868     		ldr	r0, [r7, #4]
 3008 135e FFF7FEFF 		bl	dlmodule_relocate
 3009              	.L101:
 3010              	.LBE13:
 562:../../source/src/kernel/OS_CORE/module.c ****                 }
 563:../../source/src/kernel/OS_CORE/module.c ****             }
 564:../../source/src/kernel/OS_CORE/module.c **** 
 565:../../source/src/kernel/OS_CORE/module.c ****             rel ++;
 3011              		.loc 2 565 0 discriminator 2
 3012 1362 7B6A     		ldr	r3, [r7, #36]
 3013 1364 0833     		adds	r3, r3, #8
 3014 1366 7B62     		str	r3, [r7, #36]
 3015              	.LBE11:
 473:../../source/src/kernel/OS_CORE/module.c ****         {
 3016              		.loc 2 473 0 discriminator 2
 3017 1368 BB6A     		ldr	r3, [r7, #40]
 3018 136a 0133     		adds	r3, r3, #1
 3019 136c BB62     		str	r3, [r7, #40]
 3020              	.L92:
 473:../../source/src/kernel/OS_CORE/module.c ****         {
 3021              		.loc 2 473 0 is_stmt 0 discriminator 1
 3022 136e BA6A     		ldr	r2, [r7, #40]
 3023 1370 3B69     		ldr	r3, [r7, #16]
 3024 1372 9A42     		cmp	r2, r3
 3025 1374 FFF4DCAE 		bcc	.L106
ARM GAS  G:\Users\Jaxb\AppData\Local\Temp\cc4KUlGg.s 			page 68


 3026              	.L91:
 3027              	.LBE10:
 448:../../source/src/kernel/OS_CORE/module.c ****     {
 3028              		.loc 2 448 0 is_stmt 1 discriminator 2
 3029 1378 7B6C     		ldr	r3, [r7, #68]
 3030 137a 0133     		adds	r3, r3, #1
 3031 137c 7B64     		str	r3, [r7, #68]
 3032              	.L89:
 448:../../source/src/kernel/OS_CORE/module.c ****     {
 3033              		.loc 2 448 0 is_stmt 0 discriminator 1
 3034 137e 3B68     		ldr	r3, [r7]
 3035 1380 1B8E     		ldrh	r3, [r3, #48]
 3036 1382 1A46     		mov	r2, r3
 3037 1384 7B6C     		ldr	r3, [r7, #68]
 3038 1386 9342     		cmp	r3, r2
 3039 1388 FFF444AE 		bcc	.L107
 566:../../source/src/kernel/OS_CORE/module.c ****         }
 567:../../source/src/kernel/OS_CORE/module.c ****     }
 568:../../source/src/kernel/OS_CORE/module.c **** 
 569:../../source/src/kernel/OS_CORE/module.c ****     return RT_EOK;
 3040              		.loc 2 569 0 is_stmt 1
 3041 138c 0023     		movs	r3, #0
 3042              	.L81:
 570:../../source/src/kernel/OS_CORE/module.c **** }
 3043              		.loc 2 570 0
 3044 138e 1846     		mov	r0, r3
 3045 1390 4C37     		adds	r7, r7, #76
 3046              	.LCFI19:
 3047              		.cfi_def_cfa_offset 20
 3048 1392 BD46     		mov	sp, r7
 3049              	.LCFI20:
 3050              		.cfi_def_cfa_register 13
 3051              		@ sp needed
 3052 1394 F0BD     		pop	{r4, r5, r6, r7, pc}
 3053              	.L115:
 3054 1396 00BF     		.align	2
 3055              	.L114:
 3056 1398 48040000 		.word	.LC43
 3057 139c DC030000 		.word	.LC33
 3058 13a0 50040000 		.word	.LC44
 3059 13a4 60040000 		.word	.LC45
 3060 13a8 74040000 		.word	.LC46
 3061              		.cfi_endproc
 3062              	.LFE12:
 3063              		.size	dlmodule_load_relocated_object, .-dlmodule_load_relocated_object
 3064              		.section	.rodata
 3065 04a2 0000     		.align	2
 3066              	.LC47:
 3067 04a4 7F52544D 		.ascii	"\177RTM\000"
 3067      00
 3068 04a9 000000   		.align	2
 3069              	.LC48:
 3070 04ac 7F454C46 		.ascii	"\177ELF\000"
 3070      00
 3071 04b1 000000   		.align	2
 3072              	.LC49:
 3073 04b4 4D6F6475 		.ascii	"Module: magic error\012\000"
ARM GAS  G:\Users\Jaxb\AppData\Local\Temp\cc4KUlGg.s 			page 69


 3073      6C653A20 
 3073      6D616769 
 3073      63206572 
 3073      726F720A 
 3074 04c9 000000   		.align	2
 3075              	.LC50:
 3076 04cc 4D6F6475 		.ascii	"Module: ELF class error\012\000"
 3076      6C653A20 
 3076      454C4620 
 3076      636C6173 
 3076      73206572 
 3077 04e5 000000   		.align	2
 3078              	.LC51:
 3079 04e8 6C6F6164 		.ascii	"load relocated file\012\000"
 3079      2072656C 
 3079      6F636174 
 3079      65642066 
 3079      696C650A 
 3080 04fd 000000   		.align	2
 3081              	.LC52:
 3082 0500 4D6F6475 		.ascii	"Module: unsupported elf type\012\000"
 3082      6C653A20 
 3082      756E7375 
 3082      70706F72 
 3082      74656420 
 3083 051e 0000     		.align	2
 3084              	.LC53:
 3085 0520 340A00   		.ascii	"4\012\000"
 3086 0523 00       		.align	2
 3087              	.LC54:
 3088 0524 350A00   		.ascii	"5\012\000"
 3089 0527 00       		.align	2
 3090              	.LC55:
 3091 0528 360A00   		.ascii	"6\012\000"
 3092              		.text
 3093              		.align	1
 3094              		.global	dlmodule_load
 3095              		.syntax unified
 3096              		.thumb
 3097              		.thumb_func
 3098              		.fpu softvfp
 3099              		.type	dlmodule_load, %function
 3100              	dlmodule_load:
 3101              	.LFB13:
 571:../../source/src/kernel/OS_CORE/module.c **** 
 572:../../source/src/kernel/OS_CORE/module.c **** 
 573:../../source/src/kernel/OS_CORE/module.c **** 
 574:../../source/src/kernel/OS_CORE/module.c **** struct rt_dlmodule* dlmodule_load(void)
 575:../../source/src/kernel/OS_CORE/module.c **** {
 3102              		.loc 2 575 0
 3103              		.cfi_startproc
 3104              		@ args = 0, pretend = 0, frame = 16
 3105              		@ frame_needed = 1, uses_anonymous_args = 0
 3106 13ac 80B5     		push	{r7, lr}
 3107              	.LCFI21:
 3108              		.cfi_def_cfa_offset 8
 3109              		.cfi_offset 7, -8
ARM GAS  G:\Users\Jaxb\AppData\Local\Temp\cc4KUlGg.s 			page 70


 3110              		.cfi_offset 14, -4
 3111 13ae 84B0     		sub	sp, sp, #16
 3112              	.LCFI22:
 3113              		.cfi_def_cfa_offset 24
 3114 13b0 00AF     		add	r7, sp, #0
 3115              	.LCFI23:
 3116              		.cfi_def_cfa_register 7
 576:../../source/src/kernel/OS_CORE/module.c ****     rt_err_t ret = RT_EOK;
 3117              		.loc 2 576 0
 3118 13b2 0023     		movs	r3, #0
 3119 13b4 BB60     		str	r3, [r7, #8]
 577:../../source/src/kernel/OS_CORE/module.c ****     UINT8 *module_ptr = (UINT8 *)module_buffer;
 3120              		.loc 2 577 0
 3121 13b6 444B     		ldr	r3, .L129
 3122 13b8 1B68     		ldr	r3, [r3]
 3123 13ba 7B60     		str	r3, [r7, #4]
 578:../../source/src/kernel/OS_CORE/module.c ****     struct rt_dlmodule *module = NULL;
 3124              		.loc 2 578 0
 3125 13bc 0023     		movs	r3, #0
 3126 13be FB60     		str	r3, [r7, #12]
 579:../../source/src/kernel/OS_CORE/module.c **** 
 580:../../source/src/kernel/OS_CORE/module.c ****     /* check ELF header */
 581:../../source/src/kernel/OS_CORE/module.c ****     if (ka_strncmp((const char *)elf_module->e_ident, (const char *)RTMMAG, SELFMAG) != 0 &&
 3127              		.loc 2 581 0
 3128 13c0 7B68     		ldr	r3, [r7, #4]
 3129 13c2 0422     		movs	r2, #4
 3130 13c4 4149     		ldr	r1, .L129+4
 3131 13c6 1846     		mov	r0, r3
 3132 13c8 FFF7FEFF 		bl	ka_strncmp
 3133 13cc 0346     		mov	r3, r0
 3134 13ce 002B     		cmp	r3, #0
 3135 13d0 0CD0     		beq	.L117
 582:../../source/src/kernel/OS_CORE/module.c ****             ka_strncmp((const char *)elf_module->e_ident, (const char *)ELFMAG, SELFMAG) != 0)
 3136              		.loc 2 582 0 discriminator 1
 3137 13d2 7B68     		ldr	r3, [r7, #4]
 3138 13d4 0422     		movs	r2, #4
 3139 13d6 3E49     		ldr	r1, .L129+8
 3140 13d8 1846     		mov	r0, r3
 3141 13da FFF7FEFF 		bl	ka_strncmp
 3142 13de 0346     		mov	r3, r0
 581:../../source/src/kernel/OS_CORE/module.c ****             ka_strncmp((const char *)elf_module->e_ident, (const char *)ELFMAG, SELFMAG) != 0)
 3143              		.loc 2 581 0 discriminator 1
 3144 13e0 002B     		cmp	r3, #0
 3145 13e2 03D0     		beq	.L117
 583:../../source/src/kernel/OS_CORE/module.c ****     {
 584:../../source/src/kernel/OS_CORE/module.c ****         ka_printf("Module: magic error\n");
 3146              		.loc 2 584 0
 3147 13e4 3B48     		ldr	r0, .L129+12
 3148 13e6 FFF7FEFF 		bl	ka_printf
 585:../../source/src/kernel/OS_CORE/module.c ****         goto __exit;
 3149              		.loc 2 585 0
 3150 13ea 56E0     		b	.L118
 3151              	.L117:
 586:../../source/src/kernel/OS_CORE/module.c ****     }
 587:../../source/src/kernel/OS_CORE/module.c **** 
 588:../../source/src/kernel/OS_CORE/module.c ****     /* check ELF class */
 589:../../source/src/kernel/OS_CORE/module.c ****     if (elf_module->e_ident[EI_CLASS] != ELFCLASS32)
ARM GAS  G:\Users\Jaxb\AppData\Local\Temp\cc4KUlGg.s 			page 71


 3152              		.loc 2 589 0
 3153 13ec 7B68     		ldr	r3, [r7, #4]
 3154 13ee 1B79     		ldrb	r3, [r3, #4]	@ zero_extendqisi2
 3155 13f0 012B     		cmp	r3, #1
 3156 13f2 03D0     		beq	.L119
 590:../../source/src/kernel/OS_CORE/module.c ****     {
 591:../../source/src/kernel/OS_CORE/module.c ****         ka_printf("Module: ELF class error\n");
 3157              		.loc 2 591 0
 3158 13f4 3848     		ldr	r0, .L129+16
 3159 13f6 FFF7FEFF 		bl	ka_printf
 592:../../source/src/kernel/OS_CORE/module.c ****         goto __exit;
 3160              		.loc 2 592 0
 3161 13fa 4EE0     		b	.L118
 3162              	.L119:
 593:../../source/src/kernel/OS_CORE/module.c ****     }
 594:../../source/src/kernel/OS_CORE/module.c **** 
 595:../../source/src/kernel/OS_CORE/module.c ****     module = ka_malloc(sizeof(struct rt_dlmodule));
 3163              		.loc 2 595 0
 3164 13fc 4C20     		movs	r0, #76
 3165 13fe FFF7FEFF 		bl	ka_malloc
 3166 1402 F860     		str	r0, [r7, #12]
 596:../../source/src/kernel/OS_CORE/module.c ****     if (!module) goto __exit;
 3167              		.loc 2 596 0
 3168 1404 FB68     		ldr	r3, [r7, #12]
 3169 1406 002B     		cmp	r3, #0
 3170 1408 46D0     		beq	.L128
 597:../../source/src/kernel/OS_CORE/module.c ****     module->stat = RT_DLMODULE_STAT_INIT;
 3171              		.loc 2 597 0
 3172 140a FB68     		ldr	r3, [r7, #12]
 3173 140c 0022     		movs	r2, #0
 3174 140e 1A76     		strb	r2, [r3, #24]
 598:../../source/src/kernel/OS_CORE/module.c **** 
 599:../../source/src/kernel/OS_CORE/module.c ****     /* set initial priority and stack size */
 600:../../source/src/kernel/OS_CORE/module.c ****     module->priority = PRIO_MAX - 10;
 3175              		.loc 2 600 0
 3176 1410 FB68     		ldr	r3, [r7, #12]
 3177 1412 3622     		movs	r2, #54
 3178 1414 5A83     		strh	r2, [r3, #26]	@ movhi
 601:../../source/src/kernel/OS_CORE/module.c ****     module->stack_size = 2048;
 3179              		.loc 2 601 0
 3180 1416 FB68     		ldr	r3, [r7, #12]
 3181 1418 4FF40062 		mov	r2, #2048
 3182 141c DA61     		str	r2, [r3, #28]
 602:../../source/src/kernel/OS_CORE/module.c **** 
 603:../../source/src/kernel/OS_CORE/module.c ****     INIT_LIST_HEAD(&(module->object_list));
 3183              		.loc 2 603 0
 3184 141e FB68     		ldr	r3, [r7, #12]
 3185 1420 1033     		adds	r3, r3, #16
 3186 1422 1846     		mov	r0, r3
 3187 1424 FEF7ECFD 		bl	INIT_LIST_HEAD
 604:../../source/src/kernel/OS_CORE/module.c **** 
 605:../../source/src/kernel/OS_CORE/module.c ****     /* set the name of module */
 606:../../source/src/kernel/OS_CORE/module.c ****     //_dlmodule_set_name(module, filename);
 607:../../source/src/kernel/OS_CORE/module.c **** 
 608:../../source/src/kernel/OS_CORE/module.c ****     if (elf_module->e_type == ET_REL)
 3188              		.loc 2 608 0
 3189 1428 7B68     		ldr	r3, [r7, #4]
ARM GAS  G:\Users\Jaxb\AppData\Local\Temp\cc4KUlGg.s 			page 72


 3190 142a 1B8A     		ldrh	r3, [r3, #16]
 3191 142c 012B     		cmp	r3, #1
 3192 142e 0BD1     		bne	.L121
 609:../../source/src/kernel/OS_CORE/module.c ****     {
 610:../../source/src/kernel/OS_CORE/module.c ****         ka_printf("load relocated file\n");
 3193              		.loc 2 610 0
 3194 1430 2A48     		ldr	r0, .L129+20
 3195 1432 FFF7FEFF 		bl	ka_printf
 611:../../source/src/kernel/OS_CORE/module.c ****         ret = dlmodule_load_relocated_object(module, module_ptr);
 3196              		.loc 2 611 0
 3197 1436 7968     		ldr	r1, [r7, #4]
 3198 1438 F868     		ldr	r0, [r7, #12]
 3199 143a FFF7FEFF 		bl	dlmodule_load_relocated_object
 3200 143e B860     		str	r0, [r7, #8]
 612:../../source/src/kernel/OS_CORE/module.c ****     }
 613:../../source/src/kernel/OS_CORE/module.c ****     /*else if (elf_module->e_type == ET_DYN)
 614:../../source/src/kernel/OS_CORE/module.c ****     {
 615:../../source/src/kernel/OS_CORE/module.c ****         ka_printf("load shared file\n");
 616:../../source/src/kernel/OS_CORE/module.c ****         ret = dlmodule_load_shared_object(module, module_ptr);
 617:../../source/src/kernel/OS_CORE/module.c ****     }*/
 618:../../source/src/kernel/OS_CORE/module.c ****     else
 619:../../source/src/kernel/OS_CORE/module.c ****     {
 620:../../source/src/kernel/OS_CORE/module.c ****         ka_printf("Module: unsupported elf type\n");
 621:../../source/src/kernel/OS_CORE/module.c ****         goto __exit;
 622:../../source/src/kernel/OS_CORE/module.c ****     }
 623:../../source/src/kernel/OS_CORE/module.c **** 
 624:../../source/src/kernel/OS_CORE/module.c ****     /* check return value */
 625:../../source/src/kernel/OS_CORE/module.c ****     if (ret != RT_EOK) goto __exit;
 3201              		.loc 2 625 0
 3202 1440 BB68     		ldr	r3, [r7, #8]
 3203 1442 002B     		cmp	r3, #0
 3204 1444 04D0     		beq	.L123
 3205 1446 28E0     		b	.L118
 3206              	.L121:
 620:../../source/src/kernel/OS_CORE/module.c ****         goto __exit;
 3207              		.loc 2 620 0
 3208 1448 2548     		ldr	r0, .L129+24
 3209 144a FFF7FEFF 		bl	ka_printf
 621:../../source/src/kernel/OS_CORE/module.c ****     }
 3210              		.loc 2 621 0
 3211 144e 24E0     		b	.L118
 3212              	.L123:
 626:../../source/src/kernel/OS_CORE/module.c ****     ka_printf("4\n");
 3213              		.loc 2 626 0
 3214 1450 2448     		ldr	r0, .L129+28
 3215 1452 FFF7FEFF 		bl	ka_printf
 627:../../source/src/kernel/OS_CORE/module.c ****     /* release module data */
 628:../../source/src/kernel/OS_CORE/module.c ****     ka_free(module_ptr);
 3216              		.loc 2 628 0
 3217 1456 7868     		ldr	r0, [r7, #4]
 3218 1458 FFF7FEFF 		bl	ka_free
 629:../../source/src/kernel/OS_CORE/module.c ****     ka_printf("5\n");
 3219              		.loc 2 629 0
 3220 145c 2248     		ldr	r0, .L129+32
 3221 145e FFF7FEFF 		bl	ka_printf
 630:../../source/src/kernel/OS_CORE/module.c ****     /* increase module reference count */
 631:../../source/src/kernel/OS_CORE/module.c ****     module->nref ++;
ARM GAS  G:\Users\Jaxb\AppData\Local\Temp\cc4KUlGg.s 			page 73


 3222              		.loc 2 631 0
 3223 1462 FB68     		ldr	r3, [r7, #12]
 3224 1464 B3F84430 		ldrh	r3, [r3, #68]
 3225 1468 0133     		adds	r3, r3, #1
 3226 146a 9AB2     		uxth	r2, r3
 3227 146c FB68     		ldr	r3, [r7, #12]
 3228 146e A3F84420 		strh	r2, [r3, #68]	@ movhi
 632:../../source/src/kernel/OS_CORE/module.c **** 
 633:../../source/src/kernel/OS_CORE/module.c ****     /* deal with cache */
 634:../../source/src/kernel/OS_CORE/module.c **** //#ifdef RT_USING_CACHE
 635:../../source/src/kernel/OS_CORE/module.c **** //    rt_hw_cpu_dcache_ops(RT_HW_CACHE_FLUSH, module->mem_space, module->mem_size);
 636:../../source/src/kernel/OS_CORE/module.c **** //    rt_hw_cpu_icache_ops(RT_HW_CACHE_INVALIDATE, module->mem_space, module->mem_size);
 637:../../source/src/kernel/OS_CORE/module.c **** //#endif
 638:../../source/src/kernel/OS_CORE/module.c **** 
 639:../../source/src/kernel/OS_CORE/module.c ****     /* set module initialization and cleanup function */
 640:../../source/src/kernel/OS_CORE/module.c ****     //module->init_func = dlsym(module, "module_init");
 641:../../source/src/kernel/OS_CORE/module.c ****     //module->cleanup_func = dlsym(module, "module_cleanup");
 642:../../source/src/kernel/OS_CORE/module.c ****     module->init_func = NULL;
 3229              		.loc 2 642 0
 3230 1472 FB68     		ldr	r3, [r7, #12]
 3231 1474 0022     		movs	r2, #0
 3232 1476 DA63     		str	r2, [r3, #60]
 643:../../source/src/kernel/OS_CORE/module.c ****     module->cleanup_func = NULL;
 3233              		.loc 2 643 0
 3234 1478 FB68     		ldr	r3, [r7, #12]
 3235 147a 0022     		movs	r2, #0
 3236 147c 1A64     		str	r2, [r3, #64]
 644:../../source/src/kernel/OS_CORE/module.c ****     module->stat = RT_DLMODULE_STAT_INIT;
 3237              		.loc 2 644 0
 3238 147e FB68     		ldr	r3, [r7, #12]
 3239 1480 0022     		movs	r2, #0
 3240 1482 1A76     		strb	r2, [r3, #24]
 645:../../source/src/kernel/OS_CORE/module.c ****     /* do module initialization */
 646:../../source/src/kernel/OS_CORE/module.c ****     if (module->init_func)
 3241              		.loc 2 646 0
 3242 1484 FB68     		ldr	r3, [r7, #12]
 3243 1486 DB6B     		ldr	r3, [r3, #60]
 3244 1488 002B     		cmp	r3, #0
 3245 148a 03D0     		beq	.L124
 647:../../source/src/kernel/OS_CORE/module.c ****     {
 648:../../source/src/kernel/OS_CORE/module.c ****         module->init_func(module);
 3246              		.loc 2 648 0
 3247 148c FB68     		ldr	r3, [r7, #12]
 3248 148e DB6B     		ldr	r3, [r3, #60]
 3249 1490 F868     		ldr	r0, [r7, #12]
 3250 1492 9847     		blx	r3
 3251              	.LVL0:
 3252              	.L124:
 649:../../source/src/kernel/OS_CORE/module.c ****     }
 650:../../source/src/kernel/OS_CORE/module.c **** 
 651:../../source/src/kernel/OS_CORE/module.c ****     return module;
 3253              		.loc 2 651 0
 3254 1494 FB68     		ldr	r3, [r7, #12]
 3255 1496 12E0     		b	.L125
 3256              	.L128:
 596:../../source/src/kernel/OS_CORE/module.c ****     module->stat = RT_DLMODULE_STAT_INIT;
 3257              		.loc 2 596 0
ARM GAS  G:\Users\Jaxb\AppData\Local\Temp\cc4KUlGg.s 			page 74


 3258 1498 00BF     		nop
 3259              	.L118:
 652:../../source/src/kernel/OS_CORE/module.c **** 
 653:../../source/src/kernel/OS_CORE/module.c **** __exit:
 654:../../source/src/kernel/OS_CORE/module.c ****     ka_printf("6\n");
 3260              		.loc 2 654 0
 3261 149a 1448     		ldr	r0, .L129+36
 3262 149c FFF7FEFF 		bl	ka_printf
 655:../../source/src/kernel/OS_CORE/module.c ****     if (module_ptr) ka_free(module_ptr);
 3263              		.loc 2 655 0
 3264 14a0 7B68     		ldr	r3, [r7, #4]
 3265 14a2 002B     		cmp	r3, #0
 3266 14a4 02D0     		beq	.L126
 3267              		.loc 2 655 0 is_stmt 0 discriminator 1
 3268 14a6 7868     		ldr	r0, [r7, #4]
 3269 14a8 FFF7FEFF 		bl	ka_free
 3270              	.L126:
 656:../../source/src/kernel/OS_CORE/module.c **** 		
 657:../../source/src/kernel/OS_CORE/module.c ****     //if (module) dlmodule_destroy(module);
 658:../../source/src/kernel/OS_CORE/module.c **** 		if(module) {ASSERT(0);}
 3271              		.loc 2 658 0 is_stmt 1
 3272 14ac FB68     		ldr	r3, [r7, #12]
 3273 14ae 002B     		cmp	r3, #0
 3274 14b0 04D0     		beq	.L127
 3275              		.loc 2 658 0 is_stmt 0 discriminator 2
 3276 14b2 40F29221 		movw	r1, #658
 3277 14b6 0E48     		ldr	r0, .L129+40
 3278 14b8 FFF7FEFF 		bl	_ASSERT
 3279              	.L127:
 659:../../source/src/kernel/OS_CORE/module.c **** 		
 660:../../source/src/kernel/OS_CORE/module.c ****     return NULL;
 3280              		.loc 2 660 0 is_stmt 1
 3281 14bc 0023     		movs	r3, #0
 3282              	.L125:
 661:../../source/src/kernel/OS_CORE/module.c **** }
 3283              		.loc 2 661 0
 3284 14be 1846     		mov	r0, r3
 3285 14c0 1037     		adds	r7, r7, #16
 3286              	.LCFI24:
 3287              		.cfi_def_cfa_offset 8
 3288 14c2 BD46     		mov	sp, r7
 3289              	.LCFI25:
 3290              		.cfi_def_cfa_register 13
 3291              		@ sp needed
 3292 14c4 80BD     		pop	{r7, pc}
 3293              	.L130:
 3294 14c6 00BF     		.align	2
 3295              	.L129:
 3296 14c8 00000000 		.word	module_buffer
 3297 14cc A4040000 		.word	.LC47
 3298 14d0 AC040000 		.word	.LC48
 3299 14d4 B4040000 		.word	.LC49
 3300 14d8 CC040000 		.word	.LC50
 3301 14dc E8040000 		.word	.LC51
 3302 14e0 00050000 		.word	.LC52
 3303 14e4 20050000 		.word	.LC53
 3304 14e8 24050000 		.word	.LC54
ARM GAS  G:\Users\Jaxb\AppData\Local\Temp\cc4KUlGg.s 			page 75


 3305 14ec 28050000 		.word	.LC55
 3306 14f0 D8000000 		.word	.LC7
 3307              		.cfi_endproc
 3308              	.LFE13:
 3309              		.size	dlmodule_load, .-dlmodule_load
 3310              		.section	.rodata
 3311 052b 00       		.align	2
 3312              	.LC56:
 3313 052c 6D6F6475 		.ascii	"module_thread\000"
 3313      6C655F74 
 3313      68726561 
 3313      6400
 3314 053a 0000     		.align	2
 3315              	.LC57:
 3316 053c 6D6F6475 		.ascii	"module_thread run\012\000"
 3316      6C655F74 
 3316      68726561 
 3316      64207275 
 3316      6E0A00
 3317 054f 00       		.align	2
 3318              	.LC58:
 3319 0550 6D6F6475 		.ascii	"module_thread fail,error code is %d\012\000"
 3319      6C655F74 
 3319      68726561 
 3319      64206661 
 3319      696C2C65 
 3320              		.text
 3321              		.align	1
 3322              		.global	dlmodule_exec
 3323              		.syntax unified
 3324              		.thumb
 3325              		.thumb_func
 3326              		.fpu softvfp
 3327              		.type	dlmodule_exec, %function
 3328              	dlmodule_exec:
 3329              	.LFB14:
 662:../../source/src/kernel/OS_CORE/module.c **** 
 663:../../source/src/kernel/OS_CORE/module.c **** 
 664:../../source/src/kernel/OS_CORE/module.c **** struct rt_dlmodule* dlmodule_exec(void)
 665:../../source/src/kernel/OS_CORE/module.c **** {
 3330              		.loc 2 665 0
 3331              		.cfi_startproc
 3332              		@ args = 0, pretend = 0, frame = 8
 3333              		@ frame_needed = 1, uses_anonymous_args = 0
 3334 14f4 80B5     		push	{r7, lr}
 3335              	.LCFI26:
 3336              		.cfi_def_cfa_offset 8
 3337              		.cfi_offset 7, -8
 3338              		.cfi_offset 14, -4
 3339 14f6 86B0     		sub	sp, sp, #24
 3340              	.LCFI27:
 3341              		.cfi_def_cfa_offset 32
 3342 14f8 04AF     		add	r7, sp, #16
 3343              	.LCFI28:
 3344              		.cfi_def_cfa 7, 16
 666:../../source/src/kernel/OS_CORE/module.c ****     struct rt_dlmodule *module = NULL;
 3345              		.loc 2 666 0
ARM GAS  G:\Users\Jaxb\AppData\Local\Temp\cc4KUlGg.s 			page 76


 3346 14fa 0023     		movs	r3, #0
 3347 14fc 7B60     		str	r3, [r7, #4]
 667:../../source/src/kernel/OS_CORE/module.c ****     int error;
 668:../../source/src/kernel/OS_CORE/module.c **** 
 669:../../source/src/kernel/OS_CORE/module.c ****     module = dlmodule_load();
 3348              		.loc 2 669 0
 3349 14fe FFF7FEFF 		bl	dlmodule_load
 3350 1502 7860     		str	r0, [r7, #4]
 670:../../source/src/kernel/OS_CORE/module.c ****     if (module)
 3351              		.loc 2 670 0
 3352 1504 7B68     		ldr	r3, [r7, #4]
 3353 1506 002B     		cmp	r3, #0
 3354 1508 36D0     		beq	.L132
 671:../../source/src/kernel/OS_CORE/module.c ****     {
 672:../../source/src/kernel/OS_CORE/module.c ****         if (module->entry_addr)
 3355              		.loc 2 672 0
 3356 150a 7B68     		ldr	r3, [r7, #4]
 3357 150c DB6A     		ldr	r3, [r3, #44]
 3358 150e 002B     		cmp	r3, #0
 3359 1510 32D0     		beq	.L132
 673:../../source/src/kernel/OS_CORE/module.c ****         {
 674:../../source/src/kernel/OS_CORE/module.c **** 
 675:../../source/src/kernel/OS_CORE/module.c ****             /* check stack size and priority */
 676:../../source/src/kernel/OS_CORE/module.c ****             if (module->priority > PRIO_MAX) module->priority = PRIO_MAX - 1;
 3360              		.loc 2 676 0
 3361 1512 7B68     		ldr	r3, [r7, #4]
 3362 1514 5B8B     		ldrh	r3, [r3, #26]
 3363 1516 402B     		cmp	r3, #64
 3364 1518 02D9     		bls	.L133
 3365              		.loc 2 676 0 is_stmt 0 discriminator 1
 3366 151a 7B68     		ldr	r3, [r7, #4]
 3367 151c 3F22     		movs	r2, #63
 3368 151e 5A83     		strh	r2, [r3, #26]	@ movhi
 3369              	.L133:
 677:../../source/src/kernel/OS_CORE/module.c ****             if (module->stack_size < 2048 || module->stack_size > (1024 * 32)) module->stack_size =
 3370              		.loc 2 677 0 is_stmt 1
 3371 1520 7B68     		ldr	r3, [r7, #4]
 3372 1522 DB69     		ldr	r3, [r3, #28]
 3373 1524 B3F5006F 		cmp	r3, #2048
 3374 1528 04D3     		bcc	.L134
 3375              		.loc 2 677 0 is_stmt 0 discriminator 2
 3376 152a 7B68     		ldr	r3, [r7, #4]
 3377 152c DB69     		ldr	r3, [r3, #28]
 3378 152e B3F5004F 		cmp	r3, #32768
 3379 1532 03D9     		bls	.L135
 3380              	.L134:
 3381              		.loc 2 677 0 discriminator 3
 3382 1534 7B68     		ldr	r3, [r7, #4]
 3383 1536 4FF40062 		mov	r2, #2048
 3384 153a DA61     		str	r2, [r3, #28]
 3385              	.L135:
 678:../../source/src/kernel/OS_CORE/module.c **** 
 679:../../source/src/kernel/OS_CORE/module.c ****             error = task_creat_ready(module->stack_size, module->priority, HZ / 10, "module_thread"
 3386              		.loc 2 679 0 is_stmt 1
 3387 153c 7B68     		ldr	r3, [r7, #4]
 3388 153e D869     		ldr	r0, [r3, #28]
 3389 1540 7B68     		ldr	r3, [r7, #4]
ARM GAS  G:\Users\Jaxb\AppData\Local\Temp\cc4KUlGg.s 			page 77


 3390 1542 5B8B     		ldrh	r3, [r3, #26]
 3391 1544 1946     		mov	r1, r3
 680:../../source/src/kernel/OS_CORE/module.c ****                                      (functionptr)(module->entry_addr), NULL, NULL);
 3392              		.loc 2 680 0
 3393 1546 7B68     		ldr	r3, [r7, #4]
 3394 1548 DB6A     		ldr	r3, [r3, #44]
 679:../../source/src/kernel/OS_CORE/module.c ****                                      (functionptr)(module->entry_addr), NULL, NULL);
 3395              		.loc 2 679 0
 3396 154a 0022     		movs	r2, #0
 3397 154c 0292     		str	r2, [sp, #8]
 3398 154e 0022     		movs	r2, #0
 3399 1550 0192     		str	r2, [sp, #4]
 3400 1552 0093     		str	r3, [sp]
 3401 1554 0B4B     		ldr	r3, .L138
 3402 1556 0A22     		movs	r2, #10
 3403 1558 FFF7FEFF 		bl	task_creat_ready
 3404 155c 3860     		str	r0, [r7]
 681:../../source/src/kernel/OS_CORE/module.c ****             if (!error)
 3405              		.loc 2 681 0
 3406 155e 3B68     		ldr	r3, [r7]
 3407 1560 002B     		cmp	r3, #0
 3408 1562 03D1     		bne	.L136
 682:../../source/src/kernel/OS_CORE/module.c ****             {
 683:../../source/src/kernel/OS_CORE/module.c ****                 ka_printf("module_thread run\n");
 3409              		.loc 2 683 0
 3410 1564 0848     		ldr	r0, .L138+4
 3411 1566 FFF7FEFF 		bl	ka_printf
 3412 156a 05E0     		b	.L132
 3413              	.L136:
 684:../../source/src/kernel/OS_CORE/module.c ****             }
 685:../../source/src/kernel/OS_CORE/module.c ****             else
 686:../../source/src/kernel/OS_CORE/module.c ****             {
 687:../../source/src/kernel/OS_CORE/module.c ****                 ka_printf("module_thread fail,error code is %d\n",error);
 3414              		.loc 2 687 0
 3415 156c 3968     		ldr	r1, [r7]
 3416 156e 0748     		ldr	r0, .L138+8
 3417 1570 FFF7FEFF 		bl	ka_printf
 688:../../source/src/kernel/OS_CORE/module.c ****                 module = NULL;
 3418              		.loc 2 688 0
 3419 1574 0023     		movs	r3, #0
 3420 1576 7B60     		str	r3, [r7, #4]
 3421              	.L132:
 689:../../source/src/kernel/OS_CORE/module.c ****             }
 690:../../source/src/kernel/OS_CORE/module.c ****         }
 691:../../source/src/kernel/OS_CORE/module.c ****     }
 692:../../source/src/kernel/OS_CORE/module.c **** 
 693:../../source/src/kernel/OS_CORE/module.c ****     return module;
 3422              		.loc 2 693 0
 3423 1578 7B68     		ldr	r3, [r7, #4]
 694:../../source/src/kernel/OS_CORE/module.c **** }
 3424              		.loc 2 694 0
 3425 157a 1846     		mov	r0, r3
 3426 157c 0837     		adds	r7, r7, #8
 3427              	.LCFI29:
 3428              		.cfi_def_cfa_offset 8
 3429 157e BD46     		mov	sp, r7
 3430              	.LCFI30:
ARM GAS  G:\Users\Jaxb\AppData\Local\Temp\cc4KUlGg.s 			page 78


 3431              		.cfi_def_cfa_register 13
 3432              		@ sp needed
 3433 1580 80BD     		pop	{r7, pc}
 3434              	.L139:
 3435 1582 00BF     		.align	2
 3436              	.L138:
 3437 1584 2C050000 		.word	.LC56
 3438 1588 3C050000 		.word	.LC57
 3439 158c 50050000 		.word	.LC58
 3440              		.cfi_endproc
 3441              	.LFE14:
 3442              		.size	dlmodule_exec, .-dlmodule_exec
 3443              		.section	.rodata
 3444 0575 000000   		.align	2
 3445              	.LC59:
 3446 0578 6E6F2072 		.ascii	"no room for module\012\000"
 3446      6F6F6D20 
 3446      666F7220 
 3446      6D6F6475 
 3446      6C650A00 
 3447              		.text
 3448              		.align	1
 3449              		.global	put_in_module_buffer
 3450              		.syntax unified
 3451              		.thumb
 3452              		.thumb_func
 3453              		.fpu softvfp
 3454              		.type	put_in_module_buffer, %function
 3455              	put_in_module_buffer:
 3456              	.LFB15:
 695:../../source/src/kernel/OS_CORE/module.c **** 
 696:../../source/src/kernel/OS_CORE/module.c **** void put_in_module_buffer(char c)
 697:../../source/src/kernel/OS_CORE/module.c **** {
 3457              		.loc 2 697 0
 3458              		.cfi_startproc
 3459              		@ args = 0, pretend = 0, frame = 8
 3460              		@ frame_needed = 1, uses_anonymous_args = 0
 3461 1590 80B5     		push	{r7, lr}
 3462              	.LCFI31:
 3463              		.cfi_def_cfa_offset 8
 3464              		.cfi_offset 7, -8
 3465              		.cfi_offset 14, -4
 3466 1592 82B0     		sub	sp, sp, #8
 3467              	.LCFI32:
 3468              		.cfi_def_cfa_offset 16
 3469 1594 00AF     		add	r7, sp, #0
 3470              	.LCFI33:
 3471              		.cfi_def_cfa_register 7
 3472 1596 0346     		mov	r3, r0
 3473 1598 FB71     		strb	r3, [r7, #7]
 698:../../source/src/kernel/OS_CORE/module.c **** 	if(module_buffer)
 3474              		.loc 2 698 0
 3475 159a 0B4B     		ldr	r3, .L144
 3476 159c 1B68     		ldr	r3, [r3]
 3477 159e 002B     		cmp	r3, #0
 3478 15a0 0AD0     		beq	.L141
 699:../../source/src/kernel/OS_CORE/module.c **** 	{
ARM GAS  G:\Users\Jaxb\AppData\Local\Temp\cc4KUlGg.s 			page 79


 700:../../source/src/kernel/OS_CORE/module.c **** 		*(module_buffer + num++) = c;
 3479              		.loc 2 700 0
 3480 15a2 094B     		ldr	r3, .L144
 3481 15a4 1A68     		ldr	r2, [r3]
 3482 15a6 094B     		ldr	r3, .L144+4
 3483 15a8 1B68     		ldr	r3, [r3]
 3484 15aa 591C     		adds	r1, r3, #1
 3485 15ac 0748     		ldr	r0, .L144+4
 3486 15ae 0160     		str	r1, [r0]
 3487 15b0 1344     		add	r3, r3, r2
 3488 15b2 FA79     		ldrb	r2, [r7, #7]
 3489 15b4 1A70     		strb	r2, [r3]
 701:../../source/src/kernel/OS_CORE/module.c **** 	}
 702:../../source/src/kernel/OS_CORE/module.c ****     else
 703:../../source/src/kernel/OS_CORE/module.c ****     {
 704:../../source/src/kernel/OS_CORE/module.c ****         ka_printf("no room for module\n");
 705:../../source/src/kernel/OS_CORE/module.c ****     }
 706:../../source/src/kernel/OS_CORE/module.c **** }
 3490              		.loc 2 706 0
 3491 15b6 02E0     		b	.L143
 3492              	.L141:
 704:../../source/src/kernel/OS_CORE/module.c ****     }
 3493              		.loc 2 704 0
 3494 15b8 0548     		ldr	r0, .L144+8
 3495 15ba FFF7FEFF 		bl	ka_printf
 3496              	.L143:
 3497              		.loc 2 706 0
 3498 15be 00BF     		nop
 3499 15c0 0837     		adds	r7, r7, #8
 3500              	.LCFI34:
 3501              		.cfi_def_cfa_offset 8
 3502 15c2 BD46     		mov	sp, r7
 3503              	.LCFI35:
 3504              		.cfi_def_cfa_register 13
 3505              		@ sp needed
 3506 15c4 80BD     		pop	{r7, pc}
 3507              	.L145:
 3508 15c6 00BF     		.align	2
 3509              	.L144:
 3510 15c8 00000000 		.word	module_buffer
 3511 15cc 04000000 		.word	num
 3512 15d0 78050000 		.word	.LC59
 3513              		.cfi_endproc
 3514              	.LFE15:
 3515              		.size	put_in_module_buffer, .-put_in_module_buffer
 3516              		.section	.rodata
 3517              		.align	2
 3518              	.LC60:
 3519 058c 67657420 		.ascii	"get %u bytes\012\000"
 3519      25752062 
 3519      79746573 
 3519      0A00
 3520              		.text
 3521              		.align	1
 3522              		.global	show_get_size
 3523              		.syntax unified
 3524              		.thumb
ARM GAS  G:\Users\Jaxb\AppData\Local\Temp\cc4KUlGg.s 			page 80


 3525              		.thumb_func
 3526              		.fpu softvfp
 3527              		.type	show_get_size, %function
 3528              	show_get_size:
 3529              	.LFB16:
 707:../../source/src/kernel/OS_CORE/module.c **** 
 708:../../source/src/kernel/OS_CORE/module.c **** void show_get_size(void)
 709:../../source/src/kernel/OS_CORE/module.c **** {
 3530              		.loc 2 709 0
 3531              		.cfi_startproc
 3532              		@ args = 0, pretend = 0, frame = 0
 3533              		@ frame_needed = 1, uses_anonymous_args = 0
 3534 15d4 80B5     		push	{r7, lr}
 3535              	.LCFI36:
 3536              		.cfi_def_cfa_offset 8
 3537              		.cfi_offset 7, -8
 3538              		.cfi_offset 14, -4
 3539 15d6 00AF     		add	r7, sp, #0
 3540              	.LCFI37:
 3541              		.cfi_def_cfa_register 7
 710:../../source/src/kernel/OS_CORE/module.c ****     ka_printf("get %u bytes\n",num);
 3542              		.loc 2 710 0
 3543 15d8 034B     		ldr	r3, .L147
 3544 15da 1B68     		ldr	r3, [r3]
 3545 15dc 1946     		mov	r1, r3
 3546 15de 0348     		ldr	r0, .L147+4
 3547 15e0 FFF7FEFF 		bl	ka_printf
 711:../../source/src/kernel/OS_CORE/module.c **** }
 3548              		.loc 2 711 0
 3549 15e4 00BF     		nop
 3550 15e6 80BD     		pop	{r7, pc}
 3551              	.L148:
 3552              		.align	2
 3553              	.L147:
 3554 15e8 04000000 		.word	num
 3555 15ec 8C050000 		.word	.LC60
 3556              		.cfi_endproc
 3557              	.LFE16:
 3558              		.size	show_get_size, .-show_get_size
 3559              		.align	1
 3560              		.global	clear_module_buffer
 3561              		.syntax unified
 3562              		.thumb
 3563              		.thumb_func
 3564              		.fpu softvfp
 3565              		.type	clear_module_buffer, %function
 3566              	clear_module_buffer:
 3567              	.LFB17:
 712:../../source/src/kernel/OS_CORE/module.c **** 
 713:../../source/src/kernel/OS_CORE/module.c **** void clear_module_buffer(void)
 714:../../source/src/kernel/OS_CORE/module.c **** {
 3568              		.loc 2 714 0
 3569              		.cfi_startproc
 3570              		@ args = 0, pretend = 0, frame = 0
 3571              		@ frame_needed = 1, uses_anonymous_args = 0
 3572              		@ link register save eliminated.
 3573 15f0 80B4     		push	{r7}
ARM GAS  G:\Users\Jaxb\AppData\Local\Temp\cc4KUlGg.s 			page 81


 3574              	.LCFI38:
 3575              		.cfi_def_cfa_offset 4
 3576              		.cfi_offset 7, -4
 3577 15f2 00AF     		add	r7, sp, #0
 3578              	.LCFI39:
 3579              		.cfi_def_cfa_register 7
 715:../../source/src/kernel/OS_CORE/module.c **** 	module_buffer = NULL;
 3580              		.loc 2 715 0
 3581 15f4 044B     		ldr	r3, .L150
 3582 15f6 0022     		movs	r2, #0
 3583 15f8 1A60     		str	r2, [r3]
 716:../../source/src/kernel/OS_CORE/module.c **** 	num = 0;
 3584              		.loc 2 716 0
 3585 15fa 044B     		ldr	r3, .L150+4
 3586 15fc 0022     		movs	r2, #0
 3587 15fe 1A60     		str	r2, [r3]
 717:../../source/src/kernel/OS_CORE/module.c **** }
 3588              		.loc 2 717 0
 3589 1600 00BF     		nop
 3590 1602 BD46     		mov	sp, r7
 3591              	.LCFI40:
 3592              		.cfi_def_cfa_register 13
 3593              		@ sp needed
 3594 1604 80BC     		pop	{r7}
 3595              	.LCFI41:
 3596              		.cfi_restore 7
 3597              		.cfi_def_cfa_offset 0
 3598 1606 7047     		bx	lr
 3599              	.L151:
 3600              		.align	2
 3601              	.L150:
 3602 1608 00000000 		.word	module_buffer
 3603 160c 04000000 		.word	num
 3604              		.cfi_endproc
 3605              	.LFE17:
 3606              		.size	clear_module_buffer, .-clear_module_buffer
 3607              		.align	1
 3608              		.global	set_module_buffer
 3609              		.syntax unified
 3610              		.thumb
 3611              		.thumb_func
 3612              		.fpu softvfp
 3613              		.type	set_module_buffer, %function
 3614              	set_module_buffer:
 3615              	.LFB18:
 718:../../source/src/kernel/OS_CORE/module.c **** 
 719:../../source/src/kernel/OS_CORE/module.c **** void set_module_buffer(void *add)
 720:../../source/src/kernel/OS_CORE/module.c **** {
 3616              		.loc 2 720 0
 3617              		.cfi_startproc
 3618              		@ args = 0, pretend = 0, frame = 8
 3619              		@ frame_needed = 1, uses_anonymous_args = 0
 3620              		@ link register save eliminated.
 3621 1610 80B4     		push	{r7}
 3622              	.LCFI42:
 3623              		.cfi_def_cfa_offset 4
 3624              		.cfi_offset 7, -4
ARM GAS  G:\Users\Jaxb\AppData\Local\Temp\cc4KUlGg.s 			page 82


 3625 1612 83B0     		sub	sp, sp, #12
 3626              	.LCFI43:
 3627              		.cfi_def_cfa_offset 16
 3628 1614 00AF     		add	r7, sp, #0
 3629              	.LCFI44:
 3630              		.cfi_def_cfa_register 7
 3631 1616 7860     		str	r0, [r7, #4]
 721:../../source/src/kernel/OS_CORE/module.c **** 	module_buffer = (char *)add;
 3632              		.loc 2 721 0
 3633 1618 034A     		ldr	r2, .L153
 3634 161a 7B68     		ldr	r3, [r7, #4]
 3635 161c 1360     		str	r3, [r2]
 722:../../source/src/kernel/OS_CORE/module.c **** }
 3636              		.loc 2 722 0
 3637 161e 00BF     		nop
 3638 1620 0C37     		adds	r7, r7, #12
 3639              	.LCFI45:
 3640              		.cfi_def_cfa_offset 4
 3641 1622 BD46     		mov	sp, r7
 3642              	.LCFI46:
 3643              		.cfi_def_cfa_register 13
 3644              		@ sp needed
 3645 1624 80BC     		pop	{r7}
 3646              	.LCFI47:
 3647              		.cfi_restore 7
 3648              		.cfi_def_cfa_offset 0
 3649 1626 7047     		bx	lr
 3650              	.L154:
 3651              		.align	2
 3652              	.L153:
 3653 1628 00000000 		.word	module_buffer
 3654              		.cfi_endproc
 3655              	.LFE18:
 3656              		.size	set_module_buffer, .-set_module_buffer
 3657              		.bss
 3658              		.align	2
 3659              	unsolved.4441:
 3660 0008 00000000 		.space	4
 3661              		.size	unsolved.4441, 4
 3662              		.text
 3663              	.Letext0:
 3664              		.file 3 "../../source/include/os_cpu/kakaosstdint.h"
 3665              		.file 4 "../../source/include/os_core/elf.h"
 3666              		.file 5 "../../source/include/os_core/task_state.h"
 3667              		.file 6 "../../source/include/os_core/TCB.h"
 3668              		.file 7 "../../source/include/os_core/module.h"
 3669              		.section	.debug_info,"",%progbits
 3670              	.Ldebug_info0:
 3671 0000 A80C0000 		.4byte	0xca8
 3672 0004 0200     		.2byte	0x2
 3673 0006 00000000 		.4byte	.Ldebug_abbrev0
 3674 000a 04       		.byte	0x4
 3675 000b 01       		.uleb128 0x1
 3676 000c 88040000 		.4byte	.LASF164
 3677 0010 0C       		.byte	0xc
 3678 0011 D9050000 		.4byte	.LASF165
 3679 0015 4C070000 		.4byte	.LASF166
ARM GAS  G:\Users\Jaxb\AppData\Local\Temp\cc4KUlGg.s 			page 83


 3680 0019 00000000 		.4byte	.Ltext0
 3681 001d 2C160000 		.4byte	.Letext0
 3682 0021 00000000 		.4byte	.Ldebug_line0
 3683 0025 02       		.uleb128 0x2
 3684 0026 01       		.byte	0x1
 3685 0027 06       		.byte	0x6
 3686 0028 5D010000 		.4byte	.LASF0
 3687 002c 02       		.uleb128 0x2
 3688 002d 02       		.byte	0x2
 3689 002e 05       		.byte	0x5
 3690 002f 8D050000 		.4byte	.LASF1
 3691 0033 03       		.uleb128 0x3
 3692 0034 E1020000 		.4byte	.LASF3
 3693 0038 03       		.byte	0x3
 3694 0039 07       		.byte	0x7
 3695 003a 3E000000 		.4byte	0x3e
 3696 003e 04       		.uleb128 0x4
 3697 003f 04       		.byte	0x4
 3698 0040 05       		.byte	0x5
 3699 0041 696E7400 		.ascii	"int\000"
 3700 0045 05       		.uleb128 0x5
 3701 0046 3E000000 		.4byte	0x3e
 3702 004a 02       		.uleb128 0x2
 3703 004b 08       		.byte	0x8
 3704 004c 05       		.byte	0x5
 3705 004d 4F010000 		.4byte	.LASF2
 3706 0051 03       		.uleb128 0x3
 3707 0052 46070000 		.4byte	.LASF4
 3708 0056 03       		.byte	0x3
 3709 0057 0A       		.byte	0xa
 3710 0058 5C000000 		.4byte	0x5c
 3711 005c 02       		.uleb128 0x2
 3712 005d 01       		.byte	0x1
 3713 005e 08       		.byte	0x8
 3714 005f 5C050000 		.4byte	.LASF5
 3715 0063 03       		.uleb128 0x3
 3716 0064 1F020000 		.4byte	.LASF6
 3717 0068 03       		.byte	0x3
 3718 0069 0B       		.byte	0xb
 3719 006a 6E000000 		.4byte	0x6e
 3720 006e 02       		.uleb128 0x2
 3721 006f 02       		.byte	0x2
 3722 0070 07       		.byte	0x7
 3723 0071 FF020000 		.4byte	.LASF7
 3724 0075 03       		.uleb128 0x3
 3725 0076 E1030000 		.4byte	.LASF8
 3726 007a 03       		.byte	0x3
 3727 007b 0C       		.byte	0xc
 3728 007c 80000000 		.4byte	0x80
 3729 0080 02       		.uleb128 0x2
 3730 0081 04       		.byte	0x4
 3731 0082 07       		.byte	0x7
 3732 0083 90020000 		.4byte	.LASF9
 3733 0087 03       		.uleb128 0x3
 3734 0088 E6070000 		.4byte	.LASF10
 3735 008c 03       		.byte	0x3
 3736 008d 0D       		.byte	0xd
ARM GAS  G:\Users\Jaxb\AppData\Local\Temp\cc4KUlGg.s 			page 84


 3737 008e 92000000 		.4byte	0x92
 3738 0092 02       		.uleb128 0x2
 3739 0093 08       		.byte	0x8
 3740 0094 07       		.byte	0x7
 3741 0095 CD000000 		.4byte	.LASF11
 3742 0099 03       		.uleb128 0x3
 3743 009a 89060000 		.4byte	.LASF12
 3744 009e 04       		.byte	0x4
 3745 009f 08       		.byte	0x8
 3746 00a0 75000000 		.4byte	0x75
 3747 00a4 03       		.uleb128 0x3
 3748 00a5 26010000 		.4byte	.LASF13
 3749 00a9 04       		.byte	0x4
 3750 00aa 09       		.byte	0x9
 3751 00ab 75000000 		.4byte	0x75
 3752 00af 03       		.uleb128 0x3
 3753 00b0 A4020000 		.4byte	.LASF14
 3754 00b4 04       		.byte	0x4
 3755 00b5 0A       		.byte	0xa
 3756 00b6 33000000 		.4byte	0x33
 3757 00ba 03       		.uleb128 0x3
 3758 00bb 96010000 		.4byte	.LASF15
 3759 00bf 04       		.byte	0x4
 3760 00c0 0B       		.byte	0xb
 3761 00c1 75000000 		.4byte	0x75
 3762 00c5 03       		.uleb128 0x3
 3763 00c6 1B040000 		.4byte	.LASF16
 3764 00ca 04       		.byte	0x4
 3765 00cb 0C       		.byte	0xc
 3766 00cc 63000000 		.4byte	0x63
 3767 00d0 06       		.uleb128 0x6
 3768 00d1 69020000 		.4byte	.LASF43
 3769 00d5 34       		.byte	0x34
 3770 00d6 04       		.byte	0x4
 3771 00d7 33       		.byte	0x33
 3772 00d8 A1010000 		.4byte	0x1a1
 3773 00dc 07       		.uleb128 0x7
 3774 00dd BF050000 		.4byte	.LASF17
 3775 00e1 04       		.byte	0x4
 3776 00e2 35       		.byte	0x35
 3777 00e3 A1010000 		.4byte	0x1a1
 3778 00e7 02       		.byte	0x2
 3779 00e8 23       		.byte	0x23
 3780 00e9 00       		.uleb128 0
 3781 00ea 07       		.uleb128 0x7
 3782 00eb B5000000 		.4byte	.LASF18
 3783 00ef 04       		.byte	0x4
 3784 00f0 36       		.byte	0x36
 3785 00f1 C5000000 		.4byte	0xc5
 3786 00f5 02       		.byte	0x2
 3787 00f6 23       		.byte	0x23
 3788 00f7 10       		.uleb128 0x10
 3789 00f8 07       		.uleb128 0x7
 3790 00f9 53030000 		.4byte	.LASF19
 3791 00fd 04       		.byte	0x4
 3792 00fe 37       		.byte	0x37
 3793 00ff C5000000 		.4byte	0xc5
ARM GAS  G:\Users\Jaxb\AppData\Local\Temp\cc4KUlGg.s 			page 85


 3794 0103 02       		.byte	0x2
 3795 0104 23       		.byte	0x23
 3796 0105 12       		.uleb128 0x12
 3797 0106 07       		.uleb128 0x7
 3798 0107 E8030000 		.4byte	.LASF20
 3799 010b 04       		.byte	0x4
 3800 010c 38       		.byte	0x38
 3801 010d BA000000 		.4byte	0xba
 3802 0111 02       		.byte	0x2
 3803 0112 23       		.byte	0x23
 3804 0113 14       		.uleb128 0x14
 3805 0114 07       		.uleb128 0x7
 3806 0115 A7070000 		.4byte	.LASF21
 3807 0119 04       		.byte	0x4
 3808 011a 39       		.byte	0x39
 3809 011b 99000000 		.4byte	0x99
 3810 011f 02       		.byte	0x2
 3811 0120 23       		.byte	0x23
 3812 0121 18       		.uleb128 0x18
 3813 0122 07       		.uleb128 0x7
 3814 0123 81060000 		.4byte	.LASF22
 3815 0127 04       		.byte	0x4
 3816 0128 3A       		.byte	0x3a
 3817 0129 A4000000 		.4byte	0xa4
 3818 012d 02       		.byte	0x2
 3819 012e 23       		.byte	0x23
 3820 012f 1C       		.uleb128 0x1c
 3821 0130 07       		.uleb128 0x7
 3822 0131 85050000 		.4byte	.LASF23
 3823 0135 04       		.byte	0x4
 3824 0136 3B       		.byte	0x3b
 3825 0137 A4000000 		.4byte	0xa4
 3826 013b 02       		.byte	0x2
 3827 013c 23       		.byte	0x23
 3828 013d 20       		.uleb128 0x20
 3829 013e 07       		.uleb128 0x7
 3830 013f 4F060000 		.4byte	.LASF24
 3831 0143 04       		.byte	0x4
 3832 0144 3C       		.byte	0x3c
 3833 0145 BA000000 		.4byte	0xba
 3834 0149 02       		.byte	0x2
 3835 014a 23       		.byte	0x23
 3836 014b 24       		.uleb128 0x24
 3837 014c 07       		.uleb128 0x7
 3838 014d C2030000 		.4byte	.LASF25
 3839 0151 04       		.byte	0x4
 3840 0152 3D       		.byte	0x3d
 3841 0153 C5000000 		.4byte	0xc5
 3842 0157 02       		.byte	0x2
 3843 0158 23       		.byte	0x23
 3844 0159 28       		.uleb128 0x28
 3845 015a 07       		.uleb128 0x7
 3846 015b C3020000 		.4byte	.LASF26
 3847 015f 04       		.byte	0x4
 3848 0160 3E       		.byte	0x3e
 3849 0161 C5000000 		.4byte	0xc5
 3850 0165 02       		.byte	0x2
ARM GAS  G:\Users\Jaxb\AppData\Local\Temp\cc4KUlGg.s 			page 86


 3851 0166 23       		.byte	0x23
 3852 0167 2A       		.uleb128 0x2a
 3853 0168 07       		.uleb128 0x7
 3854 0169 FB070000 		.4byte	.LASF27
 3855 016d 04       		.byte	0x4
 3856 016e 3F       		.byte	0x3f
 3857 016f C5000000 		.4byte	0xc5
 3858 0173 02       		.byte	0x2
 3859 0174 23       		.byte	0x23
 3860 0175 2C       		.uleb128 0x2c
 3861 0176 07       		.uleb128 0x7
 3862 0177 BC060000 		.4byte	.LASF28
 3863 017b 04       		.byte	0x4
 3864 017c 40       		.byte	0x40
 3865 017d C5000000 		.4byte	0xc5
 3866 0181 02       		.byte	0x2
 3867 0182 23       		.byte	0x23
 3868 0183 2E       		.uleb128 0x2e
 3869 0184 07       		.uleb128 0x7
 3870 0185 00070000 		.4byte	.LASF29
 3871 0189 04       		.byte	0x4
 3872 018a 41       		.byte	0x41
 3873 018b C5000000 		.4byte	0xc5
 3874 018f 02       		.byte	0x2
 3875 0190 23       		.byte	0x23
 3876 0191 30       		.uleb128 0x30
 3877 0192 07       		.uleb128 0x7
 3878 0193 AF010000 		.4byte	.LASF30
 3879 0197 04       		.byte	0x4
 3880 0198 42       		.byte	0x42
 3881 0199 C5000000 		.4byte	0xc5
 3882 019d 02       		.byte	0x2
 3883 019e 23       		.byte	0x23
 3884 019f 32       		.uleb128 0x32
 3885 01a0 00       		.byte	0
 3886 01a1 08       		.uleb128 0x8
 3887 01a2 5C000000 		.4byte	0x5c
 3888 01a6 B1010000 		.4byte	0x1b1
 3889 01aa 09       		.uleb128 0x9
 3890 01ab 80000000 		.4byte	0x80
 3891 01af 0F       		.byte	0xf
 3892 01b0 00       		.byte	0
 3893 01b1 03       		.uleb128 0x3
 3894 01b2 64040000 		.4byte	.LASF31
 3895 01b6 04       		.byte	0x4
 3896 01b7 44       		.byte	0x44
 3897 01b8 D0000000 		.4byte	0xd0
 3898 01bc 0A       		.uleb128 0xa
 3899 01bd 28       		.byte	0x28
 3900 01be 04       		.byte	0x4
 3901 01bf 47       		.byte	0x47
 3902 01c0 51020000 		.4byte	0x251
 3903 01c4 07       		.uleb128 0x7
 3904 01c5 F7020000 		.4byte	.LASF32
 3905 01c9 04       		.byte	0x4
 3906 01ca 49       		.byte	0x49
 3907 01cb BA000000 		.4byte	0xba
ARM GAS  G:\Users\Jaxb\AppData\Local\Temp\cc4KUlGg.s 			page 87


 3908 01cf 02       		.byte	0x2
 3909 01d0 23       		.byte	0x23
 3910 01d1 00       		.uleb128 0
 3911 01d2 07       		.uleb128 0x7
 3912 01d3 A4060000 		.4byte	.LASF33
 3913 01d7 04       		.byte	0x4
 3914 01d8 4B       		.byte	0x4b
 3915 01d9 BA000000 		.4byte	0xba
 3916 01dd 02       		.byte	0x2
 3917 01de 23       		.byte	0x23
 3918 01df 04       		.uleb128 0x4
 3919 01e0 07       		.uleb128 0x7
 3920 01e1 94060000 		.4byte	.LASF34
 3921 01e5 04       		.byte	0x4
 3922 01e6 4C       		.byte	0x4c
 3923 01e7 BA000000 		.4byte	0xba
 3924 01eb 02       		.byte	0x2
 3925 01ec 23       		.byte	0x23
 3926 01ed 08       		.uleb128 0x8
 3927 01ee 07       		.uleb128 0x7
 3928 01ef 0D010000 		.4byte	.LASF35
 3929 01f3 04       		.byte	0x4
 3930 01f4 4D       		.byte	0x4d
 3931 01f5 99000000 		.4byte	0x99
 3932 01f9 02       		.byte	0x2
 3933 01fa 23       		.byte	0x23
 3934 01fb 0C       		.uleb128 0xc
 3935 01fc 07       		.uleb128 0x7
 3936 01fd 2D080000 		.4byte	.LASF36
 3937 0201 04       		.byte	0x4
 3938 0202 4E       		.byte	0x4e
 3939 0203 A4000000 		.4byte	0xa4
 3940 0207 02       		.byte	0x2
 3941 0208 23       		.byte	0x23
 3942 0209 10       		.uleb128 0x10
 3943 020a 07       		.uleb128 0x7
 3944 020b EC000000 		.4byte	.LASF37
 3945 020f 04       		.byte	0x4
 3946 0210 4F       		.byte	0x4f
 3947 0211 BA000000 		.4byte	0xba
 3948 0215 02       		.byte	0x2
 3949 0216 23       		.byte	0x23
 3950 0217 14       		.uleb128 0x14
 3951 0218 07       		.uleb128 0x7
 3952 0219 40020000 		.4byte	.LASF38
 3953 021d 04       		.byte	0x4
 3954 021e 50       		.byte	0x50
 3955 021f BA000000 		.4byte	0xba
 3956 0223 02       		.byte	0x2
 3957 0224 23       		.byte	0x23
 3958 0225 18       		.uleb128 0x18
 3959 0226 07       		.uleb128 0x7
 3960 0227 A3050000 		.4byte	.LASF39
 3961 022b 04       		.byte	0x4
 3962 022c 51       		.byte	0x51
 3963 022d BA000000 		.4byte	0xba
 3964 0231 02       		.byte	0x2
ARM GAS  G:\Users\Jaxb\AppData\Local\Temp\cc4KUlGg.s 			page 88


 3965 0232 23       		.byte	0x23
 3966 0233 1C       		.uleb128 0x1c
 3967 0234 07       		.uleb128 0x7
 3968 0235 25000000 		.4byte	.LASF40
 3969 0239 04       		.byte	0x4
 3970 023a 52       		.byte	0x52
 3971 023b BA000000 		.4byte	0xba
 3972 023f 02       		.byte	0x2
 3973 0240 23       		.byte	0x23
 3974 0241 20       		.uleb128 0x20
 3975 0242 07       		.uleb128 0x7
 3976 0243 2E050000 		.4byte	.LASF41
 3977 0247 04       		.byte	0x4
 3978 0248 53       		.byte	0x53
 3979 0249 BA000000 		.4byte	0xba
 3980 024d 02       		.byte	0x2
 3981 024e 23       		.byte	0x23
 3982 024f 24       		.uleb128 0x24
 3983 0250 00       		.byte	0
 3984 0251 03       		.uleb128 0x3
 3985 0252 90000000 		.4byte	.LASF42
 3986 0256 04       		.byte	0x4
 3987 0257 54       		.byte	0x54
 3988 0258 BC010000 		.4byte	0x1bc
 3989 025c 06       		.uleb128 0x6
 3990 025d AF070000 		.4byte	.LASF44
 3991 0261 10       		.byte	0x10
 3992 0262 04       		.byte	0x4
 3993 0263 6F       		.byte	0x6f
 3994 0264 BD020000 		.4byte	0x2bd
 3995 0268 07       		.uleb128 0x7
 3996 0269 60060000 		.4byte	.LASF45
 3997 026d 04       		.byte	0x4
 3998 026e 71       		.byte	0x71
 3999 026f BA000000 		.4byte	0xba
 4000 0273 02       		.byte	0x2
 4001 0274 23       		.byte	0x23
 4002 0275 00       		.uleb128 0
 4003 0276 07       		.uleb128 0x7
 4004 0277 FD010000 		.4byte	.LASF46
 4005 027b 04       		.byte	0x4
 4006 027c 72       		.byte	0x72
 4007 027d 99000000 		.4byte	0x99
 4008 0281 02       		.byte	0x2
 4009 0282 23       		.byte	0x23
 4010 0283 04       		.uleb128 0x4
 4011 0284 07       		.uleb128 0x7
 4012 0285 71030000 		.4byte	.LASF47
 4013 0289 04       		.byte	0x4
 4014 028a 73       		.byte	0x73
 4015 028b BA000000 		.4byte	0xba
 4016 028f 02       		.byte	0x2
 4017 0290 23       		.byte	0x23
 4018 0291 08       		.uleb128 0x8
 4019 0292 07       		.uleb128 0x7
 4020 0293 7B000000 		.4byte	.LASF48
 4021 0297 04       		.byte	0x4
ARM GAS  G:\Users\Jaxb\AppData\Local\Temp\cc4KUlGg.s 			page 89


 4022 0298 74       		.byte	0x74
 4023 0299 5C000000 		.4byte	0x5c
 4024 029d 02       		.byte	0x2
 4025 029e 23       		.byte	0x23
 4026 029f 0C       		.uleb128 0xc
 4027 02a0 07       		.uleb128 0x7
 4028 02a1 12030000 		.4byte	.LASF49
 4029 02a5 04       		.byte	0x4
 4030 02a6 75       		.byte	0x75
 4031 02a7 5C000000 		.4byte	0x5c
 4032 02ab 02       		.byte	0x2
 4033 02ac 23       		.byte	0x23
 4034 02ad 0D       		.uleb128 0xd
 4035 02ae 07       		.uleb128 0x7
 4036 02af 47000000 		.4byte	.LASF50
 4037 02b3 04       		.byte	0x4
 4038 02b4 76       		.byte	0x76
 4039 02b5 C5000000 		.4byte	0xc5
 4040 02b9 02       		.byte	0x2
 4041 02ba 23       		.byte	0x23
 4042 02bb 0E       		.uleb128 0xe
 4043 02bc 00       		.byte	0
 4044 02bd 03       		.uleb128 0x3
 4045 02be B9070000 		.4byte	.LASF51
 4046 02c2 04       		.byte	0x4
 4047 02c3 77       		.byte	0x77
 4048 02c4 5C020000 		.4byte	0x25c
 4049 02c8 0A       		.uleb128 0xa
 4050 02c9 08       		.byte	0x8
 4051 02ca 04       		.byte	0x4
 4052 02cb 95       		.byte	0x95
 4053 02cc ED020000 		.4byte	0x2ed
 4054 02d0 07       		.uleb128 0x7
 4055 02d1 0D080000 		.4byte	.LASF52
 4056 02d5 04       		.byte	0x4
 4057 02d6 97       		.byte	0x97
 4058 02d7 99000000 		.4byte	0x99
 4059 02db 02       		.byte	0x2
 4060 02dc 23       		.byte	0x23
 4061 02dd 00       		.uleb128 0
 4062 02de 07       		.uleb128 0x7
 4063 02df 9D060000 		.4byte	.LASF53
 4064 02e3 04       		.byte	0x4
 4065 02e4 98       		.byte	0x98
 4066 02e5 BA000000 		.4byte	0xba
 4067 02e9 02       		.byte	0x2
 4068 02ea 23       		.byte	0x23
 4069 02eb 04       		.uleb128 0x4
 4070 02ec 00       		.byte	0
 4071 02ed 03       		.uleb128 0x3
 4072 02ee 5D030000 		.4byte	.LASF54
 4073 02f2 04       		.byte	0x4
 4074 02f3 99       		.byte	0x99
 4075 02f4 C8020000 		.4byte	0x2c8
 4076 02f8 0A       		.uleb128 0xa
 4077 02f9 20       		.byte	0x20
 4078 02fa 04       		.byte	0x4
ARM GAS  G:\Users\Jaxb\AppData\Local\Temp\cc4KUlGg.s 			page 90


 4079 02fb BB       		.byte	0xbb
 4080 02fc 71030000 		.4byte	0x371
 4081 0300 07       		.uleb128 0x7
 4082 0301 9D020000 		.4byte	.LASF55
 4083 0305 04       		.byte	0x4
 4084 0306 BD       		.byte	0xbd
 4085 0307 BA000000 		.4byte	0xba
 4086 030b 02       		.byte	0x2
 4087 030c 23       		.byte	0x23
 4088 030d 00       		.uleb128 0
 4089 030e 07       		.uleb128 0x7
 4090 030f F2030000 		.4byte	.LASF56
 4091 0313 04       		.byte	0x4
 4092 0314 BE       		.byte	0xbe
 4093 0315 A4000000 		.4byte	0xa4
 4094 0319 02       		.byte	0x2
 4095 031a 23       		.byte	0x23
 4096 031b 04       		.uleb128 0x4
 4097 031c 07       		.uleb128 0x7
 4098 031d 3F000000 		.4byte	.LASF57
 4099 0321 04       		.byte	0x4
 4100 0322 BF       		.byte	0xbf
 4101 0323 99000000 		.4byte	0x99
 4102 0327 02       		.byte	0x2
 4103 0328 23       		.byte	0x23
 4104 0329 08       		.uleb128 0x8
 4105 032a 07       		.uleb128 0x7
 4106 032b 0B020000 		.4byte	.LASF58
 4107 032f 04       		.byte	0x4
 4108 0330 C0       		.byte	0xc0
 4109 0331 99000000 		.4byte	0x99
 4110 0335 02       		.byte	0x2
 4111 0336 23       		.byte	0x23
 4112 0337 0C       		.uleb128 0xc
 4113 0338 07       		.uleb128 0x7
 4114 0339 76010000 		.4byte	.LASF59
 4115 033d 04       		.byte	0x4
 4116 033e C1       		.byte	0xc1
 4117 033f BA000000 		.4byte	0xba
 4118 0343 02       		.byte	0x2
 4119 0344 23       		.byte	0x23
 4120 0345 10       		.uleb128 0x10
 4121 0346 07       		.uleb128 0x7
 4122 0347 2F020000 		.4byte	.LASF60
 4123 034b 04       		.byte	0x4
 4124 034c C2       		.byte	0xc2
 4125 034d BA000000 		.4byte	0xba
 4126 0351 02       		.byte	0x2
 4127 0352 23       		.byte	0x23
 4128 0353 14       		.uleb128 0x14
 4129 0354 07       		.uleb128 0x7
 4130 0355 B7050000 		.4byte	.LASF61
 4131 0359 04       		.byte	0x4
 4132 035a C3       		.byte	0xc3
 4133 035b BA000000 		.4byte	0xba
 4134 035f 02       		.byte	0x2
 4135 0360 23       		.byte	0x23
ARM GAS  G:\Users\Jaxb\AppData\Local\Temp\cc4KUlGg.s 			page 91


 4136 0361 18       		.uleb128 0x18
 4137 0362 07       		.uleb128 0x7
 4138 0363 E4000000 		.4byte	.LASF62
 4139 0367 04       		.byte	0x4
 4140 0368 C4       		.byte	0xc4
 4141 0369 BA000000 		.4byte	0xba
 4142 036d 02       		.byte	0x2
 4143 036e 23       		.byte	0x23
 4144 036f 1C       		.uleb128 0x1c
 4145 0370 00       		.byte	0
 4146 0371 03       		.uleb128 0x3
 4147 0372 1B030000 		.4byte	.LASF63
 4148 0376 04       		.byte	0x4
 4149 0377 C5       		.byte	0xc5
 4150 0378 F8020000 		.4byte	0x2f8
 4151 037c 06       		.uleb128 0x6
 4152 037d AC060000 		.4byte	.LASF64
 4153 0381 08       		.byte	0x8
 4154 0382 01       		.byte	0x1
 4155 0383 04       		.byte	0x4
 4156 0384 A5030000 		.4byte	0x3a5
 4157 0388 07       		.uleb128 0x7
 4158 0389 30010000 		.4byte	.LASF65
 4159 038d 01       		.byte	0x1
 4160 038e 05       		.byte	0x5
 4161 038f A5030000 		.4byte	0x3a5
 4162 0393 02       		.byte	0x2
 4163 0394 23       		.byte	0x23
 4164 0395 00       		.uleb128 0
 4165 0396 07       		.uleb128 0x7
 4166 0397 8B000000 		.4byte	.LASF66
 4167 039b 01       		.byte	0x1
 4168 039c 05       		.byte	0x5
 4169 039d A5030000 		.4byte	0x3a5
 4170 03a1 02       		.byte	0x2
 4171 03a2 23       		.byte	0x23
 4172 03a3 04       		.uleb128 0x4
 4173 03a4 00       		.byte	0
 4174 03a5 0B       		.uleb128 0xb
 4175 03a6 04       		.byte	0x4
 4176 03a7 7C030000 		.4byte	0x37c
 4177 03ab 0C       		.uleb128 0xc
 4178 03ac 93030000 		.4byte	.LASF167
 4179 03b0 07       		.byte	0x7
 4180 03b1 01       		.byte	0x1
 4181 03b2 5C000000 		.4byte	0x5c
 4182 03b6 05       		.byte	0x5
 4183 03b7 04       		.byte	0x4
 4184 03b8 F9030000 		.4byte	0x3f9
 4185 03bc 0D       		.uleb128 0xd
 4186 03bd D5030000 		.4byte	.LASF67
 4187 03c1 01       		.byte	0x1
 4188 03c2 0D       		.uleb128 0xd
 4189 03c3 B0020000 		.4byte	.LASF68
 4190 03c7 02       		.byte	0x2
 4191 03c8 0D       		.uleb128 0xd
 4192 03c9 31070000 		.4byte	.LASF69
ARM GAS  G:\Users\Jaxb\AppData\Local\Temp\cc4KUlGg.s 			page 92


 4193 03cd 03       		.byte	0x3
 4194 03ce 0D       		.uleb128 0xd
 4195 03cf 31040000 		.4byte	.LASF70
 4196 03d3 04       		.byte	0x4
 4197 03d4 0D       		.uleb128 0xd
 4198 03d5 5C080000 		.4byte	.LASF71
 4199 03d9 05       		.byte	0x5
 4200 03da 0D       		.uleb128 0xd
 4201 03db 7A070000 		.4byte	.LASF72
 4202 03df 06       		.byte	0x6
 4203 03e0 0D       		.uleb128 0xd
 4204 03e1 48020000 		.4byte	.LASF73
 4205 03e5 07       		.byte	0x7
 4206 03e6 0D       		.uleb128 0xd
 4207 03e7 70020000 		.4byte	.LASF74
 4208 03eb 08       		.byte	0x8
 4209 03ec 0D       		.uleb128 0xd
 4210 03ed 2F060000 		.4byte	.LASF75
 4211 03f1 09       		.byte	0x9
 4212 03f2 0D       		.uleb128 0xd
 4213 03f3 6F040000 		.4byte	.LASF76
 4214 03f7 0A       		.byte	0xa
 4215 03f8 00       		.byte	0
 4216 03f9 03       		.uleb128 0x3
 4217 03fa 1B010000 		.4byte	.LASF77
 4218 03fe 05       		.byte	0x5
 4219 03ff 0F       		.byte	0xf
 4220 0400 AB030000 		.4byte	0x3ab
 4221 0404 03       		.uleb128 0x3
 4222 0405 E3060000 		.4byte	.LASF78
 4223 0409 06       		.byte	0x6
 4224 040a 09       		.byte	0x9
 4225 040b 80000000 		.4byte	0x80
 4226 040f 03       		.uleb128 0x3
 4227 0410 50000000 		.4byte	.LASF79
 4228 0414 06       		.byte	0x6
 4229 0415 0B       		.byte	0xb
 4230 0416 80000000 		.4byte	0x80
 4231 041a 03       		.uleb128 0x3
 4232 041b 97050000 		.4byte	.LASF80
 4233 041f 06       		.byte	0x6
 4234 0420 0C       		.byte	0xc
 4235 0421 25040000 		.4byte	0x425
 4236 0425 0B       		.uleb128 0xb
 4237 0426 04       		.byte	0x4
 4238 0427 2B040000 		.4byte	0x42b
 4239 042b 0E       		.uleb128 0xe
 4240 042c 01       		.byte	0x1
 4241 042d 37040000 		.4byte	0x437
 4242 0431 0F       		.uleb128 0xf
 4243 0432 37040000 		.4byte	0x437
 4244 0436 00       		.byte	0
 4245 0437 10       		.uleb128 0x10
 4246 0438 04       		.byte	0x4
 4247 0439 11       		.uleb128 0x11
 4248 043a 39050000 		.4byte	.LASF168
 4249 043e 06       		.byte	0x6
ARM GAS  G:\Users\Jaxb\AppData\Local\Temp\cc4KUlGg.s 			page 93


 4250 043f 12       		.byte	0x12
 4251 0440 45000000 		.4byte	0x45
 4252 0444 01       		.byte	0x1
 4253 0445 01       		.byte	0x1
 4254 0446 06       		.uleb128 0x6
 4255 0447 35010000 		.4byte	.LASF81
 4256 044b 48       		.byte	0x48
 4257 044c 06       		.byte	0x6
 4258 044d 2F       		.byte	0x2f
 4259 044e 17050000 		.4byte	0x517
 4260 0452 07       		.uleb128 0x7
 4261 0453 02060000 		.4byte	.LASF82
 4262 0457 06       		.byte	0x6
 4263 0458 30       		.byte	0x30
 4264 0459 17050000 		.4byte	0x517
 4265 045d 02       		.byte	0x2
 4266 045e 23       		.byte	0x23
 4267 045f 00       		.uleb128 0
 4268 0460 07       		.uleb128 0x7
 4269 0461 C3070000 		.4byte	.LASF83
 4270 0465 06       		.byte	0x6
 4271 0466 31       		.byte	0x31
 4272 0467 80000000 		.4byte	0x80
 4273 046b 02       		.byte	0x2
 4274 046c 23       		.byte	0x23
 4275 046d 04       		.uleb128 0x4
 4276 046e 07       		.uleb128 0x7
 4277 046f 54040000 		.4byte	.LASF84
 4278 0473 06       		.byte	0x6
 4279 0474 32       		.byte	0x32
 4280 0475 17050000 		.4byte	0x517
 4281 0479 02       		.byte	0x2
 4282 047a 23       		.byte	0x23
 4283 047b 08       		.uleb128 0x8
 4284 047c 07       		.uleb128 0x7
 4285 047d 16040000 		.4byte	.LASF85
 4286 0481 06       		.byte	0x6
 4287 0482 33       		.byte	0x33
 4288 0483 0F040000 		.4byte	0x40f
 4289 0487 02       		.byte	0x2
 4290 0488 23       		.byte	0x23
 4291 0489 0C       		.uleb128 0xc
 4292 048a 07       		.uleb128 0x7
 4293 048b 69010000 		.4byte	.LASF86
 4294 048f 06       		.byte	0x6
 4295 0490 34       		.byte	0x34
 4296 0491 0F040000 		.4byte	0x40f
 4297 0495 02       		.byte	0x2
 4298 0496 23       		.byte	0x23
 4299 0497 10       		.uleb128 0x10
 4300 0498 07       		.uleb128 0x7
 4301 0499 EE060000 		.4byte	.LASF87
 4302 049d 06       		.byte	0x6
 4303 049e 35       		.byte	0x35
 4304 049f F9030000 		.4byte	0x3f9
 4305 04a3 02       		.byte	0x2
 4306 04a4 23       		.byte	0x23
ARM GAS  G:\Users\Jaxb\AppData\Local\Temp\cc4KUlGg.s 			page 94


 4307 04a5 14       		.uleb128 0x14
 4308 04a6 07       		.uleb128 0x7
 4309 04a7 73080000 		.4byte	.LASF88
 4310 04ab 06       		.byte	0x6
 4311 04ac 36       		.byte	0x36
 4312 04ad 3E000000 		.4byte	0x3e
 4313 04b1 02       		.byte	0x2
 4314 04b2 23       		.byte	0x23
 4315 04b3 18       		.uleb128 0x18
 4316 04b4 07       		.uleb128 0x7
 4317 04b5 EE010000 		.4byte	.LASF89
 4318 04b9 06       		.byte	0x6
 4319 04ba 37       		.byte	0x37
 4320 04bb 7C030000 		.4byte	0x37c
 4321 04bf 02       		.byte	0x2
 4322 04c0 23       		.byte	0x23
 4323 04c1 1C       		.uleb128 0x1c
 4324 04c2 07       		.uleb128 0x7
 4325 04c3 32000000 		.4byte	.LASF90
 4326 04c7 06       		.byte	0x6
 4327 04c8 38       		.byte	0x38
 4328 04c9 7C030000 		.4byte	0x37c
 4329 04cd 02       		.byte	0x2
 4330 04ce 23       		.byte	0x23
 4331 04cf 24       		.uleb128 0x24
 4332 04d0 07       		.uleb128 0x7
 4333 04d1 E7020000 		.4byte	.LASF91
 4334 04d5 06       		.byte	0x6
 4335 04d6 39       		.byte	0x39
 4336 04d7 1D050000 		.4byte	0x51d
 4337 04db 02       		.byte	0x2
 4338 04dc 23       		.byte	0x23
 4339 04dd 2C       		.uleb128 0x2c
 4340 04de 07       		.uleb128 0x7
 4341 04df 6D060000 		.4byte	.LASF92
 4342 04e3 06       		.byte	0x6
 4343 04e4 3A       		.byte	0x3a
 4344 04e5 80000000 		.4byte	0x80
 4345 04e9 02       		.byte	0x2
 4346 04ea 23       		.byte	0x23
 4347 04eb 30       		.uleb128 0x30
 4348 04ec 07       		.uleb128 0x7
 4349 04ed FB030000 		.4byte	.LASF93
 4350 04f1 06       		.byte	0x6
 4351 04f2 3B       		.byte	0x3b
 4352 04f3 80000000 		.4byte	0x80
 4353 04f7 02       		.byte	0x2
 4354 04f8 23       		.byte	0x23
 4355 04f9 34       		.uleb128 0x34
 4356 04fa 07       		.uleb128 0x7
 4357 04fb A9000000 		.4byte	.LASF94
 4358 04ff 06       		.byte	0x6
 4359 0500 3C       		.byte	0x3c
 4360 0501 75000000 		.4byte	0x75
 4361 0505 02       		.byte	0x2
 4362 0506 23       		.byte	0x23
 4363 0507 38       		.uleb128 0x38
ARM GAS  G:\Users\Jaxb\AppData\Local\Temp\cc4KUlGg.s 			page 95


 4364 0508 07       		.uleb128 0x7
 4365 0509 C8060000 		.4byte	.LASF95
 4366 050d 06       		.byte	0x6
 4367 050e 3D       		.byte	0x3d
 4368 050f 87000000 		.4byte	0x87
 4369 0513 02       		.byte	0x2
 4370 0514 23       		.byte	0x23
 4371 0515 40       		.uleb128 0x40
 4372 0516 00       		.byte	0
 4373 0517 0B       		.uleb128 0xb
 4374 0518 04       		.byte	0x4
 4375 0519 04040000 		.4byte	0x404
 4376 051d 0B       		.uleb128 0xb
 4377 051e 04       		.byte	0x4
 4378 051f 23050000 		.4byte	0x523
 4379 0523 02       		.uleb128 0x2
 4380 0524 01       		.byte	0x1
 4381 0525 08       		.byte	0x8
 4382 0526 68060000 		.4byte	.LASF96
 4383 052a 12       		.uleb128 0x12
 4384 052b 23050000 		.4byte	0x523
 4385 052f 13       		.uleb128 0x13
 4386 0530 54434200 		.ascii	"TCB\000"
 4387 0534 06       		.byte	0x6
 4388 0535 3E       		.byte	0x3e
 4389 0536 46040000 		.4byte	0x446
 4390 053a 03       		.uleb128 0x3
 4391 053b 20070000 		.4byte	.LASF97
 4392 053f 07       		.byte	0x7
 4393 0540 0D       		.byte	0xd
 4394 0541 3E000000 		.4byte	0x3e
 4395 0545 03       		.uleb128 0x3
 4396 0546 9E030000 		.4byte	.LASF98
 4397 054a 07       		.byte	0x7
 4398 054b 12       		.byte	0x12
 4399 054c 37040000 		.4byte	0x437
 4400 0550 06       		.uleb128 0x6
 4401 0551 BC000000 		.4byte	.LASF99
 4402 0555 08       		.byte	0x8
 4403 0556 07       		.byte	0x7
 4404 0557 14       		.byte	0x14
 4405 0558 79050000 		.4byte	0x579
 4406 055c 07       		.uleb128 0x7
 4407 055d F4000000 		.4byte	.LASF100
 4408 0561 07       		.byte	0x7
 4409 0562 16       		.byte	0x16
 4410 0563 37040000 		.4byte	0x437
 4411 0567 02       		.byte	0x2
 4412 0568 23       		.byte	0x23
 4413 0569 00       		.uleb128 0
 4414 056a 07       		.uleb128 0x7
 4415 056b E7020000 		.4byte	.LASF91
 4416 056f 07       		.byte	0x7
 4417 0570 17       		.byte	0x17
 4418 0571 79050000 		.4byte	0x579
 4419 0575 02       		.byte	0x2
 4420 0576 23       		.byte	0x23
ARM GAS  G:\Users\Jaxb\AppData\Local\Temp\cc4KUlGg.s 			page 96


 4421 0577 04       		.uleb128 0x4
 4422 0578 00       		.byte	0
 4423 0579 0B       		.uleb128 0xb
 4424 057a 04       		.byte	0x4
 4425 057b 2A050000 		.4byte	0x52a
 4426 057f 06       		.uleb128 0x6
 4427 0580 D9060000 		.4byte	.LASF101
 4428 0584 10       		.byte	0x10
 4429 0585 07       		.byte	0x7
 4430 0586 1C       		.byte	0x1c
 4431 0587 C4050000 		.4byte	0x5c4
 4432 058b 07       		.uleb128 0x7
 4433 058c E7020000 		.4byte	.LASF91
 4434 0590 07       		.byte	0x7
 4435 0591 1E       		.byte	0x1e
 4436 0592 C4050000 		.4byte	0x5c4
 4437 0596 02       		.byte	0x2
 4438 0597 23       		.byte	0x23
 4439 0598 00       		.uleb128 0
 4440 0599 07       		.uleb128 0x7
 4441 059a 9B000000 		.4byte	.LASF102
 4442 059e 07       		.byte	0x7
 4443 059f 1F       		.byte	0x1f
 4444 05a0 51000000 		.4byte	0x51
 4445 05a4 02       		.byte	0x2
 4446 05a5 23       		.byte	0x23
 4447 05a6 0A       		.uleb128 0xa
 4448 05a7 07       		.uleb128 0x7
 4449 05a8 B2050000 		.4byte	.LASF103
 4450 05ac 07       		.byte	0x7
 4451 05ad 20       		.byte	0x20
 4452 05ae 51000000 		.4byte	0x51
 4453 05b2 02       		.byte	0x2
 4454 05b3 23       		.byte	0x23
 4455 05b4 0B       		.uleb128 0xb
 4456 05b5 07       		.uleb128 0x7
 4457 05b6 03080000 		.4byte	.LASF104
 4458 05ba 07       		.byte	0x7
 4459 05bb 21       		.byte	0x21
 4460 05bc 37040000 		.4byte	0x437
 4461 05c0 02       		.byte	0x2
 4462 05c1 23       		.byte	0x23
 4463 05c2 0C       		.uleb128 0xc
 4464 05c3 00       		.byte	0
 4465 05c4 08       		.uleb128 0x8
 4466 05c5 23050000 		.4byte	0x523
 4467 05c9 D4050000 		.4byte	0x5d4
 4468 05cd 09       		.uleb128 0x9
 4469 05ce 80000000 		.4byte	0x80
 4470 05d2 09       		.byte	0x9
 4471 05d3 00       		.byte	0
 4472 05d4 03       		.uleb128 0x3
 4473 05d5 08060000 		.4byte	.LASF105
 4474 05d9 07       		.byte	0x7
 4475 05da 24       		.byte	0x24
 4476 05db DF050000 		.4byte	0x5df
 4477 05df 0B       		.uleb128 0xb
ARM GAS  G:\Users\Jaxb\AppData\Local\Temp\cc4KUlGg.s 			page 97


 4478 05e0 04       		.byte	0x4
 4479 05e1 E5050000 		.4byte	0x5e5
 4480 05e5 14       		.uleb128 0x14
 4481 05e6 01       		.byte	0x1
 4482 05e7 3E000000 		.4byte	0x3e
 4483 05eb FA050000 		.4byte	0x5fa
 4484 05ef 0F       		.uleb128 0xf
 4485 05f0 3E000000 		.4byte	0x3e
 4486 05f4 0F       		.uleb128 0xf
 4487 05f5 FA050000 		.4byte	0x5fa
 4488 05f9 00       		.byte	0
 4489 05fa 0B       		.uleb128 0xb
 4490 05fb 04       		.byte	0x4
 4491 05fc 1D050000 		.4byte	0x51d
 4492 0600 03       		.uleb128 0x3
 4493 0601 08070000 		.4byte	.LASF106
 4494 0605 07       		.byte	0x7
 4495 0606 25       		.byte	0x25
 4496 0607 0B060000 		.4byte	0x60b
 4497 060b 0B       		.uleb128 0xb
 4498 060c 04       		.byte	0x4
 4499 060d 11060000 		.4byte	0x611
 4500 0611 0E       		.uleb128 0xe
 4501 0612 01       		.byte	0x1
 4502 0613 1D060000 		.4byte	0x61d
 4503 0617 0F       		.uleb128 0xf
 4504 0618 1D060000 		.4byte	0x61d
 4505 061c 00       		.byte	0
 4506 061d 0B       		.uleb128 0xb
 4507 061e 04       		.byte	0x4
 4508 061f 23060000 		.4byte	0x623
 4509 0623 06       		.uleb128 0x6
 4510 0624 BA010000 		.4byte	.LASF107
 4511 0628 4C       		.byte	0x4c
 4512 0629 07       		.byte	0x7
 4513 062a 28       		.byte	0x28
 4514 062b 1E070000 		.4byte	0x71e
 4515 062f 07       		.uleb128 0x7
 4516 0630 A8010000 		.4byte	.LASF108
 4517 0634 07       		.byte	0x7
 4518 0635 2A       		.byte	0x2a
 4519 0636 7F050000 		.4byte	0x57f
 4520 063a 02       		.byte	0x2
 4521 063b 23       		.byte	0x23
 4522 063c 00       		.uleb128 0
 4523 063d 07       		.uleb128 0x7
 4524 063e 39030000 		.4byte	.LASF109
 4525 0642 07       		.byte	0x7
 4526 0643 2B       		.byte	0x2b
 4527 0644 7C030000 		.4byte	0x37c
 4528 0648 02       		.byte	0x2
 4529 0649 23       		.byte	0x23
 4530 064a 10       		.uleb128 0x10
 4531 064b 07       		.uleb128 0x7
 4532 064c 69000000 		.4byte	.LASF110
 4533 0650 07       		.byte	0x7
 4534 0651 2D       		.byte	0x2d
ARM GAS  G:\Users\Jaxb\AppData\Local\Temp\cc4KUlGg.s 			page 98


 4535 0652 51000000 		.4byte	0x51
 4536 0656 02       		.byte	0x2
 4537 0657 23       		.byte	0x23
 4538 0658 18       		.uleb128 0x18
 4539 0659 07       		.uleb128 0x7
 4540 065a 30030000 		.4byte	.LASF111
 4541 065e 07       		.byte	0x7
 4542 065f 30       		.byte	0x30
 4543 0660 63000000 		.4byte	0x63
 4544 0664 02       		.byte	0x2
 4545 0665 23       		.byte	0x23
 4546 0666 1A       		.uleb128 0x1a
 4547 0667 07       		.uleb128 0x7
 4548 0668 C3070000 		.4byte	.LASF83
 4549 066c 07       		.byte	0x7
 4550 066d 31       		.byte	0x31
 4551 066e 75000000 		.4byte	0x75
 4552 0672 02       		.byte	0x2
 4553 0673 23       		.byte	0x23
 4554 0674 1C       		.uleb128 0x1c
 4555 0675 07       		.uleb128 0x7
 4556 0676 13020000 		.4byte	.LASF112
 4557 067a 07       		.byte	0x7
 4558 067b 32       		.byte	0x32
 4559 067c 29070000 		.4byte	0x729
 4560 0680 02       		.byte	0x2
 4561 0681 23       		.byte	0x23
 4562 0682 20       		.uleb128 0x20
 4563 0683 07       		.uleb128 0x7
 4564 0684 57060000 		.4byte	.LASF113
 4565 0688 07       		.byte	0x7
 4566 0689 34       		.byte	0x34
 4567 068a 3E000000 		.4byte	0x3e
 4568 068e 02       		.byte	0x2
 4569 068f 23       		.byte	0x23
 4570 0690 24       		.uleb128 0x24
 4571 0691 07       		.uleb128 0x7
 4572 0692 B6030000 		.4byte	.LASF114
 4573 0696 07       		.byte	0x7
 4574 0697 37       		.byte	0x37
 4575 0698 75000000 		.4byte	0x75
 4576 069c 02       		.byte	0x2
 4577 069d 23       		.byte	0x23
 4578 069e 28       		.uleb128 0x28
 4579 069f 07       		.uleb128 0x7
 4580 06a0 EC020000 		.4byte	.LASF115
 4581 06a4 07       		.byte	0x7
 4582 06a5 3A       		.byte	0x3a
 4583 06a6 D4050000 		.4byte	0x5d4
 4584 06aa 02       		.byte	0x2
 4585 06ab 23       		.byte	0x23
 4586 06ac 2C       		.uleb128 0x2c
 4587 06ad 07       		.uleb128 0x7
 4588 06ae DD070000 		.4byte	.LASF116
 4589 06b2 07       		.byte	0x7
 4590 06b3 3B       		.byte	0x3b
 4591 06b4 1D050000 		.4byte	0x51d
ARM GAS  G:\Users\Jaxb\AppData\Local\Temp\cc4KUlGg.s 			page 99


 4592 06b8 02       		.byte	0x2
 4593 06b9 23       		.byte	0x23
 4594 06ba 30       		.uleb128 0x30
 4595 06bb 07       		.uleb128 0x7
 4596 06bc 26030000 		.4byte	.LASF117
 4597 06c0 07       		.byte	0x7
 4598 06c1 3D       		.byte	0x3d
 4599 06c2 45050000 		.4byte	0x545
 4600 06c6 02       		.byte	0x2
 4601 06c7 23       		.byte	0x23
 4602 06c8 34       		.uleb128 0x34
 4603 06c9 07       		.uleb128 0x7
 4604 06ca 21060000 		.4byte	.LASF118
 4605 06ce 07       		.byte	0x7
 4606 06cf 3E       		.byte	0x3e
 4607 06d0 75000000 		.4byte	0x75
 4608 06d4 02       		.byte	0x2
 4609 06d5 23       		.byte	0x23
 4610 06d6 38       		.uleb128 0x38
 4611 06d7 07       		.uleb128 0x7
 4612 06d8 5F000000 		.4byte	.LASF119
 4613 06dc 07       		.byte	0x7
 4614 06dd 41       		.byte	0x41
 4615 06de 00060000 		.4byte	0x600
 4616 06e2 02       		.byte	0x2
 4617 06e3 23       		.byte	0x23
 4618 06e4 3C       		.uleb128 0x3c
 4619 06e5 07       		.uleb128 0x7
 4620 06e6 00010000 		.4byte	.LASF120
 4621 06ea 07       		.byte	0x7
 4622 06eb 42       		.byte	0x42
 4623 06ec 1E070000 		.4byte	0x71e
 4624 06f0 02       		.byte	0x2
 4625 06f1 23       		.byte	0x23
 4626 06f2 40       		.uleb128 0x40
 4627 06f3 07       		.uleb128 0x7
 4628 06f4 06020000 		.4byte	.LASF121
 4629 06f8 07       		.byte	0x7
 4630 06f9 44       		.byte	0x44
 4631 06fa 63000000 		.4byte	0x63
 4632 06fe 02       		.byte	0x2
 4633 06ff 23       		.byte	0x23
 4634 0700 44       		.uleb128 0x44
 4635 0701 07       		.uleb128 0x7
 4636 0702 2A060000 		.4byte	.LASF122
 4637 0706 07       		.byte	0x7
 4638 0707 46       		.byte	0x46
 4639 0708 63000000 		.4byte	0x63
 4640 070c 02       		.byte	0x2
 4641 070d 23       		.byte	0x23
 4642 070e 46       		.uleb128 0x46
 4643 070f 07       		.uleb128 0x7
 4644 0710 6E000000 		.4byte	.LASF123
 4645 0714 07       		.byte	0x7
 4646 0715 47       		.byte	0x47
 4647 0716 2F070000 		.4byte	0x72f
 4648 071a 02       		.byte	0x2
ARM GAS  G:\Users\Jaxb\AppData\Local\Temp\cc4KUlGg.s 			page 100


 4649 071b 23       		.byte	0x23
 4650 071c 48       		.uleb128 0x48
 4651 071d 00       		.byte	0
 4652 071e 03       		.uleb128 0x3
 4653 071f 6A050000 		.4byte	.LASF124
 4654 0723 07       		.byte	0x7
 4655 0724 26       		.byte	0x26
 4656 0725 0B060000 		.4byte	0x60b
 4657 0729 0B       		.uleb128 0xb
 4658 072a 04       		.byte	0x4
 4659 072b 2F050000 		.4byte	0x52f
 4660 072f 0B       		.uleb128 0xb
 4661 0730 04       		.byte	0x4
 4662 0731 50050000 		.4byte	0x550
 4663 0735 03       		.uleb128 0x3
 4664 0736 53050000 		.4byte	.LASF125
 4665 073a 02       		.byte	0x2
 4666 073b 18       		.byte	0x18
 4667 073c 40070000 		.4byte	0x740
 4668 0740 02       		.uleb128 0x2
 4669 0741 04       		.byte	0x4
 4670 0742 05       		.byte	0x5
 4671 0743 A0000000 		.4byte	.LASF126
 4672 0747 15       		.uleb128 0x15
 4673 0748 C6010000 		.4byte	.LASF127
 4674 074c 02       		.byte	0x2
 4675 074d 1A       		.byte	0x1a
 4676 074e 1D050000 		.4byte	0x51d
 4677 0752 05       		.byte	0x5
 4678 0753 03       		.byte	0x3
 4679 0754 00000000 		.4byte	module_buffer
 4680 0758 16       		.uleb128 0x16
 4681 0759 6E756D00 		.ascii	"num\000"
 4682 075d 02       		.byte	0x2
 4683 075e 1B       		.byte	0x1b
 4684 075f 80000000 		.4byte	0x80
 4685 0763 05       		.byte	0x5
 4686 0764 03       		.byte	0x3
 4687 0765 04000000 		.4byte	num
 4688 0769 17       		.uleb128 0x17
 4689 076a 01       		.byte	0x1
 4690 076b C7050000 		.4byte	.LASF130
 4691 076f 02       		.byte	0x2
 4692 0770 CF02     		.2byte	0x2cf
 4693 0772 01       		.byte	0x1
 4694 0773 10160000 		.4byte	.LFB18
 4695 0777 2C160000 		.4byte	.LFE18
 4696 077b 00000000 		.4byte	.LLST9
 4697 077f 01       		.byte	0x1
 4698 0780 94070000 		.4byte	0x794
 4699 0784 18       		.uleb128 0x18
 4700 0785 61646400 		.ascii	"add\000"
 4701 0789 02       		.byte	0x2
 4702 078a CF02     		.2byte	0x2cf
 4703 078c 37040000 		.4byte	0x437
 4704 0790 02       		.byte	0x2
 4705 0791 91       		.byte	0x91
ARM GAS  G:\Users\Jaxb\AppData\Local\Temp\cc4KUlGg.s 			page 101


 4706 0792 74       		.sleb128 -12
 4707 0793 00       		.byte	0
 4708 0794 19       		.uleb128 0x19
 4709 0795 01       		.byte	0x1
 4710 0796 D4010000 		.4byte	.LASF128
 4711 079a 02       		.byte	0x2
 4712 079b C902     		.2byte	0x2c9
 4713 079d 01       		.byte	0x1
 4714 079e F0150000 		.4byte	.LFB17
 4715 07a2 10160000 		.4byte	.LFE17
 4716 07a6 5C000000 		.4byte	.LLST8
 4717 07aa 01       		.byte	0x1
 4718 07ab 1A       		.uleb128 0x1a
 4719 07ac 01       		.byte	0x1
 4720 07ad ED070000 		.4byte	.LASF129
 4721 07b1 02       		.byte	0x2
 4722 07b2 C402     		.2byte	0x2c4
 4723 07b4 01       		.byte	0x1
 4724 07b5 D4150000 		.4byte	.LFB16
 4725 07b9 F0150000 		.4byte	.LFE16
 4726 07bd A0000000 		.4byte	.LLST7
 4727 07c1 01       		.byte	0x1
 4728 07c2 1B       		.uleb128 0x1b
 4729 07c3 01       		.byte	0x1
 4730 07c4 7E030000 		.4byte	.LASF131
 4731 07c8 02       		.byte	0x2
 4732 07c9 B802     		.2byte	0x2b8
 4733 07cb 01       		.byte	0x1
 4734 07cc 90150000 		.4byte	.LFB15
 4735 07d0 D4150000 		.4byte	.LFE15
 4736 07d4 CC000000 		.4byte	.LLST6
 4737 07d8 01       		.byte	0x1
 4738 07d9 EB070000 		.4byte	0x7eb
 4739 07dd 18       		.uleb128 0x18
 4740 07de 6300     		.ascii	"c\000"
 4741 07e0 02       		.byte	0x2
 4742 07e1 B802     		.2byte	0x2b8
 4743 07e3 23050000 		.4byte	0x523
 4744 07e7 02       		.byte	0x2
 4745 07e8 91       		.byte	0x91
 4746 07e9 77       		.sleb128 -9
 4747 07ea 00       		.byte	0
 4748 07eb 1C       		.uleb128 0x1c
 4749 07ec 01       		.byte	0x1
 4750 07ed 45030000 		.4byte	.LASF134
 4751 07f1 02       		.byte	0x2
 4752 07f2 9802     		.2byte	0x298
 4753 07f4 01       		.byte	0x1
 4754 07f5 1D060000 		.4byte	0x61d
 4755 07f9 F4140000 		.4byte	.LFB14
 4756 07fd 90150000 		.4byte	.LFE14
 4757 0801 1C010000 		.4byte	.LLST5
 4758 0805 01       		.byte	0x1
 4759 0806 29080000 		.4byte	0x829
 4760 080a 1D       		.uleb128 0x1d
 4761 080b F9000000 		.4byte	.LASF132
 4762 080f 02       		.byte	0x2
ARM GAS  G:\Users\Jaxb\AppData\Local\Temp\cc4KUlGg.s 			page 102


 4763 0810 9A02     		.2byte	0x29a
 4764 0812 1D060000 		.4byte	0x61d
 4765 0816 02       		.byte	0x2
 4766 0817 91       		.byte	0x91
 4767 0818 74       		.sleb128 -12
 4768 0819 1D       		.uleb128 0x1d
 4769 081a 5E040000 		.4byte	.LASF133
 4770 081e 02       		.byte	0x2
 4771 081f 9B02     		.2byte	0x29b
 4772 0821 3E000000 		.4byte	0x3e
 4773 0825 02       		.byte	0x2
 4774 0826 91       		.byte	0x91
 4775 0827 70       		.sleb128 -16
 4776 0828 00       		.byte	0
 4777 0829 1C       		.uleb128 0x1c
 4778 082a 01       		.byte	0x1
 4779 082b A8030000 		.4byte	.LASF135
 4780 082f 02       		.byte	0x2
 4781 0830 3E02     		.2byte	0x23e
 4782 0832 01       		.byte	0x1
 4783 0833 1D060000 		.4byte	0x61d
 4784 0837 AC130000 		.4byte	.LFB13
 4785 083b F4140000 		.4byte	.LFE13
 4786 083f 6C010000 		.4byte	.LLST4
 4787 0843 01       		.byte	0x1
 4788 0844 82080000 		.4byte	0x882
 4789 0848 1E       		.uleb128 0x1e
 4790 0849 72657400 		.ascii	"ret\000"
 4791 084d 02       		.byte	0x2
 4792 084e 4002     		.2byte	0x240
 4793 0850 35070000 		.4byte	0x735
 4794 0854 02       		.byte	0x2
 4795 0855 91       		.byte	0x91
 4796 0856 70       		.sleb128 -16
 4797 0857 1D       		.uleb128 0x1d
 4798 0858 8B010000 		.4byte	.LASF136
 4799 085c 02       		.byte	0x2
 4800 085d 4102     		.2byte	0x241
 4801 085f 82080000 		.4byte	0x882
 4802 0863 02       		.byte	0x2
 4803 0864 91       		.byte	0x91
 4804 0865 6C       		.sleb128 -20
 4805 0866 1D       		.uleb128 0x1d
 4806 0867 F9000000 		.4byte	.LASF132
 4807 086b 02       		.byte	0x2
 4808 086c 4202     		.2byte	0x242
 4809 086e 1D060000 		.4byte	0x61d
 4810 0872 02       		.byte	0x2
 4811 0873 91       		.byte	0x91
 4812 0874 74       		.sleb128 -12
 4813 0875 1F       		.uleb128 0x1f
 4814 0876 AB050000 		.4byte	.LASF169
 4815 087a 02       		.byte	0x2
 4816 087b 8D02     		.2byte	0x28d
 4817 087d 9A140000 		.4byte	.L118
 4818 0881 00       		.byte	0
 4819 0882 0B       		.uleb128 0xb
ARM GAS  G:\Users\Jaxb\AppData\Local\Temp\cc4KUlGg.s 			page 103


 4820 0883 04       		.byte	0x4
 4821 0884 51000000 		.4byte	0x51
 4822 0888 1C       		.uleb128 0x1c
 4823 0889 01       		.byte	0x1
 4824 088a 00000000 		.4byte	.LASF137
 4825 088e 02       		.byte	0x2
 4826 088f 5A01     		.2byte	0x15a
 4827 0891 01       		.byte	0x1
 4828 0892 35070000 		.4byte	0x735
 4829 0896 760A0000 		.4byte	.LFB12
 4830 089a AC130000 		.4byte	.LFE12
 4831 089e BC010000 		.4byte	.LLST3
 4832 08a2 01       		.byte	0x1
 4833 08a3 E8090000 		.4byte	0x9e8
 4834 08a7 20       		.uleb128 0x20
 4835 08a8 F9000000 		.4byte	.LASF132
 4836 08ac 02       		.byte	0x2
 4837 08ad 5A01     		.2byte	0x15a
 4838 08af 1D060000 		.4byte	0x61d
 4839 08b3 03       		.byte	0x3
 4840 08b4 91       		.byte	0x91
 4841 08b5 A47F     		.sleb128 -92
 4842 08b7 20       		.uleb128 0x20
 4843 08b8 8B010000 		.4byte	.LASF136
 4844 08bc 02       		.byte	0x2
 4845 08bd 5A01     		.2byte	0x15a
 4846 08bf 37040000 		.4byte	0x437
 4847 08c3 03       		.byte	0x3
 4848 08c4 91       		.byte	0x91
 4849 08c5 A07F     		.sleb128 -96
 4850 08c7 1D       		.uleb128 0x1d
 4851 08c8 B6060000 		.4byte	.LASF138
 4852 08cc 02       		.byte	0x2
 4853 08cd 5C01     		.2byte	0x15c
 4854 08cf 75000000 		.4byte	0x75
 4855 08d3 02       		.byte	0x2
 4856 08d4 91       		.byte	0x91
 4857 08d5 64       		.sleb128 -28
 4858 08d6 1D       		.uleb128 0x1d
 4859 08d7 9B070000 		.4byte	.LASF139
 4860 08db 02       		.byte	0x2
 4861 08dc 5C01     		.2byte	0x15c
 4862 08de 75000000 		.4byte	0x75
 4863 08e2 02       		.byte	0x2
 4864 08e3 91       		.byte	0x91
 4865 08e4 60       		.sleb128 -32
 4866 08e5 1D       		.uleb128 0x1d
 4867 08e6 37020000 		.4byte	.LASF140
 4868 08ea 02       		.byte	0x2
 4869 08eb 5C01     		.2byte	0x15c
 4870 08ed 75000000 		.4byte	0x75
 4871 08f1 02       		.byte	0x2
 4872 08f2 91       		.byte	0x91
 4873 08f3 5C       		.sleb128 -36
 4874 08f4 1D       		.uleb128 0x1d
 4875 08f5 67030000 		.4byte	.LASF141
 4876 08f9 02       		.byte	0x2
ARM GAS  G:\Users\Jaxb\AppData\Local\Temp\cc4KUlGg.s 			page 104


 4877 08fa 5C01     		.2byte	0x15c
 4878 08fc 75000000 		.4byte	0x75
 4879 0900 02       		.byte	0x2
 4880 0901 91       		.byte	0x91
 4881 0902 58       		.sleb128 -40
 4882 0903 1D       		.uleb128 0x1d
 4883 0904 48040000 		.4byte	.LASF142
 4884 0908 02       		.byte	0x2
 4885 0909 5D01     		.2byte	0x15d
 4886 090b 75000000 		.4byte	0x75
 4887 090f 02       		.byte	0x2
 4888 0910 91       		.byte	0x91
 4889 0911 54       		.sleb128 -44
 4890 0912 1D       		.uleb128 0x1d
 4891 0913 7F010000 		.4byte	.LASF143
 4892 0917 02       		.byte	0x2
 4893 0918 5D01     		.2byte	0x15d
 4894 091a 75000000 		.4byte	0x75
 4895 091e 02       		.byte	0x2
 4896 091f 91       		.byte	0x91
 4897 0920 50       		.sleb128 -48
 4898 0921 1E       		.uleb128 0x1e
 4899 0922 70747200 		.ascii	"ptr\000"
 4900 0926 02       		.byte	0x2
 4901 0927 5E01     		.2byte	0x15e
 4902 0929 82080000 		.4byte	0x882
 4903 092d 02       		.byte	0x2
 4904 092e 91       		.byte	0x91
 4905 092f 4C       		.sleb128 -52
 4906 0930 1D       		.uleb128 0x1d
 4907 0931 BC020000 		.4byte	.LASF144
 4908 0935 02       		.byte	0x2
 4909 0936 5E01     		.2byte	0x15e
 4910 0938 82080000 		.4byte	0x882
 4911 093c 03       		.byte	0x3
 4912 093d 91       		.byte	0x91
 4913 093e B87F     		.sleb128 -72
 4914 0940 1D       		.uleb128 0x1d
 4915 0941 4B050000 		.4byte	.LASF145
 4916 0945 02       		.byte	0x2
 4917 0946 5E01     		.2byte	0x15e
 4918 0948 82080000 		.4byte	0x882
 4919 094c 03       		.byte	0x3
 4920 094d 91       		.byte	0x91
 4921 094e B47F     		.sleb128 -76
 4922 0950 21       		.uleb128 0x21
 4923 0951 14100000 		.4byte	.LBB10
 4924 0955 78130000 		.4byte	.LBE10
 4925 0959 1E       		.uleb128 0x1e
 4926 095a 6900     		.ascii	"i\000"
 4927 095c 02       		.byte	0x2
 4928 095d C201     		.2byte	0x1c2
 4929 095f 75000000 		.4byte	0x75
 4930 0963 02       		.byte	0x2
 4931 0964 91       		.byte	0x91
 4932 0965 48       		.sleb128 -56
 4933 0966 1D       		.uleb128 0x1d
ARM GAS  G:\Users\Jaxb\AppData\Local\Temp\cc4KUlGg.s 			page 105


 4934 0967 53080000 		.4byte	.LASF146
 4935 096b 02       		.byte	0x2
 4936 096c C201     		.2byte	0x1c2
 4937 096e 75000000 		.4byte	0x75
 4938 0972 03       		.byte	0x3
 4939 0973 91       		.byte	0x91
 4940 0974 B07F     		.sleb128 -80
 4941 0976 1D       		.uleb128 0x1d
 4942 0977 6E000000 		.4byte	.LASF123
 4943 097b 02       		.byte	0x2
 4944 097c C301     		.2byte	0x1c3
 4945 097e E8090000 		.4byte	0x9e8
 4946 0982 03       		.byte	0x3
 4947 0983 91       		.byte	0x91
 4948 0984 BC7F     		.sleb128 -68
 4949 0986 1E       		.uleb128 0x1e
 4950 0987 72656C00 		.ascii	"rel\000"
 4951 098b 02       		.byte	0x2
 4952 098c C401     		.2byte	0x1c4
 4953 098e EE090000 		.4byte	0x9ee
 4954 0992 02       		.byte	0x2
 4955 0993 91       		.byte	0x91
 4956 0994 44       		.sleb128 -60
 4957 0995 21       		.uleb128 0x21
 4958 0996 30110000 		.4byte	.LBB11
 4959 099a 68130000 		.4byte	.LBE11
 4960 099e 1E       		.uleb128 0x1e
 4961 099f 73796D00 		.ascii	"sym\000"
 4962 09a3 02       		.byte	0x2
 4963 09a4 DD01     		.2byte	0x1dd
 4964 09a6 E8090000 		.4byte	0x9e8
 4965 09aa 03       		.byte	0x3
 4966 09ab 91       		.byte	0x91
 4967 09ac AC7F     		.sleb128 -84
 4968 09ae 22       		.uleb128 0x22
 4969 09af 60110000 		.4byte	.LBB12
 4970 09b3 84120000 		.4byte	.LBE12
 4971 09b7 CB090000 		.4byte	0x9cb
 4972 09bb 1D       		.uleb128 0x1d
 4973 09bc F4000000 		.4byte	.LASF100
 4974 09c0 02       		.byte	0x2
 4975 09c1 E601     		.2byte	0x1e6
 4976 09c3 99000000 		.4byte	0x99
 4977 09c7 02       		.byte	0x2
 4978 09c8 91       		.byte	0x91
 4979 09c9 40       		.sleb128 -64
 4980 09ca 00       		.byte	0
 4981 09cb 21       		.uleb128 0x21
 4982 09cc E0120000 		.4byte	.LBB13
 4983 09d0 62130000 		.4byte	.LBE13
 4984 09d4 1D       		.uleb128 0x1d
 4985 09d5 F4000000 		.4byte	.LASF100
 4986 09d9 02       		.byte	0x2
 4987 09da 1C02     		.2byte	0x21c
 4988 09dc 99000000 		.4byte	0x99
 4989 09e0 03       		.byte	0x3
 4990 09e1 91       		.byte	0x91
ARM GAS  G:\Users\Jaxb\AppData\Local\Temp\cc4KUlGg.s 			page 106


 4991 09e2 A87F     		.sleb128 -88
 4992 09e4 00       		.byte	0
 4993 09e5 00       		.byte	0
 4994 09e6 00       		.byte	0
 4995 09e7 00       		.byte	0
 4996 09e8 0B       		.uleb128 0xb
 4997 09e9 04       		.byte	0x4
 4998 09ea BD020000 		.4byte	0x2bd
 4999 09ee 0B       		.uleb128 0xb
 5000 09ef 04       		.byte	0x4
 5001 09f0 ED020000 		.4byte	0x2ed
 5002 09f4 23       		.uleb128 0x23
 5003 09f5 01       		.byte	0x1
 5004 09f6 37080000 		.4byte	.LASF147
 5005 09fa 02       		.byte	0x2
 5006 09fb 88       		.byte	0x88
 5007 09fc 01       		.byte	0x1
 5008 09fd 35070000 		.4byte	0x735
 5009 0a01 88030000 		.4byte	.LFB11
 5010 0a05 760A0000 		.4byte	.LFE11
 5011 0a09 0E020000 		.4byte	.LLST2
 5012 0a0d 01       		.byte	0x1
 5013 0a0e B50B0000 		.4byte	0xbb5
 5014 0a12 24       		.uleb128 0x24
 5015 0a13 F9000000 		.4byte	.LASF132
 5016 0a17 02       		.byte	0x2
 5017 0a18 88       		.byte	0x88
 5018 0a19 1D060000 		.4byte	0x61d
 5019 0a1d 03       		.byte	0x3
 5020 0a1e 91       		.byte	0x91
 5021 0a1f 9C7F     		.sleb128 -100
 5022 0a21 24       		.uleb128 0x24
 5023 0a22 8B010000 		.4byte	.LASF136
 5024 0a26 02       		.byte	0x2
 5025 0a27 88       		.byte	0x88
 5026 0a28 37040000 		.4byte	0x437
 5027 0a2c 03       		.byte	0x3
 5028 0a2d 91       		.byte	0x91
 5029 0a2e 987F     		.sleb128 -104
 5030 0a30 15       		.uleb128 0x15
 5031 0a31 0F040000 		.4byte	.LASF148
 5032 0a35 02       		.byte	0x2
 5033 0a36 8A       		.byte	0x8a
 5034 0a37 3A050000 		.4byte	0x53a
 5035 0a3b 02       		.byte	0x2
 5036 0a3c 91       		.byte	0x91
 5037 0a3d 4C       		.sleb128 -52
 5038 0a3e 15       		.uleb128 0x15
 5039 0a3f B6060000 		.4byte	.LASF138
 5040 0a43 02       		.byte	0x2
 5041 0a44 8B       		.byte	0x8b
 5042 0a45 75000000 		.4byte	0x75
 5043 0a49 02       		.byte	0x2
 5044 0a4a 91       		.byte	0x91
 5045 0a4b 6C       		.sleb128 -20
 5046 0a4c 15       		.uleb128 0x15
 5047 0a4d 7F010000 		.4byte	.LASF143
ARM GAS  G:\Users\Jaxb\AppData\Local\Temp\cc4KUlGg.s 			page 107


 5048 0a51 02       		.byte	0x2
 5049 0a52 8B       		.byte	0x8b
 5050 0a53 75000000 		.4byte	0x75
 5051 0a57 02       		.byte	0x2
 5052 0a58 91       		.byte	0x91
 5053 0a59 48       		.sleb128 -56
 5054 0a5a 15       		.uleb128 0x15
 5055 0a5b B6030000 		.4byte	.LASF114
 5056 0a5f 02       		.byte	0x2
 5057 0a60 8C       		.byte	0x8c
 5058 0a61 99000000 		.4byte	0x99
 5059 0a65 02       		.byte	0x2
 5060 0a66 91       		.byte	0x91
 5061 0a67 68       		.sleb128 -24
 5062 0a68 15       		.uleb128 0x15
 5063 0a69 CB030000 		.4byte	.LASF149
 5064 0a6d 02       		.byte	0x2
 5065 0a6e 8C       		.byte	0x8c
 5066 0a6f 99000000 		.4byte	0x99
 5067 0a73 02       		.byte	0x2
 5068 0a74 91       		.byte	0x91
 5069 0a75 64       		.sleb128 -28
 5070 0a76 15       		.uleb128 0x15
 5071 0a77 26040000 		.4byte	.LASF150
 5072 0a7b 02       		.byte	0x2
 5073 0a7c 8D       		.byte	0x8d
 5074 0a7d 3A050000 		.4byte	0x53a
 5075 0a81 02       		.byte	0x2
 5076 0a82 91       		.byte	0x91
 5077 0a83 60       		.sleb128 -32
 5078 0a84 22       		.uleb128 0x22
 5079 0a85 7E060000 		.4byte	.LBB2
 5080 0a89 0E080000 		.4byte	.LBE2
 5081 0a8d 3C0B0000 		.4byte	0xb3c
 5082 0a91 16       		.uleb128 0x16
 5083 0a92 6900     		.ascii	"i\000"
 5084 0a94 02       		.byte	0x2
 5085 0a95 EA       		.byte	0xea
 5086 0a96 75000000 		.4byte	0x75
 5087 0a9a 02       		.byte	0x2
 5088 0a9b 91       		.byte	0x91
 5089 0a9c 5C       		.sleb128 -36
 5090 0a9d 15       		.uleb128 0x15
 5091 0a9e 53080000 		.4byte	.LASF146
 5092 0aa2 02       		.byte	0x2
 5093 0aa3 EA       		.byte	0xea
 5094 0aa4 75000000 		.4byte	0x75
 5095 0aa8 03       		.byte	0x3
 5096 0aa9 91       		.byte	0x91
 5097 0aaa AC7F     		.sleb128 -84
 5098 0aac 15       		.uleb128 0x15
 5099 0aad 6E000000 		.4byte	.LASF123
 5100 0ab1 02       		.byte	0x2
 5101 0ab2 EB       		.byte	0xeb
 5102 0ab3 E8090000 		.4byte	0x9e8
 5103 0ab7 03       		.byte	0x3
 5104 0ab8 91       		.byte	0x91
ARM GAS  G:\Users\Jaxb\AppData\Local\Temp\cc4KUlGg.s 			page 108


 5105 0ab9 B47F     		.sleb128 -76
 5106 0abb 16       		.uleb128 0x16
 5107 0abc 72656C00 		.ascii	"rel\000"
 5108 0ac0 02       		.byte	0x2
 5109 0ac1 EC       		.byte	0xec
 5110 0ac2 EE090000 		.4byte	0x9ee
 5111 0ac6 02       		.byte	0x2
 5112 0ac7 91       		.byte	0x91
 5113 0ac8 58       		.sleb128 -40
 5114 0ac9 15       		.uleb128 0x15
 5115 0aca BC020000 		.4byte	.LASF144
 5116 0ace 02       		.byte	0x2
 5117 0acf ED       		.byte	0xed
 5118 0ad0 82080000 		.4byte	0x882
 5119 0ad4 03       		.byte	0x3
 5120 0ad5 91       		.byte	0x91
 5121 0ad6 B07F     		.sleb128 -80
 5122 0ad8 15       		.uleb128 0x15
 5123 0ad9 26020000 		.4byte	.LASF151
 5124 0add 02       		.byte	0x2
 5125 0ade EE       		.byte	0xee
 5126 0adf 3A050000 		.4byte	0x53a
 5127 0ae3 05       		.byte	0x5
 5128 0ae4 03       		.byte	0x3
 5129 0ae5 08000000 		.4byte	unsolved.4441
 5130 0ae9 21       		.uleb128 0x21
 5131 0aea 4A070000 		.4byte	.LBB3
 5132 0aee F0070000 		.4byte	.LBE3
 5133 0af2 1E       		.uleb128 0x1e
 5134 0af3 73796D00 		.ascii	"sym\000"
 5135 0af7 02       		.byte	0x2
 5136 0af8 0001     		.2byte	0x100
 5137 0afa E8090000 		.4byte	0x9e8
 5138 0afe 03       		.byte	0x3
 5139 0aff 91       		.byte	0x91
 5140 0b00 A87F     		.sleb128 -88
 5141 0b02 22       		.uleb128 0x22
 5142 0b03 80070000 		.4byte	.LBB4
 5143 0b07 9A070000 		.4byte	.LBE4
 5144 0b0b 200B0000 		.4byte	0xb20
 5145 0b0f 1D       		.uleb128 0x1d
 5146 0b10 F4000000 		.4byte	.LASF100
 5147 0b14 02       		.byte	0x2
 5148 0b15 0601     		.2byte	0x106
 5149 0b17 99000000 		.4byte	0x99
 5150 0b1b 03       		.byte	0x3
 5151 0b1c 91       		.byte	0x91
 5152 0b1d A07F     		.sleb128 -96
 5153 0b1f 00       		.byte	0
 5154 0b20 21       		.uleb128 0x21
 5155 0b21 A2070000 		.4byte	.LBB5
 5156 0b25 EA070000 		.4byte	.LBE5
 5157 0b29 1D       		.uleb128 0x1d
 5158 0b2a F4000000 		.4byte	.LASF100
 5159 0b2e 02       		.byte	0x2
 5160 0b2f 0D01     		.2byte	0x10d
 5161 0b31 99000000 		.4byte	0x99
ARM GAS  G:\Users\Jaxb\AppData\Local\Temp\cc4KUlGg.s 			page 109


 5162 0b35 03       		.byte	0x3
 5163 0b36 91       		.byte	0x91
 5164 0b37 A47F     		.sleb128 -92
 5165 0b39 00       		.byte	0
 5166 0b3a 00       		.byte	0
 5167 0b3b 00       		.byte	0
 5168 0b3c 25       		.uleb128 0x25
 5169 0b3d 00000000 		.4byte	.Ldebug_ranges0+0
 5170 0b41 550B0000 		.4byte	0xb55
 5171 0b45 1D       		.uleb128 0x1d
 5172 0b46 4B050000 		.4byte	.LASF145
 5173 0b4a 02       		.byte	0x2
 5174 0b4b 2701     		.2byte	0x127
 5175 0b4d 82080000 		.4byte	0x882
 5176 0b51 02       		.byte	0x2
 5177 0b52 91       		.byte	0x91
 5178 0b53 44       		.sleb128 -60
 5179 0b54 00       		.byte	0
 5180 0b55 21       		.uleb128 0x21
 5181 0b56 A0080000 		.4byte	.LBB8
 5182 0b5a 6C0A0000 		.4byte	.LBE8
 5183 0b5e 1E       		.uleb128 0x1e
 5184 0b5f 6900     		.ascii	"i\000"
 5185 0b61 02       		.byte	0x2
 5186 0b62 3101     		.2byte	0x131
 5187 0b64 3E000000 		.4byte	0x3e
 5188 0b68 02       		.byte	0x2
 5189 0b69 91       		.byte	0x91
 5190 0b6a 54       		.sleb128 -44
 5191 0b6b 1D       		.uleb128 0x1d
 5192 0b6c 1F000000 		.4byte	.LASF152
 5193 0b70 02       		.byte	0x2
 5194 0b71 3101     		.2byte	0x131
 5195 0b73 3E000000 		.4byte	0x3e
 5196 0b77 02       		.byte	0x2
 5197 0b78 91       		.byte	0x91
 5198 0b79 50       		.sleb128 -48
 5199 0b7a 1D       		.uleb128 0x1d
 5200 0b7b 6E000000 		.4byte	.LASF123
 5201 0b7f 02       		.byte	0x2
 5202 0b80 3201     		.2byte	0x132
 5203 0b82 E8090000 		.4byte	0x9e8
 5204 0b86 02       		.byte	0x2
 5205 0b87 91       		.byte	0x91
 5206 0b88 40       		.sleb128 -64
 5207 0b89 1D       		.uleb128 0x1d
 5208 0b8a BC020000 		.4byte	.LASF144
 5209 0b8e 02       		.byte	0x2
 5210 0b8f 3301     		.2byte	0x133
 5211 0b91 82080000 		.4byte	0x882
 5212 0b95 03       		.byte	0x3
 5213 0b96 91       		.byte	0x91
 5214 0b97 BC7F     		.sleb128 -68
 5215 0b99 21       		.uleb128 0x21
 5216 0b9a 92090000 		.4byte	.LBB9
 5217 0b9e 480A0000 		.4byte	.LBE9
 5218 0ba2 1D       		.uleb128 0x1d
ARM GAS  G:\Users\Jaxb\AppData\Local\Temp\cc4KUlGg.s 			page 110


 5219 0ba3 2A070000 		.4byte	.LASF153
 5220 0ba7 02       		.byte	0x2
 5221 0ba8 4401     		.2byte	0x144
 5222 0baa B50B0000 		.4byte	0xbb5
 5223 0bae 03       		.byte	0x3
 5224 0baf 91       		.byte	0x91
 5225 0bb0 B87F     		.sleb128 -72
 5226 0bb2 00       		.byte	0
 5227 0bb3 00       		.byte	0
 5228 0bb4 00       		.byte	0
 5229 0bb5 02       		.uleb128 0x2
 5230 0bb6 04       		.byte	0x4
 5231 0bb7 07       		.byte	0x7
 5232 0bb8 CF020000 		.4byte	.LASF154
 5233 0bbc 23       		.uleb128 0x23
 5234 0bbd 01       		.byte	0x1
 5235 0bbe 16080000 		.4byte	.LASF155
 5236 0bc2 02       		.byte	0x2
 5237 0bc3 1D       		.byte	0x1d
 5238 0bc4 01       		.byte	0x1
 5239 0bc5 3E000000 		.4byte	0x3e
 5240 0bc9 1E000000 		.4byte	.LFB10
 5241 0bcd 88030000 		.4byte	.LFE10
 5242 0bd1 60020000 		.4byte	.LLST1
 5243 0bd5 01       		.byte	0x1
 5244 0bd6 810C0000 		.4byte	0xc81
 5245 0bda 24       		.uleb128 0x24
 5246 0bdb F9000000 		.4byte	.LASF132
 5247 0bdf 02       		.byte	0x2
 5248 0be0 1D       		.byte	0x1d
 5249 0be1 1D060000 		.4byte	0x61d
 5250 0be5 02       		.byte	0x2
 5251 0be6 91       		.byte	0x91
 5252 0be7 4C       		.sleb128 -52
 5253 0be8 26       		.uleb128 0x26
 5254 0be9 72656C00 		.ascii	"rel\000"
 5255 0bed 02       		.byte	0x2
 5256 0bee 1D       		.byte	0x1d
 5257 0bef EE090000 		.4byte	0x9ee
 5258 0bf3 02       		.byte	0x2
 5259 0bf4 91       		.byte	0x91
 5260 0bf5 48       		.sleb128 -56
 5261 0bf6 24       		.uleb128 0x24
 5262 0bf7 83000000 		.4byte	.LASF156
 5263 0bfb 02       		.byte	0x2
 5264 0bfc 1D       		.byte	0x1d
 5265 0bfd 99000000 		.4byte	0x99
 5266 0c01 02       		.byte	0x2
 5267 0c02 91       		.byte	0x91
 5268 0c03 44       		.sleb128 -60
 5269 0c04 15       		.uleb128 0x15
 5270 0c05 75000000 		.4byte	.LASF157
 5271 0c09 02       		.byte	0x2
 5272 0c0a 1F       		.byte	0x1f
 5273 0c0b 810C0000 		.4byte	0xc81
 5274 0c0f 02       		.byte	0x2
 5275 0c10 91       		.byte	0x91
ARM GAS  G:\Users\Jaxb\AppData\Local\Temp\cc4KUlGg.s 			page 111


 5276 0c11 6C       		.sleb128 -20
 5277 0c12 16       		.uleb128 0x16
 5278 0c13 746D7000 		.ascii	"tmp\000"
 5279 0c17 02       		.byte	0x2
 5280 0c18 1F       		.byte	0x1f
 5281 0c19 99000000 		.4byte	0x99
 5282 0c1d 02       		.byte	0x2
 5283 0c1e 91       		.byte	0x91
 5284 0c1f 54       		.sleb128 -44
 5285 0c20 15       		.uleb128 0x15
 5286 0c21 A1010000 		.4byte	.LASF158
 5287 0c25 02       		.byte	0x2
 5288 0c26 20       		.byte	0x20
 5289 0c27 AF000000 		.4byte	0xaf
 5290 0c2b 02       		.byte	0x2
 5291 0c2c 91       		.byte	0x91
 5292 0c2d 74       		.sleb128 -12
 5293 0c2e 15       		.uleb128 0x15
 5294 0c2f F9060000 		.4byte	.LASF159
 5295 0c33 02       		.byte	0x2
 5296 0c34 20       		.byte	0x20
 5297 0c35 AF000000 		.4byte	0xaf
 5298 0c39 02       		.byte	0x2
 5299 0c3a 91       		.byte	0x91
 5300 0c3b 70       		.sleb128 -16
 5301 0c3c 15       		.uleb128 0x15
 5302 0c3d E8010000 		.4byte	.LASF160
 5303 0c41 02       		.byte	0x2
 5304 0c42 21       		.byte	0x21
 5305 0c43 75000000 		.4byte	0x75
 5306 0c47 02       		.byte	0x2
 5307 0c48 91       		.byte	0x91
 5308 0c49 68       		.sleb128 -24
 5309 0c4a 15       		.uleb128 0x15
 5310 0c4b 15010000 		.4byte	.LASF161
 5311 0c4f 02       		.byte	0x2
 5312 0c50 21       		.byte	0x21
 5313 0c51 75000000 		.4byte	0x75
 5314 0c55 02       		.byte	0x2
 5315 0c56 91       		.byte	0x91
 5316 0c57 64       		.sleb128 -28
 5317 0c58 15       		.uleb128 0x15
 5318 0c59 79030000 		.4byte	.LASF162
 5319 0c5d 02       		.byte	0x2
 5320 0c5e 21       		.byte	0x21
 5321 0c5f 75000000 		.4byte	0x75
 5322 0c63 02       		.byte	0x2
 5323 0c64 91       		.byte	0x91
 5324 0c65 60       		.sleb128 -32
 5325 0c66 16       		.uleb128 0x16
 5326 0c67 6A3100   		.ascii	"j1\000"
 5327 0c6a 02       		.byte	0x2
 5328 0c6b 21       		.byte	0x21
 5329 0c6c 75000000 		.4byte	0x75
 5330 0c70 02       		.byte	0x2
 5331 0c71 91       		.byte	0x91
 5332 0c72 5C       		.sleb128 -36
ARM GAS  G:\Users\Jaxb\AppData\Local\Temp\cc4KUlGg.s 			page 112


 5333 0c73 16       		.uleb128 0x16
 5334 0c74 6A3200   		.ascii	"j2\000"
 5335 0c77 02       		.byte	0x2
 5336 0c78 21       		.byte	0x21
 5337 0c79 75000000 		.4byte	0x75
 5338 0c7d 02       		.byte	0x2
 5339 0c7e 91       		.byte	0x91
 5340 0c7f 58       		.sleb128 -40
 5341 0c80 00       		.byte	0
 5342 0c81 0B       		.uleb128 0xb
 5343 0c82 04       		.byte	0x4
 5344 0c83 99000000 		.4byte	0x99
 5345 0c87 27       		.uleb128 0x27
 5346 0c88 CE070000 		.4byte	.LASF170
 5347 0c8c 01       		.byte	0x1
 5348 0c8d 10       		.byte	0x10
 5349 0c8e 01       		.byte	0x1
 5350 0c8f 00000000 		.4byte	.LFB0
 5351 0c93 1E000000 		.4byte	.LFE0
 5352 0c97 B2020000 		.4byte	.LLST0
 5353 0c9b 01       		.byte	0x1
 5354 0c9c 24       		.uleb128 0x24
 5355 0c9d 28080000 		.4byte	.LASF163
 5356 0ca1 01       		.byte	0x1
 5357 0ca2 10       		.byte	0x10
 5358 0ca3 A5030000 		.4byte	0x3a5
 5359 0ca7 02       		.byte	0x2
 5360 0ca8 91       		.byte	0x91
 5361 0ca9 74       		.sleb128 -12
 5362 0caa 00       		.byte	0
 5363 0cab 00       		.byte	0
 5364              		.section	.debug_abbrev,"",%progbits
 5365              	.Ldebug_abbrev0:
 5366 0000 01       		.uleb128 0x1
 5367 0001 11       		.uleb128 0x11
 5368 0002 01       		.byte	0x1
 5369 0003 25       		.uleb128 0x25
 5370 0004 0E       		.uleb128 0xe
 5371 0005 13       		.uleb128 0x13
 5372 0006 0B       		.uleb128 0xb
 5373 0007 03       		.uleb128 0x3
 5374 0008 0E       		.uleb128 0xe
 5375 0009 1B       		.uleb128 0x1b
 5376 000a 0E       		.uleb128 0xe
 5377 000b 11       		.uleb128 0x11
 5378 000c 01       		.uleb128 0x1
 5379 000d 12       		.uleb128 0x12
 5380 000e 01       		.uleb128 0x1
 5381 000f 10       		.uleb128 0x10
 5382 0010 06       		.uleb128 0x6
 5383 0011 00       		.byte	0
 5384 0012 00       		.byte	0
 5385 0013 02       		.uleb128 0x2
 5386 0014 24       		.uleb128 0x24
 5387 0015 00       		.byte	0
 5388 0016 0B       		.uleb128 0xb
 5389 0017 0B       		.uleb128 0xb
ARM GAS  G:\Users\Jaxb\AppData\Local\Temp\cc4KUlGg.s 			page 113


 5390 0018 3E       		.uleb128 0x3e
 5391 0019 0B       		.uleb128 0xb
 5392 001a 03       		.uleb128 0x3
 5393 001b 0E       		.uleb128 0xe
 5394 001c 00       		.byte	0
 5395 001d 00       		.byte	0
 5396 001e 03       		.uleb128 0x3
 5397 001f 16       		.uleb128 0x16
 5398 0020 00       		.byte	0
 5399 0021 03       		.uleb128 0x3
 5400 0022 0E       		.uleb128 0xe
 5401 0023 3A       		.uleb128 0x3a
 5402 0024 0B       		.uleb128 0xb
 5403 0025 3B       		.uleb128 0x3b
 5404 0026 0B       		.uleb128 0xb
 5405 0027 49       		.uleb128 0x49
 5406 0028 13       		.uleb128 0x13
 5407 0029 00       		.byte	0
 5408 002a 00       		.byte	0
 5409 002b 04       		.uleb128 0x4
 5410 002c 24       		.uleb128 0x24
 5411 002d 00       		.byte	0
 5412 002e 0B       		.uleb128 0xb
 5413 002f 0B       		.uleb128 0xb
 5414 0030 3E       		.uleb128 0x3e
 5415 0031 0B       		.uleb128 0xb
 5416 0032 03       		.uleb128 0x3
 5417 0033 08       		.uleb128 0x8
 5418 0034 00       		.byte	0
 5419 0035 00       		.byte	0
 5420 0036 05       		.uleb128 0x5
 5421 0037 35       		.uleb128 0x35
 5422 0038 00       		.byte	0
 5423 0039 49       		.uleb128 0x49
 5424 003a 13       		.uleb128 0x13
 5425 003b 00       		.byte	0
 5426 003c 00       		.byte	0
 5427 003d 06       		.uleb128 0x6
 5428 003e 13       		.uleb128 0x13
 5429 003f 01       		.byte	0x1
 5430 0040 03       		.uleb128 0x3
 5431 0041 0E       		.uleb128 0xe
 5432 0042 0B       		.uleb128 0xb
 5433 0043 0B       		.uleb128 0xb
 5434 0044 3A       		.uleb128 0x3a
 5435 0045 0B       		.uleb128 0xb
 5436 0046 3B       		.uleb128 0x3b
 5437 0047 0B       		.uleb128 0xb
 5438 0048 01       		.uleb128 0x1
 5439 0049 13       		.uleb128 0x13
 5440 004a 00       		.byte	0
 5441 004b 00       		.byte	0
 5442 004c 07       		.uleb128 0x7
 5443 004d 0D       		.uleb128 0xd
 5444 004e 00       		.byte	0
 5445 004f 03       		.uleb128 0x3
 5446 0050 0E       		.uleb128 0xe
ARM GAS  G:\Users\Jaxb\AppData\Local\Temp\cc4KUlGg.s 			page 114


 5447 0051 3A       		.uleb128 0x3a
 5448 0052 0B       		.uleb128 0xb
 5449 0053 3B       		.uleb128 0x3b
 5450 0054 0B       		.uleb128 0xb
 5451 0055 49       		.uleb128 0x49
 5452 0056 13       		.uleb128 0x13
 5453 0057 38       		.uleb128 0x38
 5454 0058 0A       		.uleb128 0xa
 5455 0059 00       		.byte	0
 5456 005a 00       		.byte	0
 5457 005b 08       		.uleb128 0x8
 5458 005c 01       		.uleb128 0x1
 5459 005d 01       		.byte	0x1
 5460 005e 49       		.uleb128 0x49
 5461 005f 13       		.uleb128 0x13
 5462 0060 01       		.uleb128 0x1
 5463 0061 13       		.uleb128 0x13
 5464 0062 00       		.byte	0
 5465 0063 00       		.byte	0
 5466 0064 09       		.uleb128 0x9
 5467 0065 21       		.uleb128 0x21
 5468 0066 00       		.byte	0
 5469 0067 49       		.uleb128 0x49
 5470 0068 13       		.uleb128 0x13
 5471 0069 2F       		.uleb128 0x2f
 5472 006a 0B       		.uleb128 0xb
 5473 006b 00       		.byte	0
 5474 006c 00       		.byte	0
 5475 006d 0A       		.uleb128 0xa
 5476 006e 13       		.uleb128 0x13
 5477 006f 01       		.byte	0x1
 5478 0070 0B       		.uleb128 0xb
 5479 0071 0B       		.uleb128 0xb
 5480 0072 3A       		.uleb128 0x3a
 5481 0073 0B       		.uleb128 0xb
 5482 0074 3B       		.uleb128 0x3b
 5483 0075 0B       		.uleb128 0xb
 5484 0076 01       		.uleb128 0x1
 5485 0077 13       		.uleb128 0x13
 5486 0078 00       		.byte	0
 5487 0079 00       		.byte	0
 5488 007a 0B       		.uleb128 0xb
 5489 007b 0F       		.uleb128 0xf
 5490 007c 00       		.byte	0
 5491 007d 0B       		.uleb128 0xb
 5492 007e 0B       		.uleb128 0xb
 5493 007f 49       		.uleb128 0x49
 5494 0080 13       		.uleb128 0x13
 5495 0081 00       		.byte	0
 5496 0082 00       		.byte	0
 5497 0083 0C       		.uleb128 0xc
 5498 0084 04       		.uleb128 0x4
 5499 0085 01       		.byte	0x1
 5500 0086 03       		.uleb128 0x3
 5501 0087 0E       		.uleb128 0xe
 5502 0088 3E       		.uleb128 0x3e
 5503 0089 0B       		.uleb128 0xb
ARM GAS  G:\Users\Jaxb\AppData\Local\Temp\cc4KUlGg.s 			page 115


 5504 008a 0B       		.uleb128 0xb
 5505 008b 0B       		.uleb128 0xb
 5506 008c 49       		.uleb128 0x49
 5507 008d 13       		.uleb128 0x13
 5508 008e 3A       		.uleb128 0x3a
 5509 008f 0B       		.uleb128 0xb
 5510 0090 3B       		.uleb128 0x3b
 5511 0091 0B       		.uleb128 0xb
 5512 0092 01       		.uleb128 0x1
 5513 0093 13       		.uleb128 0x13
 5514 0094 00       		.byte	0
 5515 0095 00       		.byte	0
 5516 0096 0D       		.uleb128 0xd
 5517 0097 28       		.uleb128 0x28
 5518 0098 00       		.byte	0
 5519 0099 03       		.uleb128 0x3
 5520 009a 0E       		.uleb128 0xe
 5521 009b 1C       		.uleb128 0x1c
 5522 009c 0B       		.uleb128 0xb
 5523 009d 00       		.byte	0
 5524 009e 00       		.byte	0
 5525 009f 0E       		.uleb128 0xe
 5526 00a0 15       		.uleb128 0x15
 5527 00a1 01       		.byte	0x1
 5528 00a2 27       		.uleb128 0x27
 5529 00a3 0C       		.uleb128 0xc
 5530 00a4 01       		.uleb128 0x1
 5531 00a5 13       		.uleb128 0x13
 5532 00a6 00       		.byte	0
 5533 00a7 00       		.byte	0
 5534 00a8 0F       		.uleb128 0xf
 5535 00a9 05       		.uleb128 0x5
 5536 00aa 00       		.byte	0
 5537 00ab 49       		.uleb128 0x49
 5538 00ac 13       		.uleb128 0x13
 5539 00ad 00       		.byte	0
 5540 00ae 00       		.byte	0
 5541 00af 10       		.uleb128 0x10
 5542 00b0 0F       		.uleb128 0xf
 5543 00b1 00       		.byte	0
 5544 00b2 0B       		.uleb128 0xb
 5545 00b3 0B       		.uleb128 0xb
 5546 00b4 00       		.byte	0
 5547 00b5 00       		.byte	0
 5548 00b6 11       		.uleb128 0x11
 5549 00b7 34       		.uleb128 0x34
 5550 00b8 00       		.byte	0
 5551 00b9 03       		.uleb128 0x3
 5552 00ba 0E       		.uleb128 0xe
 5553 00bb 3A       		.uleb128 0x3a
 5554 00bc 0B       		.uleb128 0xb
 5555 00bd 3B       		.uleb128 0x3b
 5556 00be 0B       		.uleb128 0xb
 5557 00bf 49       		.uleb128 0x49
 5558 00c0 13       		.uleb128 0x13
 5559 00c1 3F       		.uleb128 0x3f
 5560 00c2 0C       		.uleb128 0xc
ARM GAS  G:\Users\Jaxb\AppData\Local\Temp\cc4KUlGg.s 			page 116


 5561 00c3 3C       		.uleb128 0x3c
 5562 00c4 0C       		.uleb128 0xc
 5563 00c5 00       		.byte	0
 5564 00c6 00       		.byte	0
 5565 00c7 12       		.uleb128 0x12
 5566 00c8 26       		.uleb128 0x26
 5567 00c9 00       		.byte	0
 5568 00ca 49       		.uleb128 0x49
 5569 00cb 13       		.uleb128 0x13
 5570 00cc 00       		.byte	0
 5571 00cd 00       		.byte	0
 5572 00ce 13       		.uleb128 0x13
 5573 00cf 16       		.uleb128 0x16
 5574 00d0 00       		.byte	0
 5575 00d1 03       		.uleb128 0x3
 5576 00d2 08       		.uleb128 0x8
 5577 00d3 3A       		.uleb128 0x3a
 5578 00d4 0B       		.uleb128 0xb
 5579 00d5 3B       		.uleb128 0x3b
 5580 00d6 0B       		.uleb128 0xb
 5581 00d7 49       		.uleb128 0x49
 5582 00d8 13       		.uleb128 0x13
 5583 00d9 00       		.byte	0
 5584 00da 00       		.byte	0
 5585 00db 14       		.uleb128 0x14
 5586 00dc 15       		.uleb128 0x15
 5587 00dd 01       		.byte	0x1
 5588 00de 27       		.uleb128 0x27
 5589 00df 0C       		.uleb128 0xc
 5590 00e0 49       		.uleb128 0x49
 5591 00e1 13       		.uleb128 0x13
 5592 00e2 01       		.uleb128 0x1
 5593 00e3 13       		.uleb128 0x13
 5594 00e4 00       		.byte	0
 5595 00e5 00       		.byte	0
 5596 00e6 15       		.uleb128 0x15
 5597 00e7 34       		.uleb128 0x34
 5598 00e8 00       		.byte	0
 5599 00e9 03       		.uleb128 0x3
 5600 00ea 0E       		.uleb128 0xe
 5601 00eb 3A       		.uleb128 0x3a
 5602 00ec 0B       		.uleb128 0xb
 5603 00ed 3B       		.uleb128 0x3b
 5604 00ee 0B       		.uleb128 0xb
 5605 00ef 49       		.uleb128 0x49
 5606 00f0 13       		.uleb128 0x13
 5607 00f1 02       		.uleb128 0x2
 5608 00f2 0A       		.uleb128 0xa
 5609 00f3 00       		.byte	0
 5610 00f4 00       		.byte	0
 5611 00f5 16       		.uleb128 0x16
 5612 00f6 34       		.uleb128 0x34
 5613 00f7 00       		.byte	0
 5614 00f8 03       		.uleb128 0x3
 5615 00f9 08       		.uleb128 0x8
 5616 00fa 3A       		.uleb128 0x3a
 5617 00fb 0B       		.uleb128 0xb
ARM GAS  G:\Users\Jaxb\AppData\Local\Temp\cc4KUlGg.s 			page 117


 5618 00fc 3B       		.uleb128 0x3b
 5619 00fd 0B       		.uleb128 0xb
 5620 00fe 49       		.uleb128 0x49
 5621 00ff 13       		.uleb128 0x13
 5622 0100 02       		.uleb128 0x2
 5623 0101 0A       		.uleb128 0xa
 5624 0102 00       		.byte	0
 5625 0103 00       		.byte	0
 5626 0104 17       		.uleb128 0x17
 5627 0105 2E       		.uleb128 0x2e
 5628 0106 01       		.byte	0x1
 5629 0107 3F       		.uleb128 0x3f
 5630 0108 0C       		.uleb128 0xc
 5631 0109 03       		.uleb128 0x3
 5632 010a 0E       		.uleb128 0xe
 5633 010b 3A       		.uleb128 0x3a
 5634 010c 0B       		.uleb128 0xb
 5635 010d 3B       		.uleb128 0x3b
 5636 010e 05       		.uleb128 0x5
 5637 010f 27       		.uleb128 0x27
 5638 0110 0C       		.uleb128 0xc
 5639 0111 11       		.uleb128 0x11
 5640 0112 01       		.uleb128 0x1
 5641 0113 12       		.uleb128 0x12
 5642 0114 01       		.uleb128 0x1
 5643 0115 40       		.uleb128 0x40
 5644 0116 06       		.uleb128 0x6
 5645 0117 9742     		.uleb128 0x2117
 5646 0119 0C       		.uleb128 0xc
 5647 011a 01       		.uleb128 0x1
 5648 011b 13       		.uleb128 0x13
 5649 011c 00       		.byte	0
 5650 011d 00       		.byte	0
 5651 011e 18       		.uleb128 0x18
 5652 011f 05       		.uleb128 0x5
 5653 0120 00       		.byte	0
 5654 0121 03       		.uleb128 0x3
 5655 0122 08       		.uleb128 0x8
 5656 0123 3A       		.uleb128 0x3a
 5657 0124 0B       		.uleb128 0xb
 5658 0125 3B       		.uleb128 0x3b
 5659 0126 05       		.uleb128 0x5
 5660 0127 49       		.uleb128 0x49
 5661 0128 13       		.uleb128 0x13
 5662 0129 02       		.uleb128 0x2
 5663 012a 0A       		.uleb128 0xa
 5664 012b 00       		.byte	0
 5665 012c 00       		.byte	0
 5666 012d 19       		.uleb128 0x19
 5667 012e 2E       		.uleb128 0x2e
 5668 012f 00       		.byte	0
 5669 0130 3F       		.uleb128 0x3f
 5670 0131 0C       		.uleb128 0xc
 5671 0132 03       		.uleb128 0x3
 5672 0133 0E       		.uleb128 0xe
 5673 0134 3A       		.uleb128 0x3a
 5674 0135 0B       		.uleb128 0xb
ARM GAS  G:\Users\Jaxb\AppData\Local\Temp\cc4KUlGg.s 			page 118


 5675 0136 3B       		.uleb128 0x3b
 5676 0137 05       		.uleb128 0x5
 5677 0138 27       		.uleb128 0x27
 5678 0139 0C       		.uleb128 0xc
 5679 013a 11       		.uleb128 0x11
 5680 013b 01       		.uleb128 0x1
 5681 013c 12       		.uleb128 0x12
 5682 013d 01       		.uleb128 0x1
 5683 013e 40       		.uleb128 0x40
 5684 013f 06       		.uleb128 0x6
 5685 0140 9742     		.uleb128 0x2117
 5686 0142 0C       		.uleb128 0xc
 5687 0143 00       		.byte	0
 5688 0144 00       		.byte	0
 5689 0145 1A       		.uleb128 0x1a
 5690 0146 2E       		.uleb128 0x2e
 5691 0147 00       		.byte	0
 5692 0148 3F       		.uleb128 0x3f
 5693 0149 0C       		.uleb128 0xc
 5694 014a 03       		.uleb128 0x3
 5695 014b 0E       		.uleb128 0xe
 5696 014c 3A       		.uleb128 0x3a
 5697 014d 0B       		.uleb128 0xb
 5698 014e 3B       		.uleb128 0x3b
 5699 014f 05       		.uleb128 0x5
 5700 0150 27       		.uleb128 0x27
 5701 0151 0C       		.uleb128 0xc
 5702 0152 11       		.uleb128 0x11
 5703 0153 01       		.uleb128 0x1
 5704 0154 12       		.uleb128 0x12
 5705 0155 01       		.uleb128 0x1
 5706 0156 40       		.uleb128 0x40
 5707 0157 06       		.uleb128 0x6
 5708 0158 9642     		.uleb128 0x2116
 5709 015a 0C       		.uleb128 0xc
 5710 015b 00       		.byte	0
 5711 015c 00       		.byte	0
 5712 015d 1B       		.uleb128 0x1b
 5713 015e 2E       		.uleb128 0x2e
 5714 015f 01       		.byte	0x1
 5715 0160 3F       		.uleb128 0x3f
 5716 0161 0C       		.uleb128 0xc
 5717 0162 03       		.uleb128 0x3
 5718 0163 0E       		.uleb128 0xe
 5719 0164 3A       		.uleb128 0x3a
 5720 0165 0B       		.uleb128 0xb
 5721 0166 3B       		.uleb128 0x3b
 5722 0167 05       		.uleb128 0x5
 5723 0168 27       		.uleb128 0x27
 5724 0169 0C       		.uleb128 0xc
 5725 016a 11       		.uleb128 0x11
 5726 016b 01       		.uleb128 0x1
 5727 016c 12       		.uleb128 0x12
 5728 016d 01       		.uleb128 0x1
 5729 016e 40       		.uleb128 0x40
 5730 016f 06       		.uleb128 0x6
 5731 0170 9642     		.uleb128 0x2116
ARM GAS  G:\Users\Jaxb\AppData\Local\Temp\cc4KUlGg.s 			page 119


 5732 0172 0C       		.uleb128 0xc
 5733 0173 01       		.uleb128 0x1
 5734 0174 13       		.uleb128 0x13
 5735 0175 00       		.byte	0
 5736 0176 00       		.byte	0
 5737 0177 1C       		.uleb128 0x1c
 5738 0178 2E       		.uleb128 0x2e
 5739 0179 01       		.byte	0x1
 5740 017a 3F       		.uleb128 0x3f
 5741 017b 0C       		.uleb128 0xc
 5742 017c 03       		.uleb128 0x3
 5743 017d 0E       		.uleb128 0xe
 5744 017e 3A       		.uleb128 0x3a
 5745 017f 0B       		.uleb128 0xb
 5746 0180 3B       		.uleb128 0x3b
 5747 0181 05       		.uleb128 0x5
 5748 0182 27       		.uleb128 0x27
 5749 0183 0C       		.uleb128 0xc
 5750 0184 49       		.uleb128 0x49
 5751 0185 13       		.uleb128 0x13
 5752 0186 11       		.uleb128 0x11
 5753 0187 01       		.uleb128 0x1
 5754 0188 12       		.uleb128 0x12
 5755 0189 01       		.uleb128 0x1
 5756 018a 40       		.uleb128 0x40
 5757 018b 06       		.uleb128 0x6
 5758 018c 9642     		.uleb128 0x2116
 5759 018e 0C       		.uleb128 0xc
 5760 018f 01       		.uleb128 0x1
 5761 0190 13       		.uleb128 0x13
 5762 0191 00       		.byte	0
 5763 0192 00       		.byte	0
 5764 0193 1D       		.uleb128 0x1d
 5765 0194 34       		.uleb128 0x34
 5766 0195 00       		.byte	0
 5767 0196 03       		.uleb128 0x3
 5768 0197 0E       		.uleb128 0xe
 5769 0198 3A       		.uleb128 0x3a
 5770 0199 0B       		.uleb128 0xb
 5771 019a 3B       		.uleb128 0x3b
 5772 019b 05       		.uleb128 0x5
 5773 019c 49       		.uleb128 0x49
 5774 019d 13       		.uleb128 0x13
 5775 019e 02       		.uleb128 0x2
 5776 019f 0A       		.uleb128 0xa
 5777 01a0 00       		.byte	0
 5778 01a1 00       		.byte	0
 5779 01a2 1E       		.uleb128 0x1e
 5780 01a3 34       		.uleb128 0x34
 5781 01a4 00       		.byte	0
 5782 01a5 03       		.uleb128 0x3
 5783 01a6 08       		.uleb128 0x8
 5784 01a7 3A       		.uleb128 0x3a
 5785 01a8 0B       		.uleb128 0xb
 5786 01a9 3B       		.uleb128 0x3b
 5787 01aa 05       		.uleb128 0x5
 5788 01ab 49       		.uleb128 0x49
ARM GAS  G:\Users\Jaxb\AppData\Local\Temp\cc4KUlGg.s 			page 120


 5789 01ac 13       		.uleb128 0x13
 5790 01ad 02       		.uleb128 0x2
 5791 01ae 0A       		.uleb128 0xa
 5792 01af 00       		.byte	0
 5793 01b0 00       		.byte	0
 5794 01b1 1F       		.uleb128 0x1f
 5795 01b2 0A       		.uleb128 0xa
 5796 01b3 00       		.byte	0
 5797 01b4 03       		.uleb128 0x3
 5798 01b5 0E       		.uleb128 0xe
 5799 01b6 3A       		.uleb128 0x3a
 5800 01b7 0B       		.uleb128 0xb
 5801 01b8 3B       		.uleb128 0x3b
 5802 01b9 05       		.uleb128 0x5
 5803 01ba 11       		.uleb128 0x11
 5804 01bb 01       		.uleb128 0x1
 5805 01bc 00       		.byte	0
 5806 01bd 00       		.byte	0
 5807 01be 20       		.uleb128 0x20
 5808 01bf 05       		.uleb128 0x5
 5809 01c0 00       		.byte	0
 5810 01c1 03       		.uleb128 0x3
 5811 01c2 0E       		.uleb128 0xe
 5812 01c3 3A       		.uleb128 0x3a
 5813 01c4 0B       		.uleb128 0xb
 5814 01c5 3B       		.uleb128 0x3b
 5815 01c6 05       		.uleb128 0x5
 5816 01c7 49       		.uleb128 0x49
 5817 01c8 13       		.uleb128 0x13
 5818 01c9 02       		.uleb128 0x2
 5819 01ca 0A       		.uleb128 0xa
 5820 01cb 00       		.byte	0
 5821 01cc 00       		.byte	0
 5822 01cd 21       		.uleb128 0x21
 5823 01ce 0B       		.uleb128 0xb
 5824 01cf 01       		.byte	0x1
 5825 01d0 11       		.uleb128 0x11
 5826 01d1 01       		.uleb128 0x1
 5827 01d2 12       		.uleb128 0x12
 5828 01d3 01       		.uleb128 0x1
 5829 01d4 00       		.byte	0
 5830 01d5 00       		.byte	0
 5831 01d6 22       		.uleb128 0x22
 5832 01d7 0B       		.uleb128 0xb
 5833 01d8 01       		.byte	0x1
 5834 01d9 11       		.uleb128 0x11
 5835 01da 01       		.uleb128 0x1
 5836 01db 12       		.uleb128 0x12
 5837 01dc 01       		.uleb128 0x1
 5838 01dd 01       		.uleb128 0x1
 5839 01de 13       		.uleb128 0x13
 5840 01df 00       		.byte	0
 5841 01e0 00       		.byte	0
 5842 01e1 23       		.uleb128 0x23
 5843 01e2 2E       		.uleb128 0x2e
 5844 01e3 01       		.byte	0x1
 5845 01e4 3F       		.uleb128 0x3f
ARM GAS  G:\Users\Jaxb\AppData\Local\Temp\cc4KUlGg.s 			page 121


 5846 01e5 0C       		.uleb128 0xc
 5847 01e6 03       		.uleb128 0x3
 5848 01e7 0E       		.uleb128 0xe
 5849 01e8 3A       		.uleb128 0x3a
 5850 01e9 0B       		.uleb128 0xb
 5851 01ea 3B       		.uleb128 0x3b
 5852 01eb 0B       		.uleb128 0xb
 5853 01ec 27       		.uleb128 0x27
 5854 01ed 0C       		.uleb128 0xc
 5855 01ee 49       		.uleb128 0x49
 5856 01ef 13       		.uleb128 0x13
 5857 01f0 11       		.uleb128 0x11
 5858 01f1 01       		.uleb128 0x1
 5859 01f2 12       		.uleb128 0x12
 5860 01f3 01       		.uleb128 0x1
 5861 01f4 40       		.uleb128 0x40
 5862 01f5 06       		.uleb128 0x6
 5863 01f6 9642     		.uleb128 0x2116
 5864 01f8 0C       		.uleb128 0xc
 5865 01f9 01       		.uleb128 0x1
 5866 01fa 13       		.uleb128 0x13
 5867 01fb 00       		.byte	0
 5868 01fc 00       		.byte	0
 5869 01fd 24       		.uleb128 0x24
 5870 01fe 05       		.uleb128 0x5
 5871 01ff 00       		.byte	0
 5872 0200 03       		.uleb128 0x3
 5873 0201 0E       		.uleb128 0xe
 5874 0202 3A       		.uleb128 0x3a
 5875 0203 0B       		.uleb128 0xb
 5876 0204 3B       		.uleb128 0x3b
 5877 0205 0B       		.uleb128 0xb
 5878 0206 49       		.uleb128 0x49
 5879 0207 13       		.uleb128 0x13
 5880 0208 02       		.uleb128 0x2
 5881 0209 0A       		.uleb128 0xa
 5882 020a 00       		.byte	0
 5883 020b 00       		.byte	0
 5884 020c 25       		.uleb128 0x25
 5885 020d 0B       		.uleb128 0xb
 5886 020e 01       		.byte	0x1
 5887 020f 55       		.uleb128 0x55
 5888 0210 06       		.uleb128 0x6
 5889 0211 01       		.uleb128 0x1
 5890 0212 13       		.uleb128 0x13
 5891 0213 00       		.byte	0
 5892 0214 00       		.byte	0
 5893 0215 26       		.uleb128 0x26
 5894 0216 05       		.uleb128 0x5
 5895 0217 00       		.byte	0
 5896 0218 03       		.uleb128 0x3
 5897 0219 08       		.uleb128 0x8
 5898 021a 3A       		.uleb128 0x3a
 5899 021b 0B       		.uleb128 0xb
 5900 021c 3B       		.uleb128 0x3b
 5901 021d 0B       		.uleb128 0xb
 5902 021e 49       		.uleb128 0x49
ARM GAS  G:\Users\Jaxb\AppData\Local\Temp\cc4KUlGg.s 			page 122


 5903 021f 13       		.uleb128 0x13
 5904 0220 02       		.uleb128 0x2
 5905 0221 0A       		.uleb128 0xa
 5906 0222 00       		.byte	0
 5907 0223 00       		.byte	0
 5908 0224 27       		.uleb128 0x27
 5909 0225 2E       		.uleb128 0x2e
 5910 0226 01       		.byte	0x1
 5911 0227 03       		.uleb128 0x3
 5912 0228 0E       		.uleb128 0xe
 5913 0229 3A       		.uleb128 0x3a
 5914 022a 0B       		.uleb128 0xb
 5915 022b 3B       		.uleb128 0x3b
 5916 022c 0B       		.uleb128 0xb
 5917 022d 27       		.uleb128 0x27
 5918 022e 0C       		.uleb128 0xc
 5919 022f 11       		.uleb128 0x11
 5920 0230 01       		.uleb128 0x1
 5921 0231 12       		.uleb128 0x12
 5922 0232 01       		.uleb128 0x1
 5923 0233 40       		.uleb128 0x40
 5924 0234 06       		.uleb128 0x6
 5925 0235 9742     		.uleb128 0x2117
 5926 0237 0C       		.uleb128 0xc
 5927 0238 00       		.byte	0
 5928 0239 00       		.byte	0
 5929 023a 00       		.byte	0
 5930              		.section	.debug_loc,"",%progbits
 5931              	.Ldebug_loc0:
 5932              	.LLST9:
 5933 0000 10160000 		.4byte	.LFB18-.Ltext0
 5934 0004 12160000 		.4byte	.LCFI42-.Ltext0
 5935 0008 0200     		.2byte	0x2
 5936 000a 7D       		.byte	0x7d
 5937 000b 00       		.sleb128 0
 5938 000c 12160000 		.4byte	.LCFI42-.Ltext0
 5939 0010 14160000 		.4byte	.LCFI43-.Ltext0
 5940 0014 0200     		.2byte	0x2
 5941 0016 7D       		.byte	0x7d
 5942 0017 04       		.sleb128 4
 5943 0018 14160000 		.4byte	.LCFI43-.Ltext0
 5944 001c 16160000 		.4byte	.LCFI44-.Ltext0
 5945 0020 0200     		.2byte	0x2
 5946 0022 7D       		.byte	0x7d
 5947 0023 10       		.sleb128 16
 5948 0024 16160000 		.4byte	.LCFI44-.Ltext0
 5949 0028 22160000 		.4byte	.LCFI45-.Ltext0
 5950 002c 0200     		.2byte	0x2
 5951 002e 77       		.byte	0x77
 5952 002f 10       		.sleb128 16
 5953 0030 22160000 		.4byte	.LCFI45-.Ltext0
 5954 0034 24160000 		.4byte	.LCFI46-.Ltext0
 5955 0038 0200     		.2byte	0x2
 5956 003a 77       		.byte	0x77
 5957 003b 04       		.sleb128 4
 5958 003c 24160000 		.4byte	.LCFI46-.Ltext0
 5959 0040 26160000 		.4byte	.LCFI47-.Ltext0
ARM GAS  G:\Users\Jaxb\AppData\Local\Temp\cc4KUlGg.s 			page 123


 5960 0044 0200     		.2byte	0x2
 5961 0046 7D       		.byte	0x7d
 5962 0047 04       		.sleb128 4
 5963 0048 26160000 		.4byte	.LCFI47-.Ltext0
 5964 004c 2C160000 		.4byte	.LFE18-.Ltext0
 5965 0050 0200     		.2byte	0x2
 5966 0052 7D       		.byte	0x7d
 5967 0053 00       		.sleb128 0
 5968 0054 00000000 		.4byte	0
 5969 0058 00000000 		.4byte	0
 5970              	.LLST8:
 5971 005c F0150000 		.4byte	.LFB17-.Ltext0
 5972 0060 F2150000 		.4byte	.LCFI38-.Ltext0
 5973 0064 0200     		.2byte	0x2
 5974 0066 7D       		.byte	0x7d
 5975 0067 00       		.sleb128 0
 5976 0068 F2150000 		.4byte	.LCFI38-.Ltext0
 5977 006c F4150000 		.4byte	.LCFI39-.Ltext0
 5978 0070 0200     		.2byte	0x2
 5979 0072 7D       		.byte	0x7d
 5980 0073 04       		.sleb128 4
 5981 0074 F4150000 		.4byte	.LCFI39-.Ltext0
 5982 0078 04160000 		.4byte	.LCFI40-.Ltext0
 5983 007c 0200     		.2byte	0x2
 5984 007e 77       		.byte	0x77
 5985 007f 04       		.sleb128 4
 5986 0080 04160000 		.4byte	.LCFI40-.Ltext0
 5987 0084 06160000 		.4byte	.LCFI41-.Ltext0
 5988 0088 0200     		.2byte	0x2
 5989 008a 7D       		.byte	0x7d
 5990 008b 04       		.sleb128 4
 5991 008c 06160000 		.4byte	.LCFI41-.Ltext0
 5992 0090 10160000 		.4byte	.LFE17-.Ltext0
 5993 0094 0200     		.2byte	0x2
 5994 0096 7D       		.byte	0x7d
 5995 0097 00       		.sleb128 0
 5996 0098 00000000 		.4byte	0
 5997 009c 00000000 		.4byte	0
 5998              	.LLST7:
 5999 00a0 D4150000 		.4byte	.LFB16-.Ltext0
 6000 00a4 D6150000 		.4byte	.LCFI36-.Ltext0
 6001 00a8 0200     		.2byte	0x2
 6002 00aa 7D       		.byte	0x7d
 6003 00ab 00       		.sleb128 0
 6004 00ac D6150000 		.4byte	.LCFI36-.Ltext0
 6005 00b0 D8150000 		.4byte	.LCFI37-.Ltext0
 6006 00b4 0200     		.2byte	0x2
 6007 00b6 7D       		.byte	0x7d
 6008 00b7 08       		.sleb128 8
 6009 00b8 D8150000 		.4byte	.LCFI37-.Ltext0
 6010 00bc F0150000 		.4byte	.LFE16-.Ltext0
 6011 00c0 0200     		.2byte	0x2
 6012 00c2 77       		.byte	0x77
 6013 00c3 08       		.sleb128 8
 6014 00c4 00000000 		.4byte	0
 6015 00c8 00000000 		.4byte	0
 6016              	.LLST6:
ARM GAS  G:\Users\Jaxb\AppData\Local\Temp\cc4KUlGg.s 			page 124


 6017 00cc 90150000 		.4byte	.LFB15-.Ltext0
 6018 00d0 92150000 		.4byte	.LCFI31-.Ltext0
 6019 00d4 0200     		.2byte	0x2
 6020 00d6 7D       		.byte	0x7d
 6021 00d7 00       		.sleb128 0
 6022 00d8 92150000 		.4byte	.LCFI31-.Ltext0
 6023 00dc 94150000 		.4byte	.LCFI32-.Ltext0
 6024 00e0 0200     		.2byte	0x2
 6025 00e2 7D       		.byte	0x7d
 6026 00e3 08       		.sleb128 8
 6027 00e4 94150000 		.4byte	.LCFI32-.Ltext0
 6028 00e8 96150000 		.4byte	.LCFI33-.Ltext0
 6029 00ec 0200     		.2byte	0x2
 6030 00ee 7D       		.byte	0x7d
 6031 00ef 10       		.sleb128 16
 6032 00f0 96150000 		.4byte	.LCFI33-.Ltext0
 6033 00f4 C2150000 		.4byte	.LCFI34-.Ltext0
 6034 00f8 0200     		.2byte	0x2
 6035 00fa 77       		.byte	0x77
 6036 00fb 10       		.sleb128 16
 6037 00fc C2150000 		.4byte	.LCFI34-.Ltext0
 6038 0100 C4150000 		.4byte	.LCFI35-.Ltext0
 6039 0104 0200     		.2byte	0x2
 6040 0106 77       		.byte	0x77
 6041 0107 08       		.sleb128 8
 6042 0108 C4150000 		.4byte	.LCFI35-.Ltext0
 6043 010c D4150000 		.4byte	.LFE15-.Ltext0
 6044 0110 0200     		.2byte	0x2
 6045 0112 7D       		.byte	0x7d
 6046 0113 08       		.sleb128 8
 6047 0114 00000000 		.4byte	0
 6048 0118 00000000 		.4byte	0
 6049              	.LLST5:
 6050 011c F4140000 		.4byte	.LFB14-.Ltext0
 6051 0120 F6140000 		.4byte	.LCFI26-.Ltext0
 6052 0124 0200     		.2byte	0x2
 6053 0126 7D       		.byte	0x7d
 6054 0127 00       		.sleb128 0
 6055 0128 F6140000 		.4byte	.LCFI26-.Ltext0
 6056 012c F8140000 		.4byte	.LCFI27-.Ltext0
 6057 0130 0200     		.2byte	0x2
 6058 0132 7D       		.byte	0x7d
 6059 0133 08       		.sleb128 8
 6060 0134 F8140000 		.4byte	.LCFI27-.Ltext0
 6061 0138 FA140000 		.4byte	.LCFI28-.Ltext0
 6062 013c 0200     		.2byte	0x2
 6063 013e 7D       		.byte	0x7d
 6064 013f 20       		.sleb128 32
 6065 0140 FA140000 		.4byte	.LCFI28-.Ltext0
 6066 0144 7E150000 		.4byte	.LCFI29-.Ltext0
 6067 0148 0200     		.2byte	0x2
 6068 014a 77       		.byte	0x77
 6069 014b 10       		.sleb128 16
 6070 014c 7E150000 		.4byte	.LCFI29-.Ltext0
 6071 0150 80150000 		.4byte	.LCFI30-.Ltext0
 6072 0154 0200     		.2byte	0x2
 6073 0156 77       		.byte	0x77
ARM GAS  G:\Users\Jaxb\AppData\Local\Temp\cc4KUlGg.s 			page 125


 6074 0157 08       		.sleb128 8
 6075 0158 80150000 		.4byte	.LCFI30-.Ltext0
 6076 015c 90150000 		.4byte	.LFE14-.Ltext0
 6077 0160 0200     		.2byte	0x2
 6078 0162 7D       		.byte	0x7d
 6079 0163 08       		.sleb128 8
 6080 0164 00000000 		.4byte	0
 6081 0168 00000000 		.4byte	0
 6082              	.LLST4:
 6083 016c AC130000 		.4byte	.LFB13-.Ltext0
 6084 0170 AE130000 		.4byte	.LCFI21-.Ltext0
 6085 0174 0200     		.2byte	0x2
 6086 0176 7D       		.byte	0x7d
 6087 0177 00       		.sleb128 0
 6088 0178 AE130000 		.4byte	.LCFI21-.Ltext0
 6089 017c B0130000 		.4byte	.LCFI22-.Ltext0
 6090 0180 0200     		.2byte	0x2
 6091 0182 7D       		.byte	0x7d
 6092 0183 08       		.sleb128 8
 6093 0184 B0130000 		.4byte	.LCFI22-.Ltext0
 6094 0188 B2130000 		.4byte	.LCFI23-.Ltext0
 6095 018c 0200     		.2byte	0x2
 6096 018e 7D       		.byte	0x7d
 6097 018f 18       		.sleb128 24
 6098 0190 B2130000 		.4byte	.LCFI23-.Ltext0
 6099 0194 C2140000 		.4byte	.LCFI24-.Ltext0
 6100 0198 0200     		.2byte	0x2
 6101 019a 77       		.byte	0x77
 6102 019b 18       		.sleb128 24
 6103 019c C2140000 		.4byte	.LCFI24-.Ltext0
 6104 01a0 C4140000 		.4byte	.LCFI25-.Ltext0
 6105 01a4 0200     		.2byte	0x2
 6106 01a6 77       		.byte	0x77
 6107 01a7 08       		.sleb128 8
 6108 01a8 C4140000 		.4byte	.LCFI25-.Ltext0
 6109 01ac F4140000 		.4byte	.LFE13-.Ltext0
 6110 01b0 0200     		.2byte	0x2
 6111 01b2 7D       		.byte	0x7d
 6112 01b3 08       		.sleb128 8
 6113 01b4 00000000 		.4byte	0
 6114 01b8 00000000 		.4byte	0
 6115              	.LLST3:
 6116 01bc 760A0000 		.4byte	.LFB12-.Ltext0
 6117 01c0 780A0000 		.4byte	.LCFI16-.Ltext0
 6118 01c4 0200     		.2byte	0x2
 6119 01c6 7D       		.byte	0x7d
 6120 01c7 00       		.sleb128 0
 6121 01c8 780A0000 		.4byte	.LCFI16-.Ltext0
 6122 01cc 7A0A0000 		.4byte	.LCFI17-.Ltext0
 6123 01d0 0200     		.2byte	0x2
 6124 01d2 7D       		.byte	0x7d
 6125 01d3 14       		.sleb128 20
 6126 01d4 7A0A0000 		.4byte	.LCFI17-.Ltext0
 6127 01d8 7C0A0000 		.4byte	.LCFI18-.Ltext0
 6128 01dc 0300     		.2byte	0x3
 6129 01de 7D       		.byte	0x7d
 6130 01df 8001     		.sleb128 128
ARM GAS  G:\Users\Jaxb\AppData\Local\Temp\cc4KUlGg.s 			page 126


 6131 01e1 7C0A0000 		.4byte	.LCFI18-.Ltext0
 6132 01e5 92130000 		.4byte	.LCFI19-.Ltext0
 6133 01e9 0300     		.2byte	0x3
 6134 01eb 77       		.byte	0x77
 6135 01ec E000     		.sleb128 96
 6136 01ee 92130000 		.4byte	.LCFI19-.Ltext0
 6137 01f2 94130000 		.4byte	.LCFI20-.Ltext0
 6138 01f6 0200     		.2byte	0x2
 6139 01f8 77       		.byte	0x77
 6140 01f9 14       		.sleb128 20
 6141 01fa 94130000 		.4byte	.LCFI20-.Ltext0
 6142 01fe AC130000 		.4byte	.LFE12-.Ltext0
 6143 0202 0200     		.2byte	0x2
 6144 0204 7D       		.byte	0x7d
 6145 0205 14       		.sleb128 20
 6146 0206 00000000 		.4byte	0
 6147 020a 00000000 		.4byte	0
 6148              	.LLST2:
 6149 020e 88030000 		.4byte	.LFB11-.Ltext0
 6150 0212 8A030000 		.4byte	.LCFI11-.Ltext0
 6151 0216 0200     		.2byte	0x2
 6152 0218 7D       		.byte	0x7d
 6153 0219 00       		.sleb128 0
 6154 021a 8A030000 		.4byte	.LCFI11-.Ltext0
 6155 021e 8C030000 		.4byte	.LCFI12-.Ltext0
 6156 0222 0200     		.2byte	0x2
 6157 0224 7D       		.byte	0x7d
 6158 0225 0C       		.sleb128 12
 6159 0226 8C030000 		.4byte	.LCFI12-.Ltext0
 6160 022a 8E030000 		.4byte	.LCFI13-.Ltext0
 6161 022e 0300     		.2byte	0x3
 6162 0230 7D       		.byte	0x7d
 6163 0231 E800     		.sleb128 104
 6164 0233 8E030000 		.4byte	.LCFI13-.Ltext0
 6165 0237 720A0000 		.4byte	.LCFI14-.Ltext0
 6166 023b 0300     		.2byte	0x3
 6167 023d 77       		.byte	0x77
 6168 023e E800     		.sleb128 104
 6169 0240 720A0000 		.4byte	.LCFI14-.Ltext0
 6170 0244 740A0000 		.4byte	.LCFI15-.Ltext0
 6171 0248 0200     		.2byte	0x2
 6172 024a 77       		.byte	0x77
 6173 024b 0C       		.sleb128 12
 6174 024c 740A0000 		.4byte	.LCFI15-.Ltext0
 6175 0250 760A0000 		.4byte	.LFE11-.Ltext0
 6176 0254 0200     		.2byte	0x2
 6177 0256 7D       		.byte	0x7d
 6178 0257 0C       		.sleb128 12
 6179 0258 00000000 		.4byte	0
 6180 025c 00000000 		.4byte	0
 6181              	.LLST1:
 6182 0260 1E000000 		.4byte	.LFB10-.Ltext0
 6183 0264 20000000 		.4byte	.LCFI6-.Ltext0
 6184 0268 0200     		.2byte	0x2
 6185 026a 7D       		.byte	0x7d
 6186 026b 00       		.sleb128 0
 6187 026c 20000000 		.4byte	.LCFI6-.Ltext0
ARM GAS  G:\Users\Jaxb\AppData\Local\Temp\cc4KUlGg.s 			page 127


 6188 0270 22000000 		.4byte	.LCFI7-.Ltext0
 6189 0274 0200     		.2byte	0x2
 6190 0276 7D       		.byte	0x7d
 6191 0277 08       		.sleb128 8
 6192 0278 22000000 		.4byte	.LCFI7-.Ltext0
 6193 027c 24000000 		.4byte	.LCFI8-.Ltext0
 6194 0280 0300     		.2byte	0x3
 6195 0282 7D       		.byte	0x7d
 6196 0283 C800     		.sleb128 72
 6197 0285 24000000 		.4byte	.LCFI8-.Ltext0
 6198 0289 5E030000 		.4byte	.LCFI9-.Ltext0
 6199 028d 0300     		.2byte	0x3
 6200 028f 77       		.byte	0x77
 6201 0290 C000     		.sleb128 64
 6202 0292 5E030000 		.4byte	.LCFI9-.Ltext0
 6203 0296 60030000 		.4byte	.LCFI10-.Ltext0
 6204 029a 0200     		.2byte	0x2
 6205 029c 77       		.byte	0x77
 6206 029d 08       		.sleb128 8
 6207 029e 60030000 		.4byte	.LCFI10-.Ltext0
 6208 02a2 88030000 		.4byte	.LFE10-.Ltext0
 6209 02a6 0200     		.2byte	0x2
 6210 02a8 7D       		.byte	0x7d
 6211 02a9 08       		.sleb128 8
 6212 02aa 00000000 		.4byte	0
 6213 02ae 00000000 		.4byte	0
 6214              	.LLST0:
 6215 02b2 00000000 		.4byte	.LFB0-.Ltext0
 6216 02b6 02000000 		.4byte	.LCFI0-.Ltext0
 6217 02ba 0200     		.2byte	0x2
 6218 02bc 7D       		.byte	0x7d
 6219 02bd 00       		.sleb128 0
 6220 02be 02000000 		.4byte	.LCFI0-.Ltext0
 6221 02c2 04000000 		.4byte	.LCFI1-.Ltext0
 6222 02c6 0200     		.2byte	0x2
 6223 02c8 7D       		.byte	0x7d
 6224 02c9 04       		.sleb128 4
 6225 02ca 04000000 		.4byte	.LCFI1-.Ltext0
 6226 02ce 06000000 		.4byte	.LCFI2-.Ltext0
 6227 02d2 0200     		.2byte	0x2
 6228 02d4 7D       		.byte	0x7d
 6229 02d5 10       		.sleb128 16
 6230 02d6 06000000 		.4byte	.LCFI2-.Ltext0
 6231 02da 18000000 		.4byte	.LCFI3-.Ltext0
 6232 02de 0200     		.2byte	0x2
 6233 02e0 77       		.byte	0x77
 6234 02e1 10       		.sleb128 16
 6235 02e2 18000000 		.4byte	.LCFI3-.Ltext0
 6236 02e6 1A000000 		.4byte	.LCFI4-.Ltext0
 6237 02ea 0200     		.2byte	0x2
 6238 02ec 77       		.byte	0x77
 6239 02ed 04       		.sleb128 4
 6240 02ee 1A000000 		.4byte	.LCFI4-.Ltext0
 6241 02f2 1C000000 		.4byte	.LCFI5-.Ltext0
 6242 02f6 0200     		.2byte	0x2
 6243 02f8 7D       		.byte	0x7d
 6244 02f9 04       		.sleb128 4
ARM GAS  G:\Users\Jaxb\AppData\Local\Temp\cc4KUlGg.s 			page 128


 6245 02fa 1C000000 		.4byte	.LCFI5-.Ltext0
 6246 02fe 1E000000 		.4byte	.LFE0-.Ltext0
 6247 0302 0200     		.2byte	0x2
 6248 0304 7D       		.byte	0x7d
 6249 0305 00       		.sleb128 0
 6250 0306 00000000 		.4byte	0
 6251 030a 00000000 		.4byte	0
 6252              		.section	.debug_aranges,"",%progbits
 6253 0000 1C000000 		.4byte	0x1c
 6254 0004 0200     		.2byte	0x2
 6255 0006 00000000 		.4byte	.Ldebug_info0
 6256 000a 04       		.byte	0x4
 6257 000b 00       		.byte	0
 6258 000c 0000     		.2byte	0
 6259 000e 0000     		.2byte	0
 6260 0010 00000000 		.4byte	.Ltext0
 6261 0014 2C160000 		.4byte	.Letext0-.Ltext0
 6262 0018 00000000 		.4byte	0
 6263 001c 00000000 		.4byte	0
 6264              		.section	.debug_ranges,"",%progbits
 6265              	.Ldebug_ranges0:
 6266 0000 2E080000 		.4byte	.LBB6-.Ltext0
 6267 0004 76080000 		.4byte	.LBE6-.Ltext0
 6268 0008 8A080000 		.4byte	.LBB7-.Ltext0
 6269 000c 8C080000 		.4byte	.LBE7-.Ltext0
 6270 0010 00000000 		.4byte	0
 6271 0014 00000000 		.4byte	0
 6272              		.section	.debug_line,"",%progbits
 6273              	.Ldebug_line0:
 6274 0000 32040000 		.section	.debug_str,"MS",%progbits,1
 6274      0200EC00 
 6274      00000201 
 6274      FB0E0D00 
 6274      01010101 
 6275              	.LASF137:
 6276 0000 646C6D6F 		.ascii	"dlmodule_load_relocated_object\000"
 6276      64756C65 
 6276      5F6C6F61 
 6276      645F7265 
 6276      6C6F6361 
 6277              	.LASF152:
 6278 001f 636F756E 		.ascii	"count\000"
 6278      7400
 6279              	.LASF40:
 6280 0025 73685F61 		.ascii	"sh_addralign\000"
 6280      64647261 
 6280      6C69676E 
 6280      00
 6281              	.LASF90:
 6282 0032 73757370 		.ascii	"suspend_list\000"
 6282      656E645F 
 6282      6C697374 
 6282      00
 6283              	.LASF57:
 6284 003f 705F7661 		.ascii	"p_vaddr\000"
 6284      64647200 
 6285              	.LASF50:
ARM GAS  G:\Users\Jaxb\AppData\Local\Temp\cc4KUlGg.s 			page 129


 6286 0047 73745F73 		.ascii	"st_shndx\000"
 6286      686E6478 
 6286      00
 6287              	.LASF79:
 6288 0050 5441534B 		.ascii	"TASK_PRIO_TYPE\000"
 6288      5F505249 
 6288      4F5F5459 
 6288      504500
 6289              	.LASF119:
 6290 005f 696E6974 		.ascii	"init_func\000"
 6290      5F66756E 
 6290      6300
 6291              	.LASF110:
 6292 0069 73746174 		.ascii	"stat\000"
 6292      00
 6293              	.LASF123:
 6294 006e 73796D74 		.ascii	"symtab\000"
 6294      616200
 6295              	.LASF157:
 6296 0075 77686572 		.ascii	"where\000"
 6296      6500
 6297              	.LASF48:
 6298 007b 73745F69 		.ascii	"st_info\000"
 6298      6E666F00 
 6299              	.LASF156:
 6300 0083 73796D5F 		.ascii	"sym_val\000"
 6300      76616C00 
 6301              	.LASF66:
 6302 008b 70726576 		.ascii	"prev\000"
 6302      00
 6303              	.LASF42:
 6304 0090 456C6633 		.ascii	"Elf32_Shdr\000"
 6304      325F5368 
 6304      647200
 6305              	.LASF102:
 6306 009b 74797065 		.ascii	"type\000"
 6306      00
 6307              	.LASF126:
 6308 00a0 6C6F6E67 		.ascii	"long int\000"
 6308      20696E74 
 6308      00
 6309              	.LASF94:
 6310 00a9 61747472 		.ascii	"attribution\000"
 6310      69627574 
 6310      696F6E00 
 6311              	.LASF18:
 6312 00b5 655F7479 		.ascii	"e_type\000"
 6312      706500
 6313              	.LASF99:
 6314 00bc 72745F6D 		.ascii	"rt_module_symtab\000"
 6314      6F64756C 
 6314      655F7379 
 6314      6D746162 
 6314      00
 6315              	.LASF11:
 6316 00cd 6C6F6E67 		.ascii	"long long unsigned int\000"
 6316      206C6F6E 
ARM GAS  G:\Users\Jaxb\AppData\Local\Temp\cc4KUlGg.s 			page 130


 6316      6720756E 
 6316      7369676E 
 6316      65642069 
 6317              	.LASF62:
 6318 00e4 705F616C 		.ascii	"p_align\000"
 6318      69676E00 
 6319              	.LASF37:
 6320 00ec 73685F73 		.ascii	"sh_size\000"
 6320      697A6500 
 6321              	.LASF100:
 6322 00f4 61646472 		.ascii	"addr\000"
 6322      00
 6323              	.LASF132:
 6324 00f9 6D6F6475 		.ascii	"module\000"
 6324      6C6500
 6325              	.LASF120:
 6326 0100 636C6561 		.ascii	"cleanup_func\000"
 6326      6E75705F 
 6326      66756E63 
 6326      00
 6327              	.LASF35:
 6328 010d 73685F61 		.ascii	"sh_addr\000"
 6328      64647200 
 6329              	.LASF161:
 6330 0115 6C6F7765 		.ascii	"lower\000"
 6330      7200
 6331              	.LASF77:
 6332 011b 5441534B 		.ascii	"TASK_STATE\000"
 6332      5F535441 
 6332      544500
 6333              	.LASF13:
 6334 0126 456C6633 		.ascii	"Elf32_Off\000"
 6334      325F4F66 
 6334      6600
 6335              	.LASF65:
 6336 0130 6E657874 		.ascii	"next\000"
 6336      00
 6337              	.LASF81:
 6338 0135 7461736B 		.ascii	"task_control_block_struct\000"
 6338      5F636F6E 
 6338      74726F6C 
 6338      5F626C6F 
 6338      636B5F73 
 6339              	.LASF2:
 6340 014f 6C6F6E67 		.ascii	"long long int\000"
 6340      206C6F6E 
 6340      6720696E 
 6340      7400
 6341              	.LASF0:
 6342 015d 7369676E 		.ascii	"signed char\000"
 6342      65642063 
 6342      68617200 
 6343              	.LASF86:
 6344 0169 72657365 		.ascii	"reserve_prio\000"
 6344      7276655F 
 6344      7072696F 
 6344      00
ARM GAS  G:\Users\Jaxb\AppData\Local\Temp\cc4KUlGg.s 			page 131


 6345              	.LASF59:
 6346 0176 705F6669 		.ascii	"p_filesz\000"
 6346      6C65737A 
 6346      00
 6347              	.LASF143:
 6348 017f 6D6F6475 		.ascii	"module_size\000"
 6348      6C655F73 
 6348      697A6500 
 6349              	.LASF136:
 6350 018b 6D6F6475 		.ascii	"module_ptr\000"
 6350      6C655F70 
 6350      747200
 6351              	.LASF15:
 6352 0196 456C6633 		.ascii	"Elf32_Word\000"
 6352      325F576F 
 6352      726400
 6353              	.LASF158:
 6354 01a1 61646465 		.ascii	"addend\000"
 6354      6E6400
 6355              	.LASF108:
 6356 01a8 70617265 		.ascii	"parent\000"
 6356      6E7400
 6357              	.LASF30:
 6358 01af 655F7368 		.ascii	"e_shstrndx\000"
 6358      7374726E 
 6358      647800
 6359              	.LASF107:
 6360 01ba 72745F64 		.ascii	"rt_dlmodule\000"
 6360      6C6D6F64 
 6360      756C6500 
 6361              	.LASF127:
 6362 01c6 6D6F6475 		.ascii	"module_buffer\000"
 6362      6C655F62 
 6362      75666665 
 6362      7200
 6363              	.LASF128:
 6364 01d4 636C6561 		.ascii	"clear_module_buffer\000"
 6364      725F6D6F 
 6364      64756C65 
 6364      5F627566 
 6364      66657200 
 6365              	.LASF160:
 6366 01e8 75707065 		.ascii	"upper\000"
 6366      7200
 6367              	.LASF89:
 6368 01ee 73616D65 		.ascii	"same_prio_list\000"
 6368      5F707269 
 6368      6F5F6C69 
 6368      737400
 6369              	.LASF46:
 6370 01fd 73745F76 		.ascii	"st_value\000"
 6370      616C7565 
 6370      00
 6371              	.LASF121:
 6372 0206 6E726566 		.ascii	"nref\000"
 6372      00
 6373              	.LASF58:
ARM GAS  G:\Users\Jaxb\AppData\Local\Temp\cc4KUlGg.s 			page 132


 6374 020b 705F7061 		.ascii	"p_paddr\000"
 6374      64647200 
 6375              	.LASF112:
 6376 0213 6D61696E 		.ascii	"main_thread\000"
 6376      5F746872 
 6376      65616400 
 6377              	.LASF6:
 6378 021f 55494E54 		.ascii	"UINT16\000"
 6378      313600
 6379              	.LASF151:
 6380 0226 756E736F 		.ascii	"unsolved\000"
 6380      6C766564 
 6380      00
 6381              	.LASF60:
 6382 022f 705F6D65 		.ascii	"p_memsz\000"
 6382      6D737A00 
 6383              	.LASF140:
 6384 0237 6273735F 		.ascii	"bss_addr\000"
 6384      61646472 
 6384      00
 6385              	.LASF38:
 6386 0240 73685F6C 		.ascii	"sh_link\000"
 6386      696E6B00 
 6387              	.LASF73:
 6388 0248 53544154 		.ascii	"STATE_WAIT_MESSAGE_QUEUE_TIMEOUT\000"
 6388      455F5741 
 6388      49545F4D 
 6388      45535341 
 6388      47455F51 
 6389              	.LASF43:
 6390 0269 656C6668 		.ascii	"elfhdr\000"
 6390      647200
 6391              	.LASF74:
 6392 0270 53544154 		.ascii	"STATE_PUT_MESSAGE_QUEUE_FOREVER\000"
 6392      455F5055 
 6392      545F4D45 
 6392      53534147 
 6392      455F5155 
 6393              	.LASF9:
 6394 0290 756E7369 		.ascii	"unsigned int\000"
 6394      676E6564 
 6394      20696E74 
 6394      00
 6395              	.LASF55:
 6396 029d 705F7479 		.ascii	"p_type\000"
 6396      706500
 6397              	.LASF14:
 6398 02a4 456C6633 		.ascii	"Elf32_Sword\000"
 6398      325F5377 
 6398      6F726400 
 6399              	.LASF68:
 6400 02b0 53544154 		.ascii	"STATE_DELAY\000"
 6400      455F4445 
 6400      4C415900 
 6401              	.LASF144:
 6402 02bc 73747274 		.ascii	"strtab\000"
 6402      616200
ARM GAS  G:\Users\Jaxb\AppData\Local\Temp\cc4KUlGg.s 			page 133


 6403              	.LASF26:
 6404 02c3 655F7068 		.ascii	"e_phentsize\000"
 6404      656E7473 
 6404      697A6500 
 6405              	.LASF154:
 6406 02cf 6C6F6E67 		.ascii	"long unsigned int\000"
 6406      20756E73 
 6406      69676E65 
 6406      6420696E 
 6406      7400
 6407              	.LASF3:
 6408 02e1 494E5433 		.ascii	"INT32\000"
 6408      3200
 6409              	.LASF91:
 6410 02e7 6E616D65 		.ascii	"name\000"
 6410      00
 6411              	.LASF115:
 6412 02ec 656E7472 		.ascii	"entry_addr\000"
 6412      795F6164 
 6412      647200
 6413              	.LASF32:
 6414 02f7 73685F6E 		.ascii	"sh_name\000"
 6414      616D6500 
 6415              	.LASF7:
 6416 02ff 73686F72 		.ascii	"short unsigned int\000"
 6416      7420756E 
 6416      7369676E 
 6416      65642069 
 6416      6E7400
 6417              	.LASF49:
 6418 0312 73745F6F 		.ascii	"st_other\000"
 6418      74686572 
 6418      00
 6419              	.LASF63:
 6420 031b 456C6633 		.ascii	"Elf32_Phdr\000"
 6420      325F5068 
 6420      647200
 6421              	.LASF117:
 6422 0326 6D656D5F 		.ascii	"mem_space\000"
 6422      73706163 
 6422      6500
 6423              	.LASF111:
 6424 0330 7072696F 		.ascii	"priority\000"
 6424      72697479 
 6424      00
 6425              	.LASF109:
 6426 0339 6F626A65 		.ascii	"object_list\000"
 6426      63745F6C 
 6426      69737400 
 6427              	.LASF134:
 6428 0345 646C6D6F 		.ascii	"dlmodule_exec\000"
 6428      64756C65 
 6428      5F657865 
 6428      6300
 6429              	.LASF19:
 6430 0353 655F6D61 		.ascii	"e_machine\000"
 6430      6368696E 
ARM GAS  G:\Users\Jaxb\AppData\Local\Temp\cc4KUlGg.s 			page 134


 6430      6500
 6431              	.LASF54:
 6432 035d 456C6633 		.ascii	"Elf32_Rel\000"
 6432      325F5265 
 6432      6C00
 6433              	.LASF141:
 6434 0367 64617461 		.ascii	"data_addr\000"
 6434      5F616464 
 6434      7200
 6435              	.LASF47:
 6436 0371 73745F73 		.ascii	"st_size\000"
 6436      697A6500 
 6437              	.LASF162:
 6438 0379 7369676E 		.ascii	"sign\000"
 6438      00
 6439              	.LASF131:
 6440 037e 7075745F 		.ascii	"put_in_module_buffer\000"
 6440      696E5F6D 
 6440      6F64756C 
 6440      655F6275 
 6440      66666572 
 6441              	.LASF167:
 6442 0393 5461736B 		.ascii	"Task_State\000"
 6442      5F537461 
 6442      746500
 6443              	.LASF98:
 6444 039e 72745F61 		.ascii	"rt_addr_t\000"
 6444      6464725F 
 6444      7400
 6445              	.LASF135:
 6446 03a8 646C6D6F 		.ascii	"dlmodule_load\000"
 6446      64756C65 
 6446      5F6C6F61 
 6446      6400
 6447              	.LASF114:
 6448 03b6 76737461 		.ascii	"vstart_addr\000"
 6448      72745F61 
 6448      64647200 
 6449              	.LASF25:
 6450 03c2 655F6568 		.ascii	"e_ehsize\000"
 6450      73697A65 
 6450      00
 6451              	.LASF149:
 6452 03cb 76656E64 		.ascii	"vend_addr\000"
 6452      5F616464 
 6452      7200
 6453              	.LASF67:
 6454 03d5 53544154 		.ascii	"STATE_READY\000"
 6454      455F5245 
 6454      41445900 
 6455              	.LASF8:
 6456 03e1 55494E54 		.ascii	"UINT32\000"
 6456      333200
 6457              	.LASF20:
 6458 03e8 655F7665 		.ascii	"e_version\000"
 6458      7273696F 
 6458      6E00
ARM GAS  G:\Users\Jaxb\AppData\Local\Temp\cc4KUlGg.s 			page 135


 6459              	.LASF56:
 6460 03f2 705F6F66 		.ascii	"p_offset\000"
 6460      66736574 
 6460      00
 6461              	.LASF93:
 6462 03fb 74696D65 		.ascii	"timeslice_rest_time\000"
 6462      736C6963 
 6462      655F7265 
 6462      73745F74 
 6462      696D6500 
 6463              	.LASF148:
 6464 040f 6C696E6B 		.ascii	"linked\000"
 6464      656400
 6465              	.LASF85:
 6466 0416 7072696F 		.ascii	"prio\000"
 6466      00
 6467              	.LASF16:
 6468 041b 456C6633 		.ascii	"Elf32_Half\000"
 6468      325F4861 
 6468      6C6600
 6469              	.LASF150:
 6470 0426 6861735F 		.ascii	"has_vstart\000"
 6470      76737461 
 6470      727400
 6471              	.LASF70:
 6472 0431 53544154 		.ascii	"STATE_WAIT_MCB_FOREVER\000"
 6472      455F5741 
 6472      49545F4D 
 6472      43425F46 
 6472      4F524556 
 6473              	.LASF142:
 6474 0448 6D6F6475 		.ascii	"module_addr\000"
 6474      6C655F61 
 6474      64647200 
 6475              	.LASF84:
 6476 0454 73746163 		.ascii	"stack_end\000"
 6476      6B5F656E 
 6476      6400
 6477              	.LASF133:
 6478 045e 6572726F 		.ascii	"error\000"
 6478      7200
 6479              	.LASF31:
 6480 0464 456C6633 		.ascii	"Elf32_Ehdr\000"
 6480      325F4568 
 6480      647200
 6481              	.LASF76:
 6482 046f 53544154 		.ascii	"STATE_WAIT_MUTEX_FOREVER\000"
 6482      455F5741 
 6482      49545F4D 
 6482      55544558 
 6482      5F464F52 
 6483              	.LASF164:
 6484 0488 474E5520 		.ascii	"GNU C11 7.3.1 20180622 (release) [ARM/embedded-7-br"
 6484      43313120 
 6484      372E332E 
 6484      31203230 
 6484      31383036 
ARM GAS  G:\Users\Jaxb\AppData\Local\Temp\cc4KUlGg.s 			page 136


 6485 04bb 616E6368 		.ascii	"anch revision 261907] -mcpu=cortex-m3 -mthumb -mapc"
 6485      20726576 
 6485      6973696F 
 6485      6E203236 
 6485      31393037 
 6486 04ee 732D6672 		.ascii	"s-frame -mthumb-interwork -mcpu=cortex-m3 -mthumb -"
 6486      616D6520 
 6486      2D6D7468 
 6486      756D622D 
 6486      696E7465 
 6487 0521 67647761 		.ascii	"gdwarf-2 -O0\000"
 6487      72662D32 
 6487      202D4F30 
 6487      00
 6488              	.LASF41:
 6489 052e 73685F65 		.ascii	"sh_entsize\000"
 6489      6E747369 
 6489      7A6500
 6490              	.LASF168:
 6491 0539 675F696E 		.ascii	"g_interrupt_count\000"
 6491      74657272 
 6491      7570745F 
 6491      636F756E 
 6491      7400
 6492              	.LASF145:
 6493 054b 73687374 		.ascii	"shstrab\000"
 6493      72616200 
 6494              	.LASF125:
 6495 0553 72745F65 		.ascii	"rt_err_t\000"
 6495      72725F74 
 6495      00
 6496              	.LASF5:
 6497 055c 756E7369 		.ascii	"unsigned char\000"
 6497      676E6564 
 6497      20636861 
 6497      7200
 6498              	.LASF124:
 6499 056a 72745F64 		.ascii	"rt_dlmodule_cleanup_func_t\000"
 6499      6C6D6F64 
 6499      756C655F 
 6499      636C6561 
 6499      6E75705F 
 6500              	.LASF23:
 6501 0585 655F7368 		.ascii	"e_shoff\000"
 6501      6F666600 
 6502              	.LASF1:
 6503 058d 73686F72 		.ascii	"short int\000"
 6503      7420696E 
 6503      7400
 6504              	.LASF80:
 6505 0597 66756E63 		.ascii	"functionptr\000"
 6505      74696F6E 
 6505      70747200 
 6506              	.LASF39:
 6507 05a3 73685F69 		.ascii	"sh_info\000"
 6507      6E666F00 
 6508              	.LASF169:
ARM GAS  G:\Users\Jaxb\AppData\Local\Temp\cc4KUlGg.s 			page 137


 6509 05ab 5F5F6578 		.ascii	"__exit\000"
 6509      697400
 6510              	.LASF103:
 6511 05b2 666C6167 		.ascii	"flag\000"
 6511      00
 6512              	.LASF61:
 6513 05b7 705F666C 		.ascii	"p_flags\000"
 6513      61677300 
 6514              	.LASF17:
 6515 05bf 655F6964 		.ascii	"e_ident\000"
 6515      656E7400 
 6516              	.LASF130:
 6517 05c7 7365745F 		.ascii	"set_module_buffer\000"
 6517      6D6F6475 
 6517      6C655F62 
 6517      75666665 
 6517      7200
 6518              	.LASF165:
 6519 05d9 2E2E2F2E 		.ascii	"../../source/src/kernel/OS_CORE/module.c\000"
 6519      2E2F736F 
 6519      75726365 
 6519      2F737263 
 6519      2F6B6572 
 6520              	.LASF82:
 6521 0602 73746163 		.ascii	"stack\000"
 6521      6B00
 6522              	.LASF105:
 6523 0608 72745F64 		.ascii	"rt_dlmodule_entry_func_t\000"
 6523      6C6D6F64 
 6523      756C655F 
 6523      656E7472 
 6523      795F6675 
 6524              	.LASF118:
 6525 0621 6D656D5F 		.ascii	"mem_size\000"
 6525      73697A65 
 6525      00
 6526              	.LASF122:
 6527 062a 6E73796D 		.ascii	"nsym\000"
 6527      00
 6528              	.LASF75:
 6529 062f 53544154 		.ascii	"STATE_PUT_MESSAGE_QUEUE_TIMEOUT\000"
 6529      455F5055 
 6529      545F4D45 
 6529      53534147 
 6529      455F5155 
 6530              	.LASF24:
 6531 064f 655F666C 		.ascii	"e_flags\000"
 6531      61677300 
 6532              	.LASF113:
 6533 0657 7265745F 		.ascii	"ret_code\000"
 6533      636F6465 
 6533      00
 6534              	.LASF45:
 6535 0660 73745F6E 		.ascii	"st_name\000"
 6535      616D6500 
 6536              	.LASF96:
 6537 0668 63686172 		.ascii	"char\000"
ARM GAS  G:\Users\Jaxb\AppData\Local\Temp\cc4KUlGg.s 			page 138


 6537      00
 6538              	.LASF92:
 6539 066d 74696D65 		.ascii	"timeslice_hope_time\000"
 6539      736C6963 
 6539      655F686F 
 6539      70655F74 
 6539      696D6500 
 6540              	.LASF22:
 6541 0681 655F7068 		.ascii	"e_phoff\000"
 6541      6F666600 
 6542              	.LASF12:
 6543 0689 456C6633 		.ascii	"Elf32_Addr\000"
 6543      325F4164 
 6543      647200
 6544              	.LASF34:
 6545 0694 73685F66 		.ascii	"sh_flags\000"
 6545      6C616773 
 6545      00
 6546              	.LASF53:
 6547 069d 725F696E 		.ascii	"r_info\000"
 6547      666F00
 6548              	.LASF33:
 6549 06a4 73685F74 		.ascii	"sh_type\000"
 6549      79706500 
 6550              	.LASF64:
 6551 06ac 6C697374 		.ascii	"list_head\000"
 6551      5F686561 
 6551      6400
 6552              	.LASF138:
 6553 06b6 696E6465 		.ascii	"index\000"
 6553      7800
 6554              	.LASF28:
 6555 06bc 655F7368 		.ascii	"e_shentsize\000"
 6555      656E7473 
 6555      697A6500 
 6556              	.LASF95:
 6557 06c8 64656C61 		.ascii	"delay_reach_time\000"
 6557      795F7265 
 6557      6163685F 
 6557      74696D65 
 6557      00
 6558              	.LASF101:
 6559 06d9 72745F6F 		.ascii	"rt_object\000"
 6559      626A6563 
 6559      7400
 6560              	.LASF78:
 6561 06e3 53544143 		.ascii	"STACK_TYPE\000"
 6561      4B5F5459 
 6561      504500
 6562              	.LASF87:
 6563 06ee 7461736B 		.ascii	"task_state\000"
 6563      5F737461 
 6563      746500
 6564              	.LASF159:
 6565 06f9 6F666673 		.ascii	"offset\000"
 6565      657400
 6566              	.LASF29:
ARM GAS  G:\Users\Jaxb\AppData\Local\Temp\cc4KUlGg.s 			page 139


 6567 0700 655F7368 		.ascii	"e_shnum\000"
 6567      6E756D00 
 6568              	.LASF106:
 6569 0708 72745F64 		.ascii	"rt_dlmodule_init_func_t\000"
 6569      6C6D6F64 
 6569      756C655F 
 6569      696E6974 
 6569      5F66756E 
 6570              	.LASF97:
 6571 0720 72745F62 		.ascii	"rt_bool_t\000"
 6571      6F6F6C5F 
 6571      7400
 6572              	.LASF153:
 6573 072a 6C656E67 		.ascii	"length\000"
 6573      746800
 6574              	.LASF69:
 6575 0731 53544154 		.ascii	"STATE_SUSPEND_NORMAL\000"
 6575      455F5355 
 6575      5350454E 
 6575      445F4E4F 
 6575      524D414C 
 6576              	.LASF4:
 6577 0746 55494E54 		.ascii	"UINT8\000"
 6577      3800
 6578              	.LASF166:
 6579 074c 463A5C6B 		.ascii	"F:\\kaka\\KAKAOS\\C\\windows\\Project\\RVMDK\243\250"
 6579      616B615C 
 6579      4B414B41 
 6579      4F535C43 
 6579      5C77696E 
 6580 0774 757635A3 		.ascii	"uv5\243\251\000"
 6580      A900
 6581              	.LASF72:
 6582 077a 53544154 		.ascii	"STATE_WAIT_MESSAGE_QUEUE_FOREVER\000"
 6582      455F5741 
 6582      49545F4D 
 6582      45535341 
 6582      47455F51 
 6583              	.LASF139:
 6584 079b 726F6461 		.ascii	"rodata_addr\000"
 6584      74615F61 
 6584      64647200 
 6585              	.LASF21:
 6586 07a7 655F656E 		.ascii	"e_entry\000"
 6586      74727900 
 6587              	.LASF44:
 6588 07af 656C6633 		.ascii	"elf32_sym\000"
 6588      325F7379 
 6588      6D00
 6589              	.LASF51:
 6590 07b9 456C6633 		.ascii	"Elf32_Sym\000"
 6590      325F5379 
 6590      6D00
 6591              	.LASF83:
 6592 07c3 73746163 		.ascii	"stack_size\000"
 6592      6B5F7369 
 6592      7A6500
ARM GAS  G:\Users\Jaxb\AppData\Local\Temp\cc4KUlGg.s 			page 140


 6593              	.LASF170:
 6594 07ce 494E4954 		.ascii	"INIT_LIST_HEAD\000"
 6594      5F4C4953 
 6594      545F4845 
 6594      414400
 6595              	.LASF116:
 6596 07dd 636D645F 		.ascii	"cmd_line\000"
 6596      6C696E65 
 6596      00
 6597              	.LASF10:
 6598 07e6 55494E54 		.ascii	"UINT64\000"
 6598      363400
 6599              	.LASF129:
 6600 07ed 73686F77 		.ascii	"show_get_size\000"
 6600      5F676574 
 6600      5F73697A 
 6600      6500
 6601              	.LASF27:
 6602 07fb 655F7068 		.ascii	"e_phnum\000"
 6602      6E756D00 
 6603              	.LASF104:
 6604 0803 6D6F6475 		.ascii	"module_id\000"
 6604      6C655F69 
 6604      6400
 6605              	.LASF52:
 6606 080d 725F6F66 		.ascii	"r_offset\000"
 6606      66736574 
 6606      00
 6607              	.LASF155:
 6608 0816 646C6D6F 		.ascii	"dlmodule_relocate\000"
 6608      64756C65 
 6608      5F72656C 
 6608      6F636174 
 6608      6500
 6609              	.LASF163:
 6610 0828 6C697374 		.ascii	"list\000"
 6610      00
 6611              	.LASF36:
 6612 082d 73685F6F 		.ascii	"sh_offset\000"
 6612      66667365 
 6612      7400
 6613              	.LASF147:
 6614 0837 646C6D6F 		.ascii	"dlmodule_load_shared_object\000"
 6614      64756C65 
 6614      5F6C6F61 
 6614      645F7368 
 6614      61726564 
 6615              	.LASF146:
 6616 0853 6E725F72 		.ascii	"nr_reloc\000"
 6616      656C6F63 
 6616      00
 6617              	.LASF71:
 6618 085c 53544154 		.ascii	"STATE_WAIT_MCB_TIMEOUT\000"
 6618      455F5741 
 6618      49545F4D 
 6618      43425F54 
 6618      494D454F 
ARM GAS  G:\Users\Jaxb\AppData\Local\Temp\cc4KUlGg.s 			page 141


 6619              	.LASF88:
 6620 0873 64656C61 		.ascii	"delay_heap_position\000"
 6620      795F6865 
 6620      61705F70 
 6620      6F736974 
 6620      696F6E00 
 6621              		.ident	"GCC: (GNU Tools for Arm Embedded Processors 7-2018-q2-update) 7.3.1 20180622 (release) [AR
ARM GAS  G:\Users\Jaxb\AppData\Local\Temp\cc4KUlGg.s 			page 142


DEFINED SYMBOLS
                            *ABS*:00000000 module.c
G:\Users\Jaxb\AppData\Local\Temp\cc4KUlGg.s:15     .text:00000000 $t
G:\Users\Jaxb\AppData\Local\Temp\cc4KUlGg.s:21     .text:00000000 INIT_LIST_HEAD
G:\Users\Jaxb\AppData\Local\Temp\cc4KUlGg.s:66     .bss:00000000 $d
G:\Users\Jaxb\AppData\Local\Temp\cc4KUlGg.s:67     .bss:00000000 module_buffer
G:\Users\Jaxb\AppData\Local\Temp\cc4KUlGg.s:71     .bss:00000004 num
G:\Users\Jaxb\AppData\Local\Temp\cc4KUlGg.s:75     .rodata:00000000 $d
G:\Users\Jaxb\AppData\Local\Temp\cc4KUlGg.s:104    .text:0000001e dlmodule_relocate
G:\Users\Jaxb\AppData\Local\Temp\cc4KUlGg.s:148    .text:00000050 $d
G:\Users\Jaxb\AppData\Local\Temp\cc4KUlGg.s:189    .text:000000f4 $t
G:\Users\Jaxb\AppData\Local\Temp\cc4KUlGg.s:562    .text:00000364 $d
G:\Users\Jaxb\AppData\Local\Temp\cc4KUlGg.s:630    .text:00000388 $t
G:\Users\Jaxb\AppData\Local\Temp\cc4KUlGg.s:637    .text:00000388 dlmodule_load_shared_object
G:\Users\Jaxb\AppData\Local\Temp\cc4KUlGg.s:989    .text:000005cc $d
G:\Users\Jaxb\AppData\Local\Temp\cc4KUlGg.s:1001   .text:000005f4 $t
G:\Users\Jaxb\AppData\Local\Temp\cc4KUlGg.s:1463   .text:00000900 $d
G:\Users\Jaxb\AppData\Local\Temp\cc4KUlGg.s:3659   .bss:00000008 unsolved.4441
G:\Users\Jaxb\AppData\Local\Temp\cc4KUlGg.s:1473   .text:00000920 $t
G:\Users\Jaxb\AppData\Local\Temp\cc4KUlGg.s:1760   .text:00000a76 dlmodule_load_relocated_object
G:\Users\Jaxb\AppData\Local\Temp\cc4KUlGg.s:2109   .text:00000cd0 $d
G:\Users\Jaxb\AppData\Local\Temp\cc4KUlGg.s:2114   .text:00000cdc $t
G:\Users\Jaxb\AppData\Local\Temp\cc4KUlGg.s:2551   .text:00001000 $d
G:\Users\Jaxb\AppData\Local\Temp\cc4KUlGg.s:2559   .text:00001014 $t
G:\Users\Jaxb\AppData\Local\Temp\cc4KUlGg.s:2923   .text:000012b0 $d
G:\Users\Jaxb\AppData\Local\Temp\cc4KUlGg.s:2938   .text:000012e0 $t
G:\Users\Jaxb\AppData\Local\Temp\cc4KUlGg.s:3056   .text:00001398 $d
G:\Users\Jaxb\AppData\Local\Temp\cc4KUlGg.s:3093   .text:000013ac $t
G:\Users\Jaxb\AppData\Local\Temp\cc4KUlGg.s:3100   .text:000013ac dlmodule_load
G:\Users\Jaxb\AppData\Local\Temp\cc4KUlGg.s:3296   .text:000014c8 $d
G:\Users\Jaxb\AppData\Local\Temp\cc4KUlGg.s:3321   .text:000014f4 $t
G:\Users\Jaxb\AppData\Local\Temp\cc4KUlGg.s:3328   .text:000014f4 dlmodule_exec
G:\Users\Jaxb\AppData\Local\Temp\cc4KUlGg.s:3437   .text:00001584 $d
G:\Users\Jaxb\AppData\Local\Temp\cc4KUlGg.s:3448   .text:00001590 $t
G:\Users\Jaxb\AppData\Local\Temp\cc4KUlGg.s:3455   .text:00001590 put_in_module_buffer
G:\Users\Jaxb\AppData\Local\Temp\cc4KUlGg.s:3510   .text:000015c8 $d
G:\Users\Jaxb\AppData\Local\Temp\cc4KUlGg.s:3521   .text:000015d4 $t
G:\Users\Jaxb\AppData\Local\Temp\cc4KUlGg.s:3528   .text:000015d4 show_get_size
G:\Users\Jaxb\AppData\Local\Temp\cc4KUlGg.s:3554   .text:000015e8 $d
G:\Users\Jaxb\AppData\Local\Temp\cc4KUlGg.s:3559   .text:000015f0 $t
G:\Users\Jaxb\AppData\Local\Temp\cc4KUlGg.s:3566   .text:000015f0 clear_module_buffer
G:\Users\Jaxb\AppData\Local\Temp\cc4KUlGg.s:3602   .text:00001608 $d
G:\Users\Jaxb\AppData\Local\Temp\cc4KUlGg.s:3607   .text:00001610 $t
G:\Users\Jaxb\AppData\Local\Temp\cc4KUlGg.s:3614   .text:00001610 set_module_buffer
G:\Users\Jaxb\AppData\Local\Temp\cc4KUlGg.s:3653   .text:00001628 $d

UNDEFINED SYMBOLS
ka_printf
_ASSERT
ka_malloc
ka_memset
ka_memcpy
get_export_function_addr
ka_strcmp
ka_strlen
ka_strncmp
ka_free
ARM GAS  G:\Users\Jaxb\AppData\Local\Temp\cc4KUlGg.s 			page 143


task_creat_ready
