ARM GAS  G:\Users\Jaxb\AppData\Local\Temp\cc11Idxk.s 			page 1


   1              		.cpu cortex-m3
   2              		.eabi_attribute 20, 1
   3              		.eabi_attribute 21, 1
   4              		.eabi_attribute 23, 3
   5              		.eabi_attribute 24, 1
   6              		.eabi_attribute 25, 1
   7              		.eabi_attribute 26, 1
   8              		.eabi_attribute 30, 6
   9              		.eabi_attribute 34, 1
  10              		.eabi_attribute 18, 4
  11              		.file	"module.c"
  12              		.text
  13              	.Ltext0:
  14              		.cfi_sections	.debug_frame
  15              		.align	1
  16              		.syntax unified
  17              		.thumb
  18              		.thumb_func
  19              		.fpu softvfp
  20              		.type	INIT_LIST_HEAD, %function
  21              	INIT_LIST_HEAD:
  22              	.LFB0:
  23              		.file 1 "../../source/include/os_lib/double_linked_list.h"
   1:../../source/include/os_lib/double_linked_list.h **** #ifndef _DOUBLE_LINKED_LIST_H
   2:../../source/include/os_lib/double_linked_list.h **** #define _DOUBLE_LINKED_LIST_H
   3:../../source/include/os_lib/double_linked_list.h **** 
   4:../../source/include/os_lib/double_linked_list.h **** struct list_head {
   5:../../source/include/os_lib/double_linked_list.h ****     struct list_head *next, *prev;
   6:../../source/include/os_lib/double_linked_list.h **** };
   7:../../source/include/os_lib/double_linked_list.h **** 
   8:../../source/include/os_lib/double_linked_list.h **** 
   9:../../source/include/os_lib/double_linked_list.h **** #define LIST_HEAD_INIT(name) { &(name), &(name) }
  10:../../source/include/os_lib/double_linked_list.h **** 
  11:../../source/include/os_lib/double_linked_list.h **** 
  12:../../source/include/os_lib/double_linked_list.h **** #define LIST_HEAD(name) \
  13:../../source/include/os_lib/double_linked_list.h ****     struct list_head name = LIST_HEAD_INIT(name)
  14:../../source/include/os_lib/double_linked_list.h **** 
  15:../../source/include/os_lib/double_linked_list.h **** 
  16:../../source/include/os_lib/double_linked_list.h **** static inline void INIT_LIST_HEAD(struct list_head *list)
  17:../../source/include/os_lib/double_linked_list.h **** {
  24              		.loc 1 17 0
  25              		.cfi_startproc
  26              		@ args = 0, pretend = 0, frame = 8
  27              		@ frame_needed = 1, uses_anonymous_args = 0
  28              		@ link register save eliminated.
  29 0000 80B4     		push	{r7}
  30              	.LCFI0:
  31              		.cfi_def_cfa_offset 4
  32              		.cfi_offset 7, -4
  33 0002 83B0     		sub	sp, sp, #12
  34              	.LCFI1:
  35              		.cfi_def_cfa_offset 16
  36 0004 00AF     		add	r7, sp, #0
  37              	.LCFI2:
  38              		.cfi_def_cfa_register 7
  39 0006 7860     		str	r0, [r7, #4]
  18:../../source/include/os_lib/double_linked_list.h ****     list->next = list;
ARM GAS  G:\Users\Jaxb\AppData\Local\Temp\cc11Idxk.s 			page 2


  40              		.loc 1 18 0
  41 0008 7B68     		ldr	r3, [r7, #4]
  42 000a 7A68     		ldr	r2, [r7, #4]
  43 000c 1A60     		str	r2, [r3]
  19:../../source/include/os_lib/double_linked_list.h ****     list->prev = list;
  44              		.loc 1 19 0
  45 000e 7B68     		ldr	r3, [r7, #4]
  46 0010 7A68     		ldr	r2, [r7, #4]
  47 0012 5A60     		str	r2, [r3, #4]
  20:../../source/include/os_lib/double_linked_list.h **** }
  48              		.loc 1 20 0
  49 0014 00BF     		nop
  50 0016 0C37     		adds	r7, r7, #12
  51              	.LCFI3:
  52              		.cfi_def_cfa_offset 4
  53 0018 BD46     		mov	sp, r7
  54              	.LCFI4:
  55              		.cfi_def_cfa_register 13
  56              		@ sp needed
  57 001a 80BC     		pop	{r7}
  58              	.LCFI5:
  59              		.cfi_restore 7
  60              		.cfi_def_cfa_offset 0
  61 001c 7047     		bx	lr
  62              		.cfi_endproc
  63              	.LFE0:
  64              		.size	INIT_LIST_HEAD, .-INIT_LIST_HEAD
  65              		.align	1
  66              		.syntax unified
  67              		.thumb
  68              		.thumb_func
  69              		.fpu softvfp
  70              		.type	__list_add, %function
  71              	__list_add:
  72              	.LFB1:
  21:../../source/include/os_lib/double_linked_list.h **** 
  22:../../source/include/os_lib/double_linked_list.h **** 
  23:../../source/include/os_lib/double_linked_list.h **** static inline void __list_add(struct list_head *new,
  24:../../source/include/os_lib/double_linked_list.h ****                   struct list_head *prev,
  25:../../source/include/os_lib/double_linked_list.h ****                   struct list_head *next)
  26:../../source/include/os_lib/double_linked_list.h **** {
  73              		.loc 1 26 0
  74              		.cfi_startproc
  75              		@ args = 0, pretend = 0, frame = 16
  76              		@ frame_needed = 1, uses_anonymous_args = 0
  77              		@ link register save eliminated.
  78 001e 80B4     		push	{r7}
  79              	.LCFI6:
  80              		.cfi_def_cfa_offset 4
  81              		.cfi_offset 7, -4
  82 0020 85B0     		sub	sp, sp, #20
  83              	.LCFI7:
  84              		.cfi_def_cfa_offset 24
  85 0022 00AF     		add	r7, sp, #0
  86              	.LCFI8:
  87              		.cfi_def_cfa_register 7
  88 0024 F860     		str	r0, [r7, #12]
ARM GAS  G:\Users\Jaxb\AppData\Local\Temp\cc11Idxk.s 			page 3


  89 0026 B960     		str	r1, [r7, #8]
  90 0028 7A60     		str	r2, [r7, #4]
  27:../../source/include/os_lib/double_linked_list.h ****     next->prev = new;
  91              		.loc 1 27 0
  92 002a 7B68     		ldr	r3, [r7, #4]
  93 002c FA68     		ldr	r2, [r7, #12]
  94 002e 5A60     		str	r2, [r3, #4]
  28:../../source/include/os_lib/double_linked_list.h ****     new->next = next;
  95              		.loc 1 28 0
  96 0030 FB68     		ldr	r3, [r7, #12]
  97 0032 7A68     		ldr	r2, [r7, #4]
  98 0034 1A60     		str	r2, [r3]
  29:../../source/include/os_lib/double_linked_list.h ****     new->prev = prev;
  99              		.loc 1 29 0
 100 0036 FB68     		ldr	r3, [r7, #12]
 101 0038 BA68     		ldr	r2, [r7, #8]
 102 003a 5A60     		str	r2, [r3, #4]
  30:../../source/include/os_lib/double_linked_list.h ****     prev->next = new;
 103              		.loc 1 30 0
 104 003c BB68     		ldr	r3, [r7, #8]
 105 003e FA68     		ldr	r2, [r7, #12]
 106 0040 1A60     		str	r2, [r3]
  31:../../source/include/os_lib/double_linked_list.h **** }
 107              		.loc 1 31 0
 108 0042 00BF     		nop
 109 0044 1437     		adds	r7, r7, #20
 110              	.LCFI9:
 111              		.cfi_def_cfa_offset 4
 112 0046 BD46     		mov	sp, r7
 113              	.LCFI10:
 114              		.cfi_def_cfa_register 13
 115              		@ sp needed
 116 0048 80BC     		pop	{r7}
 117              	.LCFI11:
 118              		.cfi_restore 7
 119              		.cfi_def_cfa_offset 0
 120 004a 7047     		bx	lr
 121              		.cfi_endproc
 122              	.LFE1:
 123              		.size	__list_add, .-__list_add
 124              		.align	1
 125              		.syntax unified
 126              		.thumb
 127              		.thumb_func
 128              		.fpu softvfp
 129              		.type	list_add, %function
 130              	list_add:
 131              	.LFB2:
  32:../../source/include/os_lib/double_linked_list.h **** 
  33:../../source/include/os_lib/double_linked_list.h **** 
  34:../../source/include/os_lib/double_linked_list.h **** static inline void list_add(struct list_head *new, struct list_head *head)
  35:../../source/include/os_lib/double_linked_list.h **** {
 132              		.loc 1 35 0
 133              		.cfi_startproc
 134              		@ args = 0, pretend = 0, frame = 8
 135              		@ frame_needed = 1, uses_anonymous_args = 0
 136 004c 80B5     		push	{r7, lr}
ARM GAS  G:\Users\Jaxb\AppData\Local\Temp\cc11Idxk.s 			page 4


 137              	.LCFI12:
 138              		.cfi_def_cfa_offset 8
 139              		.cfi_offset 7, -8
 140              		.cfi_offset 14, -4
 141 004e 82B0     		sub	sp, sp, #8
 142              	.LCFI13:
 143              		.cfi_def_cfa_offset 16
 144 0050 00AF     		add	r7, sp, #0
 145              	.LCFI14:
 146              		.cfi_def_cfa_register 7
 147 0052 7860     		str	r0, [r7, #4]
 148 0054 3960     		str	r1, [r7]
  36:../../source/include/os_lib/double_linked_list.h ****     __list_add(new, head, head->next);
 149              		.loc 1 36 0
 150 0056 3B68     		ldr	r3, [r7]
 151 0058 1B68     		ldr	r3, [r3]
 152 005a 1A46     		mov	r2, r3
 153 005c 3968     		ldr	r1, [r7]
 154 005e 7868     		ldr	r0, [r7, #4]
 155 0060 FFF7DDFF 		bl	__list_add
  37:../../source/include/os_lib/double_linked_list.h **** }
 156              		.loc 1 37 0
 157 0064 00BF     		nop
 158 0066 0837     		adds	r7, r7, #8
 159              	.LCFI15:
 160              		.cfi_def_cfa_offset 8
 161 0068 BD46     		mov	sp, r7
 162              	.LCFI16:
 163              		.cfi_def_cfa_register 13
 164              		@ sp needed
 165 006a 80BD     		pop	{r7, pc}
 166              		.cfi_endproc
 167              	.LFE2:
 168              		.size	list_add, .-list_add
 169              		.align	1
 170              		.syntax unified
 171              		.thumb
 172              		.thumb_func
 173              		.fpu softvfp
 174              		.type	__list_del, %function
 175              	__list_del:
 176              	.LFB4:
  38:../../source/include/os_lib/double_linked_list.h **** 
  39:../../source/include/os_lib/double_linked_list.h **** 
  40:../../source/include/os_lib/double_linked_list.h **** static inline void list_add_tail(struct list_head *new, struct list_head *head)
  41:../../source/include/os_lib/double_linked_list.h **** {
  42:../../source/include/os_lib/double_linked_list.h ****     __list_add(new, head->prev, head);
  43:../../source/include/os_lib/double_linked_list.h **** }
  44:../../source/include/os_lib/double_linked_list.h **** 
  45:../../source/include/os_lib/double_linked_list.h **** 
  46:../../source/include/os_lib/double_linked_list.h **** static inline void __list_del(struct list_head * prev, struct list_head * next)
  47:../../source/include/os_lib/double_linked_list.h **** {
 177              		.loc 1 47 0
 178              		.cfi_startproc
 179              		@ args = 0, pretend = 0, frame = 8
 180              		@ frame_needed = 1, uses_anonymous_args = 0
 181              		@ link register save eliminated.
ARM GAS  G:\Users\Jaxb\AppData\Local\Temp\cc11Idxk.s 			page 5


 182 006c 80B4     		push	{r7}
 183              	.LCFI17:
 184              		.cfi_def_cfa_offset 4
 185              		.cfi_offset 7, -4
 186 006e 83B0     		sub	sp, sp, #12
 187              	.LCFI18:
 188              		.cfi_def_cfa_offset 16
 189 0070 00AF     		add	r7, sp, #0
 190              	.LCFI19:
 191              		.cfi_def_cfa_register 7
 192 0072 7860     		str	r0, [r7, #4]
 193 0074 3960     		str	r1, [r7]
  48:../../source/include/os_lib/double_linked_list.h ****     next->prev = prev;
 194              		.loc 1 48 0
 195 0076 3B68     		ldr	r3, [r7]
 196 0078 7A68     		ldr	r2, [r7, #4]
 197 007a 5A60     		str	r2, [r3, #4]
  49:../../source/include/os_lib/double_linked_list.h ****     prev->next = next;
 198              		.loc 1 49 0
 199 007c 7B68     		ldr	r3, [r7, #4]
 200 007e 3A68     		ldr	r2, [r7]
 201 0080 1A60     		str	r2, [r3]
  50:../../source/include/os_lib/double_linked_list.h **** }
 202              		.loc 1 50 0
 203 0082 00BF     		nop
 204 0084 0C37     		adds	r7, r7, #12
 205              	.LCFI20:
 206              		.cfi_def_cfa_offset 4
 207 0086 BD46     		mov	sp, r7
 208              	.LCFI21:
 209              		.cfi_def_cfa_register 13
 210              		@ sp needed
 211 0088 80BC     		pop	{r7}
 212              	.LCFI22:
 213              		.cfi_restore 7
 214              		.cfi_def_cfa_offset 0
 215 008a 7047     		bx	lr
 216              		.cfi_endproc
 217              	.LFE4:
 218              		.size	__list_del, .-__list_del
 219              		.align	1
 220              		.syntax unified
 221              		.thumb
 222              		.thumb_func
 223              		.fpu softvfp
 224              		.type	list_del, %function
 225              	list_del:
 226              	.LFB5:
  51:../../source/include/os_lib/double_linked_list.h **** 
  52:../../source/include/os_lib/double_linked_list.h **** 
  53:../../source/include/os_lib/double_linked_list.h **** static inline void list_del(struct list_head *entry)
  54:../../source/include/os_lib/double_linked_list.h **** {
 227              		.loc 1 54 0
 228              		.cfi_startproc
 229              		@ args = 0, pretend = 0, frame = 8
 230              		@ frame_needed = 1, uses_anonymous_args = 0
 231 008c 80B5     		push	{r7, lr}
ARM GAS  G:\Users\Jaxb\AppData\Local\Temp\cc11Idxk.s 			page 6


 232              	.LCFI23:
 233              		.cfi_def_cfa_offset 8
 234              		.cfi_offset 7, -8
 235              		.cfi_offset 14, -4
 236 008e 82B0     		sub	sp, sp, #8
 237              	.LCFI24:
 238              		.cfi_def_cfa_offset 16
 239 0090 00AF     		add	r7, sp, #0
 240              	.LCFI25:
 241              		.cfi_def_cfa_register 7
 242 0092 7860     		str	r0, [r7, #4]
  55:../../source/include/os_lib/double_linked_list.h ****     __list_del(entry->prev, entry->next);
 243              		.loc 1 55 0
 244 0094 7B68     		ldr	r3, [r7, #4]
 245 0096 5A68     		ldr	r2, [r3, #4]
 246 0098 7B68     		ldr	r3, [r7, #4]
 247 009a 1B68     		ldr	r3, [r3]
 248 009c 1946     		mov	r1, r3
 249 009e 1046     		mov	r0, r2
 250 00a0 FFF7E4FF 		bl	__list_del
  56:../../source/include/os_lib/double_linked_list.h **** }
 251              		.loc 1 56 0
 252 00a4 00BF     		nop
 253 00a6 0837     		adds	r7, r7, #8
 254              	.LCFI26:
 255              		.cfi_def_cfa_offset 8
 256 00a8 BD46     		mov	sp, r7
 257              	.LCFI27:
 258              		.cfi_def_cfa_register 13
 259              		@ sp needed
 260 00aa 80BD     		pop	{r7, pc}
 261              		.cfi_endproc
 262              	.LFE5:
 263              		.size	list_del, .-list_del
 264              		.align	1
 265              		.syntax unified
 266              		.thumb
 267              		.thumb_func
 268              		.fpu softvfp
 269              		.type	list_empty, %function
 270              	list_empty:
 271              	.LFB9:
  57:../../source/include/os_lib/double_linked_list.h **** 
  58:../../source/include/os_lib/double_linked_list.h **** 
  59:../../source/include/os_lib/double_linked_list.h **** static inline void __list_del_entry(struct list_head *entry)
  60:../../source/include/os_lib/double_linked_list.h **** {
  61:../../source/include/os_lib/double_linked_list.h ****     __list_del(entry->prev, entry->next);
  62:../../source/include/os_lib/double_linked_list.h **** }
  63:../../source/include/os_lib/double_linked_list.h **** 
  64:../../source/include/os_lib/double_linked_list.h **** 
  65:../../source/include/os_lib/double_linked_list.h **** static inline void list_del_init(struct list_head *entry)
  66:../../source/include/os_lib/double_linked_list.h **** {
  67:../../source/include/os_lib/double_linked_list.h ****     __list_del_entry(entry);
  68:../../source/include/os_lib/double_linked_list.h ****     INIT_LIST_HEAD(entry);
  69:../../source/include/os_lib/double_linked_list.h **** }
  70:../../source/include/os_lib/double_linked_list.h **** 
  71:../../source/include/os_lib/double_linked_list.h **** 
ARM GAS  G:\Users\Jaxb\AppData\Local\Temp\cc11Idxk.s 			page 7


  72:../../source/include/os_lib/double_linked_list.h **** static inline void list_replace(struct list_head *old,
  73:../../source/include/os_lib/double_linked_list.h ****                 struct list_head *new)
  74:../../source/include/os_lib/double_linked_list.h **** {
  75:../../source/include/os_lib/double_linked_list.h ****     new->next = old->next;
  76:../../source/include/os_lib/double_linked_list.h ****     new->next->prev = new;
  77:../../source/include/os_lib/double_linked_list.h ****     new->prev = old->prev;
  78:../../source/include/os_lib/double_linked_list.h ****     new->prev->next = new;
  79:../../source/include/os_lib/double_linked_list.h **** }
  80:../../source/include/os_lib/double_linked_list.h **** 
  81:../../source/include/os_lib/double_linked_list.h **** 
  82:../../source/include/os_lib/double_linked_list.h **** static inline int list_empty(const struct list_head *head)
  83:../../source/include/os_lib/double_linked_list.h **** {
 272              		.loc 1 83 0
 273              		.cfi_startproc
 274              		@ args = 0, pretend = 0, frame = 8
 275              		@ frame_needed = 1, uses_anonymous_args = 0
 276              		@ link register save eliminated.
 277 00ac 80B4     		push	{r7}
 278              	.LCFI28:
 279              		.cfi_def_cfa_offset 4
 280              		.cfi_offset 7, -4
 281 00ae 83B0     		sub	sp, sp, #12
 282              	.LCFI29:
 283              		.cfi_def_cfa_offset 16
 284 00b0 00AF     		add	r7, sp, #0
 285              	.LCFI30:
 286              		.cfi_def_cfa_register 7
 287 00b2 7860     		str	r0, [r7, #4]
  84:../../source/include/os_lib/double_linked_list.h ****     return head->next == head;
 288              		.loc 1 84 0
 289 00b4 7B68     		ldr	r3, [r7, #4]
 290 00b6 1B68     		ldr	r3, [r3]
 291 00b8 7A68     		ldr	r2, [r7, #4]
 292 00ba 9A42     		cmp	r2, r3
 293 00bc 0CBF     		ite	eq
 294 00be 0123     		moveq	r3, #1
 295 00c0 0023     		movne	r3, #0
 296 00c2 DBB2     		uxtb	r3, r3
  85:../../source/include/os_lib/double_linked_list.h **** }
 297              		.loc 1 85 0
 298 00c4 1846     		mov	r0, r3
 299 00c6 0C37     		adds	r7, r7, #12
 300              	.LCFI31:
 301              		.cfi_def_cfa_offset 4
 302 00c8 BD46     		mov	sp, r7
 303              	.LCFI32:
 304              		.cfi_def_cfa_register 13
 305              		@ sp needed
 306 00ca 80BC     		pop	{r7}
 307              	.LCFI33:
 308              		.cfi_restore 7
 309              		.cfi_def_cfa_offset 0
 310 00cc 7047     		bx	lr
 311              		.cfi_endproc
 312              	.LFE9:
 313              		.size	list_empty, .-list_empty
 314              		.align	1
ARM GAS  G:\Users\Jaxb\AppData\Local\Temp\cc11Idxk.s 			page 8


 315              		.syntax unified
 316              		.thumb
 317              		.thumb_func
 318              		.fpu softvfp
 319              		.type	set_module_state, %function
 320              	set_module_state:
 321              	.LFB10:
 322              		.file 2 "../../source/include/os_core/module.h"
   1:../../source/include/os_core/module.h **** #ifndef _MODULE_H
   2:../../source/include/os_core/module.h **** #define _MODULE_H
   3:../../source/include/os_core/module.h **** 
   4:../../source/include/os_core/module.h **** #include <double_linked_list.h>
   5:../../source/include/os_core/module.h **** #include <TCB.h>
   6:../../source/include/os_core/module.h **** #include <kakaosstdint.h>
   7:../../source/include/os_core/module.h **** #include <export.h>
   8:../../source/include/os_core/module.h **** 
   9:../../source/include/os_core/module.h **** #define RT_DLMODULE_STAT_INIT       0x00
  10:../../source/include/os_core/module.h **** #define RT_DLMODULE_STAT_RUNNING    0x01
  11:../../source/include/os_core/module.h **** #define RT_DLMODULE_STAT_CLOSING    0x02
  12:../../source/include/os_core/module.h **** #define RT_DLMODULE_STAT_CLOSED     0x03
  13:../../source/include/os_core/module.h **** 
  14:../../source/include/os_core/module.h **** #define D_MODULE_NAME_MAX               32
  15:../../source/include/os_core/module.h **** #define D_MODULE_DEFAULT_NAME           "dynamic module"
  16:../../source/include/os_core/module.h **** #define D_MODULE_DEFAULT_PRIO           (PRIO_MAX-2)
  17:../../source/include/os_core/module.h **** #define D_MODULE_DEFAULT_STACK_SIZE     2048
  18:../../source/include/os_core/module.h **** 
  19:../../source/include/os_core/module.h **** #define module_init(initfn)                 \
  20:../../source/include/os_core/module.h ****     int init_module(void) __attribute__((alias(#initfn)))
  21:../../source/include/os_core/module.h ****     
  22:../../source/include/os_core/module.h **** #define module_exit(initfn)                 \
  23:../../source/include/os_core/module.h ****     int exit_module(void) __attribute__((alias(#initfn)))
  24:../../source/include/os_core/module.h **** 
  25:../../source/include/os_core/module.h **** //===================
  26:../../source/include/os_core/module.h **** //module state
  27:../../source/include/os_core/module.h **** 
  28:../../source/include/os_core/module.h **** #define MODULE_STATE_DEFAULT    0x00
  29:../../source/include/os_core/module.h **** #define MODULE_STATE_INIT       MODULE_STATE_DEFAULT
  30:../../source/include/os_core/module.h **** #define MODULE_STATE_LOADED     0x01
  31:../../source/include/os_core/module.h **** #define MODULE_STATE_RUN        0x02
  32:../../source/include/os_core/module.h **** //======================================================
  33:../../source/include/os_core/module.h **** 
  34:../../source/include/os_core/module.h **** struct dynamic_module
  35:../../source/include/os_core/module.h **** {
  36:../../source/include/os_core/module.h ****     char name[D_MODULE_NAME_MAX];
  37:../../source/include/os_core/module.h ****     struct list_head module_list;   //link all modules
  38:../../source/include/os_core/module.h ****     UINT32 module_state;
  39:../../source/include/os_core/module.h ****     int (*init)(void);              //this function will be called before module execute
  40:../../source/include/os_core/module.h ****     void (*exit)(void);             //this function will be called after module return 
  41:../../source/include/os_core/module.h ****     void *module_space;
  42:../../source/include/os_core/module.h ****     unsigned int module_size;
  43:../../source/include/os_core/module.h ****     void *init_space;               // not use
  44:../../source/include/os_core/module.h ****     void *entry;                    //module entry point
  45:../../source/include/os_core/module.h ****     UINT32 vstart_addr;            //VMA base address for the first LOAD segment
  46:../../source/include/os_core/module.h ****     struct ka_module_symtab *export_symbols_array;
  47:../../source/include/os_core/module.h ****     unsigned int export_symbols_num;
  48:../../source/include/os_core/module.h ****     unsigned int ref;
  49:../../source/include/os_core/module.h ****     TCB *thread_TCB_ptr;
ARM GAS  G:\Users\Jaxb\AppData\Local\Temp\cc11Idxk.s 			page 9


  50:../../source/include/os_core/module.h **** };
  51:../../source/include/os_core/module.h **** 
  52:../../source/include/os_core/module.h **** typedef struct dynamic_module d_module;
  53:../../source/include/os_core/module.h **** 
  54:../../source/include/os_core/module.h **** static inline void set_module_state(struct dynamic_module *dynamic_module_ptr,UINT32 state)
  55:../../source/include/os_core/module.h **** {
 323              		.loc 2 55 0
 324              		.cfi_startproc
 325              		@ args = 0, pretend = 0, frame = 8
 326              		@ frame_needed = 1, uses_anonymous_args = 0
 327              		@ link register save eliminated.
 328 00ce 80B4     		push	{r7}
 329              	.LCFI34:
 330              		.cfi_def_cfa_offset 4
 331              		.cfi_offset 7, -4
 332 00d0 83B0     		sub	sp, sp, #12
 333              	.LCFI35:
 334              		.cfi_def_cfa_offset 16
 335 00d2 00AF     		add	r7, sp, #0
 336              	.LCFI36:
 337              		.cfi_def_cfa_register 7
 338 00d4 7860     		str	r0, [r7, #4]
 339 00d6 3960     		str	r1, [r7]
  56:../../source/include/os_core/module.h ****     dynamic_module_ptr->module_state |= state;
 340              		.loc 2 56 0
 341 00d8 7B68     		ldr	r3, [r7, #4]
 342 00da 9A6A     		ldr	r2, [r3, #40]
 343 00dc 3B68     		ldr	r3, [r7]
 344 00de 1A43     		orrs	r2, r2, r3
 345 00e0 7B68     		ldr	r3, [r7, #4]
 346 00e2 9A62     		str	r2, [r3, #40]
  57:../../source/include/os_core/module.h **** }
 347              		.loc 2 57 0
 348 00e4 00BF     		nop
 349 00e6 0C37     		adds	r7, r7, #12
 350              	.LCFI37:
 351              		.cfi_def_cfa_offset 4
 352 00e8 BD46     		mov	sp, r7
 353              	.LCFI38:
 354              		.cfi_def_cfa_register 13
 355              		@ sp needed
 356 00ea 80BC     		pop	{r7}
 357              	.LCFI39:
 358              		.cfi_restore 7
 359              		.cfi_def_cfa_offset 0
 360 00ec 7047     		bx	lr
 361              		.cfi_endproc
 362              	.LFE10:
 363              		.size	set_module_state, .-set_module_state
 364              		.bss
 365              		.align	2
 366              	module_buffer:
 367 0000 00000000 		.space	4
 368              		.size	module_buffer, 4
 369              		.align	2
 370              	num:
 371 0004 00000000 		.space	4
ARM GAS  G:\Users\Jaxb\AppData\Local\Temp\cc11Idxk.s 			page 10


 372              		.size	num, 4
 373              		.align	2
 374              	module_list_head:
 375 0008 00000000 		.space	8
 375      00000000 
 376              		.size	module_list_head, 8
 377              		.text
 378              		.align	1
 379              		.global	__init_module
 380              		.syntax unified
 381              		.thumb
 382              		.thumb_func
 383              		.fpu softvfp
 384              		.type	__init_module, %function
 385              	__init_module:
 386              	.LFB11:
 387              		.file 3 "../../source/src/kernel/OS_CORE/module.c"
   1:../../source/src/kernel/OS_CORE/module.c **** #include <elf.h>
   2:../../source/src/kernel/OS_CORE/module.c **** #include <module.h>
   3:../../source/src/kernel/OS_CORE/module.c **** #include <myMicroLIB.h>
   4:../../source/src/kernel/OS_CORE/module.c **** #include <osinit.h>
   5:../../source/src/kernel/OS_CORE/module.c **** #include <os_schedule.h>
   6:../../source/src/kernel/OS_CORE/module.c **** #include <myassert.h>
   7:../../source/src/kernel/OS_CORE/module.c **** #include <export.h>
   8:../../source/src/kernel/OS_CORE/module.c **** #include <printf_debug.h>
   9:../../source/src/kernel/OS_CORE/module.c **** #include <shell.h>
  10:../../source/src/kernel/OS_CORE/module.c **** 
  11:../../source/src/kernel/OS_CORE/module.c **** #if CONFIG_MODULE
  12:../../source/src/kernel/OS_CORE/module.c **** 
  13:../../source/src/kernel/OS_CORE/module.c **** #define elf_module        ((Elf32_Ehdr *)module_ptr)
  14:../../source/src/kernel/OS_CORE/module.c **** 
  15:../../source/src/kernel/OS_CORE/module.c **** static char *module_buffer = NULL;
  16:../../source/src/kernel/OS_CORE/module.c **** static unsigned int num = 0;
  17:../../source/src/kernel/OS_CORE/module.c **** static struct list_head module_list_head;
  18:../../source/src/kernel/OS_CORE/module.c **** 
  19:../../source/src/kernel/OS_CORE/module.c **** void __init_module(void)
  20:../../source/src/kernel/OS_CORE/module.c **** {
 388              		.loc 3 20 0
 389              		.cfi_startproc
 390              		@ args = 0, pretend = 0, frame = 0
 391              		@ frame_needed = 1, uses_anonymous_args = 0
 392 00ee 80B5     		push	{r7, lr}
 393              	.LCFI40:
 394              		.cfi_def_cfa_offset 8
 395              		.cfi_offset 7, -8
 396              		.cfi_offset 14, -4
 397 00f0 00AF     		add	r7, sp, #0
 398              	.LCFI41:
 399              		.cfi_def_cfa_register 7
  21:../../source/src/kernel/OS_CORE/module.c ****     INIT_LIST_HEAD(&module_list_head);
 400              		.loc 3 21 0
 401 00f2 0248     		ldr	r0, .L10
 402 00f4 FFF784FF 		bl	INIT_LIST_HEAD
  22:../../source/src/kernel/OS_CORE/module.c **** }
 403              		.loc 3 22 0
 404 00f8 00BF     		nop
 405 00fa 80BD     		pop	{r7, pc}
ARM GAS  G:\Users\Jaxb\AppData\Local\Temp\cc11Idxk.s 			page 11


 406              	.L11:
 407              		.align	2
 408              	.L10:
 409 00fc 08000000 		.word	module_list_head
 410              		.cfi_endproc
 411              	.LFE11:
 412              		.size	__init_module, .-__init_module
 413              		.section	.rodata
 414              		.align	2
 415              	.LC0:
 416 0000 6D6F6475 		.ascii	"module name is %s\012\000"
 416      6C65206E 
 416      616D6520 
 416      69732025 
 416      730A00
 417 0013 00       		.align	2
 418              	.LC1:
 419 0014 6D6F6475 		.ascii	"module state:\000"
 419      6C652073 
 419      74617465 
 419      3A00
 420 0022 0000     		.align	2
 421              	.LC2:
 422 0024 2E2E2F2E 		.ascii	"../../source/src/kernel/OS_CORE/module.c\000"
 422      2E2F736F 
 422      75726365 
 422      2F737263 
 422      2F6B6572 
 423 004d 000000   		.align	2
 424              	.LC3:
 425 0050 0A00     		.ascii	"\012\000"
 426 0052 0000     		.align	2
 427              	.LC4:
 428 0054 53544154 		.ascii	"STATE_INIT\012\000"
 428      455F494E 
 428      49540A00 
 429              		.align	2
 430              	.LC5:
 431 0060 53544154 		.ascii	"STATE_LOADED\012\000"
 431      455F4C4F 
 431      41444544 
 431      0A00
 432 006e 0000     		.align	2
 433              	.LC6:
 434 0070 4D4F4455 		.ascii	"MODULE_STATE_RUN\012\000"
 434      4C455F53 
 434      54415445 
 434      5F52554E 
 434      0A00
 435 0082 0000     		.align	2
 436              	.LC7:
 437 0084 6D6F6475 		.ascii	"module_space : %p\012\000"
 437      6C655F73 
 437      70616365 
 437      203A2025 
 437      700A00
 438 0097 00       		.align	2
ARM GAS  G:\Users\Jaxb\AppData\Local\Temp\cc11Idxk.s 			page 12


 439              	.LC8:
 440 0098 6D6F6475 		.ascii	"module_size : %u\012\000"
 440      6C655F73 
 440      697A6520 
 440      3A202575 
 440      0A00
 441 00aa 0000     		.align	2
 442              	.LC9:
 443 00ac 6578706F 		.ascii	"export symbols : \012\000"
 443      72742073 
 443      796D626F 
 443      6C73203A 
 443      200A00
 444 00bf 00       		.align	2
 445              	.LC10:
 446 00c0 6E6F2E25 		.ascii	"no.%u : %s\012\000"
 446      75203A20 
 446      25730A00 
 447              		.align	2
 448              	.LC11:
 449 00cc 72656620 		.ascii	"ref : %u\012\000"
 449      3A202575 
 449      0A00
 450              		.text
 451              		.align	1
 452              		.global	shell_modinfo
 453              		.syntax unified
 454              		.thumb
 455              		.thumb_func
 456              		.fpu softvfp
 457              		.type	shell_modinfo, %function
 458              	shell_modinfo:
 459              	.LFB12:
  23:../../source/src/kernel/OS_CORE/module.c **** 
  24:../../source/src/kernel/OS_CORE/module.c **** void shell_modinfo(int argc, char const *argv[])
  25:../../source/src/kernel/OS_CORE/module.c **** {
 460              		.loc 3 25 0
 461              		.cfi_startproc
 462              		@ args = 0, pretend = 0, frame = 24
 463              		@ frame_needed = 1, uses_anonymous_args = 0
 464 0100 80B5     		push	{r7, lr}
 465              	.LCFI42:
 466              		.cfi_def_cfa_offset 8
 467              		.cfi_offset 7, -8
 468              		.cfi_offset 14, -4
 469 0102 86B0     		sub	sp, sp, #24
 470              	.LCFI43:
 471              		.cfi_def_cfa_offset 32
 472 0104 00AF     		add	r7, sp, #0
 473              	.LCFI44:
 474              		.cfi_def_cfa_register 7
 475 0106 7860     		str	r0, [r7, #4]
 476 0108 3960     		str	r1, [r7]
 477              	.LBB2:
  26:../../source/src/kernel/OS_CORE/module.c ****     struct dynamic_module *dynamic_module_ptr;
  27:../../source/src/kernel/OS_CORE/module.c ****     unsigned int i;
  28:../../source/src/kernel/OS_CORE/module.c ****     list_for_each_entry(dynamic_module_ptr,&module_list_head,module_list)
ARM GAS  G:\Users\Jaxb\AppData\Local\Temp\cc11Idxk.s 			page 13


 478              		.loc 3 28 0
 479 010a 334B     		ldr	r3, .L22
 480 010c 1B68     		ldr	r3, [r3]
 481 010e FB60     		str	r3, [r7, #12]
 482 0110 FB68     		ldr	r3, [r7, #12]
 483 0112 203B     		subs	r3, r3, #32
 484              	.LBE2:
 485 0114 7B61     		str	r3, [r7, #20]
 486 0116 55E0     		b	.L13
 487              	.L21:
  29:../../source/src/kernel/OS_CORE/module.c ****     {
  30:../../source/src/kernel/OS_CORE/module.c ****         ka_printf("module name is %s\n",dynamic_module_ptr->name);
 488              		.loc 3 30 0
 489 0118 7B69     		ldr	r3, [r7, #20]
 490 011a 1946     		mov	r1, r3
 491 011c 2F48     		ldr	r0, .L22+4
 492 011e FFF7FEFF 		bl	ka_printf
  31:../../source/src/kernel/OS_CORE/module.c ****         ka_printf("module state:");
 493              		.loc 3 31 0
 494 0122 2F48     		ldr	r0, .L22+8
 495 0124 FFF7FEFF 		bl	ka_printf
  32:../../source/src/kernel/OS_CORE/module.c ****         switch(dynamic_module_ptr->module_state)
 496              		.loc 3 32 0
 497 0128 7B69     		ldr	r3, [r7, #20]
 498 012a 9B6A     		ldr	r3, [r3, #40]
 499 012c 012B     		cmp	r3, #1
 500 012e 0FD0     		beq	.L15
 501 0130 012B     		cmp	r3, #1
 502 0132 09D3     		bcc	.L16
 503 0134 022B     		cmp	r3, #2
 504 0136 0FD0     		beq	.L17
  33:../../source/src/kernel/OS_CORE/module.c ****         {
  34:../../source/src/kernel/OS_CORE/module.c ****             default :
  35:../../source/src/kernel/OS_CORE/module.c ****                 ASSERT(0);ka_printf("\n"); break;
 505              		.loc 3 35 0
 506 0138 2321     		movs	r1, #35
 507 013a 2A48     		ldr	r0, .L22+12
 508 013c FFF7FEFF 		bl	_ASSERT
 509 0140 2948     		ldr	r0, .L22+16
 510 0142 FFF7FEFF 		bl	ka_printf
 511 0146 0BE0     		b	.L18
 512              	.L16:
  36:../../source/src/kernel/OS_CORE/module.c ****             case MODULE_STATE_INIT:
  37:../../source/src/kernel/OS_CORE/module.c ****                 ka_printf("STATE_INIT\n"); break;
 513              		.loc 3 37 0
 514 0148 2848     		ldr	r0, .L22+20
 515 014a FFF7FEFF 		bl	ka_printf
 516 014e 07E0     		b	.L18
 517              	.L15:
  38:../../source/src/kernel/OS_CORE/module.c ****             case MODULE_STATE_LOADED:
  39:../../source/src/kernel/OS_CORE/module.c ****                 ka_printf("STATE_LOADED\n"); break;
 518              		.loc 3 39 0
 519 0150 2748     		ldr	r0, .L22+24
 520 0152 FFF7FEFF 		bl	ka_printf
 521 0156 03E0     		b	.L18
 522              	.L17:
  40:../../source/src/kernel/OS_CORE/module.c ****             case MODULE_STATE_RUN:
ARM GAS  G:\Users\Jaxb\AppData\Local\Temp\cc11Idxk.s 			page 14


  41:../../source/src/kernel/OS_CORE/module.c ****                 ka_printf("MODULE_STATE_RUN\n"); break;
 523              		.loc 3 41 0
 524 0158 2648     		ldr	r0, .L22+28
 525 015a FFF7FEFF 		bl	ka_printf
 526 015e 00BF     		nop
 527              	.L18:
  42:../../source/src/kernel/OS_CORE/module.c ****         }
  43:../../source/src/kernel/OS_CORE/module.c ****         ka_printf("module_space : %p\n",dynamic_module_ptr->module_space);
 528              		.loc 3 43 0
 529 0160 7B69     		ldr	r3, [r7, #20]
 530 0162 5B6B     		ldr	r3, [r3, #52]
 531 0164 1946     		mov	r1, r3
 532 0166 2448     		ldr	r0, .L22+32
 533 0168 FFF7FEFF 		bl	ka_printf
  44:../../source/src/kernel/OS_CORE/module.c ****         ka_printf("module_size : %u\n",dynamic_module_ptr->module_size);
 534              		.loc 3 44 0
 535 016c 7B69     		ldr	r3, [r7, #20]
 536 016e 9B6B     		ldr	r3, [r3, #56]
 537 0170 1946     		mov	r1, r3
 538 0172 2248     		ldr	r0, .L22+36
 539 0174 FFF7FEFF 		bl	ka_printf
  45:../../source/src/kernel/OS_CORE/module.c ****         ka_printf("export symbols : \n");
 540              		.loc 3 45 0
 541 0178 2148     		ldr	r0, .L22+40
 542 017a FFF7FEFF 		bl	ka_printf
  46:../../source/src/kernel/OS_CORE/module.c ****         for(i=0;i<dynamic_module_ptr->export_symbols_num;++i)
 543              		.loc 3 46 0
 544 017e 0023     		movs	r3, #0
 545 0180 3B61     		str	r3, [r7, #16]
 546 0182 0EE0     		b	.L19
 547              	.L20:
  47:../../source/src/kernel/OS_CORE/module.c ****         {
  48:../../source/src/kernel/OS_CORE/module.c ****             ka_printf("no.%u : %s\n",i+1,dynamic_module_ptr->export_symbols_array[i].name);
 548              		.loc 3 48 0 discriminator 3
 549 0184 3B69     		ldr	r3, [r7, #16]
 550 0186 591C     		adds	r1, r3, #1
 551 0188 7B69     		ldr	r3, [r7, #20]
 552 018a 9A6C     		ldr	r2, [r3, #72]
 553 018c 3B69     		ldr	r3, [r7, #16]
 554 018e DB00     		lsls	r3, r3, #3
 555 0190 1344     		add	r3, r3, r2
 556 0192 5B68     		ldr	r3, [r3, #4]
 557 0194 1A46     		mov	r2, r3
 558 0196 1B48     		ldr	r0, .L22+44
 559 0198 FFF7FEFF 		bl	ka_printf
  46:../../source/src/kernel/OS_CORE/module.c ****         for(i=0;i<dynamic_module_ptr->export_symbols_num;++i)
 560              		.loc 3 46 0 discriminator 3
 561 019c 3B69     		ldr	r3, [r7, #16]
 562 019e 0133     		adds	r3, r3, #1
 563 01a0 3B61     		str	r3, [r7, #16]
 564              	.L19:
  46:../../source/src/kernel/OS_CORE/module.c ****         for(i=0;i<dynamic_module_ptr->export_symbols_num;++i)
 565              		.loc 3 46 0 is_stmt 0 discriminator 1
 566 01a2 7B69     		ldr	r3, [r7, #20]
 567 01a4 DB6C     		ldr	r3, [r3, #76]
 568 01a6 3A69     		ldr	r2, [r7, #16]
 569 01a8 9A42     		cmp	r2, r3
ARM GAS  G:\Users\Jaxb\AppData\Local\Temp\cc11Idxk.s 			page 15


 570 01aa EBD3     		bcc	.L20
  49:../../source/src/kernel/OS_CORE/module.c ****         }
  50:../../source/src/kernel/OS_CORE/module.c ****         ka_printf("ref : %u\n",dynamic_module_ptr->ref);
 571              		.loc 3 50 0 is_stmt 1 discriminator 2
 572 01ac 7B69     		ldr	r3, [r7, #20]
 573 01ae 1B6D     		ldr	r3, [r3, #80]
 574 01b0 1946     		mov	r1, r3
 575 01b2 1548     		ldr	r0, .L22+48
 576 01b4 FFF7FEFF 		bl	ka_printf
 577              	.LBB3:
  28:../../source/src/kernel/OS_CORE/module.c ****     {
 578              		.loc 3 28 0 discriminator 2
 579 01b8 7B69     		ldr	r3, [r7, #20]
 580 01ba 1B6A     		ldr	r3, [r3, #32]
 581 01bc BB60     		str	r3, [r7, #8]
 582 01be BB68     		ldr	r3, [r7, #8]
 583 01c0 203B     		subs	r3, r3, #32
 584              	.LBE3:
 585 01c2 7B61     		str	r3, [r7, #20]
 586              	.L13:
  28:../../source/src/kernel/OS_CORE/module.c ****     {
 587              		.loc 3 28 0 is_stmt 0 discriminator 1
 588 01c4 7B69     		ldr	r3, [r7, #20]
 589 01c6 2033     		adds	r3, r3, #32
 590 01c8 034A     		ldr	r2, .L22
 591 01ca 9342     		cmp	r3, r2
 592 01cc A4D1     		bne	.L21
  51:../../source/src/kernel/OS_CORE/module.c ****     }
  52:../../source/src/kernel/OS_CORE/module.c **** }
 593              		.loc 3 52 0 is_stmt 1
 594 01ce 00BF     		nop
 595 01d0 1837     		adds	r7, r7, #24
 596              	.LCFI45:
 597              		.cfi_def_cfa_offset 8
 598 01d2 BD46     		mov	sp, r7
 599              	.LCFI46:
 600              		.cfi_def_cfa_register 13
 601              		@ sp needed
 602 01d4 80BD     		pop	{r7, pc}
 603              	.L23:
 604 01d6 00BF     		.align	2
 605              	.L22:
 606 01d8 08000000 		.word	module_list_head
 607 01dc 00000000 		.word	.LC0
 608 01e0 14000000 		.word	.LC1
 609 01e4 24000000 		.word	.LC2
 610 01e8 50000000 		.word	.LC3
 611 01ec 54000000 		.word	.LC4
 612 01f0 60000000 		.word	.LC5
 613 01f4 70000000 		.word	.LC6
 614 01f8 84000000 		.word	.LC7
 615 01fc 98000000 		.word	.LC8
 616 0200 AC000000 		.word	.LC9
 617 0204 C0000000 		.word	.LC10
 618 0208 CC000000 		.word	.LC11
 619              		.cfi_endproc
 620              	.LFE12:
ARM GAS  G:\Users\Jaxb\AppData\Local\Temp\cc11Idxk.s 			page 16


 621              		.size	shell_modinfo, .-shell_modinfo
 622              		.section	.rodata
 623 00d6 0000     		.align	2
 624              	.LC12:
 625 00d8 746F7461 		.ascii	"total %u modules\012\000"
 625      6C202575 
 625      206D6F64 
 625      756C6573 
 625      0A00
 626              		.text
 627              		.align	1
 628              		.global	shell_list_module
 629              		.syntax unified
 630              		.thumb
 631              		.thumb_func
 632              		.fpu softvfp
 633              		.type	shell_list_module, %function
 634              	shell_list_module:
 635              	.LFB13:
  53:../../source/src/kernel/OS_CORE/module.c **** 
  54:../../source/src/kernel/OS_CORE/module.c **** void shell_list_module(int argc, char const *argv[])
  55:../../source/src/kernel/OS_CORE/module.c **** {
 636              		.loc 3 55 0
 637              		.cfi_startproc
 638              		@ args = 0, pretend = 0, frame = 24
 639              		@ frame_needed = 1, uses_anonymous_args = 0
 640 020c 80B5     		push	{r7, lr}
 641              	.LCFI47:
 642              		.cfi_def_cfa_offset 8
 643              		.cfi_offset 7, -8
 644              		.cfi_offset 14, -4
 645 020e 86B0     		sub	sp, sp, #24
 646              	.LCFI48:
 647              		.cfi_def_cfa_offset 32
 648 0210 00AF     		add	r7, sp, #0
 649              	.LCFI49:
 650              		.cfi_def_cfa_register 7
 651 0212 7860     		str	r0, [r7, #4]
 652 0214 3960     		str	r1, [r7]
  56:../../source/src/kernel/OS_CORE/module.c ****     struct dynamic_module *dynamic_module_ptr;
  57:../../source/src/kernel/OS_CORE/module.c ****     unsigned int i = 0;
 653              		.loc 3 57 0
 654 0216 0023     		movs	r3, #0
 655 0218 3B61     		str	r3, [r7, #16]
 656              	.LBB4:
  58:../../source/src/kernel/OS_CORE/module.c ****     list_for_each_entry(dynamic_module_ptr,&module_list_head,module_list)
 657              		.loc 3 58 0
 658 021a 114B     		ldr	r3, .L27
 659 021c 1B68     		ldr	r3, [r3]
 660 021e FB60     		str	r3, [r7, #12]
 661 0220 FB68     		ldr	r3, [r7, #12]
 662 0222 203B     		subs	r3, r3, #32
 663              	.LBE4:
 664 0224 7B61     		str	r3, [r7, #20]
 665 0226 0DE0     		b	.L25
 666              	.L26:
  59:../../source/src/kernel/OS_CORE/module.c ****     {
ARM GAS  G:\Users\Jaxb\AppData\Local\Temp\cc11Idxk.s 			page 17


  60:../../source/src/kernel/OS_CORE/module.c ****         ++i;
 667              		.loc 3 60 0 discriminator 3
 668 0228 3B69     		ldr	r3, [r7, #16]
 669 022a 0133     		adds	r3, r3, #1
 670 022c 3B61     		str	r3, [r7, #16]
  61:../../source/src/kernel/OS_CORE/module.c ****         ka_printf("module name is %s\n",dynamic_module_ptr->name);
 671              		.loc 3 61 0 discriminator 3
 672 022e 7B69     		ldr	r3, [r7, #20]
 673 0230 1946     		mov	r1, r3
 674 0232 0C48     		ldr	r0, .L27+4
 675 0234 FFF7FEFF 		bl	ka_printf
 676              	.LBB5:
  58:../../source/src/kernel/OS_CORE/module.c ****     list_for_each_entry(dynamic_module_ptr,&module_list_head,module_list)
 677              		.loc 3 58 0 discriminator 3
 678 0238 7B69     		ldr	r3, [r7, #20]
 679 023a 1B6A     		ldr	r3, [r3, #32]
 680 023c BB60     		str	r3, [r7, #8]
 681 023e BB68     		ldr	r3, [r7, #8]
 682 0240 203B     		subs	r3, r3, #32
 683              	.LBE5:
 684 0242 7B61     		str	r3, [r7, #20]
 685              	.L25:
  58:../../source/src/kernel/OS_CORE/module.c ****     list_for_each_entry(dynamic_module_ptr,&module_list_head,module_list)
 686              		.loc 3 58 0 is_stmt 0 discriminator 1
 687 0244 7B69     		ldr	r3, [r7, #20]
 688 0246 2033     		adds	r3, r3, #32
 689 0248 054A     		ldr	r2, .L27
 690 024a 9342     		cmp	r3, r2
 691 024c ECD1     		bne	.L26
  62:../../source/src/kernel/OS_CORE/module.c ****     }
  63:../../source/src/kernel/OS_CORE/module.c ****     ka_printf("total %u modules\n",i);
 692              		.loc 3 63 0 is_stmt 1
 693 024e 3969     		ldr	r1, [r7, #16]
 694 0250 0548     		ldr	r0, .L27+8
 695 0252 FFF7FEFF 		bl	ka_printf
  64:../../source/src/kernel/OS_CORE/module.c **** }
 696              		.loc 3 64 0
 697 0256 00BF     		nop
 698 0258 1837     		adds	r7, r7, #24
 699              	.LCFI50:
 700              		.cfi_def_cfa_offset 8
 701 025a BD46     		mov	sp, r7
 702              	.LCFI51:
 703              		.cfi_def_cfa_register 13
 704              		@ sp needed
 705 025c 80BD     		pop	{r7, pc}
 706              	.L28:
 707 025e 00BF     		.align	2
 708              	.L27:
 709 0260 08000000 		.word	module_list_head
 710 0264 00000000 		.word	.LC0
 711 0268 D8000000 		.word	.LC12
 712              		.cfi_endproc
 713              	.LFE13:
 714              		.size	shell_list_module, .-shell_list_module
 715              		.align	1
 716              		.syntax unified
ARM GAS  G:\Users\Jaxb\AppData\Local\Temp\cc11Idxk.s 			page 18


 717              		.thumb
 718              		.thumb_func
 719              		.fpu softvfp
 720              		.type	get_mod_export_function_addr, %function
 721              	get_mod_export_function_addr:
 722              	.LFB14:
  65:../../source/src/kernel/OS_CORE/module.c **** 
  66:../../source/src/kernel/OS_CORE/module.c **** static UINT32 get_mod_export_function_addr(const char *fun_name)
  67:../../source/src/kernel/OS_CORE/module.c **** {
 723              		.loc 3 67 0
 724              		.cfi_startproc
 725              		@ args = 0, pretend = 0, frame = 24
 726              		@ frame_needed = 1, uses_anonymous_args = 0
 727 026c 80B5     		push	{r7, lr}
 728              	.LCFI52:
 729              		.cfi_def_cfa_offset 8
 730              		.cfi_offset 7, -8
 731              		.cfi_offset 14, -4
 732 026e 86B0     		sub	sp, sp, #24
 733              	.LCFI53:
 734              		.cfi_def_cfa_offset 32
 735 0270 00AF     		add	r7, sp, #0
 736              	.LCFI54:
 737              		.cfi_def_cfa_register 7
 738 0272 7860     		str	r0, [r7, #4]
 739              	.LBB6:
  68:../../source/src/kernel/OS_CORE/module.c ****     struct dynamic_module *dynamic_module_ptr;
  69:../../source/src/kernel/OS_CORE/module.c ****     list_for_each_entry(dynamic_module_ptr,&module_list_head,module_list)
 740              		.loc 3 69 0
 741 0274 1A4B     		ldr	r3, .L36
 742 0276 1B68     		ldr	r3, [r3]
 743 0278 FB60     		str	r3, [r7, #12]
 744 027a FB68     		ldr	r3, [r7, #12]
 745 027c 203B     		subs	r3, r3, #32
 746              	.LBE6:
 747 027e 7B61     		str	r3, [r7, #20]
 748 0280 24E0     		b	.L30
 749              	.L35:
 750              	.LBB7:
  70:../../source/src/kernel/OS_CORE/module.c ****     {
  71:../../source/src/kernel/OS_CORE/module.c ****         unsigned int i;
  72:../../source/src/kernel/OS_CORE/module.c ****         for(i=0;i<dynamic_module_ptr->export_symbols_num;++i)
 751              		.loc 3 72 0
 752 0282 0023     		movs	r3, #0
 753 0284 3B61     		str	r3, [r7, #16]
 754 0286 16E0     		b	.L31
 755              	.L34:
  73:../../source/src/kernel/OS_CORE/module.c ****         {
  74:../../source/src/kernel/OS_CORE/module.c ****             if (0 == ka_strcmp(dynamic_module_ptr->export_symbols_array[i].name, fun_name))
 756              		.loc 3 74 0
 757 0288 7B69     		ldr	r3, [r7, #20]
 758 028a 9A6C     		ldr	r2, [r3, #72]
 759 028c 3B69     		ldr	r3, [r7, #16]
 760 028e DB00     		lsls	r3, r3, #3
 761 0290 1344     		add	r3, r3, r2
 762 0292 5B68     		ldr	r3, [r3, #4]
 763 0294 7968     		ldr	r1, [r7, #4]
ARM GAS  G:\Users\Jaxb\AppData\Local\Temp\cc11Idxk.s 			page 19


 764 0296 1846     		mov	r0, r3
 765 0298 FFF7FEFF 		bl	ka_strcmp
 766 029c 0346     		mov	r3, r0
 767 029e 002B     		cmp	r3, #0
 768 02a0 06D1     		bne	.L32
  75:../../source/src/kernel/OS_CORE/module.c ****             {
  76:../../source/src/kernel/OS_CORE/module.c ****                 return (UINT32)dynamic_module_ptr->export_symbols_array[i].addr;
 769              		.loc 3 76 0
 770 02a2 7B69     		ldr	r3, [r7, #20]
 771 02a4 9A6C     		ldr	r2, [r3, #72]
 772 02a6 3B69     		ldr	r3, [r7, #16]
 773 02a8 DB00     		lsls	r3, r3, #3
 774 02aa 1344     		add	r3, r3, r2
 775 02ac 1B68     		ldr	r3, [r3]
 776 02ae 13E0     		b	.L33
 777              	.L32:
  72:../../source/src/kernel/OS_CORE/module.c ****         {
 778              		.loc 3 72 0 discriminator 2
 779 02b0 3B69     		ldr	r3, [r7, #16]
 780 02b2 0133     		adds	r3, r3, #1
 781 02b4 3B61     		str	r3, [r7, #16]
 782              	.L31:
  72:../../source/src/kernel/OS_CORE/module.c ****         {
 783              		.loc 3 72 0 is_stmt 0 discriminator 1
 784 02b6 7B69     		ldr	r3, [r7, #20]
 785 02b8 DB6C     		ldr	r3, [r3, #76]
 786 02ba 3A69     		ldr	r2, [r7, #16]
 787 02bc 9A42     		cmp	r2, r3
 788 02be E3D3     		bcc	.L34
 789              	.LBE7:
 790              	.LBB8:
  69:../../source/src/kernel/OS_CORE/module.c ****     {
 791              		.loc 3 69 0 is_stmt 1 discriminator 2
 792 02c0 7B69     		ldr	r3, [r7, #20]
 793 02c2 1B6A     		ldr	r3, [r3, #32]
 794 02c4 BB60     		str	r3, [r7, #8]
 795 02c6 BB68     		ldr	r3, [r7, #8]
 796 02c8 203B     		subs	r3, r3, #32
 797              	.LBE8:
 798 02ca 7B61     		str	r3, [r7, #20]
 799              	.L30:
  69:../../source/src/kernel/OS_CORE/module.c ****     {
 800              		.loc 3 69 0 is_stmt 0 discriminator 1
 801 02cc 7B69     		ldr	r3, [r7, #20]
 802 02ce 2033     		adds	r3, r3, #32
 803 02d0 034A     		ldr	r2, .L36
 804 02d2 9342     		cmp	r3, r2
 805 02d4 D5D1     		bne	.L35
  77:../../source/src/kernel/OS_CORE/module.c ****             }
  78:../../source/src/kernel/OS_CORE/module.c ****         }
  79:../../source/src/kernel/OS_CORE/module.c ****     }
  80:../../source/src/kernel/OS_CORE/module.c ****     return 0;
 806              		.loc 3 80 0 is_stmt 1
 807 02d6 0023     		movs	r3, #0
 808              	.L33:
  81:../../source/src/kernel/OS_CORE/module.c **** }
 809              		.loc 3 81 0
ARM GAS  G:\Users\Jaxb\AppData\Local\Temp\cc11Idxk.s 			page 20


 810 02d8 1846     		mov	r0, r3
 811 02da 1837     		adds	r7, r7, #24
 812              	.LCFI55:
 813              		.cfi_def_cfa_offset 8
 814 02dc BD46     		mov	sp, r7
 815              	.LCFI56:
 816              		.cfi_def_cfa_register 13
 817              		@ sp needed
 818 02de 80BD     		pop	{r7, pc}
 819              	.L37:
 820              		.align	2
 821              	.L36:
 822 02e0 08000000 		.word	module_list_head
 823              		.cfi_endproc
 824              	.LFE14:
 825              		.size	get_mod_export_function_addr, .-get_mod_export_function_addr
 826              		.section	.rodata
 827 00ea 0000     		.align	2
 828              	.LC13:
 829 00ec 2D6E616D 		.ascii	"-name=\000"
 829      653D00
 830 00f3 00       		.align	2
 831              	.LC14:
 832 00f4 696E7661 		.ascii	"invalid module name\012\000"
 832      6C696420 
 832      6D6F6475 
 832      6C65206E 
 832      616D650A 
 833 0109 000000   		.align	2
 834              	.LC15:
 835 010c 706C6561 		.ascii	"please input module name\012\000"
 835      73652069 
 835      6E707574 
 835      206D6F64 
 835      756C6520 
 836              		.text
 837              		.align	1
 838              		.global	shell_remove_module
 839              		.syntax unified
 840              		.thumb
 841              		.thumb_func
 842              		.fpu softvfp
 843              		.type	shell_remove_module, %function
 844              	shell_remove_module:
 845              	.LFB15:
  82:../../source/src/kernel/OS_CORE/module.c **** 
  83:../../source/src/kernel/OS_CORE/module.c **** /******************
  84:../../source/src/kernel/OS_CORE/module.c **** * 
  85:../../source/src/kernel/OS_CORE/module.c **** *   rmmod -name=dmodule
  86:../../source/src/kernel/OS_CORE/module.c **** *
  87:../../source/src/kernel/OS_CORE/module.c **** *******************/
  88:../../source/src/kernel/OS_CORE/module.c **** void shell_remove_module(int argc, char const *argv[])
  89:../../source/src/kernel/OS_CORE/module.c **** {
 846              		.loc 3 89 0
 847              		.cfi_startproc
 848              		@ args = 0, pretend = 0, frame = 24
 849              		@ frame_needed = 1, uses_anonymous_args = 0
ARM GAS  G:\Users\Jaxb\AppData\Local\Temp\cc11Idxk.s 			page 21


 850 02e4 80B5     		push	{r7, lr}
 851              	.LCFI57:
 852              		.cfi_def_cfa_offset 8
 853              		.cfi_offset 7, -8
 854              		.cfi_offset 14, -4
 855 02e6 86B0     		sub	sp, sp, #24
 856              	.LCFI58:
 857              		.cfi_def_cfa_offset 32
 858 02e8 00AF     		add	r7, sp, #0
 859              	.LCFI59:
 860              		.cfi_def_cfa_register 7
 861 02ea 7860     		str	r0, [r7, #4]
 862 02ec 3960     		str	r1, [r7]
  90:../../source/src/kernel/OS_CORE/module.c ****     if(argc < 2)
 863              		.loc 3 90 0
 864 02ee 7B68     		ldr	r3, [r7, #4]
 865 02f0 012B     		cmp	r3, #1
 866 02f2 2ADD     		ble	.L46
  91:../../source/src/kernel/OS_CORE/module.c ****     {
  92:../../source/src/kernel/OS_CORE/module.c ****         goto out;
  93:../../source/src/kernel/OS_CORE/module.c ****     }
  94:../../source/src/kernel/OS_CORE/module.c ****     char *para = get_para_add(argc,argv,"-name=");
 867              		.loc 3 94 0
 868 02f4 1A4A     		ldr	r2, .L48
 869 02f6 3968     		ldr	r1, [r7]
 870 02f8 7868     		ldr	r0, [r7, #4]
 871 02fa FFF7FEFF 		bl	get_para_add
 872 02fe 3861     		str	r0, [r7, #16]
  95:../../source/src/kernel/OS_CORE/module.c ****     if(NULL == para)
 873              		.loc 3 95 0
 874 0300 3B69     		ldr	r3, [r7, #16]
 875 0302 002B     		cmp	r3, #0
 876 0304 23D0     		beq	.L47
 877              	.LBB9:
  96:../../source/src/kernel/OS_CORE/module.c ****     {
  97:../../source/src/kernel/OS_CORE/module.c ****         goto out;
  98:../../source/src/kernel/OS_CORE/module.c ****     }
  99:../../source/src/kernel/OS_CORE/module.c ****     struct dynamic_module *dynamic_module_ptr;
 100:../../source/src/kernel/OS_CORE/module.c ****     list_for_each_entry(dynamic_module_ptr,&module_list_head,module_list)
 878              		.loc 3 100 0
 879 0306 174B     		ldr	r3, .L48+4
 880 0308 1B68     		ldr	r3, [r3]
 881 030a FB60     		str	r3, [r7, #12]
 882 030c FB68     		ldr	r3, [r7, #12]
 883 030e 203B     		subs	r3, r3, #32
 884              	.LBE9:
 885 0310 7B61     		str	r3, [r7, #20]
 886 0312 11E0     		b	.L42
 887              	.L45:
 101:../../source/src/kernel/OS_CORE/module.c ****     {
 102:../../source/src/kernel/OS_CORE/module.c ****         if(0 == ka_strcmp(para,dynamic_module_ptr->name))
 888              		.loc 3 102 0
 889 0314 7B69     		ldr	r3, [r7, #20]
 890 0316 1946     		mov	r1, r3
 891 0318 3869     		ldr	r0, [r7, #16]
 892 031a FFF7FEFF 		bl	ka_strcmp
 893 031e 0346     		mov	r3, r0
ARM GAS  G:\Users\Jaxb\AppData\Local\Temp\cc11Idxk.s 			page 22


 894 0320 002B     		cmp	r3, #0
 895 0322 03D1     		bne	.L43
 103:../../source/src/kernel/OS_CORE/module.c ****         {
 104:../../source/src/kernel/OS_CORE/module.c ****             remove_module(dynamic_module_ptr);
 896              		.loc 3 104 0
 897 0324 7869     		ldr	r0, [r7, #20]
 898 0326 FFF7FEFF 		bl	remove_module
 105:../../source/src/kernel/OS_CORE/module.c ****             return ;
 899              		.loc 3 105 0
 900 032a 15E0     		b	.L38
 901              	.L43:
 902              	.LBB10:
 100:../../source/src/kernel/OS_CORE/module.c ****     {
 903              		.loc 3 100 0 discriminator 2
 904 032c 7B69     		ldr	r3, [r7, #20]
 905 032e 1B6A     		ldr	r3, [r3, #32]
 906 0330 BB60     		str	r3, [r7, #8]
 907 0332 BB68     		ldr	r3, [r7, #8]
 908 0334 203B     		subs	r3, r3, #32
 909              	.LBE10:
 910 0336 7B61     		str	r3, [r7, #20]
 911              	.L42:
 100:../../source/src/kernel/OS_CORE/module.c ****     {
 912              		.loc 3 100 0 is_stmt 0 discriminator 1
 913 0338 7B69     		ldr	r3, [r7, #20]
 914 033a 2033     		adds	r3, r3, #32
 915 033c 094A     		ldr	r2, .L48+4
 916 033e 9342     		cmp	r3, r2
 917 0340 E8D1     		bne	.L45
 106:../../source/src/kernel/OS_CORE/module.c ****         }
 107:../../source/src/kernel/OS_CORE/module.c ****     }
 108:../../source/src/kernel/OS_CORE/module.c ****     ka_printf("invalid module name\n");
 918              		.loc 3 108 0 is_stmt 1
 919 0342 0948     		ldr	r0, .L48+8
 920 0344 FFF7FEFF 		bl	ka_printf
 109:../../source/src/kernel/OS_CORE/module.c ****     return ;
 921              		.loc 3 109 0
 922 0348 06E0     		b	.L38
 923              	.L46:
  92:../../source/src/kernel/OS_CORE/module.c ****     }
 924              		.loc 3 92 0
 925 034a 00BF     		nop
 926 034c 00E0     		b	.L40
 927              	.L47:
  97:../../source/src/kernel/OS_CORE/module.c ****     }
 928              		.loc 3 97 0
 929 034e 00BF     		nop
 930              	.L40:
 110:../../source/src/kernel/OS_CORE/module.c **** out:
 111:../../source/src/kernel/OS_CORE/module.c ****     ka_printf("please input module name\n");
 931              		.loc 3 111 0
 932 0350 0648     		ldr	r0, .L48+12
 933 0352 FFF7FEFF 		bl	ka_printf
 112:../../source/src/kernel/OS_CORE/module.c ****     return ;
 934              		.loc 3 112 0
 935 0356 00BF     		nop
 936              	.L38:
ARM GAS  G:\Users\Jaxb\AppData\Local\Temp\cc11Idxk.s 			page 23


 113:../../source/src/kernel/OS_CORE/module.c **** }
 937              		.loc 3 113 0
 938 0358 1837     		adds	r7, r7, #24
 939              	.LCFI60:
 940              		.cfi_def_cfa_offset 8
 941 035a BD46     		mov	sp, r7
 942              	.LCFI61:
 943              		.cfi_def_cfa_register 13
 944              		@ sp needed
 945 035c 80BD     		pop	{r7, pc}
 946              	.L49:
 947 035e 00BF     		.align	2
 948              	.L48:
 949 0360 EC000000 		.word	.LC13
 950 0364 08000000 		.word	module_list_head
 951 0368 F4000000 		.word	.LC14
 952 036c 0C010000 		.word	.LC15
 953              		.cfi_endproc
 954              	.LFE15:
 955              		.size	shell_remove_module, .-shell_remove_module
 956              		.section	.rodata
 957 0126 0000     		.align	2
 958              	.LC16:
 959 0128 72656D6F 		.ascii	"remove module name is %s\000"
 959      7665206D 
 959      6F64756C 
 959      65206E61 
 959      6D652069 
 960              		.text
 961              		.align	1
 962              		.syntax unified
 963              		.thumb
 964              		.thumb_func
 965              		.fpu softvfp
 966              		.type	_remove_a_module, %function
 967              	_remove_a_module:
 968              	.LFB16:
 114:../../source/src/kernel/OS_CORE/module.c **** 
 115:../../source/src/kernel/OS_CORE/module.c **** static int _remove_a_module(struct dynamic_module *dynamic_module_ptr)
 116:../../source/src/kernel/OS_CORE/module.c **** {
 969              		.loc 3 116 0
 970              		.cfi_startproc
 971              		@ args = 0, pretend = 0, frame = 16
 972              		@ frame_needed = 1, uses_anonymous_args = 0
 973 0370 80B5     		push	{r7, lr}
 974              	.LCFI62:
 975              		.cfi_def_cfa_offset 8
 976              		.cfi_offset 7, -8
 977              		.cfi_offset 14, -4
 978 0372 84B0     		sub	sp, sp, #16
 979              	.LCFI63:
 980              		.cfi_def_cfa_offset 24
 981 0374 00AF     		add	r7, sp, #0
 982              	.LCFI64:
 983              		.cfi_def_cfa_register 7
 984 0376 7860     		str	r0, [r7, #4]
 117:../../source/src/kernel/OS_CORE/module.c ****     PRINTF("remove module name is %s",dynamic_module_ptr->name);
ARM GAS  G:\Users\Jaxb\AppData\Local\Temp\cc11Idxk.s 			page 24


 985              		.loc 3 117 0
 986 0378 7B68     		ldr	r3, [r7, #4]
 987 037a 1946     		mov	r1, r3
 988 037c 2048     		ldr	r0, .L57
 989 037e FFF7FEFF 		bl	ka_printf
 118:../../source/src/kernel/OS_CORE/module.c ****     if(MODULE_STATE_RUN == dynamic_module_ptr->module_state)
 990              		.loc 3 118 0
 991 0382 7B68     		ldr	r3, [r7, #4]
 992 0384 9B6A     		ldr	r3, [r3, #40]
 993 0386 022B     		cmp	r3, #2
 994 0388 0CD1     		bne	.L51
 119:../../source/src/kernel/OS_CORE/module.c ****     {
 120:../../source/src/kernel/OS_CORE/module.c ****         ASSERT(dynamic_module_ptr->thread_TCB_ptr);
 995              		.loc 3 120 0
 996 038a 7B68     		ldr	r3, [r7, #4]
 997 038c 5B6D     		ldr	r3, [r3, #84]
 998 038e 002B     		cmp	r3, #0
 999 0390 03D1     		bne	.L52
 1000              		.loc 3 120 0 is_stmt 0 discriminator 1
 1001 0392 7821     		movs	r1, #120
 1002 0394 1B48     		ldr	r0, .L57+4
 1003 0396 FFF7FEFF 		bl	_ASSERT
 1004              	.L52:
 121:../../source/src/kernel/OS_CORE/module.c ****         task_delete(dynamic_module_ptr->thread_TCB_ptr);
 1005              		.loc 3 121 0 is_stmt 1
 1006 039a 7B68     		ldr	r3, [r7, #4]
 1007 039c 5B6D     		ldr	r3, [r3, #84]
 1008 039e 1846     		mov	r0, r3
 1009 03a0 FFF7FEFF 		bl	task_delete
 1010              	.L51:
 122:../../source/src/kernel/OS_CORE/module.c ****     }
 123:../../source/src/kernel/OS_CORE/module.c ****     if(dynamic_module_ptr->exit)
 1011              		.loc 3 123 0
 1012 03a4 7B68     		ldr	r3, [r7, #4]
 1013 03a6 1B6B     		ldr	r3, [r3, #48]
 1014 03a8 002B     		cmp	r3, #0
 1015 03aa 02D0     		beq	.L53
 124:../../source/src/kernel/OS_CORE/module.c ****     {
 125:../../source/src/kernel/OS_CORE/module.c ****         dynamic_module_ptr->exit();
 1016              		.loc 3 125 0
 1017 03ac 7B68     		ldr	r3, [r7, #4]
 1018 03ae 1B6B     		ldr	r3, [r3, #48]
 1019 03b0 9847     		blx	r3
 1020              	.LVL0:
 1021              	.L53:
 126:../../source/src/kernel/OS_CORE/module.c ****     }
 127:../../source/src/kernel/OS_CORE/module.c ****     unsigned int i;
 128:../../source/src/kernel/OS_CORE/module.c ****     for(i=0;i<dynamic_module_ptr->export_symbols_num;++i)
 1022              		.loc 3 128 0
 1023 03b2 0023     		movs	r3, #0
 1024 03b4 FB60     		str	r3, [r7, #12]
 1025 03b6 0BE0     		b	.L54
 1026              	.L55:
 129:../../source/src/kernel/OS_CORE/module.c ****     {
 130:../../source/src/kernel/OS_CORE/module.c ****         ka_free((void *)dynamic_module_ptr->export_symbols_array[i].name);
 1027              		.loc 3 130 0 discriminator 3
 1028 03b8 7B68     		ldr	r3, [r7, #4]
ARM GAS  G:\Users\Jaxb\AppData\Local\Temp\cc11Idxk.s 			page 25


 1029 03ba 9A6C     		ldr	r2, [r3, #72]
 1030 03bc FB68     		ldr	r3, [r7, #12]
 1031 03be DB00     		lsls	r3, r3, #3
 1032 03c0 1344     		add	r3, r3, r2
 1033 03c2 5B68     		ldr	r3, [r3, #4]
 1034 03c4 1846     		mov	r0, r3
 1035 03c6 FFF7FEFF 		bl	ka_free
 128:../../source/src/kernel/OS_CORE/module.c ****     {
 1036              		.loc 3 128 0 discriminator 3
 1037 03ca FB68     		ldr	r3, [r7, #12]
 1038 03cc 0133     		adds	r3, r3, #1
 1039 03ce FB60     		str	r3, [r7, #12]
 1040              	.L54:
 128:../../source/src/kernel/OS_CORE/module.c ****     {
 1041              		.loc 3 128 0 is_stmt 0 discriminator 1
 1042 03d0 7B68     		ldr	r3, [r7, #4]
 1043 03d2 DB6C     		ldr	r3, [r3, #76]
 1044 03d4 FA68     		ldr	r2, [r7, #12]
 1045 03d6 9A42     		cmp	r2, r3
 1046 03d8 EED3     		bcc	.L55
 131:../../source/src/kernel/OS_CORE/module.c ****     }
 132:../../source/src/kernel/OS_CORE/module.c ****     ka_free(dynamic_module_ptr->module_space);
 1047              		.loc 3 132 0 is_stmt 1
 1048 03da 7B68     		ldr	r3, [r7, #4]
 1049 03dc 5B6B     		ldr	r3, [r3, #52]
 1050 03de 1846     		mov	r0, r3
 1051 03e0 FFF7FEFF 		bl	ka_free
 133:../../source/src/kernel/OS_CORE/module.c ****     list_del(&dynamic_module_ptr->module_list);
 1052              		.loc 3 133 0
 1053 03e4 7B68     		ldr	r3, [r7, #4]
 1054 03e6 2033     		adds	r3, r3, #32
 1055 03e8 1846     		mov	r0, r3
 1056 03ea FFF74FFE 		bl	list_del
 134:../../source/src/kernel/OS_CORE/module.c ****     ka_free(dynamic_module_ptr);
 1057              		.loc 3 134 0
 1058 03ee 7868     		ldr	r0, [r7, #4]
 1059 03f0 FFF7FEFF 		bl	ka_free
 135:../../source/src/kernel/OS_CORE/module.c ****     return FUN_EXECUTE_SUCCESSFULLY;
 1060              		.loc 3 135 0
 1061 03f4 0023     		movs	r3, #0
 136:../../source/src/kernel/OS_CORE/module.c **** }
 1062              		.loc 3 136 0
 1063 03f6 1846     		mov	r0, r3
 1064 03f8 1037     		adds	r7, r7, #16
 1065              	.LCFI65:
 1066              		.cfi_def_cfa_offset 8
 1067 03fa BD46     		mov	sp, r7
 1068              	.LCFI66:
 1069              		.cfi_def_cfa_register 13
 1070              		@ sp needed
 1071 03fc 80BD     		pop	{r7, pc}
 1072              	.L58:
 1073 03fe 00BF     		.align	2
 1074              	.L57:
 1075 0400 28010000 		.word	.LC16
 1076 0404 24000000 		.word	.LC2
 1077              		.cfi_endproc
ARM GAS  G:\Users\Jaxb\AppData\Local\Temp\cc11Idxk.s 			page 26


 1078              	.LFE16:
 1079              		.size	_remove_a_module, .-_remove_a_module
 1080              		.section	.rodata
 1081 0141 000000   		.align	2
 1082              	.LC17:
 1083 0144 6572726F 		.ascii	"error fun name : remove_module\012error para : dyna"
 1083      72206675 
 1083      6E206E61 
 1083      6D65203A 
 1083      2072656D 
 1084 0174 6D69635F 		.ascii	"mic_module_ptr\012\000"
 1084      6D6F6475 
 1084      6C655F70 
 1084      74720A00 
 1085              		.text
 1086              		.align	1
 1087              		.global	remove_module
 1088              		.syntax unified
 1089              		.thumb
 1090              		.thumb_func
 1091              		.fpu softvfp
 1092              		.type	remove_module, %function
 1093              	remove_module:
 1094              	.LFB17:
 137:../../source/src/kernel/OS_CORE/module.c **** 
 138:../../source/src/kernel/OS_CORE/module.c **** int remove_module(struct dynamic_module *dynamic_module_ptr)
 139:../../source/src/kernel/OS_CORE/module.c **** {
 1095              		.loc 3 139 0
 1096              		.cfi_startproc
 1097              		@ args = 0, pretend = 0, frame = 8
 1098              		@ frame_needed = 1, uses_anonymous_args = 0
 1099 0408 80B5     		push	{r7, lr}
 1100              	.LCFI67:
 1101              		.cfi_def_cfa_offset 8
 1102              		.cfi_offset 7, -8
 1103              		.cfi_offset 14, -4
 1104 040a 82B0     		sub	sp, sp, #8
 1105              	.LCFI68:
 1106              		.cfi_def_cfa_offset 16
 1107 040c 00AF     		add	r7, sp, #0
 1108              	.LCFI69:
 1109              		.cfi_def_cfa_register 7
 1110 040e 7860     		str	r0, [r7, #4]
 140:../../source/src/kernel/OS_CORE/module.c ****     if(NULL == dynamic_module_ptr)
 1111              		.loc 3 140 0
 1112 0410 7B68     		ldr	r3, [r7, #4]
 1113 0412 002B     		cmp	r3, #0
 1114 0414 05D1     		bne	.L60
 141:../../source/src/kernel/OS_CORE/module.c ****     {
 142:../../source/src/kernel/OS_CORE/module.c ****         OS_ERROR_PARA_MESSAGE_DISPLAY(remove_module,dynamic_module_ptr);
 1115              		.loc 3 142 0
 1116 0416 0A48     		ldr	r0, .L63
 1117 0418 FFF7FEFF 		bl	ka_printf
 143:../../source/src/kernel/OS_CORE/module.c ****         return -ERROR_NULL_INPUT_PTR;
 1118              		.loc 3 143 0
 1119 041c 6FF0FE03 		mvn	r3, #254
 1120 0420 0AE0     		b	.L61
ARM GAS  G:\Users\Jaxb\AppData\Local\Temp\cc11Idxk.s 			page 27


 1121              	.L60:
 144:../../source/src/kernel/OS_CORE/module.c ****     }
 145:../../source/src/kernel/OS_CORE/module.c ****     ASSERT(NULL != dynamic_module_ptr);
 1122              		.loc 3 145 0
 1123 0422 7B68     		ldr	r3, [r7, #4]
 1124 0424 002B     		cmp	r3, #0
 1125 0426 03D1     		bne	.L62
 1126              		.loc 3 145 0 is_stmt 0 discriminator 1
 1127 0428 9121     		movs	r1, #145
 1128 042a 0648     		ldr	r0, .L63+4
 1129 042c FFF7FEFF 		bl	_ASSERT
 1130              	.L62:
 146:../../source/src/kernel/OS_CORE/module.c ****     _remove_a_module(dynamic_module_ptr);
 1131              		.loc 3 146 0 is_stmt 1
 1132 0430 7868     		ldr	r0, [r7, #4]
 1133 0432 FFF79DFF 		bl	_remove_a_module
 147:../../source/src/kernel/OS_CORE/module.c ****     return FUN_EXECUTE_SUCCESSFULLY;
 1134              		.loc 3 147 0
 1135 0436 0023     		movs	r3, #0
 1136              	.L61:
 148:../../source/src/kernel/OS_CORE/module.c **** }
 1137              		.loc 3 148 0
 1138 0438 1846     		mov	r0, r3
 1139 043a 0837     		adds	r7, r7, #8
 1140              	.LCFI70:
 1141              		.cfi_def_cfa_offset 8
 1142 043c BD46     		mov	sp, r7
 1143              	.LCFI71:
 1144              		.cfi_def_cfa_register 13
 1145              		@ sp needed
 1146 043e 80BD     		pop	{r7, pc}
 1147              	.L64:
 1148              		.align	2
 1149              	.L63:
 1150 0440 44010000 		.word	.LC17
 1151 0444 24000000 		.word	.LC2
 1152              		.cfi_endproc
 1153              	.LFE17:
 1154              		.size	remove_module, .-remove_module
 1155              		.section	.rodata
 1156              		.align	2
 1157              	.LC18:
 1158 0184 4D6F6475 		.ascii	"Module: Only Thumb addresses allowed\012\000"
 1158      6C653A20 
 1158      4F6E6C79 
 1158      20546875 
 1158      6D622061 
 1159              		.text
 1160              		.align	1
 1161              		.global	dlmodule_relocate
 1162              		.syntax unified
 1163              		.thumb
 1164              		.thumb_func
 1165              		.fpu softvfp
 1166              		.type	dlmodule_relocate, %function
 1167              	dlmodule_relocate:
 1168              	.LFB18:
ARM GAS  G:\Users\Jaxb\AppData\Local\Temp\cc11Idxk.s 			page 28


 149:../../source/src/kernel/OS_CORE/module.c **** 
 150:../../source/src/kernel/OS_CORE/module.c **** int dlmodule_relocate(struct dynamic_module *module, Elf32_Rel *rel, Elf32_Addr sym_val)
 151:../../source/src/kernel/OS_CORE/module.c **** {
 1169              		.loc 3 151 0
 1170              		.cfi_startproc
 1171              		@ args = 0, pretend = 0, frame = 56
 1172              		@ frame_needed = 1, uses_anonymous_args = 0
 1173 0448 80B5     		push	{r7, lr}
 1174              	.LCFI72:
 1175              		.cfi_def_cfa_offset 8
 1176              		.cfi_offset 7, -8
 1177              		.cfi_offset 14, -4
 1178 044a 8EB0     		sub	sp, sp, #56
 1179              	.LCFI73:
 1180              		.cfi_def_cfa_offset 64
 1181 044c 00AF     		add	r7, sp, #0
 1182              	.LCFI74:
 1183              		.cfi_def_cfa_register 7
 1184 044e F860     		str	r0, [r7, #12]
 1185 0450 B960     		str	r1, [r7, #8]
 1186 0452 7A60     		str	r2, [r7, #4]
 152:../../source/src/kernel/OS_CORE/module.c ****     Elf32_Addr *where, tmp;
 153:../../source/src/kernel/OS_CORE/module.c ****     Elf32_Sword addend, offset;
 154:../../source/src/kernel/OS_CORE/module.c ****     UINT32 upper, lower, sign, j1, j2;
 155:../../source/src/kernel/OS_CORE/module.c **** 
 156:../../source/src/kernel/OS_CORE/module.c ****     where = (Elf32_Addr *)((UINT8 *)module->module_space
 1187              		.loc 3 156 0
 1188 0454 FB68     		ldr	r3, [r7, #12]
 1189 0456 5A6B     		ldr	r2, [r3, #52]
 157:../../source/src/kernel/OS_CORE/module.c ****                            + rel->r_offset
 1190              		.loc 3 157 0
 1191 0458 BB68     		ldr	r3, [r7, #8]
 1192 045a 1968     		ldr	r1, [r3]
 158:../../source/src/kernel/OS_CORE/module.c ****                            - module->vstart_addr);
 1193              		.loc 3 158 0
 1194 045c FB68     		ldr	r3, [r7, #12]
 1195 045e 5B6C     		ldr	r3, [r3, #68]
 1196 0460 CB1A     		subs	r3, r1, r3
 156:../../source/src/kernel/OS_CORE/module.c ****                            + rel->r_offset
 1197              		.loc 3 156 0
 1198 0462 1344     		add	r3, r3, r2
 1199 0464 FB62     		str	r3, [r7, #44]
 159:../../source/src/kernel/OS_CORE/module.c ****     switch (ELF32_R_TYPE(rel->r_info))
 1200              		.loc 3 159 0
 1201 0466 BB68     		ldr	r3, [r7, #8]
 1202 0468 5B68     		ldr	r3, [r3, #4]
 1203 046a DBB2     		uxtb	r3, r3
 1204 046c 282B     		cmp	r3, #40
 1205 046e 00F25A81 		bhi	.L66
 1206 0472 01A2     		adr	r2, .L68
 1207 0474 52F823F0 		ldr	pc, [r2, r3, lsl #2]
 1208              		.p2align 2
 1209              	.L68:
 1210 0478 2D070000 		.word	.L86+1
 1211 047c 2B050000 		.word	.L69+1
 1212 0480 1D050000 		.word	.L70+1
 1213 0484 71050000 		.word	.L71+1
ARM GAS  G:\Users\Jaxb\AppData\Local\Temp\cc11Idxk.s 			page 29


 1214 0488 27070000 		.word	.L66+1
 1215 048c 27070000 		.word	.L66+1
 1216 0490 27070000 		.word	.L66+1
 1217 0494 27070000 		.word	.L66+1
 1218 0498 27070000 		.word	.L66+1
 1219 049c 27070000 		.word	.L66+1
 1220 04a0 B7050000 		.word	.L72+1
 1221 04a4 27070000 		.word	.L66+1
 1222 04a8 27070000 		.word	.L66+1
 1223 04ac 27070000 		.word	.L66+1
 1224 04b0 27070000 		.word	.L66+1
 1225 04b4 27070000 		.word	.L66+1
 1226 04b8 27070000 		.word	.L66+1
 1227 04bc 27070000 		.word	.L66+1
 1228 04c0 27070000 		.word	.L66+1
 1229 04c4 27070000 		.word	.L66+1
 1230 04c8 27070000 		.word	.L66+1
 1231 04cc A1050000 		.word	.L73+1
 1232 04d0 A1050000 		.word	.L73+1
 1233 04d4 A9050000 		.word	.L74+1
 1234 04d8 27070000 		.word	.L66+1
 1235 04dc 27070000 		.word	.L66+1
 1236 04e0 27070000 		.word	.L66+1
 1237 04e4 2B050000 		.word	.L69+1
 1238 04e8 2B050000 		.word	.L69+1
 1239 04ec 2B050000 		.word	.L69+1
 1240 04f0 B7050000 		.word	.L72+1
 1241 04f4 27070000 		.word	.L66+1
 1242 04f8 27070000 		.word	.L66+1
 1243 04fc 27070000 		.word	.L66+1
 1244 0500 27070000 		.word	.L66+1
 1245 0504 27070000 		.word	.L66+1
 1246 0508 27070000 		.word	.L66+1
 1247 050c 27070000 		.word	.L66+1
 1248 0510 27070000 		.word	.L66+1
 1249 0514 27070000 		.word	.L66+1
 1250 0518 83050000 		.word	.L75+1
 1251              		.p2align 1
 1252              	.L70:
 160:../../source/src/kernel/OS_CORE/module.c ****     {
 161:../../source/src/kernel/OS_CORE/module.c ****     case R_ARM_NONE:
 162:../../source/src/kernel/OS_CORE/module.c ****         break;
 163:../../source/src/kernel/OS_CORE/module.c ****     case R_ARM_ABS32:
 164:../../source/src/kernel/OS_CORE/module.c ****         *where += (Elf32_Addr)sym_val;
 1253              		.loc 3 164 0
 1254 051c FB6A     		ldr	r3, [r7, #44]
 1255 051e 1A68     		ldr	r2, [r3]
 1256 0520 7B68     		ldr	r3, [r7, #4]
 1257 0522 1A44     		add	r2, r2, r3
 1258 0524 FB6A     		ldr	r3, [r7, #44]
 1259 0526 1A60     		str	r2, [r3]
 165:../../source/src/kernel/OS_CORE/module.c ****         /*ka_printf("R_ARM_ABS32: %x -> %x\n",
 166:../../source/src/kernel/OS_CORE/module.c ****                   where, *where);*/
 167:../../source/src/kernel/OS_CORE/module.c ****         break;
 1260              		.loc 3 167 0
 1261 0528 01E1     		b	.L76
 1262              	.L69:
ARM GAS  G:\Users\Jaxb\AppData\Local\Temp\cc11Idxk.s 			page 30


 168:../../source/src/kernel/OS_CORE/module.c ****     case R_ARM_PC24:
 169:../../source/src/kernel/OS_CORE/module.c ****     case R_ARM_PLT32:
 170:../../source/src/kernel/OS_CORE/module.c ****     case R_ARM_CALL:
 171:../../source/src/kernel/OS_CORE/module.c ****     case R_ARM_JUMP24:
 172:../../source/src/kernel/OS_CORE/module.c ****         addend = *where & 0x00ffffff;
 1263              		.loc 3 172 0
 1264 052a FB6A     		ldr	r3, [r7, #44]
 1265 052c 1B68     		ldr	r3, [r3]
 1266 052e 23F07F43 		bic	r3, r3, #-16777216
 1267 0532 7B63     		str	r3, [r7, #52]
 173:../../source/src/kernel/OS_CORE/module.c ****         if (addend & 0x00800000)
 1268              		.loc 3 173 0
 1269 0534 7B6B     		ldr	r3, [r7, #52]
 1270 0536 03F40003 		and	r3, r3, #8388608
 1271 053a 002B     		cmp	r3, #0
 1272 053c 03D0     		beq	.L77
 174:../../source/src/kernel/OS_CORE/module.c ****             addend |= 0xff000000;
 1273              		.loc 3 174 0
 1274 053e 7B6B     		ldr	r3, [r7, #52]
 1275 0540 43F07F43 		orr	r3, r3, #-16777216
 1276 0544 7B63     		str	r3, [r7, #52]
 1277              	.L77:
 175:../../source/src/kernel/OS_CORE/module.c ****         tmp = sym_val - (Elf32_Addr)where + (addend << 2);
 1278              		.loc 3 175 0
 1279 0546 FB6A     		ldr	r3, [r7, #44]
 1280 0548 7A68     		ldr	r2, [r7, #4]
 1281 054a D31A     		subs	r3, r2, r3
 1282 054c 7A6B     		ldr	r2, [r7, #52]
 1283 054e 9200     		lsls	r2, r2, #2
 1284 0550 1344     		add	r3, r3, r2
 1285 0552 7B61     		str	r3, [r7, #20]
 176:../../source/src/kernel/OS_CORE/module.c ****         tmp >>= 2;
 1286              		.loc 3 176 0
 1287 0554 7B69     		ldr	r3, [r7, #20]
 1288 0556 9B08     		lsrs	r3, r3, #2
 1289 0558 7B61     		str	r3, [r7, #20]
 177:../../source/src/kernel/OS_CORE/module.c ****         *where = (*where & 0xff000000) | (tmp & 0x00ffffff);
 1290              		.loc 3 177 0
 1291 055a FB6A     		ldr	r3, [r7, #44]
 1292 055c 1B68     		ldr	r3, [r3]
 1293 055e 03F07F42 		and	r2, r3, #-16777216
 1294 0562 7B69     		ldr	r3, [r7, #20]
 1295 0564 23F07F43 		bic	r3, r3, #-16777216
 1296 0568 1A43     		orrs	r2, r2, r3
 1297 056a FB6A     		ldr	r3, [r7, #44]
 1298 056c 1A60     		str	r2, [r3]
 178:../../source/src/kernel/OS_CORE/module.c ****         /*ka_printf("R_ARM_PC24: %x -> %x\n",
 179:../../source/src/kernel/OS_CORE/module.c ****                   where, *where);*/
 180:../../source/src/kernel/OS_CORE/module.c ****         break;
 1299              		.loc 3 180 0
 1300 056e DEE0     		b	.L76
 1301              	.L71:
 181:../../source/src/kernel/OS_CORE/module.c ****     case R_ARM_REL32:
 182:../../source/src/kernel/OS_CORE/module.c ****         *where += sym_val - (Elf32_Addr)where;
 1302              		.loc 3 182 0
 1303 0570 FB6A     		ldr	r3, [r7, #44]
 1304 0572 1A68     		ldr	r2, [r3]
ARM GAS  G:\Users\Jaxb\AppData\Local\Temp\cc11Idxk.s 			page 31


 1305 0574 FB6A     		ldr	r3, [r7, #44]
 1306 0576 7968     		ldr	r1, [r7, #4]
 1307 0578 CB1A     		subs	r3, r1, r3
 1308 057a 1A44     		add	r2, r2, r3
 1309 057c FB6A     		ldr	r3, [r7, #44]
 1310 057e 1A60     		str	r2, [r3]
 183:../../source/src/kernel/OS_CORE/module.c ****         /*ka_printf("R_ARM_REL32: %x -> %x, sym %x, offset %x\n",
 184:../../source/src/kernel/OS_CORE/module.c ****                   where, *where, sym_val, rel->r_offset);*/
 185:../../source/src/kernel/OS_CORE/module.c ****         break;
 1311              		.loc 3 185 0
 1312 0580 D5E0     		b	.L76
 1313              	.L75:
 186:../../source/src/kernel/OS_CORE/module.c ****     case R_ARM_V4BX:
 187:../../source/src/kernel/OS_CORE/module.c ****         *where &= 0xf000000f;
 1314              		.loc 3 187 0
 1315 0582 FB6A     		ldr	r3, [r7, #44]
 1316 0584 1A68     		ldr	r2, [r3]
 1317 0586 6C4B     		ldr	r3, .L87
 1318 0588 1340     		ands	r3, r3, r2
 1319 058a FA6A     		ldr	r2, [r7, #44]
 1320 058c 1360     		str	r3, [r2]
 188:../../source/src/kernel/OS_CORE/module.c ****         *where |= 0x01a0f000;
 1321              		.loc 3 188 0
 1322 058e FB6A     		ldr	r3, [r7, #44]
 1323 0590 1B68     		ldr	r3, [r3]
 1324 0592 43F0D073 		orr	r3, r3, #27262976
 1325 0596 43F47043 		orr	r3, r3, #61440
 1326 059a FA6A     		ldr	r2, [r7, #44]
 1327 059c 1360     		str	r3, [r2]
 189:../../source/src/kernel/OS_CORE/module.c ****         break;
 1328              		.loc 3 189 0
 1329 059e C6E0     		b	.L76
 1330              	.L73:
 190:../../source/src/kernel/OS_CORE/module.c **** 
 191:../../source/src/kernel/OS_CORE/module.c ****     case R_ARM_GLOB_DAT:
 192:../../source/src/kernel/OS_CORE/module.c ****     case R_ARM_JUMP_SLOT:
 193:../../source/src/kernel/OS_CORE/module.c ****         *where = (Elf32_Addr)sym_val;
 1331              		.loc 3 193 0
 1332 05a0 FB6A     		ldr	r3, [r7, #44]
 1333 05a2 7A68     		ldr	r2, [r7, #4]
 1334 05a4 1A60     		str	r2, [r3]
 194:../../source/src/kernel/OS_CORE/module.c ****         /*ka_printf("R_ARM_JUMP_SLOT: 0x%x -> 0x%x 0x%x\n",
 195:../../source/src/kernel/OS_CORE/module.c ****                   where, *where, sym_val);*/
 196:../../source/src/kernel/OS_CORE/module.c ****         break;
 1335              		.loc 3 196 0
 1336 05a6 C2E0     		b	.L76
 1337              	.L74:
 197:../../source/src/kernel/OS_CORE/module.c **** #if 0        /* To do */
 198:../../source/src/kernel/OS_CORE/module.c ****     case R_ARM_GOT_BREL:
 199:../../source/src/kernel/OS_CORE/module.c ****         temp   = (Elf32_Addr)sym_val;
 200:../../source/src/kernel/OS_CORE/module.c ****         *where = (Elf32_Addr)&temp;
 201:../../source/src/kernel/OS_CORE/module.c ****         RT_DEBUG_LOG(RT_DEBUG_MODULE, ("R_ARM_GOT_BREL: 0x%x -> 0x%x 0x%x\n",
 202:../../source/src/kernel/OS_CORE/module.c ****                                        where, *where, sym_val));
 203:../../source/src/kernel/OS_CORE/module.c ****         break;
 204:../../source/src/kernel/OS_CORE/module.c **** #endif
 205:../../source/src/kernel/OS_CORE/module.c **** 
 206:../../source/src/kernel/OS_CORE/module.c ****     case R_ARM_RELATIVE:
ARM GAS  G:\Users\Jaxb\AppData\Local\Temp\cc11Idxk.s 			page 32


 207:../../source/src/kernel/OS_CORE/module.c ****         *where = (Elf32_Addr)sym_val + *where;
 1338              		.loc 3 207 0
 1339 05a8 FB6A     		ldr	r3, [r7, #44]
 1340 05aa 1A68     		ldr	r2, [r3]
 1341 05ac 7B68     		ldr	r3, [r7, #4]
 1342 05ae 1A44     		add	r2, r2, r3
 1343 05b0 FB6A     		ldr	r3, [r7, #44]
 1344 05b2 1A60     		str	r2, [r3]
 208:../../source/src/kernel/OS_CORE/module.c ****         /*ka_printf("R_ARM_RELATIVE: 0x%x -> 0x%x 0x%x\n",
 209:../../source/src/kernel/OS_CORE/module.c ****                   where, *where, sym_val);*/
 210:../../source/src/kernel/OS_CORE/module.c ****         break;
 1345              		.loc 3 210 0
 1346 05b4 BBE0     		b	.L76
 1347              	.L72:
 211:../../source/src/kernel/OS_CORE/module.c ****     case R_ARM_THM_CALL:
 212:../../source/src/kernel/OS_CORE/module.c ****     case R_ARM_THM_JUMP24:
 213:../../source/src/kernel/OS_CORE/module.c ****         upper  = *(UINT16 *)where;
 1348              		.loc 3 213 0
 1349 05b6 FB6A     		ldr	r3, [r7, #44]
 1350 05b8 1B88     		ldrh	r3, [r3]
 1351 05ba BB62     		str	r3, [r7, #40]
 214:../../source/src/kernel/OS_CORE/module.c ****         lower  = *(UINT16 *)((Elf32_Addr)where + 2);
 1352              		.loc 3 214 0
 1353 05bc FB6A     		ldr	r3, [r7, #44]
 1354 05be 0233     		adds	r3, r3, #2
 1355 05c0 1B88     		ldrh	r3, [r3]
 1356 05c2 7B62     		str	r3, [r7, #36]
 215:../../source/src/kernel/OS_CORE/module.c **** 
 216:../../source/src/kernel/OS_CORE/module.c ****         sign   = (upper >> 10) & 1;
 1357              		.loc 3 216 0
 1358 05c4 BB6A     		ldr	r3, [r7, #40]
 1359 05c6 9B0A     		lsrs	r3, r3, #10
 1360 05c8 03F00103 		and	r3, r3, #1
 1361 05cc 3B62     		str	r3, [r7, #32]
 217:../../source/src/kernel/OS_CORE/module.c ****         j1     = (lower >> 13) & 1;
 1362              		.loc 3 217 0
 1363 05ce 7B6A     		ldr	r3, [r7, #36]
 1364 05d0 5B0B     		lsrs	r3, r3, #13
 1365 05d2 03F00103 		and	r3, r3, #1
 1366 05d6 FB61     		str	r3, [r7, #28]
 218:../../source/src/kernel/OS_CORE/module.c ****         j2     = (lower >> 11) & 1;
 1367              		.loc 3 218 0
 1368 05d8 7B6A     		ldr	r3, [r7, #36]
 1369 05da DB0A     		lsrs	r3, r3, #11
 1370 05dc 03F00103 		and	r3, r3, #1
 1371 05e0 BB61     		str	r3, [r7, #24]
 219:../../source/src/kernel/OS_CORE/module.c ****         offset = (sign << 24) |
 1372              		.loc 3 219 0
 1373 05e2 3B6A     		ldr	r3, [r7, #32]
 1374 05e4 1B06     		lsls	r3, r3, #24
 220:../../source/src/kernel/OS_CORE/module.c ****                  ((~(j1 ^ sign) & 1) << 23) |
 1375              		.loc 3 220 0
 1376 05e6 F969     		ldr	r1, [r7, #28]
 1377 05e8 3A6A     		ldr	r2, [r7, #32]
 1378 05ea 4A40     		eors	r2, r2, r1
 1379 05ec 02F00102 		and	r2, r2, #1
 1380 05f0 002A     		cmp	r2, #0
ARM GAS  G:\Users\Jaxb\AppData\Local\Temp\cc11Idxk.s 			page 33


 1381 05f2 02D1     		bne	.L78
 1382              		.loc 3 220 0 is_stmt 0 discriminator 1
 1383 05f4 4FF40002 		mov	r2, #8388608
 1384 05f8 00E0     		b	.L79
 1385              	.L78:
 1386              		.loc 3 220 0 discriminator 2
 1387 05fa 0022     		movs	r2, #0
 1388              	.L79:
 219:../../source/src/kernel/OS_CORE/module.c ****         offset = (sign << 24) |
 1389              		.loc 3 219 0 is_stmt 1
 1390 05fc 1343     		orrs	r3, r3, r2
 221:../../source/src/kernel/OS_CORE/module.c ****                  ((~(j2 ^ sign) & 1) << 22) |
 1391              		.loc 3 221 0
 1392 05fe B969     		ldr	r1, [r7, #24]
 1393 0600 3A6A     		ldr	r2, [r7, #32]
 1394 0602 4A40     		eors	r2, r2, r1
 1395 0604 02F00102 		and	r2, r2, #1
 1396 0608 002A     		cmp	r2, #0
 1397 060a 02D1     		bne	.L80
 1398              		.loc 3 221 0 is_stmt 0 discriminator 1
 1399 060c 4FF48002 		mov	r2, #4194304
 1400 0610 00E0     		b	.L81
 1401              	.L80:
 1402              		.loc 3 221 0 discriminator 2
 1403 0612 0022     		movs	r2, #0
 1404              	.L81:
 220:../../source/src/kernel/OS_CORE/module.c ****                  ((~(j1 ^ sign) & 1) << 23) |
 1405              		.loc 3 220 0 is_stmt 1
 1406 0614 1A43     		orrs	r2, r2, r3
 222:../../source/src/kernel/OS_CORE/module.c ****                  ((upper & 0x03ff) << 12) |
 1407              		.loc 3 222 0
 1408 0616 BB6A     		ldr	r3, [r7, #40]
 1409 0618 1903     		lsls	r1, r3, #12
 1410 061a 484B     		ldr	r3, .L87+4
 1411 061c 0B40     		ands	r3, r3, r1
 221:../../source/src/kernel/OS_CORE/module.c ****                  ((~(j2 ^ sign) & 1) << 22) |
 1412              		.loc 3 221 0
 1413 061e 1A43     		orrs	r2, r2, r3
 223:../../source/src/kernel/OS_CORE/module.c ****                  ((lower & 0x07ff) << 1);
 1414              		.loc 3 223 0
 1415 0620 7B6A     		ldr	r3, [r7, #36]
 1416 0622 5900     		lsls	r1, r3, #1
 1417 0624 40F6FE73 		movw	r3, #4094
 1418 0628 0B40     		ands	r3, r3, r1
 222:../../source/src/kernel/OS_CORE/module.c ****                  ((upper & 0x03ff) << 12) |
 1419              		.loc 3 222 0
 1420 062a 1343     		orrs	r3, r3, r2
 219:../../source/src/kernel/OS_CORE/module.c ****                  ((~(j1 ^ sign) & 1) << 23) |
 1421              		.loc 3 219 0
 1422 062c 3B63     		str	r3, [r7, #48]
 224:../../source/src/kernel/OS_CORE/module.c ****         if (offset & 0x01000000)
 1423              		.loc 3 224 0
 1424 062e 3B6B     		ldr	r3, [r7, #48]
 1425 0630 03F08073 		and	r3, r3, #16777216
 1426 0634 002B     		cmp	r3, #0
 1427 0636 03D0     		beq	.L82
 225:../../source/src/kernel/OS_CORE/module.c ****             offset -= 0x02000000;
ARM GAS  G:\Users\Jaxb\AppData\Local\Temp\cc11Idxk.s 			page 34


 1428              		.loc 3 225 0
 1429 0638 3B6B     		ldr	r3, [r7, #48]
 1430 063a 03F17E43 		add	r3, r3, #-33554432
 1431 063e 3B63     		str	r3, [r7, #48]
 1432              	.L82:
 226:../../source/src/kernel/OS_CORE/module.c ****         offset += sym_val - (Elf32_Addr)where;
 1433              		.loc 3 226 0
 1434 0640 FB6A     		ldr	r3, [r7, #44]
 1435 0642 7A68     		ldr	r2, [r7, #4]
 1436 0644 D21A     		subs	r2, r2, r3
 1437 0646 3B6B     		ldr	r3, [r7, #48]
 1438 0648 1344     		add	r3, r3, r2
 1439 064a 3B63     		str	r3, [r7, #48]
 227:../../source/src/kernel/OS_CORE/module.c **** 
 228:../../source/src/kernel/OS_CORE/module.c ****         if (!(offset & 1) ||
 1440              		.loc 3 228 0
 1441 064c 3B6B     		ldr	r3, [r7, #48]
 1442 064e 03F00103 		and	r3, r3, #1
 1443 0652 002B     		cmp	r3, #0
 1444 0654 07D0     		beq	.L83
 1445              		.loc 3 228 0 is_stmt 0 discriminator 1
 1446 0656 3B6B     		ldr	r3, [r7, #48]
 1447 0658 B3F17F4F 		cmp	r3, #-16777216
 1448 065c 03DD     		ble	.L83
 229:../../source/src/kernel/OS_CORE/module.c ****                 offset <= (INT32)0xff000000 ||
 1449              		.loc 3 229 0 is_stmt 1
 1450 065e 3B6B     		ldr	r3, [r7, #48]
 1451 0660 B3F1807F 		cmp	r3, #16777216
 1452 0664 05DB     		blt	.L84
 1453              	.L83:
 230:../../source/src/kernel/OS_CORE/module.c ****                 offset >= (INT32)0x01000000)
 231:../../source/src/kernel/OS_CORE/module.c ****         {
 232:../../source/src/kernel/OS_CORE/module.c ****             ka_printf("Module: Only Thumb addresses allowed\n");
 1454              		.loc 3 232 0
 1455 0666 3648     		ldr	r0, .L87+8
 1456 0668 FFF7FEFF 		bl	ka_printf
 233:../../source/src/kernel/OS_CORE/module.c **** 
 234:../../source/src/kernel/OS_CORE/module.c ****             return -1;
 1457              		.loc 3 234 0
 1458 066c 4FF0FF33 		mov	r3, #-1
 1459 0670 5EE0     		b	.L85
 1460              	.L84:
 235:../../source/src/kernel/OS_CORE/module.c ****         }
 236:../../source/src/kernel/OS_CORE/module.c **** 
 237:../../source/src/kernel/OS_CORE/module.c ****         sign = (offset >> 24) & 1;
 1461              		.loc 3 237 0
 1462 0672 3B6B     		ldr	r3, [r7, #48]
 1463 0674 1B16     		asrs	r3, r3, #24
 1464 0676 03F00103 		and	r3, r3, #1
 1465 067a 3B62     		str	r3, [r7, #32]
 238:../../source/src/kernel/OS_CORE/module.c ****         j1   = sign ^ (~(offset >> 23) & 1);
 1466              		.loc 3 238 0
 1467 067c 3B6B     		ldr	r3, [r7, #48]
 1468 067e 03F40003 		and	r3, r3, #8388608
 1469 0682 002B     		cmp	r3, #0
 1470 0684 0CBF     		ite	eq
 1471 0686 0123     		moveq	r3, #1
ARM GAS  G:\Users\Jaxb\AppData\Local\Temp\cc11Idxk.s 			page 35


 1472 0688 0023     		movne	r3, #0
 1473 068a DBB2     		uxtb	r3, r3
 1474 068c 1A46     		mov	r2, r3
 1475 068e 3B6A     		ldr	r3, [r7, #32]
 1476 0690 5340     		eors	r3, r3, r2
 1477 0692 FB61     		str	r3, [r7, #28]
 239:../../source/src/kernel/OS_CORE/module.c ****         j2   = sign ^ (~(offset >> 22) & 1);
 1478              		.loc 3 239 0
 1479 0694 3B6B     		ldr	r3, [r7, #48]
 1480 0696 03F48003 		and	r3, r3, #4194304
 1481 069a 002B     		cmp	r3, #0
 1482 069c 0CBF     		ite	eq
 1483 069e 0123     		moveq	r3, #1
 1484 06a0 0023     		movne	r3, #0
 1485 06a2 DBB2     		uxtb	r3, r3
 1486 06a4 1A46     		mov	r2, r3
 1487 06a6 3B6A     		ldr	r3, [r7, #32]
 1488 06a8 5340     		eors	r3, r3, r2
 1489 06aa BB61     		str	r3, [r7, #24]
 240:../../source/src/kernel/OS_CORE/module.c ****         *(UINT16 *)where = (UINT16)((upper & 0xf800) |
 1490              		.loc 3 240 0
 1491 06ac BB6A     		ldr	r3, [r7, #40]
 1492 06ae 9BB2     		uxth	r3, r3
 1493 06b0 23F4FF63 		bic	r3, r3, #2040
 1494 06b4 23F00703 		bic	r3, r3, #7
 1495 06b8 9AB2     		uxth	r2, r3
 241:../../source/src/kernel/OS_CORE/module.c ****                                     (sign << 10) |
 1496              		.loc 3 241 0
 1497 06ba 3B6A     		ldr	r3, [r7, #32]
 1498 06bc 9BB2     		uxth	r3, r3
 1499 06be 9B02     		lsls	r3, r3, #10
 1500 06c0 9BB2     		uxth	r3, r3
 240:../../source/src/kernel/OS_CORE/module.c ****         *(UINT16 *)where = (UINT16)((upper & 0xf800) |
 1501              		.loc 3 240 0
 1502 06c2 1343     		orrs	r3, r3, r2
 1503 06c4 9AB2     		uxth	r2, r3
 242:../../source/src/kernel/OS_CORE/module.c ****                                     ((offset >> 12) & 0x03ff));
 1504              		.loc 3 242 0
 1505 06c6 3B6B     		ldr	r3, [r7, #48]
 1506 06c8 1B13     		asrs	r3, r3, #12
 1507 06ca 9BB2     		uxth	r3, r3
 1508 06cc C3F30903 		ubfx	r3, r3, #0, #10
 1509 06d0 9BB2     		uxth	r3, r3
 240:../../source/src/kernel/OS_CORE/module.c ****         *(UINT16 *)where = (UINT16)((upper & 0xf800) |
 1510              		.loc 3 240 0
 1511 06d2 1343     		orrs	r3, r3, r2
 1512 06d4 9AB2     		uxth	r2, r3
 1513 06d6 FB6A     		ldr	r3, [r7, #44]
 1514 06d8 1A80     		strh	r2, [r3]	@ movhi
 243:../../source/src/kernel/OS_CORE/module.c ****         *(UINT16 *)(where + 2) = (UINT16)((lower & 0xd000) |
 1515              		.loc 3 243 0
 1516 06da 7B6A     		ldr	r3, [r7, #36]
 1517 06dc 9BB2     		uxth	r3, r3
 1518 06de 23F43F53 		bic	r3, r3, #12224
 1519 06e2 23F03F03 		bic	r3, r3, #63
 1520 06e6 9AB2     		uxth	r2, r3
 244:../../source/src/kernel/OS_CORE/module.c ****                                           (j1 << 13) | (j2 << 11) |
ARM GAS  G:\Users\Jaxb\AppData\Local\Temp\cc11Idxk.s 			page 36


 1521              		.loc 3 244 0
 1522 06e8 FB69     		ldr	r3, [r7, #28]
 1523 06ea 9BB2     		uxth	r3, r3
 1524 06ec 5B03     		lsls	r3, r3, #13
 1525 06ee 9BB2     		uxth	r3, r3
 243:../../source/src/kernel/OS_CORE/module.c ****         *(UINT16 *)(where + 2) = (UINT16)((lower & 0xd000) |
 1526              		.loc 3 243 0
 1527 06f0 1343     		orrs	r3, r3, r2
 1528 06f2 9AB2     		uxth	r2, r3
 1529              		.loc 3 244 0
 1530 06f4 BB69     		ldr	r3, [r7, #24]
 1531 06f6 9BB2     		uxth	r3, r3
 1532 06f8 DB02     		lsls	r3, r3, #11
 1533 06fa 9BB2     		uxth	r3, r3
 1534 06fc 1343     		orrs	r3, r3, r2
 1535 06fe 99B2     		uxth	r1, r3
 245:../../source/src/kernel/OS_CORE/module.c ****                                           ((offset >> 1) & 0x07ff));
 1536              		.loc 3 245 0
 1537 0700 3B6B     		ldr	r3, [r7, #48]
 1538 0702 5B10     		asrs	r3, r3, #1
 1539 0704 9BB2     		uxth	r3, r3
 1540 0706 C3F30A03 		ubfx	r3, r3, #0, #11
 1541 070a 9AB2     		uxth	r2, r3
 243:../../source/src/kernel/OS_CORE/module.c ****         *(UINT16 *)(where + 2) = (UINT16)((lower & 0xd000) |
 1542              		.loc 3 243 0
 1543 070c FB6A     		ldr	r3, [r7, #44]
 1544 070e 0833     		adds	r3, r3, #8
 1545 0710 0A43     		orrs	r2, r2, r1
 1546 0712 92B2     		uxth	r2, r2
 1547 0714 1A80     		strh	r2, [r3]	@ movhi
 246:../../source/src/kernel/OS_CORE/module.c ****         upper = *(UINT16 *)where;
 1548              		.loc 3 246 0
 1549 0716 FB6A     		ldr	r3, [r7, #44]
 1550 0718 1B88     		ldrh	r3, [r3]
 1551 071a BB62     		str	r3, [r7, #40]
 247:../../source/src/kernel/OS_CORE/module.c ****         lower = *(UINT16 *)((Elf32_Addr)where + 2);
 1552              		.loc 3 247 0
 1553 071c FB6A     		ldr	r3, [r7, #44]
 1554 071e 0233     		adds	r3, r3, #2
 1555 0720 1B88     		ldrh	r3, [r3]
 1556 0722 7B62     		str	r3, [r7, #36]
 248:../../source/src/kernel/OS_CORE/module.c ****         break;
 1557              		.loc 3 248 0
 1558 0724 03E0     		b	.L76
 1559              	.L66:
 249:../../source/src/kernel/OS_CORE/module.c ****     default:
 250:../../source/src/kernel/OS_CORE/module.c ****         /*ka_printf("do nothing\n");*/
 251:../../source/src/kernel/OS_CORE/module.c ****         return -1;
 1560              		.loc 3 251 0
 1561 0726 4FF0FF33 		mov	r3, #-1
 1562 072a 01E0     		b	.L85
 1563              	.L86:
 162:../../source/src/kernel/OS_CORE/module.c ****     case R_ARM_ABS32:
 1564              		.loc 3 162 0
 1565 072c 00BF     		nop
 1566              	.L76:
 252:../../source/src/kernel/OS_CORE/module.c ****     }
ARM GAS  G:\Users\Jaxb\AppData\Local\Temp\cc11Idxk.s 			page 37


 253:../../source/src/kernel/OS_CORE/module.c **** 
 254:../../source/src/kernel/OS_CORE/module.c ****     return 0;
 1567              		.loc 3 254 0
 1568 072e 0023     		movs	r3, #0
 1569              	.L85:
 255:../../source/src/kernel/OS_CORE/module.c **** }
 1570              		.loc 3 255 0
 1571 0730 1846     		mov	r0, r3
 1572 0732 3837     		adds	r7, r7, #56
 1573              	.LCFI75:
 1574              		.cfi_def_cfa_offset 8
 1575 0734 BD46     		mov	sp, r7
 1576              	.LCFI76:
 1577              		.cfi_def_cfa_register 13
 1578              		@ sp needed
 1579 0736 80BD     		pop	{r7, pc}
 1580              	.L88:
 1581              		.align	2
 1582              	.L87:
 1583 0738 0F0000F0 		.word	-268435441
 1584 073c 00F03F00 		.word	4190208
 1585 0740 84010000 		.word	.LC18
 1586              		.cfi_endproc
 1587              	.LFE18:
 1588              		.size	dlmodule_relocate, .-dlmodule_relocate
 1589              		.section	.rodata
 1590 01aa 0000     		.align	2
 1591              	.LC19:
 1592 01ac 4C4F4144 		.ascii	"LOAD segment: %d, 0x%p, 0x%x\012\000"
 1592      20736567 
 1592      6D656E74 
 1592      3A202564 
 1592      2C203078 
 1593 01ca 0000     		.align	2
 1594              	.LC20:
 1595 01cc 696E7661 		.ascii	"invalid elf: segment %d: p_memsz: %d, p_filesz: %d\012"
 1595      6C696420 
 1595      656C663A 
 1595      20736567 
 1595      6D656E74 
 1596 01ff 00       		.ascii	"\000"
 1597              		.align	2
 1598              	.LC21:
 1599 0200 696E7661 		.ascii	"invalid elf: segment %d: p_vaddr: %d, p_memsz: %d\012"
 1599      6C696420 
 1599      656C663A 
 1599      20736567 
 1599      6D656E74 
 1600 0232 00       		.ascii	"\000"
 1601 0233 00       		.align	2
 1602              	.LC22:
 1603 0234 696E7661 		.ascii	"invalid elf: segment should be sorted and not overl"
 1603      6C696420 
 1603      656C663A 
 1603      20736567 
 1603      6D656E74 
 1604 0267 61707065 		.ascii	"apped\012\000"
ARM GAS  G:\Users\Jaxb\AppData\Local\Temp\cc11Idxk.s 			page 38


 1604      640A00
 1605 026e 0000     		.align	2
 1606              	.LC23:
 1607 0270 7761726E 		.ascii	"warning: too much padding before segment %d\012\000"
 1607      696E673A 
 1607      20746F6F 
 1607      206D7563 
 1607      68207061 
 1608 029d 000000   		.align	2
 1609              	.LC24:
 1610 02a0 696E7661 		.ascii	"invalid elf: segment %d address overflow\012\000"
 1610      6C696420 
 1610      656C663A 
 1610      20736567 
 1610      6D656E74 
 1611 02ca 0000     		.align	2
 1612              	.LC25:
 1613 02cc 6D6F6475 		.ascii	"module size: %d, vstart_addr: 0x%p\012\000"
 1613      6C652073 
 1613      697A653A 
 1613      2025642C 
 1613      20767374 
 1614              		.align	2
 1615              	.LC26:
 1616 02f0 4D6F6475 		.ascii	"Module: size error\012\000"
 1616      6C653A20 
 1616      73697A65 
 1616      20657272 
 1616      6F720A00 
 1617              		.align	2
 1618              	.LC27:
 1619 0304 4D6F6475 		.ascii	"Module: allocate space failed.\012\000"
 1619      6C653A20 
 1619      616C6C6F 
 1619      63617465 
 1619      20737061 
 1620              		.align	2
 1621              	.LC28:
 1622 0324 4D6F6475 		.ascii	"Module: can't find %s in kernel symbol table\000"
 1622      6C653A20 
 1622      63616E27 
 1622      74206669 
 1622      6E642025 
 1623 0351 000000   		.align	2
 1624              	.LC29:
 1625 0354 2E64796E 		.ascii	".dynsym\000"
 1625      73796D00 
 1626              		.align	2
 1627              	.LC30:
 1628 035c 696E6974 		.ascii	"init_module\000"
 1628      5F6D6F64 
 1628      756C6500 
 1629              		.align	2
 1630              	.LC31:
 1631 0368 65786974 		.ascii	"exit_module\000"
 1631      5F6D6F64 
 1631      756C6500 
ARM GAS  G:\Users\Jaxb\AppData\Local\Temp\cc11Idxk.s 			page 39


 1632              		.text
 1633              		.align	1
 1634              		.global	dlmodule_load_shared_object
 1635              		.syntax unified
 1636              		.thumb
 1637              		.thumb_func
 1638              		.fpu softvfp
 1639              		.type	dlmodule_load_shared_object, %function
 1640              	dlmodule_load_shared_object:
 1641              	.LFB19:
 256:../../source/src/kernel/OS_CORE/module.c **** 
 257:../../source/src/kernel/OS_CORE/module.c **** int dlmodule_load_shared_object(struct dynamic_module* module, void *module_ptr)
 258:../../source/src/kernel/OS_CORE/module.c **** {
 1642              		.loc 3 258 0
 1643              		.cfi_startproc
 1644              		@ args = 0, pretend = 0, frame = 88
 1645              		@ frame_needed = 1, uses_anonymous_args = 0
 1646 0744 90B5     		push	{r4, r7, lr}
 1647              	.LCFI77:
 1648              		.cfi_def_cfa_offset 12
 1649              		.cfi_offset 4, -12
 1650              		.cfi_offset 7, -8
 1651              		.cfi_offset 14, -4
 1652 0746 97B0     		sub	sp, sp, #92
 1653              	.LCFI78:
 1654              		.cfi_def_cfa_offset 104
 1655 0748 00AF     		add	r7, sp, #0
 1656              	.LCFI79:
 1657              		.cfi_def_cfa_register 7
 1658 074a 7860     		str	r0, [r7, #4]
 1659 074c 3960     		str	r1, [r7]
 259:../../source/src/kernel/OS_CORE/module.c ****     int linked   = KA_FALSE;
 1660              		.loc 3 259 0
 1661 074e 0023     		movs	r3, #0
 1662 0750 3B63     		str	r3, [r7, #48]
 260:../../source/src/kernel/OS_CORE/module.c ****     UINT32 index, module_size = 0;
 1663              		.loc 3 260 0
 1664 0752 0023     		movs	r3, #0
 1665 0754 FB62     		str	r3, [r7, #44]
 261:../../source/src/kernel/OS_CORE/module.c ****     Elf32_Addr vstart_addr, vend_addr;
 262:../../source/src/kernel/OS_CORE/module.c ****     int has_vstart = KA_FALSE;
 1666              		.loc 3 262 0
 1667 0756 0023     		movs	r3, #0
 1668 0758 BB64     		str	r3, [r7, #72]
 263:../../source/src/kernel/OS_CORE/module.c **** 
 264:../../source/src/kernel/OS_CORE/module.c ****     ASSERT(module_ptr != NULL);
 1669              		.loc 3 264 0
 1670 075a 3B68     		ldr	r3, [r7]
 1671 075c 002B     		cmp	r3, #0
 1672 075e 04D1     		bne	.L90
 1673              		.loc 3 264 0 is_stmt 0 discriminator 1
 1674 0760 4FF48471 		mov	r1, #264
 1675 0764 8948     		ldr	r0, .L136
 1676 0766 FFF7FEFF 		bl	_ASSERT
 1677              	.L90:
 265:../../source/src/kernel/OS_CORE/module.c **** 
 266:../../source/src/kernel/OS_CORE/module.c ****     /* get the ELF image size */
ARM GAS  G:\Users\Jaxb\AppData\Local\Temp\cc11Idxk.s 			page 40


 267:../../source/src/kernel/OS_CORE/module.c ****     vstart_addr = vend_addr = NULL;
 1678              		.loc 3 267 0 is_stmt 1
 1679 076a 0023     		movs	r3, #0
 1680 076c FB64     		str	r3, [r7, #76]
 1681 076e FB6C     		ldr	r3, [r7, #76]
 1682 0770 3B65     		str	r3, [r7, #80]
 268:../../source/src/kernel/OS_CORE/module.c ****     for (index = 0; index < elf_module->e_phnum; index++)
 1683              		.loc 3 268 0
 1684 0772 0023     		movs	r3, #0
 1685 0774 7B65     		str	r3, [r7, #84]
 1686 0776 CBE0     		b	.L91
 1687              	.L99:
 269:../../source/src/kernel/OS_CORE/module.c ****     {
 270:../../source/src/kernel/OS_CORE/module.c ****         if (phdr[index].p_type != PT_LOAD)
 1688              		.loc 3 270 0
 1689 0778 3B68     		ldr	r3, [r7]
 1690 077a DA69     		ldr	r2, [r3, #28]
 1691 077c 7B6D     		ldr	r3, [r7, #84]
 1692 077e 5B01     		lsls	r3, r3, #5
 1693 0780 1344     		add	r3, r3, r2
 1694 0782 3A68     		ldr	r2, [r7]
 1695 0784 1344     		add	r3, r3, r2
 1696 0786 1B68     		ldr	r3, [r3]
 1697 0788 012B     		cmp	r3, #1
 1698 078a 40F0BD80 		bne	.L131
 271:../../source/src/kernel/OS_CORE/module.c ****             continue;
 272:../../source/src/kernel/OS_CORE/module.c **** 
 273:../../source/src/kernel/OS_CORE/module.c ****         ka_printf("LOAD segment: %d, 0x%p, 0x%x\n", index, (void *)phdr[index].p_vaddr, phdr[index]
 1699              		.loc 3 273 0
 1700 078e 3B68     		ldr	r3, [r7]
 1701 0790 DA69     		ldr	r2, [r3, #28]
 1702 0792 7B6D     		ldr	r3, [r7, #84]
 1703 0794 5B01     		lsls	r3, r3, #5
 1704 0796 1344     		add	r3, r3, r2
 1705 0798 3A68     		ldr	r2, [r7]
 1706 079a 1344     		add	r3, r3, r2
 1707 079c 9B68     		ldr	r3, [r3, #8]
 1708 079e 1946     		mov	r1, r3
 1709 07a0 3B68     		ldr	r3, [r7]
 1710 07a2 DA69     		ldr	r2, [r3, #28]
 1711 07a4 7B6D     		ldr	r3, [r7, #84]
 1712 07a6 5B01     		lsls	r3, r3, #5
 1713 07a8 1344     		add	r3, r3, r2
 1714 07aa 3A68     		ldr	r2, [r7]
 1715 07ac 1344     		add	r3, r3, r2
 1716 07ae 5B69     		ldr	r3, [r3, #20]
 1717 07b0 0A46     		mov	r2, r1
 1718 07b2 796D     		ldr	r1, [r7, #84]
 1719 07b4 7648     		ldr	r0, .L136+4
 1720 07b6 FFF7FEFF 		bl	ka_printf
 274:../../source/src/kernel/OS_CORE/module.c **** 
 275:../../source/src/kernel/OS_CORE/module.c ****         if (phdr[index].p_memsz < phdr[index].p_filesz)
 1721              		.loc 3 275 0
 1722 07ba 3B68     		ldr	r3, [r7]
 1723 07bc DA69     		ldr	r2, [r3, #28]
 1724 07be 7B6D     		ldr	r3, [r7, #84]
 1725 07c0 5B01     		lsls	r3, r3, #5
ARM GAS  G:\Users\Jaxb\AppData\Local\Temp\cc11Idxk.s 			page 41


 1726 07c2 1344     		add	r3, r3, r2
 1727 07c4 3A68     		ldr	r2, [r7]
 1728 07c6 1344     		add	r3, r3, r2
 1729 07c8 5A69     		ldr	r2, [r3, #20]
 1730 07ca 3B68     		ldr	r3, [r7]
 1731 07cc D969     		ldr	r1, [r3, #28]
 1732 07ce 7B6D     		ldr	r3, [r7, #84]
 1733 07d0 5B01     		lsls	r3, r3, #5
 1734 07d2 0B44     		add	r3, r3, r1
 1735 07d4 3968     		ldr	r1, [r7]
 1736 07d6 0B44     		add	r3, r3, r1
 1737 07d8 1B69     		ldr	r3, [r3, #16]
 1738 07da 9A42     		cmp	r2, r3
 1739 07dc 16D2     		bcs	.L94
 276:../../source/src/kernel/OS_CORE/module.c ****         {
 277:../../source/src/kernel/OS_CORE/module.c ****             ka_printf("invalid elf: segment %d: p_memsz: %d, p_filesz: %d\n",
 278:../../source/src/kernel/OS_CORE/module.c ****                        index, phdr[index].p_memsz, phdr[index].p_filesz);
 1740              		.loc 3 278 0
 1741 07de 3B68     		ldr	r3, [r7]
 1742 07e0 DA69     		ldr	r2, [r3, #28]
 1743 07e2 7B6D     		ldr	r3, [r7, #84]
 1744 07e4 5B01     		lsls	r3, r3, #5
 1745 07e6 1344     		add	r3, r3, r2
 1746 07e8 3A68     		ldr	r2, [r7]
 1747 07ea 1344     		add	r3, r3, r2
 277:../../source/src/kernel/OS_CORE/module.c ****                        index, phdr[index].p_memsz, phdr[index].p_filesz);
 1748              		.loc 3 277 0
 1749 07ec 5969     		ldr	r1, [r3, #20]
 1750              		.loc 3 278 0
 1751 07ee 3B68     		ldr	r3, [r7]
 1752 07f0 DA69     		ldr	r2, [r3, #28]
 1753 07f2 7B6D     		ldr	r3, [r7, #84]
 1754 07f4 5B01     		lsls	r3, r3, #5
 1755 07f6 1344     		add	r3, r3, r2
 1756 07f8 3A68     		ldr	r2, [r7]
 1757 07fa 1344     		add	r3, r3, r2
 277:../../source/src/kernel/OS_CORE/module.c ****                        index, phdr[index].p_memsz, phdr[index].p_filesz);
 1758              		.loc 3 277 0
 1759 07fc 1B69     		ldr	r3, [r3, #16]
 1760 07fe 0A46     		mov	r2, r1
 1761 0800 796D     		ldr	r1, [r7, #84]
 1762 0802 6448     		ldr	r0, .L136+8
 1763 0804 FFF7FEFF 		bl	ka_printf
 279:../../source/src/kernel/OS_CORE/module.c ****             return NULL;
 1764              		.loc 3 279 0
 1765 0808 0023     		movs	r3, #0
 1766 080a 5EE3     		b	.L95
 1767              	.L94:
 280:../../source/src/kernel/OS_CORE/module.c ****         }
 281:../../source/src/kernel/OS_CORE/module.c ****         if (!has_vstart)
 1768              		.loc 3 281 0
 1769 080c BB6C     		ldr	r3, [r7, #72]
 1770 080e 002B     		cmp	r3, #0
 1771 0810 37D1     		bne	.L96
 282:../../source/src/kernel/OS_CORE/module.c ****         {
 283:../../source/src/kernel/OS_CORE/module.c ****             vstart_addr = phdr[index].p_vaddr;
 1772              		.loc 3 283 0
ARM GAS  G:\Users\Jaxb\AppData\Local\Temp\cc11Idxk.s 			page 42


 1773 0812 3B68     		ldr	r3, [r7]
 1774 0814 DA69     		ldr	r2, [r3, #28]
 1775 0816 7B6D     		ldr	r3, [r7, #84]
 1776 0818 5B01     		lsls	r3, r3, #5
 1777 081a 1344     		add	r3, r3, r2
 1778 081c 3A68     		ldr	r2, [r7]
 1779 081e 1344     		add	r3, r3, r2
 1780 0820 9B68     		ldr	r3, [r3, #8]
 1781 0822 3B65     		str	r3, [r7, #80]
 284:../../source/src/kernel/OS_CORE/module.c ****             vend_addr = phdr[index].p_vaddr + phdr[index].p_memsz;
 1782              		.loc 3 284 0
 1783 0824 3B68     		ldr	r3, [r7]
 1784 0826 DA69     		ldr	r2, [r3, #28]
 1785 0828 7B6D     		ldr	r3, [r7, #84]
 1786 082a 5B01     		lsls	r3, r3, #5
 1787 082c 1344     		add	r3, r3, r2
 1788 082e 3A68     		ldr	r2, [r7]
 1789 0830 1344     		add	r3, r3, r2
 1790 0832 9A68     		ldr	r2, [r3, #8]
 1791 0834 3B68     		ldr	r3, [r7]
 1792 0836 D969     		ldr	r1, [r3, #28]
 1793 0838 7B6D     		ldr	r3, [r7, #84]
 1794 083a 5B01     		lsls	r3, r3, #5
 1795 083c 0B44     		add	r3, r3, r1
 1796 083e 3968     		ldr	r1, [r7]
 1797 0840 0B44     		add	r3, r3, r1
 1798 0842 5B69     		ldr	r3, [r3, #20]
 1799 0844 1344     		add	r3, r3, r2
 1800 0846 FB64     		str	r3, [r7, #76]
 285:../../source/src/kernel/OS_CORE/module.c ****             has_vstart = KA_TRUE;
 1801              		.loc 3 285 0
 1802 0848 0123     		movs	r3, #1
 1803 084a BB64     		str	r3, [r7, #72]
 286:../../source/src/kernel/OS_CORE/module.c ****             if (vend_addr < vstart_addr)
 1804              		.loc 3 286 0
 1805 084c FA6C     		ldr	r2, [r7, #76]
 1806 084e 3B6D     		ldr	r3, [r7, #80]
 1807 0850 9A42     		cmp	r2, r3
 1808 0852 5AD2     		bcs	.L93
 287:../../source/src/kernel/OS_CORE/module.c ****             {
 288:../../source/src/kernel/OS_CORE/module.c ****                 ka_printf("invalid elf: segment %d: p_vaddr: %d, p_memsz: %d\n",
 289:../../source/src/kernel/OS_CORE/module.c ****                            index, phdr[index].p_vaddr, phdr[index].p_memsz);
 1809              		.loc 3 289 0
 1810 0854 3B68     		ldr	r3, [r7]
 1811 0856 DA69     		ldr	r2, [r3, #28]
 1812 0858 7B6D     		ldr	r3, [r7, #84]
 1813 085a 5B01     		lsls	r3, r3, #5
 1814 085c 1344     		add	r3, r3, r2
 1815 085e 3A68     		ldr	r2, [r7]
 1816 0860 1344     		add	r3, r3, r2
 288:../../source/src/kernel/OS_CORE/module.c ****                            index, phdr[index].p_vaddr, phdr[index].p_memsz);
 1817              		.loc 3 288 0
 1818 0862 9968     		ldr	r1, [r3, #8]
 1819              		.loc 3 289 0
 1820 0864 3B68     		ldr	r3, [r7]
 1821 0866 DA69     		ldr	r2, [r3, #28]
 1822 0868 7B6D     		ldr	r3, [r7, #84]
ARM GAS  G:\Users\Jaxb\AppData\Local\Temp\cc11Idxk.s 			page 43


 1823 086a 5B01     		lsls	r3, r3, #5
 1824 086c 1344     		add	r3, r3, r2
 1825 086e 3A68     		ldr	r2, [r7]
 1826 0870 1344     		add	r3, r3, r2
 288:../../source/src/kernel/OS_CORE/module.c ****                            index, phdr[index].p_vaddr, phdr[index].p_memsz);
 1827              		.loc 3 288 0
 1828 0872 5B69     		ldr	r3, [r3, #20]
 1829 0874 0A46     		mov	r2, r1
 1830 0876 796D     		ldr	r1, [r7, #84]
 1831 0878 4748     		ldr	r0, .L136+12
 1832 087a FFF7FEFF 		bl	ka_printf
 290:../../source/src/kernel/OS_CORE/module.c ****                 return NULL;
 1833              		.loc 3 290 0
 1834 087e 0023     		movs	r3, #0
 1835 0880 23E3     		b	.L95
 1836              	.L96:
 291:../../source/src/kernel/OS_CORE/module.c ****             }
 292:../../source/src/kernel/OS_CORE/module.c ****         }
 293:../../source/src/kernel/OS_CORE/module.c ****         else
 294:../../source/src/kernel/OS_CORE/module.c ****         {
 295:../../source/src/kernel/OS_CORE/module.c ****             if (phdr[index].p_vaddr < vend_addr)
 1837              		.loc 3 295 0
 1838 0882 3B68     		ldr	r3, [r7]
 1839 0884 DA69     		ldr	r2, [r3, #28]
 1840 0886 7B6D     		ldr	r3, [r7, #84]
 1841 0888 5B01     		lsls	r3, r3, #5
 1842 088a 1344     		add	r3, r3, r2
 1843 088c 3A68     		ldr	r2, [r7]
 1844 088e 1344     		add	r3, r3, r2
 1845 0890 9B68     		ldr	r3, [r3, #8]
 1846 0892 FA6C     		ldr	r2, [r7, #76]
 1847 0894 9A42     		cmp	r2, r3
 1848 0896 04D9     		bls	.L97
 296:../../source/src/kernel/OS_CORE/module.c ****             {
 297:../../source/src/kernel/OS_CORE/module.c ****                 ka_printf("invalid elf: segment should be sorted and not overlapped\n");
 1849              		.loc 3 297 0
 1850 0898 4048     		ldr	r0, .L136+16
 1851 089a FFF7FEFF 		bl	ka_printf
 298:../../source/src/kernel/OS_CORE/module.c ****                 return NULL;
 1852              		.loc 3 298 0
 1853 089e 0023     		movs	r3, #0
 1854 08a0 13E3     		b	.L95
 1855              	.L97:
 299:../../source/src/kernel/OS_CORE/module.c ****             }
 300:../../source/src/kernel/OS_CORE/module.c ****             if (phdr[index].p_vaddr > vend_addr + 16)
 1856              		.loc 3 300 0
 1857 08a2 3B68     		ldr	r3, [r7]
 1858 08a4 DA69     		ldr	r2, [r3, #28]
 1859 08a6 7B6D     		ldr	r3, [r7, #84]
 1860 08a8 5B01     		lsls	r3, r3, #5
 1861 08aa 1344     		add	r3, r3, r2
 1862 08ac 3A68     		ldr	r2, [r7]
 1863 08ae 1344     		add	r3, r3, r2
 1864 08b0 9A68     		ldr	r2, [r3, #8]
 1865 08b2 FB6C     		ldr	r3, [r7, #76]
 1866 08b4 1033     		adds	r3, r3, #16
 1867 08b6 9A42     		cmp	r2, r3
ARM GAS  G:\Users\Jaxb\AppData\Local\Temp\cc11Idxk.s 			page 44


 1868 08b8 03D9     		bls	.L98
 301:../../source/src/kernel/OS_CORE/module.c ****             {
 302:../../source/src/kernel/OS_CORE/module.c ****                 /* There should not be too much padding in the object files. */
 303:../../source/src/kernel/OS_CORE/module.c ****                 ka_printf("warning: too much padding before segment %d\n", index);
 1869              		.loc 3 303 0
 1870 08ba 796D     		ldr	r1, [r7, #84]
 1871 08bc 3848     		ldr	r0, .L136+20
 1872 08be FFF7FEFF 		bl	ka_printf
 1873              	.L98:
 304:../../source/src/kernel/OS_CORE/module.c ****             }
 305:../../source/src/kernel/OS_CORE/module.c **** 
 306:../../source/src/kernel/OS_CORE/module.c ****             vend_addr = phdr[index].p_vaddr + phdr[index].p_memsz;
 1874              		.loc 3 306 0
 1875 08c2 3B68     		ldr	r3, [r7]
 1876 08c4 DA69     		ldr	r2, [r3, #28]
 1877 08c6 7B6D     		ldr	r3, [r7, #84]
 1878 08c8 5B01     		lsls	r3, r3, #5
 1879 08ca 1344     		add	r3, r3, r2
 1880 08cc 3A68     		ldr	r2, [r7]
 1881 08ce 1344     		add	r3, r3, r2
 1882 08d0 9A68     		ldr	r2, [r3, #8]
 1883 08d2 3B68     		ldr	r3, [r7]
 1884 08d4 D969     		ldr	r1, [r3, #28]
 1885 08d6 7B6D     		ldr	r3, [r7, #84]
 1886 08d8 5B01     		lsls	r3, r3, #5
 1887 08da 0B44     		add	r3, r3, r1
 1888 08dc 3968     		ldr	r1, [r7]
 1889 08de 0B44     		add	r3, r3, r1
 1890 08e0 5B69     		ldr	r3, [r3, #20]
 1891 08e2 1344     		add	r3, r3, r2
 1892 08e4 FB64     		str	r3, [r7, #76]
 307:../../source/src/kernel/OS_CORE/module.c ****             if (vend_addr < phdr[index].p_vaddr)
 1893              		.loc 3 307 0
 1894 08e6 3B68     		ldr	r3, [r7]
 1895 08e8 DA69     		ldr	r2, [r3, #28]
 1896 08ea 7B6D     		ldr	r3, [r7, #84]
 1897 08ec 5B01     		lsls	r3, r3, #5
 1898 08ee 1344     		add	r3, r3, r2
 1899 08f0 3A68     		ldr	r2, [r7]
 1900 08f2 1344     		add	r3, r3, r2
 1901 08f4 9B68     		ldr	r3, [r3, #8]
 1902 08f6 FA6C     		ldr	r2, [r7, #76]
 1903 08f8 9A42     		cmp	r2, r3
 1904 08fa 06D2     		bcs	.L93
 308:../../source/src/kernel/OS_CORE/module.c ****             {
 309:../../source/src/kernel/OS_CORE/module.c ****                 ka_printf("invalid elf: "
 1905              		.loc 3 309 0
 1906 08fc 796D     		ldr	r1, [r7, #84]
 1907 08fe 2948     		ldr	r0, .L136+24
 1908 0900 FFF7FEFF 		bl	ka_printf
 310:../../source/src/kernel/OS_CORE/module.c ****                            "segment %d address overflow\n", index);
 311:../../source/src/kernel/OS_CORE/module.c ****                 return NULL;
 1909              		.loc 3 311 0
 1910 0904 0023     		movs	r3, #0
 1911 0906 E0E2     		b	.L95
 1912              	.L131:
 271:../../source/src/kernel/OS_CORE/module.c **** 
ARM GAS  G:\Users\Jaxb\AppData\Local\Temp\cc11Idxk.s 			page 45


 1913              		.loc 3 271 0
 1914 0908 00BF     		nop
 1915              	.L93:
 268:../../source/src/kernel/OS_CORE/module.c ****     {
 1916              		.loc 3 268 0 discriminator 2
 1917 090a 7B6D     		ldr	r3, [r7, #84]
 1918 090c 0133     		adds	r3, r3, #1
 1919 090e 7B65     		str	r3, [r7, #84]
 1920              	.L91:
 268:../../source/src/kernel/OS_CORE/module.c ****     {
 1921              		.loc 3 268 0 is_stmt 0 discriminator 1
 1922 0910 3B68     		ldr	r3, [r7]
 1923 0912 9B8D     		ldrh	r3, [r3, #44]
 1924 0914 1A46     		mov	r2, r3
 1925 0916 7B6D     		ldr	r3, [r7, #84]
 1926 0918 9342     		cmp	r3, r2
 1927 091a FFF42DAF 		bcc	.L99
 312:../../source/src/kernel/OS_CORE/module.c ****             }
 313:../../source/src/kernel/OS_CORE/module.c ****         }
 314:../../source/src/kernel/OS_CORE/module.c ****     }
 315:../../source/src/kernel/OS_CORE/module.c **** 
 316:../../source/src/kernel/OS_CORE/module.c ****     module_size = vend_addr - vstart_addr;
 1928              		.loc 3 316 0 is_stmt 1
 1929 091e FA6C     		ldr	r2, [r7, #76]
 1930 0920 3B6D     		ldr	r3, [r7, #80]
 1931 0922 D31A     		subs	r3, r2, r3
 1932 0924 FB62     		str	r3, [r7, #44]
 317:../../source/src/kernel/OS_CORE/module.c ****     ka_printf("module size: %d, vstart_addr: 0x%p\n", module_size, (void *)vstart_addr);
 1933              		.loc 3 317 0
 1934 0926 3B6D     		ldr	r3, [r7, #80]
 1935 0928 1A46     		mov	r2, r3
 1936 092a F96A     		ldr	r1, [r7, #44]
 1937 092c 1E48     		ldr	r0, .L136+28
 1938 092e FFF7FEFF 		bl	ka_printf
 318:../../source/src/kernel/OS_CORE/module.c ****     if (module_size == 0)
 1939              		.loc 3 318 0
 1940 0932 FB6A     		ldr	r3, [r7, #44]
 1941 0934 002B     		cmp	r3, #0
 1942 0936 05D1     		bne	.L100
 319:../../source/src/kernel/OS_CORE/module.c ****     {
 320:../../source/src/kernel/OS_CORE/module.c ****         ka_printf("Module: size error\n");
 1943              		.loc 3 320 0
 1944 0938 1C48     		ldr	r0, .L136+32
 1945 093a FFF7FEFF 		bl	ka_printf
 321:../../source/src/kernel/OS_CORE/module.c ****         return -ERROR_LOGIC;
 1946              		.loc 3 321 0
 1947 093e 6FF0F803 		mvn	r3, #248
 1948 0942 C2E2     		b	.L95
 1949              	.L100:
 322:../../source/src/kernel/OS_CORE/module.c ****     }
 323:../../source/src/kernel/OS_CORE/module.c **** 
 324:../../source/src/kernel/OS_CORE/module.c ****     module->vstart_addr = vstart_addr;
 1950              		.loc 3 324 0
 1951 0944 7B68     		ldr	r3, [r7, #4]
 1952 0946 3A6D     		ldr	r2, [r7, #80]
 1953 0948 5A64     		str	r2, [r3, #68]
 325:../../source/src/kernel/OS_CORE/module.c ****     module->ref = 0;
ARM GAS  G:\Users\Jaxb\AppData\Local\Temp\cc11Idxk.s 			page 46


 1954              		.loc 3 325 0
 1955 094a 7B68     		ldr	r3, [r7, #4]
 1956 094c 0022     		movs	r2, #0
 1957 094e 1A65     		str	r2, [r3, #80]
 326:../../source/src/kernel/OS_CORE/module.c **** 
 327:../../source/src/kernel/OS_CORE/module.c ****     /* allocate module space */
 328:../../source/src/kernel/OS_CORE/module.c ****     module->module_space = ka_malloc(module_size);
 1958              		.loc 3 328 0
 1959 0950 F86A     		ldr	r0, [r7, #44]
 1960 0952 FFF7FEFF 		bl	ka_malloc
 1961 0956 0246     		mov	r2, r0
 1962 0958 7B68     		ldr	r3, [r7, #4]
 1963 095a 5A63     		str	r2, [r3, #52]
 329:../../source/src/kernel/OS_CORE/module.c ****     if (NULL == module->module_space)
 1964              		.loc 3 329 0
 1965 095c 7B68     		ldr	r3, [r7, #4]
 1966 095e 5B6B     		ldr	r3, [r3, #52]
 1967 0960 002B     		cmp	r3, #0
 1968 0962 05D1     		bne	.L101
 330:../../source/src/kernel/OS_CORE/module.c ****     {
 331:../../source/src/kernel/OS_CORE/module.c ****         ka_printf("Module: allocate space failed.\n");
 1969              		.loc 3 331 0
 1970 0964 1248     		ldr	r0, .L136+36
 1971 0966 FFF7FEFF 		bl	ka_printf
 332:../../source/src/kernel/OS_CORE/module.c ****         return -ERROR_NO_MEM;
 1972              		.loc 3 332 0
 1973 096a 6FF0FA03 		mvn	r3, #250
 1974 096e ACE2     		b	.L95
 1975              	.L101:
 333:../../source/src/kernel/OS_CORE/module.c ****     }
 334:../../source/src/kernel/OS_CORE/module.c ****     module->module_size = module_size;
 1976              		.loc 3 334 0
 1977 0970 7B68     		ldr	r3, [r7, #4]
 1978 0972 FA6A     		ldr	r2, [r7, #44]
 1979 0974 9A63     		str	r2, [r3, #56]
 335:../../source/src/kernel/OS_CORE/module.c **** 
 336:../../source/src/kernel/OS_CORE/module.c ****     /* zero all space */
 337:../../source/src/kernel/OS_CORE/module.c ****     ka_memset(module->module_space, 0, module_size);
 1980              		.loc 3 337 0
 1981 0976 7B68     		ldr	r3, [r7, #4]
 1982 0978 5B6B     		ldr	r3, [r3, #52]
 1983 097a FA6A     		ldr	r2, [r7, #44]
 1984 097c 0021     		movs	r1, #0
 1985 097e 1846     		mov	r0, r3
 1986 0980 FFF7FEFF 		bl	ka_memset
 338:../../source/src/kernel/OS_CORE/module.c ****     /*load program*/
 339:../../source/src/kernel/OS_CORE/module.c ****     for (index = 0; index < elf_module->e_phnum; index++)
 1987              		.loc 3 339 0
 1988 0984 0023     		movs	r3, #0
 1989 0986 7B65     		str	r3, [r7, #84]
 1990 0988 43E0     		b	.L102
 1991              	.L137:
 1992 098a 00BF     		.align	2
 1993              	.L136:
 1994 098c 24000000 		.word	.LC2
 1995 0990 AC010000 		.word	.LC19
 1996 0994 CC010000 		.word	.LC20
ARM GAS  G:\Users\Jaxb\AppData\Local\Temp\cc11Idxk.s 			page 47


 1997 0998 00020000 		.word	.LC21
 1998 099c 34020000 		.word	.LC22
 1999 09a0 70020000 		.word	.LC23
 2000 09a4 A0020000 		.word	.LC24
 2001 09a8 CC020000 		.word	.LC25
 2002 09ac F0020000 		.word	.LC26
 2003 09b0 04030000 		.word	.LC27
 2004              	.L104:
 340:../../source/src/kernel/OS_CORE/module.c ****     {
 341:../../source/src/kernel/OS_CORE/module.c ****         if (phdr[index].p_type == PT_LOAD)
 2005              		.loc 3 341 0
 2006 09b4 3B68     		ldr	r3, [r7]
 2007 09b6 DA69     		ldr	r2, [r3, #28]
 2008 09b8 7B6D     		ldr	r3, [r7, #84]
 2009 09ba 5B01     		lsls	r3, r3, #5
 2010 09bc 1344     		add	r3, r3, r2
 2011 09be 3A68     		ldr	r2, [r7]
 2012 09c0 1344     		add	r3, r3, r2
 2013 09c2 1B68     		ldr	r3, [r3]
 2014 09c4 012B     		cmp	r3, #1
 2015 09c6 21D1     		bne	.L103
 342:../../source/src/kernel/OS_CORE/module.c ****         {
 343:../../source/src/kernel/OS_CORE/module.c ****             ka_memcpy(module->module_space + phdr[index].p_vaddr - vstart_addr,
 2016              		.loc 3 343 0
 2017 09c8 7B68     		ldr	r3, [r7, #4]
 2018 09ca 5A6B     		ldr	r2, [r3, #52]
 2019 09cc 3B68     		ldr	r3, [r7]
 2020 09ce D969     		ldr	r1, [r3, #28]
 2021 09d0 7B6D     		ldr	r3, [r7, #84]
 2022 09d2 5B01     		lsls	r3, r3, #5
 2023 09d4 0B44     		add	r3, r3, r1
 2024 09d6 3968     		ldr	r1, [r7]
 2025 09d8 0B44     		add	r3, r3, r1
 2026 09da 9968     		ldr	r1, [r3, #8]
 2027 09dc 3B6D     		ldr	r3, [r7, #80]
 2028 09de CB1A     		subs	r3, r1, r3
 2029 09e0 D018     		adds	r0, r2, r3
 344:../../source/src/kernel/OS_CORE/module.c ****                       (UINT8 *)elf_module + phdr[index].p_offset,
 2030              		.loc 3 344 0
 2031 09e2 3B68     		ldr	r3, [r7]
 2032 09e4 DA69     		ldr	r2, [r3, #28]
 2033 09e6 7B6D     		ldr	r3, [r7, #84]
 2034 09e8 5B01     		lsls	r3, r3, #5
 2035 09ea 1344     		add	r3, r3, r2
 2036 09ec 3A68     		ldr	r2, [r7]
 2037 09ee 1344     		add	r3, r3, r2
 2038 09f0 5B68     		ldr	r3, [r3, #4]
 343:../../source/src/kernel/OS_CORE/module.c ****                       (UINT8 *)elf_module + phdr[index].p_offset,
 2039              		.loc 3 343 0
 2040 09f2 3A68     		ldr	r2, [r7]
 2041 09f4 D118     		adds	r1, r2, r3
 345:../../source/src/kernel/OS_CORE/module.c ****                       phdr[index].p_filesz);
 2042              		.loc 3 345 0
 2043 09f6 3B68     		ldr	r3, [r7]
 2044 09f8 DA69     		ldr	r2, [r3, #28]
 2045 09fa 7B6D     		ldr	r3, [r7, #84]
 2046 09fc 5B01     		lsls	r3, r3, #5
ARM GAS  G:\Users\Jaxb\AppData\Local\Temp\cc11Idxk.s 			page 48


 2047 09fe 1344     		add	r3, r3, r2
 2048 0a00 3A68     		ldr	r2, [r7]
 2049 0a02 1344     		add	r3, r3, r2
 2050 0a04 1B69     		ldr	r3, [r3, #16]
 343:../../source/src/kernel/OS_CORE/module.c ****                       (UINT8 *)elf_module + phdr[index].p_offset,
 2051              		.loc 3 343 0
 2052 0a06 1A46     		mov	r2, r3
 2053 0a08 FFF7FEFF 		bl	ka_memcpy
 2054              	.L103:
 339:../../source/src/kernel/OS_CORE/module.c ****     {
 2055              		.loc 3 339 0 discriminator 2
 2056 0a0c 7B6D     		ldr	r3, [r7, #84]
 2057 0a0e 0133     		adds	r3, r3, #1
 2058 0a10 7B65     		str	r3, [r7, #84]
 2059              	.L102:
 339:../../source/src/kernel/OS_CORE/module.c ****     {
 2060              		.loc 3 339 0 is_stmt 0 discriminator 1
 2061 0a12 3B68     		ldr	r3, [r7]
 2062 0a14 9B8D     		ldrh	r3, [r3, #44]
 2063 0a16 1A46     		mov	r2, r3
 2064 0a18 7B6D     		ldr	r3, [r7, #84]
 2065 0a1a 9342     		cmp	r3, r2
 2066 0a1c CAD3     		bcc	.L104
 346:../../source/src/kernel/OS_CORE/module.c ****         }
 347:../../source/src/kernel/OS_CORE/module.c ****     }
 348:../../source/src/kernel/OS_CORE/module.c **** 
 349:../../source/src/kernel/OS_CORE/module.c ****     /* set module entry */
 350:../../source/src/kernel/OS_CORE/module.c ****     module->entry = module->module_space + elf_module->e_entry - vstart_addr;
 2067              		.loc 3 350 0 is_stmt 1
 2068 0a1e 7B68     		ldr	r3, [r7, #4]
 2069 0a20 5A6B     		ldr	r2, [r3, #52]
 2070 0a22 3B68     		ldr	r3, [r7]
 2071 0a24 9969     		ldr	r1, [r3, #24]
 2072 0a26 3B6D     		ldr	r3, [r7, #80]
 2073 0a28 CB1A     		subs	r3, r1, r3
 2074 0a2a 1A44     		add	r2, r2, r3
 2075 0a2c 7B68     		ldr	r3, [r7, #4]
 2076 0a2e 1A64     		str	r2, [r3, #64]
 351:../../source/src/kernel/OS_CORE/module.c ****     /* handle relocation section */
 352:../../source/src/kernel/OS_CORE/module.c ****     for (index = 0; index < elf_module->e_shnum; index ++)
 2077              		.loc 3 352 0
 2078 0a30 0023     		movs	r3, #0
 2079 0a32 7B65     		str	r3, [r7, #84]
 2080 0a34 CFE0     		b	.L105
 2081              	.L116:
 2082              	.LBB11:
 353:../../source/src/kernel/OS_CORE/module.c ****     {
 354:../../source/src/kernel/OS_CORE/module.c ****         UINT32 i, nr_reloc;
 355:../../source/src/kernel/OS_CORE/module.c ****         Elf32_Sym *symtab;
 356:../../source/src/kernel/OS_CORE/module.c ****         Elf32_Rel *rel;
 357:../../source/src/kernel/OS_CORE/module.c ****         UINT8 *strtab;
 358:../../source/src/kernel/OS_CORE/module.c ****         static int unsolved = KA_FALSE;
 359:../../source/src/kernel/OS_CORE/module.c **** 
 360:../../source/src/kernel/OS_CORE/module.c ****         if (!IS_REL(shdr[index]))
 2083              		.loc 3 360 0
 2084 0a36 3B68     		ldr	r3, [r7]
 2085 0a38 196A     		ldr	r1, [r3, #32]
ARM GAS  G:\Users\Jaxb\AppData\Local\Temp\cc11Idxk.s 			page 49


 2086 0a3a 7A6D     		ldr	r2, [r7, #84]
 2087 0a3c 1346     		mov	r3, r2
 2088 0a3e 9B00     		lsls	r3, r3, #2
 2089 0a40 1344     		add	r3, r3, r2
 2090 0a42 DB00     		lsls	r3, r3, #3
 2091 0a44 0B44     		add	r3, r3, r1
 2092 0a46 3A68     		ldr	r2, [r7]
 2093 0a48 1344     		add	r3, r3, r2
 2094 0a4a 5B68     		ldr	r3, [r3, #4]
 2095 0a4c 092B     		cmp	r3, #9
 2096 0a4e 40F0BE80 		bne	.L132
 361:../../source/src/kernel/OS_CORE/module.c ****             continue;
 362:../../source/src/kernel/OS_CORE/module.c **** 
 363:../../source/src/kernel/OS_CORE/module.c ****         /* get relocate item */
 364:../../source/src/kernel/OS_CORE/module.c ****         rel = (Elf32_Rel *)((UINT8 *)module_ptr + shdr[index].sh_offset);
 2097              		.loc 3 364 0
 2098 0a52 3B68     		ldr	r3, [r7]
 2099 0a54 196A     		ldr	r1, [r3, #32]
 2100 0a56 7A6D     		ldr	r2, [r7, #84]
 2101 0a58 1346     		mov	r3, r2
 2102 0a5a 9B00     		lsls	r3, r3, #2
 2103 0a5c 1344     		add	r3, r3, r2
 2104 0a5e DB00     		lsls	r3, r3, #3
 2105 0a60 0B44     		add	r3, r3, r1
 2106 0a62 3A68     		ldr	r2, [r7]
 2107 0a64 1344     		add	r3, r3, r2
 2108 0a66 1B69     		ldr	r3, [r3, #16]
 2109 0a68 3A68     		ldr	r2, [r7]
 2110 0a6a 1344     		add	r3, r3, r2
 2111 0a6c 3B64     		str	r3, [r7, #64]
 365:../../source/src/kernel/OS_CORE/module.c **** 
 366:../../source/src/kernel/OS_CORE/module.c ****         /* locate .rel.plt and .rel.dyn section */
 367:../../source/src/kernel/OS_CORE/module.c ****         symtab = (Elf32_Sym *)((UINT8 *)module_ptr +
 368:../../source/src/kernel/OS_CORE/module.c ****                                shdr[shdr[index].sh_link].sh_offset);
 2112              		.loc 3 368 0
 2113 0a6e 3B68     		ldr	r3, [r7]
 2114 0a70 196A     		ldr	r1, [r3, #32]
 2115 0a72 3B68     		ldr	r3, [r7]
 2116 0a74 186A     		ldr	r0, [r3, #32]
 2117 0a76 7A6D     		ldr	r2, [r7, #84]
 2118 0a78 1346     		mov	r3, r2
 2119 0a7a 9B00     		lsls	r3, r3, #2
 2120 0a7c 1344     		add	r3, r3, r2
 2121 0a7e DB00     		lsls	r3, r3, #3
 2122 0a80 0344     		add	r3, r3, r0
 2123 0a82 3A68     		ldr	r2, [r7]
 2124 0a84 1344     		add	r3, r3, r2
 2125 0a86 9A69     		ldr	r2, [r3, #24]
 2126 0a88 1346     		mov	r3, r2
 2127 0a8a 9B00     		lsls	r3, r3, #2
 2128 0a8c 1344     		add	r3, r3, r2
 2129 0a8e DB00     		lsls	r3, r3, #3
 2130 0a90 0B44     		add	r3, r3, r1
 2131 0a92 3A68     		ldr	r2, [r7]
 2132 0a94 1344     		add	r3, r3, r2
 2133 0a96 1B69     		ldr	r3, [r3, #16]
 367:../../source/src/kernel/OS_CORE/module.c ****                                shdr[shdr[index].sh_link].sh_offset);
ARM GAS  G:\Users\Jaxb\AppData\Local\Temp\cc11Idxk.s 			page 50


 2134              		.loc 3 367 0
 2135 0a98 3A68     		ldr	r2, [r7]
 2136 0a9a 1344     		add	r3, r3, r2
 2137 0a9c BB61     		str	r3, [r7, #24]
 369:../../source/src/kernel/OS_CORE/module.c ****         strtab = (UINT8 *)module_ptr +
 370:../../source/src/kernel/OS_CORE/module.c ****                  shdr[shdr[shdr[index].sh_link].sh_link].sh_offset;
 2138              		.loc 3 370 0
 2139 0a9e 3B68     		ldr	r3, [r7]
 2140 0aa0 196A     		ldr	r1, [r3, #32]
 2141 0aa2 3B68     		ldr	r3, [r7]
 2142 0aa4 186A     		ldr	r0, [r3, #32]
 2143 0aa6 3B68     		ldr	r3, [r7]
 2144 0aa8 1C6A     		ldr	r4, [r3, #32]
 2145 0aaa 7A6D     		ldr	r2, [r7, #84]
 2146 0aac 1346     		mov	r3, r2
 2147 0aae 9B00     		lsls	r3, r3, #2
 2148 0ab0 1344     		add	r3, r3, r2
 2149 0ab2 DB00     		lsls	r3, r3, #3
 2150 0ab4 2344     		add	r3, r3, r4
 2151 0ab6 3A68     		ldr	r2, [r7]
 2152 0ab8 1344     		add	r3, r3, r2
 2153 0aba 9A69     		ldr	r2, [r3, #24]
 2154 0abc 1346     		mov	r3, r2
 2155 0abe 9B00     		lsls	r3, r3, #2
 2156 0ac0 1344     		add	r3, r3, r2
 2157 0ac2 DB00     		lsls	r3, r3, #3
 2158 0ac4 0344     		add	r3, r3, r0
 2159 0ac6 3A68     		ldr	r2, [r7]
 2160 0ac8 1344     		add	r3, r3, r2
 2161 0aca 9A69     		ldr	r2, [r3, #24]
 2162 0acc 1346     		mov	r3, r2
 2163 0ace 9B00     		lsls	r3, r3, #2
 2164 0ad0 1344     		add	r3, r3, r2
 2165 0ad2 DB00     		lsls	r3, r3, #3
 2166 0ad4 0B44     		add	r3, r3, r1
 2167 0ad6 3A68     		ldr	r2, [r7]
 2168 0ad8 1344     		add	r3, r3, r2
 2169 0ada 1B69     		ldr	r3, [r3, #16]
 369:../../source/src/kernel/OS_CORE/module.c ****         strtab = (UINT8 *)module_ptr +
 2170              		.loc 3 369 0
 2171 0adc 3A68     		ldr	r2, [r7]
 2172 0ade 1344     		add	r3, r3, r2
 2173 0ae0 7B61     		str	r3, [r7, #20]
 371:../../source/src/kernel/OS_CORE/module.c ****         nr_reloc = (UINT32)(shdr[index].sh_size / sizeof(Elf32_Rel));
 2174              		.loc 3 371 0
 2175 0ae2 3B68     		ldr	r3, [r7]
 2176 0ae4 196A     		ldr	r1, [r3, #32]
 2177 0ae6 7A6D     		ldr	r2, [r7, #84]
 2178 0ae8 1346     		mov	r3, r2
 2179 0aea 9B00     		lsls	r3, r3, #2
 2180 0aec 1344     		add	r3, r3, r2
 2181 0aee DB00     		lsls	r3, r3, #3
 2182 0af0 0B44     		add	r3, r3, r1
 2183 0af2 3A68     		ldr	r2, [r7]
 2184 0af4 1344     		add	r3, r3, r2
 2185 0af6 5B69     		ldr	r3, [r3, #20]
 2186 0af8 DB08     		lsrs	r3, r3, #3
ARM GAS  G:\Users\Jaxb\AppData\Local\Temp\cc11Idxk.s 			page 51


 2187 0afa 3B61     		str	r3, [r7, #16]
 372:../../source/src/kernel/OS_CORE/module.c **** 
 373:../../source/src/kernel/OS_CORE/module.c ****         /* relocate every items */
 374:../../source/src/kernel/OS_CORE/module.c ****         for (i = 0; i < nr_reloc; i ++)
 2188              		.loc 3 374 0
 2189 0afc 0023     		movs	r3, #0
 2190 0afe 7B64     		str	r3, [r7, #68]
 2191 0b00 5AE0     		b	.L108
 2192              	.L115:
 2193              	.LBB12:
 375:../../source/src/kernel/OS_CORE/module.c ****         {
 376:../../source/src/kernel/OS_CORE/module.c ****             Elf32_Sym *sym = &symtab[ELF32_R_SYM(rel->r_info)];
 2194              		.loc 3 376 0
 2195 0b02 3B6C     		ldr	r3, [r7, #64]
 2196 0b04 5B68     		ldr	r3, [r3, #4]
 2197 0b06 1B0A     		lsrs	r3, r3, #8
 2198 0b08 1B01     		lsls	r3, r3, #4
 2199 0b0a BA69     		ldr	r2, [r7, #24]
 2200 0b0c 1344     		add	r3, r3, r2
 2201 0b0e FB60     		str	r3, [r7, #12]
 377:../../source/src/kernel/OS_CORE/module.c **** 
 378:../../source/src/kernel/OS_CORE/module.c ****             //ka_printf("relocate symbol %s shndx %d", strtab + sym->st_name, sym->st_shndx);
 379:../../source/src/kernel/OS_CORE/module.c **** 
 380:../../source/src/kernel/OS_CORE/module.c ****             if ((sym->st_shndx != SHT_NULL) ||(ELF_ST_BIND(sym->st_info) == STB_LOCAL))
 2202              		.loc 3 380 0
 2203 0b10 FB68     		ldr	r3, [r7, #12]
 2204 0b12 DB89     		ldrh	r3, [r3, #14]
 2205 0b14 002B     		cmp	r3, #0
 2206 0b16 05D1     		bne	.L109
 2207              		.loc 3 380 0 is_stmt 0 discriminator 1
 2208 0b18 FB68     		ldr	r3, [r7, #12]
 2209 0b1a 1B7B     		ldrb	r3, [r3, #12]	@ zero_extendqisi2
 2210 0b1c 1B09     		lsrs	r3, r3, #4
 2211 0b1e DBB2     		uxtb	r3, r3
 2212 0b20 002B     		cmp	r3, #0
 2213 0b22 12D1     		bne	.L110
 2214              	.L109:
 2215              	.LBB13:
 381:../../source/src/kernel/OS_CORE/module.c ****             {
 382:../../source/src/kernel/OS_CORE/module.c ****                 Elf32_Addr addr;
 383:../../source/src/kernel/OS_CORE/module.c **** 
 384:../../source/src/kernel/OS_CORE/module.c ****                 addr = (Elf32_Addr)(module->module_space + sym->st_value - vstart_addr);
 2216              		.loc 3 384 0 is_stmt 1
 2217 0b24 7B68     		ldr	r3, [r7, #4]
 2218 0b26 5A6B     		ldr	r2, [r3, #52]
 2219 0b28 FB68     		ldr	r3, [r7, #12]
 2220 0b2a 5968     		ldr	r1, [r3, #4]
 2221 0b2c 3B6D     		ldr	r3, [r7, #80]
 2222 0b2e CB1A     		subs	r3, r1, r3
 2223 0b30 1344     		add	r3, r3, r2
 2224 0b32 BB60     		str	r3, [r7, #8]
 385:../../source/src/kernel/OS_CORE/module.c ****                 if(dlmodule_relocate(module, rel, addr) < 0)
 2225              		.loc 3 385 0
 2226 0b34 BA68     		ldr	r2, [r7, #8]
 2227 0b36 396C     		ldr	r1, [r7, #64]
 2228 0b38 7868     		ldr	r0, [r7, #4]
 2229 0b3a FFF7FEFF 		bl	dlmodule_relocate
ARM GAS  G:\Users\Jaxb\AppData\Local\Temp\cc11Idxk.s 			page 52


 2230 0b3e 0346     		mov	r3, r0
 2231 0b40 002B     		cmp	r3, #0
 2232 0b42 32DA     		bge	.L133
 386:../../source/src/kernel/OS_CORE/module.c ****                 {
 387:../../source/src/kernel/OS_CORE/module.c ****                     return -ERROR_LOGIC;
 2233              		.loc 3 387 0
 2234 0b44 6FF0F803 		mvn	r3, #248
 2235 0b48 BFE1     		b	.L95
 2236              	.L110:
 2237              	.LBE13:
 388:../../source/src/kernel/OS_CORE/module.c ****                 }
 389:../../source/src/kernel/OS_CORE/module.c ****             }
 390:../../source/src/kernel/OS_CORE/module.c ****             else if (!linked)
 2238              		.loc 3 390 0
 2239 0b4a 3B6B     		ldr	r3, [r7, #48]
 2240 0b4c 002B     		cmp	r3, #0
 2241 0b4e 2DD1     		bne	.L112
 2242              	.LBB14:
 391:../../source/src/kernel/OS_CORE/module.c ****             {
 392:../../source/src/kernel/OS_CORE/module.c ****                 Elf32_Addr addr;
 393:../../source/src/kernel/OS_CORE/module.c **** 
 394:../../source/src/kernel/OS_CORE/module.c ****                 //ka_printf("relocate symbol: %s", strtab + sym->st_name);
 395:../../source/src/kernel/OS_CORE/module.c ****                 /* need to resolve symbol in kernel symbol table */
 396:../../source/src/kernel/OS_CORE/module.c ****                 addr = get_sys_export_function_addr((const char *)(strtab + sym->st_name));
 2243              		.loc 3 396 0
 2244 0b50 FB68     		ldr	r3, [r7, #12]
 2245 0b52 1B68     		ldr	r3, [r3]
 2246 0b54 7A69     		ldr	r2, [r7, #20]
 2247 0b56 1344     		add	r3, r3, r2
 2248 0b58 1846     		mov	r0, r3
 2249 0b5a FFF7FEFF 		bl	get_sys_export_function_addr
 2250 0b5e F863     		str	r0, [r7, #60]
 397:../../source/src/kernel/OS_CORE/module.c ****                 if ((0 == addr) && (!(addr = get_mod_export_function_addr((const char *)(strtab + s
 2251              		.loc 3 397 0
 2252 0b60 FB6B     		ldr	r3, [r7, #60]
 2253 0b62 002B     		cmp	r3, #0
 2254 0b64 16D1     		bne	.L113
 2255              		.loc 3 397 0 is_stmt 0 discriminator 1
 2256 0b66 FB68     		ldr	r3, [r7, #12]
 2257 0b68 1B68     		ldr	r3, [r3]
 2258 0b6a 7A69     		ldr	r2, [r7, #20]
 2259 0b6c 1344     		add	r3, r3, r2
 2260 0b6e 1846     		mov	r0, r3
 2261 0b70 FFF77CFB 		bl	get_mod_export_function_addr
 2262 0b74 F863     		str	r0, [r7, #60]
 2263 0b76 FB6B     		ldr	r3, [r7, #60]
 2264 0b78 002B     		cmp	r3, #0
 2265 0b7a 0BD1     		bne	.L113
 398:../../source/src/kernel/OS_CORE/module.c ****                 {
 399:../../source/src/kernel/OS_CORE/module.c ****                     ka_printf("Module: can't find %s in kernel symbol table", strtab + sym->st_name
 2266              		.loc 3 399 0 is_stmt 1
 2267 0b7c FB68     		ldr	r3, [r7, #12]
 2268 0b7e 1B68     		ldr	r3, [r3]
 2269 0b80 7A69     		ldr	r2, [r7, #20]
 2270 0b82 1344     		add	r3, r3, r2
 2271 0b84 1946     		mov	r1, r3
 2272 0b86 8648     		ldr	r0, .L138
ARM GAS  G:\Users\Jaxb\AppData\Local\Temp\cc11Idxk.s 			page 53


 2273 0b88 FFF7FEFF 		bl	ka_printf
 400:../../source/src/kernel/OS_CORE/module.c ****                     unsolved = KA_TRUE;
 2274              		.loc 3 400 0
 2275 0b8c 854B     		ldr	r3, .L138+4
 2276 0b8e 0122     		movs	r2, #1
 2277 0b90 1A60     		str	r2, [r3]
 401:../../source/src/kernel/OS_CORE/module.c ****                     break;
 2278              		.loc 3 401 0
 2279 0b92 15E0     		b	.L114
 2280              	.L113:
 402:../../source/src/kernel/OS_CORE/module.c ****                 }
 403:../../source/src/kernel/OS_CORE/module.c ****                 else
 404:../../source/src/kernel/OS_CORE/module.c ****                 {
 405:../../source/src/kernel/OS_CORE/module.c ****                     if(dlmodule_relocate(module, rel, addr) < 0)
 2281              		.loc 3 405 0
 2282 0b94 FA6B     		ldr	r2, [r7, #60]
 2283 0b96 396C     		ldr	r1, [r7, #64]
 2284 0b98 7868     		ldr	r0, [r7, #4]
 2285 0b9a FFF7FEFF 		bl	dlmodule_relocate
 2286 0b9e 0346     		mov	r3, r0
 2287 0ba0 002B     		cmp	r3, #0
 2288 0ba2 03DA     		bge	.L112
 406:../../source/src/kernel/OS_CORE/module.c ****                     {
 407:../../source/src/kernel/OS_CORE/module.c ****                         return -ERROR_LOGIC;
 2289              		.loc 3 407 0
 2290 0ba4 6FF0F803 		mvn	r3, #248
 2291 0ba8 8FE1     		b	.L95
 2292              	.L133:
 2293              	.LBE14:
 381:../../source/src/kernel/OS_CORE/module.c ****                 Elf32_Addr addr;
 2294              		.loc 3 381 0
 2295 0baa 00BF     		nop
 2296              	.L112:
 408:../../source/src/kernel/OS_CORE/module.c ****                     }
 409:../../source/src/kernel/OS_CORE/module.c ****                 }
 410:../../source/src/kernel/OS_CORE/module.c ****             }
 411:../../source/src/kernel/OS_CORE/module.c ****             rel ++;
 2297              		.loc 3 411 0 discriminator 2
 2298 0bac 3B6C     		ldr	r3, [r7, #64]
 2299 0bae 0833     		adds	r3, r3, #8
 2300 0bb0 3B64     		str	r3, [r7, #64]
 2301              	.LBE12:
 374:../../source/src/kernel/OS_CORE/module.c ****         {
 2302              		.loc 3 374 0 discriminator 2
 2303 0bb2 7B6C     		ldr	r3, [r7, #68]
 2304 0bb4 0133     		adds	r3, r3, #1
 2305 0bb6 7B64     		str	r3, [r7, #68]
 2306              	.L108:
 374:../../source/src/kernel/OS_CORE/module.c ****         {
 2307              		.loc 3 374 0 is_stmt 0 discriminator 1
 2308 0bb8 7A6C     		ldr	r2, [r7, #68]
 2309 0bba 3B69     		ldr	r3, [r7, #16]
 2310 0bbc 9A42     		cmp	r2, r3
 2311 0bbe A0D3     		bcc	.L115
 2312              	.L114:
 412:../../source/src/kernel/OS_CORE/module.c ****         }
 413:../../source/src/kernel/OS_CORE/module.c **** 
ARM GAS  G:\Users\Jaxb\AppData\Local\Temp\cc11Idxk.s 			page 54


 414:../../source/src/kernel/OS_CORE/module.c ****         if (unsolved) 
 2313              		.loc 3 414 0 is_stmt 1
 2314 0bc0 784B     		ldr	r3, .L138+4
 2315 0bc2 1B68     		ldr	r3, [r3]
 2316 0bc4 002B     		cmp	r3, #0
 2317 0bc6 03D0     		beq	.L107
 415:../../source/src/kernel/OS_CORE/module.c ****             return -ERROR_LOGIC;
 2318              		.loc 3 415 0
 2319 0bc8 6FF0F803 		mvn	r3, #248
 2320 0bcc 7DE1     		b	.L95
 2321              	.L132:
 361:../../source/src/kernel/OS_CORE/module.c **** 
 2322              		.loc 3 361 0
 2323 0bce 00BF     		nop
 2324              	.L107:
 2325              	.LBE11:
 352:../../source/src/kernel/OS_CORE/module.c ****     {
 2326              		.loc 3 352 0 discriminator 2
 2327 0bd0 7B6D     		ldr	r3, [r7, #84]
 2328 0bd2 0133     		adds	r3, r3, #1
 2329 0bd4 7B65     		str	r3, [r7, #84]
 2330              	.L105:
 352:../../source/src/kernel/OS_CORE/module.c ****     {
 2331              		.loc 3 352 0 is_stmt 0 discriminator 1
 2332 0bd6 3B68     		ldr	r3, [r7]
 2333 0bd8 1B8E     		ldrh	r3, [r3, #48]
 2334 0bda 1A46     		mov	r2, r3
 2335 0bdc 7B6D     		ldr	r3, [r7, #84]
 2336 0bde 9342     		cmp	r3, r2
 2337 0be0 FFF429AF 		bcc	.L116
 416:../../source/src/kernel/OS_CORE/module.c ****     }
 417:../../source/src/kernel/OS_CORE/module.c ****     /* construct module symbol table */
 418:../../source/src/kernel/OS_CORE/module.c ****     for (index = 0; index < elf_module->e_shnum; index ++)
 2338              		.loc 3 418 0 is_stmt 1
 2339 0be4 0023     		movs	r3, #0
 2340 0be6 7B65     		str	r3, [r7, #84]
 2341 0be8 26E0     		b	.L117
 2342              	.L120:
 2343              	.LBB15:
 419:../../source/src/kernel/OS_CORE/module.c ****     {
 420:../../source/src/kernel/OS_CORE/module.c ****         /* find .dynsym section */
 421:../../source/src/kernel/OS_CORE/module.c ****         UINT8 *shstrab;
 422:../../source/src/kernel/OS_CORE/module.c ****         shstrab = (UINT8 *)module_ptr +
 423:../../source/src/kernel/OS_CORE/module.c ****                   shdr[elf_module->e_shstrndx].sh_offset;
 2344              		.loc 3 423 0
 2345 0bea 3B68     		ldr	r3, [r7]
 2346 0bec 1A6A     		ldr	r2, [r3, #32]
 2347 0bee 3B68     		ldr	r3, [r7]
 2348 0bf0 5B8E     		ldrh	r3, [r3, #50]
 2349 0bf2 1946     		mov	r1, r3
 2350 0bf4 0B46     		mov	r3, r1
 2351 0bf6 9B00     		lsls	r3, r3, #2
 2352 0bf8 0B44     		add	r3, r3, r1
 2353 0bfa DB00     		lsls	r3, r3, #3
 2354 0bfc 1344     		add	r3, r3, r2
 2355 0bfe 3A68     		ldr	r2, [r7]
 2356 0c00 1344     		add	r3, r3, r2
ARM GAS  G:\Users\Jaxb\AppData\Local\Temp\cc11Idxk.s 			page 55


 2357 0c02 1B69     		ldr	r3, [r3, #16]
 422:../../source/src/kernel/OS_CORE/module.c ****                   shdr[elf_module->e_shstrndx].sh_offset;
 2358              		.loc 3 422 0
 2359 0c04 3A68     		ldr	r2, [r7]
 2360 0c06 1344     		add	r3, r3, r2
 2361 0c08 BB62     		str	r3, [r7, #40]
 424:../../source/src/kernel/OS_CORE/module.c ****         if (ka_strcmp((const char *)(shstrab + shdr[index].sh_name), ELF_DYNSYM) == 0)
 2362              		.loc 3 424 0
 2363 0c0a 3B68     		ldr	r3, [r7]
 2364 0c0c 196A     		ldr	r1, [r3, #32]
 2365 0c0e 7A6D     		ldr	r2, [r7, #84]
 2366 0c10 1346     		mov	r3, r2
 2367 0c12 9B00     		lsls	r3, r3, #2
 2368 0c14 1344     		add	r3, r3, r2
 2369 0c16 DB00     		lsls	r3, r3, #3
 2370 0c18 0B44     		add	r3, r3, r1
 2371 0c1a 3A68     		ldr	r2, [r7]
 2372 0c1c 1344     		add	r3, r3, r2
 2373 0c1e 1B68     		ldr	r3, [r3]
 2374 0c20 BA6A     		ldr	r2, [r7, #40]
 2375 0c22 1344     		add	r3, r3, r2
 2376 0c24 6049     		ldr	r1, .L138+8
 2377 0c26 1846     		mov	r0, r3
 2378 0c28 FFF7FEFF 		bl	ka_strcmp
 2379 0c2c 0346     		mov	r3, r0
 2380 0c2e 002B     		cmp	r3, #0
 2381 0c30 09D0     		beq	.L134
 2382              	.LBE15:
 418:../../source/src/kernel/OS_CORE/module.c ****     {
 2383              		.loc 3 418 0 discriminator 2
 2384 0c32 7B6D     		ldr	r3, [r7, #84]
 2385 0c34 0133     		adds	r3, r3, #1
 2386 0c36 7B65     		str	r3, [r7, #84]
 2387              	.L117:
 418:../../source/src/kernel/OS_CORE/module.c ****     {
 2388              		.loc 3 418 0 is_stmt 0 discriminator 1
 2389 0c38 3B68     		ldr	r3, [r7]
 2390 0c3a 1B8E     		ldrh	r3, [r3, #48]
 2391 0c3c 1A46     		mov	r2, r3
 2392 0c3e 7B6D     		ldr	r3, [r7, #84]
 2393 0c40 9342     		cmp	r3, r2
 2394 0c42 D2D3     		bcc	.L120
 2395 0c44 00E0     		b	.L119
 2396              	.L134:
 2397              	.LBB16:
 425:../../source/src/kernel/OS_CORE/module.c ****             break;
 2398              		.loc 3 425 0 is_stmt 1
 2399 0c46 00BF     		nop
 2400              	.L119:
 2401              	.LBE16:
 426:../../source/src/kernel/OS_CORE/module.c ****     }
 427:../../source/src/kernel/OS_CORE/module.c ****     /* found .dynsym section */
 428:../../source/src/kernel/OS_CORE/module.c ****     if (index != elf_module->e_shnum)
 2402              		.loc 3 428 0
 2403 0c48 3B68     		ldr	r3, [r7]
 2404 0c4a 1B8E     		ldrh	r3, [r3, #48]
 2405 0c4c 1A46     		mov	r2, r3
ARM GAS  G:\Users\Jaxb\AppData\Local\Temp\cc11Idxk.s 			page 56


 2406 0c4e 7B6D     		ldr	r3, [r7, #84]
 2407 0c50 9342     		cmp	r3, r2
 2408 0c52 00F03981 		beq	.L121
 2409              	.LBB17:
 429:../../source/src/kernel/OS_CORE/module.c ****     {
 430:../../source/src/kernel/OS_CORE/module.c ****         int i, count = 0;
 2410              		.loc 3 430 0
 2411 0c56 0023     		movs	r3, #0
 2412 0c58 7B63     		str	r3, [r7, #52]
 431:../../source/src/kernel/OS_CORE/module.c ****         Elf32_Sym  *symtab = NULL;
 2413              		.loc 3 431 0
 2414 0c5a 0023     		movs	r3, #0
 2415 0c5c 7B62     		str	r3, [r7, #36]
 432:../../source/src/kernel/OS_CORE/module.c ****         UINT8 *strtab = NULL;
 2416              		.loc 3 432 0
 2417 0c5e 0023     		movs	r3, #0
 2418 0c60 3B62     		str	r3, [r7, #32]
 433:../../source/src/kernel/OS_CORE/module.c **** 
 434:../../source/src/kernel/OS_CORE/module.c ****         symtab = (Elf32_Sym *)((UINT8 *)module_ptr + shdr[index].sh_offset);
 2419              		.loc 3 434 0
 2420 0c62 3B68     		ldr	r3, [r7]
 2421 0c64 196A     		ldr	r1, [r3, #32]
 2422 0c66 7A6D     		ldr	r2, [r7, #84]
 2423 0c68 1346     		mov	r3, r2
 2424 0c6a 9B00     		lsls	r3, r3, #2
 2425 0c6c 1344     		add	r3, r3, r2
 2426 0c6e DB00     		lsls	r3, r3, #3
 2427 0c70 0B44     		add	r3, r3, r1
 2428 0c72 3A68     		ldr	r2, [r7]
 2429 0c74 1344     		add	r3, r3, r2
 2430 0c76 1B69     		ldr	r3, [r3, #16]
 2431 0c78 3A68     		ldr	r2, [r7]
 2432 0c7a 1344     		add	r3, r3, r2
 2433 0c7c 7B62     		str	r3, [r7, #36]
 435:../../source/src/kernel/OS_CORE/module.c ****         strtab = (UINT8 *)module_ptr + shdr[shdr[index].sh_link].sh_offset;
 2434              		.loc 3 435 0
 2435 0c7e 3B68     		ldr	r3, [r7]
 2436 0c80 196A     		ldr	r1, [r3, #32]
 2437 0c82 3B68     		ldr	r3, [r7]
 2438 0c84 186A     		ldr	r0, [r3, #32]
 2439 0c86 7A6D     		ldr	r2, [r7, #84]
 2440 0c88 1346     		mov	r3, r2
 2441 0c8a 9B00     		lsls	r3, r3, #2
 2442 0c8c 1344     		add	r3, r3, r2
 2443 0c8e DB00     		lsls	r3, r3, #3
 2444 0c90 0344     		add	r3, r3, r0
 2445 0c92 3A68     		ldr	r2, [r7]
 2446 0c94 1344     		add	r3, r3, r2
 2447 0c96 9A69     		ldr	r2, [r3, #24]
 2448 0c98 1346     		mov	r3, r2
 2449 0c9a 9B00     		lsls	r3, r3, #2
 2450 0c9c 1344     		add	r3, r3, r2
 2451 0c9e DB00     		lsls	r3, r3, #3
 2452 0ca0 0B44     		add	r3, r3, r1
 2453 0ca2 3A68     		ldr	r2, [r7]
 2454 0ca4 1344     		add	r3, r3, r2
 2455 0ca6 1B69     		ldr	r3, [r3, #16]
ARM GAS  G:\Users\Jaxb\AppData\Local\Temp\cc11Idxk.s 			page 57


 2456 0ca8 3A68     		ldr	r2, [r7]
 2457 0caa 1344     		add	r3, r3, r2
 2458 0cac 3B62     		str	r3, [r7, #32]
 436:../../source/src/kernel/OS_CORE/module.c **** 
 437:../../source/src/kernel/OS_CORE/module.c ****         for (i = 0; i < shdr[index].sh_size / sizeof(Elf32_Sym); i++)
 2459              		.loc 3 437 0
 2460 0cae 0023     		movs	r3, #0
 2461 0cb0 BB63     		str	r3, [r7, #56]
 2462 0cb2 56E0     		b	.L122
 2463              	.L125:
 438:../../source/src/kernel/OS_CORE/module.c ****         {
 439:../../source/src/kernel/OS_CORE/module.c ****             if ((ELF_ST_BIND(symtab[i].st_info) == STB_GLOBAL) &&
 2464              		.loc 3 439 0
 2465 0cb4 BB6B     		ldr	r3, [r7, #56]
 2466 0cb6 1B01     		lsls	r3, r3, #4
 2467 0cb8 7A6A     		ldr	r2, [r7, #36]
 2468 0cba 1344     		add	r3, r3, r2
 2469 0cbc 1B7B     		ldrb	r3, [r3, #12]	@ zero_extendqisi2
 2470 0cbe 1B09     		lsrs	r3, r3, #4
 2471 0cc0 DBB2     		uxtb	r3, r3
 2472 0cc2 012B     		cmp	r3, #1
 2473 0cc4 4AD1     		bne	.L123
 440:../../source/src/kernel/OS_CORE/module.c ****                 (ELF_ST_TYPE(symtab[i].st_info) == STT_FUNC))   //export function only
 2474              		.loc 3 440 0 discriminator 1
 2475 0cc6 BB6B     		ldr	r3, [r7, #56]
 2476 0cc8 1B01     		lsls	r3, r3, #4
 2477 0cca 7A6A     		ldr	r2, [r7, #36]
 2478 0ccc 1344     		add	r3, r3, r2
 2479 0cce 1B7B     		ldrb	r3, [r3, #12]	@ zero_extendqisi2
 2480 0cd0 03F00F03 		and	r3, r3, #15
 439:../../source/src/kernel/OS_CORE/module.c ****                 (ELF_ST_TYPE(symtab[i].st_info) == STT_FUNC))   //export function only
 2481              		.loc 3 439 0 discriminator 1
 2482 0cd4 022B     		cmp	r3, #2
 2483 0cd6 41D1     		bne	.L123
 441:../../source/src/kernel/OS_CORE/module.c ****             {
 442:../../source/src/kernel/OS_CORE/module.c ****                 ++count;
 2484              		.loc 3 442 0
 2485 0cd8 7B6B     		ldr	r3, [r7, #52]
 2486 0cda 0133     		adds	r3, r3, #1
 2487 0cdc 7B63     		str	r3, [r7, #52]
 443:../../source/src/kernel/OS_CORE/module.c ****                 if(0 == ka_strcmp("init_module",(const char *)(strtab + symtab[i].st_name)))
 2488              		.loc 3 443 0
 2489 0cde BB6B     		ldr	r3, [r7, #56]
 2490 0ce0 1B01     		lsls	r3, r3, #4
 2491 0ce2 7A6A     		ldr	r2, [r7, #36]
 2492 0ce4 1344     		add	r3, r3, r2
 2493 0ce6 1B68     		ldr	r3, [r3]
 2494 0ce8 3A6A     		ldr	r2, [r7, #32]
 2495 0cea 1344     		add	r3, r3, r2
 2496 0cec 1946     		mov	r1, r3
 2497 0cee 2F48     		ldr	r0, .L138+12
 2498 0cf0 FFF7FEFF 		bl	ka_strcmp
 2499 0cf4 0346     		mov	r3, r0
 2500 0cf6 002B     		cmp	r3, #0
 2501 0cf8 11D1     		bne	.L124
 444:../../source/src/kernel/OS_CORE/module.c ****                 {
 445:../../source/src/kernel/OS_CORE/module.c ****                     --count;
ARM GAS  G:\Users\Jaxb\AppData\Local\Temp\cc11Idxk.s 			page 58


 2502              		.loc 3 445 0
 2503 0cfa 7B6B     		ldr	r3, [r7, #52]
 2504 0cfc 013B     		subs	r3, r3, #1
 2505 0cfe 7B63     		str	r3, [r7, #52]
 446:../../source/src/kernel/OS_CORE/module.c ****                     module->init = module->module_space + symtab[i].st_value - module->vstart_addr;
 2506              		.loc 3 446 0
 2507 0d00 7B68     		ldr	r3, [r7, #4]
 2508 0d02 5A6B     		ldr	r2, [r3, #52]
 2509 0d04 BB6B     		ldr	r3, [r7, #56]
 2510 0d06 1B01     		lsls	r3, r3, #4
 2511 0d08 796A     		ldr	r1, [r7, #36]
 2512 0d0a 0B44     		add	r3, r3, r1
 2513 0d0c 5968     		ldr	r1, [r3, #4]
 2514 0d0e 7B68     		ldr	r3, [r7, #4]
 2515 0d10 5B6C     		ldr	r3, [r3, #68]
 2516 0d12 CB1A     		subs	r3, r1, r3
 2517 0d14 1344     		add	r3, r3, r2
 2518 0d16 1A46     		mov	r2, r3
 2519 0d18 7B68     		ldr	r3, [r7, #4]
 2520 0d1a DA62     		str	r2, [r3, #44]
 2521 0d1c 1EE0     		b	.L123
 2522              	.L124:
 447:../../source/src/kernel/OS_CORE/module.c ****                 }
 448:../../source/src/kernel/OS_CORE/module.c ****                 else if(0 == ka_strcmp("exit_module",(const char *)(strtab + symtab[i].st_name)))
 2523              		.loc 3 448 0
 2524 0d1e BB6B     		ldr	r3, [r7, #56]
 2525 0d20 1B01     		lsls	r3, r3, #4
 2526 0d22 7A6A     		ldr	r2, [r7, #36]
 2527 0d24 1344     		add	r3, r3, r2
 2528 0d26 1B68     		ldr	r3, [r3]
 2529 0d28 3A6A     		ldr	r2, [r7, #32]
 2530 0d2a 1344     		add	r3, r3, r2
 2531 0d2c 1946     		mov	r1, r3
 2532 0d2e 2048     		ldr	r0, .L138+16
 2533 0d30 FFF7FEFF 		bl	ka_strcmp
 2534 0d34 0346     		mov	r3, r0
 2535 0d36 002B     		cmp	r3, #0
 2536 0d38 10D1     		bne	.L123
 449:../../source/src/kernel/OS_CORE/module.c ****                 {
 450:../../source/src/kernel/OS_CORE/module.c ****                     --count;
 2537              		.loc 3 450 0
 2538 0d3a 7B6B     		ldr	r3, [r7, #52]
 2539 0d3c 013B     		subs	r3, r3, #1
 2540 0d3e 7B63     		str	r3, [r7, #52]
 451:../../source/src/kernel/OS_CORE/module.c ****                     module->exit = module->module_space + symtab[i].st_value - module->vstart_addr;
 2541              		.loc 3 451 0
 2542 0d40 7B68     		ldr	r3, [r7, #4]
 2543 0d42 5A6B     		ldr	r2, [r3, #52]
 2544 0d44 BB6B     		ldr	r3, [r7, #56]
 2545 0d46 1B01     		lsls	r3, r3, #4
 2546 0d48 796A     		ldr	r1, [r7, #36]
 2547 0d4a 0B44     		add	r3, r3, r1
 2548 0d4c 5968     		ldr	r1, [r3, #4]
 2549 0d4e 7B68     		ldr	r3, [r7, #4]
 2550 0d50 5B6C     		ldr	r3, [r3, #68]
 2551 0d52 CB1A     		subs	r3, r1, r3
 2552 0d54 1344     		add	r3, r3, r2
ARM GAS  G:\Users\Jaxb\AppData\Local\Temp\cc11Idxk.s 			page 59


 2553 0d56 1A46     		mov	r2, r3
 2554 0d58 7B68     		ldr	r3, [r7, #4]
 2555 0d5a 1A63     		str	r2, [r3, #48]
 2556              	.L123:
 437:../../source/src/kernel/OS_CORE/module.c ****         {
 2557              		.loc 3 437 0 discriminator 2
 2558 0d5c BB6B     		ldr	r3, [r7, #56]
 2559 0d5e 0133     		adds	r3, r3, #1
 2560 0d60 BB63     		str	r3, [r7, #56]
 2561              	.L122:
 437:../../source/src/kernel/OS_CORE/module.c ****         {
 2562              		.loc 3 437 0 is_stmt 0 discriminator 1
 2563 0d62 3B68     		ldr	r3, [r7]
 2564 0d64 196A     		ldr	r1, [r3, #32]
 2565 0d66 7A6D     		ldr	r2, [r7, #84]
 2566 0d68 1346     		mov	r3, r2
 2567 0d6a 9B00     		lsls	r3, r3, #2
 2568 0d6c 1344     		add	r3, r3, r2
 2569 0d6e DB00     		lsls	r3, r3, #3
 2570 0d70 0B44     		add	r3, r3, r1
 2571 0d72 3A68     		ldr	r2, [r7]
 2572 0d74 1344     		add	r3, r3, r2
 2573 0d76 5B69     		ldr	r3, [r3, #20]
 2574 0d78 1A09     		lsrs	r2, r3, #4
 2575 0d7a BB6B     		ldr	r3, [r7, #56]
 2576 0d7c 9A42     		cmp	r2, r3
 2577 0d7e 99D8     		bhi	.L125
 452:../../source/src/kernel/OS_CORE/module.c ****                 }
 453:../../source/src/kernel/OS_CORE/module.c ****             }
 454:../../source/src/kernel/OS_CORE/module.c ****         }
 455:../../source/src/kernel/OS_CORE/module.c **** 
 456:../../source/src/kernel/OS_CORE/module.c ****         module->export_symbols_array = (struct ka_module_symtab *)ka_malloc
 2578              		.loc 3 456 0 is_stmt 1
 2579 0d80 7B6B     		ldr	r3, [r7, #52]
 2580 0d82 DB00     		lsls	r3, r3, #3
 2581 0d84 1846     		mov	r0, r3
 2582 0d86 FFF7FEFF 		bl	ka_malloc
 2583 0d8a 0246     		mov	r2, r0
 2584 0d8c 7B68     		ldr	r3, [r7, #4]
 2585 0d8e 9A64     		str	r2, [r3, #72]
 457:../../source/src/kernel/OS_CORE/module.c ****                                         (count * sizeof(struct ka_module_symtab));
 458:../../source/src/kernel/OS_CORE/module.c ****         module->export_symbols_num = count;
 2586              		.loc 3 458 0
 2587 0d90 7A6B     		ldr	r2, [r7, #52]
 2588 0d92 7B68     		ldr	r3, [r7, #4]
 2589 0d94 DA64     		str	r2, [r3, #76]
 459:../../source/src/kernel/OS_CORE/module.c ****         for (i = 0, count = 0; i < shdr[index].sh_size / sizeof(Elf32_Sym); i++)
 2590              		.loc 3 459 0
 2591 0d96 0023     		movs	r3, #0
 2592 0d98 BB63     		str	r3, [r7, #56]
 2593 0d9a 0023     		movs	r3, #0
 2594 0d9c 7B63     		str	r3, [r7, #52]
 2595 0d9e 83E0     		b	.L126
 2596              	.L139:
 2597              		.align	2
 2598              	.L138:
 2599 0da0 24030000 		.word	.LC28
ARM GAS  G:\Users\Jaxb\AppData\Local\Temp\cc11Idxk.s 			page 60


 2600 0da4 10000000 		.word	unsolved.4543
 2601 0da8 54030000 		.word	.LC29
 2602 0dac 5C030000 		.word	.LC30
 2603 0db0 68030000 		.word	.LC31
 2604              	.L130:
 2605              	.LBB18:
 460:../../source/src/kernel/OS_CORE/module.c ****         {
 461:../../source/src/kernel/OS_CORE/module.c ****             unsigned long length;
 462:../../source/src/kernel/OS_CORE/module.c **** 
 463:../../source/src/kernel/OS_CORE/module.c ****             if ((ELF_ST_BIND(symtab[i].st_info) != STB_GLOBAL) ||
 2606              		.loc 3 463 0
 2607 0db4 BB6B     		ldr	r3, [r7, #56]
 2608 0db6 1B01     		lsls	r3, r3, #4
 2609 0db8 7A6A     		ldr	r2, [r7, #36]
 2610 0dba 1344     		add	r3, r3, r2
 2611 0dbc 1B7B     		ldrb	r3, [r3, #12]	@ zero_extendqisi2
 2612 0dbe 1B09     		lsrs	r3, r3, #4
 2613 0dc0 DBB2     		uxtb	r3, r3
 2614 0dc2 012B     		cmp	r3, #1
 2615 0dc4 6CD1     		bne	.L135
 464:../../source/src/kernel/OS_CORE/module.c ****                 (ELF_ST_TYPE(symtab[i].st_info) != STT_FUNC)   ||
 2616              		.loc 3 464 0 discriminator 1
 2617 0dc6 BB6B     		ldr	r3, [r7, #56]
 2618 0dc8 1B01     		lsls	r3, r3, #4
 2619 0dca 7A6A     		ldr	r2, [r7, #36]
 2620 0dcc 1344     		add	r3, r3, r2
 2621 0dce 1B7B     		ldrb	r3, [r3, #12]	@ zero_extendqisi2
 2622 0dd0 03F00F03 		and	r3, r3, #15
 463:../../source/src/kernel/OS_CORE/module.c ****                 (ELF_ST_TYPE(symtab[i].st_info) != STT_FUNC)   ||
 2623              		.loc 3 463 0 discriminator 1
 2624 0dd4 022B     		cmp	r3, #2
 2625 0dd6 63D1     		bne	.L135
 465:../../source/src/kernel/OS_CORE/module.c ****                 (0 == ka_strcmp("init_module",(const char *)(strtab + symtab[i].st_name))) ||
 2626              		.loc 3 465 0
 2627 0dd8 BB6B     		ldr	r3, [r7, #56]
 2628 0dda 1B01     		lsls	r3, r3, #4
 2629 0ddc 7A6A     		ldr	r2, [r7, #36]
 2630 0dde 1344     		add	r3, r3, r2
 2631 0de0 1B68     		ldr	r3, [r3]
 2632 0de2 3A6A     		ldr	r2, [r7, #32]
 2633 0de4 1344     		add	r3, r3, r2
 2634 0de6 1946     		mov	r1, r3
 2635 0de8 3A48     		ldr	r0, .L140
 2636 0dea FFF7FEFF 		bl	ka_strcmp
 2637 0dee 0346     		mov	r3, r0
 464:../../source/src/kernel/OS_CORE/module.c ****                 (ELF_ST_TYPE(symtab[i].st_info) != STT_FUNC)   ||
 2638              		.loc 3 464 0
 2639 0df0 002B     		cmp	r3, #0
 2640 0df2 55D0     		beq	.L135
 466:../../source/src/kernel/OS_CORE/module.c ****                 (0 == ka_strcmp("exit_module",(const char *)(strtab + symtab[i].st_name))))
 2641              		.loc 3 466 0
 2642 0df4 BB6B     		ldr	r3, [r7, #56]
 2643 0df6 1B01     		lsls	r3, r3, #4
 2644 0df8 7A6A     		ldr	r2, [r7, #36]
 2645 0dfa 1344     		add	r3, r3, r2
 2646 0dfc 1B68     		ldr	r3, [r3]
 2647 0dfe 3A6A     		ldr	r2, [r7, #32]
ARM GAS  G:\Users\Jaxb\AppData\Local\Temp\cc11Idxk.s 			page 61


 2648 0e00 1344     		add	r3, r3, r2
 2649 0e02 1946     		mov	r1, r3
 2650 0e04 3448     		ldr	r0, .L140+4
 2651 0e06 FFF7FEFF 		bl	ka_strcmp
 2652 0e0a 0346     		mov	r3, r0
 465:../../source/src/kernel/OS_CORE/module.c ****                 (0 == ka_strcmp("init_module",(const char *)(strtab + symtab[i].st_name))) ||
 2653              		.loc 3 465 0
 2654 0e0c 002B     		cmp	r3, #0
 2655 0e0e 47D0     		beq	.L135
 467:../../source/src/kernel/OS_CORE/module.c ****                 continue;
 468:../../source/src/kernel/OS_CORE/module.c **** 
 469:../../source/src/kernel/OS_CORE/module.c ****             length = ka_strlen((const char *)(strtab + symtab[i].st_name)) + 1;
 2656              		.loc 3 469 0
 2657 0e10 BB6B     		ldr	r3, [r7, #56]
 2658 0e12 1B01     		lsls	r3, r3, #4
 2659 0e14 7A6A     		ldr	r2, [r7, #36]
 2660 0e16 1344     		add	r3, r3, r2
 2661 0e18 1B68     		ldr	r3, [r3]
 2662 0e1a 3A6A     		ldr	r2, [r7, #32]
 2663 0e1c 1344     		add	r3, r3, r2
 2664 0e1e 1846     		mov	r0, r3
 2665 0e20 FFF7FEFF 		bl	ka_strlen
 2666 0e24 0346     		mov	r3, r0
 2667 0e26 0133     		adds	r3, r3, #1
 2668 0e28 FB61     		str	r3, [r7, #28]
 470:../../source/src/kernel/OS_CORE/module.c **** 
 471:../../source/src/kernel/OS_CORE/module.c ****             module->export_symbols_array[count].addr =
 472:../../source/src/kernel/OS_CORE/module.c ****                 (void *)(module->module_space + symtab[i].st_value - module->vstart_addr);
 2669              		.loc 3 472 0
 2670 0e2a 7B68     		ldr	r3, [r7, #4]
 2671 0e2c 596B     		ldr	r1, [r3, #52]
 2672 0e2e BB6B     		ldr	r3, [r7, #56]
 2673 0e30 1B01     		lsls	r3, r3, #4
 2674 0e32 7A6A     		ldr	r2, [r7, #36]
 2675 0e34 1344     		add	r3, r3, r2
 2676 0e36 5A68     		ldr	r2, [r3, #4]
 2677 0e38 7B68     		ldr	r3, [r7, #4]
 2678 0e3a 5B6C     		ldr	r3, [r3, #68]
 2679 0e3c D21A     		subs	r2, r2, r3
 471:../../source/src/kernel/OS_CORE/module.c ****                 (void *)(module->module_space + symtab[i].st_value - module->vstart_addr);
 2680              		.loc 3 471 0
 2681 0e3e 7B68     		ldr	r3, [r7, #4]
 2682 0e40 986C     		ldr	r0, [r3, #72]
 2683 0e42 7B6B     		ldr	r3, [r7, #52]
 2684 0e44 DB00     		lsls	r3, r3, #3
 2685 0e46 0344     		add	r3, r3, r0
 2686              		.loc 3 472 0
 2687 0e48 0A44     		add	r2, r2, r1
 471:../../source/src/kernel/OS_CORE/module.c ****                 (void *)(module->module_space + symtab[i].st_value - module->vstart_addr);
 2688              		.loc 3 471 0
 2689 0e4a 1A60     		str	r2, [r3]
 473:../../source/src/kernel/OS_CORE/module.c ****             module->export_symbols_array[count].name = ka_malloc(length);
 2690              		.loc 3 473 0
 2691 0e4c 7B68     		ldr	r3, [r7, #4]
 2692 0e4e 9A6C     		ldr	r2, [r3, #72]
 2693 0e50 7B6B     		ldr	r3, [r7, #52]
 2694 0e52 DB00     		lsls	r3, r3, #3
ARM GAS  G:\Users\Jaxb\AppData\Local\Temp\cc11Idxk.s 			page 62


 2695 0e54 D418     		adds	r4, r2, r3
 2696 0e56 F869     		ldr	r0, [r7, #28]
 2697 0e58 FFF7FEFF 		bl	ka_malloc
 2698 0e5c 0346     		mov	r3, r0
 2699 0e5e 6360     		str	r3, [r4, #4]
 474:../../source/src/kernel/OS_CORE/module.c ****             ka_memset((void *)module->export_symbols_array[count].name, 0, length);
 2700              		.loc 3 474 0
 2701 0e60 7B68     		ldr	r3, [r7, #4]
 2702 0e62 9A6C     		ldr	r2, [r3, #72]
 2703 0e64 7B6B     		ldr	r3, [r7, #52]
 2704 0e66 DB00     		lsls	r3, r3, #3
 2705 0e68 1344     		add	r3, r3, r2
 2706 0e6a 5B68     		ldr	r3, [r3, #4]
 2707 0e6c FA69     		ldr	r2, [r7, #28]
 2708 0e6e 0021     		movs	r1, #0
 2709 0e70 1846     		mov	r0, r3
 2710 0e72 FFF7FEFF 		bl	ka_memset
 475:../../source/src/kernel/OS_CORE/module.c ****             ka_memcpy((void *)module->export_symbols_array[count].name,
 2711              		.loc 3 475 0
 2712 0e76 7B68     		ldr	r3, [r7, #4]
 2713 0e78 9A6C     		ldr	r2, [r3, #72]
 2714 0e7a 7B6B     		ldr	r3, [r7, #52]
 2715 0e7c DB00     		lsls	r3, r3, #3
 2716 0e7e 1344     		add	r3, r3, r2
 2717 0e80 5868     		ldr	r0, [r3, #4]
 476:../../source/src/kernel/OS_CORE/module.c ****                       strtab + symtab[i].st_name,
 2718              		.loc 3 476 0
 2719 0e82 BB6B     		ldr	r3, [r7, #56]
 2720 0e84 1B01     		lsls	r3, r3, #4
 2721 0e86 7A6A     		ldr	r2, [r7, #36]
 2722 0e88 1344     		add	r3, r3, r2
 2723 0e8a 1B68     		ldr	r3, [r3]
 2724 0e8c 3A6A     		ldr	r2, [r7, #32]
 2725 0e8e 1344     		add	r3, r3, r2
 475:../../source/src/kernel/OS_CORE/module.c ****             ka_memcpy((void *)module->export_symbols_array[count].name,
 2726              		.loc 3 475 0
 2727 0e90 FA69     		ldr	r2, [r7, #28]
 2728 0e92 1946     		mov	r1, r3
 2729 0e94 FFF7FEFF 		bl	ka_memcpy
 477:../../source/src/kernel/OS_CORE/module.c ****                       length);
 478:../../source/src/kernel/OS_CORE/module.c ****             count ++;
 2730              		.loc 3 478 0
 2731 0e98 7B6B     		ldr	r3, [r7, #52]
 2732 0e9a 0133     		adds	r3, r3, #1
 2733 0e9c 7B63     		str	r3, [r7, #52]
 2734 0e9e 00E0     		b	.L129
 2735              	.L135:
 467:../../source/src/kernel/OS_CORE/module.c **** 
 2736              		.loc 3 467 0
 2737 0ea0 00BF     		nop
 2738              	.L129:
 2739              	.LBE18:
 459:../../source/src/kernel/OS_CORE/module.c ****         {
 2740              		.loc 3 459 0 discriminator 2
 2741 0ea2 BB6B     		ldr	r3, [r7, #56]
 2742 0ea4 0133     		adds	r3, r3, #1
 2743 0ea6 BB63     		str	r3, [r7, #56]
ARM GAS  G:\Users\Jaxb\AppData\Local\Temp\cc11Idxk.s 			page 63


 2744              	.L126:
 459:../../source/src/kernel/OS_CORE/module.c ****         {
 2745              		.loc 3 459 0 is_stmt 0 discriminator 1
 2746 0ea8 3B68     		ldr	r3, [r7]
 2747 0eaa 196A     		ldr	r1, [r3, #32]
 2748 0eac 7A6D     		ldr	r2, [r7, #84]
 2749 0eae 1346     		mov	r3, r2
 2750 0eb0 9B00     		lsls	r3, r3, #2
 2751 0eb2 1344     		add	r3, r3, r2
 2752 0eb4 DB00     		lsls	r3, r3, #3
 2753 0eb6 0B44     		add	r3, r3, r1
 2754 0eb8 3A68     		ldr	r2, [r7]
 2755 0eba 1344     		add	r3, r3, r2
 2756 0ebc 5B69     		ldr	r3, [r3, #20]
 2757 0ebe 1A09     		lsrs	r2, r3, #4
 2758 0ec0 BB6B     		ldr	r3, [r7, #56]
 2759 0ec2 9A42     		cmp	r2, r3
 2760 0ec4 3FF676AF 		bhi	.L130
 2761              	.L121:
 2762              	.LBE17:
 479:../../source/src/kernel/OS_CORE/module.c ****         }
 480:../../source/src/kernel/OS_CORE/module.c ****     }
 481:../../source/src/kernel/OS_CORE/module.c **** 
 482:../../source/src/kernel/OS_CORE/module.c ****     return FUN_EXECUTE_SUCCESSFULLY;
 2763              		.loc 3 482 0 is_stmt 1
 2764 0ec8 0023     		movs	r3, #0
 2765              	.L95:
 483:../../source/src/kernel/OS_CORE/module.c **** }
 2766              		.loc 3 483 0
 2767 0eca 1846     		mov	r0, r3
 2768 0ecc 5C37     		adds	r7, r7, #92
 2769              	.LCFI80:
 2770              		.cfi_def_cfa_offset 12
 2771 0ece BD46     		mov	sp, r7
 2772              	.LCFI81:
 2773              		.cfi_def_cfa_register 13
 2774              		@ sp needed
 2775 0ed0 90BD     		pop	{r4, r7, pc}
 2776              	.L141:
 2777 0ed2 00BF     		.align	2
 2778              	.L140:
 2779 0ed4 5C030000 		.word	.LC30
 2780 0ed8 68030000 		.word	.LC31
 2781              		.cfi_endproc
 2782              	.LFE19:
 2783              		.size	dlmodule_load_shared_object, .-dlmodule_load_shared_object
 2784              		.section	.rodata
 2785              		.align	2
 2786              	.LC32:
 2787 0374 64796E61 		.ascii	"dynamic module\000"
 2787      6D696320 
 2787      6D6F6475 
 2787      6C6500
 2788              		.text
 2789              		.align	1
 2790              		.syntax unified
 2791              		.thumb
ARM GAS  G:\Users\Jaxb\AppData\Local\Temp\cc11Idxk.s 			page 64


 2792              		.thumb_func
 2793              		.fpu softvfp
 2794              		.type	__init_d_module, %function
 2795              	__init_d_module:
 2796              	.LFB20:
 484:../../source/src/kernel/OS_CORE/module.c **** 
 485:../../source/src/kernel/OS_CORE/module.c **** static void __init_d_module(struct dynamic_module *dynamic_module_ptr)
 486:../../source/src/kernel/OS_CORE/module.c **** {
 2797              		.loc 3 486 0
 2798              		.cfi_startproc
 2799              		@ args = 0, pretend = 0, frame = 8
 2800              		@ frame_needed = 1, uses_anonymous_args = 0
 2801 0edc 80B5     		push	{r7, lr}
 2802              	.LCFI82:
 2803              		.cfi_def_cfa_offset 8
 2804              		.cfi_offset 7, -8
 2805              		.cfi_offset 14, -4
 2806 0ede 82B0     		sub	sp, sp, #8
 2807              	.LCFI83:
 2808              		.cfi_def_cfa_offset 16
 2809 0ee0 00AF     		add	r7, sp, #0
 2810              	.LCFI84:
 2811              		.cfi_def_cfa_register 7
 2812 0ee2 7860     		str	r0, [r7, #4]
 487:../../source/src/kernel/OS_CORE/module.c ****     ka_strcpy(dynamic_module_ptr->name,D_MODULE_DEFAULT_NAME);
 2813              		.loc 3 487 0
 2814 0ee4 7B68     		ldr	r3, [r7, #4]
 2815 0ee6 1849     		ldr	r1, .L143
 2816 0ee8 1846     		mov	r0, r3
 2817 0eea FFF7FEFF 		bl	ka_strcpy
 488:../../source/src/kernel/OS_CORE/module.c ****     INIT_LIST_HEAD(&(dynamic_module_ptr->module_list));
 2818              		.loc 3 488 0
 2819 0eee 7B68     		ldr	r3, [r7, #4]
 2820 0ef0 2033     		adds	r3, r3, #32
 2821 0ef2 1846     		mov	r0, r3
 2822 0ef4 FFF784F8 		bl	INIT_LIST_HEAD
 489:../../source/src/kernel/OS_CORE/module.c ****     dynamic_module_ptr->module_state = MODULE_STATE_INIT;
 2823              		.loc 3 489 0
 2824 0ef8 7B68     		ldr	r3, [r7, #4]
 2825 0efa 0022     		movs	r2, #0
 2826 0efc 9A62     		str	r2, [r3, #40]
 490:../../source/src/kernel/OS_CORE/module.c ****     dynamic_module_ptr->init                    = NULL;
 2827              		.loc 3 490 0
 2828 0efe 7B68     		ldr	r3, [r7, #4]
 2829 0f00 0022     		movs	r2, #0
 2830 0f02 DA62     		str	r2, [r3, #44]
 491:../../source/src/kernel/OS_CORE/module.c ****     dynamic_module_ptr->exit                    = NULL;
 2831              		.loc 3 491 0
 2832 0f04 7B68     		ldr	r3, [r7, #4]
 2833 0f06 0022     		movs	r2, #0
 2834 0f08 1A63     		str	r2, [r3, #48]
 492:../../source/src/kernel/OS_CORE/module.c ****     dynamic_module_ptr->module_space            = NULL;
 2835              		.loc 3 492 0
 2836 0f0a 7B68     		ldr	r3, [r7, #4]
 2837 0f0c 0022     		movs	r2, #0
 2838 0f0e 5A63     		str	r2, [r3, #52]
 493:../../source/src/kernel/OS_CORE/module.c ****     dynamic_module_ptr->module_size             = 0;
ARM GAS  G:\Users\Jaxb\AppData\Local\Temp\cc11Idxk.s 			page 65


 2839              		.loc 3 493 0
 2840 0f10 7B68     		ldr	r3, [r7, #4]
 2841 0f12 0022     		movs	r2, #0
 2842 0f14 9A63     		str	r2, [r3, #56]
 494:../../source/src/kernel/OS_CORE/module.c ****     dynamic_module_ptr->init_space              = NULL;
 2843              		.loc 3 494 0
 2844 0f16 7B68     		ldr	r3, [r7, #4]
 2845 0f18 0022     		movs	r2, #0
 2846 0f1a DA63     		str	r2, [r3, #60]
 495:../../source/src/kernel/OS_CORE/module.c ****     dynamic_module_ptr->entry                   = NULL;
 2847              		.loc 3 495 0
 2848 0f1c 7B68     		ldr	r3, [r7, #4]
 2849 0f1e 0022     		movs	r2, #0
 2850 0f20 1A64     		str	r2, [r3, #64]
 496:../../source/src/kernel/OS_CORE/module.c ****     dynamic_module_ptr->vstart_addr             = NULL;
 2851              		.loc 3 496 0
 2852 0f22 7B68     		ldr	r3, [r7, #4]
 2853 0f24 0022     		movs	r2, #0
 2854 0f26 5A64     		str	r2, [r3, #68]
 497:../../source/src/kernel/OS_CORE/module.c ****     dynamic_module_ptr->export_symbols_array    = NULL;
 2855              		.loc 3 497 0
 2856 0f28 7B68     		ldr	r3, [r7, #4]
 2857 0f2a 0022     		movs	r2, #0
 2858 0f2c 9A64     		str	r2, [r3, #72]
 498:../../source/src/kernel/OS_CORE/module.c ****     dynamic_module_ptr->export_symbols_num      = 0;
 2859              		.loc 3 498 0
 2860 0f2e 7B68     		ldr	r3, [r7, #4]
 2861 0f30 0022     		movs	r2, #0
 2862 0f32 DA64     		str	r2, [r3, #76]
 499:../../source/src/kernel/OS_CORE/module.c ****     dynamic_module_ptr->ref                     = 0;
 2863              		.loc 3 499 0
 2864 0f34 7B68     		ldr	r3, [r7, #4]
 2865 0f36 0022     		movs	r2, #0
 2866 0f38 1A65     		str	r2, [r3, #80]
 500:../../source/src/kernel/OS_CORE/module.c ****     dynamic_module_ptr->thread_TCB_ptr          = NULL;
 2867              		.loc 3 500 0
 2868 0f3a 7B68     		ldr	r3, [r7, #4]
 2869 0f3c 0022     		movs	r2, #0
 2870 0f3e 5A65     		str	r2, [r3, #84]
 501:../../source/src/kernel/OS_CORE/module.c **** }
 2871              		.loc 3 501 0
 2872 0f40 00BF     		nop
 2873 0f42 0837     		adds	r7, r7, #8
 2874              	.LCFI85:
 2875              		.cfi_def_cfa_offset 8
 2876 0f44 BD46     		mov	sp, r7
 2877              	.LCFI86:
 2878              		.cfi_def_cfa_register 13
 2879              		@ sp needed
 2880 0f46 80BD     		pop	{r7, pc}
 2881              	.L144:
 2882              		.align	2
 2883              	.L143:
 2884 0f48 74030000 		.word	.LC32
 2885              		.cfi_endproc
 2886              	.LFE20:
 2887              		.size	__init_d_module, .-__init_d_module
ARM GAS  G:\Users\Jaxb\AppData\Local\Temp\cc11Idxk.s 			page 66


 2888              		.section	.rodata
 2889 0383 00       		.align	2
 2890              	.LC33:
 2891 0384 7F52544D 		.ascii	"\177RTM\000"
 2891      00
 2892 0389 000000   		.align	2
 2893              	.LC34:
 2894 038c 7F454C46 		.ascii	"\177ELF\000"
 2894      00
 2895 0391 000000   		.align	2
 2896              	.LC35:
 2897 0394 4D6F6475 		.ascii	"Module: magic error\012\000"
 2897      6C653A20 
 2897      6D616769 
 2897      63206572 
 2897      726F720A 
 2898 03a9 000000   		.align	2
 2899              	.LC36:
 2900 03ac 4D6F6475 		.ascii	"Module: ELF class error\012\000"
 2900      6C653A20 
 2900      454C4620 
 2900      636C6173 
 2900      73206572 
 2901 03c5 000000   		.align	2
 2902              	.LC37:
 2903 03c8 6C6F6164 		.ascii	"load shared file\012\000"
 2903      20736861 
 2903      72656420 
 2903      66696C65 
 2903      0A00
 2904 03da 0000     		.align	2
 2905              	.LC38:
 2906 03dc 4D6F6475 		.ascii	"Module: unsupported elf type\012\000"
 2906      6C653A20 
 2906      756E7375 
 2906      70706F72 
 2906      74656420 
 2907 03fa 0000     		.align	2
 2908              	.LC39:
 2909 03fc 696E6974 		.ascii	"init error\012\000"
 2909      20657272 
 2909      6F720A00 
 2910              		.text
 2911              		.align	1
 2912              		.global	dlmodule_load
 2913              		.syntax unified
 2914              		.thumb
 2915              		.thumb_func
 2916              		.fpu softvfp
 2917              		.type	dlmodule_load, %function
 2918              	dlmodule_load:
 2919              	.LFB21:
 502:../../source/src/kernel/OS_CORE/module.c **** 
 503:../../source/src/kernel/OS_CORE/module.c **** struct dynamic_module* dlmodule_load(void)
 504:../../source/src/kernel/OS_CORE/module.c **** {
 2920              		.loc 3 504 0
 2921              		.cfi_startproc
ARM GAS  G:\Users\Jaxb\AppData\Local\Temp\cc11Idxk.s 			page 67


 2922              		@ args = 0, pretend = 0, frame = 16
 2923              		@ frame_needed = 1, uses_anonymous_args = 0
 2924 0f4c 80B5     		push	{r7, lr}
 2925              	.LCFI87:
 2926              		.cfi_def_cfa_offset 8
 2927              		.cfi_offset 7, -8
 2928              		.cfi_offset 14, -4
 2929 0f4e 84B0     		sub	sp, sp, #16
 2930              	.LCFI88:
 2931              		.cfi_def_cfa_offset 24
 2932 0f50 00AF     		add	r7, sp, #0
 2933              	.LCFI89:
 2934              		.cfi_def_cfa_register 7
 505:../../source/src/kernel/OS_CORE/module.c ****     int error = FUN_EXECUTE_SUCCESSFULLY;
 2935              		.loc 3 505 0
 2936 0f52 0023     		movs	r3, #0
 2937 0f54 BB60     		str	r3, [r7, #8]
 506:../../source/src/kernel/OS_CORE/module.c ****     UINT8 *module_ptr = (UINT8 *)module_buffer;
 2938              		.loc 3 506 0
 2939 0f56 414B     		ldr	r3, .L159
 2940 0f58 1B68     		ldr	r3, [r3]
 2941 0f5a 7B60     		str	r3, [r7, #4]
 507:../../source/src/kernel/OS_CORE/module.c ****     struct dynamic_module *module = NULL;
 2942              		.loc 3 507 0
 2943 0f5c 0023     		movs	r3, #0
 2944 0f5e FB60     		str	r3, [r7, #12]
 508:../../source/src/kernel/OS_CORE/module.c **** 
 509:../../source/src/kernel/OS_CORE/module.c ****     /* check ELF header */
 510:../../source/src/kernel/OS_CORE/module.c ****     if (ka_strncmp((const char *)elf_module->e_ident, (const char *)RTMMAG, SELFMAG) != 0 &&
 2945              		.loc 3 510 0
 2946 0f60 7B68     		ldr	r3, [r7, #4]
 2947 0f62 0422     		movs	r2, #4
 2948 0f64 3E49     		ldr	r1, .L159+4
 2949 0f66 1846     		mov	r0, r3
 2950 0f68 FFF7FEFF 		bl	ka_strncmp
 2951 0f6c 0346     		mov	r3, r0
 2952 0f6e 002B     		cmp	r3, #0
 2953 0f70 0CD0     		beq	.L146
 511:../../source/src/kernel/OS_CORE/module.c ****             ka_strncmp((const char *)elf_module->e_ident, (const char *)ELFMAG, SELFMAG) != 0)
 2954              		.loc 3 511 0 discriminator 1
 2955 0f72 7B68     		ldr	r3, [r7, #4]
 2956 0f74 0422     		movs	r2, #4
 2957 0f76 3B49     		ldr	r1, .L159+8
 2958 0f78 1846     		mov	r0, r3
 2959 0f7a FFF7FEFF 		bl	ka_strncmp
 2960 0f7e 0346     		mov	r3, r0
 510:../../source/src/kernel/OS_CORE/module.c ****             ka_strncmp((const char *)elf_module->e_ident, (const char *)ELFMAG, SELFMAG) != 0)
 2961              		.loc 3 510 0 discriminator 1
 2962 0f80 002B     		cmp	r3, #0
 2963 0f82 03D0     		beq	.L146
 512:../../source/src/kernel/OS_CORE/module.c ****     {
 513:../../source/src/kernel/OS_CORE/module.c ****         ka_printf("Module: magic error\n");
 2964              		.loc 3 513 0
 2965 0f84 3848     		ldr	r0, .L159+12
 2966 0f86 FFF7FEFF 		bl	ka_printf
 514:../../source/src/kernel/OS_CORE/module.c ****         goto __exit;
 2967              		.loc 3 514 0
ARM GAS  G:\Users\Jaxb\AppData\Local\Temp\cc11Idxk.s 			page 68


 2968 0f8a 46E0     		b	.L147
 2969              	.L146:
 515:../../source/src/kernel/OS_CORE/module.c ****     }
 516:../../source/src/kernel/OS_CORE/module.c **** 
 517:../../source/src/kernel/OS_CORE/module.c ****     /* check ELF class */
 518:../../source/src/kernel/OS_CORE/module.c ****     if (elf_module->e_ident[EI_CLASS] != ELFCLASS32)
 2970              		.loc 3 518 0
 2971 0f8c 7B68     		ldr	r3, [r7, #4]
 2972 0f8e 1B79     		ldrb	r3, [r3, #4]	@ zero_extendqisi2
 2973 0f90 012B     		cmp	r3, #1
 2974 0f92 03D0     		beq	.L148
 519:../../source/src/kernel/OS_CORE/module.c ****     {
 520:../../source/src/kernel/OS_CORE/module.c ****         ka_printf("Module: ELF class error\n");
 2975              		.loc 3 520 0
 2976 0f94 3548     		ldr	r0, .L159+16
 2977 0f96 FFF7FEFF 		bl	ka_printf
 521:../../source/src/kernel/OS_CORE/module.c ****         goto __exit;
 2978              		.loc 3 521 0
 2979 0f9a 3EE0     		b	.L147
 2980              	.L148:
 522:../../source/src/kernel/OS_CORE/module.c ****     }
 523:../../source/src/kernel/OS_CORE/module.c **** 
 524:../../source/src/kernel/OS_CORE/module.c ****     module = (struct dynamic_module *)ka_malloc(sizeof(struct dynamic_module));
 2981              		.loc 3 524 0
 2982 0f9c 5820     		movs	r0, #88
 2983 0f9e FFF7FEFF 		bl	ka_malloc
 2984 0fa2 F860     		str	r0, [r7, #12]
 525:../../source/src/kernel/OS_CORE/module.c ****     if (!module) goto __exit;
 2985              		.loc 3 525 0
 2986 0fa4 FB68     		ldr	r3, [r7, #12]
 2987 0fa6 002B     		cmp	r3, #0
 2988 0fa8 36D0     		beq	.L158
 526:../../source/src/kernel/OS_CORE/module.c ****     __init_d_module(module);
 2989              		.loc 3 526 0
 2990 0faa F868     		ldr	r0, [r7, #12]
 2991 0fac FFF796FF 		bl	__init_d_module
 527:../../source/src/kernel/OS_CORE/module.c ****     
 528:../../source/src/kernel/OS_CORE/module.c ****     /* set initial priority and stack size */
 529:../../source/src/kernel/OS_CORE/module.c ****     //module->priority = PRIO_MAX - 10;
 530:../../source/src/kernel/OS_CORE/module.c ****     //module->stack_size = 2048;
 531:../../source/src/kernel/OS_CORE/module.c **** 
 532:../../source/src/kernel/OS_CORE/module.c ****     if (elf_module->e_type == ET_DYN)
 2992              		.loc 3 532 0
 2993 0fb0 7B68     		ldr	r3, [r7, #4]
 2994 0fb2 1B8A     		ldrh	r3, [r3, #16]
 2995 0fb4 032B     		cmp	r3, #3
 2996 0fb6 0BD1     		bne	.L150
 533:../../source/src/kernel/OS_CORE/module.c ****     {
 534:../../source/src/kernel/OS_CORE/module.c ****         ka_printf("load shared file\n");
 2997              		.loc 3 534 0
 2998 0fb8 2D48     		ldr	r0, .L159+20
 2999 0fba FFF7FEFF 		bl	ka_printf
 535:../../source/src/kernel/OS_CORE/module.c ****         error = dlmodule_load_shared_object(module, module_ptr);
 3000              		.loc 3 535 0
 3001 0fbe 7968     		ldr	r1, [r7, #4]
 3002 0fc0 F868     		ldr	r0, [r7, #12]
 3003 0fc2 FFF7FEFF 		bl	dlmodule_load_shared_object
ARM GAS  G:\Users\Jaxb\AppData\Local\Temp\cc11Idxk.s 			page 69


 3004 0fc6 B860     		str	r0, [r7, #8]
 536:../../source/src/kernel/OS_CORE/module.c ****     }
 537:../../source/src/kernel/OS_CORE/module.c ****     else
 538:../../source/src/kernel/OS_CORE/module.c ****     {
 539:../../source/src/kernel/OS_CORE/module.c ****         ka_printf("Module: unsupported elf type\n");
 540:../../source/src/kernel/OS_CORE/module.c ****         goto __exit;
 541:../../source/src/kernel/OS_CORE/module.c ****     }
 542:../../source/src/kernel/OS_CORE/module.c **** 
 543:../../source/src/kernel/OS_CORE/module.c ****     /* check return value */
 544:../../source/src/kernel/OS_CORE/module.c ****     if (FUN_EXECUTE_SUCCESSFULLY != error) goto __exit;
 3005              		.loc 3 544 0
 3006 0fc8 BB68     		ldr	r3, [r7, #8]
 3007 0fca 002B     		cmp	r3, #0
 3008 0fcc 04D0     		beq	.L152
 3009 0fce 24E0     		b	.L147
 3010              	.L150:
 539:../../source/src/kernel/OS_CORE/module.c ****         goto __exit;
 3011              		.loc 3 539 0
 3012 0fd0 2848     		ldr	r0, .L159+24
 3013 0fd2 FFF7FEFF 		bl	ka_printf
 540:../../source/src/kernel/OS_CORE/module.c ****     }
 3014              		.loc 3 540 0
 3015 0fd6 20E0     		b	.L147
 3016              	.L152:
 545:../../source/src/kernel/OS_CORE/module.c **** 
 546:../../source/src/kernel/OS_CORE/module.c ****     /* increase module reference count */
 547:../../source/src/kernel/OS_CORE/module.c ****     module->ref ++;
 3017              		.loc 3 547 0
 3018 0fd8 FB68     		ldr	r3, [r7, #12]
 3019 0fda 1B6D     		ldr	r3, [r3, #80]
 3020 0fdc 5A1C     		adds	r2, r3, #1
 3021 0fde FB68     		ldr	r3, [r7, #12]
 3022 0fe0 1A65     		str	r2, [r3, #80]
 548:../../source/src/kernel/OS_CORE/module.c ****     list_add(&module->module_list,&module_list_head);
 3023              		.loc 3 548 0
 3024 0fe2 FB68     		ldr	r3, [r7, #12]
 3025 0fe4 2033     		adds	r3, r3, #32
 3026 0fe6 2449     		ldr	r1, .L159+28
 3027 0fe8 1846     		mov	r0, r3
 3028 0fea FFF72FF8 		bl	list_add
 549:../../source/src/kernel/OS_CORE/module.c **** 
 550:../../source/src/kernel/OS_CORE/module.c ****     /* set module initialization and cleanup function */
 551:../../source/src/kernel/OS_CORE/module.c ****     //module->init = dlsym(module, "init");
 552:../../source/src/kernel/OS_CORE/module.c ****     //module->exit = dlsym(module, "exit");
 553:../../source/src/kernel/OS_CORE/module.c **** 
 554:../../source/src/kernel/OS_CORE/module.c ****     set_module_state(module,MODULE_STATE_LOADED);
 3029              		.loc 3 554 0
 3030 0fee 0121     		movs	r1, #1
 3031 0ff0 F868     		ldr	r0, [r7, #12]
 3032 0ff2 FFF76CF8 		bl	set_module_state
 555:../../source/src/kernel/OS_CORE/module.c ****     /* do module initialization */
 556:../../source/src/kernel/OS_CORE/module.c ****     if (module->init)
 3033              		.loc 3 556 0
 3034 0ff6 FB68     		ldr	r3, [r7, #12]
 3035 0ff8 DB6A     		ldr	r3, [r3, #44]
 3036 0ffa 002B     		cmp	r3, #0
 3037 0ffc 0AD0     		beq	.L153
ARM GAS  G:\Users\Jaxb\AppData\Local\Temp\cc11Idxk.s 			page 70


 557:../../source/src/kernel/OS_CORE/module.c ****     {
 558:../../source/src/kernel/OS_CORE/module.c ****         error = module->init();
 3038              		.loc 3 558 0
 3039 0ffe FB68     		ldr	r3, [r7, #12]
 3040 1000 DB6A     		ldr	r3, [r3, #44]
 3041 1002 9847     		blx	r3
 3042              	.LVL1:
 3043 1004 B860     		str	r0, [r7, #8]
 559:../../source/src/kernel/OS_CORE/module.c ****         if(FUN_EXECUTE_SUCCESSFULLY != error)
 3044              		.loc 3 559 0
 3045 1006 BB68     		ldr	r3, [r7, #8]
 3046 1008 002B     		cmp	r3, #0
 3047 100a 03D0     		beq	.L153
 560:../../source/src/kernel/OS_CORE/module.c ****         {
 561:../../source/src/kernel/OS_CORE/module.c ****             ka_printf("init error\n");
 3048              		.loc 3 561 0
 3049 100c 1B48     		ldr	r0, .L159+32
 3050 100e FFF7FEFF 		bl	ka_printf
 562:../../source/src/kernel/OS_CORE/module.c ****             goto __exit;
 3051              		.loc 3 562 0
 3052 1012 02E0     		b	.L147
 3053              	.L153:
 563:../../source/src/kernel/OS_CORE/module.c ****         }
 564:../../source/src/kernel/OS_CORE/module.c ****     }
 565:../../source/src/kernel/OS_CORE/module.c **** 
 566:../../source/src/kernel/OS_CORE/module.c ****     return module;
 3054              		.loc 3 566 0
 3055 1014 FB68     		ldr	r3, [r7, #12]
 3056 1016 1CE0     		b	.L154
 3057              	.L158:
 525:../../source/src/kernel/OS_CORE/module.c ****     __init_d_module(module);
 3058              		.loc 3 525 0
 3059 1018 00BF     		nop
 3060              	.L147:
 567:../../source/src/kernel/OS_CORE/module.c **** 
 568:../../source/src/kernel/OS_CORE/module.c **** __exit:
 569:../../source/src/kernel/OS_CORE/module.c ****     if (module_ptr) ka_free(module_ptr);
 3061              		.loc 3 569 0
 3062 101a 7B68     		ldr	r3, [r7, #4]
 3063 101c 002B     		cmp	r3, #0
 3064 101e 02D0     		beq	.L155
 3065              		.loc 3 569 0 is_stmt 0 discriminator 1
 3066 1020 7868     		ldr	r0, [r7, #4]
 3067 1022 FFF7FEFF 		bl	ka_free
 3068              	.L155:
 570:../../source/src/kernel/OS_CORE/module.c **** 		
 571:../../source/src/kernel/OS_CORE/module.c **** 	if(module) 
 3069              		.loc 3 571 0 is_stmt 1
 3070 1026 FB68     		ldr	r3, [r7, #12]
 3071 1028 002B     		cmp	r3, #0
 3072 102a 0FD0     		beq	.L156
 572:../../source/src/kernel/OS_CORE/module.c ****     {
 573:../../source/src/kernel/OS_CORE/module.c ****         if(!list_empty(&module->module_list))
 3073              		.loc 3 573 0
 3074 102c FB68     		ldr	r3, [r7, #12]
 3075 102e 2033     		adds	r3, r3, #32
 3076 1030 1846     		mov	r0, r3
ARM GAS  G:\Users\Jaxb\AppData\Local\Temp\cc11Idxk.s 			page 71


 3077 1032 FFF73BF8 		bl	list_empty
 3078 1036 0346     		mov	r3, r0
 3079 1038 002B     		cmp	r3, #0
 3080 103a 04D1     		bne	.L157
 574:../../source/src/kernel/OS_CORE/module.c ****         {
 575:../../source/src/kernel/OS_CORE/module.c ****             list_del(&module->module_list);
 3081              		.loc 3 575 0
 3082 103c FB68     		ldr	r3, [r7, #12]
 3083 103e 2033     		adds	r3, r3, #32
 3084 1040 1846     		mov	r0, r3
 3085 1042 FFF723F8 		bl	list_del
 3086              	.L157:
 576:../../source/src/kernel/OS_CORE/module.c ****         }
 577:../../source/src/kernel/OS_CORE/module.c ****         ka_free(module);
 3087              		.loc 3 577 0
 3088 1046 F868     		ldr	r0, [r7, #12]
 3089 1048 FFF7FEFF 		bl	ka_free
 3090              	.L156:
 578:../../source/src/kernel/OS_CORE/module.c ****     }
 579:../../source/src/kernel/OS_CORE/module.c **** 
 580:../../source/src/kernel/OS_CORE/module.c ****     clear_module_buffer();
 3091              		.loc 3 580 0
 3092 104c FFF7FEFF 		bl	clear_module_buffer
 581:../../source/src/kernel/OS_CORE/module.c **** 		
 582:../../source/src/kernel/OS_CORE/module.c ****     return NULL;
 3093              		.loc 3 582 0
 3094 1050 0023     		movs	r3, #0
 3095              	.L154:
 583:../../source/src/kernel/OS_CORE/module.c **** }
 3096              		.loc 3 583 0
 3097 1052 1846     		mov	r0, r3
 3098 1054 1037     		adds	r7, r7, #16
 3099              	.LCFI90:
 3100              		.cfi_def_cfa_offset 8
 3101 1056 BD46     		mov	sp, r7
 3102              	.LCFI91:
 3103              		.cfi_def_cfa_register 13
 3104              		@ sp needed
 3105 1058 80BD     		pop	{r7, pc}
 3106              	.L160:
 3107 105a 00BF     		.align	2
 3108              	.L159:
 3109 105c 00000000 		.word	module_buffer
 3110 1060 84030000 		.word	.LC33
 3111 1064 8C030000 		.word	.LC34
 3112 1068 94030000 		.word	.LC35
 3113 106c AC030000 		.word	.LC36
 3114 1070 C8030000 		.word	.LC37
 3115 1074 DC030000 		.word	.LC38
 3116 1078 08000000 		.word	module_list_head
 3117 107c FC030000 		.word	.LC39
 3118              		.cfi_endproc
 3119              	.LFE21:
 3120              		.size	dlmodule_load, .-dlmodule_load
 3121              		.section	.rodata
 3122              		.align	2
 3123              	.LC40:
ARM GAS  G:\Users\Jaxb\AppData\Local\Temp\cc11Idxk.s 			page 72


 3124 0408 6D6F6475 		.ascii	"module_thread run\012\000"
 3124      6C655F74 
 3124      68726561 
 3124      64207275 
 3124      6E0A00
 3125 041b 00       		.align	2
 3126              	.LC41:
 3127 041c 6D6F6475 		.ascii	"module_thread fail,error code is %d\012\000"
 3127      6C655F74 
 3127      68726561 
 3127      64206661 
 3127      696C2C65 
 3128 0441 000000   		.align	2
 3129              	.LC42:
 3130 0444 6D6F6475 		.ascii	"module init error\012\000"
 3130      6C652069 
 3130      6E697420 
 3130      6572726F 
 3130      720A00
 3131              		.text
 3132              		.align	1
 3133              		.global	dlmodule_exec
 3134              		.syntax unified
 3135              		.thumb
 3136              		.thumb_func
 3137              		.fpu softvfp
 3138              		.type	dlmodule_exec, %function
 3139              	dlmodule_exec:
 3140              	.LFB22:
 584:../../source/src/kernel/OS_CORE/module.c **** 
 585:../../source/src/kernel/OS_CORE/module.c **** 
 586:../../source/src/kernel/OS_CORE/module.c **** int dlmodule_exec(
 587:../../source/src/kernel/OS_CORE/module.c ****     unsigned int stack_size,
 588:../../source/src/kernel/OS_CORE/module.c ****     TASK_PRIO_TYPE prio,
 589:../../source/src/kernel/OS_CORE/module.c ****     const char *name)
 590:../../source/src/kernel/OS_CORE/module.c **** {
 3141              		.loc 3 590 0
 3142              		.cfi_startproc
 3143              		@ args = 0, pretend = 0, frame = 32
 3144              		@ frame_needed = 1, uses_anonymous_args = 0
 3145 1080 80B5     		push	{r7, lr}
 3146              	.LCFI92:
 3147              		.cfi_def_cfa_offset 8
 3148              		.cfi_offset 7, -8
 3149              		.cfi_offset 14, -4
 3150 1082 8CB0     		sub	sp, sp, #48
 3151              	.LCFI93:
 3152              		.cfi_def_cfa_offset 56
 3153 1084 04AF     		add	r7, sp, #16
 3154              	.LCFI94:
 3155              		.cfi_def_cfa 7, 40
 3156 1086 F860     		str	r0, [r7, #12]
 3157 1088 B960     		str	r1, [r7, #8]
 3158 108a 7A60     		str	r2, [r7, #4]
 591:../../source/src/kernel/OS_CORE/module.c ****     struct dynamic_module *module = NULL;
 3159              		.loc 3 591 0
 3160 108c 0023     		movs	r3, #0
ARM GAS  G:\Users\Jaxb\AppData\Local\Temp\cc11Idxk.s 			page 73


 3161 108e FB61     		str	r3, [r7, #28]
 592:../../source/src/kernel/OS_CORE/module.c ****     int error;
 593:../../source/src/kernel/OS_CORE/module.c ****     TCB *TCB_ptr;
 594:../../source/src/kernel/OS_CORE/module.c **** 
 595:../../source/src/kernel/OS_CORE/module.c ****     module = dlmodule_load();
 3162              		.loc 3 595 0
 3163 1090 FFF7FEFF 		bl	dlmodule_load
 3164 1094 F861     		str	r0, [r7, #28]
 596:../../source/src/kernel/OS_CORE/module.c ****     if ((module) && (module->entry))
 3165              		.loc 3 596 0
 3166 1096 FB69     		ldr	r3, [r7, #28]
 3167 1098 002B     		cmp	r3, #0
 3168 109a 52D0     		beq	.L162
 3169              		.loc 3 596 0 is_stmt 0 discriminator 1
 3170 109c FB69     		ldr	r3, [r7, #28]
 3171 109e 1B6C     		ldr	r3, [r3, #64]
 3172 10a0 002B     		cmp	r3, #0
 3173 10a2 4ED0     		beq	.L162
 597:../../source/src/kernel/OS_CORE/module.c ****     {
 598:../../source/src/kernel/OS_CORE/module.c ****         set_module_state(module,MODULE_STATE_LOADED);
 3174              		.loc 3 598 0 is_stmt 1
 3175 10a4 0121     		movs	r1, #1
 3176 10a6 F869     		ldr	r0, [r7, #28]
 3177 10a8 FFF711F8 		bl	set_module_state
 599:../../source/src/kernel/OS_CORE/module.c ****         if(name)
 3178              		.loc 3 599 0
 3179 10ac 7B68     		ldr	r3, [r7, #4]
 3180 10ae 002B     		cmp	r3, #0
 3181 10b0 04D0     		beq	.L163
 600:../../source/src/kernel/OS_CORE/module.c ****         {
 601:../../source/src/kernel/OS_CORE/module.c ****             ka_strcpy(module->name,name);
 3182              		.loc 3 601 0
 3183 10b2 FB69     		ldr	r3, [r7, #28]
 3184 10b4 7968     		ldr	r1, [r7, #4]
 3185 10b6 1846     		mov	r0, r3
 3186 10b8 FFF7FEFF 		bl	ka_strcpy
 3187              	.L163:
 602:../../source/src/kernel/OS_CORE/module.c ****         }
 603:../../source/src/kernel/OS_CORE/module.c ****         if(prio >= PRIO_MAX)
 3188              		.loc 3 603 0
 3189 10bc BB68     		ldr	r3, [r7, #8]
 3190 10be 3F2B     		cmp	r3, #63
 3191 10c0 01D9     		bls	.L164
 604:../../source/src/kernel/OS_CORE/module.c ****         {
 605:../../source/src/kernel/OS_CORE/module.c ****             prio = D_MODULE_DEFAULT_PRIO;
 3192              		.loc 3 605 0
 3193 10c2 3E23     		movs	r3, #62
 3194 10c4 BB60     		str	r3, [r7, #8]
 3195              	.L164:
 606:../../source/src/kernel/OS_CORE/module.c ****         }
 607:../../source/src/kernel/OS_CORE/module.c ****         error = task_creat_ready(stack_size, prio, HZ / 10, module->name,
 3196              		.loc 3 607 0
 3197 10c6 FA69     		ldr	r2, [r7, #28]
 608:../../source/src/kernel/OS_CORE/module.c ****                                  (functionptr)(module->entry), NULL, &TCB_ptr);
 3198              		.loc 3 608 0
 3199 10c8 FB69     		ldr	r3, [r7, #28]
 3200 10ca 1B6C     		ldr	r3, [r3, #64]
ARM GAS  G:\Users\Jaxb\AppData\Local\Temp\cc11Idxk.s 			page 74


 607:../../source/src/kernel/OS_CORE/module.c ****                                  (functionptr)(module->entry), NULL, &TCB_ptr);
 3201              		.loc 3 607 0
 3202 10cc 1946     		mov	r1, r3
 3203 10ce 07F11403 		add	r3, r7, #20
 3204 10d2 0293     		str	r3, [sp, #8]
 3205 10d4 0023     		movs	r3, #0
 3206 10d6 0193     		str	r3, [sp, #4]
 3207 10d8 0091     		str	r1, [sp]
 3208 10da 1346     		mov	r3, r2
 3209 10dc 0A22     		movs	r2, #10
 3210 10de B968     		ldr	r1, [r7, #8]
 3211 10e0 F868     		ldr	r0, [r7, #12]
 3212 10e2 FFF7FEFF 		bl	task_creat_ready
 3213 10e6 B861     		str	r0, [r7, #24]
 609:../../source/src/kernel/OS_CORE/module.c ****         if (!error)
 3214              		.loc 3 609 0
 3215 10e8 BB69     		ldr	r3, [r7, #24]
 3216 10ea 002B     		cmp	r3, #0
 3217 10ec 14D1     		bne	.L165
 610:../../source/src/kernel/OS_CORE/module.c ****         {
 611:../../source/src/kernel/OS_CORE/module.c ****             module->thread_TCB_ptr = TCB_ptr;
 3218              		.loc 3 611 0
 3219 10ee 7A69     		ldr	r2, [r7, #20]
 3220 10f0 FB69     		ldr	r3, [r7, #28]
 3221 10f2 5A65     		str	r2, [r3, #84]
 612:../../source/src/kernel/OS_CORE/module.c ****             set_module_flag(TCB_ptr);
 3222              		.loc 3 612 0
 3223 10f4 7B69     		ldr	r3, [r7, #20]
 3224 10f6 9A6B     		ldr	r2, [r3, #56]
 3225 10f8 7B69     		ldr	r3, [r7, #20]
 3226 10fa 42F00802 		orr	r2, r2, #8
 3227 10fe 9A63     		str	r2, [r3, #56]
 613:../../source/src/kernel/OS_CORE/module.c ****             set_module_state(module,MODULE_STATE_RUN);
 3228              		.loc 3 613 0
 3229 1100 0221     		movs	r1, #2
 3230 1102 F869     		ldr	r0, [r7, #28]
 3231 1104 FEF7E3FF 		bl	set_module_state
 614:../../source/src/kernel/OS_CORE/module.c ****             ka_printf("module_thread run\n");
 3232              		.loc 3 614 0
 3233 1108 1248     		ldr	r0, .L173
 3234 110a FFF7FEFF 		bl	ka_printf
 615:../../source/src/kernel/OS_CORE/module.c ****         }
 616:../../source/src/kernel/OS_CORE/module.c ****         else
 617:../../source/src/kernel/OS_CORE/module.c ****         {
 618:../../source/src/kernel/OS_CORE/module.c ****             ka_printf("module_thread fail,error code is %d\n",error);
 619:../../source/src/kernel/OS_CORE/module.c ****             return error;
 620:../../source/src/kernel/OS_CORE/module.c ****         }
 621:../../source/src/kernel/OS_CORE/module.c ****         if(module->init)
 3235              		.loc 3 621 0
 3236 110e FB69     		ldr	r3, [r7, #28]
 3237 1110 DB6A     		ldr	r3, [r3, #44]
 3238 1112 002B     		cmp	r3, #0
 3239 1114 18D0     		beq	.L172
 3240 1116 05E0     		b	.L171
 3241              	.L165:
 618:../../source/src/kernel/OS_CORE/module.c ****             return error;
 3242              		.loc 3 618 0
ARM GAS  G:\Users\Jaxb\AppData\Local\Temp\cc11Idxk.s 			page 75


 3243 1118 B969     		ldr	r1, [r7, #24]
 3244 111a 0F48     		ldr	r0, .L173+4
 3245 111c FFF7FEFF 		bl	ka_printf
 619:../../source/src/kernel/OS_CORE/module.c ****         }
 3246              		.loc 3 619 0
 3247 1120 BB69     		ldr	r3, [r7, #24]
 3248 1122 13E0     		b	.L170
 3249              	.L171:
 622:../../source/src/kernel/OS_CORE/module.c ****         {
 623:../../source/src/kernel/OS_CORE/module.c ****             error = module->init();
 3250              		.loc 3 623 0
 3251 1124 FB69     		ldr	r3, [r7, #28]
 3252 1126 DB6A     		ldr	r3, [r3, #44]
 3253 1128 9847     		blx	r3
 3254              	.LVL2:
 3255 112a B861     		str	r0, [r7, #24]
 624:../../source/src/kernel/OS_CORE/module.c ****             if(error < 0)
 3256              		.loc 3 624 0
 3257 112c BB69     		ldr	r3, [r7, #24]
 3258 112e 002B     		cmp	r3, #0
 3259 1130 0ADA     		bge	.L172
 625:../../source/src/kernel/OS_CORE/module.c ****             {
 626:../../source/src/kernel/OS_CORE/module.c ****                 ka_printf("module init error\n");
 3260              		.loc 3 626 0
 3261 1132 0A48     		ldr	r0, .L173+8
 3262 1134 FFF7FEFF 		bl	ka_printf
 627:../../source/src/kernel/OS_CORE/module.c ****                 task_delete(TCB_ptr);
 3263              		.loc 3 627 0
 3264 1138 7B69     		ldr	r3, [r7, #20]
 3265 113a 1846     		mov	r0, r3
 3266 113c FFF7FEFF 		bl	task_delete
 621:../../source/src/kernel/OS_CORE/module.c ****         {
 3267              		.loc 3 621 0
 3268 1140 02E0     		b	.L172
 3269              	.L162:
 628:../../source/src/kernel/OS_CORE/module.c ****                 //remove_a_module(module);
 629:../../source/src/kernel/OS_CORE/module.c ****             }
 630:../../source/src/kernel/OS_CORE/module.c ****         }
 631:../../source/src/kernel/OS_CORE/module.c ****     }
 632:../../source/src/kernel/OS_CORE/module.c ****     else
 633:../../source/src/kernel/OS_CORE/module.c ****     {
 634:../../source/src/kernel/OS_CORE/module.c ****         return -ERROR_LOGIC;
 3270              		.loc 3 634 0
 3271 1142 6FF0F803 		mvn	r3, #248
 3272 1146 01E0     		b	.L170
 3273              	.L172:
 621:../../source/src/kernel/OS_CORE/module.c ****         {
 3274              		.loc 3 621 0
 3275 1148 00BF     		nop
 635:../../source/src/kernel/OS_CORE/module.c ****     }
 636:../../source/src/kernel/OS_CORE/module.c **** 
 637:../../source/src/kernel/OS_CORE/module.c ****     return FUN_EXECUTE_SUCCESSFULLY;
 3276              		.loc 3 637 0
 3277 114a 0023     		movs	r3, #0
 3278              	.L170:
 638:../../source/src/kernel/OS_CORE/module.c **** }
 3279              		.loc 3 638 0 discriminator 1
ARM GAS  G:\Users\Jaxb\AppData\Local\Temp\cc11Idxk.s 			page 76


 3280 114c 1846     		mov	r0, r3
 3281 114e 2037     		adds	r7, r7, #32
 3282              	.LCFI95:
 3283              		.cfi_def_cfa_offset 8
 3284 1150 BD46     		mov	sp, r7
 3285              	.LCFI96:
 3286              		.cfi_def_cfa_register 13
 3287              		@ sp needed
 3288 1152 80BD     		pop	{r7, pc}
 3289              	.L174:
 3290              		.align	2
 3291              	.L173:
 3292 1154 08040000 		.word	.LC40
 3293 1158 1C040000 		.word	.LC41
 3294 115c 44040000 		.word	.LC42
 3295              		.cfi_endproc
 3296              	.LFE22:
 3297              		.size	dlmodule_exec, .-dlmodule_exec
 3298              		.section	.rodata
 3299 0457 00       		.align	2
 3300              	.LC43:
 3301 0458 6E6F2072 		.ascii	"no room for module\012\000"
 3301      6F6F6D20 
 3301      666F7220 
 3301      6D6F6475 
 3301      6C650A00 
 3302              		.text
 3303              		.align	1
 3304              		.global	put_in_module_buffer
 3305              		.syntax unified
 3306              		.thumb
 3307              		.thumb_func
 3308              		.fpu softvfp
 3309              		.type	put_in_module_buffer, %function
 3310              	put_in_module_buffer:
 3311              	.LFB23:
 639:../../source/src/kernel/OS_CORE/module.c **** 
 640:../../source/src/kernel/OS_CORE/module.c **** void put_in_module_buffer(char c)
 641:../../source/src/kernel/OS_CORE/module.c **** {
 3312              		.loc 3 641 0
 3313              		.cfi_startproc
 3314              		@ args = 0, pretend = 0, frame = 8
 3315              		@ frame_needed = 1, uses_anonymous_args = 0
 3316 1160 80B5     		push	{r7, lr}
 3317              	.LCFI97:
 3318              		.cfi_def_cfa_offset 8
 3319              		.cfi_offset 7, -8
 3320              		.cfi_offset 14, -4
 3321 1162 82B0     		sub	sp, sp, #8
 3322              	.LCFI98:
 3323              		.cfi_def_cfa_offset 16
 3324 1164 00AF     		add	r7, sp, #0
 3325              	.LCFI99:
 3326              		.cfi_def_cfa_register 7
 3327 1166 0346     		mov	r3, r0
 3328 1168 FB71     		strb	r3, [r7, #7]
 642:../../source/src/kernel/OS_CORE/module.c **** 	if(module_buffer)
ARM GAS  G:\Users\Jaxb\AppData\Local\Temp\cc11Idxk.s 			page 77


 3329              		.loc 3 642 0
 3330 116a 0B4B     		ldr	r3, .L179
 3331 116c 1B68     		ldr	r3, [r3]
 3332 116e 002B     		cmp	r3, #0
 3333 1170 0AD0     		beq	.L176
 643:../../source/src/kernel/OS_CORE/module.c **** 	{
 644:../../source/src/kernel/OS_CORE/module.c **** 		*(module_buffer + num++) = c;
 3334              		.loc 3 644 0
 3335 1172 094B     		ldr	r3, .L179
 3336 1174 1A68     		ldr	r2, [r3]
 3337 1176 094B     		ldr	r3, .L179+4
 3338 1178 1B68     		ldr	r3, [r3]
 3339 117a 591C     		adds	r1, r3, #1
 3340 117c 0748     		ldr	r0, .L179+4
 3341 117e 0160     		str	r1, [r0]
 3342 1180 1344     		add	r3, r3, r2
 3343 1182 FA79     		ldrb	r2, [r7, #7]
 3344 1184 1A70     		strb	r2, [r3]
 645:../../source/src/kernel/OS_CORE/module.c **** 	}
 646:../../source/src/kernel/OS_CORE/module.c ****     else
 647:../../source/src/kernel/OS_CORE/module.c ****     {
 648:../../source/src/kernel/OS_CORE/module.c ****         ka_printf("no room for module\n");
 649:../../source/src/kernel/OS_CORE/module.c ****     }
 650:../../source/src/kernel/OS_CORE/module.c **** }
 3345              		.loc 3 650 0
 3346 1186 02E0     		b	.L178
 3347              	.L176:
 648:../../source/src/kernel/OS_CORE/module.c ****     }
 3348              		.loc 3 648 0
 3349 1188 0548     		ldr	r0, .L179+8
 3350 118a FFF7FEFF 		bl	ka_printf
 3351              	.L178:
 3352              		.loc 3 650 0
 3353 118e 00BF     		nop
 3354 1190 0837     		adds	r7, r7, #8
 3355              	.LCFI100:
 3356              		.cfi_def_cfa_offset 8
 3357 1192 BD46     		mov	sp, r7
 3358              	.LCFI101:
 3359              		.cfi_def_cfa_register 13
 3360              		@ sp needed
 3361 1194 80BD     		pop	{r7, pc}
 3362              	.L180:
 3363 1196 00BF     		.align	2
 3364              	.L179:
 3365 1198 00000000 		.word	module_buffer
 3366 119c 04000000 		.word	num
 3367 11a0 58040000 		.word	.LC43
 3368              		.cfi_endproc
 3369              	.LFE23:
 3370              		.size	put_in_module_buffer, .-put_in_module_buffer
 3371              		.section	.rodata
 3372              		.align	2
 3373              	.LC44:
 3374 046c 67657420 		.ascii	"get %u bytes\012\000"
 3374      25752062 
 3374      79746573 
ARM GAS  G:\Users\Jaxb\AppData\Local\Temp\cc11Idxk.s 			page 78


 3374      0A00
 3375              		.text
 3376              		.align	1
 3377              		.global	show_get_size
 3378              		.syntax unified
 3379              		.thumb
 3380              		.thumb_func
 3381              		.fpu softvfp
 3382              		.type	show_get_size, %function
 3383              	show_get_size:
 3384              	.LFB24:
 651:../../source/src/kernel/OS_CORE/module.c **** 
 652:../../source/src/kernel/OS_CORE/module.c **** void show_get_size(void)
 653:../../source/src/kernel/OS_CORE/module.c **** {
 3385              		.loc 3 653 0
 3386              		.cfi_startproc
 3387              		@ args = 0, pretend = 0, frame = 0
 3388              		@ frame_needed = 1, uses_anonymous_args = 0
 3389 11a4 80B5     		push	{r7, lr}
 3390              	.LCFI102:
 3391              		.cfi_def_cfa_offset 8
 3392              		.cfi_offset 7, -8
 3393              		.cfi_offset 14, -4
 3394 11a6 00AF     		add	r7, sp, #0
 3395              	.LCFI103:
 3396              		.cfi_def_cfa_register 7
 654:../../source/src/kernel/OS_CORE/module.c ****     ka_printf("get %u bytes\n",num);
 3397              		.loc 3 654 0
 3398 11a8 034B     		ldr	r3, .L182
 3399 11aa 1B68     		ldr	r3, [r3]
 3400 11ac 1946     		mov	r1, r3
 3401 11ae 0348     		ldr	r0, .L182+4
 3402 11b0 FFF7FEFF 		bl	ka_printf
 655:../../source/src/kernel/OS_CORE/module.c **** }
 3403              		.loc 3 655 0
 3404 11b4 00BF     		nop
 3405 11b6 80BD     		pop	{r7, pc}
 3406              	.L183:
 3407              		.align	2
 3408              	.L182:
 3409 11b8 04000000 		.word	num
 3410 11bc 6C040000 		.word	.LC44
 3411              		.cfi_endproc
 3412              	.LFE24:
 3413              		.size	show_get_size, .-show_get_size
 3414              		.align	1
 3415              		.global	clear_module_buffer
 3416              		.syntax unified
 3417              		.thumb
 3418              		.thumb_func
 3419              		.fpu softvfp
 3420              		.type	clear_module_buffer, %function
 3421              	clear_module_buffer:
 3422              	.LFB25:
 656:../../source/src/kernel/OS_CORE/module.c **** 
 657:../../source/src/kernel/OS_CORE/module.c **** void clear_module_buffer(void)
 658:../../source/src/kernel/OS_CORE/module.c **** {
ARM GAS  G:\Users\Jaxb\AppData\Local\Temp\cc11Idxk.s 			page 79


 3423              		.loc 3 658 0
 3424              		.cfi_startproc
 3425              		@ args = 0, pretend = 0, frame = 0
 3426              		@ frame_needed = 1, uses_anonymous_args = 0
 3427              		@ link register save eliminated.
 3428 11c0 80B4     		push	{r7}
 3429              	.LCFI104:
 3430              		.cfi_def_cfa_offset 4
 3431              		.cfi_offset 7, -4
 3432 11c2 00AF     		add	r7, sp, #0
 3433              	.LCFI105:
 3434              		.cfi_def_cfa_register 7
 659:../../source/src/kernel/OS_CORE/module.c **** 	module_buffer = NULL;
 3435              		.loc 3 659 0
 3436 11c4 044B     		ldr	r3, .L185
 3437 11c6 0022     		movs	r2, #0
 3438 11c8 1A60     		str	r2, [r3]
 660:../../source/src/kernel/OS_CORE/module.c **** 	num = 0;
 3439              		.loc 3 660 0
 3440 11ca 044B     		ldr	r3, .L185+4
 3441 11cc 0022     		movs	r2, #0
 3442 11ce 1A60     		str	r2, [r3]
 661:../../source/src/kernel/OS_CORE/module.c **** }
 3443              		.loc 3 661 0
 3444 11d0 00BF     		nop
 3445 11d2 BD46     		mov	sp, r7
 3446              	.LCFI106:
 3447              		.cfi_def_cfa_register 13
 3448              		@ sp needed
 3449 11d4 80BC     		pop	{r7}
 3450              	.LCFI107:
 3451              		.cfi_restore 7
 3452              		.cfi_def_cfa_offset 0
 3453 11d6 7047     		bx	lr
 3454              	.L186:
 3455              		.align	2
 3456              	.L185:
 3457 11d8 00000000 		.word	module_buffer
 3458 11dc 04000000 		.word	num
 3459              		.cfi_endproc
 3460              	.LFE25:
 3461              		.size	clear_module_buffer, .-clear_module_buffer
 3462              		.align	1
 3463              		.global	set_module_buffer
 3464              		.syntax unified
 3465              		.thumb
 3466              		.thumb_func
 3467              		.fpu softvfp
 3468              		.type	set_module_buffer, %function
 3469              	set_module_buffer:
 3470              	.LFB26:
 662:../../source/src/kernel/OS_CORE/module.c **** 
 663:../../source/src/kernel/OS_CORE/module.c **** void set_module_buffer(void *add)
 664:../../source/src/kernel/OS_CORE/module.c **** {
 3471              		.loc 3 664 0
 3472              		.cfi_startproc
 3473              		@ args = 0, pretend = 0, frame = 8
ARM GAS  G:\Users\Jaxb\AppData\Local\Temp\cc11Idxk.s 			page 80


 3474              		@ frame_needed = 1, uses_anonymous_args = 0
 3475              		@ link register save eliminated.
 3476 11e0 80B4     		push	{r7}
 3477              	.LCFI108:
 3478              		.cfi_def_cfa_offset 4
 3479              		.cfi_offset 7, -4
 3480 11e2 83B0     		sub	sp, sp, #12
 3481              	.LCFI109:
 3482              		.cfi_def_cfa_offset 16
 3483 11e4 00AF     		add	r7, sp, #0
 3484              	.LCFI110:
 3485              		.cfi_def_cfa_register 7
 3486 11e6 7860     		str	r0, [r7, #4]
 665:../../source/src/kernel/OS_CORE/module.c **** 	module_buffer = (char *)add;
 3487              		.loc 3 665 0
 3488 11e8 034A     		ldr	r2, .L188
 3489 11ea 7B68     		ldr	r3, [r7, #4]
 3490 11ec 1360     		str	r3, [r2]
 666:../../source/src/kernel/OS_CORE/module.c **** }
 3491              		.loc 3 666 0
 3492 11ee 00BF     		nop
 3493 11f0 0C37     		adds	r7, r7, #12
 3494              	.LCFI111:
 3495              		.cfi_def_cfa_offset 4
 3496 11f2 BD46     		mov	sp, r7
 3497              	.LCFI112:
 3498              		.cfi_def_cfa_register 13
 3499              		@ sp needed
 3500 11f4 80BC     		pop	{r7}
 3501              	.LCFI113:
 3502              		.cfi_restore 7
 3503              		.cfi_def_cfa_offset 0
 3504 11f6 7047     		bx	lr
 3505              	.L189:
 3506              		.align	2
 3507              	.L188:
 3508 11f8 00000000 		.word	module_buffer
 3509              		.cfi_endproc
 3510              	.LFE26:
 3511              		.size	set_module_buffer, .-set_module_buffer
 3512              		.bss
 3513              		.align	2
 3514              	unsolved.4543:
 3515 0010 00000000 		.space	4
 3516              		.size	unsolved.4543, 4
 3517              		.text
 3518              	.Letext0:
 3519              		.file 4 "../../source/include/os_cpu/kakaosstdint.h"
 3520              		.file 5 "../../source/include/os_core/elf.h"
 3521              		.file 6 "../../source/include/os_core/task_state.h"
 3522              		.file 7 "../../source/include/os_core/TCB.h"
 3523              		.file 8 "../../source/include/os_core/export.h"
 3524              		.section	.debug_info,"",%progbits
 3525              	.Ldebug_info0:
 3526 0000 FA0E0000 		.4byte	0xefa
 3527 0004 0200     		.2byte	0x2
 3528 0006 00000000 		.4byte	.Ldebug_abbrev0
ARM GAS  G:\Users\Jaxb\AppData\Local\Temp\cc11Idxk.s 			page 81


 3529 000a 04       		.byte	0x4
 3530 000b 01       		.uleb128 0x1
 3531 000c B6040000 		.4byte	.LASF170
 3532 0010 0C       		.byte	0xc
 3533 0011 0A060000 		.4byte	.LASF171
 3534 0015 81070000 		.4byte	.LASF172
 3535 0019 00000000 		.4byte	.Ltext0
 3536 001d FC110000 		.4byte	.Letext0
 3537 0021 00000000 		.4byte	.Ldebug_line0
 3538 0025 02       		.uleb128 0x2
 3539 0026 01       		.byte	0x1
 3540 0027 06       		.byte	0x6
 3541 0028 31010000 		.4byte	.LASF0
 3542 002c 02       		.uleb128 0x2
 3543 002d 02       		.byte	0x2
 3544 002e 05       		.byte	0x5
 3545 002f C3050000 		.4byte	.LASF1
 3546 0033 03       		.uleb128 0x3
 3547 0034 E2020000 		.4byte	.LASF3
 3548 0038 04       		.byte	0x4
 3549 0039 07       		.byte	0x7
 3550 003a 3E000000 		.4byte	0x3e
 3551 003e 04       		.uleb128 0x4
 3552 003f 04       		.byte	0x4
 3553 0040 05       		.byte	0x5
 3554 0041 696E7400 		.ascii	"int\000"
 3555 0045 05       		.uleb128 0x5
 3556 0046 3E000000 		.4byte	0x3e
 3557 004a 02       		.uleb128 0x2
 3558 004b 08       		.byte	0x8
 3559 004c 05       		.byte	0x5
 3560 004d 23010000 		.4byte	.LASF2
 3561 0051 03       		.uleb128 0x3
 3562 0052 7B070000 		.4byte	.LASF4
 3563 0056 04       		.byte	0x4
 3564 0057 0A       		.byte	0xa
 3565 0058 5C000000 		.4byte	0x5c
 3566 005c 02       		.uleb128 0x2
 3567 005d 01       		.byte	0x1
 3568 005e 08       		.byte	0x8
 3569 005f 9E050000 		.4byte	.LASF5
 3570 0063 03       		.uleb128 0x3
 3571 0064 04020000 		.4byte	.LASF6
 3572 0068 04       		.byte	0x4
 3573 0069 0B       		.byte	0xb
 3574 006a 6E000000 		.4byte	0x6e
 3575 006e 02       		.uleb128 0x2
 3576 006f 02       		.byte	0x2
 3577 0070 07       		.byte	0x7
 3578 0071 08030000 		.4byte	.LASF7
 3579 0075 03       		.uleb128 0x3
 3580 0076 F5030000 		.4byte	.LASF8
 3581 007a 04       		.byte	0x4
 3582 007b 0C       		.byte	0xc
 3583 007c 80000000 		.4byte	0x80
 3584 0080 02       		.uleb128 0x2
 3585 0081 04       		.byte	0x4
ARM GAS  G:\Users\Jaxb\AppData\Local\Temp\cc11Idxk.s 			page 82


 3586 0082 07       		.byte	0x7
 3587 0083 89020000 		.4byte	.LASF9
 3588 0087 03       		.uleb128 0x3
 3589 0088 13080000 		.4byte	.LASF10
 3590 008c 04       		.byte	0x4
 3591 008d 0D       		.byte	0xd
 3592 008e 92000000 		.4byte	0x92
 3593 0092 02       		.uleb128 0x2
 3594 0093 08       		.byte	0x8
 3595 0094 07       		.byte	0x7
 3596 0095 AE000000 		.4byte	.LASF11
 3597 0099 03       		.uleb128 0x3
 3598 009a 40000000 		.4byte	.LASF12
 3599 009e 04       		.byte	0x4
 3600 009f 23       		.byte	0x23
 3601 00a0 80000000 		.4byte	0x80
 3602 00a4 03       		.uleb128 0x3
 3603 00a5 AF060000 		.4byte	.LASF13
 3604 00a9 05       		.byte	0x5
 3605 00aa 08       		.byte	0x8
 3606 00ab 75000000 		.4byte	0x75
 3607 00af 03       		.uleb128 0x3
 3608 00b0 FA000000 		.4byte	.LASF14
 3609 00b4 05       		.byte	0x5
 3610 00b5 09       		.byte	0x9
 3611 00b6 75000000 		.4byte	0x75
 3612 00ba 03       		.uleb128 0x3
 3613 00bb 9D020000 		.4byte	.LASF15
 3614 00bf 05       		.byte	0x5
 3615 00c0 0A       		.byte	0xa
 3616 00c1 33000000 		.4byte	0x33
 3617 00c5 03       		.uleb128 0x3
 3618 00c6 7B010000 		.4byte	.LASF16
 3619 00ca 05       		.byte	0x5
 3620 00cb 0B       		.byte	0xb
 3621 00cc 75000000 		.4byte	0x75
 3622 00d0 03       		.uleb128 0x3
 3623 00d1 2F040000 		.4byte	.LASF17
 3624 00d5 05       		.byte	0x5
 3625 00d6 0C       		.byte	0xc
 3626 00d7 63000000 		.4byte	0x63
 3627 00db 06       		.uleb128 0x6
 3628 00dc 62020000 		.4byte	.LASF44
 3629 00e0 34       		.byte	0x34
 3630 00e1 05       		.byte	0x5
 3631 00e2 33       		.byte	0x33
 3632 00e3 AC010000 		.4byte	0x1ac
 3633 00e7 07       		.uleb128 0x7
 3634 00e8 F0050000 		.4byte	.LASF18
 3635 00ec 05       		.byte	0x5
 3636 00ed 35       		.byte	0x35
 3637 00ee AC010000 		.4byte	0x1ac
 3638 00f2 02       		.byte	0x2
 3639 00f3 23       		.byte	0x23
 3640 00f4 00       		.uleb128 0
 3641 00f5 07       		.uleb128 0x7
 3642 00f6 A1000000 		.4byte	.LASF19
ARM GAS  G:\Users\Jaxb\AppData\Local\Temp\cc11Idxk.s 			page 83


 3643 00fa 05       		.byte	0x5
 3644 00fb 36       		.byte	0x36
 3645 00fc D0000000 		.4byte	0xd0
 3646 0100 02       		.byte	0x2
 3647 0101 23       		.byte	0x23
 3648 0102 10       		.uleb128 0x10
 3649 0103 07       		.uleb128 0x7
 3650 0104 3D030000 		.4byte	.LASF20
 3651 0108 05       		.byte	0x5
 3652 0109 37       		.byte	0x37
 3653 010a D0000000 		.4byte	0xd0
 3654 010e 02       		.byte	0x2
 3655 010f 23       		.byte	0x23
 3656 0110 12       		.uleb128 0x12
 3657 0111 07       		.uleb128 0x7
 3658 0112 FC030000 		.4byte	.LASF21
 3659 0116 05       		.byte	0x5
 3660 0117 38       		.byte	0x38
 3661 0118 C5000000 		.4byte	0xc5
 3662 011c 02       		.byte	0x2
 3663 011d 23       		.byte	0x23
 3664 011e 14       		.uleb128 0x14
 3665 011f 07       		.uleb128 0x7
 3666 0120 D0070000 		.4byte	.LASF22
 3667 0124 05       		.byte	0x5
 3668 0125 39       		.byte	0x39
 3669 0126 A4000000 		.4byte	0xa4
 3670 012a 02       		.byte	0x2
 3671 012b 23       		.byte	0x23
 3672 012c 18       		.uleb128 0x18
 3673 012d 07       		.uleb128 0x7
 3674 012e A7060000 		.4byte	.LASF23
 3675 0132 05       		.byte	0x5
 3676 0133 3A       		.byte	0x3a
 3677 0134 AF000000 		.4byte	0xaf
 3678 0138 02       		.byte	0x2
 3679 0139 23       		.byte	0x23
 3680 013a 1C       		.uleb128 0x1c
 3681 013b 07       		.uleb128 0x7
 3682 013c AC050000 		.4byte	.LASF24
 3683 0140 05       		.byte	0x5
 3684 0141 3B       		.byte	0x3b
 3685 0142 AF000000 		.4byte	0xaf
 3686 0146 02       		.byte	0x2
 3687 0147 23       		.byte	0x23
 3688 0148 20       		.uleb128 0x20
 3689 0149 07       		.uleb128 0x7
 3690 014a 7E060000 		.4byte	.LASF25
 3691 014e 05       		.byte	0x5
 3692 014f 3C       		.byte	0x3c
 3693 0150 C5000000 		.4byte	0xc5
 3694 0154 02       		.byte	0x2
 3695 0155 23       		.byte	0x23
 3696 0156 24       		.uleb128 0x24
 3697 0157 07       		.uleb128 0x7
 3698 0158 CF030000 		.4byte	.LASF26
 3699 015c 05       		.byte	0x5
ARM GAS  G:\Users\Jaxb\AppData\Local\Temp\cc11Idxk.s 			page 84


 3700 015d 3D       		.byte	0x3d
 3701 015e D0000000 		.4byte	0xd0
 3702 0162 02       		.byte	0x2
 3703 0163 23       		.byte	0x23
 3704 0164 28       		.uleb128 0x28
 3705 0165 07       		.uleb128 0x7
 3706 0166 C4020000 		.4byte	.LASF27
 3707 016a 05       		.byte	0x5
 3708 016b 3E       		.byte	0x3e
 3709 016c D0000000 		.4byte	0xd0
 3710 0170 02       		.byte	0x2
 3711 0171 23       		.byte	0x23
 3712 0172 2A       		.uleb128 0x2a
 3713 0173 07       		.uleb128 0x7
 3714 0174 3B080000 		.4byte	.LASF28
 3715 0178 05       		.byte	0x5
 3716 0179 3F       		.byte	0x3f
 3717 017a D0000000 		.4byte	0xd0
 3718 017e 02       		.byte	0x2
 3719 017f 23       		.byte	0x23
 3720 0180 2C       		.uleb128 0x2c
 3721 0181 07       		.uleb128 0x7
 3722 0182 F0060000 		.4byte	.LASF29
 3723 0186 05       		.byte	0x5
 3724 0187 40       		.byte	0x40
 3725 0188 D0000000 		.4byte	0xd0
 3726 018c 02       		.byte	0x2
 3727 018d 23       		.byte	0x23
 3728 018e 2E       		.uleb128 0x2e
 3729 018f 07       		.uleb128 0x7
 3730 0190 3D070000 		.4byte	.LASF30
 3731 0194 05       		.byte	0x5
 3732 0195 41       		.byte	0x41
 3733 0196 D0000000 		.4byte	0xd0
 3734 019a 02       		.byte	0x2
 3735 019b 23       		.byte	0x23
 3736 019c 30       		.uleb128 0x30
 3737 019d 07       		.uleb128 0x7
 3738 019e 98010000 		.4byte	.LASF31
 3739 01a2 05       		.byte	0x5
 3740 01a3 42       		.byte	0x42
 3741 01a4 D0000000 		.4byte	0xd0
 3742 01a8 02       		.byte	0x2
 3743 01a9 23       		.byte	0x23
 3744 01aa 32       		.uleb128 0x32
 3745 01ab 00       		.byte	0
 3746 01ac 08       		.uleb128 0x8
 3747 01ad 5C000000 		.4byte	0x5c
 3748 01b1 BC010000 		.4byte	0x1bc
 3749 01b5 09       		.uleb128 0x9
 3750 01b6 80000000 		.4byte	0x80
 3751 01ba 0F       		.byte	0xf
 3752 01bb 00       		.byte	0
 3753 01bc 03       		.uleb128 0x3
 3754 01bd 7D040000 		.4byte	.LASF32
 3755 01c1 05       		.byte	0x5
 3756 01c2 44       		.byte	0x44
ARM GAS  G:\Users\Jaxb\AppData\Local\Temp\cc11Idxk.s 			page 85


 3757 01c3 DB000000 		.4byte	0xdb
 3758 01c7 0A       		.uleb128 0xa
 3759 01c8 28       		.byte	0x28
 3760 01c9 05       		.byte	0x5
 3761 01ca 47       		.byte	0x47
 3762 01cb 5C020000 		.4byte	0x25c
 3763 01cf 07       		.uleb128 0x7
 3764 01d0 00030000 		.4byte	.LASF33
 3765 01d4 05       		.byte	0x5
 3766 01d5 49       		.byte	0x49
 3767 01d6 C5000000 		.4byte	0xc5
 3768 01da 02       		.byte	0x2
 3769 01db 23       		.byte	0x23
 3770 01dc 00       		.uleb128 0
 3771 01dd 07       		.uleb128 0x7
 3772 01de CA060000 		.4byte	.LASF34
 3773 01e2 05       		.byte	0x5
 3774 01e3 4B       		.byte	0x4b
 3775 01e4 C5000000 		.4byte	0xc5
 3776 01e8 02       		.byte	0x2
 3777 01e9 23       		.byte	0x23
 3778 01ea 04       		.uleb128 0x4
 3779 01eb 07       		.uleb128 0x7
 3780 01ec BA060000 		.4byte	.LASF35
 3781 01f0 05       		.byte	0x5
 3782 01f1 4C       		.byte	0x4c
 3783 01f2 C5000000 		.4byte	0xc5
 3784 01f6 02       		.byte	0x2
 3785 01f7 23       		.byte	0x23
 3786 01f8 08       		.uleb128 0x8
 3787 01f9 07       		.uleb128 0x7
 3788 01fa E1000000 		.4byte	.LASF36
 3789 01fe 05       		.byte	0x5
 3790 01ff 4D       		.byte	0x4d
 3791 0200 A4000000 		.4byte	0xa4
 3792 0204 02       		.byte	0x2
 3793 0205 23       		.byte	0x23
 3794 0206 0C       		.uleb128 0xc
 3795 0207 07       		.uleb128 0x7
 3796 0208 67080000 		.4byte	.LASF37
 3797 020c 05       		.byte	0x5
 3798 020d 4E       		.byte	0x4e
 3799 020e AF000000 		.4byte	0xaf
 3800 0212 02       		.byte	0x2
 3801 0213 23       		.byte	0x23
 3802 0214 10       		.uleb128 0x10
 3803 0215 07       		.uleb128 0x7
 3804 0216 CD000000 		.4byte	.LASF38
 3805 021a 05       		.byte	0x5
 3806 021b 4F       		.byte	0x4f
 3807 021c C5000000 		.4byte	0xc5
 3808 0220 02       		.byte	0x2
 3809 0221 23       		.byte	0x23
 3810 0222 14       		.uleb128 0x14
 3811 0223 07       		.uleb128 0x7
 3812 0224 2E020000 		.4byte	.LASF39
 3813 0228 05       		.byte	0x5
ARM GAS  G:\Users\Jaxb\AppData\Local\Temp\cc11Idxk.s 			page 86


 3814 0229 50       		.byte	0x50
 3815 022a C5000000 		.4byte	0xc5
 3816 022e 02       		.byte	0x2
 3817 022f 23       		.byte	0x23
 3818 0230 18       		.uleb128 0x18
 3819 0231 07       		.uleb128 0x7
 3820 0232 D9050000 		.4byte	.LASF40
 3821 0236 05       		.byte	0x5
 3822 0237 51       		.byte	0x51
 3823 0238 C5000000 		.4byte	0xc5
 3824 023c 02       		.byte	0x2
 3825 023d 23       		.byte	0x23
 3826 023e 1C       		.uleb128 0x1c
 3827 023f 07       		.uleb128 0x7
 3828 0240 06000000 		.4byte	.LASF41
 3829 0244 05       		.byte	0x5
 3830 0245 52       		.byte	0x52
 3831 0246 C5000000 		.4byte	0xc5
 3832 024a 02       		.byte	0x2
 3833 024b 23       		.byte	0x23
 3834 024c 20       		.uleb128 0x20
 3835 024d 07       		.uleb128 0x7
 3836 024e 5C050000 		.4byte	.LASF42
 3837 0252 05       		.byte	0x5
 3838 0253 53       		.byte	0x53
 3839 0254 C5000000 		.4byte	0xc5
 3840 0258 02       		.byte	0x2
 3841 0259 23       		.byte	0x23
 3842 025a 24       		.uleb128 0x24
 3843 025b 00       		.byte	0
 3844 025c 03       		.uleb128 0x3
 3845 025d 74000000 		.4byte	.LASF43
 3846 0261 05       		.byte	0x5
 3847 0262 54       		.byte	0x54
 3848 0263 C7010000 		.4byte	0x1c7
 3849 0267 06       		.uleb128 0x6
 3850 0268 D8070000 		.4byte	.LASF45
 3851 026c 10       		.byte	0x10
 3852 026d 05       		.byte	0x5
 3853 026e 6F       		.byte	0x6f
 3854 026f C8020000 		.4byte	0x2c8
 3855 0273 07       		.uleb128 0x7
 3856 0274 86060000 		.4byte	.LASF46
 3857 0278 05       		.byte	0x5
 3858 0279 71       		.byte	0x71
 3859 027a C5000000 		.4byte	0xc5
 3860 027e 02       		.byte	0x2
 3861 027f 23       		.byte	0x23
 3862 0280 00       		.uleb128 0
 3863 0281 07       		.uleb128 0x7
 3864 0282 E5010000 		.4byte	.LASF47
 3865 0286 05       		.byte	0x5
 3866 0287 72       		.byte	0x72
 3867 0288 A4000000 		.4byte	0xa4
 3868 028c 02       		.byte	0x2
 3869 028d 23       		.byte	0x23
 3870 028e 04       		.uleb128 0x4
ARM GAS  G:\Users\Jaxb\AppData\Local\Temp\cc11Idxk.s 			page 87


 3871 028f 07       		.uleb128 0x7
 3872 0290 5D030000 		.4byte	.LASF48
 3873 0294 05       		.byte	0x5
 3874 0295 73       		.byte	0x73
 3875 0296 C5000000 		.4byte	0xc5
 3876 029a 02       		.byte	0x2
 3877 029b 23       		.byte	0x23
 3878 029c 08       		.uleb128 0x8
 3879 029d 07       		.uleb128 0x7
 3880 029e 54000000 		.4byte	.LASF49
 3881 02a2 05       		.byte	0x5
 3882 02a3 74       		.byte	0x74
 3883 02a4 5C000000 		.4byte	0x5c
 3884 02a8 02       		.byte	0x2
 3885 02a9 23       		.byte	0x23
 3886 02aa 0C       		.uleb128 0xc
 3887 02ab 07       		.uleb128 0x7
 3888 02ac 24030000 		.4byte	.LASF50
 3889 02b0 05       		.byte	0x5
 3890 02b1 75       		.byte	0x75
 3891 02b2 5C000000 		.4byte	0x5c
 3892 02b6 02       		.byte	0x2
 3893 02b7 23       		.byte	0x23
 3894 02b8 0D       		.uleb128 0xd
 3895 02b9 07       		.uleb128 0x7
 3896 02ba 28000000 		.4byte	.LASF51
 3897 02be 05       		.byte	0x5
 3898 02bf 76       		.byte	0x76
 3899 02c0 D0000000 		.4byte	0xd0
 3900 02c4 02       		.byte	0x2
 3901 02c5 23       		.byte	0x23
 3902 02c6 0E       		.uleb128 0xe
 3903 02c7 00       		.byte	0
 3904 02c8 03       		.uleb128 0x3
 3905 02c9 EF070000 		.4byte	.LASF52
 3906 02cd 05       		.byte	0x5
 3907 02ce 77       		.byte	0x77
 3908 02cf 67020000 		.4byte	0x267
 3909 02d3 0A       		.uleb128 0xa
 3910 02d4 08       		.byte	0x8
 3911 02d5 05       		.byte	0x5
 3912 02d6 95       		.byte	0x95
 3913 02d7 F8020000 		.4byte	0x2f8
 3914 02db 07       		.uleb128 0x7
 3915 02dc 43080000 		.4byte	.LASF53
 3916 02e0 05       		.byte	0x5
 3917 02e1 97       		.byte	0x97
 3918 02e2 A4000000 		.4byte	0xa4
 3919 02e6 02       		.byte	0x2
 3920 02e7 23       		.byte	0x23
 3921 02e8 00       		.uleb128 0
 3922 02e9 07       		.uleb128 0x7
 3923 02ea C3060000 		.4byte	.LASF54
 3924 02ee 05       		.byte	0x5
 3925 02ef 98       		.byte	0x98
 3926 02f0 C5000000 		.4byte	0xc5
 3927 02f4 02       		.byte	0x2
ARM GAS  G:\Users\Jaxb\AppData\Local\Temp\cc11Idxk.s 			page 88


 3928 02f5 23       		.byte	0x23
 3929 02f6 04       		.uleb128 0x4
 3930 02f7 00       		.byte	0
 3931 02f8 03       		.uleb128 0x3
 3932 02f9 53030000 		.4byte	.LASF55
 3933 02fd 05       		.byte	0x5
 3934 02fe 99       		.byte	0x99
 3935 02ff D3020000 		.4byte	0x2d3
 3936 0303 0A       		.uleb128 0xa
 3937 0304 20       		.byte	0x20
 3938 0305 05       		.byte	0x5
 3939 0306 BB       		.byte	0xbb
 3940 0307 7C030000 		.4byte	0x37c
 3941 030b 07       		.uleb128 0x7
 3942 030c 96020000 		.4byte	.LASF56
 3943 0310 05       		.byte	0x5
 3944 0311 BD       		.byte	0xbd
 3945 0312 C5000000 		.4byte	0xc5
 3946 0316 02       		.byte	0x2
 3947 0317 23       		.byte	0x23
 3948 0318 00       		.uleb128 0
 3949 0319 07       		.uleb128 0x7
 3950 031a 06040000 		.4byte	.LASF57
 3951 031e 05       		.byte	0x5
 3952 031f BE       		.byte	0xbe
 3953 0320 AF000000 		.4byte	0xaf
 3954 0324 02       		.byte	0x2
 3955 0325 23       		.byte	0x23
 3956 0326 04       		.uleb128 0x4
 3957 0327 07       		.uleb128 0x7
 3958 0328 20000000 		.4byte	.LASF58
 3959 032c 05       		.byte	0x5
 3960 032d BF       		.byte	0xbf
 3961 032e A4000000 		.4byte	0xa4
 3962 0332 02       		.byte	0x2
 3963 0333 23       		.byte	0x23
 3964 0334 08       		.uleb128 0x8
 3965 0335 07       		.uleb128 0x7
 3966 0336 EE010000 		.4byte	.LASF59
 3967 033a 05       		.byte	0x5
 3968 033b C0       		.byte	0xc0
 3969 033c A4000000 		.4byte	0xa4
 3970 0340 02       		.byte	0x2
 3971 0341 23       		.byte	0x23
 3972 0342 0C       		.uleb128 0xc
 3973 0343 07       		.uleb128 0x7
 3974 0344 4A010000 		.4byte	.LASF60
 3975 0348 05       		.byte	0x5
 3976 0349 C1       		.byte	0xc1
 3977 034a C5000000 		.4byte	0xc5
 3978 034e 02       		.byte	0x2
 3979 034f 23       		.byte	0x23
 3980 0350 10       		.uleb128 0x10
 3981 0351 07       		.uleb128 0x7
 3982 0352 14020000 		.4byte	.LASF61
 3983 0356 05       		.byte	0x5
 3984 0357 C2       		.byte	0xc2
ARM GAS  G:\Users\Jaxb\AppData\Local\Temp\cc11Idxk.s 			page 89


 3985 0358 C5000000 		.4byte	0xc5
 3986 035c 02       		.byte	0x2
 3987 035d 23       		.byte	0x23
 3988 035e 14       		.uleb128 0x14
 3989 035f 07       		.uleb128 0x7
 3990 0360 E8050000 		.4byte	.LASF62
 3991 0364 05       		.byte	0x5
 3992 0365 C3       		.byte	0xc3
 3993 0366 C5000000 		.4byte	0xc5
 3994 036a 02       		.byte	0x2
 3995 036b 23       		.byte	0x23
 3996 036c 18       		.uleb128 0x18
 3997 036d 07       		.uleb128 0x7
 3998 036e C5000000 		.4byte	.LASF63
 3999 0372 05       		.byte	0x5
 4000 0373 C4       		.byte	0xc4
 4001 0374 C5000000 		.4byte	0xc5
 4002 0378 02       		.byte	0x2
 4003 0379 23       		.byte	0x23
 4004 037a 1C       		.uleb128 0x1c
 4005 037b 00       		.byte	0
 4006 037c 03       		.uleb128 0x3
 4007 037d 2D030000 		.4byte	.LASF64
 4008 0381 05       		.byte	0x5
 4009 0382 C5       		.byte	0xc5
 4010 0383 03030000 		.4byte	0x303
 4011 0387 06       		.uleb128 0x6
 4012 0388 D2060000 		.4byte	.LASF65
 4013 038c 08       		.byte	0x8
 4014 038d 01       		.byte	0x1
 4015 038e 04       		.byte	0x4
 4016 038f B0030000 		.4byte	0x3b0
 4017 0393 07       		.uleb128 0x7
 4018 0394 04010000 		.4byte	.LASF66
 4019 0398 01       		.byte	0x1
 4020 0399 05       		.byte	0x5
 4021 039a B5030000 		.4byte	0x3b5
 4022 039e 02       		.byte	0x2
 4023 039f 23       		.byte	0x23
 4024 03a0 00       		.uleb128 0
 4025 03a1 07       		.uleb128 0x7
 4026 03a2 64000000 		.4byte	.LASF67
 4027 03a6 01       		.byte	0x1
 4028 03a7 05       		.byte	0x5
 4029 03a8 B5030000 		.4byte	0x3b5
 4030 03ac 02       		.byte	0x2
 4031 03ad 23       		.byte	0x23
 4032 03ae 04       		.uleb128 0x4
 4033 03af 00       		.byte	0
 4034 03b0 0B       		.uleb128 0xb
 4035 03b1 87030000 		.4byte	0x387
 4036 03b5 0C       		.uleb128 0xc
 4037 03b6 04       		.byte	0x4
 4038 03b7 87030000 		.4byte	0x387
 4039 03bb 0D       		.uleb128 0xd
 4040 03bc 83030000 		.4byte	.LASF173
 4041 03c0 07       		.byte	0x7
ARM GAS  G:\Users\Jaxb\AppData\Local\Temp\cc11Idxk.s 			page 90


 4042 03c1 01       		.byte	0x1
 4043 03c2 5C000000 		.4byte	0x5c
 4044 03c6 06       		.byte	0x6
 4045 03c7 04       		.byte	0x4
 4046 03c8 09040000 		.4byte	0x409
 4047 03cc 0E       		.uleb128 0xe
 4048 03cd E2030000 		.4byte	.LASF68
 4049 03d1 01       		.byte	0x1
 4050 03d2 0E       		.uleb128 0xe
 4051 03d3 B1020000 		.4byte	.LASF69
 4052 03d7 02       		.byte	0x2
 4053 03d8 0E       		.uleb128 0xe
 4054 03d9 5B070000 		.4byte	.LASF70
 4055 03dd 03       		.byte	0x3
 4056 03de 0E       		.uleb128 0xe
 4057 03df 45040000 		.4byte	.LASF71
 4058 03e3 04       		.byte	0x4
 4059 03e4 0E       		.uleb128 0xe
 4060 03e5 9B080000 		.4byte	.LASF72
 4061 03e9 05       		.byte	0x5
 4062 03ea 0E       		.uleb128 0xe
 4063 03eb AF070000 		.4byte	.LASF73
 4064 03ef 06       		.byte	0x6
 4065 03f0 0E       		.uleb128 0xe
 4066 03f1 36020000 		.4byte	.LASF74
 4067 03f5 07       		.byte	0x7
 4068 03f6 0E       		.uleb128 0xe
 4069 03f7 69020000 		.4byte	.LASF75
 4070 03fb 08       		.byte	0x8
 4071 03fc 0E       		.uleb128 0xe
 4072 03fd 59060000 		.4byte	.LASF76
 4073 0401 09       		.byte	0x9
 4074 0402 0E       		.uleb128 0xe
 4075 0403 88040000 		.4byte	.LASF77
 4076 0407 0A       		.byte	0xa
 4077 0408 00       		.byte	0
 4078 0409 03       		.uleb128 0x3
 4079 040a EF000000 		.4byte	.LASF78
 4080 040e 06       		.byte	0x6
 4081 040f 0F       		.byte	0xf
 4082 0410 BB030000 		.4byte	0x3bb
 4083 0414 03       		.uleb128 0x3
 4084 0415 20070000 		.4byte	.LASF79
 4085 0419 07       		.byte	0x7
 4086 041a 0B       		.byte	0xb
 4087 041b 80000000 		.4byte	0x80
 4088 041f 03       		.uleb128 0x3
 4089 0420 31000000 		.4byte	.LASF80
 4090 0424 07       		.byte	0x7
 4091 0425 0D       		.byte	0xd
 4092 0426 80000000 		.4byte	0x80
 4093 042a 03       		.uleb128 0x3
 4094 042b CD050000 		.4byte	.LASF81
 4095 042f 07       		.byte	0x7
 4096 0430 0E       		.byte	0xe
 4097 0431 35040000 		.4byte	0x435
 4098 0435 0C       		.uleb128 0xc
ARM GAS  G:\Users\Jaxb\AppData\Local\Temp\cc11Idxk.s 			page 91


 4099 0436 04       		.byte	0x4
 4100 0437 3B040000 		.4byte	0x43b
 4101 043b 0F       		.uleb128 0xf
 4102 043c 01       		.byte	0x1
 4103 043d 47040000 		.4byte	0x447
 4104 0441 10       		.uleb128 0x10
 4105 0442 47040000 		.4byte	0x447
 4106 0446 00       		.byte	0
 4107 0447 11       		.uleb128 0x11
 4108 0448 04       		.byte	0x4
 4109 0449 12       		.uleb128 0x12
 4110 044a 67050000 		.4byte	.LASF174
 4111 044e 07       		.byte	0x7
 4112 044f 14       		.byte	0x14
 4113 0450 45000000 		.4byte	0x45
 4114 0454 01       		.byte	0x1
 4115 0455 01       		.byte	0x1
 4116 0456 06       		.uleb128 0x6
 4117 0457 09010000 		.4byte	.LASF82
 4118 045b 48       		.byte	0x48
 4119 045c 07       		.byte	0x7
 4120 045d 37       		.byte	0x37
 4121 045e 35050000 		.4byte	0x535
 4122 0462 07       		.uleb128 0x7
 4123 0463 33060000 		.4byte	.LASF83
 4124 0467 07       		.byte	0x7
 4125 0468 38       		.byte	0x38
 4126 0469 35050000 		.4byte	0x535
 4127 046d 02       		.byte	0x2
 4128 046e 23       		.byte	0x23
 4129 046f 00       		.uleb128 0
 4130 0470 07       		.uleb128 0x7
 4131 0471 F9070000 		.4byte	.LASF84
 4132 0475 07       		.byte	0x7
 4133 0476 39       		.byte	0x39
 4134 0477 80000000 		.4byte	0x80
 4135 047b 02       		.byte	0x2
 4136 047c 23       		.byte	0x23
 4137 047d 04       		.uleb128 0x4
 4138 047e 07       		.uleb128 0x7
 4139 047f 6D040000 		.4byte	.LASF85
 4140 0483 07       		.byte	0x7
 4141 0484 3A       		.byte	0x3a
 4142 0485 35050000 		.4byte	0x535
 4143 0489 02       		.byte	0x2
 4144 048a 23       		.byte	0x23
 4145 048b 08       		.uleb128 0x8
 4146 048c 07       		.uleb128 0x7
 4147 048d 3D010000 		.4byte	.LASF86
 4148 0491 07       		.byte	0x7
 4149 0492 3B       		.byte	0x3b
 4150 0493 1F040000 		.4byte	0x41f
 4151 0497 02       		.byte	0x2
 4152 0498 23       		.byte	0x23
 4153 0499 0C       		.uleb128 0xc
 4154 049a 07       		.uleb128 0x7
 4155 049b 2B070000 		.4byte	.LASF87
ARM GAS  G:\Users\Jaxb\AppData\Local\Temp\cc11Idxk.s 			page 92


 4156 049f 07       		.byte	0x7
 4157 04a0 3C       		.byte	0x3c
 4158 04a1 09040000 		.4byte	0x409
 4159 04a5 02       		.byte	0x2
 4160 04a6 23       		.byte	0x23
 4161 04a7 10       		.uleb128 0x10
 4162 04a8 07       		.uleb128 0x7
 4163 04a9 2A040000 		.4byte	.LASF88
 4164 04ad 07       		.byte	0x7
 4165 04ae 3D       		.byte	0x3d
 4166 04af 1F040000 		.4byte	0x41f
 4167 04b3 02       		.byte	0x2
 4168 04b4 23       		.byte	0x23
 4169 04b5 14       		.uleb128 0x14
 4170 04b6 07       		.uleb128 0x7
 4171 04b7 B2080000 		.4byte	.LASF89
 4172 04bb 07       		.byte	0x7
 4173 04bc 3E       		.byte	0x3e
 4174 04bd 3E000000 		.4byte	0x3e
 4175 04c1 02       		.byte	0x2
 4176 04c2 23       		.byte	0x23
 4177 04c3 18       		.uleb128 0x18
 4178 04c4 07       		.uleb128 0x7
 4179 04c5 D6010000 		.4byte	.LASF90
 4180 04c9 07       		.byte	0x7
 4181 04ca 3F       		.byte	0x3f
 4182 04cb 87030000 		.4byte	0x387
 4183 04cf 02       		.byte	0x2
 4184 04d0 23       		.byte	0x23
 4185 04d1 1C       		.uleb128 0x1c
 4186 04d2 07       		.uleb128 0x7
 4187 04d3 13000000 		.4byte	.LASF91
 4188 04d7 07       		.byte	0x7
 4189 04d8 40       		.byte	0x40
 4190 04d9 87030000 		.4byte	0x387
 4191 04dd 02       		.byte	0x2
 4192 04de 23       		.byte	0x23
 4193 04df 24       		.uleb128 0x24
 4194 04e0 07       		.uleb128 0x7
 4195 04e1 ED020000 		.4byte	.LASF92
 4196 04e5 07       		.byte	0x7
 4197 04e6 41       		.byte	0x41
 4198 04e7 3B050000 		.4byte	0x53b
 4199 04eb 02       		.byte	0x2
 4200 04ec 23       		.byte	0x23
 4201 04ed 2C       		.uleb128 0x2c
 4202 04ee 07       		.uleb128 0x7
 4203 04ef 93060000 		.4byte	.LASF93
 4204 04f3 07       		.byte	0x7
 4205 04f4 42       		.byte	0x42
 4206 04f5 80000000 		.4byte	0x80
 4207 04f9 02       		.byte	0x2
 4208 04fa 23       		.byte	0x23
 4209 04fb 30       		.uleb128 0x30
 4210 04fc 07       		.uleb128 0x7
 4211 04fd 0F040000 		.4byte	.LASF94
 4212 0501 07       		.byte	0x7
ARM GAS  G:\Users\Jaxb\AppData\Local\Temp\cc11Idxk.s 			page 93


 4213 0502 43       		.byte	0x43
 4214 0503 80000000 		.4byte	0x80
 4215 0507 02       		.byte	0x2
 4216 0508 23       		.byte	0x23
 4217 0509 34       		.uleb128 0x34
 4218 050a 07       		.uleb128 0x7
 4219 050b 95000000 		.4byte	.LASF95
 4220 050f 07       		.byte	0x7
 4221 0510 44       		.byte	0x44
 4222 0511 75000000 		.4byte	0x75
 4223 0515 02       		.byte	0x2
 4224 0516 23       		.byte	0x23
 4225 0517 38       		.uleb128 0x38
 4226 0518 07       		.uleb128 0x7
 4227 0519 C6080000 		.4byte	.LASF96
 4228 051d 07       		.byte	0x7
 4229 051e 45       		.byte	0x45
 4230 051f 1E060000 		.4byte	0x61e
 4231 0523 02       		.byte	0x2
 4232 0524 23       		.byte	0x23
 4233 0525 3C       		.uleb128 0x3c
 4234 0526 07       		.uleb128 0x7
 4235 0527 0A070000 		.4byte	.LASF97
 4236 052b 07       		.byte	0x7
 4237 052c 46       		.byte	0x46
 4238 052d 87000000 		.4byte	0x87
 4239 0531 02       		.byte	0x2
 4240 0532 23       		.byte	0x23
 4241 0533 40       		.uleb128 0x40
 4242 0534 00       		.byte	0
 4243 0535 0C       		.uleb128 0xc
 4244 0536 04       		.byte	0x4
 4245 0537 14040000 		.4byte	0x414
 4246 053b 0C       		.uleb128 0xc
 4247 053c 04       		.byte	0x4
 4248 053d 41050000 		.4byte	0x541
 4249 0541 02       		.uleb128 0x2
 4250 0542 01       		.byte	0x1
 4251 0543 08       		.byte	0x8
 4252 0544 8E060000 		.4byte	.LASF98
 4253 0548 0B       		.uleb128 0xb
 4254 0549 41050000 		.4byte	0x541
 4255 054d 06       		.uleb128 0x6
 4256 054e 4C070000 		.4byte	.LASF99
 4257 0552 58       		.byte	0x58
 4258 0553 02       		.byte	0x2
 4259 0554 22       		.byte	0x22
 4260 0555 1E060000 		.4byte	0x61e
 4261 0559 07       		.uleb128 0x7
 4262 055a ED020000 		.4byte	.LASF92
 4263 055e 02       		.byte	0x2
 4264 055f 24       		.byte	0x24
 4265 0560 5E060000 		.4byte	0x65e
 4266 0564 02       		.byte	0x2
 4267 0565 23       		.byte	0x23
 4268 0566 00       		.uleb128 0
 4269 0567 07       		.uleb128 0x7
ARM GAS  G:\Users\Jaxb\AppData\Local\Temp\cc11Idxk.s 			page 94


 4270 0568 47030000 		.4byte	.LASF100
 4271 056c 02       		.byte	0x2
 4272 056d 25       		.byte	0x25
 4273 056e 87030000 		.4byte	0x387
 4274 0572 02       		.byte	0x2
 4275 0573 23       		.byte	0x23
 4276 0574 20       		.uleb128 0x20
 4277 0575 07       		.uleb128 0x7
 4278 0576 3E060000 		.4byte	.LASF101
 4279 057a 02       		.byte	0x2
 4280 057b 26       		.byte	0x26
 4281 057c 75000000 		.4byte	0x75
 4282 0580 02       		.byte	0x2
 4283 0581 23       		.byte	0x23
 4284 0582 28       		.uleb128 0x28
 4285 0583 07       		.uleb128 0x7
 4286 0584 7F000000 		.4byte	.LASF102
 4287 0588 02       		.byte	0x2
 4288 0589 27       		.byte	0x27
 4289 058a 74060000 		.4byte	0x674
 4290 058e 02       		.byte	0x2
 4291 058f 23       		.byte	0x23
 4292 0590 2C       		.uleb128 0x2c
 4293 0591 07       		.uleb128 0x7
 4294 0592 39060000 		.4byte	.LASF103
 4295 0596 02       		.byte	0x2
 4296 0597 28       		.byte	0x28
 4297 0598 7C060000 		.4byte	0x67c
 4298 059c 02       		.byte	0x2
 4299 059d 23       		.byte	0x23
 4300 059e 30       		.uleb128 0x30
 4301 059f 07       		.uleb128 0x7
 4302 05a0 E2070000 		.4byte	.LASF104
 4303 05a4 02       		.byte	0x2
 4304 05a5 29       		.byte	0x29
 4305 05a6 47040000 		.4byte	0x447
 4306 05aa 02       		.byte	0x2
 4307 05ab 23       		.byte	0x23
 4308 05ac 34       		.uleb128 0x34
 4309 05ad 07       		.uleb128 0x7
 4310 05ae 53010000 		.4byte	.LASF105
 4311 05b2 02       		.byte	0x2
 4312 05b3 2A       		.byte	0x2a
 4313 05b4 80000000 		.4byte	0x80
 4314 05b8 02       		.byte	0x2
 4315 05b9 23       		.byte	0x23
 4316 05ba 38       		.uleb128 0x38
 4317 05bb 07       		.uleb128 0x7
 4318 05bc 70070000 		.4byte	.LASF106
 4319 05c0 02       		.byte	0x2
 4320 05c1 2B       		.byte	0x2b
 4321 05c2 47040000 		.4byte	0x447
 4322 05c6 02       		.byte	0x2
 4323 05c7 23       		.byte	0x23
 4324 05c8 3C       		.uleb128 0x3c
 4325 05c9 07       		.uleb128 0x7
 4326 05ca A8000000 		.4byte	.LASF107
ARM GAS  G:\Users\Jaxb\AppData\Local\Temp\cc11Idxk.s 			page 95


 4327 05ce 02       		.byte	0x2
 4328 05cf 2C       		.byte	0x2c
 4329 05d0 47040000 		.4byte	0x447
 4330 05d4 02       		.byte	0x2
 4331 05d5 23       		.byte	0x23
 4332 05d6 40       		.uleb128 0x40
 4333 05d7 07       		.uleb128 0x7
 4334 05d8 9E030000 		.4byte	.LASF108
 4335 05dc 02       		.byte	0x2
 4336 05dd 2D       		.byte	0x2d
 4337 05de 75000000 		.4byte	0x75
 4338 05e2 02       		.byte	0x2
 4339 05e3 23       		.byte	0x23
 4340 05e4 44       		.uleb128 0x44
 4341 05e5 07       		.uleb128 0x7
 4342 05e6 A1040000 		.4byte	.LASF109
 4343 05ea 02       		.byte	0x2
 4344 05eb 2E       		.byte	0x2e
 4345 05ec 82060000 		.4byte	0x682
 4346 05f0 02       		.byte	0x2
 4347 05f1 23       		.byte	0x23
 4348 05f2 48       		.uleb128 0x48
 4349 05f3 07       		.uleb128 0x7
 4350 05f4 28080000 		.4byte	.LASF110
 4351 05f8 02       		.byte	0x2
 4352 05f9 2F       		.byte	0x2f
 4353 05fa 80000000 		.4byte	0x80
 4354 05fe 02       		.byte	0x2
 4355 05ff 23       		.byte	0x23
 4356 0600 4C       		.uleb128 0x4c
 4357 0601 13       		.uleb128 0x13
 4358 0602 72656600 		.ascii	"ref\000"
 4359 0606 02       		.byte	0x2
 4360 0607 30       		.byte	0x30
 4361 0608 80000000 		.4byte	0x80
 4362 060c 02       		.byte	0x2
 4363 060d 23       		.byte	0x23
 4364 060e 50       		.uleb128 0x50
 4365 060f 07       		.uleb128 0x7
 4366 0610 B4050000 		.4byte	.LASF111
 4367 0614 02       		.byte	0x2
 4368 0615 31       		.byte	0x31
 4369 0616 88060000 		.4byte	0x688
 4370 061a 02       		.byte	0x2
 4371 061b 23       		.byte	0x23
 4372 061c 54       		.uleb128 0x54
 4373 061d 00       		.byte	0
 4374 061e 0C       		.uleb128 0xc
 4375 061f 04       		.byte	0x4
 4376 0620 4D050000 		.4byte	0x54d
 4377 0624 14       		.uleb128 0x14
 4378 0625 54434200 		.ascii	"TCB\000"
 4379 0629 07       		.byte	0x7
 4380 062a 47       		.byte	0x47
 4381 062b 56040000 		.4byte	0x456
 4382 062f 06       		.uleb128 0x6
 4383 0630 5F010000 		.4byte	.LASF112
ARM GAS  G:\Users\Jaxb\AppData\Local\Temp\cc11Idxk.s 			page 96


 4384 0634 08       		.byte	0x8
 4385 0635 08       		.byte	0x8
 4386 0636 08       		.byte	0x8
 4387 0637 58060000 		.4byte	0x658
 4388 063b 07       		.uleb128 0x7
 4389 063c D5000000 		.4byte	.LASF113
 4390 0640 08       		.byte	0x8
 4391 0641 0A       		.byte	0xa
 4392 0642 47040000 		.4byte	0x447
 4393 0646 02       		.byte	0x2
 4394 0647 23       		.byte	0x23
 4395 0648 00       		.uleb128 0
 4396 0649 07       		.uleb128 0x7
 4397 064a ED020000 		.4byte	.LASF92
 4398 064e 08       		.byte	0x8
 4399 064f 0B       		.byte	0xb
 4400 0650 58060000 		.4byte	0x658
 4401 0654 02       		.byte	0x2
 4402 0655 23       		.byte	0x23
 4403 0656 04       		.uleb128 0x4
 4404 0657 00       		.byte	0
 4405 0658 0C       		.uleb128 0xc
 4406 0659 04       		.byte	0x4
 4407 065a 48050000 		.4byte	0x548
 4408 065e 08       		.uleb128 0x8
 4409 065f 41050000 		.4byte	0x541
 4410 0663 6E060000 		.4byte	0x66e
 4411 0667 09       		.uleb128 0x9
 4412 0668 80000000 		.4byte	0x80
 4413 066c 1F       		.byte	0x1f
 4414 066d 00       		.byte	0
 4415 066e 15       		.uleb128 0x15
 4416 066f 01       		.byte	0x1
 4417 0670 3E000000 		.4byte	0x3e
 4418 0674 0C       		.uleb128 0xc
 4419 0675 04       		.byte	0x4
 4420 0676 6E060000 		.4byte	0x66e
 4421 067a 16       		.uleb128 0x16
 4422 067b 01       		.byte	0x1
 4423 067c 0C       		.uleb128 0xc
 4424 067d 04       		.byte	0x4
 4425 067e 7A060000 		.4byte	0x67a
 4426 0682 0C       		.uleb128 0xc
 4427 0683 04       		.byte	0x4
 4428 0684 2F060000 		.4byte	0x62f
 4429 0688 0C       		.uleb128 0xc
 4430 0689 04       		.byte	0x4
 4431 068a 24060000 		.4byte	0x624
 4432 068e 17       		.uleb128 0x17
 4433 068f AE010000 		.4byte	.LASF114
 4434 0693 03       		.byte	0x3
 4435 0694 0F       		.byte	0xf
 4436 0695 3B050000 		.4byte	0x53b
 4437 0699 05       		.byte	0x5
 4438 069a 03       		.byte	0x3
 4439 069b 00000000 		.4byte	module_buffer
 4440 069f 18       		.uleb128 0x18
ARM GAS  G:\Users\Jaxb\AppData\Local\Temp\cc11Idxk.s 			page 97


 4441 06a0 6E756D00 		.ascii	"num\000"
 4442 06a4 03       		.byte	0x3
 4443 06a5 10       		.byte	0x10
 4444 06a6 80000000 		.4byte	0x80
 4445 06aa 05       		.byte	0x5
 4446 06ab 03       		.byte	0x3
 4447 06ac 04000000 		.4byte	num
 4448 06b0 17       		.uleb128 0x17
 4449 06b1 AA030000 		.4byte	.LASF115
 4450 06b5 03       		.byte	0x3
 4451 06b6 11       		.byte	0x11
 4452 06b7 87030000 		.4byte	0x387
 4453 06bb 05       		.byte	0x5
 4454 06bc 03       		.byte	0x3
 4455 06bd 08000000 		.4byte	module_list_head
 4456 06c1 19       		.uleb128 0x19
 4457 06c2 01       		.byte	0x1
 4458 06c3 F8050000 		.4byte	.LASF118
 4459 06c7 03       		.byte	0x3
 4460 06c8 9702     		.2byte	0x297
 4461 06ca 01       		.byte	0x1
 4462 06cb E0110000 		.4byte	.LFB26
 4463 06cf FC110000 		.4byte	.LFE26
 4464 06d3 00000000 		.4byte	.LLST22
 4465 06d7 01       		.byte	0x1
 4466 06d8 EC060000 		.4byte	0x6ec
 4467 06dc 1A       		.uleb128 0x1a
 4468 06dd 61646400 		.ascii	"add\000"
 4469 06e1 03       		.byte	0x3
 4470 06e2 9702     		.2byte	0x297
 4471 06e4 47040000 		.4byte	0x447
 4472 06e8 02       		.byte	0x2
 4473 06e9 91       		.byte	0x91
 4474 06ea 74       		.sleb128 -12
 4475 06eb 00       		.byte	0
 4476 06ec 1B       		.uleb128 0x1b
 4477 06ed 01       		.byte	0x1
 4478 06ee BC010000 		.4byte	.LASF116
 4479 06f2 03       		.byte	0x3
 4480 06f3 9102     		.2byte	0x291
 4481 06f5 01       		.byte	0x1
 4482 06f6 C0110000 		.4byte	.LFB25
 4483 06fa E0110000 		.4byte	.LFE25
 4484 06fe 5C000000 		.4byte	.LLST21
 4485 0702 01       		.byte	0x1
 4486 0703 1C       		.uleb128 0x1c
 4487 0704 01       		.byte	0x1
 4488 0705 1A080000 		.4byte	.LASF117
 4489 0709 03       		.byte	0x3
 4490 070a 8C02     		.2byte	0x28c
 4491 070c 01       		.byte	0x1
 4492 070d A4110000 		.4byte	.LFB24
 4493 0711 C0110000 		.4byte	.LFE24
 4494 0715 A0000000 		.4byte	.LLST20
 4495 0719 01       		.byte	0x1
 4496 071a 1D       		.uleb128 0x1d
 4497 071b 01       		.byte	0x1
ARM GAS  G:\Users\Jaxb\AppData\Local\Temp\cc11Idxk.s 			page 98


 4498 071c 6E030000 		.4byte	.LASF119
 4499 0720 03       		.byte	0x3
 4500 0721 8002     		.2byte	0x280
 4501 0723 01       		.byte	0x1
 4502 0724 60110000 		.4byte	.LFB23
 4503 0728 A4110000 		.4byte	.LFE23
 4504 072c CC000000 		.4byte	.LLST19
 4505 0730 01       		.byte	0x1
 4506 0731 43070000 		.4byte	0x743
 4507 0735 1A       		.uleb128 0x1a
 4508 0736 6300     		.ascii	"c\000"
 4509 0738 03       		.byte	0x3
 4510 0739 8002     		.2byte	0x280
 4511 073b 41050000 		.4byte	0x541
 4512 073f 02       		.byte	0x2
 4513 0740 91       		.byte	0x91
 4514 0741 77       		.sleb128 -9
 4515 0742 00       		.byte	0
 4516 0743 1E       		.uleb128 0x1e
 4517 0744 01       		.byte	0x1
 4518 0745 F2020000 		.4byte	.LASF123
 4519 0749 03       		.byte	0x3
 4520 074a 4A02     		.2byte	0x24a
 4521 074c 01       		.byte	0x1
 4522 074d 3E000000 		.4byte	0x3e
 4523 0751 80100000 		.4byte	.LFB22
 4524 0755 60110000 		.4byte	.LFE22
 4525 0759 1C010000 		.4byte	.LLST18
 4526 075d 01       		.byte	0x1
 4527 075e BD070000 		.4byte	0x7bd
 4528 0762 1F       		.uleb128 0x1f
 4529 0763 F9070000 		.4byte	.LASF84
 4530 0767 03       		.byte	0x3
 4531 0768 4B02     		.2byte	0x24b
 4532 076a 80000000 		.4byte	0x80
 4533 076e 02       		.byte	0x2
 4534 076f 91       		.byte	0x91
 4535 0770 64       		.sleb128 -28
 4536 0771 1F       		.uleb128 0x1f
 4537 0772 2A040000 		.4byte	.LASF88
 4538 0776 03       		.byte	0x3
 4539 0777 4C02     		.2byte	0x24c
 4540 0779 1F040000 		.4byte	0x41f
 4541 077d 02       		.byte	0x2
 4542 077e 91       		.byte	0x91
 4543 077f 60       		.sleb128 -32
 4544 0780 1F       		.uleb128 0x1f
 4545 0781 ED020000 		.4byte	.LASF92
 4546 0785 03       		.byte	0x3
 4547 0786 4D02     		.2byte	0x24d
 4548 0788 58060000 		.4byte	0x658
 4549 078c 02       		.byte	0x2
 4550 078d 91       		.byte	0x91
 4551 078e 5C       		.sleb128 -36
 4552 078f 20       		.uleb128 0x20
 4553 0790 DA000000 		.4byte	.LASF120
 4554 0794 03       		.byte	0x3
ARM GAS  G:\Users\Jaxb\AppData\Local\Temp\cc11Idxk.s 			page 99


 4555 0795 4F02     		.2byte	0x24f
 4556 0797 1E060000 		.4byte	0x61e
 4557 079b 02       		.byte	0x2
 4558 079c 91       		.byte	0x91
 4559 079d 74       		.sleb128 -12
 4560 079e 20       		.uleb128 0x20
 4561 079f 77040000 		.4byte	.LASF121
 4562 07a3 03       		.byte	0x3
 4563 07a4 5002     		.2byte	0x250
 4564 07a6 3E000000 		.4byte	0x3e
 4565 07aa 02       		.byte	0x2
 4566 07ab 91       		.byte	0x91
 4567 07ac 70       		.sleb128 -16
 4568 07ad 20       		.uleb128 0x20
 4569 07ae A9020000 		.4byte	.LASF122
 4570 07b2 03       		.byte	0x3
 4571 07b3 5102     		.2byte	0x251
 4572 07b5 88060000 		.4byte	0x688
 4573 07b9 02       		.byte	0x2
 4574 07ba 91       		.byte	0x91
 4575 07bb 6C       		.sleb128 -20
 4576 07bc 00       		.byte	0
 4577 07bd 1E       		.uleb128 0x1e
 4578 07be 01       		.byte	0x1
 4579 07bf 4B060000 		.4byte	.LASF124
 4580 07c3 03       		.byte	0x3
 4581 07c4 F701     		.2byte	0x1f7
 4582 07c6 01       		.byte	0x1
 4583 07c7 1E060000 		.4byte	0x61e
 4584 07cb 4C0F0000 		.4byte	.LFB21
 4585 07cf 80100000 		.4byte	.LFE21
 4586 07d3 6C010000 		.4byte	.LLST17
 4587 07d7 01       		.byte	0x1
 4588 07d8 16080000 		.4byte	0x816
 4589 07dc 20       		.uleb128 0x20
 4590 07dd 77040000 		.4byte	.LASF121
 4591 07e1 03       		.byte	0x3
 4592 07e2 F901     		.2byte	0x1f9
 4593 07e4 3E000000 		.4byte	0x3e
 4594 07e8 02       		.byte	0x2
 4595 07e9 91       		.byte	0x91
 4596 07ea 70       		.sleb128 -16
 4597 07eb 20       		.uleb128 0x20
 4598 07ec 70010000 		.4byte	.LASF125
 4599 07f0 03       		.byte	0x3
 4600 07f1 FA01     		.2byte	0x1fa
 4601 07f3 16080000 		.4byte	0x816
 4602 07f7 02       		.byte	0x2
 4603 07f8 91       		.byte	0x91
 4604 07f9 6C       		.sleb128 -20
 4605 07fa 20       		.uleb128 0x20
 4606 07fb DA000000 		.4byte	.LASF120
 4607 07ff 03       		.byte	0x3
 4608 0800 FB01     		.2byte	0x1fb
 4609 0802 1E060000 		.4byte	0x61e
 4610 0806 02       		.byte	0x2
 4611 0807 91       		.byte	0x91
ARM GAS  G:\Users\Jaxb\AppData\Local\Temp\cc11Idxk.s 			page 100


 4612 0808 74       		.sleb128 -12
 4613 0809 21       		.uleb128 0x21
 4614 080a E1050000 		.4byte	.LASF151
 4615 080e 03       		.byte	0x3
 4616 080f 3802     		.2byte	0x238
 4617 0811 1A100000 		.4byte	.L147
 4618 0815 00       		.byte	0
 4619 0816 0C       		.uleb128 0xc
 4620 0817 04       		.byte	0x4
 4621 0818 51000000 		.4byte	0x51
 4622 081c 22       		.uleb128 0x22
 4623 081d 8E030000 		.4byte	.LASF160
 4624 0821 03       		.byte	0x3
 4625 0822 E501     		.2byte	0x1e5
 4626 0824 01       		.byte	0x1
 4627 0825 DC0E0000 		.4byte	.LFB20
 4628 0829 4C0F0000 		.4byte	.LFE20
 4629 082d BC010000 		.4byte	.LLST16
 4630 0831 01       		.byte	0x1
 4631 0832 46080000 		.4byte	0x846
 4632 0836 1F       		.uleb128 0x1f
 4633 0837 C6080000 		.4byte	.LASF96
 4634 083b 03       		.byte	0x3
 4635 083c E501     		.2byte	0x1e5
 4636 083e 1E060000 		.4byte	0x61e
 4637 0842 02       		.byte	0x2
 4638 0843 91       		.byte	0x91
 4639 0844 74       		.sleb128 -12
 4640 0845 00       		.byte	0
 4641 0846 1E       		.uleb128 0x1e
 4642 0847 01       		.byte	0x1
 4643 0848 76080000 		.4byte	.LASF126
 4644 084c 03       		.byte	0x3
 4645 084d 0101     		.2byte	0x101
 4646 084f 01       		.byte	0x1
 4647 0850 3E000000 		.4byte	0x3e
 4648 0854 44070000 		.4byte	.LFB19
 4649 0858 DC0E0000 		.4byte	.LFE19
 4650 085c 0C020000 		.4byte	.LLST15
 4651 0860 01       		.byte	0x1
 4652 0861 160A0000 		.4byte	0xa16
 4653 0865 1F       		.uleb128 0x1f
 4654 0866 DA000000 		.4byte	.LASF120
 4655 086a 03       		.byte	0x3
 4656 086b 0101     		.2byte	0x101
 4657 086d 1E060000 		.4byte	0x61e
 4658 0871 03       		.byte	0x3
 4659 0872 91       		.byte	0x91
 4660 0873 9C7F     		.sleb128 -100
 4661 0875 1F       		.uleb128 0x1f
 4662 0876 70010000 		.4byte	.LASF125
 4663 087a 03       		.byte	0x3
 4664 087b 0101     		.2byte	0x101
 4665 087d 47040000 		.4byte	0x447
 4666 0881 03       		.byte	0x3
 4667 0882 91       		.byte	0x91
 4668 0883 987F     		.sleb128 -104
ARM GAS  G:\Users\Jaxb\AppData\Local\Temp\cc11Idxk.s 			page 101


 4669 0885 20       		.uleb128 0x20
 4670 0886 23040000 		.4byte	.LASF127
 4671 088a 03       		.byte	0x3
 4672 088b 0301     		.2byte	0x103
 4673 088d 3E000000 		.4byte	0x3e
 4674 0891 02       		.byte	0x2
 4675 0892 91       		.byte	0x91
 4676 0893 48       		.sleb128 -56
 4677 0894 20       		.uleb128 0x20
 4678 0895 DC060000 		.4byte	.LASF128
 4679 0899 03       		.byte	0x3
 4680 089a 0401     		.2byte	0x104
 4681 089c 75000000 		.4byte	0x75
 4682 08a0 02       		.byte	0x2
 4683 08a1 91       		.byte	0x91
 4684 08a2 6C       		.sleb128 -20
 4685 08a3 20       		.uleb128 0x20
 4686 08a4 53010000 		.4byte	.LASF105
 4687 08a8 03       		.byte	0x3
 4688 08a9 0401     		.2byte	0x104
 4689 08ab 75000000 		.4byte	0x75
 4690 08af 02       		.byte	0x2
 4691 08b0 91       		.byte	0x91
 4692 08b1 44       		.sleb128 -60
 4693 08b2 20       		.uleb128 0x20
 4694 08b3 9E030000 		.4byte	.LASF108
 4695 08b7 03       		.byte	0x3
 4696 08b8 0501     		.2byte	0x105
 4697 08ba A4000000 		.4byte	0xa4
 4698 08be 02       		.byte	0x2
 4699 08bf 91       		.byte	0x91
 4700 08c0 68       		.sleb128 -24
 4701 08c1 20       		.uleb128 0x20
 4702 08c2 D8030000 		.4byte	.LASF129
 4703 08c6 03       		.byte	0x3
 4704 08c7 0501     		.2byte	0x105
 4705 08c9 A4000000 		.4byte	0xa4
 4706 08cd 02       		.byte	0x2
 4707 08ce 91       		.byte	0x91
 4708 08cf 64       		.sleb128 -28
 4709 08d0 20       		.uleb128 0x20
 4710 08d1 3A040000 		.4byte	.LASF130
 4711 08d5 03       		.byte	0x3
 4712 08d6 0601     		.2byte	0x106
 4713 08d8 3E000000 		.4byte	0x3e
 4714 08dc 02       		.byte	0x2
 4715 08dd 91       		.byte	0x91
 4716 08de 60       		.sleb128 -32
 4717 08df 23       		.uleb128 0x23
 4718 08e0 360A0000 		.4byte	.LBB11
 4719 08e4 D00B0000 		.4byte	.LBE11
 4720 08e8 9C090000 		.4byte	0x99c
 4721 08ec 24       		.uleb128 0x24
 4722 08ed 6900     		.ascii	"i\000"
 4723 08ef 03       		.byte	0x3
 4724 08f0 6201     		.2byte	0x162
 4725 08f2 75000000 		.4byte	0x75
ARM GAS  G:\Users\Jaxb\AppData\Local\Temp\cc11Idxk.s 			page 102


 4726 08f6 02       		.byte	0x2
 4727 08f7 91       		.byte	0x91
 4728 08f8 5C       		.sleb128 -36
 4729 08f9 20       		.uleb128 0x20
 4730 08fa 92080000 		.4byte	.LASF131
 4731 08fe 03       		.byte	0x3
 4732 08ff 6201     		.2byte	0x162
 4733 0901 75000000 		.4byte	0x75
 4734 0905 03       		.byte	0x3
 4735 0906 91       		.byte	0x91
 4736 0907 A87F     		.sleb128 -88
 4737 0909 20       		.uleb128 0x20
 4738 090a 47000000 		.4byte	.LASF132
 4739 090e 03       		.byte	0x3
 4740 090f 6301     		.2byte	0x163
 4741 0911 160A0000 		.4byte	0xa16
 4742 0915 03       		.byte	0x3
 4743 0916 91       		.byte	0x91
 4744 0917 B07F     		.sleb128 -80
 4745 0919 24       		.uleb128 0x24
 4746 091a 72656C00 		.ascii	"rel\000"
 4747 091e 03       		.byte	0x3
 4748 091f 6401     		.2byte	0x164
 4749 0921 1C0A0000 		.4byte	0xa1c
 4750 0925 02       		.byte	0x2
 4751 0926 91       		.byte	0x91
 4752 0927 58       		.sleb128 -40
 4753 0928 20       		.uleb128 0x20
 4754 0929 BD020000 		.4byte	.LASF133
 4755 092d 03       		.byte	0x3
 4756 092e 6501     		.2byte	0x165
 4757 0930 16080000 		.4byte	0x816
 4758 0934 03       		.byte	0x3
 4759 0935 91       		.byte	0x91
 4760 0936 AC7F     		.sleb128 -84
 4761 0938 20       		.uleb128 0x20
 4762 0939 0B020000 		.4byte	.LASF134
 4763 093d 03       		.byte	0x3
 4764 093e 6601     		.2byte	0x166
 4765 0940 3E000000 		.4byte	0x3e
 4766 0944 05       		.byte	0x5
 4767 0945 03       		.byte	0x3
 4768 0946 10000000 		.4byte	unsolved.4543
 4769 094a 25       		.uleb128 0x25
 4770 094b 020B0000 		.4byte	.LBB12
 4771 094f B20B0000 		.4byte	.LBE12
 4772 0953 24       		.uleb128 0x24
 4773 0954 73796D00 		.ascii	"sym\000"
 4774 0958 03       		.byte	0x3
 4775 0959 7801     		.2byte	0x178
 4776 095b 160A0000 		.4byte	0xa16
 4777 095f 03       		.byte	0x3
 4778 0960 91       		.byte	0x91
 4779 0961 A47F     		.sleb128 -92
 4780 0963 23       		.uleb128 0x23
 4781 0964 240B0000 		.4byte	.LBB13
 4782 0968 4A0B0000 		.4byte	.LBE13
ARM GAS  G:\Users\Jaxb\AppData\Local\Temp\cc11Idxk.s 			page 103


 4783 096c 81090000 		.4byte	0x981
 4784 0970 20       		.uleb128 0x20
 4785 0971 D5000000 		.4byte	.LASF113
 4786 0975 03       		.byte	0x3
 4787 0976 7E01     		.2byte	0x17e
 4788 0978 A4000000 		.4byte	0xa4
 4789 097c 03       		.byte	0x3
 4790 097d 91       		.byte	0x91
 4791 097e A07F     		.sleb128 -96
 4792 0980 00       		.byte	0
 4793 0981 25       		.uleb128 0x25
 4794 0982 500B0000 		.4byte	.LBB14
 4795 0986 AA0B0000 		.4byte	.LBE14
 4796 098a 20       		.uleb128 0x20
 4797 098b D5000000 		.4byte	.LASF113
 4798 098f 03       		.byte	0x3
 4799 0990 8801     		.2byte	0x188
 4800 0992 A4000000 		.4byte	0xa4
 4801 0996 02       		.byte	0x2
 4802 0997 91       		.byte	0x91
 4803 0998 54       		.sleb128 -44
 4804 0999 00       		.byte	0
 4805 099a 00       		.byte	0
 4806 099b 00       		.byte	0
 4807 099c 26       		.uleb128 0x26
 4808 099d 00000000 		.4byte	.Ldebug_ranges0+0
 4809 09a1 B5090000 		.4byte	0x9b5
 4810 09a5 20       		.uleb128 0x20
 4811 09a6 96050000 		.4byte	.LASF135
 4812 09aa 03       		.byte	0x3
 4813 09ab A501     		.2byte	0x1a5
 4814 09ad 16080000 		.4byte	0x816
 4815 09b1 02       		.byte	0x2
 4816 09b2 91       		.byte	0x91
 4817 09b3 40       		.sleb128 -64
 4818 09b4 00       		.byte	0
 4819 09b5 25       		.uleb128 0x25
 4820 09b6 560C0000 		.4byte	.LBB17
 4821 09ba C80E0000 		.4byte	.LBE17
 4822 09be 24       		.uleb128 0x24
 4823 09bf 6900     		.ascii	"i\000"
 4824 09c1 03       		.byte	0x3
 4825 09c2 AE01     		.2byte	0x1ae
 4826 09c4 3E000000 		.4byte	0x3e
 4827 09c8 02       		.byte	0x2
 4828 09c9 91       		.byte	0x91
 4829 09ca 50       		.sleb128 -48
 4830 09cb 20       		.uleb128 0x20
 4831 09cc 00000000 		.4byte	.LASF136
 4832 09d0 03       		.byte	0x3
 4833 09d1 AE01     		.2byte	0x1ae
 4834 09d3 3E000000 		.4byte	0x3e
 4835 09d7 02       		.byte	0x2
 4836 09d8 91       		.byte	0x91
 4837 09d9 4C       		.sleb128 -52
 4838 09da 20       		.uleb128 0x20
 4839 09db 47000000 		.4byte	.LASF132
ARM GAS  G:\Users\Jaxb\AppData\Local\Temp\cc11Idxk.s 			page 104


 4840 09df 03       		.byte	0x3
 4841 09e0 AF01     		.2byte	0x1af
 4842 09e2 160A0000 		.4byte	0xa16
 4843 09e6 03       		.byte	0x3
 4844 09e7 91       		.byte	0x91
 4845 09e8 BC7F     		.sleb128 -68
 4846 09ea 20       		.uleb128 0x20
 4847 09eb BD020000 		.4byte	.LASF133
 4848 09ef 03       		.byte	0x3
 4849 09f0 B001     		.2byte	0x1b0
 4850 09f2 16080000 		.4byte	0x816
 4851 09f6 03       		.byte	0x3
 4852 09f7 91       		.byte	0x91
 4853 09f8 B87F     		.sleb128 -72
 4854 09fa 25       		.uleb128 0x25
 4855 09fb B40D0000 		.4byte	.LBB18
 4856 09ff A20E0000 		.4byte	.LBE18
 4857 0a03 20       		.uleb128 0x20
 4858 0a04 45070000 		.4byte	.LASF137
 4859 0a08 03       		.byte	0x3
 4860 0a09 CD01     		.2byte	0x1cd
 4861 0a0b 220A0000 		.4byte	0xa22
 4862 0a0f 03       		.byte	0x3
 4863 0a10 91       		.byte	0x91
 4864 0a11 B47F     		.sleb128 -76
 4865 0a13 00       		.byte	0
 4866 0a14 00       		.byte	0
 4867 0a15 00       		.byte	0
 4868 0a16 0C       		.uleb128 0xc
 4869 0a17 04       		.byte	0x4
 4870 0a18 C8020000 		.4byte	0x2c8
 4871 0a1c 0C       		.uleb128 0xc
 4872 0a1d 04       		.byte	0x4
 4873 0a1e F8020000 		.4byte	0x2f8
 4874 0a22 02       		.uleb128 0x2
 4875 0a23 04       		.byte	0x4
 4876 0a24 07       		.byte	0x7
 4877 0a25 D0020000 		.4byte	.LASF138
 4878 0a29 27       		.uleb128 0x27
 4879 0a2a 01       		.byte	0x1
 4880 0a2b 4C080000 		.4byte	.LASF139
 4881 0a2f 03       		.byte	0x3
 4882 0a30 96       		.byte	0x96
 4883 0a31 01       		.byte	0x1
 4884 0a32 3E000000 		.4byte	0x3e
 4885 0a36 48040000 		.4byte	.LFB18
 4886 0a3a 44070000 		.4byte	.LFE18
 4887 0a3e 5E020000 		.4byte	.LLST14
 4888 0a42 01       		.byte	0x1
 4889 0a43 EE0A0000 		.4byte	0xaee
 4890 0a47 28       		.uleb128 0x28
 4891 0a48 DA000000 		.4byte	.LASF120
 4892 0a4c 03       		.byte	0x3
 4893 0a4d 96       		.byte	0x96
 4894 0a4e 1E060000 		.4byte	0x61e
 4895 0a52 02       		.byte	0x2
 4896 0a53 91       		.byte	0x91
ARM GAS  G:\Users\Jaxb\AppData\Local\Temp\cc11Idxk.s 			page 105


 4897 0a54 4C       		.sleb128 -52
 4898 0a55 29       		.uleb128 0x29
 4899 0a56 72656C00 		.ascii	"rel\000"
 4900 0a5a 03       		.byte	0x3
 4901 0a5b 96       		.byte	0x96
 4902 0a5c 1C0A0000 		.4byte	0xa1c
 4903 0a60 02       		.byte	0x2
 4904 0a61 91       		.byte	0x91
 4905 0a62 48       		.sleb128 -56
 4906 0a63 28       		.uleb128 0x28
 4907 0a64 5C000000 		.4byte	.LASF140
 4908 0a68 03       		.byte	0x3
 4909 0a69 96       		.byte	0x96
 4910 0a6a A4000000 		.4byte	0xa4
 4911 0a6e 02       		.byte	0x2
 4912 0a6f 91       		.byte	0x91
 4913 0a70 44       		.sleb128 -60
 4914 0a71 17       		.uleb128 0x17
 4915 0a72 4E000000 		.4byte	.LASF141
 4916 0a76 03       		.byte	0x3
 4917 0a77 98       		.byte	0x98
 4918 0a78 EE0A0000 		.4byte	0xaee
 4919 0a7c 02       		.byte	0x2
 4920 0a7d 91       		.byte	0x91
 4921 0a7e 6C       		.sleb128 -20
 4922 0a7f 18       		.uleb128 0x18
 4923 0a80 746D7000 		.ascii	"tmp\000"
 4924 0a84 03       		.byte	0x3
 4925 0a85 98       		.byte	0x98
 4926 0a86 A4000000 		.4byte	0xa4
 4927 0a8a 02       		.byte	0x2
 4928 0a8b 91       		.byte	0x91
 4929 0a8c 54       		.sleb128 -44
 4930 0a8d 17       		.uleb128 0x17
 4931 0a8e 86010000 		.4byte	.LASF142
 4932 0a92 03       		.byte	0x3
 4933 0a93 99       		.byte	0x99
 4934 0a94 BA000000 		.4byte	0xba
 4935 0a98 02       		.byte	0x2
 4936 0a99 91       		.byte	0x91
 4937 0a9a 74       		.sleb128 -12
 4938 0a9b 17       		.uleb128 0x17
 4939 0a9c 36070000 		.4byte	.LASF143
 4940 0aa0 03       		.byte	0x3
 4941 0aa1 99       		.byte	0x99
 4942 0aa2 BA000000 		.4byte	0xba
 4943 0aa6 02       		.byte	0x2
 4944 0aa7 91       		.byte	0x91
 4945 0aa8 70       		.sleb128 -16
 4946 0aa9 17       		.uleb128 0x17
 4947 0aaa D0010000 		.4byte	.LASF144
 4948 0aae 03       		.byte	0x3
 4949 0aaf 9A       		.byte	0x9a
 4950 0ab0 75000000 		.4byte	0x75
 4951 0ab4 02       		.byte	0x2
 4952 0ab5 91       		.byte	0x91
 4953 0ab6 68       		.sleb128 -24
ARM GAS  G:\Users\Jaxb\AppData\Local\Temp\cc11Idxk.s 			page 106


 4954 0ab7 17       		.uleb128 0x17
 4955 0ab8 E9000000 		.4byte	.LASF145
 4956 0abc 03       		.byte	0x3
 4957 0abd 9A       		.byte	0x9a
 4958 0abe 75000000 		.4byte	0x75
 4959 0ac2 02       		.byte	0x2
 4960 0ac3 91       		.byte	0x91
 4961 0ac4 64       		.sleb128 -28
 4962 0ac5 17       		.uleb128 0x17
 4963 0ac6 8D010000 		.4byte	.LASF146
 4964 0aca 03       		.byte	0x3
 4965 0acb 9A       		.byte	0x9a
 4966 0acc 75000000 		.4byte	0x75
 4967 0ad0 02       		.byte	0x2
 4968 0ad1 91       		.byte	0x91
 4969 0ad2 60       		.sleb128 -32
 4970 0ad3 18       		.uleb128 0x18
 4971 0ad4 6A3100   		.ascii	"j1\000"
 4972 0ad7 03       		.byte	0x3
 4973 0ad8 9A       		.byte	0x9a
 4974 0ad9 75000000 		.4byte	0x75
 4975 0add 02       		.byte	0x2
 4976 0ade 91       		.byte	0x91
 4977 0adf 5C       		.sleb128 -36
 4978 0ae0 18       		.uleb128 0x18
 4979 0ae1 6A3200   		.ascii	"j2\000"
 4980 0ae4 03       		.byte	0x3
 4981 0ae5 9A       		.byte	0x9a
 4982 0ae6 75000000 		.4byte	0x75
 4983 0aea 02       		.byte	0x2
 4984 0aeb 91       		.byte	0x91
 4985 0aec 58       		.sleb128 -40
 4986 0aed 00       		.byte	0
 4987 0aee 0C       		.uleb128 0xc
 4988 0aef 04       		.byte	0x4
 4989 0af0 A4000000 		.4byte	0xa4
 4990 0af4 27       		.uleb128 0x27
 4991 0af5 01       		.byte	0x1
 4992 0af6 F6010000 		.4byte	.LASF147
 4993 0afa 03       		.byte	0x3
 4994 0afb 8A       		.byte	0x8a
 4995 0afc 01       		.byte	0x1
 4996 0afd 3E000000 		.4byte	0x3e
 4997 0b01 08040000 		.4byte	.LFB17
 4998 0b05 48040000 		.4byte	.LFE17
 4999 0b09 B0020000 		.4byte	.LLST13
 5000 0b0d 01       		.byte	0x1
 5001 0b0e 210B0000 		.4byte	0xb21
 5002 0b12 28       		.uleb128 0x28
 5003 0b13 C6080000 		.4byte	.LASF96
 5004 0b17 03       		.byte	0x3
 5005 0b18 8A       		.byte	0x8a
 5006 0b19 1E060000 		.4byte	0x61e
 5007 0b1d 02       		.byte	0x2
 5008 0b1e 91       		.byte	0x91
 5009 0b1f 74       		.sleb128 -12
 5010 0b20 00       		.byte	0
ARM GAS  G:\Users\Jaxb\AppData\Local\Temp\cc11Idxk.s 			page 107


 5011 0b21 2A       		.uleb128 0x2a
 5012 0b22 5C040000 		.4byte	.LASF154
 5013 0b26 03       		.byte	0x3
 5014 0b27 73       		.byte	0x73
 5015 0b28 01       		.byte	0x1
 5016 0b29 3E000000 		.4byte	0x3e
 5017 0b2d 70030000 		.4byte	.LFB16
 5018 0b31 08040000 		.4byte	.LFE16
 5019 0b35 00030000 		.4byte	.LLST12
 5020 0b39 01       		.byte	0x1
 5021 0b3a 590B0000 		.4byte	0xb59
 5022 0b3e 28       		.uleb128 0x28
 5023 0b3f C6080000 		.4byte	.LASF96
 5024 0b43 03       		.byte	0x3
 5025 0b44 73       		.byte	0x73
 5026 0b45 1E060000 		.4byte	0x61e
 5027 0b49 02       		.byte	0x2
 5028 0b4a 91       		.byte	0x91
 5029 0b4b 6C       		.sleb128 -20
 5030 0b4c 18       		.uleb128 0x18
 5031 0b4d 6900     		.ascii	"i\000"
 5032 0b4f 03       		.byte	0x3
 5033 0b50 7F       		.byte	0x7f
 5034 0b51 80000000 		.4byte	0x80
 5035 0b55 02       		.byte	0x2
 5036 0b56 91       		.byte	0x91
 5037 0b57 74       		.sleb128 -12
 5038 0b58 00       		.byte	0
 5039 0b59 2B       		.uleb128 0x2b
 5040 0b5a 01       		.byte	0x1
 5041 0b5b BB030000 		.4byte	.LASF148
 5042 0b5f 03       		.byte	0x3
 5043 0b60 58       		.byte	0x58
 5044 0b61 01       		.byte	0x1
 5045 0b62 E4020000 		.4byte	.LFB15
 5046 0b66 70030000 		.4byte	.LFE15
 5047 0b6a 50030000 		.4byte	.LLST11
 5048 0b6e 01       		.byte	0x1
 5049 0b6f EB0B0000 		.4byte	0xbeb
 5050 0b73 28       		.uleb128 0x28
 5051 0b74 E8020000 		.4byte	.LASF149
 5052 0b78 03       		.byte	0x3
 5053 0b79 58       		.byte	0x58
 5054 0b7a 3E000000 		.4byte	0x3e
 5055 0b7e 02       		.byte	0x2
 5056 0b7f 91       		.byte	0x91
 5057 0b80 64       		.sleb128 -28
 5058 0b81 28       		.uleb128 0x28
 5059 0b82 71080000 		.4byte	.LASF150
 5060 0b86 03       		.byte	0x3
 5061 0b87 58       		.byte	0x58
 5062 0b88 EB0B0000 		.4byte	0xbeb
 5063 0b8c 02       		.byte	0x2
 5064 0b8d 91       		.byte	0x91
 5065 0b8e 60       		.sleb128 -32
 5066 0b8f 2C       		.uleb128 0x2c
 5067 0b90 6F757400 		.ascii	"out\000"
ARM GAS  G:\Users\Jaxb\AppData\Local\Temp\cc11Idxk.s 			page 108


 5068 0b94 03       		.byte	0x3
 5069 0b95 6E       		.byte	0x6e
 5070 0b96 50030000 		.4byte	.L40
 5071 0b9a 17       		.uleb128 0x17
 5072 0b9b 1B070000 		.4byte	.LASF152
 5073 0b9f 03       		.byte	0x3
 5074 0ba0 5E       		.byte	0x5e
 5075 0ba1 3B050000 		.4byte	0x53b
 5076 0ba5 02       		.byte	0x2
 5077 0ba6 91       		.byte	0x91
 5078 0ba7 70       		.sleb128 -16
 5079 0ba8 17       		.uleb128 0x17
 5080 0ba9 C6080000 		.4byte	.LASF96
 5081 0bad 03       		.byte	0x3
 5082 0bae 63       		.byte	0x63
 5083 0baf 1E060000 		.4byte	0x61e
 5084 0bb3 02       		.byte	0x2
 5085 0bb4 91       		.byte	0x91
 5086 0bb5 74       		.sleb128 -12
 5087 0bb6 23       		.uleb128 0x23
 5088 0bb7 06030000 		.4byte	.LBB9
 5089 0bbb 10030000 		.4byte	.LBE9
 5090 0bbf D20B0000 		.4byte	0xbd2
 5091 0bc3 17       		.uleb128 0x17
 5092 0bc4 EE030000 		.4byte	.LASF153
 5093 0bc8 03       		.byte	0x3
 5094 0bc9 64       		.byte	0x64
 5095 0bca F10B0000 		.4byte	0xbf1
 5096 0bce 02       		.byte	0x2
 5097 0bcf 91       		.byte	0x91
 5098 0bd0 6C       		.sleb128 -20
 5099 0bd1 00       		.byte	0
 5100 0bd2 25       		.uleb128 0x25
 5101 0bd3 2C030000 		.4byte	.LBB10
 5102 0bd7 36030000 		.4byte	.LBE10
 5103 0bdb 17       		.uleb128 0x17
 5104 0bdc EE030000 		.4byte	.LASF153
 5105 0be0 03       		.byte	0x3
 5106 0be1 64       		.byte	0x64
 5107 0be2 F10B0000 		.4byte	0xbf1
 5108 0be6 02       		.byte	0x2
 5109 0be7 91       		.byte	0x91
 5110 0be8 68       		.sleb128 -24
 5111 0be9 00       		.byte	0
 5112 0bea 00       		.byte	0
 5113 0beb 0C       		.uleb128 0xc
 5114 0bec 04       		.byte	0x4
 5115 0bed 58060000 		.4byte	0x658
 5116 0bf1 0C       		.uleb128 0xc
 5117 0bf2 04       		.byte	0x4
 5118 0bf3 B0030000 		.4byte	0x3b0
 5119 0bf7 2A       		.uleb128 0x2a
 5120 0bf8 79050000 		.4byte	.LASF155
 5121 0bfc 03       		.byte	0x3
 5122 0bfd 42       		.byte	0x42
 5123 0bfe 01       		.byte	0x1
 5124 0bff 75000000 		.4byte	0x75
ARM GAS  G:\Users\Jaxb\AppData\Local\Temp\cc11Idxk.s 			page 109


 5125 0c03 6C020000 		.4byte	.LFB14
 5126 0c07 E4020000 		.4byte	.LFE14
 5127 0c0b A0030000 		.4byte	.LLST10
 5128 0c0f 01       		.byte	0x1
 5129 0c10 7F0C0000 		.4byte	0xc7f
 5130 0c14 28       		.uleb128 0x28
 5131 0c15 65030000 		.4byte	.LASF156
 5132 0c19 03       		.byte	0x3
 5133 0c1a 42       		.byte	0x42
 5134 0c1b 58060000 		.4byte	0x658
 5135 0c1f 02       		.byte	0x2
 5136 0c20 91       		.byte	0x91
 5137 0c21 64       		.sleb128 -28
 5138 0c22 17       		.uleb128 0x17
 5139 0c23 C6080000 		.4byte	.LASF96
 5140 0c27 03       		.byte	0x3
 5141 0c28 44       		.byte	0x44
 5142 0c29 1E060000 		.4byte	0x61e
 5143 0c2d 02       		.byte	0x2
 5144 0c2e 91       		.byte	0x91
 5145 0c2f 74       		.sleb128 -12
 5146 0c30 23       		.uleb128 0x23
 5147 0c31 74020000 		.4byte	.LBB6
 5148 0c35 7E020000 		.4byte	.LBE6
 5149 0c39 4C0C0000 		.4byte	0xc4c
 5150 0c3d 17       		.uleb128 0x17
 5151 0c3e EE030000 		.4byte	.LASF153
 5152 0c42 03       		.byte	0x3
 5153 0c43 45       		.byte	0x45
 5154 0c44 F10B0000 		.4byte	0xbf1
 5155 0c48 02       		.byte	0x2
 5156 0c49 91       		.byte	0x91
 5157 0c4a 6C       		.sleb128 -20
 5158 0c4b 00       		.byte	0
 5159 0c4c 23       		.uleb128 0x23
 5160 0c4d 82020000 		.4byte	.LBB7
 5161 0c51 C0020000 		.4byte	.LBE7
 5162 0c55 660C0000 		.4byte	0xc66
 5163 0c59 18       		.uleb128 0x18
 5164 0c5a 6900     		.ascii	"i\000"
 5165 0c5c 03       		.byte	0x3
 5166 0c5d 47       		.byte	0x47
 5167 0c5e 80000000 		.4byte	0x80
 5168 0c62 02       		.byte	0x2
 5169 0c63 91       		.byte	0x91
 5170 0c64 70       		.sleb128 -16
 5171 0c65 00       		.byte	0
 5172 0c66 25       		.uleb128 0x25
 5173 0c67 C0020000 		.4byte	.LBB8
 5174 0c6b CA020000 		.4byte	.LBE8
 5175 0c6f 17       		.uleb128 0x17
 5176 0c70 EE030000 		.4byte	.LASF153
 5177 0c74 03       		.byte	0x3
 5178 0c75 45       		.byte	0x45
 5179 0c76 F10B0000 		.4byte	0xbf1
 5180 0c7a 02       		.byte	0x2
 5181 0c7b 91       		.byte	0x91
ARM GAS  G:\Users\Jaxb\AppData\Local\Temp\cc11Idxk.s 			page 110


 5182 0c7c 68       		.sleb128 -24
 5183 0c7d 00       		.byte	0
 5184 0c7e 00       		.byte	0
 5185 0c7f 2B       		.uleb128 0x2b
 5186 0c80 01       		.byte	0x1
 5187 0c81 1C020000 		.4byte	.LASF157
 5188 0c85 03       		.byte	0x3
 5189 0c86 36       		.byte	0x36
 5190 0c87 01       		.byte	0x1
 5191 0c88 0C020000 		.4byte	.LFB13
 5192 0c8c 6C020000 		.4byte	.LFE13
 5193 0c90 F0030000 		.4byte	.LLST9
 5194 0c94 01       		.byte	0x1
 5195 0c95 040D0000 		.4byte	0xd04
 5196 0c99 28       		.uleb128 0x28
 5197 0c9a E8020000 		.4byte	.LASF149
 5198 0c9e 03       		.byte	0x3
 5199 0c9f 36       		.byte	0x36
 5200 0ca0 3E000000 		.4byte	0x3e
 5201 0ca4 02       		.byte	0x2
 5202 0ca5 91       		.byte	0x91
 5203 0ca6 64       		.sleb128 -28
 5204 0ca7 28       		.uleb128 0x28
 5205 0ca8 71080000 		.4byte	.LASF150
 5206 0cac 03       		.byte	0x3
 5207 0cad 36       		.byte	0x36
 5208 0cae EB0B0000 		.4byte	0xbeb
 5209 0cb2 02       		.byte	0x2
 5210 0cb3 91       		.byte	0x91
 5211 0cb4 60       		.sleb128 -32
 5212 0cb5 17       		.uleb128 0x17
 5213 0cb6 C6080000 		.4byte	.LASF96
 5214 0cba 03       		.byte	0x3
 5215 0cbb 38       		.byte	0x38
 5216 0cbc 1E060000 		.4byte	0x61e
 5217 0cc0 02       		.byte	0x2
 5218 0cc1 91       		.byte	0x91
 5219 0cc2 74       		.sleb128 -12
 5220 0cc3 18       		.uleb128 0x18
 5221 0cc4 6900     		.ascii	"i\000"
 5222 0cc6 03       		.byte	0x3
 5223 0cc7 39       		.byte	0x39
 5224 0cc8 80000000 		.4byte	0x80
 5225 0ccc 02       		.byte	0x2
 5226 0ccd 91       		.byte	0x91
 5227 0cce 70       		.sleb128 -16
 5228 0ccf 23       		.uleb128 0x23
 5229 0cd0 1A020000 		.4byte	.LBB4
 5230 0cd4 24020000 		.4byte	.LBE4
 5231 0cd8 EB0C0000 		.4byte	0xceb
 5232 0cdc 17       		.uleb128 0x17
 5233 0cdd EE030000 		.4byte	.LASF153
 5234 0ce1 03       		.byte	0x3
 5235 0ce2 3A       		.byte	0x3a
 5236 0ce3 F10B0000 		.4byte	0xbf1
 5237 0ce7 02       		.byte	0x2
 5238 0ce8 91       		.byte	0x91
ARM GAS  G:\Users\Jaxb\AppData\Local\Temp\cc11Idxk.s 			page 111


 5239 0ce9 6C       		.sleb128 -20
 5240 0cea 00       		.byte	0
 5241 0ceb 25       		.uleb128 0x25
 5242 0cec 38020000 		.4byte	.LBB5
 5243 0cf0 42020000 		.4byte	.LBE5
 5244 0cf4 17       		.uleb128 0x17
 5245 0cf5 EE030000 		.4byte	.LASF153
 5246 0cf9 03       		.byte	0x3
 5247 0cfa 3A       		.byte	0x3a
 5248 0cfb F10B0000 		.4byte	0xbf1
 5249 0cff 02       		.byte	0x2
 5250 0d00 91       		.byte	0x91
 5251 0d01 68       		.sleb128 -24
 5252 0d02 00       		.byte	0
 5253 0d03 00       		.byte	0
 5254 0d04 2B       		.uleb128 0x2b
 5255 0d05 01       		.byte	0x1
 5256 0d06 FC060000 		.4byte	.LASF158
 5257 0d0a 03       		.byte	0x3
 5258 0d0b 18       		.byte	0x18
 5259 0d0c 01       		.byte	0x1
 5260 0d0d 00010000 		.4byte	.LFB12
 5261 0d11 0C020000 		.4byte	.LFE12
 5262 0d15 40040000 		.4byte	.LLST8
 5263 0d19 01       		.byte	0x1
 5264 0d1a 890D0000 		.4byte	0xd89
 5265 0d1e 28       		.uleb128 0x28
 5266 0d1f E8020000 		.4byte	.LASF149
 5267 0d23 03       		.byte	0x3
 5268 0d24 18       		.byte	0x18
 5269 0d25 3E000000 		.4byte	0x3e
 5270 0d29 02       		.byte	0x2
 5271 0d2a 91       		.byte	0x91
 5272 0d2b 64       		.sleb128 -28
 5273 0d2c 28       		.uleb128 0x28
 5274 0d2d 71080000 		.4byte	.LASF150
 5275 0d31 03       		.byte	0x3
 5276 0d32 18       		.byte	0x18
 5277 0d33 EB0B0000 		.4byte	0xbeb
 5278 0d37 02       		.byte	0x2
 5279 0d38 91       		.byte	0x91
 5280 0d39 60       		.sleb128 -32
 5281 0d3a 17       		.uleb128 0x17
 5282 0d3b C6080000 		.4byte	.LASF96
 5283 0d3f 03       		.byte	0x3
 5284 0d40 1A       		.byte	0x1a
 5285 0d41 1E060000 		.4byte	0x61e
 5286 0d45 02       		.byte	0x2
 5287 0d46 91       		.byte	0x91
 5288 0d47 74       		.sleb128 -12
 5289 0d48 18       		.uleb128 0x18
 5290 0d49 6900     		.ascii	"i\000"
 5291 0d4b 03       		.byte	0x3
 5292 0d4c 1B       		.byte	0x1b
 5293 0d4d 80000000 		.4byte	0x80
 5294 0d51 02       		.byte	0x2
 5295 0d52 91       		.byte	0x91
ARM GAS  G:\Users\Jaxb\AppData\Local\Temp\cc11Idxk.s 			page 112


 5296 0d53 70       		.sleb128 -16
 5297 0d54 23       		.uleb128 0x23
 5298 0d55 0A010000 		.4byte	.LBB2
 5299 0d59 14010000 		.4byte	.LBE2
 5300 0d5d 700D0000 		.4byte	0xd70
 5301 0d61 17       		.uleb128 0x17
 5302 0d62 EE030000 		.4byte	.LASF153
 5303 0d66 03       		.byte	0x3
 5304 0d67 1C       		.byte	0x1c
 5305 0d68 F10B0000 		.4byte	0xbf1
 5306 0d6c 02       		.byte	0x2
 5307 0d6d 91       		.byte	0x91
 5308 0d6e 6C       		.sleb128 -20
 5309 0d6f 00       		.byte	0
 5310 0d70 25       		.uleb128 0x25
 5311 0d71 B8010000 		.4byte	.LBB3
 5312 0d75 C2010000 		.4byte	.LBE3
 5313 0d79 17       		.uleb128 0x17
 5314 0d7a EE030000 		.4byte	.LASF153
 5315 0d7e 03       		.byte	0x3
 5316 0d7f 1C       		.byte	0x1c
 5317 0d80 F10B0000 		.4byte	0xbf1
 5318 0d84 02       		.byte	0x2
 5319 0d85 91       		.byte	0x91
 5320 0d86 68       		.sleb128 -24
 5321 0d87 00       		.byte	0
 5322 0d88 00       		.byte	0
 5323 0d89 2D       		.uleb128 0x2d
 5324 0d8a 01       		.byte	0x1
 5325 0d8b E2060000 		.4byte	.LASF159
 5326 0d8f 03       		.byte	0x3
 5327 0d90 13       		.byte	0x13
 5328 0d91 01       		.byte	0x1
 5329 0d92 EE000000 		.4byte	.LFB11
 5330 0d96 00010000 		.4byte	.LFE11
 5331 0d9a 90040000 		.4byte	.LLST7
 5332 0d9e 01       		.byte	0x1
 5333 0d9f 2E       		.uleb128 0x2e
 5334 0da0 84000000 		.4byte	.LASF161
 5335 0da4 02       		.byte	0x2
 5336 0da5 36       		.byte	0x36
 5337 0da6 01       		.byte	0x1
 5338 0da7 CE000000 		.4byte	.LFB10
 5339 0dab EE000000 		.4byte	.LFE10
 5340 0daf BC040000 		.4byte	.LLST6
 5341 0db3 01       		.byte	0x1
 5342 0db4 D50D0000 		.4byte	0xdd5
 5343 0db8 28       		.uleb128 0x28
 5344 0db9 C6080000 		.4byte	.LASF96
 5345 0dbd 02       		.byte	0x2
 5346 0dbe 36       		.byte	0x36
 5347 0dbf 1E060000 		.4byte	0x61e
 5348 0dc3 02       		.byte	0x2
 5349 0dc4 91       		.byte	0x91
 5350 0dc5 74       		.sleb128 -12
 5351 0dc6 28       		.uleb128 0x28
 5352 0dc7 92010000 		.4byte	.LASF162
ARM GAS  G:\Users\Jaxb\AppData\Local\Temp\cc11Idxk.s 			page 113


 5353 0dcb 02       		.byte	0x2
 5354 0dcc 36       		.byte	0x36
 5355 0dcd 75000000 		.4byte	0x75
 5356 0dd1 02       		.byte	0x2
 5357 0dd2 91       		.byte	0x91
 5358 0dd3 70       		.sleb128 -16
 5359 0dd4 00       		.byte	0
 5360 0dd5 2F       		.uleb128 0x2f
 5361 0dd6 69000000 		.4byte	.LASF163
 5362 0dda 01       		.byte	0x1
 5363 0ddb 52       		.byte	0x52
 5364 0ddc 01       		.byte	0x1
 5365 0ddd 3E000000 		.4byte	0x3e
 5366 0de1 AC000000 		.4byte	.LFB9
 5367 0de5 CE000000 		.4byte	.LFE9
 5368 0de9 18050000 		.4byte	.LLST5
 5369 0ded 01       		.byte	0x1
 5370 0dee 010E0000 		.4byte	0xe01
 5371 0df2 28       		.uleb128 0x28
 5372 0df3 79060000 		.4byte	.LASF164
 5373 0df7 01       		.byte	0x1
 5374 0df8 52       		.byte	0x52
 5375 0df9 F10B0000 		.4byte	0xbf1
 5376 0dfd 02       		.byte	0x2
 5377 0dfe 91       		.byte	0x91
 5378 0dff 74       		.sleb128 -12
 5379 0e00 00       		.byte	0
 5380 0e01 30       		.uleb128 0x30
 5381 0e02 5E080000 		.4byte	.LASF165
 5382 0e06 01       		.byte	0x1
 5383 0e07 35       		.byte	0x35
 5384 0e08 01       		.byte	0x1
 5385 0e09 8C000000 		.4byte	.LFB5
 5386 0e0d AC000000 		.4byte	.LFE5
 5387 0e11 74050000 		.4byte	.LLST4
 5388 0e15 01       		.byte	0x1
 5389 0e16 290E0000 		.4byte	0xe29
 5390 0e1a 28       		.uleb128 0x28
 5391 0e1b A8000000 		.4byte	.LASF107
 5392 0e1f 01       		.byte	0x1
 5393 0e20 35       		.byte	0x35
 5394 0e21 B5030000 		.4byte	0x3b5
 5395 0e25 02       		.byte	0x2
 5396 0e26 91       		.byte	0x91
 5397 0e27 74       		.sleb128 -12
 5398 0e28 00       		.byte	0
 5399 0e29 2E       		.uleb128 0x2e
 5400 0e2a 57020000 		.4byte	.LASF166
 5401 0e2e 01       		.byte	0x1
 5402 0e2f 2E       		.byte	0x2e
 5403 0e30 01       		.byte	0x1
 5404 0e31 6C000000 		.4byte	.LFB4
 5405 0e35 8C000000 		.4byte	.LFE4
 5406 0e39 C4050000 		.4byte	.LLST3
 5407 0e3d 01       		.byte	0x1
 5408 0e3e 5F0E0000 		.4byte	0xe5f
 5409 0e42 28       		.uleb128 0x28
ARM GAS  G:\Users\Jaxb\AppData\Local\Temp\cc11Idxk.s 			page 114


 5410 0e43 64000000 		.4byte	.LASF67
 5411 0e47 01       		.byte	0x1
 5412 0e48 2E       		.byte	0x2e
 5413 0e49 B5030000 		.4byte	0x3b5
 5414 0e4d 02       		.byte	0x2
 5415 0e4e 91       		.byte	0x91
 5416 0e4f 74       		.sleb128 -12
 5417 0e50 28       		.uleb128 0x28
 5418 0e51 04010000 		.4byte	.LASF66
 5419 0e55 01       		.byte	0x1
 5420 0e56 2E       		.byte	0x2e
 5421 0e57 B5030000 		.4byte	0x3b5
 5422 0e5b 02       		.byte	0x2
 5423 0e5c 91       		.byte	0x91
 5424 0e5d 70       		.sleb128 -16
 5425 0e5e 00       		.byte	0
 5426 0e5f 30       		.uleb128 0x30
 5427 0e60 1B030000 		.4byte	.LASF167
 5428 0e64 01       		.byte	0x1
 5429 0e65 22       		.byte	0x22
 5430 0e66 01       		.byte	0x1
 5431 0e67 4C000000 		.4byte	.LFB2
 5432 0e6b 6C000000 		.4byte	.LFE2
 5433 0e6f 20060000 		.4byte	.LLST2
 5434 0e73 01       		.byte	0x1
 5435 0e74 950E0000 		.4byte	0xe95
 5436 0e78 29       		.uleb128 0x29
 5437 0e79 6E657700 		.ascii	"new\000"
 5438 0e7d 01       		.byte	0x1
 5439 0e7e 22       		.byte	0x22
 5440 0e7f B5030000 		.4byte	0x3b5
 5441 0e83 02       		.byte	0x2
 5442 0e84 91       		.byte	0x91
 5443 0e85 74       		.sleb128 -12
 5444 0e86 28       		.uleb128 0x28
 5445 0e87 79060000 		.4byte	.LASF164
 5446 0e8b 01       		.byte	0x1
 5447 0e8c 22       		.byte	0x22
 5448 0e8d B5030000 		.4byte	0x3b5
 5449 0e91 02       		.byte	0x2
 5450 0e92 91       		.byte	0x91
 5451 0e93 70       		.sleb128 -16
 5452 0e94 00       		.byte	0
 5453 0e95 2E       		.uleb128 0x2e
 5454 0e96 A3010000 		.4byte	.LASF168
 5455 0e9a 01       		.byte	0x1
 5456 0e9b 17       		.byte	0x17
 5457 0e9c 01       		.byte	0x1
 5458 0e9d 1E000000 		.4byte	.LFB1
 5459 0ea1 4C000000 		.4byte	.LFE1
 5460 0ea5 70060000 		.4byte	.LLST1
 5461 0ea9 01       		.byte	0x1
 5462 0eaa D90E0000 		.4byte	0xed9
 5463 0eae 29       		.uleb128 0x29
 5464 0eaf 6E657700 		.ascii	"new\000"
 5465 0eb3 01       		.byte	0x1
 5466 0eb4 17       		.byte	0x17
ARM GAS  G:\Users\Jaxb\AppData\Local\Temp\cc11Idxk.s 			page 115


 5467 0eb5 B5030000 		.4byte	0x3b5
 5468 0eb9 02       		.byte	0x2
 5469 0eba 91       		.byte	0x91
 5470 0ebb 74       		.sleb128 -12
 5471 0ebc 28       		.uleb128 0x28
 5472 0ebd 64000000 		.4byte	.LASF67
 5473 0ec1 01       		.byte	0x1
 5474 0ec2 18       		.byte	0x18
 5475 0ec3 B5030000 		.4byte	0x3b5
 5476 0ec7 02       		.byte	0x2
 5477 0ec8 91       		.byte	0x91
 5478 0ec9 70       		.sleb128 -16
 5479 0eca 28       		.uleb128 0x28
 5480 0ecb 04010000 		.4byte	.LASF66
 5481 0ecf 01       		.byte	0x1
 5482 0ed0 19       		.byte	0x19
 5483 0ed1 B5030000 		.4byte	0x3b5
 5484 0ed5 02       		.byte	0x2
 5485 0ed6 91       		.byte	0x91
 5486 0ed7 6C       		.sleb128 -20
 5487 0ed8 00       		.byte	0
 5488 0ed9 31       		.uleb128 0x31
 5489 0eda 04080000 		.4byte	.LASF175
 5490 0ede 01       		.byte	0x1
 5491 0edf 10       		.byte	0x10
 5492 0ee0 01       		.byte	0x1
 5493 0ee1 00000000 		.4byte	.LFB0
 5494 0ee5 1E000000 		.4byte	.LFE0
 5495 0ee9 CC060000 		.4byte	.LLST0
 5496 0eed 01       		.byte	0x1
 5497 0eee 28       		.uleb128 0x28
 5498 0eef 38030000 		.4byte	.LASF169
 5499 0ef3 01       		.byte	0x1
 5500 0ef4 10       		.byte	0x10
 5501 0ef5 B5030000 		.4byte	0x3b5
 5502 0ef9 02       		.byte	0x2
 5503 0efa 91       		.byte	0x91
 5504 0efb 74       		.sleb128 -12
 5505 0efc 00       		.byte	0
 5506 0efd 00       		.byte	0
 5507              		.section	.debug_abbrev,"",%progbits
 5508              	.Ldebug_abbrev0:
 5509 0000 01       		.uleb128 0x1
 5510 0001 11       		.uleb128 0x11
 5511 0002 01       		.byte	0x1
 5512 0003 25       		.uleb128 0x25
 5513 0004 0E       		.uleb128 0xe
 5514 0005 13       		.uleb128 0x13
 5515 0006 0B       		.uleb128 0xb
 5516 0007 03       		.uleb128 0x3
 5517 0008 0E       		.uleb128 0xe
 5518 0009 1B       		.uleb128 0x1b
 5519 000a 0E       		.uleb128 0xe
 5520 000b 11       		.uleb128 0x11
 5521 000c 01       		.uleb128 0x1
 5522 000d 12       		.uleb128 0x12
 5523 000e 01       		.uleb128 0x1
ARM GAS  G:\Users\Jaxb\AppData\Local\Temp\cc11Idxk.s 			page 116


 5524 000f 10       		.uleb128 0x10
 5525 0010 06       		.uleb128 0x6
 5526 0011 00       		.byte	0
 5527 0012 00       		.byte	0
 5528 0013 02       		.uleb128 0x2
 5529 0014 24       		.uleb128 0x24
 5530 0015 00       		.byte	0
 5531 0016 0B       		.uleb128 0xb
 5532 0017 0B       		.uleb128 0xb
 5533 0018 3E       		.uleb128 0x3e
 5534 0019 0B       		.uleb128 0xb
 5535 001a 03       		.uleb128 0x3
 5536 001b 0E       		.uleb128 0xe
 5537 001c 00       		.byte	0
 5538 001d 00       		.byte	0
 5539 001e 03       		.uleb128 0x3
 5540 001f 16       		.uleb128 0x16
 5541 0020 00       		.byte	0
 5542 0021 03       		.uleb128 0x3
 5543 0022 0E       		.uleb128 0xe
 5544 0023 3A       		.uleb128 0x3a
 5545 0024 0B       		.uleb128 0xb
 5546 0025 3B       		.uleb128 0x3b
 5547 0026 0B       		.uleb128 0xb
 5548 0027 49       		.uleb128 0x49
 5549 0028 13       		.uleb128 0x13
 5550 0029 00       		.byte	0
 5551 002a 00       		.byte	0
 5552 002b 04       		.uleb128 0x4
 5553 002c 24       		.uleb128 0x24
 5554 002d 00       		.byte	0
 5555 002e 0B       		.uleb128 0xb
 5556 002f 0B       		.uleb128 0xb
 5557 0030 3E       		.uleb128 0x3e
 5558 0031 0B       		.uleb128 0xb
 5559 0032 03       		.uleb128 0x3
 5560 0033 08       		.uleb128 0x8
 5561 0034 00       		.byte	0
 5562 0035 00       		.byte	0
 5563 0036 05       		.uleb128 0x5
 5564 0037 35       		.uleb128 0x35
 5565 0038 00       		.byte	0
 5566 0039 49       		.uleb128 0x49
 5567 003a 13       		.uleb128 0x13
 5568 003b 00       		.byte	0
 5569 003c 00       		.byte	0
 5570 003d 06       		.uleb128 0x6
 5571 003e 13       		.uleb128 0x13
 5572 003f 01       		.byte	0x1
 5573 0040 03       		.uleb128 0x3
 5574 0041 0E       		.uleb128 0xe
 5575 0042 0B       		.uleb128 0xb
 5576 0043 0B       		.uleb128 0xb
 5577 0044 3A       		.uleb128 0x3a
 5578 0045 0B       		.uleb128 0xb
 5579 0046 3B       		.uleb128 0x3b
 5580 0047 0B       		.uleb128 0xb
ARM GAS  G:\Users\Jaxb\AppData\Local\Temp\cc11Idxk.s 			page 117


 5581 0048 01       		.uleb128 0x1
 5582 0049 13       		.uleb128 0x13
 5583 004a 00       		.byte	0
 5584 004b 00       		.byte	0
 5585 004c 07       		.uleb128 0x7
 5586 004d 0D       		.uleb128 0xd
 5587 004e 00       		.byte	0
 5588 004f 03       		.uleb128 0x3
 5589 0050 0E       		.uleb128 0xe
 5590 0051 3A       		.uleb128 0x3a
 5591 0052 0B       		.uleb128 0xb
 5592 0053 3B       		.uleb128 0x3b
 5593 0054 0B       		.uleb128 0xb
 5594 0055 49       		.uleb128 0x49
 5595 0056 13       		.uleb128 0x13
 5596 0057 38       		.uleb128 0x38
 5597 0058 0A       		.uleb128 0xa
 5598 0059 00       		.byte	0
 5599 005a 00       		.byte	0
 5600 005b 08       		.uleb128 0x8
 5601 005c 01       		.uleb128 0x1
 5602 005d 01       		.byte	0x1
 5603 005e 49       		.uleb128 0x49
 5604 005f 13       		.uleb128 0x13
 5605 0060 01       		.uleb128 0x1
 5606 0061 13       		.uleb128 0x13
 5607 0062 00       		.byte	0
 5608 0063 00       		.byte	0
 5609 0064 09       		.uleb128 0x9
 5610 0065 21       		.uleb128 0x21
 5611 0066 00       		.byte	0
 5612 0067 49       		.uleb128 0x49
 5613 0068 13       		.uleb128 0x13
 5614 0069 2F       		.uleb128 0x2f
 5615 006a 0B       		.uleb128 0xb
 5616 006b 00       		.byte	0
 5617 006c 00       		.byte	0
 5618 006d 0A       		.uleb128 0xa
 5619 006e 13       		.uleb128 0x13
 5620 006f 01       		.byte	0x1
 5621 0070 0B       		.uleb128 0xb
 5622 0071 0B       		.uleb128 0xb
 5623 0072 3A       		.uleb128 0x3a
 5624 0073 0B       		.uleb128 0xb
 5625 0074 3B       		.uleb128 0x3b
 5626 0075 0B       		.uleb128 0xb
 5627 0076 01       		.uleb128 0x1
 5628 0077 13       		.uleb128 0x13
 5629 0078 00       		.byte	0
 5630 0079 00       		.byte	0
 5631 007a 0B       		.uleb128 0xb
 5632 007b 26       		.uleb128 0x26
 5633 007c 00       		.byte	0
 5634 007d 49       		.uleb128 0x49
 5635 007e 13       		.uleb128 0x13
 5636 007f 00       		.byte	0
 5637 0080 00       		.byte	0
ARM GAS  G:\Users\Jaxb\AppData\Local\Temp\cc11Idxk.s 			page 118


 5638 0081 0C       		.uleb128 0xc
 5639 0082 0F       		.uleb128 0xf
 5640 0083 00       		.byte	0
 5641 0084 0B       		.uleb128 0xb
 5642 0085 0B       		.uleb128 0xb
 5643 0086 49       		.uleb128 0x49
 5644 0087 13       		.uleb128 0x13
 5645 0088 00       		.byte	0
 5646 0089 00       		.byte	0
 5647 008a 0D       		.uleb128 0xd
 5648 008b 04       		.uleb128 0x4
 5649 008c 01       		.byte	0x1
 5650 008d 03       		.uleb128 0x3
 5651 008e 0E       		.uleb128 0xe
 5652 008f 3E       		.uleb128 0x3e
 5653 0090 0B       		.uleb128 0xb
 5654 0091 0B       		.uleb128 0xb
 5655 0092 0B       		.uleb128 0xb
 5656 0093 49       		.uleb128 0x49
 5657 0094 13       		.uleb128 0x13
 5658 0095 3A       		.uleb128 0x3a
 5659 0096 0B       		.uleb128 0xb
 5660 0097 3B       		.uleb128 0x3b
 5661 0098 0B       		.uleb128 0xb
 5662 0099 01       		.uleb128 0x1
 5663 009a 13       		.uleb128 0x13
 5664 009b 00       		.byte	0
 5665 009c 00       		.byte	0
 5666 009d 0E       		.uleb128 0xe
 5667 009e 28       		.uleb128 0x28
 5668 009f 00       		.byte	0
 5669 00a0 03       		.uleb128 0x3
 5670 00a1 0E       		.uleb128 0xe
 5671 00a2 1C       		.uleb128 0x1c
 5672 00a3 0B       		.uleb128 0xb
 5673 00a4 00       		.byte	0
 5674 00a5 00       		.byte	0
 5675 00a6 0F       		.uleb128 0xf
 5676 00a7 15       		.uleb128 0x15
 5677 00a8 01       		.byte	0x1
 5678 00a9 27       		.uleb128 0x27
 5679 00aa 0C       		.uleb128 0xc
 5680 00ab 01       		.uleb128 0x1
 5681 00ac 13       		.uleb128 0x13
 5682 00ad 00       		.byte	0
 5683 00ae 00       		.byte	0
 5684 00af 10       		.uleb128 0x10
 5685 00b0 05       		.uleb128 0x5
 5686 00b1 00       		.byte	0
 5687 00b2 49       		.uleb128 0x49
 5688 00b3 13       		.uleb128 0x13
 5689 00b4 00       		.byte	0
 5690 00b5 00       		.byte	0
 5691 00b6 11       		.uleb128 0x11
 5692 00b7 0F       		.uleb128 0xf
 5693 00b8 00       		.byte	0
 5694 00b9 0B       		.uleb128 0xb
ARM GAS  G:\Users\Jaxb\AppData\Local\Temp\cc11Idxk.s 			page 119


 5695 00ba 0B       		.uleb128 0xb
 5696 00bb 00       		.byte	0
 5697 00bc 00       		.byte	0
 5698 00bd 12       		.uleb128 0x12
 5699 00be 34       		.uleb128 0x34
 5700 00bf 00       		.byte	0
 5701 00c0 03       		.uleb128 0x3
 5702 00c1 0E       		.uleb128 0xe
 5703 00c2 3A       		.uleb128 0x3a
 5704 00c3 0B       		.uleb128 0xb
 5705 00c4 3B       		.uleb128 0x3b
 5706 00c5 0B       		.uleb128 0xb
 5707 00c6 49       		.uleb128 0x49
 5708 00c7 13       		.uleb128 0x13
 5709 00c8 3F       		.uleb128 0x3f
 5710 00c9 0C       		.uleb128 0xc
 5711 00ca 3C       		.uleb128 0x3c
 5712 00cb 0C       		.uleb128 0xc
 5713 00cc 00       		.byte	0
 5714 00cd 00       		.byte	0
 5715 00ce 13       		.uleb128 0x13
 5716 00cf 0D       		.uleb128 0xd
 5717 00d0 00       		.byte	0
 5718 00d1 03       		.uleb128 0x3
 5719 00d2 08       		.uleb128 0x8
 5720 00d3 3A       		.uleb128 0x3a
 5721 00d4 0B       		.uleb128 0xb
 5722 00d5 3B       		.uleb128 0x3b
 5723 00d6 0B       		.uleb128 0xb
 5724 00d7 49       		.uleb128 0x49
 5725 00d8 13       		.uleb128 0x13
 5726 00d9 38       		.uleb128 0x38
 5727 00da 0A       		.uleb128 0xa
 5728 00db 00       		.byte	0
 5729 00dc 00       		.byte	0
 5730 00dd 14       		.uleb128 0x14
 5731 00de 16       		.uleb128 0x16
 5732 00df 00       		.byte	0
 5733 00e0 03       		.uleb128 0x3
 5734 00e1 08       		.uleb128 0x8
 5735 00e2 3A       		.uleb128 0x3a
 5736 00e3 0B       		.uleb128 0xb
 5737 00e4 3B       		.uleb128 0x3b
 5738 00e5 0B       		.uleb128 0xb
 5739 00e6 49       		.uleb128 0x49
 5740 00e7 13       		.uleb128 0x13
 5741 00e8 00       		.byte	0
 5742 00e9 00       		.byte	0
 5743 00ea 15       		.uleb128 0x15
 5744 00eb 15       		.uleb128 0x15
 5745 00ec 00       		.byte	0
 5746 00ed 27       		.uleb128 0x27
 5747 00ee 0C       		.uleb128 0xc
 5748 00ef 49       		.uleb128 0x49
 5749 00f0 13       		.uleb128 0x13
 5750 00f1 00       		.byte	0
 5751 00f2 00       		.byte	0
ARM GAS  G:\Users\Jaxb\AppData\Local\Temp\cc11Idxk.s 			page 120


 5752 00f3 16       		.uleb128 0x16
 5753 00f4 15       		.uleb128 0x15
 5754 00f5 00       		.byte	0
 5755 00f6 27       		.uleb128 0x27
 5756 00f7 0C       		.uleb128 0xc
 5757 00f8 00       		.byte	0
 5758 00f9 00       		.byte	0
 5759 00fa 17       		.uleb128 0x17
 5760 00fb 34       		.uleb128 0x34
 5761 00fc 00       		.byte	0
 5762 00fd 03       		.uleb128 0x3
 5763 00fe 0E       		.uleb128 0xe
 5764 00ff 3A       		.uleb128 0x3a
 5765 0100 0B       		.uleb128 0xb
 5766 0101 3B       		.uleb128 0x3b
 5767 0102 0B       		.uleb128 0xb
 5768 0103 49       		.uleb128 0x49
 5769 0104 13       		.uleb128 0x13
 5770 0105 02       		.uleb128 0x2
 5771 0106 0A       		.uleb128 0xa
 5772 0107 00       		.byte	0
 5773 0108 00       		.byte	0
 5774 0109 18       		.uleb128 0x18
 5775 010a 34       		.uleb128 0x34
 5776 010b 00       		.byte	0
 5777 010c 03       		.uleb128 0x3
 5778 010d 08       		.uleb128 0x8
 5779 010e 3A       		.uleb128 0x3a
 5780 010f 0B       		.uleb128 0xb
 5781 0110 3B       		.uleb128 0x3b
 5782 0111 0B       		.uleb128 0xb
 5783 0112 49       		.uleb128 0x49
 5784 0113 13       		.uleb128 0x13
 5785 0114 02       		.uleb128 0x2
 5786 0115 0A       		.uleb128 0xa
 5787 0116 00       		.byte	0
 5788 0117 00       		.byte	0
 5789 0118 19       		.uleb128 0x19
 5790 0119 2E       		.uleb128 0x2e
 5791 011a 01       		.byte	0x1
 5792 011b 3F       		.uleb128 0x3f
 5793 011c 0C       		.uleb128 0xc
 5794 011d 03       		.uleb128 0x3
 5795 011e 0E       		.uleb128 0xe
 5796 011f 3A       		.uleb128 0x3a
 5797 0120 0B       		.uleb128 0xb
 5798 0121 3B       		.uleb128 0x3b
 5799 0122 05       		.uleb128 0x5
 5800 0123 27       		.uleb128 0x27
 5801 0124 0C       		.uleb128 0xc
 5802 0125 11       		.uleb128 0x11
 5803 0126 01       		.uleb128 0x1
 5804 0127 12       		.uleb128 0x12
 5805 0128 01       		.uleb128 0x1
 5806 0129 40       		.uleb128 0x40
 5807 012a 06       		.uleb128 0x6
 5808 012b 9742     		.uleb128 0x2117
ARM GAS  G:\Users\Jaxb\AppData\Local\Temp\cc11Idxk.s 			page 121


 5809 012d 0C       		.uleb128 0xc
 5810 012e 01       		.uleb128 0x1
 5811 012f 13       		.uleb128 0x13
 5812 0130 00       		.byte	0
 5813 0131 00       		.byte	0
 5814 0132 1A       		.uleb128 0x1a
 5815 0133 05       		.uleb128 0x5
 5816 0134 00       		.byte	0
 5817 0135 03       		.uleb128 0x3
 5818 0136 08       		.uleb128 0x8
 5819 0137 3A       		.uleb128 0x3a
 5820 0138 0B       		.uleb128 0xb
 5821 0139 3B       		.uleb128 0x3b
 5822 013a 05       		.uleb128 0x5
 5823 013b 49       		.uleb128 0x49
 5824 013c 13       		.uleb128 0x13
 5825 013d 02       		.uleb128 0x2
 5826 013e 0A       		.uleb128 0xa
 5827 013f 00       		.byte	0
 5828 0140 00       		.byte	0
 5829 0141 1B       		.uleb128 0x1b
 5830 0142 2E       		.uleb128 0x2e
 5831 0143 00       		.byte	0
 5832 0144 3F       		.uleb128 0x3f
 5833 0145 0C       		.uleb128 0xc
 5834 0146 03       		.uleb128 0x3
 5835 0147 0E       		.uleb128 0xe
 5836 0148 3A       		.uleb128 0x3a
 5837 0149 0B       		.uleb128 0xb
 5838 014a 3B       		.uleb128 0x3b
 5839 014b 05       		.uleb128 0x5
 5840 014c 27       		.uleb128 0x27
 5841 014d 0C       		.uleb128 0xc
 5842 014e 11       		.uleb128 0x11
 5843 014f 01       		.uleb128 0x1
 5844 0150 12       		.uleb128 0x12
 5845 0151 01       		.uleb128 0x1
 5846 0152 40       		.uleb128 0x40
 5847 0153 06       		.uleb128 0x6
 5848 0154 9742     		.uleb128 0x2117
 5849 0156 0C       		.uleb128 0xc
 5850 0157 00       		.byte	0
 5851 0158 00       		.byte	0
 5852 0159 1C       		.uleb128 0x1c
 5853 015a 2E       		.uleb128 0x2e
 5854 015b 00       		.byte	0
 5855 015c 3F       		.uleb128 0x3f
 5856 015d 0C       		.uleb128 0xc
 5857 015e 03       		.uleb128 0x3
 5858 015f 0E       		.uleb128 0xe
 5859 0160 3A       		.uleb128 0x3a
 5860 0161 0B       		.uleb128 0xb
 5861 0162 3B       		.uleb128 0x3b
 5862 0163 05       		.uleb128 0x5
 5863 0164 27       		.uleb128 0x27
 5864 0165 0C       		.uleb128 0xc
 5865 0166 11       		.uleb128 0x11
ARM GAS  G:\Users\Jaxb\AppData\Local\Temp\cc11Idxk.s 			page 122


 5866 0167 01       		.uleb128 0x1
 5867 0168 12       		.uleb128 0x12
 5868 0169 01       		.uleb128 0x1
 5869 016a 40       		.uleb128 0x40
 5870 016b 06       		.uleb128 0x6
 5871 016c 9642     		.uleb128 0x2116
 5872 016e 0C       		.uleb128 0xc
 5873 016f 00       		.byte	0
 5874 0170 00       		.byte	0
 5875 0171 1D       		.uleb128 0x1d
 5876 0172 2E       		.uleb128 0x2e
 5877 0173 01       		.byte	0x1
 5878 0174 3F       		.uleb128 0x3f
 5879 0175 0C       		.uleb128 0xc
 5880 0176 03       		.uleb128 0x3
 5881 0177 0E       		.uleb128 0xe
 5882 0178 3A       		.uleb128 0x3a
 5883 0179 0B       		.uleb128 0xb
 5884 017a 3B       		.uleb128 0x3b
 5885 017b 05       		.uleb128 0x5
 5886 017c 27       		.uleb128 0x27
 5887 017d 0C       		.uleb128 0xc
 5888 017e 11       		.uleb128 0x11
 5889 017f 01       		.uleb128 0x1
 5890 0180 12       		.uleb128 0x12
 5891 0181 01       		.uleb128 0x1
 5892 0182 40       		.uleb128 0x40
 5893 0183 06       		.uleb128 0x6
 5894 0184 9642     		.uleb128 0x2116
 5895 0186 0C       		.uleb128 0xc
 5896 0187 01       		.uleb128 0x1
 5897 0188 13       		.uleb128 0x13
 5898 0189 00       		.byte	0
 5899 018a 00       		.byte	0
 5900 018b 1E       		.uleb128 0x1e
 5901 018c 2E       		.uleb128 0x2e
 5902 018d 01       		.byte	0x1
 5903 018e 3F       		.uleb128 0x3f
 5904 018f 0C       		.uleb128 0xc
 5905 0190 03       		.uleb128 0x3
 5906 0191 0E       		.uleb128 0xe
 5907 0192 3A       		.uleb128 0x3a
 5908 0193 0B       		.uleb128 0xb
 5909 0194 3B       		.uleb128 0x3b
 5910 0195 05       		.uleb128 0x5
 5911 0196 27       		.uleb128 0x27
 5912 0197 0C       		.uleb128 0xc
 5913 0198 49       		.uleb128 0x49
 5914 0199 13       		.uleb128 0x13
 5915 019a 11       		.uleb128 0x11
 5916 019b 01       		.uleb128 0x1
 5917 019c 12       		.uleb128 0x12
 5918 019d 01       		.uleb128 0x1
 5919 019e 40       		.uleb128 0x40
 5920 019f 06       		.uleb128 0x6
 5921 01a0 9642     		.uleb128 0x2116
 5922 01a2 0C       		.uleb128 0xc
ARM GAS  G:\Users\Jaxb\AppData\Local\Temp\cc11Idxk.s 			page 123


 5923 01a3 01       		.uleb128 0x1
 5924 01a4 13       		.uleb128 0x13
 5925 01a5 00       		.byte	0
 5926 01a6 00       		.byte	0
 5927 01a7 1F       		.uleb128 0x1f
 5928 01a8 05       		.uleb128 0x5
 5929 01a9 00       		.byte	0
 5930 01aa 03       		.uleb128 0x3
 5931 01ab 0E       		.uleb128 0xe
 5932 01ac 3A       		.uleb128 0x3a
 5933 01ad 0B       		.uleb128 0xb
 5934 01ae 3B       		.uleb128 0x3b
 5935 01af 05       		.uleb128 0x5
 5936 01b0 49       		.uleb128 0x49
 5937 01b1 13       		.uleb128 0x13
 5938 01b2 02       		.uleb128 0x2
 5939 01b3 0A       		.uleb128 0xa
 5940 01b4 00       		.byte	0
 5941 01b5 00       		.byte	0
 5942 01b6 20       		.uleb128 0x20
 5943 01b7 34       		.uleb128 0x34
 5944 01b8 00       		.byte	0
 5945 01b9 03       		.uleb128 0x3
 5946 01ba 0E       		.uleb128 0xe
 5947 01bb 3A       		.uleb128 0x3a
 5948 01bc 0B       		.uleb128 0xb
 5949 01bd 3B       		.uleb128 0x3b
 5950 01be 05       		.uleb128 0x5
 5951 01bf 49       		.uleb128 0x49
 5952 01c0 13       		.uleb128 0x13
 5953 01c1 02       		.uleb128 0x2
 5954 01c2 0A       		.uleb128 0xa
 5955 01c3 00       		.byte	0
 5956 01c4 00       		.byte	0
 5957 01c5 21       		.uleb128 0x21
 5958 01c6 0A       		.uleb128 0xa
 5959 01c7 00       		.byte	0
 5960 01c8 03       		.uleb128 0x3
 5961 01c9 0E       		.uleb128 0xe
 5962 01ca 3A       		.uleb128 0x3a
 5963 01cb 0B       		.uleb128 0xb
 5964 01cc 3B       		.uleb128 0x3b
 5965 01cd 05       		.uleb128 0x5
 5966 01ce 11       		.uleb128 0x11
 5967 01cf 01       		.uleb128 0x1
 5968 01d0 00       		.byte	0
 5969 01d1 00       		.byte	0
 5970 01d2 22       		.uleb128 0x22
 5971 01d3 2E       		.uleb128 0x2e
 5972 01d4 01       		.byte	0x1
 5973 01d5 03       		.uleb128 0x3
 5974 01d6 0E       		.uleb128 0xe
 5975 01d7 3A       		.uleb128 0x3a
 5976 01d8 0B       		.uleb128 0xb
 5977 01d9 3B       		.uleb128 0x3b
 5978 01da 05       		.uleb128 0x5
 5979 01db 27       		.uleb128 0x27
ARM GAS  G:\Users\Jaxb\AppData\Local\Temp\cc11Idxk.s 			page 124


 5980 01dc 0C       		.uleb128 0xc
 5981 01dd 11       		.uleb128 0x11
 5982 01de 01       		.uleb128 0x1
 5983 01df 12       		.uleb128 0x12
 5984 01e0 01       		.uleb128 0x1
 5985 01e1 40       		.uleb128 0x40
 5986 01e2 06       		.uleb128 0x6
 5987 01e3 9642     		.uleb128 0x2116
 5988 01e5 0C       		.uleb128 0xc
 5989 01e6 01       		.uleb128 0x1
 5990 01e7 13       		.uleb128 0x13
 5991 01e8 00       		.byte	0
 5992 01e9 00       		.byte	0
 5993 01ea 23       		.uleb128 0x23
 5994 01eb 0B       		.uleb128 0xb
 5995 01ec 01       		.byte	0x1
 5996 01ed 11       		.uleb128 0x11
 5997 01ee 01       		.uleb128 0x1
 5998 01ef 12       		.uleb128 0x12
 5999 01f0 01       		.uleb128 0x1
 6000 01f1 01       		.uleb128 0x1
 6001 01f2 13       		.uleb128 0x13
 6002 01f3 00       		.byte	0
 6003 01f4 00       		.byte	0
 6004 01f5 24       		.uleb128 0x24
 6005 01f6 34       		.uleb128 0x34
 6006 01f7 00       		.byte	0
 6007 01f8 03       		.uleb128 0x3
 6008 01f9 08       		.uleb128 0x8
 6009 01fa 3A       		.uleb128 0x3a
 6010 01fb 0B       		.uleb128 0xb
 6011 01fc 3B       		.uleb128 0x3b
 6012 01fd 05       		.uleb128 0x5
 6013 01fe 49       		.uleb128 0x49
 6014 01ff 13       		.uleb128 0x13
 6015 0200 02       		.uleb128 0x2
 6016 0201 0A       		.uleb128 0xa
 6017 0202 00       		.byte	0
 6018 0203 00       		.byte	0
 6019 0204 25       		.uleb128 0x25
 6020 0205 0B       		.uleb128 0xb
 6021 0206 01       		.byte	0x1
 6022 0207 11       		.uleb128 0x11
 6023 0208 01       		.uleb128 0x1
 6024 0209 12       		.uleb128 0x12
 6025 020a 01       		.uleb128 0x1
 6026 020b 00       		.byte	0
 6027 020c 00       		.byte	0
 6028 020d 26       		.uleb128 0x26
 6029 020e 0B       		.uleb128 0xb
 6030 020f 01       		.byte	0x1
 6031 0210 55       		.uleb128 0x55
 6032 0211 06       		.uleb128 0x6
 6033 0212 01       		.uleb128 0x1
 6034 0213 13       		.uleb128 0x13
 6035 0214 00       		.byte	0
 6036 0215 00       		.byte	0
ARM GAS  G:\Users\Jaxb\AppData\Local\Temp\cc11Idxk.s 			page 125


 6037 0216 27       		.uleb128 0x27
 6038 0217 2E       		.uleb128 0x2e
 6039 0218 01       		.byte	0x1
 6040 0219 3F       		.uleb128 0x3f
 6041 021a 0C       		.uleb128 0xc
 6042 021b 03       		.uleb128 0x3
 6043 021c 0E       		.uleb128 0xe
 6044 021d 3A       		.uleb128 0x3a
 6045 021e 0B       		.uleb128 0xb
 6046 021f 3B       		.uleb128 0x3b
 6047 0220 0B       		.uleb128 0xb
 6048 0221 27       		.uleb128 0x27
 6049 0222 0C       		.uleb128 0xc
 6050 0223 49       		.uleb128 0x49
 6051 0224 13       		.uleb128 0x13
 6052 0225 11       		.uleb128 0x11
 6053 0226 01       		.uleb128 0x1
 6054 0227 12       		.uleb128 0x12
 6055 0228 01       		.uleb128 0x1
 6056 0229 40       		.uleb128 0x40
 6057 022a 06       		.uleb128 0x6
 6058 022b 9642     		.uleb128 0x2116
 6059 022d 0C       		.uleb128 0xc
 6060 022e 01       		.uleb128 0x1
 6061 022f 13       		.uleb128 0x13
 6062 0230 00       		.byte	0
 6063 0231 00       		.byte	0
 6064 0232 28       		.uleb128 0x28
 6065 0233 05       		.uleb128 0x5
 6066 0234 00       		.byte	0
 6067 0235 03       		.uleb128 0x3
 6068 0236 0E       		.uleb128 0xe
 6069 0237 3A       		.uleb128 0x3a
 6070 0238 0B       		.uleb128 0xb
 6071 0239 3B       		.uleb128 0x3b
 6072 023a 0B       		.uleb128 0xb
 6073 023b 49       		.uleb128 0x49
 6074 023c 13       		.uleb128 0x13
 6075 023d 02       		.uleb128 0x2
 6076 023e 0A       		.uleb128 0xa
 6077 023f 00       		.byte	0
 6078 0240 00       		.byte	0
 6079 0241 29       		.uleb128 0x29
 6080 0242 05       		.uleb128 0x5
 6081 0243 00       		.byte	0
 6082 0244 03       		.uleb128 0x3
 6083 0245 08       		.uleb128 0x8
 6084 0246 3A       		.uleb128 0x3a
 6085 0247 0B       		.uleb128 0xb
 6086 0248 3B       		.uleb128 0x3b
 6087 0249 0B       		.uleb128 0xb
 6088 024a 49       		.uleb128 0x49
 6089 024b 13       		.uleb128 0x13
 6090 024c 02       		.uleb128 0x2
 6091 024d 0A       		.uleb128 0xa
 6092 024e 00       		.byte	0
 6093 024f 00       		.byte	0
ARM GAS  G:\Users\Jaxb\AppData\Local\Temp\cc11Idxk.s 			page 126


 6094 0250 2A       		.uleb128 0x2a
 6095 0251 2E       		.uleb128 0x2e
 6096 0252 01       		.byte	0x1
 6097 0253 03       		.uleb128 0x3
 6098 0254 0E       		.uleb128 0xe
 6099 0255 3A       		.uleb128 0x3a
 6100 0256 0B       		.uleb128 0xb
 6101 0257 3B       		.uleb128 0x3b
 6102 0258 0B       		.uleb128 0xb
 6103 0259 27       		.uleb128 0x27
 6104 025a 0C       		.uleb128 0xc
 6105 025b 49       		.uleb128 0x49
 6106 025c 13       		.uleb128 0x13
 6107 025d 11       		.uleb128 0x11
 6108 025e 01       		.uleb128 0x1
 6109 025f 12       		.uleb128 0x12
 6110 0260 01       		.uleb128 0x1
 6111 0261 40       		.uleb128 0x40
 6112 0262 06       		.uleb128 0x6
 6113 0263 9642     		.uleb128 0x2116
 6114 0265 0C       		.uleb128 0xc
 6115 0266 01       		.uleb128 0x1
 6116 0267 13       		.uleb128 0x13
 6117 0268 00       		.byte	0
 6118 0269 00       		.byte	0
 6119 026a 2B       		.uleb128 0x2b
 6120 026b 2E       		.uleb128 0x2e
 6121 026c 01       		.byte	0x1
 6122 026d 3F       		.uleb128 0x3f
 6123 026e 0C       		.uleb128 0xc
 6124 026f 03       		.uleb128 0x3
 6125 0270 0E       		.uleb128 0xe
 6126 0271 3A       		.uleb128 0x3a
 6127 0272 0B       		.uleb128 0xb
 6128 0273 3B       		.uleb128 0x3b
 6129 0274 0B       		.uleb128 0xb
 6130 0275 27       		.uleb128 0x27
 6131 0276 0C       		.uleb128 0xc
 6132 0277 11       		.uleb128 0x11
 6133 0278 01       		.uleb128 0x1
 6134 0279 12       		.uleb128 0x12
 6135 027a 01       		.uleb128 0x1
 6136 027b 40       		.uleb128 0x40
 6137 027c 06       		.uleb128 0x6
 6138 027d 9642     		.uleb128 0x2116
 6139 027f 0C       		.uleb128 0xc
 6140 0280 01       		.uleb128 0x1
 6141 0281 13       		.uleb128 0x13
 6142 0282 00       		.byte	0
 6143 0283 00       		.byte	0
 6144 0284 2C       		.uleb128 0x2c
 6145 0285 0A       		.uleb128 0xa
 6146 0286 00       		.byte	0
 6147 0287 03       		.uleb128 0x3
 6148 0288 08       		.uleb128 0x8
 6149 0289 3A       		.uleb128 0x3a
 6150 028a 0B       		.uleb128 0xb
ARM GAS  G:\Users\Jaxb\AppData\Local\Temp\cc11Idxk.s 			page 127


 6151 028b 3B       		.uleb128 0x3b
 6152 028c 0B       		.uleb128 0xb
 6153 028d 11       		.uleb128 0x11
 6154 028e 01       		.uleb128 0x1
 6155 028f 00       		.byte	0
 6156 0290 00       		.byte	0
 6157 0291 2D       		.uleb128 0x2d
 6158 0292 2E       		.uleb128 0x2e
 6159 0293 00       		.byte	0
 6160 0294 3F       		.uleb128 0x3f
 6161 0295 0C       		.uleb128 0xc
 6162 0296 03       		.uleb128 0x3
 6163 0297 0E       		.uleb128 0xe
 6164 0298 3A       		.uleb128 0x3a
 6165 0299 0B       		.uleb128 0xb
 6166 029a 3B       		.uleb128 0x3b
 6167 029b 0B       		.uleb128 0xb
 6168 029c 27       		.uleb128 0x27
 6169 029d 0C       		.uleb128 0xc
 6170 029e 11       		.uleb128 0x11
 6171 029f 01       		.uleb128 0x1
 6172 02a0 12       		.uleb128 0x12
 6173 02a1 01       		.uleb128 0x1
 6174 02a2 40       		.uleb128 0x40
 6175 02a3 06       		.uleb128 0x6
 6176 02a4 9642     		.uleb128 0x2116
 6177 02a6 0C       		.uleb128 0xc
 6178 02a7 00       		.byte	0
 6179 02a8 00       		.byte	0
 6180 02a9 2E       		.uleb128 0x2e
 6181 02aa 2E       		.uleb128 0x2e
 6182 02ab 01       		.byte	0x1
 6183 02ac 03       		.uleb128 0x3
 6184 02ad 0E       		.uleb128 0xe
 6185 02ae 3A       		.uleb128 0x3a
 6186 02af 0B       		.uleb128 0xb
 6187 02b0 3B       		.uleb128 0x3b
 6188 02b1 0B       		.uleb128 0xb
 6189 02b2 27       		.uleb128 0x27
 6190 02b3 0C       		.uleb128 0xc
 6191 02b4 11       		.uleb128 0x11
 6192 02b5 01       		.uleb128 0x1
 6193 02b6 12       		.uleb128 0x12
 6194 02b7 01       		.uleb128 0x1
 6195 02b8 40       		.uleb128 0x40
 6196 02b9 06       		.uleb128 0x6
 6197 02ba 9742     		.uleb128 0x2117
 6198 02bc 0C       		.uleb128 0xc
 6199 02bd 01       		.uleb128 0x1
 6200 02be 13       		.uleb128 0x13
 6201 02bf 00       		.byte	0
 6202 02c0 00       		.byte	0
 6203 02c1 2F       		.uleb128 0x2f
 6204 02c2 2E       		.uleb128 0x2e
 6205 02c3 01       		.byte	0x1
 6206 02c4 03       		.uleb128 0x3
 6207 02c5 0E       		.uleb128 0xe
ARM GAS  G:\Users\Jaxb\AppData\Local\Temp\cc11Idxk.s 			page 128


 6208 02c6 3A       		.uleb128 0x3a
 6209 02c7 0B       		.uleb128 0xb
 6210 02c8 3B       		.uleb128 0x3b
 6211 02c9 0B       		.uleb128 0xb
 6212 02ca 27       		.uleb128 0x27
 6213 02cb 0C       		.uleb128 0xc
 6214 02cc 49       		.uleb128 0x49
 6215 02cd 13       		.uleb128 0x13
 6216 02ce 11       		.uleb128 0x11
 6217 02cf 01       		.uleb128 0x1
 6218 02d0 12       		.uleb128 0x12
 6219 02d1 01       		.uleb128 0x1
 6220 02d2 40       		.uleb128 0x40
 6221 02d3 06       		.uleb128 0x6
 6222 02d4 9742     		.uleb128 0x2117
 6223 02d6 0C       		.uleb128 0xc
 6224 02d7 01       		.uleb128 0x1
 6225 02d8 13       		.uleb128 0x13
 6226 02d9 00       		.byte	0
 6227 02da 00       		.byte	0
 6228 02db 30       		.uleb128 0x30
 6229 02dc 2E       		.uleb128 0x2e
 6230 02dd 01       		.byte	0x1
 6231 02de 03       		.uleb128 0x3
 6232 02df 0E       		.uleb128 0xe
 6233 02e0 3A       		.uleb128 0x3a
 6234 02e1 0B       		.uleb128 0xb
 6235 02e2 3B       		.uleb128 0x3b
 6236 02e3 0B       		.uleb128 0xb
 6237 02e4 27       		.uleb128 0x27
 6238 02e5 0C       		.uleb128 0xc
 6239 02e6 11       		.uleb128 0x11
 6240 02e7 01       		.uleb128 0x1
 6241 02e8 12       		.uleb128 0x12
 6242 02e9 01       		.uleb128 0x1
 6243 02ea 40       		.uleb128 0x40
 6244 02eb 06       		.uleb128 0x6
 6245 02ec 9642     		.uleb128 0x2116
 6246 02ee 0C       		.uleb128 0xc
 6247 02ef 01       		.uleb128 0x1
 6248 02f0 13       		.uleb128 0x13
 6249 02f1 00       		.byte	0
 6250 02f2 00       		.byte	0
 6251 02f3 31       		.uleb128 0x31
 6252 02f4 2E       		.uleb128 0x2e
 6253 02f5 01       		.byte	0x1
 6254 02f6 03       		.uleb128 0x3
 6255 02f7 0E       		.uleb128 0xe
 6256 02f8 3A       		.uleb128 0x3a
 6257 02f9 0B       		.uleb128 0xb
 6258 02fa 3B       		.uleb128 0x3b
 6259 02fb 0B       		.uleb128 0xb
 6260 02fc 27       		.uleb128 0x27
 6261 02fd 0C       		.uleb128 0xc
 6262 02fe 11       		.uleb128 0x11
 6263 02ff 01       		.uleb128 0x1
 6264 0300 12       		.uleb128 0x12
ARM GAS  G:\Users\Jaxb\AppData\Local\Temp\cc11Idxk.s 			page 129


 6265 0301 01       		.uleb128 0x1
 6266 0302 40       		.uleb128 0x40
 6267 0303 06       		.uleb128 0x6
 6268 0304 9742     		.uleb128 0x2117
 6269 0306 0C       		.uleb128 0xc
 6270 0307 00       		.byte	0
 6271 0308 00       		.byte	0
 6272 0309 00       		.byte	0
 6273              		.section	.debug_loc,"",%progbits
 6274              	.Ldebug_loc0:
 6275              	.LLST22:
 6276 0000 E0110000 		.4byte	.LFB26-.Ltext0
 6277 0004 E2110000 		.4byte	.LCFI108-.Ltext0
 6278 0008 0200     		.2byte	0x2
 6279 000a 7D       		.byte	0x7d
 6280 000b 00       		.sleb128 0
 6281 000c E2110000 		.4byte	.LCFI108-.Ltext0
 6282 0010 E4110000 		.4byte	.LCFI109-.Ltext0
 6283 0014 0200     		.2byte	0x2
 6284 0016 7D       		.byte	0x7d
 6285 0017 04       		.sleb128 4
 6286 0018 E4110000 		.4byte	.LCFI109-.Ltext0
 6287 001c E6110000 		.4byte	.LCFI110-.Ltext0
 6288 0020 0200     		.2byte	0x2
 6289 0022 7D       		.byte	0x7d
 6290 0023 10       		.sleb128 16
 6291 0024 E6110000 		.4byte	.LCFI110-.Ltext0
 6292 0028 F2110000 		.4byte	.LCFI111-.Ltext0
 6293 002c 0200     		.2byte	0x2
 6294 002e 77       		.byte	0x77
 6295 002f 10       		.sleb128 16
 6296 0030 F2110000 		.4byte	.LCFI111-.Ltext0
 6297 0034 F4110000 		.4byte	.LCFI112-.Ltext0
 6298 0038 0200     		.2byte	0x2
 6299 003a 77       		.byte	0x77
 6300 003b 04       		.sleb128 4
 6301 003c F4110000 		.4byte	.LCFI112-.Ltext0
 6302 0040 F6110000 		.4byte	.LCFI113-.Ltext0
 6303 0044 0200     		.2byte	0x2
 6304 0046 7D       		.byte	0x7d
 6305 0047 04       		.sleb128 4
 6306 0048 F6110000 		.4byte	.LCFI113-.Ltext0
 6307 004c FC110000 		.4byte	.LFE26-.Ltext0
 6308 0050 0200     		.2byte	0x2
 6309 0052 7D       		.byte	0x7d
 6310 0053 00       		.sleb128 0
 6311 0054 00000000 		.4byte	0
 6312 0058 00000000 		.4byte	0
 6313              	.LLST21:
 6314 005c C0110000 		.4byte	.LFB25-.Ltext0
 6315 0060 C2110000 		.4byte	.LCFI104-.Ltext0
 6316 0064 0200     		.2byte	0x2
 6317 0066 7D       		.byte	0x7d
 6318 0067 00       		.sleb128 0
 6319 0068 C2110000 		.4byte	.LCFI104-.Ltext0
 6320 006c C4110000 		.4byte	.LCFI105-.Ltext0
 6321 0070 0200     		.2byte	0x2
ARM GAS  G:\Users\Jaxb\AppData\Local\Temp\cc11Idxk.s 			page 130


 6322 0072 7D       		.byte	0x7d
 6323 0073 04       		.sleb128 4
 6324 0074 C4110000 		.4byte	.LCFI105-.Ltext0
 6325 0078 D4110000 		.4byte	.LCFI106-.Ltext0
 6326 007c 0200     		.2byte	0x2
 6327 007e 77       		.byte	0x77
 6328 007f 04       		.sleb128 4
 6329 0080 D4110000 		.4byte	.LCFI106-.Ltext0
 6330 0084 D6110000 		.4byte	.LCFI107-.Ltext0
 6331 0088 0200     		.2byte	0x2
 6332 008a 7D       		.byte	0x7d
 6333 008b 04       		.sleb128 4
 6334 008c D6110000 		.4byte	.LCFI107-.Ltext0
 6335 0090 E0110000 		.4byte	.LFE25-.Ltext0
 6336 0094 0200     		.2byte	0x2
 6337 0096 7D       		.byte	0x7d
 6338 0097 00       		.sleb128 0
 6339 0098 00000000 		.4byte	0
 6340 009c 00000000 		.4byte	0
 6341              	.LLST20:
 6342 00a0 A4110000 		.4byte	.LFB24-.Ltext0
 6343 00a4 A6110000 		.4byte	.LCFI102-.Ltext0
 6344 00a8 0200     		.2byte	0x2
 6345 00aa 7D       		.byte	0x7d
 6346 00ab 00       		.sleb128 0
 6347 00ac A6110000 		.4byte	.LCFI102-.Ltext0
 6348 00b0 A8110000 		.4byte	.LCFI103-.Ltext0
 6349 00b4 0200     		.2byte	0x2
 6350 00b6 7D       		.byte	0x7d
 6351 00b7 08       		.sleb128 8
 6352 00b8 A8110000 		.4byte	.LCFI103-.Ltext0
 6353 00bc C0110000 		.4byte	.LFE24-.Ltext0
 6354 00c0 0200     		.2byte	0x2
 6355 00c2 77       		.byte	0x77
 6356 00c3 08       		.sleb128 8
 6357 00c4 00000000 		.4byte	0
 6358 00c8 00000000 		.4byte	0
 6359              	.LLST19:
 6360 00cc 60110000 		.4byte	.LFB23-.Ltext0
 6361 00d0 62110000 		.4byte	.LCFI97-.Ltext0
 6362 00d4 0200     		.2byte	0x2
 6363 00d6 7D       		.byte	0x7d
 6364 00d7 00       		.sleb128 0
 6365 00d8 62110000 		.4byte	.LCFI97-.Ltext0
 6366 00dc 64110000 		.4byte	.LCFI98-.Ltext0
 6367 00e0 0200     		.2byte	0x2
 6368 00e2 7D       		.byte	0x7d
 6369 00e3 08       		.sleb128 8
 6370 00e4 64110000 		.4byte	.LCFI98-.Ltext0
 6371 00e8 66110000 		.4byte	.LCFI99-.Ltext0
 6372 00ec 0200     		.2byte	0x2
 6373 00ee 7D       		.byte	0x7d
 6374 00ef 10       		.sleb128 16
 6375 00f0 66110000 		.4byte	.LCFI99-.Ltext0
 6376 00f4 92110000 		.4byte	.LCFI100-.Ltext0
 6377 00f8 0200     		.2byte	0x2
 6378 00fa 77       		.byte	0x77
ARM GAS  G:\Users\Jaxb\AppData\Local\Temp\cc11Idxk.s 			page 131


 6379 00fb 10       		.sleb128 16
 6380 00fc 92110000 		.4byte	.LCFI100-.Ltext0
 6381 0100 94110000 		.4byte	.LCFI101-.Ltext0
 6382 0104 0200     		.2byte	0x2
 6383 0106 77       		.byte	0x77
 6384 0107 08       		.sleb128 8
 6385 0108 94110000 		.4byte	.LCFI101-.Ltext0
 6386 010c A4110000 		.4byte	.LFE23-.Ltext0
 6387 0110 0200     		.2byte	0x2
 6388 0112 7D       		.byte	0x7d
 6389 0113 08       		.sleb128 8
 6390 0114 00000000 		.4byte	0
 6391 0118 00000000 		.4byte	0
 6392              	.LLST18:
 6393 011c 80100000 		.4byte	.LFB22-.Ltext0
 6394 0120 82100000 		.4byte	.LCFI92-.Ltext0
 6395 0124 0200     		.2byte	0x2
 6396 0126 7D       		.byte	0x7d
 6397 0127 00       		.sleb128 0
 6398 0128 82100000 		.4byte	.LCFI92-.Ltext0
 6399 012c 84100000 		.4byte	.LCFI93-.Ltext0
 6400 0130 0200     		.2byte	0x2
 6401 0132 7D       		.byte	0x7d
 6402 0133 08       		.sleb128 8
 6403 0134 84100000 		.4byte	.LCFI93-.Ltext0
 6404 0138 86100000 		.4byte	.LCFI94-.Ltext0
 6405 013c 0200     		.2byte	0x2
 6406 013e 7D       		.byte	0x7d
 6407 013f 38       		.sleb128 56
 6408 0140 86100000 		.4byte	.LCFI94-.Ltext0
 6409 0144 50110000 		.4byte	.LCFI95-.Ltext0
 6410 0148 0200     		.2byte	0x2
 6411 014a 77       		.byte	0x77
 6412 014b 28       		.sleb128 40
 6413 014c 50110000 		.4byte	.LCFI95-.Ltext0
 6414 0150 52110000 		.4byte	.LCFI96-.Ltext0
 6415 0154 0200     		.2byte	0x2
 6416 0156 77       		.byte	0x77
 6417 0157 08       		.sleb128 8
 6418 0158 52110000 		.4byte	.LCFI96-.Ltext0
 6419 015c 60110000 		.4byte	.LFE22-.Ltext0
 6420 0160 0200     		.2byte	0x2
 6421 0162 7D       		.byte	0x7d
 6422 0163 08       		.sleb128 8
 6423 0164 00000000 		.4byte	0
 6424 0168 00000000 		.4byte	0
 6425              	.LLST17:
 6426 016c 4C0F0000 		.4byte	.LFB21-.Ltext0
 6427 0170 4E0F0000 		.4byte	.LCFI87-.Ltext0
 6428 0174 0200     		.2byte	0x2
 6429 0176 7D       		.byte	0x7d
 6430 0177 00       		.sleb128 0
 6431 0178 4E0F0000 		.4byte	.LCFI87-.Ltext0
 6432 017c 500F0000 		.4byte	.LCFI88-.Ltext0
 6433 0180 0200     		.2byte	0x2
 6434 0182 7D       		.byte	0x7d
 6435 0183 08       		.sleb128 8
ARM GAS  G:\Users\Jaxb\AppData\Local\Temp\cc11Idxk.s 			page 132


 6436 0184 500F0000 		.4byte	.LCFI88-.Ltext0
 6437 0188 520F0000 		.4byte	.LCFI89-.Ltext0
 6438 018c 0200     		.2byte	0x2
 6439 018e 7D       		.byte	0x7d
 6440 018f 18       		.sleb128 24
 6441 0190 520F0000 		.4byte	.LCFI89-.Ltext0
 6442 0194 56100000 		.4byte	.LCFI90-.Ltext0
 6443 0198 0200     		.2byte	0x2
 6444 019a 77       		.byte	0x77
 6445 019b 18       		.sleb128 24
 6446 019c 56100000 		.4byte	.LCFI90-.Ltext0
 6447 01a0 58100000 		.4byte	.LCFI91-.Ltext0
 6448 01a4 0200     		.2byte	0x2
 6449 01a6 77       		.byte	0x77
 6450 01a7 08       		.sleb128 8
 6451 01a8 58100000 		.4byte	.LCFI91-.Ltext0
 6452 01ac 80100000 		.4byte	.LFE21-.Ltext0
 6453 01b0 0200     		.2byte	0x2
 6454 01b2 7D       		.byte	0x7d
 6455 01b3 08       		.sleb128 8
 6456 01b4 00000000 		.4byte	0
 6457 01b8 00000000 		.4byte	0
 6458              	.LLST16:
 6459 01bc DC0E0000 		.4byte	.LFB20-.Ltext0
 6460 01c0 DE0E0000 		.4byte	.LCFI82-.Ltext0
 6461 01c4 0200     		.2byte	0x2
 6462 01c6 7D       		.byte	0x7d
 6463 01c7 00       		.sleb128 0
 6464 01c8 DE0E0000 		.4byte	.LCFI82-.Ltext0
 6465 01cc E00E0000 		.4byte	.LCFI83-.Ltext0
 6466 01d0 0200     		.2byte	0x2
 6467 01d2 7D       		.byte	0x7d
 6468 01d3 08       		.sleb128 8
 6469 01d4 E00E0000 		.4byte	.LCFI83-.Ltext0
 6470 01d8 E20E0000 		.4byte	.LCFI84-.Ltext0
 6471 01dc 0200     		.2byte	0x2
 6472 01de 7D       		.byte	0x7d
 6473 01df 10       		.sleb128 16
 6474 01e0 E20E0000 		.4byte	.LCFI84-.Ltext0
 6475 01e4 440F0000 		.4byte	.LCFI85-.Ltext0
 6476 01e8 0200     		.2byte	0x2
 6477 01ea 77       		.byte	0x77
 6478 01eb 10       		.sleb128 16
 6479 01ec 440F0000 		.4byte	.LCFI85-.Ltext0
 6480 01f0 460F0000 		.4byte	.LCFI86-.Ltext0
 6481 01f4 0200     		.2byte	0x2
 6482 01f6 77       		.byte	0x77
 6483 01f7 08       		.sleb128 8
 6484 01f8 460F0000 		.4byte	.LCFI86-.Ltext0
 6485 01fc 4C0F0000 		.4byte	.LFE20-.Ltext0
 6486 0200 0200     		.2byte	0x2
 6487 0202 7D       		.byte	0x7d
 6488 0203 08       		.sleb128 8
 6489 0204 00000000 		.4byte	0
 6490 0208 00000000 		.4byte	0
 6491              	.LLST15:
 6492 020c 44070000 		.4byte	.LFB19-.Ltext0
ARM GAS  G:\Users\Jaxb\AppData\Local\Temp\cc11Idxk.s 			page 133


 6493 0210 46070000 		.4byte	.LCFI77-.Ltext0
 6494 0214 0200     		.2byte	0x2
 6495 0216 7D       		.byte	0x7d
 6496 0217 00       		.sleb128 0
 6497 0218 46070000 		.4byte	.LCFI77-.Ltext0
 6498 021c 48070000 		.4byte	.LCFI78-.Ltext0
 6499 0220 0200     		.2byte	0x2
 6500 0222 7D       		.byte	0x7d
 6501 0223 0C       		.sleb128 12
 6502 0224 48070000 		.4byte	.LCFI78-.Ltext0
 6503 0228 4A070000 		.4byte	.LCFI79-.Ltext0
 6504 022c 0300     		.2byte	0x3
 6505 022e 7D       		.byte	0x7d
 6506 022f E800     		.sleb128 104
 6507 0231 4A070000 		.4byte	.LCFI79-.Ltext0
 6508 0235 CE0E0000 		.4byte	.LCFI80-.Ltext0
 6509 0239 0300     		.2byte	0x3
 6510 023b 77       		.byte	0x77
 6511 023c E800     		.sleb128 104
 6512 023e CE0E0000 		.4byte	.LCFI80-.Ltext0
 6513 0242 D00E0000 		.4byte	.LCFI81-.Ltext0
 6514 0246 0200     		.2byte	0x2
 6515 0248 77       		.byte	0x77
 6516 0249 0C       		.sleb128 12
 6517 024a D00E0000 		.4byte	.LCFI81-.Ltext0
 6518 024e DC0E0000 		.4byte	.LFE19-.Ltext0
 6519 0252 0200     		.2byte	0x2
 6520 0254 7D       		.byte	0x7d
 6521 0255 0C       		.sleb128 12
 6522 0256 00000000 		.4byte	0
 6523 025a 00000000 		.4byte	0
 6524              	.LLST14:
 6525 025e 48040000 		.4byte	.LFB18-.Ltext0
 6526 0262 4A040000 		.4byte	.LCFI72-.Ltext0
 6527 0266 0200     		.2byte	0x2
 6528 0268 7D       		.byte	0x7d
 6529 0269 00       		.sleb128 0
 6530 026a 4A040000 		.4byte	.LCFI72-.Ltext0
 6531 026e 4C040000 		.4byte	.LCFI73-.Ltext0
 6532 0272 0200     		.2byte	0x2
 6533 0274 7D       		.byte	0x7d
 6534 0275 08       		.sleb128 8
 6535 0276 4C040000 		.4byte	.LCFI73-.Ltext0
 6536 027a 4E040000 		.4byte	.LCFI74-.Ltext0
 6537 027e 0300     		.2byte	0x3
 6538 0280 7D       		.byte	0x7d
 6539 0281 C000     		.sleb128 64
 6540 0283 4E040000 		.4byte	.LCFI74-.Ltext0
 6541 0287 34070000 		.4byte	.LCFI75-.Ltext0
 6542 028b 0300     		.2byte	0x3
 6543 028d 77       		.byte	0x77
 6544 028e C000     		.sleb128 64
 6545 0290 34070000 		.4byte	.LCFI75-.Ltext0
 6546 0294 36070000 		.4byte	.LCFI76-.Ltext0
 6547 0298 0200     		.2byte	0x2
 6548 029a 77       		.byte	0x77
 6549 029b 08       		.sleb128 8
ARM GAS  G:\Users\Jaxb\AppData\Local\Temp\cc11Idxk.s 			page 134


 6550 029c 36070000 		.4byte	.LCFI76-.Ltext0
 6551 02a0 44070000 		.4byte	.LFE18-.Ltext0
 6552 02a4 0200     		.2byte	0x2
 6553 02a6 7D       		.byte	0x7d
 6554 02a7 08       		.sleb128 8
 6555 02a8 00000000 		.4byte	0
 6556 02ac 00000000 		.4byte	0
 6557              	.LLST13:
 6558 02b0 08040000 		.4byte	.LFB17-.Ltext0
 6559 02b4 0A040000 		.4byte	.LCFI67-.Ltext0
 6560 02b8 0200     		.2byte	0x2
 6561 02ba 7D       		.byte	0x7d
 6562 02bb 00       		.sleb128 0
 6563 02bc 0A040000 		.4byte	.LCFI67-.Ltext0
 6564 02c0 0C040000 		.4byte	.LCFI68-.Ltext0
 6565 02c4 0200     		.2byte	0x2
 6566 02c6 7D       		.byte	0x7d
 6567 02c7 08       		.sleb128 8
 6568 02c8 0C040000 		.4byte	.LCFI68-.Ltext0
 6569 02cc 0E040000 		.4byte	.LCFI69-.Ltext0
 6570 02d0 0200     		.2byte	0x2
 6571 02d2 7D       		.byte	0x7d
 6572 02d3 10       		.sleb128 16
 6573 02d4 0E040000 		.4byte	.LCFI69-.Ltext0
 6574 02d8 3C040000 		.4byte	.LCFI70-.Ltext0
 6575 02dc 0200     		.2byte	0x2
 6576 02de 77       		.byte	0x77
 6577 02df 10       		.sleb128 16
 6578 02e0 3C040000 		.4byte	.LCFI70-.Ltext0
 6579 02e4 3E040000 		.4byte	.LCFI71-.Ltext0
 6580 02e8 0200     		.2byte	0x2
 6581 02ea 77       		.byte	0x77
 6582 02eb 08       		.sleb128 8
 6583 02ec 3E040000 		.4byte	.LCFI71-.Ltext0
 6584 02f0 48040000 		.4byte	.LFE17-.Ltext0
 6585 02f4 0200     		.2byte	0x2
 6586 02f6 7D       		.byte	0x7d
 6587 02f7 08       		.sleb128 8
 6588 02f8 00000000 		.4byte	0
 6589 02fc 00000000 		.4byte	0
 6590              	.LLST12:
 6591 0300 70030000 		.4byte	.LFB16-.Ltext0
 6592 0304 72030000 		.4byte	.LCFI62-.Ltext0
 6593 0308 0200     		.2byte	0x2
 6594 030a 7D       		.byte	0x7d
 6595 030b 00       		.sleb128 0
 6596 030c 72030000 		.4byte	.LCFI62-.Ltext0
 6597 0310 74030000 		.4byte	.LCFI63-.Ltext0
 6598 0314 0200     		.2byte	0x2
 6599 0316 7D       		.byte	0x7d
 6600 0317 08       		.sleb128 8
 6601 0318 74030000 		.4byte	.LCFI63-.Ltext0
 6602 031c 76030000 		.4byte	.LCFI64-.Ltext0
 6603 0320 0200     		.2byte	0x2
 6604 0322 7D       		.byte	0x7d
 6605 0323 18       		.sleb128 24
 6606 0324 76030000 		.4byte	.LCFI64-.Ltext0
ARM GAS  G:\Users\Jaxb\AppData\Local\Temp\cc11Idxk.s 			page 135


 6607 0328 FA030000 		.4byte	.LCFI65-.Ltext0
 6608 032c 0200     		.2byte	0x2
 6609 032e 77       		.byte	0x77
 6610 032f 18       		.sleb128 24
 6611 0330 FA030000 		.4byte	.LCFI65-.Ltext0
 6612 0334 FC030000 		.4byte	.LCFI66-.Ltext0
 6613 0338 0200     		.2byte	0x2
 6614 033a 77       		.byte	0x77
 6615 033b 08       		.sleb128 8
 6616 033c FC030000 		.4byte	.LCFI66-.Ltext0
 6617 0340 08040000 		.4byte	.LFE16-.Ltext0
 6618 0344 0200     		.2byte	0x2
 6619 0346 7D       		.byte	0x7d
 6620 0347 08       		.sleb128 8
 6621 0348 00000000 		.4byte	0
 6622 034c 00000000 		.4byte	0
 6623              	.LLST11:
 6624 0350 E4020000 		.4byte	.LFB15-.Ltext0
 6625 0354 E6020000 		.4byte	.LCFI57-.Ltext0
 6626 0358 0200     		.2byte	0x2
 6627 035a 7D       		.byte	0x7d
 6628 035b 00       		.sleb128 0
 6629 035c E6020000 		.4byte	.LCFI57-.Ltext0
 6630 0360 E8020000 		.4byte	.LCFI58-.Ltext0
 6631 0364 0200     		.2byte	0x2
 6632 0366 7D       		.byte	0x7d
 6633 0367 08       		.sleb128 8
 6634 0368 E8020000 		.4byte	.LCFI58-.Ltext0
 6635 036c EA020000 		.4byte	.LCFI59-.Ltext0
 6636 0370 0200     		.2byte	0x2
 6637 0372 7D       		.byte	0x7d
 6638 0373 20       		.sleb128 32
 6639 0374 EA020000 		.4byte	.LCFI59-.Ltext0
 6640 0378 5A030000 		.4byte	.LCFI60-.Ltext0
 6641 037c 0200     		.2byte	0x2
 6642 037e 77       		.byte	0x77
 6643 037f 20       		.sleb128 32
 6644 0380 5A030000 		.4byte	.LCFI60-.Ltext0
 6645 0384 5C030000 		.4byte	.LCFI61-.Ltext0
 6646 0388 0200     		.2byte	0x2
 6647 038a 77       		.byte	0x77
 6648 038b 08       		.sleb128 8
 6649 038c 5C030000 		.4byte	.LCFI61-.Ltext0
 6650 0390 70030000 		.4byte	.LFE15-.Ltext0
 6651 0394 0200     		.2byte	0x2
 6652 0396 7D       		.byte	0x7d
 6653 0397 08       		.sleb128 8
 6654 0398 00000000 		.4byte	0
 6655 039c 00000000 		.4byte	0
 6656              	.LLST10:
 6657 03a0 6C020000 		.4byte	.LFB14-.Ltext0
 6658 03a4 6E020000 		.4byte	.LCFI52-.Ltext0
 6659 03a8 0200     		.2byte	0x2
 6660 03aa 7D       		.byte	0x7d
 6661 03ab 00       		.sleb128 0
 6662 03ac 6E020000 		.4byte	.LCFI52-.Ltext0
 6663 03b0 70020000 		.4byte	.LCFI53-.Ltext0
ARM GAS  G:\Users\Jaxb\AppData\Local\Temp\cc11Idxk.s 			page 136


 6664 03b4 0200     		.2byte	0x2
 6665 03b6 7D       		.byte	0x7d
 6666 03b7 08       		.sleb128 8
 6667 03b8 70020000 		.4byte	.LCFI53-.Ltext0
 6668 03bc 72020000 		.4byte	.LCFI54-.Ltext0
 6669 03c0 0200     		.2byte	0x2
 6670 03c2 7D       		.byte	0x7d
 6671 03c3 20       		.sleb128 32
 6672 03c4 72020000 		.4byte	.LCFI54-.Ltext0
 6673 03c8 DC020000 		.4byte	.LCFI55-.Ltext0
 6674 03cc 0200     		.2byte	0x2
 6675 03ce 77       		.byte	0x77
 6676 03cf 20       		.sleb128 32
 6677 03d0 DC020000 		.4byte	.LCFI55-.Ltext0
 6678 03d4 DE020000 		.4byte	.LCFI56-.Ltext0
 6679 03d8 0200     		.2byte	0x2
 6680 03da 77       		.byte	0x77
 6681 03db 08       		.sleb128 8
 6682 03dc DE020000 		.4byte	.LCFI56-.Ltext0
 6683 03e0 E4020000 		.4byte	.LFE14-.Ltext0
 6684 03e4 0200     		.2byte	0x2
 6685 03e6 7D       		.byte	0x7d
 6686 03e7 08       		.sleb128 8
 6687 03e8 00000000 		.4byte	0
 6688 03ec 00000000 		.4byte	0
 6689              	.LLST9:
 6690 03f0 0C020000 		.4byte	.LFB13-.Ltext0
 6691 03f4 0E020000 		.4byte	.LCFI47-.Ltext0
 6692 03f8 0200     		.2byte	0x2
 6693 03fa 7D       		.byte	0x7d
 6694 03fb 00       		.sleb128 0
 6695 03fc 0E020000 		.4byte	.LCFI47-.Ltext0
 6696 0400 10020000 		.4byte	.LCFI48-.Ltext0
 6697 0404 0200     		.2byte	0x2
 6698 0406 7D       		.byte	0x7d
 6699 0407 08       		.sleb128 8
 6700 0408 10020000 		.4byte	.LCFI48-.Ltext0
 6701 040c 12020000 		.4byte	.LCFI49-.Ltext0
 6702 0410 0200     		.2byte	0x2
 6703 0412 7D       		.byte	0x7d
 6704 0413 20       		.sleb128 32
 6705 0414 12020000 		.4byte	.LCFI49-.Ltext0
 6706 0418 5A020000 		.4byte	.LCFI50-.Ltext0
 6707 041c 0200     		.2byte	0x2
 6708 041e 77       		.byte	0x77
 6709 041f 20       		.sleb128 32
 6710 0420 5A020000 		.4byte	.LCFI50-.Ltext0
 6711 0424 5C020000 		.4byte	.LCFI51-.Ltext0
 6712 0428 0200     		.2byte	0x2
 6713 042a 77       		.byte	0x77
 6714 042b 08       		.sleb128 8
 6715 042c 5C020000 		.4byte	.LCFI51-.Ltext0
 6716 0430 6C020000 		.4byte	.LFE13-.Ltext0
 6717 0434 0200     		.2byte	0x2
 6718 0436 7D       		.byte	0x7d
 6719 0437 08       		.sleb128 8
 6720 0438 00000000 		.4byte	0
ARM GAS  G:\Users\Jaxb\AppData\Local\Temp\cc11Idxk.s 			page 137


 6721 043c 00000000 		.4byte	0
 6722              	.LLST8:
 6723 0440 00010000 		.4byte	.LFB12-.Ltext0
 6724 0444 02010000 		.4byte	.LCFI42-.Ltext0
 6725 0448 0200     		.2byte	0x2
 6726 044a 7D       		.byte	0x7d
 6727 044b 00       		.sleb128 0
 6728 044c 02010000 		.4byte	.LCFI42-.Ltext0
 6729 0450 04010000 		.4byte	.LCFI43-.Ltext0
 6730 0454 0200     		.2byte	0x2
 6731 0456 7D       		.byte	0x7d
 6732 0457 08       		.sleb128 8
 6733 0458 04010000 		.4byte	.LCFI43-.Ltext0
 6734 045c 06010000 		.4byte	.LCFI44-.Ltext0
 6735 0460 0200     		.2byte	0x2
 6736 0462 7D       		.byte	0x7d
 6737 0463 20       		.sleb128 32
 6738 0464 06010000 		.4byte	.LCFI44-.Ltext0
 6739 0468 D2010000 		.4byte	.LCFI45-.Ltext0
 6740 046c 0200     		.2byte	0x2
 6741 046e 77       		.byte	0x77
 6742 046f 20       		.sleb128 32
 6743 0470 D2010000 		.4byte	.LCFI45-.Ltext0
 6744 0474 D4010000 		.4byte	.LCFI46-.Ltext0
 6745 0478 0200     		.2byte	0x2
 6746 047a 77       		.byte	0x77
 6747 047b 08       		.sleb128 8
 6748 047c D4010000 		.4byte	.LCFI46-.Ltext0
 6749 0480 0C020000 		.4byte	.LFE12-.Ltext0
 6750 0484 0200     		.2byte	0x2
 6751 0486 7D       		.byte	0x7d
 6752 0487 08       		.sleb128 8
 6753 0488 00000000 		.4byte	0
 6754 048c 00000000 		.4byte	0
 6755              	.LLST7:
 6756 0490 EE000000 		.4byte	.LFB11-.Ltext0
 6757 0494 F0000000 		.4byte	.LCFI40-.Ltext0
 6758 0498 0200     		.2byte	0x2
 6759 049a 7D       		.byte	0x7d
 6760 049b 00       		.sleb128 0
 6761 049c F0000000 		.4byte	.LCFI40-.Ltext0
 6762 04a0 F2000000 		.4byte	.LCFI41-.Ltext0
 6763 04a4 0200     		.2byte	0x2
 6764 04a6 7D       		.byte	0x7d
 6765 04a7 08       		.sleb128 8
 6766 04a8 F2000000 		.4byte	.LCFI41-.Ltext0
 6767 04ac 00010000 		.4byte	.LFE11-.Ltext0
 6768 04b0 0200     		.2byte	0x2
 6769 04b2 77       		.byte	0x77
 6770 04b3 08       		.sleb128 8
 6771 04b4 00000000 		.4byte	0
 6772 04b8 00000000 		.4byte	0
 6773              	.LLST6:
 6774 04bc CE000000 		.4byte	.LFB10-.Ltext0
 6775 04c0 D0000000 		.4byte	.LCFI34-.Ltext0
 6776 04c4 0200     		.2byte	0x2
 6777 04c6 7D       		.byte	0x7d
ARM GAS  G:\Users\Jaxb\AppData\Local\Temp\cc11Idxk.s 			page 138


 6778 04c7 00       		.sleb128 0
 6779 04c8 D0000000 		.4byte	.LCFI34-.Ltext0
 6780 04cc D2000000 		.4byte	.LCFI35-.Ltext0
 6781 04d0 0200     		.2byte	0x2
 6782 04d2 7D       		.byte	0x7d
 6783 04d3 04       		.sleb128 4
 6784 04d4 D2000000 		.4byte	.LCFI35-.Ltext0
 6785 04d8 D4000000 		.4byte	.LCFI36-.Ltext0
 6786 04dc 0200     		.2byte	0x2
 6787 04de 7D       		.byte	0x7d
 6788 04df 10       		.sleb128 16
 6789 04e0 D4000000 		.4byte	.LCFI36-.Ltext0
 6790 04e4 E8000000 		.4byte	.LCFI37-.Ltext0
 6791 04e8 0200     		.2byte	0x2
 6792 04ea 77       		.byte	0x77
 6793 04eb 10       		.sleb128 16
 6794 04ec E8000000 		.4byte	.LCFI37-.Ltext0
 6795 04f0 EA000000 		.4byte	.LCFI38-.Ltext0
 6796 04f4 0200     		.2byte	0x2
 6797 04f6 77       		.byte	0x77
 6798 04f7 04       		.sleb128 4
 6799 04f8 EA000000 		.4byte	.LCFI38-.Ltext0
 6800 04fc EC000000 		.4byte	.LCFI39-.Ltext0
 6801 0500 0200     		.2byte	0x2
 6802 0502 7D       		.byte	0x7d
 6803 0503 04       		.sleb128 4
 6804 0504 EC000000 		.4byte	.LCFI39-.Ltext0
 6805 0508 EE000000 		.4byte	.LFE10-.Ltext0
 6806 050c 0200     		.2byte	0x2
 6807 050e 7D       		.byte	0x7d
 6808 050f 00       		.sleb128 0
 6809 0510 00000000 		.4byte	0
 6810 0514 00000000 		.4byte	0
 6811              	.LLST5:
 6812 0518 AC000000 		.4byte	.LFB9-.Ltext0
 6813 051c AE000000 		.4byte	.LCFI28-.Ltext0
 6814 0520 0200     		.2byte	0x2
 6815 0522 7D       		.byte	0x7d
 6816 0523 00       		.sleb128 0
 6817 0524 AE000000 		.4byte	.LCFI28-.Ltext0
 6818 0528 B0000000 		.4byte	.LCFI29-.Ltext0
 6819 052c 0200     		.2byte	0x2
 6820 052e 7D       		.byte	0x7d
 6821 052f 04       		.sleb128 4
 6822 0530 B0000000 		.4byte	.LCFI29-.Ltext0
 6823 0534 B2000000 		.4byte	.LCFI30-.Ltext0
 6824 0538 0200     		.2byte	0x2
 6825 053a 7D       		.byte	0x7d
 6826 053b 10       		.sleb128 16
 6827 053c B2000000 		.4byte	.LCFI30-.Ltext0
 6828 0540 C8000000 		.4byte	.LCFI31-.Ltext0
 6829 0544 0200     		.2byte	0x2
 6830 0546 77       		.byte	0x77
 6831 0547 10       		.sleb128 16
 6832 0548 C8000000 		.4byte	.LCFI31-.Ltext0
 6833 054c CA000000 		.4byte	.LCFI32-.Ltext0
 6834 0550 0200     		.2byte	0x2
ARM GAS  G:\Users\Jaxb\AppData\Local\Temp\cc11Idxk.s 			page 139


 6835 0552 77       		.byte	0x77
 6836 0553 04       		.sleb128 4
 6837 0554 CA000000 		.4byte	.LCFI32-.Ltext0
 6838 0558 CC000000 		.4byte	.LCFI33-.Ltext0
 6839 055c 0200     		.2byte	0x2
 6840 055e 7D       		.byte	0x7d
 6841 055f 04       		.sleb128 4
 6842 0560 CC000000 		.4byte	.LCFI33-.Ltext0
 6843 0564 CE000000 		.4byte	.LFE9-.Ltext0
 6844 0568 0200     		.2byte	0x2
 6845 056a 7D       		.byte	0x7d
 6846 056b 00       		.sleb128 0
 6847 056c 00000000 		.4byte	0
 6848 0570 00000000 		.4byte	0
 6849              	.LLST4:
 6850 0574 8C000000 		.4byte	.LFB5-.Ltext0
 6851 0578 8E000000 		.4byte	.LCFI23-.Ltext0
 6852 057c 0200     		.2byte	0x2
 6853 057e 7D       		.byte	0x7d
 6854 057f 00       		.sleb128 0
 6855 0580 8E000000 		.4byte	.LCFI23-.Ltext0
 6856 0584 90000000 		.4byte	.LCFI24-.Ltext0
 6857 0588 0200     		.2byte	0x2
 6858 058a 7D       		.byte	0x7d
 6859 058b 08       		.sleb128 8
 6860 058c 90000000 		.4byte	.LCFI24-.Ltext0
 6861 0590 92000000 		.4byte	.LCFI25-.Ltext0
 6862 0594 0200     		.2byte	0x2
 6863 0596 7D       		.byte	0x7d
 6864 0597 10       		.sleb128 16
 6865 0598 92000000 		.4byte	.LCFI25-.Ltext0
 6866 059c A8000000 		.4byte	.LCFI26-.Ltext0
 6867 05a0 0200     		.2byte	0x2
 6868 05a2 77       		.byte	0x77
 6869 05a3 10       		.sleb128 16
 6870 05a4 A8000000 		.4byte	.LCFI26-.Ltext0
 6871 05a8 AA000000 		.4byte	.LCFI27-.Ltext0
 6872 05ac 0200     		.2byte	0x2
 6873 05ae 77       		.byte	0x77
 6874 05af 08       		.sleb128 8
 6875 05b0 AA000000 		.4byte	.LCFI27-.Ltext0
 6876 05b4 AC000000 		.4byte	.LFE5-.Ltext0
 6877 05b8 0200     		.2byte	0x2
 6878 05ba 7D       		.byte	0x7d
 6879 05bb 08       		.sleb128 8
 6880 05bc 00000000 		.4byte	0
 6881 05c0 00000000 		.4byte	0
 6882              	.LLST3:
 6883 05c4 6C000000 		.4byte	.LFB4-.Ltext0
 6884 05c8 6E000000 		.4byte	.LCFI17-.Ltext0
 6885 05cc 0200     		.2byte	0x2
 6886 05ce 7D       		.byte	0x7d
 6887 05cf 00       		.sleb128 0
 6888 05d0 6E000000 		.4byte	.LCFI17-.Ltext0
 6889 05d4 70000000 		.4byte	.LCFI18-.Ltext0
 6890 05d8 0200     		.2byte	0x2
 6891 05da 7D       		.byte	0x7d
ARM GAS  G:\Users\Jaxb\AppData\Local\Temp\cc11Idxk.s 			page 140


 6892 05db 04       		.sleb128 4
 6893 05dc 70000000 		.4byte	.LCFI18-.Ltext0
 6894 05e0 72000000 		.4byte	.LCFI19-.Ltext0
 6895 05e4 0200     		.2byte	0x2
 6896 05e6 7D       		.byte	0x7d
 6897 05e7 10       		.sleb128 16
 6898 05e8 72000000 		.4byte	.LCFI19-.Ltext0
 6899 05ec 86000000 		.4byte	.LCFI20-.Ltext0
 6900 05f0 0200     		.2byte	0x2
 6901 05f2 77       		.byte	0x77
 6902 05f3 10       		.sleb128 16
 6903 05f4 86000000 		.4byte	.LCFI20-.Ltext0
 6904 05f8 88000000 		.4byte	.LCFI21-.Ltext0
 6905 05fc 0200     		.2byte	0x2
 6906 05fe 77       		.byte	0x77
 6907 05ff 04       		.sleb128 4
 6908 0600 88000000 		.4byte	.LCFI21-.Ltext0
 6909 0604 8A000000 		.4byte	.LCFI22-.Ltext0
 6910 0608 0200     		.2byte	0x2
 6911 060a 7D       		.byte	0x7d
 6912 060b 04       		.sleb128 4
 6913 060c 8A000000 		.4byte	.LCFI22-.Ltext0
 6914 0610 8C000000 		.4byte	.LFE4-.Ltext0
 6915 0614 0200     		.2byte	0x2
 6916 0616 7D       		.byte	0x7d
 6917 0617 00       		.sleb128 0
 6918 0618 00000000 		.4byte	0
 6919 061c 00000000 		.4byte	0
 6920              	.LLST2:
 6921 0620 4C000000 		.4byte	.LFB2-.Ltext0
 6922 0624 4E000000 		.4byte	.LCFI12-.Ltext0
 6923 0628 0200     		.2byte	0x2
 6924 062a 7D       		.byte	0x7d
 6925 062b 00       		.sleb128 0
 6926 062c 4E000000 		.4byte	.LCFI12-.Ltext0
 6927 0630 50000000 		.4byte	.LCFI13-.Ltext0
 6928 0634 0200     		.2byte	0x2
 6929 0636 7D       		.byte	0x7d
 6930 0637 08       		.sleb128 8
 6931 0638 50000000 		.4byte	.LCFI13-.Ltext0
 6932 063c 52000000 		.4byte	.LCFI14-.Ltext0
 6933 0640 0200     		.2byte	0x2
 6934 0642 7D       		.byte	0x7d
 6935 0643 10       		.sleb128 16
 6936 0644 52000000 		.4byte	.LCFI14-.Ltext0
 6937 0648 68000000 		.4byte	.LCFI15-.Ltext0
 6938 064c 0200     		.2byte	0x2
 6939 064e 77       		.byte	0x77
 6940 064f 10       		.sleb128 16
 6941 0650 68000000 		.4byte	.LCFI15-.Ltext0
 6942 0654 6A000000 		.4byte	.LCFI16-.Ltext0
 6943 0658 0200     		.2byte	0x2
 6944 065a 77       		.byte	0x77
 6945 065b 08       		.sleb128 8
 6946 065c 6A000000 		.4byte	.LCFI16-.Ltext0
 6947 0660 6C000000 		.4byte	.LFE2-.Ltext0
 6948 0664 0200     		.2byte	0x2
ARM GAS  G:\Users\Jaxb\AppData\Local\Temp\cc11Idxk.s 			page 141


 6949 0666 7D       		.byte	0x7d
 6950 0667 08       		.sleb128 8
 6951 0668 00000000 		.4byte	0
 6952 066c 00000000 		.4byte	0
 6953              	.LLST1:
 6954 0670 1E000000 		.4byte	.LFB1-.Ltext0
 6955 0674 20000000 		.4byte	.LCFI6-.Ltext0
 6956 0678 0200     		.2byte	0x2
 6957 067a 7D       		.byte	0x7d
 6958 067b 00       		.sleb128 0
 6959 067c 20000000 		.4byte	.LCFI6-.Ltext0
 6960 0680 22000000 		.4byte	.LCFI7-.Ltext0
 6961 0684 0200     		.2byte	0x2
 6962 0686 7D       		.byte	0x7d
 6963 0687 04       		.sleb128 4
 6964 0688 22000000 		.4byte	.LCFI7-.Ltext0
 6965 068c 24000000 		.4byte	.LCFI8-.Ltext0
 6966 0690 0200     		.2byte	0x2
 6967 0692 7D       		.byte	0x7d
 6968 0693 18       		.sleb128 24
 6969 0694 24000000 		.4byte	.LCFI8-.Ltext0
 6970 0698 46000000 		.4byte	.LCFI9-.Ltext0
 6971 069c 0200     		.2byte	0x2
 6972 069e 77       		.byte	0x77
 6973 069f 18       		.sleb128 24
 6974 06a0 46000000 		.4byte	.LCFI9-.Ltext0
 6975 06a4 48000000 		.4byte	.LCFI10-.Ltext0
 6976 06a8 0200     		.2byte	0x2
 6977 06aa 77       		.byte	0x77
 6978 06ab 04       		.sleb128 4
 6979 06ac 48000000 		.4byte	.LCFI10-.Ltext0
 6980 06b0 4A000000 		.4byte	.LCFI11-.Ltext0
 6981 06b4 0200     		.2byte	0x2
 6982 06b6 7D       		.byte	0x7d
 6983 06b7 04       		.sleb128 4
 6984 06b8 4A000000 		.4byte	.LCFI11-.Ltext0
 6985 06bc 4C000000 		.4byte	.LFE1-.Ltext0
 6986 06c0 0200     		.2byte	0x2
 6987 06c2 7D       		.byte	0x7d
 6988 06c3 00       		.sleb128 0
 6989 06c4 00000000 		.4byte	0
 6990 06c8 00000000 		.4byte	0
 6991              	.LLST0:
 6992 06cc 00000000 		.4byte	.LFB0-.Ltext0
 6993 06d0 02000000 		.4byte	.LCFI0-.Ltext0
 6994 06d4 0200     		.2byte	0x2
 6995 06d6 7D       		.byte	0x7d
 6996 06d7 00       		.sleb128 0
 6997 06d8 02000000 		.4byte	.LCFI0-.Ltext0
 6998 06dc 04000000 		.4byte	.LCFI1-.Ltext0
 6999 06e0 0200     		.2byte	0x2
 7000 06e2 7D       		.byte	0x7d
 7001 06e3 04       		.sleb128 4
 7002 06e4 04000000 		.4byte	.LCFI1-.Ltext0
 7003 06e8 06000000 		.4byte	.LCFI2-.Ltext0
 7004 06ec 0200     		.2byte	0x2
 7005 06ee 7D       		.byte	0x7d
ARM GAS  G:\Users\Jaxb\AppData\Local\Temp\cc11Idxk.s 			page 142


 7006 06ef 10       		.sleb128 16
 7007 06f0 06000000 		.4byte	.LCFI2-.Ltext0
 7008 06f4 18000000 		.4byte	.LCFI3-.Ltext0
 7009 06f8 0200     		.2byte	0x2
 7010 06fa 77       		.byte	0x77
 7011 06fb 10       		.sleb128 16
 7012 06fc 18000000 		.4byte	.LCFI3-.Ltext0
 7013 0700 1A000000 		.4byte	.LCFI4-.Ltext0
 7014 0704 0200     		.2byte	0x2
 7015 0706 77       		.byte	0x77
 7016 0707 04       		.sleb128 4
 7017 0708 1A000000 		.4byte	.LCFI4-.Ltext0
 7018 070c 1C000000 		.4byte	.LCFI5-.Ltext0
 7019 0710 0200     		.2byte	0x2
 7020 0712 7D       		.byte	0x7d
 7021 0713 04       		.sleb128 4
 7022 0714 1C000000 		.4byte	.LCFI5-.Ltext0
 7023 0718 1E000000 		.4byte	.LFE0-.Ltext0
 7024 071c 0200     		.2byte	0x2
 7025 071e 7D       		.byte	0x7d
 7026 071f 00       		.sleb128 0
 7027 0720 00000000 		.4byte	0
 7028 0724 00000000 		.4byte	0
 7029              		.section	.debug_aranges,"",%progbits
 7030 0000 1C000000 		.4byte	0x1c
 7031 0004 0200     		.2byte	0x2
 7032 0006 00000000 		.4byte	.Ldebug_info0
 7033 000a 04       		.byte	0x4
 7034 000b 00       		.byte	0
 7035 000c 0000     		.2byte	0
 7036 000e 0000     		.2byte	0
 7037 0010 00000000 		.4byte	.Ltext0
 7038 0014 FC110000 		.4byte	.Letext0-.Ltext0
 7039 0018 00000000 		.4byte	0
 7040 001c 00000000 		.4byte	0
 7041              		.section	.debug_ranges,"",%progbits
 7042              	.Ldebug_ranges0:
 7043 0000 EA0B0000 		.4byte	.LBB15-.Ltext0
 7044 0004 320C0000 		.4byte	.LBE15-.Ltext0
 7045 0008 460C0000 		.4byte	.LBB16-.Ltext0
 7046 000c 480C0000 		.4byte	.LBE16-.Ltext0
 7047 0010 00000000 		.4byte	0
 7048 0014 00000000 		.4byte	0
 7049              		.section	.debug_line,"",%progbits
 7050              	.Ldebug_line0:
 7051 0000 1A040000 		.section	.debug_str,"MS",%progbits,1
 7051      0200F800 
 7051      00000201 
 7051      FB0E0D00 
 7051      01010101 
 7052              	.LASF136:
 7053 0000 636F756E 		.ascii	"count\000"
 7053      7400
 7054              	.LASF41:
 7055 0006 73685F61 		.ascii	"sh_addralign\000"
 7055      64647261 
 7055      6C69676E 
ARM GAS  G:\Users\Jaxb\AppData\Local\Temp\cc11Idxk.s 			page 143


 7055      00
 7056              	.LASF91:
 7057 0013 73757370 		.ascii	"suspend_list\000"
 7057      656E645F 
 7057      6C697374 
 7057      00
 7058              	.LASF58:
 7059 0020 705F7661 		.ascii	"p_vaddr\000"
 7059      64647200 
 7060              	.LASF51:
 7061 0028 73745F73 		.ascii	"st_shndx\000"
 7061      686E6478 
 7061      00
 7062              	.LASF80:
 7063 0031 5441534B 		.ascii	"TASK_PRIO_TYPE\000"
 7063      5F505249 
 7063      4F5F5459 
 7063      504500
 7064              	.LASF12:
 7065 0040 73697A65 		.ascii	"size_t\000"
 7065      5F7400
 7066              	.LASF132:
 7067 0047 73796D74 		.ascii	"symtab\000"
 7067      616200
 7068              	.LASF141:
 7069 004e 77686572 		.ascii	"where\000"
 7069      6500
 7070              	.LASF49:
 7071 0054 73745F69 		.ascii	"st_info\000"
 7071      6E666F00 
 7072              	.LASF140:
 7073 005c 73796D5F 		.ascii	"sym_val\000"
 7073      76616C00 
 7074              	.LASF67:
 7075 0064 70726576 		.ascii	"prev\000"
 7075      00
 7076              	.LASF163:
 7077 0069 6C697374 		.ascii	"list_empty\000"
 7077      5F656D70 
 7077      747900
 7078              	.LASF43:
 7079 0074 456C6633 		.ascii	"Elf32_Shdr\000"
 7079      325F5368 
 7079      647200
 7080              	.LASF102:
 7081 007f 696E6974 		.ascii	"init\000"
 7081      00
 7082              	.LASF161:
 7083 0084 7365745F 		.ascii	"set_module_state\000"
 7083      6D6F6475 
 7083      6C655F73 
 7083      74617465 
 7083      00
 7084              	.LASF95:
 7085 0095 61747472 		.ascii	"attribution\000"
 7085      69627574 
 7085      696F6E00 
ARM GAS  G:\Users\Jaxb\AppData\Local\Temp\cc11Idxk.s 			page 144


 7086              	.LASF19:
 7087 00a1 655F7479 		.ascii	"e_type\000"
 7087      706500
 7088              	.LASF107:
 7089 00a8 656E7472 		.ascii	"entry\000"
 7089      7900
 7090              	.LASF11:
 7091 00ae 6C6F6E67 		.ascii	"long long unsigned int\000"
 7091      206C6F6E 
 7091      6720756E 
 7091      7369676E 
 7091      65642069 
 7092              	.LASF63:
 7093 00c5 705F616C 		.ascii	"p_align\000"
 7093      69676E00 
 7094              	.LASF38:
 7095 00cd 73685F73 		.ascii	"sh_size\000"
 7095      697A6500 
 7096              	.LASF113:
 7097 00d5 61646472 		.ascii	"addr\000"
 7097      00
 7098              	.LASF120:
 7099 00da 6D6F6475 		.ascii	"module\000"
 7099      6C6500
 7100              	.LASF36:
 7101 00e1 73685F61 		.ascii	"sh_addr\000"
 7101      64647200 
 7102              	.LASF145:
 7103 00e9 6C6F7765 		.ascii	"lower\000"
 7103      7200
 7104              	.LASF78:
 7105 00ef 5441534B 		.ascii	"TASK_STATE\000"
 7105      5F535441 
 7105      544500
 7106              	.LASF14:
 7107 00fa 456C6633 		.ascii	"Elf32_Off\000"
 7107      325F4F66 
 7107      6600
 7108              	.LASF66:
 7109 0104 6E657874 		.ascii	"next\000"
 7109      00
 7110              	.LASF82:
 7111 0109 7461736B 		.ascii	"task_control_block_struct\000"
 7111      5F636F6E 
 7111      74726F6C 
 7111      5F626C6F 
 7111      636B5F73 
 7112              	.LASF2:
 7113 0123 6C6F6E67 		.ascii	"long long int\000"
 7113      206C6F6E 
 7113      6720696E 
 7113      7400
 7114              	.LASF0:
 7115 0131 7369676E 		.ascii	"signed char\000"
 7115      65642063 
 7115      68617200 
 7116              	.LASF86:
ARM GAS  G:\Users\Jaxb\AppData\Local\Temp\cc11Idxk.s 			page 145


 7117 013d 72657365 		.ascii	"reserve_prio\000"
 7117      7276655F 
 7117      7072696F 
 7117      00
 7118              	.LASF60:
 7119 014a 705F6669 		.ascii	"p_filesz\000"
 7119      6C65737A 
 7119      00
 7120              	.LASF105:
 7121 0153 6D6F6475 		.ascii	"module_size\000"
 7121      6C655F73 
 7121      697A6500 
 7122              	.LASF112:
 7123 015f 6B615F6D 		.ascii	"ka_module_symtab\000"
 7123      6F64756C 
 7123      655F7379 
 7123      6D746162 
 7123      00
 7124              	.LASF125:
 7125 0170 6D6F6475 		.ascii	"module_ptr\000"
 7125      6C655F70 
 7125      747200
 7126              	.LASF16:
 7127 017b 456C6633 		.ascii	"Elf32_Word\000"
 7127      325F576F 
 7127      726400
 7128              	.LASF142:
 7129 0186 61646465 		.ascii	"addend\000"
 7129      6E6400
 7130              	.LASF146:
 7131 018d 7369676E 		.ascii	"sign\000"
 7131      00
 7132              	.LASF162:
 7133 0192 73746174 		.ascii	"state\000"
 7133      6500
 7134              	.LASF31:
 7135 0198 655F7368 		.ascii	"e_shstrndx\000"
 7135      7374726E 
 7135      647800
 7136              	.LASF168:
 7137 01a3 5F5F6C69 		.ascii	"__list_add\000"
 7137      73745F61 
 7137      646400
 7138              	.LASF114:
 7139 01ae 6D6F6475 		.ascii	"module_buffer\000"
 7139      6C655F62 
 7139      75666665 
 7139      7200
 7140              	.LASF116:
 7141 01bc 636C6561 		.ascii	"clear_module_buffer\000"
 7141      725F6D6F 
 7141      64756C65 
 7141      5F627566 
 7141      66657200 
 7142              	.LASF144:
 7143 01d0 75707065 		.ascii	"upper\000"
 7143      7200
ARM GAS  G:\Users\Jaxb\AppData\Local\Temp\cc11Idxk.s 			page 146


 7144              	.LASF90:
 7145 01d6 73616D65 		.ascii	"same_prio_list\000"
 7145      5F707269 
 7145      6F5F6C69 
 7145      737400
 7146              	.LASF47:
 7147 01e5 73745F76 		.ascii	"st_value\000"
 7147      616C7565 
 7147      00
 7148              	.LASF59:
 7149 01ee 705F7061 		.ascii	"p_paddr\000"
 7149      64647200 
 7150              	.LASF147:
 7151 01f6 72656D6F 		.ascii	"remove_module\000"
 7151      76655F6D 
 7151      6F64756C 
 7151      6500
 7152              	.LASF6:
 7153 0204 55494E54 		.ascii	"UINT16\000"
 7153      313600
 7154              	.LASF134:
 7155 020b 756E736F 		.ascii	"unsolved\000"
 7155      6C766564 
 7155      00
 7156              	.LASF61:
 7157 0214 705F6D65 		.ascii	"p_memsz\000"
 7157      6D737A00 
 7158              	.LASF157:
 7159 021c 7368656C 		.ascii	"shell_list_module\000"
 7159      6C5F6C69 
 7159      73745F6D 
 7159      6F64756C 
 7159      6500
 7160              	.LASF39:
 7161 022e 73685F6C 		.ascii	"sh_link\000"
 7161      696E6B00 
 7162              	.LASF74:
 7163 0236 53544154 		.ascii	"STATE_WAIT_MESSAGE_QUEUE_TIMEOUT\000"
 7163      455F5741 
 7163      49545F4D 
 7163      45535341 
 7163      47455F51 
 7164              	.LASF166:
 7165 0257 5F5F6C69 		.ascii	"__list_del\000"
 7165      73745F64 
 7165      656C00
 7166              	.LASF44:
 7167 0262 656C6668 		.ascii	"elfhdr\000"
 7167      647200
 7168              	.LASF75:
 7169 0269 53544154 		.ascii	"STATE_PUT_MESSAGE_QUEUE_FOREVER\000"
 7169      455F5055 
 7169      545F4D45 
 7169      53534147 
 7169      455F5155 
 7170              	.LASF9:
 7171 0289 756E7369 		.ascii	"unsigned int\000"
ARM GAS  G:\Users\Jaxb\AppData\Local\Temp\cc11Idxk.s 			page 147


 7171      676E6564 
 7171      20696E74 
 7171      00
 7172              	.LASF56:
 7173 0296 705F7479 		.ascii	"p_type\000"
 7173      706500
 7174              	.LASF15:
 7175 029d 456C6633 		.ascii	"Elf32_Sword\000"
 7175      325F5377 
 7175      6F726400 
 7176              	.LASF122:
 7177 02a9 5443425F 		.ascii	"TCB_ptr\000"
 7177      70747200 
 7178              	.LASF69:
 7179 02b1 53544154 		.ascii	"STATE_DELAY\000"
 7179      455F4445 
 7179      4C415900 
 7180              	.LASF133:
 7181 02bd 73747274 		.ascii	"strtab\000"
 7181      616200
 7182              	.LASF27:
 7183 02c4 655F7068 		.ascii	"e_phentsize\000"
 7183      656E7473 
 7183      697A6500 
 7184              	.LASF138:
 7185 02d0 6C6F6E67 		.ascii	"long unsigned int\000"
 7185      20756E73 
 7185      69676E65 
 7185      6420696E 
 7185      7400
 7186              	.LASF3:
 7187 02e2 494E5433 		.ascii	"INT32\000"
 7187      3200
 7188              	.LASF149:
 7189 02e8 61726763 		.ascii	"argc\000"
 7189      00
 7190              	.LASF92:
 7191 02ed 6E616D65 		.ascii	"name\000"
 7191      00
 7192              	.LASF123:
 7193 02f2 646C6D6F 		.ascii	"dlmodule_exec\000"
 7193      64756C65 
 7193      5F657865 
 7193      6300
 7194              	.LASF33:
 7195 0300 73685F6E 		.ascii	"sh_name\000"
 7195      616D6500 
 7196              	.LASF7:
 7197 0308 73686F72 		.ascii	"short unsigned int\000"
 7197      7420756E 
 7197      7369676E 
 7197      65642069 
 7197      6E7400
 7198              	.LASF167:
 7199 031b 6C697374 		.ascii	"list_add\000"
 7199      5F616464 
 7199      00
ARM GAS  G:\Users\Jaxb\AppData\Local\Temp\cc11Idxk.s 			page 148


 7200              	.LASF50:
 7201 0324 73745F6F 		.ascii	"st_other\000"
 7201      74686572 
 7201      00
 7202              	.LASF64:
 7203 032d 456C6633 		.ascii	"Elf32_Phdr\000"
 7203      325F5068 
 7203      647200
 7204              	.LASF169:
 7205 0338 6C697374 		.ascii	"list\000"
 7205      00
 7206              	.LASF20:
 7207 033d 655F6D61 		.ascii	"e_machine\000"
 7207      6368696E 
 7207      6500
 7208              	.LASF100:
 7209 0347 6D6F6475 		.ascii	"module_list\000"
 7209      6C655F6C 
 7209      69737400 
 7210              	.LASF55:
 7211 0353 456C6633 		.ascii	"Elf32_Rel\000"
 7211      325F5265 
 7211      6C00
 7212              	.LASF48:
 7213 035d 73745F73 		.ascii	"st_size\000"
 7213      697A6500 
 7214              	.LASF156:
 7215 0365 66756E5F 		.ascii	"fun_name\000"
 7215      6E616D65 
 7215      00
 7216              	.LASF119:
 7217 036e 7075745F 		.ascii	"put_in_module_buffer\000"
 7217      696E5F6D 
 7217      6F64756C 
 7217      655F6275 
 7217      66666572 
 7218              	.LASF173:
 7219 0383 5461736B 		.ascii	"Task_State\000"
 7219      5F537461 
 7219      746500
 7220              	.LASF160:
 7221 038e 5F5F696E 		.ascii	"__init_d_module\000"
 7221      69745F64 
 7221      5F6D6F64 
 7221      756C6500 
 7222              	.LASF108:
 7223 039e 76737461 		.ascii	"vstart_addr\000"
 7223      72745F61 
 7223      64647200 
 7224              	.LASF115:
 7225 03aa 6D6F6475 		.ascii	"module_list_head\000"
 7225      6C655F6C 
 7225      6973745F 
 7225      68656164 
 7225      00
 7226              	.LASF148:
 7227 03bb 7368656C 		.ascii	"shell_remove_module\000"
ARM GAS  G:\Users\Jaxb\AppData\Local\Temp\cc11Idxk.s 			page 149


 7227      6C5F7265 
 7227      6D6F7665 
 7227      5F6D6F64 
 7227      756C6500 
 7228              	.LASF26:
 7229 03cf 655F6568 		.ascii	"e_ehsize\000"
 7229      73697A65 
 7229      00
 7230              	.LASF129:
 7231 03d8 76656E64 		.ascii	"vend_addr\000"
 7231      5F616464 
 7231      7200
 7232              	.LASF68:
 7233 03e2 53544154 		.ascii	"STATE_READY\000"
 7233      455F5245 
 7233      41445900 
 7234              	.LASF153:
 7235 03ee 5F5F6D70 		.ascii	"__mptr\000"
 7235      747200
 7236              	.LASF8:
 7237 03f5 55494E54 		.ascii	"UINT32\000"
 7237      333200
 7238              	.LASF21:
 7239 03fc 655F7665 		.ascii	"e_version\000"
 7239      7273696F 
 7239      6E00
 7240              	.LASF57:
 7241 0406 705F6F66 		.ascii	"p_offset\000"
 7241      66736574 
 7241      00
 7242              	.LASF94:
 7243 040f 74696D65 		.ascii	"timeslice_rest_time\000"
 7243      736C6963 
 7243      655F7265 
 7243      73745F74 
 7243      696D6500 
 7244              	.LASF127:
 7245 0423 6C696E6B 		.ascii	"linked\000"
 7245      656400
 7246              	.LASF88:
 7247 042a 7072696F 		.ascii	"prio\000"
 7247      00
 7248              	.LASF17:
 7249 042f 456C6633 		.ascii	"Elf32_Half\000"
 7249      325F4861 
 7249      6C6600
 7250              	.LASF130:
 7251 043a 6861735F 		.ascii	"has_vstart\000"
 7251      76737461 
 7251      727400
 7252              	.LASF71:
 7253 0445 53544154 		.ascii	"STATE_WAIT_MCB_FOREVER\000"
 7253      455F5741 
 7253      49545F4D 
 7253      43425F46 
 7253      4F524556 
 7254              	.LASF154:
ARM GAS  G:\Users\Jaxb\AppData\Local\Temp\cc11Idxk.s 			page 150


 7255 045c 5F72656D 		.ascii	"_remove_a_module\000"
 7255      6F76655F 
 7255      615F6D6F 
 7255      64756C65 
 7255      00
 7256              	.LASF85:
 7257 046d 73746163 		.ascii	"stack_end\000"
 7257      6B5F656E 
 7257      6400
 7258              	.LASF121:
 7259 0477 6572726F 		.ascii	"error\000"
 7259      7200
 7260              	.LASF32:
 7261 047d 456C6633 		.ascii	"Elf32_Ehdr\000"
 7261      325F4568 
 7261      647200
 7262              	.LASF77:
 7263 0488 53544154 		.ascii	"STATE_WAIT_MUTEX_FOREVER\000"
 7263      455F5741 
 7263      49545F4D 
 7263      55544558 
 7263      5F464F52 
 7264              	.LASF109:
 7265 04a1 6578706F 		.ascii	"export_symbols_array\000"
 7265      72745F73 
 7265      796D626F 
 7265      6C735F61 
 7265      72726179 
 7266              	.LASF170:
 7267 04b6 474E5520 		.ascii	"GNU C11 7.3.1 20180622 (release) [ARM/embedded-7-br"
 7267      43313120 
 7267      372E332E 
 7267      31203230 
 7267      31383036 
 7268 04e9 616E6368 		.ascii	"anch revision 261907] -mcpu=cortex-m3 -mthumb -mapc"
 7268      20726576 
 7268      6973696F 
 7268      6E203236 
 7268      31393037 
 7269 051c 732D6672 		.ascii	"s-frame -mthumb-interwork -mcpu=cortex-m3 -mthumb -"
 7269      616D6520 
 7269      2D6D7468 
 7269      756D622D 
 7269      696E7465 
 7270 054f 67647761 		.ascii	"gdwarf-2 -O0\000"
 7270      72662D32 
 7270      202D4F30 
 7270      00
 7271              	.LASF42:
 7272 055c 73685F65 		.ascii	"sh_entsize\000"
 7272      6E747369 
 7272      7A6500
 7273              	.LASF174:
 7274 0567 675F696E 		.ascii	"g_interrupt_count\000"
 7274      74657272 
 7274      7570745F 
 7274      636F756E 
ARM GAS  G:\Users\Jaxb\AppData\Local\Temp\cc11Idxk.s 			page 151


 7274      7400
 7275              	.LASF155:
 7276 0579 6765745F 		.ascii	"get_mod_export_function_addr\000"
 7276      6D6F645F 
 7276      6578706F 
 7276      72745F66 
 7276      756E6374 
 7277              	.LASF135:
 7278 0596 73687374 		.ascii	"shstrab\000"
 7278      72616200 
 7279              	.LASF5:
 7280 059e 756E7369 		.ascii	"unsigned char\000"
 7280      676E6564 
 7280      20636861 
 7280      7200
 7281              	.LASF24:
 7282 05ac 655F7368 		.ascii	"e_shoff\000"
 7282      6F666600 
 7283              	.LASF111:
 7284 05b4 74687265 		.ascii	"thread_TCB_ptr\000"
 7284      61645F54 
 7284      43425F70 
 7284      747200
 7285              	.LASF1:
 7286 05c3 73686F72 		.ascii	"short int\000"
 7286      7420696E 
 7286      7400
 7287              	.LASF81:
 7288 05cd 66756E63 		.ascii	"functionptr\000"
 7288      74696F6E 
 7288      70747200 
 7289              	.LASF40:
 7290 05d9 73685F69 		.ascii	"sh_info\000"
 7290      6E666F00 
 7291              	.LASF151:
 7292 05e1 5F5F6578 		.ascii	"__exit\000"
 7292      697400
 7293              	.LASF62:
 7294 05e8 705F666C 		.ascii	"p_flags\000"
 7294      61677300 
 7295              	.LASF18:
 7296 05f0 655F6964 		.ascii	"e_ident\000"
 7296      656E7400 
 7297              	.LASF118:
 7298 05f8 7365745F 		.ascii	"set_module_buffer\000"
 7298      6D6F6475 
 7298      6C655F62 
 7298      75666665 
 7298      7200
 7299              	.LASF171:
 7300 060a 2E2E2F2E 		.ascii	"../../source/src/kernel/OS_CORE/module.c\000"
 7300      2E2F736F 
 7300      75726365 
 7300      2F737263 
 7300      2F6B6572 
 7301              	.LASF83:
 7302 0633 73746163 		.ascii	"stack\000"
ARM GAS  G:\Users\Jaxb\AppData\Local\Temp\cc11Idxk.s 			page 152


 7302      6B00
 7303              	.LASF103:
 7304 0639 65786974 		.ascii	"exit\000"
 7304      00
 7305              	.LASF101:
 7306 063e 6D6F6475 		.ascii	"module_state\000"
 7306      6C655F73 
 7306      74617465 
 7306      00
 7307              	.LASF124:
 7308 064b 646C6D6F 		.ascii	"dlmodule_load\000"
 7308      64756C65 
 7308      5F6C6F61 
 7308      6400
 7309              	.LASF76:
 7310 0659 53544154 		.ascii	"STATE_PUT_MESSAGE_QUEUE_TIMEOUT\000"
 7310      455F5055 
 7310      545F4D45 
 7310      53534147 
 7310      455F5155 
 7311              	.LASF164:
 7312 0679 68656164 		.ascii	"head\000"
 7312      00
 7313              	.LASF25:
 7314 067e 655F666C 		.ascii	"e_flags\000"
 7314      61677300 
 7315              	.LASF46:
 7316 0686 73745F6E 		.ascii	"st_name\000"
 7316      616D6500 
 7317              	.LASF98:
 7318 068e 63686172 		.ascii	"char\000"
 7318      00
 7319              	.LASF93:
 7320 0693 74696D65 		.ascii	"timeslice_hope_time\000"
 7320      736C6963 
 7320      655F686F 
 7320      70655F74 
 7320      696D6500 
 7321              	.LASF23:
 7322 06a7 655F7068 		.ascii	"e_phoff\000"
 7322      6F666600 
 7323              	.LASF13:
 7324 06af 456C6633 		.ascii	"Elf32_Addr\000"
 7324      325F4164 
 7324      647200
 7325              	.LASF35:
 7326 06ba 73685F66 		.ascii	"sh_flags\000"
 7326      6C616773 
 7326      00
 7327              	.LASF54:
 7328 06c3 725F696E 		.ascii	"r_info\000"
 7328      666F00
 7329              	.LASF34:
 7330 06ca 73685F74 		.ascii	"sh_type\000"
 7330      79706500 
 7331              	.LASF65:
 7332 06d2 6C697374 		.ascii	"list_head\000"
ARM GAS  G:\Users\Jaxb\AppData\Local\Temp\cc11Idxk.s 			page 153


 7332      5F686561 
 7332      6400
 7333              	.LASF128:
 7334 06dc 696E6465 		.ascii	"index\000"
 7334      7800
 7335              	.LASF159:
 7336 06e2 5F5F696E 		.ascii	"__init_module\000"
 7336      69745F6D 
 7336      6F64756C 
 7336      6500
 7337              	.LASF29:
 7338 06f0 655F7368 		.ascii	"e_shentsize\000"
 7338      656E7473 
 7338      697A6500 
 7339              	.LASF158:
 7340 06fc 7368656C 		.ascii	"shell_modinfo\000"
 7340      6C5F6D6F 
 7340      64696E66 
 7340      6F00
 7341              	.LASF97:
 7342 070a 64656C61 		.ascii	"delay_reach_time\000"
 7342      795F7265 
 7342      6163685F 
 7342      74696D65 
 7342      00
 7343              	.LASF152:
 7344 071b 70617261 		.ascii	"para\000"
 7344      00
 7345              	.LASF79:
 7346 0720 53544143 		.ascii	"STACK_TYPE\000"
 7346      4B5F5459 
 7346      504500
 7347              	.LASF87:
 7348 072b 7461736B 		.ascii	"task_state\000"
 7348      5F737461 
 7348      746500
 7349              	.LASF143:
 7350 0736 6F666673 		.ascii	"offset\000"
 7350      657400
 7351              	.LASF30:
 7352 073d 655F7368 		.ascii	"e_shnum\000"
 7352      6E756D00 
 7353              	.LASF137:
 7354 0745 6C656E67 		.ascii	"length\000"
 7354      746800
 7355              	.LASF99:
 7356 074c 64796E61 		.ascii	"dynamic_module\000"
 7356      6D69635F 
 7356      6D6F6475 
 7356      6C6500
 7357              	.LASF70:
 7358 075b 53544154 		.ascii	"STATE_SUSPEND_NORMAL\000"
 7358      455F5355 
 7358      5350454E 
 7358      445F4E4F 
 7358      524D414C 
 7359              	.LASF106:
ARM GAS  G:\Users\Jaxb\AppData\Local\Temp\cc11Idxk.s 			page 154


 7360 0770 696E6974 		.ascii	"init_space\000"
 7360      5F737061 
 7360      636500
 7361              	.LASF4:
 7362 077b 55494E54 		.ascii	"UINT8\000"
 7362      3800
 7363              	.LASF172:
 7364 0781 463A5C6B 		.ascii	"F:\\kaka\\KAKAOS\\C\\windows\\Project\\RVMDK\243\250"
 7364      616B615C 
 7364      4B414B41 
 7364      4F535C43 
 7364      5C77696E 
 7365 07a9 757635A3 		.ascii	"uv5\243\251\000"
 7365      A900
 7366              	.LASF73:
 7367 07af 53544154 		.ascii	"STATE_WAIT_MESSAGE_QUEUE_FOREVER\000"
 7367      455F5741 
 7367      49545F4D 
 7367      45535341 
 7367      47455F51 
 7368              	.LASF22:
 7369 07d0 655F656E 		.ascii	"e_entry\000"
 7369      74727900 
 7370              	.LASF45:
 7371 07d8 656C6633 		.ascii	"elf32_sym\000"
 7371      325F7379 
 7371      6D00
 7372              	.LASF104:
 7373 07e2 6D6F6475 		.ascii	"module_space\000"
 7373      6C655F73 
 7373      70616365 
 7373      00
 7374              	.LASF52:
 7375 07ef 456C6633 		.ascii	"Elf32_Sym\000"
 7375      325F5379 
 7375      6D00
 7376              	.LASF84:
 7377 07f9 73746163 		.ascii	"stack_size\000"
 7377      6B5F7369 
 7377      7A6500
 7378              	.LASF175:
 7379 0804 494E4954 		.ascii	"INIT_LIST_HEAD\000"
 7379      5F4C4953 
 7379      545F4845 
 7379      414400
 7380              	.LASF10:
 7381 0813 55494E54 		.ascii	"UINT64\000"
 7381      363400
 7382              	.LASF117:
 7383 081a 73686F77 		.ascii	"show_get_size\000"
 7383      5F676574 
 7383      5F73697A 
 7383      6500
 7384              	.LASF110:
 7385 0828 6578706F 		.ascii	"export_symbols_num\000"
 7385      72745F73 
 7385      796D626F 
ARM GAS  G:\Users\Jaxb\AppData\Local\Temp\cc11Idxk.s 			page 155


 7385      6C735F6E 
 7385      756D00
 7386              	.LASF28:
 7387 083b 655F7068 		.ascii	"e_phnum\000"
 7387      6E756D00 
 7388              	.LASF53:
 7389 0843 725F6F66 		.ascii	"r_offset\000"
 7389      66736574 
 7389      00
 7390              	.LASF139:
 7391 084c 646C6D6F 		.ascii	"dlmodule_relocate\000"
 7391      64756C65 
 7391      5F72656C 
 7391      6F636174 
 7391      6500
 7392              	.LASF165:
 7393 085e 6C697374 		.ascii	"list_del\000"
 7393      5F64656C 
 7393      00
 7394              	.LASF37:
 7395 0867 73685F6F 		.ascii	"sh_offset\000"
 7395      66667365 
 7395      7400
 7396              	.LASF150:
 7397 0871 61726776 		.ascii	"argv\000"
 7397      00
 7398              	.LASF126:
 7399 0876 646C6D6F 		.ascii	"dlmodule_load_shared_object\000"
 7399      64756C65 
 7399      5F6C6F61 
 7399      645F7368 
 7399      61726564 
 7400              	.LASF131:
 7401 0892 6E725F72 		.ascii	"nr_reloc\000"
 7401      656C6F63 
 7401      00
 7402              	.LASF72:
 7403 089b 53544154 		.ascii	"STATE_WAIT_MCB_TIMEOUT\000"
 7403      455F5741 
 7403      49545F4D 
 7403      43425F54 
 7403      494D454F 
 7404              	.LASF89:
 7405 08b2 64656C61 		.ascii	"delay_heap_position\000"
 7405      795F6865 
 7405      61705F70 
 7405      6F736974 
 7405      696F6E00 
 7406              	.LASF96:
 7407 08c6 64796E61 		.ascii	"dynamic_module_ptr\000"
 7407      6D69635F 
 7407      6D6F6475 
 7407      6C655F70 
 7407      747200
 7408              		.ident	"GCC: (GNU Tools for Arm Embedded Processors 7-2018-q2-update) 7.3.1 20180622 (release) [AR
ARM GAS  G:\Users\Jaxb\AppData\Local\Temp\cc11Idxk.s 			page 156


DEFINED SYMBOLS
                            *ABS*:00000000 module.c
G:\Users\Jaxb\AppData\Local\Temp\cc11Idxk.s:15     .text:00000000 $t
G:\Users\Jaxb\AppData\Local\Temp\cc11Idxk.s:21     .text:00000000 INIT_LIST_HEAD
G:\Users\Jaxb\AppData\Local\Temp\cc11Idxk.s:71     .text:0000001e __list_add
G:\Users\Jaxb\AppData\Local\Temp\cc11Idxk.s:130    .text:0000004c list_add
G:\Users\Jaxb\AppData\Local\Temp\cc11Idxk.s:175    .text:0000006c __list_del
G:\Users\Jaxb\AppData\Local\Temp\cc11Idxk.s:225    .text:0000008c list_del
G:\Users\Jaxb\AppData\Local\Temp\cc11Idxk.s:270    .text:000000ac list_empty
G:\Users\Jaxb\AppData\Local\Temp\cc11Idxk.s:320    .text:000000ce set_module_state
G:\Users\Jaxb\AppData\Local\Temp\cc11Idxk.s:365    .bss:00000000 $d
G:\Users\Jaxb\AppData\Local\Temp\cc11Idxk.s:366    .bss:00000000 module_buffer
G:\Users\Jaxb\AppData\Local\Temp\cc11Idxk.s:370    .bss:00000004 num
G:\Users\Jaxb\AppData\Local\Temp\cc11Idxk.s:374    .bss:00000008 module_list_head
G:\Users\Jaxb\AppData\Local\Temp\cc11Idxk.s:385    .text:000000ee __init_module
G:\Users\Jaxb\AppData\Local\Temp\cc11Idxk.s:409    .text:000000fc $d
G:\Users\Jaxb\AppData\Local\Temp\cc11Idxk.s:414    .rodata:00000000 $d
G:\Users\Jaxb\AppData\Local\Temp\cc11Idxk.s:451    .text:00000100 $t
G:\Users\Jaxb\AppData\Local\Temp\cc11Idxk.s:458    .text:00000100 shell_modinfo
G:\Users\Jaxb\AppData\Local\Temp\cc11Idxk.s:606    .text:000001d8 $d
G:\Users\Jaxb\AppData\Local\Temp\cc11Idxk.s:627    .text:0000020c $t
G:\Users\Jaxb\AppData\Local\Temp\cc11Idxk.s:634    .text:0000020c shell_list_module
G:\Users\Jaxb\AppData\Local\Temp\cc11Idxk.s:709    .text:00000260 $d
G:\Users\Jaxb\AppData\Local\Temp\cc11Idxk.s:715    .text:0000026c $t
G:\Users\Jaxb\AppData\Local\Temp\cc11Idxk.s:721    .text:0000026c get_mod_export_function_addr
G:\Users\Jaxb\AppData\Local\Temp\cc11Idxk.s:822    .text:000002e0 $d
G:\Users\Jaxb\AppData\Local\Temp\cc11Idxk.s:837    .text:000002e4 $t
G:\Users\Jaxb\AppData\Local\Temp\cc11Idxk.s:844    .text:000002e4 shell_remove_module
G:\Users\Jaxb\AppData\Local\Temp\cc11Idxk.s:1093   .text:00000408 remove_module
G:\Users\Jaxb\AppData\Local\Temp\cc11Idxk.s:949    .text:00000360 $d
G:\Users\Jaxb\AppData\Local\Temp\cc11Idxk.s:961    .text:00000370 $t
G:\Users\Jaxb\AppData\Local\Temp\cc11Idxk.s:967    .text:00000370 _remove_a_module
G:\Users\Jaxb\AppData\Local\Temp\cc11Idxk.s:1075   .text:00000400 $d
G:\Users\Jaxb\AppData\Local\Temp\cc11Idxk.s:1086   .text:00000408 $t
G:\Users\Jaxb\AppData\Local\Temp\cc11Idxk.s:1150   .text:00000440 $d
G:\Users\Jaxb\AppData\Local\Temp\cc11Idxk.s:1160   .text:00000448 $t
G:\Users\Jaxb\AppData\Local\Temp\cc11Idxk.s:1167   .text:00000448 dlmodule_relocate
G:\Users\Jaxb\AppData\Local\Temp\cc11Idxk.s:1210   .text:00000478 $d
G:\Users\Jaxb\AppData\Local\Temp\cc11Idxk.s:1251   .text:0000051c $t
G:\Users\Jaxb\AppData\Local\Temp\cc11Idxk.s:1583   .text:00000738 $d
G:\Users\Jaxb\AppData\Local\Temp\cc11Idxk.s:1633   .text:00000744 $t
G:\Users\Jaxb\AppData\Local\Temp\cc11Idxk.s:1640   .text:00000744 dlmodule_load_shared_object
G:\Users\Jaxb\AppData\Local\Temp\cc11Idxk.s:1994   .text:0000098c $d
G:\Users\Jaxb\AppData\Local\Temp\cc11Idxk.s:2006   .text:000009b4 $t
G:\Users\Jaxb\AppData\Local\Temp\cc11Idxk.s:2599   .text:00000da0 $d
G:\Users\Jaxb\AppData\Local\Temp\cc11Idxk.s:3514   .bss:00000010 unsolved.4543
G:\Users\Jaxb\AppData\Local\Temp\cc11Idxk.s:2607   .text:00000db4 $t
G:\Users\Jaxb\AppData\Local\Temp\cc11Idxk.s:2779   .text:00000ed4 $d
G:\Users\Jaxb\AppData\Local\Temp\cc11Idxk.s:2789   .text:00000edc $t
G:\Users\Jaxb\AppData\Local\Temp\cc11Idxk.s:2795   .text:00000edc __init_d_module
G:\Users\Jaxb\AppData\Local\Temp\cc11Idxk.s:2884   .text:00000f48 $d
G:\Users\Jaxb\AppData\Local\Temp\cc11Idxk.s:2911   .text:00000f4c $t
G:\Users\Jaxb\AppData\Local\Temp\cc11Idxk.s:2918   .text:00000f4c dlmodule_load
G:\Users\Jaxb\AppData\Local\Temp\cc11Idxk.s:3421   .text:000011c0 clear_module_buffer
G:\Users\Jaxb\AppData\Local\Temp\cc11Idxk.s:3109   .text:0000105c $d
G:\Users\Jaxb\AppData\Local\Temp\cc11Idxk.s:3132   .text:00001080 $t
G:\Users\Jaxb\AppData\Local\Temp\cc11Idxk.s:3139   .text:00001080 dlmodule_exec
ARM GAS  G:\Users\Jaxb\AppData\Local\Temp\cc11Idxk.s 			page 157


G:\Users\Jaxb\AppData\Local\Temp\cc11Idxk.s:3292   .text:00001154 $d
G:\Users\Jaxb\AppData\Local\Temp\cc11Idxk.s:3303   .text:00001160 $t
G:\Users\Jaxb\AppData\Local\Temp\cc11Idxk.s:3310   .text:00001160 put_in_module_buffer
G:\Users\Jaxb\AppData\Local\Temp\cc11Idxk.s:3365   .text:00001198 $d
G:\Users\Jaxb\AppData\Local\Temp\cc11Idxk.s:3376   .text:000011a4 $t
G:\Users\Jaxb\AppData\Local\Temp\cc11Idxk.s:3383   .text:000011a4 show_get_size
G:\Users\Jaxb\AppData\Local\Temp\cc11Idxk.s:3409   .text:000011b8 $d
G:\Users\Jaxb\AppData\Local\Temp\cc11Idxk.s:3414   .text:000011c0 $t
G:\Users\Jaxb\AppData\Local\Temp\cc11Idxk.s:3457   .text:000011d8 $d
G:\Users\Jaxb\AppData\Local\Temp\cc11Idxk.s:3462   .text:000011e0 $t
G:\Users\Jaxb\AppData\Local\Temp\cc11Idxk.s:3469   .text:000011e0 set_module_buffer
G:\Users\Jaxb\AppData\Local\Temp\cc11Idxk.s:3508   .text:000011f8 $d

UNDEFINED SYMBOLS
ka_printf
_ASSERT
ka_strcmp
get_para_add
task_delete
ka_free
ka_malloc
ka_memset
ka_memcpy
get_sys_export_function_addr
ka_strlen
ka_strcpy
ka_strncmp
task_creat_ready
