ARM GAS  G:\Users\Jaxb\AppData\Local\Temp\ccf0KBoB.s 			page 1


   1              		.cpu cortex-m3
   2              		.eabi_attribute 20, 1
   3              		.eabi_attribute 21, 1
   4              		.eabi_attribute 23, 3
   5              		.eabi_attribute 24, 1
   6              		.eabi_attribute 25, 1
   7              		.eabi_attribute 26, 1
   8              		.eabi_attribute 30, 6
   9              		.eabi_attribute 34, 1
  10              		.eabi_attribute 18, 4
  11              		.file	"module.c"
  12              		.text
  13              	.Ltext0:
  14              		.cfi_sections	.debug_frame
  15              		.align	1
  16              		.syntax unified
  17              		.thumb
  18              		.thumb_func
  19              		.fpu softvfp
  20              		.type	INIT_LIST_HEAD, %function
  21              	INIT_LIST_HEAD:
  22              	.LFB0:
  23              		.file 1 "../../source/include/os_lib/double_linked_list.h"
   1:../../source/include/os_lib/double_linked_list.h **** #ifndef _DOUBLE_LINKED_LIST_H
   2:../../source/include/os_lib/double_linked_list.h **** #define _DOUBLE_LINKED_LIST_H
   3:../../source/include/os_lib/double_linked_list.h **** 
   4:../../source/include/os_lib/double_linked_list.h **** struct list_head {
   5:../../source/include/os_lib/double_linked_list.h ****     struct list_head *next, *prev;
   6:../../source/include/os_lib/double_linked_list.h **** };
   7:../../source/include/os_lib/double_linked_list.h **** 
   8:../../source/include/os_lib/double_linked_list.h **** 
   9:../../source/include/os_lib/double_linked_list.h **** #define LIST_HEAD_INIT(name) { &(name), &(name) }
  10:../../source/include/os_lib/double_linked_list.h **** 
  11:../../source/include/os_lib/double_linked_list.h **** 
  12:../../source/include/os_lib/double_linked_list.h **** #define LIST_HEAD(name) \
  13:../../source/include/os_lib/double_linked_list.h ****     struct list_head name = LIST_HEAD_INIT(name)
  14:../../source/include/os_lib/double_linked_list.h **** 
  15:../../source/include/os_lib/double_linked_list.h **** 
  16:../../source/include/os_lib/double_linked_list.h **** static inline void INIT_LIST_HEAD(struct list_head *list)
  17:../../source/include/os_lib/double_linked_list.h **** {
  24              		.loc 1 17 0
  25              		.cfi_startproc
  26              		@ args = 0, pretend = 0, frame = 8
  27              		@ frame_needed = 1, uses_anonymous_args = 0
  28              		@ link register save eliminated.
  29 0000 80B4     		push	{r7}
  30              	.LCFI0:
  31              		.cfi_def_cfa_offset 4
  32              		.cfi_offset 7, -4
  33 0002 83B0     		sub	sp, sp, #12
  34              	.LCFI1:
  35              		.cfi_def_cfa_offset 16
  36 0004 00AF     		add	r7, sp, #0
  37              	.LCFI2:
  38              		.cfi_def_cfa_register 7
  39 0006 7860     		str	r0, [r7, #4]
  18:../../source/include/os_lib/double_linked_list.h ****     list->next = list;
ARM GAS  G:\Users\Jaxb\AppData\Local\Temp\ccf0KBoB.s 			page 2


  40              		.loc 1 18 0
  41 0008 7B68     		ldr	r3, [r7, #4]
  42 000a 7A68     		ldr	r2, [r7, #4]
  43 000c 1A60     		str	r2, [r3]
  19:../../source/include/os_lib/double_linked_list.h ****     list->prev = list;
  44              		.loc 1 19 0
  45 000e 7B68     		ldr	r3, [r7, #4]
  46 0010 7A68     		ldr	r2, [r7, #4]
  47 0012 5A60     		str	r2, [r3, #4]
  20:../../source/include/os_lib/double_linked_list.h **** }
  48              		.loc 1 20 0
  49 0014 00BF     		nop
  50 0016 0C37     		adds	r7, r7, #12
  51              	.LCFI3:
  52              		.cfi_def_cfa_offset 4
  53 0018 BD46     		mov	sp, r7
  54              	.LCFI4:
  55              		.cfi_def_cfa_register 13
  56              		@ sp needed
  57 001a 80BC     		pop	{r7}
  58              	.LCFI5:
  59              		.cfi_restore 7
  60              		.cfi_def_cfa_offset 0
  61 001c 7047     		bx	lr
  62              		.cfi_endproc
  63              	.LFE0:
  64              		.size	INIT_LIST_HEAD, .-INIT_LIST_HEAD
  65              		.bss
  66              		.align	2
  67              	module_buffer:
  68 0000 00000000 		.space	4
  69              		.size	module_buffer, 4
  70              		.align	2
  71              	num:
  72 0004 00000000 		.space	4
  73              		.size	num, 4
  74              		.section	.rodata
  75              		.align	2
  76              	.LC0:
  77 0000 525F4152 		.ascii	"R_ARM_ABS32: %x -> %x\012\000"
  77      4D5F4142 
  77      5333323A 
  77      20257820 
  77      2D3E2025 
  78 0017 00       		.align	2
  79              	.LC1:
  80 0018 525F4152 		.ascii	"R_ARM_PC24: %x -> %x\012\000"
  80      4D5F5043 
  80      32343A20 
  80      2578202D 
  80      3E202578 
  81 002e 0000     		.align	2
  82              	.LC2:
  83 0030 525F4152 		.ascii	"R_ARM_REL32: %x -> %x, sym %x, offset %x\012\000"
  83      4D5F5245 
  83      4C33323A 
  83      20257820 
ARM GAS  G:\Users\Jaxb\AppData\Local\Temp\ccf0KBoB.s 			page 3


  83      2D3E2025 
  84 005a 0000     		.align	2
  85              	.LC3:
  86 005c 525F4152 		.ascii	"R_ARM_JUMP_SLOT: 0x%x -> 0x%x 0x%x\012\000"
  86      4D5F4A55 
  86      4D505F53 
  86      4C4F543A 
  86      20307825 
  87              		.align	2
  88              	.LC4:
  89 0080 525F4152 		.ascii	"R_ARM_RELATIVE: 0x%x -> 0x%x 0x%x\012\000"
  89      4D5F5245 
  89      4C415449 
  89      56453A20 
  89      30782578 
  90 00a3 00       		.align	2
  91              	.LC5:
  92 00a4 4D6F6475 		.ascii	"Module: Only Thumb addresses allowed\012\000"
  92      6C653A20 
  92      4F6E6C79 
  92      20546875 
  92      6D622061 
  93 00ca 0000     		.align	2
  94              	.LC6:
  95 00cc 646F206E 		.ascii	"do nothing\012\000"
  95      6F746869 
  95      6E670A00 
  96              		.text
  97              		.align	1
  98              		.global	dlmodule_relocate
  99              		.syntax unified
 100              		.thumb
 101              		.thumb_func
 102              		.fpu softvfp
 103              		.type	dlmodule_relocate, %function
 104              	dlmodule_relocate:
 105              	.LFB10:
 106              		.file 2 "../../source/src/kernel/OS_CORE/module.c"
   1:../../source/src/kernel/OS_CORE/module.c **** #include <elf.h>
   2:../../source/src/kernel/OS_CORE/module.c **** #include <module.h>
   3:../../source/src/kernel/OS_CORE/module.c **** #include <myMicroLIB.h>
   4:../../source/src/kernel/OS_CORE/module.c **** #include <osinit.h>
   5:../../source/src/kernel/OS_CORE/module.c **** #include <os_schedule.h>
   6:../../source/src/kernel/OS_CORE/module.c **** #include <myassert.h>
   7:../../source/src/kernel/OS_CORE/module.c **** #include <export.h>
   8:../../source/src/kernel/OS_CORE/module.c **** 
   9:../../source/src/kernel/OS_CORE/module.c **** #if CONFIG_MODULE
  10:../../source/src/kernel/OS_CORE/module.c **** 
  11:../../source/src/kernel/OS_CORE/module.c **** /* RT-Thread error code definitions */
  12:../../source/src/kernel/OS_CORE/module.c **** #define RT_EOK                          0               /**< There is no error */
  13:../../source/src/kernel/OS_CORE/module.c **** #define RT_ERROR                        1               /**< A generic error happens */
  14:../../source/src/kernel/OS_CORE/module.c **** #define RT_ETIMEOUT                     2               /**< Timed out */
  15:../../source/src/kernel/OS_CORE/module.c **** #define RT_EFULL                        3               /**< The resource is full */
  16:../../source/src/kernel/OS_CORE/module.c **** #define RT_EEMPTY                       4               /**< The resource is empty */
  17:../../source/src/kernel/OS_CORE/module.c **** #define RT_ENOMEM                       5               /**< No memory */
  18:../../source/src/kernel/OS_CORE/module.c **** #define RT_ENOSYS                       6               /**< No system */
  19:../../source/src/kernel/OS_CORE/module.c **** #define RT_EBUSY                        7               /**< Busy */
ARM GAS  G:\Users\Jaxb\AppData\Local\Temp\ccf0KBoB.s 			page 4


  20:../../source/src/kernel/OS_CORE/module.c **** #define RT_EIO                          8               /**< IO error */
  21:../../source/src/kernel/OS_CORE/module.c **** #define RT_EINTR                        9               /**< Interrupted system call */
  22:../../source/src/kernel/OS_CORE/module.c **** #define RT_EINVAL                       10              /**< Invalid argument */
  23:../../source/src/kernel/OS_CORE/module.c **** 
  24:../../source/src/kernel/OS_CORE/module.c **** #define elf_module        ((Elf32_Ehdr *)module_ptr)
  25:../../source/src/kernel/OS_CORE/module.c **** 
  26:../../source/src/kernel/OS_CORE/module.c **** typedef long                       rt_err_t;       /**< Type for error number */
  27:../../source/src/kernel/OS_CORE/module.c **** 
  28:../../source/src/kernel/OS_CORE/module.c **** static char *module_buffer = NULL;
  29:../../source/src/kernel/OS_CORE/module.c **** static unsigned int num = 0;
  30:../../source/src/kernel/OS_CORE/module.c **** 
  31:../../source/src/kernel/OS_CORE/module.c **** int dlmodule_relocate(struct rt_dlmodule *module, Elf32_Rel *rel, Elf32_Addr sym_val)
  32:../../source/src/kernel/OS_CORE/module.c **** {
 107              		.loc 2 32 0
 108              		.cfi_startproc
 109              		@ args = 0, pretend = 0, frame = 56
 110              		@ frame_needed = 1, uses_anonymous_args = 0
 111 001e 80B5     		push	{r7, lr}
 112              	.LCFI6:
 113              		.cfi_def_cfa_offset 8
 114              		.cfi_offset 7, -8
 115              		.cfi_offset 14, -4
 116 0020 90B0     		sub	sp, sp, #64
 117              	.LCFI7:
 118              		.cfi_def_cfa_offset 72
 119 0022 02AF     		add	r7, sp, #8
 120              	.LCFI8:
 121              		.cfi_def_cfa 7, 64
 122 0024 F860     		str	r0, [r7, #12]
 123 0026 B960     		str	r1, [r7, #8]
 124 0028 7A60     		str	r2, [r7, #4]
  33:../../source/src/kernel/OS_CORE/module.c ****     Elf32_Addr *where, tmp;
  34:../../source/src/kernel/OS_CORE/module.c ****     Elf32_Sword addend, offset;
  35:../../source/src/kernel/OS_CORE/module.c ****     UINT32 upper, lower, sign, j1, j2;
  36:../../source/src/kernel/OS_CORE/module.c **** 
  37:../../source/src/kernel/OS_CORE/module.c ****     where = (Elf32_Addr *)((UINT8 *)module->mem_space
 125              		.loc 2 37 0
 126 002a FB68     		ldr	r3, [r7, #12]
 127 002c 5A6B     		ldr	r2, [r3, #52]
  38:../../source/src/kernel/OS_CORE/module.c ****                            + rel->r_offset
 128              		.loc 2 38 0
 129 002e BB68     		ldr	r3, [r7, #8]
 130 0030 1968     		ldr	r1, [r3]
  39:../../source/src/kernel/OS_CORE/module.c ****                            - module->vstart_addr);
 131              		.loc 2 39 0
 132 0032 FB68     		ldr	r3, [r7, #12]
 133 0034 9B6A     		ldr	r3, [r3, #40]
 134 0036 CB1A     		subs	r3, r1, r3
  37:../../source/src/kernel/OS_CORE/module.c ****                            + rel->r_offset
 135              		.loc 2 37 0
 136 0038 1344     		add	r3, r3, r2
 137 003a FB62     		str	r3, [r7, #44]
  40:../../source/src/kernel/OS_CORE/module.c ****     switch (ELF32_R_TYPE(rel->r_info))
 138              		.loc 2 40 0
 139 003c BB68     		ldr	r3, [r7, #8]
 140 003e 5B68     		ldr	r3, [r3, #4]
 141 0040 DBB2     		uxtb	r3, r3
ARM GAS  G:\Users\Jaxb\AppData\Local\Temp\ccf0KBoB.s 			page 5


 142 0042 282B     		cmp	r3, #40
 143 0044 00F28181 		bhi	.L3
 144 0048 01A2     		adr	r2, .L5
 145 004a 52F823F0 		ldr	pc, [r2, r3, lsl #2]
 146 004e 00BF     		.p2align 2
 147              	.L5:
 148 0050 57030000 		.word	.L23+1
 149 0054 11010000 		.word	.L6+1
 150 0058 F5000000 		.word	.L7+1
 151 005c 65010000 		.word	.L8+1
 152 0060 4B030000 		.word	.L3+1
 153 0064 4B030000 		.word	.L3+1
 154 0068 4B030000 		.word	.L3+1
 155 006c 4B030000 		.word	.L3+1
 156 0070 4B030000 		.word	.L3+1
 157 0074 4B030000 		.word	.L3+1
 158 0078 DB010000 		.word	.L9+1
 159 007c 4B030000 		.word	.L3+1
 160 0080 4B030000 		.word	.L3+1
 161 0084 4B030000 		.word	.L3+1
 162 0088 4B030000 		.word	.L3+1
 163 008c 4B030000 		.word	.L3+1
 164 0090 4B030000 		.word	.L3+1
 165 0094 4B030000 		.word	.L3+1
 166 0098 4B030000 		.word	.L3+1
 167 009c 4B030000 		.word	.L3+1
 168 00a0 4B030000 		.word	.L3+1
 169 00a4 A9010000 		.word	.L10+1
 170 00a8 A9010000 		.word	.L10+1
 171 00ac BF010000 		.word	.L11+1
 172 00b0 4B030000 		.word	.L3+1
 173 00b4 4B030000 		.word	.L3+1
 174 00b8 4B030000 		.word	.L3+1
 175 00bc 11010000 		.word	.L6+1
 176 00c0 11010000 		.word	.L6+1
 177 00c4 11010000 		.word	.L6+1
 178 00c8 DB010000 		.word	.L9+1
 179 00cc 4B030000 		.word	.L3+1
 180 00d0 4B030000 		.word	.L3+1
 181 00d4 4B030000 		.word	.L3+1
 182 00d8 4B030000 		.word	.L3+1
 183 00dc 4B030000 		.word	.L3+1
 184 00e0 4B030000 		.word	.L3+1
 185 00e4 4B030000 		.word	.L3+1
 186 00e8 4B030000 		.word	.L3+1
 187 00ec 4B030000 		.word	.L3+1
 188 00f0 8B010000 		.word	.L12+1
 189              		.p2align 1
 190              	.L7:
  41:../../source/src/kernel/OS_CORE/module.c ****     {
  42:../../source/src/kernel/OS_CORE/module.c ****     case R_ARM_NONE:
  43:../../source/src/kernel/OS_CORE/module.c ****         break;
  44:../../source/src/kernel/OS_CORE/module.c ****     case R_ARM_ABS32:
  45:../../source/src/kernel/OS_CORE/module.c ****         *where += (Elf32_Addr)sym_val;
 191              		.loc 2 45 0
 192 00f4 FB6A     		ldr	r3, [r7, #44]
 193 00f6 1A68     		ldr	r2, [r3]
ARM GAS  G:\Users\Jaxb\AppData\Local\Temp\ccf0KBoB.s 			page 6


 194 00f8 7B68     		ldr	r3, [r7, #4]
 195 00fa 1A44     		add	r2, r2, r3
 196 00fc FB6A     		ldr	r3, [r7, #44]
 197 00fe 1A60     		str	r2, [r3]
  46:../../source/src/kernel/OS_CORE/module.c ****         ka_printf("R_ARM_ABS32: %x -> %x\n",
 198              		.loc 2 46 0
 199 0100 FB6A     		ldr	r3, [r7, #44]
 200 0102 1B68     		ldr	r3, [r3]
 201 0104 1A46     		mov	r2, r3
 202 0106 F96A     		ldr	r1, [r7, #44]
 203 0108 9648     		ldr	r0, .L24
 204 010a FFF7FEFF 		bl	ka_printf
  47:../../source/src/kernel/OS_CORE/module.c ****                   where, *where);
  48:../../source/src/kernel/OS_CORE/module.c ****         break;
 205              		.loc 2 48 0
 206 010e 23E1     		b	.L13
 207              	.L6:
  49:../../source/src/kernel/OS_CORE/module.c ****     case R_ARM_PC24:
  50:../../source/src/kernel/OS_CORE/module.c ****     case R_ARM_PLT32:
  51:../../source/src/kernel/OS_CORE/module.c ****     case R_ARM_CALL:
  52:../../source/src/kernel/OS_CORE/module.c ****     case R_ARM_JUMP24:
  53:../../source/src/kernel/OS_CORE/module.c ****         addend = *where & 0x00ffffff;
 208              		.loc 2 53 0
 209 0110 FB6A     		ldr	r3, [r7, #44]
 210 0112 1B68     		ldr	r3, [r3]
 211 0114 23F07F43 		bic	r3, r3, #-16777216
 212 0118 7B63     		str	r3, [r7, #52]
  54:../../source/src/kernel/OS_CORE/module.c ****         if (addend & 0x00800000)
 213              		.loc 2 54 0
 214 011a 7B6B     		ldr	r3, [r7, #52]
 215 011c 03F40003 		and	r3, r3, #8388608
 216 0120 002B     		cmp	r3, #0
 217 0122 03D0     		beq	.L14
  55:../../source/src/kernel/OS_CORE/module.c ****             addend |= 0xff000000;
 218              		.loc 2 55 0
 219 0124 7B6B     		ldr	r3, [r7, #52]
 220 0126 43F07F43 		orr	r3, r3, #-16777216
 221 012a 7B63     		str	r3, [r7, #52]
 222              	.L14:
  56:../../source/src/kernel/OS_CORE/module.c ****         tmp = sym_val - (Elf32_Addr)where + (addend << 2);
 223              		.loc 2 56 0
 224 012c FB6A     		ldr	r3, [r7, #44]
 225 012e 7A68     		ldr	r2, [r7, #4]
 226 0130 D31A     		subs	r3, r2, r3
 227 0132 7A6B     		ldr	r2, [r7, #52]
 228 0134 9200     		lsls	r2, r2, #2
 229 0136 1344     		add	r3, r3, r2
 230 0138 7B61     		str	r3, [r7, #20]
  57:../../source/src/kernel/OS_CORE/module.c ****         tmp >>= 2;
 231              		.loc 2 57 0
 232 013a 7B69     		ldr	r3, [r7, #20]
 233 013c 9B08     		lsrs	r3, r3, #2
 234 013e 7B61     		str	r3, [r7, #20]
  58:../../source/src/kernel/OS_CORE/module.c ****         *where = (*where & 0xff000000) | (tmp & 0x00ffffff);
 235              		.loc 2 58 0
 236 0140 FB6A     		ldr	r3, [r7, #44]
 237 0142 1B68     		ldr	r3, [r3]
ARM GAS  G:\Users\Jaxb\AppData\Local\Temp\ccf0KBoB.s 			page 7


 238 0144 03F07F42 		and	r2, r3, #-16777216
 239 0148 7B69     		ldr	r3, [r7, #20]
 240 014a 23F07F43 		bic	r3, r3, #-16777216
 241 014e 1A43     		orrs	r2, r2, r3
 242 0150 FB6A     		ldr	r3, [r7, #44]
 243 0152 1A60     		str	r2, [r3]
  59:../../source/src/kernel/OS_CORE/module.c ****         ka_printf("R_ARM_PC24: %x -> %x\n",
 244              		.loc 2 59 0
 245 0154 FB6A     		ldr	r3, [r7, #44]
 246 0156 1B68     		ldr	r3, [r3]
 247 0158 1A46     		mov	r2, r3
 248 015a F96A     		ldr	r1, [r7, #44]
 249 015c 8248     		ldr	r0, .L24+4
 250 015e FFF7FEFF 		bl	ka_printf
  60:../../source/src/kernel/OS_CORE/module.c ****                   where, *where);
  61:../../source/src/kernel/OS_CORE/module.c ****         break;
 251              		.loc 2 61 0
 252 0162 F9E0     		b	.L13
 253              	.L8:
  62:../../source/src/kernel/OS_CORE/module.c ****     case R_ARM_REL32:
  63:../../source/src/kernel/OS_CORE/module.c ****         *where += sym_val - (Elf32_Addr)where;
 254              		.loc 2 63 0
 255 0164 FB6A     		ldr	r3, [r7, #44]
 256 0166 1A68     		ldr	r2, [r3]
 257 0168 FB6A     		ldr	r3, [r7, #44]
 258 016a 7968     		ldr	r1, [r7, #4]
 259 016c CB1A     		subs	r3, r1, r3
 260 016e 1A44     		add	r2, r2, r3
 261 0170 FB6A     		ldr	r3, [r7, #44]
 262 0172 1A60     		str	r2, [r3]
  64:../../source/src/kernel/OS_CORE/module.c ****         ka_printf("R_ARM_REL32: %x -> %x, sym %x, offset %x\n",
 263              		.loc 2 64 0
 264 0174 FB6A     		ldr	r3, [r7, #44]
 265 0176 1A68     		ldr	r2, [r3]
 266 0178 BB68     		ldr	r3, [r7, #8]
 267 017a 1B68     		ldr	r3, [r3]
 268 017c 0093     		str	r3, [sp]
 269 017e 7B68     		ldr	r3, [r7, #4]
 270 0180 F96A     		ldr	r1, [r7, #44]
 271 0182 7A48     		ldr	r0, .L24+8
 272 0184 FFF7FEFF 		bl	ka_printf
  65:../../source/src/kernel/OS_CORE/module.c ****                   where, *where, sym_val, rel->r_offset);
  66:../../source/src/kernel/OS_CORE/module.c ****         break;
 273              		.loc 2 66 0
 274 0188 E6E0     		b	.L13
 275              	.L12:
  67:../../source/src/kernel/OS_CORE/module.c ****     case R_ARM_V4BX:
  68:../../source/src/kernel/OS_CORE/module.c ****         *where &= 0xf000000f;
 276              		.loc 2 68 0
 277 018a FB6A     		ldr	r3, [r7, #44]
 278 018c 1A68     		ldr	r2, [r3]
 279 018e 784B     		ldr	r3, .L24+12
 280 0190 1340     		ands	r3, r3, r2
 281 0192 FA6A     		ldr	r2, [r7, #44]
 282 0194 1360     		str	r3, [r2]
  69:../../source/src/kernel/OS_CORE/module.c ****         *where |= 0x01a0f000;
 283              		.loc 2 69 0
ARM GAS  G:\Users\Jaxb\AppData\Local\Temp\ccf0KBoB.s 			page 8


 284 0196 FB6A     		ldr	r3, [r7, #44]
 285 0198 1B68     		ldr	r3, [r3]
 286 019a 43F0D073 		orr	r3, r3, #27262976
 287 019e 43F47043 		orr	r3, r3, #61440
 288 01a2 FA6A     		ldr	r2, [r7, #44]
 289 01a4 1360     		str	r3, [r2]
  70:../../source/src/kernel/OS_CORE/module.c ****         break;
 290              		.loc 2 70 0
 291 01a6 D7E0     		b	.L13
 292              	.L10:
  71:../../source/src/kernel/OS_CORE/module.c **** 
  72:../../source/src/kernel/OS_CORE/module.c ****     case R_ARM_GLOB_DAT:
  73:../../source/src/kernel/OS_CORE/module.c ****     case R_ARM_JUMP_SLOT:
  74:../../source/src/kernel/OS_CORE/module.c ****         *where = (Elf32_Addr)sym_val;
 293              		.loc 2 74 0
 294 01a8 FB6A     		ldr	r3, [r7, #44]
 295 01aa 7A68     		ldr	r2, [r7, #4]
 296 01ac 1A60     		str	r2, [r3]
  75:../../source/src/kernel/OS_CORE/module.c ****         ka_printf("R_ARM_JUMP_SLOT: 0x%x -> 0x%x 0x%x\n",
 297              		.loc 2 75 0
 298 01ae FB6A     		ldr	r3, [r7, #44]
 299 01b0 1A68     		ldr	r2, [r3]
 300 01b2 7B68     		ldr	r3, [r7, #4]
 301 01b4 F96A     		ldr	r1, [r7, #44]
 302 01b6 6F48     		ldr	r0, .L24+16
 303 01b8 FFF7FEFF 		bl	ka_printf
  76:../../source/src/kernel/OS_CORE/module.c ****                   where, *where, sym_val);
  77:../../source/src/kernel/OS_CORE/module.c ****         break;
 304              		.loc 2 77 0
 305 01bc CCE0     		b	.L13
 306              	.L11:
  78:../../source/src/kernel/OS_CORE/module.c **** #if 0        /* To do */
  79:../../source/src/kernel/OS_CORE/module.c ****     case R_ARM_GOT_BREL:
  80:../../source/src/kernel/OS_CORE/module.c ****         temp   = (Elf32_Addr)sym_val;
  81:../../source/src/kernel/OS_CORE/module.c ****         *where = (Elf32_Addr)&temp;
  82:../../source/src/kernel/OS_CORE/module.c ****         RT_DEBUG_LOG(RT_DEBUG_MODULE, ("R_ARM_GOT_BREL: 0x%x -> 0x%x 0x%x\n",
  83:../../source/src/kernel/OS_CORE/module.c ****                                        where, *where, sym_val));
  84:../../source/src/kernel/OS_CORE/module.c ****         break;
  85:../../source/src/kernel/OS_CORE/module.c **** #endif
  86:../../source/src/kernel/OS_CORE/module.c **** 
  87:../../source/src/kernel/OS_CORE/module.c ****     case R_ARM_RELATIVE:
  88:../../source/src/kernel/OS_CORE/module.c ****         *where = (Elf32_Addr)sym_val + *where;
 307              		.loc 2 88 0
 308 01be FB6A     		ldr	r3, [r7, #44]
 309 01c0 1A68     		ldr	r2, [r3]
 310 01c2 7B68     		ldr	r3, [r7, #4]
 311 01c4 1A44     		add	r2, r2, r3
 312 01c6 FB6A     		ldr	r3, [r7, #44]
 313 01c8 1A60     		str	r2, [r3]
  89:../../source/src/kernel/OS_CORE/module.c ****         ka_printf("R_ARM_RELATIVE: 0x%x -> 0x%x 0x%x\n",
 314              		.loc 2 89 0
 315 01ca FB6A     		ldr	r3, [r7, #44]
 316 01cc 1A68     		ldr	r2, [r3]
 317 01ce 7B68     		ldr	r3, [r7, #4]
 318 01d0 F96A     		ldr	r1, [r7, #44]
 319 01d2 6948     		ldr	r0, .L24+20
 320 01d4 FFF7FEFF 		bl	ka_printf
ARM GAS  G:\Users\Jaxb\AppData\Local\Temp\ccf0KBoB.s 			page 9


  90:../../source/src/kernel/OS_CORE/module.c ****                   where, *where, sym_val);
  91:../../source/src/kernel/OS_CORE/module.c ****         break;
 321              		.loc 2 91 0
 322 01d8 BEE0     		b	.L13
 323              	.L9:
  92:../../source/src/kernel/OS_CORE/module.c ****     case R_ARM_THM_CALL:
  93:../../source/src/kernel/OS_CORE/module.c ****     case R_ARM_THM_JUMP24:
  94:../../source/src/kernel/OS_CORE/module.c ****         upper  = *(UINT16 *)where;
 324              		.loc 2 94 0
 325 01da FB6A     		ldr	r3, [r7, #44]
 326 01dc 1B88     		ldrh	r3, [r3]
 327 01de BB62     		str	r3, [r7, #40]
  95:../../source/src/kernel/OS_CORE/module.c ****         lower  = *(UINT16 *)((Elf32_Addr)where + 2);
 328              		.loc 2 95 0
 329 01e0 FB6A     		ldr	r3, [r7, #44]
 330 01e2 0233     		adds	r3, r3, #2
 331 01e4 1B88     		ldrh	r3, [r3]
 332 01e6 7B62     		str	r3, [r7, #36]
  96:../../source/src/kernel/OS_CORE/module.c **** 
  97:../../source/src/kernel/OS_CORE/module.c ****         sign   = (upper >> 10) & 1;
 333              		.loc 2 97 0
 334 01e8 BB6A     		ldr	r3, [r7, #40]
 335 01ea 9B0A     		lsrs	r3, r3, #10
 336 01ec 03F00103 		and	r3, r3, #1
 337 01f0 3B62     		str	r3, [r7, #32]
  98:../../source/src/kernel/OS_CORE/module.c ****         j1     = (lower >> 13) & 1;
 338              		.loc 2 98 0
 339 01f2 7B6A     		ldr	r3, [r7, #36]
 340 01f4 5B0B     		lsrs	r3, r3, #13
 341 01f6 03F00103 		and	r3, r3, #1
 342 01fa FB61     		str	r3, [r7, #28]
  99:../../source/src/kernel/OS_CORE/module.c ****         j2     = (lower >> 11) & 1;
 343              		.loc 2 99 0
 344 01fc 7B6A     		ldr	r3, [r7, #36]
 345 01fe DB0A     		lsrs	r3, r3, #11
 346 0200 03F00103 		and	r3, r3, #1
 347 0204 BB61     		str	r3, [r7, #24]
 100:../../source/src/kernel/OS_CORE/module.c ****         offset = (sign << 24) |
 348              		.loc 2 100 0
 349 0206 3B6A     		ldr	r3, [r7, #32]
 350 0208 1B06     		lsls	r3, r3, #24
 101:../../source/src/kernel/OS_CORE/module.c ****                  ((~(j1 ^ sign) & 1) << 23) |
 351              		.loc 2 101 0
 352 020a F969     		ldr	r1, [r7, #28]
 353 020c 3A6A     		ldr	r2, [r7, #32]
 354 020e 4A40     		eors	r2, r2, r1
 355 0210 02F00102 		and	r2, r2, #1
 356 0214 002A     		cmp	r2, #0
 357 0216 02D1     		bne	.L15
 358              		.loc 2 101 0 is_stmt 0 discriminator 1
 359 0218 4FF40002 		mov	r2, #8388608
 360 021c 00E0     		b	.L16
 361              	.L15:
 362              		.loc 2 101 0 discriminator 2
 363 021e 0022     		movs	r2, #0
 364              	.L16:
 100:../../source/src/kernel/OS_CORE/module.c ****         offset = (sign << 24) |
ARM GAS  G:\Users\Jaxb\AppData\Local\Temp\ccf0KBoB.s 			page 10


 365              		.loc 2 100 0 is_stmt 1
 366 0220 1343     		orrs	r3, r3, r2
 102:../../source/src/kernel/OS_CORE/module.c ****                  ((~(j2 ^ sign) & 1) << 22) |
 367              		.loc 2 102 0
 368 0222 B969     		ldr	r1, [r7, #24]
 369 0224 3A6A     		ldr	r2, [r7, #32]
 370 0226 4A40     		eors	r2, r2, r1
 371 0228 02F00102 		and	r2, r2, #1
 372 022c 002A     		cmp	r2, #0
 373 022e 02D1     		bne	.L17
 374              		.loc 2 102 0 is_stmt 0 discriminator 1
 375 0230 4FF48002 		mov	r2, #4194304
 376 0234 00E0     		b	.L18
 377              	.L17:
 378              		.loc 2 102 0 discriminator 2
 379 0236 0022     		movs	r2, #0
 380              	.L18:
 101:../../source/src/kernel/OS_CORE/module.c ****                  ((~(j1 ^ sign) & 1) << 23) |
 381              		.loc 2 101 0 is_stmt 1
 382 0238 1A43     		orrs	r2, r2, r3
 103:../../source/src/kernel/OS_CORE/module.c ****                  ((upper & 0x03ff) << 12) |
 383              		.loc 2 103 0
 384 023a BB6A     		ldr	r3, [r7, #40]
 385 023c 1903     		lsls	r1, r3, #12
 386 023e 4F4B     		ldr	r3, .L24+24
 387 0240 0B40     		ands	r3, r3, r1
 102:../../source/src/kernel/OS_CORE/module.c ****                  ((~(j2 ^ sign) & 1) << 22) |
 388              		.loc 2 102 0
 389 0242 1A43     		orrs	r2, r2, r3
 104:../../source/src/kernel/OS_CORE/module.c ****                  ((lower & 0x07ff) << 1);
 390              		.loc 2 104 0
 391 0244 7B6A     		ldr	r3, [r7, #36]
 392 0246 5900     		lsls	r1, r3, #1
 393 0248 40F6FE73 		movw	r3, #4094
 394 024c 0B40     		ands	r3, r3, r1
 103:../../source/src/kernel/OS_CORE/module.c ****                  ((upper & 0x03ff) << 12) |
 395              		.loc 2 103 0
 396 024e 1343     		orrs	r3, r3, r2
 100:../../source/src/kernel/OS_CORE/module.c ****                  ((~(j1 ^ sign) & 1) << 23) |
 397              		.loc 2 100 0
 398 0250 3B63     		str	r3, [r7, #48]
 105:../../source/src/kernel/OS_CORE/module.c ****         if (offset & 0x01000000)
 399              		.loc 2 105 0
 400 0252 3B6B     		ldr	r3, [r7, #48]
 401 0254 03F08073 		and	r3, r3, #16777216
 402 0258 002B     		cmp	r3, #0
 403 025a 03D0     		beq	.L19
 106:../../source/src/kernel/OS_CORE/module.c ****             offset -= 0x02000000;
 404              		.loc 2 106 0
 405 025c 3B6B     		ldr	r3, [r7, #48]
 406 025e 03F17E43 		add	r3, r3, #-33554432
 407 0262 3B63     		str	r3, [r7, #48]
 408              	.L19:
 107:../../source/src/kernel/OS_CORE/module.c ****         offset += sym_val - (Elf32_Addr)where;
 409              		.loc 2 107 0
 410 0264 FB6A     		ldr	r3, [r7, #44]
 411 0266 7A68     		ldr	r2, [r7, #4]
ARM GAS  G:\Users\Jaxb\AppData\Local\Temp\ccf0KBoB.s 			page 11


 412 0268 D21A     		subs	r2, r2, r3
 413 026a 3B6B     		ldr	r3, [r7, #48]
 414 026c 1344     		add	r3, r3, r2
 415 026e 3B63     		str	r3, [r7, #48]
 108:../../source/src/kernel/OS_CORE/module.c **** 
 109:../../source/src/kernel/OS_CORE/module.c ****         if (!(offset & 1) ||
 416              		.loc 2 109 0
 417 0270 3B6B     		ldr	r3, [r7, #48]
 418 0272 03F00103 		and	r3, r3, #1
 419 0276 002B     		cmp	r3, #0
 420 0278 07D0     		beq	.L20
 421              		.loc 2 109 0 is_stmt 0 discriminator 1
 422 027a 3B6B     		ldr	r3, [r7, #48]
 423 027c B3F17F4F 		cmp	r3, #-16777216
 424 0280 03DD     		ble	.L20
 110:../../source/src/kernel/OS_CORE/module.c ****                 offset <= (INT32)0xff000000 ||
 425              		.loc 2 110 0 is_stmt 1
 426 0282 3B6B     		ldr	r3, [r7, #48]
 427 0284 B3F1807F 		cmp	r3, #16777216
 428 0288 05DB     		blt	.L21
 429              	.L20:
 111:../../source/src/kernel/OS_CORE/module.c ****                 offset >= (INT32)0x01000000)
 112:../../source/src/kernel/OS_CORE/module.c ****         {
 113:../../source/src/kernel/OS_CORE/module.c ****             ka_printf("Module: Only Thumb addresses allowed\n");
 430              		.loc 2 113 0
 431 028a 3D48     		ldr	r0, .L24+28
 432 028c FFF7FEFF 		bl	ka_printf
 114:../../source/src/kernel/OS_CORE/module.c **** 
 115:../../source/src/kernel/OS_CORE/module.c ****             return -1;
 433              		.loc 2 115 0
 434 0290 4FF0FF33 		mov	r3, #-1
 435 0294 61E0     		b	.L22
 436              	.L21:
 116:../../source/src/kernel/OS_CORE/module.c ****         }
 117:../../source/src/kernel/OS_CORE/module.c **** 
 118:../../source/src/kernel/OS_CORE/module.c ****         sign = (offset >> 24) & 1;
 437              		.loc 2 118 0
 438 0296 3B6B     		ldr	r3, [r7, #48]
 439 0298 1B16     		asrs	r3, r3, #24
 440 029a 03F00103 		and	r3, r3, #1
 441 029e 3B62     		str	r3, [r7, #32]
 119:../../source/src/kernel/OS_CORE/module.c ****         j1   = sign ^ (~(offset >> 23) & 1);
 442              		.loc 2 119 0
 443 02a0 3B6B     		ldr	r3, [r7, #48]
 444 02a2 03F40003 		and	r3, r3, #8388608
 445 02a6 002B     		cmp	r3, #0
 446 02a8 0CBF     		ite	eq
 447 02aa 0123     		moveq	r3, #1
 448 02ac 0023     		movne	r3, #0
 449 02ae DBB2     		uxtb	r3, r3
 450 02b0 1A46     		mov	r2, r3
 451 02b2 3B6A     		ldr	r3, [r7, #32]
 452 02b4 5340     		eors	r3, r3, r2
 453 02b6 FB61     		str	r3, [r7, #28]
 120:../../source/src/kernel/OS_CORE/module.c ****         j2   = sign ^ (~(offset >> 22) & 1);
 454              		.loc 2 120 0
 455 02b8 3B6B     		ldr	r3, [r7, #48]
ARM GAS  G:\Users\Jaxb\AppData\Local\Temp\ccf0KBoB.s 			page 12


 456 02ba 03F48003 		and	r3, r3, #4194304
 457 02be 002B     		cmp	r3, #0
 458 02c0 0CBF     		ite	eq
 459 02c2 0123     		moveq	r3, #1
 460 02c4 0023     		movne	r3, #0
 461 02c6 DBB2     		uxtb	r3, r3
 462 02c8 1A46     		mov	r2, r3
 463 02ca 3B6A     		ldr	r3, [r7, #32]
 464 02cc 5340     		eors	r3, r3, r2
 465 02ce BB61     		str	r3, [r7, #24]
 121:../../source/src/kernel/OS_CORE/module.c ****         *(UINT16 *)where = (UINT16)((upper & 0xf800) |
 466              		.loc 2 121 0
 467 02d0 BB6A     		ldr	r3, [r7, #40]
 468 02d2 9BB2     		uxth	r3, r3
 469 02d4 23F4FF63 		bic	r3, r3, #2040
 470 02d8 23F00703 		bic	r3, r3, #7
 471 02dc 9AB2     		uxth	r2, r3
 122:../../source/src/kernel/OS_CORE/module.c ****                                     (sign << 10) |
 472              		.loc 2 122 0
 473 02de 3B6A     		ldr	r3, [r7, #32]
 474 02e0 9BB2     		uxth	r3, r3
 475 02e2 9B02     		lsls	r3, r3, #10
 476 02e4 9BB2     		uxth	r3, r3
 121:../../source/src/kernel/OS_CORE/module.c ****         *(UINT16 *)where = (UINT16)((upper & 0xf800) |
 477              		.loc 2 121 0
 478 02e6 1343     		orrs	r3, r3, r2
 479 02e8 9AB2     		uxth	r2, r3
 123:../../source/src/kernel/OS_CORE/module.c ****                                     ((offset >> 12) & 0x03ff));
 480              		.loc 2 123 0
 481 02ea 3B6B     		ldr	r3, [r7, #48]
 482 02ec 1B13     		asrs	r3, r3, #12
 483 02ee 9BB2     		uxth	r3, r3
 484 02f0 C3F30903 		ubfx	r3, r3, #0, #10
 485 02f4 9BB2     		uxth	r3, r3
 121:../../source/src/kernel/OS_CORE/module.c ****         *(UINT16 *)where = (UINT16)((upper & 0xf800) |
 486              		.loc 2 121 0
 487 02f6 1343     		orrs	r3, r3, r2
 488 02f8 9AB2     		uxth	r2, r3
 489 02fa FB6A     		ldr	r3, [r7, #44]
 490 02fc 1A80     		strh	r2, [r3]	@ movhi
 124:../../source/src/kernel/OS_CORE/module.c ****         *(UINT16 *)(where + 2) = (UINT16)((lower & 0xd000) |
 491              		.loc 2 124 0
 492 02fe 7B6A     		ldr	r3, [r7, #36]
 493 0300 9BB2     		uxth	r3, r3
 494 0302 23F43F53 		bic	r3, r3, #12224
 495 0306 23F03F03 		bic	r3, r3, #63
 496 030a 9AB2     		uxth	r2, r3
 125:../../source/src/kernel/OS_CORE/module.c ****                                           (j1 << 13) | (j2 << 11) |
 497              		.loc 2 125 0
 498 030c FB69     		ldr	r3, [r7, #28]
 499 030e 9BB2     		uxth	r3, r3
 500 0310 5B03     		lsls	r3, r3, #13
 501 0312 9BB2     		uxth	r3, r3
 124:../../source/src/kernel/OS_CORE/module.c ****         *(UINT16 *)(where + 2) = (UINT16)((lower & 0xd000) |
 502              		.loc 2 124 0
 503 0314 1343     		orrs	r3, r3, r2
 504 0316 9AB2     		uxth	r2, r3
ARM GAS  G:\Users\Jaxb\AppData\Local\Temp\ccf0KBoB.s 			page 13


 505              		.loc 2 125 0
 506 0318 BB69     		ldr	r3, [r7, #24]
 507 031a 9BB2     		uxth	r3, r3
 508 031c DB02     		lsls	r3, r3, #11
 509 031e 9BB2     		uxth	r3, r3
 510 0320 1343     		orrs	r3, r3, r2
 511 0322 99B2     		uxth	r1, r3
 126:../../source/src/kernel/OS_CORE/module.c ****                                           ((offset >> 1) & 0x07ff));
 512              		.loc 2 126 0
 513 0324 3B6B     		ldr	r3, [r7, #48]
 514 0326 5B10     		asrs	r3, r3, #1
 515 0328 9BB2     		uxth	r3, r3
 516 032a C3F30A03 		ubfx	r3, r3, #0, #11
 517 032e 9AB2     		uxth	r2, r3
 124:../../source/src/kernel/OS_CORE/module.c ****         *(UINT16 *)(where + 2) = (UINT16)((lower & 0xd000) |
 518              		.loc 2 124 0
 519 0330 FB6A     		ldr	r3, [r7, #44]
 520 0332 0833     		adds	r3, r3, #8
 521 0334 0A43     		orrs	r2, r2, r1
 522 0336 92B2     		uxth	r2, r2
 523 0338 1A80     		strh	r2, [r3]	@ movhi
 127:../../source/src/kernel/OS_CORE/module.c ****         upper = *(UINT16 *)where;
 524              		.loc 2 127 0
 525 033a FB6A     		ldr	r3, [r7, #44]
 526 033c 1B88     		ldrh	r3, [r3]
 527 033e BB62     		str	r3, [r7, #40]
 128:../../source/src/kernel/OS_CORE/module.c ****         lower = *(UINT16 *)((Elf32_Addr)where + 2);
 528              		.loc 2 128 0
 529 0340 FB6A     		ldr	r3, [r7, #44]
 530 0342 0233     		adds	r3, r3, #2
 531 0344 1B88     		ldrh	r3, [r3]
 532 0346 7B62     		str	r3, [r7, #36]
 129:../../source/src/kernel/OS_CORE/module.c ****         break;
 533              		.loc 2 129 0
 534 0348 06E0     		b	.L13
 535              	.L3:
 130:../../source/src/kernel/OS_CORE/module.c ****     default:
 131:../../source/src/kernel/OS_CORE/module.c ****         ka_printf("do nothing\n");
 536              		.loc 2 131 0
 537 034a 0E48     		ldr	r0, .L24+32
 538 034c FFF7FEFF 		bl	ka_printf
 132:../../source/src/kernel/OS_CORE/module.c ****         return -1;
 539              		.loc 2 132 0
 540 0350 4FF0FF33 		mov	r3, #-1
 541 0354 01E0     		b	.L22
 542              	.L23:
  43:../../source/src/kernel/OS_CORE/module.c ****     case R_ARM_ABS32:
 543              		.loc 2 43 0
 544 0356 00BF     		nop
 545              	.L13:
 133:../../source/src/kernel/OS_CORE/module.c ****     }
 134:../../source/src/kernel/OS_CORE/module.c **** 
 135:../../source/src/kernel/OS_CORE/module.c ****     return 0;
 546              		.loc 2 135 0
 547 0358 0023     		movs	r3, #0
 548              	.L22:
 136:../../source/src/kernel/OS_CORE/module.c **** }
ARM GAS  G:\Users\Jaxb\AppData\Local\Temp\ccf0KBoB.s 			page 14


 549              		.loc 2 136 0
 550 035a 1846     		mov	r0, r3
 551 035c 3837     		adds	r7, r7, #56
 552              	.LCFI9:
 553              		.cfi_def_cfa_offset 8
 554 035e BD46     		mov	sp, r7
 555              	.LCFI10:
 556              		.cfi_def_cfa_register 13
 557              		@ sp needed
 558 0360 80BD     		pop	{r7, pc}
 559              	.L25:
 560 0362 00BF     		.align	2
 561              	.L24:
 562 0364 00000000 		.word	.LC0
 563 0368 18000000 		.word	.LC1
 564 036c 30000000 		.word	.LC2
 565 0370 0F0000F0 		.word	-268435441
 566 0374 5C000000 		.word	.LC3
 567 0378 80000000 		.word	.LC4
 568 037c 00F03F00 		.word	4190208
 569 0380 A4000000 		.word	.LC5
 570 0384 CC000000 		.word	.LC6
 571              		.cfi_endproc
 572              	.LFE10:
 573              		.size	dlmodule_relocate, .-dlmodule_relocate
 574              		.section	.rodata
 575              		.align	2
 576              	.LC7:
 577 00d8 2E2E2F2E 		.ascii	"../../source/src/kernel/OS_CORE/module.c\000"
 577      2E2F736F 
 577      75726365 
 577      2F737263 
 577      2F6B6572 
 578 0101 000000   		.align	2
 579              	.LC8:
 580 0104 4C4F4144 		.ascii	"LOAD segment: %d, 0x%p, 0x%x\012\000"
 580      20736567 
 580      6D656E74 
 580      3A202564 
 580      2C203078 
 581 0122 0000     		.align	2
 582              	.LC9:
 583 0124 696E7661 		.ascii	"invalid elf: segment %d: p_memsz: %d, p_filesz: %d\012"
 583      6C696420 
 583      656C663A 
 583      20736567 
 583      6D656E74 
 584 0157 00       		.ascii	"\000"
 585              		.align	2
 586              	.LC10:
 587 0158 696E7661 		.ascii	"invalid elf: segment %d: p_vaddr: %d, p_memsz: %d\012"
 587      6C696420 
 587      656C663A 
 587      20736567 
 587      6D656E74 
 588 018a 00       		.ascii	"\000"
 589 018b 00       		.align	2
ARM GAS  G:\Users\Jaxb\AppData\Local\Temp\ccf0KBoB.s 			page 15


 590              	.LC11:
 591 018c 696E7661 		.ascii	"invalid elf: segment should be sorted and not overl"
 591      6C696420 
 591      656C663A 
 591      20736567 
 591      6D656E74 
 592 01bf 61707065 		.ascii	"apped\012\000"
 592      640A00
 593 01c6 0000     		.align	2
 594              	.LC12:
 595 01c8 7761726E 		.ascii	"warning: too much padding before segment %d\012\000"
 595      696E673A 
 595      20746F6F 
 595      206D7563 
 595      68207061 
 596 01f5 000000   		.align	2
 597              	.LC13:
 598 01f8 696E7661 		.ascii	"invalid elf: segment %d address overflow\012\000"
 598      6C696420 
 598      656C663A 
 598      20736567 
 598      6D656E74 
 599 0222 0000     		.align	2
 600              	.LC14:
 601 0224 6D6F6475 		.ascii	"module size: %d, vstart_addr: 0x%p\012\000"
 601      6C652073 
 601      697A653A 
 601      2025642C 
 601      20767374 
 602              		.align	2
 603              	.LC15:
 604 0248 4D6F6475 		.ascii	"Module: size error\012\000"
 604      6C653A20 
 604      73697A65 
 604      20657272 
 604      6F720A00 
 605              		.align	2
 606              	.LC16:
 607 025c 4D6F6475 		.ascii	"Module: allocate space failed.\012\000"
 607      6C653A20 
 607      616C6C6F 
 607      63617465 
 607      20737061 
 608              		.align	2
 609              	.LC17:
 610 027c 310A00   		.ascii	"1\012\000"
 611 027f 00       		.align	2
 612              	.LC18:
 613 0280 72656C6F 		.ascii	"relocate symbol %s shndx %d\000"
 613      63617465 
 613      2073796D 
 613      626F6C20 
 613      25732073 
 614              		.align	2
 615              	.LC19:
 616 029c 72656C6F 		.ascii	"relocate symbol: %s\000"
 616      63617465 
ARM GAS  G:\Users\Jaxb\AppData\Local\Temp\ccf0KBoB.s 			page 16


 616      2073796D 
 616      626F6C3A 
 616      20257300 
 617              		.align	2
 618              	.LC20:
 619 02b0 4D6F6475 		.ascii	"Module: can't find %s in kernel symbol table\000"
 619      6C653A20 
 619      63616E27 
 619      74206669 
 619      6E642025 
 620 02dd 000000   		.align	2
 621              	.LC21:
 622 02e0 320A00   		.ascii	"2\012\000"
 623 02e3 00       		.align	2
 624              	.LC22:
 625 02e4 2E64796E 		.ascii	".dynsym\000"
 625      73796D00 
 626              		.align	2
 627              	.LC23:
 628 02ec 330A00   		.ascii	"3\012\000"
 629              		.text
 630              		.align	1
 631              		.global	dlmodule_load_shared_object
 632              		.syntax unified
 633              		.thumb
 634              		.thumb_func
 635              		.fpu softvfp
 636              		.type	dlmodule_load_shared_object, %function
 637              	dlmodule_load_shared_object:
 638              	.LFB11:
 137:../../source/src/kernel/OS_CORE/module.c **** 
 138:../../source/src/kernel/OS_CORE/module.c **** rt_err_t dlmodule_load_shared_object(struct rt_dlmodule* module, void *module_ptr)
 139:../../source/src/kernel/OS_CORE/module.c **** {
 639              		.loc 2 139 0
 640              		.cfi_startproc
 641              		@ args = 0, pretend = 0, frame = 88
 642              		@ frame_needed = 1, uses_anonymous_args = 0
 643 0388 90B5     		push	{r4, r7, lr}
 644              	.LCFI11:
 645              		.cfi_def_cfa_offset 12
 646              		.cfi_offset 4, -12
 647              		.cfi_offset 7, -8
 648              		.cfi_offset 14, -4
 649 038a 97B0     		sub	sp, sp, #92
 650              	.LCFI12:
 651              		.cfi_def_cfa_offset 104
 652 038c 00AF     		add	r7, sp, #0
 653              	.LCFI13:
 654              		.cfi_def_cfa_register 7
 655 038e 7860     		str	r0, [r7, #4]
 656 0390 3960     		str	r1, [r7]
 140:../../source/src/kernel/OS_CORE/module.c ****     rt_bool_t linked   = RT_FALSE;
 657              		.loc 2 140 0
 658 0392 0023     		movs	r3, #0
 659 0394 7B63     		str	r3, [r7, #52]
 141:../../source/src/kernel/OS_CORE/module.c ****     UINT32 index, module_size = 0;
 660              		.loc 2 141 0
ARM GAS  G:\Users\Jaxb\AppData\Local\Temp\ccf0KBoB.s 			page 17


 661 0396 0023     		movs	r3, #0
 662 0398 3B63     		str	r3, [r7, #48]
 142:../../source/src/kernel/OS_CORE/module.c ****     Elf32_Addr vstart_addr, vend_addr;
 143:../../source/src/kernel/OS_CORE/module.c ****     rt_bool_t has_vstart;
 144:../../source/src/kernel/OS_CORE/module.c **** 
 145:../../source/src/kernel/OS_CORE/module.c ****     ASSERT(module_ptr != NULL);
 663              		.loc 2 145 0
 664 039a 3B68     		ldr	r3, [r7]
 665 039c 002B     		cmp	r3, #0
 666 039e 03D1     		bne	.L27
 667              		.loc 2 145 0 is_stmt 0 discriminator 1
 668 03a0 9121     		movs	r1, #145
 669 03a2 8A48     		ldr	r0, .L69
 670 03a4 FFF7FEFF 		bl	_ASSERT
 671              	.L27:
 146:../../source/src/kernel/OS_CORE/module.c **** 
 147:../../source/src/kernel/OS_CORE/module.c ****     /* get the ELF image size */
 148:../../source/src/kernel/OS_CORE/module.c ****     has_vstart = RT_FALSE;
 672              		.loc 2 148 0 is_stmt 1
 673 03a8 0023     		movs	r3, #0
 674 03aa BB64     		str	r3, [r7, #72]
 149:../../source/src/kernel/OS_CORE/module.c ****     vstart_addr = vend_addr = NULL;
 675              		.loc 2 149 0
 676 03ac 0023     		movs	r3, #0
 677 03ae FB64     		str	r3, [r7, #76]
 678 03b0 FB6C     		ldr	r3, [r7, #76]
 679 03b2 3B65     		str	r3, [r7, #80]
 150:../../source/src/kernel/OS_CORE/module.c ****     for (index = 0; index < elf_module->e_phnum; index++)
 680              		.loc 2 150 0
 681 03b4 0023     		movs	r3, #0
 682 03b6 7B65     		str	r3, [r7, #84]
 683 03b8 CAE0     		b	.L28
 684              	.L36:
 151:../../source/src/kernel/OS_CORE/module.c ****     {
 152:../../source/src/kernel/OS_CORE/module.c ****         if (phdr[index].p_type != PT_LOAD)
 685              		.loc 2 152 0
 686 03ba 3B68     		ldr	r3, [r7]
 687 03bc DA69     		ldr	r2, [r3, #28]
 688 03be 7B6D     		ldr	r3, [r7, #84]
 689 03c0 5B01     		lsls	r3, r3, #5
 690 03c2 1344     		add	r3, r3, r2
 691 03c4 3A68     		ldr	r2, [r7]
 692 03c6 1344     		add	r3, r3, r2
 693 03c8 1B68     		ldr	r3, [r3]
 694 03ca 012B     		cmp	r3, #1
 695 03cc 40F0BC80 		bne	.L65
 153:../../source/src/kernel/OS_CORE/module.c ****             continue;
 154:../../source/src/kernel/OS_CORE/module.c **** 
 155:../../source/src/kernel/OS_CORE/module.c ****         ka_printf("LOAD segment: %d, 0x%p, 0x%x\n", index, phdr[index].p_vaddr, phdr[index].p_memsz
 696              		.loc 2 155 0
 697 03d0 3B68     		ldr	r3, [r7]
 698 03d2 DA69     		ldr	r2, [r3, #28]
 699 03d4 7B6D     		ldr	r3, [r7, #84]
 700 03d6 5B01     		lsls	r3, r3, #5
 701 03d8 1344     		add	r3, r3, r2
 702 03da 3A68     		ldr	r2, [r7]
 703 03dc 1344     		add	r3, r3, r2
ARM GAS  G:\Users\Jaxb\AppData\Local\Temp\ccf0KBoB.s 			page 18


 704 03de 9968     		ldr	r1, [r3, #8]
 705 03e0 3B68     		ldr	r3, [r7]
 706 03e2 DA69     		ldr	r2, [r3, #28]
 707 03e4 7B6D     		ldr	r3, [r7, #84]
 708 03e6 5B01     		lsls	r3, r3, #5
 709 03e8 1344     		add	r3, r3, r2
 710 03ea 3A68     		ldr	r2, [r7]
 711 03ec 1344     		add	r3, r3, r2
 712 03ee 5B69     		ldr	r3, [r3, #20]
 713 03f0 0A46     		mov	r2, r1
 714 03f2 796D     		ldr	r1, [r7, #84]
 715 03f4 7648     		ldr	r0, .L69+4
 716 03f6 FFF7FEFF 		bl	ka_printf
 156:../../source/src/kernel/OS_CORE/module.c **** 
 157:../../source/src/kernel/OS_CORE/module.c ****         if (phdr[index].p_memsz < phdr[index].p_filesz)
 717              		.loc 2 157 0
 718 03fa 3B68     		ldr	r3, [r7]
 719 03fc DA69     		ldr	r2, [r3, #28]
 720 03fe 7B6D     		ldr	r3, [r7, #84]
 721 0400 5B01     		lsls	r3, r3, #5
 722 0402 1344     		add	r3, r3, r2
 723 0404 3A68     		ldr	r2, [r7]
 724 0406 1344     		add	r3, r3, r2
 725 0408 5A69     		ldr	r2, [r3, #20]
 726 040a 3B68     		ldr	r3, [r7]
 727 040c D969     		ldr	r1, [r3, #28]
 728 040e 7B6D     		ldr	r3, [r7, #84]
 729 0410 5B01     		lsls	r3, r3, #5
 730 0412 0B44     		add	r3, r3, r1
 731 0414 3968     		ldr	r1, [r7]
 732 0416 0B44     		add	r3, r3, r1
 733 0418 1B69     		ldr	r3, [r3, #16]
 734 041a 9A42     		cmp	r2, r3
 735 041c 16D2     		bcs	.L31
 158:../../source/src/kernel/OS_CORE/module.c ****         {
 159:../../source/src/kernel/OS_CORE/module.c ****             ka_printf("invalid elf: segment %d: p_memsz: %d, p_filesz: %d\n",
 160:../../source/src/kernel/OS_CORE/module.c ****                        index, phdr[index].p_memsz, phdr[index].p_filesz);
 736              		.loc 2 160 0
 737 041e 3B68     		ldr	r3, [r7]
 738 0420 DA69     		ldr	r2, [r3, #28]
 739 0422 7B6D     		ldr	r3, [r7, #84]
 740 0424 5B01     		lsls	r3, r3, #5
 741 0426 1344     		add	r3, r3, r2
 742 0428 3A68     		ldr	r2, [r7]
 743 042a 1344     		add	r3, r3, r2
 159:../../source/src/kernel/OS_CORE/module.c ****                        index, phdr[index].p_memsz, phdr[index].p_filesz);
 744              		.loc 2 159 0
 745 042c 5969     		ldr	r1, [r3, #20]
 746              		.loc 2 160 0
 747 042e 3B68     		ldr	r3, [r7]
 748 0430 DA69     		ldr	r2, [r3, #28]
 749 0432 7B6D     		ldr	r3, [r7, #84]
 750 0434 5B01     		lsls	r3, r3, #5
 751 0436 1344     		add	r3, r3, r2
 752 0438 3A68     		ldr	r2, [r7]
 753 043a 1344     		add	r3, r3, r2
 159:../../source/src/kernel/OS_CORE/module.c ****                        index, phdr[index].p_memsz, phdr[index].p_filesz);
ARM GAS  G:\Users\Jaxb\AppData\Local\Temp\ccf0KBoB.s 			page 19


 754              		.loc 2 159 0
 755 043c 1B69     		ldr	r3, [r3, #16]
 756 043e 0A46     		mov	r2, r1
 757 0440 796D     		ldr	r1, [r7, #84]
 758 0442 6448     		ldr	r0, .L69+8
 759 0444 FFF7FEFF 		bl	ka_printf
 161:../../source/src/kernel/OS_CORE/module.c ****             return NULL;
 760              		.loc 2 161 0
 761 0448 0023     		movs	r3, #0
 762 044a 10E3     		b	.L32
 763              	.L31:
 162:../../source/src/kernel/OS_CORE/module.c ****         }
 163:../../source/src/kernel/OS_CORE/module.c ****         if (!has_vstart)
 764              		.loc 2 163 0
 765 044c BB6C     		ldr	r3, [r7, #72]
 766 044e 002B     		cmp	r3, #0
 767 0450 37D1     		bne	.L33
 164:../../source/src/kernel/OS_CORE/module.c ****         {
 165:../../source/src/kernel/OS_CORE/module.c ****             vstart_addr = phdr[index].p_vaddr;
 768              		.loc 2 165 0
 769 0452 3B68     		ldr	r3, [r7]
 770 0454 DA69     		ldr	r2, [r3, #28]
 771 0456 7B6D     		ldr	r3, [r7, #84]
 772 0458 5B01     		lsls	r3, r3, #5
 773 045a 1344     		add	r3, r3, r2
 774 045c 3A68     		ldr	r2, [r7]
 775 045e 1344     		add	r3, r3, r2
 776 0460 9B68     		ldr	r3, [r3, #8]
 777 0462 3B65     		str	r3, [r7, #80]
 166:../../source/src/kernel/OS_CORE/module.c ****             vend_addr = phdr[index].p_vaddr + phdr[index].p_memsz;
 778              		.loc 2 166 0
 779 0464 3B68     		ldr	r3, [r7]
 780 0466 DA69     		ldr	r2, [r3, #28]
 781 0468 7B6D     		ldr	r3, [r7, #84]
 782 046a 5B01     		lsls	r3, r3, #5
 783 046c 1344     		add	r3, r3, r2
 784 046e 3A68     		ldr	r2, [r7]
 785 0470 1344     		add	r3, r3, r2
 786 0472 9A68     		ldr	r2, [r3, #8]
 787 0474 3B68     		ldr	r3, [r7]
 788 0476 D969     		ldr	r1, [r3, #28]
 789 0478 7B6D     		ldr	r3, [r7, #84]
 790 047a 5B01     		lsls	r3, r3, #5
 791 047c 0B44     		add	r3, r3, r1
 792 047e 3968     		ldr	r1, [r7]
 793 0480 0B44     		add	r3, r3, r1
 794 0482 5B69     		ldr	r3, [r3, #20]
 795 0484 1344     		add	r3, r3, r2
 796 0486 FB64     		str	r3, [r7, #76]
 167:../../source/src/kernel/OS_CORE/module.c ****             has_vstart = RT_TRUE;
 797              		.loc 2 167 0
 798 0488 0123     		movs	r3, #1
 799 048a BB64     		str	r3, [r7, #72]
 168:../../source/src/kernel/OS_CORE/module.c ****             if (vend_addr < vstart_addr)
 800              		.loc 2 168 0
 801 048c FA6C     		ldr	r2, [r7, #76]
 802 048e 3B6D     		ldr	r3, [r7, #80]
ARM GAS  G:\Users\Jaxb\AppData\Local\Temp\ccf0KBoB.s 			page 20


 803 0490 9A42     		cmp	r2, r3
 804 0492 5AD2     		bcs	.L30
 169:../../source/src/kernel/OS_CORE/module.c ****             {
 170:../../source/src/kernel/OS_CORE/module.c ****                 ka_printf("invalid elf: segment %d: p_vaddr: %d, p_memsz: %d\n",
 171:../../source/src/kernel/OS_CORE/module.c ****                            index, phdr[index].p_vaddr, phdr[index].p_memsz);
 805              		.loc 2 171 0
 806 0494 3B68     		ldr	r3, [r7]
 807 0496 DA69     		ldr	r2, [r3, #28]
 808 0498 7B6D     		ldr	r3, [r7, #84]
 809 049a 5B01     		lsls	r3, r3, #5
 810 049c 1344     		add	r3, r3, r2
 811 049e 3A68     		ldr	r2, [r7]
 812 04a0 1344     		add	r3, r3, r2
 170:../../source/src/kernel/OS_CORE/module.c ****                            index, phdr[index].p_vaddr, phdr[index].p_memsz);
 813              		.loc 2 170 0
 814 04a2 9968     		ldr	r1, [r3, #8]
 815              		.loc 2 171 0
 816 04a4 3B68     		ldr	r3, [r7]
 817 04a6 DA69     		ldr	r2, [r3, #28]
 818 04a8 7B6D     		ldr	r3, [r7, #84]
 819 04aa 5B01     		lsls	r3, r3, #5
 820 04ac 1344     		add	r3, r3, r2
 821 04ae 3A68     		ldr	r2, [r7]
 822 04b0 1344     		add	r3, r3, r2
 170:../../source/src/kernel/OS_CORE/module.c ****                            index, phdr[index].p_vaddr, phdr[index].p_memsz);
 823              		.loc 2 170 0
 824 04b2 5B69     		ldr	r3, [r3, #20]
 825 04b4 0A46     		mov	r2, r1
 826 04b6 796D     		ldr	r1, [r7, #84]
 827 04b8 4748     		ldr	r0, .L69+12
 828 04ba FFF7FEFF 		bl	ka_printf
 172:../../source/src/kernel/OS_CORE/module.c ****                 return NULL;
 829              		.loc 2 172 0
 830 04be 0023     		movs	r3, #0
 831 04c0 D5E2     		b	.L32
 832              	.L33:
 173:../../source/src/kernel/OS_CORE/module.c ****             }
 174:../../source/src/kernel/OS_CORE/module.c ****         }
 175:../../source/src/kernel/OS_CORE/module.c ****         else
 176:../../source/src/kernel/OS_CORE/module.c ****         {
 177:../../source/src/kernel/OS_CORE/module.c ****             if (phdr[index].p_vaddr < vend_addr)
 833              		.loc 2 177 0
 834 04c2 3B68     		ldr	r3, [r7]
 835 04c4 DA69     		ldr	r2, [r3, #28]
 836 04c6 7B6D     		ldr	r3, [r7, #84]
 837 04c8 5B01     		lsls	r3, r3, #5
 838 04ca 1344     		add	r3, r3, r2
 839 04cc 3A68     		ldr	r2, [r7]
 840 04ce 1344     		add	r3, r3, r2
 841 04d0 9B68     		ldr	r3, [r3, #8]
 842 04d2 FA6C     		ldr	r2, [r7, #76]
 843 04d4 9A42     		cmp	r2, r3
 844 04d6 04D9     		bls	.L34
 178:../../source/src/kernel/OS_CORE/module.c ****             {
 179:../../source/src/kernel/OS_CORE/module.c ****                 ka_printf("invalid elf: segment should be sorted and not overlapped\n");
 845              		.loc 2 179 0
 846 04d8 4048     		ldr	r0, .L69+16
ARM GAS  G:\Users\Jaxb\AppData\Local\Temp\ccf0KBoB.s 			page 21


 847 04da FFF7FEFF 		bl	ka_printf
 180:../../source/src/kernel/OS_CORE/module.c ****                 return NULL;
 848              		.loc 2 180 0
 849 04de 0023     		movs	r3, #0
 850 04e0 C5E2     		b	.L32
 851              	.L34:
 181:../../source/src/kernel/OS_CORE/module.c ****             }
 182:../../source/src/kernel/OS_CORE/module.c ****             if (phdr[index].p_vaddr > vend_addr + 16)
 852              		.loc 2 182 0
 853 04e2 3B68     		ldr	r3, [r7]
 854 04e4 DA69     		ldr	r2, [r3, #28]
 855 04e6 7B6D     		ldr	r3, [r7, #84]
 856 04e8 5B01     		lsls	r3, r3, #5
 857 04ea 1344     		add	r3, r3, r2
 858 04ec 3A68     		ldr	r2, [r7]
 859 04ee 1344     		add	r3, r3, r2
 860 04f0 9A68     		ldr	r2, [r3, #8]
 861 04f2 FB6C     		ldr	r3, [r7, #76]
 862 04f4 1033     		adds	r3, r3, #16
 863 04f6 9A42     		cmp	r2, r3
 864 04f8 03D9     		bls	.L35
 183:../../source/src/kernel/OS_CORE/module.c ****             {
 184:../../source/src/kernel/OS_CORE/module.c ****                 /* There should not be too much padding in the object files. */
 185:../../source/src/kernel/OS_CORE/module.c ****                 ka_printf("warning: too much padding before segment %d\n", index);
 865              		.loc 2 185 0
 866 04fa 796D     		ldr	r1, [r7, #84]
 867 04fc 3848     		ldr	r0, .L69+20
 868 04fe FFF7FEFF 		bl	ka_printf
 869              	.L35:
 186:../../source/src/kernel/OS_CORE/module.c ****             }
 187:../../source/src/kernel/OS_CORE/module.c **** 
 188:../../source/src/kernel/OS_CORE/module.c ****             vend_addr = phdr[index].p_vaddr + phdr[index].p_memsz;
 870              		.loc 2 188 0
 871 0502 3B68     		ldr	r3, [r7]
 872 0504 DA69     		ldr	r2, [r3, #28]
 873 0506 7B6D     		ldr	r3, [r7, #84]
 874 0508 5B01     		lsls	r3, r3, #5
 875 050a 1344     		add	r3, r3, r2
 876 050c 3A68     		ldr	r2, [r7]
 877 050e 1344     		add	r3, r3, r2
 878 0510 9A68     		ldr	r2, [r3, #8]
 879 0512 3B68     		ldr	r3, [r7]
 880 0514 D969     		ldr	r1, [r3, #28]
 881 0516 7B6D     		ldr	r3, [r7, #84]
 882 0518 5B01     		lsls	r3, r3, #5
 883 051a 0B44     		add	r3, r3, r1
 884 051c 3968     		ldr	r1, [r7]
 885 051e 0B44     		add	r3, r3, r1
 886 0520 5B69     		ldr	r3, [r3, #20]
 887 0522 1344     		add	r3, r3, r2
 888 0524 FB64     		str	r3, [r7, #76]
 189:../../source/src/kernel/OS_CORE/module.c ****             if (vend_addr < phdr[index].p_vaddr)
 889              		.loc 2 189 0
 890 0526 3B68     		ldr	r3, [r7]
 891 0528 DA69     		ldr	r2, [r3, #28]
 892 052a 7B6D     		ldr	r3, [r7, #84]
 893 052c 5B01     		lsls	r3, r3, #5
ARM GAS  G:\Users\Jaxb\AppData\Local\Temp\ccf0KBoB.s 			page 22


 894 052e 1344     		add	r3, r3, r2
 895 0530 3A68     		ldr	r2, [r7]
 896 0532 1344     		add	r3, r3, r2
 897 0534 9B68     		ldr	r3, [r3, #8]
 898 0536 FA6C     		ldr	r2, [r7, #76]
 899 0538 9A42     		cmp	r2, r3
 900 053a 06D2     		bcs	.L30
 190:../../source/src/kernel/OS_CORE/module.c ****             {
 191:../../source/src/kernel/OS_CORE/module.c ****                 ka_printf("invalid elf: "
 901              		.loc 2 191 0
 902 053c 796D     		ldr	r1, [r7, #84]
 903 053e 2948     		ldr	r0, .L69+24
 904 0540 FFF7FEFF 		bl	ka_printf
 192:../../source/src/kernel/OS_CORE/module.c ****                            "segment %d address overflow\n", index);
 193:../../source/src/kernel/OS_CORE/module.c ****                 return NULL;
 905              		.loc 2 193 0
 906 0544 0023     		movs	r3, #0
 907 0546 92E2     		b	.L32
 908              	.L65:
 153:../../source/src/kernel/OS_CORE/module.c **** 
 909              		.loc 2 153 0
 910 0548 00BF     		nop
 911              	.L30:
 150:../../source/src/kernel/OS_CORE/module.c ****     {
 912              		.loc 2 150 0 discriminator 2
 913 054a 7B6D     		ldr	r3, [r7, #84]
 914 054c 0133     		adds	r3, r3, #1
 915 054e 7B65     		str	r3, [r7, #84]
 916              	.L28:
 150:../../source/src/kernel/OS_CORE/module.c ****     {
 917              		.loc 2 150 0 is_stmt 0 discriminator 1
 918 0550 3B68     		ldr	r3, [r7]
 919 0552 9B8D     		ldrh	r3, [r3, #44]
 920 0554 1A46     		mov	r2, r3
 921 0556 7B6D     		ldr	r3, [r7, #84]
 922 0558 9342     		cmp	r3, r2
 923 055a FFF42EAF 		bcc	.L36
 194:../../source/src/kernel/OS_CORE/module.c ****             }
 195:../../source/src/kernel/OS_CORE/module.c ****         }
 196:../../source/src/kernel/OS_CORE/module.c ****     }
 197:../../source/src/kernel/OS_CORE/module.c **** 
 198:../../source/src/kernel/OS_CORE/module.c ****     module_size = vend_addr - vstart_addr;
 924              		.loc 2 198 0 is_stmt 1
 925 055e FA6C     		ldr	r2, [r7, #76]
 926 0560 3B6D     		ldr	r3, [r7, #80]
 927 0562 D31A     		subs	r3, r2, r3
 928 0564 3B63     		str	r3, [r7, #48]
 199:../../source/src/kernel/OS_CORE/module.c ****     ka_printf("module size: %d, vstart_addr: 0x%p\n", module_size, vstart_addr);
 929              		.loc 2 199 0
 930 0566 3A6D     		ldr	r2, [r7, #80]
 931 0568 396B     		ldr	r1, [r7, #48]
 932 056a 1F48     		ldr	r0, .L69+28
 933 056c FFF7FEFF 		bl	ka_printf
 200:../../source/src/kernel/OS_CORE/module.c ****     if (module_size == 0)
 934              		.loc 2 200 0
 935 0570 3B6B     		ldr	r3, [r7, #48]
 936 0572 002B     		cmp	r3, #0
ARM GAS  G:\Users\Jaxb\AppData\Local\Temp\ccf0KBoB.s 			page 23


 937 0574 05D1     		bne	.L37
 201:../../source/src/kernel/OS_CORE/module.c ****     {
 202:../../source/src/kernel/OS_CORE/module.c ****         ka_printf("Module: size error\n");
 938              		.loc 2 202 0
 939 0576 1D48     		ldr	r0, .L69+32
 940 0578 FFF7FEFF 		bl	ka_printf
 203:../../source/src/kernel/OS_CORE/module.c ****         return -RT_ERROR;
 941              		.loc 2 203 0
 942 057c 4FF0FF33 		mov	r3, #-1
 943 0580 75E2     		b	.L32
 944              	.L37:
 204:../../source/src/kernel/OS_CORE/module.c ****     }
 205:../../source/src/kernel/OS_CORE/module.c **** 
 206:../../source/src/kernel/OS_CORE/module.c ****     module->vstart_addr = vstart_addr;
 945              		.loc 2 206 0
 946 0582 7B68     		ldr	r3, [r7, #4]
 947 0584 3A6D     		ldr	r2, [r7, #80]
 948 0586 9A62     		str	r2, [r3, #40]
 207:../../source/src/kernel/OS_CORE/module.c ****     module->nref = 0;
 949              		.loc 2 207 0
 950 0588 7B68     		ldr	r3, [r7, #4]
 951 058a 0022     		movs	r2, #0
 952 058c A3F84420 		strh	r2, [r3, #68]	@ movhi
 208:../../source/src/kernel/OS_CORE/module.c **** 
 209:../../source/src/kernel/OS_CORE/module.c ****     /* allocate module space */
 210:../../source/src/kernel/OS_CORE/module.c ****     module->mem_space = ka_malloc(module_size);
 953              		.loc 2 210 0
 954 0590 386B     		ldr	r0, [r7, #48]
 955 0592 FFF7FEFF 		bl	ka_malloc
 956 0596 0246     		mov	r2, r0
 957 0598 7B68     		ldr	r3, [r7, #4]
 958 059a 5A63     		str	r2, [r3, #52]
 211:../../source/src/kernel/OS_CORE/module.c ****     if (module->mem_space == NULL)
 959              		.loc 2 211 0
 960 059c 7B68     		ldr	r3, [r7, #4]
 961 059e 5B6B     		ldr	r3, [r3, #52]
 962 05a0 002B     		cmp	r3, #0
 963 05a2 05D1     		bne	.L38
 212:../../source/src/kernel/OS_CORE/module.c ****     {
 213:../../source/src/kernel/OS_CORE/module.c ****         ka_printf("Module: allocate space failed.\n");
 964              		.loc 2 213 0
 965 05a4 1248     		ldr	r0, .L69+36
 966 05a6 FFF7FEFF 		bl	ka_printf
 214:../../source/src/kernel/OS_CORE/module.c ****         return -RT_ERROR;
 967              		.loc 2 214 0
 968 05aa 4FF0FF33 		mov	r3, #-1
 969 05ae 5EE2     		b	.L32
 970              	.L38:
 215:../../source/src/kernel/OS_CORE/module.c ****     }
 216:../../source/src/kernel/OS_CORE/module.c ****     module->mem_size = module_size;
 971              		.loc 2 216 0
 972 05b0 7B68     		ldr	r3, [r7, #4]
 973 05b2 3A6B     		ldr	r2, [r7, #48]
 974 05b4 9A63     		str	r2, [r3, #56]
 217:../../source/src/kernel/OS_CORE/module.c **** 
 218:../../source/src/kernel/OS_CORE/module.c ****     /* zero all space */
 219:../../source/src/kernel/OS_CORE/module.c ****     ka_memset(module->mem_space, 0, module_size);
ARM GAS  G:\Users\Jaxb\AppData\Local\Temp\ccf0KBoB.s 			page 24


 975              		.loc 2 219 0
 976 05b6 7B68     		ldr	r3, [r7, #4]
 977 05b8 5B6B     		ldr	r3, [r3, #52]
 978 05ba 3A6B     		ldr	r2, [r7, #48]
 979 05bc 0021     		movs	r1, #0
 980 05be 1846     		mov	r0, r3
 981 05c0 FFF7FEFF 		bl	ka_memset
 220:../../source/src/kernel/OS_CORE/module.c ****     for (index = 0; index < elf_module->e_phnum; index++)
 982              		.loc 2 220 0
 983 05c4 0023     		movs	r3, #0
 984 05c6 7B65     		str	r3, [r7, #84]
 985 05c8 43E0     		b	.L39
 986              	.L70:
 987 05ca 00BF     		.align	2
 988              	.L69:
 989 05cc D8000000 		.word	.LC7
 990 05d0 04010000 		.word	.LC8
 991 05d4 24010000 		.word	.LC9
 992 05d8 58010000 		.word	.LC10
 993 05dc 8C010000 		.word	.LC11
 994 05e0 C8010000 		.word	.LC12
 995 05e4 F8010000 		.word	.LC13
 996 05e8 24020000 		.word	.LC14
 997 05ec 48020000 		.word	.LC15
 998 05f0 5C020000 		.word	.LC16
 999              	.L41:
 221:../../source/src/kernel/OS_CORE/module.c ****     {
 222:../../source/src/kernel/OS_CORE/module.c ****         if (phdr[index].p_type == PT_LOAD)
 1000              		.loc 2 222 0
 1001 05f4 3B68     		ldr	r3, [r7]
 1002 05f6 DA69     		ldr	r2, [r3, #28]
 1003 05f8 7B6D     		ldr	r3, [r7, #84]
 1004 05fa 5B01     		lsls	r3, r3, #5
 1005 05fc 1344     		add	r3, r3, r2
 1006 05fe 3A68     		ldr	r2, [r7]
 1007 0600 1344     		add	r3, r3, r2
 1008 0602 1B68     		ldr	r3, [r3]
 1009 0604 012B     		cmp	r3, #1
 1010 0606 21D1     		bne	.L40
 223:../../source/src/kernel/OS_CORE/module.c ****         {
 224:../../source/src/kernel/OS_CORE/module.c ****             ka_memcpy(module->mem_space + phdr[index].p_vaddr - vstart_addr,
 1011              		.loc 2 224 0
 1012 0608 7B68     		ldr	r3, [r7, #4]
 1013 060a 5A6B     		ldr	r2, [r3, #52]
 1014 060c 3B68     		ldr	r3, [r7]
 1015 060e D969     		ldr	r1, [r3, #28]
 1016 0610 7B6D     		ldr	r3, [r7, #84]
 1017 0612 5B01     		lsls	r3, r3, #5
 1018 0614 0B44     		add	r3, r3, r1
 1019 0616 3968     		ldr	r1, [r7]
 1020 0618 0B44     		add	r3, r3, r1
 1021 061a 9968     		ldr	r1, [r3, #8]
 1022 061c 3B6D     		ldr	r3, [r7, #80]
 1023 061e CB1A     		subs	r3, r1, r3
 1024 0620 D018     		adds	r0, r2, r3
 225:../../source/src/kernel/OS_CORE/module.c ****                       (UINT8 *)elf_module + phdr[index].p_offset,
 1025              		.loc 2 225 0
ARM GAS  G:\Users\Jaxb\AppData\Local\Temp\ccf0KBoB.s 			page 25


 1026 0622 3B68     		ldr	r3, [r7]
 1027 0624 DA69     		ldr	r2, [r3, #28]
 1028 0626 7B6D     		ldr	r3, [r7, #84]
 1029 0628 5B01     		lsls	r3, r3, #5
 1030 062a 1344     		add	r3, r3, r2
 1031 062c 3A68     		ldr	r2, [r7]
 1032 062e 1344     		add	r3, r3, r2
 1033 0630 5B68     		ldr	r3, [r3, #4]
 224:../../source/src/kernel/OS_CORE/module.c ****                       (UINT8 *)elf_module + phdr[index].p_offset,
 1034              		.loc 2 224 0
 1035 0632 3A68     		ldr	r2, [r7]
 1036 0634 D118     		adds	r1, r2, r3
 226:../../source/src/kernel/OS_CORE/module.c ****                       phdr[index].p_filesz);
 1037              		.loc 2 226 0
 1038 0636 3B68     		ldr	r3, [r7]
 1039 0638 DA69     		ldr	r2, [r3, #28]
 1040 063a 7B6D     		ldr	r3, [r7, #84]
 1041 063c 5B01     		lsls	r3, r3, #5
 1042 063e 1344     		add	r3, r3, r2
 1043 0640 3A68     		ldr	r2, [r7]
 1044 0642 1344     		add	r3, r3, r2
 1045 0644 1B69     		ldr	r3, [r3, #16]
 224:../../source/src/kernel/OS_CORE/module.c ****                       (UINT8 *)elf_module + phdr[index].p_offset,
 1046              		.loc 2 224 0
 1047 0646 1A46     		mov	r2, r3
 1048 0648 FFF7FEFF 		bl	ka_memcpy
 1049              	.L40:
 220:../../source/src/kernel/OS_CORE/module.c ****     {
 1050              		.loc 2 220 0 discriminator 2
 1051 064c 7B6D     		ldr	r3, [r7, #84]
 1052 064e 0133     		adds	r3, r3, #1
 1053 0650 7B65     		str	r3, [r7, #84]
 1054              	.L39:
 220:../../source/src/kernel/OS_CORE/module.c ****     {
 1055              		.loc 2 220 0 is_stmt 0 discriminator 1
 1056 0652 3B68     		ldr	r3, [r7]
 1057 0654 9B8D     		ldrh	r3, [r3, #44]
 1058 0656 1A46     		mov	r2, r3
 1059 0658 7B6D     		ldr	r3, [r7, #84]
 1060 065a 9342     		cmp	r3, r2
 1061 065c CAD3     		bcc	.L41
 227:../../source/src/kernel/OS_CORE/module.c ****         }
 228:../../source/src/kernel/OS_CORE/module.c ****     }
 229:../../source/src/kernel/OS_CORE/module.c **** 
 230:../../source/src/kernel/OS_CORE/module.c ****     /* set module entry */
 231:../../source/src/kernel/OS_CORE/module.c ****     module->entry_addr = module->mem_space + elf_module->e_entry - vstart_addr;
 1062              		.loc 2 231 0 is_stmt 1
 1063 065e 7B68     		ldr	r3, [r7, #4]
 1064 0660 5A6B     		ldr	r2, [r3, #52]
 1065 0662 3B68     		ldr	r3, [r7]
 1066 0664 9969     		ldr	r1, [r3, #24]
 1067 0666 3B6D     		ldr	r3, [r7, #80]
 1068 0668 CB1A     		subs	r3, r1, r3
 1069 066a 1344     		add	r3, r3, r2
 1070 066c 1A46     		mov	r2, r3
 1071 066e 7B68     		ldr	r3, [r7, #4]
 1072 0670 DA62     		str	r2, [r3, #44]
ARM GAS  G:\Users\Jaxb\AppData\Local\Temp\ccf0KBoB.s 			page 26


 232:../../source/src/kernel/OS_CORE/module.c ****     ka_printf("1\n");
 1073              		.loc 2 232 0
 1074 0672 A348     		ldr	r0, .L71
 1075 0674 FFF7FEFF 		bl	ka_printf
 233:../../source/src/kernel/OS_CORE/module.c ****     /* handle relocation section */
 234:../../source/src/kernel/OS_CORE/module.c ****     for (index = 0; index < elf_module->e_shnum; index ++)
 1076              		.loc 2 234 0
 1077 0678 0023     		movs	r3, #0
 1078 067a 7B65     		str	r3, [r7, #84]
 1079 067c CAE0     		b	.L42
 1080              	.L51:
 1081              	.LBB2:
 235:../../source/src/kernel/OS_CORE/module.c ****     {
 236:../../source/src/kernel/OS_CORE/module.c ****         UINT32 i, nr_reloc;
 237:../../source/src/kernel/OS_CORE/module.c ****         Elf32_Sym *symtab;
 238:../../source/src/kernel/OS_CORE/module.c ****         Elf32_Rel *rel;
 239:../../source/src/kernel/OS_CORE/module.c ****         UINT8 *strtab;
 240:../../source/src/kernel/OS_CORE/module.c ****         static rt_bool_t unsolved = RT_FALSE;
 241:../../source/src/kernel/OS_CORE/module.c **** 
 242:../../source/src/kernel/OS_CORE/module.c ****         if (!IS_REL(shdr[index]))
 1082              		.loc 2 242 0
 1083 067e 3B68     		ldr	r3, [r7]
 1084 0680 196A     		ldr	r1, [r3, #32]
 1085 0682 7A6D     		ldr	r2, [r7, #84]
 1086 0684 1346     		mov	r3, r2
 1087 0686 9B00     		lsls	r3, r3, #2
 1088 0688 1344     		add	r3, r3, r2
 1089 068a DB00     		lsls	r3, r3, #3
 1090 068c 0B44     		add	r3, r3, r1
 1091 068e 3A68     		ldr	r2, [r7]
 1092 0690 1344     		add	r3, r3, r2
 1093 0692 5B68     		ldr	r3, [r3, #4]
 1094 0694 092B     		cmp	r3, #9
 1095 0696 40F0B980 		bne	.L66
 243:../../source/src/kernel/OS_CORE/module.c ****             continue;
 244:../../source/src/kernel/OS_CORE/module.c **** 
 245:../../source/src/kernel/OS_CORE/module.c ****         /* get relocate item */
 246:../../source/src/kernel/OS_CORE/module.c ****         rel = (Elf32_Rel *)((UINT8 *)module_ptr + shdr[index].sh_offset);
 1096              		.loc 2 246 0
 1097 069a 3B68     		ldr	r3, [r7]
 1098 069c 196A     		ldr	r1, [r3, #32]
 1099 069e 7A6D     		ldr	r2, [r7, #84]
 1100 06a0 1346     		mov	r3, r2
 1101 06a2 9B00     		lsls	r3, r3, #2
 1102 06a4 1344     		add	r3, r3, r2
 1103 06a6 DB00     		lsls	r3, r3, #3
 1104 06a8 0B44     		add	r3, r3, r1
 1105 06aa 3A68     		ldr	r2, [r7]
 1106 06ac 1344     		add	r3, r3, r2
 1107 06ae 1B69     		ldr	r3, [r3, #16]
 1108 06b0 3A68     		ldr	r2, [r7]
 1109 06b2 1344     		add	r3, r3, r2
 1110 06b4 3B64     		str	r3, [r7, #64]
 247:../../source/src/kernel/OS_CORE/module.c **** 
 248:../../source/src/kernel/OS_CORE/module.c ****         /* locate .rel.plt and .rel.dyn section */
 249:../../source/src/kernel/OS_CORE/module.c ****         symtab = (Elf32_Sym *)((UINT8 *)module_ptr +
 250:../../source/src/kernel/OS_CORE/module.c ****                                shdr[shdr[index].sh_link].sh_offset);
ARM GAS  G:\Users\Jaxb\AppData\Local\Temp\ccf0KBoB.s 			page 27


 1111              		.loc 2 250 0
 1112 06b6 3B68     		ldr	r3, [r7]
 1113 06b8 196A     		ldr	r1, [r3, #32]
 1114 06ba 3B68     		ldr	r3, [r7]
 1115 06bc 186A     		ldr	r0, [r3, #32]
 1116 06be 7A6D     		ldr	r2, [r7, #84]
 1117 06c0 1346     		mov	r3, r2
 1118 06c2 9B00     		lsls	r3, r3, #2
 1119 06c4 1344     		add	r3, r3, r2
 1120 06c6 DB00     		lsls	r3, r3, #3
 1121 06c8 0344     		add	r3, r3, r0
 1122 06ca 3A68     		ldr	r2, [r7]
 1123 06cc 1344     		add	r3, r3, r2
 1124 06ce 9A69     		ldr	r2, [r3, #24]
 1125 06d0 1346     		mov	r3, r2
 1126 06d2 9B00     		lsls	r3, r3, #2
 1127 06d4 1344     		add	r3, r3, r2
 1128 06d6 DB00     		lsls	r3, r3, #3
 1129 06d8 0B44     		add	r3, r3, r1
 1130 06da 3A68     		ldr	r2, [r7]
 1131 06dc 1344     		add	r3, r3, r2
 1132 06de 1B69     		ldr	r3, [r3, #16]
 249:../../source/src/kernel/OS_CORE/module.c ****                                shdr[shdr[index].sh_link].sh_offset);
 1133              		.loc 2 249 0
 1134 06e0 3A68     		ldr	r2, [r7]
 1135 06e2 1344     		add	r3, r3, r2
 1136 06e4 FB61     		str	r3, [r7, #28]
 251:../../source/src/kernel/OS_CORE/module.c ****         strtab = (UINT8 *)module_ptr +
 252:../../source/src/kernel/OS_CORE/module.c ****                  shdr[shdr[shdr[index].sh_link].sh_link].sh_offset;
 1137              		.loc 2 252 0
 1138 06e6 3B68     		ldr	r3, [r7]
 1139 06e8 196A     		ldr	r1, [r3, #32]
 1140 06ea 3B68     		ldr	r3, [r7]
 1141 06ec 186A     		ldr	r0, [r3, #32]
 1142 06ee 3B68     		ldr	r3, [r7]
 1143 06f0 1C6A     		ldr	r4, [r3, #32]
 1144 06f2 7A6D     		ldr	r2, [r7, #84]
 1145 06f4 1346     		mov	r3, r2
 1146 06f6 9B00     		lsls	r3, r3, #2
 1147 06f8 1344     		add	r3, r3, r2
 1148 06fa DB00     		lsls	r3, r3, #3
 1149 06fc 2344     		add	r3, r3, r4
 1150 06fe 3A68     		ldr	r2, [r7]
 1151 0700 1344     		add	r3, r3, r2
 1152 0702 9A69     		ldr	r2, [r3, #24]
 1153 0704 1346     		mov	r3, r2
 1154 0706 9B00     		lsls	r3, r3, #2
 1155 0708 1344     		add	r3, r3, r2
 1156 070a DB00     		lsls	r3, r3, #3
 1157 070c 0344     		add	r3, r3, r0
 1158 070e 3A68     		ldr	r2, [r7]
 1159 0710 1344     		add	r3, r3, r2
 1160 0712 9A69     		ldr	r2, [r3, #24]
 1161 0714 1346     		mov	r3, r2
 1162 0716 9B00     		lsls	r3, r3, #2
 1163 0718 1344     		add	r3, r3, r2
 1164 071a DB00     		lsls	r3, r3, #3
ARM GAS  G:\Users\Jaxb\AppData\Local\Temp\ccf0KBoB.s 			page 28


 1165 071c 0B44     		add	r3, r3, r1
 1166 071e 3A68     		ldr	r2, [r7]
 1167 0720 1344     		add	r3, r3, r2
 1168 0722 1B69     		ldr	r3, [r3, #16]
 251:../../source/src/kernel/OS_CORE/module.c ****         strtab = (UINT8 *)module_ptr +
 1169              		.loc 2 251 0
 1170 0724 3A68     		ldr	r2, [r7]
 1171 0726 1344     		add	r3, r3, r2
 1172 0728 BB61     		str	r3, [r7, #24]
 253:../../source/src/kernel/OS_CORE/module.c ****         nr_reloc = (UINT32)(shdr[index].sh_size / sizeof(Elf32_Rel));
 1173              		.loc 2 253 0
 1174 072a 3B68     		ldr	r3, [r7]
 1175 072c 196A     		ldr	r1, [r3, #32]
 1176 072e 7A6D     		ldr	r2, [r7, #84]
 1177 0730 1346     		mov	r3, r2
 1178 0732 9B00     		lsls	r3, r3, #2
 1179 0734 1344     		add	r3, r3, r2
 1180 0736 DB00     		lsls	r3, r3, #3
 1181 0738 0B44     		add	r3, r3, r1
 1182 073a 3A68     		ldr	r2, [r7]
 1183 073c 1344     		add	r3, r3, r2
 1184 073e 5B69     		ldr	r3, [r3, #20]
 1185 0740 DB08     		lsrs	r3, r3, #3
 1186 0742 7B61     		str	r3, [r7, #20]
 254:../../source/src/kernel/OS_CORE/module.c **** 
 255:../../source/src/kernel/OS_CORE/module.c ****         /* relocate every items */
 256:../../source/src/kernel/OS_CORE/module.c ****         for (i = 0; i < nr_reloc; i ++)
 1187              		.loc 2 256 0
 1188 0744 0023     		movs	r3, #0
 1189 0746 7B64     		str	r3, [r7, #68]
 1190 0748 55E0     		b	.L45
 1191              	.L50:
 1192              	.LBB3:
 257:../../source/src/kernel/OS_CORE/module.c ****         {
 258:../../source/src/kernel/OS_CORE/module.c ****             Elf32_Sym *sym = &symtab[ELF32_R_SYM(rel->r_info)];
 1193              		.loc 2 258 0
 1194 074a 3B6C     		ldr	r3, [r7, #64]
 1195 074c 5B68     		ldr	r3, [r3, #4]
 1196 074e 1B0A     		lsrs	r3, r3, #8
 1197 0750 1B01     		lsls	r3, r3, #4
 1198 0752 FA69     		ldr	r2, [r7, #28]
 1199 0754 1344     		add	r3, r3, r2
 1200 0756 3B61     		str	r3, [r7, #16]
 259:../../source/src/kernel/OS_CORE/module.c **** 
 260:../../source/src/kernel/OS_CORE/module.c ****             ka_printf("relocate symbol %s shndx %d", strtab + sym->st_name, sym->st_shndx);
 1201              		.loc 2 260 0
 1202 0758 3B69     		ldr	r3, [r7, #16]
 1203 075a 1B68     		ldr	r3, [r3]
 1204 075c BA69     		ldr	r2, [r7, #24]
 1205 075e D118     		adds	r1, r2, r3
 1206 0760 3B69     		ldr	r3, [r7, #16]
 1207 0762 DB89     		ldrh	r3, [r3, #14]
 1208 0764 1A46     		mov	r2, r3
 1209 0766 6748     		ldr	r0, .L71+4
 1210 0768 FFF7FEFF 		bl	ka_printf
 261:../../source/src/kernel/OS_CORE/module.c **** 
 262:../../source/src/kernel/OS_CORE/module.c ****             if ((sym->st_shndx != SHT_NULL) ||(ELF_ST_BIND(sym->st_info) == STB_LOCAL))
ARM GAS  G:\Users\Jaxb\AppData\Local\Temp\ccf0KBoB.s 			page 29


 1211              		.loc 2 262 0
 1212 076c 3B69     		ldr	r3, [r7, #16]
 1213 076e DB89     		ldrh	r3, [r3, #14]
 1214 0770 002B     		cmp	r3, #0
 1215 0772 05D1     		bne	.L46
 1216              		.loc 2 262 0 is_stmt 0 discriminator 1
 1217 0774 3B69     		ldr	r3, [r7, #16]
 1218 0776 1B7B     		ldrb	r3, [r3, #12]	@ zero_extendqisi2
 1219 0778 1B09     		lsrs	r3, r3, #4
 1220 077a DBB2     		uxtb	r3, r3
 1221 077c 002B     		cmp	r3, #0
 1222 077e 0DD1     		bne	.L47
 1223              	.L46:
 1224              	.LBB4:
 263:../../source/src/kernel/OS_CORE/module.c ****             {
 264:../../source/src/kernel/OS_CORE/module.c ****                 Elf32_Addr addr;
 265:../../source/src/kernel/OS_CORE/module.c **** 
 266:../../source/src/kernel/OS_CORE/module.c ****                 addr = (Elf32_Addr)(module->mem_space + sym->st_value - vstart_addr);
 1225              		.loc 2 266 0 is_stmt 1
 1226 0780 7B68     		ldr	r3, [r7, #4]
 1227 0782 5A6B     		ldr	r2, [r3, #52]
 1228 0784 3B69     		ldr	r3, [r7, #16]
 1229 0786 5968     		ldr	r1, [r3, #4]
 1230 0788 3B6D     		ldr	r3, [r7, #80]
 1231 078a CB1A     		subs	r3, r1, r3
 1232 078c 1344     		add	r3, r3, r2
 1233 078e BB60     		str	r3, [r7, #8]
 267:../../source/src/kernel/OS_CORE/module.c ****                 dlmodule_relocate(module, rel, addr);
 1234              		.loc 2 267 0
 1235 0790 BA68     		ldr	r2, [r7, #8]
 1236 0792 396C     		ldr	r1, [r7, #64]
 1237 0794 7868     		ldr	r0, [r7, #4]
 1238 0796 FFF7FEFF 		bl	dlmodule_relocate
 1239              	.LBE4:
 263:../../source/src/kernel/OS_CORE/module.c ****             {
 1240              		.loc 2 263 0
 1241 079a 26E0     		b	.L48
 1242              	.L47:
 268:../../source/src/kernel/OS_CORE/module.c ****             }
 269:../../source/src/kernel/OS_CORE/module.c ****             else if (!linked)
 1243              		.loc 2 269 0
 1244 079c 7B6B     		ldr	r3, [r7, #52]
 1245 079e 002B     		cmp	r3, #0
 1246 07a0 23D1     		bne	.L48
 1247              	.LBB5:
 270:../../source/src/kernel/OS_CORE/module.c ****             {
 271:../../source/src/kernel/OS_CORE/module.c ****                 Elf32_Addr addr;
 272:../../source/src/kernel/OS_CORE/module.c **** 
 273:../../source/src/kernel/OS_CORE/module.c ****                 ka_printf("relocate symbol: %s", strtab + sym->st_name);
 1248              		.loc 2 273 0
 1249 07a2 3B69     		ldr	r3, [r7, #16]
 1250 07a4 1B68     		ldr	r3, [r3]
 1251 07a6 BA69     		ldr	r2, [r7, #24]
 1252 07a8 1344     		add	r3, r3, r2
 1253 07aa 1946     		mov	r1, r3
 1254 07ac 5648     		ldr	r0, .L71+8
 1255 07ae FFF7FEFF 		bl	ka_printf
ARM GAS  G:\Users\Jaxb\AppData\Local\Temp\ccf0KBoB.s 			page 30


 274:../../source/src/kernel/OS_CORE/module.c ****                 /* need to resolve symbol in kernel symbol table */
 275:../../source/src/kernel/OS_CORE/module.c ****                 addr = get_export_function_addr((const char *)(strtab + sym->st_name));
 1256              		.loc 2 275 0
 1257 07b2 3B69     		ldr	r3, [r7, #16]
 1258 07b4 1B68     		ldr	r3, [r3]
 1259 07b6 BA69     		ldr	r2, [r7, #24]
 1260 07b8 1344     		add	r3, r3, r2
 1261 07ba 1846     		mov	r0, r3
 1262 07bc FFF7FEFF 		bl	get_export_function_addr
 1263 07c0 F860     		str	r0, [r7, #12]
 276:../../source/src/kernel/OS_CORE/module.c ****                 if (addr == 0)
 1264              		.loc 2 276 0
 1265 07c2 FB68     		ldr	r3, [r7, #12]
 1266 07c4 002B     		cmp	r3, #0
 1267 07c6 0BD1     		bne	.L49
 277:../../source/src/kernel/OS_CORE/module.c ****                 {
 278:../../source/src/kernel/OS_CORE/module.c ****                     ka_printf("Module: can't find %s in kernel symbol table", strtab + sym->st_name
 1268              		.loc 2 278 0
 1269 07c8 3B69     		ldr	r3, [r7, #16]
 1270 07ca 1B68     		ldr	r3, [r3]
 1271 07cc BA69     		ldr	r2, [r7, #24]
 1272 07ce 1344     		add	r3, r3, r2
 1273 07d0 1946     		mov	r1, r3
 1274 07d2 4E48     		ldr	r0, .L71+12
 1275 07d4 FFF7FEFF 		bl	ka_printf
 279:../../source/src/kernel/OS_CORE/module.c ****                     unsolved = RT_TRUE;
 1276              		.loc 2 279 0
 1277 07d8 4D4B     		ldr	r3, .L71+16
 1278 07da 0122     		movs	r2, #1
 1279 07dc 1A60     		str	r2, [r3]
 1280 07de 04E0     		b	.L48
 1281              	.L49:
 280:../../source/src/kernel/OS_CORE/module.c ****                 }
 281:../../source/src/kernel/OS_CORE/module.c ****                 else
 282:../../source/src/kernel/OS_CORE/module.c ****                 {
 283:../../source/src/kernel/OS_CORE/module.c ****                     dlmodule_relocate(module, rel, addr);
 1282              		.loc 2 283 0
 1283 07e0 FA68     		ldr	r2, [r7, #12]
 1284 07e2 396C     		ldr	r1, [r7, #64]
 1285 07e4 7868     		ldr	r0, [r7, #4]
 1286 07e6 FFF7FEFF 		bl	dlmodule_relocate
 1287              	.L48:
 1288              	.LBE5:
 284:../../source/src/kernel/OS_CORE/module.c ****                 }
 285:../../source/src/kernel/OS_CORE/module.c ****             }
 286:../../source/src/kernel/OS_CORE/module.c ****             rel ++;
 1289              		.loc 2 286 0 discriminator 2
 1290 07ea 3B6C     		ldr	r3, [r7, #64]
 1291 07ec 0833     		adds	r3, r3, #8
 1292 07ee 3B64     		str	r3, [r7, #64]
 1293              	.LBE3:
 256:../../source/src/kernel/OS_CORE/module.c ****         {
 1294              		.loc 2 256 0 discriminator 2
 1295 07f0 7B6C     		ldr	r3, [r7, #68]
 1296 07f2 0133     		adds	r3, r3, #1
 1297 07f4 7B64     		str	r3, [r7, #68]
 1298              	.L45:
ARM GAS  G:\Users\Jaxb\AppData\Local\Temp\ccf0KBoB.s 			page 31


 256:../../source/src/kernel/OS_CORE/module.c ****         {
 1299              		.loc 2 256 0 is_stmt 0 discriminator 1
 1300 07f6 7A6C     		ldr	r2, [r7, #68]
 1301 07f8 7B69     		ldr	r3, [r7, #20]
 1302 07fa 9A42     		cmp	r2, r3
 1303 07fc A5D3     		bcc	.L50
 287:../../source/src/kernel/OS_CORE/module.c ****         }
 288:../../source/src/kernel/OS_CORE/module.c **** 
 289:../../source/src/kernel/OS_CORE/module.c ****         if (unsolved) 
 1304              		.loc 2 289 0 is_stmt 1
 1305 07fe 444B     		ldr	r3, .L71+16
 1306 0800 1B68     		ldr	r3, [r3]
 1307 0802 002B     		cmp	r3, #0
 1308 0804 03D0     		beq	.L44
 290:../../source/src/kernel/OS_CORE/module.c ****             return -RT_ERROR;
 1309              		.loc 2 290 0
 1310 0806 4FF0FF33 		mov	r3, #-1
 1311 080a 30E1     		b	.L32
 1312              	.L66:
 243:../../source/src/kernel/OS_CORE/module.c **** 
 1313              		.loc 2 243 0
 1314 080c 00BF     		nop
 1315              	.L44:
 1316              	.LBE2:
 234:../../source/src/kernel/OS_CORE/module.c ****     {
 1317              		.loc 2 234 0 discriminator 2
 1318 080e 7B6D     		ldr	r3, [r7, #84]
 1319 0810 0133     		adds	r3, r3, #1
 1320 0812 7B65     		str	r3, [r7, #84]
 1321              	.L42:
 234:../../source/src/kernel/OS_CORE/module.c ****     {
 1322              		.loc 2 234 0 is_stmt 0 discriminator 1
 1323 0814 3B68     		ldr	r3, [r7]
 1324 0816 1B8E     		ldrh	r3, [r3, #48]
 1325 0818 1A46     		mov	r2, r3
 1326 081a 7B6D     		ldr	r3, [r7, #84]
 1327 081c 9342     		cmp	r3, r2
 1328 081e FFF42EAF 		bcc	.L51
 291:../../source/src/kernel/OS_CORE/module.c ****     }
 292:../../source/src/kernel/OS_CORE/module.c ****     ka_printf("2\n");
 1329              		.loc 2 292 0 is_stmt 1
 1330 0822 3C48     		ldr	r0, .L71+20
 1331 0824 FFF7FEFF 		bl	ka_printf
 293:../../source/src/kernel/OS_CORE/module.c ****     /* construct module symbol table */
 294:../../source/src/kernel/OS_CORE/module.c ****     for (index = 0; index < elf_module->e_shnum; index ++)
 1332              		.loc 2 294 0
 1333 0828 0023     		movs	r3, #0
 1334 082a 7B65     		str	r3, [r7, #84]
 1335 082c 26E0     		b	.L52
 1336              	.L55:
 1337              	.LBB6:
 295:../../source/src/kernel/OS_CORE/module.c ****     {
 296:../../source/src/kernel/OS_CORE/module.c ****         /* find .dynsym section */
 297:../../source/src/kernel/OS_CORE/module.c ****         UINT8 *shstrab;
 298:../../source/src/kernel/OS_CORE/module.c ****         shstrab = (UINT8 *)module_ptr +
 299:../../source/src/kernel/OS_CORE/module.c ****                   shdr[elf_module->e_shstrndx].sh_offset;
 1338              		.loc 2 299 0
ARM GAS  G:\Users\Jaxb\AppData\Local\Temp\ccf0KBoB.s 			page 32


 1339 082e 3B68     		ldr	r3, [r7]
 1340 0830 1A6A     		ldr	r2, [r3, #32]
 1341 0832 3B68     		ldr	r3, [r7]
 1342 0834 5B8E     		ldrh	r3, [r3, #50]
 1343 0836 1946     		mov	r1, r3
 1344 0838 0B46     		mov	r3, r1
 1345 083a 9B00     		lsls	r3, r3, #2
 1346 083c 0B44     		add	r3, r3, r1
 1347 083e DB00     		lsls	r3, r3, #3
 1348 0840 1344     		add	r3, r3, r2
 1349 0842 3A68     		ldr	r2, [r7]
 1350 0844 1344     		add	r3, r3, r2
 1351 0846 1B69     		ldr	r3, [r3, #16]
 298:../../source/src/kernel/OS_CORE/module.c ****                   shdr[elf_module->e_shstrndx].sh_offset;
 1352              		.loc 2 298 0
 1353 0848 3A68     		ldr	r2, [r7]
 1354 084a 1344     		add	r3, r3, r2
 1355 084c FB62     		str	r3, [r7, #44]
 300:../../source/src/kernel/OS_CORE/module.c ****         if (ka_strcmp((const char *)(shstrab + shdr[index].sh_name), ELF_DYNSYM) == 0)
 1356              		.loc 2 300 0
 1357 084e 3B68     		ldr	r3, [r7]
 1358 0850 196A     		ldr	r1, [r3, #32]
 1359 0852 7A6D     		ldr	r2, [r7, #84]
 1360 0854 1346     		mov	r3, r2
 1361 0856 9B00     		lsls	r3, r3, #2
 1362 0858 1344     		add	r3, r3, r2
 1363 085a DB00     		lsls	r3, r3, #3
 1364 085c 0B44     		add	r3, r3, r1
 1365 085e 3A68     		ldr	r2, [r7]
 1366 0860 1344     		add	r3, r3, r2
 1367 0862 1B68     		ldr	r3, [r3]
 1368 0864 FA6A     		ldr	r2, [r7, #44]
 1369 0866 1344     		add	r3, r3, r2
 1370 0868 2B49     		ldr	r1, .L71+24
 1371 086a 1846     		mov	r0, r3
 1372 086c FFF7FEFF 		bl	ka_strcmp
 1373 0870 0346     		mov	r3, r0
 1374 0872 002B     		cmp	r3, #0
 1375 0874 09D0     		beq	.L67
 1376              	.LBE6:
 294:../../source/src/kernel/OS_CORE/module.c ****     {
 1377              		.loc 2 294 0 discriminator 2
 1378 0876 7B6D     		ldr	r3, [r7, #84]
 1379 0878 0133     		adds	r3, r3, #1
 1380 087a 7B65     		str	r3, [r7, #84]
 1381              	.L52:
 294:../../source/src/kernel/OS_CORE/module.c ****     {
 1382              		.loc 2 294 0 is_stmt 0 discriminator 1
 1383 087c 3B68     		ldr	r3, [r7]
 1384 087e 1B8E     		ldrh	r3, [r3, #48]
 1385 0880 1A46     		mov	r2, r3
 1386 0882 7B6D     		ldr	r3, [r7, #84]
 1387 0884 9342     		cmp	r3, r2
 1388 0886 D2D3     		bcc	.L55
 1389 0888 00E0     		b	.L54
 1390              	.L67:
 1391              	.LBB7:
ARM GAS  G:\Users\Jaxb\AppData\Local\Temp\ccf0KBoB.s 			page 33


 301:../../source/src/kernel/OS_CORE/module.c ****             break;
 1392              		.loc 2 301 0 is_stmt 1
 1393 088a 00BF     		nop
 1394              	.L54:
 1395              	.LBE7:
 302:../../source/src/kernel/OS_CORE/module.c ****     }
 303:../../source/src/kernel/OS_CORE/module.c ****     ka_printf("3\n");
 1396              		.loc 2 303 0
 1397 088c 2348     		ldr	r0, .L71+28
 1398 088e FFF7FEFF 		bl	ka_printf
 304:../../source/src/kernel/OS_CORE/module.c ****     /* found .dynsym section */
 305:../../source/src/kernel/OS_CORE/module.c ****     if (index != elf_module->e_shnum)
 1399              		.loc 2 305 0
 1400 0892 3B68     		ldr	r3, [r7]
 1401 0894 1B8E     		ldrh	r3, [r3, #48]
 1402 0896 1A46     		mov	r2, r3
 1403 0898 7B6D     		ldr	r3, [r7, #84]
 1404 089a 9342     		cmp	r3, r2
 1405 089c 00F0E680 		beq	.L56
 1406              	.LBB8:
 306:../../source/src/kernel/OS_CORE/module.c ****     {
 307:../../source/src/kernel/OS_CORE/module.c ****         int i, count = 0;
 1407              		.loc 2 307 0
 1408 08a0 0023     		movs	r3, #0
 1409 08a2 BB63     		str	r3, [r7, #56]
 308:../../source/src/kernel/OS_CORE/module.c ****         Elf32_Sym  *symtab = NULL;
 1410              		.loc 2 308 0
 1411 08a4 0023     		movs	r3, #0
 1412 08a6 BB62     		str	r3, [r7, #40]
 309:../../source/src/kernel/OS_CORE/module.c ****         UINT8 *strtab = NULL;
 1413              		.loc 2 309 0
 1414 08a8 0023     		movs	r3, #0
 1415 08aa 7B62     		str	r3, [r7, #36]
 310:../../source/src/kernel/OS_CORE/module.c **** 
 311:../../source/src/kernel/OS_CORE/module.c ****         symtab = (Elf32_Sym *)((UINT8 *)module_ptr + shdr[index].sh_offset);
 1416              		.loc 2 311 0
 1417 08ac 3B68     		ldr	r3, [r7]
 1418 08ae 196A     		ldr	r1, [r3, #32]
 1419 08b0 7A6D     		ldr	r2, [r7, #84]
 1420 08b2 1346     		mov	r3, r2
 1421 08b4 9B00     		lsls	r3, r3, #2
 1422 08b6 1344     		add	r3, r3, r2
 1423 08b8 DB00     		lsls	r3, r3, #3
 1424 08ba 0B44     		add	r3, r3, r1
 1425 08bc 3A68     		ldr	r2, [r7]
 1426 08be 1344     		add	r3, r3, r2
 1427 08c0 1B69     		ldr	r3, [r3, #16]
 1428 08c2 3A68     		ldr	r2, [r7]
 1429 08c4 1344     		add	r3, r3, r2
 1430 08c6 BB62     		str	r3, [r7, #40]
 312:../../source/src/kernel/OS_CORE/module.c ****         strtab = (UINT8 *)module_ptr + shdr[shdr[index].sh_link].sh_offset;
 1431              		.loc 2 312 0
 1432 08c8 3B68     		ldr	r3, [r7]
 1433 08ca 196A     		ldr	r1, [r3, #32]
 1434 08cc 3B68     		ldr	r3, [r7]
 1435 08ce 186A     		ldr	r0, [r3, #32]
 1436 08d0 7A6D     		ldr	r2, [r7, #84]
ARM GAS  G:\Users\Jaxb\AppData\Local\Temp\ccf0KBoB.s 			page 34


 1437 08d2 1346     		mov	r3, r2
 1438 08d4 9B00     		lsls	r3, r3, #2
 1439 08d6 1344     		add	r3, r3, r2
 1440 08d8 DB00     		lsls	r3, r3, #3
 1441 08da 0344     		add	r3, r3, r0
 1442 08dc 3A68     		ldr	r2, [r7]
 1443 08de 1344     		add	r3, r3, r2
 1444 08e0 9A69     		ldr	r2, [r3, #24]
 1445 08e2 1346     		mov	r3, r2
 1446 08e4 9B00     		lsls	r3, r3, #2
 1447 08e6 1344     		add	r3, r3, r2
 1448 08e8 DB00     		lsls	r3, r3, #3
 1449 08ea 0B44     		add	r3, r3, r1
 1450 08ec 3A68     		ldr	r2, [r7]
 1451 08ee 1344     		add	r3, r3, r2
 1452 08f0 1B69     		ldr	r3, [r3, #16]
 1453 08f2 3A68     		ldr	r2, [r7]
 1454 08f4 1344     		add	r3, r3, r2
 1455 08f6 7B62     		str	r3, [r7, #36]
 313:../../source/src/kernel/OS_CORE/module.c **** 
 314:../../source/src/kernel/OS_CORE/module.c ****         for (i = 0; i < shdr[index].sh_size / sizeof(Elf32_Sym); i++)
 1456              		.loc 2 314 0
 1457 08f8 0023     		movs	r3, #0
 1458 08fa FB63     		str	r3, [r7, #60]
 1459 08fc 28E0     		b	.L57
 1460              	.L72:
 1461 08fe 00BF     		.align	2
 1462              	.L71:
 1463 0900 7C020000 		.word	.LC17
 1464 0904 80020000 		.word	.LC18
 1465 0908 9C020000 		.word	.LC19
 1466 090c B0020000 		.word	.LC20
 1467 0910 08000000 		.word	unsolved.4444
 1468 0914 E0020000 		.word	.LC21
 1469 0918 E4020000 		.word	.LC22
 1470 091c EC020000 		.word	.LC23
 1471              	.L59:
 315:../../source/src/kernel/OS_CORE/module.c ****         {
 316:../../source/src/kernel/OS_CORE/module.c ****             if ((ELF_ST_BIND(symtab[i].st_info) == STB_GLOBAL) &&
 1472              		.loc 2 316 0
 1473 0920 FB6B     		ldr	r3, [r7, #60]
 1474 0922 1B01     		lsls	r3, r3, #4
 1475 0924 BA6A     		ldr	r2, [r7, #40]
 1476 0926 1344     		add	r3, r3, r2
 1477 0928 1B7B     		ldrb	r3, [r3, #12]	@ zero_extendqisi2
 1478 092a 1B09     		lsrs	r3, r3, #4
 1479 092c DBB2     		uxtb	r3, r3
 1480 092e 012B     		cmp	r3, #1
 1481 0930 0BD1     		bne	.L58
 317:../../source/src/kernel/OS_CORE/module.c ****                 (ELF_ST_TYPE(symtab[i].st_info) == STT_FUNC))
 1482              		.loc 2 317 0 discriminator 1
 1483 0932 FB6B     		ldr	r3, [r7, #60]
 1484 0934 1B01     		lsls	r3, r3, #4
 1485 0936 BA6A     		ldr	r2, [r7, #40]
 1486 0938 1344     		add	r3, r3, r2
 1487 093a 1B7B     		ldrb	r3, [r3, #12]	@ zero_extendqisi2
 1488 093c 03F00F03 		and	r3, r3, #15
ARM GAS  G:\Users\Jaxb\AppData\Local\Temp\ccf0KBoB.s 			page 35


 316:../../source/src/kernel/OS_CORE/module.c ****                 (ELF_ST_TYPE(symtab[i].st_info) == STT_FUNC))
 1489              		.loc 2 316 0 discriminator 1
 1490 0940 022B     		cmp	r3, #2
 1491 0942 02D1     		bne	.L58
 318:../../source/src/kernel/OS_CORE/module.c ****                 count ++;
 1492              		.loc 2 318 0
 1493 0944 BB6B     		ldr	r3, [r7, #56]
 1494 0946 0133     		adds	r3, r3, #1
 1495 0948 BB63     		str	r3, [r7, #56]
 1496              	.L58:
 314:../../source/src/kernel/OS_CORE/module.c ****         {
 1497              		.loc 2 314 0 discriminator 2
 1498 094a FB6B     		ldr	r3, [r7, #60]
 1499 094c 0133     		adds	r3, r3, #1
 1500 094e FB63     		str	r3, [r7, #60]
 1501              	.L57:
 314:../../source/src/kernel/OS_CORE/module.c ****         {
 1502              		.loc 2 314 0 is_stmt 0 discriminator 1
 1503 0950 3B68     		ldr	r3, [r7]
 1504 0952 196A     		ldr	r1, [r3, #32]
 1505 0954 7A6D     		ldr	r2, [r7, #84]
 1506 0956 1346     		mov	r3, r2
 1507 0958 9B00     		lsls	r3, r3, #2
 1508 095a 1344     		add	r3, r3, r2
 1509 095c DB00     		lsls	r3, r3, #3
 1510 095e 0B44     		add	r3, r3, r1
 1511 0960 3A68     		ldr	r2, [r7]
 1512 0962 1344     		add	r3, r3, r2
 1513 0964 5B69     		ldr	r3, [r3, #20]
 1514 0966 1A09     		lsrs	r2, r3, #4
 1515 0968 FB6B     		ldr	r3, [r7, #60]
 1516 096a 9A42     		cmp	r2, r3
 1517 096c D8D8     		bhi	.L59
 319:../../source/src/kernel/OS_CORE/module.c ****         }
 320:../../source/src/kernel/OS_CORE/module.c **** 
 321:../../source/src/kernel/OS_CORE/module.c ****         module->symtab = (struct rt_module_symtab *)ka_malloc
 1518              		.loc 2 321 0 is_stmt 1
 1519 096e BB6B     		ldr	r3, [r7, #56]
 1520 0970 DB00     		lsls	r3, r3, #3
 1521 0972 1846     		mov	r0, r3
 1522 0974 FFF7FEFF 		bl	ka_malloc
 1523 0978 0246     		mov	r2, r0
 1524 097a 7B68     		ldr	r3, [r7, #4]
 1525 097c 9A64     		str	r2, [r3, #72]
 322:../../source/src/kernel/OS_CORE/module.c ****                          (count * sizeof(struct rt_module_symtab));
 323:../../source/src/kernel/OS_CORE/module.c ****         module->nsym = count;
 1526              		.loc 2 323 0
 1527 097e BB6B     		ldr	r3, [r7, #56]
 1528 0980 9AB2     		uxth	r2, r3
 1529 0982 7B68     		ldr	r3, [r7, #4]
 1530 0984 A3F84620 		strh	r2, [r3, #70]	@ movhi
 324:../../source/src/kernel/OS_CORE/module.c ****         for (i = 0, count = 0; i < shdr[index].sh_size / sizeof(Elf32_Sym); i++)
 1531              		.loc 2 324 0
 1532 0988 0023     		movs	r3, #0
 1533 098a FB63     		str	r3, [r7, #60]
 1534 098c 0023     		movs	r3, #0
 1535 098e BB63     		str	r3, [r7, #56]
ARM GAS  G:\Users\Jaxb\AppData\Local\Temp\ccf0KBoB.s 			page 36


 1536 0990 5DE0     		b	.L60
 1537              	.L64:
 1538              	.LBB9:
 325:../../source/src/kernel/OS_CORE/module.c ****         {
 326:../../source/src/kernel/OS_CORE/module.c ****             unsigned long length;
 327:../../source/src/kernel/OS_CORE/module.c **** 
 328:../../source/src/kernel/OS_CORE/module.c ****             if ((ELF_ST_BIND(symtab[i].st_info) != STB_GLOBAL) ||
 1539              		.loc 2 328 0
 1540 0992 FB6B     		ldr	r3, [r7, #60]
 1541 0994 1B01     		lsls	r3, r3, #4
 1542 0996 BA6A     		ldr	r2, [r7, #40]
 1543 0998 1344     		add	r3, r3, r2
 1544 099a 1B7B     		ldrb	r3, [r3, #12]	@ zero_extendqisi2
 1545 099c 1B09     		lsrs	r3, r3, #4
 1546 099e DBB2     		uxtb	r3, r3
 1547 09a0 012B     		cmp	r3, #1
 1548 09a2 50D1     		bne	.L68
 329:../../source/src/kernel/OS_CORE/module.c ****                 (ELF_ST_TYPE(symtab[i].st_info) != STT_FUNC))
 1549              		.loc 2 329 0 discriminator 1
 1550 09a4 FB6B     		ldr	r3, [r7, #60]
 1551 09a6 1B01     		lsls	r3, r3, #4
 1552 09a8 BA6A     		ldr	r2, [r7, #40]
 1553 09aa 1344     		add	r3, r3, r2
 1554 09ac 1B7B     		ldrb	r3, [r3, #12]	@ zero_extendqisi2
 1555 09ae 03F00F03 		and	r3, r3, #15
 328:../../source/src/kernel/OS_CORE/module.c ****                 (ELF_ST_TYPE(symtab[i].st_info) != STT_FUNC))
 1556              		.loc 2 328 0 discriminator 1
 1557 09b2 022B     		cmp	r3, #2
 1558 09b4 47D1     		bne	.L68
 330:../../source/src/kernel/OS_CORE/module.c ****                 continue;
 331:../../source/src/kernel/OS_CORE/module.c **** 
 332:../../source/src/kernel/OS_CORE/module.c ****             length = ka_strlen((const char *)(strtab + symtab[i].st_name)) + 1;
 1559              		.loc 2 332 0
 1560 09b6 FB6B     		ldr	r3, [r7, #60]
 1561 09b8 1B01     		lsls	r3, r3, #4
 1562 09ba BA6A     		ldr	r2, [r7, #40]
 1563 09bc 1344     		add	r3, r3, r2
 1564 09be 1B68     		ldr	r3, [r3]
 1565 09c0 7A6A     		ldr	r2, [r7, #36]
 1566 09c2 1344     		add	r3, r3, r2
 1567 09c4 1846     		mov	r0, r3
 1568 09c6 FFF7FEFF 		bl	ka_strlen
 1569 09ca 0346     		mov	r3, r0
 1570 09cc 0133     		adds	r3, r3, #1
 1571 09ce 3B62     		str	r3, [r7, #32]
 333:../../source/src/kernel/OS_CORE/module.c **** 
 334:../../source/src/kernel/OS_CORE/module.c ****             module->symtab[count].addr =
 335:../../source/src/kernel/OS_CORE/module.c ****                 (void *)(module->mem_space + symtab[i].st_value - module->vstart_addr);
 1572              		.loc 2 335 0
 1573 09d0 7B68     		ldr	r3, [r7, #4]
 1574 09d2 596B     		ldr	r1, [r3, #52]
 1575 09d4 FB6B     		ldr	r3, [r7, #60]
 1576 09d6 1B01     		lsls	r3, r3, #4
 1577 09d8 BA6A     		ldr	r2, [r7, #40]
 1578 09da 1344     		add	r3, r3, r2
 1579 09dc 5A68     		ldr	r2, [r3, #4]
 1580 09de 7B68     		ldr	r3, [r7, #4]
ARM GAS  G:\Users\Jaxb\AppData\Local\Temp\ccf0KBoB.s 			page 37


 1581 09e0 9B6A     		ldr	r3, [r3, #40]
 1582 09e2 D21A     		subs	r2, r2, r3
 334:../../source/src/kernel/OS_CORE/module.c ****                 (void *)(module->mem_space + symtab[i].st_value - module->vstart_addr);
 1583              		.loc 2 334 0
 1584 09e4 7B68     		ldr	r3, [r7, #4]
 1585 09e6 986C     		ldr	r0, [r3, #72]
 1586 09e8 BB6B     		ldr	r3, [r7, #56]
 1587 09ea DB00     		lsls	r3, r3, #3
 1588 09ec 0344     		add	r3, r3, r0
 1589              		.loc 2 335 0
 1590 09ee 0A44     		add	r2, r2, r1
 334:../../source/src/kernel/OS_CORE/module.c ****                 (void *)(module->mem_space + symtab[i].st_value - module->vstart_addr);
 1591              		.loc 2 334 0
 1592 09f0 1A60     		str	r2, [r3]
 336:../../source/src/kernel/OS_CORE/module.c ****             module->symtab[count].name = ka_malloc(length);
 1593              		.loc 2 336 0
 1594 09f2 7B68     		ldr	r3, [r7, #4]
 1595 09f4 9A6C     		ldr	r2, [r3, #72]
 1596 09f6 BB6B     		ldr	r3, [r7, #56]
 1597 09f8 DB00     		lsls	r3, r3, #3
 1598 09fa D418     		adds	r4, r2, r3
 1599 09fc 386A     		ldr	r0, [r7, #32]
 1600 09fe FFF7FEFF 		bl	ka_malloc
 1601 0a02 0346     		mov	r3, r0
 1602 0a04 6360     		str	r3, [r4, #4]
 337:../../source/src/kernel/OS_CORE/module.c ****             ka_memset((void *)module->symtab[count].name, 0, length);
 1603              		.loc 2 337 0
 1604 0a06 7B68     		ldr	r3, [r7, #4]
 1605 0a08 9A6C     		ldr	r2, [r3, #72]
 1606 0a0a BB6B     		ldr	r3, [r7, #56]
 1607 0a0c DB00     		lsls	r3, r3, #3
 1608 0a0e 1344     		add	r3, r3, r2
 1609 0a10 5B68     		ldr	r3, [r3, #4]
 1610 0a12 3A6A     		ldr	r2, [r7, #32]
 1611 0a14 0021     		movs	r1, #0
 1612 0a16 1846     		mov	r0, r3
 1613 0a18 FFF7FEFF 		bl	ka_memset
 338:../../source/src/kernel/OS_CORE/module.c ****             ka_memcpy((void *)module->symtab[count].name,
 1614              		.loc 2 338 0
 1615 0a1c 7B68     		ldr	r3, [r7, #4]
 1616 0a1e 9A6C     		ldr	r2, [r3, #72]
 1617 0a20 BB6B     		ldr	r3, [r7, #56]
 1618 0a22 DB00     		lsls	r3, r3, #3
 1619 0a24 1344     		add	r3, r3, r2
 1620 0a26 5868     		ldr	r0, [r3, #4]
 339:../../source/src/kernel/OS_CORE/module.c ****                       strtab + symtab[i].st_name,
 1621              		.loc 2 339 0
 1622 0a28 FB6B     		ldr	r3, [r7, #60]
 1623 0a2a 1B01     		lsls	r3, r3, #4
 1624 0a2c BA6A     		ldr	r2, [r7, #40]
 1625 0a2e 1344     		add	r3, r3, r2
 1626 0a30 1B68     		ldr	r3, [r3]
 1627 0a32 7A6A     		ldr	r2, [r7, #36]
 1628 0a34 1344     		add	r3, r3, r2
 338:../../source/src/kernel/OS_CORE/module.c ****             ka_memcpy((void *)module->symtab[count].name,
 1629              		.loc 2 338 0
 1630 0a36 3A6A     		ldr	r2, [r7, #32]
ARM GAS  G:\Users\Jaxb\AppData\Local\Temp\ccf0KBoB.s 			page 38


 1631 0a38 1946     		mov	r1, r3
 1632 0a3a FFF7FEFF 		bl	ka_memcpy
 340:../../source/src/kernel/OS_CORE/module.c ****                       length);
 341:../../source/src/kernel/OS_CORE/module.c ****             count ++;
 1633              		.loc 2 341 0
 1634 0a3e BB6B     		ldr	r3, [r7, #56]
 1635 0a40 0133     		adds	r3, r3, #1
 1636 0a42 BB63     		str	r3, [r7, #56]
 1637 0a44 00E0     		b	.L63
 1638              	.L68:
 330:../../source/src/kernel/OS_CORE/module.c **** 
 1639              		.loc 2 330 0
 1640 0a46 00BF     		nop
 1641              	.L63:
 1642              	.LBE9:
 324:../../source/src/kernel/OS_CORE/module.c ****         {
 1643              		.loc 2 324 0 discriminator 2
 1644 0a48 FB6B     		ldr	r3, [r7, #60]
 1645 0a4a 0133     		adds	r3, r3, #1
 1646 0a4c FB63     		str	r3, [r7, #60]
 1647              	.L60:
 324:../../source/src/kernel/OS_CORE/module.c ****         {
 1648              		.loc 2 324 0 is_stmt 0 discriminator 1
 1649 0a4e 3B68     		ldr	r3, [r7]
 1650 0a50 196A     		ldr	r1, [r3, #32]
 1651 0a52 7A6D     		ldr	r2, [r7, #84]
 1652 0a54 1346     		mov	r3, r2
 1653 0a56 9B00     		lsls	r3, r3, #2
 1654 0a58 1344     		add	r3, r3, r2
 1655 0a5a DB00     		lsls	r3, r3, #3
 1656 0a5c 0B44     		add	r3, r3, r1
 1657 0a5e 3A68     		ldr	r2, [r7]
 1658 0a60 1344     		add	r3, r3, r2
 1659 0a62 5B69     		ldr	r3, [r3, #20]
 1660 0a64 1A09     		lsrs	r2, r3, #4
 1661 0a66 FB6B     		ldr	r3, [r7, #60]
 1662 0a68 9A42     		cmp	r2, r3
 1663 0a6a 92D8     		bhi	.L64
 1664              	.L56:
 1665              	.LBE8:
 342:../../source/src/kernel/OS_CORE/module.c ****         }
 343:../../source/src/kernel/OS_CORE/module.c ****     }
 344:../../source/src/kernel/OS_CORE/module.c **** 
 345:../../source/src/kernel/OS_CORE/module.c ****     return RT_EOK;
 1666              		.loc 2 345 0 is_stmt 1
 1667 0a6c 0023     		movs	r3, #0
 1668              	.L32:
 346:../../source/src/kernel/OS_CORE/module.c **** }
 1669              		.loc 2 346 0
 1670 0a6e 1846     		mov	r0, r3
 1671 0a70 5C37     		adds	r7, r7, #92
 1672              	.LCFI14:
 1673              		.cfi_def_cfa_offset 12
 1674 0a72 BD46     		mov	sp, r7
 1675              	.LCFI15:
 1676              		.cfi_def_cfa_register 13
 1677              		@ sp needed
ARM GAS  G:\Users\Jaxb\AppData\Local\Temp\ccf0KBoB.s 			page 39


 1678 0a74 90BD     		pop	{r4, r7, pc}
 1679              		.cfi_endproc
 1680              	.LFE11:
 1681              		.size	dlmodule_load_shared_object, .-dlmodule_load_shared_object
 1682              		.section	.rodata
 1683 02ef 00       		.align	2
 1684              	.LC24:
 1685 02f0 7F52544D 		.ascii	"\177RTM\000"
 1685      00
 1686 02f5 000000   		.align	2
 1687              	.LC25:
 1688 02f8 7F454C46 		.ascii	"\177ELF\000"
 1688      00
 1689 02fd 000000   		.align	2
 1690              	.LC26:
 1691 0300 4D6F6475 		.ascii	"Module: magic error\012\000"
 1691      6C653A20 
 1691      6D616769 
 1691      63206572 
 1691      726F720A 
 1692 0315 000000   		.align	2
 1693              	.LC27:
 1694 0318 4D6F6475 		.ascii	"Module: ELF class error\012\000"
 1694      6C653A20 
 1694      454C4620 
 1694      636C6173 
 1694      73206572 
 1695 0331 000000   		.align	2
 1696              	.LC28:
 1697 0334 6C6F6164 		.ascii	"load shared file\012\000"
 1697      20736861 
 1697      72656420 
 1697      66696C65 
 1697      0A00
 1698 0346 0000     		.align	2
 1699              	.LC29:
 1700 0348 4D6F6475 		.ascii	"Module: unsupported elf type\012\000"
 1700      6C653A20 
 1700      756E7375 
 1700      70706F72 
 1700      74656420 
 1701              		.text
 1702              		.align	1
 1703              		.global	dlmodule_load
 1704              		.syntax unified
 1705              		.thumb
 1706              		.thumb_func
 1707              		.fpu softvfp
 1708              		.type	dlmodule_load, %function
 1709              	dlmodule_load:
 1710              	.LFB12:
 347:../../source/src/kernel/OS_CORE/module.c **** 
 348:../../source/src/kernel/OS_CORE/module.c **** struct rt_dlmodule* dlmodule_load(void)
 349:../../source/src/kernel/OS_CORE/module.c **** {
 1711              		.loc 2 349 0
 1712              		.cfi_startproc
 1713              		@ args = 0, pretend = 0, frame = 16
ARM GAS  G:\Users\Jaxb\AppData\Local\Temp\ccf0KBoB.s 			page 40


 1714              		@ frame_needed = 1, uses_anonymous_args = 0
 1715 0a76 80B5     		push	{r7, lr}
 1716              	.LCFI16:
 1717              		.cfi_def_cfa_offset 8
 1718              		.cfi_offset 7, -8
 1719              		.cfi_offset 14, -4
 1720 0a78 84B0     		sub	sp, sp, #16
 1721              	.LCFI17:
 1722              		.cfi_def_cfa_offset 24
 1723 0a7a 00AF     		add	r7, sp, #0
 1724              	.LCFI18:
 1725              		.cfi_def_cfa_register 7
 350:../../source/src/kernel/OS_CORE/module.c ****     rt_err_t ret = RT_EOK;
 1726              		.loc 2 350 0
 1727 0a7c 0023     		movs	r3, #0
 1728 0a7e BB60     		str	r3, [r7, #8]
 351:../../source/src/kernel/OS_CORE/module.c ****     UINT8 *module_ptr = (UINT8 *)module_buffer;
 1729              		.loc 2 351 0
 1730 0a80 3D4B     		ldr	r3, .L86
 1731 0a82 1B68     		ldr	r3, [r3]
 1732 0a84 7B60     		str	r3, [r7, #4]
 352:../../source/src/kernel/OS_CORE/module.c ****     struct rt_dlmodule *module = NULL;
 1733              		.loc 2 352 0
 1734 0a86 0023     		movs	r3, #0
 1735 0a88 FB60     		str	r3, [r7, #12]
 353:../../source/src/kernel/OS_CORE/module.c **** 
 354:../../source/src/kernel/OS_CORE/module.c ****     /* check ELF header */
 355:../../source/src/kernel/OS_CORE/module.c ****     if (ka_strncmp((const char *)elf_module->e_ident, (const char *)RTMMAG, SELFMAG) != 0 &&
 1736              		.loc 2 355 0
 1737 0a8a 7B68     		ldr	r3, [r7, #4]
 1738 0a8c 0422     		movs	r2, #4
 1739 0a8e 3B49     		ldr	r1, .L86+4
 1740 0a90 1846     		mov	r0, r3
 1741 0a92 FFF7FEFF 		bl	ka_strncmp
 1742 0a96 0346     		mov	r3, r0
 1743 0a98 002B     		cmp	r3, #0
 1744 0a9a 0CD0     		beq	.L74
 356:../../source/src/kernel/OS_CORE/module.c ****             ka_strncmp((const char *)elf_module->e_ident, (const char *)ELFMAG, SELFMAG) != 0)
 1745              		.loc 2 356 0 discriminator 1
 1746 0a9c 7B68     		ldr	r3, [r7, #4]
 1747 0a9e 0422     		movs	r2, #4
 1748 0aa0 3749     		ldr	r1, .L86+8
 1749 0aa2 1846     		mov	r0, r3
 1750 0aa4 FFF7FEFF 		bl	ka_strncmp
 1751 0aa8 0346     		mov	r3, r0
 355:../../source/src/kernel/OS_CORE/module.c ****             ka_strncmp((const char *)elf_module->e_ident, (const char *)ELFMAG, SELFMAG) != 0)
 1752              		.loc 2 355 0 discriminator 1
 1753 0aaa 002B     		cmp	r3, #0
 1754 0aac 03D0     		beq	.L74
 357:../../source/src/kernel/OS_CORE/module.c ****     {
 358:../../source/src/kernel/OS_CORE/module.c ****         ka_printf("Module: magic error\n");
 1755              		.loc 2 358 0
 1756 0aae 3548     		ldr	r0, .L86+12
 1757 0ab0 FFF7FEFF 		bl	ka_printf
 359:../../source/src/kernel/OS_CORE/module.c ****         goto __exit;
 1758              		.loc 2 359 0
 1759 0ab4 4DE0     		b	.L75
ARM GAS  G:\Users\Jaxb\AppData\Local\Temp\ccf0KBoB.s 			page 41


 1760              	.L74:
 360:../../source/src/kernel/OS_CORE/module.c ****     }
 361:../../source/src/kernel/OS_CORE/module.c **** 
 362:../../source/src/kernel/OS_CORE/module.c ****     /* check ELF class */
 363:../../source/src/kernel/OS_CORE/module.c ****     if (elf_module->e_ident[EI_CLASS] != ELFCLASS32)
 1761              		.loc 2 363 0
 1762 0ab6 7B68     		ldr	r3, [r7, #4]
 1763 0ab8 1B79     		ldrb	r3, [r3, #4]	@ zero_extendqisi2
 1764 0aba 012B     		cmp	r3, #1
 1765 0abc 03D0     		beq	.L76
 364:../../source/src/kernel/OS_CORE/module.c ****     {
 365:../../source/src/kernel/OS_CORE/module.c ****         ka_printf("Module: ELF class error\n");
 1766              		.loc 2 365 0
 1767 0abe 3248     		ldr	r0, .L86+16
 1768 0ac0 FFF7FEFF 		bl	ka_printf
 366:../../source/src/kernel/OS_CORE/module.c ****         goto __exit;
 1769              		.loc 2 366 0
 1770 0ac4 45E0     		b	.L75
 1771              	.L76:
 367:../../source/src/kernel/OS_CORE/module.c ****     }
 368:../../source/src/kernel/OS_CORE/module.c **** 
 369:../../source/src/kernel/OS_CORE/module.c ****     module = ka_malloc(sizeof(struct rt_dlmodule));
 1772              		.loc 2 369 0
 1773 0ac6 4C20     		movs	r0, #76
 1774 0ac8 FFF7FEFF 		bl	ka_malloc
 1775 0acc F860     		str	r0, [r7, #12]
 370:../../source/src/kernel/OS_CORE/module.c ****     if (!module) goto __exit;
 1776              		.loc 2 370 0
 1777 0ace FB68     		ldr	r3, [r7, #12]
 1778 0ad0 002B     		cmp	r3, #0
 1779 0ad2 3DD0     		beq	.L85
 371:../../source/src/kernel/OS_CORE/module.c ****     module->stat = RT_DLMODULE_STAT_INIT;
 1780              		.loc 2 371 0
 1781 0ad4 FB68     		ldr	r3, [r7, #12]
 1782 0ad6 0022     		movs	r2, #0
 1783 0ad8 1A76     		strb	r2, [r3, #24]
 372:../../source/src/kernel/OS_CORE/module.c **** 
 373:../../source/src/kernel/OS_CORE/module.c ****     /* set initial priority and stack size */
 374:../../source/src/kernel/OS_CORE/module.c ****     module->priority = PRIO_MAX - 10;
 1784              		.loc 2 374 0
 1785 0ada FB68     		ldr	r3, [r7, #12]
 1786 0adc 3622     		movs	r2, #54
 1787 0ade 5A83     		strh	r2, [r3, #26]	@ movhi
 375:../../source/src/kernel/OS_CORE/module.c ****     module->stack_size = 2048;
 1788              		.loc 2 375 0
 1789 0ae0 FB68     		ldr	r3, [r7, #12]
 1790 0ae2 4FF40062 		mov	r2, #2048
 1791 0ae6 DA61     		str	r2, [r3, #28]
 376:../../source/src/kernel/OS_CORE/module.c **** 
 377:../../source/src/kernel/OS_CORE/module.c ****     INIT_LIST_HEAD(&(module->object_list));
 1792              		.loc 2 377 0
 1793 0ae8 FB68     		ldr	r3, [r7, #12]
 1794 0aea 1033     		adds	r3, r3, #16
 1795 0aec 1846     		mov	r0, r3
 1796 0aee FFF787FA 		bl	INIT_LIST_HEAD
 378:../../source/src/kernel/OS_CORE/module.c **** 
 379:../../source/src/kernel/OS_CORE/module.c ****     if (elf_module->e_type == ET_DYN)
ARM GAS  G:\Users\Jaxb\AppData\Local\Temp\ccf0KBoB.s 			page 42


 1797              		.loc 2 379 0
 1798 0af2 7B68     		ldr	r3, [r7, #4]
 1799 0af4 1B8A     		ldrh	r3, [r3, #16]
 1800 0af6 032B     		cmp	r3, #3
 1801 0af8 0BD1     		bne	.L78
 380:../../source/src/kernel/OS_CORE/module.c ****     {
 381:../../source/src/kernel/OS_CORE/module.c ****         ka_printf("load shared file\n");
 1802              		.loc 2 381 0
 1803 0afa 2448     		ldr	r0, .L86+20
 1804 0afc FFF7FEFF 		bl	ka_printf
 382:../../source/src/kernel/OS_CORE/module.c ****         ret = dlmodule_load_shared_object(module, module_ptr);
 1805              		.loc 2 382 0
 1806 0b00 7968     		ldr	r1, [r7, #4]
 1807 0b02 F868     		ldr	r0, [r7, #12]
 1808 0b04 FFF7FEFF 		bl	dlmodule_load_shared_object
 1809 0b08 B860     		str	r0, [r7, #8]
 383:../../source/src/kernel/OS_CORE/module.c ****     }
 384:../../source/src/kernel/OS_CORE/module.c ****     else
 385:../../source/src/kernel/OS_CORE/module.c ****     {
 386:../../source/src/kernel/OS_CORE/module.c ****         ka_printf("Module: unsupported elf type\n");
 387:../../source/src/kernel/OS_CORE/module.c ****         goto __exit;
 388:../../source/src/kernel/OS_CORE/module.c ****     }
 389:../../source/src/kernel/OS_CORE/module.c **** 
 390:../../source/src/kernel/OS_CORE/module.c ****     /* check return value */
 391:../../source/src/kernel/OS_CORE/module.c ****     if (ret != RT_EOK) goto __exit;
 1810              		.loc 2 391 0
 1811 0b0a BB68     		ldr	r3, [r7, #8]
 1812 0b0c 002B     		cmp	r3, #0
 1813 0b0e 04D0     		beq	.L80
 1814 0b10 1FE0     		b	.L75
 1815              	.L78:
 386:../../source/src/kernel/OS_CORE/module.c ****         goto __exit;
 1816              		.loc 2 386 0
 1817 0b12 1F48     		ldr	r0, .L86+24
 1818 0b14 FFF7FEFF 		bl	ka_printf
 387:../../source/src/kernel/OS_CORE/module.c ****     }
 1819              		.loc 2 387 0
 1820 0b18 1BE0     		b	.L75
 1821              	.L80:
 392:../../source/src/kernel/OS_CORE/module.c **** 
 393:../../source/src/kernel/OS_CORE/module.c ****     /* increase module reference count */
 394:../../source/src/kernel/OS_CORE/module.c ****     module->nref ++;
 1822              		.loc 2 394 0
 1823 0b1a FB68     		ldr	r3, [r7, #12]
 1824 0b1c B3F84430 		ldrh	r3, [r3, #68]
 1825 0b20 0133     		adds	r3, r3, #1
 1826 0b22 9AB2     		uxth	r2, r3
 1827 0b24 FB68     		ldr	r3, [r7, #12]
 1828 0b26 A3F84420 		strh	r2, [r3, #68]	@ movhi
 395:../../source/src/kernel/OS_CORE/module.c **** 
 396:../../source/src/kernel/OS_CORE/module.c ****     /* deal with cache */
 397:../../source/src/kernel/OS_CORE/module.c **** //#ifdef RT_USING_CACHE
 398:../../source/src/kernel/OS_CORE/module.c **** //    rt_hw_cpu_dcache_ops(RT_HW_CACHE_FLUSH, module->mem_space, module->mem_size);
 399:../../source/src/kernel/OS_CORE/module.c **** //    rt_hw_cpu_icache_ops(RT_HW_CACHE_INVALIDATE, module->mem_space, module->mem_size);
 400:../../source/src/kernel/OS_CORE/module.c **** //#endif
 401:../../source/src/kernel/OS_CORE/module.c **** 
 402:../../source/src/kernel/OS_CORE/module.c ****     /* set module initialization and cleanup function */
ARM GAS  G:\Users\Jaxb\AppData\Local\Temp\ccf0KBoB.s 			page 43


 403:../../source/src/kernel/OS_CORE/module.c ****     //module->init_func = dlsym(module, "module_init");
 404:../../source/src/kernel/OS_CORE/module.c ****     //module->cleanup_func = dlsym(module, "module_cleanup");
 405:../../source/src/kernel/OS_CORE/module.c ****     module->init_func = NULL;
 1829              		.loc 2 405 0
 1830 0b2a FB68     		ldr	r3, [r7, #12]
 1831 0b2c 0022     		movs	r2, #0
 1832 0b2e DA63     		str	r2, [r3, #60]
 406:../../source/src/kernel/OS_CORE/module.c ****     module->cleanup_func = NULL;
 1833              		.loc 2 406 0
 1834 0b30 FB68     		ldr	r3, [r7, #12]
 1835 0b32 0022     		movs	r2, #0
 1836 0b34 1A64     		str	r2, [r3, #64]
 407:../../source/src/kernel/OS_CORE/module.c ****     module->stat = RT_DLMODULE_STAT_INIT;
 1837              		.loc 2 407 0
 1838 0b36 FB68     		ldr	r3, [r7, #12]
 1839 0b38 0022     		movs	r2, #0
 1840 0b3a 1A76     		strb	r2, [r3, #24]
 408:../../source/src/kernel/OS_CORE/module.c ****     /* do module initialization */
 409:../../source/src/kernel/OS_CORE/module.c ****     if (module->init_func)
 1841              		.loc 2 409 0
 1842 0b3c FB68     		ldr	r3, [r7, #12]
 1843 0b3e DB6B     		ldr	r3, [r3, #60]
 1844 0b40 002B     		cmp	r3, #0
 1845 0b42 03D0     		beq	.L81
 410:../../source/src/kernel/OS_CORE/module.c ****     {
 411:../../source/src/kernel/OS_CORE/module.c ****         module->init_func(module);
 1846              		.loc 2 411 0
 1847 0b44 FB68     		ldr	r3, [r7, #12]
 1848 0b46 DB6B     		ldr	r3, [r3, #60]
 1849 0b48 F868     		ldr	r0, [r7, #12]
 1850 0b4a 9847     		blx	r3
 1851              	.LVL0:
 1852              	.L81:
 412:../../source/src/kernel/OS_CORE/module.c ****     }
 413:../../source/src/kernel/OS_CORE/module.c **** 
 414:../../source/src/kernel/OS_CORE/module.c ****     return module;
 1853              		.loc 2 414 0
 1854 0b4c FB68     		ldr	r3, [r7, #12]
 1855 0b4e 0FE0     		b	.L82
 1856              	.L85:
 370:../../source/src/kernel/OS_CORE/module.c ****     module->stat = RT_DLMODULE_STAT_INIT;
 1857              		.loc 2 370 0
 1858 0b50 00BF     		nop
 1859              	.L75:
 415:../../source/src/kernel/OS_CORE/module.c **** 
 416:../../source/src/kernel/OS_CORE/module.c **** __exit:
 417:../../source/src/kernel/OS_CORE/module.c ****     if (module_ptr) ka_free(module_ptr);
 1860              		.loc 2 417 0
 1861 0b52 7B68     		ldr	r3, [r7, #4]
 1862 0b54 002B     		cmp	r3, #0
 1863 0b56 02D0     		beq	.L83
 1864              		.loc 2 417 0 is_stmt 0 discriminator 1
 1865 0b58 7868     		ldr	r0, [r7, #4]
 1866 0b5a FFF7FEFF 		bl	ka_free
 1867              	.L83:
 418:../../source/src/kernel/OS_CORE/module.c **** 		
 419:../../source/src/kernel/OS_CORE/module.c ****     //if (module) dlmodule_destroy(module);
ARM GAS  G:\Users\Jaxb\AppData\Local\Temp\ccf0KBoB.s 			page 44


 420:../../source/src/kernel/OS_CORE/module.c **** 		if(module) {ASSERT(0);}
 1868              		.loc 2 420 0 is_stmt 1
 1869 0b5e FB68     		ldr	r3, [r7, #12]
 1870 0b60 002B     		cmp	r3, #0
 1871 0b62 04D0     		beq	.L84
 1872              		.loc 2 420 0 is_stmt 0 discriminator 2
 1873 0b64 4FF4D271 		mov	r1, #420
 1874 0b68 0A48     		ldr	r0, .L86+28
 1875 0b6a FFF7FEFF 		bl	_ASSERT
 1876              	.L84:
 421:../../source/src/kernel/OS_CORE/module.c **** 		
 422:../../source/src/kernel/OS_CORE/module.c ****     return NULL;
 1877              		.loc 2 422 0 is_stmt 1
 1878 0b6e 0023     		movs	r3, #0
 1879              	.L82:
 423:../../source/src/kernel/OS_CORE/module.c **** }
 1880              		.loc 2 423 0
 1881 0b70 1846     		mov	r0, r3
 1882 0b72 1037     		adds	r7, r7, #16
 1883              	.LCFI19:
 1884              		.cfi_def_cfa_offset 8
 1885 0b74 BD46     		mov	sp, r7
 1886              	.LCFI20:
 1887              		.cfi_def_cfa_register 13
 1888              		@ sp needed
 1889 0b76 80BD     		pop	{r7, pc}
 1890              	.L87:
 1891              		.align	2
 1892              	.L86:
 1893 0b78 00000000 		.word	module_buffer
 1894 0b7c F0020000 		.word	.LC24
 1895 0b80 F8020000 		.word	.LC25
 1896 0b84 00030000 		.word	.LC26
 1897 0b88 18030000 		.word	.LC27
 1898 0b8c 34030000 		.word	.LC28
 1899 0b90 48030000 		.word	.LC29
 1900 0b94 D8000000 		.word	.LC7
 1901              		.cfi_endproc
 1902              	.LFE12:
 1903              		.size	dlmodule_load, .-dlmodule_load
 1904              		.section	.rodata
 1905 0366 0000     		.align	2
 1906              	.LC30:
 1907 0368 6D6F6475 		.ascii	"module_thread\000"
 1907      6C655F74 
 1907      68726561 
 1907      6400
 1908 0376 0000     		.align	2
 1909              	.LC31:
 1910 0378 6D6F6475 		.ascii	"module_thread run\012\000"
 1910      6C655F74 
 1910      68726561 
 1910      64207275 
 1910      6E0A00
 1911 038b 00       		.align	2
 1912              	.LC32:
 1913 038c 6D6F6475 		.ascii	"module_thread fail,error code is %d\012\000"
ARM GAS  G:\Users\Jaxb\AppData\Local\Temp\ccf0KBoB.s 			page 45


 1913      6C655F74 
 1913      68726561 
 1913      64206661 
 1913      696C2C65 
 1914              		.text
 1915              		.align	1
 1916              		.global	dlmodule_exec
 1917              		.syntax unified
 1918              		.thumb
 1919              		.thumb_func
 1920              		.fpu softvfp
 1921              		.type	dlmodule_exec, %function
 1922              	dlmodule_exec:
 1923              	.LFB13:
 424:../../source/src/kernel/OS_CORE/module.c **** 
 425:../../source/src/kernel/OS_CORE/module.c **** 
 426:../../source/src/kernel/OS_CORE/module.c **** struct rt_dlmodule* dlmodule_exec(void)
 427:../../source/src/kernel/OS_CORE/module.c **** {
 1924              		.loc 2 427 0
 1925              		.cfi_startproc
 1926              		@ args = 0, pretend = 0, frame = 8
 1927              		@ frame_needed = 1, uses_anonymous_args = 0
 1928 0b98 80B5     		push	{r7, lr}
 1929              	.LCFI21:
 1930              		.cfi_def_cfa_offset 8
 1931              		.cfi_offset 7, -8
 1932              		.cfi_offset 14, -4
 1933 0b9a 86B0     		sub	sp, sp, #24
 1934              	.LCFI22:
 1935              		.cfi_def_cfa_offset 32
 1936 0b9c 04AF     		add	r7, sp, #16
 1937              	.LCFI23:
 1938              		.cfi_def_cfa 7, 16
 428:../../source/src/kernel/OS_CORE/module.c ****     struct rt_dlmodule *module = NULL;
 1939              		.loc 2 428 0
 1940 0b9e 0023     		movs	r3, #0
 1941 0ba0 7B60     		str	r3, [r7, #4]
 429:../../source/src/kernel/OS_CORE/module.c ****     int error;
 430:../../source/src/kernel/OS_CORE/module.c **** 
 431:../../source/src/kernel/OS_CORE/module.c ****     module = dlmodule_load();
 1942              		.loc 2 431 0
 1943 0ba2 FFF7FEFF 		bl	dlmodule_load
 1944 0ba6 7860     		str	r0, [r7, #4]
 432:../../source/src/kernel/OS_CORE/module.c ****     if (module)
 1945              		.loc 2 432 0
 1946 0ba8 7B68     		ldr	r3, [r7, #4]
 1947 0baa 002B     		cmp	r3, #0
 1948 0bac 36D0     		beq	.L89
 433:../../source/src/kernel/OS_CORE/module.c ****     {
 434:../../source/src/kernel/OS_CORE/module.c ****         if (module->entry_addr)
 1949              		.loc 2 434 0
 1950 0bae 7B68     		ldr	r3, [r7, #4]
 1951 0bb0 DB6A     		ldr	r3, [r3, #44]
 1952 0bb2 002B     		cmp	r3, #0
 1953 0bb4 32D0     		beq	.L89
 435:../../source/src/kernel/OS_CORE/module.c ****         {
 436:../../source/src/kernel/OS_CORE/module.c **** 
ARM GAS  G:\Users\Jaxb\AppData\Local\Temp\ccf0KBoB.s 			page 46


 437:../../source/src/kernel/OS_CORE/module.c ****             /* check stack size and priority */
 438:../../source/src/kernel/OS_CORE/module.c ****             if (module->priority > PRIO_MAX) module->priority = PRIO_MAX - 1;
 1954              		.loc 2 438 0
 1955 0bb6 7B68     		ldr	r3, [r7, #4]
 1956 0bb8 5B8B     		ldrh	r3, [r3, #26]
 1957 0bba 402B     		cmp	r3, #64
 1958 0bbc 02D9     		bls	.L90
 1959              		.loc 2 438 0 is_stmt 0 discriminator 1
 1960 0bbe 7B68     		ldr	r3, [r7, #4]
 1961 0bc0 3F22     		movs	r2, #63
 1962 0bc2 5A83     		strh	r2, [r3, #26]	@ movhi
 1963              	.L90:
 439:../../source/src/kernel/OS_CORE/module.c ****             if (module->stack_size < 2048 || module->stack_size > (1024 * 32)) module->stack_size =
 1964              		.loc 2 439 0 is_stmt 1
 1965 0bc4 7B68     		ldr	r3, [r7, #4]
 1966 0bc6 DB69     		ldr	r3, [r3, #28]
 1967 0bc8 B3F5006F 		cmp	r3, #2048
 1968 0bcc 04D3     		bcc	.L91
 1969              		.loc 2 439 0 is_stmt 0 discriminator 2
 1970 0bce 7B68     		ldr	r3, [r7, #4]
 1971 0bd0 DB69     		ldr	r3, [r3, #28]
 1972 0bd2 B3F5004F 		cmp	r3, #32768
 1973 0bd6 03D9     		bls	.L92
 1974              	.L91:
 1975              		.loc 2 439 0 discriminator 3
 1976 0bd8 7B68     		ldr	r3, [r7, #4]
 1977 0bda 4FF40062 		mov	r2, #2048
 1978 0bde DA61     		str	r2, [r3, #28]
 1979              	.L92:
 440:../../source/src/kernel/OS_CORE/module.c **** 
 441:../../source/src/kernel/OS_CORE/module.c ****             error = task_creat_ready(module->stack_size, module->priority, HZ / 10, "module_thread"
 1980              		.loc 2 441 0 is_stmt 1
 1981 0be0 7B68     		ldr	r3, [r7, #4]
 1982 0be2 D869     		ldr	r0, [r3, #28]
 1983 0be4 7B68     		ldr	r3, [r7, #4]
 1984 0be6 5B8B     		ldrh	r3, [r3, #26]
 1985 0be8 1946     		mov	r1, r3
 442:../../source/src/kernel/OS_CORE/module.c ****                                      (functionptr)(module->entry_addr), NULL, NULL);
 1986              		.loc 2 442 0
 1987 0bea 7B68     		ldr	r3, [r7, #4]
 1988 0bec DB6A     		ldr	r3, [r3, #44]
 441:../../source/src/kernel/OS_CORE/module.c ****                                      (functionptr)(module->entry_addr), NULL, NULL);
 1989              		.loc 2 441 0
 1990 0bee 0022     		movs	r2, #0
 1991 0bf0 0292     		str	r2, [sp, #8]
 1992 0bf2 0022     		movs	r2, #0
 1993 0bf4 0192     		str	r2, [sp, #4]
 1994 0bf6 0093     		str	r3, [sp]
 1995 0bf8 0B4B     		ldr	r3, .L95
 1996 0bfa 0A22     		movs	r2, #10
 1997 0bfc FFF7FEFF 		bl	task_creat_ready
 1998 0c00 3860     		str	r0, [r7]
 443:../../source/src/kernel/OS_CORE/module.c ****             if (!error)
 1999              		.loc 2 443 0
 2000 0c02 3B68     		ldr	r3, [r7]
 2001 0c04 002B     		cmp	r3, #0
 2002 0c06 03D1     		bne	.L93
ARM GAS  G:\Users\Jaxb\AppData\Local\Temp\ccf0KBoB.s 			page 47


 444:../../source/src/kernel/OS_CORE/module.c ****             {
 445:../../source/src/kernel/OS_CORE/module.c ****                 ka_printf("module_thread run\n");
 2003              		.loc 2 445 0
 2004 0c08 0848     		ldr	r0, .L95+4
 2005 0c0a FFF7FEFF 		bl	ka_printf
 2006 0c0e 05E0     		b	.L89
 2007              	.L93:
 446:../../source/src/kernel/OS_CORE/module.c ****             }
 447:../../source/src/kernel/OS_CORE/module.c ****             else
 448:../../source/src/kernel/OS_CORE/module.c ****             {
 449:../../source/src/kernel/OS_CORE/module.c ****                 ka_printf("module_thread fail,error code is %d\n",error);
 2008              		.loc 2 449 0
 2009 0c10 3968     		ldr	r1, [r7]
 2010 0c12 0748     		ldr	r0, .L95+8
 2011 0c14 FFF7FEFF 		bl	ka_printf
 450:../../source/src/kernel/OS_CORE/module.c ****                 module = NULL;
 2012              		.loc 2 450 0
 2013 0c18 0023     		movs	r3, #0
 2014 0c1a 7B60     		str	r3, [r7, #4]
 2015              	.L89:
 451:../../source/src/kernel/OS_CORE/module.c ****             }
 452:../../source/src/kernel/OS_CORE/module.c ****         }
 453:../../source/src/kernel/OS_CORE/module.c ****     }
 454:../../source/src/kernel/OS_CORE/module.c **** 
 455:../../source/src/kernel/OS_CORE/module.c ****     return module;
 2016              		.loc 2 455 0
 2017 0c1c 7B68     		ldr	r3, [r7, #4]
 456:../../source/src/kernel/OS_CORE/module.c **** }
 2018              		.loc 2 456 0
 2019 0c1e 1846     		mov	r0, r3
 2020 0c20 0837     		adds	r7, r7, #8
 2021              	.LCFI24:
 2022              		.cfi_def_cfa_offset 8
 2023 0c22 BD46     		mov	sp, r7
 2024              	.LCFI25:
 2025              		.cfi_def_cfa_register 13
 2026              		@ sp needed
 2027 0c24 80BD     		pop	{r7, pc}
 2028              	.L96:
 2029 0c26 00BF     		.align	2
 2030              	.L95:
 2031 0c28 68030000 		.word	.LC30
 2032 0c2c 78030000 		.word	.LC31
 2033 0c30 8C030000 		.word	.LC32
 2034              		.cfi_endproc
 2035              	.LFE13:
 2036              		.size	dlmodule_exec, .-dlmodule_exec
 2037              		.section	.rodata
 2038 03b1 000000   		.align	2
 2039              	.LC33:
 2040 03b4 6E6F2072 		.ascii	"no room for module\012\000"
 2040      6F6F6D20 
 2040      666F7220 
 2040      6D6F6475 
 2040      6C650A00 
 2041              		.text
 2042              		.align	1
ARM GAS  G:\Users\Jaxb\AppData\Local\Temp\ccf0KBoB.s 			page 48


 2043              		.global	put_in_module_buffer
 2044              		.syntax unified
 2045              		.thumb
 2046              		.thumb_func
 2047              		.fpu softvfp
 2048              		.type	put_in_module_buffer, %function
 2049              	put_in_module_buffer:
 2050              	.LFB14:
 457:../../source/src/kernel/OS_CORE/module.c **** 
 458:../../source/src/kernel/OS_CORE/module.c **** void put_in_module_buffer(char c)
 459:../../source/src/kernel/OS_CORE/module.c **** {
 2051              		.loc 2 459 0
 2052              		.cfi_startproc
 2053              		@ args = 0, pretend = 0, frame = 8
 2054              		@ frame_needed = 1, uses_anonymous_args = 0
 2055 0c34 80B5     		push	{r7, lr}
 2056              	.LCFI26:
 2057              		.cfi_def_cfa_offset 8
 2058              		.cfi_offset 7, -8
 2059              		.cfi_offset 14, -4
 2060 0c36 82B0     		sub	sp, sp, #8
 2061              	.LCFI27:
 2062              		.cfi_def_cfa_offset 16
 2063 0c38 00AF     		add	r7, sp, #0
 2064              	.LCFI28:
 2065              		.cfi_def_cfa_register 7
 2066 0c3a 0346     		mov	r3, r0
 2067 0c3c FB71     		strb	r3, [r7, #7]
 460:../../source/src/kernel/OS_CORE/module.c **** 	if(module_buffer)
 2068              		.loc 2 460 0
 2069 0c3e 0B4B     		ldr	r3, .L101
 2070 0c40 1B68     		ldr	r3, [r3]
 2071 0c42 002B     		cmp	r3, #0
 2072 0c44 0AD0     		beq	.L98
 461:../../source/src/kernel/OS_CORE/module.c **** 	{
 462:../../source/src/kernel/OS_CORE/module.c **** 		*(module_buffer + num++) = c;
 2073              		.loc 2 462 0
 2074 0c46 094B     		ldr	r3, .L101
 2075 0c48 1A68     		ldr	r2, [r3]
 2076 0c4a 094B     		ldr	r3, .L101+4
 2077 0c4c 1B68     		ldr	r3, [r3]
 2078 0c4e 591C     		adds	r1, r3, #1
 2079 0c50 0748     		ldr	r0, .L101+4
 2080 0c52 0160     		str	r1, [r0]
 2081 0c54 1344     		add	r3, r3, r2
 2082 0c56 FA79     		ldrb	r2, [r7, #7]
 2083 0c58 1A70     		strb	r2, [r3]
 463:../../source/src/kernel/OS_CORE/module.c **** 	}
 464:../../source/src/kernel/OS_CORE/module.c ****     else
 465:../../source/src/kernel/OS_CORE/module.c ****     {
 466:../../source/src/kernel/OS_CORE/module.c ****         ka_printf("no room for module\n");
 467:../../source/src/kernel/OS_CORE/module.c ****     }
 468:../../source/src/kernel/OS_CORE/module.c **** }
 2084              		.loc 2 468 0
 2085 0c5a 02E0     		b	.L100
 2086              	.L98:
 466:../../source/src/kernel/OS_CORE/module.c ****     }
ARM GAS  G:\Users\Jaxb\AppData\Local\Temp\ccf0KBoB.s 			page 49


 2087              		.loc 2 466 0
 2088 0c5c 0548     		ldr	r0, .L101+8
 2089 0c5e FFF7FEFF 		bl	ka_printf
 2090              	.L100:
 2091              		.loc 2 468 0
 2092 0c62 00BF     		nop
 2093 0c64 0837     		adds	r7, r7, #8
 2094              	.LCFI29:
 2095              		.cfi_def_cfa_offset 8
 2096 0c66 BD46     		mov	sp, r7
 2097              	.LCFI30:
 2098              		.cfi_def_cfa_register 13
 2099              		@ sp needed
 2100 0c68 80BD     		pop	{r7, pc}
 2101              	.L102:
 2102 0c6a 00BF     		.align	2
 2103              	.L101:
 2104 0c6c 00000000 		.word	module_buffer
 2105 0c70 04000000 		.word	num
 2106 0c74 B4030000 		.word	.LC33
 2107              		.cfi_endproc
 2108              	.LFE14:
 2109              		.size	put_in_module_buffer, .-put_in_module_buffer
 2110              		.section	.rodata
 2111              		.align	2
 2112              	.LC34:
 2113 03c8 67657420 		.ascii	"get %u bytes\012\000"
 2113      25752062 
 2113      79746573 
 2113      0A00
 2114              		.text
 2115              		.align	1
 2116              		.global	show_get_size
 2117              		.syntax unified
 2118              		.thumb
 2119              		.thumb_func
 2120              		.fpu softvfp
 2121              		.type	show_get_size, %function
 2122              	show_get_size:
 2123              	.LFB15:
 469:../../source/src/kernel/OS_CORE/module.c **** 
 470:../../source/src/kernel/OS_CORE/module.c **** void show_get_size(void)
 471:../../source/src/kernel/OS_CORE/module.c **** {
 2124              		.loc 2 471 0
 2125              		.cfi_startproc
 2126              		@ args = 0, pretend = 0, frame = 0
 2127              		@ frame_needed = 1, uses_anonymous_args = 0
 2128 0c78 80B5     		push	{r7, lr}
 2129              	.LCFI31:
 2130              		.cfi_def_cfa_offset 8
 2131              		.cfi_offset 7, -8
 2132              		.cfi_offset 14, -4
 2133 0c7a 00AF     		add	r7, sp, #0
 2134              	.LCFI32:
 2135              		.cfi_def_cfa_register 7
 472:../../source/src/kernel/OS_CORE/module.c ****     ka_printf("get %u bytes\n",num);
 2136              		.loc 2 472 0
ARM GAS  G:\Users\Jaxb\AppData\Local\Temp\ccf0KBoB.s 			page 50


 2137 0c7c 034B     		ldr	r3, .L104
 2138 0c7e 1B68     		ldr	r3, [r3]
 2139 0c80 1946     		mov	r1, r3
 2140 0c82 0348     		ldr	r0, .L104+4
 2141 0c84 FFF7FEFF 		bl	ka_printf
 473:../../source/src/kernel/OS_CORE/module.c **** }
 2142              		.loc 2 473 0
 2143 0c88 00BF     		nop
 2144 0c8a 80BD     		pop	{r7, pc}
 2145              	.L105:
 2146              		.align	2
 2147              	.L104:
 2148 0c8c 04000000 		.word	num
 2149 0c90 C8030000 		.word	.LC34
 2150              		.cfi_endproc
 2151              	.LFE15:
 2152              		.size	show_get_size, .-show_get_size
 2153              		.align	1
 2154              		.global	clear_module_buffer
 2155              		.syntax unified
 2156              		.thumb
 2157              		.thumb_func
 2158              		.fpu softvfp
 2159              		.type	clear_module_buffer, %function
 2160              	clear_module_buffer:
 2161              	.LFB16:
 474:../../source/src/kernel/OS_CORE/module.c **** 
 475:../../source/src/kernel/OS_CORE/module.c **** void clear_module_buffer(void)
 476:../../source/src/kernel/OS_CORE/module.c **** {
 2162              		.loc 2 476 0
 2163              		.cfi_startproc
 2164              		@ args = 0, pretend = 0, frame = 0
 2165              		@ frame_needed = 1, uses_anonymous_args = 0
 2166              		@ link register save eliminated.
 2167 0c94 80B4     		push	{r7}
 2168              	.LCFI33:
 2169              		.cfi_def_cfa_offset 4
 2170              		.cfi_offset 7, -4
 2171 0c96 00AF     		add	r7, sp, #0
 2172              	.LCFI34:
 2173              		.cfi_def_cfa_register 7
 477:../../source/src/kernel/OS_CORE/module.c **** 	module_buffer = NULL;
 2174              		.loc 2 477 0
 2175 0c98 044B     		ldr	r3, .L107
 2176 0c9a 0022     		movs	r2, #0
 2177 0c9c 1A60     		str	r2, [r3]
 478:../../source/src/kernel/OS_CORE/module.c **** 	num = 0;
 2178              		.loc 2 478 0
 2179 0c9e 044B     		ldr	r3, .L107+4
 2180 0ca0 0022     		movs	r2, #0
 2181 0ca2 1A60     		str	r2, [r3]
 479:../../source/src/kernel/OS_CORE/module.c **** }
 2182              		.loc 2 479 0
 2183 0ca4 00BF     		nop
 2184 0ca6 BD46     		mov	sp, r7
 2185              	.LCFI35:
 2186              		.cfi_def_cfa_register 13
ARM GAS  G:\Users\Jaxb\AppData\Local\Temp\ccf0KBoB.s 			page 51


 2187              		@ sp needed
 2188 0ca8 80BC     		pop	{r7}
 2189              	.LCFI36:
 2190              		.cfi_restore 7
 2191              		.cfi_def_cfa_offset 0
 2192 0caa 7047     		bx	lr
 2193              	.L108:
 2194              		.align	2
 2195              	.L107:
 2196 0cac 00000000 		.word	module_buffer
 2197 0cb0 04000000 		.word	num
 2198              		.cfi_endproc
 2199              	.LFE16:
 2200              		.size	clear_module_buffer, .-clear_module_buffer
 2201              		.align	1
 2202              		.global	set_module_buffer
 2203              		.syntax unified
 2204              		.thumb
 2205              		.thumb_func
 2206              		.fpu softvfp
 2207              		.type	set_module_buffer, %function
 2208              	set_module_buffer:
 2209              	.LFB17:
 480:../../source/src/kernel/OS_CORE/module.c **** 
 481:../../source/src/kernel/OS_CORE/module.c **** void set_module_buffer(void *add)
 482:../../source/src/kernel/OS_CORE/module.c **** {
 2210              		.loc 2 482 0
 2211              		.cfi_startproc
 2212              		@ args = 0, pretend = 0, frame = 8
 2213              		@ frame_needed = 1, uses_anonymous_args = 0
 2214              		@ link register save eliminated.
 2215 0cb4 80B4     		push	{r7}
 2216              	.LCFI37:
 2217              		.cfi_def_cfa_offset 4
 2218              		.cfi_offset 7, -4
 2219 0cb6 83B0     		sub	sp, sp, #12
 2220              	.LCFI38:
 2221              		.cfi_def_cfa_offset 16
 2222 0cb8 00AF     		add	r7, sp, #0
 2223              	.LCFI39:
 2224              		.cfi_def_cfa_register 7
 2225 0cba 7860     		str	r0, [r7, #4]
 483:../../source/src/kernel/OS_CORE/module.c **** 	module_buffer = (char *)add;
 2226              		.loc 2 483 0
 2227 0cbc 034A     		ldr	r2, .L110
 2228 0cbe 7B68     		ldr	r3, [r7, #4]
 2229 0cc0 1360     		str	r3, [r2]
 484:../../source/src/kernel/OS_CORE/module.c **** }
 2230              		.loc 2 484 0
 2231 0cc2 00BF     		nop
 2232 0cc4 0C37     		adds	r7, r7, #12
 2233              	.LCFI40:
 2234              		.cfi_def_cfa_offset 4
 2235 0cc6 BD46     		mov	sp, r7
 2236              	.LCFI41:
 2237              		.cfi_def_cfa_register 13
 2238              		@ sp needed
ARM GAS  G:\Users\Jaxb\AppData\Local\Temp\ccf0KBoB.s 			page 52


 2239 0cc8 80BC     		pop	{r7}
 2240              	.LCFI42:
 2241              		.cfi_restore 7
 2242              		.cfi_def_cfa_offset 0
 2243 0cca 7047     		bx	lr
 2244              	.L111:
 2245              		.align	2
 2246              	.L110:
 2247 0ccc 00000000 		.word	module_buffer
 2248              		.cfi_endproc
 2249              	.LFE17:
 2250              		.size	set_module_buffer, .-set_module_buffer
 2251              		.bss
 2252              		.align	2
 2253              	unsolved.4444:
 2254 0008 00000000 		.space	4
 2255              		.size	unsolved.4444, 4
 2256              		.text
 2257              	.Letext0:
 2258              		.file 3 "../../source/include/os_cpu/kakaosstdint.h"
 2259              		.file 4 "../../source/include/os_core/elf.h"
 2260              		.file 5 "../../source/include/os_core/task_state.h"
 2261              		.file 6 "../../source/include/os_core/TCB.h"
 2262              		.file 7 "../../source/include/os_core/module.h"