ARM GAS  G:\Users\Jaxb\AppData\Local\Temp\ccxK0LLV.s 			page 1


   1              		.cpu cortex-m3
   2              		.eabi_attribute 20, 1
   3              		.eabi_attribute 21, 1
   4              		.eabi_attribute 23, 3
   5              		.eabi_attribute 24, 1
   6              		.eabi_attribute 25, 1
   7              		.eabi_attribute 26, 1
   8              		.eabi_attribute 30, 6
   9              		.eabi_attribute 34, 1
  10              		.eabi_attribute 18, 4
  11              		.file	"mutex.c"
  12              		.text
  13              	.Ltext0:
  14              		.cfi_sections	.debug_frame
  15              		.align	1
  16              		.syntax unified
  17              		.thumb
  18              		.thumb_func
  19              		.fpu softvfp
  20              		.type	compare, %function
  21              	compare:
  22              	.LFB11:
  23              		.file 1 "../../source/src/kernel/OS_CORE/mutex.c"
   1:../../source/src/kernel/OS_CORE/mutex.c **** #include <mutex.h>
   2:../../source/src/kernel/OS_CORE/mutex.c **** #include <os_schedule.h>
   3:../../source/src/kernel/OS_CORE/mutex.c **** #include <myassert.h>
   4:../../source/src/kernel/OS_CORE/mutex.c **** #include <os_cpu.h>
   5:../../source/src/kernel/OS_CORE/mutex.c **** #include <os_suspend.h>
   6:../../source/src/kernel/OS_CORE/mutex.c **** #include <export.h>
   7:../../source/src/kernel/OS_CORE/mutex.c **** 
   8:../../source/src/kernel/OS_CORE/mutex.c **** extern volatile TCB * OSTCBCurPtr;
   9:../../source/src/kernel/OS_CORE/mutex.c **** 
  10:../../source/src/kernel/OS_CORE/mutex.c **** inline static int compare(struct insert_sort_data *data1,struct insert_sort_data *data2)
  11:../../source/src/kernel/OS_CORE/mutex.c **** {
  24              		.loc 1 11 0
  25              		.cfi_startproc
  26              		@ args = 0, pretend = 0, frame = 8
  27              		@ frame_needed = 1, uses_anonymous_args = 0
  28              		@ link register save eliminated.
  29 0000 80B4     		push	{r7}
  30              	.LCFI0:
  31              		.cfi_def_cfa_offset 4
  32              		.cfi_offset 7, -4
  33 0002 83B0     		sub	sp, sp, #12
  34              	.LCFI1:
  35              		.cfi_def_cfa_offset 16
  36 0004 00AF     		add	r7, sp, #0
  37              	.LCFI2:
  38              		.cfi_def_cfa_register 7
  39 0006 7860     		str	r0, [r7, #4]
  40 0008 3960     		str	r1, [r7]
  12:../../source/src/kernel/OS_CORE/mutex.c **** 	return ((TCB*)(data1->data_ptr))->prio - ((TCB*)(data2->data_ptr))->prio;
  41              		.loc 1 12 0
  42 000a 7B68     		ldr	r3, [r7, #4]
  43 000c 1B68     		ldr	r3, [r3]
  44 000e 5A69     		ldr	r2, [r3, #20]
  45 0010 3B68     		ldr	r3, [r7]
ARM GAS  G:\Users\Jaxb\AppData\Local\Temp\ccxK0LLV.s 			page 2


  46 0012 1B68     		ldr	r3, [r3]
  47 0014 5B69     		ldr	r3, [r3, #20]
  48 0016 D31A     		subs	r3, r2, r3
  13:../../source/src/kernel/OS_CORE/mutex.c **** }
  49              		.loc 1 13 0
  50 0018 1846     		mov	r0, r3
  51 001a 0C37     		adds	r7, r7, #12
  52              	.LCFI3:
  53              		.cfi_def_cfa_offset 4
  54 001c BD46     		mov	sp, r7
  55              	.LCFI4:
  56              		.cfi_def_cfa_register 13
  57              		@ sp needed
  58 001e 80BC     		pop	{r7}
  59              	.LCFI5:
  60              		.cfi_restore 7
  61              		.cfi_def_cfa_offset 0
  62 0020 7047     		bx	lr
  63              		.cfi_endproc
  64              	.LFE11:
  65              		.size	compare, .-compare
  66              		.align	1
  67              		.syntax unified
  68              		.thumb
  69              		.thumb_func
  70              		.fpu softvfp
  71              		.type	value_cmp, %function
  72              	value_cmp:
  73              	.LFB12:
  14:../../source/src/kernel/OS_CORE/mutex.c **** 
  15:../../source/src/kernel/OS_CORE/mutex.c **** inline static int value_cmp(void *data1,void *data2)
  16:../../source/src/kernel/OS_CORE/mutex.c **** {
  74              		.loc 1 16 0
  75              		.cfi_startproc
  76              		@ args = 0, pretend = 0, frame = 8
  77              		@ frame_needed = 1, uses_anonymous_args = 0
  78              		@ link register save eliminated.
  79 0022 80B4     		push	{r7}
  80              	.LCFI6:
  81              		.cfi_def_cfa_offset 4
  82              		.cfi_offset 7, -4
  83 0024 83B0     		sub	sp, sp, #12
  84              	.LCFI7:
  85              		.cfi_def_cfa_offset 16
  86 0026 00AF     		add	r7, sp, #0
  87              	.LCFI8:
  88              		.cfi_def_cfa_register 7
  89 0028 7860     		str	r0, [r7, #4]
  90 002a 3960     		str	r1, [r7]
  17:../../source/src/kernel/OS_CORE/mutex.c **** 	return ((TCB*)data1)->prio - ((TCB*)data2)->prio;
  91              		.loc 1 17 0
  92 002c 7B68     		ldr	r3, [r7, #4]
  93 002e 5A69     		ldr	r2, [r3, #20]
  94 0030 3B68     		ldr	r3, [r7]
  95 0032 5B69     		ldr	r3, [r3, #20]
  96 0034 D31A     		subs	r3, r2, r3
  18:../../source/src/kernel/OS_CORE/mutex.c **** }
ARM GAS  G:\Users\Jaxb\AppData\Local\Temp\ccxK0LLV.s 			page 3


  97              		.loc 1 18 0
  98 0036 1846     		mov	r0, r3
  99 0038 0C37     		adds	r7, r7, #12
 100              	.LCFI9:
 101              		.cfi_def_cfa_offset 4
 102 003a BD46     		mov	sp, r7
 103              	.LCFI10:
 104              		.cfi_def_cfa_register 13
 105              		@ sp needed
 106 003c 80BC     		pop	{r7}
 107              	.LCFI11:
 108              		.cfi_restore 7
 109              		.cfi_def_cfa_offset 0
 110 003e 7047     		bx	lr
 111              		.cfi_endproc
 112              	.LFE12:
 113              		.size	value_cmp, .-value_cmp
 114              		.section	.rodata
 115              		.align	2
 116              	.LC0:
 117 0000 2E2E2F2E 		.ascii	"../../source/src/kernel/OS_CORE/mutex.c\000"
 117      2E2F736F 
 117      75726365 
 117      2F737263 
 117      2F6B6572 
 118              		.align	2
 119              	.LC1:
 120 0028 6572726F 		.ascii	"error fun name : mutex_init\012error para : MUTEX_p"
 120      72206675 
 120      6E206E61 
 120      6D65203A 
 120      206D7574 
 121 0058 74720A00 		.ascii	"tr\012\000"
 122              		.text
 123              		.align	1
 124              		.global	mutex_init
 125              		.syntax unified
 126              		.thumb
 127              		.thumb_func
 128              		.fpu softvfp
 129              		.type	mutex_init, %function
 130              	mutex_init:
 131              	.LFB13:
  19:../../source/src/kernel/OS_CORE/mutex.c **** 
  20:../../source/src/kernel/OS_CORE/mutex.c **** int mutex_init(MUTEX *MUTEX_ptr)
  21:../../source/src/kernel/OS_CORE/mutex.c **** {
 132              		.loc 1 21 0
 133              		.cfi_startproc
 134              		@ args = 0, pretend = 0, frame = 16
 135              		@ frame_needed = 1, uses_anonymous_args = 0
 136 0040 80B5     		push	{r7, lr}
 137              	.LCFI12:
 138              		.cfi_def_cfa_offset 8
 139              		.cfi_offset 7, -8
 140              		.cfi_offset 14, -4
 141 0042 84B0     		sub	sp, sp, #16
 142              	.LCFI13:
ARM GAS  G:\Users\Jaxb\AppData\Local\Temp\ccxK0LLV.s 			page 4


 143              		.cfi_def_cfa_offset 24
 144 0044 00AF     		add	r7, sp, #0
 145              	.LCFI14:
 146              		.cfi_def_cfa_register 7
 147 0046 7860     		str	r0, [r7, #4]
  22:../../source/src/kernel/OS_CORE/mutex.c **** 	ASSERT(NULL != MUTEX_ptr);
 148              		.loc 1 22 0
 149 0048 7B68     		ldr	r3, [r7, #4]
 150 004a 002B     		cmp	r3, #0
 151 004c 03D1     		bne	.L6
 152              		.loc 1 22 0 is_stmt 0 discriminator 1
 153 004e 1621     		movs	r1, #22
 154 0050 1848     		ldr	r0, .L10
 155 0052 FFF7FEFF 		bl	_ASSERT
 156              	.L6:
  23:../../source/src/kernel/OS_CORE/mutex.c **** #if CONFIG_PARA_CHECK
  24:../../source/src/kernel/OS_CORE/mutex.c **** 	if(NULL == MUTEX_ptr)
 157              		.loc 1 24 0 is_stmt 1
 158 0056 7B68     		ldr	r3, [r7, #4]
 159 0058 002B     		cmp	r3, #0
 160 005a 05D1     		bne	.L7
  25:../../source/src/kernel/OS_CORE/mutex.c **** 	{
  26:../../source/src/kernel/OS_CORE/mutex.c **** 		OS_ERROR_PARA_MESSAGE_DISPLAY(mutex_init,MUTEX_ptr);
 161              		.loc 1 26 0
 162 005c 1648     		ldr	r0, .L10+4
 163 005e FFF7FEFF 		bl	ka_printf
  27:../../source/src/kernel/OS_CORE/mutex.c **** 		return -ERROR_NULL_INPUT_PTR;
 164              		.loc 1 27 0
 165 0062 6FF0FE03 		mvn	r3, #254
 166 0066 20E0     		b	.L8
 167              	.L7:
  28:../../source/src/kernel/OS_CORE/mutex.c **** 	}
  29:../../source/src/kernel/OS_CORE/mutex.c **** #endif
  30:../../source/src/kernel/OS_CORE/mutex.c **** 	CPU_SR_ALLOC();
 168              		.loc 1 30 0
 169 0068 0023     		movs	r3, #0
 170 006a FB60     		str	r3, [r7, #12]
  31:../../source/src/kernel/OS_CORE/mutex.c **** 	CPU_CRITICAL_ENTER();
 171              		.loc 1 31 0
 172 006c FFF7FEFF 		bl	CPU_SR_Save
 173 0070 F860     		str	r0, [r7, #12]
  32:../../source/src/kernel/OS_CORE/mutex.c **** 	if (g_interrupt_count > 0)
 174              		.loc 1 32 0
 175 0072 124B     		ldr	r3, .L10+8
 176 0074 1B68     		ldr	r3, [r3]
 177 0076 002B     		cmp	r3, #0
 178 0078 05DD     		ble	.L9
  33:../../source/src/kernel/OS_CORE/mutex.c **** 	{
  34:../../source/src/kernel/OS_CORE/mutex.c **** 		CPU_CRITICAL_EXIT();
 179              		.loc 1 34 0
 180 007a F868     		ldr	r0, [r7, #12]
 181 007c FFF7FEFF 		bl	CPU_SR_Restore
  35:../../source/src/kernel/OS_CORE/mutex.c **** 		return -ERROR_FUN_USE_IN_INTER;
 182              		.loc 1 35 0
 183 0080 6FF0FC03 		mvn	r3, #252
 184 0084 11E0     		b	.L8
 185              	.L9:
ARM GAS  G:\Users\Jaxb\AppData\Local\Temp\ccxK0LLV.s 			page 5


  36:../../source/src/kernel/OS_CORE/mutex.c **** 	}
  37:../../source/src/kernel/OS_CORE/mutex.c **** 	MUTEX_ptr->mutex_flag = MUTEX_UNLOCK;
 186              		.loc 1 37 0
 187 0086 7B68     		ldr	r3, [r7, #4]
 188 0088 0122     		movs	r2, #1
 189 008a 1A60     		str	r2, [r3]
  38:../../source/src/kernel/OS_CORE/mutex.c **** 	MUTEX_ptr->owner_TCB_ptr = NULL;
 190              		.loc 1 38 0
 191 008c 7B68     		ldr	r3, [r7, #4]
 192 008e 0022     		movs	r2, #0
 193 0090 5A60     		str	r2, [r3, #4]
  39:../../source/src/kernel/OS_CORE/mutex.c **** 	init_insert_sort_entity(
 194              		.loc 1 39 0
 195 0092 7B68     		ldr	r3, [r7, #4]
 196 0094 03F10800 		add	r0, r3, #8
 197 0098 094B     		ldr	r3, .L10+12
 198 009a 0022     		movs	r2, #0
 199 009c 0949     		ldr	r1, .L10+16
 200 009e FFF7FEFF 		bl	init_insert_sort_entity
  40:../../source/src/kernel/OS_CORE/mutex.c **** 		&MUTEX_ptr->mutex_insert_sort_TCB_list,
  41:../../source/src/kernel/OS_CORE/mutex.c **** 		compare,
  42:../../source/src/kernel/OS_CORE/mutex.c **** 		NULL,
  43:../../source/src/kernel/OS_CORE/mutex.c **** 		value_cmp
  44:../../source/src/kernel/OS_CORE/mutex.c **** 		);
  45:../../source/src/kernel/OS_CORE/mutex.c **** 	CPU_CRITICAL_EXIT();
 201              		.loc 1 45 0
 202 00a2 F868     		ldr	r0, [r7, #12]
 203 00a4 FFF7FEFF 		bl	CPU_SR_Restore
  46:../../source/src/kernel/OS_CORE/mutex.c **** 	return FUN_EXECUTE_SUCCESSFULLY;
 204              		.loc 1 46 0
 205 00a8 0023     		movs	r3, #0
 206              	.L8:
  47:../../source/src/kernel/OS_CORE/mutex.c **** }
 207              		.loc 1 47 0
 208 00aa 1846     		mov	r0, r3
 209 00ac 1037     		adds	r7, r7, #16
 210              	.LCFI15:
 211              		.cfi_def_cfa_offset 8
 212 00ae BD46     		mov	sp, r7
 213              	.LCFI16:
 214              		.cfi_def_cfa_register 13
 215              		@ sp needed
 216 00b0 80BD     		pop	{r7, pc}
 217              	.L11:
 218 00b2 00BF     		.align	2
 219              	.L10:
 220 00b4 00000000 		.word	.LC0
 221 00b8 28000000 		.word	.LC1
 222 00bc 00000000 		.word	g_interrupt_count
 223 00c0 00000000 		.word	value_cmp
 224 00c4 00000000 		.word	compare
 225              		.cfi_endproc
 226              	.LFE13:
 227              		.size	mutex_init, .-mutex_init
 228              		.global	__rtmsym_mutex_init_name
 229              		.section	.rodata.name,"a",%progbits
 230              		.align	2
ARM GAS  G:\Users\Jaxb\AppData\Local\Temp\ccxK0LLV.s 			page 6


 231              		.type	__rtmsym_mutex_init_name, %object
 232              		.size	__rtmsym_mutex_init_name, 11
 233              	__rtmsym_mutex_init_name:
 234 0000 6D757465 		.ascii	"mutex_init\000"
 234      785F696E 
 234      697400
 235              		.global	__rtmsym_mutex_init
 236              		.section	.RTMSymTab,"a",%progbits
 237              		.align	2
 238              		.type	__rtmsym_mutex_init, %object
 239              		.size	__rtmsym_mutex_init, 8
 240              	__rtmsym_mutex_init:
 241 0000 00000000 		.word	mutex_init
 242 0004 00000000 		.word	__rtmsym_mutex_init_name
 243              		.section	.rodata
 244              		.align	2
 245              	.LC2:
 246 005c 6572726F 		.ascii	"error fun name : mutex_lock\012error para : MUTEX_p"
 246      72206675 
 246      6E206E61 
 246      6D65203A 
 246      206D7574 
 247 008c 74720A00 		.ascii	"tr\012\000"
 248              		.text
 249              		.align	1
 250              		.global	mutex_lock
 251              		.syntax unified
 252              		.thumb
 253              		.thumb_func
 254              		.fpu softvfp
 255              		.type	mutex_lock, %function
 256              	mutex_lock:
 257              	.LFB14:
  48:../../source/src/kernel/OS_CORE/mutex.c **** EXPORT_SYMBOL(mutex_init);
  49:../../source/src/kernel/OS_CORE/mutex.c **** 
  50:../../source/src/kernel/OS_CORE/mutex.c **** int mutex_lock(MUTEX *MUTEX_ptr)
  51:../../source/src/kernel/OS_CORE/mutex.c **** {
 258              		.loc 1 51 0
 259              		.cfi_startproc
 260              		@ args = 0, pretend = 0, frame = 40
 261              		@ frame_needed = 1, uses_anonymous_args = 0
 262 00c8 80B5     		push	{r7, lr}
 263              	.LCFI17:
 264              		.cfi_def_cfa_offset 8
 265              		.cfi_offset 7, -8
 266              		.cfi_offset 14, -4
 267 00ca 8AB0     		sub	sp, sp, #40
 268              	.LCFI18:
 269              		.cfi_def_cfa_offset 48
 270 00cc 00AF     		add	r7, sp, #0
 271              	.LCFI19:
 272              		.cfi_def_cfa_register 7
 273 00ce 7860     		str	r0, [r7, #4]
  52:../../source/src/kernel/OS_CORE/mutex.c **** 	ASSERT(NULL != MUTEX_ptr);
 274              		.loc 1 52 0
 275 00d0 7B68     		ldr	r3, [r7, #4]
 276 00d2 002B     		cmp	r3, #0
ARM GAS  G:\Users\Jaxb\AppData\Local\Temp\ccxK0LLV.s 			page 7


 277 00d4 03D1     		bne	.L13
 278              		.loc 1 52 0 is_stmt 0 discriminator 1
 279 00d6 3421     		movs	r1, #52
 280 00d8 4A48     		ldr	r0, .L25
 281 00da FFF7FEFF 		bl	_ASSERT
 282              	.L13:
  53:../../source/src/kernel/OS_CORE/mutex.c **** #if CONFIG_PARA_CHECK
  54:../../source/src/kernel/OS_CORE/mutex.c **** 	if(NULL == MUTEX_ptr)
 283              		.loc 1 54 0 is_stmt 1
 284 00de 7B68     		ldr	r3, [r7, #4]
 285 00e0 002B     		cmp	r3, #0
 286 00e2 05D1     		bne	.L14
  55:../../source/src/kernel/OS_CORE/mutex.c **** 	{
  56:../../source/src/kernel/OS_CORE/mutex.c **** 		OS_ERROR_PARA_MESSAGE_DISPLAY(mutex_lock,MUTEX_ptr);
 287              		.loc 1 56 0
 288 00e4 4848     		ldr	r0, .L25+4
 289 00e6 FFF7FEFF 		bl	ka_printf
  57:../../source/src/kernel/OS_CORE/mutex.c **** 		return -ERROR_NULL_INPUT_PTR;
 290              		.loc 1 57 0
 291 00ea 6FF0FE03 		mvn	r3, #254
 292 00ee 85E0     		b	.L15
 293              	.L14:
  58:../../source/src/kernel/OS_CORE/mutex.c **** 	}
  59:../../source/src/kernel/OS_CORE/mutex.c **** #endif
  60:../../source/src/kernel/OS_CORE/mutex.c **** 	CPU_SR_ALLOC();
 294              		.loc 1 60 0
 295 00f0 0023     		movs	r3, #0
 296 00f2 7B62     		str	r3, [r7, #36]
  61:../../source/src/kernel/OS_CORE/mutex.c **** 	CPU_CRITICAL_ENTER();//enter critical
 297              		.loc 1 61 0
 298 00f4 FFF7FEFF 		bl	CPU_SR_Save
 299 00f8 7862     		str	r0, [r7, #36]
  62:../../source/src/kernel/OS_CORE/mutex.c **** 	if (g_interrupt_count > 0)
 300              		.loc 1 62 0
 301 00fa 444B     		ldr	r3, .L25+8
 302 00fc 1B68     		ldr	r3, [r3]
 303 00fe 002B     		cmp	r3, #0
 304 0100 05DD     		ble	.L16
  63:../../source/src/kernel/OS_CORE/mutex.c **** 	{
  64:../../source/src/kernel/OS_CORE/mutex.c **** 		CPU_CRITICAL_EXIT();
 305              		.loc 1 64 0
 306 0102 786A     		ldr	r0, [r7, #36]
 307 0104 FFF7FEFF 		bl	CPU_SR_Restore
  65:../../source/src/kernel/OS_CORE/mutex.c **** 		return -ERROR_FUN_USE_IN_INTER;
 308              		.loc 1 65 0
 309 0108 6FF0FC03 		mvn	r3, #252
 310 010c 76E0     		b	.L15
 311              	.L16:
  66:../../source/src/kernel/OS_CORE/mutex.c **** 	}
  67:../../source/src/kernel/OS_CORE/mutex.c **** 	if(MUTEX_UNLOCK == MUTEX_ptr->mutex_flag)
 312              		.loc 1 67 0
 313 010e 7B68     		ldr	r3, [r7, #4]
 314 0110 1B68     		ldr	r3, [r3]
 315 0112 012B     		cmp	r3, #1
 316 0114 0AD1     		bne	.L17
  68:../../source/src/kernel/OS_CORE/mutex.c **** 	{
  69:../../source/src/kernel/OS_CORE/mutex.c **** 		MUTEX_ptr->mutex_flag = MUTEX_LOCK;
ARM GAS  G:\Users\Jaxb\AppData\Local\Temp\ccxK0LLV.s 			page 8


 317              		.loc 1 69 0
 318 0116 7B68     		ldr	r3, [r7, #4]
 319 0118 0022     		movs	r2, #0
 320 011a 1A60     		str	r2, [r3]
  70:../../source/src/kernel/OS_CORE/mutex.c **** 		MUTEX_ptr->owner_TCB_ptr = (TCB *)OSTCBCurPtr;
 321              		.loc 1 70 0
 322 011c 3C4B     		ldr	r3, .L25+12
 323 011e 1A68     		ldr	r2, [r3]
 324 0120 7B68     		ldr	r3, [r7, #4]
 325 0122 5A60     		str	r2, [r3, #4]
  71:../../source/src/kernel/OS_CORE/mutex.c **** 		CPU_CRITICAL_EXIT();
 326              		.loc 1 71 0
 327 0124 786A     		ldr	r0, [r7, #36]
 328 0126 FFF7FEFF 		bl	CPU_SR_Restore
 329 012a 66E0     		b	.L18
 330              	.L17:
 331              	.LBB2:
  72:../../source/src/kernel/OS_CORE/mutex.c **** 	}
  73:../../source/src/kernel/OS_CORE/mutex.c **** 	else
  74:../../source/src/kernel/OS_CORE/mutex.c **** 	{
  75:../../source/src/kernel/OS_CORE/mutex.c **** 		ASSERT(MUTEX_LOCK == MUTEX_ptr->mutex_flag);
 332              		.loc 1 75 0
 333 012c 7B68     		ldr	r3, [r7, #4]
 334 012e 1B68     		ldr	r3, [r3]
 335 0130 002B     		cmp	r3, #0
 336 0132 03D0     		beq	.L19
 337              		.loc 1 75 0 is_stmt 0 discriminator 1
 338 0134 4B21     		movs	r1, #75
 339 0136 3348     		ldr	r0, .L25
 340 0138 FFF7FEFF 		bl	_ASSERT
 341              	.L19:
  76:../../source/src/kernel/OS_CORE/mutex.c **** 		if(MUTEX_ptr->owner_TCB_ptr == (TCB *)OSTCBCurPtr)
 342              		.loc 1 76 0 is_stmt 1
 343 013c 7B68     		ldr	r3, [r7, #4]
 344 013e 5A68     		ldr	r2, [r3, #4]
 345 0140 334B     		ldr	r3, .L25+12
 346 0142 1B68     		ldr	r3, [r3]
 347 0144 9A42     		cmp	r2, r3
 348 0146 04D1     		bne	.L20
  77:../../source/src/kernel/OS_CORE/mutex.c **** 		{
  78:../../source/src/kernel/OS_CORE/mutex.c **** 			CPU_CRITICAL_EXIT();
 349              		.loc 1 78 0
 350 0148 786A     		ldr	r0, [r7, #36]
 351 014a FFF7FEFF 		bl	CPU_SR_Restore
  79:../../source/src/kernel/OS_CORE/mutex.c **** 			return FUN_EXECUTE_SUCCESSFULLY;
 352              		.loc 1 79 0
 353 014e 0023     		movs	r3, #0
 354 0150 54E0     		b	.L15
 355              	.L20:
  80:../../source/src/kernel/OS_CORE/mutex.c **** 		}
  81:../../source/src/kernel/OS_CORE/mutex.c **** 		struct insert_sort_data data;
  82:../../source/src/kernel/OS_CORE/mutex.c **** 		init_insert_sort_data(&data,(void *)OSTCBCurPtr);
 356              		.loc 1 82 0
 357 0152 2F4B     		ldr	r3, .L25+12
 358 0154 1A68     		ldr	r2, [r3]
 359 0156 07F10803 		add	r3, r7, #8
 360 015a 1146     		mov	r1, r2
ARM GAS  G:\Users\Jaxb\AppData\Local\Temp\ccxK0LLV.s 			page 9


 361 015c 1846     		mov	r0, r3
 362 015e FFF7FEFF 		bl	init_insert_sort_data
  83:../../source/src/kernel/OS_CORE/mutex.c **** 		insert_sort_insert_into(&data,&MUTEX_ptr->mutex_insert_sort_TCB_list);
 363              		.loc 1 83 0
 364 0162 7B68     		ldr	r3, [r7, #4]
 365 0164 03F10802 		add	r2, r3, #8
 366 0168 07F10803 		add	r3, r7, #8
 367 016c 1146     		mov	r1, r2
 368 016e 1846     		mov	r0, r3
 369 0170 FFF7FEFF 		bl	insert_sort_insert_into
  84:../../source/src/kernel/OS_CORE/mutex.c **** 		TCB *TCB_ptr = (TCB *)(insert_sort_get_first_data_ptr(&MUTEX_ptr->mutex_insert_sort_TCB_list)->da
 370              		.loc 1 84 0
 371 0174 7B68     		ldr	r3, [r7, #4]
 372 0176 0833     		adds	r3, r3, #8
 373 0178 1846     		mov	r0, r3
 374 017a FFF7FEFF 		bl	insert_sort_get_first_data_ptr
 375 017e 0346     		mov	r3, r0
 376 0180 1B68     		ldr	r3, [r3]
 377 0182 3B62     		str	r3, [r7, #32]
  85:../../source/src/kernel/OS_CORE/mutex.c **** 		if(MUTEX_ptr->owner_TCB_ptr->prio > TCB_ptr->prio)
 378              		.loc 1 85 0
 379 0184 7B68     		ldr	r3, [r7, #4]
 380 0186 5B68     		ldr	r3, [r3, #4]
 381 0188 5A69     		ldr	r2, [r3, #20]
 382 018a 3B6A     		ldr	r3, [r7, #32]
 383 018c 5B69     		ldr	r3, [r3, #20]
 384 018e 9A42     		cmp	r2, r3
 385 0190 12D9     		bls	.L22
  86:../../source/src/kernel/OS_CORE/mutex.c **** 		{
  87:../../source/src/kernel/OS_CORE/mutex.c **** 			if(RESERVED_PRIO == MUTEX_ptr->owner_TCB_ptr->reserve_prio)
 386              		.loc 1 87 0
 387 0192 7B68     		ldr	r3, [r7, #4]
 388 0194 5B68     		ldr	r3, [r3, #4]
 389 0196 DB68     		ldr	r3, [r3, #12]
 390 0198 002B     		cmp	r3, #0
 391 019a 05D1     		bne	.L23
  88:../../source/src/kernel/OS_CORE/mutex.c **** 			{
  89:../../source/src/kernel/OS_CORE/mutex.c **** 				MUTEX_ptr->owner_TCB_ptr->reserve_prio = MUTEX_ptr->owner_TCB_ptr->prio;
 392              		.loc 1 89 0
 393 019c 7B68     		ldr	r3, [r7, #4]
 394 019e 5A68     		ldr	r2, [r3, #4]
 395 01a0 7B68     		ldr	r3, [r7, #4]
 396 01a2 5B68     		ldr	r3, [r3, #4]
 397 01a4 5269     		ldr	r2, [r2, #20]
 398 01a6 DA60     		str	r2, [r3, #12]
 399              	.L23:
  90:../../source/src/kernel/OS_CORE/mutex.c **** 			}
  91:../../source/src/kernel/OS_CORE/mutex.c **** 			task_change_prio(MUTEX_ptr->owner_TCB_ptr,TCB_ptr->prio);
 400              		.loc 1 91 0
 401 01a8 7B68     		ldr	r3, [r7, #4]
 402 01aa 5A68     		ldr	r2, [r3, #4]
 403 01ac 3B6A     		ldr	r3, [r7, #32]
 404 01ae 5B69     		ldr	r3, [r3, #20]
 405 01b0 1946     		mov	r1, r3
 406 01b2 1046     		mov	r0, r2
 407 01b4 FFF7FEFF 		bl	task_change_prio
 408              	.L22:
ARM GAS  G:\Users\Jaxb\AppData\Local\Temp\ccxK0LLV.s 			page 10


  92:../../source/src/kernel/OS_CORE/mutex.c **** 		}
  93:../../source/src/kernel/OS_CORE/mutex.c **** 		sys_suspend(STATE_WAIT_MUTEX_FOREVER);
 409              		.loc 1 93 0
 410 01b8 0A20     		movs	r0, #10
 411 01ba FFF7FEFF 		bl	sys_suspend
  94:../../source/src/kernel/OS_CORE/mutex.c **** 		CPU_CRITICAL_EXIT(); //exit  critical
 412              		.loc 1 94 0
 413 01be 786A     		ldr	r0, [r7, #36]
 414 01c0 FFF7FEFF 		bl	CPU_SR_Restore
  95:../../source/src/kernel/OS_CORE/mutex.c **** 		//go back here=========go back here
  96:../../source/src/kernel/OS_CORE/mutex.c **** 		CPU_CRITICAL_ENTER();
 415              		.loc 1 96 0
 416 01c4 FFF7FEFF 		bl	CPU_SR_Save
 417 01c8 7862     		str	r0, [r7, #36]
  97:../../source/src/kernel/OS_CORE/mutex.c **** 		if(TCB_state_is_bad(OSTCBCurPtr))
 418              		.loc 1 97 0
 419 01ca 114B     		ldr	r3, .L25+12
 420 01cc 1B68     		ldr	r3, [r3]
 421 01ce 9B6B     		ldr	r3, [r3, #56]
 422 01d0 03F00203 		and	r3, r3, #2
 423 01d4 002B     		cmp	r3, #0
 424 01d6 0DD0     		beq	.L24
  98:../../source/src/kernel/OS_CORE/mutex.c **** 		{
  99:../../source/src/kernel/OS_CORE/mutex.c **** 			clear_bad_state(OSTCBCurPtr);
 425              		.loc 1 99 0
 426 01d8 0D4B     		ldr	r3, .L25+12
 427 01da 1B68     		ldr	r3, [r3]
 428 01dc 9A6B     		ldr	r2, [r3, #56]
 429 01de 0C4B     		ldr	r3, .L25+12
 430 01e0 1B68     		ldr	r3, [r3]
 431 01e2 22F00202 		bic	r2, r2, #2
 432 01e6 9A63     		str	r2, [r3, #56]
 100:../../source/src/kernel/OS_CORE/mutex.c **** 			CPU_CRITICAL_EXIT();
 433              		.loc 1 100 0
 434 01e8 786A     		ldr	r0, [r7, #36]
 435 01ea FFF7FEFF 		bl	CPU_SR_Restore
 101:../../source/src/kernel/OS_CORE/mutex.c **** 			return -ERROR_MODULE_DELETED;
 436              		.loc 1 101 0
 437 01ee 6FF0F903 		mvn	r3, #249
 438 01f2 03E0     		b	.L15
 439              	.L24:
 102:../../source/src/kernel/OS_CORE/mutex.c **** 		}
 103:../../source/src/kernel/OS_CORE/mutex.c **** 		CPU_CRITICAL_EXIT();
 440              		.loc 1 103 0
 441 01f4 786A     		ldr	r0, [r7, #36]
 442 01f6 FFF7FEFF 		bl	CPU_SR_Restore
 443              	.L18:
 444              	.LBE2:
 104:../../source/src/kernel/OS_CORE/mutex.c **** 	}
 105:../../source/src/kernel/OS_CORE/mutex.c **** 	return FUN_EXECUTE_SUCCESSFULLY;
 445              		.loc 1 105 0
 446 01fa 0023     		movs	r3, #0
 447              	.L15:
 106:../../source/src/kernel/OS_CORE/mutex.c **** }
 448              		.loc 1 106 0
 449 01fc 1846     		mov	r0, r3
 450 01fe 2837     		adds	r7, r7, #40
ARM GAS  G:\Users\Jaxb\AppData\Local\Temp\ccxK0LLV.s 			page 11


 451              	.LCFI20:
 452              		.cfi_def_cfa_offset 8
 453 0200 BD46     		mov	sp, r7
 454              	.LCFI21:
 455              		.cfi_def_cfa_register 13
 456              		@ sp needed
 457 0202 80BD     		pop	{r7, pc}
 458              	.L26:
 459              		.align	2
 460              	.L25:
 461 0204 00000000 		.word	.LC0
 462 0208 5C000000 		.word	.LC2
 463 020c 00000000 		.word	g_interrupt_count
 464 0210 00000000 		.word	OSTCBCurPtr
 465              		.cfi_endproc
 466              	.LFE14:
 467              		.size	mutex_lock, .-mutex_lock
 468              		.global	__rtmsym_mutex_lock_name
 469              		.section	.rodata.name
 470 000b 00       		.align	2
 471              		.type	__rtmsym_mutex_lock_name, %object
 472              		.size	__rtmsym_mutex_lock_name, 11
 473              	__rtmsym_mutex_lock_name:
 474 000c 6D757465 		.ascii	"mutex_lock\000"
 474      785F6C6F 
 474      636B00
 475              		.global	__rtmsym_mutex_lock
 476              		.section	.RTMSymTab
 477              		.align	2
 478              		.type	__rtmsym_mutex_lock, %object
 479              		.size	__rtmsym_mutex_lock, 8
 480              	__rtmsym_mutex_lock:
 481 0008 00000000 		.word	mutex_lock
 482 000c 00000000 		.word	__rtmsym_mutex_lock_name
 483              		.section	.rodata
 484              		.align	2
 485              	.LC3:
 486 0090 6572726F 		.ascii	"error fun name : mutex_try_lock\012error para : MUT"
 486      72206675 
 486      6E206E61 
 486      6D65203A 
 486      206D7574 
 487 00c0 45585F70 		.ascii	"EX_ptr\012\000"
 487      74720A00 
 488              		.text
 489              		.align	1
 490              		.global	mutex_try_lock
 491              		.syntax unified
 492              		.thumb
 493              		.thumb_func
 494              		.fpu softvfp
 495              		.type	mutex_try_lock, %function
 496              	mutex_try_lock:
 497              	.LFB15:
 107:../../source/src/kernel/OS_CORE/mutex.c **** EXPORT_SYMBOL(mutex_lock);
 108:../../source/src/kernel/OS_CORE/mutex.c **** 
 109:../../source/src/kernel/OS_CORE/mutex.c **** int mutex_try_lock(MUTEX *MUTEX_ptr)
ARM GAS  G:\Users\Jaxb\AppData\Local\Temp\ccxK0LLV.s 			page 12


 110:../../source/src/kernel/OS_CORE/mutex.c **** {
 498              		.loc 1 110 0
 499              		.cfi_startproc
 500              		@ args = 0, pretend = 0, frame = 16
 501              		@ frame_needed = 1, uses_anonymous_args = 0
 502 0214 80B5     		push	{r7, lr}
 503              	.LCFI22:
 504              		.cfi_def_cfa_offset 8
 505              		.cfi_offset 7, -8
 506              		.cfi_offset 14, -4
 507 0216 84B0     		sub	sp, sp, #16
 508              	.LCFI23:
 509              		.cfi_def_cfa_offset 24
 510 0218 00AF     		add	r7, sp, #0
 511              	.LCFI24:
 512              		.cfi_def_cfa_register 7
 513 021a 7860     		str	r0, [r7, #4]
 111:../../source/src/kernel/OS_CORE/mutex.c **** 	ASSERT(NULL != MUTEX_ptr);
 514              		.loc 1 111 0
 515 021c 7B68     		ldr	r3, [r7, #4]
 516 021e 002B     		cmp	r3, #0
 517 0220 03D1     		bne	.L28
 518              		.loc 1 111 0 is_stmt 0 discriminator 1
 519 0222 6F21     		movs	r1, #111
 520 0224 1848     		ldr	r0, .L33
 521 0226 FFF7FEFF 		bl	_ASSERT
 522              	.L28:
 112:../../source/src/kernel/OS_CORE/mutex.c **** #if CONFIG_PARA_CHECK
 113:../../source/src/kernel/OS_CORE/mutex.c **** 	if(NULL == MUTEX_ptr)
 523              		.loc 1 113 0 is_stmt 1
 524 022a 7B68     		ldr	r3, [r7, #4]
 525 022c 002B     		cmp	r3, #0
 526 022e 05D1     		bne	.L29
 114:../../source/src/kernel/OS_CORE/mutex.c **** 	{
 115:../../source/src/kernel/OS_CORE/mutex.c **** 		OS_ERROR_PARA_MESSAGE_DISPLAY(mutex_try_lock,MUTEX_ptr);
 527              		.loc 1 115 0
 528 0230 1648     		ldr	r0, .L33+4
 529 0232 FFF7FEFF 		bl	ka_printf
 116:../../source/src/kernel/OS_CORE/mutex.c **** 		return -ERROR_NULL_INPUT_PTR;
 530              		.loc 1 116 0
 531 0236 6FF0FE03 		mvn	r3, #254
 532 023a 21E0     		b	.L30
 533              	.L29:
 117:../../source/src/kernel/OS_CORE/mutex.c **** 	}
 118:../../source/src/kernel/OS_CORE/mutex.c **** #endif
 119:../../source/src/kernel/OS_CORE/mutex.c **** 	CPU_SR_ALLOC();
 534              		.loc 1 119 0
 535 023c 0023     		movs	r3, #0
 536 023e FB60     		str	r3, [r7, #12]
 120:../../source/src/kernel/OS_CORE/mutex.c **** 	CPU_CRITICAL_ENTER();//enter critical
 537              		.loc 1 120 0
 538 0240 FFF7FEFF 		bl	CPU_SR_Save
 539 0244 F860     		str	r0, [r7, #12]
 121:../../source/src/kernel/OS_CORE/mutex.c **** 	if(MUTEX_UNLOCK == MUTEX_ptr->mutex_flag)
 540              		.loc 1 121 0
 541 0246 7B68     		ldr	r3, [r7, #4]
 542 0248 1B68     		ldr	r3, [r3]
ARM GAS  G:\Users\Jaxb\AppData\Local\Temp\ccxK0LLV.s 			page 13


 543 024a 012B     		cmp	r3, #1
 544 024c 0BD1     		bne	.L31
 122:../../source/src/kernel/OS_CORE/mutex.c **** 	{
 123:../../source/src/kernel/OS_CORE/mutex.c **** 		MUTEX_ptr->mutex_flag = MUTEX_LOCK;
 545              		.loc 1 123 0
 546 024e 7B68     		ldr	r3, [r7, #4]
 547 0250 0022     		movs	r2, #0
 548 0252 1A60     		str	r2, [r3]
 124:../../source/src/kernel/OS_CORE/mutex.c **** 		MUTEX_ptr->owner_TCB_ptr = (TCB *)OSTCBCurPtr;
 549              		.loc 1 124 0
 550 0254 0E4B     		ldr	r3, .L33+8
 551 0256 1A68     		ldr	r2, [r3]
 552 0258 7B68     		ldr	r3, [r7, #4]
 553 025a 5A60     		str	r2, [r3, #4]
 125:../../source/src/kernel/OS_CORE/mutex.c **** 		CPU_CRITICAL_EXIT();
 554              		.loc 1 125 0
 555 025c F868     		ldr	r0, [r7, #12]
 556 025e FFF7FEFF 		bl	CPU_SR_Restore
 126:../../source/src/kernel/OS_CORE/mutex.c **** 		return FUN_EXECUTE_SUCCESSFULLY;
 557              		.loc 1 126 0
 558 0262 0023     		movs	r3, #0
 559 0264 0CE0     		b	.L30
 560              	.L31:
 127:../../source/src/kernel/OS_CORE/mutex.c **** 	}
 128:../../source/src/kernel/OS_CORE/mutex.c **** 	else
 129:../../source/src/kernel/OS_CORE/mutex.c **** 	{
 130:../../source/src/kernel/OS_CORE/mutex.c **** 		ASSERT(MUTEX_LOCK == MUTEX_ptr->mutex_flag);
 561              		.loc 1 130 0
 562 0266 7B68     		ldr	r3, [r7, #4]
 563 0268 1B68     		ldr	r3, [r3]
 564 026a 002B     		cmp	r3, #0
 565 026c 03D0     		beq	.L32
 566              		.loc 1 130 0 is_stmt 0 discriminator 1
 567 026e 8221     		movs	r1, #130
 568 0270 0548     		ldr	r0, .L33
 569 0272 FFF7FEFF 		bl	_ASSERT
 570              	.L32:
 131:../../source/src/kernel/OS_CORE/mutex.c **** 		CPU_CRITICAL_EXIT(); //exit  critical
 571              		.loc 1 131 0 is_stmt 1
 572 0276 F868     		ldr	r0, [r7, #12]
 573 0278 FFF7FEFF 		bl	CPU_SR_Restore
 132:../../source/src/kernel/OS_CORE/mutex.c **** 		return -ERROR_MUTEX_LOCK_FAIL;
 574              		.loc 1 132 0
 575 027c 4FF0FF33 		mov	r3, #-1
 576              	.L30:
 133:../../source/src/kernel/OS_CORE/mutex.c **** 	}
 134:../../source/src/kernel/OS_CORE/mutex.c **** }
 577              		.loc 1 134 0
 578 0280 1846     		mov	r0, r3
 579 0282 1037     		adds	r7, r7, #16
 580              	.LCFI25:
 581              		.cfi_def_cfa_offset 8
 582 0284 BD46     		mov	sp, r7
 583              	.LCFI26:
 584              		.cfi_def_cfa_register 13
 585              		@ sp needed
 586 0286 80BD     		pop	{r7, pc}
ARM GAS  G:\Users\Jaxb\AppData\Local\Temp\ccxK0LLV.s 			page 14


 587              	.L34:
 588              		.align	2
 589              	.L33:
 590 0288 00000000 		.word	.LC0
 591 028c 90000000 		.word	.LC3
 592 0290 00000000 		.word	OSTCBCurPtr
 593              		.cfi_endproc
 594              	.LFE15:
 595              		.size	mutex_try_lock, .-mutex_try_lock
 596              		.global	__rtmsym_mutex_try_lock_name
 597              		.section	.rodata.name
 598 0017 00       		.align	2
 599              		.type	__rtmsym_mutex_try_lock_name, %object
 600              		.size	__rtmsym_mutex_try_lock_name, 15
 601              	__rtmsym_mutex_try_lock_name:
 602 0018 6D757465 		.ascii	"mutex_try_lock\000"
 602      785F7472 
 602      795F6C6F 
 602      636B00
 603              		.global	__rtmsym_mutex_try_lock
 604              		.section	.RTMSymTab
 605              		.align	2
 606              		.type	__rtmsym_mutex_try_lock, %object
 607              		.size	__rtmsym_mutex_try_lock, 8
 608              	__rtmsym_mutex_try_lock:
 609 0010 00000000 		.word	mutex_try_lock
 610 0014 00000000 		.word	__rtmsym_mutex_try_lock_name
 611              		.section	.rodata
 612              		.align	2
 613              	.LC4:
 614 00c8 6572726F 		.ascii	"error fun name : mutex_unlock\012error para : MUTEX"
 614      72206675 
 614      6E206E61 
 614      6D65203A 
 614      206D7574 
 615 00f8 5F707472 		.ascii	"_ptr\012\000"
 615      0A00
 616              		.text
 617              		.align	1
 618              		.global	mutex_unlock
 619              		.syntax unified
 620              		.thumb
 621              		.thumb_func
 622              		.fpu softvfp
 623              		.type	mutex_unlock, %function
 624              	mutex_unlock:
 625              	.LFB16:
 135:../../source/src/kernel/OS_CORE/mutex.c **** EXPORT_SYMBOL(mutex_try_lock);
 136:../../source/src/kernel/OS_CORE/mutex.c **** 
 137:../../source/src/kernel/OS_CORE/mutex.c **** int mutex_unlock(MUTEX *MUTEX_ptr)
 138:../../source/src/kernel/OS_CORE/mutex.c **** {
 626              		.loc 1 138 0
 627              		.cfi_startproc
 628              		@ args = 0, pretend = 0, frame = 24
 629              		@ frame_needed = 1, uses_anonymous_args = 0
 630 0294 80B5     		push	{r7, lr}
 631              	.LCFI27:
ARM GAS  G:\Users\Jaxb\AppData\Local\Temp\ccxK0LLV.s 			page 15


 632              		.cfi_def_cfa_offset 8
 633              		.cfi_offset 7, -8
 634              		.cfi_offset 14, -4
 635 0296 86B0     		sub	sp, sp, #24
 636              	.LCFI28:
 637              		.cfi_def_cfa_offset 32
 638 0298 00AF     		add	r7, sp, #0
 639              	.LCFI29:
 640              		.cfi_def_cfa_register 7
 641 029a 7860     		str	r0, [r7, #4]
 139:../../source/src/kernel/OS_CORE/mutex.c **** 	ASSERT(NULL != MUTEX_ptr);
 642              		.loc 1 139 0
 643 029c 7B68     		ldr	r3, [r7, #4]
 644 029e 002B     		cmp	r3, #0
 645 02a0 03D1     		bne	.L36
 646              		.loc 1 139 0 is_stmt 0 discriminator 1
 647 02a2 8B21     		movs	r1, #139
 648 02a4 2F48     		ldr	r0, .L43
 649 02a6 FFF7FEFF 		bl	_ASSERT
 650              	.L36:
 140:../../source/src/kernel/OS_CORE/mutex.c **** #if CONFIG_PARA_CHECK
 141:../../source/src/kernel/OS_CORE/mutex.c **** 	if(NULL == MUTEX_ptr)
 651              		.loc 1 141 0 is_stmt 1
 652 02aa 7B68     		ldr	r3, [r7, #4]
 653 02ac 002B     		cmp	r3, #0
 654 02ae 05D1     		bne	.L37
 142:../../source/src/kernel/OS_CORE/mutex.c **** 	{
 143:../../source/src/kernel/OS_CORE/mutex.c **** 		OS_ERROR_PARA_MESSAGE_DISPLAY(mutex_unlock,MUTEX_ptr);
 655              		.loc 1 143 0
 656 02b0 2D48     		ldr	r0, .L43+4
 657 02b2 FFF7FEFF 		bl	ka_printf
 144:../../source/src/kernel/OS_CORE/mutex.c **** 		return -ERROR_NULL_INPUT_PTR;
 658              		.loc 1 144 0
 659 02b6 6FF0FE03 		mvn	r3, #254
 660 02ba 4FE0     		b	.L38
 661              	.L37:
 145:../../source/src/kernel/OS_CORE/mutex.c **** 	}
 146:../../source/src/kernel/OS_CORE/mutex.c **** #endif
 147:../../source/src/kernel/OS_CORE/mutex.c **** 	CPU_SR_ALLOC();
 662              		.loc 1 147 0
 663 02bc 0023     		movs	r3, #0
 664 02be 7B61     		str	r3, [r7, #20]
 148:../../source/src/kernel/OS_CORE/mutex.c **** 	CPU_CRITICAL_ENTER();//enter critical
 665              		.loc 1 148 0
 666 02c0 FFF7FEFF 		bl	CPU_SR_Save
 667 02c4 7861     		str	r0, [r7, #20]
 149:../../source/src/kernel/OS_CORE/mutex.c **** 	if(MUTEX_UNLOCK == MUTEX_ptr->mutex_flag)
 668              		.loc 1 149 0
 669 02c6 7B68     		ldr	r3, [r7, #4]
 670 02c8 1B68     		ldr	r3, [r3]
 671 02ca 012B     		cmp	r3, #1
 672 02cc 04D1     		bne	.L39
 150:../../source/src/kernel/OS_CORE/mutex.c **** 	{
 151:../../source/src/kernel/OS_CORE/mutex.c **** 		CPU_CRITICAL_EXIT();
 673              		.loc 1 151 0
 674 02ce 7869     		ldr	r0, [r7, #20]
 675 02d0 FFF7FEFF 		bl	CPU_SR_Restore
ARM GAS  G:\Users\Jaxb\AppData\Local\Temp\ccxK0LLV.s 			page 16


 152:../../source/src/kernel/OS_CORE/mutex.c **** 		return FUN_EXECUTE_SUCCESSFULLY;
 676              		.loc 1 152 0
 677 02d4 0023     		movs	r3, #0
 678 02d6 41E0     		b	.L38
 679              	.L39:
 153:../../source/src/kernel/OS_CORE/mutex.c **** 	}
 154:../../source/src/kernel/OS_CORE/mutex.c **** 	else if(MUTEX_ptr->owner_TCB_ptr != OSTCBCurPtr)
 680              		.loc 1 154 0
 681 02d8 7B68     		ldr	r3, [r7, #4]
 682 02da 5A68     		ldr	r2, [r3, #4]
 683 02dc 234B     		ldr	r3, .L43+8
 684 02de 1B68     		ldr	r3, [r3]
 685 02e0 9A42     		cmp	r2, r3
 686 02e2 05D0     		beq	.L40
 155:../../source/src/kernel/OS_CORE/mutex.c **** 	{
 156:../../source/src/kernel/OS_CORE/mutex.c **** 		CPU_CRITICAL_EXIT();
 687              		.loc 1 156 0
 688 02e4 7869     		ldr	r0, [r7, #20]
 689 02e6 FFF7FEFF 		bl	CPU_SR_Restore
 157:../../source/src/kernel/OS_CORE/mutex.c **** 		return -ERROR_MUTEX_UNLOCK_FAIL;
 690              		.loc 1 157 0
 691 02ea 6FF00103 		mvn	r3, #1
 692 02ee 35E0     		b	.L38
 693              	.L40:
 158:../../source/src/kernel/OS_CORE/mutex.c **** 	}
 159:../../source/src/kernel/OS_CORE/mutex.c **** 	if(RESERVED_PRIO != OSTCBCurPtr->reserve_prio)
 694              		.loc 1 159 0
 695 02f0 1E4B     		ldr	r3, .L43+8
 696 02f2 1B68     		ldr	r3, [r3]
 697 02f4 DB68     		ldr	r3, [r3, #12]
 698 02f6 002B     		cmp	r3, #0
 699 02f8 0DD0     		beq	.L41
 700              	.LBB3:
 160:../../source/src/kernel/OS_CORE/mutex.c **** 	{
 161:../../source/src/kernel/OS_CORE/mutex.c **** 		TASK_PRIO_TYPE buffer = OSTCBCurPtr->reserve_prio;
 701              		.loc 1 161 0
 702 02fa 1C4B     		ldr	r3, .L43+8
 703 02fc 1B68     		ldr	r3, [r3]
 704 02fe DB68     		ldr	r3, [r3, #12]
 705 0300 3B61     		str	r3, [r7, #16]
 162:../../source/src/kernel/OS_CORE/mutex.c **** 		OSTCBCurPtr->reserve_prio = RESERVED_PRIO;
 706              		.loc 1 162 0
 707 0302 1A4B     		ldr	r3, .L43+8
 708 0304 1B68     		ldr	r3, [r3]
 709 0306 0022     		movs	r2, #0
 710 0308 DA60     		str	r2, [r3, #12]
 163:../../source/src/kernel/OS_CORE/mutex.c **** 		task_change_prio_self(buffer);
 711              		.loc 1 163 0
 712 030a 184B     		ldr	r3, .L43+8
 713 030c 1B68     		ldr	r3, [r3]
 714 030e 3969     		ldr	r1, [r7, #16]
 715 0310 1846     		mov	r0, r3
 716 0312 FFF7FEFF 		bl	task_change_prio
 717              	.L41:
 718              	.LBE3:
 164:../../source/src/kernel/OS_CORE/mutex.c **** 	}
 165:../../source/src/kernel/OS_CORE/mutex.c **** 	struct insert_sort_data *buffer_ptr = insert_sort_delete_head(&MUTEX_ptr->mutex_insert_sort_TCB_li
ARM GAS  G:\Users\Jaxb\AppData\Local\Temp\ccxK0LLV.s 			page 17


 719              		.loc 1 165 0
 720 0316 7B68     		ldr	r3, [r7, #4]
 721 0318 0833     		adds	r3, r3, #8
 722 031a 1846     		mov	r0, r3
 723 031c FFF7FEFF 		bl	insert_sort_delete_head
 724 0320 F860     		str	r0, [r7, #12]
 166:../../source/src/kernel/OS_CORE/mutex.c **** 	if(NULL == buffer_ptr) // no task is waiting for the mutex
 725              		.loc 1 166 0
 726 0322 FB68     		ldr	r3, [r7, #12]
 727 0324 002B     		cmp	r3, #0
 728 0326 0AD1     		bne	.L42
 167:../../source/src/kernel/OS_CORE/mutex.c **** 	{
 168:../../source/src/kernel/OS_CORE/mutex.c **** 		MUTEX_ptr->mutex_flag = MUTEX_UNLOCK;
 729              		.loc 1 168 0
 730 0328 7B68     		ldr	r3, [r7, #4]
 731 032a 0122     		movs	r2, #1
 732 032c 1A60     		str	r2, [r3]
 169:../../source/src/kernel/OS_CORE/mutex.c **** 		MUTEX_ptr->owner_TCB_ptr = NULL;
 733              		.loc 1 169 0
 734 032e 7B68     		ldr	r3, [r7, #4]
 735 0330 0022     		movs	r2, #0
 736 0332 5A60     		str	r2, [r3, #4]
 170:../../source/src/kernel/OS_CORE/mutex.c **** 		CPU_CRITICAL_EXIT();
 737              		.loc 1 170 0
 738 0334 7869     		ldr	r0, [r7, #20]
 739 0336 FFF7FEFF 		bl	CPU_SR_Restore
 171:../../source/src/kernel/OS_CORE/mutex.c **** 		return FUN_EXECUTE_SUCCESSFULLY;
 740              		.loc 1 171 0
 741 033a 0023     		movs	r3, #0
 742 033c 0EE0     		b	.L38
 743              	.L42:
 172:../../source/src/kernel/OS_CORE/mutex.c **** 	}
 173:../../source/src/kernel/OS_CORE/mutex.c **** 	else// a task is waiting for the mutex
 174:../../source/src/kernel/OS_CORE/mutex.c **** 	{
 175:../../source/src/kernel/OS_CORE/mutex.c **** 		remove_from_suspend_list((TCB *)(buffer_ptr->data_ptr));
 744              		.loc 1 175 0
 745 033e FB68     		ldr	r3, [r7, #12]
 746 0340 1B68     		ldr	r3, [r3]
 747 0342 1846     		mov	r0, r3
 748 0344 FFF7FEFF 		bl	remove_from_suspend_list
 176:../../source/src/kernel/OS_CORE/mutex.c **** 		MUTEX_ptr->owner_TCB_ptr = (TCB *)(buffer_ptr->data_ptr);
 749              		.loc 1 176 0
 750 0348 FB68     		ldr	r3, [r7, #12]
 751 034a 1A68     		ldr	r2, [r3]
 752 034c 7B68     		ldr	r3, [r7, #4]
 753 034e 5A60     		str	r2, [r3, #4]
 177:../../source/src/kernel/OS_CORE/mutex.c **** 		schedule();
 754              		.loc 1 177 0
 755 0350 FFF7FEFF 		bl	schedule
 178:../../source/src/kernel/OS_CORE/mutex.c **** 		CPU_CRITICAL_EXIT();
 756              		.loc 1 178 0
 757 0354 7869     		ldr	r0, [r7, #20]
 758 0356 FFF7FEFF 		bl	CPU_SR_Restore
 179:../../source/src/kernel/OS_CORE/mutex.c **** 		return FUN_EXECUTE_SUCCESSFULLY;
 759              		.loc 1 179 0
 760 035a 0023     		movs	r3, #0
 761              	.L38:
ARM GAS  G:\Users\Jaxb\AppData\Local\Temp\ccxK0LLV.s 			page 18


 180:../../source/src/kernel/OS_CORE/mutex.c **** 	}
 181:../../source/src/kernel/OS_CORE/mutex.c **** }
 762              		.loc 1 181 0
 763 035c 1846     		mov	r0, r3
 764 035e 1837     		adds	r7, r7, #24
 765              	.LCFI30:
 766              		.cfi_def_cfa_offset 8
 767 0360 BD46     		mov	sp, r7
 768              	.LCFI31:
 769              		.cfi_def_cfa_register 13
 770              		@ sp needed
 771 0362 80BD     		pop	{r7, pc}
 772              	.L44:
 773              		.align	2
 774              	.L43:
 775 0364 00000000 		.word	.LC0
 776 0368 C8000000 		.word	.LC4
 777 036c 00000000 		.word	OSTCBCurPtr
 778              		.cfi_endproc
 779              	.LFE16:
 780              		.size	mutex_unlock, .-mutex_unlock
 781              		.global	__rtmsym_mutex_unlock_name
 782              		.section	.rodata.name
 783 0027 00       		.align	2
 784              		.type	__rtmsym_mutex_unlock_name, %object
 785              		.size	__rtmsym_mutex_unlock_name, 13
 786              	__rtmsym_mutex_unlock_name:
 787 0028 6D757465 		.ascii	"mutex_unlock\000"
 787      785F756E 
 787      6C6F636B 
 787      00
 788              		.global	__rtmsym_mutex_unlock
 789              		.section	.RTMSymTab
 790              		.align	2
 791              		.type	__rtmsym_mutex_unlock, %object
 792              		.size	__rtmsym_mutex_unlock, 8
 793              	__rtmsym_mutex_unlock:
 794 0018 00000000 		.word	mutex_unlock
 795 001c 00000000 		.word	__rtmsym_mutex_unlock_name
 796              		.section	.rodata
 797 00fe 0000     		.align	2
 798              	.LC5:
 799 0100 6572726F 		.ascii	"error fun name : mutex_del\012error para : MUTEX_pt"
 799      72206675 
 799      6E206E61 
 799      6D65203A 
 799      206D7574 
 800 0130 720A00   		.ascii	"r\012\000"
 801              		.text
 802              		.align	1
 803              		.global	mutex_del
 804              		.syntax unified
 805              		.thumb
 806              		.thumb_func
 807              		.fpu softvfp
 808              		.type	mutex_del, %function
 809              	mutex_del:
ARM GAS  G:\Users\Jaxb\AppData\Local\Temp\ccxK0LLV.s 			page 19


 810              	.LFB17:
 182:../../source/src/kernel/OS_CORE/mutex.c **** EXPORT_SYMBOL(mutex_unlock);
 183:../../source/src/kernel/OS_CORE/mutex.c **** 
 184:../../source/src/kernel/OS_CORE/mutex.c **** int mutex_del(MUTEX *MUTEX_ptr)
 185:../../source/src/kernel/OS_CORE/mutex.c **** {
 811              		.loc 1 185 0
 812              		.cfi_startproc
 813              		@ args = 0, pretend = 0, frame = 16
 814              		@ frame_needed = 1, uses_anonymous_args = 0
 815 0370 80B5     		push	{r7, lr}
 816              	.LCFI32:
 817              		.cfi_def_cfa_offset 8
 818              		.cfi_offset 7, -8
 819              		.cfi_offset 14, -4
 820 0372 84B0     		sub	sp, sp, #16
 821              	.LCFI33:
 822              		.cfi_def_cfa_offset 24
 823 0374 00AF     		add	r7, sp, #0
 824              	.LCFI34:
 825              		.cfi_def_cfa_register 7
 826 0376 7860     		str	r0, [r7, #4]
 186:../../source/src/kernel/OS_CORE/mutex.c **** 	ASSERT(NULL != MUTEX_ptr);
 827              		.loc 1 186 0
 828 0378 7B68     		ldr	r3, [r7, #4]
 829 037a 002B     		cmp	r3, #0
 830 037c 03D1     		bne	.L46
 831              		.loc 1 186 0 is_stmt 0 discriminator 1
 832 037e BA21     		movs	r1, #186
 833 0380 1A48     		ldr	r0, .L52
 834 0382 FFF7FEFF 		bl	_ASSERT
 835              	.L46:
 187:../../source/src/kernel/OS_CORE/mutex.c **** #if CONFIG_PARA_CHECK
 188:../../source/src/kernel/OS_CORE/mutex.c **** 	if(NULL == MUTEX_ptr)
 836              		.loc 1 188 0 is_stmt 1
 837 0386 7B68     		ldr	r3, [r7, #4]
 838 0388 002B     		cmp	r3, #0
 839 038a 05D1     		bne	.L47
 189:../../source/src/kernel/OS_CORE/mutex.c **** 	{
 190:../../source/src/kernel/OS_CORE/mutex.c **** 		OS_ERROR_PARA_MESSAGE_DISPLAY(mutex_del,MUTEX_ptr);
 840              		.loc 1 190 0
 841 038c 1848     		ldr	r0, .L52+4
 842 038e FFF7FEFF 		bl	ka_printf
 191:../../source/src/kernel/OS_CORE/mutex.c **** 		return -ERROR_NULL_INPUT_PTR;
 843              		.loc 1 191 0
 844 0392 6FF0FE03 		mvn	r3, #254
 845 0396 24E0     		b	.L48
 846              	.L47:
 192:../../source/src/kernel/OS_CORE/mutex.c **** 	}
 193:../../source/src/kernel/OS_CORE/mutex.c **** #endif
 194:../../source/src/kernel/OS_CORE/mutex.c **** 	TCB *TCB_ptr;
 195:../../source/src/kernel/OS_CORE/mutex.c **** 	struct insert_sort_data *insert_sort_data_ptr = insert_sort_delete_head(&MUTEX_ptr->mutex_insert_s
 847              		.loc 1 195 0
 848 0398 7B68     		ldr	r3, [r7, #4]
 849 039a 0833     		adds	r3, r3, #8
 850 039c 1846     		mov	r0, r3
 851 039e FFF7FEFF 		bl	insert_sort_delete_head
 852 03a2 F860     		str	r0, [r7, #12]
ARM GAS  G:\Users\Jaxb\AppData\Local\Temp\ccxK0LLV.s 			page 20


 196:../../source/src/kernel/OS_CORE/mutex.c **** 	while(NULL != insert_sort_data_ptr)
 853              		.loc 1 196 0
 854 03a4 19E0     		b	.L49
 855              	.L51:
 197:../../source/src/kernel/OS_CORE/mutex.c **** 	{
 198:../../source/src/kernel/OS_CORE/mutex.c **** 		TCB_ptr = (TCB *)(insert_sort_data_ptr->data_ptr);
 856              		.loc 1 198 0
 857 03a6 FB68     		ldr	r3, [r7, #12]
 858 03a8 1B68     		ldr	r3, [r3]
 859 03aa BB60     		str	r3, [r7, #8]
 199:../../source/src/kernel/OS_CORE/mutex.c **** 		ASSERT(STATE_WAIT_MUTEX_FOREVER == TCB_ptr->task_state);
 860              		.loc 1 199 0
 861 03ac BB68     		ldr	r3, [r7, #8]
 862 03ae 1B7C     		ldrb	r3, [r3, #16]	@ zero_extendqisi2
 863 03b0 0A2B     		cmp	r3, #10
 864 03b2 03D0     		beq	.L50
 865              		.loc 1 199 0 is_stmt 0 discriminator 1
 866 03b4 C721     		movs	r1, #199
 867 03b6 0D48     		ldr	r0, .L52
 868 03b8 FFF7FEFF 		bl	_ASSERT
 869              	.L50:
 200:../../source/src/kernel/OS_CORE/mutex.c **** 		remove_from_suspend_list(TCB_ptr);
 870              		.loc 1 200 0 is_stmt 1
 871 03bc B868     		ldr	r0, [r7, #8]
 872 03be FFF7FEFF 		bl	remove_from_suspend_list
 201:../../source/src/kernel/OS_CORE/mutex.c **** 		set_bad_state(TCB_ptr);
 873              		.loc 1 201 0
 874 03c2 BB68     		ldr	r3, [r7, #8]
 875 03c4 9B6B     		ldr	r3, [r3, #56]
 876 03c6 43F00202 		orr	r2, r3, #2
 877 03ca BB68     		ldr	r3, [r7, #8]
 878 03cc 9A63     		str	r2, [r3, #56]
 202:../../source/src/kernel/OS_CORE/mutex.c **** 		insert_sort_data_ptr = insert_sort_delete_head(&MUTEX_ptr->mutex_insert_sort_TCB_list);
 879              		.loc 1 202 0
 880 03ce 7B68     		ldr	r3, [r7, #4]
 881 03d0 0833     		adds	r3, r3, #8
 882 03d2 1846     		mov	r0, r3
 883 03d4 FFF7FEFF 		bl	insert_sort_delete_head
 884 03d8 F860     		str	r0, [r7, #12]
 885              	.L49:
 196:../../source/src/kernel/OS_CORE/mutex.c **** 	{
 886              		.loc 1 196 0
 887 03da FB68     		ldr	r3, [r7, #12]
 888 03dc 002B     		cmp	r3, #0
 889 03de E2D1     		bne	.L51
 203:../../source/src/kernel/OS_CORE/mutex.c **** 	}
 204:../../source/src/kernel/OS_CORE/mutex.c **** 	return FUN_EXECUTE_SUCCESSFULLY;
 890              		.loc 1 204 0
 891 03e0 0023     		movs	r3, #0
 892              	.L48:
 205:../../source/src/kernel/OS_CORE/mutex.c **** }
 893              		.loc 1 205 0
 894 03e2 1846     		mov	r0, r3
 895 03e4 1037     		adds	r7, r7, #16
 896              	.LCFI35:
 897              		.cfi_def_cfa_offset 8
 898 03e6 BD46     		mov	sp, r7
ARM GAS  G:\Users\Jaxb\AppData\Local\Temp\ccxK0LLV.s 			page 21


 899              	.LCFI36:
 900              		.cfi_def_cfa_register 13
 901              		@ sp needed
 902 03e8 80BD     		pop	{r7, pc}
 903              	.L53:
 904 03ea 00BF     		.align	2
 905              	.L52:
 906 03ec 00000000 		.word	.LC0
 907 03f0 00010000 		.word	.LC5
 908              		.cfi_endproc
 909              	.LFE17:
 910              		.size	mutex_del, .-mutex_del
 911              		.global	__rtmsym_mutex_del_name
 912              		.section	.rodata.name
 913 0035 000000   		.align	2
 914              		.type	__rtmsym_mutex_del_name, %object
 915              		.size	__rtmsym_mutex_del_name, 10
 916              	__rtmsym_mutex_del_name:
 917 0038 6D757465 		.ascii	"mutex_del\000"
 917      785F6465 
 917      6C00
 918              		.global	__rtmsym_mutex_del
 919              		.section	.RTMSymTab
 920              		.align	2
 921              		.type	__rtmsym_mutex_del, %object
 922              		.size	__rtmsym_mutex_del, 8
 923              	__rtmsym_mutex_del:
 924 0020 00000000 		.word	mutex_del
 925 0024 00000000 		.word	__rtmsym_mutex_del_name
 926              		.text
 927              	.Letext0:
 928              		.file 2 "../../source/include/os_lib/double_linked_list.h"
 929              		.file 3 "../../source/include/os_cpu/kakaosstdint.h"
 930              		.file 4 "../../source/include/os_lib/insert_sort_oo.h"
 931              		.file 5 "../../source/include/os_core/task_state.h"
 932              		.file 6 "../../source/include/os_core/TCB.h"
 933              		.file 7 "../../source/include/os_core/mutex.h"
 934              		.file 8 "../../source/include/os_cpu/os_cpu_stm32.h"
 935              		.file 9 "../../source/include/os_core/export.h"