ARM GAS  G:\Users\Jaxb\AppData\Local\Temp\ccAJTzse.s 			page 1


   1              		.cpu cortex-m3
   2              		.eabi_attribute 20, 1
   3              		.eabi_attribute 21, 1
   4              		.eabi_attribute 23, 3
   5              		.eabi_attribute 24, 1
   6              		.eabi_attribute 25, 1
   7              		.eabi_attribute 26, 1
   8              		.eabi_attribute 30, 2
   9              		.eabi_attribute 34, 1
  10              		.eabi_attribute 18, 4
  11              		.file	"mutex.c"
  12              		.text
  13              	.Ltext0:
  14              		.cfi_sections	.debug_frame
  15              		.align	1
  16              		.p2align 2,,3
  17              		.syntax unified
  18              		.thumb
  19              		.thumb_func
  20              		.fpu softvfp
  21              		.type	compare, %function
  22              	compare:
  23              	.LFB10:
  24              		.file 1 "../../source/src/kernel/OS_CORE/mutex.c"
   1:../../source/src/kernel/OS_CORE/mutex.c **** #include <mutex.h>
   2:../../source/src/kernel/OS_CORE/mutex.c **** #include <os_schedule.h>
   3:../../source/src/kernel/OS_CORE/mutex.c **** #include <myassert.h>
   4:../../source/src/kernel/OS_CORE/mutex.c **** #include <os_cpu.h>
   5:../../source/src/kernel/OS_CORE/mutex.c **** #include <os_suspend.h>
   6:../../source/src/kernel/OS_CORE/mutex.c **** 
   7:../../source/src/kernel/OS_CORE/mutex.c **** extern volatile TCB * OSTCBCurPtr;
   8:../../source/src/kernel/OS_CORE/mutex.c **** 
   9:../../source/src/kernel/OS_CORE/mutex.c **** inline static int compare(struct insert_sort_data *data1,struct insert_sort_data *data2)
  10:../../source/src/kernel/OS_CORE/mutex.c **** {
  25              		.loc 1 10 0
  26              		.cfi_startproc
  27              		@ args = 0, pretend = 0, frame = 0
  28              		@ frame_needed = 0, uses_anonymous_args = 0
  29              		@ link register save eliminated.
  30              	.LVL0:
  11:../../source/src/kernel/OS_CORE/mutex.c **** 	return ((TCB*)(data1->data_ptr))->prio - ((TCB*)(data2->data_ptr))->prio;
  31              		.loc 1 11 0
  32 0000 0268     		ldr	r2, [r0]
  33 0002 0B68     		ldr	r3, [r1]
  34 0004 D068     		ldr	r0, [r2, #12]
  35              	.LVL1:
  36 0006 DB68     		ldr	r3, [r3, #12]
  12:../../source/src/kernel/OS_CORE/mutex.c **** }
  37              		.loc 1 12 0
  38 0008 C01A     		subs	r0, r0, r3
  39 000a 7047     		bx	lr
  40              		.cfi_endproc
  41              	.LFE10:
  42              		.size	compare, .-compare
  43              		.align	1
  44              		.p2align 2,,3
  45              		.syntax unified
ARM GAS  G:\Users\Jaxb\AppData\Local\Temp\ccAJTzse.s 			page 2


  46              		.thumb
  47              		.thumb_func
  48              		.fpu softvfp
  49              		.type	value_cmp, %function
  50              	value_cmp:
  51              	.LFB11:
  13:../../source/src/kernel/OS_CORE/mutex.c **** 
  14:../../source/src/kernel/OS_CORE/mutex.c **** inline static int value_cmp(void *data1,void *data2)
  15:../../source/src/kernel/OS_CORE/mutex.c **** {
  52              		.loc 1 15 0
  53              		.cfi_startproc
  54              		@ args = 0, pretend = 0, frame = 0
  55              		@ frame_needed = 0, uses_anonymous_args = 0
  56              		@ link register save eliminated.
  57              	.LVL2:
  16:../../source/src/kernel/OS_CORE/mutex.c **** 	return ((TCB*)data1)->prio - ((TCB*)data2)->prio;
  58              		.loc 1 16 0
  59 000c C068     		ldr	r0, [r0, #12]
  60              	.LVL3:
  61 000e CB68     		ldr	r3, [r1, #12]
  17:../../source/src/kernel/OS_CORE/mutex.c **** }
  62              		.loc 1 17 0
  63 0010 C01A     		subs	r0, r0, r3
  64 0012 7047     		bx	lr
  65              		.cfi_endproc
  66              	.LFE11:
  67              		.size	value_cmp, .-value_cmp
  68              		.align	1
  69              		.p2align 2,,3
  70              		.global	mutex_init
  71              		.syntax unified
  72              		.thumb
  73              		.thumb_func
  74              		.fpu softvfp
  75              		.type	mutex_init, %function
  76              	mutex_init:
  77              	.LFB12:
  18:../../source/src/kernel/OS_CORE/mutex.c **** 
  19:../../source/src/kernel/OS_CORE/mutex.c **** int mutex_init(MUTEX *MUTEX_ptr)
  20:../../source/src/kernel/OS_CORE/mutex.c **** {
  78              		.loc 1 20 0
  79              		.cfi_startproc
  80              		@ args = 0, pretend = 0, frame = 0
  81              		@ frame_needed = 0, uses_anonymous_args = 0
  82              	.LVL4:
  83 0014 70B5     		push	{r4, r5, r6, lr}
  84              	.LCFI0:
  85              		.cfi_def_cfa_offset 16
  86              		.cfi_offset 4, -16
  87              		.cfi_offset 5, -12
  88              		.cfi_offset 6, -8
  89              		.cfi_offset 14, -4
  21:../../source/src/kernel/OS_CORE/mutex.c **** 	ASSERT(NULL != MUTEX_ptr);
  90              		.loc 1 21 0
  91 0016 0546     		mov	r5, r0
  92 0018 B0B1     		cbz	r0, .L10
  93              	.LVL5:
ARM GAS  G:\Users\Jaxb\AppData\Local\Temp\ccAJTzse.s 			page 3


  22:../../source/src/kernel/OS_CORE/mutex.c **** #if CONFIG_PARA_CHECK
  23:../../source/src/kernel/OS_CORE/mutex.c **** 	if(NULL == MUTEX_ptr)
  24:../../source/src/kernel/OS_CORE/mutex.c **** 	{
  25:../../source/src/kernel/OS_CORE/mutex.c **** 		OS_ERROR_PARA_MESSAGE_DISPLAY(mutex_init,MUTEX_ptr);
  26:../../source/src/kernel/OS_CORE/mutex.c **** 		return -ERROR_NULL_INPUT_PTR;
  27:../../source/src/kernel/OS_CORE/mutex.c **** 	}
  28:../../source/src/kernel/OS_CORE/mutex.c **** #endif
  29:../../source/src/kernel/OS_CORE/mutex.c **** 	CPU_SR_ALLOC();
  30:../../source/src/kernel/OS_CORE/mutex.c **** 	CPU_CRITICAL_ENTER();
  94              		.loc 1 30 0
  95 001a FFF7FEFF 		bl	CPU_SR_Save
  96              	.LVL6:
  31:../../source/src/kernel/OS_CORE/mutex.c **** 	if (g_interrupt_count > 0)
  97              		.loc 1 31 0
  98 001e 124B     		ldr	r3, .L12
  30:../../source/src/kernel/OS_CORE/mutex.c **** 	if (g_interrupt_count > 0)
  99              		.loc 1 30 0
 100 0020 0646     		mov	r6, r0
 101              	.LVL7:
 102              		.loc 1 31 0
 103 0022 1B68     		ldr	r3, [r3]
 104 0024 002B     		cmp	r3, #0
 105 0026 19DC     		bgt	.L11
  32:../../source/src/kernel/OS_CORE/mutex.c **** 	{
  33:../../source/src/kernel/OS_CORE/mutex.c **** 		CPU_CRITICAL_EXIT();
  34:../../source/src/kernel/OS_CORE/mutex.c **** 		return -ERROR_FUN_USE_IN_INTER;
  35:../../source/src/kernel/OS_CORE/mutex.c **** 	}
  36:../../source/src/kernel/OS_CORE/mutex.c **** 	MUTEX_ptr->mutex_flag = MUTEX_UNLOCK;
  37:../../source/src/kernel/OS_CORE/mutex.c **** 	MUTEX_ptr->owner_TCB_ptr = NULL;
 106              		.loc 1 37 0
 107 0028 0024     		movs	r4, #0
 108 002a 0123     		movs	r3, #1
  38:../../source/src/kernel/OS_CORE/mutex.c **** 	init_insert_sort_entity(
 109              		.loc 1 38 0
 110 002c 2246     		mov	r2, r4
  37:../../source/src/kernel/OS_CORE/mutex.c **** 	init_insert_sort_entity(
 111              		.loc 1 37 0
 112 002e C5E90034 		strd	r3, r4, [r5]
 113              		.loc 1 38 0
 114 0032 0E49     		ldr	r1, .L12+4
 115 0034 0E4B     		ldr	r3, .L12+8
 116 0036 05F10800 		add	r0, r5, #8
 117              	.LVL8:
 118 003a FFF7FEFF 		bl	init_insert_sort_entity
 119              	.LVL9:
  39:../../source/src/kernel/OS_CORE/mutex.c **** 		&MUTEX_ptr->mutex_insert_sort_TCB_list,
  40:../../source/src/kernel/OS_CORE/mutex.c **** 		compare,
  41:../../source/src/kernel/OS_CORE/mutex.c **** 		NULL,
  42:../../source/src/kernel/OS_CORE/mutex.c **** 		value_cmp
  43:../../source/src/kernel/OS_CORE/mutex.c **** 		);
  44:../../source/src/kernel/OS_CORE/mutex.c **** 	CPU_CRITICAL_EXIT();
 120              		.loc 1 44 0
 121 003e 3046     		mov	r0, r6
 122 0040 FFF7FEFF 		bl	CPU_SR_Restore
 123              	.LVL10:
  45:../../source/src/kernel/OS_CORE/mutex.c **** 	return FUN_EXECUTE_SUCCESSFULLY;
 124              		.loc 1 45 0
ARM GAS  G:\Users\Jaxb\AppData\Local\Temp\ccAJTzse.s 			page 4


 125 0044 2046     		mov	r0, r4
  46:../../source/src/kernel/OS_CORE/mutex.c **** }
 126              		.loc 1 46 0
 127 0046 70BD     		pop	{r4, r5, r6, pc}
 128              	.LVL11:
 129              	.L10:
  21:../../source/src/kernel/OS_CORE/mutex.c **** #if CONFIG_PARA_CHECK
 130              		.loc 1 21 0 discriminator 1
 131 0048 1521     		movs	r1, #21
 132 004a 0A48     		ldr	r0, .L12+12
 133              	.LVL12:
 134 004c FFF7FEFF 		bl	_ASSERT
 135              	.LVL13:
  25:../../source/src/kernel/OS_CORE/mutex.c **** 		return -ERROR_NULL_INPUT_PTR;
 136              		.loc 1 25 0 discriminator 1
 137 0050 0948     		ldr	r0, .L12+16
 138 0052 FFF7FEFF 		bl	ka_printf
 139              	.LVL14:
  26:../../source/src/kernel/OS_CORE/mutex.c **** 	}
 140              		.loc 1 26 0 discriminator 1
 141 0056 6FF0FE00 		mvn	r0, #254
 142              		.loc 1 46 0 discriminator 1
 143 005a 70BD     		pop	{r4, r5, r6, pc}
 144              	.LVL15:
 145              	.L11:
  33:../../source/src/kernel/OS_CORE/mutex.c **** 		return -ERROR_FUN_USE_IN_INTER;
 146              		.loc 1 33 0
 147 005c FFF7FEFF 		bl	CPU_SR_Restore
 148              	.LVL16:
  34:../../source/src/kernel/OS_CORE/mutex.c **** 	}
 149              		.loc 1 34 0
 150 0060 6FF0FC00 		mvn	r0, #252
 151              		.loc 1 46 0
 152 0064 70BD     		pop	{r4, r5, r6, pc}
 153              	.LVL17:
 154              	.L13:
 155 0066 00BF     		.align	2
 156              	.L12:
 157 0068 00000000 		.word	g_interrupt_count
 158 006c 00000000 		.word	compare
 159 0070 00000000 		.word	value_cmp
 160 0074 00000000 		.word	.LC0
 161 0078 28000000 		.word	.LC1
 162              		.cfi_endproc
 163              	.LFE12:
 164              		.size	mutex_init, .-mutex_init
 165              		.align	1
 166              		.p2align 2,,3
 167              		.global	mutex_lock
 168              		.syntax unified
 169              		.thumb
 170              		.thumb_func
 171              		.fpu softvfp
 172              		.type	mutex_lock, %function
 173              	mutex_lock:
 174              	.LFB13:
  47:../../source/src/kernel/OS_CORE/mutex.c **** 
ARM GAS  G:\Users\Jaxb\AppData\Local\Temp\ccAJTzse.s 			page 5


  48:../../source/src/kernel/OS_CORE/mutex.c **** int mutex_lock(MUTEX *MUTEX_ptr)
  49:../../source/src/kernel/OS_CORE/mutex.c **** {
 175              		.loc 1 49 0
 176              		.cfi_startproc
 177              		@ args = 0, pretend = 0, frame = 24
 178              		@ frame_needed = 0, uses_anonymous_args = 0
 179              	.LVL18:
 180 007c F0B5     		push	{r4, r5, r6, r7, lr}
 181              	.LCFI1:
 182              		.cfi_def_cfa_offset 20
 183              		.cfi_offset 4, -20
 184              		.cfi_offset 5, -16
 185              		.cfi_offset 6, -12
 186              		.cfi_offset 7, -8
 187              		.cfi_offset 14, -4
  50:../../source/src/kernel/OS_CORE/mutex.c **** 	ASSERT(NULL != MUTEX_ptr);
 188              		.loc 1 50 0
 189 007e 0446     		mov	r4, r0
  49:../../source/src/kernel/OS_CORE/mutex.c **** 	ASSERT(NULL != MUTEX_ptr);
 190              		.loc 1 49 0
 191 0080 87B0     		sub	sp, sp, #28
 192              	.LCFI2:
 193              		.cfi_def_cfa_offset 48
 194              		.loc 1 50 0
 195 0082 0028     		cmp	r0, #0
 196 0084 4AD0     		beq	.L31
 197              	.LVL19:
  51:../../source/src/kernel/OS_CORE/mutex.c **** #if CONFIG_PARA_CHECK
  52:../../source/src/kernel/OS_CORE/mutex.c **** 	if(NULL == MUTEX_ptr)
  53:../../source/src/kernel/OS_CORE/mutex.c **** 	{
  54:../../source/src/kernel/OS_CORE/mutex.c **** 		OS_ERROR_PARA_MESSAGE_DISPLAY(mutex_lock,MUTEX_ptr);
  55:../../source/src/kernel/OS_CORE/mutex.c **** 		return -ERROR_NULL_INPUT_PTR;
  56:../../source/src/kernel/OS_CORE/mutex.c **** 	}
  57:../../source/src/kernel/OS_CORE/mutex.c **** #endif
  58:../../source/src/kernel/OS_CORE/mutex.c **** 	CPU_SR_ALLOC();
  59:../../source/src/kernel/OS_CORE/mutex.c **** 	CPU_CRITICAL_ENTER();//enter critical
 198              		.loc 1 59 0
 199 0086 FFF7FEFF 		bl	CPU_SR_Save
 200              	.LVL20:
  60:../../source/src/kernel/OS_CORE/mutex.c **** 	if (g_interrupt_count > 0)
 201              		.loc 1 60 0
 202 008a 314B     		ldr	r3, .L36
  59:../../source/src/kernel/OS_CORE/mutex.c **** 	if (g_interrupt_count > 0)
 203              		.loc 1 59 0
 204 008c 0646     		mov	r6, r0
 205              	.LVL21:
 206              		.loc 1 60 0
 207 008e 1B68     		ldr	r3, [r3]
 208 0090 002B     		cmp	r3, #0
 209 0092 58DC     		bgt	.L32
  61:../../source/src/kernel/OS_CORE/mutex.c **** 	{
  62:../../source/src/kernel/OS_CORE/mutex.c **** 		CPU_CRITICAL_EXIT();
  63:../../source/src/kernel/OS_CORE/mutex.c **** 		return -ERROR_FUN_USE_IN_INTER;
  64:../../source/src/kernel/OS_CORE/mutex.c **** 	}
  65:../../source/src/kernel/OS_CORE/mutex.c **** 	if(MUTEX_UNLOCK == MUTEX_ptr->mutex_flag)
 210              		.loc 1 65 0
 211 0094 2368     		ldr	r3, [r4]
ARM GAS  G:\Users\Jaxb\AppData\Local\Temp\ccAJTzse.s 			page 6


 212 0096 012B     		cmp	r3, #1
 213 0098 4BD0     		beq	.L33
 214              	.LBB2:
  66:../../source/src/kernel/OS_CORE/mutex.c **** 	{
  67:../../source/src/kernel/OS_CORE/mutex.c **** 		MUTEX_ptr->mutex_flag = MUTEX_LOCK;
  68:../../source/src/kernel/OS_CORE/mutex.c **** 		MUTEX_ptr->owner_TCB_ptr = (TCB *)OSTCBCurPtr;
  69:../../source/src/kernel/OS_CORE/mutex.c **** 		CPU_CRITICAL_EXIT();
  70:../../source/src/kernel/OS_CORE/mutex.c **** 	}
  71:../../source/src/kernel/OS_CORE/mutex.c **** 	else
  72:../../source/src/kernel/OS_CORE/mutex.c **** 	{
  73:../../source/src/kernel/OS_CORE/mutex.c **** 		ASSERT(MUTEX_LOCK == MUTEX_ptr->mutex_flag);
 215              		.loc 1 73 0
 216 009a 002B     		cmp	r3, #0
 217 009c 39D1     		bne	.L34
 218              	.LVL22:
 219              	.L18:
  74:../../source/src/kernel/OS_CORE/mutex.c **** 		if(MUTEX_ptr->owner_TCB_ptr == (TCB *)OSTCBCurPtr)
 220              		.loc 1 74 0
 221 009e 2D4D     		ldr	r5, .L36+4
 222 00a0 6368     		ldr	r3, [r4, #4]
 223 00a2 2968     		ldr	r1, [r5]
 224 00a4 8B42     		cmp	r3, r1
 225 00a6 2ED0     		beq	.L35
  75:../../source/src/kernel/OS_CORE/mutex.c **** 		{
  76:../../source/src/kernel/OS_CORE/mutex.c **** 			CPU_CRITICAL_EXIT();
  77:../../source/src/kernel/OS_CORE/mutex.c **** 			return FUN_EXECUTE_SUCCESSFULLY;
  78:../../source/src/kernel/OS_CORE/mutex.c **** 		}
  79:../../source/src/kernel/OS_CORE/mutex.c **** 		struct insert_sort_data data;
  80:../../source/src/kernel/OS_CORE/mutex.c **** 		init_insert_sort_data(&data,(void *)OSTCBCurPtr);
 226              		.loc 1 80 0
 227 00a8 6846     		mov	r0, sp
  81:../../source/src/kernel/OS_CORE/mutex.c **** 		insert_sort_insert_into(&data,&MUTEX_ptr->mutex_insert_sort_TCB_list);
 228              		.loc 1 81 0
 229 00aa 04F10807 		add	r7, r4, #8
  80:../../source/src/kernel/OS_CORE/mutex.c **** 		insert_sort_insert_into(&data,&MUTEX_ptr->mutex_insert_sort_TCB_list);
 230              		.loc 1 80 0
 231 00ae FFF7FEFF 		bl	init_insert_sort_data
 232              	.LVL23:
 233              		.loc 1 81 0
 234 00b2 3946     		mov	r1, r7
 235 00b4 6846     		mov	r0, sp
 236 00b6 FFF7FEFF 		bl	insert_sort_insert_into
 237              	.LVL24:
  82:../../source/src/kernel/OS_CORE/mutex.c **** 		TCB *TCB_ptr = (TCB *)(insert_sort_get_first_data_ptr(&MUTEX_ptr->mutex_insert_sort_TCB_list)->da
 238              		.loc 1 82 0
 239 00ba 3846     		mov	r0, r7
 240 00bc FFF7FEFF 		bl	insert_sort_get_first_data_ptr
 241              	.LVL25:
  83:../../source/src/kernel/OS_CORE/mutex.c **** 		if(MUTEX_ptr->owner_TCB_ptr->prio > TCB_ptr->prio)
 242              		.loc 1 83 0
 243 00c0 6368     		ldr	r3, [r4, #4]
 244 00c2 0168     		ldr	r1, [r0]
 245 00c4 DA68     		ldr	r2, [r3, #12]
 246 00c6 C968     		ldr	r1, [r1, #12]
 247 00c8 8A42     		cmp	r2, r1
 248 00ca 05D9     		bls	.L21
  84:../../source/src/kernel/OS_CORE/mutex.c **** 		{
ARM GAS  G:\Users\Jaxb\AppData\Local\Temp\ccAJTzse.s 			page 7


  85:../../source/src/kernel/OS_CORE/mutex.c **** 			if(RESERVED_PRIO == MUTEX_ptr->owner_TCB_ptr->reserve_prio)
 249              		.loc 1 85 0
 250 00cc 1869     		ldr	r0, [r3, #16]
 251              	.LVL26:
 252 00ce 00B9     		cbnz	r0, .L22
  86:../../source/src/kernel/OS_CORE/mutex.c **** 			{
  87:../../source/src/kernel/OS_CORE/mutex.c **** 				MUTEX_ptr->owner_TCB_ptr->reserve_prio = MUTEX_ptr->owner_TCB_ptr->prio;
 253              		.loc 1 87 0
 254 00d0 1A61     		str	r2, [r3, #16]
 255              	.L22:
  88:../../source/src/kernel/OS_CORE/mutex.c **** 			}
  89:../../source/src/kernel/OS_CORE/mutex.c **** 			task_change_prio(MUTEX_ptr->owner_TCB_ptr,TCB_ptr->prio);
 256              		.loc 1 89 0
 257 00d2 1846     		mov	r0, r3
 258 00d4 FFF7FEFF 		bl	task_change_prio
 259              	.LVL27:
 260              	.L21:
  90:../../source/src/kernel/OS_CORE/mutex.c **** 		}
  91:../../source/src/kernel/OS_CORE/mutex.c **** 		sys_suspend(STATE_WAIT_MUTEX_FOREVER);
 261              		.loc 1 91 0
 262 00d8 0A20     		movs	r0, #10
 263 00da FFF7FEFF 		bl	sys_suspend
 264              	.LVL28:
  92:../../source/src/kernel/OS_CORE/mutex.c **** 		CPU_CRITICAL_EXIT(); //exit  critical
 265              		.loc 1 92 0
 266 00de 3046     		mov	r0, r6
 267 00e0 FFF7FEFF 		bl	CPU_SR_Restore
 268              	.LVL29:
  93:../../source/src/kernel/OS_CORE/mutex.c **** 		//go back here=========go back here
  94:../../source/src/kernel/OS_CORE/mutex.c **** 		CPU_CRITICAL_ENTER();
 269              		.loc 1 94 0
 270 00e4 FFF7FEFF 		bl	CPU_SR_Save
 271              	.LVL30:
  95:../../source/src/kernel/OS_CORE/mutex.c **** 		if(TCB_state_is_bad(OSTCBCurPtr))
 272              		.loc 1 95 0
 273 00e8 2A68     		ldr	r2, [r5]
 274 00ea 946B     		ldr	r4, [r2, #56]
 275              	.LVL31:
 276 00ec 14F00204 		ands	r4, r4, #2
 277 00f0 0AD0     		beq	.L30
  96:../../source/src/kernel/OS_CORE/mutex.c **** 		{
  97:../../source/src/kernel/OS_CORE/mutex.c **** 			clear_bad_state(OSTCBCurPtr);
 278              		.loc 1 97 0
 279 00f2 936B     		ldr	r3, [r2, #56]
 280 00f4 23F00203 		bic	r3, r3, #2
 281 00f8 9363     		str	r3, [r2, #56]
  98:../../source/src/kernel/OS_CORE/mutex.c **** 			CPU_CRITICAL_EXIT();
 282              		.loc 1 98 0
 283 00fa FFF7FEFF 		bl	CPU_SR_Restore
 284              	.LVL32:
  99:../../source/src/kernel/OS_CORE/mutex.c **** 			return -ERROR_MODULE_DELETED;
 285              		.loc 1 99 0
 286 00fe 6FF0F900 		mvn	r0, #249
 287              	.LVL33:
 288              	.L14:
 289              	.LBE2:
 100:../../source/src/kernel/OS_CORE/mutex.c **** 		}
ARM GAS  G:\Users\Jaxb\AppData\Local\Temp\ccAJTzse.s 			page 8


 101:../../source/src/kernel/OS_CORE/mutex.c **** 		CPU_CRITICAL_EXIT();
 102:../../source/src/kernel/OS_CORE/mutex.c **** 	}
 103:../../source/src/kernel/OS_CORE/mutex.c **** 	return FUN_EXECUTE_SUCCESSFULLY;
 104:../../source/src/kernel/OS_CORE/mutex.c **** }
 290              		.loc 1 104 0
 291 0102 07B0     		add	sp, sp, #28
 292              	.LCFI3:
 293              		.cfi_remember_state
 294              		.cfi_def_cfa_offset 20
 295              		@ sp needed
 296 0104 F0BD     		pop	{r4, r5, r6, r7, pc}
 297              	.LVL34:
 298              	.L35:
 299              	.LCFI4:
 300              		.cfi_restore_state
 301              	.LBB3:
  76:../../source/src/kernel/OS_CORE/mutex.c **** 			return FUN_EXECUTE_SUCCESSFULLY;
 302              		.loc 1 76 0
 303 0106 3046     		mov	r0, r6
 304              	.LVL35:
 305              	.L30:
 306 0108 FFF7FEFF 		bl	CPU_SR_Restore
 307              	.LVL36:
  77:../../source/src/kernel/OS_CORE/mutex.c **** 		}
 308              		.loc 1 77 0
 309 010c 0020     		movs	r0, #0
 310              	.LBE3:
 311              		.loc 1 104 0
 312 010e 07B0     		add	sp, sp, #28
 313              	.LCFI5:
 314              		.cfi_remember_state
 315              		.cfi_def_cfa_offset 20
 316              		@ sp needed
 317 0110 F0BD     		pop	{r4, r5, r6, r7, pc}
 318              	.LVL37:
 319              	.L34:
 320              	.LCFI6:
 321              		.cfi_restore_state
 322              	.LBB4:
  73:../../source/src/kernel/OS_CORE/mutex.c **** 		if(MUTEX_ptr->owner_TCB_ptr == (TCB *)OSTCBCurPtr)
 323              		.loc 1 73 0 discriminator 1
 324 0112 4921     		movs	r1, #73
 325 0114 1048     		ldr	r0, .L36+8
 326              	.LVL38:
 327 0116 FFF7FEFF 		bl	_ASSERT
 328              	.LVL39:
 329 011a C0E7     		b	.L18
 330              	.LVL40:
 331              	.L31:
 332              	.LBE4:
  50:../../source/src/kernel/OS_CORE/mutex.c **** #if CONFIG_PARA_CHECK
 333              		.loc 1 50 0 discriminator 1
 334 011c 3221     		movs	r1, #50
 335 011e 0E48     		ldr	r0, .L36+8
 336              	.LVL41:
 337 0120 FFF7FEFF 		bl	_ASSERT
 338              	.LVL42:
ARM GAS  G:\Users\Jaxb\AppData\Local\Temp\ccAJTzse.s 			page 9


  54:../../source/src/kernel/OS_CORE/mutex.c **** 		return -ERROR_NULL_INPUT_PTR;
 339              		.loc 1 54 0 discriminator 1
 340 0124 0D48     		ldr	r0, .L36+12
 341 0126 FFF7FEFF 		bl	ka_printf
 342              	.LVL43:
  55:../../source/src/kernel/OS_CORE/mutex.c **** 	}
 343              		.loc 1 55 0 discriminator 1
 344 012a 6FF0FE00 		mvn	r0, #254
 345              		.loc 1 104 0 discriminator 1
 346 012e 07B0     		add	sp, sp, #28
 347              	.LCFI7:
 348              		.cfi_remember_state
 349              		.cfi_def_cfa_offset 20
 350              		@ sp needed
 351 0130 F0BD     		pop	{r4, r5, r6, r7, pc}
 352              	.LVL44:
 353              	.L33:
 354              	.LCFI8:
 355              		.cfi_restore_state
  67:../../source/src/kernel/OS_CORE/mutex.c **** 		MUTEX_ptr->owner_TCB_ptr = (TCB *)OSTCBCurPtr;
 356              		.loc 1 67 0
 357 0132 0025     		movs	r5, #0
  68:../../source/src/kernel/OS_CORE/mutex.c **** 		CPU_CRITICAL_EXIT();
 358              		.loc 1 68 0
 359 0134 074B     		ldr	r3, .L36+4
  67:../../source/src/kernel/OS_CORE/mutex.c **** 		MUTEX_ptr->owner_TCB_ptr = (TCB *)OSTCBCurPtr;
 360              		.loc 1 67 0
 361 0136 2560     		str	r5, [r4]
  68:../../source/src/kernel/OS_CORE/mutex.c **** 		CPU_CRITICAL_EXIT();
 362              		.loc 1 68 0
 363 0138 1B68     		ldr	r3, [r3]
 364 013a 6360     		str	r3, [r4, #4]
  69:../../source/src/kernel/OS_CORE/mutex.c **** 	}
 365              		.loc 1 69 0
 366 013c FFF7FEFF 		bl	CPU_SR_Restore
 367              	.LVL45:
 103:../../source/src/kernel/OS_CORE/mutex.c **** }
 368              		.loc 1 103 0
 369 0140 2846     		mov	r0, r5
 370              		.loc 1 104 0
 371 0142 07B0     		add	sp, sp, #28
 372              	.LCFI9:
 373              		.cfi_remember_state
 374              		.cfi_def_cfa_offset 20
 375              		@ sp needed
 376 0144 F0BD     		pop	{r4, r5, r6, r7, pc}
 377              	.LVL46:
 378              	.L32:
 379              	.LCFI10:
 380              		.cfi_restore_state
  62:../../source/src/kernel/OS_CORE/mutex.c **** 		return -ERROR_FUN_USE_IN_INTER;
 381              		.loc 1 62 0
 382 0146 FFF7FEFF 		bl	CPU_SR_Restore
 383              	.LVL47:
  63:../../source/src/kernel/OS_CORE/mutex.c **** 	}
 384              		.loc 1 63 0
 385 014a 6FF0FC00 		mvn	r0, #252
ARM GAS  G:\Users\Jaxb\AppData\Local\Temp\ccAJTzse.s 			page 10


 386 014e D8E7     		b	.L14
 387              	.L37:
 388              		.align	2
 389              	.L36:
 390 0150 00000000 		.word	g_interrupt_count
 391 0154 00000000 		.word	OSTCBCurPtr
 392 0158 00000000 		.word	.LC0
 393 015c 5C000000 		.word	.LC2
 394              		.cfi_endproc
 395              	.LFE13:
 396              		.size	mutex_lock, .-mutex_lock
 397              		.align	1
 398              		.p2align 2,,3
 399              		.global	mutex_try_lock
 400              		.syntax unified
 401              		.thumb
 402              		.thumb_func
 403              		.fpu softvfp
 404              		.type	mutex_try_lock, %function
 405              	mutex_try_lock:
 406              	.LFB14:
 105:../../source/src/kernel/OS_CORE/mutex.c **** 
 106:../../source/src/kernel/OS_CORE/mutex.c **** int mutex_try_lock(MUTEX *MUTEX_ptr)
 107:../../source/src/kernel/OS_CORE/mutex.c **** {
 407              		.loc 1 107 0
 408              		.cfi_startproc
 409              		@ args = 0, pretend = 0, frame = 0
 410              		@ frame_needed = 0, uses_anonymous_args = 0
 411              	.LVL48:
 412 0160 38B5     		push	{r3, r4, r5, lr}
 413              	.LCFI11:
 414              		.cfi_def_cfa_offset 16
 415              		.cfi_offset 3, -16
 416              		.cfi_offset 4, -12
 417              		.cfi_offset 5, -8
 418              		.cfi_offset 14, -4
 108:../../source/src/kernel/OS_CORE/mutex.c **** 	ASSERT(NULL != MUTEX_ptr);
 419              		.loc 1 108 0
 420 0162 0546     		mov	r5, r0
 421 0164 70B1     		cbz	r0, .L48
 422              	.LVL49:
 109:../../source/src/kernel/OS_CORE/mutex.c **** #if CONFIG_PARA_CHECK
 110:../../source/src/kernel/OS_CORE/mutex.c **** 	if(NULL == MUTEX_ptr)
 111:../../source/src/kernel/OS_CORE/mutex.c **** 	{
 112:../../source/src/kernel/OS_CORE/mutex.c **** 		OS_ERROR_PARA_MESSAGE_DISPLAY(mutex_try_lock,MUTEX_ptr);
 113:../../source/src/kernel/OS_CORE/mutex.c **** 		return -ERROR_NULL_INPUT_PTR;
 114:../../source/src/kernel/OS_CORE/mutex.c **** 	}
 115:../../source/src/kernel/OS_CORE/mutex.c **** #endif
 116:../../source/src/kernel/OS_CORE/mutex.c **** 	CPU_SR_ALLOC();
 117:../../source/src/kernel/OS_CORE/mutex.c **** 	CPU_CRITICAL_ENTER();//enter critical
 423              		.loc 1 117 0
 424 0166 FFF7FEFF 		bl	CPU_SR_Save
 425              	.LVL50:
 118:../../source/src/kernel/OS_CORE/mutex.c **** 	if(MUTEX_UNLOCK == MUTEX_ptr->mutex_flag)
 426              		.loc 1 118 0
 427 016a 2B68     		ldr	r3, [r5]
 117:../../source/src/kernel/OS_CORE/mutex.c **** 	if(MUTEX_UNLOCK == MUTEX_ptr->mutex_flag)
ARM GAS  G:\Users\Jaxb\AppData\Local\Temp\ccAJTzse.s 			page 11


 428              		.loc 1 117 0
 429 016c 0446     		mov	r4, r0
 430              	.LVL51:
 431              		.loc 1 118 0
 432 016e 012B     		cmp	r3, #1
 433 0170 12D1     		bne	.L49
 119:../../source/src/kernel/OS_CORE/mutex.c **** 	{
 120:../../source/src/kernel/OS_CORE/mutex.c **** 		MUTEX_ptr->mutex_flag = MUTEX_LOCK;
 434              		.loc 1 120 0
 435 0172 0024     		movs	r4, #0
 121:../../source/src/kernel/OS_CORE/mutex.c **** 		MUTEX_ptr->owner_TCB_ptr = (TCB *)OSTCBCurPtr;
 436              		.loc 1 121 0
 437 0174 0E4B     		ldr	r3, .L51
 120:../../source/src/kernel/OS_CORE/mutex.c **** 		MUTEX_ptr->owner_TCB_ptr = (TCB *)OSTCBCurPtr;
 438              		.loc 1 120 0
 439 0176 2C60     		str	r4, [r5]
 440              		.loc 1 121 0
 441 0178 1B68     		ldr	r3, [r3]
 442 017a 6B60     		str	r3, [r5, #4]
 122:../../source/src/kernel/OS_CORE/mutex.c **** 		CPU_CRITICAL_EXIT();
 443              		.loc 1 122 0
 444 017c FFF7FEFF 		bl	CPU_SR_Restore
 445              	.LVL52:
 123:../../source/src/kernel/OS_CORE/mutex.c **** 		return FUN_EXECUTE_SUCCESSFULLY;
 446              		.loc 1 123 0
 447 0180 2046     		mov	r0, r4
 124:../../source/src/kernel/OS_CORE/mutex.c **** 	}
 125:../../source/src/kernel/OS_CORE/mutex.c **** 	else
 126:../../source/src/kernel/OS_CORE/mutex.c **** 	{
 127:../../source/src/kernel/OS_CORE/mutex.c **** 		ASSERT(MUTEX_LOCK == MUTEX_ptr->mutex_flag);
 128:../../source/src/kernel/OS_CORE/mutex.c **** 		CPU_CRITICAL_EXIT(); //exit  critical
 129:../../source/src/kernel/OS_CORE/mutex.c **** 		return -ERROR_MUTEX_LOCK_FAIL;
 130:../../source/src/kernel/OS_CORE/mutex.c **** 	}
 131:../../source/src/kernel/OS_CORE/mutex.c **** }
 448              		.loc 1 131 0
 449 0182 38BD     		pop	{r3, r4, r5, pc}
 450              	.LVL53:
 451              	.L48:
 108:../../source/src/kernel/OS_CORE/mutex.c **** #if CONFIG_PARA_CHECK
 452              		.loc 1 108 0 discriminator 1
 453 0184 6C21     		movs	r1, #108
 454 0186 0B48     		ldr	r0, .L51+4
 455              	.LVL54:
 456 0188 FFF7FEFF 		bl	_ASSERT
 457              	.LVL55:
 112:../../source/src/kernel/OS_CORE/mutex.c **** 		return -ERROR_NULL_INPUT_PTR;
 458              		.loc 1 112 0 discriminator 1
 459 018c 0A48     		ldr	r0, .L51+8
 460 018e FFF7FEFF 		bl	ka_printf
 461              	.LVL56:
 113:../../source/src/kernel/OS_CORE/mutex.c **** 	}
 462              		.loc 1 113 0 discriminator 1
 463 0192 6FF0FE00 		mvn	r0, #254
 464              		.loc 1 131 0 discriminator 1
 465 0196 38BD     		pop	{r3, r4, r5, pc}
 466              	.LVL57:
 467              	.L49:
ARM GAS  G:\Users\Jaxb\AppData\Local\Temp\ccAJTzse.s 			page 12


 127:../../source/src/kernel/OS_CORE/mutex.c **** 		CPU_CRITICAL_EXIT(); //exit  critical
 468              		.loc 1 127 0
 469 0198 2BB9     		cbnz	r3, .L50
 470              	.LVL58:
 471              	.L41:
 128:../../source/src/kernel/OS_CORE/mutex.c **** 		return -ERROR_MUTEX_LOCK_FAIL;
 472              		.loc 1 128 0
 473 019a 2046     		mov	r0, r4
 474 019c FFF7FEFF 		bl	CPU_SR_Restore
 475              	.LVL59:
 129:../../source/src/kernel/OS_CORE/mutex.c **** 	}
 476              		.loc 1 129 0
 477 01a0 4FF0FF30 		mov	r0, #-1
 478              		.loc 1 131 0
 479 01a4 38BD     		pop	{r3, r4, r5, pc}
 480              	.LVL60:
 481              	.L50:
 127:../../source/src/kernel/OS_CORE/mutex.c **** 		CPU_CRITICAL_EXIT(); //exit  critical
 482              		.loc 1 127 0 discriminator 1
 483 01a6 7F21     		movs	r1, #127
 484 01a8 0248     		ldr	r0, .L51+4
 485              	.LVL61:
 486 01aa FFF7FEFF 		bl	_ASSERT
 487              	.LVL62:
 488 01ae F4E7     		b	.L41
 489              	.L52:
 490              		.align	2
 491              	.L51:
 492 01b0 00000000 		.word	OSTCBCurPtr
 493 01b4 00000000 		.word	.LC0
 494 01b8 90000000 		.word	.LC3
 495              		.cfi_endproc
 496              	.LFE14:
 497              		.size	mutex_try_lock, .-mutex_try_lock
 498              		.align	1
 499              		.p2align 2,,3
 500              		.global	mutex_unlock
 501              		.syntax unified
 502              		.thumb
 503              		.thumb_func
 504              		.fpu softvfp
 505              		.type	mutex_unlock, %function
 506              	mutex_unlock:
 507              	.LFB15:
 132:../../source/src/kernel/OS_CORE/mutex.c **** 
 133:../../source/src/kernel/OS_CORE/mutex.c **** int mutex_unlock(MUTEX *MUTEX_ptr)
 134:../../source/src/kernel/OS_CORE/mutex.c **** {
 508              		.loc 1 134 0
 509              		.cfi_startproc
 510              		@ args = 0, pretend = 0, frame = 0
 511              		@ frame_needed = 0, uses_anonymous_args = 0
 512              	.LVL63:
 513 01bc 70B5     		push	{r4, r5, r6, lr}
 514              	.LCFI12:
 515              		.cfi_def_cfa_offset 16
 516              		.cfi_offset 4, -16
 517              		.cfi_offset 5, -12
ARM GAS  G:\Users\Jaxb\AppData\Local\Temp\ccAJTzse.s 			page 13


 518              		.cfi_offset 6, -8
 519              		.cfi_offset 14, -4
 135:../../source/src/kernel/OS_CORE/mutex.c **** 	ASSERT(NULL != MUTEX_ptr);
 520              		.loc 1 135 0
 521 01be 0446     		mov	r4, r0
 522 01c0 0028     		cmp	r0, #0
 523 01c2 33D0     		beq	.L66
 524              	.LVL64:
 136:../../source/src/kernel/OS_CORE/mutex.c **** #if CONFIG_PARA_CHECK
 137:../../source/src/kernel/OS_CORE/mutex.c **** 	if(NULL == MUTEX_ptr)
 138:../../source/src/kernel/OS_CORE/mutex.c **** 	{
 139:../../source/src/kernel/OS_CORE/mutex.c **** 		OS_ERROR_PARA_MESSAGE_DISPLAY(mutex_unlock,MUTEX_ptr);
 140:../../source/src/kernel/OS_CORE/mutex.c **** 		return -ERROR_NULL_INPUT_PTR;
 141:../../source/src/kernel/OS_CORE/mutex.c **** 	}
 142:../../source/src/kernel/OS_CORE/mutex.c **** #endif
 143:../../source/src/kernel/OS_CORE/mutex.c **** 	CPU_SR_ALLOC();
 144:../../source/src/kernel/OS_CORE/mutex.c **** 	CPU_CRITICAL_ENTER();//enter critical
 525              		.loc 1 144 0
 526 01c4 FFF7FEFF 		bl	CPU_SR_Save
 527              	.LVL65:
 145:../../source/src/kernel/OS_CORE/mutex.c **** 	if(MUTEX_UNLOCK == MUTEX_ptr->mutex_flag)
 528              		.loc 1 145 0
 529 01c8 2368     		ldr	r3, [r4]
 144:../../source/src/kernel/OS_CORE/mutex.c **** 	if(MUTEX_UNLOCK == MUTEX_ptr->mutex_flag)
 530              		.loc 1 144 0
 531 01ca 0646     		mov	r6, r0
 532              	.LVL66:
 533              		.loc 1 145 0
 534 01cc 012B     		cmp	r3, #1
 535 01ce 14D0     		beq	.L65
 146:../../source/src/kernel/OS_CORE/mutex.c **** 	{
 147:../../source/src/kernel/OS_CORE/mutex.c **** 		CPU_CRITICAL_EXIT();
 148:../../source/src/kernel/OS_CORE/mutex.c **** 		return FUN_EXECUTE_SUCCESSFULLY;
 149:../../source/src/kernel/OS_CORE/mutex.c **** 	}
 150:../../source/src/kernel/OS_CORE/mutex.c **** 	else if(MUTEX_ptr->owner_TCB_ptr != OSTCBCurPtr)
 536              		.loc 1 150 0
 537 01d0 1E4A     		ldr	r2, .L70
 538 01d2 6368     		ldr	r3, [r4, #4]
 539 01d4 1268     		ldr	r2, [r2]
 540 01d6 9342     		cmp	r3, r2
 541 01d8 32D1     		bne	.L67
 151:../../source/src/kernel/OS_CORE/mutex.c **** 	{
 152:../../source/src/kernel/OS_CORE/mutex.c **** 		CPU_CRITICAL_EXIT();
 153:../../source/src/kernel/OS_CORE/mutex.c **** 		return -ERROR_MUTEX_UNLOCK_FAIL;
 154:../../source/src/kernel/OS_CORE/mutex.c **** 	}
 155:../../source/src/kernel/OS_CORE/mutex.c **** 	if(RESERVED_PRIO != OSTCBCurPtr->reserve_prio)
 542              		.loc 1 155 0
 543 01da 1A69     		ldr	r2, [r3, #16]
 544 01dc 8AB9     		cbnz	r2, .L68
 156:../../source/src/kernel/OS_CORE/mutex.c **** 	{
 157:../../source/src/kernel/OS_CORE/mutex.c **** 		TASK_PRIO_TYPE buffer = OSTCBCurPtr->reserve_prio;
 158:../../source/src/kernel/OS_CORE/mutex.c **** 		OSTCBCurPtr->reserve_prio = RESERVED_PRIO;
 159:../../source/src/kernel/OS_CORE/mutex.c **** 		task_change_prio_self(buffer);
 160:../../source/src/kernel/OS_CORE/mutex.c **** 	}
 161:../../source/src/kernel/OS_CORE/mutex.c **** 	struct insert_sort_data *buffer_ptr = insert_sort_delete_head(&MUTEX_ptr->mutex_insert_sort_TCB_li
 545              		.loc 1 161 0
 546 01de 04F10800 		add	r0, r4, #8
ARM GAS  G:\Users\Jaxb\AppData\Local\Temp\ccAJTzse.s 			page 14


 547              	.LVL67:
 548 01e2 FFF7FEFF 		bl	insert_sort_delete_head
 549              	.LVL68:
 162:../../source/src/kernel/OS_CORE/mutex.c **** 	if(NULL == buffer_ptr) // no task is waiting for the mutex
 550              		.loc 1 162 0
 551 01e6 0546     		mov	r5, r0
 552 01e8 C0B1     		cbz	r0, .L69
 553              	.L58:
 163:../../source/src/kernel/OS_CORE/mutex.c **** 	{
 164:../../source/src/kernel/OS_CORE/mutex.c **** 		MUTEX_ptr->mutex_flag = MUTEX_UNLOCK;
 165:../../source/src/kernel/OS_CORE/mutex.c **** 		MUTEX_ptr->owner_TCB_ptr = NULL;
 166:../../source/src/kernel/OS_CORE/mutex.c **** 		CPU_CRITICAL_EXIT();
 167:../../source/src/kernel/OS_CORE/mutex.c **** 		return FUN_EXECUTE_SUCCESSFULLY;
 168:../../source/src/kernel/OS_CORE/mutex.c **** 	}
 169:../../source/src/kernel/OS_CORE/mutex.c **** 	else// a task is waiting for the mutex
 170:../../source/src/kernel/OS_CORE/mutex.c **** 	{
 171:../../source/src/kernel/OS_CORE/mutex.c **** 		remove_from_suspend_list((TCB *)(buffer_ptr->data_ptr));
 554              		.loc 1 171 0
 555 01ea 0068     		ldr	r0, [r0]
 556              	.LVL69:
 557 01ec FFF7FEFF 		bl	remove_from_suspend_list
 558              	.LVL70:
 172:../../source/src/kernel/OS_CORE/mutex.c **** 		MUTEX_ptr->owner_TCB_ptr = (TCB *)(buffer_ptr->data_ptr);
 559              		.loc 1 172 0
 560 01f0 2B68     		ldr	r3, [r5]
 561 01f2 6360     		str	r3, [r4, #4]
 173:../../source/src/kernel/OS_CORE/mutex.c **** 		schedule();
 562              		.loc 1 173 0
 563 01f4 FFF7FEFF 		bl	schedule
 564              	.LVL71:
 174:../../source/src/kernel/OS_CORE/mutex.c **** 		CPU_CRITICAL_EXIT();
 565              		.loc 1 174 0
 566 01f8 3046     		mov	r0, r6
 567              	.LVL72:
 568              	.L65:
 569 01fa FFF7FEFF 		bl	CPU_SR_Restore
 570              	.LVL73:
 175:../../source/src/kernel/OS_CORE/mutex.c **** 		return FUN_EXECUTE_SUCCESSFULLY;
 571              		.loc 1 175 0
 572 01fe 0020     		movs	r0, #0
 176:../../source/src/kernel/OS_CORE/mutex.c **** 	}
 177:../../source/src/kernel/OS_CORE/mutex.c **** }
 573              		.loc 1 177 0
 574 0200 70BD     		pop	{r4, r5, r6, pc}
 575              	.LVL74:
 576              	.L68:
 577              	.LBB5:
 158:../../source/src/kernel/OS_CORE/mutex.c **** 		task_change_prio_self(buffer);
 578              		.loc 1 158 0
 579 0202 0022     		movs	r2, #0
 157:../../source/src/kernel/OS_CORE/mutex.c **** 		OSTCBCurPtr->reserve_prio = RESERVED_PRIO;
 580              		.loc 1 157 0
 581 0204 1969     		ldr	r1, [r3, #16]
 582              	.LVL75:
 159:../../source/src/kernel/OS_CORE/mutex.c **** 	}
 583              		.loc 1 159 0
 584 0206 1846     		mov	r0, r3
ARM GAS  G:\Users\Jaxb\AppData\Local\Temp\ccAJTzse.s 			page 15


 585              	.LVL76:
 158:../../source/src/kernel/OS_CORE/mutex.c **** 		task_change_prio_self(buffer);
 586              		.loc 1 158 0
 587 0208 1A61     		str	r2, [r3, #16]
 159:../../source/src/kernel/OS_CORE/mutex.c **** 	}
 588              		.loc 1 159 0
 589 020a FFF7FEFF 		bl	task_change_prio
 590              	.LVL77:
 591              	.LBE5:
 161:../../source/src/kernel/OS_CORE/mutex.c **** 	if(NULL == buffer_ptr) // no task is waiting for the mutex
 592              		.loc 1 161 0
 593 020e 04F10800 		add	r0, r4, #8
 594 0212 FFF7FEFF 		bl	insert_sort_delete_head
 595              	.LVL78:
 162:../../source/src/kernel/OS_CORE/mutex.c **** 	{
 596              		.loc 1 162 0
 597 0216 0546     		mov	r5, r0
 598 0218 0028     		cmp	r0, #0
 599 021a E6D1     		bne	.L58
 600              	.L69:
 164:../../source/src/kernel/OS_CORE/mutex.c **** 		MUTEX_ptr->owner_TCB_ptr = NULL;
 601              		.loc 1 164 0
 602 021c 0123     		movs	r3, #1
 165:../../source/src/kernel/OS_CORE/mutex.c **** 		CPU_CRITICAL_EXIT();
 603              		.loc 1 165 0
 604 021e 6060     		str	r0, [r4, #4]
 164:../../source/src/kernel/OS_CORE/mutex.c **** 		MUTEX_ptr->owner_TCB_ptr = NULL;
 605              		.loc 1 164 0
 606 0220 2360     		str	r3, [r4]
 166:../../source/src/kernel/OS_CORE/mutex.c **** 		return FUN_EXECUTE_SUCCESSFULLY;
 607              		.loc 1 166 0
 608 0222 3046     		mov	r0, r6
 609              	.LVL79:
 610 0224 FFF7FEFF 		bl	CPU_SR_Restore
 611              	.LVL80:
 167:../../source/src/kernel/OS_CORE/mutex.c **** 	}
 612              		.loc 1 167 0
 613 0228 2846     		mov	r0, r5
 614              		.loc 1 177 0
 615 022a 70BD     		pop	{r4, r5, r6, pc}
 616              	.LVL81:
 617              	.L66:
 135:../../source/src/kernel/OS_CORE/mutex.c **** #if CONFIG_PARA_CHECK
 618              		.loc 1 135 0 discriminator 1
 619 022c 8721     		movs	r1, #135
 620 022e 0848     		ldr	r0, .L70+4
 621              	.LVL82:
 622 0230 FFF7FEFF 		bl	_ASSERT
 623              	.LVL83:
 139:../../source/src/kernel/OS_CORE/mutex.c **** 		return -ERROR_NULL_INPUT_PTR;
 624              		.loc 1 139 0 discriminator 1
 625 0234 0748     		ldr	r0, .L70+8
 626 0236 FFF7FEFF 		bl	ka_printf
 627              	.LVL84:
 140:../../source/src/kernel/OS_CORE/mutex.c **** 	}
 628              		.loc 1 140 0 discriminator 1
 629 023a 6FF0FE00 		mvn	r0, #254
ARM GAS  G:\Users\Jaxb\AppData\Local\Temp\ccAJTzse.s 			page 16


 630              		.loc 1 177 0 discriminator 1
 631 023e 70BD     		pop	{r4, r5, r6, pc}
 632              	.LVL85:
 633              	.L67:
 152:../../source/src/kernel/OS_CORE/mutex.c **** 		return -ERROR_MUTEX_UNLOCK_FAIL;
 634              		.loc 1 152 0
 635 0240 FFF7FEFF 		bl	CPU_SR_Restore
 636              	.LVL86:
 153:../../source/src/kernel/OS_CORE/mutex.c **** 	}
 637              		.loc 1 153 0
 638 0244 6FF00100 		mvn	r0, #1
 639              		.loc 1 177 0
 640 0248 70BD     		pop	{r4, r5, r6, pc}
 641              	.LVL87:
 642              	.L71:
 643 024a 00BF     		.align	2
 644              	.L70:
 645 024c 00000000 		.word	OSTCBCurPtr
 646 0250 00000000 		.word	.LC0
 647 0254 C8000000 		.word	.LC4
 648              		.cfi_endproc
 649              	.LFE15:
 650              		.size	mutex_unlock, .-mutex_unlock
 651              		.align	1
 652              		.p2align 2,,3
 653              		.global	mutex_del
 654              		.syntax unified
 655              		.thumb
 656              		.thumb_func
 657              		.fpu softvfp
 658              		.type	mutex_del, %function
 659              	mutex_del:
 660              	.LFB16:
 178:../../source/src/kernel/OS_CORE/mutex.c **** 
 179:../../source/src/kernel/OS_CORE/mutex.c **** int mutex_del(MUTEX *MUTEX_ptr)
 180:../../source/src/kernel/OS_CORE/mutex.c **** {
 661              		.loc 1 180 0
 662              		.cfi_startproc
 663              		@ args = 0, pretend = 0, frame = 0
 664              		@ frame_needed = 0, uses_anonymous_args = 0
 665              	.LVL88:
 666 0258 70B5     		push	{r4, r5, r6, lr}
 667              	.LCFI13:
 668              		.cfi_def_cfa_offset 16
 669              		.cfi_offset 4, -16
 670              		.cfi_offset 5, -12
 671              		.cfi_offset 6, -8
 672              		.cfi_offset 14, -4
 181:../../source/src/kernel/OS_CORE/mutex.c **** 	ASSERT(NULL != MUTEX_ptr);
 673              		.loc 1 181 0
 674 025a E0B1     		cbz	r0, .L83
 182:../../source/src/kernel/OS_CORE/mutex.c **** #if CONFIG_PARA_CHECK
 183:../../source/src/kernel/OS_CORE/mutex.c **** 	if(NULL == MUTEX_ptr)
 184:../../source/src/kernel/OS_CORE/mutex.c **** 	{
 185:../../source/src/kernel/OS_CORE/mutex.c **** 		OS_ERROR_PARA_MESSAGE_DISPLAY(mutex_del,MUTEX_ptr);
 186:../../source/src/kernel/OS_CORE/mutex.c **** 		return -ERROR_NULL_INPUT_PTR;
 187:../../source/src/kernel/OS_CORE/mutex.c **** 	}
ARM GAS  G:\Users\Jaxb\AppData\Local\Temp\ccAJTzse.s 			page 17


 188:../../source/src/kernel/OS_CORE/mutex.c **** #endif
 189:../../source/src/kernel/OS_CORE/mutex.c **** 	TCB *TCB_ptr;
 190:../../source/src/kernel/OS_CORE/mutex.c **** 	struct insert_sort_data *insert_sort_data_ptr = insert_sort_delete_head(&MUTEX_ptr->mutex_insert_s
 675              		.loc 1 190 0
 676 025c 00F10805 		add	r5, r0, #8
 677 0260 2846     		mov	r0, r5
 678              	.LVL89:
 679 0262 FFF7FEFF 		bl	insert_sort_delete_head
 680              	.LVL90:
 191:../../source/src/kernel/OS_CORE/mutex.c **** 	while(NULL != insert_sort_data_ptr)
 681              		.loc 1 191 0
 682 0266 A0B1     		cbz	r0, .L77
 192:../../source/src/kernel/OS_CORE/mutex.c **** 	{
 193:../../source/src/kernel/OS_CORE/mutex.c **** 		TCB_ptr = (TCB *)(insert_sort_data_ptr->data_ptr);
 194:../../source/src/kernel/OS_CORE/mutex.c **** 		ASSERT(STATE_WAIT_MUTEX_FOREVER == TCB_ptr->task_state);
 683              		.loc 1 194 0
 684 0268 104E     		ldr	r6, .L84
 685              	.L76:
 193:../../source/src/kernel/OS_CORE/mutex.c **** 		ASSERT(STATE_WAIT_MUTEX_FOREVER == TCB_ptr->task_state);
 686              		.loc 1 193 0
 687 026a 0468     		ldr	r4, [r0]
 688              	.LVL91:
 689              		.loc 1 194 0
 690 026c 237D     		ldrb	r3, [r4, #20]	@ zero_extendqisi2
 691 026e 0A2B     		cmp	r3, #10
 692 0270 03D0     		beq	.L75
 693              		.loc 1 194 0 is_stmt 0 discriminator 1
 694 0272 C221     		movs	r1, #194
 695 0274 3046     		mov	r0, r6
 696              	.LVL92:
 697 0276 FFF7FEFF 		bl	_ASSERT
 698              	.LVL93:
 699              	.L75:
 195:../../source/src/kernel/OS_CORE/mutex.c **** 		remove_from_suspend_list(TCB_ptr);
 700              		.loc 1 195 0 is_stmt 1
 701 027a 2046     		mov	r0, r4
 702 027c FFF7FEFF 		bl	remove_from_suspend_list
 703              	.LVL94:
 196:../../source/src/kernel/OS_CORE/mutex.c **** 		set_bad_state(TCB_ptr);
 704              		.loc 1 196 0
 705 0280 A36B     		ldr	r3, [r4, #56]
 197:../../source/src/kernel/OS_CORE/mutex.c **** 		insert_sort_data_ptr = insert_sort_delete_head(&MUTEX_ptr->mutex_insert_sort_TCB_list);
 706              		.loc 1 197 0
 707 0282 2846     		mov	r0, r5
 196:../../source/src/kernel/OS_CORE/mutex.c **** 		set_bad_state(TCB_ptr);
 708              		.loc 1 196 0
 709 0284 43F00203 		orr	r3, r3, #2
 710 0288 A363     		str	r3, [r4, #56]
 711              		.loc 1 197 0
 712 028a FFF7FEFF 		bl	insert_sort_delete_head
 713              	.LVL95:
 191:../../source/src/kernel/OS_CORE/mutex.c **** 	{
 714              		.loc 1 191 0
 715 028e 0028     		cmp	r0, #0
 716 0290 EBD1     		bne	.L76
 717              	.LVL96:
 718              	.L77:
ARM GAS  G:\Users\Jaxb\AppData\Local\Temp\ccAJTzse.s 			page 18


 198:../../source/src/kernel/OS_CORE/mutex.c **** 	}
 199:../../source/src/kernel/OS_CORE/mutex.c **** 	return FUN_EXECUTE_SUCCESSFULLY;
 719              		.loc 1 199 0
 720 0292 0020     		movs	r0, #0
 721              	.LVL97:
 200:../../source/src/kernel/OS_CORE/mutex.c **** }
 722              		.loc 1 200 0
 723 0294 70BD     		pop	{r4, r5, r6, pc}
 724              	.LVL98:
 725              	.L83:
 181:../../source/src/kernel/OS_CORE/mutex.c **** #if CONFIG_PARA_CHECK
 726              		.loc 1 181 0 discriminator 1
 727 0296 B521     		movs	r1, #181
 728 0298 0448     		ldr	r0, .L84
 729              	.LVL99:
 730 029a FFF7FEFF 		bl	_ASSERT
 731              	.LVL100:
 185:../../source/src/kernel/OS_CORE/mutex.c **** 		return -ERROR_NULL_INPUT_PTR;
 732              		.loc 1 185 0 discriminator 1
 733 029e 0448     		ldr	r0, .L84+4
 734 02a0 FFF7FEFF 		bl	ka_printf
 735              	.LVL101:
 186:../../source/src/kernel/OS_CORE/mutex.c **** 	}
 736              		.loc 1 186 0 discriminator 1
 737 02a4 6FF0FE00 		mvn	r0, #254
 738              		.loc 1 200 0 discriminator 1
 739 02a8 70BD     		pop	{r4, r5, r6, pc}
 740              	.L85:
 741 02aa 00BF     		.align	2
 742              	.L84:
 743 02ac 00000000 		.word	.LC0
 744 02b0 00010000 		.word	.LC5
 745              		.cfi_endproc
 746              	.LFE16:
 747              		.size	mutex_del, .-mutex_del
 748              		.section	.rodata.str1.4,"aMS",%progbits,1
 749              		.align	2
 750              	.LC0:
 751 0000 2E2E2F2E 		.ascii	"../../source/src/kernel/OS_CORE/mutex.c\000"
 751      2E2F736F 
 751      75726365 
 751      2F737263 
 751      2F6B6572 
 752              	.LC1:
 753 0028 6572726F 		.ascii	"error fun name : mutex_init\012error para : MUTEX_p"
 753      72206675 
 753      6E206E61 
 753      6D65203A 
 753      206D7574 
 754 0058 74720A00 		.ascii	"tr\012\000"
 755              	.LC2:
 756 005c 6572726F 		.ascii	"error fun name : mutex_lock\012error para : MUTEX_p"
 756      72206675 
 756      6E206E61 
 756      6D65203A 
 756      206D7574 
 757 008c 74720A00 		.ascii	"tr\012\000"
ARM GAS  G:\Users\Jaxb\AppData\Local\Temp\ccAJTzse.s 			page 19


 758              	.LC3:
 759 0090 6572726F 		.ascii	"error fun name : mutex_try_lock\012error para : MUT"
 759      72206675 
 759      6E206E61 
 759      6D65203A 
 759      206D7574 
 760 00c0 45585F70 		.ascii	"EX_ptr\012\000"
 760      74720A00 
 761              	.LC4:
 762 00c8 6572726F 		.ascii	"error fun name : mutex_unlock\012error para : MUTEX"
 762      72206675 
 762      6E206E61 
 762      6D65203A 
 762      206D7574 
 763 00f8 5F707472 		.ascii	"_ptr\012\000"
 763      0A00
 764 00fe 0000     		.space	2
 765              	.LC5:
 766 0100 6572726F 		.ascii	"error fun name : mutex_del\012error para : MUTEX_pt"
 766      72206675 
 766      6E206E61 
 766      6D65203A 
 766      206D7574 
 767 0130 720A00   		.ascii	"r\012\000"
 768              		.text
 769              	.Letext0:
 770              		.file 2 "../../source/include/os_lib/double_linked_list.h"
 771              		.file 3 "../../source/include/os_cpu/kakaosstdint.h"
 772              		.file 4 "../../source/include/os_lib/insert_sort_oo.h"
 773              		.file 5 "../../source/include/os_core/task_state.h"
 774              		.file 6 "../../source/include/os_core/TCB.h"
 775              		.file 7 "../../source/include/os_core/mutex.h"
 776              		.file 8 "../../source/include/os_cpu/os_cpu_stm32.h"
 777              		.file 9 "../../source/include/os_lib/myassert.h"
 778              		.file 10 "../../source/include/os_core/schedule/os_suspend.h"
 779              		.file 11 "../../source/include/os_lib/myMicroLIB.h"
 780              		.file 12 "../../source/include/os_core/schedule/os_schedule.h"
 781              		.section	.debug_info,"",%progbits
 782              	.Ldebug_info0:
 783 0000 5E090000 		.4byte	0x95e
 784 0004 0200     		.2byte	0x2
 785 0006 00000000 		.4byte	.Ldebug_abbrev0
 786 000a 04       		.byte	0x4
 787 000b 01       		.uleb128 0x1
 788 000c 0C050000 		.4byte	.LASF92
 789 0010 0C       		.byte	0xc
 790 0011 A3030000 		.4byte	.LASF93
 791 0015 F4010000 		.4byte	.LASF94
 792 0019 00000000 		.4byte	.Ltext0
 793 001d B4020000 		.4byte	.Letext0
 794 0021 00000000 		.4byte	.Ldebug_line0
 795 0025 02       		.uleb128 0x2
 796 0026 81000000 		.4byte	.LASF12
 797 002a 08       		.byte	0x8
 798 002b 02       		.byte	0x2
 799 002c 04       		.byte	0x4
 800 002d 4E000000 		.4byte	0x4e
ARM GAS  G:\Users\Jaxb\AppData\Local\Temp\ccAJTzse.s 			page 20


 801 0031 03       		.uleb128 0x3
 802 0032 00060000 		.4byte	.LASF0
 803 0036 02       		.byte	0x2
 804 0037 05       		.byte	0x5
 805 0038 4E000000 		.4byte	0x4e
 806 003c 02       		.byte	0x2
 807 003d 23       		.byte	0x23
 808 003e 00       		.uleb128 0
 809 003f 03       		.uleb128 0x3
 810 0040 BE050000 		.4byte	.LASF1
 811 0044 02       		.byte	0x2
 812 0045 05       		.byte	0x5
 813 0046 4E000000 		.4byte	0x4e
 814 004a 02       		.byte	0x2
 815 004b 23       		.byte	0x23
 816 004c 04       		.uleb128 0x4
 817 004d 00       		.byte	0
 818 004e 04       		.uleb128 0x4
 819 004f 04       		.byte	0x4
 820 0050 25000000 		.4byte	0x25
 821 0054 05       		.uleb128 0x5
 822 0055 01       		.byte	0x1
 823 0056 06       		.byte	0x6
 824 0057 33030000 		.4byte	.LASF2
 825 005b 05       		.uleb128 0x5
 826 005c 02       		.byte	0x2
 827 005d 05       		.byte	0x5
 828 005e B0000000 		.4byte	.LASF3
 829 0062 06       		.uleb128 0x6
 830 0063 04       		.byte	0x4
 831 0064 05       		.byte	0x5
 832 0065 696E7400 		.ascii	"int\000"
 833 0069 07       		.uleb128 0x7
 834 006a 62000000 		.4byte	0x62
 835 006e 05       		.uleb128 0x5
 836 006f 08       		.byte	0x8
 837 0070 05       		.byte	0x5
 838 0071 22020000 		.4byte	.LASF4
 839 0075 05       		.uleb128 0x5
 840 0076 01       		.byte	0x1
 841 0077 08       		.byte	0x8
 842 0078 A5020000 		.4byte	.LASF5
 843 007c 05       		.uleb128 0x5
 844 007d 02       		.byte	0x2
 845 007e 07       		.byte	0x7
 846 007f 85030000 		.4byte	.LASF6
 847 0083 08       		.uleb128 0x8
 848 0084 1B010000 		.4byte	.LASF8
 849 0088 03       		.byte	0x3
 850 0089 0C       		.byte	0xc
 851 008a 8E000000 		.4byte	0x8e
 852 008e 05       		.uleb128 0x5
 853 008f 04       		.byte	0x4
 854 0090 07       		.byte	0x7
 855 0091 4E030000 		.4byte	.LASF7
 856 0095 08       		.uleb128 0x8
 857 0096 DD050000 		.4byte	.LASF9
ARM GAS  G:\Users\Jaxb\AppData\Local\Temp\ccAJTzse.s 			page 21


 858 009a 03       		.byte	0x3
 859 009b 0D       		.byte	0xd
 860 009c A0000000 		.4byte	0xa0
 861 00a0 05       		.uleb128 0x5
 862 00a1 08       		.byte	0x8
 863 00a2 07       		.byte	0x7
 864 00a3 30020000 		.4byte	.LASF10
 865 00a7 08       		.uleb128 0x8
 866 00a8 02040000 		.4byte	.LASF11
 867 00ac 04       		.byte	0x4
 868 00ad 0D       		.byte	0xd
 869 00ae 95000000 		.4byte	0x95
 870 00b2 02       		.uleb128 0x2
 871 00b3 5B020000 		.4byte	.LASF13
 872 00b7 18       		.byte	0x18
 873 00b8 04       		.byte	0x4
 874 00b9 0F       		.byte	0xf
 875 00ba E9000000 		.4byte	0xe9
 876 00be 03       		.uleb128 0x3
 877 00bf 8A010000 		.4byte	.LASF14
 878 00c3 04       		.byte	0x4
 879 00c4 11       		.byte	0x11
 880 00c5 E9000000 		.4byte	0xe9
 881 00c9 02       		.byte	0x2
 882 00ca 23       		.byte	0x23
 883 00cb 00       		.uleb128 0
 884 00cc 03       		.uleb128 0x3
 885 00cd D1000000 		.4byte	.LASF15
 886 00d1 04       		.byte	0x4
 887 00d2 12       		.byte	0x12
 888 00d3 A7000000 		.4byte	0xa7
 889 00d7 02       		.byte	0x2
 890 00d8 23       		.byte	0x23
 891 00d9 08       		.uleb128 0x8
 892 00da 03       		.uleb128 0x3
 893 00db DF000000 		.4byte	.LASF16
 894 00df 04       		.byte	0x4
 895 00e0 13       		.byte	0x13
 896 00e1 25000000 		.4byte	0x25
 897 00e5 02       		.byte	0x2
 898 00e6 23       		.byte	0x23
 899 00e7 10       		.uleb128 0x10
 900 00e8 00       		.byte	0
 901 00e9 09       		.uleb128 0x9
 902 00ea 04       		.byte	0x4
 903 00eb 02       		.uleb128 0x2
 904 00ec 67040000 		.4byte	.LASF17
 905 00f0 18       		.byte	0x18
 906 00f1 04       		.byte	0x4
 907 00f2 1D       		.byte	0x1d
 908 00f3 3E010000 		.4byte	0x13e
 909 00f7 03       		.uleb128 0x3
 910 00f8 8B000000 		.4byte	.LASF18
 911 00fc 04       		.byte	0x4
 912 00fd 27       		.byte	0x27
 913 00fe 25000000 		.4byte	0x25
 914 0102 02       		.byte	0x2
ARM GAS  G:\Users\Jaxb\AppData\Local\Temp\ccAJTzse.s 			page 22


 915 0103 23       		.byte	0x23
 916 0104 00       		.uleb128 0
 917 0105 03       		.uleb128 0x3
 918 0106 C3050000 		.4byte	.LASF19
 919 010a 04       		.byte	0x4
 920 010b 28       		.byte	0x28
 921 010c 8E000000 		.4byte	0x8e
 922 0110 02       		.byte	0x2
 923 0111 23       		.byte	0x23
 924 0112 08       		.uleb128 0x8
 925 0113 03       		.uleb128 0x3
 926 0114 91040000 		.4byte	.LASF20
 927 0118 04       		.byte	0x4
 928 0119 2C       		.byte	0x2c
 929 011a 59010000 		.4byte	0x159
 930 011e 02       		.byte	0x2
 931 011f 23       		.byte	0x23
 932 0120 0C       		.uleb128 0xc
 933 0121 03       		.uleb128 0x3
 934 0122 6C020000 		.4byte	.LASF21
 935 0126 04       		.byte	0x4
 936 0127 2D       		.byte	0x2d
 937 0128 74010000 		.4byte	0x174
 938 012c 02       		.byte	0x2
 939 012d 23       		.byte	0x23
 940 012e 10       		.uleb128 0x10
 941 012f 03       		.uleb128 0x3
 942 0130 7B030000 		.4byte	.LASF22
 943 0134 04       		.byte	0x4
 944 0135 2E       		.byte	0x2e
 945 0136 8F010000 		.4byte	0x18f
 946 013a 02       		.byte	0x2
 947 013b 23       		.byte	0x23
 948 013c 14       		.uleb128 0x14
 949 013d 00       		.byte	0
 950 013e 0A       		.uleb128 0xa
 951 013f 01       		.byte	0x1
 952 0140 62000000 		.4byte	0x62
 953 0144 53010000 		.4byte	0x153
 954 0148 0B       		.uleb128 0xb
 955 0149 53010000 		.4byte	0x153
 956 014d 0B       		.uleb128 0xb
 957 014e 53010000 		.4byte	0x153
 958 0152 00       		.byte	0
 959 0153 04       		.uleb128 0x4
 960 0154 04       		.byte	0x4
 961 0155 B2000000 		.4byte	0xb2
 962 0159 04       		.uleb128 0x4
 963 015a 04       		.byte	0x4
 964 015b 3E010000 		.4byte	0x13e
 965 015f 0A       		.uleb128 0xa
 966 0160 01       		.byte	0x1
 967 0161 62000000 		.4byte	0x62
 968 0165 74010000 		.4byte	0x174
 969 0169 0B       		.uleb128 0xb
 970 016a 53010000 		.4byte	0x153
 971 016e 0B       		.uleb128 0xb
ARM GAS  G:\Users\Jaxb\AppData\Local\Temp\ccAJTzse.s 			page 23


 972 016f E9000000 		.4byte	0xe9
 973 0173 00       		.byte	0
 974 0174 04       		.uleb128 0x4
 975 0175 04       		.byte	0x4
 976 0176 5F010000 		.4byte	0x15f
 977 017a 0A       		.uleb128 0xa
 978 017b 01       		.byte	0x1
 979 017c 62000000 		.4byte	0x62
 980 0180 8F010000 		.4byte	0x18f
 981 0184 0B       		.uleb128 0xb
 982 0185 E9000000 		.4byte	0xe9
 983 0189 0B       		.uleb128 0xb
 984 018a E9000000 		.4byte	0xe9
 985 018e 00       		.byte	0
 986 018f 04       		.uleb128 0x4
 987 0190 04       		.byte	0x4
 988 0191 7A010000 		.4byte	0x17a
 989 0195 0C       		.uleb128 0xc
 990 0196 38010000 		.4byte	.LASF57
 991 019a 07       		.byte	0x7
 992 019b 01       		.byte	0x1
 993 019c 75000000 		.4byte	0x75
 994 01a0 05       		.byte	0x5
 995 01a1 04       		.byte	0x4
 996 01a2 E3010000 		.4byte	0x1e3
 997 01a6 0D       		.uleb128 0xd
 998 01a7 FA020000 		.4byte	.LASF23
 999 01ab 01       		.byte	0x1
 1000 01ac 0D       		.uleb128 0xd
 1001 01ad 06030000 		.4byte	.LASF24
 1002 01b1 02       		.byte	0x2
 1003 01b2 0D       		.uleb128 0xd
 1004 01b3 43000000 		.4byte	.LASF25
 1005 01b7 03       		.byte	0x3
 1006 01b8 0D       		.uleb128 0xd
 1007 01b9 7A040000 		.4byte	.LASF26
 1008 01bd 04       		.byte	0x4
 1009 01be 0D       		.uleb128 0xd
 1010 01bf BA000000 		.4byte	.LASF27
 1011 01c3 05       		.byte	0x5
 1012 01c4 0D       		.uleb128 0xd
 1013 01c5 F3000000 		.4byte	.LASF28
 1014 01c9 06       		.byte	0x6
 1015 01ca 0D       		.uleb128 0xd
 1016 01cb D3010000 		.4byte	.LASF29
 1017 01cf 07       		.byte	0x7
 1018 01d0 0D       		.uleb128 0xd
 1019 01d1 43010000 		.4byte	.LASF30
 1020 01d5 08       		.byte	0x8
 1021 01d6 0D       		.uleb128 0xd
 1022 01d7 CB030000 		.4byte	.LASF31
 1023 01db 09       		.byte	0x9
 1024 01dc 0D       		.uleb128 0xd
 1025 01dd 2A000000 		.4byte	.LASF32
 1026 01e1 0A       		.byte	0xa
 1027 01e2 00       		.byte	0
 1028 01e3 08       		.uleb128 0x8
ARM GAS  G:\Users\Jaxb\AppData\Local\Temp\ccAJTzse.s 			page 24


 1029 01e4 8E020000 		.4byte	.LASF33
 1030 01e8 05       		.byte	0x5
 1031 01e9 0F       		.byte	0xf
 1032 01ea 95010000 		.4byte	0x195
 1033 01ee 08       		.uleb128 0x8
 1034 01ef 22010000 		.4byte	.LASF34
 1035 01f3 06       		.byte	0x6
 1036 01f4 09       		.byte	0x9
 1037 01f5 8E000000 		.4byte	0x8e
 1038 01f9 08       		.uleb128 0x8
 1039 01fa 00000000 		.4byte	.LASF35
 1040 01fe 06       		.byte	0x6
 1041 01ff 0B       		.byte	0xb
 1042 0200 8E000000 		.4byte	0x8e
 1043 0204 0E       		.uleb128 0xe
 1044 0205 F3040000 		.4byte	.LASF63
 1045 0209 06       		.byte	0x6
 1046 020a 12       		.byte	0x12
 1047 020b 69000000 		.4byte	0x69
 1048 020f 01       		.byte	0x1
 1049 0210 01       		.byte	0x1
 1050 0211 02       		.uleb128 0x2
 1051 0212 99040000 		.4byte	.LASF36
 1052 0216 48       		.byte	0x48
 1053 0217 06       		.byte	0x6
 1054 0218 2F       		.byte	0x2f
 1055 0219 E2020000 		.4byte	0x2e2
 1056 021d 03       		.uleb128 0x3
 1057 021e 66030000 		.4byte	.LASF37
 1058 0222 06       		.byte	0x6
 1059 0223 30       		.byte	0x30
 1060 0224 E2020000 		.4byte	0x2e2
 1061 0228 02       		.byte	0x2
 1062 0229 23       		.byte	0x23
 1063 022a 00       		.uleb128 0
 1064 022b 03       		.uleb128 0x3
 1065 022c B3040000 		.4byte	.LASF38
 1066 0230 06       		.byte	0x6
 1067 0231 31       		.byte	0x31
 1068 0232 8E000000 		.4byte	0x8e
 1069 0236 02       		.byte	0x2
 1070 0237 23       		.byte	0x23
 1071 0238 04       		.uleb128 0x4
 1072 0239 03       		.uleb128 0x3
 1073 023a 93010000 		.4byte	.LASF39
 1074 023e 06       		.byte	0x6
 1075 023f 32       		.byte	0x32
 1076 0240 E2020000 		.4byte	0x2e2
 1077 0244 02       		.byte	0x2
 1078 0245 23       		.byte	0x23
 1079 0246 08       		.uleb128 0x8
 1080 0247 03       		.uleb128 0x3
 1081 0248 EF050000 		.4byte	.LASF40
 1082 024c 06       		.byte	0x6
 1083 024d 33       		.byte	0x33
 1084 024e F9010000 		.4byte	0x1f9
 1085 0252 02       		.byte	0x2
ARM GAS  G:\Users\Jaxb\AppData\Local\Temp\ccAJTzse.s 			page 25


 1086 0253 23       		.byte	0x23
 1087 0254 0C       		.uleb128 0xc
 1088 0255 03       		.uleb128 0x3
 1089 0256 D9040000 		.4byte	.LASF41
 1090 025a 06       		.byte	0x6
 1091 025b 34       		.byte	0x34
 1092 025c F9010000 		.4byte	0x1f9
 1093 0260 02       		.byte	0x2
 1094 0261 23       		.byte	0x23
 1095 0262 10       		.uleb128 0x10
 1096 0263 03       		.uleb128 0x3
 1097 0264 2B040000 		.4byte	.LASF42
 1098 0268 06       		.byte	0x6
 1099 0269 35       		.byte	0x35
 1100 026a E3010000 		.4byte	0x1e3
 1101 026e 02       		.byte	0x2
 1102 026f 23       		.byte	0x23
 1103 0270 14       		.uleb128 0x14
 1104 0271 03       		.uleb128 0x3
 1105 0272 17040000 		.4byte	.LASF43
 1106 0276 06       		.byte	0x6
 1107 0277 36       		.byte	0x36
 1108 0278 62000000 		.4byte	0x62
 1109 027c 02       		.byte	0x2
 1110 027d 23       		.byte	0x23
 1111 027e 18       		.uleb128 0x18
 1112 027f 03       		.uleb128 0x3
 1113 0280 6C030000 		.4byte	.LASF44
 1114 0284 06       		.byte	0x6
 1115 0285 37       		.byte	0x37
 1116 0286 25000000 		.4byte	0x25
 1117 028a 02       		.byte	0x2
 1118 028b 23       		.byte	0x23
 1119 028c 1C       		.uleb128 0x1c
 1120 028d 03       		.uleb128 0x3
 1121 028e E6040000 		.4byte	.LASF45
 1122 0292 06       		.byte	0x6
 1123 0293 38       		.byte	0x38
 1124 0294 25000000 		.4byte	0x25
 1125 0298 02       		.byte	0x2
 1126 0299 23       		.byte	0x23
 1127 029a 24       		.uleb128 0x24
 1128 029b 03       		.uleb128 0x3
 1129 029c D4040000 		.4byte	.LASF46
 1130 02a0 06       		.byte	0x6
 1131 02a1 39       		.byte	0x39
 1132 02a2 E8020000 		.4byte	0x2e8
 1133 02a6 02       		.byte	0x2
 1134 02a7 23       		.byte	0x23
 1135 02a8 2C       		.uleb128 0x2c
 1136 02a9 03       		.uleb128 0x3
 1137 02aa 47020000 		.4byte	.LASF47
 1138 02ae 06       		.byte	0x6
 1139 02af 3A       		.byte	0x3a
 1140 02b0 8E000000 		.4byte	0x8e
 1141 02b4 02       		.byte	0x2
 1142 02b5 23       		.byte	0x23
ARM GAS  G:\Users\Jaxb\AppData\Local\Temp\ccAJTzse.s 			page 26


 1143 02b6 30       		.uleb128 0x30
 1144 02b7 03       		.uleb128 0x3
 1145 02b8 4E040000 		.4byte	.LASF48
 1146 02bc 06       		.byte	0x6
 1147 02bd 3B       		.byte	0x3b
 1148 02be 8E000000 		.4byte	0x8e
 1149 02c2 02       		.byte	0x2
 1150 02c3 23       		.byte	0x23
 1151 02c4 34       		.uleb128 0x34
 1152 02c5 03       		.uleb128 0x3
 1153 02c6 12030000 		.4byte	.LASF49
 1154 02ca 06       		.byte	0x6
 1155 02cb 3C       		.byte	0x3c
 1156 02cc 83000000 		.4byte	0x83
 1157 02d0 02       		.byte	0x2
 1158 02d1 23       		.byte	0x23
 1159 02d2 38       		.uleb128 0x38
 1160 02d3 03       		.uleb128 0x3
 1161 02d4 CC050000 		.4byte	.LASF50
 1162 02d8 06       		.byte	0x6
 1163 02d9 3D       		.byte	0x3d
 1164 02da 95000000 		.4byte	0x95
 1165 02de 02       		.byte	0x2
 1166 02df 23       		.byte	0x23
 1167 02e0 40       		.uleb128 0x40
 1168 02e1 00       		.byte	0
 1169 02e2 04       		.uleb128 0x4
 1170 02e3 04       		.byte	0x4
 1171 02e4 EE010000 		.4byte	0x1ee
 1172 02e8 04       		.uleb128 0x4
 1173 02e9 04       		.byte	0x4
 1174 02ea EE020000 		.4byte	0x2ee
 1175 02ee 05       		.uleb128 0x5
 1176 02ef 01       		.byte	0x1
 1177 02f0 08       		.byte	0x8
 1178 02f1 62040000 		.4byte	.LASF51
 1179 02f5 0F       		.uleb128 0xf
 1180 02f6 54434200 		.ascii	"TCB\000"
 1181 02fa 06       		.byte	0x6
 1182 02fb 3E       		.byte	0x3e
 1183 02fc 11020000 		.4byte	0x211
 1184 0300 07       		.uleb128 0x7
 1185 0301 F5020000 		.4byte	0x2f5
 1186 0305 02       		.uleb128 0x2
 1187 0306 C7010000 		.4byte	.LASF52
 1188 030a 20       		.byte	0x20
 1189 030b 07       		.byte	0x7
 1190 030c 07       		.byte	0x7
 1191 030d 3C030000 		.4byte	0x33c
 1192 0311 03       		.uleb128 0x3
 1193 0312 98030000 		.4byte	.LASF53
 1194 0316 07       		.byte	0x7
 1195 0317 08       		.byte	0x8
 1196 0318 8E000000 		.4byte	0x8e
 1197 031c 02       		.byte	0x2
 1198 031d 23       		.byte	0x23
 1199 031e 00       		.uleb128 0
ARM GAS  G:\Users\Jaxb\AppData\Local\Temp\ccAJTzse.s 			page 27


 1200 031f 03       		.uleb128 0x3
 1201 0320 BE040000 		.4byte	.LASF54
 1202 0324 07       		.byte	0x7
 1203 0325 09       		.byte	0x9
 1204 0326 3C030000 		.4byte	0x33c
 1205 032a 02       		.byte	0x2
 1206 032b 23       		.byte	0x23
 1207 032c 04       		.uleb128 0x4
 1208 032d 03       		.uleb128 0x3
 1209 032e 0F000000 		.4byte	.LASF55
 1210 0332 07       		.byte	0x7
 1211 0333 0A       		.byte	0xa
 1212 0334 EB000000 		.4byte	0xeb
 1213 0338 02       		.byte	0x2
 1214 0339 23       		.byte	0x23
 1215 033a 08       		.uleb128 0x8
 1216 033b 00       		.byte	0
 1217 033c 04       		.uleb128 0x4
 1218 033d 04       		.byte	0x4
 1219 033e F5020000 		.4byte	0x2f5
 1220 0342 08       		.uleb128 0x8
 1221 0343 84010000 		.4byte	.LASF56
 1222 0347 07       		.byte	0x7
 1223 0348 0B       		.byte	0xb
 1224 0349 05030000 		.4byte	0x305
 1225 034d 0C       		.uleb128 0xc
 1226 034e E2020000 		.4byte	.LASF58
 1227 0352 07       		.byte	0x7
 1228 0353 01       		.byte	0x1
 1229 0354 75000000 		.4byte	0x75
 1230 0358 07       		.byte	0x7
 1231 0359 0D       		.byte	0xd
 1232 035a 6B030000 		.4byte	0x36b
 1233 035e 0D       		.uleb128 0xd
 1234 035f E4050000 		.4byte	.LASF59
 1235 0363 00       		.byte	0
 1236 0364 0D       		.uleb128 0xd
 1237 0365 0A040000 		.4byte	.LASF60
 1238 0369 01       		.byte	0x1
 1239 036a 00       		.byte	0
 1240 036b 08       		.uleb128 0x8
 1241 036c EB030000 		.4byte	.LASF61
 1242 0370 08       		.byte	0x8
 1243 0371 04       		.byte	0x4
 1244 0372 8E000000 		.4byte	0x8e
 1245 0376 08       		.uleb128 0x8
 1246 0377 14010000 		.4byte	.LASF62
 1247 037b 08       		.byte	0x8
 1248 037c 06       		.byte	0x6
 1249 037d 6B030000 		.4byte	0x36b
 1250 0381 0E       		.uleb128 0xe
 1251 0382 F4050000 		.4byte	.LASF64
 1252 0386 01       		.byte	0x1
 1253 0387 07       		.byte	0x7
 1254 0388 8E030000 		.4byte	0x38e
 1255 038c 01       		.byte	0x1
 1256 038d 01       		.byte	0x1
ARM GAS  G:\Users\Jaxb\AppData\Local\Temp\ccAJTzse.s 			page 28


 1257 038e 04       		.uleb128 0x4
 1258 038f 04       		.byte	0x4
 1259 0390 00030000 		.4byte	0x300
 1260 0394 10       		.uleb128 0x10
 1261 0395 01       		.byte	0x1
 1262 0396 58000000 		.4byte	.LASF67
 1263 039a 01       		.byte	0x1
 1264 039b B3       		.byte	0xb3
 1265 039c 01       		.byte	0x1
 1266 039d 62000000 		.4byte	0x62
 1267 03a1 58020000 		.4byte	.LFB16
 1268 03a5 B4020000 		.4byte	.LFE16
 1269 03a9 00000000 		.4byte	.LLST17
 1270 03ad 01       		.byte	0x1
 1271 03ae 66040000 		.4byte	0x466
 1272 03b2 11       		.uleb128 0x11
 1273 03b3 E9000000 		.4byte	.LASF69
 1274 03b7 01       		.byte	0x1
 1275 03b8 B3       		.byte	0xb3
 1276 03b9 66040000 		.4byte	0x466
 1277 03bd 20000000 		.4byte	.LLST18
 1278 03c1 12       		.uleb128 0x12
 1279 03c2 CC040000 		.4byte	.LASF65
 1280 03c6 01       		.byte	0x1
 1281 03c7 BD       		.byte	0xbd
 1282 03c8 3C030000 		.4byte	0x33c
 1283 03cc 66000000 		.4byte	.LLST19
 1284 03d0 12       		.uleb128 0x12
 1285 03d1 1E030000 		.4byte	.LASF66
 1286 03d5 01       		.byte	0x1
 1287 03d6 BE       		.byte	0xbe
 1288 03d7 53010000 		.4byte	0x153
 1289 03db 79000000 		.4byte	.LLST20
 1290 03df 13       		.uleb128 0x13
 1291 03e0 66020000 		.4byte	.LVL90
 1292 03e4 B8080000 		.4byte	0x8b8
 1293 03e8 F3030000 		.4byte	0x3f3
 1294 03ec 14       		.uleb128 0x14
 1295 03ed 01       		.byte	0x1
 1296 03ee 50       		.byte	0x50
 1297 03ef 02       		.byte	0x2
 1298 03f0 75       		.byte	0x75
 1299 03f1 00       		.sleb128 0
 1300 03f2 00       		.byte	0
 1301 03f3 13       		.uleb128 0x13
 1302 03f4 7A020000 		.4byte	.LVL93
 1303 03f8 C5080000 		.4byte	0x8c5
 1304 03fc 0D040000 		.4byte	0x40d
 1305 0400 14       		.uleb128 0x14
 1306 0401 01       		.byte	0x1
 1307 0402 50       		.byte	0x50
 1308 0403 02       		.byte	0x2
 1309 0404 76       		.byte	0x76
 1310 0405 00       		.sleb128 0
 1311 0406 14       		.uleb128 0x14
 1312 0407 01       		.byte	0x1
 1313 0408 51       		.byte	0x51
ARM GAS  G:\Users\Jaxb\AppData\Local\Temp\ccAJTzse.s 			page 29


 1314 0409 02       		.byte	0x2
 1315 040a 08       		.byte	0x8
 1316 040b C2       		.byte	0xc2
 1317 040c 00       		.byte	0
 1318 040d 13       		.uleb128 0x13
 1319 040e 80020000 		.4byte	.LVL94
 1320 0412 D2080000 		.4byte	0x8d2
 1321 0416 21040000 		.4byte	0x421
 1322 041a 14       		.uleb128 0x14
 1323 041b 01       		.byte	0x1
 1324 041c 50       		.byte	0x50
 1325 041d 02       		.byte	0x2
 1326 041e 74       		.byte	0x74
 1327 041f 00       		.sleb128 0
 1328 0420 00       		.byte	0
 1329 0421 13       		.uleb128 0x13
 1330 0422 8E020000 		.4byte	.LVL95
 1331 0426 B8080000 		.4byte	0x8b8
 1332 042a 35040000 		.4byte	0x435
 1333 042e 14       		.uleb128 0x14
 1334 042f 01       		.byte	0x1
 1335 0430 50       		.byte	0x50
 1336 0431 02       		.byte	0x2
 1337 0432 75       		.byte	0x75
 1338 0433 00       		.sleb128 0
 1339 0434 00       		.byte	0
 1340 0435 13       		.uleb128 0x13
 1341 0436 9E020000 		.4byte	.LVL100
 1342 043a C5080000 		.4byte	0x8c5
 1343 043e 52040000 		.4byte	0x452
 1344 0442 14       		.uleb128 0x14
 1345 0443 01       		.byte	0x1
 1346 0444 50       		.byte	0x50
 1347 0445 05       		.byte	0x5
 1348 0446 03       		.byte	0x3
 1349 0447 00000000 		.4byte	.LC0
 1350 044b 14       		.uleb128 0x14
 1351 044c 01       		.byte	0x1
 1352 044d 51       		.byte	0x51
 1353 044e 02       		.byte	0x2
 1354 044f 08       		.byte	0x8
 1355 0450 B5       		.byte	0xb5
 1356 0451 00       		.byte	0
 1357 0452 15       		.uleb128 0x15
 1358 0453 A4020000 		.4byte	.LVL101
 1359 0457 DF080000 		.4byte	0x8df
 1360 045b 14       		.uleb128 0x14
 1361 045c 01       		.byte	0x1
 1362 045d 50       		.byte	0x50
 1363 045e 05       		.byte	0x5
 1364 045f 03       		.byte	0x3
 1365 0460 00010000 		.4byte	.LC5
 1366 0464 00       		.byte	0
 1367 0465 00       		.byte	0
 1368 0466 04       		.uleb128 0x4
 1369 0467 04       		.byte	0x4
 1370 0468 42030000 		.4byte	0x342
ARM GAS  G:\Users\Jaxb\AppData\Local\Temp\ccAJTzse.s 			page 30


 1371 046c 10       		.uleb128 0x10
 1372 046d 01       		.byte	0x1
 1373 046e 05060000 		.4byte	.LASF68
 1374 0472 01       		.byte	0x1
 1375 0473 85       		.byte	0x85
 1376 0474 01       		.byte	0x1
 1377 0475 62000000 		.4byte	0x62
 1378 0479 BC010000 		.4byte	.LFB15
 1379 047d 58020000 		.4byte	.LFE15
 1380 0481 97000000 		.4byte	.LLST12
 1381 0485 01       		.byte	0x1
 1382 0486 7B050000 		.4byte	0x57b
 1383 048a 11       		.uleb128 0x11
 1384 048b E9000000 		.4byte	.LASF69
 1385 048f 01       		.byte	0x1
 1386 0490 85       		.byte	0x85
 1387 0491 66040000 		.4byte	0x466
 1388 0495 B7000000 		.4byte	.LLST13
 1389 0499 12       		.uleb128 0x12
 1390 049a 05050000 		.4byte	.LASF70
 1391 049e 01       		.byte	0x1
 1392 049f 8F       		.byte	0x8f
 1393 04a0 76030000 		.4byte	0x376
 1394 04a4 F9000000 		.4byte	.LLST14
 1395 04a8 12       		.uleb128 0x12
 1396 04a9 5B030000 		.4byte	.LASF71
 1397 04ad 01       		.byte	0x1
 1398 04ae A1       		.byte	0xa1
 1399 04af 53010000 		.4byte	0x153
 1400 04b3 65010000 		.4byte	.LLST15
 1401 04b7 16       		.uleb128 0x16
 1402 04b8 02020000 		.4byte	.LBB5
 1403 04bc 0E020000 		.4byte	.LBE5
 1404 04c0 DD040000 		.4byte	0x4dd
 1405 04c4 12       		.uleb128 0x12
 1406 04c5 FB030000 		.4byte	.LASF72
 1407 04c9 01       		.byte	0x1
 1408 04ca 9D       		.byte	0x9d
 1409 04cb F9010000 		.4byte	0x1f9
 1410 04cf 99010000 		.4byte	.LLST16
 1411 04d3 17       		.uleb128 0x17
 1412 04d4 0E020000 		.4byte	.LVL77
 1413 04d8 EC080000 		.4byte	0x8ec
 1414 04dc 00       		.byte	0
 1415 04dd 17       		.uleb128 0x17
 1416 04de C8010000 		.4byte	.LVL65
 1417 04e2 F9080000 		.4byte	0x8f9
 1418 04e6 13       		.uleb128 0x13
 1419 04e7 E6010000 		.4byte	.LVL68
 1420 04eb B8080000 		.4byte	0x8b8
 1421 04ef FA040000 		.4byte	0x4fa
 1422 04f3 14       		.uleb128 0x14
 1423 04f4 01       		.byte	0x1
 1424 04f5 50       		.byte	0x50
 1425 04f6 02       		.byte	0x2
 1426 04f7 74       		.byte	0x74
 1427 04f8 08       		.sleb128 8
ARM GAS  G:\Users\Jaxb\AppData\Local\Temp\ccAJTzse.s 			page 31


 1428 04f9 00       		.byte	0
 1429 04fa 17       		.uleb128 0x17
 1430 04fb F0010000 		.4byte	.LVL70
 1431 04ff D2080000 		.4byte	0x8d2
 1432 0503 17       		.uleb128 0x17
 1433 0504 F8010000 		.4byte	.LVL71
 1434 0508 06090000 		.4byte	0x906
 1435 050c 17       		.uleb128 0x17
 1436 050d FE010000 		.4byte	.LVL73
 1437 0511 13090000 		.4byte	0x913
 1438 0515 13       		.uleb128 0x13
 1439 0516 16020000 		.4byte	.LVL78
 1440 051a B8080000 		.4byte	0x8b8
 1441 051e 29050000 		.4byte	0x529
 1442 0522 14       		.uleb128 0x14
 1443 0523 01       		.byte	0x1
 1444 0524 50       		.byte	0x50
 1445 0525 02       		.byte	0x2
 1446 0526 74       		.byte	0x74
 1447 0527 08       		.sleb128 8
 1448 0528 00       		.byte	0
 1449 0529 13       		.uleb128 0x13
 1450 052a 28020000 		.4byte	.LVL80
 1451 052e 13090000 		.4byte	0x913
 1452 0532 3D050000 		.4byte	0x53d
 1453 0536 14       		.uleb128 0x14
 1454 0537 01       		.byte	0x1
 1455 0538 50       		.byte	0x50
 1456 0539 02       		.byte	0x2
 1457 053a 76       		.byte	0x76
 1458 053b 00       		.sleb128 0
 1459 053c 00       		.byte	0
 1460 053d 13       		.uleb128 0x13
 1461 053e 34020000 		.4byte	.LVL83
 1462 0542 C5080000 		.4byte	0x8c5
 1463 0546 5A050000 		.4byte	0x55a
 1464 054a 14       		.uleb128 0x14
 1465 054b 01       		.byte	0x1
 1466 054c 50       		.byte	0x50
 1467 054d 05       		.byte	0x5
 1468 054e 03       		.byte	0x3
 1469 054f 00000000 		.4byte	.LC0
 1470 0553 14       		.uleb128 0x14
 1471 0554 01       		.byte	0x1
 1472 0555 51       		.byte	0x51
 1473 0556 02       		.byte	0x2
 1474 0557 08       		.byte	0x8
 1475 0558 87       		.byte	0x87
 1476 0559 00       		.byte	0
 1477 055a 13       		.uleb128 0x13
 1478 055b 3A020000 		.4byte	.LVL84
 1479 055f DF080000 		.4byte	0x8df
 1480 0563 71050000 		.4byte	0x571
 1481 0567 14       		.uleb128 0x14
 1482 0568 01       		.byte	0x1
 1483 0569 50       		.byte	0x50
 1484 056a 05       		.byte	0x5
ARM GAS  G:\Users\Jaxb\AppData\Local\Temp\ccAJTzse.s 			page 32


 1485 056b 03       		.byte	0x3
 1486 056c C8000000 		.4byte	.LC4
 1487 0570 00       		.byte	0
 1488 0571 17       		.uleb128 0x17
 1489 0572 44020000 		.4byte	.LVL86
 1490 0576 13090000 		.4byte	0x913
 1491 057a 00       		.byte	0
 1492 057b 10       		.uleb128 0x10
 1493 057c 01       		.byte	0x1
 1494 057d CB020000 		.4byte	.LASF73
 1495 0581 01       		.byte	0x1
 1496 0582 6A       		.byte	0x6a
 1497 0583 01       		.byte	0x1
 1498 0584 62000000 		.4byte	0x62
 1499 0588 60010000 		.4byte	.LFB14
 1500 058c BC010000 		.4byte	.LFE14
 1501 0590 AC010000 		.4byte	.LLST9
 1502 0594 01       		.byte	0x1
 1503 0595 2B060000 		.4byte	0x62b
 1504 0599 11       		.uleb128 0x11
 1505 059a E9000000 		.4byte	.LASF69
 1506 059e 01       		.byte	0x1
 1507 059f 6A       		.byte	0x6a
 1508 05a0 66040000 		.4byte	0x466
 1509 05a4 CC010000 		.4byte	.LLST10
 1510 05a8 12       		.uleb128 0x12
 1511 05a9 05050000 		.4byte	.LASF70
 1512 05ad 01       		.byte	0x1
 1513 05ae 74       		.byte	0x74
 1514 05af 76030000 		.4byte	0x376
 1515 05b3 00020000 		.4byte	.LLST11
 1516 05b7 17       		.uleb128 0x17
 1517 05b8 6A010000 		.4byte	.LVL50
 1518 05bc F9080000 		.4byte	0x8f9
 1519 05c0 17       		.uleb128 0x17
 1520 05c1 80010000 		.4byte	.LVL52
 1521 05c5 13090000 		.4byte	0x913
 1522 05c9 13       		.uleb128 0x13
 1523 05ca 8C010000 		.4byte	.LVL55
 1524 05ce C5080000 		.4byte	0x8c5
 1525 05d2 E6050000 		.4byte	0x5e6
 1526 05d6 14       		.uleb128 0x14
 1527 05d7 01       		.byte	0x1
 1528 05d8 50       		.byte	0x50
 1529 05d9 05       		.byte	0x5
 1530 05da 03       		.byte	0x3
 1531 05db 00000000 		.4byte	.LC0
 1532 05df 14       		.uleb128 0x14
 1533 05e0 01       		.byte	0x1
 1534 05e1 51       		.byte	0x51
 1535 05e2 02       		.byte	0x2
 1536 05e3 08       		.byte	0x8
 1537 05e4 6C       		.byte	0x6c
 1538 05e5 00       		.byte	0
 1539 05e6 13       		.uleb128 0x13
 1540 05e7 92010000 		.4byte	.LVL56
 1541 05eb DF080000 		.4byte	0x8df
ARM GAS  G:\Users\Jaxb\AppData\Local\Temp\ccAJTzse.s 			page 33


 1542 05ef FD050000 		.4byte	0x5fd
 1543 05f3 14       		.uleb128 0x14
 1544 05f4 01       		.byte	0x1
 1545 05f5 50       		.byte	0x50
 1546 05f6 05       		.byte	0x5
 1547 05f7 03       		.byte	0x3
 1548 05f8 90000000 		.4byte	.LC3
 1549 05fc 00       		.byte	0
 1550 05fd 13       		.uleb128 0x13
 1551 05fe A0010000 		.4byte	.LVL59
 1552 0602 13090000 		.4byte	0x913
 1553 0606 11060000 		.4byte	0x611
 1554 060a 14       		.uleb128 0x14
 1555 060b 01       		.byte	0x1
 1556 060c 50       		.byte	0x50
 1557 060d 02       		.byte	0x2
 1558 060e 74       		.byte	0x74
 1559 060f 00       		.sleb128 0
 1560 0610 00       		.byte	0
 1561 0611 15       		.uleb128 0x15
 1562 0612 AE010000 		.4byte	.LVL62
 1563 0616 C5080000 		.4byte	0x8c5
 1564 061a 14       		.uleb128 0x14
 1565 061b 01       		.byte	0x1
 1566 061c 50       		.byte	0x50
 1567 061d 05       		.byte	0x5
 1568 061e 03       		.byte	0x3
 1569 061f 00000000 		.4byte	.LC0
 1570 0623 14       		.uleb128 0x14
 1571 0624 01       		.byte	0x1
 1572 0625 51       		.byte	0x51
 1573 0626 02       		.byte	0x2
 1574 0627 08       		.byte	0x8
 1575 0628 7F       		.byte	0x7f
 1576 0629 00       		.byte	0
 1577 062a 00       		.byte	0
 1578 062b 10       		.uleb128 0x10
 1579 062c 01       		.byte	0x1
 1580 062d 79020000 		.4byte	.LASF74
 1581 0631 01       		.byte	0x1
 1582 0632 30       		.byte	0x30
 1583 0633 01       		.byte	0x1
 1584 0634 62000000 		.4byte	0x62
 1585 0638 7C000000 		.4byte	.LFB13
 1586 063c 60010000 		.4byte	.LFE13
 1587 0640 4B020000 		.4byte	.LLST5
 1588 0644 01       		.byte	0x1
 1589 0645 84070000 		.4byte	0x784
 1590 0649 11       		.uleb128 0x11
 1591 064a E9000000 		.4byte	.LASF69
 1592 064e 01       		.byte	0x1
 1593 064f 30       		.byte	0x30
 1594 0650 66040000 		.4byte	0x466
 1595 0654 D7020000 		.4byte	.LLST6
 1596 0658 12       		.uleb128 0x12
 1597 0659 05050000 		.4byte	.LASF70
 1598 065d 01       		.byte	0x1
ARM GAS  G:\Users\Jaxb\AppData\Local\Temp\ccAJTzse.s 			page 34


 1599 065e 3A       		.byte	0x3a
 1600 065f 76030000 		.4byte	0x376
 1601 0663 4A030000 		.4byte	.LLST7
 1602 0667 18       		.uleb128 0x18
 1603 0668 00000000 		.4byte	.Ldebug_ranges0+0
 1604 066c 34070000 		.4byte	0x734
 1605 0670 19       		.uleb128 0x19
 1606 0671 F6030000 		.4byte	.LASF75
 1607 0675 01       		.byte	0x1
 1608 0676 4F       		.byte	0x4f
 1609 0677 B2000000 		.4byte	0xb2
 1610 067b 02       		.byte	0x2
 1611 067c 91       		.byte	0x91
 1612 067d 50       		.sleb128 -48
 1613 067e 12       		.uleb128 0x12
 1614 067f CC040000 		.4byte	.LASF65
 1615 0683 01       		.byte	0x1
 1616 0684 52       		.byte	0x52
 1617 0685 3C030000 		.4byte	0x33c
 1618 0689 CC030000 		.4byte	.LLST8
 1619 068d 13       		.uleb128 0x13
 1620 068e B2000000 		.4byte	.LVL23
 1621 0692 20090000 		.4byte	0x920
 1622 0696 A1060000 		.4byte	0x6a1
 1623 069a 14       		.uleb128 0x14
 1624 069b 01       		.byte	0x1
 1625 069c 50       		.byte	0x50
 1626 069d 02       		.byte	0x2
 1627 069e 7D       		.byte	0x7d
 1628 069f 00       		.sleb128 0
 1629 06a0 00       		.byte	0
 1630 06a1 13       		.uleb128 0x13
 1631 06a2 BA000000 		.4byte	.LVL24
 1632 06a6 2D090000 		.4byte	0x92d
 1633 06aa BB060000 		.4byte	0x6bb
 1634 06ae 14       		.uleb128 0x14
 1635 06af 01       		.byte	0x1
 1636 06b0 50       		.byte	0x50
 1637 06b1 02       		.byte	0x2
 1638 06b2 7D       		.byte	0x7d
 1639 06b3 00       		.sleb128 0
 1640 06b4 14       		.uleb128 0x14
 1641 06b5 01       		.byte	0x1
 1642 06b6 51       		.byte	0x51
 1643 06b7 02       		.byte	0x2
 1644 06b8 77       		.byte	0x77
 1645 06b9 00       		.sleb128 0
 1646 06ba 00       		.byte	0
 1647 06bb 13       		.uleb128 0x13
 1648 06bc C0000000 		.4byte	.LVL25
 1649 06c0 3A090000 		.4byte	0x93a
 1650 06c4 CF060000 		.4byte	0x6cf
 1651 06c8 14       		.uleb128 0x14
 1652 06c9 01       		.byte	0x1
 1653 06ca 50       		.byte	0x50
 1654 06cb 02       		.byte	0x2
 1655 06cc 77       		.byte	0x77
ARM GAS  G:\Users\Jaxb\AppData\Local\Temp\ccAJTzse.s 			page 35


 1656 06cd 00       		.sleb128 0
 1657 06ce 00       		.byte	0
 1658 06cf 17       		.uleb128 0x17
 1659 06d0 D8000000 		.4byte	.LVL27
 1660 06d4 EC080000 		.4byte	0x8ec
 1661 06d8 13       		.uleb128 0x13
 1662 06d9 DE000000 		.4byte	.LVL28
 1663 06dd 47090000 		.4byte	0x947
 1664 06e1 EB060000 		.4byte	0x6eb
 1665 06e5 14       		.uleb128 0x14
 1666 06e6 01       		.byte	0x1
 1667 06e7 50       		.byte	0x50
 1668 06e8 01       		.byte	0x1
 1669 06e9 3A       		.byte	0x3a
 1670 06ea 00       		.byte	0
 1671 06eb 13       		.uleb128 0x13
 1672 06ec E4000000 		.4byte	.LVL29
 1673 06f0 13090000 		.4byte	0x913
 1674 06f4 FF060000 		.4byte	0x6ff
 1675 06f8 14       		.uleb128 0x14
 1676 06f9 01       		.byte	0x1
 1677 06fa 50       		.byte	0x50
 1678 06fb 02       		.byte	0x2
 1679 06fc 76       		.byte	0x76
 1680 06fd 00       		.sleb128 0
 1681 06fe 00       		.byte	0
 1682 06ff 17       		.uleb128 0x17
 1683 0700 E8000000 		.4byte	.LVL30
 1684 0704 F9080000 		.4byte	0x8f9
 1685 0708 17       		.uleb128 0x17
 1686 0709 FE000000 		.4byte	.LVL32
 1687 070d 13090000 		.4byte	0x913
 1688 0711 17       		.uleb128 0x17
 1689 0712 0C010000 		.4byte	.LVL36
 1690 0716 13090000 		.4byte	0x913
 1691 071a 15       		.uleb128 0x15
 1692 071b 1A010000 		.4byte	.LVL39
 1693 071f C5080000 		.4byte	0x8c5
 1694 0723 14       		.uleb128 0x14
 1695 0724 01       		.byte	0x1
 1696 0725 50       		.byte	0x50
 1697 0726 05       		.byte	0x5
 1698 0727 03       		.byte	0x3
 1699 0728 00000000 		.4byte	.LC0
 1700 072c 14       		.uleb128 0x14
 1701 072d 01       		.byte	0x1
 1702 072e 51       		.byte	0x51
 1703 072f 02       		.byte	0x2
 1704 0730 08       		.byte	0x8
 1705 0731 49       		.byte	0x49
 1706 0732 00       		.byte	0
 1707 0733 00       		.byte	0
 1708 0734 17       		.uleb128 0x17
 1709 0735 8A000000 		.4byte	.LVL20
 1710 0739 F9080000 		.4byte	0x8f9
 1711 073d 13       		.uleb128 0x13
 1712 073e 24010000 		.4byte	.LVL42
ARM GAS  G:\Users\Jaxb\AppData\Local\Temp\ccAJTzse.s 			page 36


 1713 0742 C5080000 		.4byte	0x8c5
 1714 0746 5A070000 		.4byte	0x75a
 1715 074a 14       		.uleb128 0x14
 1716 074b 01       		.byte	0x1
 1717 074c 50       		.byte	0x50
 1718 074d 05       		.byte	0x5
 1719 074e 03       		.byte	0x3
 1720 074f 00000000 		.4byte	.LC0
 1721 0753 14       		.uleb128 0x14
 1722 0754 01       		.byte	0x1
 1723 0755 51       		.byte	0x51
 1724 0756 02       		.byte	0x2
 1725 0757 08       		.byte	0x8
 1726 0758 32       		.byte	0x32
 1727 0759 00       		.byte	0
 1728 075a 13       		.uleb128 0x13
 1729 075b 2A010000 		.4byte	.LVL43
 1730 075f DF080000 		.4byte	0x8df
 1731 0763 71070000 		.4byte	0x771
 1732 0767 14       		.uleb128 0x14
 1733 0768 01       		.byte	0x1
 1734 0769 50       		.byte	0x50
 1735 076a 05       		.byte	0x5
 1736 076b 03       		.byte	0x3
 1737 076c 5C000000 		.4byte	.LC2
 1738 0770 00       		.byte	0
 1739 0771 17       		.uleb128 0x17
 1740 0772 40010000 		.4byte	.LVL45
 1741 0776 13090000 		.4byte	0x913
 1742 077a 17       		.uleb128 0x17
 1743 077b 4A010000 		.4byte	.LVL47
 1744 077f 13090000 		.4byte	0x913
 1745 0783 00       		.byte	0
 1746 0784 10       		.uleb128 0x10
 1747 0785 01       		.byte	0x1
 1748 0786 2D010000 		.4byte	.LASF76
 1749 078a 01       		.byte	0x1
 1750 078b 13       		.byte	0x13
 1751 078c 01       		.byte	0x1
 1752 078d 62000000 		.4byte	0x62
 1753 0791 14000000 		.4byte	.LFB12
 1754 0795 7C000000 		.4byte	.LFE12
 1755 0799 E0030000 		.4byte	.LLST2
 1756 079d 01       		.byte	0x1
 1757 079e 46080000 		.4byte	0x846
 1758 07a2 11       		.uleb128 0x11
 1759 07a3 E9000000 		.4byte	.LASF69
 1760 07a7 01       		.byte	0x1
 1761 07a8 13       		.byte	0x13
 1762 07a9 66040000 		.4byte	0x466
 1763 07ad 00040000 		.4byte	.LLST3
 1764 07b1 12       		.uleb128 0x12
 1765 07b2 05050000 		.4byte	.LASF70
 1766 07b6 01       		.byte	0x1
 1767 07b7 1D       		.byte	0x1d
 1768 07b8 76030000 		.4byte	0x376
 1769 07bc 42040000 		.4byte	.LLST4
ARM GAS  G:\Users\Jaxb\AppData\Local\Temp\ccAJTzse.s 			page 37


 1770 07c0 17       		.uleb128 0x17
 1771 07c1 1E000000 		.4byte	.LVL6
 1772 07c5 F9080000 		.4byte	0x8f9
 1773 07c9 13       		.uleb128 0x13
 1774 07ca 3E000000 		.4byte	.LVL9
 1775 07ce 54090000 		.4byte	0x954
 1776 07d2 F5070000 		.4byte	0x7f5
 1777 07d6 14       		.uleb128 0x14
 1778 07d7 01       		.byte	0x1
 1779 07d8 50       		.byte	0x50
 1780 07d9 02       		.byte	0x2
 1781 07da 75       		.byte	0x75
 1782 07db 08       		.sleb128 8
 1783 07dc 14       		.uleb128 0x14
 1784 07dd 01       		.byte	0x1
 1785 07de 51       		.byte	0x51
 1786 07df 05       		.byte	0x5
 1787 07e0 03       		.byte	0x3
 1788 07e1 00000000 		.4byte	compare
 1789 07e5 14       		.uleb128 0x14
 1790 07e6 01       		.byte	0x1
 1791 07e7 52       		.byte	0x52
 1792 07e8 02       		.byte	0x2
 1793 07e9 74       		.byte	0x74
 1794 07ea 00       		.sleb128 0
 1795 07eb 14       		.uleb128 0x14
 1796 07ec 01       		.byte	0x1
 1797 07ed 53       		.byte	0x53
 1798 07ee 05       		.byte	0x5
 1799 07ef 03       		.byte	0x3
 1800 07f0 00000000 		.4byte	value_cmp
 1801 07f4 00       		.byte	0
 1802 07f5 13       		.uleb128 0x13
 1803 07f6 44000000 		.4byte	.LVL10
 1804 07fa 13090000 		.4byte	0x913
 1805 07fe 09080000 		.4byte	0x809
 1806 0802 14       		.uleb128 0x14
 1807 0803 01       		.byte	0x1
 1808 0804 50       		.byte	0x50
 1809 0805 02       		.byte	0x2
 1810 0806 76       		.byte	0x76
 1811 0807 00       		.sleb128 0
 1812 0808 00       		.byte	0
 1813 0809 13       		.uleb128 0x13
 1814 080a 50000000 		.4byte	.LVL13
 1815 080e C5080000 		.4byte	0x8c5
 1816 0812 25080000 		.4byte	0x825
 1817 0816 14       		.uleb128 0x14
 1818 0817 01       		.byte	0x1
 1819 0818 50       		.byte	0x50
 1820 0819 05       		.byte	0x5
 1821 081a 03       		.byte	0x3
 1822 081b 00000000 		.4byte	.LC0
 1823 081f 14       		.uleb128 0x14
 1824 0820 01       		.byte	0x1
 1825 0821 51       		.byte	0x51
 1826 0822 01       		.byte	0x1
ARM GAS  G:\Users\Jaxb\AppData\Local\Temp\ccAJTzse.s 			page 38


 1827 0823 45       		.byte	0x45
 1828 0824 00       		.byte	0
 1829 0825 13       		.uleb128 0x13
 1830 0826 56000000 		.4byte	.LVL14
 1831 082a DF080000 		.4byte	0x8df
 1832 082e 3C080000 		.4byte	0x83c
 1833 0832 14       		.uleb128 0x14
 1834 0833 01       		.byte	0x1
 1835 0834 50       		.byte	0x50
 1836 0835 05       		.byte	0x5
 1837 0836 03       		.byte	0x3
 1838 0837 28000000 		.4byte	.LC1
 1839 083b 00       		.byte	0
 1840 083c 17       		.uleb128 0x17
 1841 083d 60000000 		.4byte	.LVL16
 1842 0841 13090000 		.4byte	0x913
 1843 0845 00       		.byte	0
 1844 0846 1A       		.uleb128 0x1a
 1845 0847 7B030000 		.4byte	.LASF22
 1846 084b 01       		.byte	0x1
 1847 084c 0E       		.byte	0xe
 1848 084d 01       		.byte	0x1
 1849 084e 62000000 		.4byte	0x62
 1850 0852 0C000000 		.4byte	.LFB11
 1851 0856 14000000 		.4byte	.LFE11
 1852 085a 02       		.byte	0x2
 1853 085b 7D       		.byte	0x7d
 1854 085c 00       		.sleb128 0
 1855 085d 01       		.byte	0x1
 1856 085e 7F080000 		.4byte	0x87f
 1857 0862 11       		.uleb128 0x11
 1858 0863 B2050000 		.4byte	.LASF77
 1859 0867 01       		.byte	0x1
 1860 0868 0E       		.byte	0xe
 1861 0869 E9000000 		.4byte	0xe9
 1862 086d 82040000 		.4byte	.LLST1
 1863 0871 1B       		.uleb128 0x1b
 1864 0872 B8050000 		.4byte	.LASF78
 1865 0876 01       		.byte	0x1
 1866 0877 0E       		.byte	0xe
 1867 0878 E9000000 		.4byte	0xe9
 1868 087c 01       		.byte	0x1
 1869 087d 51       		.byte	0x51
 1870 087e 00       		.byte	0
 1871 087f 1A       		.uleb128 0x1a
 1872 0880 91040000 		.4byte	.LASF20
 1873 0884 01       		.byte	0x1
 1874 0885 09       		.byte	0x9
 1875 0886 01       		.byte	0x1
 1876 0887 62000000 		.4byte	0x62
 1877 088b 00000000 		.4byte	.LFB10
 1878 088f 0C000000 		.4byte	.LFE10
 1879 0893 02       		.byte	0x2
 1880 0894 7D       		.byte	0x7d
 1881 0895 00       		.sleb128 0
 1882 0896 01       		.byte	0x1
 1883 0897 B8080000 		.4byte	0x8b8
ARM GAS  G:\Users\Jaxb\AppData\Local\Temp\ccAJTzse.s 			page 39


 1884 089b 11       		.uleb128 0x11
 1885 089c B2050000 		.4byte	.LASF77
 1886 08a0 01       		.byte	0x1
 1887 08a1 09       		.byte	0x9
 1888 08a2 53010000 		.4byte	0x153
 1889 08a6 A3040000 		.4byte	.LLST0
 1890 08aa 1B       		.uleb128 0x1b
 1891 08ab B8050000 		.4byte	.LASF78
 1892 08af 01       		.byte	0x1
 1893 08b0 09       		.byte	0x9
 1894 08b1 53010000 		.4byte	0x153
 1895 08b5 01       		.byte	0x1
 1896 08b6 51       		.byte	0x51
 1897 08b7 00       		.byte	0
 1898 08b8 1C       		.uleb128 0x1c
 1899 08b9 01       		.byte	0x1
 1900 08ba 01       		.byte	0x1
 1901 08bb 36040000 		.4byte	.LASF79
 1902 08bf 36040000 		.4byte	.LASF79
 1903 08c3 04       		.byte	0x4
 1904 08c4 3B       		.byte	0x3b
 1905 08c5 1C       		.uleb128 0x1c
 1906 08c6 01       		.byte	0x1
 1907 08c7 01       		.byte	0x1
 1908 08c8 DA020000 		.4byte	.LASF80
 1909 08cc DA020000 		.4byte	.LASF80
 1910 08d0 09       		.byte	0x9
 1911 08d1 06       		.byte	0x6
 1912 08d2 1C       		.uleb128 0x1c
 1913 08d3 01       		.byte	0x1
 1914 08d4 01       		.byte	0x1
 1915 08d5 AE010000 		.4byte	.LASF81
 1916 08d9 AE010000 		.4byte	.LASF81
 1917 08dd 0A       		.byte	0xa
 1918 08de 08       		.byte	0x8
 1919 08df 1C       		.uleb128 0x1c
 1920 08e0 01       		.byte	0x1
 1921 08e1 01       		.byte	0x1
 1922 08e2 84020000 		.4byte	.LASF82
 1923 08e6 84020000 		.4byte	.LASF82
 1924 08ea 0B       		.byte	0xb
 1925 08eb 0C       		.byte	0xc
 1926 08ec 1C       		.uleb128 0x1c
 1927 08ed 01       		.byte	0x1
 1928 08ee 01       		.byte	0x1
 1929 08ef 9D010000 		.4byte	.LASF83
 1930 08f3 9D010000 		.4byte	.LASF83
 1931 08f7 06       		.byte	0x6
 1932 08f8 54       		.byte	0x54
 1933 08f9 1C       		.uleb128 0x1c
 1934 08fa 01       		.byte	0x1
 1935 08fb 01       		.byte	0x1
 1936 08fc EE020000 		.4byte	.LASF84
 1937 0900 EE020000 		.4byte	.LASF84
 1938 0904 08       		.byte	0x8
 1939 0905 35       		.byte	0x35
 1940 0906 1C       		.uleb128 0x1c
ARM GAS  G:\Users\Jaxb\AppData\Local\Temp\ccAJTzse.s 			page 40


 1941 0907 01       		.byte	0x1
 1942 0908 01       		.byte	0x1
 1943 0909 63010000 		.4byte	.LASF85
 1944 090d 63010000 		.4byte	.LASF85
 1945 0911 0C       		.byte	0xc
 1946 0912 18       		.byte	0x18
 1947 0913 1C       		.uleb128 0x1c
 1948 0914 01       		.byte	0x1
 1949 0915 01       		.byte	0x1
 1950 0916 3F030000 		.4byte	.LASF86
 1951 091a 3F030000 		.4byte	.LASF86
 1952 091e 08       		.byte	0x8
 1953 091f 36       		.byte	0x36
 1954 0920 1C       		.uleb128 0x1c
 1955 0921 01       		.byte	0x1
 1956 0922 01       		.byte	0x1
 1957 0923 9A000000 		.4byte	.LASF87
 1958 0927 9A000000 		.4byte	.LASF87
 1959 092b 04       		.byte	0x4
 1960 092c 16       		.byte	0x16
 1961 092d 1C       		.uleb128 0x1c
 1962 092e 01       		.byte	0x1
 1963 092f 01       		.byte	0x1
 1964 0930 B3020000 		.4byte	.LASF88
 1965 0934 B3020000 		.4byte	.LASF88
 1966 0938 04       		.byte	0x4
 1967 0939 38       		.byte	0x38
 1968 093a 1C       		.uleb128 0x1c
 1969 093b 01       		.byte	0x1
 1970 093c 01       		.byte	0x1
 1971 093d 62000000 		.4byte	.LASF89
 1972 0941 62000000 		.4byte	.LASF89
 1973 0945 04       		.byte	0x4
 1974 0946 40       		.byte	0x40
 1975 0947 1C       		.uleb128 0x1c
 1976 0948 01       		.byte	0x1
 1977 0949 01       		.byte	0x1
 1978 094a 99020000 		.4byte	.LASF90
 1979 094e 99020000 		.4byte	.LASF90
 1980 0952 0C       		.byte	0xc
 1981 0953 16       		.byte	0x16
 1982 0954 1C       		.uleb128 0x1c
 1983 0955 01       		.byte	0x1
 1984 0956 01       		.byte	0x1
 1985 0957 6C010000 		.4byte	.LASF91
 1986 095b 6C010000 		.4byte	.LASF91
 1987 095f 04       		.byte	0x4
 1988 0960 31       		.byte	0x31
 1989 0961 00       		.byte	0
 1990              		.section	.debug_abbrev,"",%progbits
 1991              	.Ldebug_abbrev0:
 1992 0000 01       		.uleb128 0x1
 1993 0001 11       		.uleb128 0x11
 1994 0002 01       		.byte	0x1
 1995 0003 25       		.uleb128 0x25
 1996 0004 0E       		.uleb128 0xe
 1997 0005 13       		.uleb128 0x13
ARM GAS  G:\Users\Jaxb\AppData\Local\Temp\ccAJTzse.s 			page 41


 1998 0006 0B       		.uleb128 0xb
 1999 0007 03       		.uleb128 0x3
 2000 0008 0E       		.uleb128 0xe
 2001 0009 1B       		.uleb128 0x1b
 2002 000a 0E       		.uleb128 0xe
 2003 000b 11       		.uleb128 0x11
 2004 000c 01       		.uleb128 0x1
 2005 000d 12       		.uleb128 0x12
 2006 000e 01       		.uleb128 0x1
 2007 000f 10       		.uleb128 0x10
 2008 0010 06       		.uleb128 0x6
 2009 0011 00       		.byte	0
 2010 0012 00       		.byte	0
 2011 0013 02       		.uleb128 0x2
 2012 0014 13       		.uleb128 0x13
 2013 0015 01       		.byte	0x1
 2014 0016 03       		.uleb128 0x3
 2015 0017 0E       		.uleb128 0xe
 2016 0018 0B       		.uleb128 0xb
 2017 0019 0B       		.uleb128 0xb
 2018 001a 3A       		.uleb128 0x3a
 2019 001b 0B       		.uleb128 0xb
 2020 001c 3B       		.uleb128 0x3b
 2021 001d 0B       		.uleb128 0xb
 2022 001e 01       		.uleb128 0x1
 2023 001f 13       		.uleb128 0x13
 2024 0020 00       		.byte	0
 2025 0021 00       		.byte	0
 2026 0022 03       		.uleb128 0x3
 2027 0023 0D       		.uleb128 0xd
 2028 0024 00       		.byte	0
 2029 0025 03       		.uleb128 0x3
 2030 0026 0E       		.uleb128 0xe
 2031 0027 3A       		.uleb128 0x3a
 2032 0028 0B       		.uleb128 0xb
 2033 0029 3B       		.uleb128 0x3b
 2034 002a 0B       		.uleb128 0xb
 2035 002b 49       		.uleb128 0x49
 2036 002c 13       		.uleb128 0x13
 2037 002d 38       		.uleb128 0x38
 2038 002e 0A       		.uleb128 0xa
 2039 002f 00       		.byte	0
 2040 0030 00       		.byte	0
 2041 0031 04       		.uleb128 0x4
 2042 0032 0F       		.uleb128 0xf
 2043 0033 00       		.byte	0
 2044 0034 0B       		.uleb128 0xb
 2045 0035 0B       		.uleb128 0xb
 2046 0036 49       		.uleb128 0x49
 2047 0037 13       		.uleb128 0x13
 2048 0038 00       		.byte	0
 2049 0039 00       		.byte	0
 2050 003a 05       		.uleb128 0x5
 2051 003b 24       		.uleb128 0x24
 2052 003c 00       		.byte	0
 2053 003d 0B       		.uleb128 0xb
 2054 003e 0B       		.uleb128 0xb
ARM GAS  G:\Users\Jaxb\AppData\Local\Temp\ccAJTzse.s 			page 42


 2055 003f 3E       		.uleb128 0x3e
 2056 0040 0B       		.uleb128 0xb
 2057 0041 03       		.uleb128 0x3
 2058 0042 0E       		.uleb128 0xe
 2059 0043 00       		.byte	0
 2060 0044 00       		.byte	0
 2061 0045 06       		.uleb128 0x6
 2062 0046 24       		.uleb128 0x24
 2063 0047 00       		.byte	0
 2064 0048 0B       		.uleb128 0xb
 2065 0049 0B       		.uleb128 0xb
 2066 004a 3E       		.uleb128 0x3e
 2067 004b 0B       		.uleb128 0xb
 2068 004c 03       		.uleb128 0x3
 2069 004d 08       		.uleb128 0x8
 2070 004e 00       		.byte	0
 2071 004f 00       		.byte	0
 2072 0050 07       		.uleb128 0x7
 2073 0051 35       		.uleb128 0x35
 2074 0052 00       		.byte	0
 2075 0053 49       		.uleb128 0x49
 2076 0054 13       		.uleb128 0x13
 2077 0055 00       		.byte	0
 2078 0056 00       		.byte	0
 2079 0057 08       		.uleb128 0x8
 2080 0058 16       		.uleb128 0x16
 2081 0059 00       		.byte	0
 2082 005a 03       		.uleb128 0x3
 2083 005b 0E       		.uleb128 0xe
 2084 005c 3A       		.uleb128 0x3a
 2085 005d 0B       		.uleb128 0xb
 2086 005e 3B       		.uleb128 0x3b
 2087 005f 0B       		.uleb128 0xb
 2088 0060 49       		.uleb128 0x49
 2089 0061 13       		.uleb128 0x13
 2090 0062 00       		.byte	0
 2091 0063 00       		.byte	0
 2092 0064 09       		.uleb128 0x9
 2093 0065 0F       		.uleb128 0xf
 2094 0066 00       		.byte	0
 2095 0067 0B       		.uleb128 0xb
 2096 0068 0B       		.uleb128 0xb
 2097 0069 00       		.byte	0
 2098 006a 00       		.byte	0
 2099 006b 0A       		.uleb128 0xa
 2100 006c 15       		.uleb128 0x15
 2101 006d 01       		.byte	0x1
 2102 006e 27       		.uleb128 0x27
 2103 006f 0C       		.uleb128 0xc
 2104 0070 49       		.uleb128 0x49
 2105 0071 13       		.uleb128 0x13
 2106 0072 01       		.uleb128 0x1
 2107 0073 13       		.uleb128 0x13
 2108 0074 00       		.byte	0
 2109 0075 00       		.byte	0
 2110 0076 0B       		.uleb128 0xb
 2111 0077 05       		.uleb128 0x5
ARM GAS  G:\Users\Jaxb\AppData\Local\Temp\ccAJTzse.s 			page 43


 2112 0078 00       		.byte	0
 2113 0079 49       		.uleb128 0x49
 2114 007a 13       		.uleb128 0x13
 2115 007b 00       		.byte	0
 2116 007c 00       		.byte	0
 2117 007d 0C       		.uleb128 0xc
 2118 007e 04       		.uleb128 0x4
 2119 007f 01       		.byte	0x1
 2120 0080 03       		.uleb128 0x3
 2121 0081 0E       		.uleb128 0xe
 2122 0082 3E       		.uleb128 0x3e
 2123 0083 0B       		.uleb128 0xb
 2124 0084 0B       		.uleb128 0xb
 2125 0085 0B       		.uleb128 0xb
 2126 0086 49       		.uleb128 0x49
 2127 0087 13       		.uleb128 0x13
 2128 0088 3A       		.uleb128 0x3a
 2129 0089 0B       		.uleb128 0xb
 2130 008a 3B       		.uleb128 0x3b
 2131 008b 0B       		.uleb128 0xb
 2132 008c 01       		.uleb128 0x1
 2133 008d 13       		.uleb128 0x13
 2134 008e 00       		.byte	0
 2135 008f 00       		.byte	0
 2136 0090 0D       		.uleb128 0xd
 2137 0091 28       		.uleb128 0x28
 2138 0092 00       		.byte	0
 2139 0093 03       		.uleb128 0x3
 2140 0094 0E       		.uleb128 0xe
 2141 0095 1C       		.uleb128 0x1c
 2142 0096 0B       		.uleb128 0xb
 2143 0097 00       		.byte	0
 2144 0098 00       		.byte	0
 2145 0099 0E       		.uleb128 0xe
 2146 009a 34       		.uleb128 0x34
 2147 009b 00       		.byte	0
 2148 009c 03       		.uleb128 0x3
 2149 009d 0E       		.uleb128 0xe
 2150 009e 3A       		.uleb128 0x3a
 2151 009f 0B       		.uleb128 0xb
 2152 00a0 3B       		.uleb128 0x3b
 2153 00a1 0B       		.uleb128 0xb
 2154 00a2 49       		.uleb128 0x49
 2155 00a3 13       		.uleb128 0x13
 2156 00a4 3F       		.uleb128 0x3f
 2157 00a5 0C       		.uleb128 0xc
 2158 00a6 3C       		.uleb128 0x3c
 2159 00a7 0C       		.uleb128 0xc
 2160 00a8 00       		.byte	0
 2161 00a9 00       		.byte	0
 2162 00aa 0F       		.uleb128 0xf
 2163 00ab 16       		.uleb128 0x16
 2164 00ac 00       		.byte	0
 2165 00ad 03       		.uleb128 0x3
 2166 00ae 08       		.uleb128 0x8
 2167 00af 3A       		.uleb128 0x3a
 2168 00b0 0B       		.uleb128 0xb
ARM GAS  G:\Users\Jaxb\AppData\Local\Temp\ccAJTzse.s 			page 44


 2169 00b1 3B       		.uleb128 0x3b
 2170 00b2 0B       		.uleb128 0xb
 2171 00b3 49       		.uleb128 0x49
 2172 00b4 13       		.uleb128 0x13
 2173 00b5 00       		.byte	0
 2174 00b6 00       		.byte	0
 2175 00b7 10       		.uleb128 0x10
 2176 00b8 2E       		.uleb128 0x2e
 2177 00b9 01       		.byte	0x1
 2178 00ba 3F       		.uleb128 0x3f
 2179 00bb 0C       		.uleb128 0xc
 2180 00bc 03       		.uleb128 0x3
 2181 00bd 0E       		.uleb128 0xe
 2182 00be 3A       		.uleb128 0x3a
 2183 00bf 0B       		.uleb128 0xb
 2184 00c0 3B       		.uleb128 0x3b
 2185 00c1 0B       		.uleb128 0xb
 2186 00c2 27       		.uleb128 0x27
 2187 00c3 0C       		.uleb128 0xc
 2188 00c4 49       		.uleb128 0x49
 2189 00c5 13       		.uleb128 0x13
 2190 00c6 11       		.uleb128 0x11
 2191 00c7 01       		.uleb128 0x1
 2192 00c8 12       		.uleb128 0x12
 2193 00c9 01       		.uleb128 0x1
 2194 00ca 40       		.uleb128 0x40
 2195 00cb 06       		.uleb128 0x6
 2196 00cc 9742     		.uleb128 0x2117
 2197 00ce 0C       		.uleb128 0xc
 2198 00cf 01       		.uleb128 0x1
 2199 00d0 13       		.uleb128 0x13
 2200 00d1 00       		.byte	0
 2201 00d2 00       		.byte	0
 2202 00d3 11       		.uleb128 0x11
 2203 00d4 05       		.uleb128 0x5
 2204 00d5 00       		.byte	0
 2205 00d6 03       		.uleb128 0x3
 2206 00d7 0E       		.uleb128 0xe
 2207 00d8 3A       		.uleb128 0x3a
 2208 00d9 0B       		.uleb128 0xb
 2209 00da 3B       		.uleb128 0x3b
 2210 00db 0B       		.uleb128 0xb
 2211 00dc 49       		.uleb128 0x49
 2212 00dd 13       		.uleb128 0x13
 2213 00de 02       		.uleb128 0x2
 2214 00df 06       		.uleb128 0x6
 2215 00e0 00       		.byte	0
 2216 00e1 00       		.byte	0
 2217 00e2 12       		.uleb128 0x12
 2218 00e3 34       		.uleb128 0x34
 2219 00e4 00       		.byte	0
 2220 00e5 03       		.uleb128 0x3
 2221 00e6 0E       		.uleb128 0xe
 2222 00e7 3A       		.uleb128 0x3a
 2223 00e8 0B       		.uleb128 0xb
 2224 00e9 3B       		.uleb128 0x3b
 2225 00ea 0B       		.uleb128 0xb
ARM GAS  G:\Users\Jaxb\AppData\Local\Temp\ccAJTzse.s 			page 45


 2226 00eb 49       		.uleb128 0x49
 2227 00ec 13       		.uleb128 0x13
 2228 00ed 02       		.uleb128 0x2
 2229 00ee 06       		.uleb128 0x6
 2230 00ef 00       		.byte	0
 2231 00f0 00       		.byte	0
 2232 00f1 13       		.uleb128 0x13
 2233 00f2 898201   		.uleb128 0x4109
 2234 00f5 01       		.byte	0x1
 2235 00f6 11       		.uleb128 0x11
 2236 00f7 01       		.uleb128 0x1
 2237 00f8 31       		.uleb128 0x31
 2238 00f9 13       		.uleb128 0x13
 2239 00fa 01       		.uleb128 0x1
 2240 00fb 13       		.uleb128 0x13
 2241 00fc 00       		.byte	0
 2242 00fd 00       		.byte	0
 2243 00fe 14       		.uleb128 0x14
 2244 00ff 8A8201   		.uleb128 0x410a
 2245 0102 00       		.byte	0
 2246 0103 02       		.uleb128 0x2
 2247 0104 0A       		.uleb128 0xa
 2248 0105 9142     		.uleb128 0x2111
 2249 0107 0A       		.uleb128 0xa
 2250 0108 00       		.byte	0
 2251 0109 00       		.byte	0
 2252 010a 15       		.uleb128 0x15
 2253 010b 898201   		.uleb128 0x4109
 2254 010e 01       		.byte	0x1
 2255 010f 11       		.uleb128 0x11
 2256 0110 01       		.uleb128 0x1
 2257 0111 31       		.uleb128 0x31
 2258 0112 13       		.uleb128 0x13
 2259 0113 00       		.byte	0
 2260 0114 00       		.byte	0
 2261 0115 16       		.uleb128 0x16
 2262 0116 0B       		.uleb128 0xb
 2263 0117 01       		.byte	0x1
 2264 0118 11       		.uleb128 0x11
 2265 0119 01       		.uleb128 0x1
 2266 011a 12       		.uleb128 0x12
 2267 011b 01       		.uleb128 0x1
 2268 011c 01       		.uleb128 0x1
 2269 011d 13       		.uleb128 0x13
 2270 011e 00       		.byte	0
 2271 011f 00       		.byte	0
 2272 0120 17       		.uleb128 0x17
 2273 0121 898201   		.uleb128 0x4109
 2274 0124 00       		.byte	0
 2275 0125 11       		.uleb128 0x11
 2276 0126 01       		.uleb128 0x1
 2277 0127 31       		.uleb128 0x31
 2278 0128 13       		.uleb128 0x13
 2279 0129 00       		.byte	0
 2280 012a 00       		.byte	0
 2281 012b 18       		.uleb128 0x18
 2282 012c 0B       		.uleb128 0xb
ARM GAS  G:\Users\Jaxb\AppData\Local\Temp\ccAJTzse.s 			page 46


 2283 012d 01       		.byte	0x1
 2284 012e 55       		.uleb128 0x55
 2285 012f 06       		.uleb128 0x6
 2286 0130 01       		.uleb128 0x1
 2287 0131 13       		.uleb128 0x13
 2288 0132 00       		.byte	0
 2289 0133 00       		.byte	0
 2290 0134 19       		.uleb128 0x19
 2291 0135 34       		.uleb128 0x34
 2292 0136 00       		.byte	0
 2293 0137 03       		.uleb128 0x3
 2294 0138 0E       		.uleb128 0xe
 2295 0139 3A       		.uleb128 0x3a
 2296 013a 0B       		.uleb128 0xb
 2297 013b 3B       		.uleb128 0x3b
 2298 013c 0B       		.uleb128 0xb
 2299 013d 49       		.uleb128 0x49
 2300 013e 13       		.uleb128 0x13
 2301 013f 02       		.uleb128 0x2
 2302 0140 0A       		.uleb128 0xa
 2303 0141 00       		.byte	0
 2304 0142 00       		.byte	0
 2305 0143 1A       		.uleb128 0x1a
 2306 0144 2E       		.uleb128 0x2e
 2307 0145 01       		.byte	0x1
 2308 0146 03       		.uleb128 0x3
 2309 0147 0E       		.uleb128 0xe
 2310 0148 3A       		.uleb128 0x3a
 2311 0149 0B       		.uleb128 0xb
 2312 014a 3B       		.uleb128 0x3b
 2313 014b 0B       		.uleb128 0xb
 2314 014c 27       		.uleb128 0x27
 2315 014d 0C       		.uleb128 0xc
 2316 014e 49       		.uleb128 0x49
 2317 014f 13       		.uleb128 0x13
 2318 0150 11       		.uleb128 0x11
 2319 0151 01       		.uleb128 0x1
 2320 0152 12       		.uleb128 0x12
 2321 0153 01       		.uleb128 0x1
 2322 0154 40       		.uleb128 0x40
 2323 0155 0A       		.uleb128 0xa
 2324 0156 9742     		.uleb128 0x2117
 2325 0158 0C       		.uleb128 0xc
 2326 0159 01       		.uleb128 0x1
 2327 015a 13       		.uleb128 0x13
 2328 015b 00       		.byte	0
 2329 015c 00       		.byte	0
 2330 015d 1B       		.uleb128 0x1b
 2331 015e 05       		.uleb128 0x5
 2332 015f 00       		.byte	0
 2333 0160 03       		.uleb128 0x3
 2334 0161 0E       		.uleb128 0xe
 2335 0162 3A       		.uleb128 0x3a
 2336 0163 0B       		.uleb128 0xb
 2337 0164 3B       		.uleb128 0x3b
 2338 0165 0B       		.uleb128 0xb
 2339 0166 49       		.uleb128 0x49
ARM GAS  G:\Users\Jaxb\AppData\Local\Temp\ccAJTzse.s 			page 47


 2340 0167 13       		.uleb128 0x13
 2341 0168 02       		.uleb128 0x2
 2342 0169 0A       		.uleb128 0xa
 2343 016a 00       		.byte	0
 2344 016b 00       		.byte	0
 2345 016c 1C       		.uleb128 0x1c
 2346 016d 2E       		.uleb128 0x2e
 2347 016e 00       		.byte	0
 2348 016f 3F       		.uleb128 0x3f
 2349 0170 0C       		.uleb128 0xc
 2350 0171 3C       		.uleb128 0x3c
 2351 0172 0C       		.uleb128 0xc
 2352 0173 8740     		.uleb128 0x2007
 2353 0175 0E       		.uleb128 0xe
 2354 0176 03       		.uleb128 0x3
 2355 0177 0E       		.uleb128 0xe
 2356 0178 3A       		.uleb128 0x3a
 2357 0179 0B       		.uleb128 0xb
 2358 017a 3B       		.uleb128 0x3b
 2359 017b 0B       		.uleb128 0xb
 2360 017c 00       		.byte	0
 2361 017d 00       		.byte	0
 2362 017e 00       		.byte	0
 2363              		.section	.debug_loc,"",%progbits
 2364              	.Ldebug_loc0:
 2365              	.LLST17:
 2366 0000 58020000 		.4byte	.LFB16-.Ltext0
 2367 0004 5A020000 		.4byte	.LCFI13-.Ltext0
 2368 0008 0200     		.2byte	0x2
 2369 000a 7D       		.byte	0x7d
 2370 000b 00       		.sleb128 0
 2371 000c 5A020000 		.4byte	.LCFI13-.Ltext0
 2372 0010 B4020000 		.4byte	.LFE16-.Ltext0
 2373 0014 0200     		.2byte	0x2
 2374 0016 7D       		.byte	0x7d
 2375 0017 10       		.sleb128 16
 2376 0018 00000000 		.4byte	0
 2377 001c 00000000 		.4byte	0
 2378              	.LLST18:
 2379 0020 58020000 		.4byte	.LVL88-.Ltext0
 2380 0024 62020000 		.4byte	.LVL89-.Ltext0
 2381 0028 0100     		.2byte	0x1
 2382 002a 50       		.byte	0x50
 2383 002b 62020000 		.4byte	.LVL89-.Ltext0
 2384 002f 65020000 		.4byte	.LVL90-1-.Ltext0
 2385 0033 0300     		.2byte	0x3
 2386 0035 70       		.byte	0x70
 2387 0036 78       		.sleb128 -8
 2388 0037 9F       		.byte	0x9f
 2389 0038 65020000 		.4byte	.LVL90-1-.Ltext0
 2390 003c 96020000 		.4byte	.LVL98-.Ltext0
 2391 0040 0300     		.2byte	0x3
 2392 0042 75       		.byte	0x75
 2393 0043 78       		.sleb128 -8
 2394 0044 9F       		.byte	0x9f
 2395 0045 96020000 		.4byte	.LVL98-.Ltext0
 2396 0049 9A020000 		.4byte	.LVL99-.Ltext0
ARM GAS  G:\Users\Jaxb\AppData\Local\Temp\ccAJTzse.s 			page 48


 2397 004d 0100     		.2byte	0x1
 2398 004f 50       		.byte	0x50
 2399 0050 9A020000 		.4byte	.LVL99-.Ltext0
 2400 0054 B4020000 		.4byte	.LFE16-.Ltext0
 2401 0058 0400     		.2byte	0x4
 2402 005a F3       		.byte	0xf3
 2403 005b 01       		.uleb128 0x1
 2404 005c 50       		.byte	0x50
 2405 005d 9F       		.byte	0x9f
 2406 005e 00000000 		.4byte	0
 2407 0062 00000000 		.4byte	0
 2408              	.LLST19:
 2409 0066 6C020000 		.4byte	.LVL91-.Ltext0
 2410 006a 92020000 		.4byte	.LVL96-.Ltext0
 2411 006e 0100     		.2byte	0x1
 2412 0070 54       		.byte	0x54
 2413 0071 00000000 		.4byte	0
 2414 0075 00000000 		.4byte	0
 2415              	.LLST20:
 2416 0079 66020000 		.4byte	.LVL90-.Ltext0
 2417 007d 76020000 		.4byte	.LVL92-.Ltext0
 2418 0081 0100     		.2byte	0x1
 2419 0083 50       		.byte	0x50
 2420 0084 8E020000 		.4byte	.LVL95-.Ltext0
 2421 0088 94020000 		.4byte	.LVL97-.Ltext0
 2422 008c 0100     		.2byte	0x1
 2423 008e 50       		.byte	0x50
 2424 008f 00000000 		.4byte	0
 2425 0093 00000000 		.4byte	0
 2426              	.LLST12:
 2427 0097 BC010000 		.4byte	.LFB15-.Ltext0
 2428 009b BE010000 		.4byte	.LCFI12-.Ltext0
 2429 009f 0200     		.2byte	0x2
 2430 00a1 7D       		.byte	0x7d
 2431 00a2 00       		.sleb128 0
 2432 00a3 BE010000 		.4byte	.LCFI12-.Ltext0
 2433 00a7 58020000 		.4byte	.LFE15-.Ltext0
 2434 00ab 0200     		.2byte	0x2
 2435 00ad 7D       		.byte	0x7d
 2436 00ae 10       		.sleb128 16
 2437 00af 00000000 		.4byte	0
 2438 00b3 00000000 		.4byte	0
 2439              	.LLST13:
 2440 00b7 BC010000 		.4byte	.LVL63-.Ltext0
 2441 00bb C7010000 		.4byte	.LVL65-1-.Ltext0
 2442 00bf 0100     		.2byte	0x1
 2443 00c1 50       		.byte	0x50
 2444 00c2 C7010000 		.4byte	.LVL65-1-.Ltext0
 2445 00c6 2C020000 		.4byte	.LVL81-.Ltext0
 2446 00ca 0100     		.2byte	0x1
 2447 00cc 54       		.byte	0x54
 2448 00cd 2C020000 		.4byte	.LVL81-.Ltext0
 2449 00d1 30020000 		.4byte	.LVL82-.Ltext0
 2450 00d5 0100     		.2byte	0x1
 2451 00d7 50       		.byte	0x50
 2452 00d8 30020000 		.4byte	.LVL82-.Ltext0
 2453 00dc 4A020000 		.4byte	.LVL87-.Ltext0
ARM GAS  G:\Users\Jaxb\AppData\Local\Temp\ccAJTzse.s 			page 49


 2454 00e0 0100     		.2byte	0x1
 2455 00e2 54       		.byte	0x54
 2456 00e3 4A020000 		.4byte	.LVL87-.Ltext0
 2457 00e7 58020000 		.4byte	.LFE15-.Ltext0
 2458 00eb 0400     		.2byte	0x4
 2459 00ed F3       		.byte	0xf3
 2460 00ee 01       		.uleb128 0x1
 2461 00ef 50       		.byte	0x50
 2462 00f0 9F       		.byte	0x9f
 2463 00f1 00000000 		.4byte	0
 2464 00f5 00000000 		.4byte	0
 2465              	.LLST14:
 2466 00f9 C4010000 		.4byte	.LVL64-.Ltext0
 2467 00fd CC010000 		.4byte	.LVL66-.Ltext0
 2468 0101 0200     		.2byte	0x2
 2469 0103 30       		.byte	0x30
 2470 0104 9F       		.byte	0x9f
 2471 0105 CC010000 		.4byte	.LVL66-.Ltext0
 2472 0109 E2010000 		.4byte	.LVL67-.Ltext0
 2473 010d 0100     		.2byte	0x1
 2474 010f 50       		.byte	0x50
 2475 0110 E2010000 		.4byte	.LVL67-.Ltext0
 2476 0114 FA010000 		.4byte	.LVL72-.Ltext0
 2477 0118 0100     		.2byte	0x1
 2478 011a 56       		.byte	0x56
 2479 011b FA010000 		.4byte	.LVL72-.Ltext0
 2480 011f FD010000 		.4byte	.LVL73-1-.Ltext0
 2481 0123 0100     		.2byte	0x1
 2482 0125 50       		.byte	0x50
 2483 0126 FD010000 		.4byte	.LVL73-1-.Ltext0
 2484 012a 02020000 		.4byte	.LVL74-.Ltext0
 2485 012e 0100     		.2byte	0x1
 2486 0130 56       		.byte	0x56
 2487 0131 02020000 		.4byte	.LVL74-.Ltext0
 2488 0135 08020000 		.4byte	.LVL76-.Ltext0
 2489 0139 0100     		.2byte	0x1
 2490 013b 50       		.byte	0x50
 2491 013c 08020000 		.4byte	.LVL76-.Ltext0
 2492 0140 2C020000 		.4byte	.LVL81-.Ltext0
 2493 0144 0100     		.2byte	0x1
 2494 0146 56       		.byte	0x56
 2495 0147 40020000 		.4byte	.LVL85-.Ltext0
 2496 014b 43020000 		.4byte	.LVL86-1-.Ltext0
 2497 014f 0100     		.2byte	0x1
 2498 0151 50       		.byte	0x50
 2499 0152 43020000 		.4byte	.LVL86-1-.Ltext0
 2500 0156 4A020000 		.4byte	.LVL87-.Ltext0
 2501 015a 0100     		.2byte	0x1
 2502 015c 56       		.byte	0x56
 2503 015d 00000000 		.4byte	0
 2504 0161 00000000 		.4byte	0
 2505              	.LLST15:
 2506 0165 E6010000 		.4byte	.LVL68-.Ltext0
 2507 0169 EC010000 		.4byte	.LVL69-.Ltext0
 2508 016d 0100     		.2byte	0x1
 2509 016f 50       		.byte	0x50
 2510 0170 EC010000 		.4byte	.LVL69-.Ltext0
ARM GAS  G:\Users\Jaxb\AppData\Local\Temp\ccAJTzse.s 			page 50


 2511 0174 FA010000 		.4byte	.LVL72-.Ltext0
 2512 0178 0100     		.2byte	0x1
 2513 017a 55       		.byte	0x55
 2514 017b 16020000 		.4byte	.LVL78-.Ltext0
 2515 017f 24020000 		.4byte	.LVL79-.Ltext0
 2516 0183 0100     		.2byte	0x1
 2517 0185 50       		.byte	0x50
 2518 0186 24020000 		.4byte	.LVL79-.Ltext0
 2519 018a 2C020000 		.4byte	.LVL81-.Ltext0
 2520 018e 0100     		.2byte	0x1
 2521 0190 55       		.byte	0x55
 2522 0191 00000000 		.4byte	0
 2523 0195 00000000 		.4byte	0
 2524              	.LLST16:
 2525 0199 06020000 		.4byte	.LVL75-.Ltext0
 2526 019d 0D020000 		.4byte	.LVL77-1-.Ltext0
 2527 01a1 0100     		.2byte	0x1
 2528 01a3 51       		.byte	0x51
 2529 01a4 00000000 		.4byte	0
 2530 01a8 00000000 		.4byte	0
 2531              	.LLST9:
 2532 01ac 60010000 		.4byte	.LFB14-.Ltext0
 2533 01b0 62010000 		.4byte	.LCFI11-.Ltext0
 2534 01b4 0200     		.2byte	0x2
 2535 01b6 7D       		.byte	0x7d
 2536 01b7 00       		.sleb128 0
 2537 01b8 62010000 		.4byte	.LCFI11-.Ltext0
 2538 01bc BC010000 		.4byte	.LFE14-.Ltext0
 2539 01c0 0200     		.2byte	0x2
 2540 01c2 7D       		.byte	0x7d
 2541 01c3 10       		.sleb128 16
 2542 01c4 00000000 		.4byte	0
 2543 01c8 00000000 		.4byte	0
 2544              	.LLST10:
 2545 01cc 60010000 		.4byte	.LVL48-.Ltext0
 2546 01d0 69010000 		.4byte	.LVL50-1-.Ltext0
 2547 01d4 0100     		.2byte	0x1
 2548 01d6 50       		.byte	0x50
 2549 01d7 69010000 		.4byte	.LVL50-1-.Ltext0
 2550 01db 84010000 		.4byte	.LVL53-.Ltext0
 2551 01df 0100     		.2byte	0x1
 2552 01e1 55       		.byte	0x55
 2553 01e2 84010000 		.4byte	.LVL53-.Ltext0
 2554 01e6 88010000 		.4byte	.LVL54-.Ltext0
 2555 01ea 0100     		.2byte	0x1
 2556 01ec 50       		.byte	0x50
 2557 01ed 88010000 		.4byte	.LVL54-.Ltext0
 2558 01f1 BC010000 		.4byte	.LFE14-.Ltext0
 2559 01f5 0100     		.2byte	0x1
 2560 01f7 55       		.byte	0x55
 2561 01f8 00000000 		.4byte	0
 2562 01fc 00000000 		.4byte	0
 2563              	.LLST11:
 2564 0200 66010000 		.4byte	.LVL49-.Ltext0
 2565 0204 6E010000 		.4byte	.LVL51-.Ltext0
 2566 0208 0200     		.2byte	0x2
 2567 020a 30       		.byte	0x30
ARM GAS  G:\Users\Jaxb\AppData\Local\Temp\ccAJTzse.s 			page 51


 2568 020b 9F       		.byte	0x9f
 2569 020c 6E010000 		.4byte	.LVL51-.Ltext0
 2570 0210 7F010000 		.4byte	.LVL52-1-.Ltext0
 2571 0214 0100     		.2byte	0x1
 2572 0216 50       		.byte	0x50
 2573 0217 98010000 		.4byte	.LVL57-.Ltext0
 2574 021b 9A010000 		.4byte	.LVL58-.Ltext0
 2575 021f 0100     		.2byte	0x1
 2576 0221 50       		.byte	0x50
 2577 0222 9A010000 		.4byte	.LVL58-.Ltext0
 2578 0226 A6010000 		.4byte	.LVL60-.Ltext0
 2579 022a 0100     		.2byte	0x1
 2580 022c 54       		.byte	0x54
 2581 022d A6010000 		.4byte	.LVL60-.Ltext0
 2582 0231 AA010000 		.4byte	.LVL61-.Ltext0
 2583 0235 0100     		.2byte	0x1
 2584 0237 50       		.byte	0x50
 2585 0238 AA010000 		.4byte	.LVL61-.Ltext0
 2586 023c BC010000 		.4byte	.LFE14-.Ltext0
 2587 0240 0100     		.2byte	0x1
 2588 0242 54       		.byte	0x54
 2589 0243 00000000 		.4byte	0
 2590 0247 00000000 		.4byte	0
 2591              	.LLST5:
 2592 024b 7C000000 		.4byte	.LFB13-.Ltext0
 2593 024f 7E000000 		.4byte	.LCFI1-.Ltext0
 2594 0253 0200     		.2byte	0x2
 2595 0255 7D       		.byte	0x7d
 2596 0256 00       		.sleb128 0
 2597 0257 7E000000 		.4byte	.LCFI1-.Ltext0
 2598 025b 82000000 		.4byte	.LCFI2-.Ltext0
 2599 025f 0200     		.2byte	0x2
 2600 0261 7D       		.byte	0x7d
 2601 0262 14       		.sleb128 20
 2602 0263 82000000 		.4byte	.LCFI2-.Ltext0
 2603 0267 04010000 		.4byte	.LCFI3-.Ltext0
 2604 026b 0200     		.2byte	0x2
 2605 026d 7D       		.byte	0x7d
 2606 026e 30       		.sleb128 48
 2607 026f 04010000 		.4byte	.LCFI3-.Ltext0
 2608 0273 06010000 		.4byte	.LCFI4-.Ltext0
 2609 0277 0200     		.2byte	0x2
 2610 0279 7D       		.byte	0x7d
 2611 027a 14       		.sleb128 20
 2612 027b 06010000 		.4byte	.LCFI4-.Ltext0
 2613 027f 10010000 		.4byte	.LCFI5-.Ltext0
 2614 0283 0200     		.2byte	0x2
 2615 0285 7D       		.byte	0x7d
 2616 0286 30       		.sleb128 48
 2617 0287 10010000 		.4byte	.LCFI5-.Ltext0
 2618 028b 12010000 		.4byte	.LCFI6-.Ltext0
 2619 028f 0200     		.2byte	0x2
 2620 0291 7D       		.byte	0x7d
 2621 0292 14       		.sleb128 20
 2622 0293 12010000 		.4byte	.LCFI6-.Ltext0
 2623 0297 30010000 		.4byte	.LCFI7-.Ltext0
 2624 029b 0200     		.2byte	0x2
ARM GAS  G:\Users\Jaxb\AppData\Local\Temp\ccAJTzse.s 			page 52


 2625 029d 7D       		.byte	0x7d
 2626 029e 30       		.sleb128 48
 2627 029f 30010000 		.4byte	.LCFI7-.Ltext0
 2628 02a3 32010000 		.4byte	.LCFI8-.Ltext0
 2629 02a7 0200     		.2byte	0x2
 2630 02a9 7D       		.byte	0x7d
 2631 02aa 14       		.sleb128 20
 2632 02ab 32010000 		.4byte	.LCFI8-.Ltext0
 2633 02af 44010000 		.4byte	.LCFI9-.Ltext0
 2634 02b3 0200     		.2byte	0x2
 2635 02b5 7D       		.byte	0x7d
 2636 02b6 30       		.sleb128 48
 2637 02b7 44010000 		.4byte	.LCFI9-.Ltext0
 2638 02bb 46010000 		.4byte	.LCFI10-.Ltext0
 2639 02bf 0200     		.2byte	0x2
 2640 02c1 7D       		.byte	0x7d
 2641 02c2 14       		.sleb128 20
 2642 02c3 46010000 		.4byte	.LCFI10-.Ltext0
 2643 02c7 60010000 		.4byte	.LFE13-.Ltext0
 2644 02cb 0200     		.2byte	0x2
 2645 02cd 7D       		.byte	0x7d
 2646 02ce 30       		.sleb128 48
 2647 02cf 00000000 		.4byte	0
 2648 02d3 00000000 		.4byte	0
 2649              	.LLST6:
 2650 02d7 7C000000 		.4byte	.LVL18-.Ltext0
 2651 02db 89000000 		.4byte	.LVL20-1-.Ltext0
 2652 02df 0100     		.2byte	0x1
 2653 02e1 50       		.byte	0x50
 2654 02e2 89000000 		.4byte	.LVL20-1-.Ltext0
 2655 02e6 EC000000 		.4byte	.LVL31-.Ltext0
 2656 02ea 0100     		.2byte	0x1
 2657 02ec 54       		.byte	0x54
 2658 02ed EC000000 		.4byte	.LVL31-.Ltext0
 2659 02f1 02010000 		.4byte	.LVL33-.Ltext0
 2660 02f5 0300     		.2byte	0x3
 2661 02f7 77       		.byte	0x77
 2662 02f8 78       		.sleb128 -8
 2663 02f9 9F       		.byte	0x9f
 2664 02fa 02010000 		.4byte	.LVL33-.Ltext0
 2665 02fe 06010000 		.4byte	.LVL34-.Ltext0
 2666 0302 0400     		.2byte	0x4
 2667 0304 F3       		.byte	0xf3
 2668 0305 01       		.uleb128 0x1
 2669 0306 50       		.byte	0x50
 2670 0307 9F       		.byte	0x9f
 2671 0308 06010000 		.4byte	.LVL34-.Ltext0
 2672 030c 08010000 		.4byte	.LVL35-.Ltext0
 2673 0310 0100     		.2byte	0x1
 2674 0312 54       		.byte	0x54
 2675 0313 08010000 		.4byte	.LVL35-.Ltext0
 2676 0317 12010000 		.4byte	.LVL37-.Ltext0
 2677 031b 0400     		.2byte	0x4
 2678 031d F3       		.byte	0xf3
 2679 031e 01       		.uleb128 0x1
 2680 031f 50       		.byte	0x50
 2681 0320 9F       		.byte	0x9f
ARM GAS  G:\Users\Jaxb\AppData\Local\Temp\ccAJTzse.s 			page 53


 2682 0321 12010000 		.4byte	.LVL37-.Ltext0
 2683 0325 1C010000 		.4byte	.LVL40-.Ltext0
 2684 0329 0100     		.2byte	0x1
 2685 032b 54       		.byte	0x54
 2686 032c 1C010000 		.4byte	.LVL40-.Ltext0
 2687 0330 20010000 		.4byte	.LVL41-.Ltext0
 2688 0334 0100     		.2byte	0x1
 2689 0336 50       		.byte	0x50
 2690 0337 20010000 		.4byte	.LVL41-.Ltext0
 2691 033b 60010000 		.4byte	.LFE13-.Ltext0
 2692 033f 0100     		.2byte	0x1
 2693 0341 54       		.byte	0x54
 2694 0342 00000000 		.4byte	0
 2695 0346 00000000 		.4byte	0
 2696              	.LLST7:
 2697 034a 86000000 		.4byte	.LVL19-.Ltext0
 2698 034e 8E000000 		.4byte	.LVL21-.Ltext0
 2699 0352 0200     		.2byte	0x2
 2700 0354 30       		.byte	0x30
 2701 0355 9F       		.byte	0x9f
 2702 0356 8E000000 		.4byte	.LVL21-.Ltext0
 2703 035a 9E000000 		.4byte	.LVL22-.Ltext0
 2704 035e 0100     		.2byte	0x1
 2705 0360 50       		.byte	0x50
 2706 0361 9E000000 		.4byte	.LVL22-.Ltext0
 2707 0365 E8000000 		.4byte	.LVL30-.Ltext0
 2708 0369 0100     		.2byte	0x1
 2709 036b 56       		.byte	0x56
 2710 036c E8000000 		.4byte	.LVL30-.Ltext0
 2711 0370 FD000000 		.4byte	.LVL32-1-.Ltext0
 2712 0374 0100     		.2byte	0x1
 2713 0376 50       		.byte	0x50
 2714 0377 06010000 		.4byte	.LVL34-.Ltext0
 2715 037b 08010000 		.4byte	.LVL35-.Ltext0
 2716 037f 0100     		.2byte	0x1
 2717 0381 56       		.byte	0x56
 2718 0382 12010000 		.4byte	.LVL37-.Ltext0
 2719 0386 16010000 		.4byte	.LVL38-.Ltext0
 2720 038a 0100     		.2byte	0x1
 2721 038c 50       		.byte	0x50
 2722 038d 16010000 		.4byte	.LVL38-.Ltext0
 2723 0391 1C010000 		.4byte	.LVL40-.Ltext0
 2724 0395 0100     		.2byte	0x1
 2725 0397 56       		.byte	0x56
 2726 0398 32010000 		.4byte	.LVL44-.Ltext0
 2727 039c 3F010000 		.4byte	.LVL45-1-.Ltext0
 2728 03a0 0100     		.2byte	0x1
 2729 03a2 50       		.byte	0x50
 2730 03a3 3F010000 		.4byte	.LVL45-1-.Ltext0
 2731 03a7 46010000 		.4byte	.LVL46-.Ltext0
 2732 03ab 0100     		.2byte	0x1
 2733 03ad 56       		.byte	0x56
 2734 03ae 46010000 		.4byte	.LVL46-.Ltext0
 2735 03b2 49010000 		.4byte	.LVL47-1-.Ltext0
 2736 03b6 0100     		.2byte	0x1
 2737 03b8 50       		.byte	0x50
 2738 03b9 49010000 		.4byte	.LVL47-1-.Ltext0
ARM GAS  G:\Users\Jaxb\AppData\Local\Temp\ccAJTzse.s 			page 54


 2739 03bd 60010000 		.4byte	.LFE13-.Ltext0
 2740 03c1 0100     		.2byte	0x1
 2741 03c3 56       		.byte	0x56
 2742 03c4 00000000 		.4byte	0
 2743 03c8 00000000 		.4byte	0
 2744              	.LLST8:
 2745 03cc C0000000 		.4byte	.LVL25-.Ltext0
 2746 03d0 CE000000 		.4byte	.LVL26-.Ltext0
 2747 03d4 0200     		.2byte	0x2
 2748 03d6 70       		.byte	0x70
 2749 03d7 00       		.sleb128 0
 2750 03d8 00000000 		.4byte	0
 2751 03dc 00000000 		.4byte	0
 2752              	.LLST2:
 2753 03e0 14000000 		.4byte	.LFB12-.Ltext0
 2754 03e4 16000000 		.4byte	.LCFI0-.Ltext0
 2755 03e8 0200     		.2byte	0x2
 2756 03ea 7D       		.byte	0x7d
 2757 03eb 00       		.sleb128 0
 2758 03ec 16000000 		.4byte	.LCFI0-.Ltext0
 2759 03f0 7C000000 		.4byte	.LFE12-.Ltext0
 2760 03f4 0200     		.2byte	0x2
 2761 03f6 7D       		.byte	0x7d
 2762 03f7 10       		.sleb128 16
 2763 03f8 00000000 		.4byte	0
 2764 03fc 00000000 		.4byte	0
 2765              	.LLST3:
 2766 0400 14000000 		.4byte	.LVL4-.Ltext0
 2767 0404 1D000000 		.4byte	.LVL6-1-.Ltext0
 2768 0408 0100     		.2byte	0x1
 2769 040a 50       		.byte	0x50
 2770 040b 1D000000 		.4byte	.LVL6-1-.Ltext0
 2771 040f 48000000 		.4byte	.LVL11-.Ltext0
 2772 0413 0100     		.2byte	0x1
 2773 0415 55       		.byte	0x55
 2774 0416 48000000 		.4byte	.LVL11-.Ltext0
 2775 041a 4C000000 		.4byte	.LVL12-.Ltext0
 2776 041e 0100     		.2byte	0x1
 2777 0420 50       		.byte	0x50
 2778 0421 4C000000 		.4byte	.LVL12-.Ltext0
 2779 0425 66000000 		.4byte	.LVL17-.Ltext0
 2780 0429 0100     		.2byte	0x1
 2781 042b 55       		.byte	0x55
 2782 042c 66000000 		.4byte	.LVL17-.Ltext0
 2783 0430 7C000000 		.4byte	.LFE12-.Ltext0
 2784 0434 0400     		.2byte	0x4
 2785 0436 F3       		.byte	0xf3
 2786 0437 01       		.uleb128 0x1
 2787 0438 50       		.byte	0x50
 2788 0439 9F       		.byte	0x9f
 2789 043a 00000000 		.4byte	0
 2790 043e 00000000 		.4byte	0
 2791              	.LLST4:
 2792 0442 1A000000 		.4byte	.LVL5-.Ltext0
 2793 0446 22000000 		.4byte	.LVL7-.Ltext0
 2794 044a 0200     		.2byte	0x2
 2795 044c 30       		.byte	0x30
ARM GAS  G:\Users\Jaxb\AppData\Local\Temp\ccAJTzse.s 			page 55


 2796 044d 9F       		.byte	0x9f
 2797 044e 22000000 		.4byte	.LVL7-.Ltext0
 2798 0452 3A000000 		.4byte	.LVL8-.Ltext0
 2799 0456 0100     		.2byte	0x1
 2800 0458 50       		.byte	0x50
 2801 0459 3A000000 		.4byte	.LVL8-.Ltext0
 2802 045d 48000000 		.4byte	.LVL11-.Ltext0
 2803 0461 0100     		.2byte	0x1
 2804 0463 56       		.byte	0x56
 2805 0464 5C000000 		.4byte	.LVL15-.Ltext0
 2806 0468 5F000000 		.4byte	.LVL16-1-.Ltext0
 2807 046c 0100     		.2byte	0x1
 2808 046e 50       		.byte	0x50
 2809 046f 5F000000 		.4byte	.LVL16-1-.Ltext0
 2810 0473 66000000 		.4byte	.LVL17-.Ltext0
 2811 0477 0100     		.2byte	0x1
 2812 0479 56       		.byte	0x56
 2813 047a 00000000 		.4byte	0
 2814 047e 00000000 		.4byte	0
 2815              	.LLST1:
 2816 0482 0C000000 		.4byte	.LVL2-.Ltext0
 2817 0486 0E000000 		.4byte	.LVL3-.Ltext0
 2818 048a 0100     		.2byte	0x1
 2819 048c 50       		.byte	0x50
 2820 048d 0E000000 		.4byte	.LVL3-.Ltext0
 2821 0491 14000000 		.4byte	.LFE11-.Ltext0
 2822 0495 0400     		.2byte	0x4
 2823 0497 F3       		.byte	0xf3
 2824 0498 01       		.uleb128 0x1
 2825 0499 50       		.byte	0x50
 2826 049a 9F       		.byte	0x9f
 2827 049b 00000000 		.4byte	0
 2828 049f 00000000 		.4byte	0
 2829              	.LLST0:
 2830 04a3 00000000 		.4byte	.LVL0-.Ltext0
 2831 04a7 06000000 		.4byte	.LVL1-.Ltext0
 2832 04ab 0100     		.2byte	0x1
 2833 04ad 50       		.byte	0x50
 2834 04ae 06000000 		.4byte	.LVL1-.Ltext0
 2835 04b2 0C000000 		.4byte	.LFE10-.Ltext0
 2836 04b6 0400     		.2byte	0x4
 2837 04b8 F3       		.byte	0xf3
 2838 04b9 01       		.uleb128 0x1
 2839 04ba 50       		.byte	0x50
 2840 04bb 9F       		.byte	0x9f
 2841 04bc 00000000 		.4byte	0
 2842 04c0 00000000 		.4byte	0
 2843              		.section	.debug_aranges,"",%progbits
 2844 0000 1C000000 		.4byte	0x1c
 2845 0004 0200     		.2byte	0x2
 2846 0006 00000000 		.4byte	.Ldebug_info0
 2847 000a 04       		.byte	0x4
 2848 000b 00       		.byte	0
 2849 000c 0000     		.2byte	0
 2850 000e 0000     		.2byte	0
 2851 0010 00000000 		.4byte	.Ltext0
 2852 0014 B4020000 		.4byte	.Letext0-.Ltext0
ARM GAS  G:\Users\Jaxb\AppData\Local\Temp\ccAJTzse.s 			page 56


 2853 0018 00000000 		.4byte	0
 2854 001c 00000000 		.4byte	0
 2855              		.section	.debug_ranges,"",%progbits
 2856              	.Ldebug_ranges0:
 2857 0000 9A000000 		.4byte	.LBB2-.Ltext0
 2858 0004 02010000 		.4byte	.LBE2-.Ltext0
 2859 0008 06010000 		.4byte	.LBB3-.Ltext0
 2860 000c 0E010000 		.4byte	.LBE3-.Ltext0
 2861 0010 12010000 		.4byte	.LBB4-.Ltext0
 2862 0014 1C010000 		.4byte	.LBE4-.Ltext0
 2863 0018 00000000 		.4byte	0
 2864 001c 00000000 		.4byte	0
 2865              		.section	.debug_line,"",%progbits
 2866              	.Ldebug_line0:
 2867 0000 AF020000 		.section	.debug_str,"MS",%progbits,1
 2867      02006C01 
 2867      00000201 
 2867      FB0E0D00 
 2867      01010101 
 2868              	.LASF35:
 2869 0000 5441534B 		.ascii	"TASK_PRIO_TYPE\000"
 2869      5F505249 
 2869      4F5F5459 
 2869      504500
 2870              	.LASF55:
 2871 000f 6D757465 		.ascii	"mutex_insert_sort_TCB_list\000"
 2871      785F696E 
 2871      73657274 
 2871      5F736F72 
 2871      745F5443 
 2872              	.LASF32:
 2873 002a 53544154 		.ascii	"STATE_WAIT_MUTEX_FOREVER\000"
 2873      455F5741 
 2873      49545F4D 
 2873      55544558 
 2873      5F464F52 
 2874              	.LASF25:
 2875 0043 53544154 		.ascii	"STATE_SUSPEND_NORMAL\000"
 2875      455F5355 
 2875      5350454E 
 2875      445F4E4F 
 2875      524D414C 
 2876              	.LASF67:
 2877 0058 6D757465 		.ascii	"mutex_del\000"
 2877      785F6465 
 2877      6C00
 2878              	.LASF89:
 2879 0062 696E7365 		.ascii	"insert_sort_get_first_data_ptr\000"
 2879      72745F73 
 2879      6F72745F 
 2879      6765745F 
 2879      66697273 
 2880              	.LASF12:
 2881 0081 6C697374 		.ascii	"list_head\000"
 2881      5F686561 
 2881      6400
 2882              	.LASF18:
ARM GAS  G:\Users\Jaxb\AppData\Local\Temp\ccAJTzse.s 			page 57


 2883 008b 64617461 		.ascii	"data_list_head\000"
 2883      5F6C6973 
 2883      745F6865 
 2883      616400
 2884              	.LASF87:
 2885 009a 696E6974 		.ascii	"init_insert_sort_data\000"
 2885      5F696E73 
 2885      6572745F 
 2885      736F7274 
 2885      5F646174 
 2886              	.LASF3:
 2887 00b0 73686F72 		.ascii	"short int\000"
 2887      7420696E 
 2887      7400
 2888              	.LASF27:
 2889 00ba 53544154 		.ascii	"STATE_WAIT_MCB_TIMEOUT\000"
 2889      455F5741 
 2889      49545F4D 
 2889      43425F54 
 2889      494D454F 
 2890              	.LASF15:
 2891 00d1 6964656E 		.ascii	"identify_data\000"
 2891      74696679 
 2891      5F646174 
 2891      6100
 2892              	.LASF16:
 2893 00df 64617461 		.ascii	"data_list\000"
 2893      5F6C6973 
 2893      7400
 2894              	.LASF69:
 2895 00e9 4D555445 		.ascii	"MUTEX_ptr\000"
 2895      585F7074 
 2895      7200
 2896              	.LASF28:
 2897 00f3 53544154 		.ascii	"STATE_WAIT_MESSAGE_QUEUE_FOREVER\000"
 2897      455F5741 
 2897      49545F4D 
 2897      45535341 
 2897      47455F51 
 2898              	.LASF62:
 2899 0114 4350555F 		.ascii	"CPU_SR\000"
 2899      535200
 2900              	.LASF8:
 2901 011b 55494E54 		.ascii	"UINT32\000"
 2901      333200
 2902              	.LASF34:
 2903 0122 53544143 		.ascii	"STACK_TYPE\000"
 2903      4B5F5459 
 2903      504500
 2904              	.LASF76:
 2905 012d 6D757465 		.ascii	"mutex_init\000"
 2905      785F696E 
 2905      697400
 2906              	.LASF57:
 2907 0138 5461736B 		.ascii	"Task_State\000"
 2907      5F537461 
 2907      746500
ARM GAS  G:\Users\Jaxb\AppData\Local\Temp\ccAJTzse.s 			page 58


 2908              	.LASF30:
 2909 0143 53544154 		.ascii	"STATE_PUT_MESSAGE_QUEUE_FOREVER\000"
 2909      455F5055 
 2909      545F4D45 
 2909      53534147 
 2909      455F5155 
 2910              	.LASF85:
 2911 0163 73636865 		.ascii	"schedule\000"
 2911      64756C65 
 2911      00
 2912              	.LASF91:
 2913 016c 696E6974 		.ascii	"init_insert_sort_entity\000"
 2913      5F696E73 
 2913      6572745F 
 2913      736F7274 
 2913      5F656E74 
 2914              	.LASF56:
 2915 0184 4D555445 		.ascii	"MUTEX\000"
 2915      5800
 2916              	.LASF14:
 2917 018a 64617461 		.ascii	"data_ptr\000"
 2917      5F707472 
 2917      00
 2918              	.LASF39:
 2919 0193 73746163 		.ascii	"stack_end\000"
 2919      6B5F656E 
 2919      6400
 2920              	.LASF83:
 2921 019d 7461736B 		.ascii	"task_change_prio\000"
 2921      5F636861 
 2921      6E67655F 
 2921      7072696F 
 2921      00
 2922              	.LASF81:
 2923 01ae 72656D6F 		.ascii	"remove_from_suspend_list\000"
 2923      76655F66 
 2923      726F6D5F 
 2923      73757370 
 2923      656E645F 
 2924              	.LASF52:
 2925 01c7 6D757465 		.ascii	"mutex_block\000"
 2925      785F626C 
 2925      6F636B00 
 2926              	.LASF29:
 2927 01d3 53544154 		.ascii	"STATE_WAIT_MESSAGE_QUEUE_TIMEOUT\000"
 2927      455F5741 
 2927      49545F4D 
 2927      45535341 
 2927      47455F51 
 2928              	.LASF94:
 2929 01f4 463A5C6B 		.ascii	"F:\\kaka\\KAKAOS\\C\\windows\\Project\\RVMDK\243\250"
 2929      616B615C 
 2929      4B414B41 
 2929      4F535C43 
 2929      5C77696E 
 2930 021c 757635A3 		.ascii	"uv5\243\251\000"
 2930      A900
ARM GAS  G:\Users\Jaxb\AppData\Local\Temp\ccAJTzse.s 			page 59


 2931              	.LASF4:
 2932 0222 6C6F6E67 		.ascii	"long long int\000"
 2932      206C6F6E 
 2932      6720696E 
 2932      7400
 2933              	.LASF10:
 2934 0230 6C6F6E67 		.ascii	"long long unsigned int\000"
 2934      206C6F6E 
 2934      6720756E 
 2934      7369676E 
 2934      65642069 
 2935              	.LASF47:
 2936 0247 74696D65 		.ascii	"timeslice_hope_time\000"
 2936      736C6963 
 2936      655F686F 
 2936      70655F74 
 2936      696D6500 
 2937              	.LASF13:
 2938 025b 696E7365 		.ascii	"insert_sort_data\000"
 2938      72745F73 
 2938      6F72745F 
 2938      64617461 
 2938      00
 2939              	.LASF21:
 2940 026c 6765745F 		.ascii	"get_data_ptr\000"
 2940      64617461 
 2940      5F707472 
 2940      00
 2941              	.LASF74:
 2942 0279 6D757465 		.ascii	"mutex_lock\000"
 2942      785F6C6F 
 2942      636B00
 2943              	.LASF82:
 2944 0284 6B615F70 		.ascii	"ka_printf\000"
 2944      72696E74 
 2944      6600
 2945              	.LASF33:
 2946 028e 5441534B 		.ascii	"TASK_STATE\000"
 2946      5F535441 
 2946      544500
 2947              	.LASF90:
 2948 0299 7379735F 		.ascii	"sys_suspend\000"
 2948      73757370 
 2948      656E6400 
 2949              	.LASF5:
 2950 02a5 756E7369 		.ascii	"unsigned char\000"
 2950      676E6564 
 2950      20636861 
 2950      7200
 2951              	.LASF88:
 2952 02b3 696E7365 		.ascii	"insert_sort_insert_into\000"
 2952      72745F73 
 2952      6F72745F 
 2952      696E7365 
 2952      72745F69 
 2953              	.LASF73:
 2954 02cb 6D757465 		.ascii	"mutex_try_lock\000"
ARM GAS  G:\Users\Jaxb\AppData\Local\Temp\ccAJTzse.s 			page 60


 2954      785F7472 
 2954      795F6C6F 
 2954      636B00
 2955              	.LASF80:
 2956 02da 5F415353 		.ascii	"_ASSERT\000"
 2956      45525400 
 2957              	.LASF58:
 2958 02e2 6D757465 		.ascii	"mutex_state\000"
 2958      785F7374 
 2958      61746500 
 2959              	.LASF84:
 2960 02ee 4350555F 		.ascii	"CPU_SR_Save\000"
 2960      53525F53 
 2960      61766500 
 2961              	.LASF23:
 2962 02fa 53544154 		.ascii	"STATE_READY\000"
 2962      455F5245 
 2962      41445900 
 2963              	.LASF24:
 2964 0306 53544154 		.ascii	"STATE_DELAY\000"
 2964      455F4445 
 2964      4C415900 
 2965              	.LASF49:
 2966 0312 61747472 		.ascii	"attribution\000"
 2966      69627574 
 2966      696F6E00 
 2967              	.LASF66:
 2968 031e 696E7365 		.ascii	"insert_sort_data_ptr\000"
 2968      72745F73 
 2968      6F72745F 
 2968      64617461 
 2968      5F707472 
 2969              	.LASF2:
 2970 0333 7369676E 		.ascii	"signed char\000"
 2970      65642063 
 2970      68617200 
 2971              	.LASF86:
 2972 033f 4350555F 		.ascii	"CPU_SR_Restore\000"
 2972      53525F52 
 2972      6573746F 
 2972      726500
 2973              	.LASF7:
 2974 034e 756E7369 		.ascii	"unsigned int\000"
 2974      676E6564 
 2974      20696E74 
 2974      00
 2975              	.LASF71:
 2976 035b 62756666 		.ascii	"buffer_ptr\000"
 2976      65725F70 
 2976      747200
 2977              	.LASF37:
 2978 0366 73746163 		.ascii	"stack\000"
 2978      6B00
 2979              	.LASF44:
 2980 036c 73616D65 		.ascii	"same_prio_list\000"
 2980      5F707269 
 2980      6F5F6C69 
ARM GAS  G:\Users\Jaxb\AppData\Local\Temp\ccAJTzse.s 			page 61


 2980      737400
 2981              	.LASF22:
 2982 037b 76616C75 		.ascii	"value_cmp\000"
 2982      655F636D 
 2982      7000
 2983              	.LASF6:
 2984 0385 73686F72 		.ascii	"short unsigned int\000"
 2984      7420756E 
 2984      7369676E 
 2984      65642069 
 2984      6E7400
 2985              	.LASF53:
 2986 0398 6D757465 		.ascii	"mutex_flag\000"
 2986      785F666C 
 2986      616700
 2987              	.LASF93:
 2988 03a3 2E2E2F2E 		.ascii	"../../source/src/kernel/OS_CORE/mutex.c\000"
 2988      2E2F736F 
 2988      75726365 
 2988      2F737263 
 2988      2F6B6572 
 2989              	.LASF31:
 2990 03cb 53544154 		.ascii	"STATE_PUT_MESSAGE_QUEUE_TIMEOUT\000"
 2990      455F5055 
 2990      545F4D45 
 2990      53534147 
 2990      455F5155 
 2991              	.LASF61:
 2992 03eb 4350555F 		.ascii	"CPU_INT32U\000"
 2992      494E5433 
 2992      325500
 2993              	.LASF75:
 2994 03f6 64617461 		.ascii	"data\000"
 2994      00
 2995              	.LASF72:
 2996 03fb 62756666 		.ascii	"buffer\000"
 2996      657200
 2997              	.LASF11:
 2998 0402 69645F74 		.ascii	"id_type\000"
 2998      79706500 
 2999              	.LASF60:
 3000 040a 4D555445 		.ascii	"MUTEX_UNLOCK\000"
 3000      585F554E 
 3000      4C4F434B 
 3000      00
 3001              	.LASF43:
 3002 0417 64656C61 		.ascii	"delay_heap_position\000"
 3002      795F6865 
 3002      61705F70 
 3002      6F736974 
 3002      696F6E00 
 3003              	.LASF42:
 3004 042b 7461736B 		.ascii	"task_state\000"
 3004      5F737461 
 3004      746500
 3005              	.LASF79:
 3006 0436 696E7365 		.ascii	"insert_sort_delete_head\000"
ARM GAS  G:\Users\Jaxb\AppData\Local\Temp\ccAJTzse.s 			page 62


 3006      72745F73 
 3006      6F72745F 
 3006      64656C65 
 3006      74655F68 
 3007              	.LASF48:
 3008 044e 74696D65 		.ascii	"timeslice_rest_time\000"
 3008      736C6963 
 3008      655F7265 
 3008      73745F74 
 3008      696D6500 
 3009              	.LASF51:
 3010 0462 63686172 		.ascii	"char\000"
 3010      00
 3011              	.LASF17:
 3012 0467 696E7365 		.ascii	"insert_sort_entity\000"
 3012      72745F73 
 3012      6F72745F 
 3012      656E7469 
 3012      747900
 3013              	.LASF26:
 3014 047a 53544154 		.ascii	"STATE_WAIT_MCB_FOREVER\000"
 3014      455F5741 
 3014      49545F4D 
 3014      43425F46 
 3014      4F524556 
 3015              	.LASF20:
 3016 0491 636F6D70 		.ascii	"compare\000"
 3016      61726500 
 3017              	.LASF36:
 3018 0499 7461736B 		.ascii	"task_control_block_struct\000"
 3018      5F636F6E 
 3018      74726F6C 
 3018      5F626C6F 
 3018      636B5F73 
 3019              	.LASF38:
 3020 04b3 73746163 		.ascii	"stack_size\000"
 3020      6B5F7369 
 3020      7A6500
 3021              	.LASF54:
 3022 04be 6F776E65 		.ascii	"owner_TCB_ptr\000"
 3022      725F5443 
 3022      425F7074 
 3022      7200
 3023              	.LASF65:
 3024 04cc 5443425F 		.ascii	"TCB_ptr\000"
 3024      70747200 
 3025              	.LASF46:
 3026 04d4 6E616D65 		.ascii	"name\000"
 3026      00
 3027              	.LASF41:
 3028 04d9 72657365 		.ascii	"reserve_prio\000"
 3028      7276655F 
 3028      7072696F 
 3028      00
 3029              	.LASF45:
 3030 04e6 73757370 		.ascii	"suspend_list\000"
 3030      656E645F 
ARM GAS  G:\Users\Jaxb\AppData\Local\Temp\ccAJTzse.s 			page 63


 3030      6C697374 
 3030      00
 3031              	.LASF63:
 3032 04f3 675F696E 		.ascii	"g_interrupt_count\000"
 3032      74657272 
 3032      7570745F 
 3032      636F756E 
 3032      7400
 3033              	.LASF70:
 3034 0505 6370755F 		.ascii	"cpu_sr\000"
 3034      737200
 3035              	.LASF92:
 3036 050c 474E5520 		.ascii	"GNU C11 7.3.1 20180622 (release) [ARM/embedded-7-br"
 3036      43313120 
 3036      372E332E 
 3036      31203230 
 3036      31383036 
 3037 053f 616E6368 		.ascii	"anch revision 261907] -mcpu=cortex-m3 -mthumb -mapc"
 3037      20726576 
 3037      6973696F 
 3037      6E203236 
 3037      31393037 
 3038 0572 732D6672 		.ascii	"s-frame -mthumb-interwork -mcpu=cortex-m3 -mthumb -"
 3038      616D6520 
 3038      2D6D7468 
 3038      756D622D 
 3038      696E7465 
 3039 05a5 67647761 		.ascii	"gdwarf-2 -O2\000"
 3039      72662D32 
 3039      202D4F32 
 3039      00
 3040              	.LASF77:
 3041 05b2 64617461 		.ascii	"data1\000"
 3041      3100
 3042              	.LASF78:
 3043 05b8 64617461 		.ascii	"data2\000"
 3043      3200
 3044              	.LASF1:
 3045 05be 70726576 		.ascii	"prev\000"
 3045      00
 3046              	.LASF19:
 3047 05c3 64617461 		.ascii	"data_num\000"
 3047      5F6E756D 
 3047      00
 3048              	.LASF50:
 3049 05cc 64656C61 		.ascii	"delay_reach_time\000"
 3049      795F7265 
 3049      6163685F 
 3049      74696D65 
 3049      00
 3050              	.LASF9:
 3051 05dd 55494E54 		.ascii	"UINT64\000"
 3051      363400
 3052              	.LASF59:
 3053 05e4 4D555445 		.ascii	"MUTEX_LOCK\000"
 3053      585F4C4F 
 3053      434B00
ARM GAS  G:\Users\Jaxb\AppData\Local\Temp\ccAJTzse.s 			page 64


 3054              	.LASF40:
 3055 05ef 7072696F 		.ascii	"prio\000"
 3055      00
 3056              	.LASF64:
 3057 05f4 4F535443 		.ascii	"OSTCBCurPtr\000"
 3057      42437572 
 3057      50747200 
 3058              	.LASF0:
 3059 0600 6E657874 		.ascii	"next\000"
 3059      00
 3060              	.LASF68:
 3061 0605 6D757465 		.ascii	"mutex_unlock\000"
 3061      785F756E 
 3061      6C6F636B 
 3061      00
 3062              		.ident	"GCC: (GNU Tools for Arm Embedded Processors 7-2018-q2-update) 7.3.1 20180622 (release) [AR
ARM GAS  G:\Users\Jaxb\AppData\Local\Temp\ccAJTzse.s 			page 65


DEFINED SYMBOLS
                            *ABS*:00000000 mutex.c
G:\Users\Jaxb\AppData\Local\Temp\ccAJTzse.s:15     .text:00000000 $t
G:\Users\Jaxb\AppData\Local\Temp\ccAJTzse.s:22     .text:00000000 compare
G:\Users\Jaxb\AppData\Local\Temp\ccAJTzse.s:50     .text:0000000c value_cmp
G:\Users\Jaxb\AppData\Local\Temp\ccAJTzse.s:76     .text:00000014 mutex_init
G:\Users\Jaxb\AppData\Local\Temp\ccAJTzse.s:157    .text:00000068 $d
G:\Users\Jaxb\AppData\Local\Temp\ccAJTzse.s:165    .text:0000007c $t
G:\Users\Jaxb\AppData\Local\Temp\ccAJTzse.s:173    .text:0000007c mutex_lock
G:\Users\Jaxb\AppData\Local\Temp\ccAJTzse.s:390    .text:00000150 $d
G:\Users\Jaxb\AppData\Local\Temp\ccAJTzse.s:397    .text:00000160 $t
G:\Users\Jaxb\AppData\Local\Temp\ccAJTzse.s:405    .text:00000160 mutex_try_lock
G:\Users\Jaxb\AppData\Local\Temp\ccAJTzse.s:492    .text:000001b0 $d
G:\Users\Jaxb\AppData\Local\Temp\ccAJTzse.s:498    .text:000001bc $t
G:\Users\Jaxb\AppData\Local\Temp\ccAJTzse.s:506    .text:000001bc mutex_unlock
G:\Users\Jaxb\AppData\Local\Temp\ccAJTzse.s:645    .text:0000024c $d
G:\Users\Jaxb\AppData\Local\Temp\ccAJTzse.s:651    .text:00000258 $t
G:\Users\Jaxb\AppData\Local\Temp\ccAJTzse.s:659    .text:00000258 mutex_del
G:\Users\Jaxb\AppData\Local\Temp\ccAJTzse.s:743    .text:000002ac $d
G:\Users\Jaxb\AppData\Local\Temp\ccAJTzse.s:749    .rodata.str1.4:00000000 $d

UNDEFINED SYMBOLS
CPU_SR_Save
init_insert_sort_entity
CPU_SR_Restore
_ASSERT
ka_printf
g_interrupt_count
init_insert_sort_data
insert_sort_insert_into
insert_sort_get_first_data_ptr
task_change_prio
sys_suspend
OSTCBCurPtr
insert_sort_delete_head
remove_from_suspend_list
schedule
