ARM GAS  G:\Users\Jaxb\AppData\Local\Temp\ccG52moA.s 			page 1


   1              		.cpu cortex-m3
   2              		.eabi_attribute 20, 1
   3              		.eabi_attribute 21, 1
   4              		.eabi_attribute 23, 3
   5              		.eabi_attribute 24, 1
   6              		.eabi_attribute 25, 1
   7              		.eabi_attribute 26, 1
   8              		.eabi_attribute 30, 2
   9              		.eabi_attribute 34, 1
  10              		.eabi_attribute 18, 4
  11              		.file	"mutex.c"
  12              		.text
  13              	.Ltext0:
  14              		.cfi_sections	.debug_frame
  15              		.align	1
  16              		.p2align 2,,3
  17              		.syntax unified
  18              		.thumb
  19              		.thumb_func
  20              		.fpu softvfp
  21              		.type	compare, %function
  22              	compare:
  23              	.LFB10:
  24              		.file 1 "../../source/src/kernel/OS_CORE/mutex.c"
   1:../../source/src/kernel/OS_CORE/mutex.c **** #include <mutex.h>
   2:../../source/src/kernel/OS_CORE/mutex.c **** #include <os_schedule.h>
   3:../../source/src/kernel/OS_CORE/mutex.c **** #include <myassert.h>
   4:../../source/src/kernel/OS_CORE/mutex.c **** #include <os_cpu.h>
   5:../../source/src/kernel/OS_CORE/mutex.c **** #include <os_suspend.h>
   6:../../source/src/kernel/OS_CORE/mutex.c **** #include <export.h>
   7:../../source/src/kernel/OS_CORE/mutex.c **** 
   8:../../source/src/kernel/OS_CORE/mutex.c **** extern volatile TCB * OSTCBCurPtr;
   9:../../source/src/kernel/OS_CORE/mutex.c **** 
  10:../../source/src/kernel/OS_CORE/mutex.c **** inline static int compare(struct insert_sort_data *data1,struct insert_sort_data *data2)
  11:../../source/src/kernel/OS_CORE/mutex.c **** {
  25              		.loc 1 11 0
  26              		.cfi_startproc
  27              		@ args = 0, pretend = 0, frame = 0
  28              		@ frame_needed = 0, uses_anonymous_args = 0
  29              		@ link register save eliminated.
  30              	.LVL0:
  12:../../source/src/kernel/OS_CORE/mutex.c **** 	return ((TCB*)(data1->data_ptr))->prio - ((TCB*)(data2->data_ptr))->prio;
  31              		.loc 1 12 0
  32 0000 0268     		ldr	r2, [r0]
  33 0002 0B68     		ldr	r3, [r1]
  34 0004 D068     		ldr	r0, [r2, #12]
  35              	.LVL1:
  36 0006 DB68     		ldr	r3, [r3, #12]
  13:../../source/src/kernel/OS_CORE/mutex.c **** }
  37              		.loc 1 13 0
  38 0008 C01A     		subs	r0, r0, r3
  39 000a 7047     		bx	lr
  40              		.cfi_endproc
  41              	.LFE10:
  42              		.size	compare, .-compare
  43              		.align	1
  44              		.p2align 2,,3
ARM GAS  G:\Users\Jaxb\AppData\Local\Temp\ccG52moA.s 			page 2


  45              		.syntax unified
  46              		.thumb
  47              		.thumb_func
  48              		.fpu softvfp
  49              		.type	value_cmp, %function
  50              	value_cmp:
  51              	.LFB11:
  14:../../source/src/kernel/OS_CORE/mutex.c **** 
  15:../../source/src/kernel/OS_CORE/mutex.c **** inline static int value_cmp(void *data1,void *data2)
  16:../../source/src/kernel/OS_CORE/mutex.c **** {
  52              		.loc 1 16 0
  53              		.cfi_startproc
  54              		@ args = 0, pretend = 0, frame = 0
  55              		@ frame_needed = 0, uses_anonymous_args = 0
  56              		@ link register save eliminated.
  57              	.LVL2:
  17:../../source/src/kernel/OS_CORE/mutex.c **** 	return ((TCB*)data1)->prio - ((TCB*)data2)->prio;
  58              		.loc 1 17 0
  59 000c C068     		ldr	r0, [r0, #12]
  60              	.LVL3:
  61 000e CB68     		ldr	r3, [r1, #12]
  18:../../source/src/kernel/OS_CORE/mutex.c **** }
  62              		.loc 1 18 0
  63 0010 C01A     		subs	r0, r0, r3
  64 0012 7047     		bx	lr
  65              		.cfi_endproc
  66              	.LFE11:
  67              		.size	value_cmp, .-value_cmp
  68              		.align	1
  69              		.p2align 2,,3
  70              		.global	mutex_try_lock
  71              		.syntax unified
  72              		.thumb
  73              		.thumb_func
  74              		.fpu softvfp
  75              		.type	mutex_try_lock, %function
  76              	mutex_try_lock:
  77              	.LFB14:
  19:../../source/src/kernel/OS_CORE/mutex.c **** 
  20:../../source/src/kernel/OS_CORE/mutex.c **** int mutex_init(MUTEX *MUTEX_ptr)
  21:../../source/src/kernel/OS_CORE/mutex.c **** {
  22:../../source/src/kernel/OS_CORE/mutex.c **** 	ASSERT(NULL != MUTEX_ptr);
  23:../../source/src/kernel/OS_CORE/mutex.c **** #if CONFIG_PARA_CHECK
  24:../../source/src/kernel/OS_CORE/mutex.c **** 	if(NULL == MUTEX_ptr)
  25:../../source/src/kernel/OS_CORE/mutex.c **** 	{
  26:../../source/src/kernel/OS_CORE/mutex.c **** 		OS_ERROR_PARA_MESSAGE_DISPLAY(mutex_init,MUTEX_ptr);
  27:../../source/src/kernel/OS_CORE/mutex.c **** 		return -ERROR_NULL_INPUT_PTR;
  28:../../source/src/kernel/OS_CORE/mutex.c **** 	}
  29:../../source/src/kernel/OS_CORE/mutex.c **** #endif
  30:../../source/src/kernel/OS_CORE/mutex.c **** 	CPU_SR_ALLOC();
  31:../../source/src/kernel/OS_CORE/mutex.c **** 	CPU_CRITICAL_ENTER();
  32:../../source/src/kernel/OS_CORE/mutex.c **** 	if (g_interrupt_count > 0)
  33:../../source/src/kernel/OS_CORE/mutex.c **** 	{
  34:../../source/src/kernel/OS_CORE/mutex.c **** 		CPU_CRITICAL_EXIT();
  35:../../source/src/kernel/OS_CORE/mutex.c **** 		return -ERROR_FUN_USE_IN_INTER;
  36:../../source/src/kernel/OS_CORE/mutex.c **** 	}
  37:../../source/src/kernel/OS_CORE/mutex.c **** 	MUTEX_ptr->mutex_flag = MUTEX_UNLOCK;
ARM GAS  G:\Users\Jaxb\AppData\Local\Temp\ccG52moA.s 			page 3


  38:../../source/src/kernel/OS_CORE/mutex.c **** 	MUTEX_ptr->owner_TCB_ptr = NULL;
  39:../../source/src/kernel/OS_CORE/mutex.c **** 	init_insert_sort_entity(
  40:../../source/src/kernel/OS_CORE/mutex.c **** 		&MUTEX_ptr->mutex_insert_sort_TCB_list,
  41:../../source/src/kernel/OS_CORE/mutex.c **** 		compare,
  42:../../source/src/kernel/OS_CORE/mutex.c **** 		NULL,
  43:../../source/src/kernel/OS_CORE/mutex.c **** 		value_cmp
  44:../../source/src/kernel/OS_CORE/mutex.c **** 		);
  45:../../source/src/kernel/OS_CORE/mutex.c **** 	CPU_CRITICAL_EXIT();
  46:../../source/src/kernel/OS_CORE/mutex.c **** 	return FUN_EXECUTE_SUCCESSFULLY;
  47:../../source/src/kernel/OS_CORE/mutex.c **** }
  48:../../source/src/kernel/OS_CORE/mutex.c **** EXPORT_SYMBOL(mutex_init);
  49:../../source/src/kernel/OS_CORE/mutex.c **** 
  50:../../source/src/kernel/OS_CORE/mutex.c **** int mutex_lock(MUTEX *MUTEX_ptr)
  51:../../source/src/kernel/OS_CORE/mutex.c **** {
  52:../../source/src/kernel/OS_CORE/mutex.c **** 	ASSERT(NULL != MUTEX_ptr);
  53:../../source/src/kernel/OS_CORE/mutex.c **** #if CONFIG_PARA_CHECK
  54:../../source/src/kernel/OS_CORE/mutex.c **** 	if(NULL == MUTEX_ptr)
  55:../../source/src/kernel/OS_CORE/mutex.c **** 	{
  56:../../source/src/kernel/OS_CORE/mutex.c **** 		OS_ERROR_PARA_MESSAGE_DISPLAY(mutex_lock,MUTEX_ptr);
  57:../../source/src/kernel/OS_CORE/mutex.c **** 		return -ERROR_NULL_INPUT_PTR;
  58:../../source/src/kernel/OS_CORE/mutex.c **** 	}
  59:../../source/src/kernel/OS_CORE/mutex.c **** #endif
  60:../../source/src/kernel/OS_CORE/mutex.c **** 	CPU_SR_ALLOC();
  61:../../source/src/kernel/OS_CORE/mutex.c **** 	CPU_CRITICAL_ENTER();//enter critical
  62:../../source/src/kernel/OS_CORE/mutex.c **** 	if (g_interrupt_count > 0)
  63:../../source/src/kernel/OS_CORE/mutex.c **** 	{
  64:../../source/src/kernel/OS_CORE/mutex.c **** 		CPU_CRITICAL_EXIT();
  65:../../source/src/kernel/OS_CORE/mutex.c **** 		return -ERROR_FUN_USE_IN_INTER;
  66:../../source/src/kernel/OS_CORE/mutex.c **** 	}
  67:../../source/src/kernel/OS_CORE/mutex.c **** 	if(MUTEX_UNLOCK == MUTEX_ptr->mutex_flag)
  68:../../source/src/kernel/OS_CORE/mutex.c **** 	{
  69:../../source/src/kernel/OS_CORE/mutex.c **** 		MUTEX_ptr->mutex_flag = MUTEX_LOCK;
  70:../../source/src/kernel/OS_CORE/mutex.c **** 		MUTEX_ptr->owner_TCB_ptr = (TCB *)OSTCBCurPtr;
  71:../../source/src/kernel/OS_CORE/mutex.c **** 		CPU_CRITICAL_EXIT();
  72:../../source/src/kernel/OS_CORE/mutex.c **** 	}
  73:../../source/src/kernel/OS_CORE/mutex.c **** 	else
  74:../../source/src/kernel/OS_CORE/mutex.c **** 	{
  75:../../source/src/kernel/OS_CORE/mutex.c **** 		ASSERT(MUTEX_LOCK == MUTEX_ptr->mutex_flag);
  76:../../source/src/kernel/OS_CORE/mutex.c **** 		if(MUTEX_ptr->owner_TCB_ptr == (TCB *)OSTCBCurPtr)
  77:../../source/src/kernel/OS_CORE/mutex.c **** 		{
  78:../../source/src/kernel/OS_CORE/mutex.c **** 			CPU_CRITICAL_EXIT();
  79:../../source/src/kernel/OS_CORE/mutex.c **** 			return FUN_EXECUTE_SUCCESSFULLY;
  80:../../source/src/kernel/OS_CORE/mutex.c **** 		}
  81:../../source/src/kernel/OS_CORE/mutex.c **** 		struct insert_sort_data data;
  82:../../source/src/kernel/OS_CORE/mutex.c **** 		init_insert_sort_data(&data,(void *)OSTCBCurPtr);
  83:../../source/src/kernel/OS_CORE/mutex.c **** 		insert_sort_insert_into(&data,&MUTEX_ptr->mutex_insert_sort_TCB_list);
  84:../../source/src/kernel/OS_CORE/mutex.c **** 		TCB *TCB_ptr = (TCB *)(insert_sort_get_first_data_ptr(&MUTEX_ptr->mutex_insert_sort_TCB_list)->da
  85:../../source/src/kernel/OS_CORE/mutex.c **** 		if(MUTEX_ptr->owner_TCB_ptr->prio > TCB_ptr->prio)
  86:../../source/src/kernel/OS_CORE/mutex.c **** 		{
  87:../../source/src/kernel/OS_CORE/mutex.c **** 			if(RESERVED_PRIO == MUTEX_ptr->owner_TCB_ptr->reserve_prio)
  88:../../source/src/kernel/OS_CORE/mutex.c **** 			{
  89:../../source/src/kernel/OS_CORE/mutex.c **** 				MUTEX_ptr->owner_TCB_ptr->reserve_prio = MUTEX_ptr->owner_TCB_ptr->prio;
  90:../../source/src/kernel/OS_CORE/mutex.c **** 			}
  91:../../source/src/kernel/OS_CORE/mutex.c **** 			task_change_prio(MUTEX_ptr->owner_TCB_ptr,TCB_ptr->prio);
  92:../../source/src/kernel/OS_CORE/mutex.c **** 		}
  93:../../source/src/kernel/OS_CORE/mutex.c **** 		sys_suspend(STATE_WAIT_MUTEX_FOREVER);
  94:../../source/src/kernel/OS_CORE/mutex.c **** 		CPU_CRITICAL_EXIT(); //exit  critical
ARM GAS  G:\Users\Jaxb\AppData\Local\Temp\ccG52moA.s 			page 4


  95:../../source/src/kernel/OS_CORE/mutex.c **** 		//go back here=========go back here
  96:../../source/src/kernel/OS_CORE/mutex.c **** 		CPU_CRITICAL_ENTER();
  97:../../source/src/kernel/OS_CORE/mutex.c **** 		if(TCB_state_is_bad(OSTCBCurPtr))
  98:../../source/src/kernel/OS_CORE/mutex.c **** 		{
  99:../../source/src/kernel/OS_CORE/mutex.c **** 			clear_bad_state(OSTCBCurPtr);
 100:../../source/src/kernel/OS_CORE/mutex.c **** 			CPU_CRITICAL_EXIT();
 101:../../source/src/kernel/OS_CORE/mutex.c **** 			return -ERROR_MODULE_DELETED;
 102:../../source/src/kernel/OS_CORE/mutex.c **** 		}
 103:../../source/src/kernel/OS_CORE/mutex.c **** 		CPU_CRITICAL_EXIT();
 104:../../source/src/kernel/OS_CORE/mutex.c **** 	}
 105:../../source/src/kernel/OS_CORE/mutex.c **** 	return FUN_EXECUTE_SUCCESSFULLY;
 106:../../source/src/kernel/OS_CORE/mutex.c **** }
 107:../../source/src/kernel/OS_CORE/mutex.c **** EXPORT_SYMBOL(mutex_lock);
 108:../../source/src/kernel/OS_CORE/mutex.c **** 
 109:../../source/src/kernel/OS_CORE/mutex.c **** int mutex_try_lock(MUTEX *MUTEX_ptr)
 110:../../source/src/kernel/OS_CORE/mutex.c **** {
  78              		.loc 1 110 0
  79              		.cfi_startproc
  80              		@ args = 0, pretend = 0, frame = 0
  81              		@ frame_needed = 0, uses_anonymous_args = 0
  82              	.LVL4:
  83 0014 38B5     		push	{r3, r4, r5, lr}
  84              	.LCFI0:
  85              		.cfi_def_cfa_offset 16
  86              		.cfi_offset 3, -16
  87              		.cfi_offset 4, -12
  88              		.cfi_offset 5, -8
  89              		.cfi_offset 14, -4
 111:../../source/src/kernel/OS_CORE/mutex.c **** 	ASSERT(NULL != MUTEX_ptr);
  90              		.loc 1 111 0
  91 0016 0546     		mov	r5, r0
  92 0018 70B1     		cbz	r0, .L14
  93              	.LVL5:
 112:../../source/src/kernel/OS_CORE/mutex.c **** #if CONFIG_PARA_CHECK
 113:../../source/src/kernel/OS_CORE/mutex.c **** 	if(NULL == MUTEX_ptr)
 114:../../source/src/kernel/OS_CORE/mutex.c **** 	{
 115:../../source/src/kernel/OS_CORE/mutex.c **** 		OS_ERROR_PARA_MESSAGE_DISPLAY(mutex_try_lock,MUTEX_ptr);
 116:../../source/src/kernel/OS_CORE/mutex.c **** 		return -ERROR_NULL_INPUT_PTR;
 117:../../source/src/kernel/OS_CORE/mutex.c **** 	}
 118:../../source/src/kernel/OS_CORE/mutex.c **** #endif
 119:../../source/src/kernel/OS_CORE/mutex.c **** 	CPU_SR_ALLOC();
 120:../../source/src/kernel/OS_CORE/mutex.c **** 	CPU_CRITICAL_ENTER();//enter critical
  94              		.loc 1 120 0
  95 001a FFF7FEFF 		bl	CPU_SR_Save
  96              	.LVL6:
 121:../../source/src/kernel/OS_CORE/mutex.c **** 	if(MUTEX_UNLOCK == MUTEX_ptr->mutex_flag)
  97              		.loc 1 121 0
  98 001e 2B68     		ldr	r3, [r5]
 120:../../source/src/kernel/OS_CORE/mutex.c **** 	if(MUTEX_UNLOCK == MUTEX_ptr->mutex_flag)
  99              		.loc 1 120 0
 100 0020 0446     		mov	r4, r0
 101              	.LVL7:
 102              		.loc 1 121 0
 103 0022 012B     		cmp	r3, #1
 104 0024 12D1     		bne	.L15
 122:../../source/src/kernel/OS_CORE/mutex.c **** 	{
 123:../../source/src/kernel/OS_CORE/mutex.c **** 		MUTEX_ptr->mutex_flag = MUTEX_LOCK;
ARM GAS  G:\Users\Jaxb\AppData\Local\Temp\ccG52moA.s 			page 5


 105              		.loc 1 123 0
 106 0026 0024     		movs	r4, #0
 124:../../source/src/kernel/OS_CORE/mutex.c **** 		MUTEX_ptr->owner_TCB_ptr = (TCB *)OSTCBCurPtr;
 107              		.loc 1 124 0
 108 0028 0E4B     		ldr	r3, .L17
 123:../../source/src/kernel/OS_CORE/mutex.c **** 		MUTEX_ptr->owner_TCB_ptr = (TCB *)OSTCBCurPtr;
 109              		.loc 1 123 0
 110 002a 2C60     		str	r4, [r5]
 111              		.loc 1 124 0
 112 002c 1B68     		ldr	r3, [r3]
 113 002e 6B60     		str	r3, [r5, #4]
 125:../../source/src/kernel/OS_CORE/mutex.c **** 		CPU_CRITICAL_EXIT();
 114              		.loc 1 125 0
 115 0030 FFF7FEFF 		bl	CPU_SR_Restore
 116              	.LVL8:
 126:../../source/src/kernel/OS_CORE/mutex.c **** 		return FUN_EXECUTE_SUCCESSFULLY;
 117              		.loc 1 126 0
 118 0034 2046     		mov	r0, r4
 127:../../source/src/kernel/OS_CORE/mutex.c **** 	}
 128:../../source/src/kernel/OS_CORE/mutex.c **** 	else
 129:../../source/src/kernel/OS_CORE/mutex.c **** 	{
 130:../../source/src/kernel/OS_CORE/mutex.c **** 		ASSERT(MUTEX_LOCK == MUTEX_ptr->mutex_flag);
 131:../../source/src/kernel/OS_CORE/mutex.c **** 		CPU_CRITICAL_EXIT(); //exit  critical
 132:../../source/src/kernel/OS_CORE/mutex.c **** 		return -ERROR_MUTEX_LOCK_FAIL;
 133:../../source/src/kernel/OS_CORE/mutex.c **** 	}
 134:../../source/src/kernel/OS_CORE/mutex.c **** }
 119              		.loc 1 134 0
 120 0036 38BD     		pop	{r3, r4, r5, pc}
 121              	.LVL9:
 122              	.L14:
 111:../../source/src/kernel/OS_CORE/mutex.c **** #if CONFIG_PARA_CHECK
 123              		.loc 1 111 0 discriminator 1
 124 0038 6F21     		movs	r1, #111
 125 003a 0B48     		ldr	r0, .L17+4
 126              	.LVL10:
 127 003c FFF7FEFF 		bl	_ASSERT
 128              	.LVL11:
 115:../../source/src/kernel/OS_CORE/mutex.c **** 		return -ERROR_NULL_INPUT_PTR;
 129              		.loc 1 115 0 discriminator 1
 130 0040 0A48     		ldr	r0, .L17+8
 131 0042 FFF7FEFF 		bl	ka_printf
 132              	.LVL12:
 116:../../source/src/kernel/OS_CORE/mutex.c **** 	}
 133              		.loc 1 116 0 discriminator 1
 134 0046 6FF0FE00 		mvn	r0, #254
 135              		.loc 1 134 0 discriminator 1
 136 004a 38BD     		pop	{r3, r4, r5, pc}
 137              	.LVL13:
 138              	.L15:
 130:../../source/src/kernel/OS_CORE/mutex.c **** 		CPU_CRITICAL_EXIT(); //exit  critical
 139              		.loc 1 130 0
 140 004c 2BB9     		cbnz	r3, .L16
 141              	.LVL14:
 142              	.L7:
 131:../../source/src/kernel/OS_CORE/mutex.c **** 		return -ERROR_MUTEX_LOCK_FAIL;
 143              		.loc 1 131 0
 144 004e 2046     		mov	r0, r4
ARM GAS  G:\Users\Jaxb\AppData\Local\Temp\ccG52moA.s 			page 6


 145 0050 FFF7FEFF 		bl	CPU_SR_Restore
 146              	.LVL15:
 132:../../source/src/kernel/OS_CORE/mutex.c **** 	}
 147              		.loc 1 132 0
 148 0054 4FF0FF30 		mov	r0, #-1
 149              		.loc 1 134 0
 150 0058 38BD     		pop	{r3, r4, r5, pc}
 151              	.LVL16:
 152              	.L16:
 130:../../source/src/kernel/OS_CORE/mutex.c **** 		CPU_CRITICAL_EXIT(); //exit  critical
 153              		.loc 1 130 0 discriminator 1
 154 005a 8221     		movs	r1, #130
 155 005c 0248     		ldr	r0, .L17+4
 156              	.LVL17:
 157 005e FFF7FEFF 		bl	_ASSERT
 158              	.LVL18:
 159 0062 F4E7     		b	.L7
 160              	.L18:
 161              		.align	2
 162              	.L17:
 163 0064 00000000 		.word	OSTCBCurPtr
 164 0068 00000000 		.word	.LC0
 165 006c 28000000 		.word	.LC1
 166              		.cfi_endproc
 167              	.LFE14:
 168              		.size	mutex_try_lock, .-mutex_try_lock
 169              		.align	1
 170              		.p2align 2,,3
 171              		.global	mutex_init
 172              		.syntax unified
 173              		.thumb
 174              		.thumb_func
 175              		.fpu softvfp
 176              		.type	mutex_init, %function
 177              	mutex_init:
 178              	.LFB12:
  21:../../source/src/kernel/OS_CORE/mutex.c **** 	ASSERT(NULL != MUTEX_ptr);
 179              		.loc 1 21 0
 180              		.cfi_startproc
 181              		@ args = 0, pretend = 0, frame = 0
 182              		@ frame_needed = 0, uses_anonymous_args = 0
 183              	.LVL19:
 184 0070 70B5     		push	{r4, r5, r6, lr}
 185              	.LCFI1:
 186              		.cfi_def_cfa_offset 16
 187              		.cfi_offset 4, -16
 188              		.cfi_offset 5, -12
 189              		.cfi_offset 6, -8
 190              		.cfi_offset 14, -4
  22:../../source/src/kernel/OS_CORE/mutex.c **** #if CONFIG_PARA_CHECK
 191              		.loc 1 22 0
 192 0072 0546     		mov	r5, r0
 193 0074 B0B1     		cbz	r0, .L25
 194              	.LVL20:
  31:../../source/src/kernel/OS_CORE/mutex.c **** 	if (g_interrupt_count > 0)
 195              		.loc 1 31 0
 196 0076 FFF7FEFF 		bl	CPU_SR_Save
ARM GAS  G:\Users\Jaxb\AppData\Local\Temp\ccG52moA.s 			page 7


 197              	.LVL21:
  32:../../source/src/kernel/OS_CORE/mutex.c **** 	{
 198              		.loc 1 32 0
 199 007a 124B     		ldr	r3, .L27
  31:../../source/src/kernel/OS_CORE/mutex.c **** 	if (g_interrupt_count > 0)
 200              		.loc 1 31 0
 201 007c 0646     		mov	r6, r0
 202              	.LVL22:
  32:../../source/src/kernel/OS_CORE/mutex.c **** 	{
 203              		.loc 1 32 0
 204 007e 1B68     		ldr	r3, [r3]
 205 0080 002B     		cmp	r3, #0
 206 0082 19DC     		bgt	.L26
  38:../../source/src/kernel/OS_CORE/mutex.c **** 	init_insert_sort_entity(
 207              		.loc 1 38 0
 208 0084 0024     		movs	r4, #0
 209 0086 0123     		movs	r3, #1
  39:../../source/src/kernel/OS_CORE/mutex.c **** 		&MUTEX_ptr->mutex_insert_sort_TCB_list,
 210              		.loc 1 39 0
 211 0088 2246     		mov	r2, r4
  38:../../source/src/kernel/OS_CORE/mutex.c **** 	init_insert_sort_entity(
 212              		.loc 1 38 0
 213 008a C5E90034 		strd	r3, r4, [r5]
  39:../../source/src/kernel/OS_CORE/mutex.c **** 		&MUTEX_ptr->mutex_insert_sort_TCB_list,
 214              		.loc 1 39 0
 215 008e 0E49     		ldr	r1, .L27+4
 216 0090 0E4B     		ldr	r3, .L27+8
 217 0092 05F10800 		add	r0, r5, #8
 218              	.LVL23:
 219 0096 FFF7FEFF 		bl	init_insert_sort_entity
 220              	.LVL24:
  45:../../source/src/kernel/OS_CORE/mutex.c **** 	return FUN_EXECUTE_SUCCESSFULLY;
 221              		.loc 1 45 0
 222 009a 3046     		mov	r0, r6
 223 009c FFF7FEFF 		bl	CPU_SR_Restore
 224              	.LVL25:
  46:../../source/src/kernel/OS_CORE/mutex.c **** }
 225              		.loc 1 46 0
 226 00a0 2046     		mov	r0, r4
  47:../../source/src/kernel/OS_CORE/mutex.c **** EXPORT_SYMBOL(mutex_init);
 227              		.loc 1 47 0
 228 00a2 70BD     		pop	{r4, r5, r6, pc}
 229              	.LVL26:
 230              	.L25:
  22:../../source/src/kernel/OS_CORE/mutex.c **** #if CONFIG_PARA_CHECK
 231              		.loc 1 22 0 discriminator 1
 232 00a4 1621     		movs	r1, #22
 233 00a6 0A48     		ldr	r0, .L27+12
 234              	.LVL27:
 235 00a8 FFF7FEFF 		bl	_ASSERT
 236              	.LVL28:
  26:../../source/src/kernel/OS_CORE/mutex.c **** 		return -ERROR_NULL_INPUT_PTR;
 237              		.loc 1 26 0 discriminator 1
 238 00ac 0948     		ldr	r0, .L27+16
 239 00ae FFF7FEFF 		bl	ka_printf
 240              	.LVL29:
  27:../../source/src/kernel/OS_CORE/mutex.c **** 	}
ARM GAS  G:\Users\Jaxb\AppData\Local\Temp\ccG52moA.s 			page 8


 241              		.loc 1 27 0 discriminator 1
 242 00b2 6FF0FE00 		mvn	r0, #254
  47:../../source/src/kernel/OS_CORE/mutex.c **** EXPORT_SYMBOL(mutex_init);
 243              		.loc 1 47 0 discriminator 1
 244 00b6 70BD     		pop	{r4, r5, r6, pc}
 245              	.LVL30:
 246              	.L26:
  34:../../source/src/kernel/OS_CORE/mutex.c **** 		return -ERROR_FUN_USE_IN_INTER;
 247              		.loc 1 34 0
 248 00b8 FFF7FEFF 		bl	CPU_SR_Restore
 249              	.LVL31:
  35:../../source/src/kernel/OS_CORE/mutex.c **** 	}
 250              		.loc 1 35 0
 251 00bc 6FF0FC00 		mvn	r0, #252
  47:../../source/src/kernel/OS_CORE/mutex.c **** EXPORT_SYMBOL(mutex_init);
 252              		.loc 1 47 0
 253 00c0 70BD     		pop	{r4, r5, r6, pc}
 254              	.LVL32:
 255              	.L28:
 256 00c2 00BF     		.align	2
 257              	.L27:
 258 00c4 00000000 		.word	g_interrupt_count
 259 00c8 00000000 		.word	compare
 260 00cc 00000000 		.word	value_cmp
 261 00d0 00000000 		.word	.LC0
 262 00d4 60000000 		.word	.LC2
 263              		.cfi_endproc
 264              	.LFE12:
 265              		.size	mutex_init, .-mutex_init
 266              		.align	1
 267              		.p2align 2,,3
 268              		.global	mutex_lock
 269              		.syntax unified
 270              		.thumb
 271              		.thumb_func
 272              		.fpu softvfp
 273              		.type	mutex_lock, %function
 274              	mutex_lock:
 275              	.LFB13:
  51:../../source/src/kernel/OS_CORE/mutex.c **** 	ASSERT(NULL != MUTEX_ptr);
 276              		.loc 1 51 0
 277              		.cfi_startproc
 278              		@ args = 0, pretend = 0, frame = 24
 279              		@ frame_needed = 0, uses_anonymous_args = 0
 280              	.LVL33:
 281 00d8 F0B5     		push	{r4, r5, r6, r7, lr}
 282              	.LCFI2:
 283              		.cfi_def_cfa_offset 20
 284              		.cfi_offset 4, -20
 285              		.cfi_offset 5, -16
 286              		.cfi_offset 6, -12
 287              		.cfi_offset 7, -8
 288              		.cfi_offset 14, -4
  52:../../source/src/kernel/OS_CORE/mutex.c **** #if CONFIG_PARA_CHECK
 289              		.loc 1 52 0
 290 00da 0446     		mov	r4, r0
  51:../../source/src/kernel/OS_CORE/mutex.c **** 	ASSERT(NULL != MUTEX_ptr);
ARM GAS  G:\Users\Jaxb\AppData\Local\Temp\ccG52moA.s 			page 9


 291              		.loc 1 51 0
 292 00dc 87B0     		sub	sp, sp, #28
 293              	.LCFI3:
 294              		.cfi_def_cfa_offset 48
  52:../../source/src/kernel/OS_CORE/mutex.c **** #if CONFIG_PARA_CHECK
 295              		.loc 1 52 0
 296 00de 0028     		cmp	r0, #0
 297 00e0 4AD0     		beq	.L46
 298              	.LVL34:
  61:../../source/src/kernel/OS_CORE/mutex.c **** 	if (g_interrupt_count > 0)
 299              		.loc 1 61 0
 300 00e2 FFF7FEFF 		bl	CPU_SR_Save
 301              	.LVL35:
  62:../../source/src/kernel/OS_CORE/mutex.c **** 	{
 302              		.loc 1 62 0
 303 00e6 314B     		ldr	r3, .L51
  61:../../source/src/kernel/OS_CORE/mutex.c **** 	if (g_interrupt_count > 0)
 304              		.loc 1 61 0
 305 00e8 0646     		mov	r6, r0
 306              	.LVL36:
  62:../../source/src/kernel/OS_CORE/mutex.c **** 	{
 307              		.loc 1 62 0
 308 00ea 1B68     		ldr	r3, [r3]
 309 00ec 002B     		cmp	r3, #0
 310 00ee 58DC     		bgt	.L47
  67:../../source/src/kernel/OS_CORE/mutex.c **** 	{
 311              		.loc 1 67 0
 312 00f0 2368     		ldr	r3, [r4]
 313 00f2 012B     		cmp	r3, #1
 314 00f4 4BD0     		beq	.L48
 315              	.LBB2:
  75:../../source/src/kernel/OS_CORE/mutex.c **** 		if(MUTEX_ptr->owner_TCB_ptr == (TCB *)OSTCBCurPtr)
 316              		.loc 1 75 0
 317 00f6 002B     		cmp	r3, #0
 318 00f8 39D1     		bne	.L49
 319              	.LVL37:
 320              	.L33:
  76:../../source/src/kernel/OS_CORE/mutex.c **** 		{
 321              		.loc 1 76 0
 322 00fa 2D4D     		ldr	r5, .L51+4
 323 00fc 6368     		ldr	r3, [r4, #4]
 324 00fe 2968     		ldr	r1, [r5]
 325 0100 8B42     		cmp	r3, r1
 326 0102 2ED0     		beq	.L50
  82:../../source/src/kernel/OS_CORE/mutex.c **** 		insert_sort_insert_into(&data,&MUTEX_ptr->mutex_insert_sort_TCB_list);
 327              		.loc 1 82 0
 328 0104 6846     		mov	r0, sp
  83:../../source/src/kernel/OS_CORE/mutex.c **** 		TCB *TCB_ptr = (TCB *)(insert_sort_get_first_data_ptr(&MUTEX_ptr->mutex_insert_sort_TCB_list)->da
 329              		.loc 1 83 0
 330 0106 04F10807 		add	r7, r4, #8
  82:../../source/src/kernel/OS_CORE/mutex.c **** 		insert_sort_insert_into(&data,&MUTEX_ptr->mutex_insert_sort_TCB_list);
 331              		.loc 1 82 0
 332 010a FFF7FEFF 		bl	init_insert_sort_data
 333              	.LVL38:
  83:../../source/src/kernel/OS_CORE/mutex.c **** 		TCB *TCB_ptr = (TCB *)(insert_sort_get_first_data_ptr(&MUTEX_ptr->mutex_insert_sort_TCB_list)->da
 334              		.loc 1 83 0
 335 010e 3946     		mov	r1, r7
ARM GAS  G:\Users\Jaxb\AppData\Local\Temp\ccG52moA.s 			page 10


 336 0110 6846     		mov	r0, sp
 337 0112 FFF7FEFF 		bl	insert_sort_insert_into
 338              	.LVL39:
  84:../../source/src/kernel/OS_CORE/mutex.c **** 		if(MUTEX_ptr->owner_TCB_ptr->prio > TCB_ptr->prio)
 339              		.loc 1 84 0
 340 0116 3846     		mov	r0, r7
 341 0118 FFF7FEFF 		bl	insert_sort_get_first_data_ptr
 342              	.LVL40:
  85:../../source/src/kernel/OS_CORE/mutex.c **** 		{
 343              		.loc 1 85 0
 344 011c 6368     		ldr	r3, [r4, #4]
 345 011e 0168     		ldr	r1, [r0]
 346 0120 DA68     		ldr	r2, [r3, #12]
 347 0122 C968     		ldr	r1, [r1, #12]
 348 0124 8A42     		cmp	r2, r1
 349 0126 05D9     		bls	.L36
  87:../../source/src/kernel/OS_CORE/mutex.c **** 			{
 350              		.loc 1 87 0
 351 0128 1869     		ldr	r0, [r3, #16]
 352              	.LVL41:
 353 012a 00B9     		cbnz	r0, .L37
  89:../../source/src/kernel/OS_CORE/mutex.c **** 			}
 354              		.loc 1 89 0
 355 012c 1A61     		str	r2, [r3, #16]
 356              	.L37:
  91:../../source/src/kernel/OS_CORE/mutex.c **** 		}
 357              		.loc 1 91 0
 358 012e 1846     		mov	r0, r3
 359 0130 FFF7FEFF 		bl	task_change_prio
 360              	.LVL42:
 361              	.L36:
  93:../../source/src/kernel/OS_CORE/mutex.c **** 		CPU_CRITICAL_EXIT(); //exit  critical
 362              		.loc 1 93 0
 363 0134 0A20     		movs	r0, #10
 364 0136 FFF7FEFF 		bl	sys_suspend
 365              	.LVL43:
  94:../../source/src/kernel/OS_CORE/mutex.c **** 		//go back here=========go back here
 366              		.loc 1 94 0
 367 013a 3046     		mov	r0, r6
 368 013c FFF7FEFF 		bl	CPU_SR_Restore
 369              	.LVL44:
  96:../../source/src/kernel/OS_CORE/mutex.c **** 		if(TCB_state_is_bad(OSTCBCurPtr))
 370              		.loc 1 96 0
 371 0140 FFF7FEFF 		bl	CPU_SR_Save
 372              	.LVL45:
  97:../../source/src/kernel/OS_CORE/mutex.c **** 		{
 373              		.loc 1 97 0
 374 0144 2A68     		ldr	r2, [r5]
 375 0146 946B     		ldr	r4, [r2, #56]
 376              	.LVL46:
 377 0148 14F00204 		ands	r4, r4, #2
 378 014c 0AD0     		beq	.L45
  99:../../source/src/kernel/OS_CORE/mutex.c **** 			CPU_CRITICAL_EXIT();
 379              		.loc 1 99 0
 380 014e 936B     		ldr	r3, [r2, #56]
 381 0150 23F00203 		bic	r3, r3, #2
 382 0154 9363     		str	r3, [r2, #56]
ARM GAS  G:\Users\Jaxb\AppData\Local\Temp\ccG52moA.s 			page 11


 100:../../source/src/kernel/OS_CORE/mutex.c **** 			return -ERROR_MODULE_DELETED;
 383              		.loc 1 100 0
 384 0156 FFF7FEFF 		bl	CPU_SR_Restore
 385              	.LVL47:
 101:../../source/src/kernel/OS_CORE/mutex.c **** 		}
 386              		.loc 1 101 0
 387 015a 6FF0F900 		mvn	r0, #249
 388              	.LVL48:
 389              	.L29:
 390              	.LBE2:
 106:../../source/src/kernel/OS_CORE/mutex.c **** EXPORT_SYMBOL(mutex_lock);
 391              		.loc 1 106 0
 392 015e 07B0     		add	sp, sp, #28
 393              	.LCFI4:
 394              		.cfi_remember_state
 395              		.cfi_def_cfa_offset 20
 396              		@ sp needed
 397 0160 F0BD     		pop	{r4, r5, r6, r7, pc}
 398              	.LVL49:
 399              	.L50:
 400              	.LCFI5:
 401              		.cfi_restore_state
 402              	.LBB3:
  78:../../source/src/kernel/OS_CORE/mutex.c **** 			return FUN_EXECUTE_SUCCESSFULLY;
 403              		.loc 1 78 0
 404 0162 3046     		mov	r0, r6
 405              	.LVL50:
 406              	.L45:
 407 0164 FFF7FEFF 		bl	CPU_SR_Restore
 408              	.LVL51:
  79:../../source/src/kernel/OS_CORE/mutex.c **** 		}
 409              		.loc 1 79 0
 410 0168 0020     		movs	r0, #0
 411              	.LBE3:
 106:../../source/src/kernel/OS_CORE/mutex.c **** EXPORT_SYMBOL(mutex_lock);
 412              		.loc 1 106 0
 413 016a 07B0     		add	sp, sp, #28
 414              	.LCFI6:
 415              		.cfi_remember_state
 416              		.cfi_def_cfa_offset 20
 417              		@ sp needed
 418 016c F0BD     		pop	{r4, r5, r6, r7, pc}
 419              	.LVL52:
 420              	.L49:
 421              	.LCFI7:
 422              		.cfi_restore_state
 423              	.LBB4:
  75:../../source/src/kernel/OS_CORE/mutex.c **** 		if(MUTEX_ptr->owner_TCB_ptr == (TCB *)OSTCBCurPtr)
 424              		.loc 1 75 0 discriminator 1
 425 016e 4B21     		movs	r1, #75
 426 0170 1048     		ldr	r0, .L51+8
 427              	.LVL53:
 428 0172 FFF7FEFF 		bl	_ASSERT
 429              	.LVL54:
 430 0176 C0E7     		b	.L33
 431              	.LVL55:
 432              	.L46:
ARM GAS  G:\Users\Jaxb\AppData\Local\Temp\ccG52moA.s 			page 12


 433              	.LBE4:
  52:../../source/src/kernel/OS_CORE/mutex.c **** #if CONFIG_PARA_CHECK
 434              		.loc 1 52 0 discriminator 1
 435 0178 3421     		movs	r1, #52
 436 017a 0E48     		ldr	r0, .L51+8
 437              	.LVL56:
 438 017c FFF7FEFF 		bl	_ASSERT
 439              	.LVL57:
  56:../../source/src/kernel/OS_CORE/mutex.c **** 		return -ERROR_NULL_INPUT_PTR;
 440              		.loc 1 56 0 discriminator 1
 441 0180 0D48     		ldr	r0, .L51+12
 442 0182 FFF7FEFF 		bl	ka_printf
 443              	.LVL58:
  57:../../source/src/kernel/OS_CORE/mutex.c **** 	}
 444              		.loc 1 57 0 discriminator 1
 445 0186 6FF0FE00 		mvn	r0, #254
 106:../../source/src/kernel/OS_CORE/mutex.c **** EXPORT_SYMBOL(mutex_lock);
 446              		.loc 1 106 0 discriminator 1
 447 018a 07B0     		add	sp, sp, #28
 448              	.LCFI8:
 449              		.cfi_remember_state
 450              		.cfi_def_cfa_offset 20
 451              		@ sp needed
 452 018c F0BD     		pop	{r4, r5, r6, r7, pc}
 453              	.LVL59:
 454              	.L48:
 455              	.LCFI9:
 456              		.cfi_restore_state
  69:../../source/src/kernel/OS_CORE/mutex.c **** 		MUTEX_ptr->owner_TCB_ptr = (TCB *)OSTCBCurPtr;
 457              		.loc 1 69 0
 458 018e 0025     		movs	r5, #0
  70:../../source/src/kernel/OS_CORE/mutex.c **** 		CPU_CRITICAL_EXIT();
 459              		.loc 1 70 0
 460 0190 074B     		ldr	r3, .L51+4
  69:../../source/src/kernel/OS_CORE/mutex.c **** 		MUTEX_ptr->owner_TCB_ptr = (TCB *)OSTCBCurPtr;
 461              		.loc 1 69 0
 462 0192 2560     		str	r5, [r4]
  70:../../source/src/kernel/OS_CORE/mutex.c **** 		CPU_CRITICAL_EXIT();
 463              		.loc 1 70 0
 464 0194 1B68     		ldr	r3, [r3]
 465 0196 6360     		str	r3, [r4, #4]
  71:../../source/src/kernel/OS_CORE/mutex.c **** 	}
 466              		.loc 1 71 0
 467 0198 FFF7FEFF 		bl	CPU_SR_Restore
 468              	.LVL60:
 105:../../source/src/kernel/OS_CORE/mutex.c **** }
 469              		.loc 1 105 0
 470 019c 2846     		mov	r0, r5
 106:../../source/src/kernel/OS_CORE/mutex.c **** EXPORT_SYMBOL(mutex_lock);
 471              		.loc 1 106 0
 472 019e 07B0     		add	sp, sp, #28
 473              	.LCFI10:
 474              		.cfi_remember_state
 475              		.cfi_def_cfa_offset 20
 476              		@ sp needed
 477 01a0 F0BD     		pop	{r4, r5, r6, r7, pc}
 478              	.LVL61:
ARM GAS  G:\Users\Jaxb\AppData\Local\Temp\ccG52moA.s 			page 13


 479              	.L47:
 480              	.LCFI11:
 481              		.cfi_restore_state
  64:../../source/src/kernel/OS_CORE/mutex.c **** 		return -ERROR_FUN_USE_IN_INTER;
 482              		.loc 1 64 0
 483 01a2 FFF7FEFF 		bl	CPU_SR_Restore
 484              	.LVL62:
  65:../../source/src/kernel/OS_CORE/mutex.c **** 	}
 485              		.loc 1 65 0
 486 01a6 6FF0FC00 		mvn	r0, #252
 487 01aa D8E7     		b	.L29
 488              	.L52:
 489              		.align	2
 490              	.L51:
 491 01ac 00000000 		.word	g_interrupt_count
 492 01b0 00000000 		.word	OSTCBCurPtr
 493 01b4 00000000 		.word	.LC0
 494 01b8 94000000 		.word	.LC3
 495              		.cfi_endproc
 496              	.LFE13:
 497              		.size	mutex_lock, .-mutex_lock
 498              		.align	1
 499              		.p2align 2,,3
 500              		.global	mutex_del
 501              		.syntax unified
 502              		.thumb
 503              		.thumb_func
 504              		.fpu softvfp
 505              		.type	mutex_del, %function
 506              	mutex_del:
 507              	.LFB16:
 135:../../source/src/kernel/OS_CORE/mutex.c **** EXPORT_SYMBOL(mutex_try_lock);
 136:../../source/src/kernel/OS_CORE/mutex.c **** 
 137:../../source/src/kernel/OS_CORE/mutex.c **** int mutex_unlock(MUTEX *MUTEX_ptr)
 138:../../source/src/kernel/OS_CORE/mutex.c **** {
 139:../../source/src/kernel/OS_CORE/mutex.c **** 	ASSERT(NULL != MUTEX_ptr);
 140:../../source/src/kernel/OS_CORE/mutex.c **** #if CONFIG_PARA_CHECK
 141:../../source/src/kernel/OS_CORE/mutex.c **** 	if(NULL == MUTEX_ptr)
 142:../../source/src/kernel/OS_CORE/mutex.c **** 	{
 143:../../source/src/kernel/OS_CORE/mutex.c **** 		OS_ERROR_PARA_MESSAGE_DISPLAY(mutex_unlock,MUTEX_ptr);
 144:../../source/src/kernel/OS_CORE/mutex.c **** 		return -ERROR_NULL_INPUT_PTR;
 145:../../source/src/kernel/OS_CORE/mutex.c **** 	}
 146:../../source/src/kernel/OS_CORE/mutex.c **** #endif
 147:../../source/src/kernel/OS_CORE/mutex.c **** 	CPU_SR_ALLOC();
 148:../../source/src/kernel/OS_CORE/mutex.c **** 	CPU_CRITICAL_ENTER();//enter critical
 149:../../source/src/kernel/OS_CORE/mutex.c **** 	if(MUTEX_UNLOCK == MUTEX_ptr->mutex_flag)
 150:../../source/src/kernel/OS_CORE/mutex.c **** 	{
 151:../../source/src/kernel/OS_CORE/mutex.c **** 		CPU_CRITICAL_EXIT();
 152:../../source/src/kernel/OS_CORE/mutex.c **** 		return FUN_EXECUTE_SUCCESSFULLY;
 153:../../source/src/kernel/OS_CORE/mutex.c **** 	}
 154:../../source/src/kernel/OS_CORE/mutex.c **** 	else if(MUTEX_ptr->owner_TCB_ptr != OSTCBCurPtr)
 155:../../source/src/kernel/OS_CORE/mutex.c **** 	{
 156:../../source/src/kernel/OS_CORE/mutex.c **** 		CPU_CRITICAL_EXIT();
 157:../../source/src/kernel/OS_CORE/mutex.c **** 		return -ERROR_MUTEX_UNLOCK_FAIL;
 158:../../source/src/kernel/OS_CORE/mutex.c **** 	}
 159:../../source/src/kernel/OS_CORE/mutex.c **** 	if(RESERVED_PRIO != OSTCBCurPtr->reserve_prio)
 160:../../source/src/kernel/OS_CORE/mutex.c **** 	{
ARM GAS  G:\Users\Jaxb\AppData\Local\Temp\ccG52moA.s 			page 14


 161:../../source/src/kernel/OS_CORE/mutex.c **** 		TASK_PRIO_TYPE buffer = OSTCBCurPtr->reserve_prio;
 162:../../source/src/kernel/OS_CORE/mutex.c **** 		OSTCBCurPtr->reserve_prio = RESERVED_PRIO;
 163:../../source/src/kernel/OS_CORE/mutex.c **** 		task_change_prio_self(buffer);
 164:../../source/src/kernel/OS_CORE/mutex.c **** 	}
 165:../../source/src/kernel/OS_CORE/mutex.c **** 	struct insert_sort_data *buffer_ptr = insert_sort_delete_head(&MUTEX_ptr->mutex_insert_sort_TCB_li
 166:../../source/src/kernel/OS_CORE/mutex.c **** 	if(NULL == buffer_ptr) // no task is waiting for the mutex
 167:../../source/src/kernel/OS_CORE/mutex.c **** 	{
 168:../../source/src/kernel/OS_CORE/mutex.c **** 		MUTEX_ptr->mutex_flag = MUTEX_UNLOCK;
 169:../../source/src/kernel/OS_CORE/mutex.c **** 		MUTEX_ptr->owner_TCB_ptr = NULL;
 170:../../source/src/kernel/OS_CORE/mutex.c **** 		CPU_CRITICAL_EXIT();
 171:../../source/src/kernel/OS_CORE/mutex.c **** 		return FUN_EXECUTE_SUCCESSFULLY;
 172:../../source/src/kernel/OS_CORE/mutex.c **** 	}
 173:../../source/src/kernel/OS_CORE/mutex.c **** 	else// a task is waiting for the mutex
 174:../../source/src/kernel/OS_CORE/mutex.c **** 	{
 175:../../source/src/kernel/OS_CORE/mutex.c **** 		remove_from_suspend_list((TCB *)(buffer_ptr->data_ptr));
 176:../../source/src/kernel/OS_CORE/mutex.c **** 		MUTEX_ptr->owner_TCB_ptr = (TCB *)(buffer_ptr->data_ptr);
 177:../../source/src/kernel/OS_CORE/mutex.c **** 		schedule();
 178:../../source/src/kernel/OS_CORE/mutex.c **** 		CPU_CRITICAL_EXIT();
 179:../../source/src/kernel/OS_CORE/mutex.c **** 		return FUN_EXECUTE_SUCCESSFULLY;
 180:../../source/src/kernel/OS_CORE/mutex.c **** 	}
 181:../../source/src/kernel/OS_CORE/mutex.c **** }
 182:../../source/src/kernel/OS_CORE/mutex.c **** EXPORT_SYMBOL(mutex_unlock);
 183:../../source/src/kernel/OS_CORE/mutex.c **** 
 184:../../source/src/kernel/OS_CORE/mutex.c **** int mutex_del(MUTEX *MUTEX_ptr)
 185:../../source/src/kernel/OS_CORE/mutex.c **** {
 508              		.loc 1 185 0
 509              		.cfi_startproc
 510              		@ args = 0, pretend = 0, frame = 0
 511              		@ frame_needed = 0, uses_anonymous_args = 0
 512              	.LVL63:
 513 01bc 70B5     		push	{r4, r5, r6, lr}
 514              	.LCFI12:
 515              		.cfi_def_cfa_offset 16
 516              		.cfi_offset 4, -16
 517              		.cfi_offset 5, -12
 518              		.cfi_offset 6, -8
 519              		.cfi_offset 14, -4
 186:../../source/src/kernel/OS_CORE/mutex.c **** 	ASSERT(NULL != MUTEX_ptr);
 520              		.loc 1 186 0
 521 01be E0B1     		cbz	r0, .L64
 187:../../source/src/kernel/OS_CORE/mutex.c **** #if CONFIG_PARA_CHECK
 188:../../source/src/kernel/OS_CORE/mutex.c **** 	if(NULL == MUTEX_ptr)
 189:../../source/src/kernel/OS_CORE/mutex.c **** 	{
 190:../../source/src/kernel/OS_CORE/mutex.c **** 		OS_ERROR_PARA_MESSAGE_DISPLAY(mutex_del,MUTEX_ptr);
 191:../../source/src/kernel/OS_CORE/mutex.c **** 		return -ERROR_NULL_INPUT_PTR;
 192:../../source/src/kernel/OS_CORE/mutex.c **** 	}
 193:../../source/src/kernel/OS_CORE/mutex.c **** #endif
 194:../../source/src/kernel/OS_CORE/mutex.c **** 	TCB *TCB_ptr;
 195:../../source/src/kernel/OS_CORE/mutex.c **** 	struct insert_sort_data *insert_sort_data_ptr = insert_sort_delete_head(&MUTEX_ptr->mutex_insert_s
 522              		.loc 1 195 0
 523 01c0 00F10805 		add	r5, r0, #8
 524 01c4 2846     		mov	r0, r5
 525              	.LVL64:
 526 01c6 FFF7FEFF 		bl	insert_sort_delete_head
 527              	.LVL65:
 196:../../source/src/kernel/OS_CORE/mutex.c **** 	while(NULL != insert_sort_data_ptr)
 528              		.loc 1 196 0
ARM GAS  G:\Users\Jaxb\AppData\Local\Temp\ccG52moA.s 			page 15


 529 01ca A0B1     		cbz	r0, .L58
 197:../../source/src/kernel/OS_CORE/mutex.c **** 	{
 198:../../source/src/kernel/OS_CORE/mutex.c **** 		TCB_ptr = (TCB *)(insert_sort_data_ptr->data_ptr);
 199:../../source/src/kernel/OS_CORE/mutex.c **** 		ASSERT(STATE_WAIT_MUTEX_FOREVER == TCB_ptr->task_state);
 530              		.loc 1 199 0
 531 01cc 104E     		ldr	r6, .L65
 532              	.L57:
 198:../../source/src/kernel/OS_CORE/mutex.c **** 		ASSERT(STATE_WAIT_MUTEX_FOREVER == TCB_ptr->task_state);
 533              		.loc 1 198 0
 534 01ce 0468     		ldr	r4, [r0]
 535              	.LVL66:
 536              		.loc 1 199 0
 537 01d0 237D     		ldrb	r3, [r4, #20]	@ zero_extendqisi2
 538 01d2 0A2B     		cmp	r3, #10
 539 01d4 03D0     		beq	.L56
 540              		.loc 1 199 0 is_stmt 0 discriminator 1
 541 01d6 C721     		movs	r1, #199
 542 01d8 3046     		mov	r0, r6
 543              	.LVL67:
 544 01da FFF7FEFF 		bl	_ASSERT
 545              	.LVL68:
 546              	.L56:
 200:../../source/src/kernel/OS_CORE/mutex.c **** 		remove_from_suspend_list(TCB_ptr);
 547              		.loc 1 200 0 is_stmt 1
 548 01de 2046     		mov	r0, r4
 549 01e0 FFF7FEFF 		bl	remove_from_suspend_list
 550              	.LVL69:
 201:../../source/src/kernel/OS_CORE/mutex.c **** 		set_bad_state(TCB_ptr);
 551              		.loc 1 201 0
 552 01e4 A36B     		ldr	r3, [r4, #56]
 202:../../source/src/kernel/OS_CORE/mutex.c **** 		insert_sort_data_ptr = insert_sort_delete_head(&MUTEX_ptr->mutex_insert_sort_TCB_list);
 553              		.loc 1 202 0
 554 01e6 2846     		mov	r0, r5
 201:../../source/src/kernel/OS_CORE/mutex.c **** 		set_bad_state(TCB_ptr);
 555              		.loc 1 201 0
 556 01e8 43F00203 		orr	r3, r3, #2
 557 01ec A363     		str	r3, [r4, #56]
 558              		.loc 1 202 0
 559 01ee FFF7FEFF 		bl	insert_sort_delete_head
 560              	.LVL70:
 196:../../source/src/kernel/OS_CORE/mutex.c **** 	{
 561              		.loc 1 196 0
 562 01f2 0028     		cmp	r0, #0
 563 01f4 EBD1     		bne	.L57
 564              	.LVL71:
 565              	.L58:
 203:../../source/src/kernel/OS_CORE/mutex.c **** 	}
 204:../../source/src/kernel/OS_CORE/mutex.c **** 	return FUN_EXECUTE_SUCCESSFULLY;
 566              		.loc 1 204 0
 567 01f6 0020     		movs	r0, #0
 568              	.LVL72:
 205:../../source/src/kernel/OS_CORE/mutex.c **** }
 569              		.loc 1 205 0
 570 01f8 70BD     		pop	{r4, r5, r6, pc}
 571              	.LVL73:
 572              	.L64:
 186:../../source/src/kernel/OS_CORE/mutex.c **** #if CONFIG_PARA_CHECK
ARM GAS  G:\Users\Jaxb\AppData\Local\Temp\ccG52moA.s 			page 16


 573              		.loc 1 186 0 discriminator 1
 574 01fa BA21     		movs	r1, #186
 575 01fc 0448     		ldr	r0, .L65
 576              	.LVL74:
 577 01fe FFF7FEFF 		bl	_ASSERT
 578              	.LVL75:
 190:../../source/src/kernel/OS_CORE/mutex.c **** 		return -ERROR_NULL_INPUT_PTR;
 579              		.loc 1 190 0 discriminator 1
 580 0202 0448     		ldr	r0, .L65+4
 581 0204 FFF7FEFF 		bl	ka_printf
 582              	.LVL76:
 191:../../source/src/kernel/OS_CORE/mutex.c **** 	}
 583              		.loc 1 191 0 discriminator 1
 584 0208 6FF0FE00 		mvn	r0, #254
 585              		.loc 1 205 0 discriminator 1
 586 020c 70BD     		pop	{r4, r5, r6, pc}
 587              	.L66:
 588 020e 00BF     		.align	2
 589              	.L65:
 590 0210 00000000 		.word	.LC0
 591 0214 C8000000 		.word	.LC4
 592              		.cfi_endproc
 593              	.LFE16:
 594              		.size	mutex_del, .-mutex_del
 595              		.align	1
 596              		.p2align 2,,3
 597              		.global	mutex_unlock
 598              		.syntax unified
 599              		.thumb
 600              		.thumb_func
 601              		.fpu softvfp
 602              		.type	mutex_unlock, %function
 603              	mutex_unlock:
 604              	.LFB15:
 138:../../source/src/kernel/OS_CORE/mutex.c **** 	ASSERT(NULL != MUTEX_ptr);
 605              		.loc 1 138 0
 606              		.cfi_startproc
 607              		@ args = 0, pretend = 0, frame = 0
 608              		@ frame_needed = 0, uses_anonymous_args = 0
 609              	.LVL77:
 610 0218 70B5     		push	{r4, r5, r6, lr}
 611              	.LCFI13:
 612              		.cfi_def_cfa_offset 16
 613              		.cfi_offset 4, -16
 614              		.cfi_offset 5, -12
 615              		.cfi_offset 6, -8
 616              		.cfi_offset 14, -4
 139:../../source/src/kernel/OS_CORE/mutex.c **** #if CONFIG_PARA_CHECK
 617              		.loc 1 139 0
 618 021a 0446     		mov	r4, r0
 619 021c 0028     		cmp	r0, #0
 620 021e 33D0     		beq	.L80
 621              	.LVL78:
 148:../../source/src/kernel/OS_CORE/mutex.c **** 	if(MUTEX_UNLOCK == MUTEX_ptr->mutex_flag)
 622              		.loc 1 148 0
 623 0220 FFF7FEFF 		bl	CPU_SR_Save
 624              	.LVL79:
ARM GAS  G:\Users\Jaxb\AppData\Local\Temp\ccG52moA.s 			page 17


 149:../../source/src/kernel/OS_CORE/mutex.c **** 	{
 625              		.loc 1 149 0
 626 0224 2368     		ldr	r3, [r4]
 148:../../source/src/kernel/OS_CORE/mutex.c **** 	if(MUTEX_UNLOCK == MUTEX_ptr->mutex_flag)
 627              		.loc 1 148 0
 628 0226 0646     		mov	r6, r0
 629              	.LVL80:
 149:../../source/src/kernel/OS_CORE/mutex.c **** 	{
 630              		.loc 1 149 0
 631 0228 012B     		cmp	r3, #1
 632 022a 14D0     		beq	.L79
 154:../../source/src/kernel/OS_CORE/mutex.c **** 	{
 633              		.loc 1 154 0
 634 022c 1E4A     		ldr	r2, .L84
 635 022e 6368     		ldr	r3, [r4, #4]
 636 0230 1268     		ldr	r2, [r2]
 637 0232 9342     		cmp	r3, r2
 638 0234 32D1     		bne	.L81
 159:../../source/src/kernel/OS_CORE/mutex.c **** 	{
 639              		.loc 1 159 0
 640 0236 1A69     		ldr	r2, [r3, #16]
 641 0238 8AB9     		cbnz	r2, .L82
 165:../../source/src/kernel/OS_CORE/mutex.c **** 	if(NULL == buffer_ptr) // no task is waiting for the mutex
 642              		.loc 1 165 0
 643 023a 04F10800 		add	r0, r4, #8
 644              	.LVL81:
 645 023e FFF7FEFF 		bl	insert_sort_delete_head
 646              	.LVL82:
 166:../../source/src/kernel/OS_CORE/mutex.c **** 	{
 647              		.loc 1 166 0
 648 0242 0546     		mov	r5, r0
 649 0244 C0B1     		cbz	r0, .L83
 650              	.L72:
 175:../../source/src/kernel/OS_CORE/mutex.c **** 		MUTEX_ptr->owner_TCB_ptr = (TCB *)(buffer_ptr->data_ptr);
 651              		.loc 1 175 0
 652 0246 0068     		ldr	r0, [r0]
 653              	.LVL83:
 654 0248 FFF7FEFF 		bl	remove_from_suspend_list
 655              	.LVL84:
 176:../../source/src/kernel/OS_CORE/mutex.c **** 		schedule();
 656              		.loc 1 176 0
 657 024c 2B68     		ldr	r3, [r5]
 658 024e 6360     		str	r3, [r4, #4]
 177:../../source/src/kernel/OS_CORE/mutex.c **** 		CPU_CRITICAL_EXIT();
 659              		.loc 1 177 0
 660 0250 FFF7FEFF 		bl	schedule
 661              	.LVL85:
 178:../../source/src/kernel/OS_CORE/mutex.c **** 		return FUN_EXECUTE_SUCCESSFULLY;
 662              		.loc 1 178 0
 663 0254 3046     		mov	r0, r6
 664              	.LVL86:
 665              	.L79:
 666 0256 FFF7FEFF 		bl	CPU_SR_Restore
 667              	.LVL87:
 179:../../source/src/kernel/OS_CORE/mutex.c **** 	}
 668              		.loc 1 179 0
 669 025a 0020     		movs	r0, #0
ARM GAS  G:\Users\Jaxb\AppData\Local\Temp\ccG52moA.s 			page 18


 181:../../source/src/kernel/OS_CORE/mutex.c **** EXPORT_SYMBOL(mutex_unlock);
 670              		.loc 1 181 0
 671 025c 70BD     		pop	{r4, r5, r6, pc}
 672              	.LVL88:
 673              	.L82:
 674              	.LBB5:
 162:../../source/src/kernel/OS_CORE/mutex.c **** 		task_change_prio_self(buffer);
 675              		.loc 1 162 0
 676 025e 0022     		movs	r2, #0
 161:../../source/src/kernel/OS_CORE/mutex.c **** 		OSTCBCurPtr->reserve_prio = RESERVED_PRIO;
 677              		.loc 1 161 0
 678 0260 1969     		ldr	r1, [r3, #16]
 679              	.LVL89:
 163:../../source/src/kernel/OS_CORE/mutex.c **** 	}
 680              		.loc 1 163 0
 681 0262 1846     		mov	r0, r3
 682              	.LVL90:
 162:../../source/src/kernel/OS_CORE/mutex.c **** 		task_change_prio_self(buffer);
 683              		.loc 1 162 0
 684 0264 1A61     		str	r2, [r3, #16]
 163:../../source/src/kernel/OS_CORE/mutex.c **** 	}
 685              		.loc 1 163 0
 686 0266 FFF7FEFF 		bl	task_change_prio
 687              	.LVL91:
 688              	.LBE5:
 165:../../source/src/kernel/OS_CORE/mutex.c **** 	if(NULL == buffer_ptr) // no task is waiting for the mutex
 689              		.loc 1 165 0
 690 026a 04F10800 		add	r0, r4, #8
 691 026e FFF7FEFF 		bl	insert_sort_delete_head
 692              	.LVL92:
 166:../../source/src/kernel/OS_CORE/mutex.c **** 	{
 693              		.loc 1 166 0
 694 0272 0546     		mov	r5, r0
 695 0274 0028     		cmp	r0, #0
 696 0276 E6D1     		bne	.L72
 697              	.L83:
 168:../../source/src/kernel/OS_CORE/mutex.c **** 		MUTEX_ptr->owner_TCB_ptr = NULL;
 698              		.loc 1 168 0
 699 0278 0123     		movs	r3, #1
 169:../../source/src/kernel/OS_CORE/mutex.c **** 		CPU_CRITICAL_EXIT();
 700              		.loc 1 169 0
 701 027a 6060     		str	r0, [r4, #4]
 168:../../source/src/kernel/OS_CORE/mutex.c **** 		MUTEX_ptr->owner_TCB_ptr = NULL;
 702              		.loc 1 168 0
 703 027c 2360     		str	r3, [r4]
 170:../../source/src/kernel/OS_CORE/mutex.c **** 		return FUN_EXECUTE_SUCCESSFULLY;
 704              		.loc 1 170 0
 705 027e 3046     		mov	r0, r6
 706              	.LVL93:
 707 0280 FFF7FEFF 		bl	CPU_SR_Restore
 708              	.LVL94:
 171:../../source/src/kernel/OS_CORE/mutex.c **** 	}
 709              		.loc 1 171 0
 710 0284 2846     		mov	r0, r5
 181:../../source/src/kernel/OS_CORE/mutex.c **** EXPORT_SYMBOL(mutex_unlock);
 711              		.loc 1 181 0
 712 0286 70BD     		pop	{r4, r5, r6, pc}
ARM GAS  G:\Users\Jaxb\AppData\Local\Temp\ccG52moA.s 			page 19


 713              	.LVL95:
 714              	.L80:
 139:../../source/src/kernel/OS_CORE/mutex.c **** #if CONFIG_PARA_CHECK
 715              		.loc 1 139 0 discriminator 1
 716 0288 8B21     		movs	r1, #139
 717 028a 0848     		ldr	r0, .L84+4
 718              	.LVL96:
 719 028c FFF7FEFF 		bl	_ASSERT
 720              	.LVL97:
 143:../../source/src/kernel/OS_CORE/mutex.c **** 		return -ERROR_NULL_INPUT_PTR;
 721              		.loc 1 143 0 discriminator 1
 722 0290 0748     		ldr	r0, .L84+8
 723 0292 FFF7FEFF 		bl	ka_printf
 724              	.LVL98:
 144:../../source/src/kernel/OS_CORE/mutex.c **** 	}
 725              		.loc 1 144 0 discriminator 1
 726 0296 6FF0FE00 		mvn	r0, #254
 181:../../source/src/kernel/OS_CORE/mutex.c **** EXPORT_SYMBOL(mutex_unlock);
 727              		.loc 1 181 0 discriminator 1
 728 029a 70BD     		pop	{r4, r5, r6, pc}
 729              	.LVL99:
 730              	.L81:
 156:../../source/src/kernel/OS_CORE/mutex.c **** 		return -ERROR_MUTEX_UNLOCK_FAIL;
 731              		.loc 1 156 0
 732 029c FFF7FEFF 		bl	CPU_SR_Restore
 733              	.LVL100:
 157:../../source/src/kernel/OS_CORE/mutex.c **** 	}
 734              		.loc 1 157 0
 735 02a0 6FF00100 		mvn	r0, #1
 181:../../source/src/kernel/OS_CORE/mutex.c **** EXPORT_SYMBOL(mutex_unlock);
 736              		.loc 1 181 0
 737 02a4 70BD     		pop	{r4, r5, r6, pc}
 738              	.LVL101:
 739              	.L85:
 740 02a6 00BF     		.align	2
 741              	.L84:
 742 02a8 00000000 		.word	OSTCBCurPtr
 743 02ac 00000000 		.word	.LC0
 744 02b0 FC000000 		.word	.LC5
 745              		.cfi_endproc
 746              	.LFE15:
 747              		.size	mutex_unlock, .-mutex_unlock
 748              		.global	__rtmsym_mutex_del
 749              		.global	__rtmsym_mutex_del_name
 750              		.global	__rtmsym_mutex_unlock
 751              		.global	__rtmsym_mutex_unlock_name
 752              		.global	__rtmsym_mutex_try_lock
 753              		.global	__rtmsym_mutex_try_lock_name
 754              		.global	__rtmsym_mutex_lock
 755              		.global	__rtmsym_mutex_lock_name
 756              		.global	__rtmsym_mutex_init
 757              		.global	__rtmsym_mutex_init_name
 758              		.section	.RTMSymTab,"a",%progbits
 759              		.align	2
 760              		.type	__rtmsym_mutex_del, %object
 761              		.size	__rtmsym_mutex_del, 8
 762              	__rtmsym_mutex_del:
ARM GAS  G:\Users\Jaxb\AppData\Local\Temp\ccG52moA.s 			page 20


 763 0000 00000000 		.word	mutex_del
 764 0004 00000000 		.word	__rtmsym_mutex_del_name
 765              		.type	__rtmsym_mutex_unlock, %object
 766              		.size	__rtmsym_mutex_unlock, 8
 767              	__rtmsym_mutex_unlock:
 768 0008 00000000 		.word	mutex_unlock
 769 000c 00000000 		.word	__rtmsym_mutex_unlock_name
 770              		.type	__rtmsym_mutex_try_lock, %object
 771              		.size	__rtmsym_mutex_try_lock, 8
 772              	__rtmsym_mutex_try_lock:
 773 0010 00000000 		.word	mutex_try_lock
 774 0014 00000000 		.word	__rtmsym_mutex_try_lock_name
 775              		.type	__rtmsym_mutex_lock, %object
 776              		.size	__rtmsym_mutex_lock, 8
 777              	__rtmsym_mutex_lock:
 778 0018 00000000 		.word	mutex_lock
 779 001c 00000000 		.word	__rtmsym_mutex_lock_name
 780              		.type	__rtmsym_mutex_init, %object
 781              		.size	__rtmsym_mutex_init, 8
 782              	__rtmsym_mutex_init:
 783 0020 00000000 		.word	mutex_init
 784 0024 00000000 		.word	__rtmsym_mutex_init_name
 785              		.section	.rodata.name,"a",%progbits
 786              		.align	2
 787              		.type	__rtmsym_mutex_del_name, %object
 788              		.size	__rtmsym_mutex_del_name, 10
 789              	__rtmsym_mutex_del_name:
 790 0000 6D757465 		.ascii	"mutex_del\000"
 790      785F6465 
 790      6C00
 791 000a 0000     		.space	2
 792              		.type	__rtmsym_mutex_unlock_name, %object
 793              		.size	__rtmsym_mutex_unlock_name, 13
 794              	__rtmsym_mutex_unlock_name:
 795 000c 6D757465 		.ascii	"mutex_unlock\000"
 795      785F756E 
 795      6C6F636B 
 795      00
 796 0019 000000   		.space	3
 797              		.type	__rtmsym_mutex_try_lock_name, %object
 798              		.size	__rtmsym_mutex_try_lock_name, 15
 799              	__rtmsym_mutex_try_lock_name:
 800 001c 6D757465 		.ascii	"mutex_try_lock\000"
 800      785F7472 
 800      795F6C6F 
 800      636B00
 801 002b 00       		.space	1
 802              		.type	__rtmsym_mutex_lock_name, %object
 803              		.size	__rtmsym_mutex_lock_name, 11
 804              	__rtmsym_mutex_lock_name:
 805 002c 6D757465 		.ascii	"mutex_lock\000"
 805      785F6C6F 
 805      636B00
 806 0037 00       		.space	1
 807              		.type	__rtmsym_mutex_init_name, %object
 808              		.size	__rtmsym_mutex_init_name, 11
 809              	__rtmsym_mutex_init_name:
ARM GAS  G:\Users\Jaxb\AppData\Local\Temp\ccG52moA.s 			page 21


 810 0038 6D757465 		.ascii	"mutex_init\000"
 810      785F696E 
 810      697400
 811              		.section	.rodata.str1.4,"aMS",%progbits,1
 812              		.align	2
 813              	.LC0:
 814 0000 2E2E2F2E 		.ascii	"../../source/src/kernel/OS_CORE/mutex.c\000"
 814      2E2F736F 
 814      75726365 
 814      2F737263 
 814      2F6B6572 
 815              	.LC1:
 816 0028 6572726F 		.ascii	"error fun name : mutex_try_lock\012error para : MUT"
 816      72206675 
 816      6E206E61 
 816      6D65203A 
 816      206D7574 
 817 0058 45585F70 		.ascii	"EX_ptr\012\000"
 817      74720A00 
 818              	.LC2:
 819 0060 6572726F 		.ascii	"error fun name : mutex_init\012error para : MUTEX_p"
 819      72206675 
 819      6E206E61 
 819      6D65203A 
 819      206D7574 
 820 0090 74720A00 		.ascii	"tr\012\000"
 821              	.LC3:
 822 0094 6572726F 		.ascii	"error fun name : mutex_lock\012error para : MUTEX_p"
 822      72206675 
 822      6E206E61 
 822      6D65203A 
 822      206D7574 
 823 00c4 74720A00 		.ascii	"tr\012\000"
 824              	.LC4:
 825 00c8 6572726F 		.ascii	"error fun name : mutex_del\012error para : MUTEX_pt"
 825      72206675 
 825      6E206E61 
 825      6D65203A 
 825      206D7574 
 826 00f8 720A00   		.ascii	"r\012\000"
 827 00fb 00       		.space	1
 828              	.LC5:
 829 00fc 6572726F 		.ascii	"error fun name : mutex_unlock\012error para : MUTEX"
 829      72206675 
 829      6E206E61 
 829      6D65203A 
 829      206D7574 
 830 012c 5F707472 		.ascii	"_ptr\012\000"
 830      0A00
 831              		.text
 832              	.Letext0:
 833              		.file 2 "../../source/include/os_lib/double_linked_list.h"
 834              		.file 3 "../../source/include/os_cpu/kakaosstdint.h"
 835              		.file 4 "../../source/include/os_lib/insert_sort_oo.h"
 836              		.file 5 "../../source/include/os_core/task_state.h"
 837              		.file 6 "../../source/include/os_core/TCB.h"
 838              		.file 7 "../../source/include/os_core/mutex.h"
ARM GAS  G:\Users\Jaxb\AppData\Local\Temp\ccG52moA.s 			page 22


 839              		.file 8 "../../source/include/os_cpu/os_cpu_stm32.h"
 840              		.file 9 "../../source/include/os_core/export.h"
 841              		.file 10 "../../source/include/os_lib/myassert.h"
 842              		.file 11 "../../source/include/os_core/schedule/os_suspend.h"
 843              		.file 12 "../../source/include/os_lib/myMicroLIB.h"
 844              		.file 13 "../../source/include/os_core/schedule/os_schedule.h"
 845              		.section	.debug_info,"",%progbits
 846              	.Ldebug_info0:
 847 0000 9F0A0000 		.4byte	0xa9f
 848 0004 0200     		.2byte	0x2
 849 0006 00000000 		.4byte	.Ldebug_abbrev0
 850 000a 04       		.byte	0x4
 851 000b 01       		.uleb128 0x1
 852 000c D0050000 		.4byte	.LASF104
 853 0010 0C       		.byte	0xc
 854 0011 98040000 		.4byte	.LASF105
 855 0015 3B020000 		.4byte	.LASF106
 856 0019 00000000 		.4byte	.Ltext0
 857 001d B4020000 		.4byte	.Letext0
 858 0021 00000000 		.4byte	.Ldebug_line0
 859 0025 02       		.uleb128 0x2
 860 0026 94000000 		.4byte	.LASF12
 861 002a 08       		.byte	0x8
 862 002b 02       		.byte	0x2
 863 002c 04       		.byte	0x4
 864 002d 4E000000 		.4byte	0x4e
 865 0031 03       		.uleb128 0x3
 866 0032 01070000 		.4byte	.LASF0
 867 0036 02       		.byte	0x2
 868 0037 05       		.byte	0x5
 869 0038 4E000000 		.4byte	0x4e
 870 003c 02       		.byte	0x2
 871 003d 23       		.byte	0x23
 872 003e 00       		.uleb128 0
 873 003f 03       		.uleb128 0x3
 874 0040 AB060000 		.4byte	.LASF1
 875 0044 02       		.byte	0x2
 876 0045 05       		.byte	0x5
 877 0046 4E000000 		.4byte	0x4e
 878 004a 02       		.byte	0x2
 879 004b 23       		.byte	0x23
 880 004c 04       		.uleb128 0x4
 881 004d 00       		.byte	0
 882 004e 04       		.uleb128 0x4
 883 004f 04       		.byte	0x4
 884 0050 25000000 		.4byte	0x25
 885 0054 05       		.uleb128 0x5
 886 0055 01       		.byte	0x1
 887 0056 06       		.byte	0x6
 888 0057 59030000 		.4byte	.LASF2
 889 005b 05       		.uleb128 0x5
 890 005c 02       		.byte	0x2
 891 005d 05       		.byte	0x5
 892 005e DD000000 		.4byte	.LASF3
 893 0062 06       		.uleb128 0x6
 894 0063 04       		.byte	0x4
 895 0064 05       		.byte	0x5
ARM GAS  G:\Users\Jaxb\AppData\Local\Temp\ccG52moA.s 			page 23


 896 0065 696E7400 		.ascii	"int\000"
 897 0069 07       		.uleb128 0x7
 898 006a 62000000 		.4byte	0x62
 899 006e 05       		.uleb128 0x5
 900 006f 08       		.byte	0x8
 901 0070 05       		.byte	0x5
 902 0071 69020000 		.4byte	.LASF4
 903 0075 05       		.uleb128 0x5
 904 0076 01       		.byte	0x1
 905 0077 08       		.byte	0x8
 906 0078 1E030000 		.4byte	.LASF5
 907 007c 05       		.uleb128 0x5
 908 007d 02       		.byte	0x2
 909 007e 07       		.byte	0x7
 910 007f DA030000 		.4byte	.LASF6
 911 0083 08       		.uleb128 0x8
 912 0084 39010000 		.4byte	.LASF8
 913 0088 03       		.byte	0x3
 914 0089 0C       		.byte	0xc
 915 008a 8E000000 		.4byte	0x8e
 916 008e 05       		.uleb128 0x5
 917 008f 04       		.byte	0x4
 918 0090 07       		.byte	0x7
 919 0091 7C030000 		.4byte	.LASF7
 920 0095 08       		.uleb128 0x8
 921 0096 DE060000 		.4byte	.LASF9
 922 009a 03       		.byte	0x3
 923 009b 0D       		.byte	0xd
 924 009c A0000000 		.4byte	0xa0
 925 00a0 05       		.uleb128 0x5
 926 00a1 08       		.byte	0x8
 927 00a2 07       		.byte	0x7
 928 00a3 65030000 		.4byte	.LASF10
 929 00a7 08       		.uleb128 0x8
 930 00a8 F0060000 		.4byte	.LASF11
 931 00ac 04       		.byte	0x4
 932 00ad 0D       		.byte	0xd
 933 00ae 95000000 		.4byte	0x95
 934 00b2 02       		.uleb128 0x2
 935 00b3 8B020000 		.4byte	.LASF13
 936 00b7 18       		.byte	0x18
 937 00b8 04       		.byte	0x4
 938 00b9 0F       		.byte	0xf
 939 00ba E9000000 		.4byte	0xe9
 940 00be 03       		.uleb128 0x3
 941 00bf F8060000 		.4byte	.LASF14
 942 00c3 04       		.byte	0x4
 943 00c4 11       		.byte	0x11
 944 00c5 E9000000 		.4byte	0xe9
 945 00c9 02       		.byte	0x2
 946 00ca 23       		.byte	0x23
 947 00cb 00       		.uleb128 0
 948 00cc 03       		.uleb128 0x3
 949 00cd F6000000 		.4byte	.LASF15
 950 00d1 04       		.byte	0x4
 951 00d2 12       		.byte	0x12
 952 00d3 A7000000 		.4byte	0xa7
ARM GAS  G:\Users\Jaxb\AppData\Local\Temp\ccG52moA.s 			page 24


 953 00d7 02       		.byte	0x2
 954 00d8 23       		.byte	0x23
 955 00d9 08       		.uleb128 0x8
 956 00da 03       		.uleb128 0x3
 957 00db 04010000 		.4byte	.LASF16
 958 00df 04       		.byte	0x4
 959 00e0 13       		.byte	0x13
 960 00e1 25000000 		.4byte	0x25
 961 00e5 02       		.byte	0x2
 962 00e6 23       		.byte	0x23
 963 00e7 10       		.uleb128 0x10
 964 00e8 00       		.byte	0
 965 00e9 09       		.uleb128 0x9
 966 00ea 04       		.byte	0x4
 967 00eb 02       		.uleb128 0x2
 968 00ec 30050000 		.4byte	.LASF17
 969 00f0 18       		.byte	0x18
 970 00f1 04       		.byte	0x4
 971 00f2 1D       		.byte	0x1d
 972 00f3 3E010000 		.4byte	0x13e
 973 00f7 03       		.uleb128 0x3
 974 00f8 CE000000 		.4byte	.LASF18
 975 00fc 04       		.byte	0x4
 976 00fd 27       		.byte	0x27
 977 00fe 25000000 		.4byte	0x25
 978 0102 02       		.byte	0x2
 979 0103 23       		.byte	0x23
 980 0104 00       		.uleb128 0
 981 0105 03       		.uleb128 0x3
 982 0106 F5020000 		.4byte	.LASF19
 983 010a 04       		.byte	0x4
 984 010b 28       		.byte	0x28
 985 010c 8E000000 		.4byte	0x8e
 986 0110 02       		.byte	0x2
 987 0111 23       		.byte	0x23
 988 0112 08       		.uleb128 0x8
 989 0113 03       		.uleb128 0x3
 990 0114 5A050000 		.4byte	.LASF20
 991 0118 04       		.byte	0x4
 992 0119 2C       		.byte	0x2c
 993 011a 59010000 		.4byte	0x159
 994 011e 02       		.byte	0x2
 995 011f 23       		.byte	0x23
 996 0120 0C       		.uleb128 0xc
 997 0121 03       		.uleb128 0x3
 998 0122 9C020000 		.4byte	.LASF21
 999 0126 04       		.byte	0x4
 1000 0127 2D       		.byte	0x2d
 1001 0128 74010000 		.4byte	0x174
 1002 012c 02       		.byte	0x2
 1003 012d 23       		.byte	0x23
 1004 012e 10       		.uleb128 0x10
 1005 012f 03       		.uleb128 0x3
 1006 0130 D0030000 		.4byte	.LASF22
 1007 0134 04       		.byte	0x4
 1008 0135 2E       		.byte	0x2e
 1009 0136 8F010000 		.4byte	0x18f
ARM GAS  G:\Users\Jaxb\AppData\Local\Temp\ccG52moA.s 			page 25


 1010 013a 02       		.byte	0x2
 1011 013b 23       		.byte	0x23
 1012 013c 14       		.uleb128 0x14
 1013 013d 00       		.byte	0
 1014 013e 0A       		.uleb128 0xa
 1015 013f 01       		.byte	0x1
 1016 0140 62000000 		.4byte	0x62
 1017 0144 53010000 		.4byte	0x153
 1018 0148 0B       		.uleb128 0xb
 1019 0149 53010000 		.4byte	0x153
 1020 014d 0B       		.uleb128 0xb
 1021 014e 53010000 		.4byte	0x153
 1022 0152 00       		.byte	0
 1023 0153 04       		.uleb128 0x4
 1024 0154 04       		.byte	0x4
 1025 0155 B2000000 		.4byte	0xb2
 1026 0159 04       		.uleb128 0x4
 1027 015a 04       		.byte	0x4
 1028 015b 3E010000 		.4byte	0x13e
 1029 015f 0A       		.uleb128 0xa
 1030 0160 01       		.byte	0x1
 1031 0161 62000000 		.4byte	0x62
 1032 0165 74010000 		.4byte	0x174
 1033 0169 0B       		.uleb128 0xb
 1034 016a 53010000 		.4byte	0x153
 1035 016e 0B       		.uleb128 0xb
 1036 016f E9000000 		.4byte	0xe9
 1037 0173 00       		.byte	0
 1038 0174 04       		.uleb128 0x4
 1039 0175 04       		.byte	0x4
 1040 0176 5F010000 		.4byte	0x15f
 1041 017a 0A       		.uleb128 0xa
 1042 017b 01       		.byte	0x1
 1043 017c 62000000 		.4byte	0x62
 1044 0180 8F010000 		.4byte	0x18f
 1045 0184 0B       		.uleb128 0xb
 1046 0185 E9000000 		.4byte	0xe9
 1047 0189 0B       		.uleb128 0xb
 1048 018a E9000000 		.4byte	0xe9
 1049 018e 00       		.byte	0
 1050 018f 04       		.uleb128 0x4
 1051 0190 04       		.byte	0x4
 1052 0191 7A010000 		.4byte	0x17a
 1053 0195 0C       		.uleb128 0xc
 1054 0196 4B010000 		.4byte	.LASF57
 1055 019a 07       		.byte	0x7
 1056 019b 01       		.byte	0x1
 1057 019c 75000000 		.4byte	0x75
 1058 01a0 05       		.byte	0x5
 1059 01a1 04       		.byte	0x4
 1060 01a2 E3010000 		.4byte	0x1e3
 1061 01a6 0D       		.uleb128 0xd
 1062 01a7 ED030000 		.4byte	.LASF23
 1063 01ab 01       		.byte	0x1
 1064 01ac 0D       		.uleb128 0xd
 1065 01ad 2C030000 		.4byte	.LASF24
 1066 01b1 02       		.byte	0x2
ARM GAS  G:\Users\Jaxb\AppData\Local\Temp\ccG52moA.s 			page 26


 1067 01b2 0D       		.uleb128 0xd
 1068 01b3 56000000 		.4byte	.LASF25
 1069 01b7 03       		.byte	0x3
 1070 01b8 0D       		.uleb128 0xd
 1071 01b9 43050000 		.4byte	.LASF26
 1072 01bd 04       		.byte	0x4
 1073 01be 0D       		.uleb128 0xd
 1074 01bf C5010000 		.4byte	.LASF27
 1075 01c3 05       		.byte	0x5
 1076 01c4 0D       		.uleb128 0xd
 1077 01c5 18010000 		.4byte	.LASF28
 1078 01c9 06       		.byte	0x6
 1079 01ca 0D       		.uleb128 0xd
 1080 01cb 01020000 		.4byte	.LASF29
 1081 01cf 07       		.byte	0x7
 1082 01d0 0D       		.uleb128 0xd
 1083 01d1 56010000 		.4byte	.LASF30
 1084 01d5 08       		.byte	0x8
 1085 01d6 0D       		.uleb128 0xd
 1086 01d7 35040000 		.4byte	.LASF31
 1087 01db 09       		.byte	0x9
 1088 01dc 0D       		.uleb128 0xd
 1089 01dd 8C060000 		.4byte	.LASF32
 1090 01e1 0A       		.byte	0xa
 1091 01e2 00       		.byte	0
 1092 01e3 08       		.uleb128 0x8
 1093 01e4 CD020000 		.4byte	.LASF33
 1094 01e8 05       		.byte	0x5
 1095 01e9 0F       		.byte	0xf
 1096 01ea 95010000 		.4byte	0x195
 1097 01ee 08       		.uleb128 0x8
 1098 01ef 40010000 		.4byte	.LASF34
 1099 01f3 06       		.byte	0x6
 1100 01f4 09       		.byte	0x9
 1101 01f5 8E000000 		.4byte	0x8e
 1102 01f9 08       		.uleb128 0x8
 1103 01fa 00000000 		.4byte	.LASF35
 1104 01fe 06       		.byte	0x6
 1105 01ff 0B       		.byte	0xb
 1106 0200 8E000000 		.4byte	0x8e
 1107 0204 0E       		.uleb128 0xe
 1108 0205 B7050000 		.4byte	.LASF65
 1109 0209 06       		.byte	0x6
 1110 020a 12       		.byte	0x12
 1111 020b 69000000 		.4byte	0x69
 1112 020f 01       		.byte	0x1
 1113 0210 01       		.byte	0x1
 1114 0211 02       		.uleb128 0x2
 1115 0212 62050000 		.4byte	.LASF36
 1116 0216 48       		.byte	0x48
 1117 0217 06       		.byte	0x6
 1118 0218 2F       		.byte	0x2f
 1119 0219 E2020000 		.4byte	0x2e2
 1120 021d 03       		.uleb128 0x3
 1121 021e 9D030000 		.4byte	.LASF37
 1122 0222 06       		.byte	0x6
 1123 0223 30       		.byte	0x30
ARM GAS  G:\Users\Jaxb\AppData\Local\Temp\ccG52moA.s 			page 27


 1124 0224 E2020000 		.4byte	0x2e2
 1125 0228 02       		.byte	0x2
 1126 0229 23       		.byte	0x23
 1127 022a 00       		.uleb128 0
 1128 022b 03       		.uleb128 0x3
 1129 022c 7C050000 		.4byte	.LASF38
 1130 0230 06       		.byte	0x6
 1131 0231 31       		.byte	0x31
 1132 0232 8E000000 		.4byte	0x8e
 1133 0236 02       		.byte	0x2
 1134 0237 23       		.byte	0x23
 1135 0238 04       		.uleb128 0x4
 1136 0239 03       		.uleb128 0x3
 1137 023a BB010000 		.4byte	.LASF39
 1138 023e 06       		.byte	0x6
 1139 023f 32       		.byte	0x32
 1140 0240 E2020000 		.4byte	0x2e2
 1141 0244 02       		.byte	0x2
 1142 0245 23       		.byte	0x23
 1143 0246 08       		.uleb128 0x8
 1144 0247 03       		.uleb128 0x3
 1145 0248 CB030000 		.4byte	.LASF40
 1146 024c 06       		.byte	0x6
 1147 024d 33       		.byte	0x33
 1148 024e F9010000 		.4byte	0x1f9
 1149 0252 02       		.byte	0x2
 1150 0253 23       		.byte	0x23
 1151 0254 0C       		.uleb128 0xc
 1152 0255 03       		.uleb128 0x3
 1153 0256 9D050000 		.4byte	.LASF41
 1154 025a 06       		.byte	0x6
 1155 025b 34       		.byte	0x34
 1156 025c F9010000 		.4byte	0x1f9
 1157 0260 02       		.byte	0x2
 1158 0261 23       		.byte	0x23
 1159 0262 10       		.uleb128 0x10
 1160 0263 03       		.uleb128 0x3
 1161 0264 E1040000 		.4byte	.LASF42
 1162 0268 06       		.byte	0x6
 1163 0269 35       		.byte	0x35
 1164 026a E3010000 		.4byte	0x1e3
 1165 026e 02       		.byte	0x2
 1166 026f 23       		.byte	0x23
 1167 0270 14       		.uleb128 0x14
 1168 0271 03       		.uleb128 0x3
 1169 0272 CD040000 		.4byte	.LASF43
 1170 0276 06       		.byte	0x6
 1171 0277 36       		.byte	0x36
 1172 0278 62000000 		.4byte	0x62
 1173 027c 02       		.byte	0x2
 1174 027d 23       		.byte	0x23
 1175 027e 18       		.uleb128 0x18
 1176 027f 03       		.uleb128 0x3
 1177 0280 BC030000 		.4byte	.LASF44
 1178 0284 06       		.byte	0x6
 1179 0285 37       		.byte	0x37
 1180 0286 25000000 		.4byte	0x25
ARM GAS  G:\Users\Jaxb\AppData\Local\Temp\ccG52moA.s 			page 28


 1181 028a 02       		.byte	0x2
 1182 028b 23       		.byte	0x23
 1183 028c 1C       		.uleb128 0x1c
 1184 028d 03       		.uleb128 0x3
 1185 028e AA050000 		.4byte	.LASF45
 1186 0292 06       		.byte	0x6
 1187 0293 38       		.byte	0x38
 1188 0294 25000000 		.4byte	0x25
 1189 0298 02       		.byte	0x2
 1190 0299 23       		.byte	0x23
 1191 029a 24       		.uleb128 0x24
 1192 029b 03       		.uleb128 0x3
 1193 029c E4020000 		.4byte	.LASF46
 1194 02a0 06       		.byte	0x6
 1195 02a1 39       		.byte	0x39
 1196 02a2 E8020000 		.4byte	0x2e8
 1197 02a6 02       		.byte	0x2
 1198 02a7 23       		.byte	0x23
 1199 02a8 2C       		.uleb128 0x2c
 1200 02a9 03       		.uleb128 0x3
 1201 02aa 77020000 		.4byte	.LASF47
 1202 02ae 06       		.byte	0x6
 1203 02af 3A       		.byte	0x3a
 1204 02b0 8E000000 		.4byte	0x8e
 1205 02b4 02       		.byte	0x2
 1206 02b5 23       		.byte	0x23
 1207 02b6 30       		.uleb128 0x30
 1208 02b7 03       		.uleb128 0x3
 1209 02b8 1C050000 		.4byte	.LASF48
 1210 02bc 06       		.byte	0x6
 1211 02bd 3B       		.byte	0x3b
 1212 02be 8E000000 		.4byte	0x8e
 1213 02c2 02       		.byte	0x2
 1214 02c3 23       		.byte	0x23
 1215 02c4 34       		.uleb128 0x34
 1216 02c5 03       		.uleb128 0x3
 1217 02c6 38030000 		.4byte	.LASF49
 1218 02ca 06       		.byte	0x6
 1219 02cb 3C       		.byte	0x3c
 1220 02cc 83000000 		.4byte	0x83
 1221 02d0 02       		.byte	0x2
 1222 02d1 23       		.byte	0x23
 1223 02d2 38       		.uleb128 0x38
 1224 02d3 03       		.uleb128 0x3
 1225 02d4 B7060000 		.4byte	.LASF50
 1226 02d8 06       		.byte	0x6
 1227 02d9 3D       		.byte	0x3d
 1228 02da 95000000 		.4byte	0x95
 1229 02de 02       		.byte	0x2
 1230 02df 23       		.byte	0x23
 1231 02e0 40       		.uleb128 0x40
 1232 02e1 00       		.byte	0
 1233 02e2 04       		.uleb128 0x4
 1234 02e3 04       		.byte	0x4
 1235 02e4 EE010000 		.4byte	0x1ee
 1236 02e8 04       		.uleb128 0x4
 1237 02e9 04       		.byte	0x4
ARM GAS  G:\Users\Jaxb\AppData\Local\Temp\ccG52moA.s 			page 29


 1238 02ea EE020000 		.4byte	0x2ee
 1239 02ee 05       		.uleb128 0x5
 1240 02ef 01       		.byte	0x1
 1241 02f0 08       		.byte	0x8
 1242 02f1 04040000 		.4byte	.LASF51
 1243 02f5 0F       		.uleb128 0xf
 1244 02f6 EE020000 		.4byte	0x2ee
 1245 02fa 10       		.uleb128 0x10
 1246 02fb 54434200 		.ascii	"TCB\000"
 1247 02ff 06       		.byte	0x6
 1248 0300 3E       		.byte	0x3e
 1249 0301 11020000 		.4byte	0x211
 1250 0305 07       		.uleb128 0x7
 1251 0306 FA020000 		.4byte	0x2fa
 1252 030a 02       		.uleb128 0x2
 1253 030b F5010000 		.4byte	.LASF52
 1254 030f 20       		.byte	0x20
 1255 0310 07       		.byte	0x7
 1256 0311 07       		.byte	0x7
 1257 0312 41030000 		.4byte	0x341
 1258 0316 03       		.uleb128 0x3
 1259 0317 F9030000 		.4byte	.LASF53
 1260 031b 07       		.byte	0x7
 1261 031c 08       		.byte	0x8
 1262 031d 8E000000 		.4byte	0x8e
 1263 0321 02       		.byte	0x2
 1264 0322 23       		.byte	0x23
 1265 0323 00       		.uleb128 0
 1266 0324 03       		.uleb128 0x3
 1267 0325 87050000 		.4byte	.LASF54
 1268 0329 07       		.byte	0x7
 1269 032a 09       		.byte	0x9
 1270 032b 41030000 		.4byte	0x341
 1271 032f 02       		.byte	0x2
 1272 0330 23       		.byte	0x23
 1273 0331 04       		.uleb128 0x4
 1274 0332 03       		.uleb128 0x3
 1275 0333 0F000000 		.4byte	.LASF55
 1276 0337 07       		.byte	0x7
 1277 0338 0A       		.byte	0xa
 1278 0339 EB000000 		.4byte	0xeb
 1279 033d 02       		.byte	0x2
 1280 033e 23       		.byte	0x23
 1281 033f 08       		.uleb128 0x8
 1282 0340 00       		.byte	0
 1283 0341 04       		.uleb128 0x4
 1284 0342 04       		.byte	0x4
 1285 0343 FA020000 		.4byte	0x2fa
 1286 0347 08       		.uleb128 0x8
 1287 0348 9F010000 		.4byte	.LASF56
 1288 034c 07       		.byte	0x7
 1289 034d 0B       		.byte	0xb
 1290 034e 0A030000 		.4byte	0x30a
 1291 0352 0C       		.uleb128 0xc
 1292 0353 06030000 		.4byte	.LASF58
 1293 0357 07       		.byte	0x7
 1294 0358 01       		.byte	0x1
ARM GAS  G:\Users\Jaxb\AppData\Local\Temp\ccG52moA.s 			page 30


 1295 0359 75000000 		.4byte	0x75
 1296 035d 07       		.byte	0x7
 1297 035e 0D       		.byte	0xd
 1298 035f 70030000 		.4byte	0x370
 1299 0363 0D       		.uleb128 0xd
 1300 0364 E5060000 		.4byte	.LASF59
 1301 0368 00       		.byte	0
 1302 0369 0D       		.uleb128 0xd
 1303 036a C0040000 		.4byte	.LASF60
 1304 036e 01       		.byte	0x1
 1305 036f 00       		.byte	0
 1306 0370 08       		.uleb128 0x8
 1307 0371 69040000 		.4byte	.LASF61
 1308 0375 08       		.byte	0x8
 1309 0376 04       		.byte	0x4
 1310 0377 8E000000 		.4byte	0x8e
 1311 037b 08       		.uleb128 0x8
 1312 037c B0060000 		.4byte	.LASF62
 1313 0380 08       		.byte	0x8
 1314 0381 06       		.byte	0x6
 1315 0382 70030000 		.4byte	0x370
 1316 0386 02       		.uleb128 0x2
 1317 0387 76010000 		.4byte	.LASF63
 1318 038b 08       		.byte	0x8
 1319 038c 09       		.byte	0x9
 1320 038d 05       		.byte	0x5
 1321 038e AF030000 		.4byte	0x3af
 1322 0392 03       		.uleb128 0x3
 1323 0393 B8020000 		.4byte	.LASF64
 1324 0397 09       		.byte	0x9
 1325 0398 07       		.byte	0x7
 1326 0399 E9000000 		.4byte	0xe9
 1327 039d 02       		.byte	0x2
 1328 039e 23       		.byte	0x23
 1329 039f 00       		.uleb128 0
 1330 03a0 03       		.uleb128 0x3
 1331 03a1 E4020000 		.4byte	.LASF46
 1332 03a5 09       		.byte	0x9
 1333 03a6 08       		.byte	0x8
 1334 03a7 B4030000 		.4byte	0x3b4
 1335 03ab 02       		.byte	0x2
 1336 03ac 23       		.byte	0x23
 1337 03ad 04       		.uleb128 0x4
 1338 03ae 00       		.byte	0
 1339 03af 0F       		.uleb128 0xf
 1340 03b0 86030000 		.4byte	0x386
 1341 03b4 04       		.uleb128 0x4
 1342 03b5 04       		.byte	0x4
 1343 03b6 F5020000 		.4byte	0x2f5
 1344 03ba 0E       		.uleb128 0xe
 1345 03bb E9020000 		.4byte	.LASF66
 1346 03bf 01       		.byte	0x1
 1347 03c0 08       		.byte	0x8
 1348 03c1 C7030000 		.4byte	0x3c7
 1349 03c5 01       		.byte	0x1
 1350 03c6 01       		.byte	0x1
 1351 03c7 04       		.uleb128 0x4
ARM GAS  G:\Users\Jaxb\AppData\Local\Temp\ccG52moA.s 			page 31


 1352 03c8 04       		.byte	0x4
 1353 03c9 05030000 		.4byte	0x305
 1354 03cd 11       		.uleb128 0x11
 1355 03ce F5020000 		.4byte	0x2f5
 1356 03d2 DD030000 		.4byte	0x3dd
 1357 03d6 12       		.uleb128 0x12
 1358 03d7 8E000000 		.4byte	0x8e
 1359 03db 0A       		.byte	0xa
 1360 03dc 00       		.byte	0
 1361 03dd 0F       		.uleb128 0xf
 1362 03de CD030000 		.4byte	0x3cd
 1363 03e2 13       		.uleb128 0x13
 1364 03e3 22020000 		.4byte	.LASF67
 1365 03e7 01       		.byte	0x1
 1366 03e8 30       		.byte	0x30
 1367 03e9 DD030000 		.4byte	0x3dd
 1368 03ed 01       		.byte	0x1
 1369 03ee 05       		.byte	0x5
 1370 03ef 03       		.byte	0x3
 1371 03f0 00000000 		.4byte	__rtmsym_mutex_init_name
 1372 03f4 13       		.uleb128 0x13
 1373 03f5 55040000 		.4byte	.LASF68
 1374 03f9 01       		.byte	0x1
 1375 03fa 30       		.byte	0x30
 1376 03fb AF030000 		.4byte	0x3af
 1377 03ff 01       		.byte	0x1
 1378 0400 05       		.byte	0x5
 1379 0401 03       		.byte	0x3
 1380 0402 00000000 		.4byte	__rtmsym_mutex_init
 1381 0406 13       		.uleb128 0x13
 1382 0407 A3030000 		.4byte	.LASF69
 1383 040b 01       		.byte	0x1
 1384 040c 6B       		.byte	0x6b
 1385 040d DD030000 		.4byte	0x3dd
 1386 0411 01       		.byte	0x1
 1387 0412 05       		.byte	0x5
 1388 0413 03       		.byte	0x3
 1389 0414 00000000 		.4byte	__rtmsym_mutex_lock_name
 1390 0418 13       		.uleb128 0x13
 1391 0419 42000000 		.4byte	.LASF70
 1392 041d 01       		.byte	0x1
 1393 041e 6B       		.byte	0x6b
 1394 041f AF030000 		.4byte	0x3af
 1395 0423 01       		.byte	0x1
 1396 0424 05       		.byte	0x5
 1397 0425 03       		.byte	0x3
 1398 0426 00000000 		.4byte	__rtmsym_mutex_lock
 1399 042a 11       		.uleb128 0x11
 1400 042b F5020000 		.4byte	0x2f5
 1401 042f 3A040000 		.4byte	0x43a
 1402 0433 12       		.uleb128 0x12
 1403 0434 8E000000 		.4byte	0x8e
 1404 0438 0E       		.byte	0xe
 1405 0439 00       		.byte	0
 1406 043a 0F       		.uleb128 0xf
 1407 043b 2A040000 		.4byte	0x42a
 1408 043f 13       		.uleb128 0x13
ARM GAS  G:\Users\Jaxb\AppData\Local\Temp\ccG52moA.s 			page 32


 1409 0440 B1000000 		.4byte	.LASF71
 1410 0444 01       		.byte	0x1
 1411 0445 87       		.byte	0x87
 1412 0446 3A040000 		.4byte	0x43a
 1413 044a 01       		.byte	0x1
 1414 044b 05       		.byte	0x5
 1415 044c 03       		.byte	0x3
 1416 044d 00000000 		.4byte	__rtmsym_mutex_try_lock_name
 1417 0451 13       		.uleb128 0x13
 1418 0452 74040000 		.4byte	.LASF72
 1419 0456 01       		.byte	0x1
 1420 0457 87       		.byte	0x87
 1421 0458 AF030000 		.4byte	0x3af
 1422 045c 01       		.byte	0x1
 1423 045d 05       		.byte	0x5
 1424 045e 03       		.byte	0x3
 1425 045f 00000000 		.4byte	__rtmsym_mutex_try_lock
 1426 0463 11       		.uleb128 0x11
 1427 0464 F5020000 		.4byte	0x2f5
 1428 0468 73040000 		.4byte	0x473
 1429 046c 12       		.uleb128 0x12
 1430 046d 8E000000 		.4byte	0x8e
 1431 0471 0C       		.byte	0xc
 1432 0472 00       		.byte	0
 1433 0473 0F       		.uleb128 0xf
 1434 0474 63040000 		.4byte	0x463
 1435 0478 13       		.uleb128 0x13
 1436 0479 1A040000 		.4byte	.LASF73
 1437 047d 01       		.byte	0x1
 1438 047e B6       		.byte	0xb6
 1439 047f 73040000 		.4byte	0x473
 1440 0483 01       		.byte	0x1
 1441 0484 05       		.byte	0x5
 1442 0485 03       		.byte	0x3
 1443 0486 00000000 		.4byte	__rtmsym_mutex_unlock_name
 1444 048a 13       		.uleb128 0x13
 1445 048b 76060000 		.4byte	.LASF74
 1446 048f 01       		.byte	0x1
 1447 0490 B6       		.byte	0xb6
 1448 0491 AF030000 		.4byte	0x3af
 1449 0495 01       		.byte	0x1
 1450 0496 05       		.byte	0x5
 1451 0497 03       		.byte	0x3
 1452 0498 00000000 		.4byte	__rtmsym_mutex_unlock
 1453 049c 11       		.uleb128 0x11
 1454 049d F5020000 		.4byte	0x2f5
 1455 04a1 AC040000 		.4byte	0x4ac
 1456 04a5 12       		.uleb128 0x12
 1457 04a6 8E000000 		.4byte	0x8e
 1458 04aa 09       		.byte	0x9
 1459 04ab 00       		.byte	0
 1460 04ac 0F       		.uleb128 0xf
 1461 04ad 9C040000 		.4byte	0x49c
 1462 04b1 13       		.uleb128 0x13
 1463 04b2 2A000000 		.4byte	.LASF75
 1464 04b6 01       		.byte	0x1
 1465 04b7 CE       		.byte	0xce
ARM GAS  G:\Users\Jaxb\AppData\Local\Temp\ccG52moA.s 			page 33


 1466 04b8 AC040000 		.4byte	0x4ac
 1467 04bc 01       		.byte	0x1
 1468 04bd 05       		.byte	0x5
 1469 04be 03       		.byte	0x3
 1470 04bf 00000000 		.4byte	__rtmsym_mutex_del_name
 1471 04c3 13       		.uleb128 0x13
 1472 04c4 9E000000 		.4byte	.LASF76
 1473 04c8 01       		.byte	0x1
 1474 04c9 CE       		.byte	0xce
 1475 04ca AF030000 		.4byte	0x3af
 1476 04ce 01       		.byte	0x1
 1477 04cf 05       		.byte	0x5
 1478 04d0 03       		.byte	0x3
 1479 04d1 00000000 		.4byte	__rtmsym_mutex_del
 1480 04d5 14       		.uleb128 0x14
 1481 04d6 01       		.byte	0x1
 1482 04d7 6B000000 		.4byte	.LASF79
 1483 04db 01       		.byte	0x1
 1484 04dc B8       		.byte	0xb8
 1485 04dd 01       		.byte	0x1
 1486 04de 62000000 		.4byte	0x62
 1487 04e2 BC010000 		.4byte	.LFB16
 1488 04e6 18020000 		.4byte	.LFE16
 1489 04ea 00000000 		.4byte	.LLST12
 1490 04ee 01       		.byte	0x1
 1491 04ef A7050000 		.4byte	0x5a7
 1492 04f3 15       		.uleb128 0x15
 1493 04f4 0E010000 		.4byte	.LASF81
 1494 04f8 01       		.byte	0x1
 1495 04f9 B8       		.byte	0xb8
 1496 04fa A7050000 		.4byte	0x5a7
 1497 04fe 20000000 		.4byte	.LLST13
 1498 0502 16       		.uleb128 0x16
 1499 0503 95050000 		.4byte	.LASF77
 1500 0507 01       		.byte	0x1
 1501 0508 C2       		.byte	0xc2
 1502 0509 41030000 		.4byte	0x341
 1503 050d 66000000 		.4byte	.LLST14
 1504 0511 16       		.uleb128 0x16
 1505 0512 44030000 		.4byte	.LASF78
 1506 0516 01       		.byte	0x1
 1507 0517 C3       		.byte	0xc3
 1508 0518 53010000 		.4byte	0x153
 1509 051c 79000000 		.4byte	.LLST15
 1510 0520 17       		.uleb128 0x17
 1511 0521 CA010000 		.4byte	.LVL65
 1512 0525 F9090000 		.4byte	0x9f9
 1513 0529 34050000 		.4byte	0x534
 1514 052d 18       		.uleb128 0x18
 1515 052e 01       		.byte	0x1
 1516 052f 50       		.byte	0x50
 1517 0530 02       		.byte	0x2
 1518 0531 75       		.byte	0x75
 1519 0532 00       		.sleb128 0
 1520 0533 00       		.byte	0
 1521 0534 17       		.uleb128 0x17
 1522 0535 DE010000 		.4byte	.LVL68
ARM GAS  G:\Users\Jaxb\AppData\Local\Temp\ccG52moA.s 			page 34


 1523 0539 060A0000 		.4byte	0xa06
 1524 053d 4E050000 		.4byte	0x54e
 1525 0541 18       		.uleb128 0x18
 1526 0542 01       		.byte	0x1
 1527 0543 50       		.byte	0x50
 1528 0544 02       		.byte	0x2
 1529 0545 76       		.byte	0x76
 1530 0546 00       		.sleb128 0
 1531 0547 18       		.uleb128 0x18
 1532 0548 01       		.byte	0x1
 1533 0549 51       		.byte	0x51
 1534 054a 02       		.byte	0x2
 1535 054b 08       		.byte	0x8
 1536 054c C7       		.byte	0xc7
 1537 054d 00       		.byte	0
 1538 054e 17       		.uleb128 0x17
 1539 054f E4010000 		.4byte	.LVL69
 1540 0553 130A0000 		.4byte	0xa13
 1541 0557 62050000 		.4byte	0x562
 1542 055b 18       		.uleb128 0x18
 1543 055c 01       		.byte	0x1
 1544 055d 50       		.byte	0x50
 1545 055e 02       		.byte	0x2
 1546 055f 74       		.byte	0x74
 1547 0560 00       		.sleb128 0
 1548 0561 00       		.byte	0
 1549 0562 17       		.uleb128 0x17
 1550 0563 F2010000 		.4byte	.LVL70
 1551 0567 F9090000 		.4byte	0x9f9
 1552 056b 76050000 		.4byte	0x576
 1553 056f 18       		.uleb128 0x18
 1554 0570 01       		.byte	0x1
 1555 0571 50       		.byte	0x50
 1556 0572 02       		.byte	0x2
 1557 0573 75       		.byte	0x75
 1558 0574 00       		.sleb128 0
 1559 0575 00       		.byte	0
 1560 0576 17       		.uleb128 0x17
 1561 0577 02020000 		.4byte	.LVL75
 1562 057b 060A0000 		.4byte	0xa06
 1563 057f 93050000 		.4byte	0x593
 1564 0583 18       		.uleb128 0x18
 1565 0584 01       		.byte	0x1
 1566 0585 50       		.byte	0x50
 1567 0586 05       		.byte	0x5
 1568 0587 03       		.byte	0x3
 1569 0588 00000000 		.4byte	.LC0
 1570 058c 18       		.uleb128 0x18
 1571 058d 01       		.byte	0x1
 1572 058e 51       		.byte	0x51
 1573 058f 02       		.byte	0x2
 1574 0590 08       		.byte	0x8
 1575 0591 BA       		.byte	0xba
 1576 0592 00       		.byte	0
 1577 0593 19       		.uleb128 0x19
 1578 0594 08020000 		.4byte	.LVL76
 1579 0598 200A0000 		.4byte	0xa20
ARM GAS  G:\Users\Jaxb\AppData\Local\Temp\ccG52moA.s 			page 35


 1580 059c 18       		.uleb128 0x18
 1581 059d 01       		.byte	0x1
 1582 059e 50       		.byte	0x50
 1583 059f 05       		.byte	0x5
 1584 05a0 03       		.byte	0x3
 1585 05a1 C8000000 		.4byte	.LC4
 1586 05a5 00       		.byte	0
 1587 05a6 00       		.byte	0
 1588 05a7 04       		.uleb128 0x4
 1589 05a8 04       		.byte	0x4
 1590 05a9 47030000 		.4byte	0x347
 1591 05ad 14       		.uleb128 0x14
 1592 05ae 01       		.byte	0x1
 1593 05af 06070000 		.4byte	.LASF80
 1594 05b3 01       		.byte	0x1
 1595 05b4 89       		.byte	0x89
 1596 05b5 01       		.byte	0x1
 1597 05b6 62000000 		.4byte	0x62
 1598 05ba 18020000 		.4byte	.LFB15
 1599 05be B4020000 		.4byte	.LFE15
 1600 05c2 97000000 		.4byte	.LLST16
 1601 05c6 01       		.byte	0x1
 1602 05c7 BC060000 		.4byte	0x6bc
 1603 05cb 15       		.uleb128 0x15
 1604 05cc 0E010000 		.4byte	.LASF81
 1605 05d0 01       		.byte	0x1
 1606 05d1 89       		.byte	0x89
 1607 05d2 A7050000 		.4byte	0x5a7
 1608 05d6 B7000000 		.4byte	.LLST17
 1609 05da 16       		.uleb128 0x16
 1610 05db C9050000 		.4byte	.LASF82
 1611 05df 01       		.byte	0x1
 1612 05e0 93       		.byte	0x93
 1613 05e1 7B030000 		.4byte	0x37b
 1614 05e5 F9000000 		.4byte	.LLST18
 1615 05e9 16       		.uleb128 0x16
 1616 05ea 92030000 		.4byte	.LASF83
 1617 05ee 01       		.byte	0x1
 1618 05ef A5       		.byte	0xa5
 1619 05f0 53010000 		.4byte	0x153
 1620 05f4 65010000 		.4byte	.LLST19
 1621 05f8 1A       		.uleb128 0x1a
 1622 05f9 5E020000 		.4byte	.LBB5
 1623 05fd 6A020000 		.4byte	.LBE5
 1624 0601 1E060000 		.4byte	0x61e
 1625 0605 16       		.uleb128 0x16
 1626 0606 91040000 		.4byte	.LASF84
 1627 060a 01       		.byte	0x1
 1628 060b A1       		.byte	0xa1
 1629 060c F9010000 		.4byte	0x1f9
 1630 0610 99010000 		.4byte	.LLST20
 1631 0614 1B       		.uleb128 0x1b
 1632 0615 6A020000 		.4byte	.LVL91
 1633 0619 2D0A0000 		.4byte	0xa2d
 1634 061d 00       		.byte	0
 1635 061e 1B       		.uleb128 0x1b
 1636 061f 24020000 		.4byte	.LVL79
ARM GAS  G:\Users\Jaxb\AppData\Local\Temp\ccG52moA.s 			page 36


 1637 0623 3A0A0000 		.4byte	0xa3a
 1638 0627 17       		.uleb128 0x17
 1639 0628 42020000 		.4byte	.LVL82
 1640 062c F9090000 		.4byte	0x9f9
 1641 0630 3B060000 		.4byte	0x63b
 1642 0634 18       		.uleb128 0x18
 1643 0635 01       		.byte	0x1
 1644 0636 50       		.byte	0x50
 1645 0637 02       		.byte	0x2
 1646 0638 74       		.byte	0x74
 1647 0639 08       		.sleb128 8
 1648 063a 00       		.byte	0
 1649 063b 1B       		.uleb128 0x1b
 1650 063c 4C020000 		.4byte	.LVL84
 1651 0640 130A0000 		.4byte	0xa13
 1652 0644 1B       		.uleb128 0x1b
 1653 0645 54020000 		.4byte	.LVL85
 1654 0649 470A0000 		.4byte	0xa47
 1655 064d 1B       		.uleb128 0x1b
 1656 064e 5A020000 		.4byte	.LVL87
 1657 0652 540A0000 		.4byte	0xa54
 1658 0656 17       		.uleb128 0x17
 1659 0657 72020000 		.4byte	.LVL92
 1660 065b F9090000 		.4byte	0x9f9
 1661 065f 6A060000 		.4byte	0x66a
 1662 0663 18       		.uleb128 0x18
 1663 0664 01       		.byte	0x1
 1664 0665 50       		.byte	0x50
 1665 0666 02       		.byte	0x2
 1666 0667 74       		.byte	0x74
 1667 0668 08       		.sleb128 8
 1668 0669 00       		.byte	0
 1669 066a 17       		.uleb128 0x17
 1670 066b 84020000 		.4byte	.LVL94
 1671 066f 540A0000 		.4byte	0xa54
 1672 0673 7E060000 		.4byte	0x67e
 1673 0677 18       		.uleb128 0x18
 1674 0678 01       		.byte	0x1
 1675 0679 50       		.byte	0x50
 1676 067a 02       		.byte	0x2
 1677 067b 76       		.byte	0x76
 1678 067c 00       		.sleb128 0
 1679 067d 00       		.byte	0
 1680 067e 17       		.uleb128 0x17
 1681 067f 90020000 		.4byte	.LVL97
 1682 0683 060A0000 		.4byte	0xa06
 1683 0687 9B060000 		.4byte	0x69b
 1684 068b 18       		.uleb128 0x18
 1685 068c 01       		.byte	0x1
 1686 068d 50       		.byte	0x50
 1687 068e 05       		.byte	0x5
 1688 068f 03       		.byte	0x3
 1689 0690 00000000 		.4byte	.LC0
 1690 0694 18       		.uleb128 0x18
 1691 0695 01       		.byte	0x1
 1692 0696 51       		.byte	0x51
 1693 0697 02       		.byte	0x2
ARM GAS  G:\Users\Jaxb\AppData\Local\Temp\ccG52moA.s 			page 37


 1694 0698 08       		.byte	0x8
 1695 0699 8B       		.byte	0x8b
 1696 069a 00       		.byte	0
 1697 069b 17       		.uleb128 0x17
 1698 069c 96020000 		.4byte	.LVL98
 1699 06a0 200A0000 		.4byte	0xa20
 1700 06a4 B2060000 		.4byte	0x6b2
 1701 06a8 18       		.uleb128 0x18
 1702 06a9 01       		.byte	0x1
 1703 06aa 50       		.byte	0x50
 1704 06ab 05       		.byte	0x5
 1705 06ac 03       		.byte	0x3
 1706 06ad FC000000 		.4byte	.LC5
 1707 06b1 00       		.byte	0
 1708 06b2 1B       		.uleb128 0x1b
 1709 06b3 A0020000 		.4byte	.LVL100
 1710 06b7 540A0000 		.4byte	0xa54
 1711 06bb 00       		.byte	0
 1712 06bc 14       		.uleb128 0x14
 1713 06bd 01       		.byte	0x1
 1714 06be A9020000 		.4byte	.LASF85
 1715 06c2 01       		.byte	0x1
 1716 06c3 6D       		.byte	0x6d
 1717 06c4 01       		.byte	0x1
 1718 06c5 62000000 		.4byte	0x62
 1719 06c9 14000000 		.4byte	.LFB14
 1720 06cd 70000000 		.4byte	.LFE14
 1721 06d1 AC010000 		.4byte	.LLST2
 1722 06d5 01       		.byte	0x1
 1723 06d6 6C070000 		.4byte	0x76c
 1724 06da 15       		.uleb128 0x15
 1725 06db 0E010000 		.4byte	.LASF81
 1726 06df 01       		.byte	0x1
 1727 06e0 6D       		.byte	0x6d
 1728 06e1 A7050000 		.4byte	0x5a7
 1729 06e5 CC010000 		.4byte	.LLST3
 1730 06e9 16       		.uleb128 0x16
 1731 06ea C9050000 		.4byte	.LASF82
 1732 06ee 01       		.byte	0x1
 1733 06ef 77       		.byte	0x77
 1734 06f0 7B030000 		.4byte	0x37b
 1735 06f4 00020000 		.4byte	.LLST4
 1736 06f8 1B       		.uleb128 0x1b
 1737 06f9 1E000000 		.4byte	.LVL6
 1738 06fd 3A0A0000 		.4byte	0xa3a
 1739 0701 1B       		.uleb128 0x1b
 1740 0702 34000000 		.4byte	.LVL8
 1741 0706 540A0000 		.4byte	0xa54
 1742 070a 17       		.uleb128 0x17
 1743 070b 40000000 		.4byte	.LVL11
 1744 070f 060A0000 		.4byte	0xa06
 1745 0713 27070000 		.4byte	0x727
 1746 0717 18       		.uleb128 0x18
 1747 0718 01       		.byte	0x1
 1748 0719 50       		.byte	0x50
 1749 071a 05       		.byte	0x5
 1750 071b 03       		.byte	0x3
ARM GAS  G:\Users\Jaxb\AppData\Local\Temp\ccG52moA.s 			page 38


 1751 071c 00000000 		.4byte	.LC0
 1752 0720 18       		.uleb128 0x18
 1753 0721 01       		.byte	0x1
 1754 0722 51       		.byte	0x51
 1755 0723 02       		.byte	0x2
 1756 0724 08       		.byte	0x8
 1757 0725 6F       		.byte	0x6f
 1758 0726 00       		.byte	0
 1759 0727 17       		.uleb128 0x17
 1760 0728 46000000 		.4byte	.LVL12
 1761 072c 200A0000 		.4byte	0xa20
 1762 0730 3E070000 		.4byte	0x73e
 1763 0734 18       		.uleb128 0x18
 1764 0735 01       		.byte	0x1
 1765 0736 50       		.byte	0x50
 1766 0737 05       		.byte	0x5
 1767 0738 03       		.byte	0x3
 1768 0739 28000000 		.4byte	.LC1
 1769 073d 00       		.byte	0
 1770 073e 17       		.uleb128 0x17
 1771 073f 54000000 		.4byte	.LVL15
 1772 0743 540A0000 		.4byte	0xa54
 1773 0747 52070000 		.4byte	0x752
 1774 074b 18       		.uleb128 0x18
 1775 074c 01       		.byte	0x1
 1776 074d 50       		.byte	0x50
 1777 074e 02       		.byte	0x2
 1778 074f 74       		.byte	0x74
 1779 0750 00       		.sleb128 0
 1780 0751 00       		.byte	0
 1781 0752 19       		.uleb128 0x19
 1782 0753 62000000 		.4byte	.LVL18
 1783 0757 060A0000 		.4byte	0xa06
 1784 075b 18       		.uleb128 0x18
 1785 075c 01       		.byte	0x1
 1786 075d 50       		.byte	0x50
 1787 075e 05       		.byte	0x5
 1788 075f 03       		.byte	0x3
 1789 0760 00000000 		.4byte	.LC0
 1790 0764 18       		.uleb128 0x18
 1791 0765 01       		.byte	0x1
 1792 0766 51       		.byte	0x51
 1793 0767 02       		.byte	0x2
 1794 0768 08       		.byte	0x8
 1795 0769 82       		.byte	0x82
 1796 076a 00       		.byte	0
 1797 076b 00       		.byte	0
 1798 076c 14       		.uleb128 0x14
 1799 076d 01       		.byte	0x1
 1800 076e A5010000 		.4byte	.LASF86
 1801 0772 01       		.byte	0x1
 1802 0773 32       		.byte	0x32
 1803 0774 01       		.byte	0x1
 1804 0775 62000000 		.4byte	0x62
 1805 0779 D8000000 		.4byte	.LFB13
 1806 077d BC010000 		.4byte	.LFE13
 1807 0781 4B020000 		.4byte	.LLST8
ARM GAS  G:\Users\Jaxb\AppData\Local\Temp\ccG52moA.s 			page 39


 1808 0785 01       		.byte	0x1
 1809 0786 C5080000 		.4byte	0x8c5
 1810 078a 15       		.uleb128 0x15
 1811 078b 0E010000 		.4byte	.LASF81
 1812 078f 01       		.byte	0x1
 1813 0790 32       		.byte	0x32
 1814 0791 A7050000 		.4byte	0x5a7
 1815 0795 D7020000 		.4byte	.LLST9
 1816 0799 16       		.uleb128 0x16
 1817 079a C9050000 		.4byte	.LASF82
 1818 079e 01       		.byte	0x1
 1819 079f 3C       		.byte	0x3c
 1820 07a0 7B030000 		.4byte	0x37b
 1821 07a4 4A030000 		.4byte	.LLST10
 1822 07a8 1C       		.uleb128 0x1c
 1823 07a9 00000000 		.4byte	.Ldebug_ranges0+0
 1824 07ad 75080000 		.4byte	0x875
 1825 07b1 1D       		.uleb128 0x1d
 1826 07b2 8C040000 		.4byte	.LASF87
 1827 07b6 01       		.byte	0x1
 1828 07b7 51       		.byte	0x51
 1829 07b8 B2000000 		.4byte	0xb2
 1830 07bc 02       		.byte	0x2
 1831 07bd 91       		.byte	0x91
 1832 07be 50       		.sleb128 -48
 1833 07bf 16       		.uleb128 0x16
 1834 07c0 95050000 		.4byte	.LASF77
 1835 07c4 01       		.byte	0x1
 1836 07c5 54       		.byte	0x54
 1837 07c6 41030000 		.4byte	0x341
 1838 07ca CC030000 		.4byte	.LLST11
 1839 07ce 17       		.uleb128 0x17
 1840 07cf 0E010000 		.4byte	.LVL38
 1841 07d3 610A0000 		.4byte	0xa61
 1842 07d7 E2070000 		.4byte	0x7e2
 1843 07db 18       		.uleb128 0x18
 1844 07dc 01       		.byte	0x1
 1845 07dd 50       		.byte	0x50
 1846 07de 02       		.byte	0x2
 1847 07df 7D       		.byte	0x7d
 1848 07e0 00       		.sleb128 0
 1849 07e1 00       		.byte	0
 1850 07e2 17       		.uleb128 0x17
 1851 07e3 16010000 		.4byte	.LVL39
 1852 07e7 6E0A0000 		.4byte	0xa6e
 1853 07eb FC070000 		.4byte	0x7fc
 1854 07ef 18       		.uleb128 0x18
 1855 07f0 01       		.byte	0x1
 1856 07f1 50       		.byte	0x50
 1857 07f2 02       		.byte	0x2
 1858 07f3 7D       		.byte	0x7d
 1859 07f4 00       		.sleb128 0
 1860 07f5 18       		.uleb128 0x18
 1861 07f6 01       		.byte	0x1
 1862 07f7 51       		.byte	0x51
 1863 07f8 02       		.byte	0x2
 1864 07f9 77       		.byte	0x77
ARM GAS  G:\Users\Jaxb\AppData\Local\Temp\ccG52moA.s 			page 40


 1865 07fa 00       		.sleb128 0
 1866 07fb 00       		.byte	0
 1867 07fc 17       		.uleb128 0x17
 1868 07fd 1C010000 		.4byte	.LVL40
 1869 0801 7B0A0000 		.4byte	0xa7b
 1870 0805 10080000 		.4byte	0x810
 1871 0809 18       		.uleb128 0x18
 1872 080a 01       		.byte	0x1
 1873 080b 50       		.byte	0x50
 1874 080c 02       		.byte	0x2
 1875 080d 77       		.byte	0x77
 1876 080e 00       		.sleb128 0
 1877 080f 00       		.byte	0
 1878 0810 1B       		.uleb128 0x1b
 1879 0811 34010000 		.4byte	.LVL42
 1880 0815 2D0A0000 		.4byte	0xa2d
 1881 0819 17       		.uleb128 0x17
 1882 081a 3A010000 		.4byte	.LVL43
 1883 081e 880A0000 		.4byte	0xa88
 1884 0822 2C080000 		.4byte	0x82c
 1885 0826 18       		.uleb128 0x18
 1886 0827 01       		.byte	0x1
 1887 0828 50       		.byte	0x50
 1888 0829 01       		.byte	0x1
 1889 082a 3A       		.byte	0x3a
 1890 082b 00       		.byte	0
 1891 082c 17       		.uleb128 0x17
 1892 082d 40010000 		.4byte	.LVL44
 1893 0831 540A0000 		.4byte	0xa54
 1894 0835 40080000 		.4byte	0x840
 1895 0839 18       		.uleb128 0x18
 1896 083a 01       		.byte	0x1
 1897 083b 50       		.byte	0x50
 1898 083c 02       		.byte	0x2
 1899 083d 76       		.byte	0x76
 1900 083e 00       		.sleb128 0
 1901 083f 00       		.byte	0
 1902 0840 1B       		.uleb128 0x1b
 1903 0841 44010000 		.4byte	.LVL45
 1904 0845 3A0A0000 		.4byte	0xa3a
 1905 0849 1B       		.uleb128 0x1b
 1906 084a 5A010000 		.4byte	.LVL47
 1907 084e 540A0000 		.4byte	0xa54
 1908 0852 1B       		.uleb128 0x1b
 1909 0853 68010000 		.4byte	.LVL51
 1910 0857 540A0000 		.4byte	0xa54
 1911 085b 19       		.uleb128 0x19
 1912 085c 76010000 		.4byte	.LVL54
 1913 0860 060A0000 		.4byte	0xa06
 1914 0864 18       		.uleb128 0x18
 1915 0865 01       		.byte	0x1
 1916 0866 50       		.byte	0x50
 1917 0867 05       		.byte	0x5
 1918 0868 03       		.byte	0x3
 1919 0869 00000000 		.4byte	.LC0
 1920 086d 18       		.uleb128 0x18
 1921 086e 01       		.byte	0x1
ARM GAS  G:\Users\Jaxb\AppData\Local\Temp\ccG52moA.s 			page 41


 1922 086f 51       		.byte	0x51
 1923 0870 02       		.byte	0x2
 1924 0871 08       		.byte	0x8
 1925 0872 4B       		.byte	0x4b
 1926 0873 00       		.byte	0
 1927 0874 00       		.byte	0
 1928 0875 1B       		.uleb128 0x1b
 1929 0876 E6000000 		.4byte	.LVL35
 1930 087a 3A0A0000 		.4byte	0xa3a
 1931 087e 17       		.uleb128 0x17
 1932 087f 80010000 		.4byte	.LVL57
 1933 0883 060A0000 		.4byte	0xa06
 1934 0887 9B080000 		.4byte	0x89b
 1935 088b 18       		.uleb128 0x18
 1936 088c 01       		.byte	0x1
 1937 088d 50       		.byte	0x50
 1938 088e 05       		.byte	0x5
 1939 088f 03       		.byte	0x3
 1940 0890 00000000 		.4byte	.LC0
 1941 0894 18       		.uleb128 0x18
 1942 0895 01       		.byte	0x1
 1943 0896 51       		.byte	0x51
 1944 0897 02       		.byte	0x2
 1945 0898 08       		.byte	0x8
 1946 0899 34       		.byte	0x34
 1947 089a 00       		.byte	0
 1948 089b 17       		.uleb128 0x17
 1949 089c 86010000 		.4byte	.LVL58
 1950 08a0 200A0000 		.4byte	0xa20
 1951 08a4 B2080000 		.4byte	0x8b2
 1952 08a8 18       		.uleb128 0x18
 1953 08a9 01       		.byte	0x1
 1954 08aa 50       		.byte	0x50
 1955 08ab 05       		.byte	0x5
 1956 08ac 03       		.byte	0x3
 1957 08ad 94000000 		.4byte	.LC3
 1958 08b1 00       		.byte	0
 1959 08b2 1B       		.uleb128 0x1b
 1960 08b3 9C010000 		.4byte	.LVL60
 1961 08b7 540A0000 		.4byte	0xa54
 1962 08bb 1B       		.uleb128 0x1b
 1963 08bc A6010000 		.4byte	.LVL62
 1964 08c0 540A0000 		.4byte	0xa54
 1965 08c4 00       		.byte	0
 1966 08c5 14       		.uleb128 0x14
 1967 08c6 01       		.byte	0x1
 1968 08c7 B0010000 		.4byte	.LASF88
 1969 08cb 01       		.byte	0x1
 1970 08cc 14       		.byte	0x14
 1971 08cd 01       		.byte	0x1
 1972 08ce 62000000 		.4byte	0x62
 1973 08d2 70000000 		.4byte	.LFB12
 1974 08d6 D8000000 		.4byte	.LFE12
 1975 08da E0030000 		.4byte	.LLST5
 1976 08de 01       		.byte	0x1
 1977 08df 87090000 		.4byte	0x987
 1978 08e3 15       		.uleb128 0x15
ARM GAS  G:\Users\Jaxb\AppData\Local\Temp\ccG52moA.s 			page 42


 1979 08e4 0E010000 		.4byte	.LASF81
 1980 08e8 01       		.byte	0x1
 1981 08e9 14       		.byte	0x14
 1982 08ea A7050000 		.4byte	0x5a7
 1983 08ee 00040000 		.4byte	.LLST6
 1984 08f2 16       		.uleb128 0x16
 1985 08f3 C9050000 		.4byte	.LASF82
 1986 08f7 01       		.byte	0x1
 1987 08f8 1E       		.byte	0x1e
 1988 08f9 7B030000 		.4byte	0x37b
 1989 08fd 42040000 		.4byte	.LLST7
 1990 0901 1B       		.uleb128 0x1b
 1991 0902 7A000000 		.4byte	.LVL21
 1992 0906 3A0A0000 		.4byte	0xa3a
 1993 090a 17       		.uleb128 0x17
 1994 090b 9A000000 		.4byte	.LVL24
 1995 090f 950A0000 		.4byte	0xa95
 1996 0913 36090000 		.4byte	0x936
 1997 0917 18       		.uleb128 0x18
 1998 0918 01       		.byte	0x1
 1999 0919 50       		.byte	0x50
 2000 091a 02       		.byte	0x2
 2001 091b 75       		.byte	0x75
 2002 091c 08       		.sleb128 8
 2003 091d 18       		.uleb128 0x18
 2004 091e 01       		.byte	0x1
 2005 091f 51       		.byte	0x51
 2006 0920 05       		.byte	0x5
 2007 0921 03       		.byte	0x3
 2008 0922 00000000 		.4byte	compare
 2009 0926 18       		.uleb128 0x18
 2010 0927 01       		.byte	0x1
 2011 0928 52       		.byte	0x52
 2012 0929 02       		.byte	0x2
 2013 092a 74       		.byte	0x74
 2014 092b 00       		.sleb128 0
 2015 092c 18       		.uleb128 0x18
 2016 092d 01       		.byte	0x1
 2017 092e 53       		.byte	0x53
 2018 092f 05       		.byte	0x5
 2019 0930 03       		.byte	0x3
 2020 0931 00000000 		.4byte	value_cmp
 2021 0935 00       		.byte	0
 2022 0936 17       		.uleb128 0x17
 2023 0937 A0000000 		.4byte	.LVL25
 2024 093b 540A0000 		.4byte	0xa54
 2025 093f 4A090000 		.4byte	0x94a
 2026 0943 18       		.uleb128 0x18
 2027 0944 01       		.byte	0x1
 2028 0945 50       		.byte	0x50
 2029 0946 02       		.byte	0x2
 2030 0947 76       		.byte	0x76
 2031 0948 00       		.sleb128 0
 2032 0949 00       		.byte	0
 2033 094a 17       		.uleb128 0x17
 2034 094b AC000000 		.4byte	.LVL28
 2035 094f 060A0000 		.4byte	0xa06
ARM GAS  G:\Users\Jaxb\AppData\Local\Temp\ccG52moA.s 			page 43


 2036 0953 66090000 		.4byte	0x966
 2037 0957 18       		.uleb128 0x18
 2038 0958 01       		.byte	0x1
 2039 0959 50       		.byte	0x50
 2040 095a 05       		.byte	0x5
 2041 095b 03       		.byte	0x3
 2042 095c 00000000 		.4byte	.LC0
 2043 0960 18       		.uleb128 0x18
 2044 0961 01       		.byte	0x1
 2045 0962 51       		.byte	0x51
 2046 0963 01       		.byte	0x1
 2047 0964 46       		.byte	0x46
 2048 0965 00       		.byte	0
 2049 0966 17       		.uleb128 0x17
 2050 0967 B2000000 		.4byte	.LVL29
 2051 096b 200A0000 		.4byte	0xa20
 2052 096f 7D090000 		.4byte	0x97d
 2053 0973 18       		.uleb128 0x18
 2054 0974 01       		.byte	0x1
 2055 0975 50       		.byte	0x50
 2056 0976 05       		.byte	0x5
 2057 0977 03       		.byte	0x3
 2058 0978 60000000 		.4byte	.LC2
 2059 097c 00       		.byte	0
 2060 097d 1B       		.uleb128 0x1b
 2061 097e BC000000 		.4byte	.LVL31
 2062 0982 540A0000 		.4byte	0xa54
 2063 0986 00       		.byte	0
 2064 0987 1E       		.uleb128 0x1e
 2065 0988 D0030000 		.4byte	.LASF22
 2066 098c 01       		.byte	0x1
 2067 098d 0F       		.byte	0xf
 2068 098e 01       		.byte	0x1
 2069 098f 62000000 		.4byte	0x62
 2070 0993 0C000000 		.4byte	.LFB11
 2071 0997 14000000 		.4byte	.LFE11
 2072 099b 02       		.byte	0x2
 2073 099c 7D       		.byte	0x7d
 2074 099d 00       		.sleb128 0
 2075 099e 01       		.byte	0x1
 2076 099f C0090000 		.4byte	0x9c0
 2077 09a3 15       		.uleb128 0x15
 2078 09a4 BD020000 		.4byte	.LASF89
 2079 09a8 01       		.byte	0x1
 2080 09a9 0F       		.byte	0xf
 2081 09aa E9000000 		.4byte	0xe9
 2082 09ae 82040000 		.4byte	.LLST1
 2083 09b2 1F       		.uleb128 0x1f
 2084 09b3 A5060000 		.4byte	.LASF90
 2085 09b7 01       		.byte	0x1
 2086 09b8 0F       		.byte	0xf
 2087 09b9 E9000000 		.4byte	0xe9
 2088 09bd 01       		.byte	0x1
 2089 09be 51       		.byte	0x51
 2090 09bf 00       		.byte	0
 2091 09c0 1E       		.uleb128 0x1e
 2092 09c1 5A050000 		.4byte	.LASF20
ARM GAS  G:\Users\Jaxb\AppData\Local\Temp\ccG52moA.s 			page 44


 2093 09c5 01       		.byte	0x1
 2094 09c6 0A       		.byte	0xa
 2095 09c7 01       		.byte	0x1
 2096 09c8 62000000 		.4byte	0x62
 2097 09cc 00000000 		.4byte	.LFB10
 2098 09d0 0C000000 		.4byte	.LFE10
 2099 09d4 02       		.byte	0x2
 2100 09d5 7D       		.byte	0x7d
 2101 09d6 00       		.sleb128 0
 2102 09d7 01       		.byte	0x1
 2103 09d8 F9090000 		.4byte	0x9f9
 2104 09dc 15       		.uleb128 0x15
 2105 09dd BD020000 		.4byte	.LASF89
 2106 09e1 01       		.byte	0x1
 2107 09e2 0A       		.byte	0xa
 2108 09e3 53010000 		.4byte	0x153
 2109 09e7 A3040000 		.4byte	.LLST0
 2110 09eb 1F       		.uleb128 0x1f
 2111 09ec A5060000 		.4byte	.LASF90
 2112 09f0 01       		.byte	0x1
 2113 09f1 0A       		.byte	0xa
 2114 09f2 53010000 		.4byte	0x153
 2115 09f6 01       		.byte	0x1
 2116 09f7 51       		.byte	0x51
 2117 09f8 00       		.byte	0
 2118 09f9 20       		.uleb128 0x20
 2119 09fa 01       		.byte	0x1
 2120 09fb 01       		.byte	0x1
 2121 09fc 04050000 		.4byte	.LASF91
 2122 0a00 04050000 		.4byte	.LASF91
 2123 0a04 04       		.byte	0x4
 2124 0a05 3B       		.byte	0x3b
 2125 0a06 20       		.uleb128 0x20
 2126 0a07 01       		.byte	0x1
 2127 0a08 01       		.byte	0x1
 2128 0a09 FE020000 		.4byte	.LASF92
 2129 0a0d FE020000 		.4byte	.LASF92
 2130 0a11 0A       		.byte	0xa
 2131 0a12 06       		.byte	0x6
 2132 0a13 20       		.uleb128 0x20
 2133 0a14 01       		.byte	0x1
 2134 0a15 01       		.byte	0x1
 2135 0a16 DC010000 		.4byte	.LASF93
 2136 0a1a DC010000 		.4byte	.LASF93
 2137 0a1e 0B       		.byte	0xb
 2138 0a1f 08       		.byte	0x8
 2139 0a20 20       		.uleb128 0x20
 2140 0a21 01       		.byte	0x1
 2141 0a22 01       		.byte	0x1
 2142 0a23 C3020000 		.4byte	.LASF94
 2143 0a27 C3020000 		.4byte	.LASF94
 2144 0a2b 0C       		.byte	0xc
 2145 0a2c 0C       		.byte	0xc
 2146 0a2d 20       		.uleb128 0x20
 2147 0a2e 01       		.byte	0x1
 2148 0a2f 01       		.byte	0x1
 2149 0a30 09040000 		.4byte	.LASF95
ARM GAS  G:\Users\Jaxb\AppData\Local\Temp\ccG52moA.s 			page 45


 2150 0a34 09040000 		.4byte	.LASF95
 2151 0a38 06       		.byte	0x6
 2152 0a39 54       		.byte	0x54
 2153 0a3a 20       		.uleb128 0x20
 2154 0a3b 01       		.byte	0x1
 2155 0a3c 01       		.byte	0x1
 2156 0a3d 12030000 		.4byte	.LASF96
 2157 0a41 12030000 		.4byte	.LASF96
 2158 0a45 08       		.byte	0x8
 2159 0a46 35       		.byte	0x35
 2160 0a47 20       		.uleb128 0x20
 2161 0a48 01       		.byte	0x1
 2162 0a49 01       		.byte	0x1
 2163 0a4a 89030000 		.4byte	.LASF97
 2164 0a4e 89030000 		.4byte	.LASF97
 2165 0a52 0D       		.byte	0xd
 2166 0a53 18       		.byte	0x18
 2167 0a54 20       		.uleb128 0x20
 2168 0a55 01       		.byte	0x1
 2169 0a56 01       		.byte	0x1
 2170 0a57 E7000000 		.4byte	.LASF98
 2171 0a5b E7000000 		.4byte	.LASF98
 2172 0a5f 08       		.byte	0x8
 2173 0a60 36       		.byte	0x36
 2174 0a61 20       		.uleb128 0x20
 2175 0a62 01       		.byte	0x1
 2176 0a63 01       		.byte	0x1
 2177 0a64 C8060000 		.4byte	.LASF99
 2178 0a68 C8060000 		.4byte	.LASF99
 2179 0a6c 04       		.byte	0x4
 2180 0a6d 16       		.byte	0x16
 2181 0a6e 20       		.uleb128 0x20
 2182 0a6f 01       		.byte	0x1
 2183 0a70 01       		.byte	0x1
 2184 0a71 EC040000 		.4byte	.LASF100
 2185 0a75 EC040000 		.4byte	.LASF100
 2186 0a79 04       		.byte	0x4
 2187 0a7a 38       		.byte	0x38
 2188 0a7b 20       		.uleb128 0x20
 2189 0a7c 01       		.byte	0x1
 2190 0a7d 01       		.byte	0x1
 2191 0a7e 75000000 		.4byte	.LASF101
 2192 0a82 75000000 		.4byte	.LASF101
 2193 0a86 04       		.byte	0x4
 2194 0a87 40       		.byte	0x40
 2195 0a88 20       		.uleb128 0x20
 2196 0a89 01       		.byte	0x1
 2197 0a8a 01       		.byte	0x1
 2198 0a8b D8020000 		.4byte	.LASF102
 2199 0a8f D8020000 		.4byte	.LASF102
 2200 0a93 0D       		.byte	0xd
 2201 0a94 16       		.byte	0x16
 2202 0a95 20       		.uleb128 0x20
 2203 0a96 01       		.byte	0x1
 2204 0a97 01       		.byte	0x1
 2205 0a98 87010000 		.4byte	.LASF103
 2206 0a9c 87010000 		.4byte	.LASF103
ARM GAS  G:\Users\Jaxb\AppData\Local\Temp\ccG52moA.s 			page 46


 2207 0aa0 04       		.byte	0x4
 2208 0aa1 31       		.byte	0x31
 2209 0aa2 00       		.byte	0
 2210              		.section	.debug_abbrev,"",%progbits
 2211              	.Ldebug_abbrev0:
 2212 0000 01       		.uleb128 0x1
 2213 0001 11       		.uleb128 0x11
 2214 0002 01       		.byte	0x1
 2215 0003 25       		.uleb128 0x25
 2216 0004 0E       		.uleb128 0xe
 2217 0005 13       		.uleb128 0x13
 2218 0006 0B       		.uleb128 0xb
 2219 0007 03       		.uleb128 0x3
 2220 0008 0E       		.uleb128 0xe
 2221 0009 1B       		.uleb128 0x1b
 2222 000a 0E       		.uleb128 0xe
 2223 000b 11       		.uleb128 0x11
 2224 000c 01       		.uleb128 0x1
 2225 000d 12       		.uleb128 0x12
 2226 000e 01       		.uleb128 0x1
 2227 000f 10       		.uleb128 0x10
 2228 0010 06       		.uleb128 0x6
 2229 0011 00       		.byte	0
 2230 0012 00       		.byte	0
 2231 0013 02       		.uleb128 0x2
 2232 0014 13       		.uleb128 0x13
 2233 0015 01       		.byte	0x1
 2234 0016 03       		.uleb128 0x3
 2235 0017 0E       		.uleb128 0xe
 2236 0018 0B       		.uleb128 0xb
 2237 0019 0B       		.uleb128 0xb
 2238 001a 3A       		.uleb128 0x3a
 2239 001b 0B       		.uleb128 0xb
 2240 001c 3B       		.uleb128 0x3b
 2241 001d 0B       		.uleb128 0xb
 2242 001e 01       		.uleb128 0x1
 2243 001f 13       		.uleb128 0x13
 2244 0020 00       		.byte	0
 2245 0021 00       		.byte	0
 2246 0022 03       		.uleb128 0x3
 2247 0023 0D       		.uleb128 0xd
 2248 0024 00       		.byte	0
 2249 0025 03       		.uleb128 0x3
 2250 0026 0E       		.uleb128 0xe
 2251 0027 3A       		.uleb128 0x3a
 2252 0028 0B       		.uleb128 0xb
 2253 0029 3B       		.uleb128 0x3b
 2254 002a 0B       		.uleb128 0xb
 2255 002b 49       		.uleb128 0x49
 2256 002c 13       		.uleb128 0x13
 2257 002d 38       		.uleb128 0x38
 2258 002e 0A       		.uleb128 0xa
 2259 002f 00       		.byte	0
 2260 0030 00       		.byte	0
 2261 0031 04       		.uleb128 0x4
 2262 0032 0F       		.uleb128 0xf
 2263 0033 00       		.byte	0
ARM GAS  G:\Users\Jaxb\AppData\Local\Temp\ccG52moA.s 			page 47


 2264 0034 0B       		.uleb128 0xb
 2265 0035 0B       		.uleb128 0xb
 2266 0036 49       		.uleb128 0x49
 2267 0037 13       		.uleb128 0x13
 2268 0038 00       		.byte	0
 2269 0039 00       		.byte	0
 2270 003a 05       		.uleb128 0x5
 2271 003b 24       		.uleb128 0x24
 2272 003c 00       		.byte	0
 2273 003d 0B       		.uleb128 0xb
 2274 003e 0B       		.uleb128 0xb
 2275 003f 3E       		.uleb128 0x3e
 2276 0040 0B       		.uleb128 0xb
 2277 0041 03       		.uleb128 0x3
 2278 0042 0E       		.uleb128 0xe
 2279 0043 00       		.byte	0
 2280 0044 00       		.byte	0
 2281 0045 06       		.uleb128 0x6
 2282 0046 24       		.uleb128 0x24
 2283 0047 00       		.byte	0
 2284 0048 0B       		.uleb128 0xb
 2285 0049 0B       		.uleb128 0xb
 2286 004a 3E       		.uleb128 0x3e
 2287 004b 0B       		.uleb128 0xb
 2288 004c 03       		.uleb128 0x3
 2289 004d 08       		.uleb128 0x8
 2290 004e 00       		.byte	0
 2291 004f 00       		.byte	0
 2292 0050 07       		.uleb128 0x7
 2293 0051 35       		.uleb128 0x35
 2294 0052 00       		.byte	0
 2295 0053 49       		.uleb128 0x49
 2296 0054 13       		.uleb128 0x13
 2297 0055 00       		.byte	0
 2298 0056 00       		.byte	0
 2299 0057 08       		.uleb128 0x8
 2300 0058 16       		.uleb128 0x16
 2301 0059 00       		.byte	0
 2302 005a 03       		.uleb128 0x3
 2303 005b 0E       		.uleb128 0xe
 2304 005c 3A       		.uleb128 0x3a
 2305 005d 0B       		.uleb128 0xb
 2306 005e 3B       		.uleb128 0x3b
 2307 005f 0B       		.uleb128 0xb
 2308 0060 49       		.uleb128 0x49
 2309 0061 13       		.uleb128 0x13
 2310 0062 00       		.byte	0
 2311 0063 00       		.byte	0
 2312 0064 09       		.uleb128 0x9
 2313 0065 0F       		.uleb128 0xf
 2314 0066 00       		.byte	0
 2315 0067 0B       		.uleb128 0xb
 2316 0068 0B       		.uleb128 0xb
 2317 0069 00       		.byte	0
 2318 006a 00       		.byte	0
 2319 006b 0A       		.uleb128 0xa
 2320 006c 15       		.uleb128 0x15
ARM GAS  G:\Users\Jaxb\AppData\Local\Temp\ccG52moA.s 			page 48


 2321 006d 01       		.byte	0x1
 2322 006e 27       		.uleb128 0x27
 2323 006f 0C       		.uleb128 0xc
 2324 0070 49       		.uleb128 0x49
 2325 0071 13       		.uleb128 0x13
 2326 0072 01       		.uleb128 0x1
 2327 0073 13       		.uleb128 0x13
 2328 0074 00       		.byte	0
 2329 0075 00       		.byte	0
 2330 0076 0B       		.uleb128 0xb
 2331 0077 05       		.uleb128 0x5
 2332 0078 00       		.byte	0
 2333 0079 49       		.uleb128 0x49
 2334 007a 13       		.uleb128 0x13
 2335 007b 00       		.byte	0
 2336 007c 00       		.byte	0
 2337 007d 0C       		.uleb128 0xc
 2338 007e 04       		.uleb128 0x4
 2339 007f 01       		.byte	0x1
 2340 0080 03       		.uleb128 0x3
 2341 0081 0E       		.uleb128 0xe
 2342 0082 3E       		.uleb128 0x3e
 2343 0083 0B       		.uleb128 0xb
 2344 0084 0B       		.uleb128 0xb
 2345 0085 0B       		.uleb128 0xb
 2346 0086 49       		.uleb128 0x49
 2347 0087 13       		.uleb128 0x13
 2348 0088 3A       		.uleb128 0x3a
 2349 0089 0B       		.uleb128 0xb
 2350 008a 3B       		.uleb128 0x3b
 2351 008b 0B       		.uleb128 0xb
 2352 008c 01       		.uleb128 0x1
 2353 008d 13       		.uleb128 0x13
 2354 008e 00       		.byte	0
 2355 008f 00       		.byte	0
 2356 0090 0D       		.uleb128 0xd
 2357 0091 28       		.uleb128 0x28
 2358 0092 00       		.byte	0
 2359 0093 03       		.uleb128 0x3
 2360 0094 0E       		.uleb128 0xe
 2361 0095 1C       		.uleb128 0x1c
 2362 0096 0B       		.uleb128 0xb
 2363 0097 00       		.byte	0
 2364 0098 00       		.byte	0
 2365 0099 0E       		.uleb128 0xe
 2366 009a 34       		.uleb128 0x34
 2367 009b 00       		.byte	0
 2368 009c 03       		.uleb128 0x3
 2369 009d 0E       		.uleb128 0xe
 2370 009e 3A       		.uleb128 0x3a
 2371 009f 0B       		.uleb128 0xb
 2372 00a0 3B       		.uleb128 0x3b
 2373 00a1 0B       		.uleb128 0xb
 2374 00a2 49       		.uleb128 0x49
 2375 00a3 13       		.uleb128 0x13
 2376 00a4 3F       		.uleb128 0x3f
 2377 00a5 0C       		.uleb128 0xc
ARM GAS  G:\Users\Jaxb\AppData\Local\Temp\ccG52moA.s 			page 49


 2378 00a6 3C       		.uleb128 0x3c
 2379 00a7 0C       		.uleb128 0xc
 2380 00a8 00       		.byte	0
 2381 00a9 00       		.byte	0
 2382 00aa 0F       		.uleb128 0xf
 2383 00ab 26       		.uleb128 0x26
 2384 00ac 00       		.byte	0
 2385 00ad 49       		.uleb128 0x49
 2386 00ae 13       		.uleb128 0x13
 2387 00af 00       		.byte	0
 2388 00b0 00       		.byte	0
 2389 00b1 10       		.uleb128 0x10
 2390 00b2 16       		.uleb128 0x16
 2391 00b3 00       		.byte	0
 2392 00b4 03       		.uleb128 0x3
 2393 00b5 08       		.uleb128 0x8
 2394 00b6 3A       		.uleb128 0x3a
 2395 00b7 0B       		.uleb128 0xb
 2396 00b8 3B       		.uleb128 0x3b
 2397 00b9 0B       		.uleb128 0xb
 2398 00ba 49       		.uleb128 0x49
 2399 00bb 13       		.uleb128 0x13
 2400 00bc 00       		.byte	0
 2401 00bd 00       		.byte	0
 2402 00be 11       		.uleb128 0x11
 2403 00bf 01       		.uleb128 0x1
 2404 00c0 01       		.byte	0x1
 2405 00c1 49       		.uleb128 0x49
 2406 00c2 13       		.uleb128 0x13
 2407 00c3 01       		.uleb128 0x1
 2408 00c4 13       		.uleb128 0x13
 2409 00c5 00       		.byte	0
 2410 00c6 00       		.byte	0
 2411 00c7 12       		.uleb128 0x12
 2412 00c8 21       		.uleb128 0x21
 2413 00c9 00       		.byte	0
 2414 00ca 49       		.uleb128 0x49
 2415 00cb 13       		.uleb128 0x13
 2416 00cc 2F       		.uleb128 0x2f
 2417 00cd 0B       		.uleb128 0xb
 2418 00ce 00       		.byte	0
 2419 00cf 00       		.byte	0
 2420 00d0 13       		.uleb128 0x13
 2421 00d1 34       		.uleb128 0x34
 2422 00d2 00       		.byte	0
 2423 00d3 03       		.uleb128 0x3
 2424 00d4 0E       		.uleb128 0xe
 2425 00d5 3A       		.uleb128 0x3a
 2426 00d6 0B       		.uleb128 0xb
 2427 00d7 3B       		.uleb128 0x3b
 2428 00d8 0B       		.uleb128 0xb
 2429 00d9 49       		.uleb128 0x49
 2430 00da 13       		.uleb128 0x13
 2431 00db 3F       		.uleb128 0x3f
 2432 00dc 0C       		.uleb128 0xc
 2433 00dd 02       		.uleb128 0x2
 2434 00de 0A       		.uleb128 0xa
ARM GAS  G:\Users\Jaxb\AppData\Local\Temp\ccG52moA.s 			page 50


 2435 00df 00       		.byte	0
 2436 00e0 00       		.byte	0
 2437 00e1 14       		.uleb128 0x14
 2438 00e2 2E       		.uleb128 0x2e
 2439 00e3 01       		.byte	0x1
 2440 00e4 3F       		.uleb128 0x3f
 2441 00e5 0C       		.uleb128 0xc
 2442 00e6 03       		.uleb128 0x3
 2443 00e7 0E       		.uleb128 0xe
 2444 00e8 3A       		.uleb128 0x3a
 2445 00e9 0B       		.uleb128 0xb
 2446 00ea 3B       		.uleb128 0x3b
 2447 00eb 0B       		.uleb128 0xb
 2448 00ec 27       		.uleb128 0x27
 2449 00ed 0C       		.uleb128 0xc
 2450 00ee 49       		.uleb128 0x49
 2451 00ef 13       		.uleb128 0x13
 2452 00f0 11       		.uleb128 0x11
 2453 00f1 01       		.uleb128 0x1
 2454 00f2 12       		.uleb128 0x12
 2455 00f3 01       		.uleb128 0x1
 2456 00f4 40       		.uleb128 0x40
 2457 00f5 06       		.uleb128 0x6
 2458 00f6 9742     		.uleb128 0x2117
 2459 00f8 0C       		.uleb128 0xc
 2460 00f9 01       		.uleb128 0x1
 2461 00fa 13       		.uleb128 0x13
 2462 00fb 00       		.byte	0
 2463 00fc 00       		.byte	0
 2464 00fd 15       		.uleb128 0x15
 2465 00fe 05       		.uleb128 0x5
 2466 00ff 00       		.byte	0
 2467 0100 03       		.uleb128 0x3
 2468 0101 0E       		.uleb128 0xe
 2469 0102 3A       		.uleb128 0x3a
 2470 0103 0B       		.uleb128 0xb
 2471 0104 3B       		.uleb128 0x3b
 2472 0105 0B       		.uleb128 0xb
 2473 0106 49       		.uleb128 0x49
 2474 0107 13       		.uleb128 0x13
 2475 0108 02       		.uleb128 0x2
 2476 0109 06       		.uleb128 0x6
 2477 010a 00       		.byte	0
 2478 010b 00       		.byte	0
 2479 010c 16       		.uleb128 0x16
 2480 010d 34       		.uleb128 0x34
 2481 010e 00       		.byte	0
 2482 010f 03       		.uleb128 0x3
 2483 0110 0E       		.uleb128 0xe
 2484 0111 3A       		.uleb128 0x3a
 2485 0112 0B       		.uleb128 0xb
 2486 0113 3B       		.uleb128 0x3b
 2487 0114 0B       		.uleb128 0xb
 2488 0115 49       		.uleb128 0x49
 2489 0116 13       		.uleb128 0x13
 2490 0117 02       		.uleb128 0x2
 2491 0118 06       		.uleb128 0x6
ARM GAS  G:\Users\Jaxb\AppData\Local\Temp\ccG52moA.s 			page 51


 2492 0119 00       		.byte	0
 2493 011a 00       		.byte	0
 2494 011b 17       		.uleb128 0x17
 2495 011c 898201   		.uleb128 0x4109
 2496 011f 01       		.byte	0x1
 2497 0120 11       		.uleb128 0x11
 2498 0121 01       		.uleb128 0x1
 2499 0122 31       		.uleb128 0x31
 2500 0123 13       		.uleb128 0x13
 2501 0124 01       		.uleb128 0x1
 2502 0125 13       		.uleb128 0x13
 2503 0126 00       		.byte	0
 2504 0127 00       		.byte	0
 2505 0128 18       		.uleb128 0x18
 2506 0129 8A8201   		.uleb128 0x410a
 2507 012c 00       		.byte	0
 2508 012d 02       		.uleb128 0x2
 2509 012e 0A       		.uleb128 0xa
 2510 012f 9142     		.uleb128 0x2111
 2511 0131 0A       		.uleb128 0xa
 2512 0132 00       		.byte	0
 2513 0133 00       		.byte	0
 2514 0134 19       		.uleb128 0x19
 2515 0135 898201   		.uleb128 0x4109
 2516 0138 01       		.byte	0x1
 2517 0139 11       		.uleb128 0x11
 2518 013a 01       		.uleb128 0x1
 2519 013b 31       		.uleb128 0x31
 2520 013c 13       		.uleb128 0x13
 2521 013d 00       		.byte	0
 2522 013e 00       		.byte	0
 2523 013f 1A       		.uleb128 0x1a
 2524 0140 0B       		.uleb128 0xb
 2525 0141 01       		.byte	0x1
 2526 0142 11       		.uleb128 0x11
 2527 0143 01       		.uleb128 0x1
 2528 0144 12       		.uleb128 0x12
 2529 0145 01       		.uleb128 0x1
 2530 0146 01       		.uleb128 0x1
 2531 0147 13       		.uleb128 0x13
 2532 0148 00       		.byte	0
 2533 0149 00       		.byte	0
 2534 014a 1B       		.uleb128 0x1b
 2535 014b 898201   		.uleb128 0x4109
 2536 014e 00       		.byte	0
 2537 014f 11       		.uleb128 0x11
 2538 0150 01       		.uleb128 0x1
 2539 0151 31       		.uleb128 0x31
 2540 0152 13       		.uleb128 0x13
 2541 0153 00       		.byte	0
 2542 0154 00       		.byte	0
 2543 0155 1C       		.uleb128 0x1c
 2544 0156 0B       		.uleb128 0xb
 2545 0157 01       		.byte	0x1
 2546 0158 55       		.uleb128 0x55
 2547 0159 06       		.uleb128 0x6
 2548 015a 01       		.uleb128 0x1
ARM GAS  G:\Users\Jaxb\AppData\Local\Temp\ccG52moA.s 			page 52


 2549 015b 13       		.uleb128 0x13
 2550 015c 00       		.byte	0
 2551 015d 00       		.byte	0
 2552 015e 1D       		.uleb128 0x1d
 2553 015f 34       		.uleb128 0x34
 2554 0160 00       		.byte	0
 2555 0161 03       		.uleb128 0x3
 2556 0162 0E       		.uleb128 0xe
 2557 0163 3A       		.uleb128 0x3a
 2558 0164 0B       		.uleb128 0xb
 2559 0165 3B       		.uleb128 0x3b
 2560 0166 0B       		.uleb128 0xb
 2561 0167 49       		.uleb128 0x49
 2562 0168 13       		.uleb128 0x13
 2563 0169 02       		.uleb128 0x2
 2564 016a 0A       		.uleb128 0xa
 2565 016b 00       		.byte	0
 2566 016c 00       		.byte	0
 2567 016d 1E       		.uleb128 0x1e
 2568 016e 2E       		.uleb128 0x2e
 2569 016f 01       		.byte	0x1
 2570 0170 03       		.uleb128 0x3
 2571 0171 0E       		.uleb128 0xe
 2572 0172 3A       		.uleb128 0x3a
 2573 0173 0B       		.uleb128 0xb
 2574 0174 3B       		.uleb128 0x3b
 2575 0175 0B       		.uleb128 0xb
 2576 0176 27       		.uleb128 0x27
 2577 0177 0C       		.uleb128 0xc
 2578 0178 49       		.uleb128 0x49
 2579 0179 13       		.uleb128 0x13
 2580 017a 11       		.uleb128 0x11
 2581 017b 01       		.uleb128 0x1
 2582 017c 12       		.uleb128 0x12
 2583 017d 01       		.uleb128 0x1
 2584 017e 40       		.uleb128 0x40
 2585 017f 0A       		.uleb128 0xa
 2586 0180 9742     		.uleb128 0x2117
 2587 0182 0C       		.uleb128 0xc
 2588 0183 01       		.uleb128 0x1
 2589 0184 13       		.uleb128 0x13
 2590 0185 00       		.byte	0
 2591 0186 00       		.byte	0
 2592 0187 1F       		.uleb128 0x1f
 2593 0188 05       		.uleb128 0x5
 2594 0189 00       		.byte	0
 2595 018a 03       		.uleb128 0x3
 2596 018b 0E       		.uleb128 0xe
 2597 018c 3A       		.uleb128 0x3a
 2598 018d 0B       		.uleb128 0xb
 2599 018e 3B       		.uleb128 0x3b
 2600 018f 0B       		.uleb128 0xb
 2601 0190 49       		.uleb128 0x49
 2602 0191 13       		.uleb128 0x13
 2603 0192 02       		.uleb128 0x2
 2604 0193 0A       		.uleb128 0xa
 2605 0194 00       		.byte	0
ARM GAS  G:\Users\Jaxb\AppData\Local\Temp\ccG52moA.s 			page 53


 2606 0195 00       		.byte	0
 2607 0196 20       		.uleb128 0x20
 2608 0197 2E       		.uleb128 0x2e
 2609 0198 00       		.byte	0
 2610 0199 3F       		.uleb128 0x3f
 2611 019a 0C       		.uleb128 0xc
 2612 019b 3C       		.uleb128 0x3c
 2613 019c 0C       		.uleb128 0xc
 2614 019d 8740     		.uleb128 0x2007
 2615 019f 0E       		.uleb128 0xe
 2616 01a0 03       		.uleb128 0x3
 2617 01a1 0E       		.uleb128 0xe
 2618 01a2 3A       		.uleb128 0x3a
 2619 01a3 0B       		.uleb128 0xb
 2620 01a4 3B       		.uleb128 0x3b
 2621 01a5 0B       		.uleb128 0xb
 2622 01a6 00       		.byte	0
 2623 01a7 00       		.byte	0
 2624 01a8 00       		.byte	0
 2625              		.section	.debug_loc,"",%progbits
 2626              	.Ldebug_loc0:
 2627              	.LLST12:
 2628 0000 BC010000 		.4byte	.LFB16-.Ltext0
 2629 0004 BE010000 		.4byte	.LCFI12-.Ltext0
 2630 0008 0200     		.2byte	0x2
 2631 000a 7D       		.byte	0x7d
 2632 000b 00       		.sleb128 0
 2633 000c BE010000 		.4byte	.LCFI12-.Ltext0
 2634 0010 18020000 		.4byte	.LFE16-.Ltext0
 2635 0014 0200     		.2byte	0x2
 2636 0016 7D       		.byte	0x7d
 2637 0017 10       		.sleb128 16
 2638 0018 00000000 		.4byte	0
 2639 001c 00000000 		.4byte	0
 2640              	.LLST13:
 2641 0020 BC010000 		.4byte	.LVL63-.Ltext0
 2642 0024 C6010000 		.4byte	.LVL64-.Ltext0
 2643 0028 0100     		.2byte	0x1
 2644 002a 50       		.byte	0x50
 2645 002b C6010000 		.4byte	.LVL64-.Ltext0
 2646 002f C9010000 		.4byte	.LVL65-1-.Ltext0
 2647 0033 0300     		.2byte	0x3
 2648 0035 70       		.byte	0x70
 2649 0036 78       		.sleb128 -8
 2650 0037 9F       		.byte	0x9f
 2651 0038 C9010000 		.4byte	.LVL65-1-.Ltext0
 2652 003c FA010000 		.4byte	.LVL73-.Ltext0
 2653 0040 0300     		.2byte	0x3
 2654 0042 75       		.byte	0x75
 2655 0043 78       		.sleb128 -8
 2656 0044 9F       		.byte	0x9f
 2657 0045 FA010000 		.4byte	.LVL73-.Ltext0
 2658 0049 FE010000 		.4byte	.LVL74-.Ltext0
 2659 004d 0100     		.2byte	0x1
 2660 004f 50       		.byte	0x50
 2661 0050 FE010000 		.4byte	.LVL74-.Ltext0
 2662 0054 18020000 		.4byte	.LFE16-.Ltext0
ARM GAS  G:\Users\Jaxb\AppData\Local\Temp\ccG52moA.s 			page 54


 2663 0058 0400     		.2byte	0x4
 2664 005a F3       		.byte	0xf3
 2665 005b 01       		.uleb128 0x1
 2666 005c 50       		.byte	0x50
 2667 005d 9F       		.byte	0x9f
 2668 005e 00000000 		.4byte	0
 2669 0062 00000000 		.4byte	0
 2670              	.LLST14:
 2671 0066 D0010000 		.4byte	.LVL66-.Ltext0
 2672 006a F6010000 		.4byte	.LVL71-.Ltext0
 2673 006e 0100     		.2byte	0x1
 2674 0070 54       		.byte	0x54
 2675 0071 00000000 		.4byte	0
 2676 0075 00000000 		.4byte	0
 2677              	.LLST15:
 2678 0079 CA010000 		.4byte	.LVL65-.Ltext0
 2679 007d DA010000 		.4byte	.LVL67-.Ltext0
 2680 0081 0100     		.2byte	0x1
 2681 0083 50       		.byte	0x50
 2682 0084 F2010000 		.4byte	.LVL70-.Ltext0
 2683 0088 F8010000 		.4byte	.LVL72-.Ltext0
 2684 008c 0100     		.2byte	0x1
 2685 008e 50       		.byte	0x50
 2686 008f 00000000 		.4byte	0
 2687 0093 00000000 		.4byte	0
 2688              	.LLST16:
 2689 0097 18020000 		.4byte	.LFB15-.Ltext0
 2690 009b 1A020000 		.4byte	.LCFI13-.Ltext0
 2691 009f 0200     		.2byte	0x2
 2692 00a1 7D       		.byte	0x7d
 2693 00a2 00       		.sleb128 0
 2694 00a3 1A020000 		.4byte	.LCFI13-.Ltext0
 2695 00a7 B4020000 		.4byte	.LFE15-.Ltext0
 2696 00ab 0200     		.2byte	0x2
 2697 00ad 7D       		.byte	0x7d
 2698 00ae 10       		.sleb128 16
 2699 00af 00000000 		.4byte	0
 2700 00b3 00000000 		.4byte	0
 2701              	.LLST17:
 2702 00b7 18020000 		.4byte	.LVL77-.Ltext0
 2703 00bb 23020000 		.4byte	.LVL79-1-.Ltext0
 2704 00bf 0100     		.2byte	0x1
 2705 00c1 50       		.byte	0x50
 2706 00c2 23020000 		.4byte	.LVL79-1-.Ltext0
 2707 00c6 88020000 		.4byte	.LVL95-.Ltext0
 2708 00ca 0100     		.2byte	0x1
 2709 00cc 54       		.byte	0x54
 2710 00cd 88020000 		.4byte	.LVL95-.Ltext0
 2711 00d1 8C020000 		.4byte	.LVL96-.Ltext0
 2712 00d5 0100     		.2byte	0x1
 2713 00d7 50       		.byte	0x50
 2714 00d8 8C020000 		.4byte	.LVL96-.Ltext0
 2715 00dc A6020000 		.4byte	.LVL101-.Ltext0
 2716 00e0 0100     		.2byte	0x1
 2717 00e2 54       		.byte	0x54
 2718 00e3 A6020000 		.4byte	.LVL101-.Ltext0
 2719 00e7 B4020000 		.4byte	.LFE15-.Ltext0
ARM GAS  G:\Users\Jaxb\AppData\Local\Temp\ccG52moA.s 			page 55


 2720 00eb 0400     		.2byte	0x4
 2721 00ed F3       		.byte	0xf3
 2722 00ee 01       		.uleb128 0x1
 2723 00ef 50       		.byte	0x50
 2724 00f0 9F       		.byte	0x9f
 2725 00f1 00000000 		.4byte	0
 2726 00f5 00000000 		.4byte	0
 2727              	.LLST18:
 2728 00f9 20020000 		.4byte	.LVL78-.Ltext0
 2729 00fd 28020000 		.4byte	.LVL80-.Ltext0
 2730 0101 0200     		.2byte	0x2
 2731 0103 30       		.byte	0x30
 2732 0104 9F       		.byte	0x9f
 2733 0105 28020000 		.4byte	.LVL80-.Ltext0
 2734 0109 3E020000 		.4byte	.LVL81-.Ltext0
 2735 010d 0100     		.2byte	0x1
 2736 010f 50       		.byte	0x50
 2737 0110 3E020000 		.4byte	.LVL81-.Ltext0
 2738 0114 56020000 		.4byte	.LVL86-.Ltext0
 2739 0118 0100     		.2byte	0x1
 2740 011a 56       		.byte	0x56
 2741 011b 56020000 		.4byte	.LVL86-.Ltext0
 2742 011f 59020000 		.4byte	.LVL87-1-.Ltext0
 2743 0123 0100     		.2byte	0x1
 2744 0125 50       		.byte	0x50
 2745 0126 59020000 		.4byte	.LVL87-1-.Ltext0
 2746 012a 5E020000 		.4byte	.LVL88-.Ltext0
 2747 012e 0100     		.2byte	0x1
 2748 0130 56       		.byte	0x56
 2749 0131 5E020000 		.4byte	.LVL88-.Ltext0
 2750 0135 64020000 		.4byte	.LVL90-.Ltext0
 2751 0139 0100     		.2byte	0x1
 2752 013b 50       		.byte	0x50
 2753 013c 64020000 		.4byte	.LVL90-.Ltext0
 2754 0140 88020000 		.4byte	.LVL95-.Ltext0
 2755 0144 0100     		.2byte	0x1
 2756 0146 56       		.byte	0x56
 2757 0147 9C020000 		.4byte	.LVL99-.Ltext0
 2758 014b 9F020000 		.4byte	.LVL100-1-.Ltext0
 2759 014f 0100     		.2byte	0x1
 2760 0151 50       		.byte	0x50
 2761 0152 9F020000 		.4byte	.LVL100-1-.Ltext0
 2762 0156 A6020000 		.4byte	.LVL101-.Ltext0
 2763 015a 0100     		.2byte	0x1
 2764 015c 56       		.byte	0x56
 2765 015d 00000000 		.4byte	0
 2766 0161 00000000 		.4byte	0
 2767              	.LLST19:
 2768 0165 42020000 		.4byte	.LVL82-.Ltext0
 2769 0169 48020000 		.4byte	.LVL83-.Ltext0
 2770 016d 0100     		.2byte	0x1
 2771 016f 50       		.byte	0x50
 2772 0170 48020000 		.4byte	.LVL83-.Ltext0
 2773 0174 56020000 		.4byte	.LVL86-.Ltext0
 2774 0178 0100     		.2byte	0x1
 2775 017a 55       		.byte	0x55
 2776 017b 72020000 		.4byte	.LVL92-.Ltext0
ARM GAS  G:\Users\Jaxb\AppData\Local\Temp\ccG52moA.s 			page 56


 2777 017f 80020000 		.4byte	.LVL93-.Ltext0
 2778 0183 0100     		.2byte	0x1
 2779 0185 50       		.byte	0x50
 2780 0186 80020000 		.4byte	.LVL93-.Ltext0
 2781 018a 88020000 		.4byte	.LVL95-.Ltext0
 2782 018e 0100     		.2byte	0x1
 2783 0190 55       		.byte	0x55
 2784 0191 00000000 		.4byte	0
 2785 0195 00000000 		.4byte	0
 2786              	.LLST20:
 2787 0199 62020000 		.4byte	.LVL89-.Ltext0
 2788 019d 69020000 		.4byte	.LVL91-1-.Ltext0
 2789 01a1 0100     		.2byte	0x1
 2790 01a3 51       		.byte	0x51
 2791 01a4 00000000 		.4byte	0
 2792 01a8 00000000 		.4byte	0
 2793              	.LLST2:
 2794 01ac 14000000 		.4byte	.LFB14-.Ltext0
 2795 01b0 16000000 		.4byte	.LCFI0-.Ltext0
 2796 01b4 0200     		.2byte	0x2
 2797 01b6 7D       		.byte	0x7d
 2798 01b7 00       		.sleb128 0
 2799 01b8 16000000 		.4byte	.LCFI0-.Ltext0
 2800 01bc 70000000 		.4byte	.LFE14-.Ltext0
 2801 01c0 0200     		.2byte	0x2
 2802 01c2 7D       		.byte	0x7d
 2803 01c3 10       		.sleb128 16
 2804 01c4 00000000 		.4byte	0
 2805 01c8 00000000 		.4byte	0
 2806              	.LLST3:
 2807 01cc 14000000 		.4byte	.LVL4-.Ltext0
 2808 01d0 1D000000 		.4byte	.LVL6-1-.Ltext0
 2809 01d4 0100     		.2byte	0x1
 2810 01d6 50       		.byte	0x50
 2811 01d7 1D000000 		.4byte	.LVL6-1-.Ltext0
 2812 01db 38000000 		.4byte	.LVL9-.Ltext0
 2813 01df 0100     		.2byte	0x1
 2814 01e1 55       		.byte	0x55
 2815 01e2 38000000 		.4byte	.LVL9-.Ltext0
 2816 01e6 3C000000 		.4byte	.LVL10-.Ltext0
 2817 01ea 0100     		.2byte	0x1
 2818 01ec 50       		.byte	0x50
 2819 01ed 3C000000 		.4byte	.LVL10-.Ltext0
 2820 01f1 70000000 		.4byte	.LFE14-.Ltext0
 2821 01f5 0100     		.2byte	0x1
 2822 01f7 55       		.byte	0x55
 2823 01f8 00000000 		.4byte	0
 2824 01fc 00000000 		.4byte	0
 2825              	.LLST4:
 2826 0200 1A000000 		.4byte	.LVL5-.Ltext0
 2827 0204 22000000 		.4byte	.LVL7-.Ltext0
 2828 0208 0200     		.2byte	0x2
 2829 020a 30       		.byte	0x30
 2830 020b 9F       		.byte	0x9f
 2831 020c 22000000 		.4byte	.LVL7-.Ltext0
 2832 0210 33000000 		.4byte	.LVL8-1-.Ltext0
 2833 0214 0100     		.2byte	0x1
ARM GAS  G:\Users\Jaxb\AppData\Local\Temp\ccG52moA.s 			page 57


 2834 0216 50       		.byte	0x50
 2835 0217 4C000000 		.4byte	.LVL13-.Ltext0
 2836 021b 4E000000 		.4byte	.LVL14-.Ltext0
 2837 021f 0100     		.2byte	0x1
 2838 0221 50       		.byte	0x50
 2839 0222 4E000000 		.4byte	.LVL14-.Ltext0
 2840 0226 5A000000 		.4byte	.LVL16-.Ltext0
 2841 022a 0100     		.2byte	0x1
 2842 022c 54       		.byte	0x54
 2843 022d 5A000000 		.4byte	.LVL16-.Ltext0
 2844 0231 5E000000 		.4byte	.LVL17-.Ltext0
 2845 0235 0100     		.2byte	0x1
 2846 0237 50       		.byte	0x50
 2847 0238 5E000000 		.4byte	.LVL17-.Ltext0
 2848 023c 70000000 		.4byte	.LFE14-.Ltext0
 2849 0240 0100     		.2byte	0x1
 2850 0242 54       		.byte	0x54
 2851 0243 00000000 		.4byte	0
 2852 0247 00000000 		.4byte	0
 2853              	.LLST8:
 2854 024b D8000000 		.4byte	.LFB13-.Ltext0
 2855 024f DA000000 		.4byte	.LCFI2-.Ltext0
 2856 0253 0200     		.2byte	0x2
 2857 0255 7D       		.byte	0x7d
 2858 0256 00       		.sleb128 0
 2859 0257 DA000000 		.4byte	.LCFI2-.Ltext0
 2860 025b DE000000 		.4byte	.LCFI3-.Ltext0
 2861 025f 0200     		.2byte	0x2
 2862 0261 7D       		.byte	0x7d
 2863 0262 14       		.sleb128 20
 2864 0263 DE000000 		.4byte	.LCFI3-.Ltext0
 2865 0267 60010000 		.4byte	.LCFI4-.Ltext0
 2866 026b 0200     		.2byte	0x2
 2867 026d 7D       		.byte	0x7d
 2868 026e 30       		.sleb128 48
 2869 026f 60010000 		.4byte	.LCFI4-.Ltext0
 2870 0273 62010000 		.4byte	.LCFI5-.Ltext0
 2871 0277 0200     		.2byte	0x2
 2872 0279 7D       		.byte	0x7d
 2873 027a 14       		.sleb128 20
 2874 027b 62010000 		.4byte	.LCFI5-.Ltext0
 2875 027f 6C010000 		.4byte	.LCFI6-.Ltext0
 2876 0283 0200     		.2byte	0x2
 2877 0285 7D       		.byte	0x7d
 2878 0286 30       		.sleb128 48
 2879 0287 6C010000 		.4byte	.LCFI6-.Ltext0
 2880 028b 6E010000 		.4byte	.LCFI7-.Ltext0
 2881 028f 0200     		.2byte	0x2
 2882 0291 7D       		.byte	0x7d
 2883 0292 14       		.sleb128 20
 2884 0293 6E010000 		.4byte	.LCFI7-.Ltext0
 2885 0297 8C010000 		.4byte	.LCFI8-.Ltext0
 2886 029b 0200     		.2byte	0x2
 2887 029d 7D       		.byte	0x7d
 2888 029e 30       		.sleb128 48
 2889 029f 8C010000 		.4byte	.LCFI8-.Ltext0
 2890 02a3 8E010000 		.4byte	.LCFI9-.Ltext0
ARM GAS  G:\Users\Jaxb\AppData\Local\Temp\ccG52moA.s 			page 58


 2891 02a7 0200     		.2byte	0x2
 2892 02a9 7D       		.byte	0x7d
 2893 02aa 14       		.sleb128 20
 2894 02ab 8E010000 		.4byte	.LCFI9-.Ltext0
 2895 02af A0010000 		.4byte	.LCFI10-.Ltext0
 2896 02b3 0200     		.2byte	0x2
 2897 02b5 7D       		.byte	0x7d
 2898 02b6 30       		.sleb128 48
 2899 02b7 A0010000 		.4byte	.LCFI10-.Ltext0
 2900 02bb A2010000 		.4byte	.LCFI11-.Ltext0
 2901 02bf 0200     		.2byte	0x2
 2902 02c1 7D       		.byte	0x7d
 2903 02c2 14       		.sleb128 20
 2904 02c3 A2010000 		.4byte	.LCFI11-.Ltext0
 2905 02c7 BC010000 		.4byte	.LFE13-.Ltext0
 2906 02cb 0200     		.2byte	0x2
 2907 02cd 7D       		.byte	0x7d
 2908 02ce 30       		.sleb128 48
 2909 02cf 00000000 		.4byte	0
 2910 02d3 00000000 		.4byte	0
 2911              	.LLST9:
 2912 02d7 D8000000 		.4byte	.LVL33-.Ltext0
 2913 02db E5000000 		.4byte	.LVL35-1-.Ltext0
 2914 02df 0100     		.2byte	0x1
 2915 02e1 50       		.byte	0x50
 2916 02e2 E5000000 		.4byte	.LVL35-1-.Ltext0
 2917 02e6 48010000 		.4byte	.LVL46-.Ltext0
 2918 02ea 0100     		.2byte	0x1
 2919 02ec 54       		.byte	0x54
 2920 02ed 48010000 		.4byte	.LVL46-.Ltext0
 2921 02f1 5E010000 		.4byte	.LVL48-.Ltext0
 2922 02f5 0300     		.2byte	0x3
 2923 02f7 77       		.byte	0x77
 2924 02f8 78       		.sleb128 -8
 2925 02f9 9F       		.byte	0x9f
 2926 02fa 5E010000 		.4byte	.LVL48-.Ltext0
 2927 02fe 62010000 		.4byte	.LVL49-.Ltext0
 2928 0302 0400     		.2byte	0x4
 2929 0304 F3       		.byte	0xf3
 2930 0305 01       		.uleb128 0x1
 2931 0306 50       		.byte	0x50
 2932 0307 9F       		.byte	0x9f
 2933 0308 62010000 		.4byte	.LVL49-.Ltext0
 2934 030c 64010000 		.4byte	.LVL50-.Ltext0
 2935 0310 0100     		.2byte	0x1
 2936 0312 54       		.byte	0x54
 2937 0313 64010000 		.4byte	.LVL50-.Ltext0
 2938 0317 6E010000 		.4byte	.LVL52-.Ltext0
 2939 031b 0400     		.2byte	0x4
 2940 031d F3       		.byte	0xf3
 2941 031e 01       		.uleb128 0x1
 2942 031f 50       		.byte	0x50
 2943 0320 9F       		.byte	0x9f
 2944 0321 6E010000 		.4byte	.LVL52-.Ltext0
 2945 0325 78010000 		.4byte	.LVL55-.Ltext0
 2946 0329 0100     		.2byte	0x1
 2947 032b 54       		.byte	0x54
ARM GAS  G:\Users\Jaxb\AppData\Local\Temp\ccG52moA.s 			page 59


 2948 032c 78010000 		.4byte	.LVL55-.Ltext0
 2949 0330 7C010000 		.4byte	.LVL56-.Ltext0
 2950 0334 0100     		.2byte	0x1
 2951 0336 50       		.byte	0x50
 2952 0337 7C010000 		.4byte	.LVL56-.Ltext0
 2953 033b BC010000 		.4byte	.LFE13-.Ltext0
 2954 033f 0100     		.2byte	0x1
 2955 0341 54       		.byte	0x54
 2956 0342 00000000 		.4byte	0
 2957 0346 00000000 		.4byte	0
 2958              	.LLST10:
 2959 034a E2000000 		.4byte	.LVL34-.Ltext0
 2960 034e EA000000 		.4byte	.LVL36-.Ltext0
 2961 0352 0200     		.2byte	0x2
 2962 0354 30       		.byte	0x30
 2963 0355 9F       		.byte	0x9f
 2964 0356 EA000000 		.4byte	.LVL36-.Ltext0
 2965 035a FA000000 		.4byte	.LVL37-.Ltext0
 2966 035e 0100     		.2byte	0x1
 2967 0360 50       		.byte	0x50
 2968 0361 FA000000 		.4byte	.LVL37-.Ltext0
 2969 0365 44010000 		.4byte	.LVL45-.Ltext0
 2970 0369 0100     		.2byte	0x1
 2971 036b 56       		.byte	0x56
 2972 036c 44010000 		.4byte	.LVL45-.Ltext0
 2973 0370 59010000 		.4byte	.LVL47-1-.Ltext0
 2974 0374 0100     		.2byte	0x1
 2975 0376 50       		.byte	0x50
 2976 0377 62010000 		.4byte	.LVL49-.Ltext0
 2977 037b 64010000 		.4byte	.LVL50-.Ltext0
 2978 037f 0100     		.2byte	0x1
 2979 0381 56       		.byte	0x56
 2980 0382 6E010000 		.4byte	.LVL52-.Ltext0
 2981 0386 72010000 		.4byte	.LVL53-.Ltext0
 2982 038a 0100     		.2byte	0x1
 2983 038c 50       		.byte	0x50
 2984 038d 72010000 		.4byte	.LVL53-.Ltext0
 2985 0391 78010000 		.4byte	.LVL55-.Ltext0
 2986 0395 0100     		.2byte	0x1
 2987 0397 56       		.byte	0x56
 2988 0398 8E010000 		.4byte	.LVL59-.Ltext0
 2989 039c 9B010000 		.4byte	.LVL60-1-.Ltext0
 2990 03a0 0100     		.2byte	0x1
 2991 03a2 50       		.byte	0x50
 2992 03a3 9B010000 		.4byte	.LVL60-1-.Ltext0
 2993 03a7 A2010000 		.4byte	.LVL61-.Ltext0
 2994 03ab 0100     		.2byte	0x1
 2995 03ad 56       		.byte	0x56
 2996 03ae A2010000 		.4byte	.LVL61-.Ltext0
 2997 03b2 A5010000 		.4byte	.LVL62-1-.Ltext0
 2998 03b6 0100     		.2byte	0x1
 2999 03b8 50       		.byte	0x50
 3000 03b9 A5010000 		.4byte	.LVL62-1-.Ltext0
 3001 03bd BC010000 		.4byte	.LFE13-.Ltext0
 3002 03c1 0100     		.2byte	0x1
 3003 03c3 56       		.byte	0x56
 3004 03c4 00000000 		.4byte	0
ARM GAS  G:\Users\Jaxb\AppData\Local\Temp\ccG52moA.s 			page 60


 3005 03c8 00000000 		.4byte	0
 3006              	.LLST11:
 3007 03cc 1C010000 		.4byte	.LVL40-.Ltext0
 3008 03d0 2A010000 		.4byte	.LVL41-.Ltext0
 3009 03d4 0200     		.2byte	0x2
 3010 03d6 70       		.byte	0x70
 3011 03d7 00       		.sleb128 0
 3012 03d8 00000000 		.4byte	0
 3013 03dc 00000000 		.4byte	0
 3014              	.LLST5:
 3015 03e0 70000000 		.4byte	.LFB12-.Ltext0
 3016 03e4 72000000 		.4byte	.LCFI1-.Ltext0
 3017 03e8 0200     		.2byte	0x2
 3018 03ea 7D       		.byte	0x7d
 3019 03eb 00       		.sleb128 0
 3020 03ec 72000000 		.4byte	.LCFI1-.Ltext0
 3021 03f0 D8000000 		.4byte	.LFE12-.Ltext0
 3022 03f4 0200     		.2byte	0x2
 3023 03f6 7D       		.byte	0x7d
 3024 03f7 10       		.sleb128 16
 3025 03f8 00000000 		.4byte	0
 3026 03fc 00000000 		.4byte	0
 3027              	.LLST6:
 3028 0400 70000000 		.4byte	.LVL19-.Ltext0
 3029 0404 79000000 		.4byte	.LVL21-1-.Ltext0
 3030 0408 0100     		.2byte	0x1
 3031 040a 50       		.byte	0x50
 3032 040b 79000000 		.4byte	.LVL21-1-.Ltext0
 3033 040f A4000000 		.4byte	.LVL26-.Ltext0
 3034 0413 0100     		.2byte	0x1
 3035 0415 55       		.byte	0x55
 3036 0416 A4000000 		.4byte	.LVL26-.Ltext0
 3037 041a A8000000 		.4byte	.LVL27-.Ltext0
 3038 041e 0100     		.2byte	0x1
 3039 0420 50       		.byte	0x50
 3040 0421 A8000000 		.4byte	.LVL27-.Ltext0
 3041 0425 C2000000 		.4byte	.LVL32-.Ltext0
 3042 0429 0100     		.2byte	0x1
 3043 042b 55       		.byte	0x55
 3044 042c C2000000 		.4byte	.LVL32-.Ltext0
 3045 0430 D8000000 		.4byte	.LFE12-.Ltext0
 3046 0434 0400     		.2byte	0x4
 3047 0436 F3       		.byte	0xf3
 3048 0437 01       		.uleb128 0x1
 3049 0438 50       		.byte	0x50
 3050 0439 9F       		.byte	0x9f
 3051 043a 00000000 		.4byte	0
 3052 043e 00000000 		.4byte	0
 3053              	.LLST7:
 3054 0442 76000000 		.4byte	.LVL20-.Ltext0
 3055 0446 7E000000 		.4byte	.LVL22-.Ltext0
 3056 044a 0200     		.2byte	0x2
 3057 044c 30       		.byte	0x30
 3058 044d 9F       		.byte	0x9f
 3059 044e 7E000000 		.4byte	.LVL22-.Ltext0
 3060 0452 96000000 		.4byte	.LVL23-.Ltext0
 3061 0456 0100     		.2byte	0x1
ARM GAS  G:\Users\Jaxb\AppData\Local\Temp\ccG52moA.s 			page 61


 3062 0458 50       		.byte	0x50
 3063 0459 96000000 		.4byte	.LVL23-.Ltext0
 3064 045d A4000000 		.4byte	.LVL26-.Ltext0
 3065 0461 0100     		.2byte	0x1
 3066 0463 56       		.byte	0x56
 3067 0464 B8000000 		.4byte	.LVL30-.Ltext0
 3068 0468 BB000000 		.4byte	.LVL31-1-.Ltext0
 3069 046c 0100     		.2byte	0x1
 3070 046e 50       		.byte	0x50
 3071 046f BB000000 		.4byte	.LVL31-1-.Ltext0
 3072 0473 C2000000 		.4byte	.LVL32-.Ltext0
 3073 0477 0100     		.2byte	0x1
 3074 0479 56       		.byte	0x56
 3075 047a 00000000 		.4byte	0
 3076 047e 00000000 		.4byte	0
 3077              	.LLST1:
 3078 0482 0C000000 		.4byte	.LVL2-.Ltext0
 3079 0486 0E000000 		.4byte	.LVL3-.Ltext0
 3080 048a 0100     		.2byte	0x1
 3081 048c 50       		.byte	0x50
 3082 048d 0E000000 		.4byte	.LVL3-.Ltext0
 3083 0491 14000000 		.4byte	.LFE11-.Ltext0
 3084 0495 0400     		.2byte	0x4
 3085 0497 F3       		.byte	0xf3
 3086 0498 01       		.uleb128 0x1
 3087 0499 50       		.byte	0x50
 3088 049a 9F       		.byte	0x9f
 3089 049b 00000000 		.4byte	0
 3090 049f 00000000 		.4byte	0
 3091              	.LLST0:
 3092 04a3 00000000 		.4byte	.LVL0-.Ltext0
 3093 04a7 06000000 		.4byte	.LVL1-.Ltext0
 3094 04ab 0100     		.2byte	0x1
 3095 04ad 50       		.byte	0x50
 3096 04ae 06000000 		.4byte	.LVL1-.Ltext0
 3097 04b2 0C000000 		.4byte	.LFE10-.Ltext0
 3098 04b6 0400     		.2byte	0x4
 3099 04b8 F3       		.byte	0xf3
 3100 04b9 01       		.uleb128 0x1
 3101 04ba 50       		.byte	0x50
 3102 04bb 9F       		.byte	0x9f
 3103 04bc 00000000 		.4byte	0
 3104 04c0 00000000 		.4byte	0
 3105              		.section	.debug_aranges,"",%progbits
 3106 0000 1C000000 		.4byte	0x1c
 3107 0004 0200     		.2byte	0x2
 3108 0006 00000000 		.4byte	.Ldebug_info0
 3109 000a 04       		.byte	0x4
 3110 000b 00       		.byte	0
 3111 000c 0000     		.2byte	0
 3112 000e 0000     		.2byte	0
 3113 0010 00000000 		.4byte	.Ltext0
 3114 0014 B4020000 		.4byte	.Letext0-.Ltext0
 3115 0018 00000000 		.4byte	0
 3116 001c 00000000 		.4byte	0
 3117              		.section	.debug_ranges,"",%progbits
 3118              	.Ldebug_ranges0:
ARM GAS  G:\Users\Jaxb\AppData\Local\Temp\ccG52moA.s 			page 62


 3119 0000 F6000000 		.4byte	.LBB2-.Ltext0
 3120 0004 5E010000 		.4byte	.LBE2-.Ltext0
 3121 0008 62010000 		.4byte	.LBB3-.Ltext0
 3122 000c 6A010000 		.4byte	.LBE3-.Ltext0
 3123 0010 6E010000 		.4byte	.LBB4-.Ltext0
 3124 0014 78010000 		.4byte	.LBE4-.Ltext0
 3125 0018 00000000 		.4byte	0
 3126 001c 00000000 		.4byte	0
 3127              		.section	.debug_line,"",%progbits
 3128              	.Ldebug_line0:
 3129 0000 C5020000 		.section	.debug_str,"MS",%progbits,1
 3129      02007801 
 3129      00000201 
 3129      FB0E0D00 
 3129      01010101 
 3130              	.LASF35:
 3131 0000 5441534B 		.ascii	"TASK_PRIO_TYPE\000"
 3131      5F505249 
 3131      4F5F5459 
 3131      504500
 3132              	.LASF55:
 3133 000f 6D757465 		.ascii	"mutex_insert_sort_TCB_list\000"
 3133      785F696E 
 3133      73657274 
 3133      5F736F72 
 3133      745F5443 
 3134              	.LASF75:
 3135 002a 5F5F7274 		.ascii	"__rtmsym_mutex_del_name\000"
 3135      6D73796D 
 3135      5F6D7574 
 3135      65785F64 
 3135      656C5F6E 
 3136              	.LASF70:
 3137 0042 5F5F7274 		.ascii	"__rtmsym_mutex_lock\000"
 3137      6D73796D 
 3137      5F6D7574 
 3137      65785F6C 
 3137      6F636B00 
 3138              	.LASF25:
 3139 0056 53544154 		.ascii	"STATE_SUSPEND_NORMAL\000"
 3139      455F5355 
 3139      5350454E 
 3139      445F4E4F 
 3139      524D414C 
 3140              	.LASF79:
 3141 006b 6D757465 		.ascii	"mutex_del\000"
 3141      785F6465 
 3141      6C00
 3142              	.LASF101:
 3143 0075 696E7365 		.ascii	"insert_sort_get_first_data_ptr\000"
 3143      72745F73 
 3143      6F72745F 
 3143      6765745F 
 3143      66697273 
 3144              	.LASF12:
 3145 0094 6C697374 		.ascii	"list_head\000"
 3145      5F686561 
ARM GAS  G:\Users\Jaxb\AppData\Local\Temp\ccG52moA.s 			page 63


 3145      6400
 3146              	.LASF76:
 3147 009e 5F5F7274 		.ascii	"__rtmsym_mutex_del\000"
 3147      6D73796D 
 3147      5F6D7574 
 3147      65785F64 
 3147      656C00
 3148              	.LASF71:
 3149 00b1 5F5F7274 		.ascii	"__rtmsym_mutex_try_lock_name\000"
 3149      6D73796D 
 3149      5F6D7574 
 3149      65785F74 
 3149      72795F6C 
 3150              	.LASF18:
 3151 00ce 64617461 		.ascii	"data_list_head\000"
 3151      5F6C6973 
 3151      745F6865 
 3151      616400
 3152              	.LASF3:
 3153 00dd 73686F72 		.ascii	"short int\000"
 3153      7420696E 
 3153      7400
 3154              	.LASF98:
 3155 00e7 4350555F 		.ascii	"CPU_SR_Restore\000"
 3155      53525F52 
 3155      6573746F 
 3155      726500
 3156              	.LASF15:
 3157 00f6 6964656E 		.ascii	"identify_data\000"
 3157      74696679 
 3157      5F646174 
 3157      6100
 3158              	.LASF16:
 3159 0104 64617461 		.ascii	"data_list\000"
 3159      5F6C6973 
 3159      7400
 3160              	.LASF81:
 3161 010e 4D555445 		.ascii	"MUTEX_ptr\000"
 3161      585F7074 
 3161      7200
 3162              	.LASF28:
 3163 0118 53544154 		.ascii	"STATE_WAIT_MESSAGE_QUEUE_FOREVER\000"
 3163      455F5741 
 3163      49545F4D 
 3163      45535341 
 3163      47455F51 
 3164              	.LASF8:
 3165 0139 55494E54 		.ascii	"UINT32\000"
 3165      333200
 3166              	.LASF34:
 3167 0140 53544143 		.ascii	"STACK_TYPE\000"
 3167      4B5F5459 
 3167      504500
 3168              	.LASF57:
 3169 014b 5461736B 		.ascii	"Task_State\000"
 3169      5F537461 
 3169      746500
ARM GAS  G:\Users\Jaxb\AppData\Local\Temp\ccG52moA.s 			page 64


 3170              	.LASF30:
 3171 0156 53544154 		.ascii	"STATE_PUT_MESSAGE_QUEUE_FOREVER\000"
 3171      455F5055 
 3171      545F4D45 
 3171      53534147 
 3171      455F5155 
 3172              	.LASF63:
 3173 0176 6B615F6D 		.ascii	"ka_module_symtab\000"
 3173      6F64756C 
 3173      655F7379 
 3173      6D746162 
 3173      00
 3174              	.LASF103:
 3175 0187 696E6974 		.ascii	"init_insert_sort_entity\000"
 3175      5F696E73 
 3175      6572745F 
 3175      736F7274 
 3175      5F656E74 
 3176              	.LASF56:
 3177 019f 4D555445 		.ascii	"MUTEX\000"
 3177      5800
 3178              	.LASF86:
 3179 01a5 6D757465 		.ascii	"mutex_lock\000"
 3179      785F6C6F 
 3179      636B00
 3180              	.LASF88:
 3181 01b0 6D757465 		.ascii	"mutex_init\000"
 3181      785F696E 
 3181      697400
 3182              	.LASF39:
 3183 01bb 73746163 		.ascii	"stack_end\000"
 3183      6B5F656E 
 3183      6400
 3184              	.LASF27:
 3185 01c5 53544154 		.ascii	"STATE_WAIT_MCB_TIMEOUT\000"
 3185      455F5741 
 3185      49545F4D 
 3185      43425F54 
 3185      494D454F 
 3186              	.LASF93:
 3187 01dc 72656D6F 		.ascii	"remove_from_suspend_list\000"
 3187      76655F66 
 3187      726F6D5F 
 3187      73757370 
 3187      656E645F 
 3188              	.LASF52:
 3189 01f5 6D757465 		.ascii	"mutex_block\000"
 3189      785F626C 
 3189      6F636B00 
 3190              	.LASF29:
 3191 0201 53544154 		.ascii	"STATE_WAIT_MESSAGE_QUEUE_TIMEOUT\000"
 3191      455F5741 
 3191      49545F4D 
 3191      45535341 
 3191      47455F51 
 3192              	.LASF67:
 3193 0222 5F5F7274 		.ascii	"__rtmsym_mutex_init_name\000"
ARM GAS  G:\Users\Jaxb\AppData\Local\Temp\ccG52moA.s 			page 65


 3193      6D73796D 
 3193      5F6D7574 
 3193      65785F69 
 3193      6E69745F 
 3194              	.LASF106:
 3195 023b 463A5C6B 		.ascii	"F:\\kaka\\KAKAOS\\C\\windows\\Project\\RVMDK\243\250"
 3195      616B615C 
 3195      4B414B41 
 3195      4F535C43 
 3195      5C77696E 
 3196 0263 757635A3 		.ascii	"uv5\243\251\000"
 3196      A900
 3197              	.LASF4:
 3198 0269 6C6F6E67 		.ascii	"long long int\000"
 3198      206C6F6E 
 3198      6720696E 
 3198      7400
 3199              	.LASF47:
 3200 0277 74696D65 		.ascii	"timeslice_hope_time\000"
 3200      736C6963 
 3200      655F686F 
 3200      70655F74 
 3200      696D6500 
 3201              	.LASF13:
 3202 028b 696E7365 		.ascii	"insert_sort_data\000"
 3202      72745F73 
 3202      6F72745F 
 3202      64617461 
 3202      00
 3203              	.LASF21:
 3204 029c 6765745F 		.ascii	"get_data_ptr\000"
 3204      64617461 
 3204      5F707472 
 3204      00
 3205              	.LASF85:
 3206 02a9 6D757465 		.ascii	"mutex_try_lock\000"
 3206      785F7472 
 3206      795F6C6F 
 3206      636B00
 3207              	.LASF64:
 3208 02b8 61646472 		.ascii	"addr\000"
 3208      00
 3209              	.LASF89:
 3210 02bd 64617461 		.ascii	"data1\000"
 3210      3100
 3211              	.LASF94:
 3212 02c3 6B615F70 		.ascii	"ka_printf\000"
 3212      72696E74 
 3212      6600
 3213              	.LASF33:
 3214 02cd 5441534B 		.ascii	"TASK_STATE\000"
 3214      5F535441 
 3214      544500
 3215              	.LASF102:
 3216 02d8 7379735F 		.ascii	"sys_suspend\000"
 3216      73757370 
 3216      656E6400 
ARM GAS  G:\Users\Jaxb\AppData\Local\Temp\ccG52moA.s 			page 66


 3217              	.LASF46:
 3218 02e4 6E616D65 		.ascii	"name\000"
 3218      00
 3219              	.LASF66:
 3220 02e9 4F535443 		.ascii	"OSTCBCurPtr\000"
 3220      42437572 
 3220      50747200 
 3221              	.LASF19:
 3222 02f5 64617461 		.ascii	"data_num\000"
 3222      5F6E756D 
 3222      00
 3223              	.LASF92:
 3224 02fe 5F415353 		.ascii	"_ASSERT\000"
 3224      45525400 
 3225              	.LASF58:
 3226 0306 6D757465 		.ascii	"mutex_state\000"
 3226      785F7374 
 3226      61746500 
 3227              	.LASF96:
 3228 0312 4350555F 		.ascii	"CPU_SR_Save\000"
 3228      53525F53 
 3228      61766500 
 3229              	.LASF5:
 3230 031e 756E7369 		.ascii	"unsigned char\000"
 3230      676E6564 
 3230      20636861 
 3230      7200
 3231              	.LASF24:
 3232 032c 53544154 		.ascii	"STATE_DELAY\000"
 3232      455F4445 
 3232      4C415900 
 3233              	.LASF49:
 3234 0338 61747472 		.ascii	"attribution\000"
 3234      69627574 
 3234      696F6E00 
 3235              	.LASF78:
 3236 0344 696E7365 		.ascii	"insert_sort_data_ptr\000"
 3236      72745F73 
 3236      6F72745F 
 3236      64617461 
 3236      5F707472 
 3237              	.LASF2:
 3238 0359 7369676E 		.ascii	"signed char\000"
 3238      65642063 
 3238      68617200 
 3239              	.LASF10:
 3240 0365 6C6F6E67 		.ascii	"long long unsigned int\000"
 3240      206C6F6E 
 3240      6720756E 
 3240      7369676E 
 3240      65642069 
 3241              	.LASF7:
 3242 037c 756E7369 		.ascii	"unsigned int\000"
 3242      676E6564 
 3242      20696E74 
 3242      00
 3243              	.LASF97:
ARM GAS  G:\Users\Jaxb\AppData\Local\Temp\ccG52moA.s 			page 67


 3244 0389 73636865 		.ascii	"schedule\000"
 3244      64756C65 
 3244      00
 3245              	.LASF83:
 3246 0392 62756666 		.ascii	"buffer_ptr\000"
 3246      65725F70 
 3246      747200
 3247              	.LASF37:
 3248 039d 73746163 		.ascii	"stack\000"
 3248      6B00
 3249              	.LASF69:
 3250 03a3 5F5F7274 		.ascii	"__rtmsym_mutex_lock_name\000"
 3250      6D73796D 
 3250      5F6D7574 
 3250      65785F6C 
 3250      6F636B5F 
 3251              	.LASF44:
 3252 03bc 73616D65 		.ascii	"same_prio_list\000"
 3252      5F707269 
 3252      6F5F6C69 
 3252      737400
 3253              	.LASF40:
 3254 03cb 7072696F 		.ascii	"prio\000"
 3254      00
 3255              	.LASF22:
 3256 03d0 76616C75 		.ascii	"value_cmp\000"
 3256      655F636D 
 3256      7000
 3257              	.LASF6:
 3258 03da 73686F72 		.ascii	"short unsigned int\000"
 3258      7420756E 
 3258      7369676E 
 3258      65642069 
 3258      6E7400
 3259              	.LASF23:
 3260 03ed 53544154 		.ascii	"STATE_READY\000"
 3260      455F5245 
 3260      41445900 
 3261              	.LASF53:
 3262 03f9 6D757465 		.ascii	"mutex_flag\000"
 3262      785F666C 
 3262      616700
 3263              	.LASF51:
 3264 0404 63686172 		.ascii	"char\000"
 3264      00
 3265              	.LASF95:
 3266 0409 7461736B 		.ascii	"task_change_prio\000"
 3266      5F636861 
 3266      6E67655F 
 3266      7072696F 
 3266      00
 3267              	.LASF73:
 3268 041a 5F5F7274 		.ascii	"__rtmsym_mutex_unlock_name\000"
 3268      6D73796D 
 3268      5F6D7574 
 3268      65785F75 
 3268      6E6C6F63 
ARM GAS  G:\Users\Jaxb\AppData\Local\Temp\ccG52moA.s 			page 68


 3269              	.LASF31:
 3270 0435 53544154 		.ascii	"STATE_PUT_MESSAGE_QUEUE_TIMEOUT\000"
 3270      455F5055 
 3270      545F4D45 
 3270      53534147 
 3270      455F5155 
 3271              	.LASF68:
 3272 0455 5F5F7274 		.ascii	"__rtmsym_mutex_init\000"
 3272      6D73796D 
 3272      5F6D7574 
 3272      65785F69 
 3272      6E697400 
 3273              	.LASF61:
 3274 0469 4350555F 		.ascii	"CPU_INT32U\000"
 3274      494E5433 
 3274      325500
 3275              	.LASF72:
 3276 0474 5F5F7274 		.ascii	"__rtmsym_mutex_try_lock\000"
 3276      6D73796D 
 3276      5F6D7574 
 3276      65785F74 
 3276      72795F6C 
 3277              	.LASF87:
 3278 048c 64617461 		.ascii	"data\000"
 3278      00
 3279              	.LASF84:
 3280 0491 62756666 		.ascii	"buffer\000"
 3280      657200
 3281              	.LASF105:
 3282 0498 2E2E2F2E 		.ascii	"../../source/src/kernel/OS_CORE/mutex.c\000"
 3282      2E2F736F 
 3282      75726365 
 3282      2F737263 
 3282      2F6B6572 
 3283              	.LASF60:
 3284 04c0 4D555445 		.ascii	"MUTEX_UNLOCK\000"
 3284      585F554E 
 3284      4C4F434B 
 3284      00
 3285              	.LASF43:
 3286 04cd 64656C61 		.ascii	"delay_heap_position\000"
 3286      795F6865 
 3286      61705F70 
 3286      6F736974 
 3286      696F6E00 
 3287              	.LASF42:
 3288 04e1 7461736B 		.ascii	"task_state\000"
 3288      5F737461 
 3288      746500
 3289              	.LASF100:
 3290 04ec 696E7365 		.ascii	"insert_sort_insert_into\000"
 3290      72745F73 
 3290      6F72745F 
 3290      696E7365 
 3290      72745F69 
 3291              	.LASF91:
 3292 0504 696E7365 		.ascii	"insert_sort_delete_head\000"
ARM GAS  G:\Users\Jaxb\AppData\Local\Temp\ccG52moA.s 			page 69


 3292      72745F73 
 3292      6F72745F 
 3292      64656C65 
 3292      74655F68 
 3293              	.LASF48:
 3294 051c 74696D65 		.ascii	"timeslice_rest_time\000"
 3294      736C6963 
 3294      655F7265 
 3294      73745F74 
 3294      696D6500 
 3295              	.LASF17:
 3296 0530 696E7365 		.ascii	"insert_sort_entity\000"
 3296      72745F73 
 3296      6F72745F 
 3296      656E7469 
 3296      747900
 3297              	.LASF26:
 3298 0543 53544154 		.ascii	"STATE_WAIT_MCB_FOREVER\000"
 3298      455F5741 
 3298      49545F4D 
 3298      43425F46 
 3298      4F524556 
 3299              	.LASF20:
 3300 055a 636F6D70 		.ascii	"compare\000"
 3300      61726500 
 3301              	.LASF36:
 3302 0562 7461736B 		.ascii	"task_control_block_struct\000"
 3302      5F636F6E 
 3302      74726F6C 
 3302      5F626C6F 
 3302      636B5F73 
 3303              	.LASF38:
 3304 057c 73746163 		.ascii	"stack_size\000"
 3304      6B5F7369 
 3304      7A6500
 3305              	.LASF54:
 3306 0587 6F776E65 		.ascii	"owner_TCB_ptr\000"
 3306      725F5443 
 3306      425F7074 
 3306      7200
 3307              	.LASF77:
 3308 0595 5443425F 		.ascii	"TCB_ptr\000"
 3308      70747200 
 3309              	.LASF41:
 3310 059d 72657365 		.ascii	"reserve_prio\000"
 3310      7276655F 
 3310      7072696F 
 3310      00
 3311              	.LASF45:
 3312 05aa 73757370 		.ascii	"suspend_list\000"
 3312      656E645F 
 3312      6C697374 
 3312      00
 3313              	.LASF65:
 3314 05b7 675F696E 		.ascii	"g_interrupt_count\000"
 3314      74657272 
 3314      7570745F 
ARM GAS  G:\Users\Jaxb\AppData\Local\Temp\ccG52moA.s 			page 70


 3314      636F756E 
 3314      7400
 3315              	.LASF82:
 3316 05c9 6370755F 		.ascii	"cpu_sr\000"
 3316      737200
 3317              	.LASF104:
 3318 05d0 474E5520 		.ascii	"GNU C11 7.3.1 20180622 (release) [ARM/embedded-7-br"
 3318      43313120 
 3318      372E332E 
 3318      31203230 
 3318      31383036 
 3319 0603 616E6368 		.ascii	"anch revision 261907] -mcpu=cortex-m3 -mthumb -mapc"
 3319      20726576 
 3319      6973696F 
 3319      6E203236 
 3319      31393037 
 3320 0636 732D6672 		.ascii	"s-frame -mthumb-interwork -mcpu=cortex-m3 -mthumb -"
 3320      616D6520 
 3320      2D6D7468 
 3320      756D622D 
 3320      696E7465 
 3321 0669 67647761 		.ascii	"gdwarf-2 -O2\000"
 3321      72662D32 
 3321      202D4F32 
 3321      00
 3322              	.LASF74:
 3323 0676 5F5F7274 		.ascii	"__rtmsym_mutex_unlock\000"
 3323      6D73796D 
 3323      5F6D7574 
 3323      65785F75 
 3323      6E6C6F63 
 3324              	.LASF32:
 3325 068c 53544154 		.ascii	"STATE_WAIT_MUTEX_FOREVER\000"
 3325      455F5741 
 3325      49545F4D 
 3325      55544558 
 3325      5F464F52 
 3326              	.LASF90:
 3327 06a5 64617461 		.ascii	"data2\000"
 3327      3200
 3328              	.LASF1:
 3329 06ab 70726576 		.ascii	"prev\000"
 3329      00
 3330              	.LASF62:
 3331 06b0 4350555F 		.ascii	"CPU_SR\000"
 3331      535200
 3332              	.LASF50:
 3333 06b7 64656C61 		.ascii	"delay_reach_time\000"
 3333      795F7265 
 3333      6163685F 
 3333      74696D65 
 3333      00
 3334              	.LASF99:
 3335 06c8 696E6974 		.ascii	"init_insert_sort_data\000"
 3335      5F696E73 
 3335      6572745F 
 3335      736F7274 
ARM GAS  G:\Users\Jaxb\AppData\Local\Temp\ccG52moA.s 			page 71


 3335      5F646174 
 3336              	.LASF9:
 3337 06de 55494E54 		.ascii	"UINT64\000"
 3337      363400
 3338              	.LASF59:
 3339 06e5 4D555445 		.ascii	"MUTEX_LOCK\000"
 3339      585F4C4F 
 3339      434B00
 3340              	.LASF11:
 3341 06f0 69645F74 		.ascii	"id_type\000"
 3341      79706500 
 3342              	.LASF14:
 3343 06f8 64617461 		.ascii	"data_ptr\000"
 3343      5F707472 
 3343      00
 3344              	.LASF0:
 3345 0701 6E657874 		.ascii	"next\000"
 3345      00
 3346              	.LASF80:
 3347 0706 6D757465 		.ascii	"mutex_unlock\000"
 3347      785F756E 
 3347      6C6F636B 
 3347      00
 3348              		.ident	"GCC: (GNU Tools for Arm Embedded Processors 7-2018-q2-update) 7.3.1 20180622 (release) [AR
ARM GAS  G:\Users\Jaxb\AppData\Local\Temp\ccG52moA.s 			page 72


DEFINED SYMBOLS
                            *ABS*:00000000 mutex.c
G:\Users\Jaxb\AppData\Local\Temp\ccG52moA.s:15     .text:00000000 $t
G:\Users\Jaxb\AppData\Local\Temp\ccG52moA.s:22     .text:00000000 compare
G:\Users\Jaxb\AppData\Local\Temp\ccG52moA.s:50     .text:0000000c value_cmp
G:\Users\Jaxb\AppData\Local\Temp\ccG52moA.s:76     .text:00000014 mutex_try_lock
G:\Users\Jaxb\AppData\Local\Temp\ccG52moA.s:163    .text:00000064 $d
G:\Users\Jaxb\AppData\Local\Temp\ccG52moA.s:169    .text:00000070 $t
G:\Users\Jaxb\AppData\Local\Temp\ccG52moA.s:177    .text:00000070 mutex_init
G:\Users\Jaxb\AppData\Local\Temp\ccG52moA.s:258    .text:000000c4 $d
G:\Users\Jaxb\AppData\Local\Temp\ccG52moA.s:266    .text:000000d8 $t
G:\Users\Jaxb\AppData\Local\Temp\ccG52moA.s:274    .text:000000d8 mutex_lock
G:\Users\Jaxb\AppData\Local\Temp\ccG52moA.s:491    .text:000001ac $d
G:\Users\Jaxb\AppData\Local\Temp\ccG52moA.s:498    .text:000001bc $t
G:\Users\Jaxb\AppData\Local\Temp\ccG52moA.s:506    .text:000001bc mutex_del
G:\Users\Jaxb\AppData\Local\Temp\ccG52moA.s:590    .text:00000210 $d
G:\Users\Jaxb\AppData\Local\Temp\ccG52moA.s:595    .text:00000218 $t
G:\Users\Jaxb\AppData\Local\Temp\ccG52moA.s:603    .text:00000218 mutex_unlock
G:\Users\Jaxb\AppData\Local\Temp\ccG52moA.s:742    .text:000002a8 $d
G:\Users\Jaxb\AppData\Local\Temp\ccG52moA.s:762    .RTMSymTab:00000000 __rtmsym_mutex_del
G:\Users\Jaxb\AppData\Local\Temp\ccG52moA.s:789    .rodata.name:00000000 __rtmsym_mutex_del_name
G:\Users\Jaxb\AppData\Local\Temp\ccG52moA.s:767    .RTMSymTab:00000008 __rtmsym_mutex_unlock
G:\Users\Jaxb\AppData\Local\Temp\ccG52moA.s:794    .rodata.name:0000000c __rtmsym_mutex_unlock_name
G:\Users\Jaxb\AppData\Local\Temp\ccG52moA.s:772    .RTMSymTab:00000010 __rtmsym_mutex_try_lock
G:\Users\Jaxb\AppData\Local\Temp\ccG52moA.s:799    .rodata.name:0000001c __rtmsym_mutex_try_lock_name
G:\Users\Jaxb\AppData\Local\Temp\ccG52moA.s:777    .RTMSymTab:00000018 __rtmsym_mutex_lock
G:\Users\Jaxb\AppData\Local\Temp\ccG52moA.s:804    .rodata.name:0000002c __rtmsym_mutex_lock_name
G:\Users\Jaxb\AppData\Local\Temp\ccG52moA.s:782    .RTMSymTab:00000020 __rtmsym_mutex_init
G:\Users\Jaxb\AppData\Local\Temp\ccG52moA.s:809    .rodata.name:00000038 __rtmsym_mutex_init_name
G:\Users\Jaxb\AppData\Local\Temp\ccG52moA.s:759    .RTMSymTab:00000000 $d
G:\Users\Jaxb\AppData\Local\Temp\ccG52moA.s:786    .rodata.name:00000000 $d
G:\Users\Jaxb\AppData\Local\Temp\ccG52moA.s:812    .rodata.str1.4:00000000 $d

UNDEFINED SYMBOLS
CPU_SR_Save
CPU_SR_Restore
_ASSERT
ka_printf
OSTCBCurPtr
init_insert_sort_entity
g_interrupt_count
init_insert_sort_data
insert_sort_insert_into
insert_sort_get_first_data_ptr
task_change_prio
sys_suspend
insert_sort_delete_head
remove_from_suspend_list
schedule
