ARM GAS  G:\Users\Jaxb\AppData\Local\Temp\ccFImDCu.s 			page 1


   1              		.cpu cortex-m3
   2              		.eabi_attribute 20, 1
   3              		.eabi_attribute 21, 1
   4              		.eabi_attribute 23, 3
   5              		.eabi_attribute 24, 1
   6              		.eabi_attribute 25, 1
   7              		.eabi_attribute 26, 1
   8              		.eabi_attribute 30, 6
   9              		.eabi_attribute 34, 1
  10              		.eabi_attribute 18, 4
  11              		.file	"mutex.c"
  12              		.text
  13              	.Ltext0:
  14              		.cfi_sections	.debug_frame
  15              		.align	1
  16              		.syntax unified
  17              		.thumb
  18              		.thumb_func
  19              		.fpu softvfp
  20              		.type	compare, %function
  21              	compare:
  22              	.LFB11:
  23              		.file 1 "../../source/src/kernel/OS_CORE/mutex.c"
   1:../../source/src/kernel/OS_CORE/mutex.c **** #include <mutex.h>
   2:../../source/src/kernel/OS_CORE/mutex.c **** #include <os_schedule.h>
   3:../../source/src/kernel/OS_CORE/mutex.c **** #include <myassert.h>
   4:../../source/src/kernel/OS_CORE/mutex.c **** #include <os_cpu.h>
   5:../../source/src/kernel/OS_CORE/mutex.c **** #include <os_suspend.h>
   6:../../source/src/kernel/OS_CORE/mutex.c **** #include <export.h>
   7:../../source/src/kernel/OS_CORE/mutex.c **** 
   8:../../source/src/kernel/OS_CORE/mutex.c **** extern volatile TCB * OSTCBCurPtr;
   9:../../source/src/kernel/OS_CORE/mutex.c **** 
  10:../../source/src/kernel/OS_CORE/mutex.c **** static int compare(struct insert_sort_data *data1,struct insert_sort_data *data2)
  11:../../source/src/kernel/OS_CORE/mutex.c **** {
  24              		.loc 1 11 0
  25              		.cfi_startproc
  26              		@ args = 0, pretend = 0, frame = 8
  27              		@ frame_needed = 1, uses_anonymous_args = 0
  28              		@ link register save eliminated.
  29 0000 80B4     		push	{r7}
  30              	.LCFI0:
  31              		.cfi_def_cfa_offset 4
  32              		.cfi_offset 7, -4
  33 0002 83B0     		sub	sp, sp, #12
  34              	.LCFI1:
  35              		.cfi_def_cfa_offset 16
  36 0004 00AF     		add	r7, sp, #0
  37              	.LCFI2:
  38              		.cfi_def_cfa_register 7
  39 0006 7860     		str	r0, [r7, #4]
  40 0008 3960     		str	r1, [r7]
  12:../../source/src/kernel/OS_CORE/mutex.c **** 	return ((TCB*)(data1->data_ptr))->prio - ((TCB*)(data2->data_ptr))->prio;
  41              		.loc 1 12 0
  42 000a 7B68     		ldr	r3, [r7, #4]
  43 000c 1B68     		ldr	r3, [r3]
  44 000e 5A69     		ldr	r2, [r3, #20]
  45 0010 3B68     		ldr	r3, [r7]
ARM GAS  G:\Users\Jaxb\AppData\Local\Temp\ccFImDCu.s 			page 2


  46 0012 1B68     		ldr	r3, [r3]
  47 0014 5B69     		ldr	r3, [r3, #20]
  48 0016 D31A     		subs	r3, r2, r3
  13:../../source/src/kernel/OS_CORE/mutex.c **** }
  49              		.loc 1 13 0
  50 0018 1846     		mov	r0, r3
  51 001a 0C37     		adds	r7, r7, #12
  52              	.LCFI3:
  53              		.cfi_def_cfa_offset 4
  54 001c BD46     		mov	sp, r7
  55              	.LCFI4:
  56              		.cfi_def_cfa_register 13
  57              		@ sp needed
  58 001e 80BC     		pop	{r7}
  59              	.LCFI5:
  60              		.cfi_restore 7
  61              		.cfi_def_cfa_offset 0
  62 0020 7047     		bx	lr
  63              		.cfi_endproc
  64              	.LFE11:
  65              		.size	compare, .-compare
  66              		.align	1
  67              		.syntax unified
  68              		.thumb
  69              		.thumb_func
  70              		.fpu softvfp
  71              		.type	value_cmp, %function
  72              	value_cmp:
  73              	.LFB12:
  14:../../source/src/kernel/OS_CORE/mutex.c **** 
  15:../../source/src/kernel/OS_CORE/mutex.c **** static int value_cmp(void *data1,void *data2)
  16:../../source/src/kernel/OS_CORE/mutex.c **** {
  74              		.loc 1 16 0
  75              		.cfi_startproc
  76              		@ args = 0, pretend = 0, frame = 8
  77              		@ frame_needed = 1, uses_anonymous_args = 0
  78              		@ link register save eliminated.
  79 0022 80B4     		push	{r7}
  80              	.LCFI6:
  81              		.cfi_def_cfa_offset 4
  82              		.cfi_offset 7, -4
  83 0024 83B0     		sub	sp, sp, #12
  84              	.LCFI7:
  85              		.cfi_def_cfa_offset 16
  86 0026 00AF     		add	r7, sp, #0
  87              	.LCFI8:
  88              		.cfi_def_cfa_register 7
  89 0028 7860     		str	r0, [r7, #4]
  90 002a 3960     		str	r1, [r7]
  17:../../source/src/kernel/OS_CORE/mutex.c **** 	return ((TCB*)data1)->prio - ((TCB*)data2)->prio;
  91              		.loc 1 17 0
  92 002c 7B68     		ldr	r3, [r7, #4]
  93 002e 5A69     		ldr	r2, [r3, #20]
  94 0030 3B68     		ldr	r3, [r7]
  95 0032 5B69     		ldr	r3, [r3, #20]
  96 0034 D31A     		subs	r3, r2, r3
  18:../../source/src/kernel/OS_CORE/mutex.c **** }
ARM GAS  G:\Users\Jaxb\AppData\Local\Temp\ccFImDCu.s 			page 3


  97              		.loc 1 18 0
  98 0036 1846     		mov	r0, r3
  99 0038 0C37     		adds	r7, r7, #12
 100              	.LCFI9:
 101              		.cfi_def_cfa_offset 4
 102 003a BD46     		mov	sp, r7
 103              	.LCFI10:
 104              		.cfi_def_cfa_register 13
 105              		@ sp needed
 106 003c 80BC     		pop	{r7}
 107              	.LCFI11:
 108              		.cfi_restore 7
 109              		.cfi_def_cfa_offset 0
 110 003e 7047     		bx	lr
 111              		.cfi_endproc
 112              	.LFE12:
 113              		.size	value_cmp, .-value_cmp
 114              		.section	.rodata
 115              		.align	2
 116              	.LC0:
 117 0000 2E2E2F2E 		.ascii	"../../source/src/kernel/OS_CORE/mutex.c\000"
 117      2E2F736F 
 117      75726365 
 117      2F737263 
 117      2F6B6572 
 118              		.text
 119              		.align	1
 120              		.global	_mutex_init
 121              		.syntax unified
 122              		.thumb
 123              		.thumb_func
 124              		.fpu softvfp
 125              		.type	_mutex_init, %function
 126              	_mutex_init:
 127              	.LFB13:
  19:../../source/src/kernel/OS_CORE/mutex.c **** 
  20:../../source/src/kernel/OS_CORE/mutex.c **** int _mutex_init(MUTEX *MUTEX_ptr)
  21:../../source/src/kernel/OS_CORE/mutex.c **** {
 128              		.loc 1 21 0
 129              		.cfi_startproc
 130              		@ args = 0, pretend = 0, frame = 16
 131              		@ frame_needed = 1, uses_anonymous_args = 0
 132 0040 80B5     		push	{r7, lr}
 133              	.LCFI12:
 134              		.cfi_def_cfa_offset 8
 135              		.cfi_offset 7, -8
 136              		.cfi_offset 14, -4
 137 0042 84B0     		sub	sp, sp, #16
 138              	.LCFI13:
 139              		.cfi_def_cfa_offset 24
 140 0044 00AF     		add	r7, sp, #0
 141              	.LCFI14:
 142              		.cfi_def_cfa_register 7
 143 0046 7860     		str	r0, [r7, #4]
  22:../../source/src/kernel/OS_CORE/mutex.c **** 	ASSERT(NULL != MUTEX_ptr);
 144              		.loc 1 22 0
 145 0048 7B68     		ldr	r3, [r7, #4]
ARM GAS  G:\Users\Jaxb\AppData\Local\Temp\ccFImDCu.s 			page 4


 146 004a 002B     		cmp	r3, #0
 147 004c 03D1     		bne	.L6
 148              		.loc 1 22 0 is_stmt 0 discriminator 1
 149 004e 1621     		movs	r1, #22
 150 0050 0E48     		ldr	r0, .L8
 151 0052 FFF7FEFF 		bl	_ASSERT
 152              	.L6:
  23:../../source/src/kernel/OS_CORE/mutex.c **** 	CPU_SR_ALLOC();
 153              		.loc 1 23 0 is_stmt 1
 154 0056 0023     		movs	r3, #0
 155 0058 FB60     		str	r3, [r7, #12]
  24:../../source/src/kernel/OS_CORE/mutex.c **** 	CPU_CRITICAL_ENTER();
 156              		.loc 1 24 0
 157 005a FFF7FEFF 		bl	CPU_SR_Save
 158 005e F860     		str	r0, [r7, #12]
  25:../../source/src/kernel/OS_CORE/mutex.c **** 	MUTEX_ptr->mutex_flag = MUTEX_UNLOCK;
 159              		.loc 1 25 0
 160 0060 7B68     		ldr	r3, [r7, #4]
 161 0062 0122     		movs	r2, #1
 162 0064 1A60     		str	r2, [r3]
  26:../../source/src/kernel/OS_CORE/mutex.c **** 	MUTEX_ptr->owner_TCB_ptr = NULL;
 163              		.loc 1 26 0
 164 0066 7B68     		ldr	r3, [r7, #4]
 165 0068 0022     		movs	r2, #0
 166 006a 5A60     		str	r2, [r3, #4]
  27:../../source/src/kernel/OS_CORE/mutex.c **** 	init_insert_sort_entity(
 167              		.loc 1 27 0
 168 006c 7B68     		ldr	r3, [r7, #4]
 169 006e 03F10800 		add	r0, r3, #8
 170 0072 074B     		ldr	r3, .L8+4
 171 0074 0022     		movs	r2, #0
 172 0076 0749     		ldr	r1, .L8+8
 173 0078 FFF7FEFF 		bl	init_insert_sort_entity
  28:../../source/src/kernel/OS_CORE/mutex.c **** 		&MUTEX_ptr->mutex_insert_sort_TCB_list,
  29:../../source/src/kernel/OS_CORE/mutex.c **** 		compare,
  30:../../source/src/kernel/OS_CORE/mutex.c **** 		NULL,
  31:../../source/src/kernel/OS_CORE/mutex.c **** 		value_cmp
  32:../../source/src/kernel/OS_CORE/mutex.c **** 		);
  33:../../source/src/kernel/OS_CORE/mutex.c **** 	CPU_CRITICAL_EXIT();
 174              		.loc 1 33 0
 175 007c F868     		ldr	r0, [r7, #12]
 176 007e FFF7FEFF 		bl	CPU_SR_Restore
  34:../../source/src/kernel/OS_CORE/mutex.c **** 	return FUN_EXECUTE_SUCCESSFULLY;
 177              		.loc 1 34 0
 178 0082 0023     		movs	r3, #0
  35:../../source/src/kernel/OS_CORE/mutex.c **** }
 179              		.loc 1 35 0
 180 0084 1846     		mov	r0, r3
 181 0086 1037     		adds	r7, r7, #16
 182              	.LCFI15:
 183              		.cfi_def_cfa_offset 8
 184 0088 BD46     		mov	sp, r7
 185              	.LCFI16:
 186              		.cfi_def_cfa_register 13
 187              		@ sp needed
 188 008a 80BD     		pop	{r7, pc}
 189              	.L9:
ARM GAS  G:\Users\Jaxb\AppData\Local\Temp\ccFImDCu.s 			page 5


 190              		.align	2
 191              	.L8:
 192 008c 00000000 		.word	.LC0
 193 0090 00000000 		.word	value_cmp
 194 0094 00000000 		.word	compare
 195              		.cfi_endproc
 196              	.LFE13:
 197              		.size	_mutex_init, .-_mutex_init
 198              		.section	.rodata
 199              		.align	2
 200              	.LC1:
 201 0028 6572726F 		.ascii	"error fun name : mutex_init\012error para : MUTEX_p"
 201      72206675 
 201      6E206E61 
 201      6D65203A 
 201      206D7574 
 202 0058 74720A00 		.ascii	"tr\012\000"
 203              		.text
 204              		.align	1
 205              		.global	mutex_init
 206              		.syntax unified
 207              		.thumb
 208              		.thumb_func
 209              		.fpu softvfp
 210              		.type	mutex_init, %function
 211              	mutex_init:
 212              	.LFB14:
  36:../../source/src/kernel/OS_CORE/mutex.c **** 
  37:../../source/src/kernel/OS_CORE/mutex.c **** int mutex_init(MUTEX *MUTEX_ptr)
  38:../../source/src/kernel/OS_CORE/mutex.c **** {
 213              		.loc 1 38 0
 214              		.cfi_startproc
 215              		@ args = 0, pretend = 0, frame = 8
 216              		@ frame_needed = 1, uses_anonymous_args = 0
 217 0098 80B5     		push	{r7, lr}
 218              	.LCFI17:
 219              		.cfi_def_cfa_offset 8
 220              		.cfi_offset 7, -8
 221              		.cfi_offset 14, -4
 222 009a 82B0     		sub	sp, sp, #8
 223              	.LCFI18:
 224              		.cfi_def_cfa_offset 16
 225 009c 00AF     		add	r7, sp, #0
 226              	.LCFI19:
 227              		.cfi_def_cfa_register 7
 228 009e 7860     		str	r0, [r7, #4]
  39:../../source/src/kernel/OS_CORE/mutex.c **** 	if(NULL == MUTEX_ptr)
 229              		.loc 1 39 0
 230 00a0 7B68     		ldr	r3, [r7, #4]
 231 00a2 002B     		cmp	r3, #0
 232 00a4 05D1     		bne	.L11
  40:../../source/src/kernel/OS_CORE/mutex.c **** 	{
  41:../../source/src/kernel/OS_CORE/mutex.c **** 		OS_ERROR_PARA_MESSAGE_DISPLAY(mutex_init,MUTEX_ptr);
 233              		.loc 1 41 0
 234 00a6 0A48     		ldr	r0, .L14
 235 00a8 FFF7FEFF 		bl	ka_printf
  42:../../source/src/kernel/OS_CORE/mutex.c **** 		return -ERROR_NULL_INPUT_PTR;
ARM GAS  G:\Users\Jaxb\AppData\Local\Temp\ccFImDCu.s 			page 6


 236              		.loc 1 42 0
 237 00ac 6FF0FE03 		mvn	r3, #254
 238 00b0 0AE0     		b	.L12
 239              	.L11:
  43:../../source/src/kernel/OS_CORE/mutex.c **** 	}
  44:../../source/src/kernel/OS_CORE/mutex.c **** 	if (g_interrupt_count > 0)
 240              		.loc 1 44 0
 241 00b2 084B     		ldr	r3, .L14+4
 242 00b4 1B68     		ldr	r3, [r3]
 243 00b6 002B     		cmp	r3, #0
 244 00b8 02DD     		ble	.L13
  45:../../source/src/kernel/OS_CORE/mutex.c **** 	{
  46:../../source/src/kernel/OS_CORE/mutex.c **** 		return -ERROR_FUN_USE_IN_INTER;
 245              		.loc 1 46 0
 246 00ba 6FF0FC03 		mvn	r3, #252
 247 00be 03E0     		b	.L12
 248              	.L13:
  47:../../source/src/kernel/OS_CORE/mutex.c **** 	}
  48:../../source/src/kernel/OS_CORE/mutex.c **** 	return _mutex_init(MUTEX_ptr);
 249              		.loc 1 48 0
 250 00c0 7868     		ldr	r0, [r7, #4]
 251 00c2 FFF7FEFF 		bl	_mutex_init
 252 00c6 0346     		mov	r3, r0
 253              	.L12:
  49:../../source/src/kernel/OS_CORE/mutex.c **** }
 254              		.loc 1 49 0
 255 00c8 1846     		mov	r0, r3
 256 00ca 0837     		adds	r7, r7, #8
 257              	.LCFI20:
 258              		.cfi_def_cfa_offset 8
 259 00cc BD46     		mov	sp, r7
 260              	.LCFI21:
 261              		.cfi_def_cfa_register 13
 262              		@ sp needed
 263 00ce 80BD     		pop	{r7, pc}
 264              	.L15:
 265              		.align	2
 266              	.L14:
 267 00d0 28000000 		.word	.LC1
 268 00d4 00000000 		.word	g_interrupt_count
 269              		.cfi_endproc
 270              	.LFE14:
 271              		.size	mutex_init, .-mutex_init
 272              		.global	__rtmsym_mutex_init_name
 273              		.section	.rodata.name,"a",%progbits
 274              		.align	2
 275              		.type	__rtmsym_mutex_init_name, %object
 276              		.size	__rtmsym_mutex_init_name, 11
 277              	__rtmsym_mutex_init_name:
 278 0000 6D757465 		.ascii	"mutex_init\000"
 278      785F696E 
 278      697400
 279              		.global	__rtmsym_mutex_init
 280              		.section	.RTMSymTab,"a",%progbits
 281              		.align	2
 282              		.type	__rtmsym_mutex_init, %object
 283              		.size	__rtmsym_mutex_init, 8
ARM GAS  G:\Users\Jaxb\AppData\Local\Temp\ccFImDCu.s 			page 7


 284              	__rtmsym_mutex_init:
 285 0000 00000000 		.word	mutex_init
 286 0004 00000000 		.word	__rtmsym_mutex_init_name
 287              		.text
 288              		.align	1
 289              		.global	_mutex_lock
 290              		.syntax unified
 291              		.thumb
 292              		.thumb_func
 293              		.fpu softvfp
 294              		.type	_mutex_lock, %function
 295              	_mutex_lock:
 296              	.LFB15:
  50:../../source/src/kernel/OS_CORE/mutex.c **** EXPORT_SYMBOL(mutex_init);
  51:../../source/src/kernel/OS_CORE/mutex.c **** 
  52:../../source/src/kernel/OS_CORE/mutex.c **** int _mutex_lock(MUTEX *MUTEX_ptr)
  53:../../source/src/kernel/OS_CORE/mutex.c **** {
 297              		.loc 1 53 0
 298              		.cfi_startproc
 299              		@ args = 0, pretend = 0, frame = 40
 300              		@ frame_needed = 1, uses_anonymous_args = 0
 301 00d8 80B5     		push	{r7, lr}
 302              	.LCFI22:
 303              		.cfi_def_cfa_offset 8
 304              		.cfi_offset 7, -8
 305              		.cfi_offset 14, -4
 306 00da 8AB0     		sub	sp, sp, #40
 307              	.LCFI23:
 308              		.cfi_def_cfa_offset 48
 309 00dc 00AF     		add	r7, sp, #0
 310              	.LCFI24:
 311              		.cfi_def_cfa_register 7
 312 00de 7860     		str	r0, [r7, #4]
  54:../../source/src/kernel/OS_CORE/mutex.c **** 	ASSERT(NULL != MUTEX_ptr);
 313              		.loc 1 54 0
 314 00e0 7B68     		ldr	r3, [r7, #4]
 315 00e2 002B     		cmp	r3, #0
 316 00e4 03D1     		bne	.L17
 317              		.loc 1 54 0 is_stmt 0 discriminator 1
 318 00e6 3621     		movs	r1, #54
 319 00e8 4148     		ldr	r0, .L27
 320 00ea FFF7FEFF 		bl	_ASSERT
 321              	.L17:
  55:../../source/src/kernel/OS_CORE/mutex.c **** 	CPU_SR_ALLOC();
 322              		.loc 1 55 0 is_stmt 1
 323 00ee 0023     		movs	r3, #0
 324 00f0 7B62     		str	r3, [r7, #36]
  56:../../source/src/kernel/OS_CORE/mutex.c **** 	CPU_CRITICAL_ENTER();/*enter critical*/
 325              		.loc 1 56 0
 326 00f2 FFF7FEFF 		bl	CPU_SR_Save
 327 00f6 7862     		str	r0, [r7, #36]
  57:../../source/src/kernel/OS_CORE/mutex.c **** 	if(MUTEX_UNLOCK == MUTEX_ptr->mutex_flag)
 328              		.loc 1 57 0
 329 00f8 7B68     		ldr	r3, [r7, #4]
 330 00fa 1B68     		ldr	r3, [r3]
 331 00fc 012B     		cmp	r3, #1
 332 00fe 0AD1     		bne	.L18
ARM GAS  G:\Users\Jaxb\AppData\Local\Temp\ccFImDCu.s 			page 8


  58:../../source/src/kernel/OS_CORE/mutex.c **** 	{
  59:../../source/src/kernel/OS_CORE/mutex.c **** 		MUTEX_ptr->mutex_flag = MUTEX_LOCK;
 333              		.loc 1 59 0
 334 0100 7B68     		ldr	r3, [r7, #4]
 335 0102 0022     		movs	r2, #0
 336 0104 1A60     		str	r2, [r3]
  60:../../source/src/kernel/OS_CORE/mutex.c **** 		MUTEX_ptr->owner_TCB_ptr = (TCB *)OSTCBCurPtr;
 337              		.loc 1 60 0
 338 0106 3B4B     		ldr	r3, .L27+4
 339 0108 1A68     		ldr	r2, [r3]
 340 010a 7B68     		ldr	r3, [r7, #4]
 341 010c 5A60     		str	r2, [r3, #4]
  61:../../source/src/kernel/OS_CORE/mutex.c **** 		CPU_CRITICAL_EXIT();
 342              		.loc 1 61 0
 343 010e 786A     		ldr	r0, [r7, #36]
 344 0110 FFF7FEFF 		bl	CPU_SR_Restore
 345 0114 66E0     		b	.L19
 346              	.L18:
 347              	.LBB2:
  62:../../source/src/kernel/OS_CORE/mutex.c **** 	}
  63:../../source/src/kernel/OS_CORE/mutex.c **** 	else
  64:../../source/src/kernel/OS_CORE/mutex.c **** 	{
  65:../../source/src/kernel/OS_CORE/mutex.c **** 		ASSERT(MUTEX_LOCK == MUTEX_ptr->mutex_flag);
 348              		.loc 1 65 0
 349 0116 7B68     		ldr	r3, [r7, #4]
 350 0118 1B68     		ldr	r3, [r3]
 351 011a 002B     		cmp	r3, #0
 352 011c 03D0     		beq	.L20
 353              		.loc 1 65 0 is_stmt 0 discriminator 1
 354 011e 4121     		movs	r1, #65
 355 0120 3348     		ldr	r0, .L27
 356 0122 FFF7FEFF 		bl	_ASSERT
 357              	.L20:
  66:../../source/src/kernel/OS_CORE/mutex.c **** 		if(MUTEX_ptr->owner_TCB_ptr == (TCB *)OSTCBCurPtr)
 358              		.loc 1 66 0 is_stmt 1
 359 0126 7B68     		ldr	r3, [r7, #4]
 360 0128 5A68     		ldr	r2, [r3, #4]
 361 012a 324B     		ldr	r3, .L27+4
 362 012c 1B68     		ldr	r3, [r3]
 363 012e 9A42     		cmp	r2, r3
 364 0130 04D1     		bne	.L21
  67:../../source/src/kernel/OS_CORE/mutex.c **** 		{
  68:../../source/src/kernel/OS_CORE/mutex.c **** 			CPU_CRITICAL_EXIT();
 365              		.loc 1 68 0
 366 0132 786A     		ldr	r0, [r7, #36]
 367 0134 FFF7FEFF 		bl	CPU_SR_Restore
  69:../../source/src/kernel/OS_CORE/mutex.c **** 			return FUN_EXECUTE_SUCCESSFULLY;
 368              		.loc 1 69 0
 369 0138 0023     		movs	r3, #0
 370 013a 54E0     		b	.L26
 371              	.L21:
  70:../../source/src/kernel/OS_CORE/mutex.c **** 		}
  71:../../source/src/kernel/OS_CORE/mutex.c **** 		struct insert_sort_data data;
  72:../../source/src/kernel/OS_CORE/mutex.c **** 		init_insert_sort_data(&data,(void *)OSTCBCurPtr);
 372              		.loc 1 72 0
 373 013c 2D4B     		ldr	r3, .L27+4
 374 013e 1A68     		ldr	r2, [r3]
ARM GAS  G:\Users\Jaxb\AppData\Local\Temp\ccFImDCu.s 			page 9


 375 0140 07F10803 		add	r3, r7, #8
 376 0144 1146     		mov	r1, r2
 377 0146 1846     		mov	r0, r3
 378 0148 FFF7FEFF 		bl	init_insert_sort_data
  73:../../source/src/kernel/OS_CORE/mutex.c **** 		insert_sort_insert_into(&data,&MUTEX_ptr->mutex_insert_sort_TCB_list);
 379              		.loc 1 73 0
 380 014c 7B68     		ldr	r3, [r7, #4]
 381 014e 03F10802 		add	r2, r3, #8
 382 0152 07F10803 		add	r3, r7, #8
 383 0156 1146     		mov	r1, r2
 384 0158 1846     		mov	r0, r3
 385 015a FFF7FEFF 		bl	insert_sort_insert_into
  74:../../source/src/kernel/OS_CORE/mutex.c **** 		TCB *TCB_ptr = (TCB *)(insert_sort_get_first_data_ptr(&MUTEX_ptr->mutex_insert_sort_TCB_list)->da
 386              		.loc 1 74 0
 387 015e 7B68     		ldr	r3, [r7, #4]
 388 0160 0833     		adds	r3, r3, #8
 389 0162 1846     		mov	r0, r3
 390 0164 FFF7FEFF 		bl	insert_sort_get_first_data_ptr
 391 0168 0346     		mov	r3, r0
 392 016a 1B68     		ldr	r3, [r3]
 393 016c 3B62     		str	r3, [r7, #32]
  75:../../source/src/kernel/OS_CORE/mutex.c **** 		if(MUTEX_ptr->owner_TCB_ptr->prio > TCB_ptr->prio)
 394              		.loc 1 75 0
 395 016e 7B68     		ldr	r3, [r7, #4]
 396 0170 5B68     		ldr	r3, [r3, #4]
 397 0172 5A69     		ldr	r2, [r3, #20]
 398 0174 3B6A     		ldr	r3, [r7, #32]
 399 0176 5B69     		ldr	r3, [r3, #20]
 400 0178 9A42     		cmp	r2, r3
 401 017a 12D9     		bls	.L23
  76:../../source/src/kernel/OS_CORE/mutex.c **** 		{
  77:../../source/src/kernel/OS_CORE/mutex.c **** 			if(RESERVED_PRIO == MUTEX_ptr->owner_TCB_ptr->reserve_prio)
 402              		.loc 1 77 0
 403 017c 7B68     		ldr	r3, [r7, #4]
 404 017e 5B68     		ldr	r3, [r3, #4]
 405 0180 DB68     		ldr	r3, [r3, #12]
 406 0182 002B     		cmp	r3, #0
 407 0184 05D1     		bne	.L24
  78:../../source/src/kernel/OS_CORE/mutex.c **** 			{
  79:../../source/src/kernel/OS_CORE/mutex.c **** 				MUTEX_ptr->owner_TCB_ptr->reserve_prio = MUTEX_ptr->owner_TCB_ptr->prio;
 408              		.loc 1 79 0
 409 0186 7B68     		ldr	r3, [r7, #4]
 410 0188 5A68     		ldr	r2, [r3, #4]
 411 018a 7B68     		ldr	r3, [r7, #4]
 412 018c 5B68     		ldr	r3, [r3, #4]
 413 018e 5269     		ldr	r2, [r2, #20]
 414 0190 DA60     		str	r2, [r3, #12]
 415              	.L24:
  80:../../source/src/kernel/OS_CORE/mutex.c **** 			}
  81:../../source/src/kernel/OS_CORE/mutex.c **** 			task_change_prio(MUTEX_ptr->owner_TCB_ptr,TCB_ptr->prio);
 416              		.loc 1 81 0
 417 0192 7B68     		ldr	r3, [r7, #4]
 418 0194 5A68     		ldr	r2, [r3, #4]
 419 0196 3B6A     		ldr	r3, [r7, #32]
 420 0198 5B69     		ldr	r3, [r3, #20]
 421 019a 1946     		mov	r1, r3
 422 019c 1046     		mov	r0, r2
ARM GAS  G:\Users\Jaxb\AppData\Local\Temp\ccFImDCu.s 			page 10


 423 019e FFF7FEFF 		bl	task_change_prio
 424              	.L23:
  82:../../source/src/kernel/OS_CORE/mutex.c **** 		}
  83:../../source/src/kernel/OS_CORE/mutex.c **** 		sys_suspend(STATE_WAIT_MUTEX_FOREVER);
 425              		.loc 1 83 0
 426 01a2 0A20     		movs	r0, #10
 427 01a4 FFF7FEFF 		bl	sys_suspend
  84:../../source/src/kernel/OS_CORE/mutex.c **** 		CPU_CRITICAL_EXIT(); 
 428              		.loc 1 84 0
 429 01a8 786A     		ldr	r0, [r7, #36]
 430 01aa FFF7FEFF 		bl	CPU_SR_Restore
  85:../../source/src/kernel/OS_CORE/mutex.c **** 		/*go back here=========go back here*/
  86:../../source/src/kernel/OS_CORE/mutex.c **** 		CPU_CRITICAL_ENTER();
 431              		.loc 1 86 0
 432 01ae FFF7FEFF 		bl	CPU_SR_Save
 433 01b2 7862     		str	r0, [r7, #36]
  87:../../source/src/kernel/OS_CORE/mutex.c **** 		if(TCB_state_is_bad(OSTCBCurPtr))
 434              		.loc 1 87 0
 435 01b4 0F4B     		ldr	r3, .L27+4
 436 01b6 1B68     		ldr	r3, [r3]
 437 01b8 9B6B     		ldr	r3, [r3, #56]
 438 01ba 03F00203 		and	r3, r3, #2
 439 01be 002B     		cmp	r3, #0
 440 01c0 0DD0     		beq	.L25
  88:../../source/src/kernel/OS_CORE/mutex.c **** 		{
  89:../../source/src/kernel/OS_CORE/mutex.c **** 			clear_bad_state(OSTCBCurPtr);
 441              		.loc 1 89 0
 442 01c2 0C4B     		ldr	r3, .L27+4
 443 01c4 1B68     		ldr	r3, [r3]
 444 01c6 9A6B     		ldr	r2, [r3, #56]
 445 01c8 0A4B     		ldr	r3, .L27+4
 446 01ca 1B68     		ldr	r3, [r3]
 447 01cc 22F00202 		bic	r2, r2, #2
 448 01d0 9A63     		str	r2, [r3, #56]
  90:../../source/src/kernel/OS_CORE/mutex.c **** 			CPU_CRITICAL_EXIT();
 449              		.loc 1 90 0
 450 01d2 786A     		ldr	r0, [r7, #36]
 451 01d4 FFF7FEFF 		bl	CPU_SR_Restore
  91:../../source/src/kernel/OS_CORE/mutex.c **** 			return -ERROR_MODULE_DELETED;
 452              		.loc 1 91 0
 453 01d8 6FF0F903 		mvn	r3, #249
 454 01dc 03E0     		b	.L26
 455              	.L25:
  92:../../source/src/kernel/OS_CORE/mutex.c **** 		}
  93:../../source/src/kernel/OS_CORE/mutex.c **** 		CPU_CRITICAL_EXIT();
 456              		.loc 1 93 0
 457 01de 786A     		ldr	r0, [r7, #36]
 458 01e0 FFF7FEFF 		bl	CPU_SR_Restore
 459              	.L19:
 460              	.LBE2:
  94:../../source/src/kernel/OS_CORE/mutex.c **** 	}
  95:../../source/src/kernel/OS_CORE/mutex.c **** 	return FUN_EXECUTE_SUCCESSFULLY;
 461              		.loc 1 95 0
 462 01e4 0023     		movs	r3, #0
 463              	.L26:
  96:../../source/src/kernel/OS_CORE/mutex.c **** }
 464              		.loc 1 96 0
ARM GAS  G:\Users\Jaxb\AppData\Local\Temp\ccFImDCu.s 			page 11


 465 01e6 1846     		mov	r0, r3
 466 01e8 2837     		adds	r7, r7, #40
 467              	.LCFI25:
 468              		.cfi_def_cfa_offset 8
 469 01ea BD46     		mov	sp, r7
 470              	.LCFI26:
 471              		.cfi_def_cfa_register 13
 472              		@ sp needed
 473 01ec 80BD     		pop	{r7, pc}
 474              	.L28:
 475 01ee 00BF     		.align	2
 476              	.L27:
 477 01f0 00000000 		.word	.LC0
 478 01f4 00000000 		.word	OSTCBCurPtr
 479              		.cfi_endproc
 480              	.LFE15:
 481              		.size	_mutex_lock, .-_mutex_lock
 482              		.section	.rodata
 483              		.align	2
 484              	.LC2:
 485 005c 6572726F 		.ascii	"error fun name : mutex_lock\012error para : MUTEX_p"
 485      72206675 
 485      6E206E61 
 485      6D65203A 
 485      206D7574 
 486 008c 74720A00 		.ascii	"tr\012\000"
 487              		.text
 488              		.align	1
 489              		.global	mutex_lock
 490              		.syntax unified
 491              		.thumb
 492              		.thumb_func
 493              		.fpu softvfp
 494              		.type	mutex_lock, %function
 495              	mutex_lock:
 496              	.LFB16:
  97:../../source/src/kernel/OS_CORE/mutex.c **** 
  98:../../source/src/kernel/OS_CORE/mutex.c **** int mutex_lock(MUTEX *MUTEX_ptr)
  99:../../source/src/kernel/OS_CORE/mutex.c **** {
 497              		.loc 1 99 0
 498              		.cfi_startproc
 499              		@ args = 0, pretend = 0, frame = 8
 500              		@ frame_needed = 1, uses_anonymous_args = 0
 501 01f8 80B5     		push	{r7, lr}
 502              	.LCFI27:
 503              		.cfi_def_cfa_offset 8
 504              		.cfi_offset 7, -8
 505              		.cfi_offset 14, -4
 506 01fa 82B0     		sub	sp, sp, #8
 507              	.LCFI28:
 508              		.cfi_def_cfa_offset 16
 509 01fc 00AF     		add	r7, sp, #0
 510              	.LCFI29:
 511              		.cfi_def_cfa_register 7
 512 01fe 7860     		str	r0, [r7, #4]
 100:../../source/src/kernel/OS_CORE/mutex.c **** 	if(NULL == MUTEX_ptr)
 513              		.loc 1 100 0
ARM GAS  G:\Users\Jaxb\AppData\Local\Temp\ccFImDCu.s 			page 12


 514 0200 7B68     		ldr	r3, [r7, #4]
 515 0202 002B     		cmp	r3, #0
 516 0204 05D1     		bne	.L30
 101:../../source/src/kernel/OS_CORE/mutex.c **** 	{
 102:../../source/src/kernel/OS_CORE/mutex.c **** 		OS_ERROR_PARA_MESSAGE_DISPLAY(mutex_lock,MUTEX_ptr);
 517              		.loc 1 102 0
 518 0206 0A48     		ldr	r0, .L33
 519 0208 FFF7FEFF 		bl	ka_printf
 103:../../source/src/kernel/OS_CORE/mutex.c **** 		return -ERROR_NULL_INPUT_PTR;
 520              		.loc 1 103 0
 521 020c 6FF0FE03 		mvn	r3, #254
 522 0210 0AE0     		b	.L31
 523              	.L30:
 104:../../source/src/kernel/OS_CORE/mutex.c **** 	}
 105:../../source/src/kernel/OS_CORE/mutex.c **** 	if (g_interrupt_count > 0)
 524              		.loc 1 105 0
 525 0212 084B     		ldr	r3, .L33+4
 526 0214 1B68     		ldr	r3, [r3]
 527 0216 002B     		cmp	r3, #0
 528 0218 02DD     		ble	.L32
 106:../../source/src/kernel/OS_CORE/mutex.c **** 	{
 107:../../source/src/kernel/OS_CORE/mutex.c **** 		return -ERROR_FUN_USE_IN_INTER;
 529              		.loc 1 107 0
 530 021a 6FF0FC03 		mvn	r3, #252
 531 021e 03E0     		b	.L31
 532              	.L32:
 108:../../source/src/kernel/OS_CORE/mutex.c **** 	}
 109:../../source/src/kernel/OS_CORE/mutex.c **** 	return _mutex_lock(MUTEX_ptr);
 533              		.loc 1 109 0
 534 0220 7868     		ldr	r0, [r7, #4]
 535 0222 FFF7FEFF 		bl	_mutex_lock
 536 0226 0346     		mov	r3, r0
 537              	.L31:
 110:../../source/src/kernel/OS_CORE/mutex.c **** }
 538              		.loc 1 110 0
 539 0228 1846     		mov	r0, r3
 540 022a 0837     		adds	r7, r7, #8
 541              	.LCFI30:
 542              		.cfi_def_cfa_offset 8
 543 022c BD46     		mov	sp, r7
 544              	.LCFI31:
 545              		.cfi_def_cfa_register 13
 546              		@ sp needed
 547 022e 80BD     		pop	{r7, pc}
 548              	.L34:
 549              		.align	2
 550              	.L33:
 551 0230 5C000000 		.word	.LC2
 552 0234 00000000 		.word	g_interrupt_count
 553              		.cfi_endproc
 554              	.LFE16:
 555              		.size	mutex_lock, .-mutex_lock
 556              		.global	__rtmsym_mutex_lock_name
 557              		.section	.rodata.name
 558 000b 00       		.align	2
 559              		.type	__rtmsym_mutex_lock_name, %object
 560              		.size	__rtmsym_mutex_lock_name, 11
ARM GAS  G:\Users\Jaxb\AppData\Local\Temp\ccFImDCu.s 			page 13


 561              	__rtmsym_mutex_lock_name:
 562 000c 6D757465 		.ascii	"mutex_lock\000"
 562      785F6C6F 
 562      636B00
 563              		.global	__rtmsym_mutex_lock
 564              		.section	.RTMSymTab
 565              		.align	2
 566              		.type	__rtmsym_mutex_lock, %object
 567              		.size	__rtmsym_mutex_lock, 8
 568              	__rtmsym_mutex_lock:
 569 0008 00000000 		.word	mutex_lock
 570 000c 00000000 		.word	__rtmsym_mutex_lock_name
 571              		.text
 572              		.align	1
 573              		.global	_mutex_try_lock
 574              		.syntax unified
 575              		.thumb
 576              		.thumb_func
 577              		.fpu softvfp
 578              		.type	_mutex_try_lock, %function
 579              	_mutex_try_lock:
 580              	.LFB17:
 111:../../source/src/kernel/OS_CORE/mutex.c **** EXPORT_SYMBOL(mutex_lock);
 112:../../source/src/kernel/OS_CORE/mutex.c **** 
 113:../../source/src/kernel/OS_CORE/mutex.c **** int _mutex_try_lock(MUTEX *MUTEX_ptr)
 114:../../source/src/kernel/OS_CORE/mutex.c **** {
 581              		.loc 1 114 0
 582              		.cfi_startproc
 583              		@ args = 0, pretend = 0, frame = 16
 584              		@ frame_needed = 1, uses_anonymous_args = 0
 585 0238 80B5     		push	{r7, lr}
 586              	.LCFI32:
 587              		.cfi_def_cfa_offset 8
 588              		.cfi_offset 7, -8
 589              		.cfi_offset 14, -4
 590 023a 84B0     		sub	sp, sp, #16
 591              	.LCFI33:
 592              		.cfi_def_cfa_offset 24
 593 023c 00AF     		add	r7, sp, #0
 594              	.LCFI34:
 595              		.cfi_def_cfa_register 7
 596 023e 7860     		str	r0, [r7, #4]
 115:../../source/src/kernel/OS_CORE/mutex.c **** 	ASSERT(NULL != MUTEX_ptr);
 597              		.loc 1 115 0
 598 0240 7B68     		ldr	r3, [r7, #4]
 599 0242 002B     		cmp	r3, #0
 600 0244 03D1     		bne	.L36
 601              		.loc 1 115 0 is_stmt 0 discriminator 1
 602 0246 7321     		movs	r1, #115
 603 0248 1448     		ldr	r0, .L40
 604 024a FFF7FEFF 		bl	_ASSERT
 605              	.L36:
 116:../../source/src/kernel/OS_CORE/mutex.c **** 	CPU_SR_ALLOC();
 606              		.loc 1 116 0 is_stmt 1
 607 024e 0023     		movs	r3, #0
 608 0250 FB60     		str	r3, [r7, #12]
 117:../../source/src/kernel/OS_CORE/mutex.c **** 	CPU_CRITICAL_ENTER();
ARM GAS  G:\Users\Jaxb\AppData\Local\Temp\ccFImDCu.s 			page 14


 609              		.loc 1 117 0
 610 0252 FFF7FEFF 		bl	CPU_SR_Save
 611 0256 F860     		str	r0, [r7, #12]
 118:../../source/src/kernel/OS_CORE/mutex.c **** 	if(MUTEX_UNLOCK == MUTEX_ptr->mutex_flag)
 612              		.loc 1 118 0
 613 0258 7B68     		ldr	r3, [r7, #4]
 614 025a 1B68     		ldr	r3, [r3]
 615 025c 012B     		cmp	r3, #1
 616 025e 0BD1     		bne	.L37
 119:../../source/src/kernel/OS_CORE/mutex.c **** 	{
 120:../../source/src/kernel/OS_CORE/mutex.c **** 		MUTEX_ptr->mutex_flag = MUTEX_LOCK;
 617              		.loc 1 120 0
 618 0260 7B68     		ldr	r3, [r7, #4]
 619 0262 0022     		movs	r2, #0
 620 0264 1A60     		str	r2, [r3]
 121:../../source/src/kernel/OS_CORE/mutex.c **** 		MUTEX_ptr->owner_TCB_ptr = (TCB *)OSTCBCurPtr;
 621              		.loc 1 121 0
 622 0266 0E4B     		ldr	r3, .L40+4
 623 0268 1A68     		ldr	r2, [r3]
 624 026a 7B68     		ldr	r3, [r7, #4]
 625 026c 5A60     		str	r2, [r3, #4]
 122:../../source/src/kernel/OS_CORE/mutex.c **** 		CPU_CRITICAL_EXIT();
 626              		.loc 1 122 0
 627 026e F868     		ldr	r0, [r7, #12]
 628 0270 FFF7FEFF 		bl	CPU_SR_Restore
 123:../../source/src/kernel/OS_CORE/mutex.c **** 		return FUN_EXECUTE_SUCCESSFULLY;
 629              		.loc 1 123 0
 630 0274 0023     		movs	r3, #0
 631 0276 0CE0     		b	.L38
 632              	.L37:
 124:../../source/src/kernel/OS_CORE/mutex.c **** 	}
 125:../../source/src/kernel/OS_CORE/mutex.c **** 	else
 126:../../source/src/kernel/OS_CORE/mutex.c **** 	{
 127:../../source/src/kernel/OS_CORE/mutex.c **** 		ASSERT(MUTEX_LOCK == MUTEX_ptr->mutex_flag);
 633              		.loc 1 127 0
 634 0278 7B68     		ldr	r3, [r7, #4]
 635 027a 1B68     		ldr	r3, [r3]
 636 027c 002B     		cmp	r3, #0
 637 027e 03D0     		beq	.L39
 638              		.loc 1 127 0 is_stmt 0 discriminator 1
 639 0280 7F21     		movs	r1, #127
 640 0282 0648     		ldr	r0, .L40
 641 0284 FFF7FEFF 		bl	_ASSERT
 642              	.L39:
 128:../../source/src/kernel/OS_CORE/mutex.c **** 		CPU_CRITICAL_EXIT(); 
 643              		.loc 1 128 0 is_stmt 1
 644 0288 F868     		ldr	r0, [r7, #12]
 645 028a FFF7FEFF 		bl	CPU_SR_Restore
 129:../../source/src/kernel/OS_CORE/mutex.c **** 		return -ERROR_SYS;
 646              		.loc 1 129 0
 647 028e 6FF0F703 		mvn	r3, #247
 648              	.L38:
 130:../../source/src/kernel/OS_CORE/mutex.c **** 	}
 131:../../source/src/kernel/OS_CORE/mutex.c **** }
 649              		.loc 1 131 0
 650 0292 1846     		mov	r0, r3
 651 0294 1037     		adds	r7, r7, #16
ARM GAS  G:\Users\Jaxb\AppData\Local\Temp\ccFImDCu.s 			page 15


 652              	.LCFI35:
 653              		.cfi_def_cfa_offset 8
 654 0296 BD46     		mov	sp, r7
 655              	.LCFI36:
 656              		.cfi_def_cfa_register 13
 657              		@ sp needed
 658 0298 80BD     		pop	{r7, pc}
 659              	.L41:
 660 029a 00BF     		.align	2
 661              	.L40:
 662 029c 00000000 		.word	.LC0
 663 02a0 00000000 		.word	OSTCBCurPtr
 664              		.cfi_endproc
 665              	.LFE17:
 666              		.size	_mutex_try_lock, .-_mutex_try_lock
 667              		.section	.rodata
 668              		.align	2
 669              	.LC3:
 670 0090 6572726F 		.ascii	"error fun name : mutex_try_lock\012error para : MUT"
 670      72206675 
 670      6E206E61 
 670      6D65203A 
 670      206D7574 
 671 00c0 45585F70 		.ascii	"EX_ptr\012\000"
 671      74720A00 
 672              		.text
 673              		.align	1
 674              		.global	mutex_try_lock
 675              		.syntax unified
 676              		.thumb
 677              		.thumb_func
 678              		.fpu softvfp
 679              		.type	mutex_try_lock, %function
 680              	mutex_try_lock:
 681              	.LFB18:
 132:../../source/src/kernel/OS_CORE/mutex.c **** 
 133:../../source/src/kernel/OS_CORE/mutex.c **** int mutex_try_lock(MUTEX *MUTEX_ptr)
 134:../../source/src/kernel/OS_CORE/mutex.c **** {
 682              		.loc 1 134 0
 683              		.cfi_startproc
 684              		@ args = 0, pretend = 0, frame = 8
 685              		@ frame_needed = 1, uses_anonymous_args = 0
 686 02a4 80B5     		push	{r7, lr}
 687              	.LCFI37:
 688              		.cfi_def_cfa_offset 8
 689              		.cfi_offset 7, -8
 690              		.cfi_offset 14, -4
 691 02a6 82B0     		sub	sp, sp, #8
 692              	.LCFI38:
 693              		.cfi_def_cfa_offset 16
 694 02a8 00AF     		add	r7, sp, #0
 695              	.LCFI39:
 696              		.cfi_def_cfa_register 7
 697 02aa 7860     		str	r0, [r7, #4]
 135:../../source/src/kernel/OS_CORE/mutex.c **** 	if(NULL == MUTEX_ptr)
 698              		.loc 1 135 0
 699 02ac 7B68     		ldr	r3, [r7, #4]
ARM GAS  G:\Users\Jaxb\AppData\Local\Temp\ccFImDCu.s 			page 16


 700 02ae 002B     		cmp	r3, #0
 701 02b0 05D1     		bne	.L43
 136:../../source/src/kernel/OS_CORE/mutex.c **** 	{
 137:../../source/src/kernel/OS_CORE/mutex.c **** 		OS_ERROR_PARA_MESSAGE_DISPLAY(mutex_try_lock,MUTEX_ptr);
 702              		.loc 1 137 0
 703 02b2 0748     		ldr	r0, .L45
 704 02b4 FFF7FEFF 		bl	ka_printf
 138:../../source/src/kernel/OS_CORE/mutex.c **** 		return -ERROR_NULL_INPUT_PTR;
 705              		.loc 1 138 0
 706 02b8 6FF0FE03 		mvn	r3, #254
 707 02bc 03E0     		b	.L44
 708              	.L43:
 139:../../source/src/kernel/OS_CORE/mutex.c **** 	}
 140:../../source/src/kernel/OS_CORE/mutex.c **** 	return _mutex_try_lock(MUTEX_ptr);
 709              		.loc 1 140 0
 710 02be 7868     		ldr	r0, [r7, #4]
 711 02c0 FFF7FEFF 		bl	_mutex_try_lock
 712 02c4 0346     		mov	r3, r0
 713              	.L44:
 141:../../source/src/kernel/OS_CORE/mutex.c **** }
 714              		.loc 1 141 0
 715 02c6 1846     		mov	r0, r3
 716 02c8 0837     		adds	r7, r7, #8
 717              	.LCFI40:
 718              		.cfi_def_cfa_offset 8
 719 02ca BD46     		mov	sp, r7
 720              	.LCFI41:
 721              		.cfi_def_cfa_register 13
 722              		@ sp needed
 723 02cc 80BD     		pop	{r7, pc}
 724              	.L46:
 725 02ce 00BF     		.align	2
 726              	.L45:
 727 02d0 90000000 		.word	.LC3
 728              		.cfi_endproc
 729              	.LFE18:
 730              		.size	mutex_try_lock, .-mutex_try_lock
 731              		.global	__rtmsym_mutex_try_lock_name
 732              		.section	.rodata.name
 733 0017 00       		.align	2
 734              		.type	__rtmsym_mutex_try_lock_name, %object
 735              		.size	__rtmsym_mutex_try_lock_name, 15
 736              	__rtmsym_mutex_try_lock_name:
 737 0018 6D757465 		.ascii	"mutex_try_lock\000"
 737      785F7472 
 737      795F6C6F 
 737      636B00
 738              		.global	__rtmsym_mutex_try_lock
 739              		.section	.RTMSymTab
 740              		.align	2
 741              		.type	__rtmsym_mutex_try_lock, %object
 742              		.size	__rtmsym_mutex_try_lock, 8
 743              	__rtmsym_mutex_try_lock:
 744 0010 00000000 		.word	mutex_try_lock
 745 0014 00000000 		.word	__rtmsym_mutex_try_lock_name
 746              		.text
 747              		.align	1
ARM GAS  G:\Users\Jaxb\AppData\Local\Temp\ccFImDCu.s 			page 17


 748              		.global	_mutex_unlock
 749              		.syntax unified
 750              		.thumb
 751              		.thumb_func
 752              		.fpu softvfp
 753              		.type	_mutex_unlock, %function
 754              	_mutex_unlock:
 755              	.LFB19:
 142:../../source/src/kernel/OS_CORE/mutex.c **** EXPORT_SYMBOL(mutex_try_lock);
 143:../../source/src/kernel/OS_CORE/mutex.c **** 
 144:../../source/src/kernel/OS_CORE/mutex.c **** int _mutex_unlock(MUTEX *MUTEX_ptr)
 145:../../source/src/kernel/OS_CORE/mutex.c **** {
 756              		.loc 1 145 0
 757              		.cfi_startproc
 758              		@ args = 0, pretend = 0, frame = 24
 759              		@ frame_needed = 1, uses_anonymous_args = 0
 760 02d4 80B5     		push	{r7, lr}
 761              	.LCFI42:
 762              		.cfi_def_cfa_offset 8
 763              		.cfi_offset 7, -8
 764              		.cfi_offset 14, -4
 765 02d6 86B0     		sub	sp, sp, #24
 766              	.LCFI43:
 767              		.cfi_def_cfa_offset 32
 768 02d8 00AF     		add	r7, sp, #0
 769              	.LCFI44:
 770              		.cfi_def_cfa_register 7
 771 02da 7860     		str	r0, [r7, #4]
 146:../../source/src/kernel/OS_CORE/mutex.c **** 	ASSERT(NULL != MUTEX_ptr);
 772              		.loc 1 146 0
 773 02dc 7B68     		ldr	r3, [r7, #4]
 774 02de 002B     		cmp	r3, #0
 775 02e0 03D1     		bne	.L48
 776              		.loc 1 146 0 is_stmt 0 discriminator 1
 777 02e2 9221     		movs	r1, #146
 778 02e4 2948     		ldr	r0, .L55
 779 02e6 FFF7FEFF 		bl	_ASSERT
 780              	.L48:
 147:../../source/src/kernel/OS_CORE/mutex.c **** 	CPU_SR_ALLOC();
 781              		.loc 1 147 0 is_stmt 1
 782 02ea 0023     		movs	r3, #0
 783 02ec 7B61     		str	r3, [r7, #20]
 148:../../source/src/kernel/OS_CORE/mutex.c **** 	CPU_CRITICAL_ENTER();
 784              		.loc 1 148 0
 785 02ee FFF7FEFF 		bl	CPU_SR_Save
 786 02f2 7861     		str	r0, [r7, #20]
 149:../../source/src/kernel/OS_CORE/mutex.c **** 	if(MUTEX_UNLOCK == MUTEX_ptr->mutex_flag)
 787              		.loc 1 149 0
 788 02f4 7B68     		ldr	r3, [r7, #4]
 789 02f6 1B68     		ldr	r3, [r3]
 790 02f8 012B     		cmp	r3, #1
 791 02fa 04D1     		bne	.L49
 150:../../source/src/kernel/OS_CORE/mutex.c **** 	{
 151:../../source/src/kernel/OS_CORE/mutex.c **** 		CPU_CRITICAL_EXIT();
 792              		.loc 1 151 0
 793 02fc 7869     		ldr	r0, [r7, #20]
 794 02fe FFF7FEFF 		bl	CPU_SR_Restore
ARM GAS  G:\Users\Jaxb\AppData\Local\Temp\ccFImDCu.s 			page 18


 152:../../source/src/kernel/OS_CORE/mutex.c **** 		return FUN_EXECUTE_SUCCESSFULLY;
 795              		.loc 1 152 0
 796 0302 0023     		movs	r3, #0
 797 0304 3DE0     		b	.L50
 798              	.L49:
 153:../../source/src/kernel/OS_CORE/mutex.c **** 	}
 154:../../source/src/kernel/OS_CORE/mutex.c **** 	else if(MUTEX_ptr->owner_TCB_ptr != OSTCBCurPtr)
 799              		.loc 1 154 0
 800 0306 7B68     		ldr	r3, [r7, #4]
 801 0308 5A68     		ldr	r2, [r3, #4]
 802 030a 214B     		ldr	r3, .L55+4
 803 030c 1B68     		ldr	r3, [r3]
 804 030e 9A42     		cmp	r2, r3
 805 0310 05D0     		beq	.L51
 155:../../source/src/kernel/OS_CORE/mutex.c **** 	{
 156:../../source/src/kernel/OS_CORE/mutex.c **** 		CPU_CRITICAL_EXIT();
 806              		.loc 1 156 0
 807 0312 7869     		ldr	r0, [r7, #20]
 808 0314 FFF7FEFF 		bl	CPU_SR_Restore
 157:../../source/src/kernel/OS_CORE/mutex.c **** 		return -ERROR_SYS;
 809              		.loc 1 157 0
 810 0318 6FF0F703 		mvn	r3, #247
 811 031c 31E0     		b	.L50
 812              	.L51:
 158:../../source/src/kernel/OS_CORE/mutex.c **** 	}
 159:../../source/src/kernel/OS_CORE/mutex.c **** 	if(RESERVED_PRIO != OSTCBCurPtr->reserve_prio)
 813              		.loc 1 159 0
 814 031e 1C4B     		ldr	r3, .L55+4
 815 0320 1B68     		ldr	r3, [r3]
 816 0322 DB68     		ldr	r3, [r3, #12]
 817 0324 002B     		cmp	r3, #0
 818 0326 0DD0     		beq	.L52
 819              	.LBB3:
 160:../../source/src/kernel/OS_CORE/mutex.c **** 	{
 161:../../source/src/kernel/OS_CORE/mutex.c **** 		TASK_PRIO_TYPE buffer = OSTCBCurPtr->reserve_prio;
 820              		.loc 1 161 0
 821 0328 194B     		ldr	r3, .L55+4
 822 032a 1B68     		ldr	r3, [r3]
 823 032c DB68     		ldr	r3, [r3, #12]
 824 032e 3B61     		str	r3, [r7, #16]
 162:../../source/src/kernel/OS_CORE/mutex.c **** 		OSTCBCurPtr->reserve_prio = RESERVED_PRIO;
 825              		.loc 1 162 0
 826 0330 174B     		ldr	r3, .L55+4
 827 0332 1B68     		ldr	r3, [r3]
 828 0334 0022     		movs	r2, #0
 829 0336 DA60     		str	r2, [r3, #12]
 163:../../source/src/kernel/OS_CORE/mutex.c **** 		task_change_prio_self(buffer);
 830              		.loc 1 163 0
 831 0338 154B     		ldr	r3, .L55+4
 832 033a 1B68     		ldr	r3, [r3]
 833 033c 3969     		ldr	r1, [r7, #16]
 834 033e 1846     		mov	r0, r3
 835 0340 FFF7FEFF 		bl	task_change_prio
 836              	.L52:
 837              	.LBE3:
 164:../../source/src/kernel/OS_CORE/mutex.c **** 	}
 165:../../source/src/kernel/OS_CORE/mutex.c **** 	struct insert_sort_data *buffer_ptr = insert_sort_delete_head(&MUTEX_ptr->mutex_insert_sort_TCB_li
ARM GAS  G:\Users\Jaxb\AppData\Local\Temp\ccFImDCu.s 			page 19


 838              		.loc 1 165 0
 839 0344 7B68     		ldr	r3, [r7, #4]
 840 0346 0833     		adds	r3, r3, #8
 841 0348 1846     		mov	r0, r3
 842 034a FFF7FEFF 		bl	insert_sort_delete_head
 843 034e F860     		str	r0, [r7, #12]
 166:../../source/src/kernel/OS_CORE/mutex.c **** 	if(NULL == buffer_ptr) /* no task is waiting for the mutex*/
 844              		.loc 1 166 0
 845 0350 FB68     		ldr	r3, [r7, #12]
 846 0352 002B     		cmp	r3, #0
 847 0354 06D1     		bne	.L53
 167:../../source/src/kernel/OS_CORE/mutex.c **** 	{
 168:../../source/src/kernel/OS_CORE/mutex.c **** 		MUTEX_ptr->mutex_flag = MUTEX_UNLOCK;
 848              		.loc 1 168 0
 849 0356 7B68     		ldr	r3, [r7, #4]
 850 0358 0122     		movs	r2, #1
 851 035a 1A60     		str	r2, [r3]
 169:../../source/src/kernel/OS_CORE/mutex.c **** 		MUTEX_ptr->owner_TCB_ptr = NULL;
 852              		.loc 1 169 0
 853 035c 7B68     		ldr	r3, [r7, #4]
 854 035e 0022     		movs	r2, #0
 855 0360 5A60     		str	r2, [r3, #4]
 856 0362 0AE0     		b	.L54
 857              	.L53:
 170:../../source/src/kernel/OS_CORE/mutex.c **** 	}
 171:../../source/src/kernel/OS_CORE/mutex.c **** 	else/* a task is waiting for the mutex*/
 172:../../source/src/kernel/OS_CORE/mutex.c **** 	{
 173:../../source/src/kernel/OS_CORE/mutex.c **** 		_remove_from_suspend_list((TCB *)(buffer_ptr->data_ptr));
 858              		.loc 1 173 0
 859 0364 FB68     		ldr	r3, [r7, #12]
 860 0366 1B68     		ldr	r3, [r3]
 861 0368 1846     		mov	r0, r3
 862 036a FFF7FEFF 		bl	_remove_from_suspend_list
 174:../../source/src/kernel/OS_CORE/mutex.c **** 		MUTEX_ptr->owner_TCB_ptr = (TCB *)(buffer_ptr->data_ptr);
 863              		.loc 1 174 0
 864 036e FB68     		ldr	r3, [r7, #12]
 865 0370 1A68     		ldr	r2, [r3]
 866 0372 7B68     		ldr	r3, [r7, #4]
 867 0374 5A60     		str	r2, [r3, #4]
 175:../../source/src/kernel/OS_CORE/mutex.c **** 		schedule();
 868              		.loc 1 175 0
 869 0376 FFF7FEFF 		bl	schedule
 870              	.L54:
 176:../../source/src/kernel/OS_CORE/mutex.c **** 	}
 177:../../source/src/kernel/OS_CORE/mutex.c **** 	CPU_CRITICAL_EXIT();
 871              		.loc 1 177 0
 872 037a 7869     		ldr	r0, [r7, #20]
 873 037c FFF7FEFF 		bl	CPU_SR_Restore
 178:../../source/src/kernel/OS_CORE/mutex.c **** 	return FUN_EXECUTE_SUCCESSFULLY;
 874              		.loc 1 178 0
 875 0380 0023     		movs	r3, #0
 876              	.L50:
 179:../../source/src/kernel/OS_CORE/mutex.c **** }
 877              		.loc 1 179 0
 878 0382 1846     		mov	r0, r3
 879 0384 1837     		adds	r7, r7, #24
 880              	.LCFI45:
ARM GAS  G:\Users\Jaxb\AppData\Local\Temp\ccFImDCu.s 			page 20


 881              		.cfi_def_cfa_offset 8
 882 0386 BD46     		mov	sp, r7
 883              	.LCFI46:
 884              		.cfi_def_cfa_register 13
 885              		@ sp needed
 886 0388 80BD     		pop	{r7, pc}
 887              	.L56:
 888 038a 00BF     		.align	2
 889              	.L55:
 890 038c 00000000 		.word	.LC0
 891 0390 00000000 		.word	OSTCBCurPtr
 892              		.cfi_endproc
 893              	.LFE19:
 894              		.size	_mutex_unlock, .-_mutex_unlock
 895              		.section	.rodata
 896              		.align	2
 897              	.LC4:
 898 00c8 6572726F 		.ascii	"error fun name : mutex_unlock\012error para : MUTEX"
 898      72206675 
 898      6E206E61 
 898      6D65203A 
 898      206D7574 
 899 00f8 5F707472 		.ascii	"_ptr\012\000"
 899      0A00
 900              		.text
 901              		.align	1
 902              		.global	mutex_unlock
 903              		.syntax unified
 904              		.thumb
 905              		.thumb_func
 906              		.fpu softvfp
 907              		.type	mutex_unlock, %function
 908              	mutex_unlock:
 909              	.LFB20:
 180:../../source/src/kernel/OS_CORE/mutex.c **** 
 181:../../source/src/kernel/OS_CORE/mutex.c **** int mutex_unlock(MUTEX *MUTEX_ptr)
 182:../../source/src/kernel/OS_CORE/mutex.c **** {
 910              		.loc 1 182 0
 911              		.cfi_startproc
 912              		@ args = 0, pretend = 0, frame = 8
 913              		@ frame_needed = 1, uses_anonymous_args = 0
 914 0394 80B5     		push	{r7, lr}
 915              	.LCFI47:
 916              		.cfi_def_cfa_offset 8
 917              		.cfi_offset 7, -8
 918              		.cfi_offset 14, -4
 919 0396 82B0     		sub	sp, sp, #8
 920              	.LCFI48:
 921              		.cfi_def_cfa_offset 16
 922 0398 00AF     		add	r7, sp, #0
 923              	.LCFI49:
 924              		.cfi_def_cfa_register 7
 925 039a 7860     		str	r0, [r7, #4]
 183:../../source/src/kernel/OS_CORE/mutex.c **** 	if(NULL == MUTEX_ptr)
 926              		.loc 1 183 0
 927 039c 7B68     		ldr	r3, [r7, #4]
 928 039e 002B     		cmp	r3, #0
ARM GAS  G:\Users\Jaxb\AppData\Local\Temp\ccFImDCu.s 			page 21


 929 03a0 05D1     		bne	.L58
 184:../../source/src/kernel/OS_CORE/mutex.c **** 	{
 185:../../source/src/kernel/OS_CORE/mutex.c **** 		OS_ERROR_PARA_MESSAGE_DISPLAY(mutex_unlock,MUTEX_ptr);
 930              		.loc 1 185 0
 931 03a2 0748     		ldr	r0, .L60
 932 03a4 FFF7FEFF 		bl	ka_printf
 186:../../source/src/kernel/OS_CORE/mutex.c **** 		return -ERROR_NULL_INPUT_PTR;
 933              		.loc 1 186 0
 934 03a8 6FF0FE03 		mvn	r3, #254
 935 03ac 03E0     		b	.L59
 936              	.L58:
 187:../../source/src/kernel/OS_CORE/mutex.c **** 	}
 188:../../source/src/kernel/OS_CORE/mutex.c **** 	return _mutex_unlock(MUTEX_ptr);
 937              		.loc 1 188 0
 938 03ae 7868     		ldr	r0, [r7, #4]
 939 03b0 FFF7FEFF 		bl	_mutex_unlock
 940 03b4 0346     		mov	r3, r0
 941              	.L59:
 189:../../source/src/kernel/OS_CORE/mutex.c **** }
 942              		.loc 1 189 0
 943 03b6 1846     		mov	r0, r3
 944 03b8 0837     		adds	r7, r7, #8
 945              	.LCFI50:
 946              		.cfi_def_cfa_offset 8
 947 03ba BD46     		mov	sp, r7
 948              	.LCFI51:
 949              		.cfi_def_cfa_register 13
 950              		@ sp needed
 951 03bc 80BD     		pop	{r7, pc}
 952              	.L61:
 953 03be 00BF     		.align	2
 954              	.L60:
 955 03c0 C8000000 		.word	.LC4
 956              		.cfi_endproc
 957              	.LFE20:
 958              		.size	mutex_unlock, .-mutex_unlock
 959              		.global	__rtmsym_mutex_unlock_name
 960              		.section	.rodata.name
 961 0027 00       		.align	2
 962              		.type	__rtmsym_mutex_unlock_name, %object
 963              		.size	__rtmsym_mutex_unlock_name, 13
 964              	__rtmsym_mutex_unlock_name:
 965 0028 6D757465 		.ascii	"mutex_unlock\000"
 965      785F756E 
 965      6C6F636B 
 965      00
 966              		.global	__rtmsym_mutex_unlock
 967              		.section	.RTMSymTab
 968              		.align	2
 969              		.type	__rtmsym_mutex_unlock, %object
 970              		.size	__rtmsym_mutex_unlock, 8
 971              	__rtmsym_mutex_unlock:
 972 0018 00000000 		.word	mutex_unlock
 973 001c 00000000 		.word	__rtmsym_mutex_unlock_name
 974              		.text
 975              		.align	1
 976              		.global	_mutex_del
ARM GAS  G:\Users\Jaxb\AppData\Local\Temp\ccFImDCu.s 			page 22


 977              		.syntax unified
 978              		.thumb
 979              		.thumb_func
 980              		.fpu softvfp
 981              		.type	_mutex_del, %function
 982              	_mutex_del:
 983              	.LFB21:
 190:../../source/src/kernel/OS_CORE/mutex.c **** EXPORT_SYMBOL(mutex_unlock);
 191:../../source/src/kernel/OS_CORE/mutex.c **** 
 192:../../source/src/kernel/OS_CORE/mutex.c **** int _mutex_del(MUTEX *MUTEX_ptr)
 193:../../source/src/kernel/OS_CORE/mutex.c **** {
 984              		.loc 1 193 0
 985              		.cfi_startproc
 986              		@ args = 0, pretend = 0, frame = 16
 987              		@ frame_needed = 1, uses_anonymous_args = 0
 988 03c4 80B5     		push	{r7, lr}
 989              	.LCFI52:
 990              		.cfi_def_cfa_offset 8
 991              		.cfi_offset 7, -8
 992              		.cfi_offset 14, -4
 993 03c6 84B0     		sub	sp, sp, #16
 994              	.LCFI53:
 995              		.cfi_def_cfa_offset 24
 996 03c8 00AF     		add	r7, sp, #0
 997              	.LCFI54:
 998              		.cfi_def_cfa_register 7
 999 03ca 7860     		str	r0, [r7, #4]
 194:../../source/src/kernel/OS_CORE/mutex.c **** 	ASSERT(NULL != MUTEX_ptr);
 1000              		.loc 1 194 0
 1001 03cc 7B68     		ldr	r3, [r7, #4]
 1002 03ce 002B     		cmp	r3, #0
 1003 03d0 03D1     		bne	.L63
 1004              		.loc 1 194 0 is_stmt 0 discriminator 1
 1005 03d2 C221     		movs	r1, #194
 1006 03d4 1548     		ldr	r0, .L68
 1007 03d6 FFF7FEFF 		bl	_ASSERT
 1008              	.L63:
 195:../../source/src/kernel/OS_CORE/mutex.c **** 	TCB *TCB_ptr;
 196:../../source/src/kernel/OS_CORE/mutex.c **** 	struct insert_sort_data *insert_sort_data_ptr = insert_sort_delete_head(&MUTEX_ptr->mutex_insert_s
 1009              		.loc 1 196 0 is_stmt 1
 1010 03da 7B68     		ldr	r3, [r7, #4]
 1011 03dc 0833     		adds	r3, r3, #8
 1012 03de 1846     		mov	r0, r3
 1013 03e0 FFF7FEFF 		bl	insert_sort_delete_head
 1014 03e4 F860     		str	r0, [r7, #12]
 197:../../source/src/kernel/OS_CORE/mutex.c **** 	while(NULL != insert_sort_data_ptr)
 1015              		.loc 1 197 0
 1016 03e6 19E0     		b	.L64
 1017              	.L66:
 198:../../source/src/kernel/OS_CORE/mutex.c **** 	{
 199:../../source/src/kernel/OS_CORE/mutex.c **** 		TCB_ptr = (TCB *)(insert_sort_data_ptr->data_ptr);
 1018              		.loc 1 199 0
 1019 03e8 FB68     		ldr	r3, [r7, #12]
 1020 03ea 1B68     		ldr	r3, [r3]
 1021 03ec BB60     		str	r3, [r7, #8]
 200:../../source/src/kernel/OS_CORE/mutex.c **** 		ASSERT(STATE_WAIT_MUTEX_FOREVER == TCB_ptr->task_state);
 1022              		.loc 1 200 0
ARM GAS  G:\Users\Jaxb\AppData\Local\Temp\ccFImDCu.s 			page 23


 1023 03ee BB68     		ldr	r3, [r7, #8]
 1024 03f0 1B7C     		ldrb	r3, [r3, #16]	@ zero_extendqisi2
 1025 03f2 0A2B     		cmp	r3, #10
 1026 03f4 03D0     		beq	.L65
 1027              		.loc 1 200 0 is_stmt 0 discriminator 1
 1028 03f6 C821     		movs	r1, #200
 1029 03f8 0C48     		ldr	r0, .L68
 1030 03fa FFF7FEFF 		bl	_ASSERT
 1031              	.L65:
 201:../../source/src/kernel/OS_CORE/mutex.c **** 		_remove_from_suspend_list(TCB_ptr);
 1032              		.loc 1 201 0 is_stmt 1
 1033 03fe B868     		ldr	r0, [r7, #8]
 1034 0400 FFF7FEFF 		bl	_remove_from_suspend_list
 202:../../source/src/kernel/OS_CORE/mutex.c **** 		set_bad_state(TCB_ptr);
 1035              		.loc 1 202 0
 1036 0404 BB68     		ldr	r3, [r7, #8]
 1037 0406 9B6B     		ldr	r3, [r3, #56]
 1038 0408 43F00202 		orr	r2, r3, #2
 1039 040c BB68     		ldr	r3, [r7, #8]
 1040 040e 9A63     		str	r2, [r3, #56]
 203:../../source/src/kernel/OS_CORE/mutex.c **** 		insert_sort_data_ptr = insert_sort_delete_head(&MUTEX_ptr->mutex_insert_sort_TCB_list);
 1041              		.loc 1 203 0
 1042 0410 7B68     		ldr	r3, [r7, #4]
 1043 0412 0833     		adds	r3, r3, #8
 1044 0414 1846     		mov	r0, r3
 1045 0416 FFF7FEFF 		bl	insert_sort_delete_head
 1046 041a F860     		str	r0, [r7, #12]
 1047              	.L64:
 197:../../source/src/kernel/OS_CORE/mutex.c **** 	{
 1048              		.loc 1 197 0
 1049 041c FB68     		ldr	r3, [r7, #12]
 1050 041e 002B     		cmp	r3, #0
 1051 0420 E2D1     		bne	.L66
 204:../../source/src/kernel/OS_CORE/mutex.c **** 	}
 205:../../source/src/kernel/OS_CORE/mutex.c **** 	return FUN_EXECUTE_SUCCESSFULLY;
 1052              		.loc 1 205 0
 1053 0422 0023     		movs	r3, #0
 206:../../source/src/kernel/OS_CORE/mutex.c **** }
 1054              		.loc 1 206 0
 1055 0424 1846     		mov	r0, r3
 1056 0426 1037     		adds	r7, r7, #16
 1057              	.LCFI55:
 1058              		.cfi_def_cfa_offset 8
 1059 0428 BD46     		mov	sp, r7
 1060              	.LCFI56:
 1061              		.cfi_def_cfa_register 13
 1062              		@ sp needed
 1063 042a 80BD     		pop	{r7, pc}
 1064              	.L69:
 1065              		.align	2
 1066              	.L68:
 1067 042c 00000000 		.word	.LC0
 1068              		.cfi_endproc
 1069              	.LFE21:
 1070              		.size	_mutex_del, .-_mutex_del
 1071              		.section	.rodata
 1072 00fe 0000     		.align	2
ARM GAS  G:\Users\Jaxb\AppData\Local\Temp\ccFImDCu.s 			page 24


 1073              	.LC5:
 1074 0100 6572726F 		.ascii	"error fun name : mutex_del\012error para : MUTEX_pt"
 1074      72206675 
 1074      6E206E61 
 1074      6D65203A 
 1074      206D7574 
 1075 0130 720A00   		.ascii	"r\012\000"
 1076              		.text
 1077              		.align	1
 1078              		.global	mutex_del
 1079              		.syntax unified
 1080              		.thumb
 1081              		.thumb_func
 1082              		.fpu softvfp
 1083              		.type	mutex_del, %function
 1084              	mutex_del:
 1085              	.LFB22:
 207:../../source/src/kernel/OS_CORE/mutex.c **** 
 208:../../source/src/kernel/OS_CORE/mutex.c **** int mutex_del(MUTEX *MUTEX_ptr)
 209:../../source/src/kernel/OS_CORE/mutex.c **** {
 1086              		.loc 1 209 0
 1087              		.cfi_startproc
 1088              		@ args = 0, pretend = 0, frame = 8
 1089              		@ frame_needed = 1, uses_anonymous_args = 0
 1090 0430 80B5     		push	{r7, lr}
 1091              	.LCFI57:
 1092              		.cfi_def_cfa_offset 8
 1093              		.cfi_offset 7, -8
 1094              		.cfi_offset 14, -4
 1095 0432 82B0     		sub	sp, sp, #8
 1096              	.LCFI58:
 1097              		.cfi_def_cfa_offset 16
 1098 0434 00AF     		add	r7, sp, #0
 1099              	.LCFI59:
 1100              		.cfi_def_cfa_register 7
 1101 0436 7860     		str	r0, [r7, #4]
 210:../../source/src/kernel/OS_CORE/mutex.c **** 	if(NULL == MUTEX_ptr)
 1102              		.loc 1 210 0
 1103 0438 7B68     		ldr	r3, [r7, #4]
 1104 043a 002B     		cmp	r3, #0
 1105 043c 05D1     		bne	.L71
 211:../../source/src/kernel/OS_CORE/mutex.c **** 	{
 212:../../source/src/kernel/OS_CORE/mutex.c **** 		OS_ERROR_PARA_MESSAGE_DISPLAY(mutex_del,MUTEX_ptr);
 1106              		.loc 1 212 0
 1107 043e 0748     		ldr	r0, .L73
 1108 0440 FFF7FEFF 		bl	ka_printf
 213:../../source/src/kernel/OS_CORE/mutex.c **** 		return -ERROR_NULL_INPUT_PTR;
 1109              		.loc 1 213 0
 1110 0444 6FF0FE03 		mvn	r3, #254
 1111 0448 03E0     		b	.L72
 1112              	.L71:
 214:../../source/src/kernel/OS_CORE/mutex.c **** 	}
 215:../../source/src/kernel/OS_CORE/mutex.c **** 	return _mutex_del(MUTEX_ptr);
 1113              		.loc 1 215 0
 1114 044a 7868     		ldr	r0, [r7, #4]
 1115 044c FFF7FEFF 		bl	_mutex_del
 1116 0450 0346     		mov	r3, r0
ARM GAS  G:\Users\Jaxb\AppData\Local\Temp\ccFImDCu.s 			page 25


 1117              	.L72:
 216:../../source/src/kernel/OS_CORE/mutex.c **** }
 1118              		.loc 1 216 0
 1119 0452 1846     		mov	r0, r3
 1120 0454 0837     		adds	r7, r7, #8
 1121              	.LCFI60:
 1122              		.cfi_def_cfa_offset 8
 1123 0456 BD46     		mov	sp, r7
 1124              	.LCFI61:
 1125              		.cfi_def_cfa_register 13
 1126              		@ sp needed
 1127 0458 80BD     		pop	{r7, pc}
 1128              	.L74:
 1129 045a 00BF     		.align	2
 1130              	.L73:
 1131 045c 00010000 		.word	.LC5
 1132              		.cfi_endproc
 1133              	.LFE22:
 1134              		.size	mutex_del, .-mutex_del
 1135              		.global	__rtmsym_mutex_del_name
 1136              		.section	.rodata.name
 1137 0035 000000   		.align	2
 1138              		.type	__rtmsym_mutex_del_name, %object
 1139              		.size	__rtmsym_mutex_del_name, 10
 1140              	__rtmsym_mutex_del_name:
 1141 0038 6D757465 		.ascii	"mutex_del\000"
 1141      785F6465 
 1141      6C00
 1142              		.global	__rtmsym_mutex_del
 1143              		.section	.RTMSymTab
 1144              		.align	2
 1145              		.type	__rtmsym_mutex_del, %object
 1146              		.size	__rtmsym_mutex_del, 8
 1147              	__rtmsym_mutex_del:
 1148 0020 00000000 		.word	mutex_del
 1149 0024 00000000 		.word	__rtmsym_mutex_del_name
 1150              		.text
 1151              	.Letext0:
 1152              		.file 2 "../../source/include/os_lib/double_linked_list.h"
 1153              		.file 3 "../../source/include/os_cpu/kakaosstdint.h"
 1154              		.file 4 "../../source/include/os_lib/insert_sort_oo.h"
 1155              		.file 5 "../../source/include/os_core/task_state.h"
 1156              		.file 6 "../../source/include/os_cpu/os_cpu_stm32.h"
 1157              		.file 7 "../../source/include/os_core/TCB.h"
 1158              		.file 8 "../../source/include/os_core/mutex.h"
 1159              		.file 9 "../../source/include/os_core/export.h"
 1160              		.section	.debug_info,"",%progbits
 1161              	.Ldebug_info0:
 1162 0000 C4070000 		.4byte	0x7c4
 1163 0004 0200     		.2byte	0x2
 1164 0006 00000000 		.4byte	.Ldebug_abbrev0
 1165 000a 04       		.byte	0x4
 1166 000b 01       		.uleb128 0x1
 1167 000c 60050000 		.4byte	.LASF97
 1168 0010 0C       		.byte	0xc
 1169 0011 39040000 		.4byte	.LASF98
 1170 0015 FF010000 		.4byte	.LASF99
ARM GAS  G:\Users\Jaxb\AppData\Local\Temp\ccFImDCu.s 			page 26


 1171 0019 00000000 		.4byte	.Ltext0
 1172 001d 60040000 		.4byte	.Letext0
 1173 0021 00000000 		.4byte	.Ldebug_line0
 1174 0025 02       		.uleb128 0x2
 1175 0026 75000000 		.4byte	.LASF12
 1176 002a 08       		.byte	0x8
 1177 002b 02       		.byte	0x2
 1178 002c 04       		.byte	0x4
 1179 002d 4E000000 		.4byte	0x4e
 1180 0031 03       		.uleb128 0x3
 1181 0032 7B060000 		.4byte	.LASF0
 1182 0036 02       		.byte	0x2
 1183 0037 05       		.byte	0x5
 1184 0038 4E000000 		.4byte	0x4e
 1185 003c 02       		.byte	0x2
 1186 003d 23       		.byte	0x23
 1187 003e 00       		.uleb128 0
 1188 003f 03       		.uleb128 0x3
 1189 0040 3B060000 		.4byte	.LASF1
 1190 0044 02       		.byte	0x2
 1191 0045 05       		.byte	0x5
 1192 0046 4E000000 		.4byte	0x4e
 1193 004a 02       		.byte	0x2
 1194 004b 23       		.byte	0x23
 1195 004c 04       		.uleb128 0x4
 1196 004d 00       		.byte	0
 1197 004e 04       		.uleb128 0x4
 1198 004f 04       		.byte	0x4
 1199 0050 25000000 		.4byte	0x25
 1200 0054 05       		.uleb128 0x5
 1201 0055 01       		.byte	0x1
 1202 0056 06       		.byte	0x6
 1203 0057 06030000 		.4byte	.LASF2
 1204 005b 05       		.uleb128 0x5
 1205 005c 02       		.byte	0x2
 1206 005d 05       		.byte	0x5
 1207 005e CA000000 		.4byte	.LASF3
 1208 0062 06       		.uleb128 0x6
 1209 0063 04       		.byte	0x4
 1210 0064 05       		.byte	0x5
 1211 0065 696E7400 		.ascii	"int\000"
 1212 0069 07       		.uleb128 0x7
 1213 006a 62000000 		.4byte	0x62
 1214 006e 05       		.uleb128 0x5
 1215 006f 08       		.byte	0x8
 1216 0070 05       		.byte	0x5
 1217 0071 2D020000 		.4byte	.LASF4
 1218 0075 05       		.uleb128 0x5
 1219 0076 01       		.byte	0x1
 1220 0077 08       		.byte	0x8
 1221 0078 CB020000 		.4byte	.LASF5
 1222 007c 05       		.uleb128 0x5
 1223 007d 02       		.byte	0x2
 1224 007e 07       		.byte	0x7
 1225 007f 7E030000 		.4byte	.LASF6
 1226 0083 08       		.uleb128 0x8
 1227 0084 2E010000 		.4byte	.LASF8
ARM GAS  G:\Users\Jaxb\AppData\Local\Temp\ccFImDCu.s 			page 27


 1228 0088 03       		.byte	0x3
 1229 0089 0C       		.byte	0xc
 1230 008a 8E000000 		.4byte	0x8e
 1231 008e 05       		.uleb128 0x5
 1232 008f 04       		.byte	0x4
 1233 0090 07       		.byte	0x7
 1234 0091 29030000 		.4byte	.LASF7
 1235 0095 08       		.uleb128 0x8
 1236 0096 58060000 		.4byte	.LASF9
 1237 009a 03       		.byte	0x3
 1238 009b 0D       		.byte	0xd
 1239 009c A0000000 		.4byte	0xa0
 1240 00a0 05       		.uleb128 0x5
 1241 00a1 08       		.byte	0x8
 1242 00a2 07       		.byte	0x7
 1243 00a3 12030000 		.4byte	.LASF10
 1244 00a7 08       		.uleb128 0x8
 1245 00a8 6A060000 		.4byte	.LASF11
 1246 00ac 04       		.byte	0x4
 1247 00ad 0D       		.byte	0xd
 1248 00ae 95000000 		.4byte	0x95
 1249 00b2 02       		.uleb128 0x2
 1250 00b3 4F020000 		.4byte	.LASF13
 1251 00b7 18       		.byte	0x18
 1252 00b8 04       		.byte	0x4
 1253 00b9 0F       		.byte	0xf
 1254 00ba E9000000 		.4byte	0xe9
 1255 00be 03       		.uleb128 0x3
 1256 00bf 72060000 		.4byte	.LASF14
 1257 00c3 04       		.byte	0x4
 1258 00c4 11       		.byte	0x11
 1259 00c5 E9000000 		.4byte	0xe9
 1260 00c9 02       		.byte	0x2
 1261 00ca 23       		.byte	0x23
 1262 00cb 00       		.uleb128 0
 1263 00cc 03       		.uleb128 0x3
 1264 00cd EB000000 		.4byte	.LASF15
 1265 00d1 04       		.byte	0x4
 1266 00d2 12       		.byte	0x12
 1267 00d3 A7000000 		.4byte	0xa7
 1268 00d7 02       		.byte	0x2
 1269 00d8 23       		.byte	0x23
 1270 00d9 08       		.uleb128 0x8
 1271 00da 03       		.uleb128 0x3
 1272 00db F9000000 		.4byte	.LASF16
 1273 00df 04       		.byte	0x4
 1274 00e0 13       		.byte	0x13
 1275 00e1 25000000 		.4byte	0x25
 1276 00e5 02       		.byte	0x2
 1277 00e6 23       		.byte	0x23
 1278 00e7 10       		.uleb128 0x10
 1279 00e8 00       		.byte	0
 1280 00e9 09       		.uleb128 0x9
 1281 00ea 04       		.byte	0x4
 1282 00eb 02       		.uleb128 0x2
 1283 00ec B1040000 		.4byte	.LASF17
 1284 00f0 18       		.byte	0x18
ARM GAS  G:\Users\Jaxb\AppData\Local\Temp\ccFImDCu.s 			page 28


 1285 00f1 04       		.byte	0x4
 1286 00f2 1D       		.byte	0x1d
 1287 00f3 3E010000 		.4byte	0x13e
 1288 00f7 03       		.uleb128 0x3
 1289 00f8 BB000000 		.4byte	.LASF18
 1290 00fc 04       		.byte	0x4
 1291 00fd 27       		.byte	0x27
 1292 00fe 25000000 		.4byte	0x25
 1293 0102 02       		.byte	0x2
 1294 0103 23       		.byte	0x23
 1295 0104 00       		.uleb128 0
 1296 0105 03       		.uleb128 0x3
 1297 0106 A3020000 		.4byte	.LASF19
 1298 010a 04       		.byte	0x4
 1299 010b 28       		.byte	0x28
 1300 010c 8E000000 		.4byte	0x8e
 1301 0110 02       		.byte	0x2
 1302 0111 23       		.byte	0x23
 1303 0112 08       		.uleb128 0x8
 1304 0113 03       		.uleb128 0x3
 1305 0114 DB040000 		.4byte	.LASF20
 1306 0118 04       		.byte	0x4
 1307 0119 2C       		.byte	0x2c
 1308 011a 59010000 		.4byte	0x159
 1309 011e 02       		.byte	0x2
 1310 011f 23       		.byte	0x23
 1311 0120 0C       		.uleb128 0xc
 1312 0121 03       		.uleb128 0x3
 1313 0122 60020000 		.4byte	.LASF21
 1314 0126 04       		.byte	0x4
 1315 0127 2D       		.byte	0x2d
 1316 0128 74010000 		.4byte	0x174
 1317 012c 02       		.byte	0x2
 1318 012d 23       		.byte	0x23
 1319 012e 10       		.uleb128 0x10
 1320 012f 03       		.uleb128 0x3
 1321 0130 74030000 		.4byte	.LASF22
 1322 0134 04       		.byte	0x4
 1323 0135 2E       		.byte	0x2e
 1324 0136 8F010000 		.4byte	0x18f
 1325 013a 02       		.byte	0x2
 1326 013b 23       		.byte	0x23
 1327 013c 14       		.uleb128 0x14
 1328 013d 00       		.byte	0
 1329 013e 0A       		.uleb128 0xa
 1330 013f 01       		.byte	0x1
 1331 0140 62000000 		.4byte	0x62
 1332 0144 53010000 		.4byte	0x153
 1333 0148 0B       		.uleb128 0xb
 1334 0149 53010000 		.4byte	0x153
 1335 014d 0B       		.uleb128 0xb
 1336 014e 53010000 		.4byte	0x153
 1337 0152 00       		.byte	0
 1338 0153 04       		.uleb128 0x4
 1339 0154 04       		.byte	0x4
 1340 0155 B2000000 		.4byte	0xb2
 1341 0159 04       		.uleb128 0x4
ARM GAS  G:\Users\Jaxb\AppData\Local\Temp\ccFImDCu.s 			page 29


 1342 015a 04       		.byte	0x4
 1343 015b 3E010000 		.4byte	0x13e
 1344 015f 0A       		.uleb128 0xa
 1345 0160 01       		.byte	0x1
 1346 0161 62000000 		.4byte	0x62
 1347 0165 74010000 		.4byte	0x174
 1348 0169 0B       		.uleb128 0xb
 1349 016a 53010000 		.4byte	0x153
 1350 016e 0B       		.uleb128 0xb
 1351 016f E9000000 		.4byte	0xe9
 1352 0173 00       		.byte	0
 1353 0174 04       		.uleb128 0x4
 1354 0175 04       		.byte	0x4
 1355 0176 5F010000 		.4byte	0x15f
 1356 017a 0A       		.uleb128 0xa
 1357 017b 01       		.byte	0x1
 1358 017c 62000000 		.4byte	0x62
 1359 0180 8F010000 		.4byte	0x18f
 1360 0184 0B       		.uleb128 0xb
 1361 0185 E9000000 		.4byte	0xe9
 1362 0189 0B       		.uleb128 0xb
 1363 018a E9000000 		.4byte	0xe9
 1364 018e 00       		.byte	0
 1365 018f 04       		.uleb128 0x4
 1366 0190 04       		.byte	0x4
 1367 0191 7A010000 		.4byte	0x17a
 1368 0195 0C       		.uleb128 0xc
 1369 0196 40010000 		.4byte	.LASF60
 1370 019a 07       		.byte	0x7
 1371 019b 01       		.byte	0x1
 1372 019c 75000000 		.4byte	0x75
 1373 01a0 05       		.byte	0x5
 1374 01a1 04       		.byte	0x4
 1375 01a2 E3010000 		.4byte	0x1e3
 1376 01a6 0D       		.uleb128 0xd
 1377 01a7 91030000 		.4byte	.LASF23
 1378 01ab 01       		.byte	0x1
 1379 01ac 0D       		.uleb128 0xd
 1380 01ad D9020000 		.4byte	.LASF24
 1381 01b1 02       		.byte	0x2
 1382 01b2 0D       		.uleb128 0xd
 1383 01b3 56000000 		.4byte	.LASF25
 1384 01b7 03       		.byte	0x3
 1385 01b8 0D       		.uleb128 0xd
 1386 01b9 C4040000 		.4byte	.LASF26
 1387 01bd 04       		.byte	0x4
 1388 01be 0D       		.uleb128 0xd
 1389 01bf A2010000 		.4byte	.LASF27
 1390 01c3 05       		.byte	0x5
 1391 01c4 0D       		.uleb128 0xd
 1392 01c5 0D010000 		.4byte	.LASF28
 1393 01c9 06       		.byte	0x6
 1394 01ca 0D       		.uleb128 0xd
 1395 01cb C5010000 		.4byte	.LASF29
 1396 01cf 07       		.byte	0x7
 1397 01d0 0D       		.uleb128 0xd
 1398 01d1 4B010000 		.4byte	.LASF30
ARM GAS  G:\Users\Jaxb\AppData\Local\Temp\ccFImDCu.s 			page 30


 1399 01d5 08       		.byte	0x8
 1400 01d6 0D       		.uleb128 0xd
 1401 01d7 C8030000 		.4byte	.LASF31
 1402 01db 09       		.byte	0x9
 1403 01dc 0D       		.uleb128 0xd
 1404 01dd 1C060000 		.4byte	.LASF32
 1405 01e1 0A       		.byte	0xa
 1406 01e2 00       		.byte	0
 1407 01e3 08       		.uleb128 0x8
 1408 01e4 87020000 		.4byte	.LASF33
 1409 01e8 05       		.byte	0x5
 1410 01e9 0F       		.byte	0xf
 1411 01ea 95010000 		.4byte	0x195
 1412 01ee 08       		.uleb128 0x8
 1413 01ef FC030000 		.4byte	.LASF34
 1414 01f3 06       		.byte	0x6
 1415 01f4 06       		.byte	0x6
 1416 01f5 8E000000 		.4byte	0x8e
 1417 01f9 08       		.uleb128 0x8
 1418 01fa 40060000 		.4byte	.LASF35
 1419 01fe 06       		.byte	0x6
 1420 01ff 08       		.byte	0x8
 1421 0200 EE010000 		.4byte	0x1ee
 1422 0204 08       		.uleb128 0x8
 1423 0205 35010000 		.4byte	.LASF36
 1424 0209 07       		.byte	0x7
 1425 020a 0A       		.byte	0xa
 1426 020b 8E000000 		.4byte	0x8e
 1427 020f 08       		.uleb128 0x8
 1428 0210 00000000 		.4byte	.LASF37
 1429 0214 07       		.byte	0x7
 1430 0215 0C       		.byte	0xc
 1431 0216 8E000000 		.4byte	0x8e
 1432 021a 0E       		.uleb128 0xe
 1433 021b 47050000 		.4byte	.LASF66
 1434 021f 07       		.byte	0x7
 1435 0220 13       		.byte	0x13
 1436 0221 69000000 		.4byte	0x69
 1437 0225 01       		.byte	0x1
 1438 0226 01       		.byte	0x1
 1439 0227 02       		.uleb128 0x2
 1440 0228 F2040000 		.4byte	.LASF38
 1441 022c 48       		.byte	0x48
 1442 022d 07       		.byte	0x7
 1443 022e 37       		.byte	0x37
 1444 022f 06030000 		.4byte	0x306
 1445 0233 03       		.uleb128 0x3
 1446 0234 41030000 		.4byte	.LASF39
 1447 0238 07       		.byte	0x7
 1448 0239 38       		.byte	0x38
 1449 023a 06030000 		.4byte	0x306
 1450 023e 02       		.byte	0x2
 1451 023f 23       		.byte	0x23
 1452 0240 00       		.uleb128 0
 1453 0241 03       		.uleb128 0x3
 1454 0242 0C050000 		.4byte	.LASF40
 1455 0246 07       		.byte	0x7
ARM GAS  G:\Users\Jaxb\AppData\Local\Temp\ccFImDCu.s 			page 31


 1456 0247 39       		.byte	0x39
 1457 0248 8E000000 		.4byte	0x8e
 1458 024c 02       		.byte	0x2
 1459 024d 23       		.byte	0x23
 1460 024e 04       		.uleb128 0x4
 1461 024f 03       		.uleb128 0x3
 1462 0250 98010000 		.4byte	.LASF41
 1463 0254 07       		.byte	0x7
 1464 0255 3A       		.byte	0x3a
 1465 0256 06030000 		.4byte	0x306
 1466 025a 02       		.byte	0x2
 1467 025b 23       		.byte	0x23
 1468 025c 08       		.uleb128 0x8
 1469 025d 03       		.uleb128 0x3
 1470 025e 2D050000 		.4byte	.LASF42
 1471 0262 07       		.byte	0x7
 1472 0263 3B       		.byte	0x3b
 1473 0264 0F020000 		.4byte	0x20f
 1474 0268 02       		.byte	0x2
 1475 0269 23       		.byte	0x23
 1476 026a 0C       		.uleb128 0xc
 1477 026b 03       		.uleb128 0x3
 1478 026c 82040000 		.4byte	.LASF43
 1479 0270 07       		.byte	0x7
 1480 0271 3C       		.byte	0x3c
 1481 0272 E3010000 		.4byte	0x1e3
 1482 0276 02       		.byte	0x2
 1483 0277 23       		.byte	0x23
 1484 0278 10       		.uleb128 0x10
 1485 0279 03       		.uleb128 0x3
 1486 027a 6F030000 		.4byte	.LASF44
 1487 027e 07       		.byte	0x7
 1488 027f 3D       		.byte	0x3d
 1489 0280 0F020000 		.4byte	0x20f
 1490 0284 02       		.byte	0x2
 1491 0285 23       		.byte	0x23
 1492 0286 14       		.uleb128 0x14
 1493 0287 03       		.uleb128 0x3
 1494 0288 6E040000 		.4byte	.LASF45
 1495 028c 07       		.byte	0x7
 1496 028d 3E       		.byte	0x3e
 1497 028e 62000000 		.4byte	0x62
 1498 0292 02       		.byte	0x2
 1499 0293 23       		.byte	0x23
 1500 0294 18       		.uleb128 0x18
 1501 0295 03       		.uleb128 0x3
 1502 0296 60030000 		.4byte	.LASF46
 1503 029a 07       		.byte	0x7
 1504 029b 3F       		.byte	0x3f
 1505 029c 25000000 		.4byte	0x25
 1506 02a0 02       		.byte	0x2
 1507 02a1 23       		.byte	0x23
 1508 02a2 1C       		.uleb128 0x1c
 1509 02a3 03       		.uleb128 0x3
 1510 02a4 3A050000 		.4byte	.LASF47
 1511 02a8 07       		.byte	0x7
 1512 02a9 40       		.byte	0x40
ARM GAS  G:\Users\Jaxb\AppData\Local\Temp\ccFImDCu.s 			page 32


 1513 02aa 25000000 		.4byte	0x25
 1514 02ae 02       		.byte	0x2
 1515 02af 23       		.byte	0x23
 1516 02b0 24       		.uleb128 0x24
 1517 02b1 03       		.uleb128 0x3
 1518 02b2 92020000 		.4byte	.LASF48
 1519 02b6 07       		.byte	0x7
 1520 02b7 41       		.byte	0x41
 1521 02b8 0C030000 		.4byte	0x30c
 1522 02bc 02       		.byte	0x2
 1523 02bd 23       		.byte	0x23
 1524 02be 2C       		.uleb128 0x2c
 1525 02bf 03       		.uleb128 0x3
 1526 02c0 3B020000 		.4byte	.LASF49
 1527 02c4 07       		.byte	0x7
 1528 02c5 42       		.byte	0x42
 1529 02c6 8E000000 		.4byte	0x8e
 1530 02ca 02       		.byte	0x2
 1531 02cb 23       		.byte	0x23
 1532 02cc 30       		.uleb128 0x30
 1533 02cd 03       		.uleb128 0x3
 1534 02ce 9D040000 		.4byte	.LASF50
 1535 02d2 07       		.byte	0x7
 1536 02d3 43       		.byte	0x43
 1537 02d4 8E000000 		.4byte	0x8e
 1538 02d8 02       		.byte	0x2
 1539 02d9 23       		.byte	0x23
 1540 02da 34       		.uleb128 0x34
 1541 02db 03       		.uleb128 0x3
 1542 02dc E5020000 		.4byte	.LASF51
 1543 02e0 07       		.byte	0x7
 1544 02e1 44       		.byte	0x44
 1545 02e2 83000000 		.4byte	0x83
 1546 02e6 02       		.byte	0x2
 1547 02e7 23       		.byte	0x23
 1548 02e8 38       		.uleb128 0x38
 1549 02e9 03       		.uleb128 0x3
 1550 02ea B8020000 		.4byte	.LASF52
 1551 02ee 07       		.byte	0x7
 1552 02ef 45       		.byte	0x45
 1553 02f0 24030000 		.4byte	0x324
 1554 02f4 02       		.byte	0x2
 1555 02f5 23       		.byte	0x23
 1556 02f6 3C       		.uleb128 0x3c
 1557 02f7 03       		.uleb128 0x3
 1558 02f8 47060000 		.4byte	.LASF53
 1559 02fc 07       		.byte	0x7
 1560 02fd 46       		.byte	0x46
 1561 02fe 95000000 		.4byte	0x95
 1562 0302 02       		.byte	0x2
 1563 0303 23       		.byte	0x23
 1564 0304 40       		.uleb128 0x40
 1565 0305 00       		.byte	0
 1566 0306 04       		.uleb128 0x4
 1567 0307 04       		.byte	0x4
 1568 0308 04020000 		.4byte	0x204
 1569 030c 04       		.uleb128 0x4
ARM GAS  G:\Users\Jaxb\AppData\Local\Temp\ccFImDCu.s 			page 33


 1570 030d 04       		.byte	0x4
 1571 030e 12030000 		.4byte	0x312
 1572 0312 05       		.uleb128 0x5
 1573 0313 01       		.byte	0x1
 1574 0314 08       		.byte	0x8
 1575 0315 A8030000 		.4byte	.LASF54
 1576 0319 0F       		.uleb128 0xf
 1577 031a 12030000 		.4byte	0x312
 1578 031e 10       		.uleb128 0x10
 1579 031f E3040000 		.4byte	.LASF100
 1580 0323 01       		.byte	0x1
 1581 0324 04       		.uleb128 0x4
 1582 0325 04       		.byte	0x4
 1583 0326 1E030000 		.4byte	0x31e
 1584 032a 11       		.uleb128 0x11
 1585 032b 54434200 		.ascii	"TCB\000"
 1586 032f 07       		.byte	0x7
 1587 0330 47       		.byte	0x47
 1588 0331 27020000 		.4byte	0x227
 1589 0335 07       		.uleb128 0x7
 1590 0336 2A030000 		.4byte	0x32a
 1591 033a 02       		.uleb128 0x2
 1592 033b B9010000 		.4byte	.LASF55
 1593 033f 20       		.byte	0x20
 1594 0340 08       		.byte	0x8
 1595 0341 07       		.byte	0x7
 1596 0342 71030000 		.4byte	0x371
 1597 0346 03       		.uleb128 0x3
 1598 0347 9D030000 		.4byte	.LASF56
 1599 034b 08       		.byte	0x8
 1600 034c 08       		.byte	0x8
 1601 034d 8E000000 		.4byte	0x8e
 1602 0351 02       		.byte	0x2
 1603 0352 23       		.byte	0x23
 1604 0353 00       		.uleb128 0
 1605 0354 03       		.uleb128 0x3
 1606 0355 17050000 		.4byte	.LASF57
 1607 0359 08       		.byte	0x8
 1608 035a 09       		.byte	0x9
 1609 035b 71030000 		.4byte	0x371
 1610 035f 02       		.byte	0x2
 1611 0360 23       		.byte	0x23
 1612 0361 04       		.uleb128 0x4
 1613 0362 03       		.uleb128 0x3
 1614 0363 0F000000 		.4byte	.LASF58
 1615 0367 08       		.byte	0x8
 1616 0368 0A       		.byte	0xa
 1617 0369 EB000000 		.4byte	0xeb
 1618 036d 02       		.byte	0x2
 1619 036e 23       		.byte	0x23
 1620 036f 08       		.uleb128 0x8
 1621 0370 00       		.byte	0
 1622 0371 04       		.uleb128 0x4
 1623 0372 04       		.byte	0x4
 1624 0373 2A030000 		.4byte	0x32a
 1625 0377 08       		.uleb128 0x8
 1626 0378 7C010000 		.4byte	.LASF59
ARM GAS  G:\Users\Jaxb\AppData\Local\Temp\ccFImDCu.s 			page 34


 1627 037c 08       		.byte	0x8
 1628 037d 0B       		.byte	0xb
 1629 037e 3A030000 		.4byte	0x33a
 1630 0382 0C       		.uleb128 0xc
 1631 0383 AC020000 		.4byte	.LASF61
 1632 0387 07       		.byte	0x7
 1633 0388 01       		.byte	0x1
 1634 0389 75000000 		.4byte	0x75
 1635 038d 08       		.byte	0x8
 1636 038e 0D       		.byte	0xd
 1637 038f A0030000 		.4byte	0x3a0
 1638 0393 0D       		.uleb128 0xd
 1639 0394 5F060000 		.4byte	.LASF62
 1640 0398 00       		.byte	0
 1641 0399 0D       		.uleb128 0xd
 1642 039a 61040000 		.4byte	.LASF63
 1643 039e 01       		.byte	0x1
 1644 039f 00       		.byte	0
 1645 03a0 02       		.uleb128 0x2
 1646 03a1 6B010000 		.4byte	.LASF64
 1647 03a5 08       		.byte	0x8
 1648 03a6 09       		.byte	0x9
 1649 03a7 08       		.byte	0x8
 1650 03a8 C9030000 		.4byte	0x3c9
 1651 03ac 03       		.uleb128 0x3
 1652 03ad 7C020000 		.4byte	.LASF65
 1653 03b1 09       		.byte	0x9
 1654 03b2 0A       		.byte	0xa
 1655 03b3 E9000000 		.4byte	0xe9
 1656 03b7 02       		.byte	0x2
 1657 03b8 23       		.byte	0x23
 1658 03b9 00       		.uleb128 0
 1659 03ba 03       		.uleb128 0x3
 1660 03bb 92020000 		.4byte	.LASF48
 1661 03bf 09       		.byte	0x9
 1662 03c0 0B       		.byte	0xb
 1663 03c1 CE030000 		.4byte	0x3ce
 1664 03c5 02       		.byte	0x2
 1665 03c6 23       		.byte	0x23
 1666 03c7 04       		.uleb128 0x4
 1667 03c8 00       		.byte	0
 1668 03c9 0F       		.uleb128 0xf
 1669 03ca A0030000 		.4byte	0x3a0
 1670 03ce 04       		.uleb128 0x4
 1671 03cf 04       		.byte	0x4
 1672 03d0 19030000 		.4byte	0x319
 1673 03d4 0E       		.uleb128 0xe
 1674 03d5 97020000 		.4byte	.LASF67
 1675 03d9 01       		.byte	0x1
 1676 03da 08       		.byte	0x8
 1677 03db E1030000 		.4byte	0x3e1
 1678 03df 01       		.byte	0x1
 1679 03e0 01       		.byte	0x1
 1680 03e1 04       		.uleb128 0x4
 1681 03e2 04       		.byte	0x4
 1682 03e3 35030000 		.4byte	0x335
 1683 03e7 12       		.uleb128 0x12
ARM GAS  G:\Users\Jaxb\AppData\Local\Temp\ccFImDCu.s 			page 35


 1684 03e8 19030000 		.4byte	0x319
 1685 03ec F7030000 		.4byte	0x3f7
 1686 03f0 13       		.uleb128 0x13
 1687 03f1 8E000000 		.4byte	0x8e
 1688 03f5 0A       		.byte	0xa
 1689 03f6 00       		.byte	0
 1690 03f7 0F       		.uleb128 0xf
 1691 03f8 E7030000 		.4byte	0x3e7
 1692 03fc 14       		.uleb128 0x14
 1693 03fd E6010000 		.4byte	.LASF68
 1694 0401 01       		.byte	0x1
 1695 0402 32       		.byte	0x32
 1696 0403 F7030000 		.4byte	0x3f7
 1697 0407 01       		.byte	0x1
 1698 0408 05       		.byte	0x5
 1699 0409 03       		.byte	0x3
 1700 040a 00000000 		.4byte	__rtmsym_mutex_init_name
 1701 040e 14       		.uleb128 0x14
 1702 040f E8030000 		.4byte	.LASF69
 1703 0413 01       		.byte	0x1
 1704 0414 32       		.byte	0x32
 1705 0415 C9030000 		.4byte	0x3c9
 1706 0419 01       		.byte	0x1
 1707 041a 05       		.byte	0x5
 1708 041b 03       		.byte	0x3
 1709 041c 00000000 		.4byte	__rtmsym_mutex_init
 1710 0420 14       		.uleb128 0x14
 1711 0421 47030000 		.4byte	.LASF70
 1712 0425 01       		.byte	0x1
 1713 0426 6F       		.byte	0x6f
 1714 0427 F7030000 		.4byte	0x3f7
 1715 042b 01       		.byte	0x1
 1716 042c 05       		.byte	0x5
 1717 042d 03       		.byte	0x3
 1718 042e 00000000 		.4byte	__rtmsym_mutex_lock_name
 1719 0432 14       		.uleb128 0x14
 1720 0433 42000000 		.4byte	.LASF71
 1721 0437 01       		.byte	0x1
 1722 0438 6F       		.byte	0x6f
 1723 0439 C9030000 		.4byte	0x3c9
 1724 043d 01       		.byte	0x1
 1725 043e 05       		.byte	0x5
 1726 043f 03       		.byte	0x3
 1727 0440 00000000 		.4byte	__rtmsym_mutex_lock
 1728 0444 12       		.uleb128 0x12
 1729 0445 19030000 		.4byte	0x319
 1730 0449 54040000 		.4byte	0x454
 1731 044d 13       		.uleb128 0x13
 1732 044e 8E000000 		.4byte	0x8e
 1733 0452 0E       		.byte	0xe
 1734 0453 00       		.byte	0
 1735 0454 0F       		.uleb128 0xf
 1736 0455 44040000 		.4byte	0x444
 1737 0459 14       		.uleb128 0x14
 1738 045a 92000000 		.4byte	.LASF72
 1739 045e 01       		.byte	0x1
 1740 045f 8E       		.byte	0x8e
ARM GAS  G:\Users\Jaxb\AppData\Local\Temp\ccFImDCu.s 			page 36


 1741 0460 54040000 		.4byte	0x454
 1742 0464 01       		.byte	0x1
 1743 0465 05       		.byte	0x5
 1744 0466 03       		.byte	0x3
 1745 0467 00000000 		.4byte	__rtmsym_mutex_try_lock_name
 1746 046b 14       		.uleb128 0x14
 1747 046c 15040000 		.4byte	.LASF73
 1748 0470 01       		.byte	0x1
 1749 0471 8E       		.byte	0x8e
 1750 0472 C9030000 		.4byte	0x3c9
 1751 0476 01       		.byte	0x1
 1752 0477 05       		.byte	0x5
 1753 0478 03       		.byte	0x3
 1754 0479 00000000 		.4byte	__rtmsym_mutex_try_lock
 1755 047d 12       		.uleb128 0x12
 1756 047e 19030000 		.4byte	0x319
 1757 0482 8D040000 		.4byte	0x48d
 1758 0486 13       		.uleb128 0x13
 1759 0487 8E000000 		.4byte	0x8e
 1760 048b 0C       		.byte	0xc
 1761 048c 00       		.byte	0
 1762 048d 0F       		.uleb128 0xf
 1763 048e 7D040000 		.4byte	0x47d
 1764 0492 14       		.uleb128 0x14
 1765 0493 AD030000 		.4byte	.LASF74
 1766 0497 01       		.byte	0x1
 1767 0498 BE       		.byte	0xbe
 1768 0499 8D040000 		.4byte	0x48d
 1769 049d 01       		.byte	0x1
 1770 049e 05       		.byte	0x5
 1771 049f 03       		.byte	0x3
 1772 04a0 00000000 		.4byte	__rtmsym_mutex_unlock_name
 1773 04a4 14       		.uleb128 0x14
 1774 04a5 06060000 		.4byte	.LASF75
 1775 04a9 01       		.byte	0x1
 1776 04aa BE       		.byte	0xbe
 1777 04ab C9030000 		.4byte	0x3c9
 1778 04af 01       		.byte	0x1
 1779 04b0 05       		.byte	0x5
 1780 04b1 03       		.byte	0x3
 1781 04b2 00000000 		.4byte	__rtmsym_mutex_unlock
 1782 04b6 12       		.uleb128 0x12
 1783 04b7 19030000 		.4byte	0x319
 1784 04bb C6040000 		.4byte	0x4c6
 1785 04bf 13       		.uleb128 0x13
 1786 04c0 8E000000 		.4byte	0x8e
 1787 04c4 09       		.byte	0x9
 1788 04c5 00       		.byte	0
 1789 04c6 0F       		.uleb128 0xf
 1790 04c7 B6040000 		.4byte	0x4b6
 1791 04cb 14       		.uleb128 0x14
 1792 04cc 2A000000 		.4byte	.LASF76
 1793 04d0 01       		.byte	0x1
 1794 04d1 D9       		.byte	0xd9
 1795 04d2 C6040000 		.4byte	0x4c6
 1796 04d6 01       		.byte	0x1
 1797 04d7 05       		.byte	0x5
ARM GAS  G:\Users\Jaxb\AppData\Local\Temp\ccFImDCu.s 			page 37


 1798 04d8 03       		.byte	0x3
 1799 04d9 00000000 		.4byte	__rtmsym_mutex_del_name
 1800 04dd 14       		.uleb128 0x14
 1801 04de 7F000000 		.4byte	.LASF77
 1802 04e2 01       		.byte	0x1
 1803 04e3 D9       		.byte	0xd9
 1804 04e4 C9030000 		.4byte	0x3c9
 1805 04e8 01       		.byte	0x1
 1806 04e9 05       		.byte	0x5
 1807 04ea 03       		.byte	0x3
 1808 04eb 00000000 		.4byte	__rtmsym_mutex_del
 1809 04ef 15       		.uleb128 0x15
 1810 04f0 01       		.byte	0x1
 1811 04f1 6B000000 		.4byte	.LASF78
 1812 04f5 01       		.byte	0x1
 1813 04f6 D0       		.byte	0xd0
 1814 04f7 01       		.byte	0x1
 1815 04f8 62000000 		.4byte	0x62
 1816 04fc 30040000 		.4byte	.LFB22
 1817 0500 60040000 		.4byte	.LFE22
 1818 0504 00000000 		.4byte	.LLST11
 1819 0508 01       		.byte	0x1
 1820 0509 1C050000 		.4byte	0x51c
 1821 050d 16       		.uleb128 0x16
 1822 050e 03010000 		.4byte	.LASF80
 1823 0512 01       		.byte	0x1
 1824 0513 D0       		.byte	0xd0
 1825 0514 1C050000 		.4byte	0x51c
 1826 0518 02       		.byte	0x2
 1827 0519 91       		.byte	0x91
 1828 051a 74       		.sleb128 -12
 1829 051b 00       		.byte	0
 1830 051c 04       		.uleb128 0x4
 1831 051d 04       		.byte	0x4
 1832 051e 77030000 		.4byte	0x377
 1833 0522 15       		.uleb128 0x15
 1834 0523 01       		.byte	0x1
 1835 0524 D4000000 		.4byte	.LASF79
 1836 0528 01       		.byte	0x1
 1837 0529 C0       		.byte	0xc0
 1838 052a 01       		.byte	0x1
 1839 052b 62000000 		.4byte	0x62
 1840 052f C4030000 		.4byte	.LFB21
 1841 0533 30040000 		.4byte	.LFE21
 1842 0537 50000000 		.4byte	.LLST10
 1843 053b 01       		.byte	0x1
 1844 053c 6B050000 		.4byte	0x56b
 1845 0540 16       		.uleb128 0x16
 1846 0541 03010000 		.4byte	.LASF80
 1847 0545 01       		.byte	0x1
 1848 0546 C0       		.byte	0xc0
 1849 0547 1C050000 		.4byte	0x51c
 1850 054b 02       		.byte	0x2
 1851 054c 91       		.byte	0x91
 1852 054d 6C       		.sleb128 -20
 1853 054e 17       		.uleb128 0x17
 1854 054f 25050000 		.4byte	.LASF81
ARM GAS  G:\Users\Jaxb\AppData\Local\Temp\ccFImDCu.s 			page 38


 1855 0553 01       		.byte	0x1
 1856 0554 C3       		.byte	0xc3
 1857 0555 71030000 		.4byte	0x371
 1858 0559 02       		.byte	0x2
 1859 055a 91       		.byte	0x91
 1860 055b 70       		.sleb128 -16
 1861 055c 17       		.uleb128 0x17
 1862 055d F1020000 		.4byte	.LASF82
 1863 0561 01       		.byte	0x1
 1864 0562 C4       		.byte	0xc4
 1865 0563 53010000 		.4byte	0x153
 1866 0567 02       		.byte	0x2
 1867 0568 91       		.byte	0x91
 1868 0569 74       		.sleb128 -12
 1869 056a 00       		.byte	0
 1870 056b 15       		.uleb128 0x15
 1871 056c 01       		.byte	0x1
 1872 056d 80060000 		.4byte	.LASF83
 1873 0571 01       		.byte	0x1
 1874 0572 B5       		.byte	0xb5
 1875 0573 01       		.byte	0x1
 1876 0574 62000000 		.4byte	0x62
 1877 0578 94030000 		.4byte	.LFB20
 1878 057c C4030000 		.4byte	.LFE20
 1879 0580 A0000000 		.4byte	.LLST9
 1880 0584 01       		.byte	0x1
 1881 0585 98050000 		.4byte	0x598
 1882 0589 16       		.uleb128 0x16
 1883 058a 03010000 		.4byte	.LASF80
 1884 058e 01       		.byte	0x1
 1885 058f B5       		.byte	0xb5
 1886 0590 1C050000 		.4byte	0x51c
 1887 0594 02       		.byte	0x2
 1888 0595 91       		.byte	0x91
 1889 0596 74       		.sleb128 -12
 1890 0597 00       		.byte	0
 1891 0598 15       		.uleb128 0x15
 1892 0599 01       		.byte	0x1
 1893 059a 07040000 		.4byte	.LASF84
 1894 059e 01       		.byte	0x1
 1895 059f 90       		.byte	0x90
 1896 05a0 01       		.byte	0x1
 1897 05a1 62000000 		.4byte	0x62
 1898 05a5 D4020000 		.4byte	.LFB19
 1899 05a9 94030000 		.4byte	.LFE19
 1900 05ad F0000000 		.4byte	.LLST8
 1901 05b1 01       		.byte	0x1
 1902 05b2 F9050000 		.4byte	0x5f9
 1903 05b6 16       		.uleb128 0x16
 1904 05b7 03010000 		.4byte	.LASF80
 1905 05bb 01       		.byte	0x1
 1906 05bc 90       		.byte	0x90
 1907 05bd 1C050000 		.4byte	0x51c
 1908 05c1 02       		.byte	0x2
 1909 05c2 91       		.byte	0x91
 1910 05c3 64       		.sleb128 -28
 1911 05c4 17       		.uleb128 0x17
ARM GAS  G:\Users\Jaxb\AppData\Local\Temp\ccFImDCu.s 			page 39


 1912 05c5 59050000 		.4byte	.LASF85
 1913 05c9 01       		.byte	0x1
 1914 05ca 93       		.byte	0x93
 1915 05cb F9010000 		.4byte	0x1f9
 1916 05cf 02       		.byte	0x2
 1917 05d0 91       		.byte	0x91
 1918 05d1 74       		.sleb128 -12
 1919 05d2 17       		.uleb128 0x17
 1920 05d3 36030000 		.4byte	.LASF86
 1921 05d7 01       		.byte	0x1
 1922 05d8 A5       		.byte	0xa5
 1923 05d9 53010000 		.4byte	0x153
 1924 05dd 02       		.byte	0x2
 1925 05de 91       		.byte	0x91
 1926 05df 6C       		.sleb128 -20
 1927 05e0 18       		.uleb128 0x18
 1928 05e1 28030000 		.4byte	.LBB3
 1929 05e5 44030000 		.4byte	.LBE3
 1930 05e9 17       		.uleb128 0x17
 1931 05ea 32040000 		.4byte	.LASF87
 1932 05ee 01       		.byte	0x1
 1933 05ef A1       		.byte	0xa1
 1934 05f0 0F020000 		.4byte	0x20f
 1935 05f4 02       		.byte	0x2
 1936 05f5 91       		.byte	0x91
 1937 05f6 70       		.sleb128 -16
 1938 05f7 00       		.byte	0
 1939 05f8 00       		.byte	0
 1940 05f9 15       		.uleb128 0x15
 1941 05fa 01       		.byte	0x1
 1942 05fb 6D020000 		.4byte	.LASF88
 1943 05ff 01       		.byte	0x1
 1944 0600 85       		.byte	0x85
 1945 0601 01       		.byte	0x1
 1946 0602 62000000 		.4byte	0x62
 1947 0606 A4020000 		.4byte	.LFB18
 1948 060a D4020000 		.4byte	.LFE18
 1949 060e 40010000 		.4byte	.LLST7
 1950 0612 01       		.byte	0x1
 1951 0613 26060000 		.4byte	0x626
 1952 0617 16       		.uleb128 0x16
 1953 0618 03010000 		.4byte	.LASF80
 1954 061c 01       		.byte	0x1
 1955 061d 85       		.byte	0x85
 1956 061e 1C050000 		.4byte	0x51c
 1957 0622 02       		.byte	0x2
 1958 0623 91       		.byte	0x91
 1959 0624 74       		.sleb128 -12
 1960 0625 00       		.byte	0
 1961 0626 15       		.uleb128 0x15
 1962 0627 01       		.byte	0x1
 1963 0628 8D040000 		.4byte	.LASF89
 1964 062c 01       		.byte	0x1
 1965 062d 71       		.byte	0x71
 1966 062e 01       		.byte	0x1
 1967 062f 62000000 		.4byte	0x62
 1968 0633 38020000 		.4byte	.LFB17
ARM GAS  G:\Users\Jaxb\AppData\Local\Temp\ccFImDCu.s 			page 40


 1969 0637 A4020000 		.4byte	.LFE17
 1970 063b 90010000 		.4byte	.LLST6
 1971 063f 01       		.byte	0x1
 1972 0640 61060000 		.4byte	0x661
 1973 0644 16       		.uleb128 0x16
 1974 0645 03010000 		.4byte	.LASF80
 1975 0649 01       		.byte	0x1
 1976 064a 71       		.byte	0x71
 1977 064b 1C050000 		.4byte	0x51c
 1978 064f 02       		.byte	0x2
 1979 0650 91       		.byte	0x91
 1980 0651 6C       		.sleb128 -20
 1981 0652 17       		.uleb128 0x17
 1982 0653 59050000 		.4byte	.LASF85
 1983 0657 01       		.byte	0x1
 1984 0658 74       		.byte	0x74
 1985 0659 F9010000 		.4byte	0x1f9
 1986 065d 02       		.byte	0x2
 1987 065e 91       		.byte	0x91
 1988 065f 74       		.sleb128 -12
 1989 0660 00       		.byte	0
 1990 0661 15       		.uleb128 0x15
 1991 0662 01       		.byte	0x1
 1992 0663 82010000 		.4byte	.LASF90
 1993 0667 01       		.byte	0x1
 1994 0668 62       		.byte	0x62
 1995 0669 01       		.byte	0x1
 1996 066a 62000000 		.4byte	0x62
 1997 066e F8010000 		.4byte	.LFB16
 1998 0672 38020000 		.4byte	.LFE16
 1999 0676 E0010000 		.4byte	.LLST5
 2000 067a 01       		.byte	0x1
 2001 067b 8E060000 		.4byte	0x68e
 2002 067f 16       		.uleb128 0x16
 2003 0680 03010000 		.4byte	.LASF80
 2004 0684 01       		.byte	0x1
 2005 0685 62       		.byte	0x62
 2006 0686 1C050000 		.4byte	0x51c
 2007 068a 02       		.byte	0x2
 2008 068b 91       		.byte	0x91
 2009 068c 74       		.sleb128 -12
 2010 068d 00       		.byte	0
 2011 068e 15       		.uleb128 0x15
 2012 068f 01       		.byte	0x1
 2013 0690 DF000000 		.4byte	.LASF91
 2014 0694 01       		.byte	0x1
 2015 0695 34       		.byte	0x34
 2016 0696 01       		.byte	0x1
 2017 0697 62000000 		.4byte	0x62
 2018 069b D8000000 		.4byte	.LFB15
 2019 069f F8010000 		.4byte	.LFE15
 2020 06a3 30020000 		.4byte	.LLST4
 2021 06a7 01       		.byte	0x1
 2022 06a8 EF060000 		.4byte	0x6ef
 2023 06ac 16       		.uleb128 0x16
 2024 06ad 03010000 		.4byte	.LASF80
 2025 06b1 01       		.byte	0x1
ARM GAS  G:\Users\Jaxb\AppData\Local\Temp\ccFImDCu.s 			page 41


 2026 06b2 34       		.byte	0x34
 2027 06b3 1C050000 		.4byte	0x51c
 2028 06b7 02       		.byte	0x2
 2029 06b8 91       		.byte	0x91
 2030 06b9 54       		.sleb128 -44
 2031 06ba 17       		.uleb128 0x17
 2032 06bb 59050000 		.4byte	.LASF85
 2033 06bf 01       		.byte	0x1
 2034 06c0 37       		.byte	0x37
 2035 06c1 F9010000 		.4byte	0x1f9
 2036 06c5 02       		.byte	0x2
 2037 06c6 91       		.byte	0x91
 2038 06c7 74       		.sleb128 -12
 2039 06c8 18       		.uleb128 0x18
 2040 06c9 16010000 		.4byte	.LBB2
 2041 06cd E4010000 		.4byte	.LBE2
 2042 06d1 17       		.uleb128 0x17
 2043 06d2 2D040000 		.4byte	.LASF92
 2044 06d6 01       		.byte	0x1
 2045 06d7 47       		.byte	0x47
 2046 06d8 B2000000 		.4byte	0xb2
 2047 06dc 02       		.byte	0x2
 2048 06dd 91       		.byte	0x91
 2049 06de 58       		.sleb128 -40
 2050 06df 17       		.uleb128 0x17
 2051 06e0 25050000 		.4byte	.LASF81
 2052 06e4 01       		.byte	0x1
 2053 06e5 4A       		.byte	0x4a
 2054 06e6 71030000 		.4byte	0x371
 2055 06ea 02       		.byte	0x2
 2056 06eb 91       		.byte	0x91
 2057 06ec 70       		.sleb128 -16
 2058 06ed 00       		.byte	0
 2059 06ee 00       		.byte	0
 2060 06ef 15       		.uleb128 0x15
 2061 06f0 01       		.byte	0x1
 2062 06f1 8D010000 		.4byte	.LASF93
 2063 06f5 01       		.byte	0x1
 2064 06f6 25       		.byte	0x25
 2065 06f7 01       		.byte	0x1
 2066 06f8 62000000 		.4byte	0x62
 2067 06fc 98000000 		.4byte	.LFB14
 2068 0700 D8000000 		.4byte	.LFE14
 2069 0704 80020000 		.4byte	.LLST3
 2070 0708 01       		.byte	0x1
 2071 0709 1C070000 		.4byte	0x71c
 2072 070d 16       		.uleb128 0x16
 2073 070e 03010000 		.4byte	.LASF80
 2074 0712 01       		.byte	0x1
 2075 0713 25       		.byte	0x25
 2076 0714 1C050000 		.4byte	0x51c
 2077 0718 02       		.byte	0x2
 2078 0719 91       		.byte	0x91
 2079 071a 74       		.sleb128 -12
 2080 071b 00       		.byte	0
 2081 071c 15       		.uleb128 0x15
 2082 071d 01       		.byte	0x1
ARM GAS  G:\Users\Jaxb\AppData\Local\Temp\ccFImDCu.s 			page 42


 2083 071e AF000000 		.4byte	.LASF94
 2084 0722 01       		.byte	0x1
 2085 0723 14       		.byte	0x14
 2086 0724 01       		.byte	0x1
 2087 0725 62000000 		.4byte	0x62
 2088 0729 40000000 		.4byte	.LFB13
 2089 072d 98000000 		.4byte	.LFE13
 2090 0731 D0020000 		.4byte	.LLST2
 2091 0735 01       		.byte	0x1
 2092 0736 57070000 		.4byte	0x757
 2093 073a 16       		.uleb128 0x16
 2094 073b 03010000 		.4byte	.LASF80
 2095 073f 01       		.byte	0x1
 2096 0740 14       		.byte	0x14
 2097 0741 1C050000 		.4byte	0x51c
 2098 0745 02       		.byte	0x2
 2099 0746 91       		.byte	0x91
 2100 0747 6C       		.sleb128 -20
 2101 0748 17       		.uleb128 0x17
 2102 0749 59050000 		.4byte	.LASF85
 2103 074d 01       		.byte	0x1
 2104 074e 17       		.byte	0x17
 2105 074f F9010000 		.4byte	0x1f9
 2106 0753 02       		.byte	0x2
 2107 0754 91       		.byte	0x91
 2108 0755 74       		.sleb128 -12
 2109 0756 00       		.byte	0
 2110 0757 19       		.uleb128 0x19
 2111 0758 74030000 		.4byte	.LASF22
 2112 075c 01       		.byte	0x1
 2113 075d 0F       		.byte	0xf
 2114 075e 01       		.byte	0x1
 2115 075f 62000000 		.4byte	0x62
 2116 0763 22000000 		.4byte	.LFB12
 2117 0767 40000000 		.4byte	.LFE12
 2118 076b 20030000 		.4byte	.LLST1
 2119 076f 01       		.byte	0x1
 2120 0770 91070000 		.4byte	0x791
 2121 0774 16       		.uleb128 0x16
 2122 0775 81020000 		.4byte	.LASF95
 2123 0779 01       		.byte	0x1
 2124 077a 0F       		.byte	0xf
 2125 077b E9000000 		.4byte	0xe9
 2126 077f 02       		.byte	0x2
 2127 0780 91       		.byte	0x91
 2128 0781 74       		.sleb128 -12
 2129 0782 16       		.uleb128 0x16
 2130 0783 35060000 		.4byte	.LASF96
 2131 0787 01       		.byte	0x1
 2132 0788 0F       		.byte	0xf
 2133 0789 E9000000 		.4byte	0xe9
 2134 078d 02       		.byte	0x2
 2135 078e 91       		.byte	0x91
 2136 078f 70       		.sleb128 -16
 2137 0790 00       		.byte	0
 2138 0791 1A       		.uleb128 0x1a
 2139 0792 DB040000 		.4byte	.LASF20
ARM GAS  G:\Users\Jaxb\AppData\Local\Temp\ccFImDCu.s 			page 43


 2140 0796 01       		.byte	0x1
 2141 0797 0A       		.byte	0xa
 2142 0798 01       		.byte	0x1
 2143 0799 62000000 		.4byte	0x62
 2144 079d 00000000 		.4byte	.LFB11
 2145 07a1 22000000 		.4byte	.LFE11
 2146 07a5 7C030000 		.4byte	.LLST0
 2147 07a9 01       		.byte	0x1
 2148 07aa 16       		.uleb128 0x16
 2149 07ab 81020000 		.4byte	.LASF95
 2150 07af 01       		.byte	0x1
 2151 07b0 0A       		.byte	0xa
 2152 07b1 53010000 		.4byte	0x153
 2153 07b5 02       		.byte	0x2
 2154 07b6 91       		.byte	0x91
 2155 07b7 74       		.sleb128 -12
 2156 07b8 16       		.uleb128 0x16
 2157 07b9 35060000 		.4byte	.LASF96
 2158 07bd 01       		.byte	0x1
 2159 07be 0A       		.byte	0xa
 2160 07bf 53010000 		.4byte	0x153
 2161 07c3 02       		.byte	0x2
 2162 07c4 91       		.byte	0x91
 2163 07c5 70       		.sleb128 -16
 2164 07c6 00       		.byte	0
 2165 07c7 00       		.byte	0
 2166              		.section	.debug_abbrev,"",%progbits
 2167              	.Ldebug_abbrev0:
 2168 0000 01       		.uleb128 0x1
 2169 0001 11       		.uleb128 0x11
 2170 0002 01       		.byte	0x1
 2171 0003 25       		.uleb128 0x25
 2172 0004 0E       		.uleb128 0xe
 2173 0005 13       		.uleb128 0x13
 2174 0006 0B       		.uleb128 0xb
 2175 0007 03       		.uleb128 0x3
 2176 0008 0E       		.uleb128 0xe
 2177 0009 1B       		.uleb128 0x1b
 2178 000a 0E       		.uleb128 0xe
 2179 000b 11       		.uleb128 0x11
 2180 000c 01       		.uleb128 0x1
 2181 000d 12       		.uleb128 0x12
 2182 000e 01       		.uleb128 0x1
 2183 000f 10       		.uleb128 0x10
 2184 0010 06       		.uleb128 0x6
 2185 0011 00       		.byte	0
 2186 0012 00       		.byte	0
 2187 0013 02       		.uleb128 0x2
 2188 0014 13       		.uleb128 0x13
 2189 0015 01       		.byte	0x1
 2190 0016 03       		.uleb128 0x3
 2191 0017 0E       		.uleb128 0xe
 2192 0018 0B       		.uleb128 0xb
 2193 0019 0B       		.uleb128 0xb
 2194 001a 3A       		.uleb128 0x3a
 2195 001b 0B       		.uleb128 0xb
 2196 001c 3B       		.uleb128 0x3b
ARM GAS  G:\Users\Jaxb\AppData\Local\Temp\ccFImDCu.s 			page 44


 2197 001d 0B       		.uleb128 0xb
 2198 001e 01       		.uleb128 0x1
 2199 001f 13       		.uleb128 0x13
 2200 0020 00       		.byte	0
 2201 0021 00       		.byte	0
 2202 0022 03       		.uleb128 0x3
 2203 0023 0D       		.uleb128 0xd
 2204 0024 00       		.byte	0
 2205 0025 03       		.uleb128 0x3
 2206 0026 0E       		.uleb128 0xe
 2207 0027 3A       		.uleb128 0x3a
 2208 0028 0B       		.uleb128 0xb
 2209 0029 3B       		.uleb128 0x3b
 2210 002a 0B       		.uleb128 0xb
 2211 002b 49       		.uleb128 0x49
 2212 002c 13       		.uleb128 0x13
 2213 002d 38       		.uleb128 0x38
 2214 002e 0A       		.uleb128 0xa
 2215 002f 00       		.byte	0
 2216 0030 00       		.byte	0
 2217 0031 04       		.uleb128 0x4
 2218 0032 0F       		.uleb128 0xf
 2219 0033 00       		.byte	0
 2220 0034 0B       		.uleb128 0xb
 2221 0035 0B       		.uleb128 0xb
 2222 0036 49       		.uleb128 0x49
 2223 0037 13       		.uleb128 0x13
 2224 0038 00       		.byte	0
 2225 0039 00       		.byte	0
 2226 003a 05       		.uleb128 0x5
 2227 003b 24       		.uleb128 0x24
 2228 003c 00       		.byte	0
 2229 003d 0B       		.uleb128 0xb
 2230 003e 0B       		.uleb128 0xb
 2231 003f 3E       		.uleb128 0x3e
 2232 0040 0B       		.uleb128 0xb
 2233 0041 03       		.uleb128 0x3
 2234 0042 0E       		.uleb128 0xe
 2235 0043 00       		.byte	0
 2236 0044 00       		.byte	0
 2237 0045 06       		.uleb128 0x6
 2238 0046 24       		.uleb128 0x24
 2239 0047 00       		.byte	0
 2240 0048 0B       		.uleb128 0xb
 2241 0049 0B       		.uleb128 0xb
 2242 004a 3E       		.uleb128 0x3e
 2243 004b 0B       		.uleb128 0xb
 2244 004c 03       		.uleb128 0x3
 2245 004d 08       		.uleb128 0x8
 2246 004e 00       		.byte	0
 2247 004f 00       		.byte	0
 2248 0050 07       		.uleb128 0x7
 2249 0051 35       		.uleb128 0x35
 2250 0052 00       		.byte	0
 2251 0053 49       		.uleb128 0x49
 2252 0054 13       		.uleb128 0x13
 2253 0055 00       		.byte	0
ARM GAS  G:\Users\Jaxb\AppData\Local\Temp\ccFImDCu.s 			page 45


 2254 0056 00       		.byte	0
 2255 0057 08       		.uleb128 0x8
 2256 0058 16       		.uleb128 0x16
 2257 0059 00       		.byte	0
 2258 005a 03       		.uleb128 0x3
 2259 005b 0E       		.uleb128 0xe
 2260 005c 3A       		.uleb128 0x3a
 2261 005d 0B       		.uleb128 0xb
 2262 005e 3B       		.uleb128 0x3b
 2263 005f 0B       		.uleb128 0xb
 2264 0060 49       		.uleb128 0x49
 2265 0061 13       		.uleb128 0x13
 2266 0062 00       		.byte	0
 2267 0063 00       		.byte	0
 2268 0064 09       		.uleb128 0x9
 2269 0065 0F       		.uleb128 0xf
 2270 0066 00       		.byte	0
 2271 0067 0B       		.uleb128 0xb
 2272 0068 0B       		.uleb128 0xb
 2273 0069 00       		.byte	0
 2274 006a 00       		.byte	0
 2275 006b 0A       		.uleb128 0xa
 2276 006c 15       		.uleb128 0x15
 2277 006d 01       		.byte	0x1
 2278 006e 27       		.uleb128 0x27
 2279 006f 0C       		.uleb128 0xc
 2280 0070 49       		.uleb128 0x49
 2281 0071 13       		.uleb128 0x13
 2282 0072 01       		.uleb128 0x1
 2283 0073 13       		.uleb128 0x13
 2284 0074 00       		.byte	0
 2285 0075 00       		.byte	0
 2286 0076 0B       		.uleb128 0xb
 2287 0077 05       		.uleb128 0x5
 2288 0078 00       		.byte	0
 2289 0079 49       		.uleb128 0x49
 2290 007a 13       		.uleb128 0x13
 2291 007b 00       		.byte	0
 2292 007c 00       		.byte	0
 2293 007d 0C       		.uleb128 0xc
 2294 007e 04       		.uleb128 0x4
 2295 007f 01       		.byte	0x1
 2296 0080 03       		.uleb128 0x3
 2297 0081 0E       		.uleb128 0xe
 2298 0082 3E       		.uleb128 0x3e
 2299 0083 0B       		.uleb128 0xb
 2300 0084 0B       		.uleb128 0xb
 2301 0085 0B       		.uleb128 0xb
 2302 0086 49       		.uleb128 0x49
 2303 0087 13       		.uleb128 0x13
 2304 0088 3A       		.uleb128 0x3a
 2305 0089 0B       		.uleb128 0xb
 2306 008a 3B       		.uleb128 0x3b
 2307 008b 0B       		.uleb128 0xb
 2308 008c 01       		.uleb128 0x1
 2309 008d 13       		.uleb128 0x13
 2310 008e 00       		.byte	0
ARM GAS  G:\Users\Jaxb\AppData\Local\Temp\ccFImDCu.s 			page 46


 2311 008f 00       		.byte	0
 2312 0090 0D       		.uleb128 0xd
 2313 0091 28       		.uleb128 0x28
 2314 0092 00       		.byte	0
 2315 0093 03       		.uleb128 0x3
 2316 0094 0E       		.uleb128 0xe
 2317 0095 1C       		.uleb128 0x1c
 2318 0096 0B       		.uleb128 0xb
 2319 0097 00       		.byte	0
 2320 0098 00       		.byte	0
 2321 0099 0E       		.uleb128 0xe
 2322 009a 34       		.uleb128 0x34
 2323 009b 00       		.byte	0
 2324 009c 03       		.uleb128 0x3
 2325 009d 0E       		.uleb128 0xe
 2326 009e 3A       		.uleb128 0x3a
 2327 009f 0B       		.uleb128 0xb
 2328 00a0 3B       		.uleb128 0x3b
 2329 00a1 0B       		.uleb128 0xb
 2330 00a2 49       		.uleb128 0x49
 2331 00a3 13       		.uleb128 0x13
 2332 00a4 3F       		.uleb128 0x3f
 2333 00a5 0C       		.uleb128 0xc
 2334 00a6 3C       		.uleb128 0x3c
 2335 00a7 0C       		.uleb128 0xc
 2336 00a8 00       		.byte	0
 2337 00a9 00       		.byte	0
 2338 00aa 0F       		.uleb128 0xf
 2339 00ab 26       		.uleb128 0x26
 2340 00ac 00       		.byte	0
 2341 00ad 49       		.uleb128 0x49
 2342 00ae 13       		.uleb128 0x13
 2343 00af 00       		.byte	0
 2344 00b0 00       		.byte	0
 2345 00b1 10       		.uleb128 0x10
 2346 00b2 13       		.uleb128 0x13
 2347 00b3 00       		.byte	0
 2348 00b4 03       		.uleb128 0x3
 2349 00b5 0E       		.uleb128 0xe
 2350 00b6 3C       		.uleb128 0x3c
 2351 00b7 0C       		.uleb128 0xc
 2352 00b8 00       		.byte	0
 2353 00b9 00       		.byte	0
 2354 00ba 11       		.uleb128 0x11
 2355 00bb 16       		.uleb128 0x16
 2356 00bc 00       		.byte	0
 2357 00bd 03       		.uleb128 0x3
 2358 00be 08       		.uleb128 0x8
 2359 00bf 3A       		.uleb128 0x3a
 2360 00c0 0B       		.uleb128 0xb
 2361 00c1 3B       		.uleb128 0x3b
 2362 00c2 0B       		.uleb128 0xb
 2363 00c3 49       		.uleb128 0x49
 2364 00c4 13       		.uleb128 0x13
 2365 00c5 00       		.byte	0
 2366 00c6 00       		.byte	0
 2367 00c7 12       		.uleb128 0x12
ARM GAS  G:\Users\Jaxb\AppData\Local\Temp\ccFImDCu.s 			page 47


 2368 00c8 01       		.uleb128 0x1
 2369 00c9 01       		.byte	0x1
 2370 00ca 49       		.uleb128 0x49
 2371 00cb 13       		.uleb128 0x13
 2372 00cc 01       		.uleb128 0x1
 2373 00cd 13       		.uleb128 0x13
 2374 00ce 00       		.byte	0
 2375 00cf 00       		.byte	0
 2376 00d0 13       		.uleb128 0x13
 2377 00d1 21       		.uleb128 0x21
 2378 00d2 00       		.byte	0
 2379 00d3 49       		.uleb128 0x49
 2380 00d4 13       		.uleb128 0x13
 2381 00d5 2F       		.uleb128 0x2f
 2382 00d6 0B       		.uleb128 0xb
 2383 00d7 00       		.byte	0
 2384 00d8 00       		.byte	0
 2385 00d9 14       		.uleb128 0x14
 2386 00da 34       		.uleb128 0x34
 2387 00db 00       		.byte	0
 2388 00dc 03       		.uleb128 0x3
 2389 00dd 0E       		.uleb128 0xe
 2390 00de 3A       		.uleb128 0x3a
 2391 00df 0B       		.uleb128 0xb
 2392 00e0 3B       		.uleb128 0x3b
 2393 00e1 0B       		.uleb128 0xb
 2394 00e2 49       		.uleb128 0x49
 2395 00e3 13       		.uleb128 0x13
 2396 00e4 3F       		.uleb128 0x3f
 2397 00e5 0C       		.uleb128 0xc
 2398 00e6 02       		.uleb128 0x2
 2399 00e7 0A       		.uleb128 0xa
 2400 00e8 00       		.byte	0
 2401 00e9 00       		.byte	0
 2402 00ea 15       		.uleb128 0x15
 2403 00eb 2E       		.uleb128 0x2e
 2404 00ec 01       		.byte	0x1
 2405 00ed 3F       		.uleb128 0x3f
 2406 00ee 0C       		.uleb128 0xc
 2407 00ef 03       		.uleb128 0x3
 2408 00f0 0E       		.uleb128 0xe
 2409 00f1 3A       		.uleb128 0x3a
 2410 00f2 0B       		.uleb128 0xb
 2411 00f3 3B       		.uleb128 0x3b
 2412 00f4 0B       		.uleb128 0xb
 2413 00f5 27       		.uleb128 0x27
 2414 00f6 0C       		.uleb128 0xc
 2415 00f7 49       		.uleb128 0x49
 2416 00f8 13       		.uleb128 0x13
 2417 00f9 11       		.uleb128 0x11
 2418 00fa 01       		.uleb128 0x1
 2419 00fb 12       		.uleb128 0x12
 2420 00fc 01       		.uleb128 0x1
 2421 00fd 40       		.uleb128 0x40
 2422 00fe 06       		.uleb128 0x6
 2423 00ff 9642     		.uleb128 0x2116
 2424 0101 0C       		.uleb128 0xc
ARM GAS  G:\Users\Jaxb\AppData\Local\Temp\ccFImDCu.s 			page 48


 2425 0102 01       		.uleb128 0x1
 2426 0103 13       		.uleb128 0x13
 2427 0104 00       		.byte	0
 2428 0105 00       		.byte	0
 2429 0106 16       		.uleb128 0x16
 2430 0107 05       		.uleb128 0x5
 2431 0108 00       		.byte	0
 2432 0109 03       		.uleb128 0x3
 2433 010a 0E       		.uleb128 0xe
 2434 010b 3A       		.uleb128 0x3a
 2435 010c 0B       		.uleb128 0xb
 2436 010d 3B       		.uleb128 0x3b
 2437 010e 0B       		.uleb128 0xb
 2438 010f 49       		.uleb128 0x49
 2439 0110 13       		.uleb128 0x13
 2440 0111 02       		.uleb128 0x2
 2441 0112 0A       		.uleb128 0xa
 2442 0113 00       		.byte	0
 2443 0114 00       		.byte	0
 2444 0115 17       		.uleb128 0x17
 2445 0116 34       		.uleb128 0x34
 2446 0117 00       		.byte	0
 2447 0118 03       		.uleb128 0x3
 2448 0119 0E       		.uleb128 0xe
 2449 011a 3A       		.uleb128 0x3a
 2450 011b 0B       		.uleb128 0xb
 2451 011c 3B       		.uleb128 0x3b
 2452 011d 0B       		.uleb128 0xb
 2453 011e 49       		.uleb128 0x49
 2454 011f 13       		.uleb128 0x13
 2455 0120 02       		.uleb128 0x2
 2456 0121 0A       		.uleb128 0xa
 2457 0122 00       		.byte	0
 2458 0123 00       		.byte	0
 2459 0124 18       		.uleb128 0x18
 2460 0125 0B       		.uleb128 0xb
 2461 0126 01       		.byte	0x1
 2462 0127 11       		.uleb128 0x11
 2463 0128 01       		.uleb128 0x1
 2464 0129 12       		.uleb128 0x12
 2465 012a 01       		.uleb128 0x1
 2466 012b 00       		.byte	0
 2467 012c 00       		.byte	0
 2468 012d 19       		.uleb128 0x19
 2469 012e 2E       		.uleb128 0x2e
 2470 012f 01       		.byte	0x1
 2471 0130 03       		.uleb128 0x3
 2472 0131 0E       		.uleb128 0xe
 2473 0132 3A       		.uleb128 0x3a
 2474 0133 0B       		.uleb128 0xb
 2475 0134 3B       		.uleb128 0x3b
 2476 0135 0B       		.uleb128 0xb
 2477 0136 27       		.uleb128 0x27
 2478 0137 0C       		.uleb128 0xc
 2479 0138 49       		.uleb128 0x49
 2480 0139 13       		.uleb128 0x13
 2481 013a 11       		.uleb128 0x11
ARM GAS  G:\Users\Jaxb\AppData\Local\Temp\ccFImDCu.s 			page 49


 2482 013b 01       		.uleb128 0x1
 2483 013c 12       		.uleb128 0x12
 2484 013d 01       		.uleb128 0x1
 2485 013e 40       		.uleb128 0x40
 2486 013f 06       		.uleb128 0x6
 2487 0140 9742     		.uleb128 0x2117
 2488 0142 0C       		.uleb128 0xc
 2489 0143 01       		.uleb128 0x1
 2490 0144 13       		.uleb128 0x13
 2491 0145 00       		.byte	0
 2492 0146 00       		.byte	0
 2493 0147 1A       		.uleb128 0x1a
 2494 0148 2E       		.uleb128 0x2e
 2495 0149 01       		.byte	0x1
 2496 014a 03       		.uleb128 0x3
 2497 014b 0E       		.uleb128 0xe
 2498 014c 3A       		.uleb128 0x3a
 2499 014d 0B       		.uleb128 0xb
 2500 014e 3B       		.uleb128 0x3b
 2501 014f 0B       		.uleb128 0xb
 2502 0150 27       		.uleb128 0x27
 2503 0151 0C       		.uleb128 0xc
 2504 0152 49       		.uleb128 0x49
 2505 0153 13       		.uleb128 0x13
 2506 0154 11       		.uleb128 0x11
 2507 0155 01       		.uleb128 0x1
 2508 0156 12       		.uleb128 0x12
 2509 0157 01       		.uleb128 0x1
 2510 0158 40       		.uleb128 0x40
 2511 0159 06       		.uleb128 0x6
 2512 015a 9742     		.uleb128 0x2117
 2513 015c 0C       		.uleb128 0xc
 2514 015d 00       		.byte	0
 2515 015e 00       		.byte	0
 2516 015f 00       		.byte	0
 2517              		.section	.debug_loc,"",%progbits
 2518              	.Ldebug_loc0:
 2519              	.LLST11:
 2520 0000 30040000 		.4byte	.LFB22-.Ltext0
 2521 0004 32040000 		.4byte	.LCFI57-.Ltext0
 2522 0008 0200     		.2byte	0x2
 2523 000a 7D       		.byte	0x7d
 2524 000b 00       		.sleb128 0
 2525 000c 32040000 		.4byte	.LCFI57-.Ltext0
 2526 0010 34040000 		.4byte	.LCFI58-.Ltext0
 2527 0014 0200     		.2byte	0x2
 2528 0016 7D       		.byte	0x7d
 2529 0017 08       		.sleb128 8
 2530 0018 34040000 		.4byte	.LCFI58-.Ltext0
 2531 001c 36040000 		.4byte	.LCFI59-.Ltext0
 2532 0020 0200     		.2byte	0x2
 2533 0022 7D       		.byte	0x7d
 2534 0023 10       		.sleb128 16
 2535 0024 36040000 		.4byte	.LCFI59-.Ltext0
 2536 0028 56040000 		.4byte	.LCFI60-.Ltext0
 2537 002c 0200     		.2byte	0x2
 2538 002e 77       		.byte	0x77
ARM GAS  G:\Users\Jaxb\AppData\Local\Temp\ccFImDCu.s 			page 50


 2539 002f 10       		.sleb128 16
 2540 0030 56040000 		.4byte	.LCFI60-.Ltext0
 2541 0034 58040000 		.4byte	.LCFI61-.Ltext0
 2542 0038 0200     		.2byte	0x2
 2543 003a 77       		.byte	0x77
 2544 003b 08       		.sleb128 8
 2545 003c 58040000 		.4byte	.LCFI61-.Ltext0
 2546 0040 60040000 		.4byte	.LFE22-.Ltext0
 2547 0044 0200     		.2byte	0x2
 2548 0046 7D       		.byte	0x7d
 2549 0047 08       		.sleb128 8
 2550 0048 00000000 		.4byte	0
 2551 004c 00000000 		.4byte	0
 2552              	.LLST10:
 2553 0050 C4030000 		.4byte	.LFB21-.Ltext0
 2554 0054 C6030000 		.4byte	.LCFI52-.Ltext0
 2555 0058 0200     		.2byte	0x2
 2556 005a 7D       		.byte	0x7d
 2557 005b 00       		.sleb128 0
 2558 005c C6030000 		.4byte	.LCFI52-.Ltext0
 2559 0060 C8030000 		.4byte	.LCFI53-.Ltext0
 2560 0064 0200     		.2byte	0x2
 2561 0066 7D       		.byte	0x7d
 2562 0067 08       		.sleb128 8
 2563 0068 C8030000 		.4byte	.LCFI53-.Ltext0
 2564 006c CA030000 		.4byte	.LCFI54-.Ltext0
 2565 0070 0200     		.2byte	0x2
 2566 0072 7D       		.byte	0x7d
 2567 0073 18       		.sleb128 24
 2568 0074 CA030000 		.4byte	.LCFI54-.Ltext0
 2569 0078 28040000 		.4byte	.LCFI55-.Ltext0
 2570 007c 0200     		.2byte	0x2
 2571 007e 77       		.byte	0x77
 2572 007f 18       		.sleb128 24
 2573 0080 28040000 		.4byte	.LCFI55-.Ltext0
 2574 0084 2A040000 		.4byte	.LCFI56-.Ltext0
 2575 0088 0200     		.2byte	0x2
 2576 008a 77       		.byte	0x77
 2577 008b 08       		.sleb128 8
 2578 008c 2A040000 		.4byte	.LCFI56-.Ltext0
 2579 0090 30040000 		.4byte	.LFE21-.Ltext0
 2580 0094 0200     		.2byte	0x2
 2581 0096 7D       		.byte	0x7d
 2582 0097 08       		.sleb128 8
 2583 0098 00000000 		.4byte	0
 2584 009c 00000000 		.4byte	0
 2585              	.LLST9:
 2586 00a0 94030000 		.4byte	.LFB20-.Ltext0
 2587 00a4 96030000 		.4byte	.LCFI47-.Ltext0
 2588 00a8 0200     		.2byte	0x2
 2589 00aa 7D       		.byte	0x7d
 2590 00ab 00       		.sleb128 0
 2591 00ac 96030000 		.4byte	.LCFI47-.Ltext0
 2592 00b0 98030000 		.4byte	.LCFI48-.Ltext0
 2593 00b4 0200     		.2byte	0x2
 2594 00b6 7D       		.byte	0x7d
 2595 00b7 08       		.sleb128 8
ARM GAS  G:\Users\Jaxb\AppData\Local\Temp\ccFImDCu.s 			page 51


 2596 00b8 98030000 		.4byte	.LCFI48-.Ltext0
 2597 00bc 9A030000 		.4byte	.LCFI49-.Ltext0
 2598 00c0 0200     		.2byte	0x2
 2599 00c2 7D       		.byte	0x7d
 2600 00c3 10       		.sleb128 16
 2601 00c4 9A030000 		.4byte	.LCFI49-.Ltext0
 2602 00c8 BA030000 		.4byte	.LCFI50-.Ltext0
 2603 00cc 0200     		.2byte	0x2
 2604 00ce 77       		.byte	0x77
 2605 00cf 10       		.sleb128 16
 2606 00d0 BA030000 		.4byte	.LCFI50-.Ltext0
 2607 00d4 BC030000 		.4byte	.LCFI51-.Ltext0
 2608 00d8 0200     		.2byte	0x2
 2609 00da 77       		.byte	0x77
 2610 00db 08       		.sleb128 8
 2611 00dc BC030000 		.4byte	.LCFI51-.Ltext0
 2612 00e0 C4030000 		.4byte	.LFE20-.Ltext0
 2613 00e4 0200     		.2byte	0x2
 2614 00e6 7D       		.byte	0x7d
 2615 00e7 08       		.sleb128 8
 2616 00e8 00000000 		.4byte	0
 2617 00ec 00000000 		.4byte	0
 2618              	.LLST8:
 2619 00f0 D4020000 		.4byte	.LFB19-.Ltext0
 2620 00f4 D6020000 		.4byte	.LCFI42-.Ltext0
 2621 00f8 0200     		.2byte	0x2
 2622 00fa 7D       		.byte	0x7d
 2623 00fb 00       		.sleb128 0
 2624 00fc D6020000 		.4byte	.LCFI42-.Ltext0
 2625 0100 D8020000 		.4byte	.LCFI43-.Ltext0
 2626 0104 0200     		.2byte	0x2
 2627 0106 7D       		.byte	0x7d
 2628 0107 08       		.sleb128 8
 2629 0108 D8020000 		.4byte	.LCFI43-.Ltext0
 2630 010c DA020000 		.4byte	.LCFI44-.Ltext0
 2631 0110 0200     		.2byte	0x2
 2632 0112 7D       		.byte	0x7d
 2633 0113 20       		.sleb128 32
 2634 0114 DA020000 		.4byte	.LCFI44-.Ltext0
 2635 0118 86030000 		.4byte	.LCFI45-.Ltext0
 2636 011c 0200     		.2byte	0x2
 2637 011e 77       		.byte	0x77
 2638 011f 20       		.sleb128 32
 2639 0120 86030000 		.4byte	.LCFI45-.Ltext0
 2640 0124 88030000 		.4byte	.LCFI46-.Ltext0
 2641 0128 0200     		.2byte	0x2
 2642 012a 77       		.byte	0x77
 2643 012b 08       		.sleb128 8
 2644 012c 88030000 		.4byte	.LCFI46-.Ltext0
 2645 0130 94030000 		.4byte	.LFE19-.Ltext0
 2646 0134 0200     		.2byte	0x2
 2647 0136 7D       		.byte	0x7d
 2648 0137 08       		.sleb128 8
 2649 0138 00000000 		.4byte	0
 2650 013c 00000000 		.4byte	0
 2651              	.LLST7:
 2652 0140 A4020000 		.4byte	.LFB18-.Ltext0
ARM GAS  G:\Users\Jaxb\AppData\Local\Temp\ccFImDCu.s 			page 52


 2653 0144 A6020000 		.4byte	.LCFI37-.Ltext0
 2654 0148 0200     		.2byte	0x2
 2655 014a 7D       		.byte	0x7d
 2656 014b 00       		.sleb128 0
 2657 014c A6020000 		.4byte	.LCFI37-.Ltext0
 2658 0150 A8020000 		.4byte	.LCFI38-.Ltext0
 2659 0154 0200     		.2byte	0x2
 2660 0156 7D       		.byte	0x7d
 2661 0157 08       		.sleb128 8
 2662 0158 A8020000 		.4byte	.LCFI38-.Ltext0
 2663 015c AA020000 		.4byte	.LCFI39-.Ltext0
 2664 0160 0200     		.2byte	0x2
 2665 0162 7D       		.byte	0x7d
 2666 0163 10       		.sleb128 16
 2667 0164 AA020000 		.4byte	.LCFI39-.Ltext0
 2668 0168 CA020000 		.4byte	.LCFI40-.Ltext0
 2669 016c 0200     		.2byte	0x2
 2670 016e 77       		.byte	0x77
 2671 016f 10       		.sleb128 16
 2672 0170 CA020000 		.4byte	.LCFI40-.Ltext0
 2673 0174 CC020000 		.4byte	.LCFI41-.Ltext0
 2674 0178 0200     		.2byte	0x2
 2675 017a 77       		.byte	0x77
 2676 017b 08       		.sleb128 8
 2677 017c CC020000 		.4byte	.LCFI41-.Ltext0
 2678 0180 D4020000 		.4byte	.LFE18-.Ltext0
 2679 0184 0200     		.2byte	0x2
 2680 0186 7D       		.byte	0x7d
 2681 0187 08       		.sleb128 8
 2682 0188 00000000 		.4byte	0
 2683 018c 00000000 		.4byte	0
 2684              	.LLST6:
 2685 0190 38020000 		.4byte	.LFB17-.Ltext0
 2686 0194 3A020000 		.4byte	.LCFI32-.Ltext0
 2687 0198 0200     		.2byte	0x2
 2688 019a 7D       		.byte	0x7d
 2689 019b 00       		.sleb128 0
 2690 019c 3A020000 		.4byte	.LCFI32-.Ltext0
 2691 01a0 3C020000 		.4byte	.LCFI33-.Ltext0
 2692 01a4 0200     		.2byte	0x2
 2693 01a6 7D       		.byte	0x7d
 2694 01a7 08       		.sleb128 8
 2695 01a8 3C020000 		.4byte	.LCFI33-.Ltext0
 2696 01ac 3E020000 		.4byte	.LCFI34-.Ltext0
 2697 01b0 0200     		.2byte	0x2
 2698 01b2 7D       		.byte	0x7d
 2699 01b3 18       		.sleb128 24
 2700 01b4 3E020000 		.4byte	.LCFI34-.Ltext0
 2701 01b8 96020000 		.4byte	.LCFI35-.Ltext0
 2702 01bc 0200     		.2byte	0x2
 2703 01be 77       		.byte	0x77
 2704 01bf 18       		.sleb128 24
 2705 01c0 96020000 		.4byte	.LCFI35-.Ltext0
 2706 01c4 98020000 		.4byte	.LCFI36-.Ltext0
 2707 01c8 0200     		.2byte	0x2
 2708 01ca 77       		.byte	0x77
 2709 01cb 08       		.sleb128 8
ARM GAS  G:\Users\Jaxb\AppData\Local\Temp\ccFImDCu.s 			page 53


 2710 01cc 98020000 		.4byte	.LCFI36-.Ltext0
 2711 01d0 A4020000 		.4byte	.LFE17-.Ltext0
 2712 01d4 0200     		.2byte	0x2
 2713 01d6 7D       		.byte	0x7d
 2714 01d7 08       		.sleb128 8
 2715 01d8 00000000 		.4byte	0
 2716 01dc 00000000 		.4byte	0
 2717              	.LLST5:
 2718 01e0 F8010000 		.4byte	.LFB16-.Ltext0
 2719 01e4 FA010000 		.4byte	.LCFI27-.Ltext0
 2720 01e8 0200     		.2byte	0x2
 2721 01ea 7D       		.byte	0x7d
 2722 01eb 00       		.sleb128 0
 2723 01ec FA010000 		.4byte	.LCFI27-.Ltext0
 2724 01f0 FC010000 		.4byte	.LCFI28-.Ltext0
 2725 01f4 0200     		.2byte	0x2
 2726 01f6 7D       		.byte	0x7d
 2727 01f7 08       		.sleb128 8
 2728 01f8 FC010000 		.4byte	.LCFI28-.Ltext0
 2729 01fc FE010000 		.4byte	.LCFI29-.Ltext0
 2730 0200 0200     		.2byte	0x2
 2731 0202 7D       		.byte	0x7d
 2732 0203 10       		.sleb128 16
 2733 0204 FE010000 		.4byte	.LCFI29-.Ltext0
 2734 0208 2C020000 		.4byte	.LCFI30-.Ltext0
 2735 020c 0200     		.2byte	0x2
 2736 020e 77       		.byte	0x77
 2737 020f 10       		.sleb128 16
 2738 0210 2C020000 		.4byte	.LCFI30-.Ltext0
 2739 0214 2E020000 		.4byte	.LCFI31-.Ltext0
 2740 0218 0200     		.2byte	0x2
 2741 021a 77       		.byte	0x77
 2742 021b 08       		.sleb128 8
 2743 021c 2E020000 		.4byte	.LCFI31-.Ltext0
 2744 0220 38020000 		.4byte	.LFE16-.Ltext0
 2745 0224 0200     		.2byte	0x2
 2746 0226 7D       		.byte	0x7d
 2747 0227 08       		.sleb128 8
 2748 0228 00000000 		.4byte	0
 2749 022c 00000000 		.4byte	0
 2750              	.LLST4:
 2751 0230 D8000000 		.4byte	.LFB15-.Ltext0
 2752 0234 DA000000 		.4byte	.LCFI22-.Ltext0
 2753 0238 0200     		.2byte	0x2
 2754 023a 7D       		.byte	0x7d
 2755 023b 00       		.sleb128 0
 2756 023c DA000000 		.4byte	.LCFI22-.Ltext0
 2757 0240 DC000000 		.4byte	.LCFI23-.Ltext0
 2758 0244 0200     		.2byte	0x2
 2759 0246 7D       		.byte	0x7d
 2760 0247 08       		.sleb128 8
 2761 0248 DC000000 		.4byte	.LCFI23-.Ltext0
 2762 024c DE000000 		.4byte	.LCFI24-.Ltext0
 2763 0250 0200     		.2byte	0x2
 2764 0252 7D       		.byte	0x7d
 2765 0253 30       		.sleb128 48
 2766 0254 DE000000 		.4byte	.LCFI24-.Ltext0
ARM GAS  G:\Users\Jaxb\AppData\Local\Temp\ccFImDCu.s 			page 54


 2767 0258 EA010000 		.4byte	.LCFI25-.Ltext0
 2768 025c 0200     		.2byte	0x2
 2769 025e 77       		.byte	0x77
 2770 025f 30       		.sleb128 48
 2771 0260 EA010000 		.4byte	.LCFI25-.Ltext0
 2772 0264 EC010000 		.4byte	.LCFI26-.Ltext0
 2773 0268 0200     		.2byte	0x2
 2774 026a 77       		.byte	0x77
 2775 026b 08       		.sleb128 8
 2776 026c EC010000 		.4byte	.LCFI26-.Ltext0
 2777 0270 F8010000 		.4byte	.LFE15-.Ltext0
 2778 0274 0200     		.2byte	0x2
 2779 0276 7D       		.byte	0x7d
 2780 0277 08       		.sleb128 8
 2781 0278 00000000 		.4byte	0
 2782 027c 00000000 		.4byte	0
 2783              	.LLST3:
 2784 0280 98000000 		.4byte	.LFB14-.Ltext0
 2785 0284 9A000000 		.4byte	.LCFI17-.Ltext0
 2786 0288 0200     		.2byte	0x2
 2787 028a 7D       		.byte	0x7d
 2788 028b 00       		.sleb128 0
 2789 028c 9A000000 		.4byte	.LCFI17-.Ltext0
 2790 0290 9C000000 		.4byte	.LCFI18-.Ltext0
 2791 0294 0200     		.2byte	0x2
 2792 0296 7D       		.byte	0x7d
 2793 0297 08       		.sleb128 8
 2794 0298 9C000000 		.4byte	.LCFI18-.Ltext0
 2795 029c 9E000000 		.4byte	.LCFI19-.Ltext0
 2796 02a0 0200     		.2byte	0x2
 2797 02a2 7D       		.byte	0x7d
 2798 02a3 10       		.sleb128 16
 2799 02a4 9E000000 		.4byte	.LCFI19-.Ltext0
 2800 02a8 CC000000 		.4byte	.LCFI20-.Ltext0
 2801 02ac 0200     		.2byte	0x2
 2802 02ae 77       		.byte	0x77
 2803 02af 10       		.sleb128 16
 2804 02b0 CC000000 		.4byte	.LCFI20-.Ltext0
 2805 02b4 CE000000 		.4byte	.LCFI21-.Ltext0
 2806 02b8 0200     		.2byte	0x2
 2807 02ba 77       		.byte	0x77
 2808 02bb 08       		.sleb128 8
 2809 02bc CE000000 		.4byte	.LCFI21-.Ltext0
 2810 02c0 D8000000 		.4byte	.LFE14-.Ltext0
 2811 02c4 0200     		.2byte	0x2
 2812 02c6 7D       		.byte	0x7d
 2813 02c7 08       		.sleb128 8
 2814 02c8 00000000 		.4byte	0
 2815 02cc 00000000 		.4byte	0
 2816              	.LLST2:
 2817 02d0 40000000 		.4byte	.LFB13-.Ltext0
 2818 02d4 42000000 		.4byte	.LCFI12-.Ltext0
 2819 02d8 0200     		.2byte	0x2
 2820 02da 7D       		.byte	0x7d
 2821 02db 00       		.sleb128 0
 2822 02dc 42000000 		.4byte	.LCFI12-.Ltext0
 2823 02e0 44000000 		.4byte	.LCFI13-.Ltext0
ARM GAS  G:\Users\Jaxb\AppData\Local\Temp\ccFImDCu.s 			page 55


 2824 02e4 0200     		.2byte	0x2
 2825 02e6 7D       		.byte	0x7d
 2826 02e7 08       		.sleb128 8
 2827 02e8 44000000 		.4byte	.LCFI13-.Ltext0
 2828 02ec 46000000 		.4byte	.LCFI14-.Ltext0
 2829 02f0 0200     		.2byte	0x2
 2830 02f2 7D       		.byte	0x7d
 2831 02f3 18       		.sleb128 24
 2832 02f4 46000000 		.4byte	.LCFI14-.Ltext0
 2833 02f8 88000000 		.4byte	.LCFI15-.Ltext0
 2834 02fc 0200     		.2byte	0x2
 2835 02fe 77       		.byte	0x77
 2836 02ff 18       		.sleb128 24
 2837 0300 88000000 		.4byte	.LCFI15-.Ltext0
 2838 0304 8A000000 		.4byte	.LCFI16-.Ltext0
 2839 0308 0200     		.2byte	0x2
 2840 030a 77       		.byte	0x77
 2841 030b 08       		.sleb128 8
 2842 030c 8A000000 		.4byte	.LCFI16-.Ltext0
 2843 0310 98000000 		.4byte	.LFE13-.Ltext0
 2844 0314 0200     		.2byte	0x2
 2845 0316 7D       		.byte	0x7d
 2846 0317 08       		.sleb128 8
 2847 0318 00000000 		.4byte	0
 2848 031c 00000000 		.4byte	0
 2849              	.LLST1:
 2850 0320 22000000 		.4byte	.LFB12-.Ltext0
 2851 0324 24000000 		.4byte	.LCFI6-.Ltext0
 2852 0328 0200     		.2byte	0x2
 2853 032a 7D       		.byte	0x7d
 2854 032b 00       		.sleb128 0
 2855 032c 24000000 		.4byte	.LCFI6-.Ltext0
 2856 0330 26000000 		.4byte	.LCFI7-.Ltext0
 2857 0334 0200     		.2byte	0x2
 2858 0336 7D       		.byte	0x7d
 2859 0337 04       		.sleb128 4
 2860 0338 26000000 		.4byte	.LCFI7-.Ltext0
 2861 033c 28000000 		.4byte	.LCFI8-.Ltext0
 2862 0340 0200     		.2byte	0x2
 2863 0342 7D       		.byte	0x7d
 2864 0343 10       		.sleb128 16
 2865 0344 28000000 		.4byte	.LCFI8-.Ltext0
 2866 0348 3A000000 		.4byte	.LCFI9-.Ltext0
 2867 034c 0200     		.2byte	0x2
 2868 034e 77       		.byte	0x77
 2869 034f 10       		.sleb128 16
 2870 0350 3A000000 		.4byte	.LCFI9-.Ltext0
 2871 0354 3C000000 		.4byte	.LCFI10-.Ltext0
 2872 0358 0200     		.2byte	0x2
 2873 035a 77       		.byte	0x77
 2874 035b 04       		.sleb128 4
 2875 035c 3C000000 		.4byte	.LCFI10-.Ltext0
 2876 0360 3E000000 		.4byte	.LCFI11-.Ltext0
 2877 0364 0200     		.2byte	0x2
 2878 0366 7D       		.byte	0x7d
 2879 0367 04       		.sleb128 4
 2880 0368 3E000000 		.4byte	.LCFI11-.Ltext0
ARM GAS  G:\Users\Jaxb\AppData\Local\Temp\ccFImDCu.s 			page 56


 2881 036c 40000000 		.4byte	.LFE12-.Ltext0
 2882 0370 0200     		.2byte	0x2
 2883 0372 7D       		.byte	0x7d
 2884 0373 00       		.sleb128 0
 2885 0374 00000000 		.4byte	0
 2886 0378 00000000 		.4byte	0
 2887              	.LLST0:
 2888 037c 00000000 		.4byte	.LFB11-.Ltext0
 2889 0380 02000000 		.4byte	.LCFI0-.Ltext0
 2890 0384 0200     		.2byte	0x2
 2891 0386 7D       		.byte	0x7d
 2892 0387 00       		.sleb128 0
 2893 0388 02000000 		.4byte	.LCFI0-.Ltext0
 2894 038c 04000000 		.4byte	.LCFI1-.Ltext0
 2895 0390 0200     		.2byte	0x2
 2896 0392 7D       		.byte	0x7d
 2897 0393 04       		.sleb128 4
 2898 0394 04000000 		.4byte	.LCFI1-.Ltext0
 2899 0398 06000000 		.4byte	.LCFI2-.Ltext0
 2900 039c 0200     		.2byte	0x2
 2901 039e 7D       		.byte	0x7d
 2902 039f 10       		.sleb128 16
 2903 03a0 06000000 		.4byte	.LCFI2-.Ltext0
 2904 03a4 1C000000 		.4byte	.LCFI3-.Ltext0
 2905 03a8 0200     		.2byte	0x2
 2906 03aa 77       		.byte	0x77
 2907 03ab 10       		.sleb128 16
 2908 03ac 1C000000 		.4byte	.LCFI3-.Ltext0
 2909 03b0 1E000000 		.4byte	.LCFI4-.Ltext0
 2910 03b4 0200     		.2byte	0x2
 2911 03b6 77       		.byte	0x77
 2912 03b7 04       		.sleb128 4
 2913 03b8 1E000000 		.4byte	.LCFI4-.Ltext0
 2914 03bc 20000000 		.4byte	.LCFI5-.Ltext0
 2915 03c0 0200     		.2byte	0x2
 2916 03c2 7D       		.byte	0x7d
 2917 03c3 04       		.sleb128 4
 2918 03c4 20000000 		.4byte	.LCFI5-.Ltext0
 2919 03c8 22000000 		.4byte	.LFE11-.Ltext0
 2920 03cc 0200     		.2byte	0x2
 2921 03ce 7D       		.byte	0x7d
 2922 03cf 00       		.sleb128 0
 2923 03d0 00000000 		.4byte	0
 2924 03d4 00000000 		.4byte	0
 2925              		.section	.debug_aranges,"",%progbits
 2926 0000 1C000000 		.4byte	0x1c
 2927 0004 0200     		.2byte	0x2
 2928 0006 00000000 		.4byte	.Ldebug_info0
 2929 000a 04       		.byte	0x4
 2930 000b 00       		.byte	0
 2931 000c 0000     		.2byte	0
 2932 000e 0000     		.2byte	0
 2933 0010 00000000 		.4byte	.Ltext0
 2934 0014 60040000 		.4byte	.Letext0-.Ltext0
 2935 0018 00000000 		.4byte	0
 2936 001c 00000000 		.4byte	0
 2937              		.section	.debug_line,"",%progbits
ARM GAS  G:\Users\Jaxb\AppData\Local\Temp\ccFImDCu.s 			page 57


 2938              	.Ldebug_line0:
 2939 0000 E1010000 		.section	.debug_str,"MS",%progbits,1
 2939      02001301 
 2939      00000201 
 2939      FB0E0D00 
 2939      01010101 
 2940              	.LASF37:
 2941 0000 5441534B 		.ascii	"TASK_PRIO_TYPE\000"
 2941      5F505249 
 2941      4F5F5459 
 2941      504500
 2942              	.LASF58:
 2943 000f 6D757465 		.ascii	"mutex_insert_sort_TCB_list\000"
 2943      785F696E 
 2943      73657274 
 2943      5F736F72 
 2943      745F5443 
 2944              	.LASF76:
 2945 002a 5F5F7274 		.ascii	"__rtmsym_mutex_del_name\000"
 2945      6D73796D 
 2945      5F6D7574 
 2945      65785F64 
 2945      656C5F6E 
 2946              	.LASF71:
 2947 0042 5F5F7274 		.ascii	"__rtmsym_mutex_lock\000"
 2947      6D73796D 
 2947      5F6D7574 
 2947      65785F6C 
 2947      6F636B00 
 2948              	.LASF25:
 2949 0056 53544154 		.ascii	"STATE_SUSPEND_NORMAL\000"
 2949      455F5355 
 2949      5350454E 
 2949      445F4E4F 
 2949      524D414C 
 2950              	.LASF78:
 2951 006b 6D757465 		.ascii	"mutex_del\000"
 2951      785F6465 
 2951      6C00
 2952              	.LASF12:
 2953 0075 6C697374 		.ascii	"list_head\000"
 2953      5F686561 
 2953      6400
 2954              	.LASF77:
 2955 007f 5F5F7274 		.ascii	"__rtmsym_mutex_del\000"
 2955      6D73796D 
 2955      5F6D7574 
 2955      65785F64 
 2955      656C00
 2956              	.LASF72:
 2957 0092 5F5F7274 		.ascii	"__rtmsym_mutex_try_lock_name\000"
 2957      6D73796D 
 2957      5F6D7574 
 2957      65785F74 
 2957      72795F6C 
 2958              	.LASF94:
 2959 00af 5F6D7574 		.ascii	"_mutex_init\000"
ARM GAS  G:\Users\Jaxb\AppData\Local\Temp\ccFImDCu.s 			page 58


 2959      65785F69 
 2959      6E697400 
 2960              	.LASF18:
 2961 00bb 64617461 		.ascii	"data_list_head\000"
 2961      5F6C6973 
 2961      745F6865 
 2961      616400
 2962              	.LASF3:
 2963 00ca 73686F72 		.ascii	"short int\000"
 2963      7420696E 
 2963      7400
 2964              	.LASF79:
 2965 00d4 5F6D7574 		.ascii	"_mutex_del\000"
 2965      65785F64 
 2965      656C00
 2966              	.LASF91:
 2967 00df 5F6D7574 		.ascii	"_mutex_lock\000"
 2967      65785F6C 
 2967      6F636B00 
 2968              	.LASF15:
 2969 00eb 6964656E 		.ascii	"identify_data\000"
 2969      74696679 
 2969      5F646174 
 2969      6100
 2970              	.LASF16:
 2971 00f9 64617461 		.ascii	"data_list\000"
 2971      5F6C6973 
 2971      7400
 2972              	.LASF80:
 2973 0103 4D555445 		.ascii	"MUTEX_ptr\000"
 2973      585F7074 
 2973      7200
 2974              	.LASF28:
 2975 010d 53544154 		.ascii	"STATE_WAIT_MESSAGE_QUEUE_FOREVER\000"
 2975      455F5741 
 2975      49545F4D 
 2975      45535341 
 2975      47455F51 
 2976              	.LASF8:
 2977 012e 55494E54 		.ascii	"UINT32\000"
 2977      333200
 2978              	.LASF36:
 2979 0135 53544143 		.ascii	"STACK_TYPE\000"
 2979      4B5F5459 
 2979      504500
 2980              	.LASF60:
 2981 0140 5461736B 		.ascii	"Task_State\000"
 2981      5F537461 
 2981      746500
 2982              	.LASF30:
 2983 014b 53544154 		.ascii	"STATE_PUT_MESSAGE_QUEUE_FOREVER\000"
 2983      455F5055 
 2983      545F4D45 
 2983      53534147 
 2983      455F5155 
 2984              	.LASF64:
 2985 016b 6B615F6D 		.ascii	"ka_module_symtab\000"
ARM GAS  G:\Users\Jaxb\AppData\Local\Temp\ccFImDCu.s 			page 59


 2985      6F64756C 
 2985      655F7379 
 2985      6D746162 
 2985      00
 2986              	.LASF59:
 2987 017c 4D555445 		.ascii	"MUTEX\000"
 2987      5800
 2988              	.LASF90:
 2989 0182 6D757465 		.ascii	"mutex_lock\000"
 2989      785F6C6F 
 2989      636B00
 2990              	.LASF93:
 2991 018d 6D757465 		.ascii	"mutex_init\000"
 2991      785F696E 
 2991      697400
 2992              	.LASF41:
 2993 0198 73746163 		.ascii	"stack_end\000"
 2993      6B5F656E 
 2993      6400
 2994              	.LASF27:
 2995 01a2 53544154 		.ascii	"STATE_WAIT_MCB_TIMEOUT\000"
 2995      455F5741 
 2995      49545F4D 
 2995      43425F54 
 2995      494D454F 
 2996              	.LASF55:
 2997 01b9 6D757465 		.ascii	"mutex_block\000"
 2997      785F626C 
 2997      6F636B00 
 2998              	.LASF29:
 2999 01c5 53544154 		.ascii	"STATE_WAIT_MESSAGE_QUEUE_TIMEOUT\000"
 2999      455F5741 
 2999      49545F4D 
 2999      45535341 
 2999      47455F51 
 3000              	.LASF68:
 3001 01e6 5F5F7274 		.ascii	"__rtmsym_mutex_init_name\000"
 3001      6D73796D 
 3001      5F6D7574 
 3001      65785F69 
 3001      6E69745F 
 3002              	.LASF99:
 3003 01ff 463A5C6B 		.ascii	"F:\\kaka\\KAKAOS\\C\\windows\\Project\\RVMDK\243\250"
 3003      616B615C 
 3003      4B414B41 
 3003      4F535C43 
 3003      5C77696E 
 3004 0227 757635A3 		.ascii	"uv5\243\251\000"
 3004      A900
 3005              	.LASF4:
 3006 022d 6C6F6E67 		.ascii	"long long int\000"
 3006      206C6F6E 
 3006      6720696E 
 3006      7400
 3007              	.LASF49:
 3008 023b 74696D65 		.ascii	"timeslice_hope_time\000"
 3008      736C6963 
ARM GAS  G:\Users\Jaxb\AppData\Local\Temp\ccFImDCu.s 			page 60


 3008      655F686F 
 3008      70655F74 
 3008      696D6500 
 3009              	.LASF13:
 3010 024f 696E7365 		.ascii	"insert_sort_data\000"
 3010      72745F73 
 3010      6F72745F 
 3010      64617461 
 3010      00
 3011              	.LASF21:
 3012 0260 6765745F 		.ascii	"get_data_ptr\000"
 3012      64617461 
 3012      5F707472 
 3012      00
 3013              	.LASF88:
 3014 026d 6D757465 		.ascii	"mutex_try_lock\000"
 3014      785F7472 
 3014      795F6C6F 
 3014      636B00
 3015              	.LASF65:
 3016 027c 61646472 		.ascii	"addr\000"
 3016      00
 3017              	.LASF95:
 3018 0281 64617461 		.ascii	"data1\000"
 3018      3100
 3019              	.LASF33:
 3020 0287 5441534B 		.ascii	"TASK_STATE\000"
 3020      5F535441 
 3020      544500
 3021              	.LASF48:
 3022 0292 6E616D65 		.ascii	"name\000"
 3022      00
 3023              	.LASF67:
 3024 0297 4F535443 		.ascii	"OSTCBCurPtr\000"
 3024      42437572 
 3024      50747200 
 3025              	.LASF19:
 3026 02a3 64617461 		.ascii	"data_num\000"
 3026      5F6E756D 
 3026      00
 3027              	.LASF61:
 3028 02ac 6D757465 		.ascii	"mutex_state\000"
 3028      785F7374 
 3028      61746500 
 3029              	.LASF52:
 3030 02b8 64796E61 		.ascii	"dynamic_module_ptr\000"
 3030      6D69635F 
 3030      6D6F6475 
 3030      6C655F70 
 3030      747200
 3031              	.LASF5:
 3032 02cb 756E7369 		.ascii	"unsigned char\000"
 3032      676E6564 
 3032      20636861 
 3032      7200
 3033              	.LASF24:
 3034 02d9 53544154 		.ascii	"STATE_DELAY\000"
ARM GAS  G:\Users\Jaxb\AppData\Local\Temp\ccFImDCu.s 			page 61


 3034      455F4445 
 3034      4C415900 
 3035              	.LASF51:
 3036 02e5 61747472 		.ascii	"attribution\000"
 3036      69627574 
 3036      696F6E00 
 3037              	.LASF82:
 3038 02f1 696E7365 		.ascii	"insert_sort_data_ptr\000"
 3038      72745F73 
 3038      6F72745F 
 3038      64617461 
 3038      5F707472 
 3039              	.LASF2:
 3040 0306 7369676E 		.ascii	"signed char\000"
 3040      65642063 
 3040      68617200 
 3041              	.LASF10:
 3042 0312 6C6F6E67 		.ascii	"long long unsigned int\000"
 3042      206C6F6E 
 3042      6720756E 
 3042      7369676E 
 3042      65642069 
 3043              	.LASF7:
 3044 0329 756E7369 		.ascii	"unsigned int\000"
 3044      676E6564 
 3044      20696E74 
 3044      00
 3045              	.LASF86:
 3046 0336 62756666 		.ascii	"buffer_ptr\000"
 3046      65725F70 
 3046      747200
 3047              	.LASF39:
 3048 0341 73746163 		.ascii	"stack\000"
 3048      6B00
 3049              	.LASF70:
 3050 0347 5F5F7274 		.ascii	"__rtmsym_mutex_lock_name\000"
 3050      6D73796D 
 3050      5F6D7574 
 3050      65785F6C 
 3050      6F636B5F 
 3051              	.LASF46:
 3052 0360 73616D65 		.ascii	"same_prio_list\000"
 3052      5F707269 
 3052      6F5F6C69 
 3052      737400
 3053              	.LASF44:
 3054 036f 7072696F 		.ascii	"prio\000"
 3054      00
 3055              	.LASF22:
 3056 0374 76616C75 		.ascii	"value_cmp\000"
 3056      655F636D 
 3056      7000
 3057              	.LASF6:
 3058 037e 73686F72 		.ascii	"short unsigned int\000"
 3058      7420756E 
 3058      7369676E 
 3058      65642069 
ARM GAS  G:\Users\Jaxb\AppData\Local\Temp\ccFImDCu.s 			page 62


 3058      6E7400
 3059              	.LASF23:
 3060 0391 53544154 		.ascii	"STATE_READY\000"
 3060      455F5245 
 3060      41445900 
 3061              	.LASF56:
 3062 039d 6D757465 		.ascii	"mutex_flag\000"
 3062      785F666C 
 3062      616700
 3063              	.LASF54:
 3064 03a8 63686172 		.ascii	"char\000"
 3064      00
 3065              	.LASF74:
 3066 03ad 5F5F7274 		.ascii	"__rtmsym_mutex_unlock_name\000"
 3066      6D73796D 
 3066      5F6D7574 
 3066      65785F75 
 3066      6E6C6F63 
 3067              	.LASF31:
 3068 03c8 53544154 		.ascii	"STATE_PUT_MESSAGE_QUEUE_TIMEOUT\000"
 3068      455F5055 
 3068      545F4D45 
 3068      53534147 
 3068      455F5155 
 3069              	.LASF69:
 3070 03e8 5F5F7274 		.ascii	"__rtmsym_mutex_init\000"
 3070      6D73796D 
 3070      5F6D7574 
 3070      65785F69 
 3070      6E697400 
 3071              	.LASF34:
 3072 03fc 4350555F 		.ascii	"CPU_INT32U\000"
 3072      494E5433 
 3072      325500
 3073              	.LASF84:
 3074 0407 5F6D7574 		.ascii	"_mutex_unlock\000"
 3074      65785F75 
 3074      6E6C6F63 
 3074      6B00
 3075              	.LASF73:
 3076 0415 5F5F7274 		.ascii	"__rtmsym_mutex_try_lock\000"
 3076      6D73796D 
 3076      5F6D7574 
 3076      65785F74 
 3076      72795F6C 
 3077              	.LASF92:
 3078 042d 64617461 		.ascii	"data\000"
 3078      00
 3079              	.LASF87:
 3080 0432 62756666 		.ascii	"buffer\000"
 3080      657200
 3081              	.LASF98:
 3082 0439 2E2E2F2E 		.ascii	"../../source/src/kernel/OS_CORE/mutex.c\000"
 3082      2E2F736F 
 3082      75726365 
 3082      2F737263 
 3082      2F6B6572 
ARM GAS  G:\Users\Jaxb\AppData\Local\Temp\ccFImDCu.s 			page 63


 3083              	.LASF63:
 3084 0461 4D555445 		.ascii	"MUTEX_UNLOCK\000"
 3084      585F554E 
 3084      4C4F434B 
 3084      00
 3085              	.LASF45:
 3086 046e 64656C61 		.ascii	"delay_heap_position\000"
 3086      795F6865 
 3086      61705F70 
 3086      6F736974 
 3086      696F6E00 
 3087              	.LASF43:
 3088 0482 7461736B 		.ascii	"task_state\000"
 3088      5F737461 
 3088      746500
 3089              	.LASF89:
 3090 048d 5F6D7574 		.ascii	"_mutex_try_lock\000"
 3090      65785F74 
 3090      72795F6C 
 3090      6F636B00 
 3091              	.LASF50:
 3092 049d 74696D65 		.ascii	"timeslice_rest_time\000"
 3092      736C6963 
 3092      655F7265 
 3092      73745F74 
 3092      696D6500 
 3093              	.LASF17:
 3094 04b1 696E7365 		.ascii	"insert_sort_entity\000"
 3094      72745F73 
 3094      6F72745F 
 3094      656E7469 
 3094      747900
 3095              	.LASF26:
 3096 04c4 53544154 		.ascii	"STATE_WAIT_MCB_FOREVER\000"
 3096      455F5741 
 3096      49545F4D 
 3096      43425F46 
 3096      4F524556 
 3097              	.LASF20:
 3098 04db 636F6D70 		.ascii	"compare\000"
 3098      61726500 
 3099              	.LASF100:
 3100 04e3 64796E61 		.ascii	"dynamic_module\000"
 3100      6D69635F 
 3100      6D6F6475 
 3100      6C6500
 3101              	.LASF38:
 3102 04f2 7461736B 		.ascii	"task_control_block_struct\000"
 3102      5F636F6E 
 3102      74726F6C 
 3102      5F626C6F 
 3102      636B5F73 
 3103              	.LASF40:
 3104 050c 73746163 		.ascii	"stack_size\000"
 3104      6B5F7369 
 3104      7A6500
 3105              	.LASF57:
ARM GAS  G:\Users\Jaxb\AppData\Local\Temp\ccFImDCu.s 			page 64


 3106 0517 6F776E65 		.ascii	"owner_TCB_ptr\000"
 3106      725F5443 
 3106      425F7074 
 3106      7200
 3107              	.LASF81:
 3108 0525 5443425F 		.ascii	"TCB_ptr\000"
 3108      70747200 
 3109              	.LASF42:
 3110 052d 72657365 		.ascii	"reserve_prio\000"
 3110      7276655F 
 3110      7072696F 
 3110      00
 3111              	.LASF47:
 3112 053a 73757370 		.ascii	"suspend_list\000"
 3112      656E645F 
 3112      6C697374 
 3112      00
 3113              	.LASF66:
 3114 0547 675F696E 		.ascii	"g_interrupt_count\000"
 3114      74657272 
 3114      7570745F 
 3114      636F756E 
 3114      7400
 3115              	.LASF85:
 3116 0559 6370755F 		.ascii	"cpu_sr\000"
 3116      737200
 3117              	.LASF97:
 3118 0560 474E5520 		.ascii	"GNU C11 7.3.1 20180622 (release) [ARM/embedded-7-br"
 3118      43313120 
 3118      372E332E 
 3118      31203230 
 3118      31383036 
 3119 0593 616E6368 		.ascii	"anch revision 261907] -mcpu=cortex-m3 -mthumb -mapc"
 3119      20726576 
 3119      6973696F 
 3119      6E203236 
 3119      31393037 
 3120 05c6 732D6672 		.ascii	"s-frame -mthumb-interwork -mcpu=cortex-m3 -mthumb -"
 3120      616D6520 
 3120      2D6D7468 
 3120      756D622D 
 3120      696E7465 
 3121 05f9 67647761 		.ascii	"gdwarf-2 -O0\000"
 3121      72662D32 
 3121      202D4F30 
 3121      00
 3122              	.LASF75:
 3123 0606 5F5F7274 		.ascii	"__rtmsym_mutex_unlock\000"
 3123      6D73796D 
 3123      5F6D7574 
 3123      65785F75 
 3123      6E6C6F63 
 3124              	.LASF32:
 3125 061c 53544154 		.ascii	"STATE_WAIT_MUTEX_FOREVER\000"
 3125      455F5741 
 3125      49545F4D 
 3125      55544558 
ARM GAS  G:\Users\Jaxb\AppData\Local\Temp\ccFImDCu.s 			page 65


 3125      5F464F52 
 3126              	.LASF96:
 3127 0635 64617461 		.ascii	"data2\000"
 3127      3200
 3128              	.LASF1:
 3129 063b 70726576 		.ascii	"prev\000"
 3129      00
 3130              	.LASF35:
 3131 0640 4350555F 		.ascii	"CPU_SR\000"
 3131      535200
 3132              	.LASF53:
 3133 0647 64656C61 		.ascii	"delay_reach_time\000"
 3133      795F7265 
 3133      6163685F 
 3133      74696D65 
 3133      00
 3134              	.LASF9:
 3135 0658 55494E54 		.ascii	"UINT64\000"
 3135      363400
 3136              	.LASF62:
 3137 065f 4D555445 		.ascii	"MUTEX_LOCK\000"
 3137      585F4C4F 
 3137      434B00
 3138              	.LASF11:
 3139 066a 69645F74 		.ascii	"id_type\000"
 3139      79706500 
 3140              	.LASF14:
 3141 0672 64617461 		.ascii	"data_ptr\000"
 3141      5F707472 
 3141      00
 3142              	.LASF0:
 3143 067b 6E657874 		.ascii	"next\000"
 3143      00
 3144              	.LASF83:
 3145 0680 6D757465 		.ascii	"mutex_unlock\000"
 3145      785F756E 
 3145      6C6F636B 
 3145      00
 3146              		.ident	"GCC: (GNU Tools for Arm Embedded Processors 7-2018-q2-update) 7.3.1 20180622 (release) [AR
ARM GAS  G:\Users\Jaxb\AppData\Local\Temp\ccFImDCu.s 			page 66


DEFINED SYMBOLS
                            *ABS*:00000000 mutex.c
G:\Users\Jaxb\AppData\Local\Temp\ccFImDCu.s:15     .text:00000000 $t
G:\Users\Jaxb\AppData\Local\Temp\ccFImDCu.s:21     .text:00000000 compare
G:\Users\Jaxb\AppData\Local\Temp\ccFImDCu.s:72     .text:00000022 value_cmp
G:\Users\Jaxb\AppData\Local\Temp\ccFImDCu.s:115    .rodata:00000000 $d
G:\Users\Jaxb\AppData\Local\Temp\ccFImDCu.s:126    .text:00000040 _mutex_init
G:\Users\Jaxb\AppData\Local\Temp\ccFImDCu.s:192    .text:0000008c $d
G:\Users\Jaxb\AppData\Local\Temp\ccFImDCu.s:204    .text:00000098 $t
G:\Users\Jaxb\AppData\Local\Temp\ccFImDCu.s:211    .text:00000098 mutex_init
G:\Users\Jaxb\AppData\Local\Temp\ccFImDCu.s:267    .text:000000d0 $d
G:\Users\Jaxb\AppData\Local\Temp\ccFImDCu.s:277    .rodata.name:00000000 __rtmsym_mutex_init_name
G:\Users\Jaxb\AppData\Local\Temp\ccFImDCu.s:274    .rodata.name:00000000 $d
G:\Users\Jaxb\AppData\Local\Temp\ccFImDCu.s:284    .RTMSymTab:00000000 __rtmsym_mutex_init
G:\Users\Jaxb\AppData\Local\Temp\ccFImDCu.s:281    .RTMSymTab:00000000 $d
G:\Users\Jaxb\AppData\Local\Temp\ccFImDCu.s:288    .text:000000d8 $t
G:\Users\Jaxb\AppData\Local\Temp\ccFImDCu.s:295    .text:000000d8 _mutex_lock
G:\Users\Jaxb\AppData\Local\Temp\ccFImDCu.s:477    .text:000001f0 $d
G:\Users\Jaxb\AppData\Local\Temp\ccFImDCu.s:488    .text:000001f8 $t
G:\Users\Jaxb\AppData\Local\Temp\ccFImDCu.s:495    .text:000001f8 mutex_lock
G:\Users\Jaxb\AppData\Local\Temp\ccFImDCu.s:551    .text:00000230 $d
G:\Users\Jaxb\AppData\Local\Temp\ccFImDCu.s:561    .rodata.name:0000000c __rtmsym_mutex_lock_name
G:\Users\Jaxb\AppData\Local\Temp\ccFImDCu.s:568    .RTMSymTab:00000008 __rtmsym_mutex_lock
G:\Users\Jaxb\AppData\Local\Temp\ccFImDCu.s:572    .text:00000238 $t
G:\Users\Jaxb\AppData\Local\Temp\ccFImDCu.s:579    .text:00000238 _mutex_try_lock
G:\Users\Jaxb\AppData\Local\Temp\ccFImDCu.s:662    .text:0000029c $d
G:\Users\Jaxb\AppData\Local\Temp\ccFImDCu.s:673    .text:000002a4 $t
G:\Users\Jaxb\AppData\Local\Temp\ccFImDCu.s:680    .text:000002a4 mutex_try_lock
G:\Users\Jaxb\AppData\Local\Temp\ccFImDCu.s:727    .text:000002d0 $d
G:\Users\Jaxb\AppData\Local\Temp\ccFImDCu.s:736    .rodata.name:00000018 __rtmsym_mutex_try_lock_name
G:\Users\Jaxb\AppData\Local\Temp\ccFImDCu.s:743    .RTMSymTab:00000010 __rtmsym_mutex_try_lock
G:\Users\Jaxb\AppData\Local\Temp\ccFImDCu.s:747    .text:000002d4 $t
G:\Users\Jaxb\AppData\Local\Temp\ccFImDCu.s:754    .text:000002d4 _mutex_unlock
G:\Users\Jaxb\AppData\Local\Temp\ccFImDCu.s:890    .text:0000038c $d
G:\Users\Jaxb\AppData\Local\Temp\ccFImDCu.s:901    .text:00000394 $t
G:\Users\Jaxb\AppData\Local\Temp\ccFImDCu.s:908    .text:00000394 mutex_unlock
G:\Users\Jaxb\AppData\Local\Temp\ccFImDCu.s:955    .text:000003c0 $d
G:\Users\Jaxb\AppData\Local\Temp\ccFImDCu.s:964    .rodata.name:00000028 __rtmsym_mutex_unlock_name
G:\Users\Jaxb\AppData\Local\Temp\ccFImDCu.s:971    .RTMSymTab:00000018 __rtmsym_mutex_unlock
G:\Users\Jaxb\AppData\Local\Temp\ccFImDCu.s:975    .text:000003c4 $t
G:\Users\Jaxb\AppData\Local\Temp\ccFImDCu.s:982    .text:000003c4 _mutex_del
G:\Users\Jaxb\AppData\Local\Temp\ccFImDCu.s:1067   .text:0000042c $d
G:\Users\Jaxb\AppData\Local\Temp\ccFImDCu.s:1077   .text:00000430 $t
G:\Users\Jaxb\AppData\Local\Temp\ccFImDCu.s:1084   .text:00000430 mutex_del
G:\Users\Jaxb\AppData\Local\Temp\ccFImDCu.s:1131   .text:0000045c $d
G:\Users\Jaxb\AppData\Local\Temp\ccFImDCu.s:1140   .rodata.name:00000038 __rtmsym_mutex_del_name
G:\Users\Jaxb\AppData\Local\Temp\ccFImDCu.s:1147   .RTMSymTab:00000020 __rtmsym_mutex_del

UNDEFINED SYMBOLS
_ASSERT
CPU_SR_Save
init_insert_sort_entity
CPU_SR_Restore
ka_printf
g_interrupt_count
init_insert_sort_data
insert_sort_insert_into
ARM GAS  G:\Users\Jaxb\AppData\Local\Temp\ccFImDCu.s 			page 67


insert_sort_get_first_data_ptr
task_change_prio
sys_suspend
OSTCBCurPtr
insert_sort_delete_head
_remove_from_suspend_list
schedule
