ARM GAS  G:\Users\Jaxb\AppData\Local\Temp\ccITU5uk.s 			page 1


   1              		.cpu cortex-m3
   2              		.eabi_attribute 20, 1
   3              		.eabi_attribute 21, 1
   4              		.eabi_attribute 23, 3
   5              		.eabi_attribute 24, 1
   6              		.eabi_attribute 25, 1
   7              		.eabi_attribute 26, 1
   8              		.eabi_attribute 30, 2
   9              		.eabi_attribute 34, 1
  10              		.eabi_attribute 18, 4
  11              		.file	"myassert.c"
  12              		.text
  13              	.Ltext0:
  14              		.cfi_sections	.debug_frame
  15              		.align	1
  16              		.p2align 2,,3
  17              		.global	my_abort
  18              		.syntax unified
  19              		.thumb
  20              		.thumb_func
  21              		.fpu softvfp
  22              		.type	my_abort, %function
  23              	my_abort:
  24              	.LFB0:
  25              		.file 1 "../../source/src/user/OS_LIB/myassert.c"
   1:../../source/src/user/OS_LIB/myassert.c **** #include <myassert.h>
   2:../../source/src/user/OS_LIB/myassert.c **** #include <myMicroLIB.h>
   3:../../source/src/user/OS_LIB/myassert.c **** 
   4:../../source/src/user/OS_LIB/myassert.c **** extern void HardFault_Handler(void);
   5:../../source/src/user/OS_LIB/myassert.c **** void my_abort(void)
   6:../../source/src/user/OS_LIB/myassert.c **** {
  26              		.loc 1 6 0
  27              		.cfi_startproc
  28              		@ Volatile: function does not return.
  29              		@ args = 0, pretend = 0, frame = 0
  30              		@ frame_needed = 0, uses_anonymous_args = 0
  31 0000 08B5     		push	{r3, lr}
  32              	.LCFI0:
  33              		.cfi_def_cfa_offset 8
  34              		.cfi_offset 3, -8
  35              		.cfi_offset 14, -4
   7:../../source/src/user/OS_LIB/myassert.c **** 	ka_printf("os stop\n");
  36              		.loc 1 7 0
  37 0002 0248     		ldr	r0, .L4
  38 0004 FFF7FEFF 		bl	ka_printf
  39              	.LVL0:
  40              	.L2:
  41 0008 FEE7     		b	.L2
  42              	.L5:
  43 000a 00BF     		.align	2
  44              	.L4:
  45 000c 00000000 		.word	.LC0
  46              		.cfi_endproc
  47              	.LFE0:
  48              		.size	my_abort, .-my_abort
  49              		.align	1
  50              		.p2align 2,,3
ARM GAS  G:\Users\Jaxb\AppData\Local\Temp\ccITU5uk.s 			page 2


  51              		.global	_ASSERT
  52              		.syntax unified
  53              		.thumb
  54              		.thumb_func
  55              		.fpu softvfp
  56              		.type	_ASSERT, %function
  57              	_ASSERT:
  58              	.LFB1:
   8:../../source/src/user/OS_LIB/myassert.c **** 	while(1);
   9:../../source/src/user/OS_LIB/myassert.c **** }
  10:../../source/src/user/OS_LIB/myassert.c **** 	
  11:../../source/src/user/OS_LIB/myassert.c **** 
  12:../../source/src/user/OS_LIB/myassert.c **** void _ASSERT(char* strFile,unsigned uLine)
  13:../../source/src/user/OS_LIB/myassert.c **** {
  59              		.loc 1 13 0
  60              		.cfi_startproc
  61              		@ Volatile: function does not return.
  62              		@ args = 0, pretend = 0, frame = 0
  63              		@ frame_needed = 0, uses_anonymous_args = 0
  64              	.LVL1:
  14:../../source/src/user/OS_LIB/myassert.c **** 	ka_printf("\nAssertion failed: %s,line %u\r\n",strFile,uLine);
  65              		.loc 1 14 0
  66 0010 0A46     		mov	r2, r1
  13:../../source/src/user/OS_LIB/myassert.c **** 	ka_printf("\nAssertion failed: %s,line %u\r\n",strFile,uLine);
  67              		.loc 1 13 0
  68 0012 08B5     		push	{r3, lr}
  69              	.LCFI1:
  70              		.cfi_def_cfa_offset 8
  71              		.cfi_offset 3, -8
  72              		.cfi_offset 14, -4
  73              		.loc 1 14 0
  74 0014 0146     		mov	r1, r0
  75              	.LVL2:
  76 0016 0248     		ldr	r0, .L7
  77              	.LVL3:
  78 0018 FFF7FEFF 		bl	ka_printf
  79              	.LVL4:
  15:../../source/src/user/OS_LIB/myassert.c **** 	my_abort();
  80              		.loc 1 15 0
  81 001c FFF7FEFF 		bl	my_abort
  82              	.LVL5:
  83              	.L8:
  84              		.align	2
  85              	.L7:
  86 0020 0C000000 		.word	.LC1
  87              		.cfi_endproc
  88              	.LFE1:
  89              		.size	_ASSERT, .-_ASSERT
  90              		.section	.rodata.str1.4,"aMS",%progbits,1
  91              		.align	2
  92              	.LC0:
  93 0000 6F732073 		.ascii	"os stop\012\000"
  93      746F700A 
  93      00
  94 0009 000000   		.space	3
  95              	.LC1:
  96 000c 0A417373 		.ascii	"\012Assertion failed: %s,line %u\015\012\000"
ARM GAS  G:\Users\Jaxb\AppData\Local\Temp\ccITU5uk.s 			page 3


  96      65727469 
  96      6F6E2066 
  96      61696C65 
  96      643A2025 
  97              		.text
  98              	.Letext0:
  99              		.file 2 "../../source/include/os_lib/myMicroLIB.h"