ARM GAS  G:\Users\Jaxb\AppData\Local\Temp\ccITU5uk.s 			page 1


   1              		.cpu cortex-m3
   2              		.eabi_attribute 20, 1
   3              		.eabi_attribute 21, 1
   4              		.eabi_attribute 23, 3
   5              		.eabi_attribute 24, 1
   6              		.eabi_attribute 25, 1
   7              		.eabi_attribute 26, 1
   8              		.eabi_attribute 30, 2
   9              		.eabi_attribute 34, 1
  10              		.eabi_attribute 18, 4
  11              		.file	"myassert.c"
  12              		.text
  13              	.Ltext0:
  14              		.cfi_sections	.debug_frame
  15              		.align	1
  16              		.p2align 2,,3
  17              		.global	my_abort
  18              		.syntax unified
  19              		.thumb
  20              		.thumb_func
  21              		.fpu softvfp
  22              		.type	my_abort, %function
  23              	my_abort:
  24              	.LFB0:
  25              		.file 1 "../../source/src/user/OS_LIB/myassert.c"
   1:../../source/src/user/OS_LIB/myassert.c **** #include <myassert.h>
   2:../../source/src/user/OS_LIB/myassert.c **** #include <myMicroLIB.h>
   3:../../source/src/user/OS_LIB/myassert.c **** 
   4:../../source/src/user/OS_LIB/myassert.c **** extern void HardFault_Handler(void);
   5:../../source/src/user/OS_LIB/myassert.c **** void my_abort(void)
   6:../../source/src/user/OS_LIB/myassert.c **** {
  26              		.loc 1 6 0
  27              		.cfi_startproc
  28              		@ Volatile: function does not return.
  29              		@ args = 0, pretend = 0, frame = 0
  30              		@ frame_needed = 0, uses_anonymous_args = 0
  31 0000 08B5     		push	{r3, lr}
  32              	.LCFI0:
  33              		.cfi_def_cfa_offset 8
  34              		.cfi_offset 3, -8
  35              		.cfi_offset 14, -4
   7:../../source/src/user/OS_LIB/myassert.c **** 	ka_printf("os stop\n");
  36              		.loc 1 7 0
  37 0002 0248     		ldr	r0, .L4
  38 0004 FFF7FEFF 		bl	ka_printf
  39              	.LVL0:
  40              	.L2:
  41 0008 FEE7     		b	.L2
  42              	.L5:
  43 000a 00BF     		.align	2
  44              	.L4:
  45 000c 00000000 		.word	.LC0
  46              		.cfi_endproc
  47              	.LFE0:
  48              		.size	my_abort, .-my_abort
  49              		.align	1
  50              		.p2align 2,,3
ARM GAS  G:\Users\Jaxb\AppData\Local\Temp\ccITU5uk.s 			page 2


  51              		.global	_ASSERT
  52              		.syntax unified
  53              		.thumb
  54              		.thumb_func
  55              		.fpu softvfp
  56              		.type	_ASSERT, %function
  57              	_ASSERT:
  58              	.LFB1:
   8:../../source/src/user/OS_LIB/myassert.c **** 	while(1);
   9:../../source/src/user/OS_LIB/myassert.c **** }
  10:../../source/src/user/OS_LIB/myassert.c **** 	
  11:../../source/src/user/OS_LIB/myassert.c **** 
  12:../../source/src/user/OS_LIB/myassert.c **** void _ASSERT(char* strFile,unsigned uLine)
  13:../../source/src/user/OS_LIB/myassert.c **** {
  59              		.loc 1 13 0
  60              		.cfi_startproc
  61              		@ Volatile: function does not return.
  62              		@ args = 0, pretend = 0, frame = 0
  63              		@ frame_needed = 0, uses_anonymous_args = 0
  64              	.LVL1:
  14:../../source/src/user/OS_LIB/myassert.c **** 	ka_printf("\nAssertion failed: %s,line %u\r\n",strFile,uLine);
  65              		.loc 1 14 0
  66 0010 0A46     		mov	r2, r1
  13:../../source/src/user/OS_LIB/myassert.c **** 	ka_printf("\nAssertion failed: %s,line %u\r\n",strFile,uLine);
  67              		.loc 1 13 0
  68 0012 08B5     		push	{r3, lr}
  69              	.LCFI1:
  70              		.cfi_def_cfa_offset 8
  71              		.cfi_offset 3, -8
  72              		.cfi_offset 14, -4
  73              		.loc 1 14 0
  74 0014 0146     		mov	r1, r0
  75              	.LVL2:
  76 0016 0248     		ldr	r0, .L7
  77              	.LVL3:
  78 0018 FFF7FEFF 		bl	ka_printf
  79              	.LVL4:
  15:../../source/src/user/OS_LIB/myassert.c **** 	my_abort();
  80              		.loc 1 15 0
  81 001c FFF7FEFF 		bl	my_abort
  82              	.LVL5:
  83              	.L8:
  84              		.align	2
  85              	.L7:
  86 0020 0C000000 		.word	.LC1
  87              		.cfi_endproc
  88              	.LFE1:
  89              		.size	_ASSERT, .-_ASSERT
  90              		.section	.rodata.str1.4,"aMS",%progbits,1
  91              		.align	2
  92              	.LC0:
  93 0000 6F732073 		.ascii	"os stop\012\000"
  93      746F700A 
  93      00
  94 0009 000000   		.space	3
  95              	.LC1:
  96 000c 0A417373 		.ascii	"\012Assertion failed: %s,line %u\015\012\000"
ARM GAS  G:\Users\Jaxb\AppData\Local\Temp\ccITU5uk.s 			page 3


  96      65727469 
  96      6F6E2066 
  96      61696C65 
  96      643A2025 
  97              		.text
  98              	.Letext0:
  99              		.file 2 "../../source/include/os_lib/myMicroLIB.h"
 100              		.section	.debug_info,"",%progbits
 101              	.Ldebug_info0:
 102 0000 D8000000 		.4byte	0xd8
 103 0004 0200     		.2byte	0x2
 104 0006 00000000 		.4byte	.Ldebug_abbrev0
 105 000a 04       		.byte	0x4
 106 000b 01       		.uleb128 0x1
 107 000c 00000000 		.4byte	.LASF6
 108 0010 0C       		.byte	0xc
 109 0011 C1000000 		.4byte	.LASF7
 110 0015 FB000000 		.4byte	.LASF8
 111 0019 00000000 		.4byte	.Ltext0
 112 001d 24000000 		.4byte	.Letext0
 113 0021 00000000 		.4byte	.Ldebug_line0
 114 0025 02       		.uleb128 0x2
 115 0026 01       		.byte	0x1
 116 0027 F3000000 		.4byte	.LASF4
 117 002b 01       		.byte	0x1
 118 002c 0C       		.byte	0xc
 119 002d 01       		.byte	0x1
 120 002e 10000000 		.4byte	.LFB1
 121 0032 24000000 		.4byte	.LFE1
 122 0036 00000000 		.4byte	.LLST1
 123 003a 01       		.byte	0x1
 124 003b 8C000000 		.4byte	0x8c
 125 003f 03       		.uleb128 0x3
 126 0040 A6000000 		.4byte	.LASF0
 127 0044 01       		.byte	0x1
 128 0045 0C       		.byte	0xc
 129 0046 8C000000 		.4byte	0x8c
 130 004a 20000000 		.4byte	.LLST2
 131 004e 03       		.uleb128 0x3
 132 004f BB000000 		.4byte	.LASF1
 133 0053 01       		.byte	0x1
 134 0054 0C       		.byte	0xc
 135 0055 99000000 		.4byte	0x99
 136 0059 4C000000 		.4byte	.LLST3
 137 005d 04       		.uleb128 0x4
 138 005e 1C000000 		.4byte	.LVL4
 139 0062 CE000000 		.4byte	0xce
 140 0066 82000000 		.4byte	0x82
 141 006a 05       		.uleb128 0x5
 142 006b 01       		.byte	0x1
 143 006c 50       		.byte	0x50
 144 006d 05       		.byte	0x5
 145 006e 03       		.byte	0x3
 146 006f 0C000000 		.4byte	.LC1
 147 0073 05       		.uleb128 0x5
 148 0074 01       		.byte	0x1
 149 0075 51       		.byte	0x51
ARM GAS  G:\Users\Jaxb\AppData\Local\Temp\ccITU5uk.s 			page 4


 150 0076 03       		.byte	0x3
 151 0077 F3       		.byte	0xf3
 152 0078 01       		.uleb128 0x1
 153 0079 50       		.byte	0x50
 154 007a 05       		.uleb128 0x5
 155 007b 01       		.byte	0x1
 156 007c 52       		.byte	0x52
 157 007d 03       		.byte	0x3
 158 007e F3       		.byte	0xf3
 159 007f 01       		.uleb128 0x1
 160 0080 51       		.byte	0x51
 161 0081 00       		.byte	0
 162 0082 06       		.uleb128 0x6
 163 0083 20000000 		.4byte	.LVL5
 164 0087 A0000000 		.4byte	0xa0
 165 008b 00       		.byte	0
 166 008c 07       		.uleb128 0x7
 167 008d 04       		.byte	0x4
 168 008e 92000000 		.4byte	0x92
 169 0092 08       		.uleb128 0x8
 170 0093 01       		.byte	0x1
 171 0094 08       		.byte	0x8
 172 0095 46010000 		.4byte	.LASF2
 173 0099 08       		.uleb128 0x8
 174 009a 04       		.byte	0x4
 175 009b 07       		.byte	0x7
 176 009c AE000000 		.4byte	.LASF3
 177 00a0 02       		.uleb128 0x2
 178 00a1 01       		.byte	0x1
 179 00a2 4B010000 		.4byte	.LASF5
 180 00a6 01       		.byte	0x1
 181 00a7 05       		.byte	0x5
 182 00a8 01       		.byte	0x1
 183 00a9 00000000 		.4byte	.LFB0
 184 00ad 10000000 		.4byte	.LFE0
 185 00b1 78000000 		.4byte	.LLST0
 186 00b5 01       		.byte	0x1
 187 00b6 CE000000 		.4byte	0xce
 188 00ba 09       		.uleb128 0x9
 189 00bb 08000000 		.4byte	.LVL0
 190 00bf CE000000 		.4byte	0xce
 191 00c3 05       		.uleb128 0x5
 192 00c4 01       		.byte	0x1
 193 00c5 50       		.byte	0x50
 194 00c6 05       		.byte	0x5
 195 00c7 03       		.byte	0x3
 196 00c8 00000000 		.4byte	.LC0
 197 00cc 00       		.byte	0
 198 00cd 00       		.byte	0
 199 00ce 0A       		.uleb128 0xa
 200 00cf 01       		.byte	0x1
 201 00d0 01       		.byte	0x1
 202 00d1 E9000000 		.4byte	.LASF9
 203 00d5 E9000000 		.4byte	.LASF9
 204 00d9 02       		.byte	0x2
 205 00da 0C       		.byte	0xc
 206 00db 00       		.byte	0
ARM GAS  G:\Users\Jaxb\AppData\Local\Temp\ccITU5uk.s 			page 5


 207              		.section	.debug_abbrev,"",%progbits
 208              	.Ldebug_abbrev0:
 209 0000 01       		.uleb128 0x1
 210 0001 11       		.uleb128 0x11
 211 0002 01       		.byte	0x1
 212 0003 25       		.uleb128 0x25
 213 0004 0E       		.uleb128 0xe
 214 0005 13       		.uleb128 0x13
 215 0006 0B       		.uleb128 0xb
 216 0007 03       		.uleb128 0x3
 217 0008 0E       		.uleb128 0xe
 218 0009 1B       		.uleb128 0x1b
 219 000a 0E       		.uleb128 0xe
 220 000b 11       		.uleb128 0x11
 221 000c 01       		.uleb128 0x1
 222 000d 12       		.uleb128 0x12
 223 000e 01       		.uleb128 0x1
 224 000f 10       		.uleb128 0x10
 225 0010 06       		.uleb128 0x6
 226 0011 00       		.byte	0
 227 0012 00       		.byte	0
 228 0013 02       		.uleb128 0x2
 229 0014 2E       		.uleb128 0x2e
 230 0015 01       		.byte	0x1
 231 0016 3F       		.uleb128 0x3f
 232 0017 0C       		.uleb128 0xc
 233 0018 03       		.uleb128 0x3
 234 0019 0E       		.uleb128 0xe
 235 001a 3A       		.uleb128 0x3a
 236 001b 0B       		.uleb128 0xb
 237 001c 3B       		.uleb128 0x3b
 238 001d 0B       		.uleb128 0xb
 239 001e 27       		.uleb128 0x27
 240 001f 0C       		.uleb128 0xc
 241 0020 11       		.uleb128 0x11
 242 0021 01       		.uleb128 0x1
 243 0022 12       		.uleb128 0x12
 244 0023 01       		.uleb128 0x1
 245 0024 40       		.uleb128 0x40
 246 0025 06       		.uleb128 0x6
 247 0026 9742     		.uleb128 0x2117
 248 0028 0C       		.uleb128 0xc
 249 0029 01       		.uleb128 0x1
 250 002a 13       		.uleb128 0x13
 251 002b 00       		.byte	0
 252 002c 00       		.byte	0
 253 002d 03       		.uleb128 0x3
 254 002e 05       		.uleb128 0x5
 255 002f 00       		.byte	0
 256 0030 03       		.uleb128 0x3
 257 0031 0E       		.uleb128 0xe
 258 0032 3A       		.uleb128 0x3a
 259 0033 0B       		.uleb128 0xb
 260 0034 3B       		.uleb128 0x3b
 261 0035 0B       		.uleb128 0xb
 262 0036 49       		.uleb128 0x49
 263 0037 13       		.uleb128 0x13
ARM GAS  G:\Users\Jaxb\AppData\Local\Temp\ccITU5uk.s 			page 6


 264 0038 02       		.uleb128 0x2
 265 0039 06       		.uleb128 0x6
 266 003a 00       		.byte	0
 267 003b 00       		.byte	0
 268 003c 04       		.uleb128 0x4
 269 003d 898201   		.uleb128 0x4109
 270 0040 01       		.byte	0x1
 271 0041 11       		.uleb128 0x11
 272 0042 01       		.uleb128 0x1
 273 0043 31       		.uleb128 0x31
 274 0044 13       		.uleb128 0x13
 275 0045 01       		.uleb128 0x1
 276 0046 13       		.uleb128 0x13
 277 0047 00       		.byte	0
 278 0048 00       		.byte	0
 279 0049 05       		.uleb128 0x5
 280 004a 8A8201   		.uleb128 0x410a
 281 004d 00       		.byte	0
 282 004e 02       		.uleb128 0x2
 283 004f 0A       		.uleb128 0xa
 284 0050 9142     		.uleb128 0x2111
 285 0052 0A       		.uleb128 0xa
 286 0053 00       		.byte	0
 287 0054 00       		.byte	0
 288 0055 06       		.uleb128 0x6
 289 0056 898201   		.uleb128 0x4109
 290 0059 00       		.byte	0
 291 005a 11       		.uleb128 0x11
 292 005b 01       		.uleb128 0x1
 293 005c 31       		.uleb128 0x31
 294 005d 13       		.uleb128 0x13
 295 005e 00       		.byte	0
 296 005f 00       		.byte	0
 297 0060 07       		.uleb128 0x7
 298 0061 0F       		.uleb128 0xf
 299 0062 00       		.byte	0
 300 0063 0B       		.uleb128 0xb
 301 0064 0B       		.uleb128 0xb
 302 0065 49       		.uleb128 0x49
 303 0066 13       		.uleb128 0x13
 304 0067 00       		.byte	0
 305 0068 00       		.byte	0
 306 0069 08       		.uleb128 0x8
 307 006a 24       		.uleb128 0x24
 308 006b 00       		.byte	0
 309 006c 0B       		.uleb128 0xb
 310 006d 0B       		.uleb128 0xb
 311 006e 3E       		.uleb128 0x3e
 312 006f 0B       		.uleb128 0xb
 313 0070 03       		.uleb128 0x3
 314 0071 0E       		.uleb128 0xe
 315 0072 00       		.byte	0
 316 0073 00       		.byte	0
 317 0074 09       		.uleb128 0x9
 318 0075 898201   		.uleb128 0x4109
 319 0078 01       		.byte	0x1
 320 0079 11       		.uleb128 0x11
ARM GAS  G:\Users\Jaxb\AppData\Local\Temp\ccITU5uk.s 			page 7


 321 007a 01       		.uleb128 0x1
 322 007b 31       		.uleb128 0x31
 323 007c 13       		.uleb128 0x13
 324 007d 00       		.byte	0
 325 007e 00       		.byte	0
 326 007f 0A       		.uleb128 0xa
 327 0080 2E       		.uleb128 0x2e
 328 0081 00       		.byte	0
 329 0082 3F       		.uleb128 0x3f
 330 0083 0C       		.uleb128 0xc
 331 0084 3C       		.uleb128 0x3c
 332 0085 0C       		.uleb128 0xc
 333 0086 8740     		.uleb128 0x2007
 334 0088 0E       		.uleb128 0xe
 335 0089 03       		.uleb128 0x3
 336 008a 0E       		.uleb128 0xe
 337 008b 3A       		.uleb128 0x3a
 338 008c 0B       		.uleb128 0xb
 339 008d 3B       		.uleb128 0x3b
 340 008e 0B       		.uleb128 0xb
 341 008f 00       		.byte	0
 342 0090 00       		.byte	0
 343 0091 00       		.byte	0
 344              		.section	.debug_loc,"",%progbits
 345              	.Ldebug_loc0:
 346              	.LLST1:
 347 0000 10000000 		.4byte	.LFB1-.Ltext0
 348 0004 14000000 		.4byte	.LCFI1-.Ltext0
 349 0008 0200     		.2byte	0x2
 350 000a 7D       		.byte	0x7d
 351 000b 00       		.sleb128 0
 352 000c 14000000 		.4byte	.LCFI1-.Ltext0
 353 0010 24000000 		.4byte	.LFE1-.Ltext0
 354 0014 0200     		.2byte	0x2
 355 0016 7D       		.byte	0x7d
 356 0017 08       		.sleb128 8
 357 0018 00000000 		.4byte	0
 358 001c 00000000 		.4byte	0
 359              	.LLST2:
 360 0020 10000000 		.4byte	.LVL1-.Ltext0
 361 0024 18000000 		.4byte	.LVL3-.Ltext0
 362 0028 0100     		.2byte	0x1
 363 002a 50       		.byte	0x50
 364 002b 18000000 		.4byte	.LVL3-.Ltext0
 365 002f 1B000000 		.4byte	.LVL4-1-.Ltext0
 366 0033 0100     		.2byte	0x1
 367 0035 51       		.byte	0x51
 368 0036 1B000000 		.4byte	.LVL4-1-.Ltext0
 369 003a 24000000 		.4byte	.LFE1-.Ltext0
 370 003e 0400     		.2byte	0x4
 371 0040 F3       		.byte	0xf3
 372 0041 01       		.uleb128 0x1
 373 0042 50       		.byte	0x50
 374 0043 9F       		.byte	0x9f
 375 0044 00000000 		.4byte	0
 376 0048 00000000 		.4byte	0
 377              	.LLST3:
ARM GAS  G:\Users\Jaxb\AppData\Local\Temp\ccITU5uk.s 			page 8


 378 004c 10000000 		.4byte	.LVL1-.Ltext0
 379 0050 16000000 		.4byte	.LVL2-.Ltext0
 380 0054 0100     		.2byte	0x1
 381 0056 51       		.byte	0x51
 382 0057 16000000 		.4byte	.LVL2-.Ltext0
 383 005b 1B000000 		.4byte	.LVL4-1-.Ltext0
 384 005f 0100     		.2byte	0x1
 385 0061 52       		.byte	0x52
 386 0062 1B000000 		.4byte	.LVL4-1-.Ltext0
 387 0066 24000000 		.4byte	.LFE1-.Ltext0
 388 006a 0400     		.2byte	0x4
 389 006c F3       		.byte	0xf3
 390 006d 01       		.uleb128 0x1
 391 006e 51       		.byte	0x51
 392 006f 9F       		.byte	0x9f
 393 0070 00000000 		.4byte	0
 394 0074 00000000 		.4byte	0
 395              	.LLST0:
 396 0078 00000000 		.4byte	.LFB0-.Ltext0
 397 007c 02000000 		.4byte	.LCFI0-.Ltext0
 398 0080 0200     		.2byte	0x2
 399 0082 7D       		.byte	0x7d
 400 0083 00       		.sleb128 0
 401 0084 02000000 		.4byte	.LCFI0-.Ltext0
 402 0088 10000000 		.4byte	.LFE0-.Ltext0
 403 008c 0200     		.2byte	0x2
 404 008e 7D       		.byte	0x7d
 405 008f 08       		.sleb128 8
 406 0090 00000000 		.4byte	0
 407 0094 00000000 		.4byte	0
 408              		.section	.debug_aranges,"",%progbits
 409 0000 1C000000 		.4byte	0x1c
 410 0004 0200     		.2byte	0x2
 411 0006 00000000 		.4byte	.Ldebug_info0
 412 000a 04       		.byte	0x4
 413 000b 00       		.byte	0
 414 000c 0000     		.2byte	0
 415 000e 0000     		.2byte	0
 416 0010 00000000 		.4byte	.Ltext0
 417 0014 24000000 		.4byte	.Letext0-.Ltext0
 418 0018 00000000 		.4byte	0
 419 001c 00000000 		.4byte	0
 420              		.section	.debug_line,"",%progbits
 421              	.Ldebug_line0:
 422 0000 83000000 		.section	.debug_str,"MS",%progbits,1
 422      02006A00 
 422      00000201 
 422      FB0E0D00 
 422      01010101 
 423              	.LASF6:
 424 0000 474E5520 		.ascii	"GNU C11 7.3.1 20180622 (release) [ARM/embedded-7-br"
 424      43313120 
 424      372E332E 
 424      31203230 
 424      31383036 
 425 0033 616E6368 		.ascii	"anch revision 261907] -mcpu=cortex-m3 -mthumb -mapc"
 425      20726576 
ARM GAS  G:\Users\Jaxb\AppData\Local\Temp\ccITU5uk.s 			page 9


 425      6973696F 
 425      6E203236 
 425      31393037 
 426 0066 732D6672 		.ascii	"s-frame -mthumb-interwork -mcpu=cortex-m3 -mthumb -"
 426      616D6520 
 426      2D6D7468 
 426      756D622D 
 426      696E7465 
 427 0099 67647761 		.ascii	"gdwarf-2 -O2\000"
 427      72662D32 
 427      202D4F32 
 427      00
 428              	.LASF0:
 429 00a6 73747246 		.ascii	"strFile\000"
 429      696C6500 
 430              	.LASF3:
 431 00ae 756E7369 		.ascii	"unsigned int\000"
 431      676E6564 
 431      20696E74 
 431      00
 432              	.LASF1:
 433 00bb 754C696E 		.ascii	"uLine\000"
 433      6500
 434              	.LASF7:
 435 00c1 2E2E2F2E 		.ascii	"../../source/src/user/OS_LIB/myassert.c\000"
 435      2E2F736F 
 435      75726365 
 435      2F737263 
 435      2F757365 
 436              	.LASF9:
 437 00e9 6B615F70 		.ascii	"ka_printf\000"
 437      72696E74 
 437      6600
 438              	.LASF4:
 439 00f3 5F415353 		.ascii	"_ASSERT\000"
 439      45525400 
 440              	.LASF8:
 441 00fb 473A5C55 		.ascii	"G:\\Users\\Jaxb\\Desktop\\KAKAOS-0.07  2019.2.21  f"
 441      73657273 
 441      5C4A6178 
 441      625C4465 
 441      736B746F 
 442 012a 6F722067 		.ascii	"or gcc\\Project\\RVMDK\243\250uv5\243\251\000"
 442      63635C50 
 442      726F6A65 
 442      63745C52 
 442      564D444B 
 443              	.LASF2:
 444 0146 63686172 		.ascii	"char\000"
 444      00
 445              	.LASF5:
 446 014b 6D795F61 		.ascii	"my_abort\000"
 446      626F7274 
 446      00
 447              		.ident	"GCC: (GNU Tools for Arm Embedded Processors 7-2018-q2-update) 7.3.1 20180622 (release) [AR
ARM GAS  G:\Users\Jaxb\AppData\Local\Temp\ccITU5uk.s 			page 10


DEFINED SYMBOLS
                            *ABS*:00000000 myassert.c
G:\Users\Jaxb\AppData\Local\Temp\ccITU5uk.s:15     .text:00000000 $t
G:\Users\Jaxb\AppData\Local\Temp\ccITU5uk.s:23     .text:00000000 my_abort
G:\Users\Jaxb\AppData\Local\Temp\ccITU5uk.s:45     .text:0000000c $d
G:\Users\Jaxb\AppData\Local\Temp\ccITU5uk.s:49     .text:00000010 $t
G:\Users\Jaxb\AppData\Local\Temp\ccITU5uk.s:57     .text:00000010 _ASSERT
G:\Users\Jaxb\AppData\Local\Temp\ccITU5uk.s:86     .text:00000020 $d
G:\Users\Jaxb\AppData\Local\Temp\ccITU5uk.s:91     .rodata.str1.4:00000000 $d

UNDEFINED SYMBOLS
ka_printf
