ARM GAS  G:\Users\Jaxb\AppData\Local\Temp\cc904ymL.s 			page 1


   1              		.cpu cortex-m3
   2              		.eabi_attribute 20, 1
   3              		.eabi_attribute 21, 1
   4              		.eabi_attribute 23, 3
   5              		.eabi_attribute 24, 1
   6              		.eabi_attribute 25, 1
   7              		.eabi_attribute 26, 1
   8              		.eabi_attribute 30, 6
   9              		.eabi_attribute 34, 1
  10              		.eabi_attribute 18, 4
  11              		.file	"myMicroLIB.c"
  12              		.text
  13              	.Ltext0:
  14              		.cfi_sections	.debug_frame
  15              		.align	1
  16              		.global	ka_pow
  17              		.syntax unified
  18              		.thumb
  19              		.thumb_func
  20              		.fpu softvfp
  21              		.type	ka_pow, %function
  22              	ka_pow:
  23              	.LFB29:
  24              		.file 1 "../../source/src/kernel/OS_LIB/myMicroLIB.c"
   1:../../source/src/kernel/OS_LIB/myMicroLIB.c **** #include <stdarg.h>
   2:../../source/src/kernel/OS_LIB/myMicroLIB.c **** #include <bsp_usart.h>
   3:../../source/src/kernel/OS_LIB/myMicroLIB.c **** #include <myMicroLIB.h>
   4:../../source/src/kernel/OS_LIB/myMicroLIB.c **** #include <myassert.h>
   5:../../source/src/kernel/OS_LIB/myMicroLIB.c **** #include <kakaosstdint.h>
   6:../../source/src/kernel/OS_LIB/myMicroLIB.c **** #include <os_cpu.h>
   7:../../source/src/kernel/OS_LIB/myMicroLIB.c **** #include <export.h>
   8:../../source/src/kernel/OS_LIB/myMicroLIB.c **** 
   9:../../source/src/kernel/OS_LIB/myMicroLIB.c **** unsigned long ka_pow(int x,unsigned int y)
  10:../../source/src/kernel/OS_LIB/myMicroLIB.c **** {
  25              		.loc 1 10 0
  26              		.cfi_startproc
  27              		@ args = 0, pretend = 0, frame = 16
  28              		@ frame_needed = 1, uses_anonymous_args = 0
  29              		@ link register save eliminated.
  30 0000 80B4     		push	{r7}
  31              	.LCFI0:
  32              		.cfi_def_cfa_offset 4
  33              		.cfi_offset 7, -4
  34 0002 85B0     		sub	sp, sp, #20
  35              	.LCFI1:
  36              		.cfi_def_cfa_offset 24
  37 0004 00AF     		add	r7, sp, #0
  38              	.LCFI2:
  39              		.cfi_def_cfa_register 7
  40 0006 7860     		str	r0, [r7, #4]
  41 0008 3960     		str	r1, [r7]
  11:../../source/src/kernel/OS_LIB/myMicroLIB.c **** 	unsigned long sum = 1;
  42              		.loc 1 11 0
  43 000a 0123     		movs	r3, #1
  44 000c FB60     		str	r3, [r7, #12]
  12:../../source/src/kernel/OS_LIB/myMicroLIB.c **** 	while(y--)
  45              		.loc 1 12 0
ARM GAS  G:\Users\Jaxb\AppData\Local\Temp\cc904ymL.s 			page 2


  46 000e 04E0     		b	.L2
  47              	.L3:
  13:../../source/src/kernel/OS_LIB/myMicroLIB.c **** 	{
  14:../../source/src/kernel/OS_LIB/myMicroLIB.c **** 		sum *= x;
  48              		.loc 1 14 0
  49 0010 7A68     		ldr	r2, [r7, #4]
  50 0012 FB68     		ldr	r3, [r7, #12]
  51 0014 02FB03F3 		mul	r3, r2, r3
  52 0018 FB60     		str	r3, [r7, #12]
  53              	.L2:
  12:../../source/src/kernel/OS_LIB/myMicroLIB.c **** 	while(y--)
  54              		.loc 1 12 0
  55 001a 3B68     		ldr	r3, [r7]
  56 001c 5A1E     		subs	r2, r3, #1
  57 001e 3A60     		str	r2, [r7]
  58 0020 002B     		cmp	r3, #0
  59 0022 F5D1     		bne	.L3
  15:../../source/src/kernel/OS_LIB/myMicroLIB.c **** 	}
  16:../../source/src/kernel/OS_LIB/myMicroLIB.c **** 	return sum;
  60              		.loc 1 16 0
  61 0024 FB68     		ldr	r3, [r7, #12]
  17:../../source/src/kernel/OS_LIB/myMicroLIB.c **** }
  62              		.loc 1 17 0
  63 0026 1846     		mov	r0, r3
  64 0028 1437     		adds	r7, r7, #20
  65              	.LCFI3:
  66              		.cfi_def_cfa_offset 4
  67 002a BD46     		mov	sp, r7
  68              	.LCFI4:
  69              		.cfi_def_cfa_register 13
  70              		@ sp needed
  71 002c 80BC     		pop	{r7}
  72              	.LCFI5:
  73              		.cfi_restore 7
  74              		.cfi_def_cfa_offset 0
  75 002e 7047     		bx	lr
  76              		.cfi_endproc
  77              	.LFE29:
  78              		.size	ka_pow, .-ka_pow
  79              		.align	1
  80              		.syntax unified
  81              		.thumb
  82              		.thumb_func
  83              		.fpu softvfp
  84              		.type	m_putstr, %function
  85              	m_putstr:
  86              	.LFB30:
  18:../../source/src/kernel/OS_LIB/myMicroLIB.c **** 
  19:../../source/src/kernel/OS_LIB/myMicroLIB.c **** static void m_putstr(const char *str)  
  20:../../source/src/kernel/OS_LIB/myMicroLIB.c **** {  
  87              		.loc 1 20 0
  88              		.cfi_startproc
  89              		@ args = 0, pretend = 0, frame = 8
  90              		@ frame_needed = 1, uses_anonymous_args = 0
  91 0030 80B5     		push	{r7, lr}
  92              	.LCFI6:
  93              		.cfi_def_cfa_offset 8
ARM GAS  G:\Users\Jaxb\AppData\Local\Temp\cc904ymL.s 			page 3


  94              		.cfi_offset 7, -8
  95              		.cfi_offset 14, -4
  96 0032 82B0     		sub	sp, sp, #8
  97              	.LCFI7:
  98              		.cfi_def_cfa_offset 16
  99 0034 00AF     		add	r7, sp, #0
 100              	.LCFI8:
 101              		.cfi_def_cfa_register 7
 102 0036 7860     		str	r0, [r7, #4]
  21:../../source/src/kernel/OS_LIB/myMicroLIB.c ****     while(*str)  
 103              		.loc 1 21 0
 104 0038 06E0     		b	.L6
 105              	.L7:
  22:../../source/src/kernel/OS_LIB/myMicroLIB.c ****     {  
  23:../../source/src/kernel/OS_LIB/myMicroLIB.c ****         ka_putchar(*str++);  
 106              		.loc 1 23 0
 107 003a 7B68     		ldr	r3, [r7, #4]
 108 003c 5A1C     		adds	r2, r3, #1
 109 003e 7A60     		str	r2, [r7, #4]
 110 0040 1B78     		ldrb	r3, [r3]	@ zero_extendqisi2
 111 0042 1846     		mov	r0, r3
 112 0044 FFF7FEFF 		bl	ka_putchar
 113              	.L6:
  21:../../source/src/kernel/OS_LIB/myMicroLIB.c ****     while(*str)  
 114              		.loc 1 21 0
 115 0048 7B68     		ldr	r3, [r7, #4]
 116 004a 1B78     		ldrb	r3, [r3]	@ zero_extendqisi2
 117 004c 002B     		cmp	r3, #0
 118 004e F4D1     		bne	.L7
  24:../../source/src/kernel/OS_LIB/myMicroLIB.c ****     }
  25:../../source/src/kernel/OS_LIB/myMicroLIB.c **** }
 119              		.loc 1 25 0
 120 0050 00BF     		nop
 121 0052 0837     		adds	r7, r7, #8
 122              	.LCFI9:
 123              		.cfi_def_cfa_offset 8
 124 0054 BD46     		mov	sp, r7
 125              	.LCFI10:
 126              		.cfi_def_cfa_register 13
 127              		@ sp needed
 128 0056 80BD     		pop	{r7, pc}
 129              		.cfi_endproc
 130              	.LFE30:
 131              		.size	m_putstr, .-m_putstr
 132              		.align	1
 133              		.global	ka_puts
 134              		.syntax unified
 135              		.thumb
 136              		.thumb_func
 137              		.fpu softvfp
 138              		.type	ka_puts, %function
 139              	ka_puts:
 140              	.LFB31:
  26:../../source/src/kernel/OS_LIB/myMicroLIB.c **** 
  27:../../source/src/kernel/OS_LIB/myMicroLIB.c **** void ka_puts(const char *string)
  28:../../source/src/kernel/OS_LIB/myMicroLIB.c **** {
 141              		.loc 1 28 0
ARM GAS  G:\Users\Jaxb\AppData\Local\Temp\cc904ymL.s 			page 4


 142              		.cfi_startproc
 143              		@ args = 0, pretend = 0, frame = 8
 144              		@ frame_needed = 1, uses_anonymous_args = 0
 145 0058 80B5     		push	{r7, lr}
 146              	.LCFI11:
 147              		.cfi_def_cfa_offset 8
 148              		.cfi_offset 7, -8
 149              		.cfi_offset 14, -4
 150 005a 82B0     		sub	sp, sp, #8
 151              	.LCFI12:
 152              		.cfi_def_cfa_offset 16
 153 005c 00AF     		add	r7, sp, #0
 154              	.LCFI13:
 155              		.cfi_def_cfa_register 7
 156 005e 7860     		str	r0, [r7, #4]
  29:../../source/src/kernel/OS_LIB/myMicroLIB.c **** 	while(*string)  
 157              		.loc 1 29 0
 158 0060 06E0     		b	.L9
 159              	.L10:
  30:../../source/src/kernel/OS_LIB/myMicroLIB.c ****     {  
  31:../../source/src/kernel/OS_LIB/myMicroLIB.c ****         ka_putchar(*string++);  
 160              		.loc 1 31 0
 161 0062 7B68     		ldr	r3, [r7, #4]
 162 0064 5A1C     		adds	r2, r3, #1
 163 0066 7A60     		str	r2, [r7, #4]
 164 0068 1B78     		ldrb	r3, [r3]	@ zero_extendqisi2
 165 006a 1846     		mov	r0, r3
 166 006c FFF7FEFF 		bl	ka_putchar
 167              	.L9:
  29:../../source/src/kernel/OS_LIB/myMicroLIB.c **** 	while(*string)  
 168              		.loc 1 29 0
 169 0070 7B68     		ldr	r3, [r7, #4]
 170 0072 1B78     		ldrb	r3, [r3]	@ zero_extendqisi2
 171 0074 002B     		cmp	r3, #0
 172 0076 F4D1     		bne	.L10
  32:../../source/src/kernel/OS_LIB/myMicroLIB.c ****     }
  33:../../source/src/kernel/OS_LIB/myMicroLIB.c ****     ka_putchar('\r');
 173              		.loc 1 33 0
 174 0078 0D20     		movs	r0, #13
 175 007a FFF7FEFF 		bl	ka_putchar
  34:../../source/src/kernel/OS_LIB/myMicroLIB.c ****     ka_putchar('\n');
 176              		.loc 1 34 0
 177 007e 0A20     		movs	r0, #10
 178 0080 FFF7FEFF 		bl	ka_putchar
  35:../../source/src/kernel/OS_LIB/myMicroLIB.c **** }
 179              		.loc 1 35 0
 180 0084 00BF     		nop
 181 0086 0837     		adds	r7, r7, #8
 182              	.LCFI14:
 183              		.cfi_def_cfa_offset 8
 184 0088 BD46     		mov	sp, r7
 185              	.LCFI15:
 186              		.cfi_def_cfa_register 13
 187              		@ sp needed
 188 008a 80BD     		pop	{r7, pc}
 189              		.cfi_endproc
 190              	.LFE31:
ARM GAS  G:\Users\Jaxb\AppData\Local\Temp\cc904ymL.s 			page 5


 191              		.size	ka_puts, .-ka_puts
 192              		.align	1
 193              		.global	ka_strlen
 194              		.syntax unified
 195              		.thumb
 196              		.thumb_func
 197              		.fpu softvfp
 198              		.type	ka_strlen, %function
 199              	ka_strlen:
 200              	.LFB32:
  36:../../source/src/kernel/OS_LIB/myMicroLIB.c **** 
  37:../../source/src/kernel/OS_LIB/myMicroLIB.c **** unsigned int ka_strlen(const char *s)
  38:../../source/src/kernel/OS_LIB/myMicroLIB.c **** {
 201              		.loc 1 38 0
 202              		.cfi_startproc
 203              		@ args = 0, pretend = 0, frame = 16
 204              		@ frame_needed = 1, uses_anonymous_args = 0
 205              		@ link register save eliminated.
 206 008c 80B4     		push	{r7}
 207              	.LCFI16:
 208              		.cfi_def_cfa_offset 4
 209              		.cfi_offset 7, -4
 210 008e 85B0     		sub	sp, sp, #20
 211              	.LCFI17:
 212              		.cfi_def_cfa_offset 24
 213 0090 00AF     		add	r7, sp, #0
 214              	.LCFI18:
 215              		.cfi_def_cfa_register 7
 216 0092 7860     		str	r0, [r7, #4]
  39:../../source/src/kernel/OS_LIB/myMicroLIB.c **** 	unsigned int num = 0;
 217              		.loc 1 39 0
 218 0094 0023     		movs	r3, #0
 219 0096 FB60     		str	r3, [r7, #12]
  40:../../source/src/kernel/OS_LIB/myMicroLIB.c **** 	while('\0' != *s++)
 220              		.loc 1 40 0
 221 0098 02E0     		b	.L12
 222              	.L13:
  41:../../source/src/kernel/OS_LIB/myMicroLIB.c **** 	{
  42:../../source/src/kernel/OS_LIB/myMicroLIB.c **** 		++num;
 223              		.loc 1 42 0
 224 009a FB68     		ldr	r3, [r7, #12]
 225 009c 0133     		adds	r3, r3, #1
 226 009e FB60     		str	r3, [r7, #12]
 227              	.L12:
  40:../../source/src/kernel/OS_LIB/myMicroLIB.c **** 	while('\0' != *s++)
 228              		.loc 1 40 0
 229 00a0 7B68     		ldr	r3, [r7, #4]
 230 00a2 5A1C     		adds	r2, r3, #1
 231 00a4 7A60     		str	r2, [r7, #4]
 232 00a6 1B78     		ldrb	r3, [r3]	@ zero_extendqisi2
 233 00a8 002B     		cmp	r3, #0
 234 00aa F6D1     		bne	.L13
  43:../../source/src/kernel/OS_LIB/myMicroLIB.c **** 	}
  44:../../source/src/kernel/OS_LIB/myMicroLIB.c **** 	return num;
 235              		.loc 1 44 0
 236 00ac FB68     		ldr	r3, [r7, #12]
  45:../../source/src/kernel/OS_LIB/myMicroLIB.c **** }
ARM GAS  G:\Users\Jaxb\AppData\Local\Temp\cc904ymL.s 			page 6


 237              		.loc 1 45 0
 238 00ae 1846     		mov	r0, r3
 239 00b0 1437     		adds	r7, r7, #20
 240              	.LCFI19:
 241              		.cfi_def_cfa_offset 4
 242 00b2 BD46     		mov	sp, r7
 243              	.LCFI20:
 244              		.cfi_def_cfa_register 13
 245              		@ sp needed
 246 00b4 80BC     		pop	{r7}
 247              	.LCFI21:
 248              		.cfi_restore 7
 249              		.cfi_def_cfa_offset 0
 250 00b6 7047     		bx	lr
 251              		.cfi_endproc
 252              	.LFE32:
 253              		.size	ka_strlen, .-ka_strlen
 254              		.align	1
 255              		.global	ka_memcpy
 256              		.syntax unified
 257              		.thumb
 258              		.thumb_func
 259              		.fpu softvfp
 260              		.type	ka_memcpy, %function
 261              	ka_memcpy:
 262              	.LFB33:
  46:../../source/src/kernel/OS_LIB/myMicroLIB.c **** 
  47:../../source/src/kernel/OS_LIB/myMicroLIB.c **** void ka_memcpy(void *dest, const void *src, int n)
  48:../../source/src/kernel/OS_LIB/myMicroLIB.c **** {
 263              		.loc 1 48 0
 264              		.cfi_startproc
 265              		@ args = 0, pretend = 0, frame = 40
 266              		@ frame_needed = 1, uses_anonymous_args = 0
 267              		@ link register save eliminated.
 268 00b8 80B4     		push	{r7}
 269              	.LCFI22:
 270              		.cfi_def_cfa_offset 4
 271              		.cfi_offset 7, -4
 272 00ba 8BB0     		sub	sp, sp, #44
 273              	.LCFI23:
 274              		.cfi_def_cfa_offset 48
 275 00bc 00AF     		add	r7, sp, #0
 276              	.LCFI24:
 277              		.cfi_def_cfa_register 7
 278 00be F860     		str	r0, [r7, #12]
 279 00c0 B960     		str	r1, [r7, #8]
 280 00c2 7A60     		str	r2, [r7, #4]
  49:../../source/src/kernel/OS_LIB/myMicroLIB.c **** 	int i;
  50:../../source/src/kernel/OS_LIB/myMicroLIB.c **** 	int *ptr1 = (int *)dest;
 281              		.loc 1 50 0
 282 00c4 FB68     		ldr	r3, [r7, #12]
 283 00c6 3B62     		str	r3, [r7, #32]
  51:../../source/src/kernel/OS_LIB/myMicroLIB.c **** 	const int *ptr2 = (const int *)src;
 284              		.loc 1 51 0
 285 00c8 BB68     		ldr	r3, [r7, #8]
 286 00ca FB61     		str	r3, [r7, #28]
  52:../../source/src/kernel/OS_LIB/myMicroLIB.c **** 	int num = n>>2;
ARM GAS  G:\Users\Jaxb\AppData\Local\Temp\cc904ymL.s 			page 7


 287              		.loc 1 52 0
 288 00cc 7B68     		ldr	r3, [r7, #4]
 289 00ce 9B10     		asrs	r3, r3, #2
 290 00d0 3B61     		str	r3, [r7, #16]
  53:../../source/src/kernel/OS_LIB/myMicroLIB.c **** 	for(i=num-1;i>=0;--i)
 291              		.loc 1 53 0
 292 00d2 3B69     		ldr	r3, [r7, #16]
 293 00d4 013B     		subs	r3, r3, #1
 294 00d6 7B62     		str	r3, [r7, #36]
 295 00d8 0AE0     		b	.L16
 296              	.L17:
  54:../../source/src/kernel/OS_LIB/myMicroLIB.c **** 	//while(num--)
  55:../../source/src/kernel/OS_LIB/myMicroLIB.c **** 	{
  56:../../source/src/kernel/OS_LIB/myMicroLIB.c **** 		*ptr1++ = *ptr2++; // from low to high
 297              		.loc 1 56 0 discriminator 3
 298 00da FA69     		ldr	r2, [r7, #28]
 299 00dc 131D     		adds	r3, r2, #4
 300 00de FB61     		str	r3, [r7, #28]
 301 00e0 3B6A     		ldr	r3, [r7, #32]
 302 00e2 191D     		adds	r1, r3, #4
 303 00e4 3962     		str	r1, [r7, #32]
 304 00e6 1268     		ldr	r2, [r2]
 305 00e8 1A60     		str	r2, [r3]
  53:../../source/src/kernel/OS_LIB/myMicroLIB.c **** 	for(i=num-1;i>=0;--i)
 306              		.loc 1 53 0 discriminator 3
 307 00ea 7B6A     		ldr	r3, [r7, #36]
 308 00ec 013B     		subs	r3, r3, #1
 309 00ee 7B62     		str	r3, [r7, #36]
 310              	.L16:
  53:../../source/src/kernel/OS_LIB/myMicroLIB.c **** 	for(i=num-1;i>=0;--i)
 311              		.loc 1 53 0 is_stmt 0 discriminator 1
 312 00f0 7B6A     		ldr	r3, [r7, #36]
 313 00f2 002B     		cmp	r3, #0
 314 00f4 F1DA     		bge	.L17
  57:../../source/src/kernel/OS_LIB/myMicroLIB.c **** 	}
  58:../../source/src/kernel/OS_LIB/myMicroLIB.c **** 	num = n & 3;
 315              		.loc 1 58 0 is_stmt 1
 316 00f6 7B68     		ldr	r3, [r7, #4]
 317 00f8 03F00303 		and	r3, r3, #3
 318 00fc 3B61     		str	r3, [r7, #16]
  59:../../source/src/kernel/OS_LIB/myMicroLIB.c **** 	if(num)
 319              		.loc 1 59 0
 320 00fe 3B69     		ldr	r3, [r7, #16]
 321 0100 002B     		cmp	r3, #0
 322 0102 15D0     		beq	.L21
 323              	.LBB2:
  60:../../source/src/kernel/OS_LIB/myMicroLIB.c **** 	{
  61:../../source/src/kernel/OS_LIB/myMicroLIB.c **** 		char *ptr3 = (char *)ptr1;
 324              		.loc 1 61 0
 325 0104 3B6A     		ldr	r3, [r7, #32]
 326 0106 BB61     		str	r3, [r7, #24]
  62:../../source/src/kernel/OS_LIB/myMicroLIB.c **** 		const char *ptr4 = (char *)ptr2;
 327              		.loc 1 62 0
 328 0108 FB69     		ldr	r3, [r7, #28]
 329 010a 7B61     		str	r3, [r7, #20]
  63:../../source/src/kernel/OS_LIB/myMicroLIB.c **** 		for(i=num-1;i>=0;--i)
 330              		.loc 1 63 0
ARM GAS  G:\Users\Jaxb\AppData\Local\Temp\cc904ymL.s 			page 8


 331 010c 3B69     		ldr	r3, [r7, #16]
 332 010e 013B     		subs	r3, r3, #1
 333 0110 7B62     		str	r3, [r7, #36]
 334 0112 0AE0     		b	.L19
 335              	.L20:
  64:../../source/src/kernel/OS_LIB/myMicroLIB.c **** 		{
  65:../../source/src/kernel/OS_LIB/myMicroLIB.c **** 			*ptr3++ = *ptr4++;
 336              		.loc 1 65 0 discriminator 3
 337 0114 7A69     		ldr	r2, [r7, #20]
 338 0116 531C     		adds	r3, r2, #1
 339 0118 7B61     		str	r3, [r7, #20]
 340 011a BB69     		ldr	r3, [r7, #24]
 341 011c 591C     		adds	r1, r3, #1
 342 011e B961     		str	r1, [r7, #24]
 343 0120 1278     		ldrb	r2, [r2]	@ zero_extendqisi2
 344 0122 1A70     		strb	r2, [r3]
  63:../../source/src/kernel/OS_LIB/myMicroLIB.c **** 		for(i=num-1;i>=0;--i)
 345              		.loc 1 63 0 discriminator 3
 346 0124 7B6A     		ldr	r3, [r7, #36]
 347 0126 013B     		subs	r3, r3, #1
 348 0128 7B62     		str	r3, [r7, #36]
 349              	.L19:
  63:../../source/src/kernel/OS_LIB/myMicroLIB.c **** 		for(i=num-1;i>=0;--i)
 350              		.loc 1 63 0 is_stmt 0 discriminator 1
 351 012a 7B6A     		ldr	r3, [r7, #36]
 352 012c 002B     		cmp	r3, #0
 353 012e F1DA     		bge	.L20
 354              	.L21:
 355              	.LBE2:
  66:../../source/src/kernel/OS_LIB/myMicroLIB.c **** 		}
  67:../../source/src/kernel/OS_LIB/myMicroLIB.c **** 	}
  68:../../source/src/kernel/OS_LIB/myMicroLIB.c **** }
 356              		.loc 1 68 0 is_stmt 1
 357 0130 00BF     		nop
 358 0132 2C37     		adds	r7, r7, #44
 359              	.LCFI25:
 360              		.cfi_def_cfa_offset 4
 361 0134 BD46     		mov	sp, r7
 362              	.LCFI26:
 363              		.cfi_def_cfa_register 13
 364              		@ sp needed
 365 0136 80BC     		pop	{r7}
 366              	.LCFI27:
 367              		.cfi_restore 7
 368              		.cfi_def_cfa_offset 0
 369 0138 7047     		bx	lr
 370              		.cfi_endproc
 371              	.LFE33:
 372              		.size	ka_memcpy, .-ka_memcpy
 373              		.global	__aeabi_dcmplt
 374              		.global	__aeabi_d2iz
 375              		.global	__aeabi_i2d
 376              		.global	__aeabi_dsub
 377              		.global	__aeabi_dmul
 378              		.section	.rodata
 379              		.align	2
 380              	.LC0:
ARM GAS  G:\Users\Jaxb\AppData\Local\Temp\cc904ymL.s 			page 9


 381 0000 2E2E2F2E 		.ascii	"../../source/src/kernel/OS_LIB/myMicroLIB.c\000"
 381      2E2F736F 
 381      75726365 
 381      2F737263 
 381      2F6B6572 
 382              		.global	__aeabi_ldivmod
 383              		.align	2
 384              	.LC1:
 385 002c 30783030 		.ascii	"0x00\000"
 385      00
 386              		.text
 387              		.align	1
 388              		.global	ka_printf
 389              		.syntax unified
 390              		.thumb
 391              		.thumb_func
 392              		.fpu softvfp
 393              		.type	ka_printf, %function
 394              	ka_printf:
 395              	.LFB34:
  69:../../source/src/kernel/OS_LIB/myMicroLIB.c **** 
  70:../../source/src/kernel/OS_LIB/myMicroLIB.c **** 
  71:../../source/src/kernel/OS_LIB/myMicroLIB.c **** int ka_printf(const char *str,...)
  72:../../source/src/kernel/OS_LIB/myMicroLIB.c **** {
 396              		.loc 1 72 0
 397              		.cfi_startproc
 398              		@ args = 4, pretend = 16, frame = 64
 399              		@ frame_needed = 1, uses_anonymous_args = 1
 400 013a 0FB4     		push	{r0, r1, r2, r3}
 401              	.LCFI28:
 402              		.cfi_def_cfa_offset 16
 403              		.cfi_offset 0, -16
 404              		.cfi_offset 1, -12
 405              		.cfi_offset 2, -8
 406              		.cfi_offset 3, -4
 407 013c 90B5     		push	{r4, r7, lr}
 408              	.LCFI29:
 409              		.cfi_def_cfa_offset 28
 410              		.cfi_offset 4, -28
 411              		.cfi_offset 7, -24
 412              		.cfi_offset 14, -20
 413 013e 91B0     		sub	sp, sp, #68
 414              	.LCFI30:
 415              		.cfi_def_cfa_offset 96
 416 0140 00AF     		add	r7, sp, #0
 417              	.LCFI31:
 418              		.cfi_def_cfa_register 7
  73:../../source/src/kernel/OS_LIB/myMicroLIB.c **** 	va_list ap;
  74:../../source/src/kernel/OS_LIB/myMicroLIB.c **** 	int val,r_val;
  75:../../source/src/kernel/OS_LIB/myMicroLIB.c **** 	double val_f;
  76:../../source/src/kernel/OS_LIB/myMicroLIB.c **** 	INT64 val_l,r_val_l;
  77:../../source/src/kernel/OS_LIB/myMicroLIB.c **** 	unsigned int val1,r_val1;
  78:../../source/src/kernel/OS_LIB/myMicroLIB.c **** 	char count,ch;
  79:../../source/src/kernel/OS_LIB/myMicroLIB.c **** 	char *s = NULL;
 419              		.loc 1 79 0
 420 0142 0023     		movs	r3, #0
 421 0144 FB60     		str	r3, [r7, #12]
ARM GAS  G:\Users\Jaxb\AppData\Local\Temp\cc904ymL.s 			page 10


  80:../../source/src/kernel/OS_LIB/myMicroLIB.c **** 	int res = 0;
 422              		.loc 1 80 0
 423 0146 0023     		movs	r3, #0
 424 0148 7B61     		str	r3, [r7, #20]
  81:../../source/src/kernel/OS_LIB/myMicroLIB.c **** 	int buffer;
  82:../../source/src/kernel/OS_LIB/myMicroLIB.c **** 	
  83:../../source/src/kernel/OS_LIB/myMicroLIB.c **** 	va_start(ap,str);
 425              		.loc 1 83 0
 426 014a 07F15403 		add	r3, r7, #84
 427 014e 3B60     		str	r3, [r7]
  84:../../source/src/kernel/OS_LIB/myMicroLIB.c **** 	while('\0' != *str)
 428              		.loc 1 84 0
 429 0150 7DE3     		b	.L23
 430              	.L85:
  85:../../source/src/kernel/OS_LIB/myMicroLIB.c **** 	{
  86:../../source/src/kernel/OS_LIB/myMicroLIB.c **** 		switch(*str)  
 431              		.loc 1 86 0
 432 0152 3B6D     		ldr	r3, [r7, #80]
 433 0154 1B78     		ldrb	r3, [r3]	@ zero_extendqisi2
 434 0156 0A2B     		cmp	r3, #10
 435 0158 00F06483 		beq	.L25
 436 015c 252B     		cmp	r3, #37
 437 015e 40F06B83 		bne	.L89
  87:../../source/src/kernel/OS_LIB/myMicroLIB.c **** 	    { 
  88:../../source/src/kernel/OS_LIB/myMicroLIB.c **** 			case '%':
  89:../../source/src/kernel/OS_LIB/myMicroLIB.c **** 				str++;
 438              		.loc 1 89 0
 439 0162 3B6D     		ldr	r3, [r7, #80]
 440 0164 0133     		adds	r3, r3, #1
 441 0166 3B65     		str	r3, [r7, #80]
  90:../../source/src/kernel/OS_LIB/myMicroLIB.c **** 				switch(*str)  
 442              		.loc 1 90 0
 443 0168 3B6D     		ldr	r3, [r7, #80]
 444 016a 1B78     		ldrb	r3, [r3]	@ zero_extendqisi2
 445 016c 253B     		subs	r3, r3, #37
 446 016e 532B     		cmp	r3, #83
 447 0170 00F25183 		bhi	.L87
 448 0174 01A2     		adr	r2, .L29
 449 0176 52F823F0 		ldr	pc, [r2, r3, lsl #2]
 450 017a 00BF     		.p2align 2
 451              	.L29:
 452 017c 55070000 		.word	.L28+1
 453 0180 17080000 		.word	.L87+1
 454 0184 17080000 		.word	.L87+1
 455 0188 17080000 		.word	.L87+1
 456 018c 17080000 		.word	.L87+1
 457 0190 17080000 		.word	.L87+1
 458 0194 17080000 		.word	.L87+1
 459 0198 17080000 		.word	.L87+1
 460 019c 17080000 		.word	.L87+1
 461 01a0 17080000 		.word	.L87+1
 462 01a4 17080000 		.word	.L87+1
 463 01a8 17080000 		.word	.L87+1
 464 01ac 17080000 		.word	.L87+1
 465 01b0 17080000 		.word	.L87+1
 466 01b4 17080000 		.word	.L87+1
 467 01b8 17080000 		.word	.L87+1
ARM GAS  G:\Users\Jaxb\AppData\Local\Temp\cc904ymL.s 			page 11


 468 01bc 17080000 		.word	.L87+1
 469 01c0 17080000 		.word	.L87+1
 470 01c4 17080000 		.word	.L87+1
 471 01c8 17080000 		.word	.L87+1
 472 01cc 17080000 		.word	.L87+1
 473 01d0 17080000 		.word	.L87+1
 474 01d4 17080000 		.word	.L87+1
 475 01d8 17080000 		.word	.L87+1
 476 01dc 17080000 		.word	.L87+1
 477 01e0 17080000 		.word	.L87+1
 478 01e4 17080000 		.word	.L87+1
 479 01e8 17080000 		.word	.L87+1
 480 01ec 17080000 		.word	.L87+1
 481 01f0 17080000 		.word	.L87+1
 482 01f4 17080000 		.word	.L87+1
 483 01f8 17080000 		.word	.L87+1
 484 01fc 17080000 		.word	.L87+1
 485 0200 17080000 		.word	.L87+1
 486 0204 17080000 		.word	.L87+1
 487 0208 17080000 		.word	.L87+1
 488 020c 17080000 		.word	.L87+1
 489 0210 17080000 		.word	.L87+1
 490 0214 17080000 		.word	.L87+1
 491 0218 17080000 		.word	.L87+1
 492 021c 17080000 		.word	.L87+1
 493 0220 17080000 		.word	.L87+1
 494 0224 17080000 		.word	.L87+1
 495 0228 17080000 		.word	.L87+1
 496 022c 17080000 		.word	.L87+1
 497 0230 17080000 		.word	.L87+1
 498 0234 17080000 		.word	.L87+1
 499 0238 17080000 		.word	.L87+1
 500 023c 17080000 		.word	.L87+1
 501 0240 17080000 		.word	.L87+1
 502 0244 17080000 		.word	.L87+1
 503 0248 17080000 		.word	.L87+1
 504 024c 17080000 		.word	.L87+1
 505 0250 17080000 		.word	.L87+1
 506 0254 17080000 		.word	.L87+1
 507 0258 17080000 		.word	.L87+1
 508 025c 17080000 		.word	.L87+1
 509 0260 17080000 		.word	.L87+1
 510 0264 17080000 		.word	.L87+1
 511 0268 17080000 		.word	.L87+1
 512 026c 17080000 		.word	.L87+1
 513 0270 17080000 		.word	.L87+1
 514 0274 3D070000 		.word	.L30+1
 515 0278 CD020000 		.word	.L31+1
 516 027c 17080000 		.word	.L87+1
 517 0280 77030000 		.word	.L32+1
 518 0284 17080000 		.word	.L87+1
 519 0288 17080000 		.word	.L87+1
 520 028c 17080000 		.word	.L87+1
 521 0290 17080000 		.word	.L87+1
 522 0294 17080000 		.word	.L87+1
 523 0298 E5040000 		.word	.L33+1
 524 029c 17080000 		.word	.L87+1
ARM GAS  G:\Users\Jaxb\AppData\Local\Temp\cc904ymL.s 			page 12


 525 02a0 17080000 		.word	.L87+1
 526 02a4 17080000 		.word	.L87+1
 527 02a8 63070000 		.word	.L34+1
 528 02ac 17080000 		.word	.L87+1
 529 02b0 17080000 		.word	.L87+1
 530 02b4 1D070000 		.word	.L35+1
 531 02b8 17080000 		.word	.L87+1
 532 02bc E1050000 		.word	.L36+1
 533 02c0 17080000 		.word	.L87+1
 534 02c4 17080000 		.word	.L87+1
 535 02c8 75060000 		.word	.L37+1
 536              		.p2align 1
 537              	.L31:
  91:../../source/src/kernel/OS_LIB/myMicroLIB.c **** 				{
  92:../../source/src/kernel/OS_LIB/myMicroLIB.c **** 				 	case 'd': // decimal
  93:../../source/src/kernel/OS_LIB/myMicroLIB.c **** 				 		val = va_arg(ap, int); 
 538              		.loc 1 93 0
 539 02cc 3B68     		ldr	r3, [r7]
 540 02ce 1A1D     		adds	r2, r3, #4
 541 02d0 3A60     		str	r2, [r7]
 542 02d2 1B68     		ldr	r3, [r3]
 543 02d4 FB63     		str	r3, [r7, #60]
  94:../../source/src/kernel/OS_LIB/myMicroLIB.c **** 				 		if(0 == val) 
 544              		.loc 1 94 0
 545 02d6 FB6B     		ldr	r3, [r7, #60]
 546 02d8 002B     		cmp	r3, #0
 547 02da 03D1     		bne	.L38
  95:../../source/src/kernel/OS_LIB/myMicroLIB.c **** 				 		{
  96:../../source/src/kernel/OS_LIB/myMicroLIB.c **** 				 			ka_putchar('0');
 548              		.loc 1 96 0
 549 02dc 3020     		movs	r0, #48
 550 02de FFF7FEFF 		bl	ka_putchar
  97:../../source/src/kernel/OS_LIB/myMicroLIB.c **** 				 			break;
 551              		.loc 1 97 0
 552 02e2 9EE2     		b	.L39
 553              	.L38:
  98:../../source/src/kernel/OS_LIB/myMicroLIB.c **** 				 		}
  99:../../source/src/kernel/OS_LIB/myMicroLIB.c **** 						if(val < 0)
 554              		.loc 1 99 0
 555 02e4 FB6B     		ldr	r3, [r7, #60]
 556 02e6 002B     		cmp	r3, #0
 557 02e8 05DA     		bge	.L40
 100:../../source/src/kernel/OS_LIB/myMicroLIB.c **** 						{
 101:../../source/src/kernel/OS_LIB/myMicroLIB.c **** 							ka_putchar('-');
 558              		.loc 1 101 0
 559 02ea 2D20     		movs	r0, #45
 560 02ec FFF7FEFF 		bl	ka_putchar
 102:../../source/src/kernel/OS_LIB/myMicroLIB.c **** 							val = -val;
 561              		.loc 1 102 0
 562 02f0 FB6B     		ldr	r3, [r7, #60]
 563 02f2 5B42     		negs	r3, r3
 564 02f4 FB63     		str	r3, [r7, #60]
 565              	.L40:
 103:../../source/src/kernel/OS_LIB/myMicroLIB.c **** 						}
 104:../../source/src/kernel/OS_LIB/myMicroLIB.c **** 	                    r_val = val;   
 566              		.loc 1 104 0
 567 02f6 FB6B     		ldr	r3, [r7, #60]
ARM GAS  G:\Users\Jaxb\AppData\Local\Temp\cc904ymL.s 			page 13


 568 02f8 BB63     		str	r3, [r7, #56]
 105:../../source/src/kernel/OS_LIB/myMicroLIB.c **** 	                    count = 0;
 569              		.loc 1 105 0
 570 02fa 0023     		movs	r3, #0
 571 02fc FB76     		strb	r3, [r7, #27]
 106:../../source/src/kernel/OS_LIB/myMicroLIB.c **** 	                    while(r_val)
 572              		.loc 1 106 0
 573 02fe 0AE0     		b	.L41
 574              	.L42:
 107:../../source/src/kernel/OS_LIB/myMicroLIB.c **** 	                    {   
 108:../../source/src/kernel/OS_LIB/myMicroLIB.c **** 	                         count++;
 575              		.loc 1 108 0
 576 0300 FB7E     		ldrb	r3, [r7, #27]	@ zero_extendqisi2
 577 0302 0133     		adds	r3, r3, #1
 578 0304 FB76     		strb	r3, [r7, #27]
 109:../../source/src/kernel/OS_LIB/myMicroLIB.c **** 	                         r_val /= 10;  
 579              		.loc 1 109 0
 580 0306 BB6B     		ldr	r3, [r7, #56]
 581 0308 B24A     		ldr	r2, .L90
 582 030a 82FB0312 		smull	r1, r2, r2, r3
 583 030e 9210     		asrs	r2, r2, #2
 584 0310 DB17     		asrs	r3, r3, #31
 585 0312 D31A     		subs	r3, r2, r3
 586 0314 BB63     		str	r3, [r7, #56]
 587              	.L41:
 106:../../source/src/kernel/OS_LIB/myMicroLIB.c **** 	                    while(r_val)
 588              		.loc 1 106 0
 589 0316 BB6B     		ldr	r3, [r7, #56]
 590 0318 002B     		cmp	r3, #0
 591 031a F1D1     		bne	.L42
 110:../../source/src/kernel/OS_LIB/myMicroLIB.c **** 	                    } 
 111:../../source/src/kernel/OS_LIB/myMicroLIB.c **** 	                    res += count; 
 592              		.loc 1 111 0
 593 031c FB7E     		ldrb	r3, [r7, #27]	@ zero_extendqisi2
 594 031e 7A69     		ldr	r2, [r7, #20]
 595 0320 1344     		add	r3, r3, r2
 596 0322 7B61     		str	r3, [r7, #20]
 112:../../source/src/kernel/OS_LIB/myMicroLIB.c **** 	                    r_val = val;  
 597              		.loc 1 112 0
 598 0324 FB6B     		ldr	r3, [r7, #60]
 599 0326 BB63     		str	r3, [r7, #56]
 113:../../source/src/kernel/OS_LIB/myMicroLIB.c **** 	                    while(count)  
 600              		.loc 1 113 0
 601 0328 21E0     		b	.L43
 602              	.L44:
 114:../../source/src/kernel/OS_LIB/myMicroLIB.c **** 	                    {   
 115:../../source/src/kernel/OS_LIB/myMicroLIB.c **** 	                          ch = r_val / ka_pow(10,count - 1);  
 603              		.loc 1 115 0
 604 032a BC6B     		ldr	r4, [r7, #56]
 605 032c FB7E     		ldrb	r3, [r7, #27]	@ zero_extendqisi2
 606 032e 013B     		subs	r3, r3, #1
 607 0330 1946     		mov	r1, r3
 608 0332 0A20     		movs	r0, #10
 609 0334 FFF7FEFF 		bl	ka_pow
 610 0338 0346     		mov	r3, r0
 611 033a B4FBF3F3 		udiv	r3, r4, r3
 612 033e FB72     		strb	r3, [r7, #11]
ARM GAS  G:\Users\Jaxb\AppData\Local\Temp\cc904ymL.s 			page 14


 116:../../source/src/kernel/OS_LIB/myMicroLIB.c **** 	                          r_val %= ka_pow(10,count - 1); 
 613              		.loc 1 116 0
 614 0340 FB7E     		ldrb	r3, [r7, #27]	@ zero_extendqisi2
 615 0342 013B     		subs	r3, r3, #1
 616 0344 1946     		mov	r1, r3
 617 0346 0A20     		movs	r0, #10
 618 0348 FFF7FEFF 		bl	ka_pow
 619 034c 0246     		mov	r2, r0
 620 034e BB6B     		ldr	r3, [r7, #56]
 621 0350 B3FBF2F1 		udiv	r1, r3, r2
 622 0354 02FB01F2 		mul	r2, r2, r1
 623 0358 9B1A     		subs	r3, r3, r2
 624 035a BB63     		str	r3, [r7, #56]
 117:../../source/src/kernel/OS_LIB/myMicroLIB.c **** 	                          ka_putchar(ch + '0');
 625              		.loc 1 117 0
 626 035c FB7A     		ldrb	r3, [r7, #11]
 627 035e 3033     		adds	r3, r3, #48
 628 0360 DBB2     		uxtb	r3, r3
 629 0362 1846     		mov	r0, r3
 630 0364 FFF7FEFF 		bl	ka_putchar
 118:../../source/src/kernel/OS_LIB/myMicroLIB.c **** 	                          count--;  
 631              		.loc 1 118 0
 632 0368 FB7E     		ldrb	r3, [r7, #27]	@ zero_extendqisi2
 633 036a 013B     		subs	r3, r3, #1
 634 036c FB76     		strb	r3, [r7, #27]
 635              	.L43:
 113:../../source/src/kernel/OS_LIB/myMicroLIB.c **** 	                    {   
 636              		.loc 1 113 0
 637 036e FB7E     		ldrb	r3, [r7, #27]	@ zero_extendqisi2
 638 0370 002B     		cmp	r3, #0
 639 0372 DAD1     		bne	.L44
 119:../../source/src/kernel/OS_LIB/myMicroLIB.c **** 	                    }  
 120:../../source/src/kernel/OS_LIB/myMicroLIB.c **** 	                    break; 
 640              		.loc 1 120 0
 641 0374 55E2     		b	.L39
 642              	.L32:
 121:../../source/src/kernel/OS_LIB/myMicroLIB.c **** 
 122:../../source/src/kernel/OS_LIB/myMicroLIB.c **** 	                case 'f': //float
 123:../../source/src/kernel/OS_LIB/myMicroLIB.c **** 	                	val_f = va_arg(ap, double);
 643              		.loc 1 123 0
 644 0376 3B68     		ldr	r3, [r7]
 645 0378 0733     		adds	r3, r3, #7
 646 037a 23F00703 		bic	r3, r3, #7
 647 037e 03F10802 		add	r2, r3, #8
 648 0382 3A60     		str	r2, [r7]
 649 0384 18CB     		ldmia	r3, {r3-r4}
 650 0386 C7E90C34 		strd	r3, [r7, #48]
 124:../../source/src/kernel/OS_LIB/myMicroLIB.c **** 	                	if(val_f < 0)
 651              		.loc 1 124 0
 652 038a 4FF00002 		mov	r2, #0
 653 038e 4FF00003 		mov	r3, #0
 654 0392 D7E90C01 		ldrd	r0, [r7, #48]
 655 0396 FFF7FEFF 		bl	__aeabi_dcmplt
 656              	.LVL0:
 657 039a 0346     		mov	r3, r0
 658 039c 002B     		cmp	r3, #0
 659 039e 08D0     		beq	.L45
ARM GAS  G:\Users\Jaxb\AppData\Local\Temp\cc904ymL.s 			page 15


 125:../../source/src/kernel/OS_LIB/myMicroLIB.c **** 	                	{
 126:../../source/src/kernel/OS_LIB/myMicroLIB.c **** 	                		ka_putchar('-');
 660              		.loc 1 126 0
 661 03a0 2D20     		movs	r0, #45
 662 03a2 FFF7FEFF 		bl	ka_putchar
 127:../../source/src/kernel/OS_LIB/myMicroLIB.c **** 	                		val_f = -val_f;
 663              		.loc 1 127 0
 664 03a6 3B6B     		ldr	r3, [r7, #48]
 665 03a8 3B63     		str	r3, [r7, #48]
 666 03aa 7B6B     		ldr	r3, [r7, #52]
 667 03ac 83F00043 		eor	r3, r3, #-2147483648
 668 03b0 7B63     		str	r3, [r7, #52]
 669              	.L45:
 128:../../source/src/kernel/OS_LIB/myMicroLIB.c **** 	                	}
 129:../../source/src/kernel/OS_LIB/myMicroLIB.c **** 	                	val = (int)val_f;
 670              		.loc 1 129 0
 671 03b2 D7E90C01 		ldrd	r0, [r7, #48]
 672 03b6 FFF7FEFF 		bl	__aeabi_d2iz
 673              	.LVL1:
 674 03ba 0346     		mov	r3, r0
 675 03bc FB63     		str	r3, [r7, #60]
 130:../../source/src/kernel/OS_LIB/myMicroLIB.c **** 	                	val_f -= val;
 676              		.loc 1 130 0
 677 03be F86B     		ldr	r0, [r7, #60]
 678 03c0 FFF7FEFF 		bl	__aeabi_i2d
 679              	.LVL2:
 680 03c4 0346     		mov	r3, r0
 681 03c6 0C46     		mov	r4, r1
 682 03c8 1A46     		mov	r2, r3
 683 03ca 2346     		mov	r3, r4
 684 03cc D7E90C01 		ldrd	r0, [r7, #48]
 685 03d0 FFF7FEFF 		bl	__aeabi_dsub
 686              	.LVL3:
 687 03d4 0346     		mov	r3, r0
 688 03d6 0C46     		mov	r4, r1
 689 03d8 C7E90C34 		strd	r3, [r7, #48]
 131:../../source/src/kernel/OS_LIB/myMicroLIB.c **** 	                	if(0 == val) 
 690              		.loc 1 131 0
 691 03dc FB6B     		ldr	r3, [r7, #60]
 692 03de 002B     		cmp	r3, #0
 693 03e0 02D1     		bne	.L47
 132:../../source/src/kernel/OS_LIB/myMicroLIB.c **** 				 		{
 133:../../source/src/kernel/OS_LIB/myMicroLIB.c **** 				 			ka_putchar('0');
 694              		.loc 1 133 0
 695 03e2 3020     		movs	r0, #48
 696 03e4 FFF7FEFF 		bl	ka_putchar
 697              	.L47:
 134:../../source/src/kernel/OS_LIB/myMicroLIB.c **** 				 		} 
 135:../../source/src/kernel/OS_LIB/myMicroLIB.c **** 				 		r_val = val;   
 698              		.loc 1 135 0
 699 03e8 FB6B     		ldr	r3, [r7, #60]
 700 03ea BB63     		str	r3, [r7, #56]
 136:../../source/src/kernel/OS_LIB/myMicroLIB.c **** 	                    count = 0;
 701              		.loc 1 136 0
 702 03ec 0023     		movs	r3, #0
 703 03ee FB76     		strb	r3, [r7, #27]
 137:../../source/src/kernel/OS_LIB/myMicroLIB.c **** 	                    while(r_val)
ARM GAS  G:\Users\Jaxb\AppData\Local\Temp\cc904ymL.s 			page 16


 704              		.loc 1 137 0
 705 03f0 0AE0     		b	.L48
 706              	.L49:
 138:../../source/src/kernel/OS_LIB/myMicroLIB.c **** 	                    {   
 139:../../source/src/kernel/OS_LIB/myMicroLIB.c **** 	                         count++;
 707              		.loc 1 139 0
 708 03f2 FB7E     		ldrb	r3, [r7, #27]	@ zero_extendqisi2
 709 03f4 0133     		adds	r3, r3, #1
 710 03f6 FB76     		strb	r3, [r7, #27]
 140:../../source/src/kernel/OS_LIB/myMicroLIB.c **** 	                         r_val /= 10;  
 711              		.loc 1 140 0
 712 03f8 BB6B     		ldr	r3, [r7, #56]
 713 03fa 764A     		ldr	r2, .L90
 714 03fc 82FB0312 		smull	r1, r2, r2, r3
 715 0400 9210     		asrs	r2, r2, #2
 716 0402 DB17     		asrs	r3, r3, #31
 717 0404 D31A     		subs	r3, r2, r3
 718 0406 BB63     		str	r3, [r7, #56]
 719              	.L48:
 137:../../source/src/kernel/OS_LIB/myMicroLIB.c **** 	                    while(r_val)
 720              		.loc 1 137 0
 721 0408 BB6B     		ldr	r3, [r7, #56]
 722 040a 002B     		cmp	r3, #0
 723 040c F1D1     		bne	.L49
 141:../../source/src/kernel/OS_LIB/myMicroLIB.c **** 	                    } 
 142:../../source/src/kernel/OS_LIB/myMicroLIB.c **** 	                    res += count; 
 724              		.loc 1 142 0
 725 040e FB7E     		ldrb	r3, [r7, #27]	@ zero_extendqisi2
 726 0410 7A69     		ldr	r2, [r7, #20]
 727 0412 1344     		add	r3, r3, r2
 728 0414 7B61     		str	r3, [r7, #20]
 143:../../source/src/kernel/OS_LIB/myMicroLIB.c **** 	                    r_val = val;  
 729              		.loc 1 143 0
 730 0416 FB6B     		ldr	r3, [r7, #60]
 731 0418 BB63     		str	r3, [r7, #56]
 144:../../source/src/kernel/OS_LIB/myMicroLIB.c **** 	                    while(count)  
 732              		.loc 1 144 0
 733 041a 21E0     		b	.L50
 734              	.L51:
 145:../../source/src/kernel/OS_LIB/myMicroLIB.c **** 	                    {   
 146:../../source/src/kernel/OS_LIB/myMicroLIB.c **** 	                          ch = r_val / ka_pow(10,count - 1);  
 735              		.loc 1 146 0
 736 041c BC6B     		ldr	r4, [r7, #56]
 737 041e FB7E     		ldrb	r3, [r7, #27]	@ zero_extendqisi2
 738 0420 013B     		subs	r3, r3, #1
 739 0422 1946     		mov	r1, r3
 740 0424 0A20     		movs	r0, #10
 741 0426 FFF7FEFF 		bl	ka_pow
 742 042a 0346     		mov	r3, r0
 743 042c B4FBF3F3 		udiv	r3, r4, r3
 744 0430 FB72     		strb	r3, [r7, #11]
 147:../../source/src/kernel/OS_LIB/myMicroLIB.c **** 	                          r_val %= ka_pow(10,count - 1); 
 745              		.loc 1 147 0
 746 0432 FB7E     		ldrb	r3, [r7, #27]	@ zero_extendqisi2
 747 0434 013B     		subs	r3, r3, #1
 748 0436 1946     		mov	r1, r3
 749 0438 0A20     		movs	r0, #10
ARM GAS  G:\Users\Jaxb\AppData\Local\Temp\cc904ymL.s 			page 17


 750 043a FFF7FEFF 		bl	ka_pow
 751 043e 0246     		mov	r2, r0
 752 0440 BB6B     		ldr	r3, [r7, #56]
 753 0442 B3FBF2F1 		udiv	r1, r3, r2
 754 0446 02FB01F2 		mul	r2, r2, r1
 755 044a 9B1A     		subs	r3, r3, r2
 756 044c BB63     		str	r3, [r7, #56]
 148:../../source/src/kernel/OS_LIB/myMicroLIB.c **** 	                          ka_putchar(ch + '0');
 757              		.loc 1 148 0
 758 044e FB7A     		ldrb	r3, [r7, #11]
 759 0450 3033     		adds	r3, r3, #48
 760 0452 DBB2     		uxtb	r3, r3
 761 0454 1846     		mov	r0, r3
 762 0456 FFF7FEFF 		bl	ka_putchar
 149:../../source/src/kernel/OS_LIB/myMicroLIB.c **** 	                          count--;  
 763              		.loc 1 149 0
 764 045a FB7E     		ldrb	r3, [r7, #27]	@ zero_extendqisi2
 765 045c 013B     		subs	r3, r3, #1
 766 045e FB76     		strb	r3, [r7, #27]
 767              	.L50:
 144:../../source/src/kernel/OS_LIB/myMicroLIB.c **** 	                    {   
 768              		.loc 1 144 0
 769 0460 FB7E     		ldrb	r3, [r7, #27]	@ zero_extendqisi2
 770 0462 002B     		cmp	r3, #0
 771 0464 DAD1     		bne	.L51
 150:../../source/src/kernel/OS_LIB/myMicroLIB.c **** 	                    }
 151:../../source/src/kernel/OS_LIB/myMicroLIB.c **** 	                    // the upper is integer part
 152:../../source/src/kernel/OS_LIB/myMicroLIB.c **** 	                    ka_putchar('.');
 772              		.loc 1 152 0
 773 0466 2E20     		movs	r0, #46
 774 0468 FFF7FEFF 		bl	ka_putchar
 153:../../source/src/kernel/OS_LIB/myMicroLIB.c **** 	                    //the following is decimal part
 154:../../source/src/kernel/OS_LIB/myMicroLIB.c **** 	                    count = 6+1;
 775              		.loc 1 154 0
 776 046c 0723     		movs	r3, #7
 777 046e FB76     		strb	r3, [r7, #27]
 155:../../source/src/kernel/OS_LIB/myMicroLIB.c **** 	                    while(--count)
 778              		.loc 1 155 0
 779 0470 31E0     		b	.L52
 780              	.L55:
 156:../../source/src/kernel/OS_LIB/myMicroLIB.c **** 	                    {
 157:../../source/src/kernel/OS_LIB/myMicroLIB.c **** 	                    	val_f *= 10;
 781              		.loc 1 157 0
 782 0472 4FF00002 		mov	r2, #0
 783 0476 584B     		ldr	r3, .L90+4
 784 0478 D7E90C01 		ldrd	r0, [r7, #48]
 785 047c FFF7FEFF 		bl	__aeabi_dmul
 786              	.LVL4:
 787 0480 0346     		mov	r3, r0
 788 0482 0C46     		mov	r4, r1
 789 0484 C7E90C34 		strd	r3, [r7, #48]
 158:../../source/src/kernel/OS_LIB/myMicroLIB.c **** 	                    	val = (int)val_f;
 790              		.loc 1 158 0
 791 0488 D7E90C01 		ldrd	r0, [r7, #48]
 792 048c FFF7FEFF 		bl	__aeabi_d2iz
 793              	.LVL5:
 794 0490 0346     		mov	r3, r0
ARM GAS  G:\Users\Jaxb\AppData\Local\Temp\cc904ymL.s 			page 18


 795 0492 FB63     		str	r3, [r7, #60]
 159:../../source/src/kernel/OS_LIB/myMicroLIB.c **** 	                    	ASSERT(val<10 && val>-10);
 796              		.loc 1 159 0
 797 0494 FB6B     		ldr	r3, [r7, #60]
 798 0496 092B     		cmp	r3, #9
 799 0498 03DC     		bgt	.L53
 800              		.loc 1 159 0 is_stmt 0 discriminator 1
 801 049a FB6B     		ldr	r3, [r7, #60]
 802 049c 13F1090F 		cmn	r3, #9
 803 04a0 03DA     		bge	.L54
 804              	.L53:
 805              		.loc 1 159 0 discriminator 3
 806 04a2 9F21     		movs	r1, #159
 807 04a4 4D48     		ldr	r0, .L90+8
 808 04a6 FFF7FEFF 		bl	_ASSERT
 809              	.L54:
 160:../../source/src/kernel/OS_LIB/myMicroLIB.c **** 	                    	ka_putchar(val + '0');
 810              		.loc 1 160 0 is_stmt 1
 811 04aa FB6B     		ldr	r3, [r7, #60]
 812 04ac DBB2     		uxtb	r3, r3
 813 04ae 3033     		adds	r3, r3, #48
 814 04b0 DBB2     		uxtb	r3, r3
 815 04b2 1846     		mov	r0, r3
 816 04b4 FFF7FEFF 		bl	ka_putchar
 161:../../source/src/kernel/OS_LIB/myMicroLIB.c **** 							val_f -= val;
 817              		.loc 1 161 0
 818 04b8 F86B     		ldr	r0, [r7, #60]
 819 04ba FFF7FEFF 		bl	__aeabi_i2d
 820              	.LVL6:
 821 04be 0346     		mov	r3, r0
 822 04c0 0C46     		mov	r4, r1
 823 04c2 1A46     		mov	r2, r3
 824 04c4 2346     		mov	r3, r4
 825 04c6 D7E90C01 		ldrd	r0, [r7, #48]
 826 04ca FFF7FEFF 		bl	__aeabi_dsub
 827              	.LVL7:
 828 04ce 0346     		mov	r3, r0
 829 04d0 0C46     		mov	r4, r1
 830 04d2 C7E90C34 		strd	r3, [r7, #48]
 831              	.L52:
 155:../../source/src/kernel/OS_LIB/myMicroLIB.c **** 	                    {
 832              		.loc 1 155 0
 833 04d6 FB7E     		ldrb	r3, [r7, #27]
 834 04d8 013B     		subs	r3, r3, #1
 835 04da FB76     		strb	r3, [r7, #27]
 836 04dc FB7E     		ldrb	r3, [r7, #27]	@ zero_extendqisi2
 837 04de 002B     		cmp	r3, #0
 838 04e0 C7D1     		bne	.L55
 162:../../source/src/kernel/OS_LIB/myMicroLIB.c **** 	                    }
 163:../../source/src/kernel/OS_LIB/myMicroLIB.c **** 	                    break ;
 839              		.loc 1 163 0
 840 04e2 9EE1     		b	.L39
 841              	.L33:
 164:../../source/src/kernel/OS_LIB/myMicroLIB.c **** 
 165:../../source/src/kernel/OS_LIB/myMicroLIB.c **** 	                case 'l': // decimal
 166:../../source/src/kernel/OS_LIB/myMicroLIB.c **** 				 		val_l = va_arg(ap, INT64); 
 842              		.loc 1 166 0
ARM GAS  G:\Users\Jaxb\AppData\Local\Temp\cc904ymL.s 			page 19


 843 04e4 3B68     		ldr	r3, [r7]
 844 04e6 0733     		adds	r3, r3, #7
 845 04e8 23F00703 		bic	r3, r3, #7
 846 04ec 03F10802 		add	r2, r3, #8
 847 04f0 3A60     		str	r2, [r7]
 848 04f2 18CB     		ldmia	r3, {r3-r4}
 849 04f4 C7E90A34 		strd	r3, [r7, #40]
 167:../../source/src/kernel/OS_LIB/myMicroLIB.c **** 				 		if(0 == val_l) 
 850              		.loc 1 167 0
 851 04f8 D7E90A34 		ldrd	r3, [r7, #40]
 852 04fc 2343     		orrs	r3, r3, r4
 853 04fe 03D1     		bne	.L56
 168:../../source/src/kernel/OS_LIB/myMicroLIB.c **** 				 		{
 169:../../source/src/kernel/OS_LIB/myMicroLIB.c **** 				 			ka_putchar('0');
 854              		.loc 1 169 0
 855 0500 3020     		movs	r0, #48
 856 0502 FFF7FEFF 		bl	ka_putchar
 170:../../source/src/kernel/OS_LIB/myMicroLIB.c **** 				 			break;
 857              		.loc 1 170 0
 858 0506 8CE1     		b	.L39
 859              	.L56:
 171:../../source/src/kernel/OS_LIB/myMicroLIB.c **** 				 		} 
 172:../../source/src/kernel/OS_LIB/myMicroLIB.c **** 				 		if(val_l < 0)
 860              		.loc 1 172 0
 861 0508 D7E90A34 		ldrd	r3, [r7, #40]
 862 050c 002B     		cmp	r3, #0
 863 050e 74F10003 		sbcs	r3, r4, #0
 864 0512 09DA     		bge	.L57
 173:../../source/src/kernel/OS_LIB/myMicroLIB.c **** 				 		{
 174:../../source/src/kernel/OS_LIB/myMicroLIB.c **** 				 			val_l = -val_l;
 865              		.loc 1 174 0
 866 0514 D7E90A34 		ldrd	r3, [r7, #40]
 867 0518 5B42     		rsbs	r3, r3, #0
 868 051a 64EB4404 		sbc	r4, r4, r4, lsl #1
 869 051e C7E90A34 		strd	r3, [r7, #40]
 175:../../source/src/kernel/OS_LIB/myMicroLIB.c **** 				 			ka_putchar('-');
 870              		.loc 1 175 0
 871 0522 2D20     		movs	r0, #45
 872 0524 FFF7FEFF 		bl	ka_putchar
 873              	.L57:
 176:../../source/src/kernel/OS_LIB/myMicroLIB.c **** 				 		}
 177:../../source/src/kernel/OS_LIB/myMicroLIB.c **** 	                    r_val_l = val_l;   
 874              		.loc 1 177 0
 875 0528 D7E90A34 		ldrd	r3, [r7, #40]
 876 052c C7E90834 		strd	r3, [r7, #32]
 178:../../source/src/kernel/OS_LIB/myMicroLIB.c **** 	                    count = 0;
 877              		.loc 1 178 0
 878 0530 0023     		movs	r3, #0
 879 0532 FB76     		strb	r3, [r7, #27]
 179:../../source/src/kernel/OS_LIB/myMicroLIB.c **** 	                    while(r_val_l)
 880              		.loc 1 179 0
 881 0534 0EE0     		b	.L58
 882              	.L59:
 180:../../source/src/kernel/OS_LIB/myMicroLIB.c **** 	                    {   
 181:../../source/src/kernel/OS_LIB/myMicroLIB.c **** 	                         count++;
 883              		.loc 1 181 0
 884 0536 FB7E     		ldrb	r3, [r7, #27]	@ zero_extendqisi2
ARM GAS  G:\Users\Jaxb\AppData\Local\Temp\cc904ymL.s 			page 20


 885 0538 0133     		adds	r3, r3, #1
 886 053a FB76     		strb	r3, [r7, #27]
 182:../../source/src/kernel/OS_LIB/myMicroLIB.c **** 	                         r_val_l /= 10;  
 887              		.loc 1 182 0
 888 053c D7E90801 		ldrd	r0, [r7, #32]
 889 0540 4FF00A02 		mov	r2, #10
 890 0544 4FF00003 		mov	r3, #0
 891 0548 FFF7FEFF 		bl	__aeabi_ldivmod
 892              	.LVL8:
 893 054c 0346     		mov	r3, r0
 894 054e 0C46     		mov	r4, r1
 895 0550 C7E90834 		strd	r3, [r7, #32]
 896              	.L58:
 179:../../source/src/kernel/OS_LIB/myMicroLIB.c **** 	                    while(r_val_l)
 897              		.loc 1 179 0
 898 0554 D7E90834 		ldrd	r3, [r7, #32]
 899 0558 2343     		orrs	r3, r3, r4
 900 055a ECD1     		bne	.L59
 183:../../source/src/kernel/OS_LIB/myMicroLIB.c **** 	                    } 
 184:../../source/src/kernel/OS_LIB/myMicroLIB.c **** 	                    res += count; 
 901              		.loc 1 184 0
 902 055c FB7E     		ldrb	r3, [r7, #27]	@ zero_extendqisi2
 903 055e 7A69     		ldr	r2, [r7, #20]
 904 0560 1344     		add	r3, r3, r2
 905 0562 7B61     		str	r3, [r7, #20]
 185:../../source/src/kernel/OS_LIB/myMicroLIB.c **** 	                    r_val_l = val_l;  
 906              		.loc 1 185 0
 907 0564 D7E90A34 		ldrd	r3, [r7, #40]
 908 0568 C7E90834 		strd	r3, [r7, #32]
 186:../../source/src/kernel/OS_LIB/myMicroLIB.c **** 	                    while(count)  
 909              		.loc 1 186 0
 910 056c 2DE0     		b	.L60
 911              	.L61:
 187:../../source/src/kernel/OS_LIB/myMicroLIB.c **** 	                    {   
 188:../../source/src/kernel/OS_LIB/myMicroLIB.c **** 	                          ch = r_val_l / ka_pow(10,count - 1);  
 912              		.loc 1 188 0
 913 056e FB7E     		ldrb	r3, [r7, #27]	@ zero_extendqisi2
 914 0570 013B     		subs	r3, r3, #1
 915 0572 1946     		mov	r1, r3
 916 0574 0A20     		movs	r0, #10
 917 0576 FFF7FEFF 		bl	ka_pow
 918 057a 0346     		mov	r3, r0
 919 057c 4FF00004 		mov	r4, #0
 920 0580 1A46     		mov	r2, r3
 921 0582 2346     		mov	r3, r4
 922 0584 D7E90801 		ldrd	r0, [r7, #32]
 923 0588 FFF7FEFF 		bl	__aeabi_ldivmod
 924              	.LVL9:
 925 058c 0346     		mov	r3, r0
 926 058e 0C46     		mov	r4, r1
 927 0590 FB72     		strb	r3, [r7, #11]
 189:../../source/src/kernel/OS_LIB/myMicroLIB.c **** 	                          r_val_l %= ka_pow(10,count - 1); 
 928              		.loc 1 189 0
 929 0592 FB7E     		ldrb	r3, [r7, #27]	@ zero_extendqisi2
 930 0594 013B     		subs	r3, r3, #1
 931 0596 1946     		mov	r1, r3
 932 0598 0A20     		movs	r0, #10
ARM GAS  G:\Users\Jaxb\AppData\Local\Temp\cc904ymL.s 			page 21


 933 059a FFF7FEFF 		bl	ka_pow
 934 059e 0346     		mov	r3, r0
 935 05a0 4FF00004 		mov	r4, #0
 936 05a4 D7E90801 		ldrd	r0, [r7, #32]
 937 05a8 1A46     		mov	r2, r3
 938 05aa 2346     		mov	r3, r4
 939 05ac FFF7FEFF 		bl	__aeabi_ldivmod
 940              	.LVL10:
 941 05b0 1C46     		mov	r4, r3
 942 05b2 1346     		mov	r3, r2
 943 05b4 C7E90834 		strd	r3, [r7, #32]
 190:../../source/src/kernel/OS_LIB/myMicroLIB.c **** 	                          ka_putchar(ch + '0');
 944              		.loc 1 190 0
 945 05b8 FB7A     		ldrb	r3, [r7, #11]
 946 05ba 3033     		adds	r3, r3, #48
 947 05bc DBB2     		uxtb	r3, r3
 948 05be 1846     		mov	r0, r3
 949 05c0 FFF7FEFF 		bl	ka_putchar
 191:../../source/src/kernel/OS_LIB/myMicroLIB.c **** 	                          count--;  
 950              		.loc 1 191 0
 951 05c4 FB7E     		ldrb	r3, [r7, #27]	@ zero_extendqisi2
 952 05c6 013B     		subs	r3, r3, #1
 953 05c8 FB76     		strb	r3, [r7, #27]
 954              	.L60:
 186:../../source/src/kernel/OS_LIB/myMicroLIB.c **** 	                    {   
 955              		.loc 1 186 0
 956 05ca FB7E     		ldrb	r3, [r7, #27]	@ zero_extendqisi2
 957 05cc 002B     		cmp	r3, #0
 958 05ce CED1     		bne	.L61
 192:../../source/src/kernel/OS_LIB/myMicroLIB.c **** 	                    }  
 193:../../source/src/kernel/OS_LIB/myMicroLIB.c **** 	                    break; 
 959              		.loc 1 193 0
 960 05d0 27E1     		b	.L39
 961              	.L91:
 962 05d2 00BF     		.align	2
 963              	.L90:
 964 05d4 67666666 		.word	1717986919
 965 05d8 00002440 		.word	1076101120
 966 05dc 00000000 		.word	.LC0
 967              	.L36:
 194:../../source/src/kernel/OS_LIB/myMicroLIB.c **** 
 195:../../source/src/kernel/OS_LIB/myMicroLIB.c **** 	                case 'u': // decimal
 196:../../source/src/kernel/OS_LIB/myMicroLIB.c **** 				 		val1 = va_arg(ap,unsigned int);  
 968              		.loc 1 196 0
 969 05e0 3B68     		ldr	r3, [r7]
 970 05e2 1A1D     		adds	r2, r3, #4
 971 05e4 3A60     		str	r2, [r7]
 972 05e6 1B68     		ldr	r3, [r3]
 973 05e8 7B60     		str	r3, [r7, #4]
 197:../../source/src/kernel/OS_LIB/myMicroLIB.c **** 				 		if(0 == val1) 
 974              		.loc 1 197 0
 975 05ea 7B68     		ldr	r3, [r7, #4]
 976 05ec 002B     		cmp	r3, #0
 977 05ee 03D1     		bne	.L62
 198:../../source/src/kernel/OS_LIB/myMicroLIB.c **** 				 		{
 199:../../source/src/kernel/OS_LIB/myMicroLIB.c **** 				 			ka_putchar('0');
 978              		.loc 1 199 0
ARM GAS  G:\Users\Jaxb\AppData\Local\Temp\cc904ymL.s 			page 22


 979 05f0 3020     		movs	r0, #48
 980 05f2 FFF7FEFF 		bl	ka_putchar
 200:../../source/src/kernel/OS_LIB/myMicroLIB.c **** 				 			break;
 981              		.loc 1 200 0
 982 05f6 14E1     		b	.L39
 983              	.L62:
 201:../../source/src/kernel/OS_LIB/myMicroLIB.c **** 				 		} 
 202:../../source/src/kernel/OS_LIB/myMicroLIB.c **** 	                    r_val1 = val1;   
 984              		.loc 1 202 0
 985 05f8 7B68     		ldr	r3, [r7, #4]
 986 05fa FB61     		str	r3, [r7, #28]
 203:../../source/src/kernel/OS_LIB/myMicroLIB.c **** 	                    count = 0;
 987              		.loc 1 203 0
 988 05fc 0023     		movs	r3, #0
 989 05fe FB76     		strb	r3, [r7, #27]
 204:../../source/src/kernel/OS_LIB/myMicroLIB.c **** 	                    while(r_val1)
 990              		.loc 1 204 0
 991 0600 08E0     		b	.L63
 992              	.L64:
 205:../../source/src/kernel/OS_LIB/myMicroLIB.c **** 	                    {   
 206:../../source/src/kernel/OS_LIB/myMicroLIB.c **** 	                         count++;
 993              		.loc 1 206 0
 994 0602 FB7E     		ldrb	r3, [r7, #27]	@ zero_extendqisi2
 995 0604 0133     		adds	r3, r3, #1
 996 0606 FB76     		strb	r3, [r7, #27]
 207:../../source/src/kernel/OS_LIB/myMicroLIB.c **** 	                         r_val1 /= 10;  
 997              		.loc 1 207 0
 998 0608 FB69     		ldr	r3, [r7, #28]
 999 060a 974A     		ldr	r2, .L92
 1000 060c A2FB0323 		umull	r2, r3, r2, r3
 1001 0610 DB08     		lsrs	r3, r3, #3
 1002 0612 FB61     		str	r3, [r7, #28]
 1003              	.L63:
 204:../../source/src/kernel/OS_LIB/myMicroLIB.c **** 	                    while(r_val1)
 1004              		.loc 1 204 0
 1005 0614 FB69     		ldr	r3, [r7, #28]
 1006 0616 002B     		cmp	r3, #0
 1007 0618 F3D1     		bne	.L64
 208:../../source/src/kernel/OS_LIB/myMicroLIB.c **** 	                    } 
 209:../../source/src/kernel/OS_LIB/myMicroLIB.c **** 	                    res += count; 
 1008              		.loc 1 209 0
 1009 061a FB7E     		ldrb	r3, [r7, #27]	@ zero_extendqisi2
 1010 061c 7A69     		ldr	r2, [r7, #20]
 1011 061e 1344     		add	r3, r3, r2
 1012 0620 7B61     		str	r3, [r7, #20]
 210:../../source/src/kernel/OS_LIB/myMicroLIB.c **** 	                    r_val1 = val1;  
 1013              		.loc 1 210 0
 1014 0622 7B68     		ldr	r3, [r7, #4]
 1015 0624 FB61     		str	r3, [r7, #28]
 211:../../source/src/kernel/OS_LIB/myMicroLIB.c **** 	                    while(count)  
 1016              		.loc 1 211 0
 1017 0626 21E0     		b	.L65
 1018              	.L66:
 212:../../source/src/kernel/OS_LIB/myMicroLIB.c **** 	                    {   
 213:../../source/src/kernel/OS_LIB/myMicroLIB.c **** 	                          ch = r_val1 / ka_pow(10,count - 1);  
 1019              		.loc 1 213 0
 1020 0628 FB7E     		ldrb	r3, [r7, #27]	@ zero_extendqisi2
ARM GAS  G:\Users\Jaxb\AppData\Local\Temp\cc904ymL.s 			page 23


 1021 062a 013B     		subs	r3, r3, #1
 1022 062c 1946     		mov	r1, r3
 1023 062e 0A20     		movs	r0, #10
 1024 0630 FFF7FEFF 		bl	ka_pow
 1025 0634 0246     		mov	r2, r0
 1026 0636 FB69     		ldr	r3, [r7, #28]
 1027 0638 B3FBF2F3 		udiv	r3, r3, r2
 1028 063c FB72     		strb	r3, [r7, #11]
 214:../../source/src/kernel/OS_LIB/myMicroLIB.c **** 	                          r_val1 %= ka_pow(10,count - 1); 
 1029              		.loc 1 214 0
 1030 063e FB7E     		ldrb	r3, [r7, #27]	@ zero_extendqisi2
 1031 0640 013B     		subs	r3, r3, #1
 1032 0642 1946     		mov	r1, r3
 1033 0644 0A20     		movs	r0, #10
 1034 0646 FFF7FEFF 		bl	ka_pow
 1035 064a 0246     		mov	r2, r0
 1036 064c FB69     		ldr	r3, [r7, #28]
 1037 064e B3FBF2F1 		udiv	r1, r3, r2
 1038 0652 02FB01F2 		mul	r2, r2, r1
 1039 0656 9B1A     		subs	r3, r3, r2
 1040 0658 FB61     		str	r3, [r7, #28]
 215:../../source/src/kernel/OS_LIB/myMicroLIB.c **** 	                          ka_putchar(ch + '0');
 1041              		.loc 1 215 0
 1042 065a FB7A     		ldrb	r3, [r7, #11]
 1043 065c 3033     		adds	r3, r3, #48
 1044 065e DBB2     		uxtb	r3, r3
 1045 0660 1846     		mov	r0, r3
 1046 0662 FFF7FEFF 		bl	ka_putchar
 216:../../source/src/kernel/OS_LIB/myMicroLIB.c **** 	                          count--;  
 1047              		.loc 1 216 0
 1048 0666 FB7E     		ldrb	r3, [r7, #27]	@ zero_extendqisi2
 1049 0668 013B     		subs	r3, r3, #1
 1050 066a FB76     		strb	r3, [r7, #27]
 1051              	.L65:
 211:../../source/src/kernel/OS_LIB/myMicroLIB.c **** 	                    {   
 1052              		.loc 1 211 0
 1053 066c FB7E     		ldrb	r3, [r7, #27]	@ zero_extendqisi2
 1054 066e 002B     		cmp	r3, #0
 1055 0670 DAD1     		bne	.L66
 217:../../source/src/kernel/OS_LIB/myMicroLIB.c **** 	                    }  
 218:../../source/src/kernel/OS_LIB/myMicroLIB.c **** 	                    break; 
 1056              		.loc 1 218 0
 1057 0672 D6E0     		b	.L39
 1058              	.L37:
 219:../../source/src/kernel/OS_LIB/myMicroLIB.c **** 
 220:../../source/src/kernel/OS_LIB/myMicroLIB.c **** 
 221:../../source/src/kernel/OS_LIB/myMicroLIB.c **** 	                case 'x': // hexadecimal
 222:../../source/src/kernel/OS_LIB/myMicroLIB.c **** 	                 	val = va_arg(ap, int); 
 1059              		.loc 1 222 0
 1060 0674 3B68     		ldr	r3, [r7]
 1061 0676 1A1D     		adds	r2, r3, #4
 1062 0678 3A60     		str	r2, [r7]
 1063 067a 1B68     		ldr	r3, [r3]
 1064 067c FB63     		str	r3, [r7, #60]
 223:../../source/src/kernel/OS_LIB/myMicroLIB.c **** 	                 	if(0 == val) 
 1065              		.loc 1 223 0
 1066 067e FB6B     		ldr	r3, [r7, #60]
ARM GAS  G:\Users\Jaxb\AppData\Local\Temp\cc904ymL.s 			page 24


 1067 0680 002B     		cmp	r3, #0
 1068 0682 03D1     		bne	.L67
 224:../../source/src/kernel/OS_LIB/myMicroLIB.c **** 				 		{
 225:../../source/src/kernel/OS_LIB/myMicroLIB.c **** 				 			ka_puts("0x00");
 1069              		.loc 1 225 0
 1070 0684 7948     		ldr	r0, .L92+4
 1071 0686 FFF7FEFF 		bl	ka_puts
 226:../../source/src/kernel/OS_LIB/myMicroLIB.c **** 				 			break;
 1072              		.loc 1 226 0
 1073 068a CAE0     		b	.L39
 1074              	.L67:
 227:../../source/src/kernel/OS_LIB/myMicroLIB.c **** 				 		} 
 228:../../source/src/kernel/OS_LIB/myMicroLIB.c **** 	                    r_val = val;   
 1075              		.loc 1 228 0
 1076 068c FB6B     		ldr	r3, [r7, #60]
 1077 068e BB63     		str	r3, [r7, #56]
 229:../../source/src/kernel/OS_LIB/myMicroLIB.c **** 	                    count = 0;  
 1078              		.loc 1 229 0
 1079 0690 0023     		movs	r3, #0
 1080 0692 FB76     		strb	r3, [r7, #27]
 230:../../source/src/kernel/OS_LIB/myMicroLIB.c **** 	                    while(r_val)  
 1081              		.loc 1 230 0
 1082 0694 08E0     		b	.L68
 1083              	.L70:
 231:../../source/src/kernel/OS_LIB/myMicroLIB.c **** 	                    {   
 232:../../source/src/kernel/OS_LIB/myMicroLIB.c **** 	                         count++; //   
 1084              		.loc 1 232 0
 1085 0696 FB7E     		ldrb	r3, [r7, #27]	@ zero_extendqisi2
 1086 0698 0133     		adds	r3, r3, #1
 1087 069a FB76     		strb	r3, [r7, #27]
 233:../../source/src/kernel/OS_LIB/myMicroLIB.c **** 	                         r_val /= 16;   
 1088              		.loc 1 233 0
 1089 069c BB6B     		ldr	r3, [r7, #56]
 1090 069e 002B     		cmp	r3, #0
 1091 06a0 00DA     		bge	.L69
 1092 06a2 0F33     		adds	r3, r3, #15
 1093              	.L69:
 1094 06a4 1B11     		asrs	r3, r3, #4
 1095 06a6 BB63     		str	r3, [r7, #56]
 1096              	.L68:
 230:../../source/src/kernel/OS_LIB/myMicroLIB.c **** 	                    while(r_val)  
 1097              		.loc 1 230 0
 1098 06a8 BB6B     		ldr	r3, [r7, #56]
 1099 06aa 002B     		cmp	r3, #0
 1100 06ac F3D1     		bne	.L70
 234:../../source/src/kernel/OS_LIB/myMicroLIB.c **** 	                    }
 235:../../source/src/kernel/OS_LIB/myMicroLIB.c **** 	                    res += count;//   
 1101              		.loc 1 235 0
 1102 06ae FB7E     		ldrb	r3, [r7, #27]	@ zero_extendqisi2
 1103 06b0 7A69     		ldr	r2, [r7, #20]
 1104 06b2 1344     		add	r3, r3, r2
 1105 06b4 7B61     		str	r3, [r7, #20]
 236:../../source/src/kernel/OS_LIB/myMicroLIB.c **** 	                    r_val = val; 
 1106              		.loc 1 236 0
 1107 06b6 FB6B     		ldr	r3, [r7, #60]
 1108 06b8 BB63     		str	r3, [r7, #56]
 237:../../source/src/kernel/OS_LIB/myMicroLIB.c **** 	                    while(count)   
ARM GAS  G:\Users\Jaxb\AppData\Local\Temp\cc904ymL.s 			page 25


 1109              		.loc 1 237 0
 1110 06ba 2BE0     		b	.L71
 1111              	.L74:
 238:../../source/src/kernel/OS_LIB/myMicroLIB.c **** 	                    {   
 239:../../source/src/kernel/OS_LIB/myMicroLIB.c **** 	                        ch = r_val / ka_pow(16, count - 1);   
 1112              		.loc 1 239 0
 1113 06bc BC6B     		ldr	r4, [r7, #56]
 1114 06be FB7E     		ldrb	r3, [r7, #27]	@ zero_extendqisi2
 1115 06c0 013B     		subs	r3, r3, #1
 1116 06c2 1946     		mov	r1, r3
 1117 06c4 1020     		movs	r0, #16
 1118 06c6 FFF7FEFF 		bl	ka_pow
 1119 06ca 0346     		mov	r3, r0
 1120 06cc B4FBF3F3 		udiv	r3, r4, r3
 1121 06d0 FB72     		strb	r3, [r7, #11]
 240:../../source/src/kernel/OS_LIB/myMicroLIB.c **** 	                        r_val %= ka_pow(16, count - 1);  
 1122              		.loc 1 240 0
 1123 06d2 FB7E     		ldrb	r3, [r7, #27]	@ zero_extendqisi2
 1124 06d4 013B     		subs	r3, r3, #1
 1125 06d6 1946     		mov	r1, r3
 1126 06d8 1020     		movs	r0, #16
 1127 06da FFF7FEFF 		bl	ka_pow
 1128 06de 0246     		mov	r2, r0
 1129 06e0 BB6B     		ldr	r3, [r7, #56]
 1130 06e2 B3FBF2F1 		udiv	r1, r3, r2
 1131 06e6 02FB01F2 		mul	r2, r2, r1
 1132 06ea 9B1A     		subs	r3, r3, r2
 1133 06ec BB63     		str	r3, [r7, #56]
 241:../../source/src/kernel/OS_LIB/myMicroLIB.c **** 	                        if(ch <= 9) 
 1134              		.loc 1 241 0
 1135 06ee FB7A     		ldrb	r3, [r7, #11]	@ zero_extendqisi2
 1136 06f0 092B     		cmp	r3, #9
 1137 06f2 06D8     		bhi	.L72
 242:../../source/src/kernel/OS_LIB/myMicroLIB.c **** 	                            ka_putchar(ch + '0');
 1138              		.loc 1 242 0
 1139 06f4 FB7A     		ldrb	r3, [r7, #11]
 1140 06f6 3033     		adds	r3, r3, #48
 1141 06f8 DBB2     		uxtb	r3, r3
 1142 06fa 1846     		mov	r0, r3
 1143 06fc FFF7FEFF 		bl	ka_putchar
 1144 0700 05E0     		b	.L73
 1145              	.L72:
 243:../../source/src/kernel/OS_LIB/myMicroLIB.c **** 	                        else   
 244:../../source/src/kernel/OS_LIB/myMicroLIB.c **** 	                            ka_putchar(ch - 10 + 'a');
 1146              		.loc 1 244 0
 1147 0702 FB7A     		ldrb	r3, [r7, #11]
 1148 0704 5733     		adds	r3, r3, #87
 1149 0706 DBB2     		uxtb	r3, r3
 1150 0708 1846     		mov	r0, r3
 1151 070a FFF7FEFF 		bl	ka_putchar
 1152              	.L73:
 245:../../source/src/kernel/OS_LIB/myMicroLIB.c **** 	                        count--;  
 1153              		.loc 1 245 0
 1154 070e FB7E     		ldrb	r3, [r7, #27]	@ zero_extendqisi2
 1155 0710 013B     		subs	r3, r3, #1
 1156 0712 FB76     		strb	r3, [r7, #27]
 1157              	.L71:
ARM GAS  G:\Users\Jaxb\AppData\Local\Temp\cc904ymL.s 			page 26


 237:../../source/src/kernel/OS_LIB/myMicroLIB.c **** 	                    {   
 1158              		.loc 1 237 0
 1159 0714 FB7E     		ldrb	r3, [r7, #27]	@ zero_extendqisi2
 1160 0716 002B     		cmp	r3, #0
 1161 0718 D0D1     		bne	.L74
 246:../../source/src/kernel/OS_LIB/myMicroLIB.c **** 	                    }
 247:../../source/src/kernel/OS_LIB/myMicroLIB.c **** 	                    break;
 1162              		.loc 1 247 0
 1163 071a 82E0     		b	.L39
 1164              	.L35:
 248:../../source/src/kernel/OS_LIB/myMicroLIB.c **** 
 249:../../source/src/kernel/OS_LIB/myMicroLIB.c **** 
 250:../../source/src/kernel/OS_LIB/myMicroLIB.c **** 	                case 's': // string
 251:../../source/src/kernel/OS_LIB/myMicroLIB.c **** 	                    s = va_arg(ap, char *);   
 1165              		.loc 1 251 0
 1166 071c 3B68     		ldr	r3, [r7]
 1167 071e 1A1D     		adds	r2, r3, #4
 1168 0720 3A60     		str	r2, [r7]
 1169 0722 1B68     		ldr	r3, [r3]
 1170 0724 FB60     		str	r3, [r7, #12]
 252:../../source/src/kernel/OS_LIB/myMicroLIB.c **** 	                    m_putstr(s);  
 1171              		.loc 1 252 0
 1172 0726 F868     		ldr	r0, [r7, #12]
 1173 0728 FFF782FC 		bl	m_putstr
 253:../../source/src/kernel/OS_LIB/myMicroLIB.c **** 	                    res += ka_strlen(s);  
 1174              		.loc 1 253 0
 1175 072c F868     		ldr	r0, [r7, #12]
 1176 072e FFF7FEFF 		bl	ka_strlen
 1177 0732 0246     		mov	r2, r0
 1178 0734 7B69     		ldr	r3, [r7, #20]
 1179 0736 1344     		add	r3, r3, r2
 1180 0738 7B61     		str	r3, [r7, #20]
 254:../../source/src/kernel/OS_LIB/myMicroLIB.c **** 	                  	break;
 1181              		.loc 1 254 0
 1182 073a 72E0     		b	.L39
 1183              	.L30:
 255:../../source/src/kernel/OS_LIB/myMicroLIB.c **** 
 256:../../source/src/kernel/OS_LIB/myMicroLIB.c **** 
 257:../../source/src/kernel/OS_LIB/myMicroLIB.c **** 	                case 'c': // char 
 258:../../source/src/kernel/OS_LIB/myMicroLIB.c **** 	                    ka_putchar( (char)va_arg(ap, int )); 
 1184              		.loc 1 258 0
 1185 073c 3B68     		ldr	r3, [r7]
 1186 073e 1A1D     		adds	r2, r3, #4
 1187 0740 3A60     		str	r2, [r7]
 1188 0742 1B68     		ldr	r3, [r3]
 1189 0744 DBB2     		uxtb	r3, r3
 1190 0746 1846     		mov	r0, r3
 1191 0748 FFF7FEFF 		bl	ka_putchar
 259:../../source/src/kernel/OS_LIB/myMicroLIB.c **** 	                    res += 1;  
 1192              		.loc 1 259 0
 1193 074c 7B69     		ldr	r3, [r7, #20]
 1194 074e 0133     		adds	r3, r3, #1
 1195 0750 7B61     		str	r3, [r7, #20]
 260:../../source/src/kernel/OS_LIB/myMicroLIB.c **** 	                    break; 
 1196              		.loc 1 260 0
 1197 0752 66E0     		b	.L39
 1198              	.L28:
ARM GAS  G:\Users\Jaxb\AppData\Local\Temp\cc904ymL.s 			page 27


 261:../../source/src/kernel/OS_LIB/myMicroLIB.c **** 
 262:../../source/src/kernel/OS_LIB/myMicroLIB.c **** 	                case '%':
 263:../../source/src/kernel/OS_LIB/myMicroLIB.c **** 	                	ka_putchar('%');
 1199              		.loc 1 263 0
 1200 0754 2520     		movs	r0, #37
 1201 0756 FFF7FEFF 		bl	ka_putchar
 264:../../source/src/kernel/OS_LIB/myMicroLIB.c **** 	                	res += 1;  
 1202              		.loc 1 264 0
 1203 075a 7B69     		ldr	r3, [r7, #20]
 1204 075c 0133     		adds	r3, r3, #1
 1205 075e 7B61     		str	r3, [r7, #20]
 265:../../source/src/kernel/OS_LIB/myMicroLIB.c **** 	                    break;
 1206              		.loc 1 265 0
 1207 0760 5FE0     		b	.L39
 1208              	.L34:
 266:../../source/src/kernel/OS_LIB/myMicroLIB.c **** 
 267:../../source/src/kernel/OS_LIB/myMicroLIB.c **** 	                case 'p': //pointer
 268:../../source/src/kernel/OS_LIB/myMicroLIB.c **** 	                	val = va_arg(ap, int);   
 1209              		.loc 1 268 0
 1210 0762 3B68     		ldr	r3, [r7]
 1211 0764 1A1D     		adds	r2, r3, #4
 1212 0766 3A60     		str	r2, [r7]
 1213 0768 1B68     		ldr	r3, [r3]
 1214 076a FB63     		str	r3, [r7, #60]
 269:../../source/src/kernel/OS_LIB/myMicroLIB.c **** 	                    r_val = val;   
 1215              		.loc 1 269 0
 1216 076c FB6B     		ldr	r3, [r7, #60]
 1217 076e BB63     		str	r3, [r7, #56]
 270:../../source/src/kernel/OS_LIB/myMicroLIB.c **** 	                    count = 0;  
 1218              		.loc 1 270 0
 1219 0770 0023     		movs	r3, #0
 1220 0772 FB76     		strb	r3, [r7, #27]
 271:../../source/src/kernel/OS_LIB/myMicroLIB.c **** 	                    while(r_val)  
 1221              		.loc 1 271 0
 1222 0774 08E0     		b	.L75
 1223              	.L77:
 272:../../source/src/kernel/OS_LIB/myMicroLIB.c **** 	                    {   
 273:../../source/src/kernel/OS_LIB/myMicroLIB.c **** 	                         count++; //   
 1224              		.loc 1 273 0
 1225 0776 FB7E     		ldrb	r3, [r7, #27]	@ zero_extendqisi2
 1226 0778 0133     		adds	r3, r3, #1
 1227 077a FB76     		strb	r3, [r7, #27]
 274:../../source/src/kernel/OS_LIB/myMicroLIB.c **** 	                         r_val /= 16;   
 1228              		.loc 1 274 0
 1229 077c BB6B     		ldr	r3, [r7, #56]
 1230 077e 002B     		cmp	r3, #0
 1231 0780 00DA     		bge	.L76
 1232 0782 0F33     		adds	r3, r3, #15
 1233              	.L76:
 1234 0784 1B11     		asrs	r3, r3, #4
 1235 0786 BB63     		str	r3, [r7, #56]
 1236              	.L75:
 271:../../source/src/kernel/OS_LIB/myMicroLIB.c **** 	                    while(r_val)  
 1237              		.loc 1 271 0
 1238 0788 BB6B     		ldr	r3, [r7, #56]
 1239 078a 002B     		cmp	r3, #0
 1240 078c F3D1     		bne	.L77
ARM GAS  G:\Users\Jaxb\AppData\Local\Temp\cc904ymL.s 			page 28


 275:../../source/src/kernel/OS_LIB/myMicroLIB.c **** 	                    }
 276:../../source/src/kernel/OS_LIB/myMicroLIB.c **** 	                    res += count;//   
 1241              		.loc 1 276 0
 1242 078e FB7E     		ldrb	r3, [r7, #27]	@ zero_extendqisi2
 1243 0790 7A69     		ldr	r2, [r7, #20]
 1244 0792 1344     		add	r3, r3, r2
 1245 0794 7B61     		str	r3, [r7, #20]
 277:../../source/src/kernel/OS_LIB/myMicroLIB.c **** 	                    r_val = val;
 1246              		.loc 1 277 0
 1247 0796 FB6B     		ldr	r3, [r7, #60]
 1248 0798 BB63     		str	r3, [r7, #56]
 278:../../source/src/kernel/OS_LIB/myMicroLIB.c **** 	                    buffer = 8-count;
 1249              		.loc 1 278 0
 1250 079a FB7E     		ldrb	r3, [r7, #27]	@ zero_extendqisi2
 1251 079c C3F10803 		rsb	r3, r3, #8
 1252 07a0 3B61     		str	r3, [r7, #16]
 279:../../source/src/kernel/OS_LIB/myMicroLIB.c **** 	                    while(buffer--)
 1253              		.loc 1 279 0
 1254 07a2 02E0     		b	.L78
 1255              	.L79:
 280:../../source/src/kernel/OS_LIB/myMicroLIB.c **** 	                    {
 281:../../source/src/kernel/OS_LIB/myMicroLIB.c **** 	                    	ka_putchar('0');
 1256              		.loc 1 281 0
 1257 07a4 3020     		movs	r0, #48
 1258 07a6 FFF7FEFF 		bl	ka_putchar
 1259              	.L78:
 279:../../source/src/kernel/OS_LIB/myMicroLIB.c **** 	                    while(buffer--)
 1260              		.loc 1 279 0
 1261 07aa 3B69     		ldr	r3, [r7, #16]
 1262 07ac 5A1E     		subs	r2, r3, #1
 1263 07ae 3A61     		str	r2, [r7, #16]
 1264 07b0 002B     		cmp	r3, #0
 1265 07b2 F7D1     		bne	.L79
 282:../../source/src/kernel/OS_LIB/myMicroLIB.c **** 	                    }
 283:../../source/src/kernel/OS_LIB/myMicroLIB.c **** 	                    while(count)   
 1266              		.loc 1 283 0
 1267 07b4 2BE0     		b	.L80
 1268              	.L83:
 284:../../source/src/kernel/OS_LIB/myMicroLIB.c **** 	                    {   
 285:../../source/src/kernel/OS_LIB/myMicroLIB.c **** 	                        ch = r_val / ka_pow(16, count - 1);   
 1269              		.loc 1 285 0
 1270 07b6 BC6B     		ldr	r4, [r7, #56]
 1271 07b8 FB7E     		ldrb	r3, [r7, #27]	@ zero_extendqisi2
 1272 07ba 013B     		subs	r3, r3, #1
 1273 07bc 1946     		mov	r1, r3
 1274 07be 1020     		movs	r0, #16
 1275 07c0 FFF7FEFF 		bl	ka_pow
 1276 07c4 0346     		mov	r3, r0
 1277 07c6 B4FBF3F3 		udiv	r3, r4, r3
 1278 07ca FB72     		strb	r3, [r7, #11]
 286:../../source/src/kernel/OS_LIB/myMicroLIB.c **** 	                        r_val %= ka_pow(16, count - 1);  
 1279              		.loc 1 286 0
 1280 07cc FB7E     		ldrb	r3, [r7, #27]	@ zero_extendqisi2
 1281 07ce 013B     		subs	r3, r3, #1
 1282 07d0 1946     		mov	r1, r3
 1283 07d2 1020     		movs	r0, #16
 1284 07d4 FFF7FEFF 		bl	ka_pow
ARM GAS  G:\Users\Jaxb\AppData\Local\Temp\cc904ymL.s 			page 29


 1285 07d8 0246     		mov	r2, r0
 1286 07da BB6B     		ldr	r3, [r7, #56]
 1287 07dc B3FBF2F1 		udiv	r1, r3, r2
 1288 07e0 02FB01F2 		mul	r2, r2, r1
 1289 07e4 9B1A     		subs	r3, r3, r2
 1290 07e6 BB63     		str	r3, [r7, #56]
 287:../../source/src/kernel/OS_LIB/myMicroLIB.c **** 	                        if(ch <= 9) 
 1291              		.loc 1 287 0
 1292 07e8 FB7A     		ldrb	r3, [r7, #11]	@ zero_extendqisi2
 1293 07ea 092B     		cmp	r3, #9
 1294 07ec 06D8     		bhi	.L81
 288:../../source/src/kernel/OS_LIB/myMicroLIB.c **** 	                            ka_putchar(ch + '0');
 1295              		.loc 1 288 0
 1296 07ee FB7A     		ldrb	r3, [r7, #11]
 1297 07f0 3033     		adds	r3, r3, #48
 1298 07f2 DBB2     		uxtb	r3, r3
 1299 07f4 1846     		mov	r0, r3
 1300 07f6 FFF7FEFF 		bl	ka_putchar
 1301 07fa 05E0     		b	.L82
 1302              	.L81:
 289:../../source/src/kernel/OS_LIB/myMicroLIB.c **** 	                        else   
 290:../../source/src/kernel/OS_LIB/myMicroLIB.c **** 	                            ka_putchar(ch - 10 + 'a');
 1303              		.loc 1 290 0
 1304 07fc FB7A     		ldrb	r3, [r7, #11]
 1305 07fe 5733     		adds	r3, r3, #87
 1306 0800 DBB2     		uxtb	r3, r3
 1307 0802 1846     		mov	r0, r3
 1308 0804 FFF7FEFF 		bl	ka_putchar
 1309              	.L82:
 291:../../source/src/kernel/OS_LIB/myMicroLIB.c **** 	                        count--;  
 1310              		.loc 1 291 0
 1311 0808 FB7E     		ldrb	r3, [r7, #27]	@ zero_extendqisi2
 1312 080a 013B     		subs	r3, r3, #1
 1313 080c FB76     		strb	r3, [r7, #27]
 1314              	.L80:
 283:../../source/src/kernel/OS_LIB/myMicroLIB.c **** 	                    {   
 1315              		.loc 1 283 0
 1316 080e FB7E     		ldrb	r3, [r7, #27]	@ zero_extendqisi2
 1317 0810 002B     		cmp	r3, #0
 1318 0812 D0D1     		bne	.L83
 292:../../source/src/kernel/OS_LIB/myMicroLIB.c **** 	                    }
 293:../../source/src/kernel/OS_LIB/myMicroLIB.c **** 	                    break;
 1319              		.loc 1 293 0
 1320 0814 05E0     		b	.L39
 1321              	.L87:
 294:../../source/src/kernel/OS_LIB/myMicroLIB.c **** 
 295:../../source/src/kernel/OS_LIB/myMicroLIB.c **** 	                default :
 296:../../source/src/kernel/OS_LIB/myMicroLIB.c **** 	                	ASSERT(0);
 1322              		.loc 1 296 0 discriminator 1
 1323 0816 4FF49471 		mov	r1, #296
 1324 081a 1548     		ldr	r0, .L92+8
 1325 081c FFF7FEFF 		bl	_ASSERT
 297:../../source/src/kernel/OS_LIB/myMicroLIB.c **** 	                    	;
 298:../../source/src/kernel/OS_LIB/myMicroLIB.c **** 				}
 299:../../source/src/kernel/OS_LIB/myMicroLIB.c **** 				break ;
 1326              		.loc 1 299 0 discriminator 1
 1327 0820 12E0     		b	.L84
ARM GAS  G:\Users\Jaxb\AppData\Local\Temp\cc904ymL.s 			page 30


 1328              	.L39:
 1329 0822 11E0     		b	.L84
 1330              	.L25:
 300:../../source/src/kernel/OS_LIB/myMicroLIB.c **** 
 301:../../source/src/kernel/OS_LIB/myMicroLIB.c **** 			case '\n':  
 302:../../source/src/kernel/OS_LIB/myMicroLIB.c **** 					ka_putchar('\r');
 1331              		.loc 1 302 0
 1332 0824 0D20     		movs	r0, #13
 1333 0826 FFF7FEFF 		bl	ka_putchar
 303:../../source/src/kernel/OS_LIB/myMicroLIB.c **** 	                ka_putchar('\n');   
 1334              		.loc 1 303 0
 1335 082a 0A20     		movs	r0, #10
 1336 082c FFF7FEFF 		bl	ka_putchar
 304:../../source/src/kernel/OS_LIB/myMicroLIB.c **** 	                res += 1;
 1337              		.loc 1 304 0
 1338 0830 7B69     		ldr	r3, [r7, #20]
 1339 0832 0133     		adds	r3, r3, #1
 1340 0834 7B61     		str	r3, [r7, #20]
 305:../../source/src/kernel/OS_LIB/myMicroLIB.c **** 	                break;
 1341              		.loc 1 305 0
 1342 0836 07E0     		b	.L84
 1343              	.L89:
 306:../../source/src/kernel/OS_LIB/myMicroLIB.c **** 
 307:../../source/src/kernel/OS_LIB/myMicroLIB.c **** 	        default :
 308:../../source/src/kernel/OS_LIB/myMicroLIB.c **** 	            	ka_putchar(*str);
 1344              		.loc 1 308 0
 1345 0838 3B6D     		ldr	r3, [r7, #80]
 1346 083a 1B78     		ldrb	r3, [r3]	@ zero_extendqisi2
 1347 083c 1846     		mov	r0, r3
 1348 083e FFF7FEFF 		bl	ka_putchar
 309:../../source/src/kernel/OS_LIB/myMicroLIB.c **** 	            	res += 1;
 1349              		.loc 1 309 0
 1350 0842 7B69     		ldr	r3, [r7, #20]
 1351 0844 0133     		adds	r3, r3, #1
 1352 0846 7B61     		str	r3, [r7, #20]
 1353              	.L84:
 310:../../source/src/kernel/OS_LIB/myMicroLIB.c **** 		}
 311:../../source/src/kernel/OS_LIB/myMicroLIB.c **** 		++str;
 1354              		.loc 1 311 0
 1355 0848 3B6D     		ldr	r3, [r7, #80]
 1356 084a 0133     		adds	r3, r3, #1
 1357 084c 3B65     		str	r3, [r7, #80]
 1358              	.L23:
  84:../../source/src/kernel/OS_LIB/myMicroLIB.c **** 	{
 1359              		.loc 1 84 0
 1360 084e 3B6D     		ldr	r3, [r7, #80]
 1361 0850 1B78     		ldrb	r3, [r3]	@ zero_extendqisi2
 1362 0852 002B     		cmp	r3, #0
 1363 0854 7FF47DAC 		bne	.L85
 312:../../source/src/kernel/OS_LIB/myMicroLIB.c **** 	}
 313:../../source/src/kernel/OS_LIB/myMicroLIB.c **** 	va_end(ap);  
 314:../../source/src/kernel/OS_LIB/myMicroLIB.c ****     return res;	
 1364              		.loc 1 314 0
 1365 0858 7B69     		ldr	r3, [r7, #20]
 315:../../source/src/kernel/OS_LIB/myMicroLIB.c **** }
 1366              		.loc 1 315 0
 1367 085a 1846     		mov	r0, r3
ARM GAS  G:\Users\Jaxb\AppData\Local\Temp\cc904ymL.s 			page 31


 1368 085c 4437     		adds	r7, r7, #68
 1369              	.LCFI32:
 1370              		.cfi_def_cfa_offset 28
 1371 085e BD46     		mov	sp, r7
 1372              	.LCFI33:
 1373              		.cfi_def_cfa_register 13
 1374              		@ sp needed
 1375 0860 BDE89040 		pop	{r4, r7, lr}
 1376              	.LCFI34:
 1377              		.cfi_restore 14
 1378              		.cfi_restore 7
 1379              		.cfi_restore 4
 1380              		.cfi_def_cfa_offset 16
 1381 0864 04B0     		add	sp, sp, #16
 1382              	.LCFI35:
 1383              		.cfi_restore 3
 1384              		.cfi_restore 2
 1385              		.cfi_restore 1
 1386              		.cfi_restore 0
 1387              		.cfi_def_cfa_offset 0
 1388 0866 7047     		bx	lr
 1389              	.L93:
 1390              		.align	2
 1391              	.L92:
 1392 0868 CDCCCCCC 		.word	-858993459
 1393 086c 2C000000 		.word	.LC1
 1394 0870 00000000 		.word	.LC0
 1395              		.cfi_endproc
 1396              	.LFE34:
 1397              		.size	ka_printf, .-ka_printf
 1398              		.global	__rtmsym_ka_printf_name
 1399              		.section	.rodata.name,"a",%progbits
 1400              		.align	2
 1401              		.type	__rtmsym_ka_printf_name, %object
 1402              		.size	__rtmsym_ka_printf_name, 10
 1403              	__rtmsym_ka_printf_name:
 1404 0000 6B615F70 		.ascii	"ka_printf\000"
 1404      72696E74 
 1404      6600
 1405              		.global	__rtmsym_ka_printf
 1406              		.section	.RTMSymTab,"a",%progbits
 1407              		.align	2
 1408              		.type	__rtmsym_ka_printf, %object
 1409              		.size	__rtmsym_ka_printf, 8
 1410              	__rtmsym_ka_printf:
 1411 0000 00000000 		.word	ka_printf
 1412 0004 00000000 		.word	__rtmsym_ka_printf_name
 1413              		.text
 1414              		.align	1
 1415              		.global	ka_strncmp
 1416              		.syntax unified
 1417              		.thumb
 1418              		.thumb_func
 1419              		.fpu softvfp
 1420              		.type	ka_strncmp, %function
 1421              	ka_strncmp:
 1422              	.LFB35:
ARM GAS  G:\Users\Jaxb\AppData\Local\Temp\cc904ymL.s 			page 32


 316:../../source/src/kernel/OS_LIB/myMicroLIB.c **** EXPORT_SYMBOL(ka_printf);
 317:../../source/src/kernel/OS_LIB/myMicroLIB.c **** 
 318:../../source/src/kernel/OS_LIB/myMicroLIB.c **** int ka_strncmp(const char * str1, const char * str2, int num)
 319:../../source/src/kernel/OS_LIB/myMicroLIB.c **** {
 1423              		.loc 1 319 0
 1424              		.cfi_startproc
 1425              		@ args = 0, pretend = 0, frame = 16
 1426              		@ frame_needed = 1, uses_anonymous_args = 0
 1427              		@ link register save eliminated.
 1428 0874 80B4     		push	{r7}
 1429              	.LCFI36:
 1430              		.cfi_def_cfa_offset 4
 1431              		.cfi_offset 7, -4
 1432 0876 85B0     		sub	sp, sp, #20
 1433              	.LCFI37:
 1434              		.cfi_def_cfa_offset 24
 1435 0878 00AF     		add	r7, sp, #0
 1436              	.LCFI38:
 1437              		.cfi_def_cfa_register 7
 1438 087a F860     		str	r0, [r7, #12]
 1439 087c B960     		str	r1, [r7, #8]
 1440 087e 7A60     		str	r2, [r7, #4]
 320:../../source/src/kernel/OS_LIB/myMicroLIB.c **** 	if(0 == num)
 1441              		.loc 1 320 0
 1442 0880 7B68     		ldr	r3, [r7, #4]
 1443 0882 002B     		cmp	r3, #0
 1444 0884 13D1     		bne	.L97
 321:../../source/src/kernel/OS_LIB/myMicroLIB.c **** 	{
 322:../../source/src/kernel/OS_LIB/myMicroLIB.c **** 		return 0;
 1445              		.loc 1 322 0
 1446 0886 0023     		movs	r3, #0
 1447 0888 1DE0     		b	.L96
 1448              	.L100:
 323:../../source/src/kernel/OS_LIB/myMicroLIB.c **** 	}
 324:../../source/src/kernel/OS_LIB/myMicroLIB.c **** 	while(*str1 == *str2)
 325:../../source/src/kernel/OS_LIB/myMicroLIB.c **** 	{
 326:../../source/src/kernel/OS_LIB/myMicroLIB.c **** 		if((0 == --num) || ('\0' == *str1))
 1449              		.loc 1 326 0
 1450 088a 7B68     		ldr	r3, [r7, #4]
 1451 088c 013B     		subs	r3, r3, #1
 1452 088e 7B60     		str	r3, [r7, #4]
 1453 0890 7B68     		ldr	r3, [r7, #4]
 1454 0892 002B     		cmp	r3, #0
 1455 0894 03D0     		beq	.L98
 1456              		.loc 1 326 0 is_stmt 0 discriminator 1
 1457 0896 FB68     		ldr	r3, [r7, #12]
 1458 0898 1B78     		ldrb	r3, [r3]	@ zero_extendqisi2
 1459 089a 002B     		cmp	r3, #0
 1460 089c 01D1     		bne	.L99
 1461              	.L98:
 327:../../source/src/kernel/OS_LIB/myMicroLIB.c **** 		{
 328:../../source/src/kernel/OS_LIB/myMicroLIB.c **** 			return 0;
 1462              		.loc 1 328 0 is_stmt 1
 1463 089e 0023     		movs	r3, #0
 1464 08a0 11E0     		b	.L96
 1465              	.L99:
 329:../../source/src/kernel/OS_LIB/myMicroLIB.c **** 		}
ARM GAS  G:\Users\Jaxb\AppData\Local\Temp\cc904ymL.s 			page 33


 330:../../source/src/kernel/OS_LIB/myMicroLIB.c **** 		++str1;
 1466              		.loc 1 330 0
 1467 08a2 FB68     		ldr	r3, [r7, #12]
 1468 08a4 0133     		adds	r3, r3, #1
 1469 08a6 FB60     		str	r3, [r7, #12]
 331:../../source/src/kernel/OS_LIB/myMicroLIB.c **** 		++str2;
 1470              		.loc 1 331 0
 1471 08a8 BB68     		ldr	r3, [r7, #8]
 1472 08aa 0133     		adds	r3, r3, #1
 1473 08ac BB60     		str	r3, [r7, #8]
 1474              	.L97:
 324:../../source/src/kernel/OS_LIB/myMicroLIB.c **** 	{
 1475              		.loc 1 324 0
 1476 08ae FB68     		ldr	r3, [r7, #12]
 1477 08b0 1A78     		ldrb	r2, [r3]	@ zero_extendqisi2
 1478 08b2 BB68     		ldr	r3, [r7, #8]
 1479 08b4 1B78     		ldrb	r3, [r3]	@ zero_extendqisi2
 1480 08b6 9A42     		cmp	r2, r3
 1481 08b8 E7D0     		beq	.L100
 332:../../source/src/kernel/OS_LIB/myMicroLIB.c **** 	}
 333:../../source/src/kernel/OS_LIB/myMicroLIB.c **** 	return *str1 - *str2;
 1482              		.loc 1 333 0
 1483 08ba FB68     		ldr	r3, [r7, #12]
 1484 08bc 1B78     		ldrb	r3, [r3]	@ zero_extendqisi2
 1485 08be 1A46     		mov	r2, r3
 1486 08c0 BB68     		ldr	r3, [r7, #8]
 1487 08c2 1B78     		ldrb	r3, [r3]	@ zero_extendqisi2
 1488 08c4 D31A     		subs	r3, r2, r3
 1489              	.L96:
 334:../../source/src/kernel/OS_LIB/myMicroLIB.c **** }
 1490              		.loc 1 334 0
 1491 08c6 1846     		mov	r0, r3
 1492 08c8 1437     		adds	r7, r7, #20
 1493              	.LCFI39:
 1494              		.cfi_def_cfa_offset 4
 1495 08ca BD46     		mov	sp, r7
 1496              	.LCFI40:
 1497              		.cfi_def_cfa_register 13
 1498              		@ sp needed
 1499 08cc 80BC     		pop	{r7}
 1500              	.LCFI41:
 1501              		.cfi_restore 7
 1502              		.cfi_def_cfa_offset 0
 1503 08ce 7047     		bx	lr
 1504              		.cfi_endproc
 1505              	.LFE35:
 1506              		.size	ka_strncmp, .-ka_strncmp
 1507              		.align	1
 1508              		.global	ka_memset
 1509              		.syntax unified
 1510              		.thumb
 1511              		.thumb_func
 1512              		.fpu softvfp
 1513              		.type	ka_memset, %function
 1514              	ka_memset:
 1515              	.LFB36:
 335:../../source/src/kernel/OS_LIB/myMicroLIB.c **** 
ARM GAS  G:\Users\Jaxb\AppData\Local\Temp\cc904ymL.s 			page 34


 336:../../source/src/kernel/OS_LIB/myMicroLIB.c **** void ka_memset(void *s,const int ch, int n)
 337:../../source/src/kernel/OS_LIB/myMicroLIB.c **** {
 1516              		.loc 1 337 0
 1517              		.cfi_startproc
 1518              		@ args = 0, pretend = 0, frame = 24
 1519              		@ frame_needed = 1, uses_anonymous_args = 0
 1520              		@ link register save eliminated.
 1521 08d0 80B4     		push	{r7}
 1522              	.LCFI42:
 1523              		.cfi_def_cfa_offset 4
 1524              		.cfi_offset 7, -4
 1525 08d2 87B0     		sub	sp, sp, #28
 1526              	.LCFI43:
 1527              		.cfi_def_cfa_offset 32
 1528 08d4 00AF     		add	r7, sp, #0
 1529              	.LCFI44:
 1530              		.cfi_def_cfa_register 7
 1531 08d6 F860     		str	r0, [r7, #12]
 1532 08d8 B960     		str	r1, [r7, #8]
 1533 08da 7A60     		str	r2, [r7, #4]
 338:../../source/src/kernel/OS_LIB/myMicroLIB.c **** 	char *ptr = (char *)s;
 1534              		.loc 1 338 0
 1535 08dc FB68     		ldr	r3, [r7, #12]
 1536 08de 7B61     		str	r3, [r7, #20]
 339:../../source/src/kernel/OS_LIB/myMicroLIB.c **** 	const char buffer = (char)ch;
 1537              		.loc 1 339 0
 1538 08e0 BB68     		ldr	r3, [r7, #8]
 1539 08e2 FB74     		strb	r3, [r7, #19]
 340:../../source/src/kernel/OS_LIB/myMicroLIB.c **** 	while(n--)
 1540              		.loc 1 340 0
 1541 08e4 04E0     		b	.L102
 1542              	.L103:
 341:../../source/src/kernel/OS_LIB/myMicroLIB.c **** 	{
 342:../../source/src/kernel/OS_LIB/myMicroLIB.c **** 		*ptr++ = buffer;
 1543              		.loc 1 342 0
 1544 08e6 7B69     		ldr	r3, [r7, #20]
 1545 08e8 5A1C     		adds	r2, r3, #1
 1546 08ea 7A61     		str	r2, [r7, #20]
 1547 08ec FA7C     		ldrb	r2, [r7, #19]
 1548 08ee 1A70     		strb	r2, [r3]
 1549              	.L102:
 340:../../source/src/kernel/OS_LIB/myMicroLIB.c **** 	while(n--)
 1550              		.loc 1 340 0
 1551 08f0 7B68     		ldr	r3, [r7, #4]
 1552 08f2 5A1E     		subs	r2, r3, #1
 1553 08f4 7A60     		str	r2, [r7, #4]
 1554 08f6 002B     		cmp	r3, #0
 1555 08f8 F5D1     		bne	.L103
 343:../../source/src/kernel/OS_LIB/myMicroLIB.c **** 	}
 344:../../source/src/kernel/OS_LIB/myMicroLIB.c **** }
 1556              		.loc 1 344 0
 1557 08fa 00BF     		nop
 1558 08fc 1C37     		adds	r7, r7, #28
 1559              	.LCFI45:
 1560              		.cfi_def_cfa_offset 4
 1561 08fe BD46     		mov	sp, r7
 1562              	.LCFI46:
ARM GAS  G:\Users\Jaxb\AppData\Local\Temp\cc904ymL.s 			page 35


 1563              		.cfi_def_cfa_register 13
 1564              		@ sp needed
 1565 0900 80BC     		pop	{r7}
 1566              	.LCFI47:
 1567              		.cfi_restore 7
 1568              		.cfi_def_cfa_offset 0
 1569 0902 7047     		bx	lr
 1570              		.cfi_endproc
 1571              	.LFE36:
 1572              		.size	ka_memset, .-ka_memset
 1573              		.align	1
 1574              		.global	ka_strcpy
 1575              		.syntax unified
 1576              		.thumb
 1577              		.thumb_func
 1578              		.fpu softvfp
 1579              		.type	ka_strcpy, %function
 1580              	ka_strcpy:
 1581              	.LFB37:
 345:../../source/src/kernel/OS_LIB/myMicroLIB.c **** 
 346:../../source/src/kernel/OS_LIB/myMicroLIB.c **** void ka_strcpy(char *strDest, const char *strSrc)
 347:../../source/src/kernel/OS_LIB/myMicroLIB.c **** {
 1582              		.loc 1 347 0
 1583              		.cfi_startproc
 1584              		@ args = 0, pretend = 0, frame = 8
 1585              		@ frame_needed = 1, uses_anonymous_args = 0
 1586              		@ link register save eliminated.
 1587 0904 80B4     		push	{r7}
 1588              	.LCFI48:
 1589              		.cfi_def_cfa_offset 4
 1590              		.cfi_offset 7, -4
 1591 0906 83B0     		sub	sp, sp, #12
 1592              	.LCFI49:
 1593              		.cfi_def_cfa_offset 16
 1594 0908 00AF     		add	r7, sp, #0
 1595              	.LCFI50:
 1596              		.cfi_def_cfa_register 7
 1597 090a 7860     		str	r0, [r7, #4]
 1598 090c 3960     		str	r1, [r7]
 348:../../source/src/kernel/OS_LIB/myMicroLIB.c **** 	if(!(strDest && strSrc))
 1599              		.loc 1 348 0
 1600 090e 7B68     		ldr	r3, [r7, #4]
 1601 0910 002B     		cmp	r3, #0
 1602 0912 0FD0     		beq	.L109
 1603              		.loc 1 348 0 is_stmt 0 discriminator 1
 1604 0914 3B68     		ldr	r3, [r7]
 1605 0916 002B     		cmp	r3, #0
 1606 0918 0CD0     		beq	.L109
 349:../../source/src/kernel/OS_LIB/myMicroLIB.c **** 		return;
 350:../../source/src/kernel/OS_LIB/myMicroLIB.c **** 	//while((*strDest++ = *strSrc++));
 351:../../source/src/kernel/OS_LIB/myMicroLIB.c **** 	while((*strDest++ = *strSrc++));
 1607              		.loc 1 351 0 is_stmt 1
 1608 091a 00BF     		nop
 1609              	.L108:
 1610              		.loc 1 351 0 is_stmt 0 discriminator 1
 1611 091c 3A68     		ldr	r2, [r7]
 1612 091e 531C     		adds	r3, r2, #1
ARM GAS  G:\Users\Jaxb\AppData\Local\Temp\cc904ymL.s 			page 36


 1613 0920 3B60     		str	r3, [r7]
 1614 0922 7B68     		ldr	r3, [r7, #4]
 1615 0924 591C     		adds	r1, r3, #1
 1616 0926 7960     		str	r1, [r7, #4]
 1617 0928 1278     		ldrb	r2, [r2]	@ zero_extendqisi2
 1618 092a 1A70     		strb	r2, [r3]
 1619 092c 1B78     		ldrb	r3, [r3]	@ zero_extendqisi2
 1620 092e 002B     		cmp	r3, #0
 1621 0930 F4D1     		bne	.L108
 1622 0932 00E0     		b	.L104
 1623              	.L109:
 349:../../source/src/kernel/OS_LIB/myMicroLIB.c **** 		return;
 1624              		.loc 1 349 0 is_stmt 1
 1625 0934 00BF     		nop
 1626              	.L104:
 352:../../source/src/kernel/OS_LIB/myMicroLIB.c **** }
 1627              		.loc 1 352 0
 1628 0936 0C37     		adds	r7, r7, #12
 1629              	.LCFI51:
 1630              		.cfi_def_cfa_offset 4
 1631 0938 BD46     		mov	sp, r7
 1632              	.LCFI52:
 1633              		.cfi_def_cfa_register 13
 1634              		@ sp needed
 1635 093a 80BC     		pop	{r7}
 1636              	.LCFI53:
 1637              		.cfi_restore 7
 1638              		.cfi_def_cfa_offset 0
 1639 093c 7047     		bx	lr
 1640              		.cfi_endproc
 1641              	.LFE37:
 1642              		.size	ka_strcpy, .-ka_strcpy
 1643              		.align	1
 1644              		.global	ka_atoi
 1645              		.syntax unified
 1646              		.thumb
 1647              		.thumb_func
 1648              		.fpu softvfp
 1649              		.type	ka_atoi, %function
 1650              	ka_atoi:
 1651              	.LFB38:
 353:../../source/src/kernel/OS_LIB/myMicroLIB.c **** 
 354:../../source/src/kernel/OS_LIB/myMicroLIB.c **** int ka_atoi(const char *char_ptr)
 355:../../source/src/kernel/OS_LIB/myMicroLIB.c **** {
 1652              		.loc 1 355 0
 1653              		.cfi_startproc
 1654              		@ args = 0, pretend = 0, frame = 16
 1655              		@ frame_needed = 1, uses_anonymous_args = 0
 1656              		@ link register save eliminated.
 1657 093e 80B4     		push	{r7}
 1658              	.LCFI54:
 1659              		.cfi_def_cfa_offset 4
 1660              		.cfi_offset 7, -4
 1661 0940 85B0     		sub	sp, sp, #20
 1662              	.LCFI55:
 1663              		.cfi_def_cfa_offset 24
 1664 0942 00AF     		add	r7, sp, #0
ARM GAS  G:\Users\Jaxb\AppData\Local\Temp\cc904ymL.s 			page 37


 1665              	.LCFI56:
 1666              		.cfi_def_cfa_register 7
 1667 0944 7860     		str	r0, [r7, #4]
 356:../../source/src/kernel/OS_LIB/myMicroLIB.c **** 	int num = 0;
 1668              		.loc 1 356 0
 1669 0946 0023     		movs	r3, #0
 1670 0948 FB60     		str	r3, [r7, #12]
 357:../../source/src/kernel/OS_LIB/myMicroLIB.c **** 	int sign = 1;
 1671              		.loc 1 357 0
 1672 094a 0123     		movs	r3, #1
 1673 094c BB60     		str	r3, [r7, #8]
 358:../../source/src/kernel/OS_LIB/myMicroLIB.c **** 	if(NULL == char_ptr)
 1674              		.loc 1 358 0
 1675 094e 7B68     		ldr	r3, [r7, #4]
 1676 0950 002B     		cmp	r3, #0
 1677 0952 04D1     		bne	.L113
 359:../../source/src/kernel/OS_LIB/myMicroLIB.c **** 	{
 360:../../source/src/kernel/OS_LIB/myMicroLIB.c **** 		return 0;
 1678              		.loc 1 360 0
 1679 0954 0023     		movs	r3, #0
 1680 0956 33E0     		b	.L112
 1681              	.L114:
 361:../../source/src/kernel/OS_LIB/myMicroLIB.c **** 	}
 362:../../source/src/kernel/OS_LIB/myMicroLIB.c **** 	while(' ' == *char_ptr)
 363:../../source/src/kernel/OS_LIB/myMicroLIB.c **** 	{
 364:../../source/src/kernel/OS_LIB/myMicroLIB.c **** 		++char_ptr;
 1682              		.loc 1 364 0
 1683 0958 7B68     		ldr	r3, [r7, #4]
 1684 095a 0133     		adds	r3, r3, #1
 1685 095c 7B60     		str	r3, [r7, #4]
 1686              	.L113:
 362:../../source/src/kernel/OS_LIB/myMicroLIB.c **** 	{
 1687              		.loc 1 362 0
 1688 095e 7B68     		ldr	r3, [r7, #4]
 1689 0960 1B78     		ldrb	r3, [r3]	@ zero_extendqisi2
 1690 0962 202B     		cmp	r3, #32
 1691 0964 F8D0     		beq	.L114
 365:../../source/src/kernel/OS_LIB/myMicroLIB.c **** 	}
 366:../../source/src/kernel/OS_LIB/myMicroLIB.c **** 	if('-' == *char_ptr)
 1692              		.loc 1 366 0
 1693 0966 7B68     		ldr	r3, [r7, #4]
 1694 0968 1B78     		ldrb	r3, [r3]	@ zero_extendqisi2
 1695 096a 2D2B     		cmp	r3, #45
 1696 096c 02D1     		bne	.L115
 367:../../source/src/kernel/OS_LIB/myMicroLIB.c **** 	{
 368:../../source/src/kernel/OS_LIB/myMicroLIB.c **** 		sign = -1;
 1697              		.loc 1 368 0
 1698 096e 4FF0FF33 		mov	r3, #-1
 1699 0972 BB60     		str	r3, [r7, #8]
 1700              	.L115:
 369:../../source/src/kernel/OS_LIB/myMicroLIB.c **** 	}
 370:../../source/src/kernel/OS_LIB/myMicroLIB.c **** 	if(('-' == *char_ptr) || ('+' == *char_ptr))
 1701              		.loc 1 370 0
 1702 0974 7B68     		ldr	r3, [r7, #4]
 1703 0976 1B78     		ldrb	r3, [r3]	@ zero_extendqisi2
 1704 0978 2D2B     		cmp	r3, #45
 1705 097a 03D0     		beq	.L116
ARM GAS  G:\Users\Jaxb\AppData\Local\Temp\cc904ymL.s 			page 38


 1706              		.loc 1 370 0 is_stmt 0 discriminator 1
 1707 097c 7B68     		ldr	r3, [r7, #4]
 1708 097e 1B78     		ldrb	r3, [r3]	@ zero_extendqisi2
 1709 0980 2B2B     		cmp	r3, #43
 1710 0982 11D1     		bne	.L118
 1711              	.L116:
 371:../../source/src/kernel/OS_LIB/myMicroLIB.c **** 	{
 372:../../source/src/kernel/OS_LIB/myMicroLIB.c **** 		++char_ptr;
 1712              		.loc 1 372 0 is_stmt 1
 1713 0984 7B68     		ldr	r3, [r7, #4]
 1714 0986 0133     		adds	r3, r3, #1
 1715 0988 7B60     		str	r3, [r7, #4]
 373:../../source/src/kernel/OS_LIB/myMicroLIB.c **** 	}
 374:../../source/src/kernel/OS_LIB/myMicroLIB.c **** 	while(IS_NUM(*char_ptr))
 1716              		.loc 1 374 0
 1717 098a 0DE0     		b	.L118
 1718              	.L120:
 375:../../source/src/kernel/OS_LIB/myMicroLIB.c **** 	{
 376:../../source/src/kernel/OS_LIB/myMicroLIB.c **** 		num = 10 * num + *char_ptr - '0';
 1719              		.loc 1 376 0
 1720 098c FA68     		ldr	r2, [r7, #12]
 1721 098e 1346     		mov	r3, r2
 1722 0990 9B00     		lsls	r3, r3, #2
 1723 0992 1344     		add	r3, r3, r2
 1724 0994 5B00     		lsls	r3, r3, #1
 1725 0996 1A46     		mov	r2, r3
 1726 0998 7B68     		ldr	r3, [r7, #4]
 1727 099a 1B78     		ldrb	r3, [r3]	@ zero_extendqisi2
 1728 099c 1344     		add	r3, r3, r2
 1729 099e 303B     		subs	r3, r3, #48
 1730 09a0 FB60     		str	r3, [r7, #12]
 377:../../source/src/kernel/OS_LIB/myMicroLIB.c **** 		++char_ptr;
 1731              		.loc 1 377 0
 1732 09a2 7B68     		ldr	r3, [r7, #4]
 1733 09a4 0133     		adds	r3, r3, #1
 1734 09a6 7B60     		str	r3, [r7, #4]
 1735              	.L118:
 374:../../source/src/kernel/OS_LIB/myMicroLIB.c **** 	{
 1736              		.loc 1 374 0
 1737 09a8 7B68     		ldr	r3, [r7, #4]
 1738 09aa 1B78     		ldrb	r3, [r3]	@ zero_extendqisi2
 1739 09ac 2F2B     		cmp	r3, #47
 1740 09ae 03D9     		bls	.L119
 374:../../source/src/kernel/OS_LIB/myMicroLIB.c **** 	{
 1741              		.loc 1 374 0 is_stmt 0 discriminator 1
 1742 09b0 7B68     		ldr	r3, [r7, #4]
 1743 09b2 1B78     		ldrb	r3, [r3]	@ zero_extendqisi2
 1744 09b4 392B     		cmp	r3, #57
 1745 09b6 E9D9     		bls	.L120
 1746              	.L119:
 378:../../source/src/kernel/OS_LIB/myMicroLIB.c **** 	}
 379:../../source/src/kernel/OS_LIB/myMicroLIB.c **** 	return (sign*num);
 1747              		.loc 1 379 0 is_stmt 1
 1748 09b8 BB68     		ldr	r3, [r7, #8]
 1749 09ba FA68     		ldr	r2, [r7, #12]
 1750 09bc 02FB03F3 		mul	r3, r2, r3
 1751              	.L112:
ARM GAS  G:\Users\Jaxb\AppData\Local\Temp\cc904ymL.s 			page 39


 380:../../source/src/kernel/OS_LIB/myMicroLIB.c **** }
 1752              		.loc 1 380 0
 1753 09c0 1846     		mov	r0, r3
 1754 09c2 1437     		adds	r7, r7, #20
 1755              	.LCFI57:
 1756              		.cfi_def_cfa_offset 4
 1757 09c4 BD46     		mov	sp, r7
 1758              	.LCFI58:
 1759              		.cfi_def_cfa_register 13
 1760              		@ sp needed
 1761 09c6 80BC     		pop	{r7}
 1762              	.LCFI59:
 1763              		.cfi_restore 7
 1764              		.cfi_def_cfa_offset 0
 1765 09c8 7047     		bx	lr
 1766              		.cfi_endproc
 1767              	.LFE38:
 1768              		.size	ka_atoi, .-ka_atoi
 1769              		.global	__aeabi_dadd
 1770              		.global	__aeabi_ddiv
 1771              		.align	1
 1772              		.global	ka_atof
 1773              		.syntax unified
 1774              		.thumb
 1775              		.thumb_func
 1776              		.fpu softvfp
 1777              		.type	ka_atof, %function
 1778              	ka_atof:
 1779              	.LFB39:
 381:../../source/src/kernel/OS_LIB/myMicroLIB.c **** 
 382:../../source/src/kernel/OS_LIB/myMicroLIB.c **** double ka_atof(const char *char_ptr)
 383:../../source/src/kernel/OS_LIB/myMicroLIB.c **** {
 1780              		.loc 1 383 0
 1781              		.cfi_startproc
 1782              		@ args = 0, pretend = 0, frame = 32
 1783              		@ frame_needed = 1, uses_anonymous_args = 0
 1784 09ca B0B5     		push	{r4, r5, r7, lr}
 1785              	.LCFI60:
 1786              		.cfi_def_cfa_offset 16
 1787              		.cfi_offset 4, -16
 1788              		.cfi_offset 5, -12
 1789              		.cfi_offset 7, -8
 1790              		.cfi_offset 14, -4
 1791 09cc 88B0     		sub	sp, sp, #32
 1792              	.LCFI61:
 1793              		.cfi_def_cfa_offset 48
 1794 09ce 00AF     		add	r7, sp, #0
 1795              	.LCFI62:
 1796              		.cfi_def_cfa_register 7
 1797 09d0 7860     		str	r0, [r7, #4]
 384:../../source/src/kernel/OS_LIB/myMicroLIB.c **** 	double num = 0.0;
 1798              		.loc 1 384 0
 1799 09d2 4FF00003 		mov	r3, #0
 1800 09d6 4FF00004 		mov	r4, #0
 1801 09da C7E90634 		strd	r3, [r7, #24]
 385:../../source/src/kernel/OS_LIB/myMicroLIB.c **** 	int sign = 1;
 1802              		.loc 1 385 0
ARM GAS  G:\Users\Jaxb\AppData\Local\Temp\cc904ymL.s 			page 40


 1803 09de 0123     		movs	r3, #1
 1804 09e0 7B61     		str	r3, [r7, #20]
 386:../../source/src/kernel/OS_LIB/myMicroLIB.c **** 	double divisor = 10.0;
 1805              		.loc 1 386 0
 1806 09e2 4FF00003 		mov	r3, #0
 1807 09e6 4F4C     		ldr	r4, .L136
 1808 09e8 C7E90234 		strd	r3, [r7, #8]
 387:../../source/src/kernel/OS_LIB/myMicroLIB.c **** 	if(NULL == char_ptr)
 1809              		.loc 1 387 0
 1810 09ec 7B68     		ldr	r3, [r7, #4]
 1811 09ee 002B     		cmp	r3, #0
 1812 09f0 07D1     		bne	.L124
 388:../../source/src/kernel/OS_LIB/myMicroLIB.c **** 	{
 389:../../source/src/kernel/OS_LIB/myMicroLIB.c **** 		return 0.0;
 1813              		.loc 1 389 0
 1814 09f2 4FF00003 		mov	r3, #0
 1815 09f6 4FF00004 		mov	r4, #0
 1816 09fa 8DE0     		b	.L123
 1817              	.L125:
 390:../../source/src/kernel/OS_LIB/myMicroLIB.c **** 	}
 391:../../source/src/kernel/OS_LIB/myMicroLIB.c **** 	while(' ' == *char_ptr)
 392:../../source/src/kernel/OS_LIB/myMicroLIB.c **** 	{
 393:../../source/src/kernel/OS_LIB/myMicroLIB.c **** 		++char_ptr;
 1818              		.loc 1 393 0
 1819 09fc 7B68     		ldr	r3, [r7, #4]
 1820 09fe 0133     		adds	r3, r3, #1
 1821 0a00 7B60     		str	r3, [r7, #4]
 1822              	.L124:
 391:../../source/src/kernel/OS_LIB/myMicroLIB.c **** 	{
 1823              		.loc 1 391 0
 1824 0a02 7B68     		ldr	r3, [r7, #4]
 1825 0a04 1B78     		ldrb	r3, [r3]	@ zero_extendqisi2
 1826 0a06 202B     		cmp	r3, #32
 1827 0a08 F8D0     		beq	.L125
 394:../../source/src/kernel/OS_LIB/myMicroLIB.c **** 	}
 395:../../source/src/kernel/OS_LIB/myMicroLIB.c **** 	if('-' == *char_ptr)
 1828              		.loc 1 395 0
 1829 0a0a 7B68     		ldr	r3, [r7, #4]
 1830 0a0c 1B78     		ldrb	r3, [r3]	@ zero_extendqisi2
 1831 0a0e 2D2B     		cmp	r3, #45
 1832 0a10 02D1     		bne	.L126
 396:../../source/src/kernel/OS_LIB/myMicroLIB.c **** 	{
 397:../../source/src/kernel/OS_LIB/myMicroLIB.c **** 		sign = -1;
 1833              		.loc 1 397 0
 1834 0a12 4FF0FF33 		mov	r3, #-1
 1835 0a16 7B61     		str	r3, [r7, #20]
 1836              	.L126:
 398:../../source/src/kernel/OS_LIB/myMicroLIB.c **** 	}
 399:../../source/src/kernel/OS_LIB/myMicroLIB.c **** 	if(('-' == *char_ptr) || ('+' == *char_ptr))
 1837              		.loc 1 399 0
 1838 0a18 7B68     		ldr	r3, [r7, #4]
 1839 0a1a 1B78     		ldrb	r3, [r3]	@ zero_extendqisi2
 1840 0a1c 2D2B     		cmp	r3, #45
 1841 0a1e 03D0     		beq	.L127
 1842              		.loc 1 399 0 is_stmt 0 discriminator 1
 1843 0a20 7B68     		ldr	r3, [r7, #4]
 1844 0a22 1B78     		ldrb	r3, [r3]	@ zero_extendqisi2
ARM GAS  G:\Users\Jaxb\AppData\Local\Temp\cc904ymL.s 			page 41


 1845 0a24 2B2B     		cmp	r3, #43
 1846 0a26 28D1     		bne	.L129
 1847              	.L127:
 400:../../source/src/kernel/OS_LIB/myMicroLIB.c **** 	{
 401:../../source/src/kernel/OS_LIB/myMicroLIB.c **** 		++char_ptr;
 1848              		.loc 1 401 0 is_stmt 1
 1849 0a28 7B68     		ldr	r3, [r7, #4]
 1850 0a2a 0133     		adds	r3, r3, #1
 1851 0a2c 7B60     		str	r3, [r7, #4]
 402:../../source/src/kernel/OS_LIB/myMicroLIB.c **** 	}
 403:../../source/src/kernel/OS_LIB/myMicroLIB.c **** 	while(IS_NUM(*char_ptr))
 1852              		.loc 1 403 0
 1853 0a2e 24E0     		b	.L129
 1854              	.L131:
 404:../../source/src/kernel/OS_LIB/myMicroLIB.c **** 	{
 405:../../source/src/kernel/OS_LIB/myMicroLIB.c **** 		num = divisor * num + *char_ptr - '0';
 1855              		.loc 1 405 0
 1856 0a30 D7E90623 		ldrd	r2, [r7, #24]
 1857 0a34 D7E90201 		ldrd	r0, [r7, #8]
 1858 0a38 FFF7FEFF 		bl	__aeabi_dmul
 1859              	.LVL11:
 1860 0a3c 0346     		mov	r3, r0
 1861 0a3e 0C46     		mov	r4, r1
 1862 0a40 2546     		mov	r5, r4
 1863 0a42 1C46     		mov	r4, r3
 1864 0a44 7B68     		ldr	r3, [r7, #4]
 1865 0a46 1B78     		ldrb	r3, [r3]	@ zero_extendqisi2
 1866 0a48 1846     		mov	r0, r3
 1867 0a4a FFF7FEFF 		bl	__aeabi_i2d
 1868              	.LVL12:
 1869 0a4e 0246     		mov	r2, r0
 1870 0a50 0B46     		mov	r3, r1
 1871 0a52 2046     		mov	r0, r4
 1872 0a54 2946     		mov	r1, r5
 1873 0a56 FFF7FEFF 		bl	__aeabi_dadd
 1874              	.LVL13:
 1875 0a5a 0346     		mov	r3, r0
 1876 0a5c 0C46     		mov	r4, r1
 1877 0a5e 1846     		mov	r0, r3
 1878 0a60 2146     		mov	r1, r4
 1879 0a62 4FF00002 		mov	r2, #0
 1880 0a66 304B     		ldr	r3, .L136+4
 1881 0a68 FFF7FEFF 		bl	__aeabi_dsub
 1882              	.LVL14:
 1883 0a6c 0346     		mov	r3, r0
 1884 0a6e 0C46     		mov	r4, r1
 1885 0a70 C7E90634 		strd	r3, [r7, #24]
 406:../../source/src/kernel/OS_LIB/myMicroLIB.c **** 		++char_ptr;
 1886              		.loc 1 406 0
 1887 0a74 7B68     		ldr	r3, [r7, #4]
 1888 0a76 0133     		adds	r3, r3, #1
 1889 0a78 7B60     		str	r3, [r7, #4]
 1890              	.L129:
 403:../../source/src/kernel/OS_LIB/myMicroLIB.c **** 	{
 1891              		.loc 1 403 0
 1892 0a7a 7B68     		ldr	r3, [r7, #4]
 1893 0a7c 1B78     		ldrb	r3, [r3]	@ zero_extendqisi2
ARM GAS  G:\Users\Jaxb\AppData\Local\Temp\cc904ymL.s 			page 42


 1894 0a7e 2F2B     		cmp	r3, #47
 1895 0a80 03D9     		bls	.L130
 403:../../source/src/kernel/OS_LIB/myMicroLIB.c **** 	{
 1896              		.loc 1 403 0 is_stmt 0 discriminator 1
 1897 0a82 7B68     		ldr	r3, [r7, #4]
 1898 0a84 1B78     		ldrb	r3, [r3]	@ zero_extendqisi2
 1899 0a86 392B     		cmp	r3, #57
 1900 0a88 D2D9     		bls	.L131
 1901              	.L130:
 407:../../source/src/kernel/OS_LIB/myMicroLIB.c **** 	}
 408:../../source/src/kernel/OS_LIB/myMicroLIB.c **** 	if('.' != *char_ptr)
 1902              		.loc 1 408 0 is_stmt 1
 1903 0a8a 7B68     		ldr	r3, [r7, #4]
 1904 0a8c 1B78     		ldrb	r3, [r3]	@ zero_extendqisi2
 1905 0a8e 2E2B     		cmp	r3, #46
 1906 0a90 09D0     		beq	.L132
 409:../../source/src/kernel/OS_LIB/myMicroLIB.c **** 	{
 410:../../source/src/kernel/OS_LIB/myMicroLIB.c **** 		return (sign * num);
 1907              		.loc 1 410 0
 1908 0a92 7869     		ldr	r0, [r7, #20]
 1909 0a94 FFF7FEFF 		bl	__aeabi_i2d
 1910              	.LVL15:
 1911 0a98 D7E90623 		ldrd	r2, [r7, #24]
 1912 0a9c FFF7FEFF 		bl	__aeabi_dmul
 1913              	.LVL16:
 1914 0aa0 0346     		mov	r3, r0
 1915 0aa2 0C46     		mov	r4, r1
 1916 0aa4 38E0     		b	.L123
 1917              	.L132:
 411:../../source/src/kernel/OS_LIB/myMicroLIB.c **** 	}
 412:../../source/src/kernel/OS_LIB/myMicroLIB.c **** 	++char_ptr;
 1918              		.loc 1 412 0
 1919 0aa6 7B68     		ldr	r3, [r7, #4]
 1920 0aa8 0133     		adds	r3, r3, #1
 1921 0aaa 7B60     		str	r3, [r7, #4]
 413:../../source/src/kernel/OS_LIB/myMicroLIB.c **** 	while(IS_NUM(*char_ptr))
 1922              		.loc 1 413 0
 1923 0aac 23E0     		b	.L133
 1924              	.L135:
 414:../../source/src/kernel/OS_LIB/myMicroLIB.c **** 	{
 415:../../source/src/kernel/OS_LIB/myMicroLIB.c **** 		num += (double)(*char_ptr - '0') / divisor;
 1925              		.loc 1 415 0
 1926 0aae 7B68     		ldr	r3, [r7, #4]
 1927 0ab0 1B78     		ldrb	r3, [r3]	@ zero_extendqisi2
 1928 0ab2 303B     		subs	r3, r3, #48
 1929 0ab4 1846     		mov	r0, r3
 1930 0ab6 FFF7FEFF 		bl	__aeabi_i2d
 1931              	.LVL17:
 1932 0aba D7E90223 		ldrd	r2, [r7, #8]
 1933 0abe FFF7FEFF 		bl	__aeabi_ddiv
 1934              	.LVL18:
 1935 0ac2 0346     		mov	r3, r0
 1936 0ac4 0C46     		mov	r4, r1
 1937 0ac6 1A46     		mov	r2, r3
 1938 0ac8 2346     		mov	r3, r4
 1939 0aca D7E90601 		ldrd	r0, [r7, #24]
 1940 0ace FFF7FEFF 		bl	__aeabi_dadd
ARM GAS  G:\Users\Jaxb\AppData\Local\Temp\cc904ymL.s 			page 43


 1941              	.LVL19:
 1942 0ad2 0346     		mov	r3, r0
 1943 0ad4 0C46     		mov	r4, r1
 1944 0ad6 C7E90634 		strd	r3, [r7, #24]
 416:../../source/src/kernel/OS_LIB/myMicroLIB.c **** 		divisor *= 10.0;
 1945              		.loc 1 416 0
 1946 0ada 4FF00002 		mov	r2, #0
 1947 0ade 114B     		ldr	r3, .L136
 1948 0ae0 D7E90201 		ldrd	r0, [r7, #8]
 1949 0ae4 FFF7FEFF 		bl	__aeabi_dmul
 1950              	.LVL20:
 1951 0ae8 0346     		mov	r3, r0
 1952 0aea 0C46     		mov	r4, r1
 1953 0aec C7E90234 		strd	r3, [r7, #8]
 417:../../source/src/kernel/OS_LIB/myMicroLIB.c **** 		++char_ptr;
 1954              		.loc 1 417 0
 1955 0af0 7B68     		ldr	r3, [r7, #4]
 1956 0af2 0133     		adds	r3, r3, #1
 1957 0af4 7B60     		str	r3, [r7, #4]
 1958              	.L133:
 413:../../source/src/kernel/OS_LIB/myMicroLIB.c **** 	{
 1959              		.loc 1 413 0
 1960 0af6 7B68     		ldr	r3, [r7, #4]
 1961 0af8 1B78     		ldrb	r3, [r3]	@ zero_extendqisi2
 1962 0afa 2F2B     		cmp	r3, #47
 1963 0afc 03D9     		bls	.L134
 413:../../source/src/kernel/OS_LIB/myMicroLIB.c **** 	{
 1964              		.loc 1 413 0 is_stmt 0 discriminator 1
 1965 0afe 7B68     		ldr	r3, [r7, #4]
 1966 0b00 1B78     		ldrb	r3, [r3]	@ zero_extendqisi2
 1967 0b02 392B     		cmp	r3, #57
 1968 0b04 D3D9     		bls	.L135
 1969              	.L134:
 418:../../source/src/kernel/OS_LIB/myMicroLIB.c **** 	}
 419:../../source/src/kernel/OS_LIB/myMicroLIB.c **** 	return (sign * num);
 1970              		.loc 1 419 0 is_stmt 1
 1971 0b06 7869     		ldr	r0, [r7, #20]
 1972 0b08 FFF7FEFF 		bl	__aeabi_i2d
 1973              	.LVL21:
 1974 0b0c D7E90623 		ldrd	r2, [r7, #24]
 1975 0b10 FFF7FEFF 		bl	__aeabi_dmul
 1976              	.LVL22:
 1977 0b14 0346     		mov	r3, r0
 1978 0b16 0C46     		mov	r4, r1
 1979              	.L123:
 420:../../source/src/kernel/OS_LIB/myMicroLIB.c **** }
 1980              		.loc 1 420 0
 1981 0b18 1846     		mov	r0, r3
 1982 0b1a 2146     		mov	r1, r4
 1983 0b1c 2037     		adds	r7, r7, #32
 1984              	.LCFI63:
 1985              		.cfi_def_cfa_offset 16
 1986 0b1e BD46     		mov	sp, r7
 1987              	.LCFI64:
 1988              		.cfi_def_cfa_register 13
 1989              		@ sp needed
 1990 0b20 B0BD     		pop	{r4, r5, r7, pc}
ARM GAS  G:\Users\Jaxb\AppData\Local\Temp\cc904ymL.s 			page 44


 1991              	.L137:
 1992 0b22 00BF     		.align	2
 1993              	.L136:
 1994 0b24 00002440 		.word	1076101120
 1995 0b28 00004840 		.word	1078460416
 1996              		.cfi_endproc
 1997              	.LFE39:
 1998              		.size	ka_atof, .-ka_atof
 1999              		.align	1
 2000              		.global	ka_strcmp
 2001              		.syntax unified
 2002              		.thumb
 2003              		.thumb_func
 2004              		.fpu softvfp
 2005              		.type	ka_strcmp, %function
 2006              	ka_strcmp:
 2007              	.LFB40:
 421:../../source/src/kernel/OS_LIB/myMicroLIB.c **** 
 422:../../source/src/kernel/OS_LIB/myMicroLIB.c **** int ka_strcmp(const char * str1, const char * str2)
 423:../../source/src/kernel/OS_LIB/myMicroLIB.c **** {
 2008              		.loc 1 423 0
 2009              		.cfi_startproc
 2010              		@ args = 0, pretend = 0, frame = 8
 2011              		@ frame_needed = 1, uses_anonymous_args = 0
 2012              		@ link register save eliminated.
 2013 0b2c 80B4     		push	{r7}
 2014              	.LCFI65:
 2015              		.cfi_def_cfa_offset 4
 2016              		.cfi_offset 7, -4
 2017 0b2e 83B0     		sub	sp, sp, #12
 2018              	.LCFI66:
 2019              		.cfi_def_cfa_offset 16
 2020 0b30 00AF     		add	r7, sp, #0
 2021              	.LCFI67:
 2022              		.cfi_def_cfa_register 7
 2023 0b32 7860     		str	r0, [r7, #4]
 2024 0b34 3960     		str	r1, [r7]
 424:../../source/src/kernel/OS_LIB/myMicroLIB.c **** 	while(*str1 == *str2)
 2025              		.loc 1 424 0
 2026 0b36 0BE0     		b	.L139
 2027              	.L142:
 425:../../source/src/kernel/OS_LIB/myMicroLIB.c **** 	{
 426:../../source/src/kernel/OS_LIB/myMicroLIB.c **** 		if('\0' == *str1)
 2028              		.loc 1 426 0
 2029 0b38 7B68     		ldr	r3, [r7, #4]
 2030 0b3a 1B78     		ldrb	r3, [r3]	@ zero_extendqisi2
 2031 0b3c 002B     		cmp	r3, #0
 2032 0b3e 01D1     		bne	.L140
 427:../../source/src/kernel/OS_LIB/myMicroLIB.c **** 		{
 428:../../source/src/kernel/OS_LIB/myMicroLIB.c **** 			return 0;
 2033              		.loc 1 428 0
 2034 0b40 0023     		movs	r3, #0
 2035 0b42 11E0     		b	.L141
 2036              	.L140:
 429:../../source/src/kernel/OS_LIB/myMicroLIB.c **** 		}
 430:../../source/src/kernel/OS_LIB/myMicroLIB.c **** 		++str1;
 2037              		.loc 1 430 0
ARM GAS  G:\Users\Jaxb\AppData\Local\Temp\cc904ymL.s 			page 45


 2038 0b44 7B68     		ldr	r3, [r7, #4]
 2039 0b46 0133     		adds	r3, r3, #1
 2040 0b48 7B60     		str	r3, [r7, #4]
 431:../../source/src/kernel/OS_LIB/myMicroLIB.c **** 		++str2;
 2041              		.loc 1 431 0
 2042 0b4a 3B68     		ldr	r3, [r7]
 2043 0b4c 0133     		adds	r3, r3, #1
 2044 0b4e 3B60     		str	r3, [r7]
 2045              	.L139:
 424:../../source/src/kernel/OS_LIB/myMicroLIB.c **** 	{
 2046              		.loc 1 424 0
 2047 0b50 7B68     		ldr	r3, [r7, #4]
 2048 0b52 1A78     		ldrb	r2, [r3]	@ zero_extendqisi2
 2049 0b54 3B68     		ldr	r3, [r7]
 2050 0b56 1B78     		ldrb	r3, [r3]	@ zero_extendqisi2
 2051 0b58 9A42     		cmp	r2, r3
 2052 0b5a EDD0     		beq	.L142
 432:../../source/src/kernel/OS_LIB/myMicroLIB.c **** 	}
 433:../../source/src/kernel/OS_LIB/myMicroLIB.c **** 	return (*str1 - *str2);
 2053              		.loc 1 433 0
 2054 0b5c 7B68     		ldr	r3, [r7, #4]
 2055 0b5e 1B78     		ldrb	r3, [r3]	@ zero_extendqisi2
 2056 0b60 1A46     		mov	r2, r3
 2057 0b62 3B68     		ldr	r3, [r7]
 2058 0b64 1B78     		ldrb	r3, [r3]	@ zero_extendqisi2
 2059 0b66 D31A     		subs	r3, r2, r3
 2060              	.L141:
 434:../../source/src/kernel/OS_LIB/myMicroLIB.c **** }
 2061              		.loc 1 434 0
 2062 0b68 1846     		mov	r0, r3
 2063 0b6a 0C37     		adds	r7, r7, #12
 2064              	.LCFI68:
 2065              		.cfi_def_cfa_offset 4
 2066 0b6c BD46     		mov	sp, r7
 2067              	.LCFI69:
 2068              		.cfi_def_cfa_register 13
 2069              		@ sp needed
 2070 0b6e 80BC     		pop	{r7}
 2071              	.LCFI70:
 2072              		.cfi_restore 7
 2073              		.cfi_def_cfa_offset 0
 2074 0b70 7047     		bx	lr
 2075              		.cfi_endproc
 2076              	.LFE40:
 2077              		.size	ka_strcmp, .-ka_strcmp
 2078              		.align	1
 2079              		.global	__init_my_micro_lib
 2080              		.syntax unified
 2081              		.thumb
 2082              		.thumb_func
 2083              		.fpu softvfp
 2084              		.type	__init_my_micro_lib, %function
 2085              	__init_my_micro_lib:
 2086              	.LFB41:
 435:../../source/src/kernel/OS_LIB/myMicroLIB.c **** 
 436:../../source/src/kernel/OS_LIB/myMicroLIB.c **** extern void init_malloc(void);
 437:../../source/src/kernel/OS_LIB/myMicroLIB.c **** void __init_my_micro_lib(void)
ARM GAS  G:\Users\Jaxb\AppData\Local\Temp\cc904ymL.s 			page 46


 438:../../source/src/kernel/OS_LIB/myMicroLIB.c **** {
 2087              		.loc 1 438 0
 2088              		.cfi_startproc
 2089              		@ args = 0, pretend = 0, frame = 0
 2090              		@ frame_needed = 1, uses_anonymous_args = 0
 2091 0b72 80B5     		push	{r7, lr}
 2092              	.LCFI71:
 2093              		.cfi_def_cfa_offset 8
 2094              		.cfi_offset 7, -8
 2095              		.cfi_offset 14, -4
 2096 0b74 00AF     		add	r7, sp, #0
 2097              	.LCFI72:
 2098              		.cfi_def_cfa_register 7
 439:../../source/src/kernel/OS_LIB/myMicroLIB.c **** 	init_malloc();
 2099              		.loc 1 439 0
 2100 0b76 FFF7FEFF 		bl	init_malloc
 440:../../source/src/kernel/OS_LIB/myMicroLIB.c **** }
 2101              		.loc 1 440 0
 2102 0b7a 00BF     		nop
 2103 0b7c 80BD     		pop	{r7, pc}
 2104              		.cfi_endproc
 2105              	.LFE41:
 2106              		.size	__init_my_micro_lib, .-__init_my_micro_lib
 2107              	.Letext0:
 2108              		.file 2 "f:\\arm\\gcc2018\\lib\\gcc\\arm-none-eabi\\7.3.1\\include\\stdarg.h"
 2109              		.file 3 "f:\\arm\\gcc2018\\arm-none-eabi\\include\\machine\\_default_types.h"
 2110              		.file 4 "f:\\arm\\gcc2018\\arm-none-eabi\\include\\sys\\_stdint.h"
 2111              		.file 5 "../../source/include/core_cm3.h"
 2112              		.file 6 "../../source/include/system_stm32f10x.h"
 2113              		.file 7 "../../source/include/os_cpu/kakaosstdint.h"
 2114              		.file 8 "<built-in>"
 2115              		.file 9 "../../source/include/os_core/export.h"
 2116 0b7e 00BF     		.section	.debug_info,"",%progbits
 2117              	.Ldebug_info0:
 2118 0000 B4050000 		.4byte	0x5b4
 2119 0004 0200     		.2byte	0x2
 2120 0006 00000000 		.4byte	.Ldebug_abbrev0
 2121 000a 04       		.byte	0x4
 2122 000b 01       		.uleb128 0x1
 2123 000c 66020000 		.4byte	.LASF56
 2124 0010 0C       		.byte	0xc
 2125 0011 20000000 		.4byte	.LASF57
 2126 0015 94000000 		.4byte	.LASF58
 2127 0019 00000000 		.4byte	.Ltext0
 2128 001d 7E0B0000 		.4byte	.Letext0
 2129 0021 00000000 		.4byte	.Ldebug_line0
 2130 0025 02       		.uleb128 0x2
 2131 0026 4D020000 		.4byte	.LASF0
 2132 002a 02       		.byte	0x2
 2133 002b 28       		.byte	0x28
 2134 002c 30000000 		.4byte	0x30
 2135 0030 03       		.uleb128 0x3
 2136 0031 D6000000 		.4byte	.LASF16
 2137 0035 04       		.byte	0x4
 2138 0036 08       		.byte	0x8
 2139 0037 00       		.byte	0
 2140 0038 4A000000 		.4byte	0x4a
ARM GAS  G:\Users\Jaxb\AppData\Local\Temp\cc904ymL.s 			page 47


 2141 003c 04       		.uleb128 0x4
 2142 003d A9010000 		.4byte	.LASF59
 2143 0041 4A000000 		.4byte	0x4a
 2144 0045 02       		.byte	0x2
 2145 0046 23       		.byte	0x23
 2146 0047 00       		.uleb128 0
 2147 0048 01       		.byte	0x1
 2148 0049 00       		.byte	0
 2149 004a 05       		.uleb128 0x5
 2150 004b 04       		.byte	0x4
 2151 004c 02       		.uleb128 0x2
 2152 004d 7B000000 		.4byte	.LASF1
 2153 0051 02       		.byte	0x2
 2154 0052 63       		.byte	0x63
 2155 0053 25000000 		.4byte	0x25
 2156 0057 06       		.uleb128 0x6
 2157 0058 01       		.byte	0x1
 2158 0059 06       		.byte	0x6
 2159 005a 45010000 		.4byte	.LASF2
 2160 005e 06       		.uleb128 0x6
 2161 005f 01       		.byte	0x1
 2162 0060 08       		.byte	0x8
 2163 0061 37010000 		.4byte	.LASF3
 2164 0065 06       		.uleb128 0x6
 2165 0066 02       		.byte	0x2
 2166 0067 05       		.byte	0x5
 2167 0068 16000000 		.4byte	.LASF4
 2168 006c 06       		.uleb128 0x6
 2169 006d 02       		.byte	0x2
 2170 006e 07       		.byte	0x7
 2171 006f 8E010000 		.4byte	.LASF5
 2172 0073 06       		.uleb128 0x6
 2173 0074 04       		.byte	0x4
 2174 0075 05       		.byte	0x5
 2175 0076 E6000000 		.4byte	.LASF6
 2176 007a 02       		.uleb128 0x2
 2177 007b 5C000000 		.4byte	.LASF7
 2178 007f 03       		.byte	0x3
 2179 0080 4F       		.byte	0x4f
 2180 0081 85000000 		.4byte	0x85
 2181 0085 06       		.uleb128 0x6
 2182 0086 04       		.byte	0x4
 2183 0087 07       		.byte	0x7
 2184 0088 F8010000 		.4byte	.LASF8
 2185 008c 06       		.uleb128 0x6
 2186 008d 08       		.byte	0x8
 2187 008e 05       		.byte	0x5
 2188 008f C2000000 		.4byte	.LASF9
 2189 0093 06       		.uleb128 0x6
 2190 0094 08       		.byte	0x8
 2191 0095 07       		.byte	0x7
 2192 0096 51010000 		.4byte	.LASF10
 2193 009a 07       		.uleb128 0x7
 2194 009b 04       		.byte	0x4
 2195 009c 05       		.byte	0x5
 2196 009d 696E7400 		.ascii	"int\000"
 2197 00a1 08       		.uleb128 0x8
ARM GAS  G:\Users\Jaxb\AppData\Local\Temp\cc904ymL.s 			page 48


 2198 00a2 9A000000 		.4byte	0x9a
 2199 00a6 09       		.uleb128 0x9
 2200 00a7 9A000000 		.4byte	0x9a
 2201 00ab 06       		.uleb128 0x6
 2202 00ac 04       		.byte	0x4
 2203 00ad 07       		.byte	0x7
 2204 00ae 71010000 		.4byte	.LASF11
 2205 00b2 02       		.uleb128 0x2
 2206 00b3 68010000 		.4byte	.LASF12
 2207 00b7 04       		.byte	0x4
 2208 00b8 30       		.byte	0x30
 2209 00b9 7A000000 		.4byte	0x7a
 2210 00bd 0A       		.uleb128 0xa
 2211 00be 1E030000 		.4byte	.LASF13
 2212 00c2 05       		.byte	0x5
 2213 00c3 CE06     		.2byte	0x6ce
 2214 00c5 A1000000 		.4byte	0xa1
 2215 00c9 01       		.byte	0x1
 2216 00ca 01       		.byte	0x1
 2217 00cb 0B       		.uleb128 0xb
 2218 00cc D5010000 		.4byte	.LASF14
 2219 00d0 06       		.byte	0x6
 2220 00d1 35       		.byte	0x35
 2221 00d2 B2000000 		.4byte	0xb2
 2222 00d6 01       		.byte	0x1
 2223 00d7 01       		.byte	0x1
 2224 00d8 02       		.uleb128 0x2
 2225 00d9 BD010000 		.4byte	.LASF15
 2226 00dd 07       		.byte	0x7
 2227 00de 08       		.byte	0x8
 2228 00df 8C000000 		.4byte	0x8c
 2229 00e3 03       		.uleb128 0x3
 2230 00e4 83000000 		.4byte	.LASF17
 2231 00e8 08       		.byte	0x8
 2232 00e9 09       		.byte	0x9
 2233 00ea 08       		.byte	0x8
 2234 00eb 0C010000 		.4byte	0x10c
 2235 00ef 0C       		.uleb128 0xc
 2236 00f0 F6000000 		.4byte	.LASF18
 2237 00f4 09       		.byte	0x9
 2238 00f5 0A       		.byte	0xa
 2239 00f6 4A000000 		.4byte	0x4a
 2240 00fa 02       		.byte	0x2
 2241 00fb 23       		.byte	0x23
 2242 00fc 00       		.uleb128 0
 2243 00fd 0C       		.uleb128 0xc
 2244 00fe 22010000 		.4byte	.LASF19
 2245 0102 09       		.byte	0x9
 2246 0103 0B       		.byte	0xb
 2247 0104 11010000 		.4byte	0x111
 2248 0108 02       		.byte	0x2
 2249 0109 23       		.byte	0x23
 2250 010a 04       		.uleb128 0x4
 2251 010b 00       		.byte	0
 2252 010c 09       		.uleb128 0x9
 2253 010d E3000000 		.4byte	0xe3
 2254 0111 0D       		.uleb128 0xd
ARM GAS  G:\Users\Jaxb\AppData\Local\Temp\cc904ymL.s 			page 49


 2255 0112 04       		.byte	0x4
 2256 0113 1E010000 		.4byte	0x11e
 2257 0117 06       		.uleb128 0x6
 2258 0118 01       		.byte	0x1
 2259 0119 08       		.byte	0x8
 2260 011a AE010000 		.4byte	.LASF20
 2261 011e 09       		.uleb128 0x9
 2262 011f 17010000 		.4byte	0x117
 2263 0123 0E       		.uleb128 0xe
 2264 0124 1E010000 		.4byte	0x11e
 2265 0128 33010000 		.4byte	0x133
 2266 012c 0F       		.uleb128 0xf
 2267 012d AB000000 		.4byte	0xab
 2268 0131 09       		.byte	0x9
 2269 0132 00       		.byte	0
 2270 0133 09       		.uleb128 0x9
 2271 0134 23010000 		.4byte	0x123
 2272 0138 10       		.uleb128 0x10
 2273 0139 1B020000 		.4byte	.LASF21
 2274 013d 01       		.byte	0x1
 2275 013e 3C01     		.2byte	0x13c
 2276 0140 33010000 		.4byte	0x133
 2277 0144 01       		.byte	0x1
 2278 0145 05       		.byte	0x5
 2279 0146 03       		.byte	0x3
 2280 0147 00000000 		.4byte	__rtmsym_ka_printf_name
 2281 014b 10       		.uleb128 0x10
 2282 014c 0F010000 		.4byte	.LASF22
 2283 0150 01       		.byte	0x1
 2284 0151 3C01     		.2byte	0x13c
 2285 0153 0C010000 		.4byte	0x10c
 2286 0157 01       		.byte	0x1
 2287 0158 05       		.byte	0x5
 2288 0159 03       		.byte	0x3
 2289 015a 00000000 		.4byte	__rtmsym_ka_printf
 2290 015e 11       		.uleb128 0x11
 2291 015f 01       		.byte	0x1
 2292 0160 FB000000 		.4byte	.LASF60
 2293 0164 01       		.byte	0x1
 2294 0165 B501     		.2byte	0x1b5
 2295 0167 01       		.byte	0x1
 2296 0168 720B0000 		.4byte	.LFB41
 2297 016c 7E0B0000 		.4byte	.LFE41
 2298 0170 00000000 		.4byte	.LLST12
 2299 0174 01       		.byte	0x1
 2300 0175 12       		.uleb128 0x12
 2301 0176 01       		.byte	0x1
 2302 0177 43020000 		.4byte	.LASF25
 2303 017b 01       		.byte	0x1
 2304 017c A601     		.2byte	0x1a6
 2305 017e 01       		.byte	0x1
 2306 017f 9A000000 		.4byte	0x9a
 2307 0183 2C0B0000 		.4byte	.LFB40
 2308 0187 720B0000 		.4byte	.LFE40
 2309 018b 2C000000 		.4byte	.LLST11
 2310 018f 01       		.byte	0x1
 2311 0190 B3010000 		.4byte	0x1b3
ARM GAS  G:\Users\Jaxb\AppData\Local\Temp\cc904ymL.s 			page 50


 2312 0194 13       		.uleb128 0x13
 2313 0195 71000000 		.4byte	.LASF23
 2314 0199 01       		.byte	0x1
 2315 019a A601     		.2byte	0x1a6
 2316 019c 11010000 		.4byte	0x111
 2317 01a0 02       		.byte	0x2
 2318 01a1 91       		.byte	0x91
 2319 01a2 74       		.sleb128 -12
 2320 01a3 13       		.uleb128 0x13
 2321 01a4 76000000 		.4byte	.LASF24
 2322 01a8 01       		.byte	0x1
 2323 01a9 A601     		.2byte	0x1a6
 2324 01ab 11010000 		.4byte	0x111
 2325 01af 02       		.byte	0x2
 2326 01b0 91       		.byte	0x91
 2327 01b1 70       		.sleb128 -16
 2328 01b2 00       		.byte	0
 2329 01b3 14       		.uleb128 0x14
 2330 01b4 01       		.byte	0x1
 2331 01b5 27010000 		.4byte	.LASF26
 2332 01b9 01       		.byte	0x1
 2333 01ba 7E01     		.2byte	0x17e
 2334 01bc 01       		.byte	0x1
 2335 01bd 0F020000 		.4byte	0x20f
 2336 01c1 CA090000 		.4byte	.LFB39
 2337 01c5 2C0B0000 		.4byte	.LFE39
 2338 01c9 88000000 		.4byte	.LLST10
 2339 01cd 01       		.byte	0x1
 2340 01ce 0F020000 		.4byte	0x20f
 2341 01d2 13       		.uleb128 0x13
 2342 01d3 00000000 		.4byte	.LASF27
 2343 01d7 01       		.byte	0x1
 2344 01d8 7E01     		.2byte	0x17e
 2345 01da 11010000 		.4byte	0x111
 2346 01de 02       		.byte	0x2
 2347 01df 91       		.byte	0x91
 2348 01e0 54       		.sleb128 -44
 2349 01e1 15       		.uleb128 0x15
 2350 01e2 6E756D00 		.ascii	"num\000"
 2351 01e6 01       		.byte	0x1
 2352 01e7 8001     		.2byte	0x180
 2353 01e9 0F020000 		.4byte	0x20f
 2354 01ed 02       		.byte	0x2
 2355 01ee 91       		.byte	0x91
 2356 01ef 68       		.sleb128 -24
 2357 01f0 16       		.uleb128 0x16
 2358 01f1 0F020000 		.4byte	.LASF28
 2359 01f5 01       		.byte	0x1
 2360 01f6 8101     		.2byte	0x181
 2361 01f8 9A000000 		.4byte	0x9a
 2362 01fc 02       		.byte	0x2
 2363 01fd 91       		.byte	0x91
 2364 01fe 64       		.sleb128 -28
 2365 01ff 16       		.uleb128 0x16
 2366 0200 16030000 		.4byte	.LASF29
 2367 0204 01       		.byte	0x1
 2368 0205 8201     		.2byte	0x182
ARM GAS  G:\Users\Jaxb\AppData\Local\Temp\cc904ymL.s 			page 51


 2369 0207 0F020000 		.4byte	0x20f
 2370 020b 02       		.byte	0x2
 2371 020c 91       		.byte	0x91
 2372 020d 58       		.sleb128 -40
 2373 020e 00       		.byte	0
 2374 020f 06       		.uleb128 0x6
 2375 0210 08       		.byte	0x8
 2376 0211 04       		.byte	0x4
 2377 0212 14020000 		.4byte	.LASF30
 2378 0216 12       		.uleb128 0x12
 2379 0217 01       		.byte	0x1
 2380 0218 2F010000 		.4byte	.LASF31
 2381 021c 01       		.byte	0x1
 2382 021d 6201     		.2byte	0x162
 2383 021f 01       		.byte	0x1
 2384 0220 9A000000 		.4byte	0x9a
 2385 0224 3E090000 		.4byte	.LFB38
 2386 0228 CA090000 		.4byte	.LFE38
 2387 022c D8000000 		.4byte	.LLST9
 2388 0230 01       		.byte	0x1
 2389 0231 63020000 		.4byte	0x263
 2390 0235 13       		.uleb128 0x13
 2391 0236 00000000 		.4byte	.LASF27
 2392 023a 01       		.byte	0x1
 2393 023b 6201     		.2byte	0x162
 2394 023d 11010000 		.4byte	0x111
 2395 0241 02       		.byte	0x2
 2396 0242 91       		.byte	0x91
 2397 0243 6C       		.sleb128 -20
 2398 0244 15       		.uleb128 0x15
 2399 0245 6E756D00 		.ascii	"num\000"
 2400 0249 01       		.byte	0x1
 2401 024a 6401     		.2byte	0x164
 2402 024c 9A000000 		.4byte	0x9a
 2403 0250 02       		.byte	0x2
 2404 0251 91       		.byte	0x91
 2405 0252 74       		.sleb128 -12
 2406 0253 16       		.uleb128 0x16
 2407 0254 0F020000 		.4byte	.LASF28
 2408 0258 01       		.byte	0x1
 2409 0259 6501     		.2byte	0x165
 2410 025b 9A000000 		.4byte	0x9a
 2411 025f 02       		.byte	0x2
 2412 0260 91       		.byte	0x91
 2413 0261 70       		.sleb128 -16
 2414 0262 00       		.byte	0
 2415 0263 17       		.uleb128 0x17
 2416 0264 01       		.byte	0x1
 2417 0265 5C020000 		.4byte	.LASF34
 2418 0269 01       		.byte	0x1
 2419 026a 5A01     		.2byte	0x15a
 2420 026c 01       		.byte	0x1
 2421 026d 04090000 		.4byte	.LFB37
 2422 0271 3E090000 		.4byte	.LFE37
 2423 0275 34010000 		.4byte	.LLST8
 2424 0279 01       		.byte	0x1
 2425 027a 9D020000 		.4byte	0x29d
ARM GAS  G:\Users\Jaxb\AppData\Local\Temp\cc904ymL.s 			page 52


 2426 027e 13       		.uleb128 0x13
 2427 027f CD010000 		.4byte	.LASF32
 2428 0283 01       		.byte	0x1
 2429 0284 5A01     		.2byte	0x15a
 2430 0286 9D020000 		.4byte	0x29d
 2431 028a 02       		.byte	0x2
 2432 028b 91       		.byte	0x91
 2433 028c 74       		.sleb128 -12
 2434 028d 13       		.uleb128 0x13
 2435 028e 31030000 		.4byte	.LASF33
 2436 0292 01       		.byte	0x1
 2437 0293 5A01     		.2byte	0x15a
 2438 0295 11010000 		.4byte	0x111
 2439 0299 02       		.byte	0x2
 2440 029a 91       		.byte	0x91
 2441 029b 70       		.sleb128 -16
 2442 029c 00       		.byte	0
 2443 029d 0D       		.uleb128 0xd
 2444 029e 04       		.byte	0x4
 2445 029f 17010000 		.4byte	0x117
 2446 02a3 17       		.uleb128 0x17
 2447 02a4 01       		.byte	0x1
 2448 02a5 39020000 		.4byte	.LASF35
 2449 02a9 01       		.byte	0x1
 2450 02aa 5001     		.2byte	0x150
 2451 02ac 01       		.byte	0x1
 2452 02ad D0080000 		.4byte	.LFB36
 2453 02b1 04090000 		.4byte	.LFE36
 2454 02b5 90010000 		.4byte	.LLST7
 2455 02b9 01       		.byte	0x1
 2456 02ba 05030000 		.4byte	0x305
 2457 02be 18       		.uleb128 0x18
 2458 02bf 7300     		.ascii	"s\000"
 2459 02c1 01       		.byte	0x1
 2460 02c2 5001     		.2byte	0x150
 2461 02c4 4A000000 		.4byte	0x4a
 2462 02c8 02       		.byte	0x2
 2463 02c9 91       		.byte	0x91
 2464 02ca 6C       		.sleb128 -20
 2465 02cb 18       		.uleb128 0x18
 2466 02cc 636800   		.ascii	"ch\000"
 2467 02cf 01       		.byte	0x1
 2468 02d0 5001     		.2byte	0x150
 2469 02d2 A6000000 		.4byte	0xa6
 2470 02d6 02       		.byte	0x2
 2471 02d7 91       		.byte	0x91
 2472 02d8 68       		.sleb128 -24
 2473 02d9 18       		.uleb128 0x18
 2474 02da 6E00     		.ascii	"n\000"
 2475 02dc 01       		.byte	0x1
 2476 02dd 5001     		.2byte	0x150
 2477 02df 9A000000 		.4byte	0x9a
 2478 02e3 02       		.byte	0x2
 2479 02e4 91       		.byte	0x91
 2480 02e5 64       		.sleb128 -28
 2481 02e6 15       		.uleb128 0x15
 2482 02e7 70747200 		.ascii	"ptr\000"
ARM GAS  G:\Users\Jaxb\AppData\Local\Temp\cc904ymL.s 			page 53


 2483 02eb 01       		.byte	0x1
 2484 02ec 5201     		.2byte	0x152
 2485 02ee 9D020000 		.4byte	0x29d
 2486 02f2 02       		.byte	0x2
 2487 02f3 91       		.byte	0x91
 2488 02f4 74       		.sleb128 -12
 2489 02f5 16       		.uleb128 0x16
 2490 02f6 E5010000 		.4byte	.LASF36
 2491 02fa 01       		.byte	0x1
 2492 02fb 5301     		.2byte	0x153
 2493 02fd 1E010000 		.4byte	0x11e
 2494 0301 02       		.byte	0x2
 2495 0302 91       		.byte	0x91
 2496 0303 73       		.sleb128 -13
 2497 0304 00       		.byte	0
 2498 0305 12       		.uleb128 0x12
 2499 0306 01       		.byte	0x1
 2500 0307 83010000 		.4byte	.LASF37
 2501 030b 01       		.byte	0x1
 2502 030c 3E01     		.2byte	0x13e
 2503 030e 01       		.byte	0x1
 2504 030f 9A000000 		.4byte	0x9a
 2505 0313 74080000 		.4byte	.LFB35
 2506 0317 D0080000 		.4byte	.LFE35
 2507 031b EC010000 		.4byte	.LLST6
 2508 031f 01       		.byte	0x1
 2509 0320 52030000 		.4byte	0x352
 2510 0324 13       		.uleb128 0x13
 2511 0325 71000000 		.4byte	.LASF23
 2512 0329 01       		.byte	0x1
 2513 032a 3E01     		.2byte	0x13e
 2514 032c 11010000 		.4byte	0x111
 2515 0330 02       		.byte	0x2
 2516 0331 91       		.byte	0x91
 2517 0332 74       		.sleb128 -12
 2518 0333 13       		.uleb128 0x13
 2519 0334 76000000 		.4byte	.LASF24
 2520 0338 01       		.byte	0x1
 2521 0339 3E01     		.2byte	0x13e
 2522 033b 11010000 		.4byte	0x111
 2523 033f 02       		.byte	0x2
 2524 0340 91       		.byte	0x91
 2525 0341 70       		.sleb128 -16
 2526 0342 18       		.uleb128 0x18
 2527 0343 6E756D00 		.ascii	"num\000"
 2528 0347 01       		.byte	0x1
 2529 0348 3E01     		.2byte	0x13e
 2530 034a 9A000000 		.4byte	0x9a
 2531 034e 02       		.byte	0x2
 2532 034f 91       		.byte	0x91
 2533 0350 6C       		.sleb128 -20
 2534 0351 00       		.byte	0
 2535 0352 19       		.uleb128 0x19
 2536 0353 01       		.byte	0x1
 2537 0354 B3010000 		.4byte	.LASF38
 2538 0358 01       		.byte	0x1
 2539 0359 47       		.byte	0x47
ARM GAS  G:\Users\Jaxb\AppData\Local\Temp\cc904ymL.s 			page 54


 2540 035a 01       		.byte	0x1
 2541 035b 9A000000 		.4byte	0x9a
 2542 035f 3A010000 		.4byte	.LFB34
 2543 0363 74080000 		.4byte	.LFE34
 2544 0367 48020000 		.4byte	.LLST5
 2545 036b 01       		.byte	0x1
 2546 036c 3A040000 		.4byte	0x43a
 2547 0370 1A       		.uleb128 0x1a
 2548 0371 73747200 		.ascii	"str\000"
 2549 0375 01       		.byte	0x1
 2550 0376 47       		.byte	0x47
 2551 0377 11010000 		.4byte	0x111
 2552 037b 02       		.byte	0x2
 2553 037c 91       		.byte	0x91
 2554 037d 70       		.sleb128 -16
 2555 037e 1B       		.uleb128 0x1b
 2556 037f 1C       		.uleb128 0x1c
 2557 0380 617000   		.ascii	"ap\000"
 2558 0383 01       		.byte	0x1
 2559 0384 49       		.byte	0x49
 2560 0385 4C000000 		.4byte	0x4c
 2561 0389 03       		.byte	0x3
 2562 038a 91       		.byte	0x91
 2563 038b A07F     		.sleb128 -96
 2564 038d 1C       		.uleb128 0x1c
 2565 038e 76616C00 		.ascii	"val\000"
 2566 0392 01       		.byte	0x1
 2567 0393 4A       		.byte	0x4a
 2568 0394 9A000000 		.4byte	0x9a
 2569 0398 02       		.byte	0x2
 2570 0399 91       		.byte	0x91
 2571 039a 5C       		.sleb128 -36
 2572 039b 1D       		.uleb128 0x1d
 2573 039c 2B030000 		.4byte	.LASF39
 2574 03a0 01       		.byte	0x1
 2575 03a1 4A       		.byte	0x4a
 2576 03a2 9A000000 		.4byte	0x9a
 2577 03a6 02       		.byte	0x2
 2578 03a7 91       		.byte	0x91
 2579 03a8 58       		.sleb128 -40
 2580 03a9 1D       		.uleb128 0x1d
 2581 03aa D0000000 		.4byte	.LASF40
 2582 03ae 01       		.byte	0x1
 2583 03af 4B       		.byte	0x4b
 2584 03b0 0F020000 		.4byte	0x20f
 2585 03b4 02       		.byte	0x2
 2586 03b5 91       		.byte	0x91
 2587 03b6 50       		.sleb128 -48
 2588 03b7 1D       		.uleb128 0x1d
 2589 03b8 E0000000 		.4byte	.LASF41
 2590 03bc 01       		.byte	0x1
 2591 03bd 4C       		.byte	0x4c
 2592 03be D8000000 		.4byte	0xd8
 2593 03c2 02       		.byte	0x2
 2594 03c3 91       		.byte	0x91
 2595 03c4 48       		.sleb128 -56
 2596 03c5 1D       		.uleb128 0x1d
ARM GAS  G:\Users\Jaxb\AppData\Local\Temp\cc904ymL.s 			page 55


 2597 03c6 09000000 		.4byte	.LASF42
 2598 03ca 01       		.byte	0x1
 2599 03cb 4C       		.byte	0x4c
 2600 03cc D8000000 		.4byte	0xd8
 2601 03d0 02       		.byte	0x2
 2602 03d1 91       		.byte	0x91
 2603 03d2 40       		.sleb128 -64
 2604 03d3 1D       		.uleb128 0x1d
 2605 03d4 7E010000 		.4byte	.LASF43
 2606 03d8 01       		.byte	0x1
 2607 03d9 4D       		.byte	0x4d
 2608 03da AB000000 		.4byte	0xab
 2609 03de 03       		.byte	0x3
 2610 03df 91       		.byte	0x91
 2611 03e0 A47F     		.sleb128 -92
 2612 03e2 1D       		.uleb128 0x1d
 2613 03e3 EC010000 		.4byte	.LASF44
 2614 03e7 01       		.byte	0x1
 2615 03e8 4D       		.byte	0x4d
 2616 03e9 AB000000 		.4byte	0xab
 2617 03ed 03       		.byte	0x3
 2618 03ee 91       		.byte	0x91
 2619 03ef BC7F     		.sleb128 -68
 2620 03f1 1D       		.uleb128 0x1d
 2621 03f2 33020000 		.4byte	.LASF45
 2622 03f6 01       		.byte	0x1
 2623 03f7 4E       		.byte	0x4e
 2624 03f8 17010000 		.4byte	0x117
 2625 03fc 03       		.byte	0x3
 2626 03fd 91       		.byte	0x91
 2627 03fe BB7F     		.sleb128 -69
 2628 0400 1C       		.uleb128 0x1c
 2629 0401 636800   		.ascii	"ch\000"
 2630 0404 01       		.byte	0x1
 2631 0405 4E       		.byte	0x4e
 2632 0406 17010000 		.4byte	0x117
 2633 040a 03       		.byte	0x3
 2634 040b 91       		.byte	0x91
 2635 040c AB7F     		.sleb128 -85
 2636 040e 1C       		.uleb128 0x1c
 2637 040f 7300     		.ascii	"s\000"
 2638 0411 01       		.byte	0x1
 2639 0412 4F       		.byte	0x4f
 2640 0413 9D020000 		.4byte	0x29d
 2641 0417 03       		.byte	0x3
 2642 0418 91       		.byte	0x91
 2643 0419 AC7F     		.sleb128 -84
 2644 041b 1C       		.uleb128 0x1c
 2645 041c 72657300 		.ascii	"res\000"
 2646 0420 01       		.byte	0x1
 2647 0421 50       		.byte	0x50
 2648 0422 9A000000 		.4byte	0x9a
 2649 0426 03       		.byte	0x3
 2650 0427 91       		.byte	0x91
 2651 0428 B47F     		.sleb128 -76
 2652 042a 1D       		.uleb128 0x1d
 2653 042b E5010000 		.4byte	.LASF36
ARM GAS  G:\Users\Jaxb\AppData\Local\Temp\cc904ymL.s 			page 56


 2654 042f 01       		.byte	0x1
 2655 0430 51       		.byte	0x51
 2656 0431 9A000000 		.4byte	0x9a
 2657 0435 03       		.byte	0x3
 2658 0436 91       		.byte	0x91
 2659 0437 B07F     		.sleb128 -80
 2660 0439 00       		.byte	0
 2661 043a 1E       		.uleb128 0x1e
 2662 043b 01       		.byte	0x1
 2663 043c 67000000 		.4byte	.LASF46
 2664 0440 01       		.byte	0x1
 2665 0441 2F       		.byte	0x2f
 2666 0442 01       		.byte	0x1
 2667 0443 B8000000 		.4byte	.LFB33
 2668 0447 3A010000 		.4byte	.LFE33
 2669 044b BE020000 		.4byte	.LLST4
 2670 044f 01       		.byte	0x1
 2671 0450 D9040000 		.4byte	0x4d9
 2672 0454 1F       		.uleb128 0x1f
 2673 0455 11000000 		.4byte	.LASF47
 2674 0459 01       		.byte	0x1
 2675 045a 2F       		.byte	0x2f
 2676 045b 4A000000 		.4byte	0x4a
 2677 045f 02       		.byte	0x2
 2678 0460 91       		.byte	0x91
 2679 0461 5C       		.sleb128 -36
 2680 0462 1A       		.uleb128 0x1a
 2681 0463 73726300 		.ascii	"src\000"
 2682 0467 01       		.byte	0x1
 2683 0468 2F       		.byte	0x2f
 2684 0469 D9040000 		.4byte	0x4d9
 2685 046d 02       		.byte	0x2
 2686 046e 91       		.byte	0x91
 2687 046f 58       		.sleb128 -40
 2688 0470 1A       		.uleb128 0x1a
 2689 0471 6E00     		.ascii	"n\000"
 2690 0473 01       		.byte	0x1
 2691 0474 2F       		.byte	0x2f
 2692 0475 9A000000 		.4byte	0x9a
 2693 0479 02       		.byte	0x2
 2694 047a 91       		.byte	0x91
 2695 047b 54       		.sleb128 -44
 2696 047c 1C       		.uleb128 0x1c
 2697 047d 6900     		.ascii	"i\000"
 2698 047f 01       		.byte	0x1
 2699 0480 31       		.byte	0x31
 2700 0481 9A000000 		.4byte	0x9a
 2701 0485 02       		.byte	0x2
 2702 0486 91       		.byte	0x91
 2703 0487 74       		.sleb128 -12
 2704 0488 1D       		.uleb128 0x1d
 2705 0489 F3010000 		.4byte	.LASF48
 2706 048d 01       		.byte	0x1
 2707 048e 32       		.byte	0x32
 2708 048f E0040000 		.4byte	0x4e0
 2709 0493 02       		.byte	0x2
 2710 0494 91       		.byte	0x91
ARM GAS  G:\Users\Jaxb\AppData\Local\Temp\cc904ymL.s 			page 57


 2711 0495 70       		.sleb128 -16
 2712 0496 1D       		.uleb128 0x1d
 2713 0497 0A020000 		.4byte	.LASF49
 2714 049b 01       		.byte	0x1
 2715 049c 33       		.byte	0x33
 2716 049d E6040000 		.4byte	0x4e6
 2717 04a1 02       		.byte	0x2
 2718 04a2 91       		.byte	0x91
 2719 04a3 6C       		.sleb128 -20
 2720 04a4 1C       		.uleb128 0x1c
 2721 04a5 6E756D00 		.ascii	"num\000"
 2722 04a9 01       		.byte	0x1
 2723 04aa 34       		.byte	0x34
 2724 04ab 9A000000 		.4byte	0x9a
 2725 04af 02       		.byte	0x2
 2726 04b0 91       		.byte	0x91
 2727 04b1 60       		.sleb128 -32
 2728 04b2 20       		.uleb128 0x20
 2729 04b3 04010000 		.4byte	.LBB2
 2730 04b7 30010000 		.4byte	.LBE2
 2731 04bb 1D       		.uleb128 0x1d
 2732 04bc 0C030000 		.4byte	.LASF50
 2733 04c0 01       		.byte	0x1
 2734 04c1 3D       		.byte	0x3d
 2735 04c2 9D020000 		.4byte	0x29d
 2736 04c6 02       		.byte	0x2
 2737 04c7 91       		.byte	0x91
 2738 04c8 68       		.sleb128 -24
 2739 04c9 1D       		.uleb128 0x1d
 2740 04ca 11030000 		.4byte	.LASF51
 2741 04ce 01       		.byte	0x1
 2742 04cf 3E       		.byte	0x3e
 2743 04d0 11010000 		.4byte	0x111
 2744 04d4 02       		.byte	0x2
 2745 04d5 91       		.byte	0x91
 2746 04d6 64       		.sleb128 -28
 2747 04d7 00       		.byte	0
 2748 04d8 00       		.byte	0
 2749 04d9 0D       		.uleb128 0xd
 2750 04da 04       		.byte	0x4
 2751 04db DF040000 		.4byte	0x4df
 2752 04df 21       		.uleb128 0x21
 2753 04e0 0D       		.uleb128 0xd
 2754 04e1 04       		.byte	0x4
 2755 04e2 9A000000 		.4byte	0x9a
 2756 04e6 0D       		.uleb128 0xd
 2757 04e7 04       		.byte	0x4
 2758 04e8 A6000000 		.4byte	0xa6
 2759 04ec 22       		.uleb128 0x22
 2760 04ed 01       		.byte	0x1
 2761 04ee C3010000 		.4byte	.LASF52
 2762 04f2 01       		.byte	0x1
 2763 04f3 25       		.byte	0x25
 2764 04f4 01       		.byte	0x1
 2765 04f5 AB000000 		.4byte	0xab
 2766 04f9 8C000000 		.4byte	.LFB32
 2767 04fd B8000000 		.4byte	.LFE32
ARM GAS  G:\Users\Jaxb\AppData\Local\Temp\cc904ymL.s 			page 58


 2768 0501 1A030000 		.4byte	.LLST3
 2769 0505 01       		.byte	0x1
 2770 0506 25050000 		.4byte	0x525
 2771 050a 1A       		.uleb128 0x1a
 2772 050b 7300     		.ascii	"s\000"
 2773 050d 01       		.byte	0x1
 2774 050e 25       		.byte	0x25
 2775 050f 11010000 		.4byte	0x111
 2776 0513 02       		.byte	0x2
 2777 0514 91       		.byte	0x91
 2778 0515 6C       		.sleb128 -20
 2779 0516 1C       		.uleb128 0x1c
 2780 0517 6E756D00 		.ascii	"num\000"
 2781 051b 01       		.byte	0x1
 2782 051c 27       		.byte	0x27
 2783 051d AB000000 		.4byte	0xab
 2784 0521 02       		.byte	0x2
 2785 0522 91       		.byte	0x91
 2786 0523 74       		.sleb128 -12
 2787 0524 00       		.byte	0
 2788 0525 23       		.uleb128 0x23
 2789 0526 01       		.byte	0x1
 2790 0527 A1010000 		.4byte	.LASF53
 2791 052b 01       		.byte	0x1
 2792 052c 1B       		.byte	0x1b
 2793 052d 01       		.byte	0x1
 2794 052e 58000000 		.4byte	.LFB31
 2795 0532 8C000000 		.4byte	.LFE31
 2796 0536 76030000 		.4byte	.LLST2
 2797 053a 01       		.byte	0x1
 2798 053b 4E050000 		.4byte	0x54e
 2799 053f 1F       		.uleb128 0x1f
 2800 0540 55000000 		.4byte	.LASF54
 2801 0544 01       		.byte	0x1
 2802 0545 1B       		.byte	0x1b
 2803 0546 11010000 		.4byte	0x111
 2804 054a 02       		.byte	0x2
 2805 054b 91       		.byte	0x91
 2806 054c 74       		.sleb128 -12
 2807 054d 00       		.byte	0
 2808 054e 24       		.uleb128 0x24
 2809 054f 4C000000 		.4byte	.LASF61
 2810 0553 01       		.byte	0x1
 2811 0554 13       		.byte	0x13
 2812 0555 01       		.byte	0x1
 2813 0556 30000000 		.4byte	.LFB30
 2814 055a 58000000 		.4byte	.LFE30
 2815 055e C6030000 		.4byte	.LLST1
 2816 0562 01       		.byte	0x1
 2817 0563 76050000 		.4byte	0x576
 2818 0567 1A       		.uleb128 0x1a
 2819 0568 73747200 		.ascii	"str\000"
 2820 056c 01       		.byte	0x1
 2821 056d 13       		.byte	0x13
 2822 056e 11010000 		.4byte	0x111
 2823 0572 02       		.byte	0x2
 2824 0573 91       		.byte	0x91
ARM GAS  G:\Users\Jaxb\AppData\Local\Temp\cc904ymL.s 			page 59


 2825 0574 74       		.sleb128 -12
 2826 0575 00       		.byte	0
 2827 0576 25       		.uleb128 0x25
 2828 0577 01       		.byte	0x1
 2829 0578 EF000000 		.4byte	.LASF55
 2830 057c 01       		.byte	0x1
 2831 057d 09       		.byte	0x9
 2832 057e 01       		.byte	0x1
 2833 057f 85000000 		.4byte	0x85
 2834 0583 00000000 		.4byte	.LFB29
 2835 0587 30000000 		.4byte	.LFE29
 2836 058b 16040000 		.4byte	.LLST0
 2837 058f 01       		.byte	0x1
 2838 0590 1A       		.uleb128 0x1a
 2839 0591 7800     		.ascii	"x\000"
 2840 0593 01       		.byte	0x1
 2841 0594 09       		.byte	0x9
 2842 0595 9A000000 		.4byte	0x9a
 2843 0599 02       		.byte	0x2
 2844 059a 91       		.byte	0x91
 2845 059b 6C       		.sleb128 -20
 2846 059c 1A       		.uleb128 0x1a
 2847 059d 7900     		.ascii	"y\000"
 2848 059f 01       		.byte	0x1
 2849 05a0 09       		.byte	0x9
 2850 05a1 AB000000 		.4byte	0xab
 2851 05a5 02       		.byte	0x2
 2852 05a6 91       		.byte	0x91
 2853 05a7 68       		.sleb128 -24
 2854 05a8 1C       		.uleb128 0x1c
 2855 05a9 73756D00 		.ascii	"sum\000"
 2856 05ad 01       		.byte	0x1
 2857 05ae 0B       		.byte	0xb
 2858 05af 85000000 		.4byte	0x85
 2859 05b3 02       		.byte	0x2
 2860 05b4 91       		.byte	0x91
 2861 05b5 74       		.sleb128 -12
 2862 05b6 00       		.byte	0
 2863 05b7 00       		.byte	0
 2864              		.section	.debug_abbrev,"",%progbits
 2865              	.Ldebug_abbrev0:
 2866 0000 01       		.uleb128 0x1
 2867 0001 11       		.uleb128 0x11
 2868 0002 01       		.byte	0x1
 2869 0003 25       		.uleb128 0x25
 2870 0004 0E       		.uleb128 0xe
 2871 0005 13       		.uleb128 0x13
 2872 0006 0B       		.uleb128 0xb
 2873 0007 03       		.uleb128 0x3
 2874 0008 0E       		.uleb128 0xe
 2875 0009 1B       		.uleb128 0x1b
 2876 000a 0E       		.uleb128 0xe
 2877 000b 11       		.uleb128 0x11
 2878 000c 01       		.uleb128 0x1
 2879 000d 12       		.uleb128 0x12
 2880 000e 01       		.uleb128 0x1
 2881 000f 10       		.uleb128 0x10
ARM GAS  G:\Users\Jaxb\AppData\Local\Temp\cc904ymL.s 			page 60


 2882 0010 06       		.uleb128 0x6
 2883 0011 00       		.byte	0
 2884 0012 00       		.byte	0
 2885 0013 02       		.uleb128 0x2
 2886 0014 16       		.uleb128 0x16
 2887 0015 00       		.byte	0
 2888 0016 03       		.uleb128 0x3
 2889 0017 0E       		.uleb128 0xe
 2890 0018 3A       		.uleb128 0x3a
 2891 0019 0B       		.uleb128 0xb
 2892 001a 3B       		.uleb128 0x3b
 2893 001b 0B       		.uleb128 0xb
 2894 001c 49       		.uleb128 0x49
 2895 001d 13       		.uleb128 0x13
 2896 001e 00       		.byte	0
 2897 001f 00       		.byte	0
 2898 0020 03       		.uleb128 0x3
 2899 0021 13       		.uleb128 0x13
 2900 0022 01       		.byte	0x1
 2901 0023 03       		.uleb128 0x3
 2902 0024 0E       		.uleb128 0xe
 2903 0025 0B       		.uleb128 0xb
 2904 0026 0B       		.uleb128 0xb
 2905 0027 3A       		.uleb128 0x3a
 2906 0028 0B       		.uleb128 0xb
 2907 0029 3B       		.uleb128 0x3b
 2908 002a 0B       		.uleb128 0xb
 2909 002b 01       		.uleb128 0x1
 2910 002c 13       		.uleb128 0x13
 2911 002d 00       		.byte	0
 2912 002e 00       		.byte	0
 2913 002f 04       		.uleb128 0x4
 2914 0030 0D       		.uleb128 0xd
 2915 0031 00       		.byte	0
 2916 0032 03       		.uleb128 0x3
 2917 0033 0E       		.uleb128 0xe
 2918 0034 49       		.uleb128 0x49
 2919 0035 13       		.uleb128 0x13
 2920 0036 38       		.uleb128 0x38
 2921 0037 0A       		.uleb128 0xa
 2922 0038 34       		.uleb128 0x34
 2923 0039 0C       		.uleb128 0xc
 2924 003a 00       		.byte	0
 2925 003b 00       		.byte	0
 2926 003c 05       		.uleb128 0x5
 2927 003d 0F       		.uleb128 0xf
 2928 003e 00       		.byte	0
 2929 003f 0B       		.uleb128 0xb
 2930 0040 0B       		.uleb128 0xb
 2931 0041 00       		.byte	0
 2932 0042 00       		.byte	0
 2933 0043 06       		.uleb128 0x6
 2934 0044 24       		.uleb128 0x24
 2935 0045 00       		.byte	0
 2936 0046 0B       		.uleb128 0xb
 2937 0047 0B       		.uleb128 0xb
 2938 0048 3E       		.uleb128 0x3e
ARM GAS  G:\Users\Jaxb\AppData\Local\Temp\cc904ymL.s 			page 61


 2939 0049 0B       		.uleb128 0xb
 2940 004a 03       		.uleb128 0x3
 2941 004b 0E       		.uleb128 0xe
 2942 004c 00       		.byte	0
 2943 004d 00       		.byte	0
 2944 004e 07       		.uleb128 0x7
 2945 004f 24       		.uleb128 0x24
 2946 0050 00       		.byte	0
 2947 0051 0B       		.uleb128 0xb
 2948 0052 0B       		.uleb128 0xb
 2949 0053 3E       		.uleb128 0x3e
 2950 0054 0B       		.uleb128 0xb
 2951 0055 03       		.uleb128 0x3
 2952 0056 08       		.uleb128 0x8
 2953 0057 00       		.byte	0
 2954 0058 00       		.byte	0
 2955 0059 08       		.uleb128 0x8
 2956 005a 35       		.uleb128 0x35
 2957 005b 00       		.byte	0
 2958 005c 49       		.uleb128 0x49
 2959 005d 13       		.uleb128 0x13
 2960 005e 00       		.byte	0
 2961 005f 00       		.byte	0
 2962 0060 09       		.uleb128 0x9
 2963 0061 26       		.uleb128 0x26
 2964 0062 00       		.byte	0
 2965 0063 49       		.uleb128 0x49
 2966 0064 13       		.uleb128 0x13
 2967 0065 00       		.byte	0
 2968 0066 00       		.byte	0
 2969 0067 0A       		.uleb128 0xa
 2970 0068 34       		.uleb128 0x34
 2971 0069 00       		.byte	0
 2972 006a 03       		.uleb128 0x3
 2973 006b 0E       		.uleb128 0xe
 2974 006c 3A       		.uleb128 0x3a
 2975 006d 0B       		.uleb128 0xb
 2976 006e 3B       		.uleb128 0x3b
 2977 006f 05       		.uleb128 0x5
 2978 0070 49       		.uleb128 0x49
 2979 0071 13       		.uleb128 0x13
 2980 0072 3F       		.uleb128 0x3f
 2981 0073 0C       		.uleb128 0xc
 2982 0074 3C       		.uleb128 0x3c
 2983 0075 0C       		.uleb128 0xc
 2984 0076 00       		.byte	0
 2985 0077 00       		.byte	0
 2986 0078 0B       		.uleb128 0xb
 2987 0079 34       		.uleb128 0x34
 2988 007a 00       		.byte	0
 2989 007b 03       		.uleb128 0x3
 2990 007c 0E       		.uleb128 0xe
 2991 007d 3A       		.uleb128 0x3a
 2992 007e 0B       		.uleb128 0xb
 2993 007f 3B       		.uleb128 0x3b
 2994 0080 0B       		.uleb128 0xb
 2995 0081 49       		.uleb128 0x49
ARM GAS  G:\Users\Jaxb\AppData\Local\Temp\cc904ymL.s 			page 62


 2996 0082 13       		.uleb128 0x13
 2997 0083 3F       		.uleb128 0x3f
 2998 0084 0C       		.uleb128 0xc
 2999 0085 3C       		.uleb128 0x3c
 3000 0086 0C       		.uleb128 0xc
 3001 0087 00       		.byte	0
 3002 0088 00       		.byte	0
 3003 0089 0C       		.uleb128 0xc
 3004 008a 0D       		.uleb128 0xd
 3005 008b 00       		.byte	0
 3006 008c 03       		.uleb128 0x3
 3007 008d 0E       		.uleb128 0xe
 3008 008e 3A       		.uleb128 0x3a
 3009 008f 0B       		.uleb128 0xb
 3010 0090 3B       		.uleb128 0x3b
 3011 0091 0B       		.uleb128 0xb
 3012 0092 49       		.uleb128 0x49
 3013 0093 13       		.uleb128 0x13
 3014 0094 38       		.uleb128 0x38
 3015 0095 0A       		.uleb128 0xa
 3016 0096 00       		.byte	0
 3017 0097 00       		.byte	0
 3018 0098 0D       		.uleb128 0xd
 3019 0099 0F       		.uleb128 0xf
 3020 009a 00       		.byte	0
 3021 009b 0B       		.uleb128 0xb
 3022 009c 0B       		.uleb128 0xb
 3023 009d 49       		.uleb128 0x49
 3024 009e 13       		.uleb128 0x13
 3025 009f 00       		.byte	0
 3026 00a0 00       		.byte	0
 3027 00a1 0E       		.uleb128 0xe
 3028 00a2 01       		.uleb128 0x1
 3029 00a3 01       		.byte	0x1
 3030 00a4 49       		.uleb128 0x49
 3031 00a5 13       		.uleb128 0x13
 3032 00a6 01       		.uleb128 0x1
 3033 00a7 13       		.uleb128 0x13
 3034 00a8 00       		.byte	0
 3035 00a9 00       		.byte	0
 3036 00aa 0F       		.uleb128 0xf
 3037 00ab 21       		.uleb128 0x21
 3038 00ac 00       		.byte	0
 3039 00ad 49       		.uleb128 0x49
 3040 00ae 13       		.uleb128 0x13
 3041 00af 2F       		.uleb128 0x2f
 3042 00b0 0B       		.uleb128 0xb
 3043 00b1 00       		.byte	0
 3044 00b2 00       		.byte	0
 3045 00b3 10       		.uleb128 0x10
 3046 00b4 34       		.uleb128 0x34
 3047 00b5 00       		.byte	0
 3048 00b6 03       		.uleb128 0x3
 3049 00b7 0E       		.uleb128 0xe
 3050 00b8 3A       		.uleb128 0x3a
 3051 00b9 0B       		.uleb128 0xb
 3052 00ba 3B       		.uleb128 0x3b
ARM GAS  G:\Users\Jaxb\AppData\Local\Temp\cc904ymL.s 			page 63


 3053 00bb 05       		.uleb128 0x5
 3054 00bc 49       		.uleb128 0x49
 3055 00bd 13       		.uleb128 0x13
 3056 00be 3F       		.uleb128 0x3f
 3057 00bf 0C       		.uleb128 0xc
 3058 00c0 02       		.uleb128 0x2
 3059 00c1 0A       		.uleb128 0xa
 3060 00c2 00       		.byte	0
 3061 00c3 00       		.byte	0
 3062 00c4 11       		.uleb128 0x11
 3063 00c5 2E       		.uleb128 0x2e
 3064 00c6 00       		.byte	0
 3065 00c7 3F       		.uleb128 0x3f
 3066 00c8 0C       		.uleb128 0xc
 3067 00c9 03       		.uleb128 0x3
 3068 00ca 0E       		.uleb128 0xe
 3069 00cb 3A       		.uleb128 0x3a
 3070 00cc 0B       		.uleb128 0xb
 3071 00cd 3B       		.uleb128 0x3b
 3072 00ce 05       		.uleb128 0x5
 3073 00cf 27       		.uleb128 0x27
 3074 00d0 0C       		.uleb128 0xc
 3075 00d1 11       		.uleb128 0x11
 3076 00d2 01       		.uleb128 0x1
 3077 00d3 12       		.uleb128 0x12
 3078 00d4 01       		.uleb128 0x1
 3079 00d5 40       		.uleb128 0x40
 3080 00d6 06       		.uleb128 0x6
 3081 00d7 9642     		.uleb128 0x2116
 3082 00d9 0C       		.uleb128 0xc
 3083 00da 00       		.byte	0
 3084 00db 00       		.byte	0
 3085 00dc 12       		.uleb128 0x12
 3086 00dd 2E       		.uleb128 0x2e
 3087 00de 01       		.byte	0x1
 3088 00df 3F       		.uleb128 0x3f
 3089 00e0 0C       		.uleb128 0xc
 3090 00e1 03       		.uleb128 0x3
 3091 00e2 0E       		.uleb128 0xe
 3092 00e3 3A       		.uleb128 0x3a
 3093 00e4 0B       		.uleb128 0xb
 3094 00e5 3B       		.uleb128 0x3b
 3095 00e6 05       		.uleb128 0x5
 3096 00e7 27       		.uleb128 0x27
 3097 00e8 0C       		.uleb128 0xc
 3098 00e9 49       		.uleb128 0x49
 3099 00ea 13       		.uleb128 0x13
 3100 00eb 11       		.uleb128 0x11
 3101 00ec 01       		.uleb128 0x1
 3102 00ed 12       		.uleb128 0x12
 3103 00ee 01       		.uleb128 0x1
 3104 00ef 40       		.uleb128 0x40
 3105 00f0 06       		.uleb128 0x6
 3106 00f1 9742     		.uleb128 0x2117
 3107 00f3 0C       		.uleb128 0xc
 3108 00f4 01       		.uleb128 0x1
 3109 00f5 13       		.uleb128 0x13
ARM GAS  G:\Users\Jaxb\AppData\Local\Temp\cc904ymL.s 			page 64


 3110 00f6 00       		.byte	0
 3111 00f7 00       		.byte	0
 3112 00f8 13       		.uleb128 0x13
 3113 00f9 05       		.uleb128 0x5
 3114 00fa 00       		.byte	0
 3115 00fb 03       		.uleb128 0x3
 3116 00fc 0E       		.uleb128 0xe
 3117 00fd 3A       		.uleb128 0x3a
 3118 00fe 0B       		.uleb128 0xb
 3119 00ff 3B       		.uleb128 0x3b
 3120 0100 05       		.uleb128 0x5
 3121 0101 49       		.uleb128 0x49
 3122 0102 13       		.uleb128 0x13
 3123 0103 02       		.uleb128 0x2
 3124 0104 0A       		.uleb128 0xa
 3125 0105 00       		.byte	0
 3126 0106 00       		.byte	0
 3127 0107 14       		.uleb128 0x14
 3128 0108 2E       		.uleb128 0x2e
 3129 0109 01       		.byte	0x1
 3130 010a 3F       		.uleb128 0x3f
 3131 010b 0C       		.uleb128 0xc
 3132 010c 03       		.uleb128 0x3
 3133 010d 0E       		.uleb128 0xe
 3134 010e 3A       		.uleb128 0x3a
 3135 010f 0B       		.uleb128 0xb
 3136 0110 3B       		.uleb128 0x3b
 3137 0111 05       		.uleb128 0x5
 3138 0112 27       		.uleb128 0x27
 3139 0113 0C       		.uleb128 0xc
 3140 0114 49       		.uleb128 0x49
 3141 0115 13       		.uleb128 0x13
 3142 0116 11       		.uleb128 0x11
 3143 0117 01       		.uleb128 0x1
 3144 0118 12       		.uleb128 0x12
 3145 0119 01       		.uleb128 0x1
 3146 011a 40       		.uleb128 0x40
 3147 011b 06       		.uleb128 0x6
 3148 011c 9642     		.uleb128 0x2116
 3149 011e 0C       		.uleb128 0xc
 3150 011f 01       		.uleb128 0x1
 3151 0120 13       		.uleb128 0x13
 3152 0121 00       		.byte	0
 3153 0122 00       		.byte	0
 3154 0123 15       		.uleb128 0x15
 3155 0124 34       		.uleb128 0x34
 3156 0125 00       		.byte	0
 3157 0126 03       		.uleb128 0x3
 3158 0127 08       		.uleb128 0x8
 3159 0128 3A       		.uleb128 0x3a
 3160 0129 0B       		.uleb128 0xb
 3161 012a 3B       		.uleb128 0x3b
 3162 012b 05       		.uleb128 0x5
 3163 012c 49       		.uleb128 0x49
 3164 012d 13       		.uleb128 0x13
 3165 012e 02       		.uleb128 0x2
 3166 012f 0A       		.uleb128 0xa
ARM GAS  G:\Users\Jaxb\AppData\Local\Temp\cc904ymL.s 			page 65


 3167 0130 00       		.byte	0
 3168 0131 00       		.byte	0
 3169 0132 16       		.uleb128 0x16
 3170 0133 34       		.uleb128 0x34
 3171 0134 00       		.byte	0
 3172 0135 03       		.uleb128 0x3
 3173 0136 0E       		.uleb128 0xe
 3174 0137 3A       		.uleb128 0x3a
 3175 0138 0B       		.uleb128 0xb
 3176 0139 3B       		.uleb128 0x3b
 3177 013a 05       		.uleb128 0x5
 3178 013b 49       		.uleb128 0x49
 3179 013c 13       		.uleb128 0x13
 3180 013d 02       		.uleb128 0x2
 3181 013e 0A       		.uleb128 0xa
 3182 013f 00       		.byte	0
 3183 0140 00       		.byte	0
 3184 0141 17       		.uleb128 0x17
 3185 0142 2E       		.uleb128 0x2e
 3186 0143 01       		.byte	0x1
 3187 0144 3F       		.uleb128 0x3f
 3188 0145 0C       		.uleb128 0xc
 3189 0146 03       		.uleb128 0x3
 3190 0147 0E       		.uleb128 0xe
 3191 0148 3A       		.uleb128 0x3a
 3192 0149 0B       		.uleb128 0xb
 3193 014a 3B       		.uleb128 0x3b
 3194 014b 05       		.uleb128 0x5
 3195 014c 27       		.uleb128 0x27
 3196 014d 0C       		.uleb128 0xc
 3197 014e 11       		.uleb128 0x11
 3198 014f 01       		.uleb128 0x1
 3199 0150 12       		.uleb128 0x12
 3200 0151 01       		.uleb128 0x1
 3201 0152 40       		.uleb128 0x40
 3202 0153 06       		.uleb128 0x6
 3203 0154 9742     		.uleb128 0x2117
 3204 0156 0C       		.uleb128 0xc
 3205 0157 01       		.uleb128 0x1
 3206 0158 13       		.uleb128 0x13
 3207 0159 00       		.byte	0
 3208 015a 00       		.byte	0
 3209 015b 18       		.uleb128 0x18
 3210 015c 05       		.uleb128 0x5
 3211 015d 00       		.byte	0
 3212 015e 03       		.uleb128 0x3
 3213 015f 08       		.uleb128 0x8
 3214 0160 3A       		.uleb128 0x3a
 3215 0161 0B       		.uleb128 0xb
 3216 0162 3B       		.uleb128 0x3b
 3217 0163 05       		.uleb128 0x5
 3218 0164 49       		.uleb128 0x49
 3219 0165 13       		.uleb128 0x13
 3220 0166 02       		.uleb128 0x2
 3221 0167 0A       		.uleb128 0xa
 3222 0168 00       		.byte	0
 3223 0169 00       		.byte	0
ARM GAS  G:\Users\Jaxb\AppData\Local\Temp\cc904ymL.s 			page 66


 3224 016a 19       		.uleb128 0x19
 3225 016b 2E       		.uleb128 0x2e
 3226 016c 01       		.byte	0x1
 3227 016d 3F       		.uleb128 0x3f
 3228 016e 0C       		.uleb128 0xc
 3229 016f 03       		.uleb128 0x3
 3230 0170 0E       		.uleb128 0xe
 3231 0171 3A       		.uleb128 0x3a
 3232 0172 0B       		.uleb128 0xb
 3233 0173 3B       		.uleb128 0x3b
 3234 0174 0B       		.uleb128 0xb
 3235 0175 27       		.uleb128 0x27
 3236 0176 0C       		.uleb128 0xc
 3237 0177 49       		.uleb128 0x49
 3238 0178 13       		.uleb128 0x13
 3239 0179 11       		.uleb128 0x11
 3240 017a 01       		.uleb128 0x1
 3241 017b 12       		.uleb128 0x12
 3242 017c 01       		.uleb128 0x1
 3243 017d 40       		.uleb128 0x40
 3244 017e 06       		.uleb128 0x6
 3245 017f 9642     		.uleb128 0x2116
 3246 0181 0C       		.uleb128 0xc
 3247 0182 01       		.uleb128 0x1
 3248 0183 13       		.uleb128 0x13
 3249 0184 00       		.byte	0
 3250 0185 00       		.byte	0
 3251 0186 1A       		.uleb128 0x1a
 3252 0187 05       		.uleb128 0x5
 3253 0188 00       		.byte	0
 3254 0189 03       		.uleb128 0x3
 3255 018a 08       		.uleb128 0x8
 3256 018b 3A       		.uleb128 0x3a
 3257 018c 0B       		.uleb128 0xb
 3258 018d 3B       		.uleb128 0x3b
 3259 018e 0B       		.uleb128 0xb
 3260 018f 49       		.uleb128 0x49
 3261 0190 13       		.uleb128 0x13
 3262 0191 02       		.uleb128 0x2
 3263 0192 0A       		.uleb128 0xa
 3264 0193 00       		.byte	0
 3265 0194 00       		.byte	0
 3266 0195 1B       		.uleb128 0x1b
 3267 0196 18       		.uleb128 0x18
 3268 0197 00       		.byte	0
 3269 0198 00       		.byte	0
 3270 0199 00       		.byte	0
 3271 019a 1C       		.uleb128 0x1c
 3272 019b 34       		.uleb128 0x34
 3273 019c 00       		.byte	0
 3274 019d 03       		.uleb128 0x3
 3275 019e 08       		.uleb128 0x8
 3276 019f 3A       		.uleb128 0x3a
 3277 01a0 0B       		.uleb128 0xb
 3278 01a1 3B       		.uleb128 0x3b
 3279 01a2 0B       		.uleb128 0xb
 3280 01a3 49       		.uleb128 0x49
ARM GAS  G:\Users\Jaxb\AppData\Local\Temp\cc904ymL.s 			page 67


 3281 01a4 13       		.uleb128 0x13
 3282 01a5 02       		.uleb128 0x2
 3283 01a6 0A       		.uleb128 0xa
 3284 01a7 00       		.byte	0
 3285 01a8 00       		.byte	0
 3286 01a9 1D       		.uleb128 0x1d
 3287 01aa 34       		.uleb128 0x34
 3288 01ab 00       		.byte	0
 3289 01ac 03       		.uleb128 0x3
 3290 01ad 0E       		.uleb128 0xe
 3291 01ae 3A       		.uleb128 0x3a
 3292 01af 0B       		.uleb128 0xb
 3293 01b0 3B       		.uleb128 0x3b
 3294 01b1 0B       		.uleb128 0xb
 3295 01b2 49       		.uleb128 0x49
 3296 01b3 13       		.uleb128 0x13
 3297 01b4 02       		.uleb128 0x2
 3298 01b5 0A       		.uleb128 0xa
 3299 01b6 00       		.byte	0
 3300 01b7 00       		.byte	0
 3301 01b8 1E       		.uleb128 0x1e
 3302 01b9 2E       		.uleb128 0x2e
 3303 01ba 01       		.byte	0x1
 3304 01bb 3F       		.uleb128 0x3f
 3305 01bc 0C       		.uleb128 0xc
 3306 01bd 03       		.uleb128 0x3
 3307 01be 0E       		.uleb128 0xe
 3308 01bf 3A       		.uleb128 0x3a
 3309 01c0 0B       		.uleb128 0xb
 3310 01c1 3B       		.uleb128 0x3b
 3311 01c2 0B       		.uleb128 0xb
 3312 01c3 27       		.uleb128 0x27
 3313 01c4 0C       		.uleb128 0xc
 3314 01c5 11       		.uleb128 0x11
 3315 01c6 01       		.uleb128 0x1
 3316 01c7 12       		.uleb128 0x12
 3317 01c8 01       		.uleb128 0x1
 3318 01c9 40       		.uleb128 0x40
 3319 01ca 06       		.uleb128 0x6
 3320 01cb 9742     		.uleb128 0x2117
 3321 01cd 0C       		.uleb128 0xc
 3322 01ce 01       		.uleb128 0x1
 3323 01cf 13       		.uleb128 0x13
 3324 01d0 00       		.byte	0
 3325 01d1 00       		.byte	0
 3326 01d2 1F       		.uleb128 0x1f
 3327 01d3 05       		.uleb128 0x5
 3328 01d4 00       		.byte	0
 3329 01d5 03       		.uleb128 0x3
 3330 01d6 0E       		.uleb128 0xe
 3331 01d7 3A       		.uleb128 0x3a
 3332 01d8 0B       		.uleb128 0xb
 3333 01d9 3B       		.uleb128 0x3b
 3334 01da 0B       		.uleb128 0xb
 3335 01db 49       		.uleb128 0x49
 3336 01dc 13       		.uleb128 0x13
 3337 01dd 02       		.uleb128 0x2
ARM GAS  G:\Users\Jaxb\AppData\Local\Temp\cc904ymL.s 			page 68


 3338 01de 0A       		.uleb128 0xa
 3339 01df 00       		.byte	0
 3340 01e0 00       		.byte	0
 3341 01e1 20       		.uleb128 0x20
 3342 01e2 0B       		.uleb128 0xb
 3343 01e3 01       		.byte	0x1
 3344 01e4 11       		.uleb128 0x11
 3345 01e5 01       		.uleb128 0x1
 3346 01e6 12       		.uleb128 0x12
 3347 01e7 01       		.uleb128 0x1
 3348 01e8 00       		.byte	0
 3349 01e9 00       		.byte	0
 3350 01ea 21       		.uleb128 0x21
 3351 01eb 26       		.uleb128 0x26
 3352 01ec 00       		.byte	0
 3353 01ed 00       		.byte	0
 3354 01ee 00       		.byte	0
 3355 01ef 22       		.uleb128 0x22
 3356 01f0 2E       		.uleb128 0x2e
 3357 01f1 01       		.byte	0x1
 3358 01f2 3F       		.uleb128 0x3f
 3359 01f3 0C       		.uleb128 0xc
 3360 01f4 03       		.uleb128 0x3
 3361 01f5 0E       		.uleb128 0xe
 3362 01f6 3A       		.uleb128 0x3a
 3363 01f7 0B       		.uleb128 0xb
 3364 01f8 3B       		.uleb128 0x3b
 3365 01f9 0B       		.uleb128 0xb
 3366 01fa 27       		.uleb128 0x27
 3367 01fb 0C       		.uleb128 0xc
 3368 01fc 49       		.uleb128 0x49
 3369 01fd 13       		.uleb128 0x13
 3370 01fe 11       		.uleb128 0x11
 3371 01ff 01       		.uleb128 0x1
 3372 0200 12       		.uleb128 0x12
 3373 0201 01       		.uleb128 0x1
 3374 0202 40       		.uleb128 0x40
 3375 0203 06       		.uleb128 0x6
 3376 0204 9742     		.uleb128 0x2117
 3377 0206 0C       		.uleb128 0xc
 3378 0207 01       		.uleb128 0x1
 3379 0208 13       		.uleb128 0x13
 3380 0209 00       		.byte	0
 3381 020a 00       		.byte	0
 3382 020b 23       		.uleb128 0x23
 3383 020c 2E       		.uleb128 0x2e
 3384 020d 01       		.byte	0x1
 3385 020e 3F       		.uleb128 0x3f
 3386 020f 0C       		.uleb128 0xc
 3387 0210 03       		.uleb128 0x3
 3388 0211 0E       		.uleb128 0xe
 3389 0212 3A       		.uleb128 0x3a
 3390 0213 0B       		.uleb128 0xb
 3391 0214 3B       		.uleb128 0x3b
 3392 0215 0B       		.uleb128 0xb
 3393 0216 27       		.uleb128 0x27
 3394 0217 0C       		.uleb128 0xc
ARM GAS  G:\Users\Jaxb\AppData\Local\Temp\cc904ymL.s 			page 69


 3395 0218 11       		.uleb128 0x11
 3396 0219 01       		.uleb128 0x1
 3397 021a 12       		.uleb128 0x12
 3398 021b 01       		.uleb128 0x1
 3399 021c 40       		.uleb128 0x40
 3400 021d 06       		.uleb128 0x6
 3401 021e 9642     		.uleb128 0x2116
 3402 0220 0C       		.uleb128 0xc
 3403 0221 01       		.uleb128 0x1
 3404 0222 13       		.uleb128 0x13
 3405 0223 00       		.byte	0
 3406 0224 00       		.byte	0
 3407 0225 24       		.uleb128 0x24
 3408 0226 2E       		.uleb128 0x2e
 3409 0227 01       		.byte	0x1
 3410 0228 03       		.uleb128 0x3
 3411 0229 0E       		.uleb128 0xe
 3412 022a 3A       		.uleb128 0x3a
 3413 022b 0B       		.uleb128 0xb
 3414 022c 3B       		.uleb128 0x3b
 3415 022d 0B       		.uleb128 0xb
 3416 022e 27       		.uleb128 0x27
 3417 022f 0C       		.uleb128 0xc
 3418 0230 11       		.uleb128 0x11
 3419 0231 01       		.uleb128 0x1
 3420 0232 12       		.uleb128 0x12
 3421 0233 01       		.uleb128 0x1
 3422 0234 40       		.uleb128 0x40
 3423 0235 06       		.uleb128 0x6
 3424 0236 9642     		.uleb128 0x2116
 3425 0238 0C       		.uleb128 0xc
 3426 0239 01       		.uleb128 0x1
 3427 023a 13       		.uleb128 0x13
 3428 023b 00       		.byte	0
 3429 023c 00       		.byte	0
 3430 023d 25       		.uleb128 0x25
 3431 023e 2E       		.uleb128 0x2e
 3432 023f 01       		.byte	0x1
 3433 0240 3F       		.uleb128 0x3f
 3434 0241 0C       		.uleb128 0xc
 3435 0242 03       		.uleb128 0x3
 3436 0243 0E       		.uleb128 0xe
 3437 0244 3A       		.uleb128 0x3a
 3438 0245 0B       		.uleb128 0xb
 3439 0246 3B       		.uleb128 0x3b
 3440 0247 0B       		.uleb128 0xb
 3441 0248 27       		.uleb128 0x27
 3442 0249 0C       		.uleb128 0xc
 3443 024a 49       		.uleb128 0x49
 3444 024b 13       		.uleb128 0x13
 3445 024c 11       		.uleb128 0x11
 3446 024d 01       		.uleb128 0x1
 3447 024e 12       		.uleb128 0x12
 3448 024f 01       		.uleb128 0x1
 3449 0250 40       		.uleb128 0x40
 3450 0251 06       		.uleb128 0x6
 3451 0252 9742     		.uleb128 0x2117
ARM GAS  G:\Users\Jaxb\AppData\Local\Temp\cc904ymL.s 			page 70


 3452 0254 0C       		.uleb128 0xc
 3453 0255 00       		.byte	0
 3454 0256 00       		.byte	0
 3455 0257 00       		.byte	0
 3456              		.section	.debug_loc,"",%progbits
 3457              	.Ldebug_loc0:
 3458              	.LLST12:
 3459 0000 720B0000 		.4byte	.LFB41-.Ltext0
 3460 0004 740B0000 		.4byte	.LCFI71-.Ltext0
 3461 0008 0200     		.2byte	0x2
 3462 000a 7D       		.byte	0x7d
 3463 000b 00       		.sleb128 0
 3464 000c 740B0000 		.4byte	.LCFI71-.Ltext0
 3465 0010 760B0000 		.4byte	.LCFI72-.Ltext0
 3466 0014 0200     		.2byte	0x2
 3467 0016 7D       		.byte	0x7d
 3468 0017 08       		.sleb128 8
 3469 0018 760B0000 		.4byte	.LCFI72-.Ltext0
 3470 001c 7E0B0000 		.4byte	.LFE41-.Ltext0
 3471 0020 0200     		.2byte	0x2
 3472 0022 77       		.byte	0x77
 3473 0023 08       		.sleb128 8
 3474 0024 00000000 		.4byte	0
 3475 0028 00000000 		.4byte	0
 3476              	.LLST11:
 3477 002c 2C0B0000 		.4byte	.LFB40-.Ltext0
 3478 0030 2E0B0000 		.4byte	.LCFI65-.Ltext0
 3479 0034 0200     		.2byte	0x2
 3480 0036 7D       		.byte	0x7d
 3481 0037 00       		.sleb128 0
 3482 0038 2E0B0000 		.4byte	.LCFI65-.Ltext0
 3483 003c 300B0000 		.4byte	.LCFI66-.Ltext0
 3484 0040 0200     		.2byte	0x2
 3485 0042 7D       		.byte	0x7d
 3486 0043 04       		.sleb128 4
 3487 0044 300B0000 		.4byte	.LCFI66-.Ltext0
 3488 0048 320B0000 		.4byte	.LCFI67-.Ltext0
 3489 004c 0200     		.2byte	0x2
 3490 004e 7D       		.byte	0x7d
 3491 004f 10       		.sleb128 16
 3492 0050 320B0000 		.4byte	.LCFI67-.Ltext0
 3493 0054 6C0B0000 		.4byte	.LCFI68-.Ltext0
 3494 0058 0200     		.2byte	0x2
 3495 005a 77       		.byte	0x77
 3496 005b 10       		.sleb128 16
 3497 005c 6C0B0000 		.4byte	.LCFI68-.Ltext0
 3498 0060 6E0B0000 		.4byte	.LCFI69-.Ltext0
 3499 0064 0200     		.2byte	0x2
 3500 0066 77       		.byte	0x77
 3501 0067 04       		.sleb128 4
 3502 0068 6E0B0000 		.4byte	.LCFI69-.Ltext0
 3503 006c 700B0000 		.4byte	.LCFI70-.Ltext0
 3504 0070 0200     		.2byte	0x2
 3505 0072 7D       		.byte	0x7d
 3506 0073 04       		.sleb128 4
 3507 0074 700B0000 		.4byte	.LCFI70-.Ltext0
 3508 0078 720B0000 		.4byte	.LFE40-.Ltext0
ARM GAS  G:\Users\Jaxb\AppData\Local\Temp\cc904ymL.s 			page 71


 3509 007c 0200     		.2byte	0x2
 3510 007e 7D       		.byte	0x7d
 3511 007f 00       		.sleb128 0
 3512 0080 00000000 		.4byte	0
 3513 0084 00000000 		.4byte	0
 3514              	.LLST10:
 3515 0088 CA090000 		.4byte	.LFB39-.Ltext0
 3516 008c CC090000 		.4byte	.LCFI60-.Ltext0
 3517 0090 0200     		.2byte	0x2
 3518 0092 7D       		.byte	0x7d
 3519 0093 00       		.sleb128 0
 3520 0094 CC090000 		.4byte	.LCFI60-.Ltext0
 3521 0098 CE090000 		.4byte	.LCFI61-.Ltext0
 3522 009c 0200     		.2byte	0x2
 3523 009e 7D       		.byte	0x7d
 3524 009f 10       		.sleb128 16
 3525 00a0 CE090000 		.4byte	.LCFI61-.Ltext0
 3526 00a4 D0090000 		.4byte	.LCFI62-.Ltext0
 3527 00a8 0200     		.2byte	0x2
 3528 00aa 7D       		.byte	0x7d
 3529 00ab 30       		.sleb128 48
 3530 00ac D0090000 		.4byte	.LCFI62-.Ltext0
 3531 00b0 1E0B0000 		.4byte	.LCFI63-.Ltext0
 3532 00b4 0200     		.2byte	0x2
 3533 00b6 77       		.byte	0x77
 3534 00b7 30       		.sleb128 48
 3535 00b8 1E0B0000 		.4byte	.LCFI63-.Ltext0
 3536 00bc 200B0000 		.4byte	.LCFI64-.Ltext0
 3537 00c0 0200     		.2byte	0x2
 3538 00c2 77       		.byte	0x77
 3539 00c3 10       		.sleb128 16
 3540 00c4 200B0000 		.4byte	.LCFI64-.Ltext0
 3541 00c8 2C0B0000 		.4byte	.LFE39-.Ltext0
 3542 00cc 0200     		.2byte	0x2
 3543 00ce 7D       		.byte	0x7d
 3544 00cf 10       		.sleb128 16
 3545 00d0 00000000 		.4byte	0
 3546 00d4 00000000 		.4byte	0
 3547              	.LLST9:
 3548 00d8 3E090000 		.4byte	.LFB38-.Ltext0
 3549 00dc 40090000 		.4byte	.LCFI54-.Ltext0
 3550 00e0 0200     		.2byte	0x2
 3551 00e2 7D       		.byte	0x7d
 3552 00e3 00       		.sleb128 0
 3553 00e4 40090000 		.4byte	.LCFI54-.Ltext0
 3554 00e8 42090000 		.4byte	.LCFI55-.Ltext0
 3555 00ec 0200     		.2byte	0x2
 3556 00ee 7D       		.byte	0x7d
 3557 00ef 04       		.sleb128 4
 3558 00f0 42090000 		.4byte	.LCFI55-.Ltext0
 3559 00f4 44090000 		.4byte	.LCFI56-.Ltext0
 3560 00f8 0200     		.2byte	0x2
 3561 00fa 7D       		.byte	0x7d
 3562 00fb 18       		.sleb128 24
 3563 00fc 44090000 		.4byte	.LCFI56-.Ltext0
 3564 0100 C4090000 		.4byte	.LCFI57-.Ltext0
 3565 0104 0200     		.2byte	0x2
ARM GAS  G:\Users\Jaxb\AppData\Local\Temp\cc904ymL.s 			page 72


 3566 0106 77       		.byte	0x77
 3567 0107 18       		.sleb128 24
 3568 0108 C4090000 		.4byte	.LCFI57-.Ltext0
 3569 010c C6090000 		.4byte	.LCFI58-.Ltext0
 3570 0110 0200     		.2byte	0x2
 3571 0112 77       		.byte	0x77
 3572 0113 04       		.sleb128 4
 3573 0114 C6090000 		.4byte	.LCFI58-.Ltext0
 3574 0118 C8090000 		.4byte	.LCFI59-.Ltext0
 3575 011c 0200     		.2byte	0x2
 3576 011e 7D       		.byte	0x7d
 3577 011f 04       		.sleb128 4
 3578 0120 C8090000 		.4byte	.LCFI59-.Ltext0
 3579 0124 CA090000 		.4byte	.LFE38-.Ltext0
 3580 0128 0200     		.2byte	0x2
 3581 012a 7D       		.byte	0x7d
 3582 012b 00       		.sleb128 0
 3583 012c 00000000 		.4byte	0
 3584 0130 00000000 		.4byte	0
 3585              	.LLST8:
 3586 0134 04090000 		.4byte	.LFB37-.Ltext0
 3587 0138 06090000 		.4byte	.LCFI48-.Ltext0
 3588 013c 0200     		.2byte	0x2
 3589 013e 7D       		.byte	0x7d
 3590 013f 00       		.sleb128 0
 3591 0140 06090000 		.4byte	.LCFI48-.Ltext0
 3592 0144 08090000 		.4byte	.LCFI49-.Ltext0
 3593 0148 0200     		.2byte	0x2
 3594 014a 7D       		.byte	0x7d
 3595 014b 04       		.sleb128 4
 3596 014c 08090000 		.4byte	.LCFI49-.Ltext0
 3597 0150 0A090000 		.4byte	.LCFI50-.Ltext0
 3598 0154 0200     		.2byte	0x2
 3599 0156 7D       		.byte	0x7d
 3600 0157 10       		.sleb128 16
 3601 0158 0A090000 		.4byte	.LCFI50-.Ltext0
 3602 015c 38090000 		.4byte	.LCFI51-.Ltext0
 3603 0160 0200     		.2byte	0x2
 3604 0162 77       		.byte	0x77
 3605 0163 10       		.sleb128 16
 3606 0164 38090000 		.4byte	.LCFI51-.Ltext0
 3607 0168 3A090000 		.4byte	.LCFI52-.Ltext0
 3608 016c 0200     		.2byte	0x2
 3609 016e 77       		.byte	0x77
 3610 016f 04       		.sleb128 4
 3611 0170 3A090000 		.4byte	.LCFI52-.Ltext0
 3612 0174 3C090000 		.4byte	.LCFI53-.Ltext0
 3613 0178 0200     		.2byte	0x2
 3614 017a 7D       		.byte	0x7d
 3615 017b 04       		.sleb128 4
 3616 017c 3C090000 		.4byte	.LCFI53-.Ltext0
 3617 0180 3E090000 		.4byte	.LFE37-.Ltext0
 3618 0184 0200     		.2byte	0x2
 3619 0186 7D       		.byte	0x7d
 3620 0187 00       		.sleb128 0
 3621 0188 00000000 		.4byte	0
 3622 018c 00000000 		.4byte	0
ARM GAS  G:\Users\Jaxb\AppData\Local\Temp\cc904ymL.s 			page 73


 3623              	.LLST7:
 3624 0190 D0080000 		.4byte	.LFB36-.Ltext0
 3625 0194 D2080000 		.4byte	.LCFI42-.Ltext0
 3626 0198 0200     		.2byte	0x2
 3627 019a 7D       		.byte	0x7d
 3628 019b 00       		.sleb128 0
 3629 019c D2080000 		.4byte	.LCFI42-.Ltext0
 3630 01a0 D4080000 		.4byte	.LCFI43-.Ltext0
 3631 01a4 0200     		.2byte	0x2
 3632 01a6 7D       		.byte	0x7d
 3633 01a7 04       		.sleb128 4
 3634 01a8 D4080000 		.4byte	.LCFI43-.Ltext0
 3635 01ac D6080000 		.4byte	.LCFI44-.Ltext0
 3636 01b0 0200     		.2byte	0x2
 3637 01b2 7D       		.byte	0x7d
 3638 01b3 20       		.sleb128 32
 3639 01b4 D6080000 		.4byte	.LCFI44-.Ltext0
 3640 01b8 FE080000 		.4byte	.LCFI45-.Ltext0
 3641 01bc 0200     		.2byte	0x2
 3642 01be 77       		.byte	0x77
 3643 01bf 20       		.sleb128 32
 3644 01c0 FE080000 		.4byte	.LCFI45-.Ltext0
 3645 01c4 00090000 		.4byte	.LCFI46-.Ltext0
 3646 01c8 0200     		.2byte	0x2
 3647 01ca 77       		.byte	0x77
 3648 01cb 04       		.sleb128 4
 3649 01cc 00090000 		.4byte	.LCFI46-.Ltext0
 3650 01d0 02090000 		.4byte	.LCFI47-.Ltext0
 3651 01d4 0200     		.2byte	0x2
 3652 01d6 7D       		.byte	0x7d
 3653 01d7 04       		.sleb128 4
 3654 01d8 02090000 		.4byte	.LCFI47-.Ltext0
 3655 01dc 04090000 		.4byte	.LFE36-.Ltext0
 3656 01e0 0200     		.2byte	0x2
 3657 01e2 7D       		.byte	0x7d
 3658 01e3 00       		.sleb128 0
 3659 01e4 00000000 		.4byte	0
 3660 01e8 00000000 		.4byte	0
 3661              	.LLST6:
 3662 01ec 74080000 		.4byte	.LFB35-.Ltext0
 3663 01f0 76080000 		.4byte	.LCFI36-.Ltext0
 3664 01f4 0200     		.2byte	0x2
 3665 01f6 7D       		.byte	0x7d
 3666 01f7 00       		.sleb128 0
 3667 01f8 76080000 		.4byte	.LCFI36-.Ltext0
 3668 01fc 78080000 		.4byte	.LCFI37-.Ltext0
 3669 0200 0200     		.2byte	0x2
 3670 0202 7D       		.byte	0x7d
 3671 0203 04       		.sleb128 4
 3672 0204 78080000 		.4byte	.LCFI37-.Ltext0
 3673 0208 7A080000 		.4byte	.LCFI38-.Ltext0
 3674 020c 0200     		.2byte	0x2
 3675 020e 7D       		.byte	0x7d
 3676 020f 18       		.sleb128 24
 3677 0210 7A080000 		.4byte	.LCFI38-.Ltext0
 3678 0214 CA080000 		.4byte	.LCFI39-.Ltext0
 3679 0218 0200     		.2byte	0x2
ARM GAS  G:\Users\Jaxb\AppData\Local\Temp\cc904ymL.s 			page 74


 3680 021a 77       		.byte	0x77
 3681 021b 18       		.sleb128 24
 3682 021c CA080000 		.4byte	.LCFI39-.Ltext0
 3683 0220 CC080000 		.4byte	.LCFI40-.Ltext0
 3684 0224 0200     		.2byte	0x2
 3685 0226 77       		.byte	0x77
 3686 0227 04       		.sleb128 4
 3687 0228 CC080000 		.4byte	.LCFI40-.Ltext0
 3688 022c CE080000 		.4byte	.LCFI41-.Ltext0
 3689 0230 0200     		.2byte	0x2
 3690 0232 7D       		.byte	0x7d
 3691 0233 04       		.sleb128 4
 3692 0234 CE080000 		.4byte	.LCFI41-.Ltext0
 3693 0238 D0080000 		.4byte	.LFE35-.Ltext0
 3694 023c 0200     		.2byte	0x2
 3695 023e 7D       		.byte	0x7d
 3696 023f 00       		.sleb128 0
 3697 0240 00000000 		.4byte	0
 3698 0244 00000000 		.4byte	0
 3699              	.LLST5:
 3700 0248 3A010000 		.4byte	.LFB34-.Ltext0
 3701 024c 3C010000 		.4byte	.LCFI28-.Ltext0
 3702 0250 0200     		.2byte	0x2
 3703 0252 7D       		.byte	0x7d
 3704 0253 00       		.sleb128 0
 3705 0254 3C010000 		.4byte	.LCFI28-.Ltext0
 3706 0258 3E010000 		.4byte	.LCFI29-.Ltext0
 3707 025c 0200     		.2byte	0x2
 3708 025e 7D       		.byte	0x7d
 3709 025f 10       		.sleb128 16
 3710 0260 3E010000 		.4byte	.LCFI29-.Ltext0
 3711 0264 40010000 		.4byte	.LCFI30-.Ltext0
 3712 0268 0200     		.2byte	0x2
 3713 026a 7D       		.byte	0x7d
 3714 026b 1C       		.sleb128 28
 3715 026c 40010000 		.4byte	.LCFI30-.Ltext0
 3716 0270 42010000 		.4byte	.LCFI31-.Ltext0
 3717 0274 0300     		.2byte	0x3
 3718 0276 7D       		.byte	0x7d
 3719 0277 E000     		.sleb128 96
 3720 0279 42010000 		.4byte	.LCFI31-.Ltext0
 3721 027d 5E080000 		.4byte	.LCFI32-.Ltext0
 3722 0281 0300     		.2byte	0x3
 3723 0283 77       		.byte	0x77
 3724 0284 E000     		.sleb128 96
 3725 0286 5E080000 		.4byte	.LCFI32-.Ltext0
 3726 028a 60080000 		.4byte	.LCFI33-.Ltext0
 3727 028e 0200     		.2byte	0x2
 3728 0290 77       		.byte	0x77
 3729 0291 1C       		.sleb128 28
 3730 0292 60080000 		.4byte	.LCFI33-.Ltext0
 3731 0296 64080000 		.4byte	.LCFI34-.Ltext0
 3732 029a 0200     		.2byte	0x2
 3733 029c 7D       		.byte	0x7d
 3734 029d 1C       		.sleb128 28
 3735 029e 64080000 		.4byte	.LCFI34-.Ltext0
 3736 02a2 66080000 		.4byte	.LCFI35-.Ltext0
ARM GAS  G:\Users\Jaxb\AppData\Local\Temp\cc904ymL.s 			page 75


 3737 02a6 0200     		.2byte	0x2
 3738 02a8 7D       		.byte	0x7d
 3739 02a9 10       		.sleb128 16
 3740 02aa 66080000 		.4byte	.LCFI35-.Ltext0
 3741 02ae 74080000 		.4byte	.LFE34-.Ltext0
 3742 02b2 0200     		.2byte	0x2
 3743 02b4 7D       		.byte	0x7d
 3744 02b5 00       		.sleb128 0
 3745 02b6 00000000 		.4byte	0
 3746 02ba 00000000 		.4byte	0
 3747              	.LLST4:
 3748 02be B8000000 		.4byte	.LFB33-.Ltext0
 3749 02c2 BA000000 		.4byte	.LCFI22-.Ltext0
 3750 02c6 0200     		.2byte	0x2
 3751 02c8 7D       		.byte	0x7d
 3752 02c9 00       		.sleb128 0
 3753 02ca BA000000 		.4byte	.LCFI22-.Ltext0
 3754 02ce BC000000 		.4byte	.LCFI23-.Ltext0
 3755 02d2 0200     		.2byte	0x2
 3756 02d4 7D       		.byte	0x7d
 3757 02d5 04       		.sleb128 4
 3758 02d6 BC000000 		.4byte	.LCFI23-.Ltext0
 3759 02da BE000000 		.4byte	.LCFI24-.Ltext0
 3760 02de 0200     		.2byte	0x2
 3761 02e0 7D       		.byte	0x7d
 3762 02e1 30       		.sleb128 48
 3763 02e2 BE000000 		.4byte	.LCFI24-.Ltext0
 3764 02e6 34010000 		.4byte	.LCFI25-.Ltext0
 3765 02ea 0200     		.2byte	0x2
 3766 02ec 77       		.byte	0x77
 3767 02ed 30       		.sleb128 48
 3768 02ee 34010000 		.4byte	.LCFI25-.Ltext0
 3769 02f2 36010000 		.4byte	.LCFI26-.Ltext0
 3770 02f6 0200     		.2byte	0x2
 3771 02f8 77       		.byte	0x77
 3772 02f9 04       		.sleb128 4
 3773 02fa 36010000 		.4byte	.LCFI26-.Ltext0
 3774 02fe 38010000 		.4byte	.LCFI27-.Ltext0
 3775 0302 0200     		.2byte	0x2
 3776 0304 7D       		.byte	0x7d
 3777 0305 04       		.sleb128 4
 3778 0306 38010000 		.4byte	.LCFI27-.Ltext0
 3779 030a 3A010000 		.4byte	.LFE33-.Ltext0
 3780 030e 0200     		.2byte	0x2
 3781 0310 7D       		.byte	0x7d
 3782 0311 00       		.sleb128 0
 3783 0312 00000000 		.4byte	0
 3784 0316 00000000 		.4byte	0
 3785              	.LLST3:
 3786 031a 8C000000 		.4byte	.LFB32-.Ltext0
 3787 031e 8E000000 		.4byte	.LCFI16-.Ltext0
 3788 0322 0200     		.2byte	0x2
 3789 0324 7D       		.byte	0x7d
 3790 0325 00       		.sleb128 0
 3791 0326 8E000000 		.4byte	.LCFI16-.Ltext0
 3792 032a 90000000 		.4byte	.LCFI17-.Ltext0
 3793 032e 0200     		.2byte	0x2
ARM GAS  G:\Users\Jaxb\AppData\Local\Temp\cc904ymL.s 			page 76


 3794 0330 7D       		.byte	0x7d
 3795 0331 04       		.sleb128 4
 3796 0332 90000000 		.4byte	.LCFI17-.Ltext0
 3797 0336 92000000 		.4byte	.LCFI18-.Ltext0
 3798 033a 0200     		.2byte	0x2
 3799 033c 7D       		.byte	0x7d
 3800 033d 18       		.sleb128 24
 3801 033e 92000000 		.4byte	.LCFI18-.Ltext0
 3802 0342 B2000000 		.4byte	.LCFI19-.Ltext0
 3803 0346 0200     		.2byte	0x2
 3804 0348 77       		.byte	0x77
 3805 0349 18       		.sleb128 24
 3806 034a B2000000 		.4byte	.LCFI19-.Ltext0
 3807 034e B4000000 		.4byte	.LCFI20-.Ltext0
 3808 0352 0200     		.2byte	0x2
 3809 0354 77       		.byte	0x77
 3810 0355 04       		.sleb128 4
 3811 0356 B4000000 		.4byte	.LCFI20-.Ltext0
 3812 035a B6000000 		.4byte	.LCFI21-.Ltext0
 3813 035e 0200     		.2byte	0x2
 3814 0360 7D       		.byte	0x7d
 3815 0361 04       		.sleb128 4
 3816 0362 B6000000 		.4byte	.LCFI21-.Ltext0
 3817 0366 B8000000 		.4byte	.LFE32-.Ltext0
 3818 036a 0200     		.2byte	0x2
 3819 036c 7D       		.byte	0x7d
 3820 036d 00       		.sleb128 0
 3821 036e 00000000 		.4byte	0
 3822 0372 00000000 		.4byte	0
 3823              	.LLST2:
 3824 0376 58000000 		.4byte	.LFB31-.Ltext0
 3825 037a 5A000000 		.4byte	.LCFI11-.Ltext0
 3826 037e 0200     		.2byte	0x2
 3827 0380 7D       		.byte	0x7d
 3828 0381 00       		.sleb128 0
 3829 0382 5A000000 		.4byte	.LCFI11-.Ltext0
 3830 0386 5C000000 		.4byte	.LCFI12-.Ltext0
 3831 038a 0200     		.2byte	0x2
 3832 038c 7D       		.byte	0x7d
 3833 038d 08       		.sleb128 8
 3834 038e 5C000000 		.4byte	.LCFI12-.Ltext0
 3835 0392 5E000000 		.4byte	.LCFI13-.Ltext0
 3836 0396 0200     		.2byte	0x2
 3837 0398 7D       		.byte	0x7d
 3838 0399 10       		.sleb128 16
 3839 039a 5E000000 		.4byte	.LCFI13-.Ltext0
 3840 039e 88000000 		.4byte	.LCFI14-.Ltext0
 3841 03a2 0200     		.2byte	0x2
 3842 03a4 77       		.byte	0x77
 3843 03a5 10       		.sleb128 16
 3844 03a6 88000000 		.4byte	.LCFI14-.Ltext0
 3845 03aa 8A000000 		.4byte	.LCFI15-.Ltext0
 3846 03ae 0200     		.2byte	0x2
 3847 03b0 77       		.byte	0x77
 3848 03b1 08       		.sleb128 8
 3849 03b2 8A000000 		.4byte	.LCFI15-.Ltext0
 3850 03b6 8C000000 		.4byte	.LFE31-.Ltext0
ARM GAS  G:\Users\Jaxb\AppData\Local\Temp\cc904ymL.s 			page 77


 3851 03ba 0200     		.2byte	0x2
 3852 03bc 7D       		.byte	0x7d
 3853 03bd 08       		.sleb128 8
 3854 03be 00000000 		.4byte	0
 3855 03c2 00000000 		.4byte	0
 3856              	.LLST1:
 3857 03c6 30000000 		.4byte	.LFB30-.Ltext0
 3858 03ca 32000000 		.4byte	.LCFI6-.Ltext0
 3859 03ce 0200     		.2byte	0x2
 3860 03d0 7D       		.byte	0x7d
 3861 03d1 00       		.sleb128 0
 3862 03d2 32000000 		.4byte	.LCFI6-.Ltext0
 3863 03d6 34000000 		.4byte	.LCFI7-.Ltext0
 3864 03da 0200     		.2byte	0x2
 3865 03dc 7D       		.byte	0x7d
 3866 03dd 08       		.sleb128 8
 3867 03de 34000000 		.4byte	.LCFI7-.Ltext0
 3868 03e2 36000000 		.4byte	.LCFI8-.Ltext0
 3869 03e6 0200     		.2byte	0x2
 3870 03e8 7D       		.byte	0x7d
 3871 03e9 10       		.sleb128 16
 3872 03ea 36000000 		.4byte	.LCFI8-.Ltext0
 3873 03ee 54000000 		.4byte	.LCFI9-.Ltext0
 3874 03f2 0200     		.2byte	0x2
 3875 03f4 77       		.byte	0x77
 3876 03f5 10       		.sleb128 16
 3877 03f6 54000000 		.4byte	.LCFI9-.Ltext0
 3878 03fa 56000000 		.4byte	.LCFI10-.Ltext0
 3879 03fe 0200     		.2byte	0x2
 3880 0400 77       		.byte	0x77
 3881 0401 08       		.sleb128 8
 3882 0402 56000000 		.4byte	.LCFI10-.Ltext0
 3883 0406 58000000 		.4byte	.LFE30-.Ltext0
 3884 040a 0200     		.2byte	0x2
 3885 040c 7D       		.byte	0x7d
 3886 040d 08       		.sleb128 8
 3887 040e 00000000 		.4byte	0
 3888 0412 00000000 		.4byte	0
 3889              	.LLST0:
 3890 0416 00000000 		.4byte	.LFB29-.Ltext0
 3891 041a 02000000 		.4byte	.LCFI0-.Ltext0
 3892 041e 0200     		.2byte	0x2
 3893 0420 7D       		.byte	0x7d
 3894 0421 00       		.sleb128 0
 3895 0422 02000000 		.4byte	.LCFI0-.Ltext0
 3896 0426 04000000 		.4byte	.LCFI1-.Ltext0
 3897 042a 0200     		.2byte	0x2
 3898 042c 7D       		.byte	0x7d
 3899 042d 04       		.sleb128 4
 3900 042e 04000000 		.4byte	.LCFI1-.Ltext0
 3901 0432 06000000 		.4byte	.LCFI2-.Ltext0
 3902 0436 0200     		.2byte	0x2
 3903 0438 7D       		.byte	0x7d
 3904 0439 18       		.sleb128 24
 3905 043a 06000000 		.4byte	.LCFI2-.Ltext0
 3906 043e 2A000000 		.4byte	.LCFI3-.Ltext0
 3907 0442 0200     		.2byte	0x2
ARM GAS  G:\Users\Jaxb\AppData\Local\Temp\cc904ymL.s 			page 78


 3908 0444 77       		.byte	0x77
 3909 0445 18       		.sleb128 24
 3910 0446 2A000000 		.4byte	.LCFI3-.Ltext0
 3911 044a 2C000000 		.4byte	.LCFI4-.Ltext0
 3912 044e 0200     		.2byte	0x2
 3913 0450 77       		.byte	0x77
 3914 0451 04       		.sleb128 4
 3915 0452 2C000000 		.4byte	.LCFI4-.Ltext0
 3916 0456 2E000000 		.4byte	.LCFI5-.Ltext0
 3917 045a 0200     		.2byte	0x2
 3918 045c 7D       		.byte	0x7d
 3919 045d 04       		.sleb128 4
 3920 045e 2E000000 		.4byte	.LCFI5-.Ltext0
 3921 0462 30000000 		.4byte	.LFE29-.Ltext0
 3922 0466 0200     		.2byte	0x2
 3923 0468 7D       		.byte	0x7d
 3924 0469 00       		.sleb128 0
 3925 046a 00000000 		.4byte	0
 3926 046e 00000000 		.4byte	0
 3927              		.section	.debug_aranges,"",%progbits
 3928 0000 1C000000 		.4byte	0x1c
 3929 0004 0200     		.2byte	0x2
 3930 0006 00000000 		.4byte	.Ldebug_info0
 3931 000a 04       		.byte	0x4
 3932 000b 00       		.byte	0
 3933 000c 0000     		.2byte	0
 3934 000e 0000     		.2byte	0
 3935 0010 00000000 		.4byte	.Ltext0
 3936 0014 7E0B0000 		.4byte	.Letext0-.Ltext0
 3937 0018 00000000 		.4byte	0
 3938 001c 00000000 		.4byte	0
 3939              		.section	.debug_line,"",%progbits
 3940              	.Ldebug_line0:
 3941 0000 52030000 		.section	.debug_str,"MS",%progbits,1
 3941      02009601 
 3941      00000201 
 3941      FB0E0D00 
 3941      01010101 
 3942              	.LASF27:
 3943 0000 63686172 		.ascii	"char_ptr\000"
 3943      5F707472 
 3943      00
 3944              	.LASF42:
 3945 0009 725F7661 		.ascii	"r_val_l\000"
 3945      6C5F6C00 
 3946              	.LASF47:
 3947 0011 64657374 		.ascii	"dest\000"
 3947      00
 3948              	.LASF4:
 3949 0016 73686F72 		.ascii	"short int\000"
 3949      7420696E 
 3949      7400
 3950              	.LASF57:
 3951 0020 2E2E2F2E 		.ascii	"../../source/src/kernel/OS_LIB/myMicroLIB.c\000"
 3951      2E2F736F 
 3951      75726365 
 3951      2F737263 
ARM GAS  G:\Users\Jaxb\AppData\Local\Temp\cc904ymL.s 			page 79


 3951      2F6B6572 
 3952              	.LASF61:
 3953 004c 6D5F7075 		.ascii	"m_putstr\000"
 3953      74737472 
 3953      00
 3954              	.LASF54:
 3955 0055 73747269 		.ascii	"string\000"
 3955      6E6700
 3956              	.LASF7:
 3957 005c 5F5F7569 		.ascii	"__uint32_t\000"
 3957      6E743332 
 3957      5F7400
 3958              	.LASF46:
 3959 0067 6B615F6D 		.ascii	"ka_memcpy\000"
 3959      656D6370 
 3959      7900
 3960              	.LASF23:
 3961 0071 73747231 		.ascii	"str1\000"
 3961      00
 3962              	.LASF24:
 3963 0076 73747232 		.ascii	"str2\000"
 3963      00
 3964              	.LASF1:
 3965 007b 76615F6C 		.ascii	"va_list\000"
 3965      69737400 
 3966              	.LASF17:
 3967 0083 6B615F6D 		.ascii	"ka_module_symtab\000"
 3967      6F64756C 
 3967      655F7379 
 3967      6D746162 
 3967      00
 3968              	.LASF58:
 3969 0094 463A5C6B 		.ascii	"F:\\kaka\\KAKAOS\\C\\windows\\Project\\RVMDK\243\250"
 3969      616B615C 
 3969      4B414B41 
 3969      4F535C43 
 3969      5C77696E 
 3970 00bc 757635A3 		.ascii	"uv5\243\251\000"
 3970      A900
 3971              	.LASF9:
 3972 00c2 6C6F6E67 		.ascii	"long long int\000"
 3972      206C6F6E 
 3972      6720696E 
 3972      7400
 3973              	.LASF40:
 3974 00d0 76616C5F 		.ascii	"val_f\000"
 3974      6600
 3975              	.LASF16:
 3976 00d6 5F5F7661 		.ascii	"__va_list\000"
 3976      5F6C6973 
 3976      7400
 3977              	.LASF41:
 3978 00e0 76616C5F 		.ascii	"val_l\000"
 3978      6C00
 3979              	.LASF6:
 3980 00e6 6C6F6E67 		.ascii	"long int\000"
 3980      20696E74 
ARM GAS  G:\Users\Jaxb\AppData\Local\Temp\cc904ymL.s 			page 80


 3980      00
 3981              	.LASF55:
 3982 00ef 6B615F70 		.ascii	"ka_pow\000"
 3982      6F7700
 3983              	.LASF18:
 3984 00f6 61646472 		.ascii	"addr\000"
 3984      00
 3985              	.LASF60:
 3986 00fb 5F5F696E 		.ascii	"__init_my_micro_lib\000"
 3986      69745F6D 
 3986      795F6D69 
 3986      63726F5F 
 3986      6C696200 
 3987              	.LASF22:
 3988 010f 5F5F7274 		.ascii	"__rtmsym_ka_printf\000"
 3988      6D73796D 
 3988      5F6B615F 
 3988      7072696E 
 3988      746600
 3989              	.LASF19:
 3990 0122 6E616D65 		.ascii	"name\000"
 3990      00
 3991              	.LASF26:
 3992 0127 6B615F61 		.ascii	"ka_atof\000"
 3992      746F6600 
 3993              	.LASF31:
 3994 012f 6B615F61 		.ascii	"ka_atoi\000"
 3994      746F6900 
 3995              	.LASF3:
 3996 0137 756E7369 		.ascii	"unsigned char\000"
 3996      676E6564 
 3996      20636861 
 3996      7200
 3997              	.LASF2:
 3998 0145 7369676E 		.ascii	"signed char\000"
 3998      65642063 
 3998      68617200 
 3999              	.LASF10:
 4000 0151 6C6F6E67 		.ascii	"long long unsigned int\000"
 4000      206C6F6E 
 4000      6720756E 
 4000      7369676E 
 4000      65642069 
 4001              	.LASF12:
 4002 0168 75696E74 		.ascii	"uint32_t\000"
 4002      33325F74 
 4002      00
 4003              	.LASF11:
 4004 0171 756E7369 		.ascii	"unsigned int\000"
 4004      676E6564 
 4004      20696E74 
 4004      00
 4005              	.LASF43:
 4006 017e 76616C31 		.ascii	"val1\000"
 4006      00
 4007              	.LASF37:
 4008 0183 6B615F73 		.ascii	"ka_strncmp\000"
ARM GAS  G:\Users\Jaxb\AppData\Local\Temp\cc904ymL.s 			page 81


 4008      74726E63 
 4008      6D7000
 4009              	.LASF5:
 4010 018e 73686F72 		.ascii	"short unsigned int\000"
 4010      7420756E 
 4010      7369676E 
 4010      65642069 
 4010      6E7400
 4011              	.LASF53:
 4012 01a1 6B615F70 		.ascii	"ka_puts\000"
 4012      75747300 
 4013              	.LASF59:
 4014 01a9 5F5F6170 		.ascii	"__ap\000"
 4014      00
 4015              	.LASF20:
 4016 01ae 63686172 		.ascii	"char\000"
 4016      00
 4017              	.LASF38:
 4018 01b3 6B615F70 		.ascii	"ka_printf\000"
 4018      72696E74 
 4018      6600
 4019              	.LASF15:
 4020 01bd 494E5436 		.ascii	"INT64\000"
 4020      3400
 4021              	.LASF52:
 4022 01c3 6B615F73 		.ascii	"ka_strlen\000"
 4022      74726C65 
 4022      6E00
 4023              	.LASF32:
 4024 01cd 73747244 		.ascii	"strDest\000"
 4024      65737400 
 4025              	.LASF14:
 4026 01d5 53797374 		.ascii	"SystemCoreClock\000"
 4026      656D436F 
 4026      7265436C 
 4026      6F636B00 
 4027              	.LASF36:
 4028 01e5 62756666 		.ascii	"buffer\000"
 4028      657200
 4029              	.LASF44:
 4030 01ec 725F7661 		.ascii	"r_val1\000"
 4030      6C3100
 4031              	.LASF48:
 4032 01f3 70747231 		.ascii	"ptr1\000"
 4032      00
 4033              	.LASF8:
 4034 01f8 6C6F6E67 		.ascii	"long unsigned int\000"
 4034      20756E73 
 4034      69676E65 
 4034      6420696E 
 4034      7400
 4035              	.LASF49:
 4036 020a 70747232 		.ascii	"ptr2\000"
 4036      00
 4037              	.LASF28:
 4038 020f 7369676E 		.ascii	"sign\000"
 4038      00
ARM GAS  G:\Users\Jaxb\AppData\Local\Temp\cc904ymL.s 			page 82


 4039              	.LASF30:
 4040 0214 646F7562 		.ascii	"double\000"
 4040      6C6500
 4041              	.LASF21:
 4042 021b 5F5F7274 		.ascii	"__rtmsym_ka_printf_name\000"
 4042      6D73796D 
 4042      5F6B615F 
 4042      7072696E 
 4042      74665F6E 
 4043              	.LASF45:
 4044 0233 636F756E 		.ascii	"count\000"
 4044      7400
 4045              	.LASF35:
 4046 0239 6B615F6D 		.ascii	"ka_memset\000"
 4046      656D7365 
 4046      7400
 4047              	.LASF25:
 4048 0243 6B615F73 		.ascii	"ka_strcmp\000"
 4048      7472636D 
 4048      7000
 4049              	.LASF0:
 4050 024d 5F5F676E 		.ascii	"__gnuc_va_list\000"
 4050      75635F76 
 4050      615F6C69 
 4050      737400
 4051              	.LASF34:
 4052 025c 6B615F73 		.ascii	"ka_strcpy\000"
 4052      74726370 
 4052      7900
 4053              	.LASF56:
 4054 0266 474E5520 		.ascii	"GNU C11 7.3.1 20180622 (release) [ARM/embedded-7-br"
 4054      43313120 
 4054      372E332E 
 4054      31203230 
 4054      31383036 
 4055 0299 616E6368 		.ascii	"anch revision 261907] -mcpu=cortex-m3 -mthumb -mapc"
 4055      20726576 
 4055      6973696F 
 4055      6E203236 
 4055      31393037 
 4056 02cc 732D6672 		.ascii	"s-frame -mthumb-interwork -mcpu=cortex-m3 -mthumb -"
 4056      616D6520 
 4056      2D6D7468 
 4056      756D622D 
 4056      696E7465 
 4057 02ff 67647761 		.ascii	"gdwarf-2 -O0\000"
 4057      72662D32 
 4057      202D4F30 
 4057      00
 4058              	.LASF50:
 4059 030c 70747233 		.ascii	"ptr3\000"
 4059      00
 4060              	.LASF51:
 4061 0311 70747234 		.ascii	"ptr4\000"
 4061      00
 4062              	.LASF29:
 4063 0316 64697669 		.ascii	"divisor\000"
ARM GAS  G:\Users\Jaxb\AppData\Local\Temp\cc904ymL.s 			page 83


 4063      736F7200 
 4064              	.LASF13:
 4065 031e 49544D5F 		.ascii	"ITM_RxBuffer\000"
 4065      52784275 
 4065      66666572 
 4065      00
 4066              	.LASF39:
 4067 032b 725F7661 		.ascii	"r_val\000"
 4067      6C00
 4068              	.LASF33:
 4069 0331 73747253 		.ascii	"strSrc\000"
 4069      726300
 4070              		.ident	"GCC: (GNU Tools for Arm Embedded Processors 7-2018-q2-update) 7.3.1 20180622 (release) [AR
ARM GAS  G:\Users\Jaxb\AppData\Local\Temp\cc904ymL.s 			page 84


DEFINED SYMBOLS
                            *ABS*:00000000 myMicroLIB.c
G:\Users\Jaxb\AppData\Local\Temp\cc904ymL.s:15     .text:00000000 $t
G:\Users\Jaxb\AppData\Local\Temp\cc904ymL.s:22     .text:00000000 ka_pow
G:\Users\Jaxb\AppData\Local\Temp\cc904ymL.s:85     .text:00000030 m_putstr
G:\Users\Jaxb\AppData\Local\Temp\cc904ymL.s:139    .text:00000058 ka_puts
G:\Users\Jaxb\AppData\Local\Temp\cc904ymL.s:199    .text:0000008c ka_strlen
G:\Users\Jaxb\AppData\Local\Temp\cc904ymL.s:261    .text:000000b8 ka_memcpy
G:\Users\Jaxb\AppData\Local\Temp\cc904ymL.s:379    .rodata:00000000 $d
G:\Users\Jaxb\AppData\Local\Temp\cc904ymL.s:394    .text:0000013a ka_printf
G:\Users\Jaxb\AppData\Local\Temp\cc904ymL.s:452    .text:0000017c $d
G:\Users\Jaxb\AppData\Local\Temp\cc904ymL.s:536    .text:000002cc $t
G:\Users\Jaxb\AppData\Local\Temp\cc904ymL.s:964    .text:000005d4 $d
G:\Users\Jaxb\AppData\Local\Temp\cc904ymL.s:969    .text:000005e0 $t
G:\Users\Jaxb\AppData\Local\Temp\cc904ymL.s:1392   .text:00000868 $d
G:\Users\Jaxb\AppData\Local\Temp\cc904ymL.s:1403   .rodata.name:00000000 __rtmsym_ka_printf_name
G:\Users\Jaxb\AppData\Local\Temp\cc904ymL.s:1400   .rodata.name:00000000 $d
G:\Users\Jaxb\AppData\Local\Temp\cc904ymL.s:1410   .RTMSymTab:00000000 __rtmsym_ka_printf
G:\Users\Jaxb\AppData\Local\Temp\cc904ymL.s:1407   .RTMSymTab:00000000 $d
G:\Users\Jaxb\AppData\Local\Temp\cc904ymL.s:1414   .text:00000874 $t
G:\Users\Jaxb\AppData\Local\Temp\cc904ymL.s:1421   .text:00000874 ka_strncmp
G:\Users\Jaxb\AppData\Local\Temp\cc904ymL.s:1514   .text:000008d0 ka_memset
G:\Users\Jaxb\AppData\Local\Temp\cc904ymL.s:1580   .text:00000904 ka_strcpy
G:\Users\Jaxb\AppData\Local\Temp\cc904ymL.s:1650   .text:0000093e ka_atoi
G:\Users\Jaxb\AppData\Local\Temp\cc904ymL.s:1778   .text:000009ca ka_atof
G:\Users\Jaxb\AppData\Local\Temp\cc904ymL.s:1994   .text:00000b24 $d
G:\Users\Jaxb\AppData\Local\Temp\cc904ymL.s:1999   .text:00000b2c $t
G:\Users\Jaxb\AppData\Local\Temp\cc904ymL.s:2006   .text:00000b2c ka_strcmp
G:\Users\Jaxb\AppData\Local\Temp\cc904ymL.s:2085   .text:00000b72 __init_my_micro_lib

UNDEFINED SYMBOLS
ka_putchar
__aeabi_dcmplt
__aeabi_d2iz
__aeabi_i2d
__aeabi_dsub
__aeabi_dmul
__aeabi_ldivmod
_ASSERT
__aeabi_dadd
__aeabi_ddiv
init_malloc
