ARM GAS  G:\Users\Jaxb\AppData\Local\Temp\ccW59wSv.s 			page 1


   1              		.cpu cortex-m3
   2              		.eabi_attribute 20, 1
   3              		.eabi_attribute 21, 1
   4              		.eabi_attribute 23, 3
   5              		.eabi_attribute 24, 1
   6              		.eabi_attribute 25, 1
   7              		.eabi_attribute 26, 1
   8              		.eabi_attribute 30, 6
   9              		.eabi_attribute 34, 1
  10              		.eabi_attribute 18, 4
  11              		.file	"myMicroLIB.c"
  12              		.text
  13              	.Ltext0:
  14              		.cfi_sections	.debug_frame
  15              		.align	1
  16              		.global	ka_pow
  17              		.syntax unified
  18              		.thumb
  19              		.thumb_func
  20              		.fpu softvfp
  21              		.type	ka_pow, %function
  22              	ka_pow:
  23              	.LFB29:
  24              		.file 1 "../../source/src/kernel/OS_LIB/myMicroLIB.c"
   1:../../source/src/kernel/OS_LIB/myMicroLIB.c **** #include <stdarg.h>
   2:../../source/src/kernel/OS_LIB/myMicroLIB.c **** #include <bsp_usart.h>
   3:../../source/src/kernel/OS_LIB/myMicroLIB.c **** #include <myMicroLIB.h>
   4:../../source/src/kernel/OS_LIB/myMicroLIB.c **** #include <myassert.h>
   5:../../source/src/kernel/OS_LIB/myMicroLIB.c **** #include <kakaosstdint.h>
   6:../../source/src/kernel/OS_LIB/myMicroLIB.c **** #include <os_cpu.h>
   7:../../source/src/kernel/OS_LIB/myMicroLIB.c **** #include <export.h>
   8:../../source/src/kernel/OS_LIB/myMicroLIB.c **** 
   9:../../source/src/kernel/OS_LIB/myMicroLIB.c **** unsigned long ka_pow(int x,unsigned int y)
  10:../../source/src/kernel/OS_LIB/myMicroLIB.c **** {
  25              		.loc 1 10 0
  26              		.cfi_startproc
  27              		@ args = 0, pretend = 0, frame = 16
  28              		@ frame_needed = 1, uses_anonymous_args = 0
  29              		@ link register save eliminated.
  30 0000 80B4     		push	{r7}
  31              	.LCFI0:
  32              		.cfi_def_cfa_offset 4
  33              		.cfi_offset 7, -4
  34 0002 85B0     		sub	sp, sp, #20
  35              	.LCFI1:
  36              		.cfi_def_cfa_offset 24
  37 0004 00AF     		add	r7, sp, #0
  38              	.LCFI2:
  39              		.cfi_def_cfa_register 7
  40 0006 7860     		str	r0, [r7, #4]
  41 0008 3960     		str	r1, [r7]
  11:../../source/src/kernel/OS_LIB/myMicroLIB.c **** 	unsigned long sum = 1;
  42              		.loc 1 11 0
  43 000a 0123     		movs	r3, #1
  44 000c FB60     		str	r3, [r7, #12]
  12:../../source/src/kernel/OS_LIB/myMicroLIB.c **** 	while(y--)
  45              		.loc 1 12 0
ARM GAS  G:\Users\Jaxb\AppData\Local\Temp\ccW59wSv.s 			page 2


  46 000e 04E0     		b	.L2
  47              	.L3:
  13:../../source/src/kernel/OS_LIB/myMicroLIB.c **** 	{
  14:../../source/src/kernel/OS_LIB/myMicroLIB.c **** 		sum *= x;
  48              		.loc 1 14 0
  49 0010 7A68     		ldr	r2, [r7, #4]
  50 0012 FB68     		ldr	r3, [r7, #12]
  51 0014 02FB03F3 		mul	r3, r2, r3
  52 0018 FB60     		str	r3, [r7, #12]
  53              	.L2:
  12:../../source/src/kernel/OS_LIB/myMicroLIB.c **** 	while(y--)
  54              		.loc 1 12 0
  55 001a 3B68     		ldr	r3, [r7]
  56 001c 5A1E     		subs	r2, r3, #1
  57 001e 3A60     		str	r2, [r7]
  58 0020 002B     		cmp	r3, #0
  59 0022 F5D1     		bne	.L3
  15:../../source/src/kernel/OS_LIB/myMicroLIB.c **** 	}
  16:../../source/src/kernel/OS_LIB/myMicroLIB.c **** 	return sum;
  60              		.loc 1 16 0
  61 0024 FB68     		ldr	r3, [r7, #12]
  17:../../source/src/kernel/OS_LIB/myMicroLIB.c **** }
  62              		.loc 1 17 0
  63 0026 1846     		mov	r0, r3
  64 0028 1437     		adds	r7, r7, #20
  65              	.LCFI3:
  66              		.cfi_def_cfa_offset 4
  67 002a BD46     		mov	sp, r7
  68              	.LCFI4:
  69              		.cfi_def_cfa_register 13
  70              		@ sp needed
  71 002c 80BC     		pop	{r7}
  72              	.LCFI5:
  73              		.cfi_restore 7
  74              		.cfi_def_cfa_offset 0
  75 002e 7047     		bx	lr
  76              		.cfi_endproc
  77              	.LFE29:
  78              		.size	ka_pow, .-ka_pow
  79              		.align	1
  80              		.syntax unified
  81              		.thumb
  82              		.thumb_func
  83              		.fpu softvfp
  84              		.type	m_putstr, %function
  85              	m_putstr:
  86              	.LFB30:
  18:../../source/src/kernel/OS_LIB/myMicroLIB.c **** 
  19:../../source/src/kernel/OS_LIB/myMicroLIB.c **** static void m_putstr(const char *str)  
  20:../../source/src/kernel/OS_LIB/myMicroLIB.c **** {  
  87              		.loc 1 20 0
  88              		.cfi_startproc
  89              		@ args = 0, pretend = 0, frame = 8
  90              		@ frame_needed = 1, uses_anonymous_args = 0
  91 0030 80B5     		push	{r7, lr}
  92              	.LCFI6:
  93              		.cfi_def_cfa_offset 8
ARM GAS  G:\Users\Jaxb\AppData\Local\Temp\ccW59wSv.s 			page 3


  94              		.cfi_offset 7, -8
  95              		.cfi_offset 14, -4
  96 0032 82B0     		sub	sp, sp, #8
  97              	.LCFI7:
  98              		.cfi_def_cfa_offset 16
  99 0034 00AF     		add	r7, sp, #0
 100              	.LCFI8:
 101              		.cfi_def_cfa_register 7
 102 0036 7860     		str	r0, [r7, #4]
  21:../../source/src/kernel/OS_LIB/myMicroLIB.c ****     while(*str)  
 103              		.loc 1 21 0
 104 0038 06E0     		b	.L6
 105              	.L7:
  22:../../source/src/kernel/OS_LIB/myMicroLIB.c ****     {  
  23:../../source/src/kernel/OS_LIB/myMicroLIB.c ****         ka_putchar(*str++);  
 106              		.loc 1 23 0
 107 003a 7B68     		ldr	r3, [r7, #4]
 108 003c 5A1C     		adds	r2, r3, #1
 109 003e 7A60     		str	r2, [r7, #4]
 110 0040 1B78     		ldrb	r3, [r3]	@ zero_extendqisi2
 111 0042 1846     		mov	r0, r3
 112 0044 FFF7FEFF 		bl	ka_putchar
 113              	.L6:
  21:../../source/src/kernel/OS_LIB/myMicroLIB.c ****     while(*str)  
 114              		.loc 1 21 0
 115 0048 7B68     		ldr	r3, [r7, #4]
 116 004a 1B78     		ldrb	r3, [r3]	@ zero_extendqisi2
 117 004c 002B     		cmp	r3, #0
 118 004e F4D1     		bne	.L7
  24:../../source/src/kernel/OS_LIB/myMicroLIB.c ****     }
  25:../../source/src/kernel/OS_LIB/myMicroLIB.c **** }
 119              		.loc 1 25 0
 120 0050 00BF     		nop
 121 0052 0837     		adds	r7, r7, #8
 122              	.LCFI9:
 123              		.cfi_def_cfa_offset 8
 124 0054 BD46     		mov	sp, r7
 125              	.LCFI10:
 126              		.cfi_def_cfa_register 13
 127              		@ sp needed
 128 0056 80BD     		pop	{r7, pc}
 129              		.cfi_endproc
 130              	.LFE30:
 131              		.size	m_putstr, .-m_putstr
 132              		.align	1
 133              		.global	ka_puts
 134              		.syntax unified
 135              		.thumb
 136              		.thumb_func
 137              		.fpu softvfp
 138              		.type	ka_puts, %function
 139              	ka_puts:
 140              	.LFB31:
  26:../../source/src/kernel/OS_LIB/myMicroLIB.c **** 
  27:../../source/src/kernel/OS_LIB/myMicroLIB.c **** void ka_puts(const char *string)
  28:../../source/src/kernel/OS_LIB/myMicroLIB.c **** {
 141              		.loc 1 28 0
ARM GAS  G:\Users\Jaxb\AppData\Local\Temp\ccW59wSv.s 			page 4


 142              		.cfi_startproc
 143              		@ args = 0, pretend = 0, frame = 8
 144              		@ frame_needed = 1, uses_anonymous_args = 0
 145 0058 80B5     		push	{r7, lr}
 146              	.LCFI11:
 147              		.cfi_def_cfa_offset 8
 148              		.cfi_offset 7, -8
 149              		.cfi_offset 14, -4
 150 005a 82B0     		sub	sp, sp, #8
 151              	.LCFI12:
 152              		.cfi_def_cfa_offset 16
 153 005c 00AF     		add	r7, sp, #0
 154              	.LCFI13:
 155              		.cfi_def_cfa_register 7
 156 005e 7860     		str	r0, [r7, #4]
  29:../../source/src/kernel/OS_LIB/myMicroLIB.c **** 	while(*string)  
 157              		.loc 1 29 0
 158 0060 06E0     		b	.L9
 159              	.L10:
  30:../../source/src/kernel/OS_LIB/myMicroLIB.c ****     {  
  31:../../source/src/kernel/OS_LIB/myMicroLIB.c ****         ka_putchar(*string++);  
 160              		.loc 1 31 0
 161 0062 7B68     		ldr	r3, [r7, #4]
 162 0064 5A1C     		adds	r2, r3, #1
 163 0066 7A60     		str	r2, [r7, #4]
 164 0068 1B78     		ldrb	r3, [r3]	@ zero_extendqisi2
 165 006a 1846     		mov	r0, r3
 166 006c FFF7FEFF 		bl	ka_putchar
 167              	.L9:
  29:../../source/src/kernel/OS_LIB/myMicroLIB.c **** 	while(*string)  
 168              		.loc 1 29 0
 169 0070 7B68     		ldr	r3, [r7, #4]
 170 0072 1B78     		ldrb	r3, [r3]	@ zero_extendqisi2
 171 0074 002B     		cmp	r3, #0
 172 0076 F4D1     		bne	.L10
  32:../../source/src/kernel/OS_LIB/myMicroLIB.c ****     }
  33:../../source/src/kernel/OS_LIB/myMicroLIB.c ****     ka_putchar('\r');
 173              		.loc 1 33 0
 174 0078 0D20     		movs	r0, #13
 175 007a FFF7FEFF 		bl	ka_putchar
  34:../../source/src/kernel/OS_LIB/myMicroLIB.c ****     ka_putchar('\n');
 176              		.loc 1 34 0
 177 007e 0A20     		movs	r0, #10
 178 0080 FFF7FEFF 		bl	ka_putchar
  35:../../source/src/kernel/OS_LIB/myMicroLIB.c **** }
 179              		.loc 1 35 0
 180 0084 00BF     		nop
 181 0086 0837     		adds	r7, r7, #8
 182              	.LCFI14:
 183              		.cfi_def_cfa_offset 8
 184 0088 BD46     		mov	sp, r7
 185              	.LCFI15:
 186              		.cfi_def_cfa_register 13
 187              		@ sp needed
 188 008a 80BD     		pop	{r7, pc}
 189              		.cfi_endproc
 190              	.LFE31:
ARM GAS  G:\Users\Jaxb\AppData\Local\Temp\ccW59wSv.s 			page 5


 191              		.size	ka_puts, .-ka_puts
 192              		.align	1
 193              		.global	ka_strlen
 194              		.syntax unified
 195              		.thumb
 196              		.thumb_func
 197              		.fpu softvfp
 198              		.type	ka_strlen, %function
 199              	ka_strlen:
 200              	.LFB32:
  36:../../source/src/kernel/OS_LIB/myMicroLIB.c **** 
  37:../../source/src/kernel/OS_LIB/myMicroLIB.c **** unsigned int ka_strlen(const char *s)
  38:../../source/src/kernel/OS_LIB/myMicroLIB.c **** {
 201              		.loc 1 38 0
 202              		.cfi_startproc
 203              		@ args = 0, pretend = 0, frame = 16
 204              		@ frame_needed = 1, uses_anonymous_args = 0
 205              		@ link register save eliminated.
 206 008c 80B4     		push	{r7}
 207              	.LCFI16:
 208              		.cfi_def_cfa_offset 4
 209              		.cfi_offset 7, -4
 210 008e 85B0     		sub	sp, sp, #20
 211              	.LCFI17:
 212              		.cfi_def_cfa_offset 24
 213 0090 00AF     		add	r7, sp, #0
 214              	.LCFI18:
 215              		.cfi_def_cfa_register 7
 216 0092 7860     		str	r0, [r7, #4]
  39:../../source/src/kernel/OS_LIB/myMicroLIB.c **** 	unsigned int num = 0;
 217              		.loc 1 39 0
 218 0094 0023     		movs	r3, #0
 219 0096 FB60     		str	r3, [r7, #12]
  40:../../source/src/kernel/OS_LIB/myMicroLIB.c **** 	while('\0' != *s++)
 220              		.loc 1 40 0
 221 0098 02E0     		b	.L12
 222              	.L13:
  41:../../source/src/kernel/OS_LIB/myMicroLIB.c **** 	{
  42:../../source/src/kernel/OS_LIB/myMicroLIB.c **** 		++num;
 223              		.loc 1 42 0
 224 009a FB68     		ldr	r3, [r7, #12]
 225 009c 0133     		adds	r3, r3, #1
 226 009e FB60     		str	r3, [r7, #12]
 227              	.L12:
  40:../../source/src/kernel/OS_LIB/myMicroLIB.c **** 	while('\0' != *s++)
 228              		.loc 1 40 0
 229 00a0 7B68     		ldr	r3, [r7, #4]
 230 00a2 5A1C     		adds	r2, r3, #1
 231 00a4 7A60     		str	r2, [r7, #4]
 232 00a6 1B78     		ldrb	r3, [r3]	@ zero_extendqisi2
 233 00a8 002B     		cmp	r3, #0
 234 00aa F6D1     		bne	.L13
  43:../../source/src/kernel/OS_LIB/myMicroLIB.c **** 	}
  44:../../source/src/kernel/OS_LIB/myMicroLIB.c **** 	return num;
 235              		.loc 1 44 0
 236 00ac FB68     		ldr	r3, [r7, #12]
  45:../../source/src/kernel/OS_LIB/myMicroLIB.c **** }
ARM GAS  G:\Users\Jaxb\AppData\Local\Temp\ccW59wSv.s 			page 6


 237              		.loc 1 45 0
 238 00ae 1846     		mov	r0, r3
 239 00b0 1437     		adds	r7, r7, #20
 240              	.LCFI19:
 241              		.cfi_def_cfa_offset 4
 242 00b2 BD46     		mov	sp, r7
 243              	.LCFI20:
 244              		.cfi_def_cfa_register 13
 245              		@ sp needed
 246 00b4 80BC     		pop	{r7}
 247              	.LCFI21:
 248              		.cfi_restore 7
 249              		.cfi_def_cfa_offset 0
 250 00b6 7047     		bx	lr
 251              		.cfi_endproc
 252              	.LFE32:
 253              		.size	ka_strlen, .-ka_strlen
 254              		.align	1
 255              		.global	ka_memcpy
 256              		.syntax unified
 257              		.thumb
 258              		.thumb_func
 259              		.fpu softvfp
 260              		.type	ka_memcpy, %function
 261              	ka_memcpy:
 262              	.LFB33:
  46:../../source/src/kernel/OS_LIB/myMicroLIB.c **** 
  47:../../source/src/kernel/OS_LIB/myMicroLIB.c **** void ka_memcpy(void *dest, const void *src, int n)
  48:../../source/src/kernel/OS_LIB/myMicroLIB.c **** {
 263              		.loc 1 48 0
 264              		.cfi_startproc
 265              		@ args = 0, pretend = 0, frame = 40
 266              		@ frame_needed = 1, uses_anonymous_args = 0
 267              		@ link register save eliminated.
 268 00b8 80B4     		push	{r7}
 269              	.LCFI22:
 270              		.cfi_def_cfa_offset 4
 271              		.cfi_offset 7, -4
 272 00ba 8BB0     		sub	sp, sp, #44
 273              	.LCFI23:
 274              		.cfi_def_cfa_offset 48
 275 00bc 00AF     		add	r7, sp, #0
 276              	.LCFI24:
 277              		.cfi_def_cfa_register 7
 278 00be F860     		str	r0, [r7, #12]
 279 00c0 B960     		str	r1, [r7, #8]
 280 00c2 7A60     		str	r2, [r7, #4]
  49:../../source/src/kernel/OS_LIB/myMicroLIB.c **** 	int i;
  50:../../source/src/kernel/OS_LIB/myMicroLIB.c **** 	int *ptr1 = (int *)dest;
 281              		.loc 1 50 0
 282 00c4 FB68     		ldr	r3, [r7, #12]
 283 00c6 3B62     		str	r3, [r7, #32]
  51:../../source/src/kernel/OS_LIB/myMicroLIB.c **** 	const int *ptr2 = (const int *)src;
 284              		.loc 1 51 0
 285 00c8 BB68     		ldr	r3, [r7, #8]
 286 00ca FB61     		str	r3, [r7, #28]
  52:../../source/src/kernel/OS_LIB/myMicroLIB.c **** 	int num = n>>2;
ARM GAS  G:\Users\Jaxb\AppData\Local\Temp\ccW59wSv.s 			page 7


 287              		.loc 1 52 0
 288 00cc 7B68     		ldr	r3, [r7, #4]
 289 00ce 9B10     		asrs	r3, r3, #2
 290 00d0 3B61     		str	r3, [r7, #16]
  53:../../source/src/kernel/OS_LIB/myMicroLIB.c **** 	for(i=num-1;i>=0;--i)
 291              		.loc 1 53 0
 292 00d2 3B69     		ldr	r3, [r7, #16]
 293 00d4 013B     		subs	r3, r3, #1
 294 00d6 7B62     		str	r3, [r7, #36]
 295 00d8 0AE0     		b	.L16
 296              	.L17:
  54:../../source/src/kernel/OS_LIB/myMicroLIB.c **** 	{
  55:../../source/src/kernel/OS_LIB/myMicroLIB.c **** 		*ptr1++ = *ptr2++; /* from low to high*/
 297              		.loc 1 55 0 discriminator 3
 298 00da FA69     		ldr	r2, [r7, #28]
 299 00dc 131D     		adds	r3, r2, #4
 300 00de FB61     		str	r3, [r7, #28]
 301 00e0 3B6A     		ldr	r3, [r7, #32]
 302 00e2 191D     		adds	r1, r3, #4
 303 00e4 3962     		str	r1, [r7, #32]
 304 00e6 1268     		ldr	r2, [r2]
 305 00e8 1A60     		str	r2, [r3]
  53:../../source/src/kernel/OS_LIB/myMicroLIB.c **** 	for(i=num-1;i>=0;--i)
 306              		.loc 1 53 0 discriminator 3
 307 00ea 7B6A     		ldr	r3, [r7, #36]
 308 00ec 013B     		subs	r3, r3, #1
 309 00ee 7B62     		str	r3, [r7, #36]
 310              	.L16:
  53:../../source/src/kernel/OS_LIB/myMicroLIB.c **** 	for(i=num-1;i>=0;--i)
 311              		.loc 1 53 0 is_stmt 0 discriminator 1
 312 00f0 7B6A     		ldr	r3, [r7, #36]
 313 00f2 002B     		cmp	r3, #0
 314 00f4 F1DA     		bge	.L17
  56:../../source/src/kernel/OS_LIB/myMicroLIB.c **** 	}
  57:../../source/src/kernel/OS_LIB/myMicroLIB.c **** 	num = n & 3;
 315              		.loc 1 57 0 is_stmt 1
 316 00f6 7B68     		ldr	r3, [r7, #4]
 317 00f8 03F00303 		and	r3, r3, #3
 318 00fc 3B61     		str	r3, [r7, #16]
  58:../../source/src/kernel/OS_LIB/myMicroLIB.c **** 	if(num)
 319              		.loc 1 58 0
 320 00fe 3B69     		ldr	r3, [r7, #16]
 321 0100 002B     		cmp	r3, #0
 322 0102 15D0     		beq	.L21
 323              	.LBB2:
  59:../../source/src/kernel/OS_LIB/myMicroLIB.c **** 	{
  60:../../source/src/kernel/OS_LIB/myMicroLIB.c **** 		char *ptr3 = (char *)ptr1;
 324              		.loc 1 60 0
 325 0104 3B6A     		ldr	r3, [r7, #32]
 326 0106 BB61     		str	r3, [r7, #24]
  61:../../source/src/kernel/OS_LIB/myMicroLIB.c **** 		const char *ptr4 = (char *)ptr2;
 327              		.loc 1 61 0
 328 0108 FB69     		ldr	r3, [r7, #28]
 329 010a 7B61     		str	r3, [r7, #20]
  62:../../source/src/kernel/OS_LIB/myMicroLIB.c **** 		for(i=num-1;i>=0;--i)
 330              		.loc 1 62 0
 331 010c 3B69     		ldr	r3, [r7, #16]
ARM GAS  G:\Users\Jaxb\AppData\Local\Temp\ccW59wSv.s 			page 8


 332 010e 013B     		subs	r3, r3, #1
 333 0110 7B62     		str	r3, [r7, #36]
 334 0112 0AE0     		b	.L19
 335              	.L20:
  63:../../source/src/kernel/OS_LIB/myMicroLIB.c **** 		{
  64:../../source/src/kernel/OS_LIB/myMicroLIB.c **** 			*ptr3++ = *ptr4++;
 336              		.loc 1 64 0 discriminator 3
 337 0114 7A69     		ldr	r2, [r7, #20]
 338 0116 531C     		adds	r3, r2, #1
 339 0118 7B61     		str	r3, [r7, #20]
 340 011a BB69     		ldr	r3, [r7, #24]
 341 011c 591C     		adds	r1, r3, #1
 342 011e B961     		str	r1, [r7, #24]
 343 0120 1278     		ldrb	r2, [r2]	@ zero_extendqisi2
 344 0122 1A70     		strb	r2, [r3]
  62:../../source/src/kernel/OS_LIB/myMicroLIB.c **** 		for(i=num-1;i>=0;--i)
 345              		.loc 1 62 0 discriminator 3
 346 0124 7B6A     		ldr	r3, [r7, #36]
 347 0126 013B     		subs	r3, r3, #1
 348 0128 7B62     		str	r3, [r7, #36]
 349              	.L19:
  62:../../source/src/kernel/OS_LIB/myMicroLIB.c **** 		for(i=num-1;i>=0;--i)
 350              		.loc 1 62 0 is_stmt 0 discriminator 1
 351 012a 7B6A     		ldr	r3, [r7, #36]
 352 012c 002B     		cmp	r3, #0
 353 012e F1DA     		bge	.L20
 354              	.L21:
 355              	.LBE2:
  65:../../source/src/kernel/OS_LIB/myMicroLIB.c **** 		}
  66:../../source/src/kernel/OS_LIB/myMicroLIB.c **** 	}
  67:../../source/src/kernel/OS_LIB/myMicroLIB.c **** }
 356              		.loc 1 67 0 is_stmt 1
 357 0130 00BF     		nop
 358 0132 2C37     		adds	r7, r7, #44
 359              	.LCFI25:
 360              		.cfi_def_cfa_offset 4
 361 0134 BD46     		mov	sp, r7
 362              	.LCFI26:
 363              		.cfi_def_cfa_register 13
 364              		@ sp needed
 365 0136 80BC     		pop	{r7}
 366              	.LCFI27:
 367              		.cfi_restore 7
 368              		.cfi_def_cfa_offset 0
 369 0138 7047     		bx	lr
 370              		.cfi_endproc
 371              	.LFE33:
 372              		.size	ka_memcpy, .-ka_memcpy
 373              		.global	__aeabi_dcmplt
 374              		.global	__aeabi_d2iz
 375              		.global	__aeabi_i2d
 376              		.global	__aeabi_dsub
 377              		.global	__aeabi_dmul
 378              		.section	.rodata
 379              		.align	2
 380              	.LC0:
 381 0000 2E2E2F2E 		.ascii	"../../source/src/kernel/OS_LIB/myMicroLIB.c\000"
ARM GAS  G:\Users\Jaxb\AppData\Local\Temp\ccW59wSv.s 			page 9


 381      2E2F736F 
 381      75726365 
 381      2F737263 
 381      2F6B6572 
 382              		.align	2
 383              	.LC1:
 384 002c 30783030 		.ascii	"0x00\000"
 384      00
 385              		.text
 386              		.align	1
 387              		.global	ka_printf
 388              		.syntax unified
 389              		.thumb
 390              		.thumb_func
 391              		.fpu softvfp
 392              		.type	ka_printf, %function
 393              	ka_printf:
 394              	.LFB34:
  68:../../source/src/kernel/OS_LIB/myMicroLIB.c **** 
  69:../../source/src/kernel/OS_LIB/myMicroLIB.c **** 
  70:../../source/src/kernel/OS_LIB/myMicroLIB.c **** int ka_printf(const char *str,...)
  71:../../source/src/kernel/OS_LIB/myMicroLIB.c **** {
 395              		.loc 1 71 0
 396              		.cfi_startproc
 397              		@ args = 4, pretend = 16, frame = 64
 398              		@ frame_needed = 1, uses_anonymous_args = 1
 399 013a 0FB4     		push	{r0, r1, r2, r3}
 400              	.LCFI28:
 401              		.cfi_def_cfa_offset 16
 402              		.cfi_offset 0, -16
 403              		.cfi_offset 1, -12
 404              		.cfi_offset 2, -8
 405              		.cfi_offset 3, -4
 406 013c 90B5     		push	{r4, r7, lr}
 407              	.LCFI29:
 408              		.cfi_def_cfa_offset 28
 409              		.cfi_offset 4, -28
 410              		.cfi_offset 7, -24
 411              		.cfi_offset 14, -20
 412 013e 91B0     		sub	sp, sp, #68
 413              	.LCFI30:
 414              		.cfi_def_cfa_offset 96
 415 0140 00AF     		add	r7, sp, #0
 416              	.LCFI31:
 417              		.cfi_def_cfa_register 7
  72:../../source/src/kernel/OS_LIB/myMicroLIB.c **** 	va_list ap;
  73:../../source/src/kernel/OS_LIB/myMicroLIB.c **** 	int val,r_val;
  74:../../source/src/kernel/OS_LIB/myMicroLIB.c **** 	double val_f;
  75:../../source/src/kernel/OS_LIB/myMicroLIB.c **** 	long val_l,r_val_l;
  76:../../source/src/kernel/OS_LIB/myMicroLIB.c **** 	unsigned long val_l1,r_val_l1;
  77:../../source/src/kernel/OS_LIB/myMicroLIB.c **** 	unsigned int val1,r_val1;
  78:../../source/src/kernel/OS_LIB/myMicroLIB.c **** 	char count,ch;
  79:../../source/src/kernel/OS_LIB/myMicroLIB.c **** 	char *s = NULL;
 418              		.loc 1 79 0
 419 0142 0023     		movs	r3, #0
 420 0144 3B61     		str	r3, [r7, #16]
  80:../../source/src/kernel/OS_LIB/myMicroLIB.c **** 	int res = 0;
ARM GAS  G:\Users\Jaxb\AppData\Local\Temp\ccW59wSv.s 			page 10


 421              		.loc 1 80 0
 422 0146 0023     		movs	r3, #0
 423 0148 BB61     		str	r3, [r7, #24]
  81:../../source/src/kernel/OS_LIB/myMicroLIB.c **** 	int buffer;
  82:../../source/src/kernel/OS_LIB/myMicroLIB.c **** 	
  83:../../source/src/kernel/OS_LIB/myMicroLIB.c **** 	va_start(ap,str);
 424              		.loc 1 83 0
 425 014a 07F15403 		add	r3, r7, #84
 426 014e 3B60     		str	r3, [r7]
  84:../../source/src/kernel/OS_LIB/myMicroLIB.c **** 	while('\0' != *str)
 427              		.loc 1 84 0
 428 0150 00F05CBC 		b	.L23
 429              	.L108:
  85:../../source/src/kernel/OS_LIB/myMicroLIB.c **** 	{
  86:../../source/src/kernel/OS_LIB/myMicroLIB.c **** 		switch(*str)  
 430              		.loc 1 86 0
 431 0154 3B6D     		ldr	r3, [r7, #80]
 432 0156 1B78     		ldrb	r3, [r3]	@ zero_extendqisi2
 433 0158 0A2B     		cmp	r3, #10
 434 015a 00F04284 		beq	.L25
 435 015e 252B     		cmp	r3, #37
 436 0160 40F04984 		bne	.L111
  87:../../source/src/kernel/OS_LIB/myMicroLIB.c **** 	    { 
  88:../../source/src/kernel/OS_LIB/myMicroLIB.c **** 			case '%':
  89:../../source/src/kernel/OS_LIB/myMicroLIB.c **** 				str++;
 437              		.loc 1 89 0
 438 0164 3B6D     		ldr	r3, [r7, #80]
 439 0166 0133     		adds	r3, r3, #1
 440 0168 3B65     		str	r3, [r7, #80]
  90:../../source/src/kernel/OS_LIB/myMicroLIB.c **** 				switch(*str)  
 441              		.loc 1 90 0
 442 016a 3B6D     		ldr	r3, [r7, #80]
 443 016c 1B78     		ldrb	r3, [r3]	@ zero_extendqisi2
 444 016e 253B     		subs	r3, r3, #37
 445 0170 532B     		cmp	r3, #83
 446 0172 00F22C84 		bhi	.L27
 447 0176 01A2     		adr	r2, .L29
 448 0178 52F823F0 		ldr	pc, [r2, r3, lsl #2]
 449              		.p2align 2
 450              	.L29:
 451 017c 0D090000 		.word	.L28+1
 452 0180 CF090000 		.word	.L27+1
 453 0184 CF090000 		.word	.L27+1
 454 0188 CF090000 		.word	.L27+1
 455 018c CF090000 		.word	.L27+1
 456 0190 CF090000 		.word	.L27+1
 457 0194 CF090000 		.word	.L27+1
 458 0198 CF090000 		.word	.L27+1
 459 019c CF090000 		.word	.L27+1
 460 01a0 CF090000 		.word	.L27+1
 461 01a4 CF090000 		.word	.L27+1
 462 01a8 CF090000 		.word	.L27+1
 463 01ac CF090000 		.word	.L27+1
 464 01b0 CF090000 		.word	.L27+1
 465 01b4 CF090000 		.word	.L27+1
 466 01b8 CF090000 		.word	.L27+1
 467 01bc CF090000 		.word	.L27+1
ARM GAS  G:\Users\Jaxb\AppData\Local\Temp\ccW59wSv.s 			page 11


 468 01c0 CF090000 		.word	.L27+1
 469 01c4 CF090000 		.word	.L27+1
 470 01c8 CF090000 		.word	.L27+1
 471 01cc CF090000 		.word	.L27+1
 472 01d0 CF090000 		.word	.L27+1
 473 01d4 CF090000 		.word	.L27+1
 474 01d8 CF090000 		.word	.L27+1
 475 01dc CF090000 		.word	.L27+1
 476 01e0 CF090000 		.word	.L27+1
 477 01e4 CF090000 		.word	.L27+1
 478 01e8 CF090000 		.word	.L27+1
 479 01ec CF090000 		.word	.L27+1
 480 01f0 CF090000 		.word	.L27+1
 481 01f4 CF090000 		.word	.L27+1
 482 01f8 CF090000 		.word	.L27+1
 483 01fc CF090000 		.word	.L27+1
 484 0200 CF090000 		.word	.L27+1
 485 0204 CF090000 		.word	.L27+1
 486 0208 CF090000 		.word	.L27+1
 487 020c CF090000 		.word	.L27+1
 488 0210 CF090000 		.word	.L27+1
 489 0214 CF090000 		.word	.L27+1
 490 0218 CF090000 		.word	.L27+1
 491 021c CF090000 		.word	.L27+1
 492 0220 CF090000 		.word	.L27+1
 493 0224 CF090000 		.word	.L27+1
 494 0228 CF090000 		.word	.L27+1
 495 022c CF090000 		.word	.L27+1
 496 0230 CF090000 		.word	.L27+1
 497 0234 CF090000 		.word	.L27+1
 498 0238 CF090000 		.word	.L27+1
 499 023c CF090000 		.word	.L27+1
 500 0240 CF090000 		.word	.L27+1
 501 0244 CF090000 		.word	.L27+1
 502 0248 CF090000 		.word	.L27+1
 503 024c CF090000 		.word	.L27+1
 504 0250 CF090000 		.word	.L27+1
 505 0254 CF090000 		.word	.L27+1
 506 0258 CF090000 		.word	.L27+1
 507 025c CF090000 		.word	.L27+1
 508 0260 CF090000 		.word	.L27+1
 509 0264 CF090000 		.word	.L27+1
 510 0268 CF090000 		.word	.L27+1
 511 026c CF090000 		.word	.L27+1
 512 0270 CF090000 		.word	.L27+1
 513 0274 F5080000 		.word	.L30+1
 514 0278 CD020000 		.word	.L31+1
 515 027c CF090000 		.word	.L27+1
 516 0280 77030000 		.word	.L32+1
 517 0284 CF090000 		.word	.L27+1
 518 0288 CF090000 		.word	.L27+1
 519 028c CD020000 		.word	.L31+1
 520 0290 CF090000 		.word	.L27+1
 521 0294 CF090000 		.word	.L27+1
 522 0298 E5040000 		.word	.L33+1
 523 029c CF090000 		.word	.L27+1
 524 02a0 CF090000 		.word	.L27+1
ARM GAS  G:\Users\Jaxb\AppData\Local\Temp\ccW59wSv.s 			page 12


 525 02a4 95070000 		.word	.L34+1
 526 02a8 1B090000 		.word	.L35+1
 527 02ac CF090000 		.word	.L27+1
 528 02b0 CF090000 		.word	.L27+1
 529 02b4 D5080000 		.word	.L36+1
 530 02b8 CF090000 		.word	.L27+1
 531 02bc 01070000 		.word	.L37+1
 532 02c0 CF090000 		.word	.L27+1
 533 02c4 CF090000 		.word	.L27+1
 534 02c8 23080000 		.word	.L38+1
 535              		.p2align 1
 536              	.L31:
  91:../../source/src/kernel/OS_LIB/myMicroLIB.c **** 				{
  92:../../source/src/kernel/OS_LIB/myMicroLIB.c **** 					case 'i':
  93:../../source/src/kernel/OS_LIB/myMicroLIB.c **** 				 	case 'd': /* decimal*/
  94:../../source/src/kernel/OS_LIB/myMicroLIB.c **** 				 		val = va_arg(ap, int); 
 537              		.loc 1 94 0
 538 02cc 3B68     		ldr	r3, [r7]
 539 02ce 1A1D     		adds	r2, r3, #4
 540 02d0 3A60     		str	r2, [r7]
 541 02d2 1B68     		ldr	r3, [r3]
 542 02d4 FB63     		str	r3, [r7, #60]
  95:../../source/src/kernel/OS_LIB/myMicroLIB.c **** 				 		if(0 == val) 
 543              		.loc 1 95 0
 544 02d6 FB6B     		ldr	r3, [r7, #60]
 545 02d8 002B     		cmp	r3, #0
 546 02da 03D1     		bne	.L39
  96:../../source/src/kernel/OS_LIB/myMicroLIB.c **** 				 		{
  97:../../source/src/kernel/OS_LIB/myMicroLIB.c **** 				 			ka_putchar('0');
 547              		.loc 1 97 0
 548 02dc 3020     		movs	r0, #48
 549 02de FFF7FEFF 		bl	ka_putchar
  98:../../source/src/kernel/OS_LIB/myMicroLIB.c **** 				 			break;
 550              		.loc 1 98 0
 551 02e2 7DE3     		b	.L40
 552              	.L39:
  99:../../source/src/kernel/OS_LIB/myMicroLIB.c **** 				 		}
 100:../../source/src/kernel/OS_LIB/myMicroLIB.c **** 						if(val < 0)
 553              		.loc 1 100 0
 554 02e4 FB6B     		ldr	r3, [r7, #60]
 555 02e6 002B     		cmp	r3, #0
 556 02e8 05DA     		bge	.L41
 101:../../source/src/kernel/OS_LIB/myMicroLIB.c **** 						{
 102:../../source/src/kernel/OS_LIB/myMicroLIB.c **** 							ka_putchar('-');
 557              		.loc 1 102 0
 558 02ea 2D20     		movs	r0, #45
 559 02ec FFF7FEFF 		bl	ka_putchar
 103:../../source/src/kernel/OS_LIB/myMicroLIB.c **** 							val = -val;
 560              		.loc 1 103 0
 561 02f0 FB6B     		ldr	r3, [r7, #60]
 562 02f2 5B42     		negs	r3, r3
 563 02f4 FB63     		str	r3, [r7, #60]
 564              	.L41:
 104:../../source/src/kernel/OS_LIB/myMicroLIB.c **** 						}
 105:../../source/src/kernel/OS_LIB/myMicroLIB.c **** 	                    r_val = val;   
 565              		.loc 1 105 0
 566 02f6 FB6B     		ldr	r3, [r7, #60]
ARM GAS  G:\Users\Jaxb\AppData\Local\Temp\ccW59wSv.s 			page 13


 567 02f8 BB63     		str	r3, [r7, #56]
 106:../../source/src/kernel/OS_LIB/myMicroLIB.c **** 	                    count = 0;
 568              		.loc 1 106 0
 569 02fa 0023     		movs	r3, #0
 570 02fc FB77     		strb	r3, [r7, #31]
 107:../../source/src/kernel/OS_LIB/myMicroLIB.c **** 	                    while(r_val)
 571              		.loc 1 107 0
 572 02fe 0AE0     		b	.L42
 573              	.L43:
 108:../../source/src/kernel/OS_LIB/myMicroLIB.c **** 	                    {   
 109:../../source/src/kernel/OS_LIB/myMicroLIB.c **** 	                         count++;
 574              		.loc 1 109 0
 575 0300 FB7F     		ldrb	r3, [r7, #31]	@ zero_extendqisi2
 576 0302 0133     		adds	r3, r3, #1
 577 0304 FB77     		strb	r3, [r7, #31]
 110:../../source/src/kernel/OS_LIB/myMicroLIB.c **** 	                         r_val /= 10;  
 578              		.loc 1 110 0
 579 0306 BB6B     		ldr	r3, [r7, #56]
 580 0308 B04A     		ldr	r2, .L113
 581 030a 82FB0312 		smull	r1, r2, r2, r3
 582 030e 9210     		asrs	r2, r2, #2
 583 0310 DB17     		asrs	r3, r3, #31
 584 0312 D31A     		subs	r3, r2, r3
 585 0314 BB63     		str	r3, [r7, #56]
 586              	.L42:
 107:../../source/src/kernel/OS_LIB/myMicroLIB.c **** 	                    while(r_val)
 587              		.loc 1 107 0
 588 0316 BB6B     		ldr	r3, [r7, #56]
 589 0318 002B     		cmp	r3, #0
 590 031a F1D1     		bne	.L43
 111:../../source/src/kernel/OS_LIB/myMicroLIB.c **** 	                    } 
 112:../../source/src/kernel/OS_LIB/myMicroLIB.c **** 	                    res += count; 
 591              		.loc 1 112 0
 592 031c FB7F     		ldrb	r3, [r7, #31]	@ zero_extendqisi2
 593 031e BA69     		ldr	r2, [r7, #24]
 594 0320 1344     		add	r3, r3, r2
 595 0322 BB61     		str	r3, [r7, #24]
 113:../../source/src/kernel/OS_LIB/myMicroLIB.c **** 	                    r_val = val;  
 596              		.loc 1 113 0
 597 0324 FB6B     		ldr	r3, [r7, #60]
 598 0326 BB63     		str	r3, [r7, #56]
 114:../../source/src/kernel/OS_LIB/myMicroLIB.c **** 	                    while(count)  
 599              		.loc 1 114 0
 600 0328 21E0     		b	.L44
 601              	.L45:
 115:../../source/src/kernel/OS_LIB/myMicroLIB.c **** 	                    {   
 116:../../source/src/kernel/OS_LIB/myMicroLIB.c **** 	                          ch = r_val / ka_pow(10,count - 1);  
 602              		.loc 1 116 0
 603 032a BC6B     		ldr	r4, [r7, #56]
 604 032c FB7F     		ldrb	r3, [r7, #31]	@ zero_extendqisi2
 605 032e 013B     		subs	r3, r3, #1
 606 0330 1946     		mov	r1, r3
 607 0332 0A20     		movs	r0, #10
 608 0334 FFF7FEFF 		bl	ka_pow
 609 0338 0346     		mov	r3, r0
 610 033a B4FBF3F3 		udiv	r3, r4, r3
 611 033e FB73     		strb	r3, [r7, #15]
ARM GAS  G:\Users\Jaxb\AppData\Local\Temp\ccW59wSv.s 			page 14


 117:../../source/src/kernel/OS_LIB/myMicroLIB.c **** 	                          r_val %= ka_pow(10,count - 1); 
 612              		.loc 1 117 0
 613 0340 FB7F     		ldrb	r3, [r7, #31]	@ zero_extendqisi2
 614 0342 013B     		subs	r3, r3, #1
 615 0344 1946     		mov	r1, r3
 616 0346 0A20     		movs	r0, #10
 617 0348 FFF7FEFF 		bl	ka_pow
 618 034c 0246     		mov	r2, r0
 619 034e BB6B     		ldr	r3, [r7, #56]
 620 0350 B3FBF2F1 		udiv	r1, r3, r2
 621 0354 02FB01F2 		mul	r2, r2, r1
 622 0358 9B1A     		subs	r3, r3, r2
 623 035a BB63     		str	r3, [r7, #56]
 118:../../source/src/kernel/OS_LIB/myMicroLIB.c **** 	                          ka_putchar(ch + '0');
 624              		.loc 1 118 0
 625 035c FB7B     		ldrb	r3, [r7, #15]
 626 035e 3033     		adds	r3, r3, #48
 627 0360 DBB2     		uxtb	r3, r3
 628 0362 1846     		mov	r0, r3
 629 0364 FFF7FEFF 		bl	ka_putchar
 119:../../source/src/kernel/OS_LIB/myMicroLIB.c **** 	                          count--;  
 630              		.loc 1 119 0
 631 0368 FB7F     		ldrb	r3, [r7, #31]	@ zero_extendqisi2
 632 036a 013B     		subs	r3, r3, #1
 633 036c FB77     		strb	r3, [r7, #31]
 634              	.L44:
 114:../../source/src/kernel/OS_LIB/myMicroLIB.c **** 	                    {   
 635              		.loc 1 114 0
 636 036e FB7F     		ldrb	r3, [r7, #31]	@ zero_extendqisi2
 637 0370 002B     		cmp	r3, #0
 638 0372 DAD1     		bne	.L45
 120:../../source/src/kernel/OS_LIB/myMicroLIB.c **** 	                    }  
 121:../../source/src/kernel/OS_LIB/myMicroLIB.c **** 	                    break; 
 639              		.loc 1 121 0
 640 0374 34E3     		b	.L40
 641              	.L32:
 122:../../source/src/kernel/OS_LIB/myMicroLIB.c **** 
 123:../../source/src/kernel/OS_LIB/myMicroLIB.c **** 	                case 'f': /*float*/
 124:../../source/src/kernel/OS_LIB/myMicroLIB.c **** 	                	val_f = va_arg(ap, double);
 642              		.loc 1 124 0
 643 0376 3B68     		ldr	r3, [r7]
 644 0378 0733     		adds	r3, r3, #7
 645 037a 23F00703 		bic	r3, r3, #7
 646 037e 03F10802 		add	r2, r3, #8
 647 0382 3A60     		str	r2, [r7]
 648 0384 18CB     		ldmia	r3, {r3-r4}
 649 0386 C7E90C34 		strd	r3, [r7, #48]
 125:../../source/src/kernel/OS_LIB/myMicroLIB.c **** 	                	if(val_f < 0)
 650              		.loc 1 125 0
 651 038a 4FF00002 		mov	r2, #0
 652 038e 4FF00003 		mov	r3, #0
 653 0392 D7E90C01 		ldrd	r0, [r7, #48]
 654 0396 FFF7FEFF 		bl	__aeabi_dcmplt
 655              	.LVL0:
 656 039a 0346     		mov	r3, r0
 657 039c 002B     		cmp	r3, #0
 658 039e 08D0     		beq	.L46
ARM GAS  G:\Users\Jaxb\AppData\Local\Temp\ccW59wSv.s 			page 15


 126:../../source/src/kernel/OS_LIB/myMicroLIB.c **** 	                	{
 127:../../source/src/kernel/OS_LIB/myMicroLIB.c **** 	                		ka_putchar('-');
 659              		.loc 1 127 0
 660 03a0 2D20     		movs	r0, #45
 661 03a2 FFF7FEFF 		bl	ka_putchar
 128:../../source/src/kernel/OS_LIB/myMicroLIB.c **** 	                		val_f = -val_f;
 662              		.loc 1 128 0
 663 03a6 3B6B     		ldr	r3, [r7, #48]
 664 03a8 3B63     		str	r3, [r7, #48]
 665 03aa 7B6B     		ldr	r3, [r7, #52]
 666 03ac 83F00043 		eor	r3, r3, #-2147483648
 667 03b0 7B63     		str	r3, [r7, #52]
 668              	.L46:
 129:../../source/src/kernel/OS_LIB/myMicroLIB.c **** 	                	}
 130:../../source/src/kernel/OS_LIB/myMicroLIB.c **** 	                	val = (int)val_f;
 669              		.loc 1 130 0
 670 03b2 D7E90C01 		ldrd	r0, [r7, #48]
 671 03b6 FFF7FEFF 		bl	__aeabi_d2iz
 672              	.LVL1:
 673 03ba 0346     		mov	r3, r0
 674 03bc FB63     		str	r3, [r7, #60]
 131:../../source/src/kernel/OS_LIB/myMicroLIB.c **** 	                	val_f -= val;
 675              		.loc 1 131 0
 676 03be F86B     		ldr	r0, [r7, #60]
 677 03c0 FFF7FEFF 		bl	__aeabi_i2d
 678              	.LVL2:
 679 03c4 0346     		mov	r3, r0
 680 03c6 0C46     		mov	r4, r1
 681 03c8 1A46     		mov	r2, r3
 682 03ca 2346     		mov	r3, r4
 683 03cc D7E90C01 		ldrd	r0, [r7, #48]
 684 03d0 FFF7FEFF 		bl	__aeabi_dsub
 685              	.LVL3:
 686 03d4 0346     		mov	r3, r0
 687 03d6 0C46     		mov	r4, r1
 688 03d8 C7E90C34 		strd	r3, [r7, #48]
 132:../../source/src/kernel/OS_LIB/myMicroLIB.c **** 	                	if(0 == val) 
 689              		.loc 1 132 0
 690 03dc FB6B     		ldr	r3, [r7, #60]
 691 03de 002B     		cmp	r3, #0
 692 03e0 02D1     		bne	.L48
 133:../../source/src/kernel/OS_LIB/myMicroLIB.c **** 				 		{
 134:../../source/src/kernel/OS_LIB/myMicroLIB.c **** 				 			ka_putchar('0');
 693              		.loc 1 134 0
 694 03e2 3020     		movs	r0, #48
 695 03e4 FFF7FEFF 		bl	ka_putchar
 696              	.L48:
 135:../../source/src/kernel/OS_LIB/myMicroLIB.c **** 				 		} 
 136:../../source/src/kernel/OS_LIB/myMicroLIB.c **** 				 		r_val = val;   
 697              		.loc 1 136 0
 698 03e8 FB6B     		ldr	r3, [r7, #60]
 699 03ea BB63     		str	r3, [r7, #56]
 137:../../source/src/kernel/OS_LIB/myMicroLIB.c **** 	                    count = 0;
 700              		.loc 1 137 0
 701 03ec 0023     		movs	r3, #0
 702 03ee FB77     		strb	r3, [r7, #31]
 138:../../source/src/kernel/OS_LIB/myMicroLIB.c **** 	                    while(r_val)
ARM GAS  G:\Users\Jaxb\AppData\Local\Temp\ccW59wSv.s 			page 16


 703              		.loc 1 138 0
 704 03f0 0AE0     		b	.L49
 705              	.L50:
 139:../../source/src/kernel/OS_LIB/myMicroLIB.c **** 	                    {   
 140:../../source/src/kernel/OS_LIB/myMicroLIB.c **** 	                         count++;
 706              		.loc 1 140 0
 707 03f2 FB7F     		ldrb	r3, [r7, #31]	@ zero_extendqisi2
 708 03f4 0133     		adds	r3, r3, #1
 709 03f6 FB77     		strb	r3, [r7, #31]
 141:../../source/src/kernel/OS_LIB/myMicroLIB.c **** 	                         r_val /= 10;  
 710              		.loc 1 141 0
 711 03f8 BB6B     		ldr	r3, [r7, #56]
 712 03fa 744A     		ldr	r2, .L113
 713 03fc 82FB0312 		smull	r1, r2, r2, r3
 714 0400 9210     		asrs	r2, r2, #2
 715 0402 DB17     		asrs	r3, r3, #31
 716 0404 D31A     		subs	r3, r2, r3
 717 0406 BB63     		str	r3, [r7, #56]
 718              	.L49:
 138:../../source/src/kernel/OS_LIB/myMicroLIB.c **** 	                    while(r_val)
 719              		.loc 1 138 0
 720 0408 BB6B     		ldr	r3, [r7, #56]
 721 040a 002B     		cmp	r3, #0
 722 040c F1D1     		bne	.L50
 142:../../source/src/kernel/OS_LIB/myMicroLIB.c **** 	                    } 
 143:../../source/src/kernel/OS_LIB/myMicroLIB.c **** 	                    res += count; 
 723              		.loc 1 143 0
 724 040e FB7F     		ldrb	r3, [r7, #31]	@ zero_extendqisi2
 725 0410 BA69     		ldr	r2, [r7, #24]
 726 0412 1344     		add	r3, r3, r2
 727 0414 BB61     		str	r3, [r7, #24]
 144:../../source/src/kernel/OS_LIB/myMicroLIB.c **** 	                    r_val = val;  
 728              		.loc 1 144 0
 729 0416 FB6B     		ldr	r3, [r7, #60]
 730 0418 BB63     		str	r3, [r7, #56]
 145:../../source/src/kernel/OS_LIB/myMicroLIB.c **** 	                    while(count)  
 731              		.loc 1 145 0
 732 041a 21E0     		b	.L51
 733              	.L52:
 146:../../source/src/kernel/OS_LIB/myMicroLIB.c **** 	                    {   
 147:../../source/src/kernel/OS_LIB/myMicroLIB.c **** 	                          ch = r_val / ka_pow(10,count - 1);  
 734              		.loc 1 147 0
 735 041c BC6B     		ldr	r4, [r7, #56]
 736 041e FB7F     		ldrb	r3, [r7, #31]	@ zero_extendqisi2
 737 0420 013B     		subs	r3, r3, #1
 738 0422 1946     		mov	r1, r3
 739 0424 0A20     		movs	r0, #10
 740 0426 FFF7FEFF 		bl	ka_pow
 741 042a 0346     		mov	r3, r0
 742 042c B4FBF3F3 		udiv	r3, r4, r3
 743 0430 FB73     		strb	r3, [r7, #15]
 148:../../source/src/kernel/OS_LIB/myMicroLIB.c **** 	                          r_val %= ka_pow(10,count - 1); 
 744              		.loc 1 148 0
 745 0432 FB7F     		ldrb	r3, [r7, #31]	@ zero_extendqisi2
 746 0434 013B     		subs	r3, r3, #1
 747 0436 1946     		mov	r1, r3
 748 0438 0A20     		movs	r0, #10
ARM GAS  G:\Users\Jaxb\AppData\Local\Temp\ccW59wSv.s 			page 17


 749 043a FFF7FEFF 		bl	ka_pow
 750 043e 0246     		mov	r2, r0
 751 0440 BB6B     		ldr	r3, [r7, #56]
 752 0442 B3FBF2F1 		udiv	r1, r3, r2
 753 0446 02FB01F2 		mul	r2, r2, r1
 754 044a 9B1A     		subs	r3, r3, r2
 755 044c BB63     		str	r3, [r7, #56]
 149:../../source/src/kernel/OS_LIB/myMicroLIB.c **** 	                          ka_putchar(ch + '0');
 756              		.loc 1 149 0
 757 044e FB7B     		ldrb	r3, [r7, #15]
 758 0450 3033     		adds	r3, r3, #48
 759 0452 DBB2     		uxtb	r3, r3
 760 0454 1846     		mov	r0, r3
 761 0456 FFF7FEFF 		bl	ka_putchar
 150:../../source/src/kernel/OS_LIB/myMicroLIB.c **** 	                          count--;  
 762              		.loc 1 150 0
 763 045a FB7F     		ldrb	r3, [r7, #31]	@ zero_extendqisi2
 764 045c 013B     		subs	r3, r3, #1
 765 045e FB77     		strb	r3, [r7, #31]
 766              	.L51:
 145:../../source/src/kernel/OS_LIB/myMicroLIB.c **** 	                    {   
 767              		.loc 1 145 0
 768 0460 FB7F     		ldrb	r3, [r7, #31]	@ zero_extendqisi2
 769 0462 002B     		cmp	r3, #0
 770 0464 DAD1     		bne	.L52
 151:../../source/src/kernel/OS_LIB/myMicroLIB.c **** 	                    }
 152:../../source/src/kernel/OS_LIB/myMicroLIB.c **** 	                    /* the upper is integer part*/
 153:../../source/src/kernel/OS_LIB/myMicroLIB.c **** 	                    ka_putchar('.');
 771              		.loc 1 153 0
 772 0466 2E20     		movs	r0, #46
 773 0468 FFF7FEFF 		bl	ka_putchar
 154:../../source/src/kernel/OS_LIB/myMicroLIB.c **** 	                    /*the following is decimal part*/
 155:../../source/src/kernel/OS_LIB/myMicroLIB.c **** 	                    count = 6+1;
 774              		.loc 1 155 0
 775 046c 0723     		movs	r3, #7
 776 046e FB77     		strb	r3, [r7, #31]
 156:../../source/src/kernel/OS_LIB/myMicroLIB.c **** 	                    while(--count)
 777              		.loc 1 156 0
 778 0470 31E0     		b	.L53
 779              	.L56:
 157:../../source/src/kernel/OS_LIB/myMicroLIB.c **** 	                    {
 158:../../source/src/kernel/OS_LIB/myMicroLIB.c **** 	                    	val_f *= 10;
 780              		.loc 1 158 0
 781 0472 4FF00002 		mov	r2, #0
 782 0476 564B     		ldr	r3, .L113+4
 783 0478 D7E90C01 		ldrd	r0, [r7, #48]
 784 047c FFF7FEFF 		bl	__aeabi_dmul
 785              	.LVL4:
 786 0480 0346     		mov	r3, r0
 787 0482 0C46     		mov	r4, r1
 788 0484 C7E90C34 		strd	r3, [r7, #48]
 159:../../source/src/kernel/OS_LIB/myMicroLIB.c **** 	                    	val = (int)val_f;
 789              		.loc 1 159 0
 790 0488 D7E90C01 		ldrd	r0, [r7, #48]
 791 048c FFF7FEFF 		bl	__aeabi_d2iz
 792              	.LVL5:
 793 0490 0346     		mov	r3, r0
ARM GAS  G:\Users\Jaxb\AppData\Local\Temp\ccW59wSv.s 			page 18


 794 0492 FB63     		str	r3, [r7, #60]
 160:../../source/src/kernel/OS_LIB/myMicroLIB.c **** 	                    	ASSERT(val<10 && val>-10);
 795              		.loc 1 160 0
 796 0494 FB6B     		ldr	r3, [r7, #60]
 797 0496 092B     		cmp	r3, #9
 798 0498 03DC     		bgt	.L54
 799              		.loc 1 160 0 is_stmt 0 discriminator 1
 800 049a FB6B     		ldr	r3, [r7, #60]
 801 049c 13F1090F 		cmn	r3, #9
 802 04a0 03DA     		bge	.L55
 803              	.L54:
 804              		.loc 1 160 0 discriminator 3
 805 04a2 A021     		movs	r1, #160
 806 04a4 4B48     		ldr	r0, .L113+8
 807 04a6 FFF7FEFF 		bl	_ASSERT
 808              	.L55:
 161:../../source/src/kernel/OS_LIB/myMicroLIB.c **** 	                    	ka_putchar(val + '0');
 809              		.loc 1 161 0 is_stmt 1
 810 04aa FB6B     		ldr	r3, [r7, #60]
 811 04ac DBB2     		uxtb	r3, r3
 812 04ae 3033     		adds	r3, r3, #48
 813 04b0 DBB2     		uxtb	r3, r3
 814 04b2 1846     		mov	r0, r3
 815 04b4 FFF7FEFF 		bl	ka_putchar
 162:../../source/src/kernel/OS_LIB/myMicroLIB.c **** 							val_f -= val;
 816              		.loc 1 162 0
 817 04b8 F86B     		ldr	r0, [r7, #60]
 818 04ba FFF7FEFF 		bl	__aeabi_i2d
 819              	.LVL6:
 820 04be 0346     		mov	r3, r0
 821 04c0 0C46     		mov	r4, r1
 822 04c2 1A46     		mov	r2, r3
 823 04c4 2346     		mov	r3, r4
 824 04c6 D7E90C01 		ldrd	r0, [r7, #48]
 825 04ca FFF7FEFF 		bl	__aeabi_dsub
 826              	.LVL7:
 827 04ce 0346     		mov	r3, r0
 828 04d0 0C46     		mov	r4, r1
 829 04d2 C7E90C34 		strd	r3, [r7, #48]
 830              	.L53:
 156:../../source/src/kernel/OS_LIB/myMicroLIB.c **** 	                    {
 831              		.loc 1 156 0
 832 04d6 FB7F     		ldrb	r3, [r7, #31]
 833 04d8 013B     		subs	r3, r3, #1
 834 04da FB77     		strb	r3, [r7, #31]
 835 04dc FB7F     		ldrb	r3, [r7, #31]	@ zero_extendqisi2
 836 04de 002B     		cmp	r3, #0
 837 04e0 C7D1     		bne	.L56
 163:../../source/src/kernel/OS_LIB/myMicroLIB.c **** 	                    }
 164:../../source/src/kernel/OS_LIB/myMicroLIB.c **** 	                    break ;
 838              		.loc 1 164 0
 839 04e2 7DE2     		b	.L40
 840              	.L33:
 165:../../source/src/kernel/OS_LIB/myMicroLIB.c **** 
 166:../../source/src/kernel/OS_LIB/myMicroLIB.c **** 	                case 'l': /* decimal*/
 167:../../source/src/kernel/OS_LIB/myMicroLIB.c **** 	                	++str;
 841              		.loc 1 167 0
ARM GAS  G:\Users\Jaxb\AppData\Local\Temp\ccW59wSv.s 			page 19


 842 04e4 3B6D     		ldr	r3, [r7, #80]
 843 04e6 0133     		adds	r3, r3, #1
 844 04e8 3B65     		str	r3, [r7, #80]
 168:../../source/src/kernel/OS_LIB/myMicroLIB.c **** 	                	switch(*str)
 845              		.loc 1 168 0
 846 04ea 3B6D     		ldr	r3, [r7, #80]
 847 04ec 1B78     		ldrb	r3, [r3]	@ zero_extendqisi2
 848 04ee 752B     		cmp	r3, #117
 849 04f0 5AD0     		beq	.L58
 850 04f2 782B     		cmp	r3, #120
 851 04f4 00F0A980 		beq	.L59
 852 04f8 642B     		cmp	r3, #100
 853 04fa 40F0F780 		bne	.L112
 169:../../source/src/kernel/OS_LIB/myMicroLIB.c **** 	                	{
 170:../../source/src/kernel/OS_LIB/myMicroLIB.c **** 	                		case 'd':
 171:../../source/src/kernel/OS_LIB/myMicroLIB.c **** 		                		val_l = va_arg(ap, long); 
 854              		.loc 1 171 0
 855 04fe 3B68     		ldr	r3, [r7]
 856 0500 1A1D     		adds	r2, r3, #4
 857 0502 3A60     		str	r2, [r7]
 858 0504 1B68     		ldr	r3, [r3]
 859 0506 FB62     		str	r3, [r7, #44]
 172:../../source/src/kernel/OS_LIB/myMicroLIB.c **** 						 		if(0 == val_l) 
 860              		.loc 1 172 0
 861 0508 FB6A     		ldr	r3, [r7, #44]
 862 050a 002B     		cmp	r3, #0
 863 050c 03D1     		bne	.L61
 173:../../source/src/kernel/OS_LIB/myMicroLIB.c **** 						 		{
 174:../../source/src/kernel/OS_LIB/myMicroLIB.c **** 						 			ka_putchar('0');
 864              		.loc 1 174 0
 865 050e 3020     		movs	r0, #48
 866 0510 FFF7FEFF 		bl	ka_putchar
 175:../../source/src/kernel/OS_LIB/myMicroLIB.c **** 						 			break;
 867              		.loc 1 175 0
 868 0514 F3E0     		b	.L62
 869              	.L61:
 176:../../source/src/kernel/OS_LIB/myMicroLIB.c **** 						 		} 
 177:../../source/src/kernel/OS_LIB/myMicroLIB.c **** 						 		if(val_l < 0)
 870              		.loc 1 177 0
 871 0516 FB6A     		ldr	r3, [r7, #44]
 872 0518 002B     		cmp	r3, #0
 873 051a 05DA     		bge	.L63
 178:../../source/src/kernel/OS_LIB/myMicroLIB.c **** 						 		{
 179:../../source/src/kernel/OS_LIB/myMicroLIB.c **** 						 			val_l = -val_l;
 874              		.loc 1 179 0
 875 051c FB6A     		ldr	r3, [r7, #44]
 876 051e 5B42     		negs	r3, r3
 877 0520 FB62     		str	r3, [r7, #44]
 180:../../source/src/kernel/OS_LIB/myMicroLIB.c **** 						 			ka_putchar('-');
 878              		.loc 1 180 0
 879 0522 2D20     		movs	r0, #45
 880 0524 FFF7FEFF 		bl	ka_putchar
 881              	.L63:
 181:../../source/src/kernel/OS_LIB/myMicroLIB.c **** 						 		}
 182:../../source/src/kernel/OS_LIB/myMicroLIB.c **** 			                    r_val_l = val_l;   
 882              		.loc 1 182 0
 883 0528 FB6A     		ldr	r3, [r7, #44]
ARM GAS  G:\Users\Jaxb\AppData\Local\Temp\ccW59wSv.s 			page 20


 884 052a BB62     		str	r3, [r7, #40]
 183:../../source/src/kernel/OS_LIB/myMicroLIB.c **** 			                    count = 0;
 885              		.loc 1 183 0
 886 052c 0023     		movs	r3, #0
 887 052e FB77     		strb	r3, [r7, #31]
 184:../../source/src/kernel/OS_LIB/myMicroLIB.c **** 			                    while(r_val_l)
 888              		.loc 1 184 0
 889 0530 0AE0     		b	.L64
 890              	.L65:
 185:../../source/src/kernel/OS_LIB/myMicroLIB.c **** 			                    {   
 186:../../source/src/kernel/OS_LIB/myMicroLIB.c **** 			                         count++;
 891              		.loc 1 186 0
 892 0532 FB7F     		ldrb	r3, [r7, #31]	@ zero_extendqisi2
 893 0534 0133     		adds	r3, r3, #1
 894 0536 FB77     		strb	r3, [r7, #31]
 187:../../source/src/kernel/OS_LIB/myMicroLIB.c **** 			                         r_val_l /= 10;  
 895              		.loc 1 187 0
 896 0538 BB6A     		ldr	r3, [r7, #40]
 897 053a 244A     		ldr	r2, .L113
 898 053c 82FB0312 		smull	r1, r2, r2, r3
 899 0540 9210     		asrs	r2, r2, #2
 900 0542 DB17     		asrs	r3, r3, #31
 901 0544 D31A     		subs	r3, r2, r3
 902 0546 BB62     		str	r3, [r7, #40]
 903              	.L64:
 184:../../source/src/kernel/OS_LIB/myMicroLIB.c **** 			                    while(r_val_l)
 904              		.loc 1 184 0
 905 0548 BB6A     		ldr	r3, [r7, #40]
 906 054a 002B     		cmp	r3, #0
 907 054c F1D1     		bne	.L65
 188:../../source/src/kernel/OS_LIB/myMicroLIB.c **** 			                    } 
 189:../../source/src/kernel/OS_LIB/myMicroLIB.c **** 			                    res += count; 
 908              		.loc 1 189 0
 909 054e FB7F     		ldrb	r3, [r7, #31]	@ zero_extendqisi2
 910 0550 BA69     		ldr	r2, [r7, #24]
 911 0552 1344     		add	r3, r3, r2
 912 0554 BB61     		str	r3, [r7, #24]
 190:../../source/src/kernel/OS_LIB/myMicroLIB.c **** 			                    r_val_l = val_l;  
 913              		.loc 1 190 0
 914 0556 FB6A     		ldr	r3, [r7, #44]
 915 0558 BB62     		str	r3, [r7, #40]
 191:../../source/src/kernel/OS_LIB/myMicroLIB.c **** 			                    while(count)  
 916              		.loc 1 191 0
 917 055a 21E0     		b	.L66
 918              	.L67:
 192:../../source/src/kernel/OS_LIB/myMicroLIB.c **** 			                    {   
 193:../../source/src/kernel/OS_LIB/myMicroLIB.c **** 			                          ch = r_val_l / ka_pow(10,count - 1);  
 919              		.loc 1 193 0
 920 055c BC6A     		ldr	r4, [r7, #40]
 921 055e FB7F     		ldrb	r3, [r7, #31]	@ zero_extendqisi2
 922 0560 013B     		subs	r3, r3, #1
 923 0562 1946     		mov	r1, r3
 924 0564 0A20     		movs	r0, #10
 925 0566 FFF7FEFF 		bl	ka_pow
 926 056a 0346     		mov	r3, r0
 927 056c B4FBF3F3 		udiv	r3, r4, r3
 928 0570 FB73     		strb	r3, [r7, #15]
ARM GAS  G:\Users\Jaxb\AppData\Local\Temp\ccW59wSv.s 			page 21


 194:../../source/src/kernel/OS_LIB/myMicroLIB.c **** 			                          r_val_l %= ka_pow(10,count - 1); 
 929              		.loc 1 194 0
 930 0572 FB7F     		ldrb	r3, [r7, #31]	@ zero_extendqisi2
 931 0574 013B     		subs	r3, r3, #1
 932 0576 1946     		mov	r1, r3
 933 0578 0A20     		movs	r0, #10
 934 057a FFF7FEFF 		bl	ka_pow
 935 057e 0246     		mov	r2, r0
 936 0580 BB6A     		ldr	r3, [r7, #40]
 937 0582 B3FBF2F1 		udiv	r1, r3, r2
 938 0586 02FB01F2 		mul	r2, r2, r1
 939 058a 9B1A     		subs	r3, r3, r2
 940 058c BB62     		str	r3, [r7, #40]
 195:../../source/src/kernel/OS_LIB/myMicroLIB.c **** 			                          ka_putchar(ch + '0');
 941              		.loc 1 195 0
 942 058e FB7B     		ldrb	r3, [r7, #15]
 943 0590 3033     		adds	r3, r3, #48
 944 0592 DBB2     		uxtb	r3, r3
 945 0594 1846     		mov	r0, r3
 946 0596 FFF7FEFF 		bl	ka_putchar
 196:../../source/src/kernel/OS_LIB/myMicroLIB.c **** 			                          count--;  
 947              		.loc 1 196 0
 948 059a FB7F     		ldrb	r3, [r7, #31]	@ zero_extendqisi2
 949 059c 013B     		subs	r3, r3, #1
 950 059e FB77     		strb	r3, [r7, #31]
 951              	.L66:
 191:../../source/src/kernel/OS_LIB/myMicroLIB.c **** 			                    {   
 952              		.loc 1 191 0
 953 05a0 FB7F     		ldrb	r3, [r7, #31]	@ zero_extendqisi2
 954 05a2 002B     		cmp	r3, #0
 955 05a4 DAD1     		bne	.L67
 197:../../source/src/kernel/OS_LIB/myMicroLIB.c **** 			                    }  
 198:../../source/src/kernel/OS_LIB/myMicroLIB.c **** 			                    break;
 956              		.loc 1 198 0
 957 05a6 AAE0     		b	.L62
 958              	.L58:
 199:../../source/src/kernel/OS_LIB/myMicroLIB.c **** 
 200:../../source/src/kernel/OS_LIB/myMicroLIB.c **** 		                    case 'u':
 201:../../source/src/kernel/OS_LIB/myMicroLIB.c **** 		                		val_l1 = va_arg(ap, long); 
 959              		.loc 1 201 0
 960 05a8 3B68     		ldr	r3, [r7]
 961 05aa 1A1D     		adds	r2, r3, #4
 962 05ac 3A60     		str	r2, [r7]
 963 05ae 1B68     		ldr	r3, [r3]
 964 05b0 7B60     		str	r3, [r7, #4]
 202:../../source/src/kernel/OS_LIB/myMicroLIB.c **** 						 		if(0 == val_l1) 
 965              		.loc 1 202 0
 966 05b2 7B68     		ldr	r3, [r7, #4]
 967 05b4 002B     		cmp	r3, #0
 968 05b6 03D1     		bne	.L68
 203:../../source/src/kernel/OS_LIB/myMicroLIB.c **** 						 		{
 204:../../source/src/kernel/OS_LIB/myMicroLIB.c **** 						 			ka_putchar('0');
 969              		.loc 1 204 0
 970 05b8 3020     		movs	r0, #48
 971 05ba FFF7FEFF 		bl	ka_putchar
 205:../../source/src/kernel/OS_LIB/myMicroLIB.c **** 						 			break;
 972              		.loc 1 205 0
ARM GAS  G:\Users\Jaxb\AppData\Local\Temp\ccW59wSv.s 			page 22


 973 05be 9EE0     		b	.L62
 974              	.L68:
 206:../../source/src/kernel/OS_LIB/myMicroLIB.c **** 						 		} 
 207:../../source/src/kernel/OS_LIB/myMicroLIB.c **** 						 		if(val_l1 < 0)
 208:../../source/src/kernel/OS_LIB/myMicroLIB.c **** 						 		{
 209:../../source/src/kernel/OS_LIB/myMicroLIB.c **** 						 			val_l1 = -val_l1;
 210:../../source/src/kernel/OS_LIB/myMicroLIB.c **** 						 			ka_putchar('-');
 211:../../source/src/kernel/OS_LIB/myMicroLIB.c **** 						 		}
 212:../../source/src/kernel/OS_LIB/myMicroLIB.c **** 			                    r_val_l1 = val_l1;   
 975              		.loc 1 212 0
 976 05c0 7B68     		ldr	r3, [r7, #4]
 977 05c2 7B62     		str	r3, [r7, #36]
 213:../../source/src/kernel/OS_LIB/myMicroLIB.c **** 			                    count = 0;
 978              		.loc 1 213 0
 979 05c4 0023     		movs	r3, #0
 980 05c6 FB77     		strb	r3, [r7, #31]
 214:../../source/src/kernel/OS_LIB/myMicroLIB.c **** 			                    while(r_val_l1)
 981              		.loc 1 214 0
 982 05c8 0FE0     		b	.L69
 983              	.L114:
 984 05ca 00BF     		.align	2
 985              	.L113:
 986 05cc 67666666 		.word	1717986919
 987 05d0 00002440 		.word	1076101120
 988 05d4 00000000 		.word	.LC0
 989              	.L70:
 215:../../source/src/kernel/OS_LIB/myMicroLIB.c **** 			                    {   
 216:../../source/src/kernel/OS_LIB/myMicroLIB.c **** 			                         count++;
 990              		.loc 1 216 0
 991 05d8 FB7F     		ldrb	r3, [r7, #31]	@ zero_extendqisi2
 992 05da 0133     		adds	r3, r3, #1
 993 05dc FB77     		strb	r3, [r7, #31]
 217:../../source/src/kernel/OS_LIB/myMicroLIB.c **** 			                         r_val_l1 /= 10;  
 994              		.loc 1 217 0
 995 05de 7B6A     		ldr	r3, [r7, #36]
 996 05e0 A24A     		ldr	r2, .L115
 997 05e2 A2FB0323 		umull	r2, r3, r2, r3
 998 05e6 DB08     		lsrs	r3, r3, #3
 999 05e8 7B62     		str	r3, [r7, #36]
 1000              	.L69:
 214:../../source/src/kernel/OS_LIB/myMicroLIB.c **** 			                    while(r_val_l1)
 1001              		.loc 1 214 0
 1002 05ea 7B6A     		ldr	r3, [r7, #36]
 1003 05ec 002B     		cmp	r3, #0
 1004 05ee F3D1     		bne	.L70
 218:../../source/src/kernel/OS_LIB/myMicroLIB.c **** 			                    } 
 219:../../source/src/kernel/OS_LIB/myMicroLIB.c **** 			                    res += count; 
 1005              		.loc 1 219 0
 1006 05f0 FB7F     		ldrb	r3, [r7, #31]	@ zero_extendqisi2
 1007 05f2 BA69     		ldr	r2, [r7, #24]
 1008 05f4 1344     		add	r3, r3, r2
 1009 05f6 BB61     		str	r3, [r7, #24]
 220:../../source/src/kernel/OS_LIB/myMicroLIB.c **** 			                    r_val_l1 = val_l1;  
 1010              		.loc 1 220 0
 1011 05f8 7B68     		ldr	r3, [r7, #4]
 1012 05fa 7B62     		str	r3, [r7, #36]
 221:../../source/src/kernel/OS_LIB/myMicroLIB.c **** 			                    while(count)  
ARM GAS  G:\Users\Jaxb\AppData\Local\Temp\ccW59wSv.s 			page 23


 1013              		.loc 1 221 0
 1014 05fc 21E0     		b	.L71
 1015              	.L72:
 222:../../source/src/kernel/OS_LIB/myMicroLIB.c **** 			                    {   
 223:../../source/src/kernel/OS_LIB/myMicroLIB.c **** 			                          ch = r_val_l1 / ka_pow(10,count - 1);  
 1016              		.loc 1 223 0
 1017 05fe FB7F     		ldrb	r3, [r7, #31]	@ zero_extendqisi2
 1018 0600 013B     		subs	r3, r3, #1
 1019 0602 1946     		mov	r1, r3
 1020 0604 0A20     		movs	r0, #10
 1021 0606 FFF7FEFF 		bl	ka_pow
 1022 060a 0246     		mov	r2, r0
 1023 060c 7B6A     		ldr	r3, [r7, #36]
 1024 060e B3FBF2F3 		udiv	r3, r3, r2
 1025 0612 FB73     		strb	r3, [r7, #15]
 224:../../source/src/kernel/OS_LIB/myMicroLIB.c **** 			                          r_val_l1 %= ka_pow(10,count - 1); 
 1026              		.loc 1 224 0
 1027 0614 FB7F     		ldrb	r3, [r7, #31]	@ zero_extendqisi2
 1028 0616 013B     		subs	r3, r3, #1
 1029 0618 1946     		mov	r1, r3
 1030 061a 0A20     		movs	r0, #10
 1031 061c FFF7FEFF 		bl	ka_pow
 1032 0620 0246     		mov	r2, r0
 1033 0622 7B6A     		ldr	r3, [r7, #36]
 1034 0624 B3FBF2F1 		udiv	r1, r3, r2
 1035 0628 02FB01F2 		mul	r2, r2, r1
 1036 062c 9B1A     		subs	r3, r3, r2
 1037 062e 7B62     		str	r3, [r7, #36]
 225:../../source/src/kernel/OS_LIB/myMicroLIB.c **** 			                          ka_putchar(ch + '0');
 1038              		.loc 1 225 0
 1039 0630 FB7B     		ldrb	r3, [r7, #15]
 1040 0632 3033     		adds	r3, r3, #48
 1041 0634 DBB2     		uxtb	r3, r3
 1042 0636 1846     		mov	r0, r3
 1043 0638 FFF7FEFF 		bl	ka_putchar
 226:../../source/src/kernel/OS_LIB/myMicroLIB.c **** 			                          count--;  
 1044              		.loc 1 226 0
 1045 063c FB7F     		ldrb	r3, [r7, #31]	@ zero_extendqisi2
 1046 063e 013B     		subs	r3, r3, #1
 1047 0640 FB77     		strb	r3, [r7, #31]
 1048              	.L71:
 221:../../source/src/kernel/OS_LIB/myMicroLIB.c **** 			                    {   
 1049              		.loc 1 221 0
 1050 0642 FB7F     		ldrb	r3, [r7, #31]	@ zero_extendqisi2
 1051 0644 002B     		cmp	r3, #0
 1052 0646 DAD1     		bne	.L72
 227:../../source/src/kernel/OS_LIB/myMicroLIB.c **** 			                    }  
 228:../../source/src/kernel/OS_LIB/myMicroLIB.c **** 			                    break;
 1053              		.loc 1 228 0
 1054 0648 59E0     		b	.L62
 1055              	.L59:
 229:../../source/src/kernel/OS_LIB/myMicroLIB.c **** 
 230:../../source/src/kernel/OS_LIB/myMicroLIB.c **** 			                case 'x': /* hexadecimal*/
 231:../../source/src/kernel/OS_LIB/myMicroLIB.c **** 			                 	val_l1 = va_arg(ap, unsigned long); 
 1056              		.loc 1 231 0
 1057 064a 3B68     		ldr	r3, [r7]
 1058 064c 1A1D     		adds	r2, r3, #4
ARM GAS  G:\Users\Jaxb\AppData\Local\Temp\ccW59wSv.s 			page 24


 1059 064e 3A60     		str	r2, [r7]
 1060 0650 1B68     		ldr	r3, [r3]
 1061 0652 7B60     		str	r3, [r7, #4]
 232:../../source/src/kernel/OS_LIB/myMicroLIB.c **** 			                 	if(0 == val_l1) 
 1062              		.loc 1 232 0
 1063 0654 7B68     		ldr	r3, [r7, #4]
 1064 0656 002B     		cmp	r3, #0
 1065 0658 03D1     		bne	.L73
 233:../../source/src/kernel/OS_LIB/myMicroLIB.c **** 						 		{
 234:../../source/src/kernel/OS_LIB/myMicroLIB.c **** 						 			ka_puts("0x00");
 1066              		.loc 1 234 0
 1067 065a 8548     		ldr	r0, .L115+4
 1068 065c FFF7FEFF 		bl	ka_puts
 235:../../source/src/kernel/OS_LIB/myMicroLIB.c **** 						 			break;
 1069              		.loc 1 235 0
 1070 0660 4DE0     		b	.L62
 1071              	.L73:
 236:../../source/src/kernel/OS_LIB/myMicroLIB.c **** 						 		} 
 237:../../source/src/kernel/OS_LIB/myMicroLIB.c **** 			                    r_val_l1 = val_l1;   
 1072              		.loc 1 237 0
 1073 0662 7B68     		ldr	r3, [r7, #4]
 1074 0664 7B62     		str	r3, [r7, #36]
 238:../../source/src/kernel/OS_LIB/myMicroLIB.c **** 			                    count = 0;  
 1075              		.loc 1 238 0
 1076 0666 0023     		movs	r3, #0
 1077 0668 FB77     		strb	r3, [r7, #31]
 239:../../source/src/kernel/OS_LIB/myMicroLIB.c **** 			                    while(r_val_l1)  
 1078              		.loc 1 239 0
 1079 066a 05E0     		b	.L74
 1080              	.L75:
 240:../../source/src/kernel/OS_LIB/myMicroLIB.c **** 			                    {   
 241:../../source/src/kernel/OS_LIB/myMicroLIB.c **** 			                         count++; /*   */
 1081              		.loc 1 241 0
 1082 066c FB7F     		ldrb	r3, [r7, #31]	@ zero_extendqisi2
 1083 066e 0133     		adds	r3, r3, #1
 1084 0670 FB77     		strb	r3, [r7, #31]
 242:../../source/src/kernel/OS_LIB/myMicroLIB.c **** 			                         r_val_l1 /= 16;   
 1085              		.loc 1 242 0
 1086 0672 7B6A     		ldr	r3, [r7, #36]
 1087 0674 1B09     		lsrs	r3, r3, #4
 1088 0676 7B62     		str	r3, [r7, #36]
 1089              	.L74:
 239:../../source/src/kernel/OS_LIB/myMicroLIB.c **** 			                    while(r_val_l1)  
 1090              		.loc 1 239 0
 1091 0678 7B6A     		ldr	r3, [r7, #36]
 1092 067a 002B     		cmp	r3, #0
 1093 067c F6D1     		bne	.L75
 243:../../source/src/kernel/OS_LIB/myMicroLIB.c **** 			                    }
 244:../../source/src/kernel/OS_LIB/myMicroLIB.c **** 			                    res += count;/*   */
 1094              		.loc 1 244 0
 1095 067e FB7F     		ldrb	r3, [r7, #31]	@ zero_extendqisi2
 1096 0680 BA69     		ldr	r2, [r7, #24]
 1097 0682 1344     		add	r3, r3, r2
 1098 0684 BB61     		str	r3, [r7, #24]
 245:../../source/src/kernel/OS_LIB/myMicroLIB.c **** 			                    r_val_l1 = val_l1; 
 1099              		.loc 1 245 0
 1100 0686 7B68     		ldr	r3, [r7, #4]
ARM GAS  G:\Users\Jaxb\AppData\Local\Temp\ccW59wSv.s 			page 25


 1101 0688 7B62     		str	r3, [r7, #36]
 246:../../source/src/kernel/OS_LIB/myMicroLIB.c **** 			                    while(count)   
 1102              		.loc 1 246 0
 1103 068a 2BE0     		b	.L76
 1104              	.L79:
 247:../../source/src/kernel/OS_LIB/myMicroLIB.c **** 			                    {   
 248:../../source/src/kernel/OS_LIB/myMicroLIB.c **** 			                        ch = r_val_l1 / ka_pow(16, count - 1);   
 1105              		.loc 1 248 0
 1106 068c FB7F     		ldrb	r3, [r7, #31]	@ zero_extendqisi2
 1107 068e 013B     		subs	r3, r3, #1
 1108 0690 1946     		mov	r1, r3
 1109 0692 1020     		movs	r0, #16
 1110 0694 FFF7FEFF 		bl	ka_pow
 1111 0698 0246     		mov	r2, r0
 1112 069a 7B6A     		ldr	r3, [r7, #36]
 1113 069c B3FBF2F3 		udiv	r3, r3, r2
 1114 06a0 FB73     		strb	r3, [r7, #15]
 249:../../source/src/kernel/OS_LIB/myMicroLIB.c **** 			                        r_val_l1 %= ka_pow(16, count - 1);  
 1115              		.loc 1 249 0
 1116 06a2 FB7F     		ldrb	r3, [r7, #31]	@ zero_extendqisi2
 1117 06a4 013B     		subs	r3, r3, #1
 1118 06a6 1946     		mov	r1, r3
 1119 06a8 1020     		movs	r0, #16
 1120 06aa FFF7FEFF 		bl	ka_pow
 1121 06ae 0246     		mov	r2, r0
 1122 06b0 7B6A     		ldr	r3, [r7, #36]
 1123 06b2 B3FBF2F1 		udiv	r1, r3, r2
 1124 06b6 02FB01F2 		mul	r2, r2, r1
 1125 06ba 9B1A     		subs	r3, r3, r2
 1126 06bc 7B62     		str	r3, [r7, #36]
 250:../../source/src/kernel/OS_LIB/myMicroLIB.c **** 			                        if(ch <= 9) 
 1127              		.loc 1 250 0
 1128 06be FB7B     		ldrb	r3, [r7, #15]	@ zero_extendqisi2
 1129 06c0 092B     		cmp	r3, #9
 1130 06c2 06D8     		bhi	.L77
 251:../../source/src/kernel/OS_LIB/myMicroLIB.c **** 			                            ka_putchar(ch + '0');
 1131              		.loc 1 251 0
 1132 06c4 FB7B     		ldrb	r3, [r7, #15]
 1133 06c6 3033     		adds	r3, r3, #48
 1134 06c8 DBB2     		uxtb	r3, r3
 1135 06ca 1846     		mov	r0, r3
 1136 06cc FFF7FEFF 		bl	ka_putchar
 1137 06d0 05E0     		b	.L78
 1138              	.L77:
 252:../../source/src/kernel/OS_LIB/myMicroLIB.c **** 			                        else   
 253:../../source/src/kernel/OS_LIB/myMicroLIB.c **** 			                            ka_putchar(ch - 10 + 'a');
 1139              		.loc 1 253 0
 1140 06d2 FB7B     		ldrb	r3, [r7, #15]
 1141 06d4 5733     		adds	r3, r3, #87
 1142 06d6 DBB2     		uxtb	r3, r3
 1143 06d8 1846     		mov	r0, r3
 1144 06da FFF7FEFF 		bl	ka_putchar
 1145              	.L78:
 254:../../source/src/kernel/OS_LIB/myMicroLIB.c **** 			                        count--;  
 1146              		.loc 1 254 0
 1147 06de FB7F     		ldrb	r3, [r7, #31]	@ zero_extendqisi2
 1148 06e0 013B     		subs	r3, r3, #1
ARM GAS  G:\Users\Jaxb\AppData\Local\Temp\ccW59wSv.s 			page 26


 1149 06e2 FB77     		strb	r3, [r7, #31]
 1150              	.L76:
 246:../../source/src/kernel/OS_LIB/myMicroLIB.c **** 			                    {   
 1151              		.loc 1 246 0
 1152 06e4 FB7F     		ldrb	r3, [r7, #31]	@ zero_extendqisi2
 1153 06e6 002B     		cmp	r3, #0
 1154 06e8 D0D1     		bne	.L79
 255:../../source/src/kernel/OS_LIB/myMicroLIB.c **** 			                    }
 256:../../source/src/kernel/OS_LIB/myMicroLIB.c **** 			                    break;
 1155              		.loc 1 256 0
 1156 06ea 08E0     		b	.L62
 1157              	.L112:
 257:../../source/src/kernel/OS_LIB/myMicroLIB.c **** 
 258:../../source/src/kernel/OS_LIB/myMicroLIB.c **** 			                default :
 259:../../source/src/kernel/OS_LIB/myMicroLIB.c **** 				                ka_putchar(*str);
 1158              		.loc 1 259 0
 1159 06ec 3B6D     		ldr	r3, [r7, #80]
 1160 06ee 1B78     		ldrb	r3, [r3]	@ zero_extendqisi2
 1161 06f0 1846     		mov	r0, r3
 1162 06f2 FFF7FEFF 		bl	ka_putchar
 260:../../source/src/kernel/OS_LIB/myMicroLIB.c **** 		            			res += 1;
 1163              		.loc 1 260 0
 1164 06f6 BB69     		ldr	r3, [r7, #24]
 1165 06f8 0133     		adds	r3, r3, #1
 1166 06fa BB61     		str	r3, [r7, #24]
 261:../../source/src/kernel/OS_LIB/myMicroLIB.c **** 	                	}
 262:../../source/src/kernel/OS_LIB/myMicroLIB.c **** 				 		break;
 1167              		.loc 1 262 0
 1168 06fc 70E1     		b	.L40
 1169              	.L62:
 1170 06fe 6FE1     		b	.L40
 1171              	.L37:
 263:../../source/src/kernel/OS_LIB/myMicroLIB.c **** 
 264:../../source/src/kernel/OS_LIB/myMicroLIB.c **** 	                case 'u': /* decimal*/
 265:../../source/src/kernel/OS_LIB/myMicroLIB.c **** 				 		val1 = va_arg(ap,unsigned int);  
 1172              		.loc 1 265 0
 1173 0700 3B68     		ldr	r3, [r7]
 1174 0702 1A1D     		adds	r2, r3, #4
 1175 0704 3A60     		str	r2, [r7]
 1176 0706 1B68     		ldr	r3, [r3]
 1177 0708 BB60     		str	r3, [r7, #8]
 266:../../source/src/kernel/OS_LIB/myMicroLIB.c **** 				 		if(0 == val1) 
 1178              		.loc 1 266 0
 1179 070a BB68     		ldr	r3, [r7, #8]
 1180 070c 002B     		cmp	r3, #0
 1181 070e 03D1     		bne	.L80
 267:../../source/src/kernel/OS_LIB/myMicroLIB.c **** 				 		{
 268:../../source/src/kernel/OS_LIB/myMicroLIB.c **** 				 			ka_putchar('0');
 1182              		.loc 1 268 0
 1183 0710 3020     		movs	r0, #48
 1184 0712 FFF7FEFF 		bl	ka_putchar
 269:../../source/src/kernel/OS_LIB/myMicroLIB.c **** 				 			break;
 1185              		.loc 1 269 0
 1186 0716 63E1     		b	.L40
 1187              	.L80:
 270:../../source/src/kernel/OS_LIB/myMicroLIB.c **** 				 		} 
 271:../../source/src/kernel/OS_LIB/myMicroLIB.c **** 	                    r_val1 = val1;   
ARM GAS  G:\Users\Jaxb\AppData\Local\Temp\ccW59wSv.s 			page 27


 1188              		.loc 1 271 0
 1189 0718 BB68     		ldr	r3, [r7, #8]
 1190 071a 3B62     		str	r3, [r7, #32]
 272:../../source/src/kernel/OS_LIB/myMicroLIB.c **** 	                    count = 0;
 1191              		.loc 1 272 0
 1192 071c 0023     		movs	r3, #0
 1193 071e FB77     		strb	r3, [r7, #31]
 273:../../source/src/kernel/OS_LIB/myMicroLIB.c **** 	                    while(r_val1)
 1194              		.loc 1 273 0
 1195 0720 08E0     		b	.L81
 1196              	.L82:
 274:../../source/src/kernel/OS_LIB/myMicroLIB.c **** 	                    {   
 275:../../source/src/kernel/OS_LIB/myMicroLIB.c **** 	                         count++;
 1197              		.loc 1 275 0
 1198 0722 FB7F     		ldrb	r3, [r7, #31]	@ zero_extendqisi2
 1199 0724 0133     		adds	r3, r3, #1
 1200 0726 FB77     		strb	r3, [r7, #31]
 276:../../source/src/kernel/OS_LIB/myMicroLIB.c **** 	                         r_val1 /= 10;  
 1201              		.loc 1 276 0
 1202 0728 3B6A     		ldr	r3, [r7, #32]
 1203 072a 504A     		ldr	r2, .L115
 1204 072c A2FB0323 		umull	r2, r3, r2, r3
 1205 0730 DB08     		lsrs	r3, r3, #3
 1206 0732 3B62     		str	r3, [r7, #32]
 1207              	.L81:
 273:../../source/src/kernel/OS_LIB/myMicroLIB.c **** 	                    while(r_val1)
 1208              		.loc 1 273 0
 1209 0734 3B6A     		ldr	r3, [r7, #32]
 1210 0736 002B     		cmp	r3, #0
 1211 0738 F3D1     		bne	.L82
 277:../../source/src/kernel/OS_LIB/myMicroLIB.c **** 	                    } 
 278:../../source/src/kernel/OS_LIB/myMicroLIB.c **** 	                    res += count; 
 1212              		.loc 1 278 0
 1213 073a FB7F     		ldrb	r3, [r7, #31]	@ zero_extendqisi2
 1214 073c BA69     		ldr	r2, [r7, #24]
 1215 073e 1344     		add	r3, r3, r2
 1216 0740 BB61     		str	r3, [r7, #24]
 279:../../source/src/kernel/OS_LIB/myMicroLIB.c **** 	                    r_val1 = val1;  
 1217              		.loc 1 279 0
 1218 0742 BB68     		ldr	r3, [r7, #8]
 1219 0744 3B62     		str	r3, [r7, #32]
 280:../../source/src/kernel/OS_LIB/myMicroLIB.c **** 	                    while(count)  
 1220              		.loc 1 280 0
 1221 0746 21E0     		b	.L83
 1222              	.L84:
 281:../../source/src/kernel/OS_LIB/myMicroLIB.c **** 	                    {   
 282:../../source/src/kernel/OS_LIB/myMicroLIB.c **** 	                          ch = r_val1 / ka_pow(10,count - 1);  
 1223              		.loc 1 282 0
 1224 0748 FB7F     		ldrb	r3, [r7, #31]	@ zero_extendqisi2
 1225 074a 013B     		subs	r3, r3, #1
 1226 074c 1946     		mov	r1, r3
 1227 074e 0A20     		movs	r0, #10
 1228 0750 FFF7FEFF 		bl	ka_pow
 1229 0754 0246     		mov	r2, r0
 1230 0756 3B6A     		ldr	r3, [r7, #32]
 1231 0758 B3FBF2F3 		udiv	r3, r3, r2
 1232 075c FB73     		strb	r3, [r7, #15]
ARM GAS  G:\Users\Jaxb\AppData\Local\Temp\ccW59wSv.s 			page 28


 283:../../source/src/kernel/OS_LIB/myMicroLIB.c **** 	                          r_val1 %= ka_pow(10,count - 1); 
 1233              		.loc 1 283 0
 1234 075e FB7F     		ldrb	r3, [r7, #31]	@ zero_extendqisi2
 1235 0760 013B     		subs	r3, r3, #1
 1236 0762 1946     		mov	r1, r3
 1237 0764 0A20     		movs	r0, #10
 1238 0766 FFF7FEFF 		bl	ka_pow
 1239 076a 0246     		mov	r2, r0
 1240 076c 3B6A     		ldr	r3, [r7, #32]
 1241 076e B3FBF2F1 		udiv	r1, r3, r2
 1242 0772 02FB01F2 		mul	r2, r2, r1
 1243 0776 9B1A     		subs	r3, r3, r2
 1244 0778 3B62     		str	r3, [r7, #32]
 284:../../source/src/kernel/OS_LIB/myMicroLIB.c **** 	                          ka_putchar(ch + '0');
 1245              		.loc 1 284 0
 1246 077a FB7B     		ldrb	r3, [r7, #15]
 1247 077c 3033     		adds	r3, r3, #48
 1248 077e DBB2     		uxtb	r3, r3
 1249 0780 1846     		mov	r0, r3
 1250 0782 FFF7FEFF 		bl	ka_putchar
 285:../../source/src/kernel/OS_LIB/myMicroLIB.c **** 	                          count--;  
 1251              		.loc 1 285 0
 1252 0786 FB7F     		ldrb	r3, [r7, #31]	@ zero_extendqisi2
 1253 0788 013B     		subs	r3, r3, #1
 1254 078a FB77     		strb	r3, [r7, #31]
 1255              	.L83:
 280:../../source/src/kernel/OS_LIB/myMicroLIB.c **** 	                    {   
 1256              		.loc 1 280 0
 1257 078c FB7F     		ldrb	r3, [r7, #31]	@ zero_extendqisi2
 1258 078e 002B     		cmp	r3, #0
 1259 0790 DAD1     		bne	.L84
 286:../../source/src/kernel/OS_LIB/myMicroLIB.c **** 	                    }  
 287:../../source/src/kernel/OS_LIB/myMicroLIB.c **** 	                    break;
 1260              		.loc 1 287 0
 1261 0792 25E1     		b	.L40
 1262              	.L34:
 288:../../source/src/kernel/OS_LIB/myMicroLIB.c **** 
 289:../../source/src/kernel/OS_LIB/myMicroLIB.c **** 	                case 'o': /* octal*/
 290:../../source/src/kernel/OS_LIB/myMicroLIB.c **** 				 		val1 = va_arg(ap,unsigned int);  
 1263              		.loc 1 290 0
 1264 0794 3B68     		ldr	r3, [r7]
 1265 0796 1A1D     		adds	r2, r3, #4
 1266 0798 3A60     		str	r2, [r7]
 1267 079a 1B68     		ldr	r3, [r3]
 1268 079c BB60     		str	r3, [r7, #8]
 291:../../source/src/kernel/OS_LIB/myMicroLIB.c **** 				 		if(0 == val1) 
 1269              		.loc 1 291 0
 1270 079e BB68     		ldr	r3, [r7, #8]
 1271 07a0 002B     		cmp	r3, #0
 1272 07a2 03D1     		bne	.L85
 292:../../source/src/kernel/OS_LIB/myMicroLIB.c **** 				 		{
 293:../../source/src/kernel/OS_LIB/myMicroLIB.c **** 				 			ka_putchar('0');
 1273              		.loc 1 293 0
 1274 07a4 3020     		movs	r0, #48
 1275 07a6 FFF7FEFF 		bl	ka_putchar
 294:../../source/src/kernel/OS_LIB/myMicroLIB.c **** 				 			break;
 1276              		.loc 1 294 0
ARM GAS  G:\Users\Jaxb\AppData\Local\Temp\ccW59wSv.s 			page 29


 1277 07aa 19E1     		b	.L40
 1278              	.L85:
 295:../../source/src/kernel/OS_LIB/myMicroLIB.c **** 				 		} 
 296:../../source/src/kernel/OS_LIB/myMicroLIB.c **** 	                    r_val1 = val1;   
 1279              		.loc 1 296 0
 1280 07ac BB68     		ldr	r3, [r7, #8]
 1281 07ae 3B62     		str	r3, [r7, #32]
 297:../../source/src/kernel/OS_LIB/myMicroLIB.c **** 	                    count = 0;
 1282              		.loc 1 297 0
 1283 07b0 0023     		movs	r3, #0
 1284 07b2 FB77     		strb	r3, [r7, #31]
 298:../../source/src/kernel/OS_LIB/myMicroLIB.c **** 	                    while(r_val1)
 1285              		.loc 1 298 0
 1286 07b4 05E0     		b	.L86
 1287              	.L87:
 299:../../source/src/kernel/OS_LIB/myMicroLIB.c **** 	                    {   
 300:../../source/src/kernel/OS_LIB/myMicroLIB.c **** 	                        count++;
 1288              		.loc 1 300 0
 1289 07b6 FB7F     		ldrb	r3, [r7, #31]	@ zero_extendqisi2
 1290 07b8 0133     		adds	r3, r3, #1
 1291 07ba FB77     		strb	r3, [r7, #31]
 301:../../source/src/kernel/OS_LIB/myMicroLIB.c **** 	                        r_val1 /= 8;  
 1292              		.loc 1 301 0
 1293 07bc 3B6A     		ldr	r3, [r7, #32]
 1294 07be DB08     		lsrs	r3, r3, #3
 1295 07c0 3B62     		str	r3, [r7, #32]
 1296              	.L86:
 298:../../source/src/kernel/OS_LIB/myMicroLIB.c **** 	                    while(r_val1)
 1297              		.loc 1 298 0
 1298 07c2 3B6A     		ldr	r3, [r7, #32]
 1299 07c4 002B     		cmp	r3, #0
 1300 07c6 F6D1     		bne	.L87
 302:../../source/src/kernel/OS_LIB/myMicroLIB.c **** 	                    } 
 303:../../source/src/kernel/OS_LIB/myMicroLIB.c **** 	                    res += count; 
 1301              		.loc 1 303 0
 1302 07c8 FB7F     		ldrb	r3, [r7, #31]	@ zero_extendqisi2
 1303 07ca BA69     		ldr	r2, [r7, #24]
 1304 07cc 1344     		add	r3, r3, r2
 1305 07ce BB61     		str	r3, [r7, #24]
 304:../../source/src/kernel/OS_LIB/myMicroLIB.c **** 	                    r_val1 = val1;  
 1306              		.loc 1 304 0
 1307 07d0 BB68     		ldr	r3, [r7, #8]
 1308 07d2 3B62     		str	r3, [r7, #32]
 305:../../source/src/kernel/OS_LIB/myMicroLIB.c **** 	                    while(count)  
 1309              		.loc 1 305 0
 1310 07d4 21E0     		b	.L88
 1311              	.L89:
 306:../../source/src/kernel/OS_LIB/myMicroLIB.c **** 	                    {   
 307:../../source/src/kernel/OS_LIB/myMicroLIB.c **** 	                        ch = r_val1 / ka_pow(8,count - 1);  
 1312              		.loc 1 307 0
 1313 07d6 FB7F     		ldrb	r3, [r7, #31]	@ zero_extendqisi2
 1314 07d8 013B     		subs	r3, r3, #1
 1315 07da 1946     		mov	r1, r3
 1316 07dc 0820     		movs	r0, #8
 1317 07de FFF7FEFF 		bl	ka_pow
 1318 07e2 0246     		mov	r2, r0
 1319 07e4 3B6A     		ldr	r3, [r7, #32]
ARM GAS  G:\Users\Jaxb\AppData\Local\Temp\ccW59wSv.s 			page 30


 1320 07e6 B3FBF2F3 		udiv	r3, r3, r2
 1321 07ea FB73     		strb	r3, [r7, #15]
 308:../../source/src/kernel/OS_LIB/myMicroLIB.c **** 	                        r_val1 %= ka_pow(8,count - 1); 
 1322              		.loc 1 308 0
 1323 07ec FB7F     		ldrb	r3, [r7, #31]	@ zero_extendqisi2
 1324 07ee 013B     		subs	r3, r3, #1
 1325 07f0 1946     		mov	r1, r3
 1326 07f2 0820     		movs	r0, #8
 1327 07f4 FFF7FEFF 		bl	ka_pow
 1328 07f8 0246     		mov	r2, r0
 1329 07fa 3B6A     		ldr	r3, [r7, #32]
 1330 07fc B3FBF2F1 		udiv	r1, r3, r2
 1331 0800 02FB01F2 		mul	r2, r2, r1
 1332 0804 9B1A     		subs	r3, r3, r2
 1333 0806 3B62     		str	r3, [r7, #32]
 309:../../source/src/kernel/OS_LIB/myMicroLIB.c **** 	                        ka_putchar(ch + '0');
 1334              		.loc 1 309 0
 1335 0808 FB7B     		ldrb	r3, [r7, #15]
 1336 080a 3033     		adds	r3, r3, #48
 1337 080c DBB2     		uxtb	r3, r3
 1338 080e 1846     		mov	r0, r3
 1339 0810 FFF7FEFF 		bl	ka_putchar
 310:../../source/src/kernel/OS_LIB/myMicroLIB.c **** 	                        count--;  
 1340              		.loc 1 310 0
 1341 0814 FB7F     		ldrb	r3, [r7, #31]	@ zero_extendqisi2
 1342 0816 013B     		subs	r3, r3, #1
 1343 0818 FB77     		strb	r3, [r7, #31]
 1344              	.L88:
 305:../../source/src/kernel/OS_LIB/myMicroLIB.c **** 	                    {   
 1345              		.loc 1 305 0
 1346 081a FB7F     		ldrb	r3, [r7, #31]	@ zero_extendqisi2
 1347 081c 002B     		cmp	r3, #0
 1348 081e DAD1     		bne	.L89
 311:../../source/src/kernel/OS_LIB/myMicroLIB.c **** 	                    }  
 312:../../source/src/kernel/OS_LIB/myMicroLIB.c **** 	                    break;
 1349              		.loc 1 312 0
 1350 0820 DEE0     		b	.L40
 1351              	.L38:
 313:../../source/src/kernel/OS_LIB/myMicroLIB.c **** 
 314:../../source/src/kernel/OS_LIB/myMicroLIB.c **** 	                case 'x': /* hexadecimal*/
 315:../../source/src/kernel/OS_LIB/myMicroLIB.c **** 	                 	val = va_arg(ap, int); 
 1352              		.loc 1 315 0
 1353 0822 3B68     		ldr	r3, [r7]
 1354 0824 1A1D     		adds	r2, r3, #4
 1355 0826 3A60     		str	r2, [r7]
 1356 0828 1B68     		ldr	r3, [r3]
 1357 082a FB63     		str	r3, [r7, #60]
 316:../../source/src/kernel/OS_LIB/myMicroLIB.c **** 	                 	if(0 == val) 
 1358              		.loc 1 316 0
 1359 082c FB6B     		ldr	r3, [r7, #60]
 1360 082e 002B     		cmp	r3, #0
 1361 0830 03D1     		bne	.L90
 317:../../source/src/kernel/OS_LIB/myMicroLIB.c **** 				 		{
 318:../../source/src/kernel/OS_LIB/myMicroLIB.c **** 				 			ka_puts("0x00");
 1362              		.loc 1 318 0
 1363 0832 0F48     		ldr	r0, .L115+4
 1364 0834 FFF7FEFF 		bl	ka_puts
ARM GAS  G:\Users\Jaxb\AppData\Local\Temp\ccW59wSv.s 			page 31


 319:../../source/src/kernel/OS_LIB/myMicroLIB.c **** 				 			break;
 1365              		.loc 1 319 0
 1366 0838 D2E0     		b	.L40
 1367              	.L90:
 320:../../source/src/kernel/OS_LIB/myMicroLIB.c **** 				 		} 
 321:../../source/src/kernel/OS_LIB/myMicroLIB.c **** 	                    r_val = val;   
 1368              		.loc 1 321 0
 1369 083a FB6B     		ldr	r3, [r7, #60]
 1370 083c BB63     		str	r3, [r7, #56]
 322:../../source/src/kernel/OS_LIB/myMicroLIB.c **** 	                    count = 0;  
 1371              		.loc 1 322 0
 1372 083e 0023     		movs	r3, #0
 1373 0840 FB77     		strb	r3, [r7, #31]
 323:../../source/src/kernel/OS_LIB/myMicroLIB.c **** 	                    while(r_val)  
 1374              		.loc 1 323 0
 1375 0842 08E0     		b	.L91
 1376              	.L93:
 324:../../source/src/kernel/OS_LIB/myMicroLIB.c **** 	                    {   
 325:../../source/src/kernel/OS_LIB/myMicroLIB.c **** 	                         count++; /*   */
 1377              		.loc 1 325 0
 1378 0844 FB7F     		ldrb	r3, [r7, #31]	@ zero_extendqisi2
 1379 0846 0133     		adds	r3, r3, #1
 1380 0848 FB77     		strb	r3, [r7, #31]
 326:../../source/src/kernel/OS_LIB/myMicroLIB.c **** 	                         r_val /= 16;   
 1381              		.loc 1 326 0
 1382 084a BB6B     		ldr	r3, [r7, #56]
 1383 084c 002B     		cmp	r3, #0
 1384 084e 00DA     		bge	.L92
 1385 0850 0F33     		adds	r3, r3, #15
 1386              	.L92:
 1387 0852 1B11     		asrs	r3, r3, #4
 1388 0854 BB63     		str	r3, [r7, #56]
 1389              	.L91:
 323:../../source/src/kernel/OS_LIB/myMicroLIB.c **** 	                    while(r_val)  
 1390              		.loc 1 323 0
 1391 0856 BB6B     		ldr	r3, [r7, #56]
 1392 0858 002B     		cmp	r3, #0
 1393 085a F3D1     		bne	.L93
 327:../../source/src/kernel/OS_LIB/myMicroLIB.c **** 	                    }
 328:../../source/src/kernel/OS_LIB/myMicroLIB.c **** 	                    res += count;/*   */
 1394              		.loc 1 328 0
 1395 085c FB7F     		ldrb	r3, [r7, #31]	@ zero_extendqisi2
 1396 085e BA69     		ldr	r2, [r7, #24]
 1397 0860 1344     		add	r3, r3, r2
 1398 0862 BB61     		str	r3, [r7, #24]
 329:../../source/src/kernel/OS_LIB/myMicroLIB.c **** 	                    r_val = val; 
 1399              		.loc 1 329 0
 1400 0864 FB6B     		ldr	r3, [r7, #60]
 1401 0866 BB63     		str	r3, [r7, #56]
 330:../../source/src/kernel/OS_LIB/myMicroLIB.c **** 	                    while(count)   
 1402              		.loc 1 330 0
 1403 0868 30E0     		b	.L94
 1404              	.L116:
 1405 086a 00BF     		.align	2
 1406              	.L115:
 1407 086c CDCCCCCC 		.word	-858993459
 1408 0870 2C000000 		.word	.LC1
ARM GAS  G:\Users\Jaxb\AppData\Local\Temp\ccW59wSv.s 			page 32


 1409              	.L97:
 331:../../source/src/kernel/OS_LIB/myMicroLIB.c **** 	                    {   
 332:../../source/src/kernel/OS_LIB/myMicroLIB.c **** 	                        ch = r_val / ka_pow(16, count - 1);   
 1410              		.loc 1 332 0
 1411 0874 BC6B     		ldr	r4, [r7, #56]
 1412 0876 FB7F     		ldrb	r3, [r7, #31]	@ zero_extendqisi2
 1413 0878 013B     		subs	r3, r3, #1
 1414 087a 1946     		mov	r1, r3
 1415 087c 1020     		movs	r0, #16
 1416 087e FFF7FEFF 		bl	ka_pow
 1417 0882 0346     		mov	r3, r0
 1418 0884 B4FBF3F3 		udiv	r3, r4, r3
 1419 0888 FB73     		strb	r3, [r7, #15]
 333:../../source/src/kernel/OS_LIB/myMicroLIB.c **** 	                        r_val %= ka_pow(16, count - 1);  
 1420              		.loc 1 333 0
 1421 088a FB7F     		ldrb	r3, [r7, #31]	@ zero_extendqisi2
 1422 088c 013B     		subs	r3, r3, #1
 1423 088e 1946     		mov	r1, r3
 1424 0890 1020     		movs	r0, #16
 1425 0892 FFF7FEFF 		bl	ka_pow
 1426 0896 0246     		mov	r2, r0
 1427 0898 BB6B     		ldr	r3, [r7, #56]
 1428 089a B3FBF2F1 		udiv	r1, r3, r2
 1429 089e 02FB01F2 		mul	r2, r2, r1
 1430 08a2 9B1A     		subs	r3, r3, r2
 1431 08a4 BB63     		str	r3, [r7, #56]
 334:../../source/src/kernel/OS_LIB/myMicroLIB.c **** 	                        if(ch <= 9) 
 1432              		.loc 1 334 0
 1433 08a6 FB7B     		ldrb	r3, [r7, #15]	@ zero_extendqisi2
 1434 08a8 092B     		cmp	r3, #9
 1435 08aa 06D8     		bhi	.L95
 335:../../source/src/kernel/OS_LIB/myMicroLIB.c **** 	                            ka_putchar(ch + '0');
 1436              		.loc 1 335 0
 1437 08ac FB7B     		ldrb	r3, [r7, #15]
 1438 08ae 3033     		adds	r3, r3, #48
 1439 08b0 DBB2     		uxtb	r3, r3
 1440 08b2 1846     		mov	r0, r3
 1441 08b4 FFF7FEFF 		bl	ka_putchar
 1442 08b8 05E0     		b	.L96
 1443              	.L95:
 336:../../source/src/kernel/OS_LIB/myMicroLIB.c **** 	                        else   
 337:../../source/src/kernel/OS_LIB/myMicroLIB.c **** 	                            ka_putchar(ch - 10 + 'a');
 1444              		.loc 1 337 0
 1445 08ba FB7B     		ldrb	r3, [r7, #15]
 1446 08bc 5733     		adds	r3, r3, #87
 1447 08be DBB2     		uxtb	r3, r3
 1448 08c0 1846     		mov	r0, r3
 1449 08c2 FFF7FEFF 		bl	ka_putchar
 1450              	.L96:
 338:../../source/src/kernel/OS_LIB/myMicroLIB.c **** 	                        count--;  
 1451              		.loc 1 338 0
 1452 08c6 FB7F     		ldrb	r3, [r7, #31]	@ zero_extendqisi2
 1453 08c8 013B     		subs	r3, r3, #1
 1454 08ca FB77     		strb	r3, [r7, #31]
 1455              	.L94:
 330:../../source/src/kernel/OS_LIB/myMicroLIB.c **** 	                    {   
 1456              		.loc 1 330 0
ARM GAS  G:\Users\Jaxb\AppData\Local\Temp\ccW59wSv.s 			page 33


 1457 08cc FB7F     		ldrb	r3, [r7, #31]	@ zero_extendqisi2
 1458 08ce 002B     		cmp	r3, #0
 1459 08d0 D0D1     		bne	.L97
 339:../../source/src/kernel/OS_LIB/myMicroLIB.c **** 	                    }
 340:../../source/src/kernel/OS_LIB/myMicroLIB.c **** 	                    break;
 1460              		.loc 1 340 0
 1461 08d2 85E0     		b	.L40
 1462              	.L36:
 341:../../source/src/kernel/OS_LIB/myMicroLIB.c **** 
 342:../../source/src/kernel/OS_LIB/myMicroLIB.c **** 
 343:../../source/src/kernel/OS_LIB/myMicroLIB.c **** 	                case 's': /* string*/
 344:../../source/src/kernel/OS_LIB/myMicroLIB.c **** 	                    s = va_arg(ap, char *);   
 1463              		.loc 1 344 0
 1464 08d4 3B68     		ldr	r3, [r7]
 1465 08d6 1A1D     		adds	r2, r3, #4
 1466 08d8 3A60     		str	r2, [r7]
 1467 08da 1B68     		ldr	r3, [r3]
 1468 08dc 3B61     		str	r3, [r7, #16]
 345:../../source/src/kernel/OS_LIB/myMicroLIB.c **** 	                    m_putstr(s);  
 1469              		.loc 1 345 0
 1470 08de 3869     		ldr	r0, [r7, #16]
 1471 08e0 FFF7A6FB 		bl	m_putstr
 346:../../source/src/kernel/OS_LIB/myMicroLIB.c **** 	                    res += ka_strlen(s);  
 1472              		.loc 1 346 0
 1473 08e4 3869     		ldr	r0, [r7, #16]
 1474 08e6 FFF7FEFF 		bl	ka_strlen
 1475 08ea 0246     		mov	r2, r0
 1476 08ec BB69     		ldr	r3, [r7, #24]
 1477 08ee 1344     		add	r3, r3, r2
 1478 08f0 BB61     		str	r3, [r7, #24]
 347:../../source/src/kernel/OS_LIB/myMicroLIB.c **** 	                  	break;
 1479              		.loc 1 347 0
 1480 08f2 75E0     		b	.L40
 1481              	.L30:
 348:../../source/src/kernel/OS_LIB/myMicroLIB.c **** 
 349:../../source/src/kernel/OS_LIB/myMicroLIB.c **** 
 350:../../source/src/kernel/OS_LIB/myMicroLIB.c **** 	                case 'c': /* char */
 351:../../source/src/kernel/OS_LIB/myMicroLIB.c **** 	                    ka_putchar( (char)va_arg(ap, int )); 
 1482              		.loc 1 351 0
 1483 08f4 3B68     		ldr	r3, [r7]
 1484 08f6 1A1D     		adds	r2, r3, #4
 1485 08f8 3A60     		str	r2, [r7]
 1486 08fa 1B68     		ldr	r3, [r3]
 1487 08fc DBB2     		uxtb	r3, r3
 1488 08fe 1846     		mov	r0, r3
 1489 0900 FFF7FEFF 		bl	ka_putchar
 352:../../source/src/kernel/OS_LIB/myMicroLIB.c **** 	                    res += 1;  
 1490              		.loc 1 352 0
 1491 0904 BB69     		ldr	r3, [r7, #24]
 1492 0906 0133     		adds	r3, r3, #1
 1493 0908 BB61     		str	r3, [r7, #24]
 353:../../source/src/kernel/OS_LIB/myMicroLIB.c **** 	                    break; 
 1494              		.loc 1 353 0
 1495 090a 69E0     		b	.L40
 1496              	.L28:
 354:../../source/src/kernel/OS_LIB/myMicroLIB.c **** 
 355:../../source/src/kernel/OS_LIB/myMicroLIB.c **** 	                case '%':
ARM GAS  G:\Users\Jaxb\AppData\Local\Temp\ccW59wSv.s 			page 34


 356:../../source/src/kernel/OS_LIB/myMicroLIB.c **** 	                	ka_putchar('%');
 1497              		.loc 1 356 0
 1498 090c 2520     		movs	r0, #37
 1499 090e FFF7FEFF 		bl	ka_putchar
 357:../../source/src/kernel/OS_LIB/myMicroLIB.c **** 	                	res += 1;  
 1500              		.loc 1 357 0
 1501 0912 BB69     		ldr	r3, [r7, #24]
 1502 0914 0133     		adds	r3, r3, #1
 1503 0916 BB61     		str	r3, [r7, #24]
 358:../../source/src/kernel/OS_LIB/myMicroLIB.c **** 	                    break;
 1504              		.loc 1 358 0
 1505 0918 62E0     		b	.L40
 1506              	.L35:
 359:../../source/src/kernel/OS_LIB/myMicroLIB.c **** 
 360:../../source/src/kernel/OS_LIB/myMicroLIB.c **** 	                case 'p': /*pointer*/
 361:../../source/src/kernel/OS_LIB/myMicroLIB.c **** 	                	val = va_arg(ap, int);   
 1507              		.loc 1 361 0
 1508 091a 3B68     		ldr	r3, [r7]
 1509 091c 1A1D     		adds	r2, r3, #4
 1510 091e 3A60     		str	r2, [r7]
 1511 0920 1B68     		ldr	r3, [r3]
 1512 0922 FB63     		str	r3, [r7, #60]
 362:../../source/src/kernel/OS_LIB/myMicroLIB.c **** 	                    r_val = val;   
 1513              		.loc 1 362 0
 1514 0924 FB6B     		ldr	r3, [r7, #60]
 1515 0926 BB63     		str	r3, [r7, #56]
 363:../../source/src/kernel/OS_LIB/myMicroLIB.c **** 	                    count = 0;  
 1516              		.loc 1 363 0
 1517 0928 0023     		movs	r3, #0
 1518 092a FB77     		strb	r3, [r7, #31]
 364:../../source/src/kernel/OS_LIB/myMicroLIB.c **** 	                    while(r_val)  
 1519              		.loc 1 364 0
 1520 092c 08E0     		b	.L98
 1521              	.L100:
 365:../../source/src/kernel/OS_LIB/myMicroLIB.c **** 	                    {   
 366:../../source/src/kernel/OS_LIB/myMicroLIB.c **** 	                         count++; /*   */
 1522              		.loc 1 366 0
 1523 092e FB7F     		ldrb	r3, [r7, #31]	@ zero_extendqisi2
 1524 0930 0133     		adds	r3, r3, #1
 1525 0932 FB77     		strb	r3, [r7, #31]
 367:../../source/src/kernel/OS_LIB/myMicroLIB.c **** 	                         r_val /= 16;   
 1526              		.loc 1 367 0
 1527 0934 BB6B     		ldr	r3, [r7, #56]
 1528 0936 002B     		cmp	r3, #0
 1529 0938 00DA     		bge	.L99
 1530 093a 0F33     		adds	r3, r3, #15
 1531              	.L99:
 1532 093c 1B11     		asrs	r3, r3, #4
 1533 093e BB63     		str	r3, [r7, #56]
 1534              	.L98:
 364:../../source/src/kernel/OS_LIB/myMicroLIB.c **** 	                    while(r_val)  
 1535              		.loc 1 364 0
 1536 0940 BB6B     		ldr	r3, [r7, #56]
 1537 0942 002B     		cmp	r3, #0
 1538 0944 F3D1     		bne	.L100
 368:../../source/src/kernel/OS_LIB/myMicroLIB.c **** 	                    }
 369:../../source/src/kernel/OS_LIB/myMicroLIB.c **** 	                    res += count;/*   */
ARM GAS  G:\Users\Jaxb\AppData\Local\Temp\ccW59wSv.s 			page 35


 1539              		.loc 1 369 0
 1540 0946 FB7F     		ldrb	r3, [r7, #31]	@ zero_extendqisi2
 1541 0948 BA69     		ldr	r2, [r7, #24]
 1542 094a 1344     		add	r3, r3, r2
 1543 094c BB61     		str	r3, [r7, #24]
 370:../../source/src/kernel/OS_LIB/myMicroLIB.c **** 	                    r_val = val;
 1544              		.loc 1 370 0
 1545 094e FB6B     		ldr	r3, [r7, #60]
 1546 0950 BB63     		str	r3, [r7, #56]
 371:../../source/src/kernel/OS_LIB/myMicroLIB.c **** 	                    buffer = 8-count;
 1547              		.loc 1 371 0
 1548 0952 FB7F     		ldrb	r3, [r7, #31]	@ zero_extendqisi2
 1549 0954 C3F10803 		rsb	r3, r3, #8
 1550 0958 7B61     		str	r3, [r7, #20]
 372:../../source/src/kernel/OS_LIB/myMicroLIB.c **** 	                    while(buffer--)
 1551              		.loc 1 372 0
 1552 095a 02E0     		b	.L101
 1553              	.L102:
 373:../../source/src/kernel/OS_LIB/myMicroLIB.c **** 	                    {
 374:../../source/src/kernel/OS_LIB/myMicroLIB.c **** 	                    	ka_putchar('0');
 1554              		.loc 1 374 0
 1555 095c 3020     		movs	r0, #48
 1556 095e FFF7FEFF 		bl	ka_putchar
 1557              	.L101:
 372:../../source/src/kernel/OS_LIB/myMicroLIB.c **** 	                    while(buffer--)
 1558              		.loc 1 372 0
 1559 0962 7B69     		ldr	r3, [r7, #20]
 1560 0964 5A1E     		subs	r2, r3, #1
 1561 0966 7A61     		str	r2, [r7, #20]
 1562 0968 002B     		cmp	r3, #0
 1563 096a F7D1     		bne	.L102
 375:../../source/src/kernel/OS_LIB/myMicroLIB.c **** 	                    }
 376:../../source/src/kernel/OS_LIB/myMicroLIB.c **** 	                    while(count)   
 1564              		.loc 1 376 0
 1565 096c 2BE0     		b	.L103
 1566              	.L106:
 377:../../source/src/kernel/OS_LIB/myMicroLIB.c **** 	                    {   
 378:../../source/src/kernel/OS_LIB/myMicroLIB.c **** 	                        ch = r_val / ka_pow(16, count - 1);   
 1567              		.loc 1 378 0
 1568 096e BC6B     		ldr	r4, [r7, #56]
 1569 0970 FB7F     		ldrb	r3, [r7, #31]	@ zero_extendqisi2
 1570 0972 013B     		subs	r3, r3, #1
 1571 0974 1946     		mov	r1, r3
 1572 0976 1020     		movs	r0, #16
 1573 0978 FFF7FEFF 		bl	ka_pow
 1574 097c 0346     		mov	r3, r0
 1575 097e B4FBF3F3 		udiv	r3, r4, r3
 1576 0982 FB73     		strb	r3, [r7, #15]
 379:../../source/src/kernel/OS_LIB/myMicroLIB.c **** 	                        r_val %= ka_pow(16, count - 1);  
 1577              		.loc 1 379 0
 1578 0984 FB7F     		ldrb	r3, [r7, #31]	@ zero_extendqisi2
 1579 0986 013B     		subs	r3, r3, #1
 1580 0988 1946     		mov	r1, r3
 1581 098a 1020     		movs	r0, #16
 1582 098c FFF7FEFF 		bl	ka_pow
 1583 0990 0246     		mov	r2, r0
 1584 0992 BB6B     		ldr	r3, [r7, #56]
ARM GAS  G:\Users\Jaxb\AppData\Local\Temp\ccW59wSv.s 			page 36


 1585 0994 B3FBF2F1 		udiv	r1, r3, r2
 1586 0998 02FB01F2 		mul	r2, r2, r1
 1587 099c 9B1A     		subs	r3, r3, r2
 1588 099e BB63     		str	r3, [r7, #56]
 380:../../source/src/kernel/OS_LIB/myMicroLIB.c **** 	                        if(ch <= 9) 
 1589              		.loc 1 380 0
 1590 09a0 FB7B     		ldrb	r3, [r7, #15]	@ zero_extendqisi2
 1591 09a2 092B     		cmp	r3, #9
 1592 09a4 06D8     		bhi	.L104
 381:../../source/src/kernel/OS_LIB/myMicroLIB.c **** 	                            ka_putchar(ch + '0');
 1593              		.loc 1 381 0
 1594 09a6 FB7B     		ldrb	r3, [r7, #15]
 1595 09a8 3033     		adds	r3, r3, #48
 1596 09aa DBB2     		uxtb	r3, r3
 1597 09ac 1846     		mov	r0, r3
 1598 09ae FFF7FEFF 		bl	ka_putchar
 1599 09b2 05E0     		b	.L105
 1600              	.L104:
 382:../../source/src/kernel/OS_LIB/myMicroLIB.c **** 	                        else   
 383:../../source/src/kernel/OS_LIB/myMicroLIB.c **** 	                            ka_putchar(ch - 10 + 'a');
 1601              		.loc 1 383 0
 1602 09b4 FB7B     		ldrb	r3, [r7, #15]
 1603 09b6 5733     		adds	r3, r3, #87
 1604 09b8 DBB2     		uxtb	r3, r3
 1605 09ba 1846     		mov	r0, r3
 1606 09bc FFF7FEFF 		bl	ka_putchar
 1607              	.L105:
 384:../../source/src/kernel/OS_LIB/myMicroLIB.c **** 	                        count--;  
 1608              		.loc 1 384 0
 1609 09c0 FB7F     		ldrb	r3, [r7, #31]	@ zero_extendqisi2
 1610 09c2 013B     		subs	r3, r3, #1
 1611 09c4 FB77     		strb	r3, [r7, #31]
 1612              	.L103:
 376:../../source/src/kernel/OS_LIB/myMicroLIB.c **** 	                    {   
 1613              		.loc 1 376 0
 1614 09c6 FB7F     		ldrb	r3, [r7, #31]	@ zero_extendqisi2
 1615 09c8 002B     		cmp	r3, #0
 1616 09ca D0D1     		bne	.L106
 385:../../source/src/kernel/OS_LIB/myMicroLIB.c **** 	                    }
 386:../../source/src/kernel/OS_LIB/myMicroLIB.c **** 	                    break;
 1617              		.loc 1 386 0
 1618 09cc 08E0     		b	.L40
 1619              	.L27:
 387:../../source/src/kernel/OS_LIB/myMicroLIB.c **** 
 388:../../source/src/kernel/OS_LIB/myMicroLIB.c **** 	                default :
 389:../../source/src/kernel/OS_LIB/myMicroLIB.c **** 	                	ka_putchar(*str);
 1620              		.loc 1 389 0
 1621 09ce 3B6D     		ldr	r3, [r7, #80]
 1622 09d0 1B78     		ldrb	r3, [r3]	@ zero_extendqisi2
 1623 09d2 1846     		mov	r0, r3
 1624 09d4 FFF7FEFF 		bl	ka_putchar
 390:../../source/src/kernel/OS_LIB/myMicroLIB.c **** 	            		res += 1;
 1625              		.loc 1 390 0
 1626 09d8 BB69     		ldr	r3, [r7, #24]
 1627 09da 0133     		adds	r3, r3, #1
 1628 09dc BB61     		str	r3, [r7, #24]
 391:../../source/src/kernel/OS_LIB/myMicroLIB.c **** 				}
ARM GAS  G:\Users\Jaxb\AppData\Local\Temp\ccW59wSv.s 			page 37


 392:../../source/src/kernel/OS_LIB/myMicroLIB.c **** 				break ;
 1629              		.loc 1 392 0
 1630 09de 12E0     		b	.L107
 1631              	.L40:
 1632 09e0 11E0     		b	.L107
 1633              	.L25:
 393:../../source/src/kernel/OS_LIB/myMicroLIB.c **** 
 394:../../source/src/kernel/OS_LIB/myMicroLIB.c **** 			case '\n':  
 395:../../source/src/kernel/OS_LIB/myMicroLIB.c **** 					ka_putchar('\r');
 1634              		.loc 1 395 0
 1635 09e2 0D20     		movs	r0, #13
 1636 09e4 FFF7FEFF 		bl	ka_putchar
 396:../../source/src/kernel/OS_LIB/myMicroLIB.c **** 	                ka_putchar('\n');   
 1637              		.loc 1 396 0
 1638 09e8 0A20     		movs	r0, #10
 1639 09ea FFF7FEFF 		bl	ka_putchar
 397:../../source/src/kernel/OS_LIB/myMicroLIB.c **** 	                res += 1;
 1640              		.loc 1 397 0
 1641 09ee BB69     		ldr	r3, [r7, #24]
 1642 09f0 0133     		adds	r3, r3, #1
 1643 09f2 BB61     		str	r3, [r7, #24]
 398:../../source/src/kernel/OS_LIB/myMicroLIB.c **** 	                break;
 1644              		.loc 1 398 0
 1645 09f4 07E0     		b	.L107
 1646              	.L111:
 399:../../source/src/kernel/OS_LIB/myMicroLIB.c **** 
 400:../../source/src/kernel/OS_LIB/myMicroLIB.c **** 	        default :
 401:../../source/src/kernel/OS_LIB/myMicroLIB.c **** 	            	ka_putchar(*str);
 1647              		.loc 1 401 0
 1648 09f6 3B6D     		ldr	r3, [r7, #80]
 1649 09f8 1B78     		ldrb	r3, [r3]	@ zero_extendqisi2
 1650 09fa 1846     		mov	r0, r3
 1651 09fc FFF7FEFF 		bl	ka_putchar
 402:../../source/src/kernel/OS_LIB/myMicroLIB.c **** 	            	res += 1;
 1652              		.loc 1 402 0
 1653 0a00 BB69     		ldr	r3, [r7, #24]
 1654 0a02 0133     		adds	r3, r3, #1
 1655 0a04 BB61     		str	r3, [r7, #24]
 1656              	.L107:
 403:../../source/src/kernel/OS_LIB/myMicroLIB.c **** 		}
 404:../../source/src/kernel/OS_LIB/myMicroLIB.c **** 		++str;
 1657              		.loc 1 404 0
 1658 0a06 3B6D     		ldr	r3, [r7, #80]
 1659 0a08 0133     		adds	r3, r3, #1
 1660 0a0a 3B65     		str	r3, [r7, #80]
 1661              	.L23:
  84:../../source/src/kernel/OS_LIB/myMicroLIB.c **** 	{
 1662              		.loc 1 84 0
 1663 0a0c 3B6D     		ldr	r3, [r7, #80]
 1664 0a0e 1B78     		ldrb	r3, [r3]	@ zero_extendqisi2
 1665 0a10 002B     		cmp	r3, #0
 1666 0a12 7FF49FAB 		bne	.L108
 405:../../source/src/kernel/OS_LIB/myMicroLIB.c **** 	}
 406:../../source/src/kernel/OS_LIB/myMicroLIB.c **** 	va_end(ap);  
 407:../../source/src/kernel/OS_LIB/myMicroLIB.c ****     return res;	
 1667              		.loc 1 407 0
 1668 0a16 BB69     		ldr	r3, [r7, #24]
ARM GAS  G:\Users\Jaxb\AppData\Local\Temp\ccW59wSv.s 			page 38


 408:../../source/src/kernel/OS_LIB/myMicroLIB.c **** }
 1669              		.loc 1 408 0
 1670 0a18 1846     		mov	r0, r3
 1671 0a1a 4437     		adds	r7, r7, #68
 1672              	.LCFI32:
 1673              		.cfi_def_cfa_offset 28
 1674 0a1c BD46     		mov	sp, r7
 1675              	.LCFI33:
 1676              		.cfi_def_cfa_register 13
 1677              		@ sp needed
 1678 0a1e BDE89040 		pop	{r4, r7, lr}
 1679              	.LCFI34:
 1680              		.cfi_restore 14
 1681              		.cfi_restore 7
 1682              		.cfi_restore 4
 1683              		.cfi_def_cfa_offset 16
 1684 0a22 04B0     		add	sp, sp, #16
 1685              	.LCFI35:
 1686              		.cfi_restore 3
 1687              		.cfi_restore 2
 1688              		.cfi_restore 1
 1689              		.cfi_restore 0
 1690              		.cfi_def_cfa_offset 0
 1691 0a24 7047     		bx	lr
 1692              		.cfi_endproc
 1693              	.LFE34:
 1694              		.size	ka_printf, .-ka_printf
 1695              		.global	__rtmsym_ka_printf_name
 1696              		.section	.rodata.name,"a",%progbits
 1697              		.align	2
 1698              		.type	__rtmsym_ka_printf_name, %object
 1699              		.size	__rtmsym_ka_printf_name, 10
 1700              	__rtmsym_ka_printf_name:
 1701 0000 6B615F70 		.ascii	"ka_printf\000"
 1701      72696E74 
 1701      6600
 1702              		.global	__rtmsym_ka_printf
 1703              		.section	.RTMSymTab,"a",%progbits
 1704              		.align	2
 1705              		.type	__rtmsym_ka_printf, %object
 1706              		.size	__rtmsym_ka_printf, 8
 1707              	__rtmsym_ka_printf:
 1708 0000 00000000 		.word	ka_printf
 1709 0004 00000000 		.word	__rtmsym_ka_printf_name
 1710              		.text
 1711              		.align	1
 1712              		.global	ka_strncmp
 1713              		.syntax unified
 1714              		.thumb
 1715              		.thumb_func
 1716              		.fpu softvfp
 1717              		.type	ka_strncmp, %function
 1718              	ka_strncmp:
 1719              	.LFB35:
 409:../../source/src/kernel/OS_LIB/myMicroLIB.c **** EXPORT_SYMBOL(ka_printf);
 410:../../source/src/kernel/OS_LIB/myMicroLIB.c **** 
 411:../../source/src/kernel/OS_LIB/myMicroLIB.c **** int ka_strncmp(const char * str1, const char * str2, int num)
ARM GAS  G:\Users\Jaxb\AppData\Local\Temp\ccW59wSv.s 			page 39


 412:../../source/src/kernel/OS_LIB/myMicroLIB.c **** {
 1720              		.loc 1 412 0
 1721              		.cfi_startproc
 1722              		@ args = 0, pretend = 0, frame = 16
 1723              		@ frame_needed = 1, uses_anonymous_args = 0
 1724              		@ link register save eliminated.
 1725 0a26 80B4     		push	{r7}
 1726              	.LCFI36:
 1727              		.cfi_def_cfa_offset 4
 1728              		.cfi_offset 7, -4
 1729 0a28 85B0     		sub	sp, sp, #20
 1730              	.LCFI37:
 1731              		.cfi_def_cfa_offset 24
 1732 0a2a 00AF     		add	r7, sp, #0
 1733              	.LCFI38:
 1734              		.cfi_def_cfa_register 7
 1735 0a2c F860     		str	r0, [r7, #12]
 1736 0a2e B960     		str	r1, [r7, #8]
 1737 0a30 7A60     		str	r2, [r7, #4]
 413:../../source/src/kernel/OS_LIB/myMicroLIB.c **** 	if(0 == num)
 1738              		.loc 1 413 0
 1739 0a32 7B68     		ldr	r3, [r7, #4]
 1740 0a34 002B     		cmp	r3, #0
 1741 0a36 13D1     		bne	.L120
 414:../../source/src/kernel/OS_LIB/myMicroLIB.c **** 	{
 415:../../source/src/kernel/OS_LIB/myMicroLIB.c **** 		return 0;
 1742              		.loc 1 415 0
 1743 0a38 0023     		movs	r3, #0
 1744 0a3a 1DE0     		b	.L119
 1745              	.L123:
 416:../../source/src/kernel/OS_LIB/myMicroLIB.c **** 	}
 417:../../source/src/kernel/OS_LIB/myMicroLIB.c **** 	while(*str1 == *str2)
 418:../../source/src/kernel/OS_LIB/myMicroLIB.c **** 	{
 419:../../source/src/kernel/OS_LIB/myMicroLIB.c **** 		if((0 == --num) || ('\0' == *str1))
 1746              		.loc 1 419 0
 1747 0a3c 7B68     		ldr	r3, [r7, #4]
 1748 0a3e 013B     		subs	r3, r3, #1
 1749 0a40 7B60     		str	r3, [r7, #4]
 1750 0a42 7B68     		ldr	r3, [r7, #4]
 1751 0a44 002B     		cmp	r3, #0
 1752 0a46 03D0     		beq	.L121
 1753              		.loc 1 419 0 is_stmt 0 discriminator 1
 1754 0a48 FB68     		ldr	r3, [r7, #12]
 1755 0a4a 1B78     		ldrb	r3, [r3]	@ zero_extendqisi2
 1756 0a4c 002B     		cmp	r3, #0
 1757 0a4e 01D1     		bne	.L122
 1758              	.L121:
 420:../../source/src/kernel/OS_LIB/myMicroLIB.c **** 		{
 421:../../source/src/kernel/OS_LIB/myMicroLIB.c **** 			return 0;
 1759              		.loc 1 421 0 is_stmt 1
 1760 0a50 0023     		movs	r3, #0
 1761 0a52 11E0     		b	.L119
 1762              	.L122:
 422:../../source/src/kernel/OS_LIB/myMicroLIB.c **** 		}
 423:../../source/src/kernel/OS_LIB/myMicroLIB.c **** 		++str1;
 1763              		.loc 1 423 0
 1764 0a54 FB68     		ldr	r3, [r7, #12]
ARM GAS  G:\Users\Jaxb\AppData\Local\Temp\ccW59wSv.s 			page 40


 1765 0a56 0133     		adds	r3, r3, #1
 1766 0a58 FB60     		str	r3, [r7, #12]
 424:../../source/src/kernel/OS_LIB/myMicroLIB.c **** 		++str2;
 1767              		.loc 1 424 0
 1768 0a5a BB68     		ldr	r3, [r7, #8]
 1769 0a5c 0133     		adds	r3, r3, #1
 1770 0a5e BB60     		str	r3, [r7, #8]
 1771              	.L120:
 417:../../source/src/kernel/OS_LIB/myMicroLIB.c **** 	{
 1772              		.loc 1 417 0
 1773 0a60 FB68     		ldr	r3, [r7, #12]
 1774 0a62 1A78     		ldrb	r2, [r3]	@ zero_extendqisi2
 1775 0a64 BB68     		ldr	r3, [r7, #8]
 1776 0a66 1B78     		ldrb	r3, [r3]	@ zero_extendqisi2
 1777 0a68 9A42     		cmp	r2, r3
 1778 0a6a E7D0     		beq	.L123
 425:../../source/src/kernel/OS_LIB/myMicroLIB.c **** 	}
 426:../../source/src/kernel/OS_LIB/myMicroLIB.c **** 	return *str1 - *str2;
 1779              		.loc 1 426 0
 1780 0a6c FB68     		ldr	r3, [r7, #12]
 1781 0a6e 1B78     		ldrb	r3, [r3]	@ zero_extendqisi2
 1782 0a70 1A46     		mov	r2, r3
 1783 0a72 BB68     		ldr	r3, [r7, #8]
 1784 0a74 1B78     		ldrb	r3, [r3]	@ zero_extendqisi2
 1785 0a76 D31A     		subs	r3, r2, r3
 1786              	.L119:
 427:../../source/src/kernel/OS_LIB/myMicroLIB.c **** }
 1787              		.loc 1 427 0
 1788 0a78 1846     		mov	r0, r3
 1789 0a7a 1437     		adds	r7, r7, #20
 1790              	.LCFI39:
 1791              		.cfi_def_cfa_offset 4
 1792 0a7c BD46     		mov	sp, r7
 1793              	.LCFI40:
 1794              		.cfi_def_cfa_register 13
 1795              		@ sp needed
 1796 0a7e 80BC     		pop	{r7}
 1797              	.LCFI41:
 1798              		.cfi_restore 7
 1799              		.cfi_def_cfa_offset 0
 1800 0a80 7047     		bx	lr
 1801              		.cfi_endproc
 1802              	.LFE35:
 1803              		.size	ka_strncmp, .-ka_strncmp
 1804              		.align	1
 1805              		.global	ka_memset
 1806              		.syntax unified
 1807              		.thumb
 1808              		.thumb_func
 1809              		.fpu softvfp
 1810              		.type	ka_memset, %function
 1811              	ka_memset:
 1812              	.LFB36:
 428:../../source/src/kernel/OS_LIB/myMicroLIB.c **** 
 429:../../source/src/kernel/OS_LIB/myMicroLIB.c **** void ka_memset(void *s,const int ch, int n)
 430:../../source/src/kernel/OS_LIB/myMicroLIB.c **** {
 1813              		.loc 1 430 0
ARM GAS  G:\Users\Jaxb\AppData\Local\Temp\ccW59wSv.s 			page 41


 1814              		.cfi_startproc
 1815              		@ args = 0, pretend = 0, frame = 24
 1816              		@ frame_needed = 1, uses_anonymous_args = 0
 1817              		@ link register save eliminated.
 1818 0a82 80B4     		push	{r7}
 1819              	.LCFI42:
 1820              		.cfi_def_cfa_offset 4
 1821              		.cfi_offset 7, -4
 1822 0a84 87B0     		sub	sp, sp, #28
 1823              	.LCFI43:
 1824              		.cfi_def_cfa_offset 32
 1825 0a86 00AF     		add	r7, sp, #0
 1826              	.LCFI44:
 1827              		.cfi_def_cfa_register 7
 1828 0a88 F860     		str	r0, [r7, #12]
 1829 0a8a B960     		str	r1, [r7, #8]
 1830 0a8c 7A60     		str	r2, [r7, #4]
 431:../../source/src/kernel/OS_LIB/myMicroLIB.c **** 	char *ptr = (char *)s;
 1831              		.loc 1 431 0
 1832 0a8e FB68     		ldr	r3, [r7, #12]
 1833 0a90 7B61     		str	r3, [r7, #20]
 432:../../source/src/kernel/OS_LIB/myMicroLIB.c **** 	const char buffer = (char)ch;
 1834              		.loc 1 432 0
 1835 0a92 BB68     		ldr	r3, [r7, #8]
 1836 0a94 FB74     		strb	r3, [r7, #19]
 433:../../source/src/kernel/OS_LIB/myMicroLIB.c **** 	while(n--)
 1837              		.loc 1 433 0
 1838 0a96 04E0     		b	.L125
 1839              	.L126:
 434:../../source/src/kernel/OS_LIB/myMicroLIB.c **** 	{
 435:../../source/src/kernel/OS_LIB/myMicroLIB.c **** 		*ptr++ = buffer;
 1840              		.loc 1 435 0
 1841 0a98 7B69     		ldr	r3, [r7, #20]
 1842 0a9a 5A1C     		adds	r2, r3, #1
 1843 0a9c 7A61     		str	r2, [r7, #20]
 1844 0a9e FA7C     		ldrb	r2, [r7, #19]
 1845 0aa0 1A70     		strb	r2, [r3]
 1846              	.L125:
 433:../../source/src/kernel/OS_LIB/myMicroLIB.c **** 	while(n--)
 1847              		.loc 1 433 0
 1848 0aa2 7B68     		ldr	r3, [r7, #4]
 1849 0aa4 5A1E     		subs	r2, r3, #1
 1850 0aa6 7A60     		str	r2, [r7, #4]
 1851 0aa8 002B     		cmp	r3, #0
 1852 0aaa F5D1     		bne	.L126
 436:../../source/src/kernel/OS_LIB/myMicroLIB.c **** 	}
 437:../../source/src/kernel/OS_LIB/myMicroLIB.c **** }
 1853              		.loc 1 437 0
 1854 0aac 00BF     		nop
 1855 0aae 1C37     		adds	r7, r7, #28
 1856              	.LCFI45:
 1857              		.cfi_def_cfa_offset 4
 1858 0ab0 BD46     		mov	sp, r7
 1859              	.LCFI46:
 1860              		.cfi_def_cfa_register 13
 1861              		@ sp needed
 1862 0ab2 80BC     		pop	{r7}
ARM GAS  G:\Users\Jaxb\AppData\Local\Temp\ccW59wSv.s 			page 42


 1863              	.LCFI47:
 1864              		.cfi_restore 7
 1865              		.cfi_def_cfa_offset 0
 1866 0ab4 7047     		bx	lr
 1867              		.cfi_endproc
 1868              	.LFE36:
 1869              		.size	ka_memset, .-ka_memset
 1870              		.align	1
 1871              		.global	ka_strcpy
 1872              		.syntax unified
 1873              		.thumb
 1874              		.thumb_func
 1875              		.fpu softvfp
 1876              		.type	ka_strcpy, %function
 1877              	ka_strcpy:
 1878              	.LFB37:
 438:../../source/src/kernel/OS_LIB/myMicroLIB.c **** 
 439:../../source/src/kernel/OS_LIB/myMicroLIB.c **** void ka_strcpy(char *strDest, const char *strSrc)
 440:../../source/src/kernel/OS_LIB/myMicroLIB.c **** {
 1879              		.loc 1 440 0
 1880              		.cfi_startproc
 1881              		@ args = 0, pretend = 0, frame = 8
 1882              		@ frame_needed = 1, uses_anonymous_args = 0
 1883              		@ link register save eliminated.
 1884 0ab6 80B4     		push	{r7}
 1885              	.LCFI48:
 1886              		.cfi_def_cfa_offset 4
 1887              		.cfi_offset 7, -4
 1888 0ab8 83B0     		sub	sp, sp, #12
 1889              	.LCFI49:
 1890              		.cfi_def_cfa_offset 16
 1891 0aba 00AF     		add	r7, sp, #0
 1892              	.LCFI50:
 1893              		.cfi_def_cfa_register 7
 1894 0abc 7860     		str	r0, [r7, #4]
 1895 0abe 3960     		str	r1, [r7]
 441:../../source/src/kernel/OS_LIB/myMicroLIB.c **** 	if(!(strDest && strSrc))
 1896              		.loc 1 441 0
 1897 0ac0 7B68     		ldr	r3, [r7, #4]
 1898 0ac2 002B     		cmp	r3, #0
 1899 0ac4 0FD0     		beq	.L132
 1900              		.loc 1 441 0 is_stmt 0 discriminator 1
 1901 0ac6 3B68     		ldr	r3, [r7]
 1902 0ac8 002B     		cmp	r3, #0
 1903 0aca 0CD0     		beq	.L132
 442:../../source/src/kernel/OS_LIB/myMicroLIB.c **** 		return;
 443:../../source/src/kernel/OS_LIB/myMicroLIB.c **** 	while((*strDest++ = *strSrc++));
 1904              		.loc 1 443 0 is_stmt 1
 1905 0acc 00BF     		nop
 1906              	.L131:
 1907              		.loc 1 443 0 is_stmt 0 discriminator 1
 1908 0ace 3A68     		ldr	r2, [r7]
 1909 0ad0 531C     		adds	r3, r2, #1
 1910 0ad2 3B60     		str	r3, [r7]
 1911 0ad4 7B68     		ldr	r3, [r7, #4]
 1912 0ad6 591C     		adds	r1, r3, #1
 1913 0ad8 7960     		str	r1, [r7, #4]
ARM GAS  G:\Users\Jaxb\AppData\Local\Temp\ccW59wSv.s 			page 43


 1914 0ada 1278     		ldrb	r2, [r2]	@ zero_extendqisi2
 1915 0adc 1A70     		strb	r2, [r3]
 1916 0ade 1B78     		ldrb	r3, [r3]	@ zero_extendqisi2
 1917 0ae0 002B     		cmp	r3, #0
 1918 0ae2 F4D1     		bne	.L131
 1919 0ae4 00E0     		b	.L127
 1920              	.L132:
 442:../../source/src/kernel/OS_LIB/myMicroLIB.c **** 		return;
 1921              		.loc 1 442 0 is_stmt 1
 1922 0ae6 00BF     		nop
 1923              	.L127:
 444:../../source/src/kernel/OS_LIB/myMicroLIB.c **** }
 1924              		.loc 1 444 0
 1925 0ae8 0C37     		adds	r7, r7, #12
 1926              	.LCFI51:
 1927              		.cfi_def_cfa_offset 4
 1928 0aea BD46     		mov	sp, r7
 1929              	.LCFI52:
 1930              		.cfi_def_cfa_register 13
 1931              		@ sp needed
 1932 0aec 80BC     		pop	{r7}
 1933              	.LCFI53:
 1934              		.cfi_restore 7
 1935              		.cfi_def_cfa_offset 0
 1936 0aee 7047     		bx	lr
 1937              		.cfi_endproc
 1938              	.LFE37:
 1939              		.size	ka_strcpy, .-ka_strcpy
 1940              		.align	1
 1941              		.global	ka_atoi
 1942              		.syntax unified
 1943              		.thumb
 1944              		.thumb_func
 1945              		.fpu softvfp
 1946              		.type	ka_atoi, %function
 1947              	ka_atoi:
 1948              	.LFB38:
 445:../../source/src/kernel/OS_LIB/myMicroLIB.c **** 
 446:../../source/src/kernel/OS_LIB/myMicroLIB.c **** int ka_atoi(const char *char_ptr)
 447:../../source/src/kernel/OS_LIB/myMicroLIB.c **** {
 1949              		.loc 1 447 0
 1950              		.cfi_startproc
 1951              		@ args = 0, pretend = 0, frame = 16
 1952              		@ frame_needed = 1, uses_anonymous_args = 0
 1953              		@ link register save eliminated.
 1954 0af0 80B4     		push	{r7}
 1955              	.LCFI54:
 1956              		.cfi_def_cfa_offset 4
 1957              		.cfi_offset 7, -4
 1958 0af2 85B0     		sub	sp, sp, #20
 1959              	.LCFI55:
 1960              		.cfi_def_cfa_offset 24
 1961 0af4 00AF     		add	r7, sp, #0
 1962              	.LCFI56:
 1963              		.cfi_def_cfa_register 7
 1964 0af6 7860     		str	r0, [r7, #4]
 448:../../source/src/kernel/OS_LIB/myMicroLIB.c **** 	int num = 0;
ARM GAS  G:\Users\Jaxb\AppData\Local\Temp\ccW59wSv.s 			page 44


 1965              		.loc 1 448 0
 1966 0af8 0023     		movs	r3, #0
 1967 0afa FB60     		str	r3, [r7, #12]
 449:../../source/src/kernel/OS_LIB/myMicroLIB.c **** 	int sign = 1;
 1968              		.loc 1 449 0
 1969 0afc 0123     		movs	r3, #1
 1970 0afe BB60     		str	r3, [r7, #8]
 450:../../source/src/kernel/OS_LIB/myMicroLIB.c **** 	if(NULL == char_ptr)
 1971              		.loc 1 450 0
 1972 0b00 7B68     		ldr	r3, [r7, #4]
 1973 0b02 002B     		cmp	r3, #0
 1974 0b04 04D1     		bne	.L136
 451:../../source/src/kernel/OS_LIB/myMicroLIB.c **** 	{
 452:../../source/src/kernel/OS_LIB/myMicroLIB.c **** 		return 0;
 1975              		.loc 1 452 0
 1976 0b06 0023     		movs	r3, #0
 1977 0b08 33E0     		b	.L135
 1978              	.L137:
 453:../../source/src/kernel/OS_LIB/myMicroLIB.c **** 	}
 454:../../source/src/kernel/OS_LIB/myMicroLIB.c **** 	while(' ' == *char_ptr)
 455:../../source/src/kernel/OS_LIB/myMicroLIB.c **** 	{
 456:../../source/src/kernel/OS_LIB/myMicroLIB.c **** 		++char_ptr;
 1979              		.loc 1 456 0
 1980 0b0a 7B68     		ldr	r3, [r7, #4]
 1981 0b0c 0133     		adds	r3, r3, #1
 1982 0b0e 7B60     		str	r3, [r7, #4]
 1983              	.L136:
 454:../../source/src/kernel/OS_LIB/myMicroLIB.c **** 	{
 1984              		.loc 1 454 0
 1985 0b10 7B68     		ldr	r3, [r7, #4]
 1986 0b12 1B78     		ldrb	r3, [r3]	@ zero_extendqisi2
 1987 0b14 202B     		cmp	r3, #32
 1988 0b16 F8D0     		beq	.L137
 457:../../source/src/kernel/OS_LIB/myMicroLIB.c **** 	}
 458:../../source/src/kernel/OS_LIB/myMicroLIB.c **** 	if('-' == *char_ptr)
 1989              		.loc 1 458 0
 1990 0b18 7B68     		ldr	r3, [r7, #4]
 1991 0b1a 1B78     		ldrb	r3, [r3]	@ zero_extendqisi2
 1992 0b1c 2D2B     		cmp	r3, #45
 1993 0b1e 02D1     		bne	.L138
 459:../../source/src/kernel/OS_LIB/myMicroLIB.c **** 	{
 460:../../source/src/kernel/OS_LIB/myMicroLIB.c **** 		sign = -1;
 1994              		.loc 1 460 0
 1995 0b20 4FF0FF33 		mov	r3, #-1
 1996 0b24 BB60     		str	r3, [r7, #8]
 1997              	.L138:
 461:../../source/src/kernel/OS_LIB/myMicroLIB.c **** 	}
 462:../../source/src/kernel/OS_LIB/myMicroLIB.c **** 	if(('-' == *char_ptr) || ('+' == *char_ptr))
 1998              		.loc 1 462 0
 1999 0b26 7B68     		ldr	r3, [r7, #4]
 2000 0b28 1B78     		ldrb	r3, [r3]	@ zero_extendqisi2
 2001 0b2a 2D2B     		cmp	r3, #45
 2002 0b2c 03D0     		beq	.L139
 2003              		.loc 1 462 0 is_stmt 0 discriminator 1
 2004 0b2e 7B68     		ldr	r3, [r7, #4]
 2005 0b30 1B78     		ldrb	r3, [r3]	@ zero_extendqisi2
 2006 0b32 2B2B     		cmp	r3, #43
ARM GAS  G:\Users\Jaxb\AppData\Local\Temp\ccW59wSv.s 			page 45


 2007 0b34 11D1     		bne	.L141
 2008              	.L139:
 463:../../source/src/kernel/OS_LIB/myMicroLIB.c **** 	{
 464:../../source/src/kernel/OS_LIB/myMicroLIB.c **** 		++char_ptr;
 2009              		.loc 1 464 0 is_stmt 1
 2010 0b36 7B68     		ldr	r3, [r7, #4]
 2011 0b38 0133     		adds	r3, r3, #1
 2012 0b3a 7B60     		str	r3, [r7, #4]
 465:../../source/src/kernel/OS_LIB/myMicroLIB.c **** 	}
 466:../../source/src/kernel/OS_LIB/myMicroLIB.c **** 	while(IS_NUM(*char_ptr))
 2013              		.loc 1 466 0
 2014 0b3c 0DE0     		b	.L141
 2015              	.L143:
 467:../../source/src/kernel/OS_LIB/myMicroLIB.c **** 	{
 468:../../source/src/kernel/OS_LIB/myMicroLIB.c **** 		num = 10 * num + *char_ptr - '0';
 2016              		.loc 1 468 0
 2017 0b3e FA68     		ldr	r2, [r7, #12]
 2018 0b40 1346     		mov	r3, r2
 2019 0b42 9B00     		lsls	r3, r3, #2
 2020 0b44 1344     		add	r3, r3, r2
 2021 0b46 5B00     		lsls	r3, r3, #1
 2022 0b48 1A46     		mov	r2, r3
 2023 0b4a 7B68     		ldr	r3, [r7, #4]
 2024 0b4c 1B78     		ldrb	r3, [r3]	@ zero_extendqisi2
 2025 0b4e 1344     		add	r3, r3, r2
 2026 0b50 303B     		subs	r3, r3, #48
 2027 0b52 FB60     		str	r3, [r7, #12]
 469:../../source/src/kernel/OS_LIB/myMicroLIB.c **** 		++char_ptr;
 2028              		.loc 1 469 0
 2029 0b54 7B68     		ldr	r3, [r7, #4]
 2030 0b56 0133     		adds	r3, r3, #1
 2031 0b58 7B60     		str	r3, [r7, #4]
 2032              	.L141:
 466:../../source/src/kernel/OS_LIB/myMicroLIB.c **** 	{
 2033              		.loc 1 466 0
 2034 0b5a 7B68     		ldr	r3, [r7, #4]
 2035 0b5c 1B78     		ldrb	r3, [r3]	@ zero_extendqisi2
 2036 0b5e 2F2B     		cmp	r3, #47
 2037 0b60 03D9     		bls	.L142
 466:../../source/src/kernel/OS_LIB/myMicroLIB.c **** 	{
 2038              		.loc 1 466 0 is_stmt 0 discriminator 1
 2039 0b62 7B68     		ldr	r3, [r7, #4]
 2040 0b64 1B78     		ldrb	r3, [r3]	@ zero_extendqisi2
 2041 0b66 392B     		cmp	r3, #57
 2042 0b68 E9D9     		bls	.L143
 2043              	.L142:
 470:../../source/src/kernel/OS_LIB/myMicroLIB.c **** 	}
 471:../../source/src/kernel/OS_LIB/myMicroLIB.c **** 	return (sign*num);
 2044              		.loc 1 471 0 is_stmt 1
 2045 0b6a BB68     		ldr	r3, [r7, #8]
 2046 0b6c FA68     		ldr	r2, [r7, #12]
 2047 0b6e 02FB03F3 		mul	r3, r2, r3
 2048              	.L135:
 472:../../source/src/kernel/OS_LIB/myMicroLIB.c **** }
 2049              		.loc 1 472 0
 2050 0b72 1846     		mov	r0, r3
 2051 0b74 1437     		adds	r7, r7, #20
ARM GAS  G:\Users\Jaxb\AppData\Local\Temp\ccW59wSv.s 			page 46


 2052              	.LCFI57:
 2053              		.cfi_def_cfa_offset 4
 2054 0b76 BD46     		mov	sp, r7
 2055              	.LCFI58:
 2056              		.cfi_def_cfa_register 13
 2057              		@ sp needed
 2058 0b78 80BC     		pop	{r7}
 2059              	.LCFI59:
 2060              		.cfi_restore 7
 2061              		.cfi_def_cfa_offset 0
 2062 0b7a 7047     		bx	lr
 2063              		.cfi_endproc
 2064              	.LFE38:
 2065              		.size	ka_atoi, .-ka_atoi
 2066              		.global	__aeabi_dadd
 2067              		.global	__aeabi_ddiv
 2068              		.align	1
 2069              		.global	ka_atof
 2070              		.syntax unified
 2071              		.thumb
 2072              		.thumb_func
 2073              		.fpu softvfp
 2074              		.type	ka_atof, %function
 2075              	ka_atof:
 2076              	.LFB39:
 473:../../source/src/kernel/OS_LIB/myMicroLIB.c **** 
 474:../../source/src/kernel/OS_LIB/myMicroLIB.c **** double ka_atof(const char *char_ptr)
 475:../../source/src/kernel/OS_LIB/myMicroLIB.c **** {
 2077              		.loc 1 475 0
 2078              		.cfi_startproc
 2079              		@ args = 0, pretend = 0, frame = 32
 2080              		@ frame_needed = 1, uses_anonymous_args = 0
 2081 0b7c B0B5     		push	{r4, r5, r7, lr}
 2082              	.LCFI60:
 2083              		.cfi_def_cfa_offset 16
 2084              		.cfi_offset 4, -16
 2085              		.cfi_offset 5, -12
 2086              		.cfi_offset 7, -8
 2087              		.cfi_offset 14, -4
 2088 0b7e 88B0     		sub	sp, sp, #32
 2089              	.LCFI61:
 2090              		.cfi_def_cfa_offset 48
 2091 0b80 00AF     		add	r7, sp, #0
 2092              	.LCFI62:
 2093              		.cfi_def_cfa_register 7
 2094 0b82 7860     		str	r0, [r7, #4]
 476:../../source/src/kernel/OS_LIB/myMicroLIB.c **** 	double num = 0.0;
 2095              		.loc 1 476 0
 2096 0b84 4FF00003 		mov	r3, #0
 2097 0b88 4FF00004 		mov	r4, #0
 2098 0b8c C7E90634 		strd	r3, [r7, #24]
 477:../../source/src/kernel/OS_LIB/myMicroLIB.c **** 	int sign = 1;
 2099              		.loc 1 477 0
 2100 0b90 0123     		movs	r3, #1
 2101 0b92 7B61     		str	r3, [r7, #20]
 478:../../source/src/kernel/OS_LIB/myMicroLIB.c **** 	double divisor = 10.0;
 2102              		.loc 1 478 0
ARM GAS  G:\Users\Jaxb\AppData\Local\Temp\ccW59wSv.s 			page 47


 2103 0b94 4FF00003 		mov	r3, #0
 2104 0b98 4E4C     		ldr	r4, .L159
 2105 0b9a C7E90234 		strd	r3, [r7, #8]
 479:../../source/src/kernel/OS_LIB/myMicroLIB.c **** 	if(NULL == char_ptr)
 2106              		.loc 1 479 0
 2107 0b9e 7B68     		ldr	r3, [r7, #4]
 2108 0ba0 002B     		cmp	r3, #0
 2109 0ba2 07D1     		bne	.L147
 480:../../source/src/kernel/OS_LIB/myMicroLIB.c **** 	{
 481:../../source/src/kernel/OS_LIB/myMicroLIB.c **** 		return 0.0;
 2110              		.loc 1 481 0
 2111 0ba4 4FF00003 		mov	r3, #0
 2112 0ba8 4FF00004 		mov	r4, #0
 2113 0bac 8DE0     		b	.L146
 2114              	.L148:
 482:../../source/src/kernel/OS_LIB/myMicroLIB.c **** 	}
 483:../../source/src/kernel/OS_LIB/myMicroLIB.c **** 	while(' ' == *char_ptr)
 484:../../source/src/kernel/OS_LIB/myMicroLIB.c **** 	{
 485:../../source/src/kernel/OS_LIB/myMicroLIB.c **** 		++char_ptr;
 2115              		.loc 1 485 0
 2116 0bae 7B68     		ldr	r3, [r7, #4]
 2117 0bb0 0133     		adds	r3, r3, #1
 2118 0bb2 7B60     		str	r3, [r7, #4]
 2119              	.L147:
 483:../../source/src/kernel/OS_LIB/myMicroLIB.c **** 	{
 2120              		.loc 1 483 0
 2121 0bb4 7B68     		ldr	r3, [r7, #4]
 2122 0bb6 1B78     		ldrb	r3, [r3]	@ zero_extendqisi2
 2123 0bb8 202B     		cmp	r3, #32
 2124 0bba F8D0     		beq	.L148
 486:../../source/src/kernel/OS_LIB/myMicroLIB.c **** 	}
 487:../../source/src/kernel/OS_LIB/myMicroLIB.c **** 	if('-' == *char_ptr)
 2125              		.loc 1 487 0
 2126 0bbc 7B68     		ldr	r3, [r7, #4]
 2127 0bbe 1B78     		ldrb	r3, [r3]	@ zero_extendqisi2
 2128 0bc0 2D2B     		cmp	r3, #45
 2129 0bc2 02D1     		bne	.L149
 488:../../source/src/kernel/OS_LIB/myMicroLIB.c **** 	{
 489:../../source/src/kernel/OS_LIB/myMicroLIB.c **** 		sign = -1;
 2130              		.loc 1 489 0
 2131 0bc4 4FF0FF33 		mov	r3, #-1
 2132 0bc8 7B61     		str	r3, [r7, #20]
 2133              	.L149:
 490:../../source/src/kernel/OS_LIB/myMicroLIB.c **** 	}
 491:../../source/src/kernel/OS_LIB/myMicroLIB.c **** 	if(('-' == *char_ptr) || ('+' == *char_ptr))
 2134              		.loc 1 491 0
 2135 0bca 7B68     		ldr	r3, [r7, #4]
 2136 0bcc 1B78     		ldrb	r3, [r3]	@ zero_extendqisi2
 2137 0bce 2D2B     		cmp	r3, #45
 2138 0bd0 03D0     		beq	.L150
 2139              		.loc 1 491 0 is_stmt 0 discriminator 1
 2140 0bd2 7B68     		ldr	r3, [r7, #4]
 2141 0bd4 1B78     		ldrb	r3, [r3]	@ zero_extendqisi2
 2142 0bd6 2B2B     		cmp	r3, #43
 2143 0bd8 28D1     		bne	.L152
 2144              	.L150:
 492:../../source/src/kernel/OS_LIB/myMicroLIB.c **** 	{
ARM GAS  G:\Users\Jaxb\AppData\Local\Temp\ccW59wSv.s 			page 48


 493:../../source/src/kernel/OS_LIB/myMicroLIB.c **** 		++char_ptr;
 2145              		.loc 1 493 0 is_stmt 1
 2146 0bda 7B68     		ldr	r3, [r7, #4]
 2147 0bdc 0133     		adds	r3, r3, #1
 2148 0bde 7B60     		str	r3, [r7, #4]
 494:../../source/src/kernel/OS_LIB/myMicroLIB.c **** 	}
 495:../../source/src/kernel/OS_LIB/myMicroLIB.c **** 	while(IS_NUM(*char_ptr))
 2149              		.loc 1 495 0
 2150 0be0 24E0     		b	.L152
 2151              	.L154:
 496:../../source/src/kernel/OS_LIB/myMicroLIB.c **** 	{
 497:../../source/src/kernel/OS_LIB/myMicroLIB.c **** 		num = divisor * num + *char_ptr - '0';
 2152              		.loc 1 497 0
 2153 0be2 D7E90623 		ldrd	r2, [r7, #24]
 2154 0be6 D7E90201 		ldrd	r0, [r7, #8]
 2155 0bea FFF7FEFF 		bl	__aeabi_dmul
 2156              	.LVL8:
 2157 0bee 0346     		mov	r3, r0
 2158 0bf0 0C46     		mov	r4, r1
 2159 0bf2 2546     		mov	r5, r4
 2160 0bf4 1C46     		mov	r4, r3
 2161 0bf6 7B68     		ldr	r3, [r7, #4]
 2162 0bf8 1B78     		ldrb	r3, [r3]	@ zero_extendqisi2
 2163 0bfa 1846     		mov	r0, r3
 2164 0bfc FFF7FEFF 		bl	__aeabi_i2d
 2165              	.LVL9:
 2166 0c00 0246     		mov	r2, r0
 2167 0c02 0B46     		mov	r3, r1
 2168 0c04 2046     		mov	r0, r4
 2169 0c06 2946     		mov	r1, r5
 2170 0c08 FFF7FEFF 		bl	__aeabi_dadd
 2171              	.LVL10:
 2172 0c0c 0346     		mov	r3, r0
 2173 0c0e 0C46     		mov	r4, r1
 2174 0c10 1846     		mov	r0, r3
 2175 0c12 2146     		mov	r1, r4
 2176 0c14 4FF00002 		mov	r2, #0
 2177 0c18 2F4B     		ldr	r3, .L159+4
 2178 0c1a FFF7FEFF 		bl	__aeabi_dsub
 2179              	.LVL11:
 2180 0c1e 0346     		mov	r3, r0
 2181 0c20 0C46     		mov	r4, r1
 2182 0c22 C7E90634 		strd	r3, [r7, #24]
 498:../../source/src/kernel/OS_LIB/myMicroLIB.c **** 		++char_ptr;
 2183              		.loc 1 498 0
 2184 0c26 7B68     		ldr	r3, [r7, #4]
 2185 0c28 0133     		adds	r3, r3, #1
 2186 0c2a 7B60     		str	r3, [r7, #4]
 2187              	.L152:
 495:../../source/src/kernel/OS_LIB/myMicroLIB.c **** 	{
 2188              		.loc 1 495 0
 2189 0c2c 7B68     		ldr	r3, [r7, #4]
 2190 0c2e 1B78     		ldrb	r3, [r3]	@ zero_extendqisi2
 2191 0c30 2F2B     		cmp	r3, #47
 2192 0c32 03D9     		bls	.L153
 495:../../source/src/kernel/OS_LIB/myMicroLIB.c **** 	{
 2193              		.loc 1 495 0 is_stmt 0 discriminator 1
ARM GAS  G:\Users\Jaxb\AppData\Local\Temp\ccW59wSv.s 			page 49


 2194 0c34 7B68     		ldr	r3, [r7, #4]
 2195 0c36 1B78     		ldrb	r3, [r3]	@ zero_extendqisi2
 2196 0c38 392B     		cmp	r3, #57
 2197 0c3a D2D9     		bls	.L154
 2198              	.L153:
 499:../../source/src/kernel/OS_LIB/myMicroLIB.c **** 	}
 500:../../source/src/kernel/OS_LIB/myMicroLIB.c **** 	if('.' != *char_ptr)
 2199              		.loc 1 500 0 is_stmt 1
 2200 0c3c 7B68     		ldr	r3, [r7, #4]
 2201 0c3e 1B78     		ldrb	r3, [r3]	@ zero_extendqisi2
 2202 0c40 2E2B     		cmp	r3, #46
 2203 0c42 09D0     		beq	.L155
 501:../../source/src/kernel/OS_LIB/myMicroLIB.c **** 	{
 502:../../source/src/kernel/OS_LIB/myMicroLIB.c **** 		return (sign * num);
 2204              		.loc 1 502 0
 2205 0c44 7869     		ldr	r0, [r7, #20]
 2206 0c46 FFF7FEFF 		bl	__aeabi_i2d
 2207              	.LVL12:
 2208 0c4a D7E90623 		ldrd	r2, [r7, #24]
 2209 0c4e FFF7FEFF 		bl	__aeabi_dmul
 2210              	.LVL13:
 2211 0c52 0346     		mov	r3, r0
 2212 0c54 0C46     		mov	r4, r1
 2213 0c56 38E0     		b	.L146
 2214              	.L155:
 503:../../source/src/kernel/OS_LIB/myMicroLIB.c **** 	}
 504:../../source/src/kernel/OS_LIB/myMicroLIB.c **** 	++char_ptr;
 2215              		.loc 1 504 0
 2216 0c58 7B68     		ldr	r3, [r7, #4]
 2217 0c5a 0133     		adds	r3, r3, #1
 2218 0c5c 7B60     		str	r3, [r7, #4]
 505:../../source/src/kernel/OS_LIB/myMicroLIB.c **** 	while(IS_NUM(*char_ptr))
 2219              		.loc 1 505 0
 2220 0c5e 23E0     		b	.L156
 2221              	.L158:
 506:../../source/src/kernel/OS_LIB/myMicroLIB.c **** 	{
 507:../../source/src/kernel/OS_LIB/myMicroLIB.c **** 		num += (double)(*char_ptr - '0') / divisor;
 2222              		.loc 1 507 0
 2223 0c60 7B68     		ldr	r3, [r7, #4]
 2224 0c62 1B78     		ldrb	r3, [r3]	@ zero_extendqisi2
 2225 0c64 303B     		subs	r3, r3, #48
 2226 0c66 1846     		mov	r0, r3
 2227 0c68 FFF7FEFF 		bl	__aeabi_i2d
 2228              	.LVL14:
 2229 0c6c D7E90223 		ldrd	r2, [r7, #8]
 2230 0c70 FFF7FEFF 		bl	__aeabi_ddiv
 2231              	.LVL15:
 2232 0c74 0346     		mov	r3, r0
 2233 0c76 0C46     		mov	r4, r1
 2234 0c78 1A46     		mov	r2, r3
 2235 0c7a 2346     		mov	r3, r4
 2236 0c7c D7E90601 		ldrd	r0, [r7, #24]
 2237 0c80 FFF7FEFF 		bl	__aeabi_dadd
 2238              	.LVL16:
 2239 0c84 0346     		mov	r3, r0
 2240 0c86 0C46     		mov	r4, r1
 2241 0c88 C7E90634 		strd	r3, [r7, #24]
ARM GAS  G:\Users\Jaxb\AppData\Local\Temp\ccW59wSv.s 			page 50


 508:../../source/src/kernel/OS_LIB/myMicroLIB.c **** 		divisor *= 10.0;
 2242              		.loc 1 508 0
 2243 0c8c 4FF00002 		mov	r2, #0
 2244 0c90 104B     		ldr	r3, .L159
 2245 0c92 D7E90201 		ldrd	r0, [r7, #8]
 2246 0c96 FFF7FEFF 		bl	__aeabi_dmul
 2247              	.LVL17:
 2248 0c9a 0346     		mov	r3, r0
 2249 0c9c 0C46     		mov	r4, r1
 2250 0c9e C7E90234 		strd	r3, [r7, #8]
 509:../../source/src/kernel/OS_LIB/myMicroLIB.c **** 		++char_ptr;
 2251              		.loc 1 509 0
 2252 0ca2 7B68     		ldr	r3, [r7, #4]
 2253 0ca4 0133     		adds	r3, r3, #1
 2254 0ca6 7B60     		str	r3, [r7, #4]
 2255              	.L156:
 505:../../source/src/kernel/OS_LIB/myMicroLIB.c **** 	{
 2256              		.loc 1 505 0
 2257 0ca8 7B68     		ldr	r3, [r7, #4]
 2258 0caa 1B78     		ldrb	r3, [r3]	@ zero_extendqisi2
 2259 0cac 2F2B     		cmp	r3, #47
 2260 0cae 03D9     		bls	.L157
 505:../../source/src/kernel/OS_LIB/myMicroLIB.c **** 	{
 2261              		.loc 1 505 0 is_stmt 0 discriminator 1
 2262 0cb0 7B68     		ldr	r3, [r7, #4]
 2263 0cb2 1B78     		ldrb	r3, [r3]	@ zero_extendqisi2
 2264 0cb4 392B     		cmp	r3, #57
 2265 0cb6 D3D9     		bls	.L158
 2266              	.L157:
 510:../../source/src/kernel/OS_LIB/myMicroLIB.c **** 	}
 511:../../source/src/kernel/OS_LIB/myMicroLIB.c **** 	return (sign * num);
 2267              		.loc 1 511 0 is_stmt 1
 2268 0cb8 7869     		ldr	r0, [r7, #20]
 2269 0cba FFF7FEFF 		bl	__aeabi_i2d
 2270              	.LVL18:
 2271 0cbe D7E90623 		ldrd	r2, [r7, #24]
 2272 0cc2 FFF7FEFF 		bl	__aeabi_dmul
 2273              	.LVL19:
 2274 0cc6 0346     		mov	r3, r0
 2275 0cc8 0C46     		mov	r4, r1
 2276              	.L146:
 512:../../source/src/kernel/OS_LIB/myMicroLIB.c **** }
 2277              		.loc 1 512 0
 2278 0cca 1846     		mov	r0, r3
 2279 0ccc 2146     		mov	r1, r4
 2280 0cce 2037     		adds	r7, r7, #32
 2281              	.LCFI63:
 2282              		.cfi_def_cfa_offset 16
 2283 0cd0 BD46     		mov	sp, r7
 2284              	.LCFI64:
 2285              		.cfi_def_cfa_register 13
 2286              		@ sp needed
 2287 0cd2 B0BD     		pop	{r4, r5, r7, pc}
 2288              	.L160:
 2289              		.align	2
 2290              	.L159:
 2291 0cd4 00002440 		.word	1076101120
ARM GAS  G:\Users\Jaxb\AppData\Local\Temp\ccW59wSv.s 			page 51


 2292 0cd8 00004840 		.word	1078460416
 2293              		.cfi_endproc
 2294              	.LFE39:
 2295              		.size	ka_atof, .-ka_atof
 2296              		.align	1
 2297              		.global	ka_strcmp
 2298              		.syntax unified
 2299              		.thumb
 2300              		.thumb_func
 2301              		.fpu softvfp
 2302              		.type	ka_strcmp, %function
 2303              	ka_strcmp:
 2304              	.LFB40:
 513:../../source/src/kernel/OS_LIB/myMicroLIB.c **** 
 514:../../source/src/kernel/OS_LIB/myMicroLIB.c **** int ka_strcmp(const char * str1, const char * str2)
 515:../../source/src/kernel/OS_LIB/myMicroLIB.c **** {
 2305              		.loc 1 515 0
 2306              		.cfi_startproc
 2307              		@ args = 0, pretend = 0, frame = 8
 2308              		@ frame_needed = 1, uses_anonymous_args = 0
 2309              		@ link register save eliminated.
 2310 0cdc 80B4     		push	{r7}
 2311              	.LCFI65:
 2312              		.cfi_def_cfa_offset 4
 2313              		.cfi_offset 7, -4
 2314 0cde 83B0     		sub	sp, sp, #12
 2315              	.LCFI66:
 2316              		.cfi_def_cfa_offset 16
 2317 0ce0 00AF     		add	r7, sp, #0
 2318              	.LCFI67:
 2319              		.cfi_def_cfa_register 7
 2320 0ce2 7860     		str	r0, [r7, #4]
 2321 0ce4 3960     		str	r1, [r7]
 516:../../source/src/kernel/OS_LIB/myMicroLIB.c **** 	while(*str1 == *str2)
 2322              		.loc 1 516 0
 2323 0ce6 0BE0     		b	.L162
 2324              	.L165:
 517:../../source/src/kernel/OS_LIB/myMicroLIB.c **** 	{
 518:../../source/src/kernel/OS_LIB/myMicroLIB.c **** 		if('\0' == *str1)
 2325              		.loc 1 518 0
 2326 0ce8 7B68     		ldr	r3, [r7, #4]
 2327 0cea 1B78     		ldrb	r3, [r3]	@ zero_extendqisi2
 2328 0cec 002B     		cmp	r3, #0
 2329 0cee 01D1     		bne	.L163
 519:../../source/src/kernel/OS_LIB/myMicroLIB.c **** 		{
 520:../../source/src/kernel/OS_LIB/myMicroLIB.c **** 			return 0;
 2330              		.loc 1 520 0
 2331 0cf0 0023     		movs	r3, #0
 2332 0cf2 11E0     		b	.L164
 2333              	.L163:
 521:../../source/src/kernel/OS_LIB/myMicroLIB.c **** 		}
 522:../../source/src/kernel/OS_LIB/myMicroLIB.c **** 		++str1;
 2334              		.loc 1 522 0
 2335 0cf4 7B68     		ldr	r3, [r7, #4]
 2336 0cf6 0133     		adds	r3, r3, #1
 2337 0cf8 7B60     		str	r3, [r7, #4]
 523:../../source/src/kernel/OS_LIB/myMicroLIB.c **** 		++str2;
ARM GAS  G:\Users\Jaxb\AppData\Local\Temp\ccW59wSv.s 			page 52


 2338              		.loc 1 523 0
 2339 0cfa 3B68     		ldr	r3, [r7]
 2340 0cfc 0133     		adds	r3, r3, #1
 2341 0cfe 3B60     		str	r3, [r7]
 2342              	.L162:
 516:../../source/src/kernel/OS_LIB/myMicroLIB.c **** 	{
 2343              		.loc 1 516 0
 2344 0d00 7B68     		ldr	r3, [r7, #4]
 2345 0d02 1A78     		ldrb	r2, [r3]	@ zero_extendqisi2
 2346 0d04 3B68     		ldr	r3, [r7]
 2347 0d06 1B78     		ldrb	r3, [r3]	@ zero_extendqisi2
 2348 0d08 9A42     		cmp	r2, r3
 2349 0d0a EDD0     		beq	.L165
 524:../../source/src/kernel/OS_LIB/myMicroLIB.c **** 	}
 525:../../source/src/kernel/OS_LIB/myMicroLIB.c **** 	return (*str1 - *str2);
 2350              		.loc 1 525 0
 2351 0d0c 7B68     		ldr	r3, [r7, #4]
 2352 0d0e 1B78     		ldrb	r3, [r3]	@ zero_extendqisi2
 2353 0d10 1A46     		mov	r2, r3
 2354 0d12 3B68     		ldr	r3, [r7]
 2355 0d14 1B78     		ldrb	r3, [r3]	@ zero_extendqisi2
 2356 0d16 D31A     		subs	r3, r2, r3
 2357              	.L164:
 526:../../source/src/kernel/OS_LIB/myMicroLIB.c **** }
 2358              		.loc 1 526 0
 2359 0d18 1846     		mov	r0, r3
 2360 0d1a 0C37     		adds	r7, r7, #12
 2361              	.LCFI68:
 2362              		.cfi_def_cfa_offset 4
 2363 0d1c BD46     		mov	sp, r7
 2364              	.LCFI69:
 2365              		.cfi_def_cfa_register 13
 2366              		@ sp needed
 2367 0d1e 80BC     		pop	{r7}
 2368              	.LCFI70:
 2369              		.cfi_restore 7
 2370              		.cfi_def_cfa_offset 0
 2371 0d20 7047     		bx	lr
 2372              		.cfi_endproc
 2373              	.LFE40:
 2374              		.size	ka_strcmp, .-ka_strcmp
 2375              		.align	1
 2376              		.global	__init_my_micro_lib
 2377              		.syntax unified
 2378              		.thumb
 2379              		.thumb_func
 2380              		.fpu softvfp
 2381              		.type	__init_my_micro_lib, %function
 2382              	__init_my_micro_lib:
 2383              	.LFB41:
 527:../../source/src/kernel/OS_LIB/myMicroLIB.c **** 
 528:../../source/src/kernel/OS_LIB/myMicroLIB.c **** extern void init_malloc(void);
 529:../../source/src/kernel/OS_LIB/myMicroLIB.c **** void __init_my_micro_lib(void)
 530:../../source/src/kernel/OS_LIB/myMicroLIB.c **** {
 2384              		.loc 1 530 0
 2385              		.cfi_startproc
 2386              		@ args = 0, pretend = 0, frame = 0
ARM GAS  G:\Users\Jaxb\AppData\Local\Temp\ccW59wSv.s 			page 53


 2387              		@ frame_needed = 1, uses_anonymous_args = 0
 2388 0d22 80B5     		push	{r7, lr}
 2389              	.LCFI71:
 2390              		.cfi_def_cfa_offset 8
 2391              		.cfi_offset 7, -8
 2392              		.cfi_offset 14, -4
 2393 0d24 00AF     		add	r7, sp, #0
 2394              	.LCFI72:
 2395              		.cfi_def_cfa_register 7
 531:../../source/src/kernel/OS_LIB/myMicroLIB.c **** 	init_malloc();
 2396              		.loc 1 531 0
 2397 0d26 FFF7FEFF 		bl	init_malloc
 532:../../source/src/kernel/OS_LIB/myMicroLIB.c **** }
 2398              		.loc 1 532 0
 2399 0d2a 00BF     		nop
 2400 0d2c 80BD     		pop	{r7, pc}
 2401              		.cfi_endproc
 2402              	.LFE41:
 2403              		.size	__init_my_micro_lib, .-__init_my_micro_lib
 2404              	.Letext0:
 2405              		.file 2 "f:\\arm\\gcc2018\\lib\\gcc\\arm-none-eabi\\7.3.1\\include\\stdarg.h"
 2406              		.file 3 "f:\\arm\\gcc2018\\arm-none-eabi\\include\\machine\\_default_types.h"
 2407              		.file 4 "f:\\arm\\gcc2018\\arm-none-eabi\\include\\sys\\_stdint.h"
 2408              		.file 5 "../../source/include/os_cpu/core_cm3.h"
 2409              		.file 6 "../../source/include/os_cpu/system_stm32f10x.h"
 2410              		.file 7 "<built-in>"
 2411              		.file 8 "../../source/include/os_core/export.h"
 2412 0d2e 00BF     		.section	.debug_info,"",%progbits
 2413              	.Ldebug_info0:
 2414 0000 C5050000 		.4byte	0x5c5
 2415 0004 0200     		.2byte	0x2
 2416 0006 00000000 		.4byte	.Ldebug_abbrev0
 2417 000a 04       		.byte	0x4
 2418 000b 01       		.uleb128 0x1
 2419 000c 70020000 		.4byte	.LASF57
 2420 0010 0C       		.byte	0xc
 2421 0011 20000000 		.4byte	.LASF58
 2422 0015 94000000 		.4byte	.LASF59
 2423 0019 00000000 		.4byte	.Ltext0
 2424 001d 2E0D0000 		.4byte	.Letext0
 2425 0021 00000000 		.4byte	.Ldebug_line0
 2426 0025 02       		.uleb128 0x2
 2427 0026 57020000 		.4byte	.LASF0
 2428 002a 02       		.byte	0x2
 2429 002b 28       		.byte	0x28
 2430 002c 30000000 		.4byte	0x30
 2431 0030 03       		.uleb128 0x3
 2432 0031 D6000000 		.4byte	.LASF15
 2433 0035 04       		.byte	0x4
 2434 0036 07       		.byte	0x7
 2435 0037 00       		.byte	0
 2436 0038 4A000000 		.4byte	0x4a
 2437 003c 04       		.uleb128 0x4
 2438 003d B9010000 		.4byte	.LASF60
 2439 0041 4A000000 		.4byte	0x4a
 2440 0045 02       		.byte	0x2
 2441 0046 23       		.byte	0x23
ARM GAS  G:\Users\Jaxb\AppData\Local\Temp\ccW59wSv.s 			page 54


 2442 0047 00       		.uleb128 0
 2443 0048 01       		.byte	0x1
 2444 0049 00       		.byte	0
 2445 004a 05       		.uleb128 0x5
 2446 004b 04       		.byte	0x4
 2447 004c 02       		.uleb128 0x2
 2448 004d 7B000000 		.4byte	.LASF1
 2449 0051 02       		.byte	0x2
 2450 0052 63       		.byte	0x63
 2451 0053 25000000 		.4byte	0x25
 2452 0057 06       		.uleb128 0x6
 2453 0058 01       		.byte	0x1
 2454 0059 06       		.byte	0x6
 2455 005a 45010000 		.4byte	.LASF2
 2456 005e 06       		.uleb128 0x6
 2457 005f 01       		.byte	0x1
 2458 0060 08       		.byte	0x8
 2459 0061 37010000 		.4byte	.LASF3
 2460 0065 06       		.uleb128 0x6
 2461 0066 02       		.byte	0x2
 2462 0067 05       		.byte	0x5
 2463 0068 16000000 		.4byte	.LASF4
 2464 006c 06       		.uleb128 0x6
 2465 006d 02       		.byte	0x2
 2466 006e 07       		.byte	0x7
 2467 006f 9E010000 		.4byte	.LASF5
 2468 0073 06       		.uleb128 0x6
 2469 0074 04       		.byte	0x4
 2470 0075 05       		.byte	0x5
 2471 0076 E6000000 		.4byte	.LASF6
 2472 007a 02       		.uleb128 0x2
 2473 007b 5C000000 		.4byte	.LASF7
 2474 007f 03       		.byte	0x3
 2475 0080 4F       		.byte	0x4f
 2476 0081 85000000 		.4byte	0x85
 2477 0085 06       		.uleb128 0x6
 2478 0086 04       		.byte	0x4
 2479 0087 07       		.byte	0x7
 2480 0088 02020000 		.4byte	.LASF8
 2481 008c 06       		.uleb128 0x6
 2482 008d 08       		.byte	0x8
 2483 008e 05       		.byte	0x5
 2484 008f C2000000 		.4byte	.LASF9
 2485 0093 06       		.uleb128 0x6
 2486 0094 08       		.byte	0x8
 2487 0095 07       		.byte	0x7
 2488 0096 51010000 		.4byte	.LASF10
 2489 009a 07       		.uleb128 0x7
 2490 009b 04       		.byte	0x4
 2491 009c 05       		.byte	0x5
 2492 009d 696E7400 		.ascii	"int\000"
 2493 00a1 08       		.uleb128 0x8
 2494 00a2 9A000000 		.4byte	0x9a
 2495 00a6 09       		.uleb128 0x9
 2496 00a7 9A000000 		.4byte	0x9a
 2497 00ab 06       		.uleb128 0x6
 2498 00ac 04       		.byte	0x4
ARM GAS  G:\Users\Jaxb\AppData\Local\Temp\ccW59wSv.s 			page 55


 2499 00ad 07       		.byte	0x7
 2500 00ae 78010000 		.4byte	.LASF11
 2501 00b2 02       		.uleb128 0x2
 2502 00b3 68010000 		.4byte	.LASF12
 2503 00b7 04       		.byte	0x4
 2504 00b8 30       		.byte	0x30
 2505 00b9 7A000000 		.4byte	0x7a
 2506 00bd 0A       		.uleb128 0xa
 2507 00be 28030000 		.4byte	.LASF13
 2508 00c2 05       		.byte	0x5
 2509 00c3 CE06     		.2byte	0x6ce
 2510 00c5 A1000000 		.4byte	0xa1
 2511 00c9 01       		.byte	0x1
 2512 00ca 01       		.byte	0x1
 2513 00cb 0B       		.uleb128 0xb
 2514 00cc DF010000 		.4byte	.LASF14
 2515 00d0 06       		.byte	0x6
 2516 00d1 35       		.byte	0x35
 2517 00d2 B2000000 		.4byte	0xb2
 2518 00d6 01       		.byte	0x1
 2519 00d7 01       		.byte	0x1
 2520 00d8 03       		.uleb128 0x3
 2521 00d9 83000000 		.4byte	.LASF16
 2522 00dd 08       		.byte	0x8
 2523 00de 08       		.byte	0x8
 2524 00df 08       		.byte	0x8
 2525 00e0 01010000 		.4byte	0x101
 2526 00e4 0C       		.uleb128 0xc
 2527 00e5 F6000000 		.4byte	.LASF17
 2528 00e9 08       		.byte	0x8
 2529 00ea 0A       		.byte	0xa
 2530 00eb 4A000000 		.4byte	0x4a
 2531 00ef 02       		.byte	0x2
 2532 00f0 23       		.byte	0x23
 2533 00f1 00       		.uleb128 0
 2534 00f2 0C       		.uleb128 0xc
 2535 00f3 22010000 		.4byte	.LASF18
 2536 00f7 08       		.byte	0x8
 2537 00f8 0B       		.byte	0xb
 2538 00f9 06010000 		.4byte	0x106
 2539 00fd 02       		.byte	0x2
 2540 00fe 23       		.byte	0x23
 2541 00ff 04       		.uleb128 0x4
 2542 0100 00       		.byte	0
 2543 0101 09       		.uleb128 0x9
 2544 0102 D8000000 		.4byte	0xd8
 2545 0106 0D       		.uleb128 0xd
 2546 0107 04       		.byte	0x4
 2547 0108 13010000 		.4byte	0x113
 2548 010c 06       		.uleb128 0x6
 2549 010d 01       		.byte	0x1
 2550 010e 08       		.byte	0x8
 2551 010f BE010000 		.4byte	.LASF19
 2552 0113 09       		.uleb128 0x9
 2553 0114 0C010000 		.4byte	0x10c
 2554 0118 0E       		.uleb128 0xe
 2555 0119 13010000 		.4byte	0x113
ARM GAS  G:\Users\Jaxb\AppData\Local\Temp\ccW59wSv.s 			page 56


 2556 011d 28010000 		.4byte	0x128
 2557 0121 0F       		.uleb128 0xf
 2558 0122 AB000000 		.4byte	0xab
 2559 0126 09       		.byte	0x9
 2560 0127 00       		.byte	0
 2561 0128 09       		.uleb128 0x9
 2562 0129 18010000 		.4byte	0x118
 2563 012d 10       		.uleb128 0x10
 2564 012e 25020000 		.4byte	.LASF20
 2565 0132 01       		.byte	0x1
 2566 0133 9901     		.2byte	0x199
 2567 0135 28010000 		.4byte	0x128
 2568 0139 01       		.byte	0x1
 2569 013a 05       		.byte	0x5
 2570 013b 03       		.byte	0x3
 2571 013c 00000000 		.4byte	__rtmsym_ka_printf_name
 2572 0140 10       		.uleb128 0x10
 2573 0141 0F010000 		.4byte	.LASF21
 2574 0145 01       		.byte	0x1
 2575 0146 9901     		.2byte	0x199
 2576 0148 01010000 		.4byte	0x101
 2577 014c 01       		.byte	0x1
 2578 014d 05       		.byte	0x5
 2579 014e 03       		.byte	0x3
 2580 014f 00000000 		.4byte	__rtmsym_ka_printf
 2581 0153 11       		.uleb128 0x11
 2582 0154 01       		.byte	0x1
 2583 0155 FB000000 		.4byte	.LASF61
 2584 0159 01       		.byte	0x1
 2585 015a 1102     		.2byte	0x211
 2586 015c 01       		.byte	0x1
 2587 015d 220D0000 		.4byte	.LFB41
 2588 0161 2E0D0000 		.4byte	.LFE41
 2589 0165 00000000 		.4byte	.LLST12
 2590 0169 01       		.byte	0x1
 2591 016a 12       		.uleb128 0x12
 2592 016b 01       		.byte	0x1
 2593 016c 4D020000 		.4byte	.LASF24
 2594 0170 01       		.byte	0x1
 2595 0171 0202     		.2byte	0x202
 2596 0173 01       		.byte	0x1
 2597 0174 9A000000 		.4byte	0x9a
 2598 0178 DC0C0000 		.4byte	.LFB40
 2599 017c 220D0000 		.4byte	.LFE40
 2600 0180 2C000000 		.4byte	.LLST11
 2601 0184 01       		.byte	0x1
 2602 0185 A8010000 		.4byte	0x1a8
 2603 0189 13       		.uleb128 0x13
 2604 018a 71000000 		.4byte	.LASF22
 2605 018e 01       		.byte	0x1
 2606 018f 0202     		.2byte	0x202
 2607 0191 06010000 		.4byte	0x106
 2608 0195 02       		.byte	0x2
 2609 0196 91       		.byte	0x91
 2610 0197 74       		.sleb128 -12
 2611 0198 13       		.uleb128 0x13
 2612 0199 76000000 		.4byte	.LASF23
ARM GAS  G:\Users\Jaxb\AppData\Local\Temp\ccW59wSv.s 			page 57


 2613 019d 01       		.byte	0x1
 2614 019e 0202     		.2byte	0x202
 2615 01a0 06010000 		.4byte	0x106
 2616 01a4 02       		.byte	0x2
 2617 01a5 91       		.byte	0x91
 2618 01a6 70       		.sleb128 -16
 2619 01a7 00       		.byte	0
 2620 01a8 14       		.uleb128 0x14
 2621 01a9 01       		.byte	0x1
 2622 01aa 27010000 		.4byte	.LASF25
 2623 01ae 01       		.byte	0x1
 2624 01af DA01     		.2byte	0x1da
 2625 01b1 01       		.byte	0x1
 2626 01b2 04020000 		.4byte	0x204
 2627 01b6 7C0B0000 		.4byte	.LFB39
 2628 01ba DC0C0000 		.4byte	.LFE39
 2629 01be 88000000 		.4byte	.LLST10
 2630 01c2 01       		.byte	0x1
 2631 01c3 04020000 		.4byte	0x204
 2632 01c7 13       		.uleb128 0x13
 2633 01c8 00000000 		.4byte	.LASF26
 2634 01cc 01       		.byte	0x1
 2635 01cd DA01     		.2byte	0x1da
 2636 01cf 06010000 		.4byte	0x106
 2637 01d3 02       		.byte	0x2
 2638 01d4 91       		.byte	0x91
 2639 01d5 54       		.sleb128 -44
 2640 01d6 15       		.uleb128 0x15
 2641 01d7 6E756D00 		.ascii	"num\000"
 2642 01db 01       		.byte	0x1
 2643 01dc DC01     		.2byte	0x1dc
 2644 01de 04020000 		.4byte	0x204
 2645 01e2 02       		.byte	0x2
 2646 01e3 91       		.byte	0x91
 2647 01e4 68       		.sleb128 -24
 2648 01e5 16       		.uleb128 0x16
 2649 01e6 19020000 		.4byte	.LASF27
 2650 01ea 01       		.byte	0x1
 2651 01eb DD01     		.2byte	0x1dd
 2652 01ed 9A000000 		.4byte	0x9a
 2653 01f1 02       		.byte	0x2
 2654 01f2 91       		.byte	0x91
 2655 01f3 64       		.sleb128 -28
 2656 01f4 16       		.uleb128 0x16
 2657 01f5 20030000 		.4byte	.LASF28
 2658 01f9 01       		.byte	0x1
 2659 01fa DE01     		.2byte	0x1de
 2660 01fc 04020000 		.4byte	0x204
 2661 0200 02       		.byte	0x2
 2662 0201 91       		.byte	0x91
 2663 0202 58       		.sleb128 -40
 2664 0203 00       		.byte	0
 2665 0204 06       		.uleb128 0x6
 2666 0205 08       		.byte	0x8
 2667 0206 04       		.byte	0x4
 2668 0207 1E020000 		.4byte	.LASF29
 2669 020b 12       		.uleb128 0x12
ARM GAS  G:\Users\Jaxb\AppData\Local\Temp\ccW59wSv.s 			page 58


 2670 020c 01       		.byte	0x1
 2671 020d 2F010000 		.4byte	.LASF30
 2672 0211 01       		.byte	0x1
 2673 0212 BE01     		.2byte	0x1be
 2674 0214 01       		.byte	0x1
 2675 0215 9A000000 		.4byte	0x9a
 2676 0219 F00A0000 		.4byte	.LFB38
 2677 021d 7C0B0000 		.4byte	.LFE38
 2678 0221 D8000000 		.4byte	.LLST9
 2679 0225 01       		.byte	0x1
 2680 0226 58020000 		.4byte	0x258
 2681 022a 13       		.uleb128 0x13
 2682 022b 00000000 		.4byte	.LASF26
 2683 022f 01       		.byte	0x1
 2684 0230 BE01     		.2byte	0x1be
 2685 0232 06010000 		.4byte	0x106
 2686 0236 02       		.byte	0x2
 2687 0237 91       		.byte	0x91
 2688 0238 6C       		.sleb128 -20
 2689 0239 15       		.uleb128 0x15
 2690 023a 6E756D00 		.ascii	"num\000"
 2691 023e 01       		.byte	0x1
 2692 023f C001     		.2byte	0x1c0
 2693 0241 9A000000 		.4byte	0x9a
 2694 0245 02       		.byte	0x2
 2695 0246 91       		.byte	0x91
 2696 0247 74       		.sleb128 -12
 2697 0248 16       		.uleb128 0x16
 2698 0249 19020000 		.4byte	.LASF27
 2699 024d 01       		.byte	0x1
 2700 024e C101     		.2byte	0x1c1
 2701 0250 9A000000 		.4byte	0x9a
 2702 0254 02       		.byte	0x2
 2703 0255 91       		.byte	0x91
 2704 0256 70       		.sleb128 -16
 2705 0257 00       		.byte	0
 2706 0258 17       		.uleb128 0x17
 2707 0259 01       		.byte	0x1
 2708 025a 66020000 		.4byte	.LASF33
 2709 025e 01       		.byte	0x1
 2710 025f B701     		.2byte	0x1b7
 2711 0261 01       		.byte	0x1
 2712 0262 B60A0000 		.4byte	.LFB37
 2713 0266 F00A0000 		.4byte	.LFE37
 2714 026a 34010000 		.4byte	.LLST8
 2715 026e 01       		.byte	0x1
 2716 026f 92020000 		.4byte	0x292
 2717 0273 13       		.uleb128 0x13
 2718 0274 D7010000 		.4byte	.LASF31
 2719 0278 01       		.byte	0x1
 2720 0279 B701     		.2byte	0x1b7
 2721 027b 92020000 		.4byte	0x292
 2722 027f 02       		.byte	0x2
 2723 0280 91       		.byte	0x91
 2724 0281 74       		.sleb128 -12
 2725 0282 13       		.uleb128 0x13
 2726 0283 3B030000 		.4byte	.LASF32
ARM GAS  G:\Users\Jaxb\AppData\Local\Temp\ccW59wSv.s 			page 59


 2727 0287 01       		.byte	0x1
 2728 0288 B701     		.2byte	0x1b7
 2729 028a 06010000 		.4byte	0x106
 2730 028e 02       		.byte	0x2
 2731 028f 91       		.byte	0x91
 2732 0290 70       		.sleb128 -16
 2733 0291 00       		.byte	0
 2734 0292 0D       		.uleb128 0xd
 2735 0293 04       		.byte	0x4
 2736 0294 0C010000 		.4byte	0x10c
 2737 0298 17       		.uleb128 0x17
 2738 0299 01       		.byte	0x1
 2739 029a 43020000 		.4byte	.LASF34
 2740 029e 01       		.byte	0x1
 2741 029f AD01     		.2byte	0x1ad
 2742 02a1 01       		.byte	0x1
 2743 02a2 820A0000 		.4byte	.LFB36
 2744 02a6 B60A0000 		.4byte	.LFE36
 2745 02aa 90010000 		.4byte	.LLST7
 2746 02ae 01       		.byte	0x1
 2747 02af FA020000 		.4byte	0x2fa
 2748 02b3 18       		.uleb128 0x18
 2749 02b4 7300     		.ascii	"s\000"
 2750 02b6 01       		.byte	0x1
 2751 02b7 AD01     		.2byte	0x1ad
 2752 02b9 4A000000 		.4byte	0x4a
 2753 02bd 02       		.byte	0x2
 2754 02be 91       		.byte	0x91
 2755 02bf 6C       		.sleb128 -20
 2756 02c0 18       		.uleb128 0x18
 2757 02c1 636800   		.ascii	"ch\000"
 2758 02c4 01       		.byte	0x1
 2759 02c5 AD01     		.2byte	0x1ad
 2760 02c7 A6000000 		.4byte	0xa6
 2761 02cb 02       		.byte	0x2
 2762 02cc 91       		.byte	0x91
 2763 02cd 68       		.sleb128 -24
 2764 02ce 18       		.uleb128 0x18
 2765 02cf 6E00     		.ascii	"n\000"
 2766 02d1 01       		.byte	0x1
 2767 02d2 AD01     		.2byte	0x1ad
 2768 02d4 9A000000 		.4byte	0x9a
 2769 02d8 02       		.byte	0x2
 2770 02d9 91       		.byte	0x91
 2771 02da 64       		.sleb128 -28
 2772 02db 15       		.uleb128 0x15
 2773 02dc 70747200 		.ascii	"ptr\000"
 2774 02e0 01       		.byte	0x1
 2775 02e1 AF01     		.2byte	0x1af
 2776 02e3 92020000 		.4byte	0x292
 2777 02e7 02       		.byte	0x2
 2778 02e8 91       		.byte	0x91
 2779 02e9 74       		.sleb128 -12
 2780 02ea 16       		.uleb128 0x16
 2781 02eb EF010000 		.4byte	.LASF35
 2782 02ef 01       		.byte	0x1
 2783 02f0 B001     		.2byte	0x1b0
ARM GAS  G:\Users\Jaxb\AppData\Local\Temp\ccW59wSv.s 			page 60


 2784 02f2 13010000 		.4byte	0x113
 2785 02f6 02       		.byte	0x2
 2786 02f7 91       		.byte	0x91
 2787 02f8 73       		.sleb128 -13
 2788 02f9 00       		.byte	0
 2789 02fa 12       		.uleb128 0x12
 2790 02fb 01       		.byte	0x1
 2791 02fc 93010000 		.4byte	.LASF36
 2792 0300 01       		.byte	0x1
 2793 0301 9B01     		.2byte	0x19b
 2794 0303 01       		.byte	0x1
 2795 0304 9A000000 		.4byte	0x9a
 2796 0308 260A0000 		.4byte	.LFB35
 2797 030c 820A0000 		.4byte	.LFE35
 2798 0310 EC010000 		.4byte	.LLST6
 2799 0314 01       		.byte	0x1
 2800 0315 47030000 		.4byte	0x347
 2801 0319 13       		.uleb128 0x13
 2802 031a 71000000 		.4byte	.LASF22
 2803 031e 01       		.byte	0x1
 2804 031f 9B01     		.2byte	0x19b
 2805 0321 06010000 		.4byte	0x106
 2806 0325 02       		.byte	0x2
 2807 0326 91       		.byte	0x91
 2808 0327 74       		.sleb128 -12
 2809 0328 13       		.uleb128 0x13
 2810 0329 76000000 		.4byte	.LASF23
 2811 032d 01       		.byte	0x1
 2812 032e 9B01     		.2byte	0x19b
 2813 0330 06010000 		.4byte	0x106
 2814 0334 02       		.byte	0x2
 2815 0335 91       		.byte	0x91
 2816 0336 70       		.sleb128 -16
 2817 0337 18       		.uleb128 0x18
 2818 0338 6E756D00 		.ascii	"num\000"
 2819 033c 01       		.byte	0x1
 2820 033d 9B01     		.2byte	0x19b
 2821 033f 9A000000 		.4byte	0x9a
 2822 0343 02       		.byte	0x2
 2823 0344 91       		.byte	0x91
 2824 0345 6C       		.sleb128 -20
 2825 0346 00       		.byte	0
 2826 0347 19       		.uleb128 0x19
 2827 0348 01       		.byte	0x1
 2828 0349 C3010000 		.4byte	.LASF37
 2829 034d 01       		.byte	0x1
 2830 034e 46       		.byte	0x46
 2831 034f 01       		.byte	0x1
 2832 0350 9A000000 		.4byte	0x9a
 2833 0354 3A010000 		.4byte	.LFB34
 2834 0358 260A0000 		.4byte	.LFE34
 2835 035c 48020000 		.4byte	.LLST5
 2836 0360 01       		.byte	0x1
 2837 0361 4B040000 		.4byte	0x44b
 2838 0365 1A       		.uleb128 0x1a
 2839 0366 73747200 		.ascii	"str\000"
 2840 036a 01       		.byte	0x1
ARM GAS  G:\Users\Jaxb\AppData\Local\Temp\ccW59wSv.s 			page 61


 2841 036b 46       		.byte	0x46
 2842 036c 06010000 		.4byte	0x106
 2843 0370 02       		.byte	0x2
 2844 0371 91       		.byte	0x91
 2845 0372 70       		.sleb128 -16
 2846 0373 1B       		.uleb128 0x1b
 2847 0374 1C       		.uleb128 0x1c
 2848 0375 617000   		.ascii	"ap\000"
 2849 0378 01       		.byte	0x1
 2850 0379 48       		.byte	0x48
 2851 037a 4C000000 		.4byte	0x4c
 2852 037e 03       		.byte	0x3
 2853 037f 91       		.byte	0x91
 2854 0380 A07F     		.sleb128 -96
 2855 0382 1C       		.uleb128 0x1c
 2856 0383 76616C00 		.ascii	"val\000"
 2857 0387 01       		.byte	0x1
 2858 0388 49       		.byte	0x49
 2859 0389 9A000000 		.4byte	0x9a
 2860 038d 02       		.byte	0x2
 2861 038e 91       		.byte	0x91
 2862 038f 5C       		.sleb128 -36
 2863 0390 1D       		.uleb128 0x1d
 2864 0391 35030000 		.4byte	.LASF38
 2865 0395 01       		.byte	0x1
 2866 0396 49       		.byte	0x49
 2867 0397 9A000000 		.4byte	0x9a
 2868 039b 02       		.byte	0x2
 2869 039c 91       		.byte	0x91
 2870 039d 58       		.sleb128 -40
 2871 039e 1D       		.uleb128 0x1d
 2872 039f D0000000 		.4byte	.LASF39
 2873 03a3 01       		.byte	0x1
 2874 03a4 4A       		.byte	0x4a
 2875 03a5 04020000 		.4byte	0x204
 2876 03a9 02       		.byte	0x2
 2877 03aa 91       		.byte	0x91
 2878 03ab 50       		.sleb128 -48
 2879 03ac 1D       		.uleb128 0x1d
 2880 03ad E0000000 		.4byte	.LASF40
 2881 03b1 01       		.byte	0x1
 2882 03b2 4B       		.byte	0x4b
 2883 03b3 73000000 		.4byte	0x73
 2884 03b7 02       		.byte	0x2
 2885 03b8 91       		.byte	0x91
 2886 03b9 4C       		.sleb128 -52
 2887 03ba 1D       		.uleb128 0x1d
 2888 03bb 09000000 		.4byte	.LASF41
 2889 03bf 01       		.byte	0x1
 2890 03c0 4B       		.byte	0x4b
 2891 03c1 73000000 		.4byte	0x73
 2892 03c5 02       		.byte	0x2
 2893 03c6 91       		.byte	0x91
 2894 03c7 48       		.sleb128 -56
 2895 03c8 1D       		.uleb128 0x1d
 2896 03c9 71010000 		.4byte	.LASF42
 2897 03cd 01       		.byte	0x1
ARM GAS  G:\Users\Jaxb\AppData\Local\Temp\ccW59wSv.s 			page 62


 2898 03ce 4C       		.byte	0x4c
 2899 03cf 85000000 		.4byte	0x85
 2900 03d3 03       		.byte	0x3
 2901 03d4 91       		.byte	0x91
 2902 03d5 A47F     		.sleb128 -92
 2903 03d7 1D       		.uleb128 0x1d
 2904 03d8 8A010000 		.4byte	.LASF43
 2905 03dc 01       		.byte	0x1
 2906 03dd 4C       		.byte	0x4c
 2907 03de 85000000 		.4byte	0x85
 2908 03e2 02       		.byte	0x2
 2909 03e3 91       		.byte	0x91
 2910 03e4 44       		.sleb128 -60
 2911 03e5 1D       		.uleb128 0x1d
 2912 03e6 85010000 		.4byte	.LASF44
 2913 03ea 01       		.byte	0x1
 2914 03eb 4D       		.byte	0x4d
 2915 03ec AB000000 		.4byte	0xab
 2916 03f0 03       		.byte	0x3
 2917 03f1 91       		.byte	0x91
 2918 03f2 A87F     		.sleb128 -88
 2919 03f4 1D       		.uleb128 0x1d
 2920 03f5 F6010000 		.4byte	.LASF45
 2921 03f9 01       		.byte	0x1
 2922 03fa 4D       		.byte	0x4d
 2923 03fb AB000000 		.4byte	0xab
 2924 03ff 02       		.byte	0x2
 2925 0400 91       		.byte	0x91
 2926 0401 40       		.sleb128 -64
 2927 0402 1D       		.uleb128 0x1d
 2928 0403 3D020000 		.4byte	.LASF46
 2929 0407 01       		.byte	0x1
 2930 0408 4E       		.byte	0x4e
 2931 0409 0C010000 		.4byte	0x10c
 2932 040d 03       		.byte	0x3
 2933 040e 91       		.byte	0x91
 2934 040f BF7F     		.sleb128 -65
 2935 0411 1C       		.uleb128 0x1c
 2936 0412 636800   		.ascii	"ch\000"
 2937 0415 01       		.byte	0x1
 2938 0416 4E       		.byte	0x4e
 2939 0417 0C010000 		.4byte	0x10c
 2940 041b 03       		.byte	0x3
 2941 041c 91       		.byte	0x91
 2942 041d AF7F     		.sleb128 -81
 2943 041f 1C       		.uleb128 0x1c
 2944 0420 7300     		.ascii	"s\000"
 2945 0422 01       		.byte	0x1
 2946 0423 4F       		.byte	0x4f
 2947 0424 92020000 		.4byte	0x292
 2948 0428 03       		.byte	0x3
 2949 0429 91       		.byte	0x91
 2950 042a B07F     		.sleb128 -80
 2951 042c 1C       		.uleb128 0x1c
 2952 042d 72657300 		.ascii	"res\000"
 2953 0431 01       		.byte	0x1
 2954 0432 50       		.byte	0x50
ARM GAS  G:\Users\Jaxb\AppData\Local\Temp\ccW59wSv.s 			page 63


 2955 0433 9A000000 		.4byte	0x9a
 2956 0437 03       		.byte	0x3
 2957 0438 91       		.byte	0x91
 2958 0439 B87F     		.sleb128 -72
 2959 043b 1D       		.uleb128 0x1d
 2960 043c EF010000 		.4byte	.LASF35
 2961 0440 01       		.byte	0x1
 2962 0441 51       		.byte	0x51
 2963 0442 9A000000 		.4byte	0x9a
 2964 0446 03       		.byte	0x3
 2965 0447 91       		.byte	0x91
 2966 0448 B47F     		.sleb128 -76
 2967 044a 00       		.byte	0
 2968 044b 1E       		.uleb128 0x1e
 2969 044c 01       		.byte	0x1
 2970 044d 67000000 		.4byte	.LASF47
 2971 0451 01       		.byte	0x1
 2972 0452 2F       		.byte	0x2f
 2973 0453 01       		.byte	0x1
 2974 0454 B8000000 		.4byte	.LFB33
 2975 0458 3A010000 		.4byte	.LFE33
 2976 045c BE020000 		.4byte	.LLST4
 2977 0460 01       		.byte	0x1
 2978 0461 EA040000 		.4byte	0x4ea
 2979 0465 1F       		.uleb128 0x1f
 2980 0466 11000000 		.4byte	.LASF48
 2981 046a 01       		.byte	0x1
 2982 046b 2F       		.byte	0x2f
 2983 046c 4A000000 		.4byte	0x4a
 2984 0470 02       		.byte	0x2
 2985 0471 91       		.byte	0x91
 2986 0472 5C       		.sleb128 -36
 2987 0473 1A       		.uleb128 0x1a
 2988 0474 73726300 		.ascii	"src\000"
 2989 0478 01       		.byte	0x1
 2990 0479 2F       		.byte	0x2f
 2991 047a EA040000 		.4byte	0x4ea
 2992 047e 02       		.byte	0x2
 2993 047f 91       		.byte	0x91
 2994 0480 58       		.sleb128 -40
 2995 0481 1A       		.uleb128 0x1a
 2996 0482 6E00     		.ascii	"n\000"
 2997 0484 01       		.byte	0x1
 2998 0485 2F       		.byte	0x2f
 2999 0486 9A000000 		.4byte	0x9a
 3000 048a 02       		.byte	0x2
 3001 048b 91       		.byte	0x91
 3002 048c 54       		.sleb128 -44
 3003 048d 1C       		.uleb128 0x1c
 3004 048e 6900     		.ascii	"i\000"
 3005 0490 01       		.byte	0x1
 3006 0491 31       		.byte	0x31
 3007 0492 9A000000 		.4byte	0x9a
 3008 0496 02       		.byte	0x2
 3009 0497 91       		.byte	0x91
 3010 0498 74       		.sleb128 -12
 3011 0499 1D       		.uleb128 0x1d
ARM GAS  G:\Users\Jaxb\AppData\Local\Temp\ccW59wSv.s 			page 64


 3012 049a FD010000 		.4byte	.LASF49
 3013 049e 01       		.byte	0x1
 3014 049f 32       		.byte	0x32
 3015 04a0 F1040000 		.4byte	0x4f1
 3016 04a4 02       		.byte	0x2
 3017 04a5 91       		.byte	0x91
 3018 04a6 70       		.sleb128 -16
 3019 04a7 1D       		.uleb128 0x1d
 3020 04a8 14020000 		.4byte	.LASF50
 3021 04ac 01       		.byte	0x1
 3022 04ad 33       		.byte	0x33
 3023 04ae F7040000 		.4byte	0x4f7
 3024 04b2 02       		.byte	0x2
 3025 04b3 91       		.byte	0x91
 3026 04b4 6C       		.sleb128 -20
 3027 04b5 1C       		.uleb128 0x1c
 3028 04b6 6E756D00 		.ascii	"num\000"
 3029 04ba 01       		.byte	0x1
 3030 04bb 34       		.byte	0x34
 3031 04bc 9A000000 		.4byte	0x9a
 3032 04c0 02       		.byte	0x2
 3033 04c1 91       		.byte	0x91
 3034 04c2 60       		.sleb128 -32
 3035 04c3 20       		.uleb128 0x20
 3036 04c4 04010000 		.4byte	.LBB2
 3037 04c8 30010000 		.4byte	.LBE2
 3038 04cc 1D       		.uleb128 0x1d
 3039 04cd 16030000 		.4byte	.LASF51
 3040 04d1 01       		.byte	0x1
 3041 04d2 3C       		.byte	0x3c
 3042 04d3 92020000 		.4byte	0x292
 3043 04d7 02       		.byte	0x2
 3044 04d8 91       		.byte	0x91
 3045 04d9 68       		.sleb128 -24
 3046 04da 1D       		.uleb128 0x1d
 3047 04db 1B030000 		.4byte	.LASF52
 3048 04df 01       		.byte	0x1
 3049 04e0 3D       		.byte	0x3d
 3050 04e1 06010000 		.4byte	0x106
 3051 04e5 02       		.byte	0x2
 3052 04e6 91       		.byte	0x91
 3053 04e7 64       		.sleb128 -28
 3054 04e8 00       		.byte	0
 3055 04e9 00       		.byte	0
 3056 04ea 0D       		.uleb128 0xd
 3057 04eb 04       		.byte	0x4
 3058 04ec F0040000 		.4byte	0x4f0
 3059 04f0 21       		.uleb128 0x21
 3060 04f1 0D       		.uleb128 0xd
 3061 04f2 04       		.byte	0x4
 3062 04f3 9A000000 		.4byte	0x9a
 3063 04f7 0D       		.uleb128 0xd
 3064 04f8 04       		.byte	0x4
 3065 04f9 A6000000 		.4byte	0xa6
 3066 04fd 22       		.uleb128 0x22
 3067 04fe 01       		.byte	0x1
 3068 04ff CD010000 		.4byte	.LASF53
ARM GAS  G:\Users\Jaxb\AppData\Local\Temp\ccW59wSv.s 			page 65


 3069 0503 01       		.byte	0x1
 3070 0504 25       		.byte	0x25
 3071 0505 01       		.byte	0x1
 3072 0506 AB000000 		.4byte	0xab
 3073 050a 8C000000 		.4byte	.LFB32
 3074 050e B8000000 		.4byte	.LFE32
 3075 0512 1A030000 		.4byte	.LLST3
 3076 0516 01       		.byte	0x1
 3077 0517 36050000 		.4byte	0x536
 3078 051b 1A       		.uleb128 0x1a
 3079 051c 7300     		.ascii	"s\000"
 3080 051e 01       		.byte	0x1
 3081 051f 25       		.byte	0x25
 3082 0520 06010000 		.4byte	0x106
 3083 0524 02       		.byte	0x2
 3084 0525 91       		.byte	0x91
 3085 0526 6C       		.sleb128 -20
 3086 0527 1C       		.uleb128 0x1c
 3087 0528 6E756D00 		.ascii	"num\000"
 3088 052c 01       		.byte	0x1
 3089 052d 27       		.byte	0x27
 3090 052e AB000000 		.4byte	0xab
 3091 0532 02       		.byte	0x2
 3092 0533 91       		.byte	0x91
 3093 0534 74       		.sleb128 -12
 3094 0535 00       		.byte	0
 3095 0536 23       		.uleb128 0x23
 3096 0537 01       		.byte	0x1
 3097 0538 B1010000 		.4byte	.LASF54
 3098 053c 01       		.byte	0x1
 3099 053d 1B       		.byte	0x1b
 3100 053e 01       		.byte	0x1
 3101 053f 58000000 		.4byte	.LFB31
 3102 0543 8C000000 		.4byte	.LFE31
 3103 0547 76030000 		.4byte	.LLST2
 3104 054b 01       		.byte	0x1
 3105 054c 5F050000 		.4byte	0x55f
 3106 0550 1F       		.uleb128 0x1f
 3107 0551 55000000 		.4byte	.LASF55
 3108 0555 01       		.byte	0x1
 3109 0556 1B       		.byte	0x1b
 3110 0557 06010000 		.4byte	0x106
 3111 055b 02       		.byte	0x2
 3112 055c 91       		.byte	0x91
 3113 055d 74       		.sleb128 -12
 3114 055e 00       		.byte	0
 3115 055f 24       		.uleb128 0x24
 3116 0560 4C000000 		.4byte	.LASF62
 3117 0564 01       		.byte	0x1
 3118 0565 13       		.byte	0x13
 3119 0566 01       		.byte	0x1
 3120 0567 30000000 		.4byte	.LFB30
 3121 056b 58000000 		.4byte	.LFE30
 3122 056f C6030000 		.4byte	.LLST1
 3123 0573 01       		.byte	0x1
 3124 0574 87050000 		.4byte	0x587
 3125 0578 1A       		.uleb128 0x1a
ARM GAS  G:\Users\Jaxb\AppData\Local\Temp\ccW59wSv.s 			page 66


 3126 0579 73747200 		.ascii	"str\000"
 3127 057d 01       		.byte	0x1
 3128 057e 13       		.byte	0x13
 3129 057f 06010000 		.4byte	0x106
 3130 0583 02       		.byte	0x2
 3131 0584 91       		.byte	0x91
 3132 0585 74       		.sleb128 -12
 3133 0586 00       		.byte	0
 3134 0587 25       		.uleb128 0x25
 3135 0588 01       		.byte	0x1
 3136 0589 EF000000 		.4byte	.LASF56
 3137 058d 01       		.byte	0x1
 3138 058e 09       		.byte	0x9
 3139 058f 01       		.byte	0x1
 3140 0590 85000000 		.4byte	0x85
 3141 0594 00000000 		.4byte	.LFB29
 3142 0598 30000000 		.4byte	.LFE29
 3143 059c 16040000 		.4byte	.LLST0
 3144 05a0 01       		.byte	0x1
 3145 05a1 1A       		.uleb128 0x1a
 3146 05a2 7800     		.ascii	"x\000"
 3147 05a4 01       		.byte	0x1
 3148 05a5 09       		.byte	0x9
 3149 05a6 9A000000 		.4byte	0x9a
 3150 05aa 02       		.byte	0x2
 3151 05ab 91       		.byte	0x91
 3152 05ac 6C       		.sleb128 -20
 3153 05ad 1A       		.uleb128 0x1a
 3154 05ae 7900     		.ascii	"y\000"
 3155 05b0 01       		.byte	0x1
 3156 05b1 09       		.byte	0x9
 3157 05b2 AB000000 		.4byte	0xab
 3158 05b6 02       		.byte	0x2
 3159 05b7 91       		.byte	0x91
 3160 05b8 68       		.sleb128 -24
 3161 05b9 1C       		.uleb128 0x1c
 3162 05ba 73756D00 		.ascii	"sum\000"
 3163 05be 01       		.byte	0x1
 3164 05bf 0B       		.byte	0xb
 3165 05c0 85000000 		.4byte	0x85
 3166 05c4 02       		.byte	0x2
 3167 05c5 91       		.byte	0x91
 3168 05c6 74       		.sleb128 -12
 3169 05c7 00       		.byte	0
 3170 05c8 00       		.byte	0
 3171              		.section	.debug_abbrev,"",%progbits
 3172              	.Ldebug_abbrev0:
 3173 0000 01       		.uleb128 0x1
 3174 0001 11       		.uleb128 0x11
 3175 0002 01       		.byte	0x1
 3176 0003 25       		.uleb128 0x25
 3177 0004 0E       		.uleb128 0xe
 3178 0005 13       		.uleb128 0x13
 3179 0006 0B       		.uleb128 0xb
 3180 0007 03       		.uleb128 0x3
 3181 0008 0E       		.uleb128 0xe
 3182 0009 1B       		.uleb128 0x1b
ARM GAS  G:\Users\Jaxb\AppData\Local\Temp\ccW59wSv.s 			page 67


 3183 000a 0E       		.uleb128 0xe
 3184 000b 11       		.uleb128 0x11
 3185 000c 01       		.uleb128 0x1
 3186 000d 12       		.uleb128 0x12
 3187 000e 01       		.uleb128 0x1
 3188 000f 10       		.uleb128 0x10
 3189 0010 06       		.uleb128 0x6
 3190 0011 00       		.byte	0
 3191 0012 00       		.byte	0
 3192 0013 02       		.uleb128 0x2
 3193 0014 16       		.uleb128 0x16
 3194 0015 00       		.byte	0
 3195 0016 03       		.uleb128 0x3
 3196 0017 0E       		.uleb128 0xe
 3197 0018 3A       		.uleb128 0x3a
 3198 0019 0B       		.uleb128 0xb
 3199 001a 3B       		.uleb128 0x3b
 3200 001b 0B       		.uleb128 0xb
 3201 001c 49       		.uleb128 0x49
 3202 001d 13       		.uleb128 0x13
 3203 001e 00       		.byte	0
 3204 001f 00       		.byte	0
 3205 0020 03       		.uleb128 0x3
 3206 0021 13       		.uleb128 0x13
 3207 0022 01       		.byte	0x1
 3208 0023 03       		.uleb128 0x3
 3209 0024 0E       		.uleb128 0xe
 3210 0025 0B       		.uleb128 0xb
 3211 0026 0B       		.uleb128 0xb
 3212 0027 3A       		.uleb128 0x3a
 3213 0028 0B       		.uleb128 0xb
 3214 0029 3B       		.uleb128 0x3b
 3215 002a 0B       		.uleb128 0xb
 3216 002b 01       		.uleb128 0x1
 3217 002c 13       		.uleb128 0x13
 3218 002d 00       		.byte	0
 3219 002e 00       		.byte	0
 3220 002f 04       		.uleb128 0x4
 3221 0030 0D       		.uleb128 0xd
 3222 0031 00       		.byte	0
 3223 0032 03       		.uleb128 0x3
 3224 0033 0E       		.uleb128 0xe
 3225 0034 49       		.uleb128 0x49
 3226 0035 13       		.uleb128 0x13
 3227 0036 38       		.uleb128 0x38
 3228 0037 0A       		.uleb128 0xa
 3229 0038 34       		.uleb128 0x34
 3230 0039 0C       		.uleb128 0xc
 3231 003a 00       		.byte	0
 3232 003b 00       		.byte	0
 3233 003c 05       		.uleb128 0x5
 3234 003d 0F       		.uleb128 0xf
 3235 003e 00       		.byte	0
 3236 003f 0B       		.uleb128 0xb
 3237 0040 0B       		.uleb128 0xb
 3238 0041 00       		.byte	0
 3239 0042 00       		.byte	0
ARM GAS  G:\Users\Jaxb\AppData\Local\Temp\ccW59wSv.s 			page 68


 3240 0043 06       		.uleb128 0x6
 3241 0044 24       		.uleb128 0x24
 3242 0045 00       		.byte	0
 3243 0046 0B       		.uleb128 0xb
 3244 0047 0B       		.uleb128 0xb
 3245 0048 3E       		.uleb128 0x3e
 3246 0049 0B       		.uleb128 0xb
 3247 004a 03       		.uleb128 0x3
 3248 004b 0E       		.uleb128 0xe
 3249 004c 00       		.byte	0
 3250 004d 00       		.byte	0
 3251 004e 07       		.uleb128 0x7
 3252 004f 24       		.uleb128 0x24
 3253 0050 00       		.byte	0
 3254 0051 0B       		.uleb128 0xb
 3255 0052 0B       		.uleb128 0xb
 3256 0053 3E       		.uleb128 0x3e
 3257 0054 0B       		.uleb128 0xb
 3258 0055 03       		.uleb128 0x3
 3259 0056 08       		.uleb128 0x8
 3260 0057 00       		.byte	0
 3261 0058 00       		.byte	0
 3262 0059 08       		.uleb128 0x8
 3263 005a 35       		.uleb128 0x35
 3264 005b 00       		.byte	0
 3265 005c 49       		.uleb128 0x49
 3266 005d 13       		.uleb128 0x13
 3267 005e 00       		.byte	0
 3268 005f 00       		.byte	0
 3269 0060 09       		.uleb128 0x9
 3270 0061 26       		.uleb128 0x26
 3271 0062 00       		.byte	0
 3272 0063 49       		.uleb128 0x49
 3273 0064 13       		.uleb128 0x13
 3274 0065 00       		.byte	0
 3275 0066 00       		.byte	0
 3276 0067 0A       		.uleb128 0xa
 3277 0068 34       		.uleb128 0x34
 3278 0069 00       		.byte	0
 3279 006a 03       		.uleb128 0x3
 3280 006b 0E       		.uleb128 0xe
 3281 006c 3A       		.uleb128 0x3a
 3282 006d 0B       		.uleb128 0xb
 3283 006e 3B       		.uleb128 0x3b
 3284 006f 05       		.uleb128 0x5
 3285 0070 49       		.uleb128 0x49
 3286 0071 13       		.uleb128 0x13
 3287 0072 3F       		.uleb128 0x3f
 3288 0073 0C       		.uleb128 0xc
 3289 0074 3C       		.uleb128 0x3c
 3290 0075 0C       		.uleb128 0xc
 3291 0076 00       		.byte	0
 3292 0077 00       		.byte	0
 3293 0078 0B       		.uleb128 0xb
 3294 0079 34       		.uleb128 0x34
 3295 007a 00       		.byte	0
 3296 007b 03       		.uleb128 0x3
ARM GAS  G:\Users\Jaxb\AppData\Local\Temp\ccW59wSv.s 			page 69


 3297 007c 0E       		.uleb128 0xe
 3298 007d 3A       		.uleb128 0x3a
 3299 007e 0B       		.uleb128 0xb
 3300 007f 3B       		.uleb128 0x3b
 3301 0080 0B       		.uleb128 0xb
 3302 0081 49       		.uleb128 0x49
 3303 0082 13       		.uleb128 0x13
 3304 0083 3F       		.uleb128 0x3f
 3305 0084 0C       		.uleb128 0xc
 3306 0085 3C       		.uleb128 0x3c
 3307 0086 0C       		.uleb128 0xc
 3308 0087 00       		.byte	0
 3309 0088 00       		.byte	0
 3310 0089 0C       		.uleb128 0xc
 3311 008a 0D       		.uleb128 0xd
 3312 008b 00       		.byte	0
 3313 008c 03       		.uleb128 0x3
 3314 008d 0E       		.uleb128 0xe
 3315 008e 3A       		.uleb128 0x3a
 3316 008f 0B       		.uleb128 0xb
 3317 0090 3B       		.uleb128 0x3b
 3318 0091 0B       		.uleb128 0xb
 3319 0092 49       		.uleb128 0x49
 3320 0093 13       		.uleb128 0x13
 3321 0094 38       		.uleb128 0x38
 3322 0095 0A       		.uleb128 0xa
 3323 0096 00       		.byte	0
 3324 0097 00       		.byte	0
 3325 0098 0D       		.uleb128 0xd
 3326 0099 0F       		.uleb128 0xf
 3327 009a 00       		.byte	0
 3328 009b 0B       		.uleb128 0xb
 3329 009c 0B       		.uleb128 0xb
 3330 009d 49       		.uleb128 0x49
 3331 009e 13       		.uleb128 0x13
 3332 009f 00       		.byte	0
 3333 00a0 00       		.byte	0
 3334 00a1 0E       		.uleb128 0xe
 3335 00a2 01       		.uleb128 0x1
 3336 00a3 01       		.byte	0x1
 3337 00a4 49       		.uleb128 0x49
 3338 00a5 13       		.uleb128 0x13
 3339 00a6 01       		.uleb128 0x1
 3340 00a7 13       		.uleb128 0x13
 3341 00a8 00       		.byte	0
 3342 00a9 00       		.byte	0
 3343 00aa 0F       		.uleb128 0xf
 3344 00ab 21       		.uleb128 0x21
 3345 00ac 00       		.byte	0
 3346 00ad 49       		.uleb128 0x49
 3347 00ae 13       		.uleb128 0x13
 3348 00af 2F       		.uleb128 0x2f
 3349 00b0 0B       		.uleb128 0xb
 3350 00b1 00       		.byte	0
 3351 00b2 00       		.byte	0
 3352 00b3 10       		.uleb128 0x10
 3353 00b4 34       		.uleb128 0x34
ARM GAS  G:\Users\Jaxb\AppData\Local\Temp\ccW59wSv.s 			page 70


 3354 00b5 00       		.byte	0
 3355 00b6 03       		.uleb128 0x3
 3356 00b7 0E       		.uleb128 0xe
 3357 00b8 3A       		.uleb128 0x3a
 3358 00b9 0B       		.uleb128 0xb
 3359 00ba 3B       		.uleb128 0x3b
 3360 00bb 05       		.uleb128 0x5
 3361 00bc 49       		.uleb128 0x49
 3362 00bd 13       		.uleb128 0x13
 3363 00be 3F       		.uleb128 0x3f
 3364 00bf 0C       		.uleb128 0xc
 3365 00c0 02       		.uleb128 0x2
 3366 00c1 0A       		.uleb128 0xa
 3367 00c2 00       		.byte	0
 3368 00c3 00       		.byte	0
 3369 00c4 11       		.uleb128 0x11
 3370 00c5 2E       		.uleb128 0x2e
 3371 00c6 00       		.byte	0
 3372 00c7 3F       		.uleb128 0x3f
 3373 00c8 0C       		.uleb128 0xc
 3374 00c9 03       		.uleb128 0x3
 3375 00ca 0E       		.uleb128 0xe
 3376 00cb 3A       		.uleb128 0x3a
 3377 00cc 0B       		.uleb128 0xb
 3378 00cd 3B       		.uleb128 0x3b
 3379 00ce 05       		.uleb128 0x5
 3380 00cf 27       		.uleb128 0x27
 3381 00d0 0C       		.uleb128 0xc
 3382 00d1 11       		.uleb128 0x11
 3383 00d2 01       		.uleb128 0x1
 3384 00d3 12       		.uleb128 0x12
 3385 00d4 01       		.uleb128 0x1
 3386 00d5 40       		.uleb128 0x40
 3387 00d6 06       		.uleb128 0x6
 3388 00d7 9642     		.uleb128 0x2116
 3389 00d9 0C       		.uleb128 0xc
 3390 00da 00       		.byte	0
 3391 00db 00       		.byte	0
 3392 00dc 12       		.uleb128 0x12
 3393 00dd 2E       		.uleb128 0x2e
 3394 00de 01       		.byte	0x1
 3395 00df 3F       		.uleb128 0x3f
 3396 00e0 0C       		.uleb128 0xc
 3397 00e1 03       		.uleb128 0x3
 3398 00e2 0E       		.uleb128 0xe
 3399 00e3 3A       		.uleb128 0x3a
 3400 00e4 0B       		.uleb128 0xb
 3401 00e5 3B       		.uleb128 0x3b
 3402 00e6 05       		.uleb128 0x5
 3403 00e7 27       		.uleb128 0x27
 3404 00e8 0C       		.uleb128 0xc
 3405 00e9 49       		.uleb128 0x49
 3406 00ea 13       		.uleb128 0x13
 3407 00eb 11       		.uleb128 0x11
 3408 00ec 01       		.uleb128 0x1
 3409 00ed 12       		.uleb128 0x12
 3410 00ee 01       		.uleb128 0x1
ARM GAS  G:\Users\Jaxb\AppData\Local\Temp\ccW59wSv.s 			page 71


 3411 00ef 40       		.uleb128 0x40
 3412 00f0 06       		.uleb128 0x6
 3413 00f1 9742     		.uleb128 0x2117
 3414 00f3 0C       		.uleb128 0xc
 3415 00f4 01       		.uleb128 0x1
 3416 00f5 13       		.uleb128 0x13
 3417 00f6 00       		.byte	0
 3418 00f7 00       		.byte	0
 3419 00f8 13       		.uleb128 0x13
 3420 00f9 05       		.uleb128 0x5
 3421 00fa 00       		.byte	0
 3422 00fb 03       		.uleb128 0x3
 3423 00fc 0E       		.uleb128 0xe
 3424 00fd 3A       		.uleb128 0x3a
 3425 00fe 0B       		.uleb128 0xb
 3426 00ff 3B       		.uleb128 0x3b
 3427 0100 05       		.uleb128 0x5
 3428 0101 49       		.uleb128 0x49
 3429 0102 13       		.uleb128 0x13
 3430 0103 02       		.uleb128 0x2
 3431 0104 0A       		.uleb128 0xa
 3432 0105 00       		.byte	0
 3433 0106 00       		.byte	0
 3434 0107 14       		.uleb128 0x14
 3435 0108 2E       		.uleb128 0x2e
 3436 0109 01       		.byte	0x1
 3437 010a 3F       		.uleb128 0x3f
 3438 010b 0C       		.uleb128 0xc
 3439 010c 03       		.uleb128 0x3
 3440 010d 0E       		.uleb128 0xe
 3441 010e 3A       		.uleb128 0x3a
 3442 010f 0B       		.uleb128 0xb
 3443 0110 3B       		.uleb128 0x3b
 3444 0111 05       		.uleb128 0x5
 3445 0112 27       		.uleb128 0x27
 3446 0113 0C       		.uleb128 0xc
 3447 0114 49       		.uleb128 0x49
 3448 0115 13       		.uleb128 0x13
 3449 0116 11       		.uleb128 0x11
 3450 0117 01       		.uleb128 0x1
 3451 0118 12       		.uleb128 0x12
 3452 0119 01       		.uleb128 0x1
 3453 011a 40       		.uleb128 0x40
 3454 011b 06       		.uleb128 0x6
 3455 011c 9642     		.uleb128 0x2116
 3456 011e 0C       		.uleb128 0xc
 3457 011f 01       		.uleb128 0x1
 3458 0120 13       		.uleb128 0x13
 3459 0121 00       		.byte	0
 3460 0122 00       		.byte	0
 3461 0123 15       		.uleb128 0x15
 3462 0124 34       		.uleb128 0x34
 3463 0125 00       		.byte	0
 3464 0126 03       		.uleb128 0x3
 3465 0127 08       		.uleb128 0x8
 3466 0128 3A       		.uleb128 0x3a
 3467 0129 0B       		.uleb128 0xb
ARM GAS  G:\Users\Jaxb\AppData\Local\Temp\ccW59wSv.s 			page 72


 3468 012a 3B       		.uleb128 0x3b
 3469 012b 05       		.uleb128 0x5
 3470 012c 49       		.uleb128 0x49
 3471 012d 13       		.uleb128 0x13
 3472 012e 02       		.uleb128 0x2
 3473 012f 0A       		.uleb128 0xa
 3474 0130 00       		.byte	0
 3475 0131 00       		.byte	0
 3476 0132 16       		.uleb128 0x16
 3477 0133 34       		.uleb128 0x34
 3478 0134 00       		.byte	0
 3479 0135 03       		.uleb128 0x3
 3480 0136 0E       		.uleb128 0xe
 3481 0137 3A       		.uleb128 0x3a
 3482 0138 0B       		.uleb128 0xb
 3483 0139 3B       		.uleb128 0x3b
 3484 013a 05       		.uleb128 0x5
 3485 013b 49       		.uleb128 0x49
 3486 013c 13       		.uleb128 0x13
 3487 013d 02       		.uleb128 0x2
 3488 013e 0A       		.uleb128 0xa
 3489 013f 00       		.byte	0
 3490 0140 00       		.byte	0
 3491 0141 17       		.uleb128 0x17
 3492 0142 2E       		.uleb128 0x2e
 3493 0143 01       		.byte	0x1
 3494 0144 3F       		.uleb128 0x3f
 3495 0145 0C       		.uleb128 0xc
 3496 0146 03       		.uleb128 0x3
 3497 0147 0E       		.uleb128 0xe
 3498 0148 3A       		.uleb128 0x3a
 3499 0149 0B       		.uleb128 0xb
 3500 014a 3B       		.uleb128 0x3b
 3501 014b 05       		.uleb128 0x5
 3502 014c 27       		.uleb128 0x27
 3503 014d 0C       		.uleb128 0xc
 3504 014e 11       		.uleb128 0x11
 3505 014f 01       		.uleb128 0x1
 3506 0150 12       		.uleb128 0x12
 3507 0151 01       		.uleb128 0x1
 3508 0152 40       		.uleb128 0x40
 3509 0153 06       		.uleb128 0x6
 3510 0154 9742     		.uleb128 0x2117
 3511 0156 0C       		.uleb128 0xc
 3512 0157 01       		.uleb128 0x1
 3513 0158 13       		.uleb128 0x13
 3514 0159 00       		.byte	0
 3515 015a 00       		.byte	0
 3516 015b 18       		.uleb128 0x18
 3517 015c 05       		.uleb128 0x5
 3518 015d 00       		.byte	0
 3519 015e 03       		.uleb128 0x3
 3520 015f 08       		.uleb128 0x8
 3521 0160 3A       		.uleb128 0x3a
 3522 0161 0B       		.uleb128 0xb
 3523 0162 3B       		.uleb128 0x3b
 3524 0163 05       		.uleb128 0x5
ARM GAS  G:\Users\Jaxb\AppData\Local\Temp\ccW59wSv.s 			page 73


 3525 0164 49       		.uleb128 0x49
 3526 0165 13       		.uleb128 0x13
 3527 0166 02       		.uleb128 0x2
 3528 0167 0A       		.uleb128 0xa
 3529 0168 00       		.byte	0
 3530 0169 00       		.byte	0
 3531 016a 19       		.uleb128 0x19
 3532 016b 2E       		.uleb128 0x2e
 3533 016c 01       		.byte	0x1
 3534 016d 3F       		.uleb128 0x3f
 3535 016e 0C       		.uleb128 0xc
 3536 016f 03       		.uleb128 0x3
 3537 0170 0E       		.uleb128 0xe
 3538 0171 3A       		.uleb128 0x3a
 3539 0172 0B       		.uleb128 0xb
 3540 0173 3B       		.uleb128 0x3b
 3541 0174 0B       		.uleb128 0xb
 3542 0175 27       		.uleb128 0x27
 3543 0176 0C       		.uleb128 0xc
 3544 0177 49       		.uleb128 0x49
 3545 0178 13       		.uleb128 0x13
 3546 0179 11       		.uleb128 0x11
 3547 017a 01       		.uleb128 0x1
 3548 017b 12       		.uleb128 0x12
 3549 017c 01       		.uleb128 0x1
 3550 017d 40       		.uleb128 0x40
 3551 017e 06       		.uleb128 0x6
 3552 017f 9642     		.uleb128 0x2116
 3553 0181 0C       		.uleb128 0xc
 3554 0182 01       		.uleb128 0x1
 3555 0183 13       		.uleb128 0x13
 3556 0184 00       		.byte	0
 3557 0185 00       		.byte	0
 3558 0186 1A       		.uleb128 0x1a
 3559 0187 05       		.uleb128 0x5
 3560 0188 00       		.byte	0
 3561 0189 03       		.uleb128 0x3
 3562 018a 08       		.uleb128 0x8
 3563 018b 3A       		.uleb128 0x3a
 3564 018c 0B       		.uleb128 0xb
 3565 018d 3B       		.uleb128 0x3b
 3566 018e 0B       		.uleb128 0xb
 3567 018f 49       		.uleb128 0x49
 3568 0190 13       		.uleb128 0x13
 3569 0191 02       		.uleb128 0x2
 3570 0192 0A       		.uleb128 0xa
 3571 0193 00       		.byte	0
 3572 0194 00       		.byte	0
 3573 0195 1B       		.uleb128 0x1b
 3574 0196 18       		.uleb128 0x18
 3575 0197 00       		.byte	0
 3576 0198 00       		.byte	0
 3577 0199 00       		.byte	0
 3578 019a 1C       		.uleb128 0x1c
 3579 019b 34       		.uleb128 0x34
 3580 019c 00       		.byte	0
 3581 019d 03       		.uleb128 0x3
ARM GAS  G:\Users\Jaxb\AppData\Local\Temp\ccW59wSv.s 			page 74


 3582 019e 08       		.uleb128 0x8
 3583 019f 3A       		.uleb128 0x3a
 3584 01a0 0B       		.uleb128 0xb
 3585 01a1 3B       		.uleb128 0x3b
 3586 01a2 0B       		.uleb128 0xb
 3587 01a3 49       		.uleb128 0x49
 3588 01a4 13       		.uleb128 0x13
 3589 01a5 02       		.uleb128 0x2
 3590 01a6 0A       		.uleb128 0xa
 3591 01a7 00       		.byte	0
 3592 01a8 00       		.byte	0
 3593 01a9 1D       		.uleb128 0x1d
 3594 01aa 34       		.uleb128 0x34
 3595 01ab 00       		.byte	0
 3596 01ac 03       		.uleb128 0x3
 3597 01ad 0E       		.uleb128 0xe
 3598 01ae 3A       		.uleb128 0x3a
 3599 01af 0B       		.uleb128 0xb
 3600 01b0 3B       		.uleb128 0x3b
 3601 01b1 0B       		.uleb128 0xb
 3602 01b2 49       		.uleb128 0x49
 3603 01b3 13       		.uleb128 0x13
 3604 01b4 02       		.uleb128 0x2
 3605 01b5 0A       		.uleb128 0xa
 3606 01b6 00       		.byte	0
 3607 01b7 00       		.byte	0
 3608 01b8 1E       		.uleb128 0x1e
 3609 01b9 2E       		.uleb128 0x2e
 3610 01ba 01       		.byte	0x1
 3611 01bb 3F       		.uleb128 0x3f
 3612 01bc 0C       		.uleb128 0xc
 3613 01bd 03       		.uleb128 0x3
 3614 01be 0E       		.uleb128 0xe
 3615 01bf 3A       		.uleb128 0x3a
 3616 01c0 0B       		.uleb128 0xb
 3617 01c1 3B       		.uleb128 0x3b
 3618 01c2 0B       		.uleb128 0xb
 3619 01c3 27       		.uleb128 0x27
 3620 01c4 0C       		.uleb128 0xc
 3621 01c5 11       		.uleb128 0x11
 3622 01c6 01       		.uleb128 0x1
 3623 01c7 12       		.uleb128 0x12
 3624 01c8 01       		.uleb128 0x1
 3625 01c9 40       		.uleb128 0x40
 3626 01ca 06       		.uleb128 0x6
 3627 01cb 9742     		.uleb128 0x2117
 3628 01cd 0C       		.uleb128 0xc
 3629 01ce 01       		.uleb128 0x1
 3630 01cf 13       		.uleb128 0x13
 3631 01d0 00       		.byte	0
 3632 01d1 00       		.byte	0
 3633 01d2 1F       		.uleb128 0x1f
 3634 01d3 05       		.uleb128 0x5
 3635 01d4 00       		.byte	0
 3636 01d5 03       		.uleb128 0x3
 3637 01d6 0E       		.uleb128 0xe
 3638 01d7 3A       		.uleb128 0x3a
ARM GAS  G:\Users\Jaxb\AppData\Local\Temp\ccW59wSv.s 			page 75


 3639 01d8 0B       		.uleb128 0xb
 3640 01d9 3B       		.uleb128 0x3b
 3641 01da 0B       		.uleb128 0xb
 3642 01db 49       		.uleb128 0x49
 3643 01dc 13       		.uleb128 0x13
 3644 01dd 02       		.uleb128 0x2
 3645 01de 0A       		.uleb128 0xa
 3646 01df 00       		.byte	0
 3647 01e0 00       		.byte	0
 3648 01e1 20       		.uleb128 0x20
 3649 01e2 0B       		.uleb128 0xb
 3650 01e3 01       		.byte	0x1
 3651 01e4 11       		.uleb128 0x11
 3652 01e5 01       		.uleb128 0x1
 3653 01e6 12       		.uleb128 0x12
 3654 01e7 01       		.uleb128 0x1
 3655 01e8 00       		.byte	0
 3656 01e9 00       		.byte	0
 3657 01ea 21       		.uleb128 0x21
 3658 01eb 26       		.uleb128 0x26
 3659 01ec 00       		.byte	0
 3660 01ed 00       		.byte	0
 3661 01ee 00       		.byte	0
 3662 01ef 22       		.uleb128 0x22
 3663 01f0 2E       		.uleb128 0x2e
 3664 01f1 01       		.byte	0x1
 3665 01f2 3F       		.uleb128 0x3f
 3666 01f3 0C       		.uleb128 0xc
 3667 01f4 03       		.uleb128 0x3
 3668 01f5 0E       		.uleb128 0xe
 3669 01f6 3A       		.uleb128 0x3a
 3670 01f7 0B       		.uleb128 0xb
 3671 01f8 3B       		.uleb128 0x3b
 3672 01f9 0B       		.uleb128 0xb
 3673 01fa 27       		.uleb128 0x27
 3674 01fb 0C       		.uleb128 0xc
 3675 01fc 49       		.uleb128 0x49
 3676 01fd 13       		.uleb128 0x13
 3677 01fe 11       		.uleb128 0x11
 3678 01ff 01       		.uleb128 0x1
 3679 0200 12       		.uleb128 0x12
 3680 0201 01       		.uleb128 0x1
 3681 0202 40       		.uleb128 0x40
 3682 0203 06       		.uleb128 0x6
 3683 0204 9742     		.uleb128 0x2117
 3684 0206 0C       		.uleb128 0xc
 3685 0207 01       		.uleb128 0x1
 3686 0208 13       		.uleb128 0x13
 3687 0209 00       		.byte	0
 3688 020a 00       		.byte	0
 3689 020b 23       		.uleb128 0x23
 3690 020c 2E       		.uleb128 0x2e
 3691 020d 01       		.byte	0x1
 3692 020e 3F       		.uleb128 0x3f
 3693 020f 0C       		.uleb128 0xc
 3694 0210 03       		.uleb128 0x3
 3695 0211 0E       		.uleb128 0xe
ARM GAS  G:\Users\Jaxb\AppData\Local\Temp\ccW59wSv.s 			page 76


 3696 0212 3A       		.uleb128 0x3a
 3697 0213 0B       		.uleb128 0xb
 3698 0214 3B       		.uleb128 0x3b
 3699 0215 0B       		.uleb128 0xb
 3700 0216 27       		.uleb128 0x27
 3701 0217 0C       		.uleb128 0xc
 3702 0218 11       		.uleb128 0x11
 3703 0219 01       		.uleb128 0x1
 3704 021a 12       		.uleb128 0x12
 3705 021b 01       		.uleb128 0x1
 3706 021c 40       		.uleb128 0x40
 3707 021d 06       		.uleb128 0x6
 3708 021e 9642     		.uleb128 0x2116
 3709 0220 0C       		.uleb128 0xc
 3710 0221 01       		.uleb128 0x1
 3711 0222 13       		.uleb128 0x13
 3712 0223 00       		.byte	0
 3713 0224 00       		.byte	0
 3714 0225 24       		.uleb128 0x24
 3715 0226 2E       		.uleb128 0x2e
 3716 0227 01       		.byte	0x1
 3717 0228 03       		.uleb128 0x3
 3718 0229 0E       		.uleb128 0xe
 3719 022a 3A       		.uleb128 0x3a
 3720 022b 0B       		.uleb128 0xb
 3721 022c 3B       		.uleb128 0x3b
 3722 022d 0B       		.uleb128 0xb
 3723 022e 27       		.uleb128 0x27
 3724 022f 0C       		.uleb128 0xc
 3725 0230 11       		.uleb128 0x11
 3726 0231 01       		.uleb128 0x1
 3727 0232 12       		.uleb128 0x12
 3728 0233 01       		.uleb128 0x1
 3729 0234 40       		.uleb128 0x40
 3730 0235 06       		.uleb128 0x6
 3731 0236 9642     		.uleb128 0x2116
 3732 0238 0C       		.uleb128 0xc
 3733 0239 01       		.uleb128 0x1
 3734 023a 13       		.uleb128 0x13
 3735 023b 00       		.byte	0
 3736 023c 00       		.byte	0
 3737 023d 25       		.uleb128 0x25
 3738 023e 2E       		.uleb128 0x2e
 3739 023f 01       		.byte	0x1
 3740 0240 3F       		.uleb128 0x3f
 3741 0241 0C       		.uleb128 0xc
 3742 0242 03       		.uleb128 0x3
 3743 0243 0E       		.uleb128 0xe
 3744 0244 3A       		.uleb128 0x3a
 3745 0245 0B       		.uleb128 0xb
 3746 0246 3B       		.uleb128 0x3b
 3747 0247 0B       		.uleb128 0xb
 3748 0248 27       		.uleb128 0x27
 3749 0249 0C       		.uleb128 0xc
 3750 024a 49       		.uleb128 0x49
 3751 024b 13       		.uleb128 0x13
 3752 024c 11       		.uleb128 0x11
ARM GAS  G:\Users\Jaxb\AppData\Local\Temp\ccW59wSv.s 			page 77


 3753 024d 01       		.uleb128 0x1
 3754 024e 12       		.uleb128 0x12
 3755 024f 01       		.uleb128 0x1
 3756 0250 40       		.uleb128 0x40
 3757 0251 06       		.uleb128 0x6
 3758 0252 9742     		.uleb128 0x2117
 3759 0254 0C       		.uleb128 0xc
 3760 0255 00       		.byte	0
 3761 0256 00       		.byte	0
 3762 0257 00       		.byte	0
 3763              		.section	.debug_loc,"",%progbits
 3764              	.Ldebug_loc0:
 3765              	.LLST12:
 3766 0000 220D0000 		.4byte	.LFB41-.Ltext0
 3767 0004 240D0000 		.4byte	.LCFI71-.Ltext0
 3768 0008 0200     		.2byte	0x2
 3769 000a 7D       		.byte	0x7d
 3770 000b 00       		.sleb128 0
 3771 000c 240D0000 		.4byte	.LCFI71-.Ltext0
 3772 0010 260D0000 		.4byte	.LCFI72-.Ltext0
 3773 0014 0200     		.2byte	0x2
 3774 0016 7D       		.byte	0x7d
 3775 0017 08       		.sleb128 8
 3776 0018 260D0000 		.4byte	.LCFI72-.Ltext0
 3777 001c 2E0D0000 		.4byte	.LFE41-.Ltext0
 3778 0020 0200     		.2byte	0x2
 3779 0022 77       		.byte	0x77
 3780 0023 08       		.sleb128 8
 3781 0024 00000000 		.4byte	0
 3782 0028 00000000 		.4byte	0
 3783              	.LLST11:
 3784 002c DC0C0000 		.4byte	.LFB40-.Ltext0
 3785 0030 DE0C0000 		.4byte	.LCFI65-.Ltext0
 3786 0034 0200     		.2byte	0x2
 3787 0036 7D       		.byte	0x7d
 3788 0037 00       		.sleb128 0
 3789 0038 DE0C0000 		.4byte	.LCFI65-.Ltext0
 3790 003c E00C0000 		.4byte	.LCFI66-.Ltext0
 3791 0040 0200     		.2byte	0x2
 3792 0042 7D       		.byte	0x7d
 3793 0043 04       		.sleb128 4
 3794 0044 E00C0000 		.4byte	.LCFI66-.Ltext0
 3795 0048 E20C0000 		.4byte	.LCFI67-.Ltext0
 3796 004c 0200     		.2byte	0x2
 3797 004e 7D       		.byte	0x7d
 3798 004f 10       		.sleb128 16
 3799 0050 E20C0000 		.4byte	.LCFI67-.Ltext0
 3800 0054 1C0D0000 		.4byte	.LCFI68-.Ltext0
 3801 0058 0200     		.2byte	0x2
 3802 005a 77       		.byte	0x77
 3803 005b 10       		.sleb128 16
 3804 005c 1C0D0000 		.4byte	.LCFI68-.Ltext0
 3805 0060 1E0D0000 		.4byte	.LCFI69-.Ltext0
 3806 0064 0200     		.2byte	0x2
 3807 0066 77       		.byte	0x77
 3808 0067 04       		.sleb128 4
 3809 0068 1E0D0000 		.4byte	.LCFI69-.Ltext0
ARM GAS  G:\Users\Jaxb\AppData\Local\Temp\ccW59wSv.s 			page 78


 3810 006c 200D0000 		.4byte	.LCFI70-.Ltext0
 3811 0070 0200     		.2byte	0x2
 3812 0072 7D       		.byte	0x7d
 3813 0073 04       		.sleb128 4
 3814 0074 200D0000 		.4byte	.LCFI70-.Ltext0
 3815 0078 220D0000 		.4byte	.LFE40-.Ltext0
 3816 007c 0200     		.2byte	0x2
 3817 007e 7D       		.byte	0x7d
 3818 007f 00       		.sleb128 0
 3819 0080 00000000 		.4byte	0
 3820 0084 00000000 		.4byte	0
 3821              	.LLST10:
 3822 0088 7C0B0000 		.4byte	.LFB39-.Ltext0
 3823 008c 7E0B0000 		.4byte	.LCFI60-.Ltext0
 3824 0090 0200     		.2byte	0x2
 3825 0092 7D       		.byte	0x7d
 3826 0093 00       		.sleb128 0
 3827 0094 7E0B0000 		.4byte	.LCFI60-.Ltext0
 3828 0098 800B0000 		.4byte	.LCFI61-.Ltext0
 3829 009c 0200     		.2byte	0x2
 3830 009e 7D       		.byte	0x7d
 3831 009f 10       		.sleb128 16
 3832 00a0 800B0000 		.4byte	.LCFI61-.Ltext0
 3833 00a4 820B0000 		.4byte	.LCFI62-.Ltext0
 3834 00a8 0200     		.2byte	0x2
 3835 00aa 7D       		.byte	0x7d
 3836 00ab 30       		.sleb128 48
 3837 00ac 820B0000 		.4byte	.LCFI62-.Ltext0
 3838 00b0 D00C0000 		.4byte	.LCFI63-.Ltext0
 3839 00b4 0200     		.2byte	0x2
 3840 00b6 77       		.byte	0x77
 3841 00b7 30       		.sleb128 48
 3842 00b8 D00C0000 		.4byte	.LCFI63-.Ltext0
 3843 00bc D20C0000 		.4byte	.LCFI64-.Ltext0
 3844 00c0 0200     		.2byte	0x2
 3845 00c2 77       		.byte	0x77
 3846 00c3 10       		.sleb128 16
 3847 00c4 D20C0000 		.4byte	.LCFI64-.Ltext0
 3848 00c8 DC0C0000 		.4byte	.LFE39-.Ltext0
 3849 00cc 0200     		.2byte	0x2
 3850 00ce 7D       		.byte	0x7d
 3851 00cf 10       		.sleb128 16
 3852 00d0 00000000 		.4byte	0
 3853 00d4 00000000 		.4byte	0
 3854              	.LLST9:
 3855 00d8 F00A0000 		.4byte	.LFB38-.Ltext0
 3856 00dc F20A0000 		.4byte	.LCFI54-.Ltext0
 3857 00e0 0200     		.2byte	0x2
 3858 00e2 7D       		.byte	0x7d
 3859 00e3 00       		.sleb128 0
 3860 00e4 F20A0000 		.4byte	.LCFI54-.Ltext0
 3861 00e8 F40A0000 		.4byte	.LCFI55-.Ltext0
 3862 00ec 0200     		.2byte	0x2
 3863 00ee 7D       		.byte	0x7d
 3864 00ef 04       		.sleb128 4
 3865 00f0 F40A0000 		.4byte	.LCFI55-.Ltext0
 3866 00f4 F60A0000 		.4byte	.LCFI56-.Ltext0
ARM GAS  G:\Users\Jaxb\AppData\Local\Temp\ccW59wSv.s 			page 79


 3867 00f8 0200     		.2byte	0x2
 3868 00fa 7D       		.byte	0x7d
 3869 00fb 18       		.sleb128 24
 3870 00fc F60A0000 		.4byte	.LCFI56-.Ltext0
 3871 0100 760B0000 		.4byte	.LCFI57-.Ltext0
 3872 0104 0200     		.2byte	0x2
 3873 0106 77       		.byte	0x77
 3874 0107 18       		.sleb128 24
 3875 0108 760B0000 		.4byte	.LCFI57-.Ltext0
 3876 010c 780B0000 		.4byte	.LCFI58-.Ltext0
 3877 0110 0200     		.2byte	0x2
 3878 0112 77       		.byte	0x77
 3879 0113 04       		.sleb128 4
 3880 0114 780B0000 		.4byte	.LCFI58-.Ltext0
 3881 0118 7A0B0000 		.4byte	.LCFI59-.Ltext0
 3882 011c 0200     		.2byte	0x2
 3883 011e 7D       		.byte	0x7d
 3884 011f 04       		.sleb128 4
 3885 0120 7A0B0000 		.4byte	.LCFI59-.Ltext0
 3886 0124 7C0B0000 		.4byte	.LFE38-.Ltext0
 3887 0128 0200     		.2byte	0x2
 3888 012a 7D       		.byte	0x7d
 3889 012b 00       		.sleb128 0
 3890 012c 00000000 		.4byte	0
 3891 0130 00000000 		.4byte	0
 3892              	.LLST8:
 3893 0134 B60A0000 		.4byte	.LFB37-.Ltext0
 3894 0138 B80A0000 		.4byte	.LCFI48-.Ltext0
 3895 013c 0200     		.2byte	0x2
 3896 013e 7D       		.byte	0x7d
 3897 013f 00       		.sleb128 0
 3898 0140 B80A0000 		.4byte	.LCFI48-.Ltext0
 3899 0144 BA0A0000 		.4byte	.LCFI49-.Ltext0
 3900 0148 0200     		.2byte	0x2
 3901 014a 7D       		.byte	0x7d
 3902 014b 04       		.sleb128 4
 3903 014c BA0A0000 		.4byte	.LCFI49-.Ltext0
 3904 0150 BC0A0000 		.4byte	.LCFI50-.Ltext0
 3905 0154 0200     		.2byte	0x2
 3906 0156 7D       		.byte	0x7d
 3907 0157 10       		.sleb128 16
 3908 0158 BC0A0000 		.4byte	.LCFI50-.Ltext0
 3909 015c EA0A0000 		.4byte	.LCFI51-.Ltext0
 3910 0160 0200     		.2byte	0x2
 3911 0162 77       		.byte	0x77
 3912 0163 10       		.sleb128 16
 3913 0164 EA0A0000 		.4byte	.LCFI51-.Ltext0
 3914 0168 EC0A0000 		.4byte	.LCFI52-.Ltext0
 3915 016c 0200     		.2byte	0x2
 3916 016e 77       		.byte	0x77
 3917 016f 04       		.sleb128 4
 3918 0170 EC0A0000 		.4byte	.LCFI52-.Ltext0
 3919 0174 EE0A0000 		.4byte	.LCFI53-.Ltext0
 3920 0178 0200     		.2byte	0x2
 3921 017a 7D       		.byte	0x7d
 3922 017b 04       		.sleb128 4
 3923 017c EE0A0000 		.4byte	.LCFI53-.Ltext0
ARM GAS  G:\Users\Jaxb\AppData\Local\Temp\ccW59wSv.s 			page 80


 3924 0180 F00A0000 		.4byte	.LFE37-.Ltext0
 3925 0184 0200     		.2byte	0x2
 3926 0186 7D       		.byte	0x7d
 3927 0187 00       		.sleb128 0
 3928 0188 00000000 		.4byte	0
 3929 018c 00000000 		.4byte	0
 3930              	.LLST7:
 3931 0190 820A0000 		.4byte	.LFB36-.Ltext0
 3932 0194 840A0000 		.4byte	.LCFI42-.Ltext0
 3933 0198 0200     		.2byte	0x2
 3934 019a 7D       		.byte	0x7d
 3935 019b 00       		.sleb128 0
 3936 019c 840A0000 		.4byte	.LCFI42-.Ltext0
 3937 01a0 860A0000 		.4byte	.LCFI43-.Ltext0
 3938 01a4 0200     		.2byte	0x2
 3939 01a6 7D       		.byte	0x7d
 3940 01a7 04       		.sleb128 4
 3941 01a8 860A0000 		.4byte	.LCFI43-.Ltext0
 3942 01ac 880A0000 		.4byte	.LCFI44-.Ltext0
 3943 01b0 0200     		.2byte	0x2
 3944 01b2 7D       		.byte	0x7d
 3945 01b3 20       		.sleb128 32
 3946 01b4 880A0000 		.4byte	.LCFI44-.Ltext0
 3947 01b8 B00A0000 		.4byte	.LCFI45-.Ltext0
 3948 01bc 0200     		.2byte	0x2
 3949 01be 77       		.byte	0x77
 3950 01bf 20       		.sleb128 32
 3951 01c0 B00A0000 		.4byte	.LCFI45-.Ltext0
 3952 01c4 B20A0000 		.4byte	.LCFI46-.Ltext0
 3953 01c8 0200     		.2byte	0x2
 3954 01ca 77       		.byte	0x77
 3955 01cb 04       		.sleb128 4
 3956 01cc B20A0000 		.4byte	.LCFI46-.Ltext0
 3957 01d0 B40A0000 		.4byte	.LCFI47-.Ltext0
 3958 01d4 0200     		.2byte	0x2
 3959 01d6 7D       		.byte	0x7d
 3960 01d7 04       		.sleb128 4
 3961 01d8 B40A0000 		.4byte	.LCFI47-.Ltext0
 3962 01dc B60A0000 		.4byte	.LFE36-.Ltext0
 3963 01e0 0200     		.2byte	0x2
 3964 01e2 7D       		.byte	0x7d
 3965 01e3 00       		.sleb128 0
 3966 01e4 00000000 		.4byte	0
 3967 01e8 00000000 		.4byte	0
 3968              	.LLST6:
 3969 01ec 260A0000 		.4byte	.LFB35-.Ltext0
 3970 01f0 280A0000 		.4byte	.LCFI36-.Ltext0
 3971 01f4 0200     		.2byte	0x2
 3972 01f6 7D       		.byte	0x7d
 3973 01f7 00       		.sleb128 0
 3974 01f8 280A0000 		.4byte	.LCFI36-.Ltext0
 3975 01fc 2A0A0000 		.4byte	.LCFI37-.Ltext0
 3976 0200 0200     		.2byte	0x2
 3977 0202 7D       		.byte	0x7d
 3978 0203 04       		.sleb128 4
 3979 0204 2A0A0000 		.4byte	.LCFI37-.Ltext0
 3980 0208 2C0A0000 		.4byte	.LCFI38-.Ltext0
ARM GAS  G:\Users\Jaxb\AppData\Local\Temp\ccW59wSv.s 			page 81


 3981 020c 0200     		.2byte	0x2
 3982 020e 7D       		.byte	0x7d
 3983 020f 18       		.sleb128 24
 3984 0210 2C0A0000 		.4byte	.LCFI38-.Ltext0
 3985 0214 7C0A0000 		.4byte	.LCFI39-.Ltext0
 3986 0218 0200     		.2byte	0x2
 3987 021a 77       		.byte	0x77
 3988 021b 18       		.sleb128 24
 3989 021c 7C0A0000 		.4byte	.LCFI39-.Ltext0
 3990 0220 7E0A0000 		.4byte	.LCFI40-.Ltext0
 3991 0224 0200     		.2byte	0x2
 3992 0226 77       		.byte	0x77
 3993 0227 04       		.sleb128 4
 3994 0228 7E0A0000 		.4byte	.LCFI40-.Ltext0
 3995 022c 800A0000 		.4byte	.LCFI41-.Ltext0
 3996 0230 0200     		.2byte	0x2
 3997 0232 7D       		.byte	0x7d
 3998 0233 04       		.sleb128 4
 3999 0234 800A0000 		.4byte	.LCFI41-.Ltext0
 4000 0238 820A0000 		.4byte	.LFE35-.Ltext0
 4001 023c 0200     		.2byte	0x2
 4002 023e 7D       		.byte	0x7d
 4003 023f 00       		.sleb128 0
 4004 0240 00000000 		.4byte	0
 4005 0244 00000000 		.4byte	0
 4006              	.LLST5:
 4007 0248 3A010000 		.4byte	.LFB34-.Ltext0
 4008 024c 3C010000 		.4byte	.LCFI28-.Ltext0
 4009 0250 0200     		.2byte	0x2
 4010 0252 7D       		.byte	0x7d
 4011 0253 00       		.sleb128 0
 4012 0254 3C010000 		.4byte	.LCFI28-.Ltext0
 4013 0258 3E010000 		.4byte	.LCFI29-.Ltext0
 4014 025c 0200     		.2byte	0x2
 4015 025e 7D       		.byte	0x7d
 4016 025f 10       		.sleb128 16
 4017 0260 3E010000 		.4byte	.LCFI29-.Ltext0
 4018 0264 40010000 		.4byte	.LCFI30-.Ltext0
 4019 0268 0200     		.2byte	0x2
 4020 026a 7D       		.byte	0x7d
 4021 026b 1C       		.sleb128 28
 4022 026c 40010000 		.4byte	.LCFI30-.Ltext0
 4023 0270 42010000 		.4byte	.LCFI31-.Ltext0
 4024 0274 0300     		.2byte	0x3
 4025 0276 7D       		.byte	0x7d
 4026 0277 E000     		.sleb128 96
 4027 0279 42010000 		.4byte	.LCFI31-.Ltext0
 4028 027d 1C0A0000 		.4byte	.LCFI32-.Ltext0
 4029 0281 0300     		.2byte	0x3
 4030 0283 77       		.byte	0x77
 4031 0284 E000     		.sleb128 96
 4032 0286 1C0A0000 		.4byte	.LCFI32-.Ltext0
 4033 028a 1E0A0000 		.4byte	.LCFI33-.Ltext0
 4034 028e 0200     		.2byte	0x2
 4035 0290 77       		.byte	0x77
 4036 0291 1C       		.sleb128 28
 4037 0292 1E0A0000 		.4byte	.LCFI33-.Ltext0
ARM GAS  G:\Users\Jaxb\AppData\Local\Temp\ccW59wSv.s 			page 82


 4038 0296 220A0000 		.4byte	.LCFI34-.Ltext0
 4039 029a 0200     		.2byte	0x2
 4040 029c 7D       		.byte	0x7d
 4041 029d 1C       		.sleb128 28
 4042 029e 220A0000 		.4byte	.LCFI34-.Ltext0
 4043 02a2 240A0000 		.4byte	.LCFI35-.Ltext0
 4044 02a6 0200     		.2byte	0x2
 4045 02a8 7D       		.byte	0x7d
 4046 02a9 10       		.sleb128 16
 4047 02aa 240A0000 		.4byte	.LCFI35-.Ltext0
 4048 02ae 260A0000 		.4byte	.LFE34-.Ltext0
 4049 02b2 0200     		.2byte	0x2
 4050 02b4 7D       		.byte	0x7d
 4051 02b5 00       		.sleb128 0
 4052 02b6 00000000 		.4byte	0
 4053 02ba 00000000 		.4byte	0
 4054              	.LLST4:
 4055 02be B8000000 		.4byte	.LFB33-.Ltext0
 4056 02c2 BA000000 		.4byte	.LCFI22-.Ltext0
 4057 02c6 0200     		.2byte	0x2
 4058 02c8 7D       		.byte	0x7d
 4059 02c9 00       		.sleb128 0
 4060 02ca BA000000 		.4byte	.LCFI22-.Ltext0
 4061 02ce BC000000 		.4byte	.LCFI23-.Ltext0
 4062 02d2 0200     		.2byte	0x2
 4063 02d4 7D       		.byte	0x7d
 4064 02d5 04       		.sleb128 4
 4065 02d6 BC000000 		.4byte	.LCFI23-.Ltext0
 4066 02da BE000000 		.4byte	.LCFI24-.Ltext0
 4067 02de 0200     		.2byte	0x2
 4068 02e0 7D       		.byte	0x7d
 4069 02e1 30       		.sleb128 48
 4070 02e2 BE000000 		.4byte	.LCFI24-.Ltext0
 4071 02e6 34010000 		.4byte	.LCFI25-.Ltext0
 4072 02ea 0200     		.2byte	0x2
 4073 02ec 77       		.byte	0x77
 4074 02ed 30       		.sleb128 48
 4075 02ee 34010000 		.4byte	.LCFI25-.Ltext0
 4076 02f2 36010000 		.4byte	.LCFI26-.Ltext0
 4077 02f6 0200     		.2byte	0x2
 4078 02f8 77       		.byte	0x77
 4079 02f9 04       		.sleb128 4
 4080 02fa 36010000 		.4byte	.LCFI26-.Ltext0
 4081 02fe 38010000 		.4byte	.LCFI27-.Ltext0
 4082 0302 0200     		.2byte	0x2
 4083 0304 7D       		.byte	0x7d
 4084 0305 04       		.sleb128 4
 4085 0306 38010000 		.4byte	.LCFI27-.Ltext0
 4086 030a 3A010000 		.4byte	.LFE33-.Ltext0
 4087 030e 0200     		.2byte	0x2
 4088 0310 7D       		.byte	0x7d
 4089 0311 00       		.sleb128 0
 4090 0312 00000000 		.4byte	0
 4091 0316 00000000 		.4byte	0
 4092              	.LLST3:
 4093 031a 8C000000 		.4byte	.LFB32-.Ltext0
 4094 031e 8E000000 		.4byte	.LCFI16-.Ltext0
ARM GAS  G:\Users\Jaxb\AppData\Local\Temp\ccW59wSv.s 			page 83


 4095 0322 0200     		.2byte	0x2
 4096 0324 7D       		.byte	0x7d
 4097 0325 00       		.sleb128 0
 4098 0326 8E000000 		.4byte	.LCFI16-.Ltext0
 4099 032a 90000000 		.4byte	.LCFI17-.Ltext0
 4100 032e 0200     		.2byte	0x2
 4101 0330 7D       		.byte	0x7d
 4102 0331 04       		.sleb128 4
 4103 0332 90000000 		.4byte	.LCFI17-.Ltext0
 4104 0336 92000000 		.4byte	.LCFI18-.Ltext0
 4105 033a 0200     		.2byte	0x2
 4106 033c 7D       		.byte	0x7d
 4107 033d 18       		.sleb128 24
 4108 033e 92000000 		.4byte	.LCFI18-.Ltext0
 4109 0342 B2000000 		.4byte	.LCFI19-.Ltext0
 4110 0346 0200     		.2byte	0x2
 4111 0348 77       		.byte	0x77
 4112 0349 18       		.sleb128 24
 4113 034a B2000000 		.4byte	.LCFI19-.Ltext0
 4114 034e B4000000 		.4byte	.LCFI20-.Ltext0
 4115 0352 0200     		.2byte	0x2
 4116 0354 77       		.byte	0x77
 4117 0355 04       		.sleb128 4
 4118 0356 B4000000 		.4byte	.LCFI20-.Ltext0
 4119 035a B6000000 		.4byte	.LCFI21-.Ltext0
 4120 035e 0200     		.2byte	0x2
 4121 0360 7D       		.byte	0x7d
 4122 0361 04       		.sleb128 4
 4123 0362 B6000000 		.4byte	.LCFI21-.Ltext0
 4124 0366 B8000000 		.4byte	.LFE32-.Ltext0
 4125 036a 0200     		.2byte	0x2
 4126 036c 7D       		.byte	0x7d
 4127 036d 00       		.sleb128 0
 4128 036e 00000000 		.4byte	0
 4129 0372 00000000 		.4byte	0
 4130              	.LLST2:
 4131 0376 58000000 		.4byte	.LFB31-.Ltext0
 4132 037a 5A000000 		.4byte	.LCFI11-.Ltext0
 4133 037e 0200     		.2byte	0x2
 4134 0380 7D       		.byte	0x7d
 4135 0381 00       		.sleb128 0
 4136 0382 5A000000 		.4byte	.LCFI11-.Ltext0
 4137 0386 5C000000 		.4byte	.LCFI12-.Ltext0
 4138 038a 0200     		.2byte	0x2
 4139 038c 7D       		.byte	0x7d
 4140 038d 08       		.sleb128 8
 4141 038e 5C000000 		.4byte	.LCFI12-.Ltext0
 4142 0392 5E000000 		.4byte	.LCFI13-.Ltext0
 4143 0396 0200     		.2byte	0x2
 4144 0398 7D       		.byte	0x7d
 4145 0399 10       		.sleb128 16
 4146 039a 5E000000 		.4byte	.LCFI13-.Ltext0
 4147 039e 88000000 		.4byte	.LCFI14-.Ltext0
 4148 03a2 0200     		.2byte	0x2
 4149 03a4 77       		.byte	0x77
 4150 03a5 10       		.sleb128 16
 4151 03a6 88000000 		.4byte	.LCFI14-.Ltext0
ARM GAS  G:\Users\Jaxb\AppData\Local\Temp\ccW59wSv.s 			page 84


 4152 03aa 8A000000 		.4byte	.LCFI15-.Ltext0
 4153 03ae 0200     		.2byte	0x2
 4154 03b0 77       		.byte	0x77
 4155 03b1 08       		.sleb128 8
 4156 03b2 8A000000 		.4byte	.LCFI15-.Ltext0
 4157 03b6 8C000000 		.4byte	.LFE31-.Ltext0
 4158 03ba 0200     		.2byte	0x2
 4159 03bc 7D       		.byte	0x7d
 4160 03bd 08       		.sleb128 8
 4161 03be 00000000 		.4byte	0
 4162 03c2 00000000 		.4byte	0
 4163              	.LLST1:
 4164 03c6 30000000 		.4byte	.LFB30-.Ltext0
 4165 03ca 32000000 		.4byte	.LCFI6-.Ltext0
 4166 03ce 0200     		.2byte	0x2
 4167 03d0 7D       		.byte	0x7d
 4168 03d1 00       		.sleb128 0
 4169 03d2 32000000 		.4byte	.LCFI6-.Ltext0
 4170 03d6 34000000 		.4byte	.LCFI7-.Ltext0
 4171 03da 0200     		.2byte	0x2
 4172 03dc 7D       		.byte	0x7d
 4173 03dd 08       		.sleb128 8
 4174 03de 34000000 		.4byte	.LCFI7-.Ltext0
 4175 03e2 36000000 		.4byte	.LCFI8-.Ltext0
 4176 03e6 0200     		.2byte	0x2
 4177 03e8 7D       		.byte	0x7d
 4178 03e9 10       		.sleb128 16
 4179 03ea 36000000 		.4byte	.LCFI8-.Ltext0
 4180 03ee 54000000 		.4byte	.LCFI9-.Ltext0
 4181 03f2 0200     		.2byte	0x2
 4182 03f4 77       		.byte	0x77
 4183 03f5 10       		.sleb128 16
 4184 03f6 54000000 		.4byte	.LCFI9-.Ltext0
 4185 03fa 56000000 		.4byte	.LCFI10-.Ltext0
 4186 03fe 0200     		.2byte	0x2
 4187 0400 77       		.byte	0x77
 4188 0401 08       		.sleb128 8
 4189 0402 56000000 		.4byte	.LCFI10-.Ltext0
 4190 0406 58000000 		.4byte	.LFE30-.Ltext0
 4191 040a 0200     		.2byte	0x2
 4192 040c 7D       		.byte	0x7d
 4193 040d 08       		.sleb128 8
 4194 040e 00000000 		.4byte	0
 4195 0412 00000000 		.4byte	0
 4196              	.LLST0:
 4197 0416 00000000 		.4byte	.LFB29-.Ltext0
 4198 041a 02000000 		.4byte	.LCFI0-.Ltext0
 4199 041e 0200     		.2byte	0x2
 4200 0420 7D       		.byte	0x7d
 4201 0421 00       		.sleb128 0
 4202 0422 02000000 		.4byte	.LCFI0-.Ltext0
 4203 0426 04000000 		.4byte	.LCFI1-.Ltext0
 4204 042a 0200     		.2byte	0x2
 4205 042c 7D       		.byte	0x7d
 4206 042d 04       		.sleb128 4
 4207 042e 04000000 		.4byte	.LCFI1-.Ltext0
 4208 0432 06000000 		.4byte	.LCFI2-.Ltext0
ARM GAS  G:\Users\Jaxb\AppData\Local\Temp\ccW59wSv.s 			page 85


 4209 0436 0200     		.2byte	0x2
 4210 0438 7D       		.byte	0x7d
 4211 0439 18       		.sleb128 24
 4212 043a 06000000 		.4byte	.LCFI2-.Ltext0
 4213 043e 2A000000 		.4byte	.LCFI3-.Ltext0
 4214 0442 0200     		.2byte	0x2
 4215 0444 77       		.byte	0x77
 4216 0445 18       		.sleb128 24
 4217 0446 2A000000 		.4byte	.LCFI3-.Ltext0
 4218 044a 2C000000 		.4byte	.LCFI4-.Ltext0
 4219 044e 0200     		.2byte	0x2
 4220 0450 77       		.byte	0x77
 4221 0451 04       		.sleb128 4
 4222 0452 2C000000 		.4byte	.LCFI4-.Ltext0
 4223 0456 2E000000 		.4byte	.LCFI5-.Ltext0
 4224 045a 0200     		.2byte	0x2
 4225 045c 7D       		.byte	0x7d
 4226 045d 04       		.sleb128 4
 4227 045e 2E000000 		.4byte	.LCFI5-.Ltext0
 4228 0462 30000000 		.4byte	.LFE29-.Ltext0
 4229 0466 0200     		.2byte	0x2
 4230 0468 7D       		.byte	0x7d
 4231 0469 00       		.sleb128 0
 4232 046a 00000000 		.4byte	0
 4233 046e 00000000 		.4byte	0
 4234              		.section	.debug_aranges,"",%progbits
 4235 0000 1C000000 		.4byte	0x1c
 4236 0004 0200     		.2byte	0x2
 4237 0006 00000000 		.4byte	.Ldebug_info0
 4238 000a 04       		.byte	0x4
 4239 000b 00       		.byte	0
 4240 000c 0000     		.2byte	0
 4241 000e 0000     		.2byte	0
 4242 0010 00000000 		.4byte	.Ltext0
 4243 0014 2E0D0000 		.4byte	.Letext0-.Ltext0
 4244 0018 00000000 		.4byte	0
 4245 001c 00000000 		.4byte	0
 4246              		.section	.debug_line,"",%progbits
 4247              	.Ldebug_line0:
 4248 0000 66030000 		.section	.debug_str,"MS",%progbits,1
 4248      02006F01 
 4248      00000201 
 4248      FB0E0D00 
 4248      01010101 
 4249              	.LASF26:
 4250 0000 63686172 		.ascii	"char_ptr\000"
 4250      5F707472 
 4250      00
 4251              	.LASF41:
 4252 0009 725F7661 		.ascii	"r_val_l\000"
 4252      6C5F6C00 
 4253              	.LASF48:
 4254 0011 64657374 		.ascii	"dest\000"
 4254      00
 4255              	.LASF4:
 4256 0016 73686F72 		.ascii	"short int\000"
 4256      7420696E 
ARM GAS  G:\Users\Jaxb\AppData\Local\Temp\ccW59wSv.s 			page 86


 4256      7400
 4257              	.LASF58:
 4258 0020 2E2E2F2E 		.ascii	"../../source/src/kernel/OS_LIB/myMicroLIB.c\000"
 4258      2E2F736F 
 4258      75726365 
 4258      2F737263 
 4258      2F6B6572 
 4259              	.LASF62:
 4260 004c 6D5F7075 		.ascii	"m_putstr\000"
 4260      74737472 
 4260      00
 4261              	.LASF55:
 4262 0055 73747269 		.ascii	"string\000"
 4262      6E6700
 4263              	.LASF7:
 4264 005c 5F5F7569 		.ascii	"__uint32_t\000"
 4264      6E743332 
 4264      5F7400
 4265              	.LASF47:
 4266 0067 6B615F6D 		.ascii	"ka_memcpy\000"
 4266      656D6370 
 4266      7900
 4267              	.LASF22:
 4268 0071 73747231 		.ascii	"str1\000"
 4268      00
 4269              	.LASF23:
 4270 0076 73747232 		.ascii	"str2\000"
 4270      00
 4271              	.LASF1:
 4272 007b 76615F6C 		.ascii	"va_list\000"
 4272      69737400 
 4273              	.LASF16:
 4274 0083 6B615F6D 		.ascii	"ka_module_symtab\000"
 4274      6F64756C 
 4274      655F7379 
 4274      6D746162 
 4274      00
 4275              	.LASF59:
 4276 0094 463A5C6B 		.ascii	"F:\\kaka\\KAKAOS\\C\\windows\\Project\\RVMDK\243\250"
 4276      616B615C 
 4276      4B414B41 
 4276      4F535C43 
 4276      5C77696E 
 4277 00bc 757635A3 		.ascii	"uv5\243\251\000"
 4277      A900
 4278              	.LASF9:
 4279 00c2 6C6F6E67 		.ascii	"long long int\000"
 4279      206C6F6E 
 4279      6720696E 
 4279      7400
 4280              	.LASF39:
 4281 00d0 76616C5F 		.ascii	"val_f\000"
 4281      6600
 4282              	.LASF15:
 4283 00d6 5F5F7661 		.ascii	"__va_list\000"
 4283      5F6C6973 
 4283      7400
ARM GAS  G:\Users\Jaxb\AppData\Local\Temp\ccW59wSv.s 			page 87


 4284              	.LASF40:
 4285 00e0 76616C5F 		.ascii	"val_l\000"
 4285      6C00
 4286              	.LASF6:
 4287 00e6 6C6F6E67 		.ascii	"long int\000"
 4287      20696E74 
 4287      00
 4288              	.LASF56:
 4289 00ef 6B615F70 		.ascii	"ka_pow\000"
 4289      6F7700
 4290              	.LASF17:
 4291 00f6 61646472 		.ascii	"addr\000"
 4291      00
 4292              	.LASF61:
 4293 00fb 5F5F696E 		.ascii	"__init_my_micro_lib\000"
 4293      69745F6D 
 4293      795F6D69 
 4293      63726F5F 
 4293      6C696200 
 4294              	.LASF21:
 4295 010f 5F5F7274 		.ascii	"__rtmsym_ka_printf\000"
 4295      6D73796D 
 4295      5F6B615F 
 4295      7072696E 
 4295      746600
 4296              	.LASF18:
 4297 0122 6E616D65 		.ascii	"name\000"
 4297      00
 4298              	.LASF25:
 4299 0127 6B615F61 		.ascii	"ka_atof\000"
 4299      746F6600 
 4300              	.LASF30:
 4301 012f 6B615F61 		.ascii	"ka_atoi\000"
 4301      746F6900 
 4302              	.LASF3:
 4303 0137 756E7369 		.ascii	"unsigned char\000"
 4303      676E6564 
 4303      20636861 
 4303      7200
 4304              	.LASF2:
 4305 0145 7369676E 		.ascii	"signed char\000"
 4305      65642063 
 4305      68617200 
 4306              	.LASF10:
 4307 0151 6C6F6E67 		.ascii	"long long unsigned int\000"
 4307      206C6F6E 
 4307      6720756E 
 4307      7369676E 
 4307      65642069 
 4308              	.LASF12:
 4309 0168 75696E74 		.ascii	"uint32_t\000"
 4309      33325F74 
 4309      00
 4310              	.LASF42:
 4311 0171 76616C5F 		.ascii	"val_l1\000"
 4311      6C3100
 4312              	.LASF11:
ARM GAS  G:\Users\Jaxb\AppData\Local\Temp\ccW59wSv.s 			page 88


 4313 0178 756E7369 		.ascii	"unsigned int\000"
 4313      676E6564 
 4313      20696E74 
 4313      00
 4314              	.LASF44:
 4315 0185 76616C31 		.ascii	"val1\000"
 4315      00
 4316              	.LASF43:
 4317 018a 725F7661 		.ascii	"r_val_l1\000"
 4317      6C5F6C31 
 4317      00
 4318              	.LASF36:
 4319 0193 6B615F73 		.ascii	"ka_strncmp\000"
 4319      74726E63 
 4319      6D7000
 4320              	.LASF5:
 4321 019e 73686F72 		.ascii	"short unsigned int\000"
 4321      7420756E 
 4321      7369676E 
 4321      65642069 
 4321      6E7400
 4322              	.LASF54:
 4323 01b1 6B615F70 		.ascii	"ka_puts\000"
 4323      75747300 
 4324              	.LASF60:
 4325 01b9 5F5F6170 		.ascii	"__ap\000"
 4325      00
 4326              	.LASF19:
 4327 01be 63686172 		.ascii	"char\000"
 4327      00
 4328              	.LASF37:
 4329 01c3 6B615F70 		.ascii	"ka_printf\000"
 4329      72696E74 
 4329      6600
 4330              	.LASF53:
 4331 01cd 6B615F73 		.ascii	"ka_strlen\000"
 4331      74726C65 
 4331      6E00
 4332              	.LASF31:
 4333 01d7 73747244 		.ascii	"strDest\000"
 4333      65737400 
 4334              	.LASF14:
 4335 01df 53797374 		.ascii	"SystemCoreClock\000"
 4335      656D436F 
 4335      7265436C 
 4335      6F636B00 
 4336              	.LASF35:
 4337 01ef 62756666 		.ascii	"buffer\000"
 4337      657200
 4338              	.LASF45:
 4339 01f6 725F7661 		.ascii	"r_val1\000"
 4339      6C3100
 4340              	.LASF49:
 4341 01fd 70747231 		.ascii	"ptr1\000"
 4341      00
 4342              	.LASF8:
 4343 0202 6C6F6E67 		.ascii	"long unsigned int\000"
ARM GAS  G:\Users\Jaxb\AppData\Local\Temp\ccW59wSv.s 			page 89


 4343      20756E73 
 4343      69676E65 
 4343      6420696E 
 4343      7400
 4344              	.LASF50:
 4345 0214 70747232 		.ascii	"ptr2\000"
 4345      00
 4346              	.LASF27:
 4347 0219 7369676E 		.ascii	"sign\000"
 4347      00
 4348              	.LASF29:
 4349 021e 646F7562 		.ascii	"double\000"
 4349      6C6500
 4350              	.LASF20:
 4351 0225 5F5F7274 		.ascii	"__rtmsym_ka_printf_name\000"
 4351      6D73796D 
 4351      5F6B615F 
 4351      7072696E 
 4351      74665F6E 
 4352              	.LASF46:
 4353 023d 636F756E 		.ascii	"count\000"
 4353      7400
 4354              	.LASF34:
 4355 0243 6B615F6D 		.ascii	"ka_memset\000"
 4355      656D7365 
 4355      7400
 4356              	.LASF24:
 4357 024d 6B615F73 		.ascii	"ka_strcmp\000"
 4357      7472636D 
 4357      7000
 4358              	.LASF0:
 4359 0257 5F5F676E 		.ascii	"__gnuc_va_list\000"
 4359      75635F76 
 4359      615F6C69 
 4359      737400
 4360              	.LASF33:
 4361 0266 6B615F73 		.ascii	"ka_strcpy\000"
 4361      74726370 
 4361      7900
 4362              	.LASF57:
 4363 0270 474E5520 		.ascii	"GNU C11 7.3.1 20180622 (release) [ARM/embedded-7-br"
 4363      43313120 
 4363      372E332E 
 4363      31203230 
 4363      31383036 
 4364 02a3 616E6368 		.ascii	"anch revision 261907] -mcpu=cortex-m3 -mthumb -mapc"
 4364      20726576 
 4364      6973696F 
 4364      6E203236 
 4364      31393037 
 4365 02d6 732D6672 		.ascii	"s-frame -mthumb-interwork -mcpu=cortex-m3 -mthumb -"
 4365      616D6520 
 4365      2D6D7468 
 4365      756D622D 
 4365      696E7465 
 4366 0309 67647761 		.ascii	"gdwarf-2 -O0\000"
 4366      72662D32 
ARM GAS  G:\Users\Jaxb\AppData\Local\Temp\ccW59wSv.s 			page 90


 4366      202D4F30 
 4366      00
 4367              	.LASF51:
 4368 0316 70747233 		.ascii	"ptr3\000"
 4368      00
 4369              	.LASF52:
 4370 031b 70747234 		.ascii	"ptr4\000"
 4370      00
 4371              	.LASF28:
 4372 0320 64697669 		.ascii	"divisor\000"
 4372      736F7200 
 4373              	.LASF13:
 4374 0328 49544D5F 		.ascii	"ITM_RxBuffer\000"
 4374      52784275 
 4374      66666572 
 4374      00
 4375              	.LASF38:
 4376 0335 725F7661 		.ascii	"r_val\000"
 4376      6C00
 4377              	.LASF32:
 4378 033b 73747253 		.ascii	"strSrc\000"
 4378      726300
 4379              		.ident	"GCC: (GNU Tools for Arm Embedded Processors 7-2018-q2-update) 7.3.1 20180622 (release) [AR
ARM GAS  G:\Users\Jaxb\AppData\Local\Temp\ccW59wSv.s 			page 91


DEFINED SYMBOLS
                            *ABS*:00000000 myMicroLIB.c
G:\Users\Jaxb\AppData\Local\Temp\ccW59wSv.s:15     .text:00000000 $t
G:\Users\Jaxb\AppData\Local\Temp\ccW59wSv.s:22     .text:00000000 ka_pow
G:\Users\Jaxb\AppData\Local\Temp\ccW59wSv.s:85     .text:00000030 m_putstr
G:\Users\Jaxb\AppData\Local\Temp\ccW59wSv.s:139    .text:00000058 ka_puts
G:\Users\Jaxb\AppData\Local\Temp\ccW59wSv.s:199    .text:0000008c ka_strlen
G:\Users\Jaxb\AppData\Local\Temp\ccW59wSv.s:261    .text:000000b8 ka_memcpy
G:\Users\Jaxb\AppData\Local\Temp\ccW59wSv.s:379    .rodata:00000000 $d
G:\Users\Jaxb\AppData\Local\Temp\ccW59wSv.s:393    .text:0000013a ka_printf
G:\Users\Jaxb\AppData\Local\Temp\ccW59wSv.s:451    .text:0000017c $d
G:\Users\Jaxb\AppData\Local\Temp\ccW59wSv.s:535    .text:000002cc $t
G:\Users\Jaxb\AppData\Local\Temp\ccW59wSv.s:986    .text:000005cc $d
G:\Users\Jaxb\AppData\Local\Temp\ccW59wSv.s:991    .text:000005d8 $t
G:\Users\Jaxb\AppData\Local\Temp\ccW59wSv.s:1407   .text:0000086c $d
G:\Users\Jaxb\AppData\Local\Temp\ccW59wSv.s:1411   .text:00000874 $t
G:\Users\Jaxb\AppData\Local\Temp\ccW59wSv.s:1700   .rodata.name:00000000 __rtmsym_ka_printf_name
G:\Users\Jaxb\AppData\Local\Temp\ccW59wSv.s:1697   .rodata.name:00000000 $d
G:\Users\Jaxb\AppData\Local\Temp\ccW59wSv.s:1707   .RTMSymTab:00000000 __rtmsym_ka_printf
G:\Users\Jaxb\AppData\Local\Temp\ccW59wSv.s:1704   .RTMSymTab:00000000 $d
G:\Users\Jaxb\AppData\Local\Temp\ccW59wSv.s:1718   .text:00000a26 ka_strncmp
G:\Users\Jaxb\AppData\Local\Temp\ccW59wSv.s:1811   .text:00000a82 ka_memset
G:\Users\Jaxb\AppData\Local\Temp\ccW59wSv.s:1877   .text:00000ab6 ka_strcpy
G:\Users\Jaxb\AppData\Local\Temp\ccW59wSv.s:1947   .text:00000af0 ka_atoi
G:\Users\Jaxb\AppData\Local\Temp\ccW59wSv.s:2075   .text:00000b7c ka_atof
G:\Users\Jaxb\AppData\Local\Temp\ccW59wSv.s:2291   .text:00000cd4 $d
G:\Users\Jaxb\AppData\Local\Temp\ccW59wSv.s:2296   .text:00000cdc $t
G:\Users\Jaxb\AppData\Local\Temp\ccW59wSv.s:2303   .text:00000cdc ka_strcmp
G:\Users\Jaxb\AppData\Local\Temp\ccW59wSv.s:2382   .text:00000d22 __init_my_micro_lib

UNDEFINED SYMBOLS
ka_putchar
__aeabi_dcmplt
__aeabi_d2iz
__aeabi_i2d
__aeabi_dsub
__aeabi_dmul
_ASSERT
__aeabi_dadd
__aeabi_ddiv
init_malloc
