ARM GAS  G:\Users\Jaxb\AppData\Local\Temp\cci3ToTS.s 			page 1


   1              		.cpu cortex-m3
   2              		.eabi_attribute 20, 1
   3              		.eabi_attribute 21, 1
   4              		.eabi_attribute 23, 3
   5              		.eabi_attribute 24, 1
   6              		.eabi_attribute 25, 1
   7              		.eabi_attribute 26, 1
   8              		.eabi_attribute 30, 2
   9              		.eabi_attribute 34, 1
  10              		.eabi_attribute 18, 4
  11              		.file	"myMicroLIB.c"
  12              		.text
  13              	.Ltext0:
  14              		.cfi_sections	.debug_frame
  15              		.align	1
  16              		.p2align 2,,3
  17              		.global	ka_pow
  18              		.syntax unified
  19              		.thumb
  20              		.thumb_func
  21              		.fpu softvfp
  22              		.type	ka_pow, %function
  23              	ka_pow:
  24              	.LFB29:
  25              		.file 1 "../../source/src/user/OS_LIB/myMicroLIB.c"
   1:../../source/src/user/OS_LIB/myMicroLIB.c **** #include <stdarg.h>
   2:../../source/src/user/OS_LIB/myMicroLIB.c **** #include <bsp_usart.h>
   3:../../source/src/user/OS_LIB/myMicroLIB.c **** #include <myMicroLIB.h>
   4:../../source/src/user/OS_LIB/myMicroLIB.c **** #include <myassert.h>
   5:../../source/src/user/OS_LIB/myMicroLIB.c **** #include <kakaosstdint.h>
   6:../../source/src/user/OS_LIB/myMicroLIB.c **** #include <os_cpu.h>
   7:../../source/src/user/OS_LIB/myMicroLIB.c **** 
   8:../../source/src/user/OS_LIB/myMicroLIB.c **** unsigned long ka_pow(int x,unsigned int y)
   9:../../source/src/user/OS_LIB/myMicroLIB.c **** {
  26              		.loc 1 9 0
  27              		.cfi_startproc
  28              		@ args = 0, pretend = 0, frame = 0
  29              		@ frame_needed = 0, uses_anonymous_args = 0
  30              		@ link register save eliminated.
  31              	.LVL0:
  10:../../source/src/user/OS_LIB/myMicroLIB.c **** 	unsigned long sum = 1;
  11:../../source/src/user/OS_LIB/myMicroLIB.c **** 	while(y--)
  32              		.loc 1 11 0
  33 0000 4B1E     		subs	r3, r1, #1
  34              	.LVL1:
  10:../../source/src/user/OS_LIB/myMicroLIB.c **** 	unsigned long sum = 1;
  35              		.loc 1 10 0
  36 0002 0122     		movs	r2, #1
  37              		.loc 1 11 0
  38 0004 21B1     		cbz	r1, .L1
  39              	.LVL2:
  40              	.L3:
  41 0006 013B     		subs	r3, r3, #1
  42              	.LVL3:
  43 0008 591C     		adds	r1, r3, #1
  12:../../source/src/user/OS_LIB/myMicroLIB.c **** 	{
  13:../../source/src/user/OS_LIB/myMicroLIB.c **** 		sum *= x;
ARM GAS  G:\Users\Jaxb\AppData\Local\Temp\cci3ToTS.s 			page 2


  44              		.loc 1 13 0
  45 000a 00FB02F2 		mul	r2, r0, r2
  46              	.LVL4:
  11:../../source/src/user/OS_LIB/myMicroLIB.c **** 	{
  47              		.loc 1 11 0
  48 000e FAD1     		bne	.L3
  49              	.LVL5:
  50              	.L1:
  14:../../source/src/user/OS_LIB/myMicroLIB.c **** 	}
  15:../../source/src/user/OS_LIB/myMicroLIB.c **** 	return sum;
  16:../../source/src/user/OS_LIB/myMicroLIB.c **** }
  51              		.loc 1 16 0
  52 0010 1046     		mov	r0, r2
  53              	.LVL6:
  54 0012 7047     		bx	lr
  55              		.cfi_endproc
  56              	.LFE29:
  57              		.size	ka_pow, .-ka_pow
  58              		.align	1
  59              		.p2align 2,,3
  60              		.global	ka_puts
  61              		.syntax unified
  62              		.thumb
  63              		.thumb_func
  64              		.fpu softvfp
  65              		.type	ka_puts, %function
  66              	ka_puts:
  67              	.LFB31:
  17:../../source/src/user/OS_LIB/myMicroLIB.c **** 
  18:../../source/src/user/OS_LIB/myMicroLIB.c **** static void m_putstr(const char *str)  
  19:../../source/src/user/OS_LIB/myMicroLIB.c **** {  
  20:../../source/src/user/OS_LIB/myMicroLIB.c ****     while(*str)  
  21:../../source/src/user/OS_LIB/myMicroLIB.c ****     {  
  22:../../source/src/user/OS_LIB/myMicroLIB.c ****         ka_putchar(*str++);  
  23:../../source/src/user/OS_LIB/myMicroLIB.c ****     }
  24:../../source/src/user/OS_LIB/myMicroLIB.c **** }
  25:../../source/src/user/OS_LIB/myMicroLIB.c **** 
  26:../../source/src/user/OS_LIB/myMicroLIB.c **** void ka_puts(const char *string)
  27:../../source/src/user/OS_LIB/myMicroLIB.c **** {
  68              		.loc 1 27 0
  69              		.cfi_startproc
  70              		@ args = 0, pretend = 0, frame = 0
  71              		@ frame_needed = 0, uses_anonymous_args = 0
  72              	.LVL7:
  73 0014 10B5     		push	{r4, lr}
  74              	.LCFI0:
  75              		.cfi_def_cfa_offset 8
  76              		.cfi_offset 4, -8
  77              		.cfi_offset 14, -4
  78              		.loc 1 27 0
  79 0016 0446     		mov	r4, r0
  28:../../source/src/user/OS_LIB/myMicroLIB.c **** 	while(*string)  
  80              		.loc 1 28 0
  81 0018 0078     		ldrb	r0, [r0]	@ zero_extendqisi2
  82              	.LVL8:
  83 001a 28B1     		cbz	r0, .L8
  84              	.LVL9:
ARM GAS  G:\Users\Jaxb\AppData\Local\Temp\cci3ToTS.s 			page 3


  85              	.L9:
  29:../../source/src/user/OS_LIB/myMicroLIB.c ****     {  
  30:../../source/src/user/OS_LIB/myMicroLIB.c ****         ka_putchar(*string++);  
  86              		.loc 1 30 0
  87 001c FFF7FEFF 		bl	ka_putchar
  88              	.LVL10:
  28:../../source/src/user/OS_LIB/myMicroLIB.c **** 	while(*string)  
  89              		.loc 1 28 0
  90 0020 14F8010F 		ldrb	r0, [r4, #1]!	@ zero_extendqisi2
  91              	.LVL11:
  92 0024 0028     		cmp	r0, #0
  93 0026 F9D1     		bne	.L9
  94              	.LVL12:
  95              	.L8:
  31:../../source/src/user/OS_LIB/myMicroLIB.c ****     }
  32:../../source/src/user/OS_LIB/myMicroLIB.c ****     ka_putchar('\r');
  96              		.loc 1 32 0
  97 0028 0D20     		movs	r0, #13
  98 002a FFF7FEFF 		bl	ka_putchar
  99              	.LVL13:
  33:../../source/src/user/OS_LIB/myMicroLIB.c ****     ka_putchar('\n');
  34:../../source/src/user/OS_LIB/myMicroLIB.c **** }
 100              		.loc 1 34 0
 101 002e BDE81040 		pop	{r4, lr}
 102              	.LCFI1:
 103              		.cfi_restore 14
 104              		.cfi_restore 4
 105              		.cfi_def_cfa_offset 0
  33:../../source/src/user/OS_LIB/myMicroLIB.c ****     ka_putchar('\n');
 106              		.loc 1 33 0
 107 0032 0A20     		movs	r0, #10
 108 0034 FFF7FEBF 		b	ka_putchar
 109              	.LVL14:
 110              		.cfi_endproc
 111              	.LFE31:
 112              		.size	ka_puts, .-ka_puts
 113              		.align	1
 114              		.p2align 2,,3
 115              		.global	ka_strlen
 116              		.syntax unified
 117              		.thumb
 118              		.thumb_func
 119              		.fpu softvfp
 120              		.type	ka_strlen, %function
 121              	ka_strlen:
 122              	.LFB32:
  35:../../source/src/user/OS_LIB/myMicroLIB.c **** 
  36:../../source/src/user/OS_LIB/myMicroLIB.c **** unsigned int ka_strlen(const char *s)
  37:../../source/src/user/OS_LIB/myMicroLIB.c **** {
 123              		.loc 1 37 0
 124              		.cfi_startproc
 125              		@ args = 0, pretend = 0, frame = 0
 126              		@ frame_needed = 0, uses_anonymous_args = 0
 127              		@ link register save eliminated.
 128              	.LVL15:
  38:../../source/src/user/OS_LIB/myMicroLIB.c **** 	unsigned int num = 0;
  39:../../source/src/user/OS_LIB/myMicroLIB.c **** 	while('\0' != *s++)
ARM GAS  G:\Users\Jaxb\AppData\Local\Temp\cci3ToTS.s 			page 4


 129              		.loc 1 39 0
 130 0038 0178     		ldrb	r1, [r0]	@ zero_extendqisi2
 131 003a 431C     		adds	r3, r0, #1
 132              	.LVL16:
 133 003c 21B1     		cbz	r1, .L14
 134              	.LVL17:
 135              	.L16:
 136 003e 191A     		subs	r1, r3, r0
 137              	.LVL18:
 138 0040 13F8012B 		ldrb	r2, [r3], #1	@ zero_extendqisi2
 139              	.LVL19:
 140 0044 002A     		cmp	r2, #0
 141 0046 FAD1     		bne	.L16
 142              	.LVL20:
 143              	.L14:
  40:../../source/src/user/OS_LIB/myMicroLIB.c **** 	{
  41:../../source/src/user/OS_LIB/myMicroLIB.c **** 		++num;
  42:../../source/src/user/OS_LIB/myMicroLIB.c **** 	}
  43:../../source/src/user/OS_LIB/myMicroLIB.c **** 	return num;
  44:../../source/src/user/OS_LIB/myMicroLIB.c **** }
 144              		.loc 1 44 0
 145 0048 0846     		mov	r0, r1
 146 004a 7047     		bx	lr
 147              		.cfi_endproc
 148              	.LFE32:
 149              		.size	ka_strlen, .-ka_strlen
 150              		.align	1
 151              		.p2align 2,,3
 152              		.global	ka_memcpy
 153              		.syntax unified
 154              		.thumb
 155              		.thumb_func
 156              		.fpu softvfp
 157              		.type	ka_memcpy, %function
 158              	ka_memcpy:
 159              	.LFB33:
  45:../../source/src/user/OS_LIB/myMicroLIB.c **** 
  46:../../source/src/user/OS_LIB/myMicroLIB.c **** void ka_memcpy(void *dest, const void *src, int n)
  47:../../source/src/user/OS_LIB/myMicroLIB.c **** {
 160              		.loc 1 47 0
 161              		.cfi_startproc
 162              		@ args = 0, pretend = 0, frame = 0
 163              		@ frame_needed = 0, uses_anonymous_args = 0
 164              		@ link register save eliminated.
 165              	.LVL21:
  48:../../source/src/user/OS_LIB/myMicroLIB.c **** 	int i;
  49:../../source/src/user/OS_LIB/myMicroLIB.c **** 	int *ptr1 = (int *)dest;
  50:../../source/src/user/OS_LIB/myMicroLIB.c **** 	const int *ptr2 = (const int *)src;
  51:../../source/src/user/OS_LIB/myMicroLIB.c **** 	int num = n>>2;
 166              		.loc 1 51 0
 167 004c 9310     		asrs	r3, r2, #2
 168              	.LVL22:
  52:../../source/src/user/OS_LIB/myMicroLIB.c **** 	for(i=num-1;i>=0;--i)
 169              		.loc 1 52 0
 170 004e 002B     		cmp	r3, #0
  47:../../source/src/user/OS_LIB/myMicroLIB.c **** 	int i;
 171              		.loc 1 47 0
ARM GAS  G:\Users\Jaxb\AppData\Local\Temp\cci3ToTS.s 			page 5


 172 0050 70B4     		push	{r4, r5, r6}
 173              	.LCFI2:
 174              		.cfi_def_cfa_offset 12
 175              		.cfi_offset 4, -12
 176              		.cfi_offset 5, -8
 177              		.cfi_offset 6, -4
 178              		.loc 1 52 0
 179 0052 16DD     		ble	.L24
 180 0054 9E00     		lsls	r6, r3, #2
 181 0056 8C19     		adds	r4, r1, r6
 182 0058 031F     		subs	r3, r0, #4
 183              	.LVL23:
 184              	.L21:
  53:../../source/src/user/OS_LIB/myMicroLIB.c **** 	//while(num--)
  54:../../source/src/user/OS_LIB/myMicroLIB.c **** 	{
  55:../../source/src/user/OS_LIB/myMicroLIB.c **** 		*ptr1++ = *ptr2++; // from low to high
 185              		.loc 1 55 0 discriminator 3
 186 005a 51F8045B 		ldr	r5, [r1], #4
 187              	.LVL24:
  52:../../source/src/user/OS_LIB/myMicroLIB.c **** 	//while(num--)
 188              		.loc 1 52 0 discriminator 3
 189 005e A142     		cmp	r1, r4
 190              		.loc 1 55 0 discriminator 3
 191 0060 43F8045F 		str	r5, [r3, #4]!
 192              	.LVL25:
  52:../../source/src/user/OS_LIB/myMicroLIB.c **** 	//while(num--)
 193              		.loc 1 52 0 discriminator 3
 194 0064 F9D1     		bne	.L21
 195              	.LVL26:
 196 0066 3044     		add	r0, r0, r6
 197              	.LVL27:
 198              	.L20:
  56:../../source/src/user/OS_LIB/myMicroLIB.c **** 	}
  57:../../source/src/user/OS_LIB/myMicroLIB.c **** 	num = n & 3;
  58:../../source/src/user/OS_LIB/myMicroLIB.c **** 	if(num)
 199              		.loc 1 58 0
 200 0068 12F00302 		ands	r2, r2, #3
 201              	.LVL28:
 202 006c 07D0     		beq	.L19
 203              	.LVL29:
 204 006e 0138     		subs	r0, r0, #1
 205              	.LVL30:
 206 0070 2244     		add	r2, r2, r4
 207              	.LVL31:
 208              	.L23:
 209              	.LBB30:
  59:../../source/src/user/OS_LIB/myMicroLIB.c **** 	{
  60:../../source/src/user/OS_LIB/myMicroLIB.c **** 		char *ptr3 = (char *)ptr1;
  61:../../source/src/user/OS_LIB/myMicroLIB.c **** 		const char *ptr4 = (char *)ptr2;
  62:../../source/src/user/OS_LIB/myMicroLIB.c **** 		for(i=num-1;i>=0;--i)
  63:../../source/src/user/OS_LIB/myMicroLIB.c **** 		{
  64:../../source/src/user/OS_LIB/myMicroLIB.c **** 			*ptr3++ = *ptr4++;
 210              		.loc 1 64 0 discriminator 3
 211 0072 14F8013B 		ldrb	r3, [r4], #1	@ zero_extendqisi2
 212              	.LVL32:
  62:../../source/src/user/OS_LIB/myMicroLIB.c **** 		{
 213              		.loc 1 62 0 discriminator 3
ARM GAS  G:\Users\Jaxb\AppData\Local\Temp\cci3ToTS.s 			page 6


 214 0076 9442     		cmp	r4, r2
 215              		.loc 1 64 0 discriminator 3
 216 0078 00F8013F 		strb	r3, [r0, #1]!
 217              	.LVL33:
  62:../../source/src/user/OS_LIB/myMicroLIB.c **** 		{
 218              		.loc 1 62 0 discriminator 3
 219 007c F9D1     		bne	.L23
 220              	.LVL34:
 221              	.L19:
 222              	.LBE30:
  65:../../source/src/user/OS_LIB/myMicroLIB.c **** 		}
  66:../../source/src/user/OS_LIB/myMicroLIB.c **** 	}
  67:../../source/src/user/OS_LIB/myMicroLIB.c **** }
 223              		.loc 1 67 0
 224 007e 70BC     		pop	{r4, r5, r6}
 225              	.LCFI3:
 226              		.cfi_remember_state
 227              		.cfi_restore 6
 228              		.cfi_restore 5
 229              		.cfi_restore 4
 230              		.cfi_def_cfa_offset 0
 231 0080 7047     		bx	lr
 232              	.LVL35:
 233              	.L24:
 234              	.LCFI4:
 235              		.cfi_restore_state
  50:../../source/src/user/OS_LIB/myMicroLIB.c **** 	int num = n>>2;
 236              		.loc 1 50 0
 237 0082 0C46     		mov	r4, r1
 238 0084 F0E7     		b	.L20
 239              		.cfi_endproc
 240              	.LFE33:
 241              		.size	ka_memcpy, .-ka_memcpy
 242              		.global	__aeabi_dcmplt
 243              		.global	__aeabi_d2iz
 244              		.global	__aeabi_i2d
 245              		.global	__aeabi_dsub
 246              		.global	__aeabi_dmul
 247              		.global	__aeabi_ldivmod
 248              		.global	__aeabi_uldivmod
 249              		.align	1
 250 0086 00BF     		.p2align 2,,3
 251              		.global	ka_printf
 252              		.syntax unified
 253              		.thumb
 254              		.thumb_func
 255              		.fpu softvfp
 256              		.type	ka_printf, %function
 257              	ka_printf:
 258              	.LFB34:
  68:../../source/src/user/OS_LIB/myMicroLIB.c **** 
  69:../../source/src/user/OS_LIB/myMicroLIB.c **** 
  70:../../source/src/user/OS_LIB/myMicroLIB.c **** int ka_printf(const char *str,...)
  71:../../source/src/user/OS_LIB/myMicroLIB.c **** {
 259              		.loc 1 71 0
 260              		.cfi_startproc
 261              		@ args = 4, pretend = 16, frame = 8
ARM GAS  G:\Users\Jaxb\AppData\Local\Temp\cci3ToTS.s 			page 7


 262              		@ frame_needed = 0, uses_anonymous_args = 1
 263              	.LVL36:
 264 0088 0FB4     		push	{r0, r1, r2, r3}
 265              	.LCFI5:
 266              		.cfi_def_cfa_offset 16
 267              		.cfi_offset 0, -16
 268              		.cfi_offset 1, -12
 269              		.cfi_offset 2, -8
 270              		.cfi_offset 3, -4
 271 008a 2DE9F04F 		push	{r4, r5, r6, r7, r8, r9, r10, fp, lr}
 272              	.LCFI6:
 273              		.cfi_def_cfa_offset 52
 274              		.cfi_offset 4, -52
 275              		.cfi_offset 5, -48
 276              		.cfi_offset 6, -44
 277              		.cfi_offset 7, -40
 278              		.cfi_offset 8, -36
 279              		.cfi_offset 9, -32
 280              		.cfi_offset 10, -28
 281              		.cfi_offset 11, -24
 282              		.cfi_offset 14, -20
 283 008e 83B0     		sub	sp, sp, #12
 284              	.LCFI7:
 285              		.cfi_def_cfa_offset 64
 286              		.loc 1 71 0
 287 0090 0CAB     		add	r3, sp, #48
 288 0092 53F8044B 		ldr	r4, [r3], #4
  72:../../source/src/user/OS_LIB/myMicroLIB.c **** 	va_list ap;
  73:../../source/src/user/OS_LIB/myMicroLIB.c **** 	int val,r_val;
  74:../../source/src/user/OS_LIB/myMicroLIB.c **** 	double val_f;
  75:../../source/src/user/OS_LIB/myMicroLIB.c **** 	INT64 val_l,r_val_l;
  76:../../source/src/user/OS_LIB/myMicroLIB.c **** 	unsigned int val1,r_val1;
  77:../../source/src/user/OS_LIB/myMicroLIB.c **** 	char count,ch;
  78:../../source/src/user/OS_LIB/myMicroLIB.c **** 	char *s = NULL;
  79:../../source/src/user/OS_LIB/myMicroLIB.c **** 	int res = 0;
  80:../../source/src/user/OS_LIB/myMicroLIB.c **** 	int buffer;
  81:../../source/src/user/OS_LIB/myMicroLIB.c **** 	
  82:../../source/src/user/OS_LIB/myMicroLIB.c **** 	va_start(ap,str);
  83:../../source/src/user/OS_LIB/myMicroLIB.c **** 	while('\0' != *str)
 289              		.loc 1 83 0
 290 0096 2778     		ldrb	r7, [r4]	@ zero_extendqisi2
  82:../../source/src/user/OS_LIB/myMicroLIB.c **** 	while('\0' != *str)
 291              		.loc 1 82 0
 292 0098 0193     		str	r3, [sp, #4]
 293              	.LVL37:
 294              		.loc 1 83 0
 295 009a 002F     		cmp	r7, #0
 296 009c 00F07C82 		beq	.L112
  79:../../source/src/user/OS_LIB/myMicroLIB.c **** 	int buffer;
 297              		.loc 1 79 0
 298 00a0 0026     		movs	r6, #0
 299              	.LVL38:
 300              	.L104:
  84:../../source/src/user/OS_LIB/myMicroLIB.c **** 	{
  85:../../source/src/user/OS_LIB/myMicroLIB.c **** 		switch(*str)  
 301              		.loc 1 85 0
 302 00a2 0A2F     		cmp	r7, #10
ARM GAS  G:\Users\Jaxb\AppData\Local\Temp\cci3ToTS.s 			page 8


 303 00a4 04F10105 		add	r5, r4, #1
 304 00a8 5DD0     		beq	.L33
 305 00aa 252F     		cmp	r7, #37
 306 00ac 6ED1     		bne	.L173
 307              	.LVL39:
  86:../../source/src/user/OS_LIB/myMicroLIB.c **** 	    { 
  87:../../source/src/user/OS_LIB/myMicroLIB.c **** 			case '%':
  88:../../source/src/user/OS_LIB/myMicroLIB.c **** 				str++;
  89:../../source/src/user/OS_LIB/myMicroLIB.c **** 				switch(*str)  
 308              		.loc 1 89 0
 309 00ae 6378     		ldrb	r3, [r4, #1]	@ zero_extendqisi2
 310 00b0 0234     		adds	r4, r4, #2
 311 00b2 253B     		subs	r3, r3, #37
 312 00b4 532B     		cmp	r3, #83
 313 00b6 00F26282 		bhi	.L35
 314 00ba DFE813F0 		tbh	[pc, r3, lsl #1]
 315              	.L37:
 316 00be 7C00     		.2byte	(.L36-.L37)/2
 317 00c0 6002     		.2byte	(.L35-.L37)/2
 318 00c2 6002     		.2byte	(.L35-.L37)/2
 319 00c4 6002     		.2byte	(.L35-.L37)/2
 320 00c6 6002     		.2byte	(.L35-.L37)/2
 321 00c8 6002     		.2byte	(.L35-.L37)/2
 322 00ca 6002     		.2byte	(.L35-.L37)/2
 323 00cc 6002     		.2byte	(.L35-.L37)/2
 324 00ce 6002     		.2byte	(.L35-.L37)/2
 325 00d0 6002     		.2byte	(.L35-.L37)/2
 326 00d2 6002     		.2byte	(.L35-.L37)/2
 327 00d4 6002     		.2byte	(.L35-.L37)/2
 328 00d6 6002     		.2byte	(.L35-.L37)/2
 329 00d8 6002     		.2byte	(.L35-.L37)/2
 330 00da 6002     		.2byte	(.L35-.L37)/2
 331 00dc 6002     		.2byte	(.L35-.L37)/2
 332 00de 6002     		.2byte	(.L35-.L37)/2
 333 00e0 6002     		.2byte	(.L35-.L37)/2
 334 00e2 6002     		.2byte	(.L35-.L37)/2
 335 00e4 6002     		.2byte	(.L35-.L37)/2
 336 00e6 6002     		.2byte	(.L35-.L37)/2
 337 00e8 6002     		.2byte	(.L35-.L37)/2
 338 00ea 6002     		.2byte	(.L35-.L37)/2
 339 00ec 6002     		.2byte	(.L35-.L37)/2
 340 00ee 6002     		.2byte	(.L35-.L37)/2
 341 00f0 6002     		.2byte	(.L35-.L37)/2
 342 00f2 6002     		.2byte	(.L35-.L37)/2
 343 00f4 6002     		.2byte	(.L35-.L37)/2
 344 00f6 6002     		.2byte	(.L35-.L37)/2
 345 00f8 6002     		.2byte	(.L35-.L37)/2
 346 00fa 6002     		.2byte	(.L35-.L37)/2
 347 00fc 6002     		.2byte	(.L35-.L37)/2
 348 00fe 6002     		.2byte	(.L35-.L37)/2
 349 0100 6002     		.2byte	(.L35-.L37)/2
 350 0102 6002     		.2byte	(.L35-.L37)/2
 351 0104 6002     		.2byte	(.L35-.L37)/2
 352 0106 6002     		.2byte	(.L35-.L37)/2
 353 0108 6002     		.2byte	(.L35-.L37)/2
 354 010a 6002     		.2byte	(.L35-.L37)/2
 355 010c 6002     		.2byte	(.L35-.L37)/2
ARM GAS  G:\Users\Jaxb\AppData\Local\Temp\cci3ToTS.s 			page 9


 356 010e 6002     		.2byte	(.L35-.L37)/2
 357 0110 6002     		.2byte	(.L35-.L37)/2
 358 0112 6002     		.2byte	(.L35-.L37)/2
 359 0114 6002     		.2byte	(.L35-.L37)/2
 360 0116 6002     		.2byte	(.L35-.L37)/2
 361 0118 6002     		.2byte	(.L35-.L37)/2
 362 011a 6002     		.2byte	(.L35-.L37)/2
 363 011c 6002     		.2byte	(.L35-.L37)/2
 364 011e 6002     		.2byte	(.L35-.L37)/2
 365 0120 6002     		.2byte	(.L35-.L37)/2
 366 0122 6002     		.2byte	(.L35-.L37)/2
 367 0124 6002     		.2byte	(.L35-.L37)/2
 368 0126 6002     		.2byte	(.L35-.L37)/2
 369 0128 6002     		.2byte	(.L35-.L37)/2
 370 012a 6002     		.2byte	(.L35-.L37)/2
 371 012c 6002     		.2byte	(.L35-.L37)/2
 372 012e 6002     		.2byte	(.L35-.L37)/2
 373 0130 6002     		.2byte	(.L35-.L37)/2
 374 0132 6002     		.2byte	(.L35-.L37)/2
 375 0134 6002     		.2byte	(.L35-.L37)/2
 376 0136 6002     		.2byte	(.L35-.L37)/2
 377 0138 6002     		.2byte	(.L35-.L37)/2
 378 013a C601     		.2byte	(.L38-.L37)/2
 379 013c 4E01     		.2byte	(.L39-.L37)/2
 380 013e 6002     		.2byte	(.L35-.L37)/2
 381 0140 CE01     		.2byte	(.L40-.L37)/2
 382 0142 6002     		.2byte	(.L35-.L37)/2
 383 0144 6002     		.2byte	(.L35-.L37)/2
 384 0146 6002     		.2byte	(.L35-.L37)/2
 385 0148 6002     		.2byte	(.L35-.L37)/2
 386 014a 6002     		.2byte	(.L35-.L37)/2
 387 014c 8100     		.2byte	(.L41-.L37)/2
 388 014e 6002     		.2byte	(.L35-.L37)/2
 389 0150 6002     		.2byte	(.L35-.L37)/2
 390 0152 6002     		.2byte	(.L35-.L37)/2
 391 0154 D500     		.2byte	(.L42-.L37)/2
 392 0156 6002     		.2byte	(.L35-.L37)/2
 393 0158 6002     		.2byte	(.L35-.L37)/2
 394 015a 2E01     		.2byte	(.L43-.L37)/2
 395 015c 6002     		.2byte	(.L35-.L37)/2
 396 015e 8C01     		.2byte	(.L44-.L37)/2
 397 0160 6002     		.2byte	(.L35-.L37)/2
 398 0162 6002     		.2byte	(.L35-.L37)/2
 399 0164 6F00     		.2byte	(.L45-.L37)/2
 400              	.LVL40:
 401              		.p2align 1
 402              	.L33:
  90:../../source/src/user/OS_LIB/myMicroLIB.c **** 				{
  91:../../source/src/user/OS_LIB/myMicroLIB.c **** 				 	case 'd': // decimal
  92:../../source/src/user/OS_LIB/myMicroLIB.c **** 				 		val = va_arg(ap, int); 
  93:../../source/src/user/OS_LIB/myMicroLIB.c **** 				 		if(0 == val) 
  94:../../source/src/user/OS_LIB/myMicroLIB.c **** 				 		{
  95:../../source/src/user/OS_LIB/myMicroLIB.c **** 				 			ka_putchar('0');
  96:../../source/src/user/OS_LIB/myMicroLIB.c **** 				 			break;
  97:../../source/src/user/OS_LIB/myMicroLIB.c **** 				 		}
  98:../../source/src/user/OS_LIB/myMicroLIB.c **** 						if(val < 0)
  99:../../source/src/user/OS_LIB/myMicroLIB.c **** 						{
ARM GAS  G:\Users\Jaxb\AppData\Local\Temp\cci3ToTS.s 			page 10


 100:../../source/src/user/OS_LIB/myMicroLIB.c **** 							ka_putchar('-');
 101:../../source/src/user/OS_LIB/myMicroLIB.c **** 							val = -val;
 102:../../source/src/user/OS_LIB/myMicroLIB.c **** 						}
 103:../../source/src/user/OS_LIB/myMicroLIB.c **** 	                    r_val = val;   
 104:../../source/src/user/OS_LIB/myMicroLIB.c **** 	                    count = 0;
 105:../../source/src/user/OS_LIB/myMicroLIB.c **** 	                    while(r_val)
 106:../../source/src/user/OS_LIB/myMicroLIB.c **** 	                    {   
 107:../../source/src/user/OS_LIB/myMicroLIB.c **** 	                         count++;
 108:../../source/src/user/OS_LIB/myMicroLIB.c **** 	                         r_val /= 10;  
 109:../../source/src/user/OS_LIB/myMicroLIB.c **** 	                    } 
 110:../../source/src/user/OS_LIB/myMicroLIB.c **** 	                    res += count; 
 111:../../source/src/user/OS_LIB/myMicroLIB.c **** 	                    r_val = val;  
 112:../../source/src/user/OS_LIB/myMicroLIB.c **** 	                    while(count)  
 113:../../source/src/user/OS_LIB/myMicroLIB.c **** 	                    {   
 114:../../source/src/user/OS_LIB/myMicroLIB.c **** 	                          ch = r_val / ka_pow(10,count - 1);  
 115:../../source/src/user/OS_LIB/myMicroLIB.c **** 	                          r_val %= ka_pow(10,count - 1); 
 116:../../source/src/user/OS_LIB/myMicroLIB.c **** 	                          ka_putchar(ch + '0');
 117:../../source/src/user/OS_LIB/myMicroLIB.c **** 	                          count--;  
 118:../../source/src/user/OS_LIB/myMicroLIB.c **** 	                    }  
 119:../../source/src/user/OS_LIB/myMicroLIB.c **** 	                    break; 
 120:../../source/src/user/OS_LIB/myMicroLIB.c **** 
 121:../../source/src/user/OS_LIB/myMicroLIB.c **** 	                case 'f': //float
 122:../../source/src/user/OS_LIB/myMicroLIB.c **** 	                	val_f = va_arg(ap, double);
 123:../../source/src/user/OS_LIB/myMicroLIB.c **** 	                	if(val_f < 0)
 124:../../source/src/user/OS_LIB/myMicroLIB.c **** 	                	{
 125:../../source/src/user/OS_LIB/myMicroLIB.c **** 	                		ka_putchar('-');
 126:../../source/src/user/OS_LIB/myMicroLIB.c **** 	                		val_f = -val_f;
 127:../../source/src/user/OS_LIB/myMicroLIB.c **** 	                	}
 128:../../source/src/user/OS_LIB/myMicroLIB.c **** 	                	val = (int)val_f;
 129:../../source/src/user/OS_LIB/myMicroLIB.c **** 	                	val_f -= val;
 130:../../source/src/user/OS_LIB/myMicroLIB.c **** 	                	if(0 == val) 
 131:../../source/src/user/OS_LIB/myMicroLIB.c **** 				 		{
 132:../../source/src/user/OS_LIB/myMicroLIB.c **** 				 			ka_putchar('0');
 133:../../source/src/user/OS_LIB/myMicroLIB.c **** 				 		} 
 134:../../source/src/user/OS_LIB/myMicroLIB.c **** 				 		r_val = val;   
 135:../../source/src/user/OS_LIB/myMicroLIB.c **** 	                    count = 0;
 136:../../source/src/user/OS_LIB/myMicroLIB.c **** 	                    while(r_val)
 137:../../source/src/user/OS_LIB/myMicroLIB.c **** 	                    {   
 138:../../source/src/user/OS_LIB/myMicroLIB.c **** 	                         count++;
 139:../../source/src/user/OS_LIB/myMicroLIB.c **** 	                         r_val /= 10;  
 140:../../source/src/user/OS_LIB/myMicroLIB.c **** 	                    } 
 141:../../source/src/user/OS_LIB/myMicroLIB.c **** 	                    res += count; 
 142:../../source/src/user/OS_LIB/myMicroLIB.c **** 	                    r_val = val;  
 143:../../source/src/user/OS_LIB/myMicroLIB.c **** 	                    while(count)  
 144:../../source/src/user/OS_LIB/myMicroLIB.c **** 	                    {   
 145:../../source/src/user/OS_LIB/myMicroLIB.c **** 	                          ch = r_val / ka_pow(10,count - 1);  
 146:../../source/src/user/OS_LIB/myMicroLIB.c **** 	                          r_val %= ka_pow(10,count - 1); 
 147:../../source/src/user/OS_LIB/myMicroLIB.c **** 	                          ka_putchar(ch + '0');
 148:../../source/src/user/OS_LIB/myMicroLIB.c **** 	                          count--;  
 149:../../source/src/user/OS_LIB/myMicroLIB.c **** 	                    }
 150:../../source/src/user/OS_LIB/myMicroLIB.c **** 	                    // the upper is integer part
 151:../../source/src/user/OS_LIB/myMicroLIB.c **** 	                    ka_putchar('.');
 152:../../source/src/user/OS_LIB/myMicroLIB.c **** 	                    //the following is decimal part
 153:../../source/src/user/OS_LIB/myMicroLIB.c **** 	                    count = 6+1;
 154:../../source/src/user/OS_LIB/myMicroLIB.c **** 	                    while(--count)
 155:../../source/src/user/OS_LIB/myMicroLIB.c **** 	                    {
 156:../../source/src/user/OS_LIB/myMicroLIB.c **** 	                    	val_f *= 10;
ARM GAS  G:\Users\Jaxb\AppData\Local\Temp\cci3ToTS.s 			page 11


 157:../../source/src/user/OS_LIB/myMicroLIB.c **** 	                    	val = (int)val_f;
 158:../../source/src/user/OS_LIB/myMicroLIB.c **** 	                    	ASSERT(val<10 && val>-10);
 159:../../source/src/user/OS_LIB/myMicroLIB.c **** 	                    	ka_putchar(val + '0');
 160:../../source/src/user/OS_LIB/myMicroLIB.c **** 							val_f -= val;
 161:../../source/src/user/OS_LIB/myMicroLIB.c **** 	                    }
 162:../../source/src/user/OS_LIB/myMicroLIB.c **** 	                    break ;
 163:../../source/src/user/OS_LIB/myMicroLIB.c **** 
 164:../../source/src/user/OS_LIB/myMicroLIB.c **** 	                case 'l': // decimal
 165:../../source/src/user/OS_LIB/myMicroLIB.c **** 				 		val_l = va_arg(ap, INT64); 
 166:../../source/src/user/OS_LIB/myMicroLIB.c **** 				 		if(0 == val_l) 
 167:../../source/src/user/OS_LIB/myMicroLIB.c **** 				 		{
 168:../../source/src/user/OS_LIB/myMicroLIB.c **** 				 			ka_putchar('0');
 169:../../source/src/user/OS_LIB/myMicroLIB.c **** 				 			break;
 170:../../source/src/user/OS_LIB/myMicroLIB.c **** 				 		} 
 171:../../source/src/user/OS_LIB/myMicroLIB.c **** 				 		if(val_l < 0)
 172:../../source/src/user/OS_LIB/myMicroLIB.c **** 				 		{
 173:../../source/src/user/OS_LIB/myMicroLIB.c **** 				 			val_l = -val_l;
 174:../../source/src/user/OS_LIB/myMicroLIB.c **** 				 			ka_putchar('-');
 175:../../source/src/user/OS_LIB/myMicroLIB.c **** 				 		}
 176:../../source/src/user/OS_LIB/myMicroLIB.c **** 	                    r_val_l = val_l;   
 177:../../source/src/user/OS_LIB/myMicroLIB.c **** 	                    count = 0;
 178:../../source/src/user/OS_LIB/myMicroLIB.c **** 	                    while(r_val_l)
 179:../../source/src/user/OS_LIB/myMicroLIB.c **** 	                    {   
 180:../../source/src/user/OS_LIB/myMicroLIB.c **** 	                         count++;
 181:../../source/src/user/OS_LIB/myMicroLIB.c **** 	                         r_val_l /= 10;  
 182:../../source/src/user/OS_LIB/myMicroLIB.c **** 	                    } 
 183:../../source/src/user/OS_LIB/myMicroLIB.c **** 	                    res += count; 
 184:../../source/src/user/OS_LIB/myMicroLIB.c **** 	                    r_val_l = val_l;  
 185:../../source/src/user/OS_LIB/myMicroLIB.c **** 	                    while(count)  
 186:../../source/src/user/OS_LIB/myMicroLIB.c **** 	                    {   
 187:../../source/src/user/OS_LIB/myMicroLIB.c **** 	                          ch = r_val_l / ka_pow(10,count - 1);  
 188:../../source/src/user/OS_LIB/myMicroLIB.c **** 	                          r_val_l %= ka_pow(10,count - 1); 
 189:../../source/src/user/OS_LIB/myMicroLIB.c **** 	                          ka_putchar(ch + '0');
 190:../../source/src/user/OS_LIB/myMicroLIB.c **** 	                          count--;  
 191:../../source/src/user/OS_LIB/myMicroLIB.c **** 	                    }  
 192:../../source/src/user/OS_LIB/myMicroLIB.c **** 	                    break; 
 193:../../source/src/user/OS_LIB/myMicroLIB.c **** 
 194:../../source/src/user/OS_LIB/myMicroLIB.c **** 	                case 'u': // decimal
 195:../../source/src/user/OS_LIB/myMicroLIB.c **** 				 		val1 = va_arg(ap,unsigned int);  
 196:../../source/src/user/OS_LIB/myMicroLIB.c **** 				 		if(0 == val1) 
 197:../../source/src/user/OS_LIB/myMicroLIB.c **** 				 		{
 198:../../source/src/user/OS_LIB/myMicroLIB.c **** 				 			ka_putchar('0');
 199:../../source/src/user/OS_LIB/myMicroLIB.c **** 				 			break;
 200:../../source/src/user/OS_LIB/myMicroLIB.c **** 				 		} 
 201:../../source/src/user/OS_LIB/myMicroLIB.c **** 	                    r_val1 = val1;   
 202:../../source/src/user/OS_LIB/myMicroLIB.c **** 	                    count = 0;
 203:../../source/src/user/OS_LIB/myMicroLIB.c **** 	                    while(r_val1)
 204:../../source/src/user/OS_LIB/myMicroLIB.c **** 	                    {   
 205:../../source/src/user/OS_LIB/myMicroLIB.c **** 	                         count++;
 206:../../source/src/user/OS_LIB/myMicroLIB.c **** 	                         r_val1 /= 10;  
 207:../../source/src/user/OS_LIB/myMicroLIB.c **** 	                    } 
 208:../../source/src/user/OS_LIB/myMicroLIB.c **** 	                    res += count; 
 209:../../source/src/user/OS_LIB/myMicroLIB.c **** 	                    r_val1 = val1;  
 210:../../source/src/user/OS_LIB/myMicroLIB.c **** 	                    while(count)  
 211:../../source/src/user/OS_LIB/myMicroLIB.c **** 	                    {   
 212:../../source/src/user/OS_LIB/myMicroLIB.c **** 	                          ch = r_val1 / ka_pow(10,count - 1);  
 213:../../source/src/user/OS_LIB/myMicroLIB.c **** 	                          r_val1 %= ka_pow(10,count - 1); 
ARM GAS  G:\Users\Jaxb\AppData\Local\Temp\cci3ToTS.s 			page 12


 214:../../source/src/user/OS_LIB/myMicroLIB.c **** 	                          ka_putchar(ch + '0');
 215:../../source/src/user/OS_LIB/myMicroLIB.c **** 	                          count--;  
 216:../../source/src/user/OS_LIB/myMicroLIB.c **** 	                    }  
 217:../../source/src/user/OS_LIB/myMicroLIB.c **** 	                    break; 
 218:../../source/src/user/OS_LIB/myMicroLIB.c **** 
 219:../../source/src/user/OS_LIB/myMicroLIB.c **** 
 220:../../source/src/user/OS_LIB/myMicroLIB.c **** 	                case 'x': // hexadecimal
 221:../../source/src/user/OS_LIB/myMicroLIB.c **** 	                 	val = va_arg(ap, int); 
 222:../../source/src/user/OS_LIB/myMicroLIB.c **** 	                 	if(0 == val) 
 223:../../source/src/user/OS_LIB/myMicroLIB.c **** 				 		{
 224:../../source/src/user/OS_LIB/myMicroLIB.c **** 				 			ka_puts("0x00");
 225:../../source/src/user/OS_LIB/myMicroLIB.c **** 				 			break;
 226:../../source/src/user/OS_LIB/myMicroLIB.c **** 				 		} 
 227:../../source/src/user/OS_LIB/myMicroLIB.c **** 	                    r_val = val;   
 228:../../source/src/user/OS_LIB/myMicroLIB.c **** 	                    count = 0;  
 229:../../source/src/user/OS_LIB/myMicroLIB.c **** 	                    while(r_val)  
 230:../../source/src/user/OS_LIB/myMicroLIB.c **** 	                    {   
 231:../../source/src/user/OS_LIB/myMicroLIB.c **** 	                         count++; //整数的长度   
 232:../../source/src/user/OS_LIB/myMicroLIB.c **** 	                         r_val /= 16;   
 233:../../source/src/user/OS_LIB/myMicroLIB.c **** 	                    }
 234:../../source/src/user/OS_LIB/myMicroLIB.c **** 	                    res += count;//返回值长度增加​   
 235:../../source/src/user/OS_LIB/myMicroLIB.c **** 	                    r_val = val; 
 236:../../source/src/user/OS_LIB/myMicroLIB.c **** 						ka_putchar('0');
 237:../../source/src/user/OS_LIB/myMicroLIB.c **** 	                    ka_putchar('x');
 238:../../source/src/user/OS_LIB/myMicroLIB.c **** 	                    while(count)   
 239:../../source/src/user/OS_LIB/myMicroLIB.c **** 	                    {   
 240:../../source/src/user/OS_LIB/myMicroLIB.c **** 	                        ch = r_val / ka_pow(16, count - 1);   
 241:../../source/src/user/OS_LIB/myMicroLIB.c **** 	                        r_val %= ka_pow(16, count - 1);  
 242:../../source/src/user/OS_LIB/myMicroLIB.c **** 	                        if(ch <= 9) 
 243:../../source/src/user/OS_LIB/myMicroLIB.c **** 	                            ka_putchar(ch + '0');
 244:../../source/src/user/OS_LIB/myMicroLIB.c **** 	                        else   
 245:../../source/src/user/OS_LIB/myMicroLIB.c **** 	                            ka_putchar(ch - 10 + 'a');
 246:../../source/src/user/OS_LIB/myMicroLIB.c **** 	                        count--;  
 247:../../source/src/user/OS_LIB/myMicroLIB.c **** 	                    }
 248:../../source/src/user/OS_LIB/myMicroLIB.c **** 	                    break;
 249:../../source/src/user/OS_LIB/myMicroLIB.c **** 
 250:../../source/src/user/OS_LIB/myMicroLIB.c **** 
 251:../../source/src/user/OS_LIB/myMicroLIB.c **** 	                case 's': // string
 252:../../source/src/user/OS_LIB/myMicroLIB.c **** 	                    s = va_arg(ap, char *);   
 253:../../source/src/user/OS_LIB/myMicroLIB.c **** 	                    m_putstr(s);  
 254:../../source/src/user/OS_LIB/myMicroLIB.c **** 	                    res += ka_strlen(s);  
 255:../../source/src/user/OS_LIB/myMicroLIB.c **** 	                  	break;
 256:../../source/src/user/OS_LIB/myMicroLIB.c **** 
 257:../../source/src/user/OS_LIB/myMicroLIB.c **** 
 258:../../source/src/user/OS_LIB/myMicroLIB.c **** 	                case 'c': // char 
 259:../../source/src/user/OS_LIB/myMicroLIB.c **** 	                    ka_putchar( (char)va_arg(ap, int )); 
 260:../../source/src/user/OS_LIB/myMicroLIB.c **** 	                    res += 1;  
 261:../../source/src/user/OS_LIB/myMicroLIB.c **** 	                    break; 
 262:../../source/src/user/OS_LIB/myMicroLIB.c **** 
 263:../../source/src/user/OS_LIB/myMicroLIB.c **** 	                case '%':
 264:../../source/src/user/OS_LIB/myMicroLIB.c **** 	                	ka_putchar('%');
 265:../../source/src/user/OS_LIB/myMicroLIB.c **** 	                	res += 1;  
 266:../../source/src/user/OS_LIB/myMicroLIB.c **** 	                    break;
 267:../../source/src/user/OS_LIB/myMicroLIB.c **** 
 268:../../source/src/user/OS_LIB/myMicroLIB.c **** 	                case 'p': //pointer
 269:../../source/src/user/OS_LIB/myMicroLIB.c **** 	                	val = va_arg(ap, int);   
 270:../../source/src/user/OS_LIB/myMicroLIB.c **** 	                    r_val = val;   
ARM GAS  G:\Users\Jaxb\AppData\Local\Temp\cci3ToTS.s 			page 13


 271:../../source/src/user/OS_LIB/myMicroLIB.c **** 	                    count = 0;  
 272:../../source/src/user/OS_LIB/myMicroLIB.c **** 	                    while(r_val)  
 273:../../source/src/user/OS_LIB/myMicroLIB.c **** 	                    {   
 274:../../source/src/user/OS_LIB/myMicroLIB.c **** 	                         count++; //整数的长度   
 275:../../source/src/user/OS_LIB/myMicroLIB.c **** 	                         r_val /= 16;   
 276:../../source/src/user/OS_LIB/myMicroLIB.c **** 	                    }
 277:../../source/src/user/OS_LIB/myMicroLIB.c **** 	                    res += count;//返回值长度增加​   
 278:../../source/src/user/OS_LIB/myMicroLIB.c **** 	                    r_val = val;
 279:../../source/src/user/OS_LIB/myMicroLIB.c **** 	                    ka_putchar('0');
 280:../../source/src/user/OS_LIB/myMicroLIB.c **** 	                    ka_putchar('x');
 281:../../source/src/user/OS_LIB/myMicroLIB.c **** 	                    buffer = 8-count;
 282:../../source/src/user/OS_LIB/myMicroLIB.c **** 	                    while(buffer--)
 283:../../source/src/user/OS_LIB/myMicroLIB.c **** 	                    {
 284:../../source/src/user/OS_LIB/myMicroLIB.c **** 	                    	ka_putchar('0');
 285:../../source/src/user/OS_LIB/myMicroLIB.c **** 	                    }
 286:../../source/src/user/OS_LIB/myMicroLIB.c **** 	                    while(count)   
 287:../../source/src/user/OS_LIB/myMicroLIB.c **** 	                    {   
 288:../../source/src/user/OS_LIB/myMicroLIB.c **** 	                        ch = r_val / ka_pow(16, count - 1);   
 289:../../source/src/user/OS_LIB/myMicroLIB.c **** 	                        r_val %= ka_pow(16, count - 1);  
 290:../../source/src/user/OS_LIB/myMicroLIB.c **** 	                        if(ch <= 9) 
 291:../../source/src/user/OS_LIB/myMicroLIB.c **** 	                            ka_putchar(ch + '0');
 292:../../source/src/user/OS_LIB/myMicroLIB.c **** 	                        else   
 293:../../source/src/user/OS_LIB/myMicroLIB.c **** 	                            ka_putchar(ch - 10 + 'a');
 294:../../source/src/user/OS_LIB/myMicroLIB.c **** 	                        count--;  
 295:../../source/src/user/OS_LIB/myMicroLIB.c **** 	                    }
 296:../../source/src/user/OS_LIB/myMicroLIB.c **** 	                    break;
 297:../../source/src/user/OS_LIB/myMicroLIB.c **** 
 298:../../source/src/user/OS_LIB/myMicroLIB.c **** 	                default :
 299:../../source/src/user/OS_LIB/myMicroLIB.c **** 	                	ASSERT(0);
 300:../../source/src/user/OS_LIB/myMicroLIB.c **** 	                    	;
 301:../../source/src/user/OS_LIB/myMicroLIB.c **** 				}
 302:../../source/src/user/OS_LIB/myMicroLIB.c **** 				break ;
 303:../../source/src/user/OS_LIB/myMicroLIB.c **** 
 304:../../source/src/user/OS_LIB/myMicroLIB.c **** 			case '\n':  
 305:../../source/src/user/OS_LIB/myMicroLIB.c **** 					ka_putchar('\r');
 403              		.loc 1 305 0
 404 0166 0D20     		movs	r0, #13
 405 0168 FFF7FEFF 		bl	ka_putchar
 406              	.LVL41:
 306:../../source/src/user/OS_LIB/myMicroLIB.c **** 	                ka_putchar('\n');   
 407              		.loc 1 306 0
 408 016c 3846     		mov	r0, r7
 409 016e FFF7FEFF 		bl	ka_putchar
 410              	.LVL42:
 307:../../source/src/user/OS_LIB/myMicroLIB.c **** 	                res += 1;
 308:../../source/src/user/OS_LIB/myMicroLIB.c **** 	                break;
 411              		.loc 1 308 0
 412 0172 2B46     		mov	r3, r5
 413 0174 2546     		mov	r5, r4
 414 0176 1C46     		mov	r4, r3
 415              	.LVL43:
 307:../../source/src/user/OS_LIB/myMicroLIB.c **** 	                res += 1;
 416              		.loc 1 307 0
 417 0178 0136     		adds	r6, r6, #1
 418              	.LVL44:
 419              	.L47:
  83:../../source/src/user/OS_LIB/myMicroLIB.c **** 	{
ARM GAS  G:\Users\Jaxb\AppData\Local\Temp\cci3ToTS.s 			page 14


 420              		.loc 1 83 0
 421 017a 6F78     		ldrb	r7, [r5, #1]	@ zero_extendqisi2
 422 017c 002F     		cmp	r7, #0
 423 017e 90D1     		bne	.L104
 424              	.LVL45:
 425              	.L30:
 309:../../source/src/user/OS_LIB/myMicroLIB.c **** 
 310:../../source/src/user/OS_LIB/myMicroLIB.c **** 	        default :
 311:../../source/src/user/OS_LIB/myMicroLIB.c **** 	            	ka_putchar(*str);
 312:../../source/src/user/OS_LIB/myMicroLIB.c **** 	            	res += 1;
 313:../../source/src/user/OS_LIB/myMicroLIB.c **** 		}
 314:../../source/src/user/OS_LIB/myMicroLIB.c **** 		++str;
 315:../../source/src/user/OS_LIB/myMicroLIB.c **** 	}
 316:../../source/src/user/OS_LIB/myMicroLIB.c **** 	va_end(ap);  
 317:../../source/src/user/OS_LIB/myMicroLIB.c ****     return res;	
 318:../../source/src/user/OS_LIB/myMicroLIB.c **** 
 319:../../source/src/user/OS_LIB/myMicroLIB.c **** }
 426              		.loc 1 319 0
 427 0180 3046     		mov	r0, r6
 428 0182 03B0     		add	sp, sp, #12
 429              	.LCFI8:
 430              		.cfi_remember_state
 431              		.cfi_def_cfa_offset 52
 432              		@ sp needed
 433 0184 BDE8F04F 		pop	{r4, r5, r6, r7, r8, r9, r10, fp, lr}
 434              	.LCFI9:
 435              		.cfi_restore 14
 436              		.cfi_restore 11
 437              		.cfi_restore 10
 438              		.cfi_restore 9
 439              		.cfi_restore 8
 440              		.cfi_restore 7
 441              		.cfi_restore 6
 442              		.cfi_restore 5
 443              		.cfi_restore 4
 444              		.cfi_def_cfa_offset 16
 445 0188 04B0     		add	sp, sp, #16
 446              	.LCFI10:
 447              		.cfi_restore 3
 448              		.cfi_restore 2
 449              		.cfi_restore 1
 450              		.cfi_restore 0
 451              		.cfi_def_cfa_offset 0
 452 018a 7047     		bx	lr
 453              	.LVL46:
 454              	.L173:
 455              	.LCFI11:
 456              		.cfi_restore_state
 311:../../source/src/user/OS_LIB/myMicroLIB.c **** 	            	res += 1;
 457              		.loc 1 311 0
 458 018c 3846     		mov	r0, r7
 459 018e FFF7FEFF 		bl	ka_putchar
 460              	.LVL47:
 312:../../source/src/user/OS_LIB/myMicroLIB.c **** 		}
 461              		.loc 1 312 0
 462 0192 2B46     		mov	r3, r5
 463 0194 0136     		adds	r6, r6, #1
ARM GAS  G:\Users\Jaxb\AppData\Local\Temp\cci3ToTS.s 			page 15


 464              	.LVL48:
 465 0196 2546     		mov	r5, r4
 466 0198 1C46     		mov	r4, r3
 467              	.LVL49:
 468 019a EEE7     		b	.L47
 469              	.L45:
 221:../../source/src/user/OS_LIB/myMicroLIB.c **** 	                 	if(0 == val) 
 470              		.loc 1 221 0
 471 019c 019B     		ldr	r3, [sp, #4]
 472 019e D3F80080 		ldr	r8, [r3]
 473 01a2 0433     		adds	r3, r3, #4
 474 01a4 0193     		str	r3, [sp, #4]
 222:../../source/src/user/OS_LIB/myMicroLIB.c **** 				 		{
 475              		.loc 1 222 0
 476 01a6 B8F1000F 		cmp	r8, #0
 477 01aa 40F0F781 		bne	.L116
 224:../../source/src/user/OS_LIB/myMicroLIB.c **** 				 			break;
 478              		.loc 1 224 0
 479 01ae BF48     		ldr	r0, .L187
 480 01b0 FFF7FEFF 		bl	ka_puts
 481              	.LVL50:
 225:../../source/src/user/OS_LIB/myMicroLIB.c **** 				 		} 
 482              		.loc 1 225 0
 483 01b4 E1E7     		b	.L47
 484              	.L36:
 264:../../source/src/user/OS_LIB/myMicroLIB.c **** 	                	res += 1;  
 485              		.loc 1 264 0
 486 01b6 2520     		movs	r0, #37
 265:../../source/src/user/OS_LIB/myMicroLIB.c **** 	                    break;
 487              		.loc 1 265 0
 488 01b8 0136     		adds	r6, r6, #1
 489              	.LVL51:
 264:../../source/src/user/OS_LIB/myMicroLIB.c **** 	                	res += 1;  
 490              		.loc 1 264 0
 491 01ba FFF7FEFF 		bl	ka_putchar
 492              	.LVL52:
 266:../../source/src/user/OS_LIB/myMicroLIB.c **** 
 493              		.loc 1 266 0
 494 01be DCE7     		b	.L47
 495              	.L41:
 165:../../source/src/user/OS_LIB/myMicroLIB.c **** 				 		if(0 == val_l) 
 496              		.loc 1 165 0
 497 01c0 019B     		ldr	r3, [sp, #4]
 498 01c2 0733     		adds	r3, r3, #7
 499 01c4 23F00703 		bic	r3, r3, #7
 500 01c8 03F10802 		add	r2, r3, #8
 501 01cc D3E90089 		ldrd	r8, [r3]
 166:../../source/src/user/OS_LIB/myMicroLIB.c **** 				 		{
 502              		.loc 1 166 0
 503 01d0 58EA0903 		orrs	r3, r8, r9
 165:../../source/src/user/OS_LIB/myMicroLIB.c **** 				 		if(0 == val_l) 
 504              		.loc 1 165 0
 505 01d4 0192     		str	r2, [sp, #4]
 166:../../source/src/user/OS_LIB/myMicroLIB.c **** 				 		{
 506              		.loc 1 166 0
 507 01d6 00F0D881 		beq	.L180
 171:../../source/src/user/OS_LIB/myMicroLIB.c **** 				 		{
ARM GAS  G:\Users\Jaxb\AppData\Local\Temp\cci3ToTS.s 			page 16


 508              		.loc 1 171 0
 509 01da B8F1000F 		cmp	r8, #0
 510 01de 79F10003 		sbcs	r3, r9, #0
 511 01e2 C0F24282 		blt	.L182
 512              	.L67:
 513              	.LVL53:
 176:../../source/src/user/OS_LIB/myMicroLIB.c **** 	                    count = 0;
 514              		.loc 1 176 0
 515 01e6 4046     		mov	r0, r8
 516 01e8 4946     		mov	r1, r9
 177:../../source/src/user/OS_LIB/myMicroLIB.c **** 	                    while(r_val_l)
 517              		.loc 1 177 0
 518 01ea 4FF0000A 		mov	r10, #0
 519              	.LVL54:
 520              	.L68:
 181:../../source/src/user/OS_LIB/myMicroLIB.c **** 	                    } 
 521              		.loc 1 181 0
 522 01ee 0023     		movs	r3, #0
 523 01f0 0A22     		movs	r2, #10
 524 01f2 FFF7FEFF 		bl	__aeabi_ldivmod
 525              	.LVL55:
 180:../../source/src/user/OS_LIB/myMicroLIB.c **** 	                         r_val_l /= 10;  
 526              		.loc 1 180 0
 527 01f6 0AF1010A 		add	r10, r10, #1
 528              	.LVL56:
 178:../../source/src/user/OS_LIB/myMicroLIB.c **** 	                    {   
 529              		.loc 1 178 0
 530 01fa 50EA0103 		orrs	r3, r0, r1
 180:../../source/src/user/OS_LIB/myMicroLIB.c **** 	                         r_val_l /= 10;  
 531              		.loc 1 180 0
 532 01fe 5FFA8AFA 		uxtb	r10, r10
 533              	.LVL57:
 178:../../source/src/user/OS_LIB/myMicroLIB.c **** 	                    {   
 534              		.loc 1 178 0
 535 0202 F4D1     		bne	.L68
 183:../../source/src/user/OS_LIB/myMicroLIB.c **** 	                    r_val_l = val_l;  
 536              		.loc 1 183 0
 537 0204 5644     		add	r6, r6, r10
 538              	.LVL58:
 185:../../source/src/user/OS_LIB/myMicroLIB.c **** 	                    {   
 539              		.loc 1 185 0
 540 0206 BAF1000F 		cmp	r10, #0
 541 020a B6D0     		beq	.L47
 542              	.LVL59:
 543              	.L73:
 544              	.LBB31:
 545              	.LBB32:
  11:../../source/src/user/OS_LIB/myMicroLIB.c **** 	{
 546              		.loc 1 11 0
 547 020c BAF1010F 		cmp	r10, #1
 548 0210 AAF10207 		sub	r7, r10, #2
 549              	.LVL60:
 550 0214 00F0FE81 		beq	.L69
 551 0218 3B46     		mov	r3, r7
  10:../../source/src/user/OS_LIB/myMicroLIB.c **** 	while(y--)
 552              		.loc 1 10 0
 553 021a 0122     		movs	r2, #1
ARM GAS  G:\Users\Jaxb\AppData\Local\Temp\cci3ToTS.s 			page 17


 554              	.LVL61:
 555              	.L70:
  11:../../source/src/user/OS_LIB/myMicroLIB.c **** 	{
 556              		.loc 1 11 0
 557 021c 013B     		subs	r3, r3, #1
 558              	.LVL62:
  13:../../source/src/user/OS_LIB/myMicroLIB.c **** 	}
 559              		.loc 1 13 0
 560 021e 02EB8202 		add	r2, r2, r2, lsl #2
 561              	.LVL63:
  11:../../source/src/user/OS_LIB/myMicroLIB.c **** 	{
 562              		.loc 1 11 0
 563 0222 591C     		adds	r1, r3, #1
  13:../../source/src/user/OS_LIB/myMicroLIB.c **** 	}
 564              		.loc 1 13 0
 565 0224 4FEA4202 		lsl	r2, r2, #1
 566              	.LVL64:
  11:../../source/src/user/OS_LIB/myMicroLIB.c **** 	{
 567              		.loc 1 11 0
 568 0228 F8D1     		bne	.L70
 569              	.LVL65:
 570              	.LBE32:
 571              	.LBE31:
 187:../../source/src/user/OS_LIB/myMicroLIB.c **** 	                          r_val_l %= ka_pow(10,count - 1); 
 572              		.loc 1 187 0
 573 022a 0023     		movs	r3, #0
 574 022c 4046     		mov	r0, r8
 575 022e 4946     		mov	r1, r9
 576 0230 FFF7FEFF 		bl	__aeabi_ldivmod
 577              	.LVL66:
 578              	.LBB33:
 579              	.LBB34:
  10:../../source/src/user/OS_LIB/myMicroLIB.c **** 	while(y--)
 580              		.loc 1 10 0
 581 0234 0122     		movs	r2, #1
 582              	.LBE34:
 583              	.LBE33:
 187:../../source/src/user/OS_LIB/myMicroLIB.c **** 	                          r_val_l %= ka_pow(10,count - 1); 
 584              		.loc 1 187 0
 585 0236 5FFA80FB 		uxtb	fp, r0
 586              	.LVL67:
 587              	.L72:
 588              	.LBB36:
 589              	.LBB35:
  11:../../source/src/user/OS_LIB/myMicroLIB.c **** 	{
 590              		.loc 1 11 0
 591 023a 013F     		subs	r7, r7, #1
  13:../../source/src/user/OS_LIB/myMicroLIB.c **** 	}
 592              		.loc 1 13 0
 593 023c 02EB8202 		add	r2, r2, r2, lsl #2
 594              	.LVL68:
  11:../../source/src/user/OS_LIB/myMicroLIB.c **** 	{
 595              		.loc 1 11 0
 596 0240 7B1C     		adds	r3, r7, #1
  13:../../source/src/user/OS_LIB/myMicroLIB.c **** 	}
 597              		.loc 1 13 0
 598 0242 4FEA4202 		lsl	r2, r2, #1
ARM GAS  G:\Users\Jaxb\AppData\Local\Temp\cci3ToTS.s 			page 18


 599              	.LVL69:
  11:../../source/src/user/OS_LIB/myMicroLIB.c **** 	{
 600              		.loc 1 11 0
 601 0246 F8D1     		bne	.L72
 602 0248 4046     		mov	r0, r8
 603 024a 4946     		mov	r1, r9
 604 024c 0023     		movs	r3, #0
 605 024e FFF7FEFF 		bl	__aeabi_ldivmod
 606              	.LVL70:
 607 0252 9046     		mov	r8, r2
 608              	.LVL71:
 609 0254 9946     		mov	r9, r3
 610              	.L107:
 611              	.LVL72:
 612              	.LBE35:
 613              	.LBE36:
 189:../../source/src/user/OS_LIB/myMicroLIB.c **** 	                          count--;  
 614              		.loc 1 189 0
 615 0256 0BF13000 		add	r0, fp, #48
 616 025a C0B2     		uxtb	r0, r0
 617 025c FFF7FEFF 		bl	ka_putchar
 618              	.LVL73:
 185:../../source/src/user/OS_LIB/myMicroLIB.c **** 	                    {   
 619              		.loc 1 185 0
 620 0260 BAF1010A 		subs	r10, r10, #1
 621              	.LVL74:
 622 0264 D2D1     		bne	.L73
 623 0266 88E7     		b	.L47
 624              	.LVL75:
 625              	.L42:
 269:../../source/src/user/OS_LIB/myMicroLIB.c **** 	                    r_val = val;   
 626              		.loc 1 269 0
 627 0268 019B     		ldr	r3, [sp, #4]
 628 026a 1F68     		ldr	r7, [r3]
 629              	.LVL76:
 630 026c 0433     		adds	r3, r3, #4
 631 026e 0193     		str	r3, [sp, #4]
 272:../../source/src/user/OS_LIB/myMicroLIB.c **** 	                    {   
 632              		.loc 1 272 0
 633 0270 002F     		cmp	r7, #0
 634 0272 00F0EA81 		beq	.L92
 635 0276 3B46     		mov	r3, r7
 271:../../source/src/user/OS_LIB/myMicroLIB.c **** 	                    while(r_val)  
 636              		.loc 1 271 0
 637 0278 4FF00008 		mov	r8, #0
 638              	.LVL77:
 639              	.L94:
 275:../../source/src/user/OS_LIB/myMicroLIB.c **** 	                    }
 640              		.loc 1 275 0
 641 027c 002B     		cmp	r3, #0
 642 027e B8BF     		it	lt
 643 0280 0F33     		addlt	r3, r3, #15
 644              	.LVL78:
 274:../../source/src/user/OS_LIB/myMicroLIB.c **** 	                         r_val /= 16;   
 645              		.loc 1 274 0
 646 0282 08F10108 		add	r8, r8, #1
 647              	.LVL79:
ARM GAS  G:\Users\Jaxb\AppData\Local\Temp\cci3ToTS.s 			page 19


 272:../../source/src/user/OS_LIB/myMicroLIB.c **** 	                    {   
 648              		.loc 1 272 0
 649 0286 1B11     		asrs	r3, r3, #4
 274:../../source/src/user/OS_LIB/myMicroLIB.c **** 	                         r_val /= 16;   
 650              		.loc 1 274 0
 651 0288 5FFA88F8 		uxtb	r8, r8
 652              	.LVL80:
 272:../../source/src/user/OS_LIB/myMicroLIB.c **** 	                    {   
 653              		.loc 1 272 0
 654 028c F6D1     		bne	.L94
 279:../../source/src/user/OS_LIB/myMicroLIB.c **** 	                    ka_putchar('x');
 655              		.loc 1 279 0
 656 028e 3020     		movs	r0, #48
 657 0290 FFF7FEFF 		bl	ka_putchar
 658              	.LVL81:
 280:../../source/src/user/OS_LIB/myMicroLIB.c **** 	                    buffer = 8-count;
 659              		.loc 1 280 0
 660 0294 7820     		movs	r0, #120
 661 0296 FFF7FEFF 		bl	ka_putchar
 662              	.LVL82:
 282:../../source/src/user/OS_LIB/myMicroLIB.c **** 	                    {
 663              		.loc 1 282 0
 664 029a B8F1080F 		cmp	r8, #8
 277:../../source/src/user/OS_LIB/myMicroLIB.c **** 	                    r_val = val;
 665              		.loc 1 277 0
 666 029e 4644     		add	r6, r6, r8
 667              	.LVL83:
 282:../../source/src/user/OS_LIB/myMicroLIB.c **** 	                    {
 668              		.loc 1 282 0
 669 02a0 C8F10709 		rsb	r9, r8, #7
 670              	.LVL84:
 671 02a4 0BD0     		beq	.L103
 672              	.LVL85:
 673              	.L96:
 674 02a6 09F1FF39 		add	r9, r9, #-1
 675              	.LVL86:
 284:../../source/src/user/OS_LIB/myMicroLIB.c **** 	                    }
 676              		.loc 1 284 0
 677 02aa 3020     		movs	r0, #48
 678 02ac FFF7FEFF 		bl	ka_putchar
 679              	.LVL87:
 282:../../source/src/user/OS_LIB/myMicroLIB.c **** 	                    {
 680              		.loc 1 282 0
 681 02b0 B9F1FF3F 		cmp	r9, #-1
 682 02b4 F7D1     		bne	.L96
 683              	.LVL88:
 286:../../source/src/user/OS_LIB/myMicroLIB.c **** 	                    {   
 684              		.loc 1 286 0
 685 02b6 B8F1000F 		cmp	r8, #0
 686 02ba 3FF45EAF 		beq	.L47
 687              	.LVL89:
 688              	.L103:
 689              	.LBB37:
 690              	.LBB38:
  11:../../source/src/user/OS_LIB/myMicroLIB.c **** 	{
 691              		.loc 1 11 0
 692 02be B8F1010F 		cmp	r8, #1
ARM GAS  G:\Users\Jaxb\AppData\Local\Temp\cci3ToTS.s 			page 20


 693 02c2 A8F10202 		sub	r2, r8, #2
 694              	.LVL90:
 695 02c6 25D0     		beq	.L97
 696              	.L183:
 697 02c8 1146     		mov	r1, r2
  10:../../source/src/user/OS_LIB/myMicroLIB.c **** 	while(y--)
 698              		.loc 1 10 0
 699 02ca 0123     		movs	r3, #1
 700              	.LVL91:
 701              	.L98:
  11:../../source/src/user/OS_LIB/myMicroLIB.c **** 	{
 702              		.loc 1 11 0
 703 02cc 0139     		subs	r1, r1, #1
 704              	.LVL92:
 705 02ce 481C     		adds	r0, r1, #1
  13:../../source/src/user/OS_LIB/myMicroLIB.c **** 	}
 706              		.loc 1 13 0
 707 02d0 4FEA0313 		lsl	r3, r3, #4
 708              	.LVL93:
  11:../../source/src/user/OS_LIB/myMicroLIB.c **** 	{
 709              		.loc 1 11 0
 710 02d4 FAD1     		bne	.L98
 711              	.LVL94:
 712              	.LBE38:
 713              	.LBE37:
 288:../../source/src/user/OS_LIB/myMicroLIB.c **** 	                        r_val %= ka_pow(16, count - 1);  
 714              		.loc 1 288 0
 715 02d6 B7FBF3F0 		udiv	r0, r7, r3
 716              	.LBB40:
 717              	.LBB41:
  10:../../source/src/user/OS_LIB/myMicroLIB.c **** 	while(y--)
 718              		.loc 1 10 0
 719 02da 0123     		movs	r3, #1
 720              	.LBE41:
 721              	.LBE40:
 288:../../source/src/user/OS_LIB/myMicroLIB.c **** 	                        r_val %= ka_pow(16, count - 1);  
 722              		.loc 1 288 0
 723 02dc C0B2     		uxtb	r0, r0
 724              	.LVL95:
 725              	.L100:
 726              	.LBB43:
 727              	.LBB42:
  11:../../source/src/user/OS_LIB/myMicroLIB.c **** 	{
 728              		.loc 1 11 0
 729 02de 013A     		subs	r2, r2, #1
 730 02e0 511C     		adds	r1, r2, #1
  13:../../source/src/user/OS_LIB/myMicroLIB.c **** 	}
 731              		.loc 1 13 0
 732 02e2 4FEA0313 		lsl	r3, r3, #4
 733              	.LVL96:
  11:../../source/src/user/OS_LIB/myMicroLIB.c **** 	{
 734              		.loc 1 11 0
 735 02e6 FAD1     		bne	.L100
 736 02e8 B7FBF3F2 		udiv	r2, r7, r3
 737 02ec 03FB1277 		mls	r7, r3, r2, r7
 738              	.LVL97:
 739              	.L111:
ARM GAS  G:\Users\Jaxb\AppData\Local\Temp\cci3ToTS.s 			page 21


 740              	.LBE42:
 741              	.LBE43:
 290:../../source/src/user/OS_LIB/myMicroLIB.c **** 	                            ka_putchar(ch + '0');
 742              		.loc 1 290 0
 743 02f0 0928     		cmp	r0, #9
 291:../../source/src/user/OS_LIB/myMicroLIB.c **** 	                        else   
 744              		.loc 1 291 0
 745 02f2 94BF     		ite	ls
 746 02f4 3030     		addls	r0, r0, #48
 747              	.LVL98:
 293:../../source/src/user/OS_LIB/myMicroLIB.c **** 	                        count--;  
 748              		.loc 1 293 0
 749 02f6 5730     		addhi	r0, r0, #87
 750 02f8 C0B2     		uxtb	r0, r0
 751 02fa 08F1FF38 		add	r8, r8, #-1
 752              	.LVL99:
 753 02fe FFF7FEFF 		bl	ka_putchar
 754              	.LVL100:
 286:../../source/src/user/OS_LIB/myMicroLIB.c **** 	                    {   
 755              		.loc 1 286 0
 756 0302 18F0FF0F 		tst	r8, #255
 757 0306 3FF438AF 		beq	.L47
 758              	.LVL101:
 759              	.LBB44:
 760              	.LBB39:
  11:../../source/src/user/OS_LIB/myMicroLIB.c **** 	{
 761              		.loc 1 11 0
 762 030a B8F1010F 		cmp	r8, #1
 763 030e A8F10202 		sub	r2, r8, #2
 764              	.LVL102:
 765 0312 D9D1     		bne	.L183
 766              	.L97:
 767              	.LVL103:
 768              	.LBE39:
 769              	.LBE44:
 288:../../source/src/user/OS_LIB/myMicroLIB.c **** 	                        r_val %= ka_pow(16, count - 1);  
 770              		.loc 1 288 0
 771 0314 F8B2     		uxtb	r0, r7
 772              	.LVL104:
 773 0316 0027     		movs	r7, #0
 774              	.LVL105:
 775 0318 EAE7     		b	.L111
 776              	.LVL106:
 777              	.L43:
 252:../../source/src/user/OS_LIB/myMicroLIB.c **** 	                    m_putstr(s);  
 778              		.loc 1 252 0
 779 031a 019B     		ldr	r3, [sp, #4]
 780 031c D3F80080 		ldr	r8, [r3]
 781              	.LVL107:
 782 0320 0433     		adds	r3, r3, #4
 783              	.LBB45:
 784              	.LBB46:
  20:../../source/src/user/OS_LIB/myMicroLIB.c ****     {  
 785              		.loc 1 20 0
 786 0322 98F80000 		ldrb	r0, [r8]	@ zero_extendqisi2
 787              	.LBE46:
 788              	.LBE45:
ARM GAS  G:\Users\Jaxb\AppData\Local\Temp\cci3ToTS.s 			page 22


 252:../../source/src/user/OS_LIB/myMicroLIB.c **** 	                    m_putstr(s);  
 789              		.loc 1 252 0
 790 0326 0193     		str	r3, [sp, #4]
 791              	.LBB48:
 792              	.LBB47:
  20:../../source/src/user/OS_LIB/myMicroLIB.c ****     {  
 793              		.loc 1 20 0
 794 0328 0028     		cmp	r0, #0
 795 032a 3FF426AF 		beq	.L47
 796 032e 4746     		mov	r7, r8
 797              	.LVL108:
 798              	.L90:
  22:../../source/src/user/OS_LIB/myMicroLIB.c ****     }
 799              		.loc 1 22 0
 800 0330 FFF7FEFF 		bl	ka_putchar
 801              	.LVL109:
  20:../../source/src/user/OS_LIB/myMicroLIB.c ****     {  
 802              		.loc 1 20 0
 803 0334 17F8010F 		ldrb	r0, [r7, #1]!	@ zero_extendqisi2
 804              	.LVL110:
 805 0338 0028     		cmp	r0, #0
 806 033a F9D1     		bne	.L90
 807              	.LVL111:
 808              	.LBE47:
 809              	.LBE48:
 810              	.LBB49:
 811              	.LBB50:
  39:../../source/src/user/OS_LIB/myMicroLIB.c **** 	{
 812              		.loc 1 39 0
 813 033c 98F80020 		ldrb	r2, [r8]	@ zero_extendqisi2
 814 0340 08F10103 		add	r3, r8, #1
 815              	.LVL112:
 816 0344 002A     		cmp	r2, #0
 817 0346 3FF418AF 		beq	.L47
 818              	.LVL113:
 819              	.L91:
 820 034a A3EB0801 		sub	r1, r3, r8
 821              	.LVL114:
 822 034e 13F8012B 		ldrb	r2, [r3], #1	@ zero_extendqisi2
 823              	.LVL115:
 824 0352 002A     		cmp	r2, #0
 825 0354 F9D1     		bne	.L91
 826 0356 0E44     		add	r6, r6, r1
 827              	.LVL116:
 828              	.LBE50:
 829              	.LBE49:
 255:../../source/src/user/OS_LIB/myMicroLIB.c **** 
 830              		.loc 1 255 0
 831 0358 0FE7     		b	.L47
 832              	.LVL117:
 833              	.L39:
  92:../../source/src/user/OS_LIB/myMicroLIB.c **** 				 		if(0 == val) 
 834              		.loc 1 92 0
 835 035a 019B     		ldr	r3, [sp, #4]
 836 035c D3F80080 		ldr	r8, [r3]
 837 0360 0433     		adds	r3, r3, #4
  93:../../source/src/user/OS_LIB/myMicroLIB.c **** 				 		{
ARM GAS  G:\Users\Jaxb\AppData\Local\Temp\cci3ToTS.s 			page 23


 838              		.loc 1 93 0
 839 0362 B8F1000F 		cmp	r8, #0
  92:../../source/src/user/OS_LIB/myMicroLIB.c **** 				 		if(0 == val) 
 840              		.loc 1 92 0
 841 0366 0193     		str	r3, [sp, #4]
  93:../../source/src/user/OS_LIB/myMicroLIB.c **** 				 		{
 842              		.loc 1 93 0
 843 0368 00F00F81 		beq	.L180
  98:../../source/src/user/OS_LIB/myMicroLIB.c **** 						{
 844              		.loc 1 98 0
 845 036c C0F27781 		blt	.L184
 846              	.L48:
 847              	.LVL118:
 103:../../source/src/user/OS_LIB/myMicroLIB.c **** 	                    count = 0;
 848              		.loc 1 103 0
 849 0370 4346     		mov	r3, r8
 104:../../source/src/user/OS_LIB/myMicroLIB.c **** 	                    while(r_val)
 850              		.loc 1 104 0
 851 0372 0027     		movs	r7, #0
 108:../../source/src/user/OS_LIB/myMicroLIB.c **** 	                    } 
 852              		.loc 1 108 0
 853 0374 4E49     		ldr	r1, .L187+4
 854              	.LVL119:
 855              	.L49:
 856 0376 81FB0302 		smull	r0, r2, r1, r3
 857 037a DB17     		asrs	r3, r3, #31
 858              	.LVL120:
 107:../../source/src/user/OS_LIB/myMicroLIB.c **** 	                         r_val /= 10;  
 859              		.loc 1 107 0
 860 037c 0137     		adds	r7, r7, #1
 861              	.LVL121:
 105:../../source/src/user/OS_LIB/myMicroLIB.c **** 	                    {   
 862              		.loc 1 105 0
 863 037e D3EBA203 		rsbs	r3, r3, r2, asr #2
 107:../../source/src/user/OS_LIB/myMicroLIB.c **** 	                         r_val /= 10;  
 864              		.loc 1 107 0
 865 0382 FFB2     		uxtb	r7, r7
 866              	.LVL122:
 105:../../source/src/user/OS_LIB/myMicroLIB.c **** 	                    {   
 867              		.loc 1 105 0
 868 0384 F7D1     		bne	.L49
 110:../../source/src/user/OS_LIB/myMicroLIB.c **** 	                    r_val = val;  
 869              		.loc 1 110 0
 870 0386 3E44     		add	r6, r6, r7
 871              	.LVL123:
 112:../../source/src/user/OS_LIB/myMicroLIB.c **** 	                    {   
 872              		.loc 1 112 0
 873 0388 002F     		cmp	r7, #0
 874 038a 3FF4F6AE 		beq	.L47
 875              	.LVL124:
 876              	.L54:
 877              	.LBB51:
 878              	.LBB52:
  11:../../source/src/user/OS_LIB/myMicroLIB.c **** 	{
 879              		.loc 1 11 0
 880 038e 012F     		cmp	r7, #1
 881 0390 A7F10201 		sub	r1, r7, #2
ARM GAS  G:\Users\Jaxb\AppData\Local\Temp\cci3ToTS.s 			page 24


 882              	.LVL125:
 883 0394 00F04A81 		beq	.L50
 884 0398 0A46     		mov	r2, r1
  10:../../source/src/user/OS_LIB/myMicroLIB.c **** 	while(y--)
 885              		.loc 1 10 0
 886 039a 0123     		movs	r3, #1
 887              	.LVL126:
 888              	.L51:
  11:../../source/src/user/OS_LIB/myMicroLIB.c **** 	{
 889              		.loc 1 11 0
 890 039c 013A     		subs	r2, r2, #1
 891              	.LVL127:
  13:../../source/src/user/OS_LIB/myMicroLIB.c **** 	}
 892              		.loc 1 13 0
 893 039e 03EB8303 		add	r3, r3, r3, lsl #2
 894              	.LVL128:
  11:../../source/src/user/OS_LIB/myMicroLIB.c **** 	{
 895              		.loc 1 11 0
 896 03a2 501C     		adds	r0, r2, #1
  13:../../source/src/user/OS_LIB/myMicroLIB.c **** 	}
 897              		.loc 1 13 0
 898 03a4 4FEA4303 		lsl	r3, r3, #1
 899              	.LVL129:
  11:../../source/src/user/OS_LIB/myMicroLIB.c **** 	{
 900              		.loc 1 11 0
 901 03a8 F8D1     		bne	.L51
 902              	.LVL130:
 903              	.LBE52:
 904              	.LBE51:
 114:../../source/src/user/OS_LIB/myMicroLIB.c **** 	                          r_val %= ka_pow(10,count - 1); 
 905              		.loc 1 114 0
 906 03aa B8FBF3F3 		udiv	r3, r8, r3
 907              	.LBB53:
 908              	.LBB54:
  10:../../source/src/user/OS_LIB/myMicroLIB.c **** 	while(y--)
 909              		.loc 1 10 0
 910 03ae 0122     		movs	r2, #1
 911              	.LBE54:
 912              	.LBE53:
 114:../../source/src/user/OS_LIB/myMicroLIB.c **** 	                          r_val %= ka_pow(10,count - 1); 
 913              		.loc 1 114 0
 914 03b0 DBB2     		uxtb	r3, r3
 915              	.LVL131:
 916              	.L53:
 917              	.LBB56:
 918              	.LBB55:
  11:../../source/src/user/OS_LIB/myMicroLIB.c **** 	{
 919              		.loc 1 11 0
 920 03b2 0139     		subs	r1, r1, #1
  13:../../source/src/user/OS_LIB/myMicroLIB.c **** 	}
 921              		.loc 1 13 0
 922 03b4 02EB8202 		add	r2, r2, r2, lsl #2
 923              	.LVL132:
  11:../../source/src/user/OS_LIB/myMicroLIB.c **** 	{
 924              		.loc 1 11 0
 925 03b8 481C     		adds	r0, r1, #1
  13:../../source/src/user/OS_LIB/myMicroLIB.c **** 	}
ARM GAS  G:\Users\Jaxb\AppData\Local\Temp\cci3ToTS.s 			page 25


 926              		.loc 1 13 0
 927 03ba 4FEA4202 		lsl	r2, r2, #1
 928              	.LVL133:
  11:../../source/src/user/OS_LIB/myMicroLIB.c **** 	{
 929              		.loc 1 11 0
 930 03be F8D1     		bne	.L53
 931 03c0 B8FBF2F1 		udiv	r1, r8, r2
 932 03c4 02FB1188 		mls	r8, r2, r1, r8
 933              	.LVL134:
 934              	.L105:
 935              	.LBE55:
 936              	.LBE56:
 116:../../source/src/user/OS_LIB/myMicroLIB.c **** 	                          count--;  
 937              		.loc 1 116 0
 938 03c8 3033     		adds	r3, r3, #48
 939              	.LVL135:
 940 03ca D8B2     		uxtb	r0, r3
 941 03cc FFF7FEFF 		bl	ka_putchar
 942              	.LVL136:
 112:../../source/src/user/OS_LIB/myMicroLIB.c **** 	                    {   
 943              		.loc 1 112 0
 944 03d0 013F     		subs	r7, r7, #1
 945              	.LVL137:
 946 03d2 DCD1     		bne	.L54
 947 03d4 D1E6     		b	.L47
 948              	.L44:
 195:../../source/src/user/OS_LIB/myMicroLIB.c **** 				 		if(0 == val1) 
 949              		.loc 1 195 0
 950 03d6 019B     		ldr	r3, [sp, #4]
 951 03d8 D3F80080 		ldr	r8, [r3]
 952 03dc 0433     		adds	r3, r3, #4
 953 03de 0193     		str	r3, [sp, #4]
 196:../../source/src/user/OS_LIB/myMicroLIB.c **** 				 		{
 954              		.loc 1 196 0
 955 03e0 B8F1000F 		cmp	r8, #0
 956 03e4 00F0D180 		beq	.L180
 957 03e8 4346     		mov	r3, r8
 202:../../source/src/user/OS_LIB/myMicroLIB.c **** 	                    while(r_val1)
 958              		.loc 1 202 0
 959 03ea 0027     		movs	r7, #0
 206:../../source/src/user/OS_LIB/myMicroLIB.c **** 	                    } 
 960              		.loc 1 206 0
 961 03ec 314A     		ldr	r2, .L187+8
 962              	.L74:
 963              	.LVL138:
 964 03ee A2FB0313 		umull	r1, r3, r2, r3
 965              	.LVL139:
 205:../../source/src/user/OS_LIB/myMicroLIB.c **** 	                         r_val1 /= 10;  
 966              		.loc 1 205 0
 967 03f2 0137     		adds	r7, r7, #1
 968              	.LVL140:
 203:../../source/src/user/OS_LIB/myMicroLIB.c **** 	                    {   
 969              		.loc 1 203 0
 970 03f4 DB08     		lsrs	r3, r3, #3
 205:../../source/src/user/OS_LIB/myMicroLIB.c **** 	                         r_val1 /= 10;  
 971              		.loc 1 205 0
 972 03f6 FFB2     		uxtb	r7, r7
ARM GAS  G:\Users\Jaxb\AppData\Local\Temp\cci3ToTS.s 			page 26


 973              	.LVL141:
 203:../../source/src/user/OS_LIB/myMicroLIB.c **** 	                    {   
 974              		.loc 1 203 0
 975 03f8 F9D1     		bne	.L74
 208:../../source/src/user/OS_LIB/myMicroLIB.c **** 	                    r_val1 = val1;  
 976              		.loc 1 208 0
 977 03fa 3E44     		add	r6, r6, r7
 978              	.LVL142:
 210:../../source/src/user/OS_LIB/myMicroLIB.c **** 	                    {   
 979              		.loc 1 210 0
 980 03fc 002F     		cmp	r7, #0
 981 03fe 3FF4BCAE 		beq	.L47
 982              	.LVL143:
 983              	.L79:
 984              	.LBB57:
 985              	.LBB58:
  11:../../source/src/user/OS_LIB/myMicroLIB.c **** 	{
 986              		.loc 1 11 0
 987 0402 012F     		cmp	r7, #1
 988 0404 A7F10201 		sub	r1, r7, #2
 989              	.LVL144:
 990 0408 00F00B81 		beq	.L75
 991 040c 0A46     		mov	r2, r1
  10:../../source/src/user/OS_LIB/myMicroLIB.c **** 	while(y--)
 992              		.loc 1 10 0
 993 040e 0123     		movs	r3, #1
 994              	.LVL145:
 995              	.L76:
  11:../../source/src/user/OS_LIB/myMicroLIB.c **** 	{
 996              		.loc 1 11 0
 997 0410 013A     		subs	r2, r2, #1
 998              	.LVL146:
  13:../../source/src/user/OS_LIB/myMicroLIB.c **** 	}
 999              		.loc 1 13 0
 1000 0412 03EB8303 		add	r3, r3, r3, lsl #2
 1001              	.LVL147:
  11:../../source/src/user/OS_LIB/myMicroLIB.c **** 	{
 1002              		.loc 1 11 0
 1003 0416 501C     		adds	r0, r2, #1
  13:../../source/src/user/OS_LIB/myMicroLIB.c **** 	}
 1004              		.loc 1 13 0
 1005 0418 4FEA4303 		lsl	r3, r3, #1
 1006              	.LVL148:
  11:../../source/src/user/OS_LIB/myMicroLIB.c **** 	{
 1007              		.loc 1 11 0
 1008 041c F8D1     		bne	.L76
 1009              	.LVL149:
 1010              	.LBE58:
 1011              	.LBE57:
 212:../../source/src/user/OS_LIB/myMicroLIB.c **** 	                          r_val1 %= ka_pow(10,count - 1); 
 1012              		.loc 1 212 0
 1013 041e B8FBF3F3 		udiv	r3, r8, r3
 1014              	.LBB59:
 1015              	.LBB60:
  10:../../source/src/user/OS_LIB/myMicroLIB.c **** 	while(y--)
 1016              		.loc 1 10 0
 1017 0422 0122     		movs	r2, #1
ARM GAS  G:\Users\Jaxb\AppData\Local\Temp\cci3ToTS.s 			page 27


 1018              	.LBE60:
 1019              	.LBE59:
 212:../../source/src/user/OS_LIB/myMicroLIB.c **** 	                          r_val1 %= ka_pow(10,count - 1); 
 1020              		.loc 1 212 0
 1021 0424 DBB2     		uxtb	r3, r3
 1022              	.LVL150:
 1023              	.L78:
 1024              	.LBB62:
 1025              	.LBB61:
  11:../../source/src/user/OS_LIB/myMicroLIB.c **** 	{
 1026              		.loc 1 11 0
 1027 0426 0139     		subs	r1, r1, #1
  13:../../source/src/user/OS_LIB/myMicroLIB.c **** 	}
 1028              		.loc 1 13 0
 1029 0428 02EB8202 		add	r2, r2, r2, lsl #2
 1030              	.LVL151:
  11:../../source/src/user/OS_LIB/myMicroLIB.c **** 	{
 1031              		.loc 1 11 0
 1032 042c 481C     		adds	r0, r1, #1
  13:../../source/src/user/OS_LIB/myMicroLIB.c **** 	}
 1033              		.loc 1 13 0
 1034 042e 4FEA4202 		lsl	r2, r2, #1
 1035              	.LVL152:
  11:../../source/src/user/OS_LIB/myMicroLIB.c **** 	{
 1036              		.loc 1 11 0
 1037 0432 F8D1     		bne	.L78
 1038 0434 B8FBF2F1 		udiv	r1, r8, r2
 1039 0438 02FB1188 		mls	r8, r2, r1, r8
 1040              	.LVL153:
 1041              	.L108:
 1042              	.LBE61:
 1043              	.LBE62:
 214:../../source/src/user/OS_LIB/myMicroLIB.c **** 	                          count--;  
 1044              		.loc 1 214 0
 1045 043c 3033     		adds	r3, r3, #48
 1046              	.LVL154:
 1047 043e D8B2     		uxtb	r0, r3
 1048 0440 FFF7FEFF 		bl	ka_putchar
 1049              	.LVL155:
 210:../../source/src/user/OS_LIB/myMicroLIB.c **** 	                    {   
 1050              		.loc 1 210 0
 1051 0444 013F     		subs	r7, r7, #1
 1052              	.LVL156:
 1053 0446 DCD1     		bne	.L79
 1054 0448 97E6     		b	.L47
 1055              	.L38:
 259:../../source/src/user/OS_LIB/myMicroLIB.c **** 	                    res += 1;  
 1056              		.loc 1 259 0
 1057 044a 019B     		ldr	r3, [sp, #4]
 260:../../source/src/user/OS_LIB/myMicroLIB.c **** 	                    break; 
 1058              		.loc 1 260 0
 1059 044c 0136     		adds	r6, r6, #1
 1060              	.LVL157:
 259:../../source/src/user/OS_LIB/myMicroLIB.c **** 	                    res += 1;  
 1061              		.loc 1 259 0
 1062 044e 1A1D     		adds	r2, r3, #4
 1063 0450 1878     		ldrb	r0, [r3]	@ zero_extendqisi2
ARM GAS  G:\Users\Jaxb\AppData\Local\Temp\cci3ToTS.s 			page 28


 1064 0452 0192     		str	r2, [sp, #4]
 1065 0454 FFF7FEFF 		bl	ka_putchar
 1066              	.LVL158:
 261:../../source/src/user/OS_LIB/myMicroLIB.c **** 
 1067              		.loc 1 261 0
 1068 0458 8FE6     		b	.L47
 1069              	.L40:
 122:../../source/src/user/OS_LIB/myMicroLIB.c **** 	                	if(val_f < 0)
 1070              		.loc 1 122 0
 1071 045a 019F     		ldr	r7, [sp, #4]
 123:../../source/src/user/OS_LIB/myMicroLIB.c **** 	                	{
 1072              		.loc 1 123 0
 1073 045c 0022     		movs	r2, #0
 122:../../source/src/user/OS_LIB/myMicroLIB.c **** 	                	if(val_f < 0)
 1074              		.loc 1 122 0
 1075 045e 0737     		adds	r7, r7, #7
 1076 0460 27F00707 		bic	r7, r7, #7
 1077 0464 D7F80090 		ldr	r9, [r7]
 1078 0468 D7F80480 		ldr	r8, [r7, #4]
 123:../../source/src/user/OS_LIB/myMicroLIB.c **** 	                	{
 1079              		.loc 1 123 0
 1080 046c 0023     		movs	r3, #0
 122:../../source/src/user/OS_LIB/myMicroLIB.c **** 	                	if(val_f < 0)
 1081              		.loc 1 122 0
 1082 046e 0837     		adds	r7, r7, #8
 123:../../source/src/user/OS_LIB/myMicroLIB.c **** 	                	{
 1083              		.loc 1 123 0
 1084 0470 4846     		mov	r0, r9
 1085 0472 4146     		mov	r1, r8
 122:../../source/src/user/OS_LIB/myMicroLIB.c **** 	                	if(val_f < 0)
 1086              		.loc 1 122 0
 1087 0474 0197     		str	r7, [sp, #4]
 123:../../source/src/user/OS_LIB/myMicroLIB.c **** 	                	{
 1088              		.loc 1 123 0
 1089 0476 FFF7FEFF 		bl	__aeabi_dcmplt
 1090              	.LVL159:
 1091 047a 0028     		cmp	r0, #0
 1092 047c 40F0DF80 		bne	.L185
 1093              	.L55:
 1094              	.LVL160:
 128:../../source/src/user/OS_LIB/myMicroLIB.c **** 	                	val_f -= val;
 1095              		.loc 1 128 0
 1096 0480 4146     		mov	r1, r8
 1097 0482 4846     		mov	r0, r9
 1098 0484 FFF7FEFF 		bl	__aeabi_d2iz
 1099              	.LVL161:
 1100 0488 0746     		mov	r7, r0
 1101              	.LVL162:
 129:../../source/src/user/OS_LIB/myMicroLIB.c **** 	                	if(0 == val) 
 1102              		.loc 1 129 0
 1103 048a FFF7FEFF 		bl	__aeabi_i2d
 1104              	.LVL163:
 1105 048e 0246     		mov	r2, r0
 1106 0490 0B46     		mov	r3, r1
 1107 0492 4846     		mov	r0, r9
 1108 0494 4146     		mov	r1, r8
 1109 0496 FFF7FEFF 		bl	__aeabi_dsub
ARM GAS  G:\Users\Jaxb\AppData\Local\Temp\cci3ToTS.s 			page 29


 1110              	.LVL164:
 1111 049a 8046     		mov	r8, r0
 1112              	.LVL165:
 1113 049c 8946     		mov	r9, r1
 1114              	.LVL166:
 130:../../source/src/user/OS_LIB/myMicroLIB.c **** 				 		{
 1115              		.loc 1 130 0
 1116 049e 002F     		cmp	r7, #0
 1117 04a0 00F0C980 		beq	.L186
 1118 04a4 3A46     		mov	r2, r7
 135:../../source/src/user/OS_LIB/myMicroLIB.c **** 	                    while(r_val)
 1119              		.loc 1 135 0
 1120 04a6 0020     		movs	r0, #0
 139:../../source/src/user/OS_LIB/myMicroLIB.c **** 	                    } 
 1121              		.loc 1 139 0
 1122 04a8 014B     		ldr	r3, .L187+4
 1123 04aa 06E0     		b	.L57
 1124              	.L188:
 1125              		.align	2
 1126              	.L187:
 1127 04ac 2C000000 		.word	.LC1
 1128 04b0 67666666 		.word	1717986919
 1129 04b4 CDCCCCCC 		.word	-858993459
 1130              	.LVL167:
 1131              	.L114:
 138:../../source/src/user/OS_LIB/myMicroLIB.c **** 	                         r_val /= 10;  
 1132              		.loc 1 138 0
 1133 04b8 0846     		mov	r0, r1
 1134              	.LVL168:
 1135              	.L57:
 139:../../source/src/user/OS_LIB/myMicroLIB.c **** 	                    } 
 1136              		.loc 1 139 0
 1137 04ba 83FB021C 		smull	r1, ip, r3, r2
 1138 04be D217     		asrs	r2, r2, #31
 1139              	.LVL169:
 138:../../source/src/user/OS_LIB/myMicroLIB.c **** 	                         r_val /= 10;  
 1140              		.loc 1 138 0
 1141 04c0 411C     		adds	r1, r0, #1
 136:../../source/src/user/OS_LIB/myMicroLIB.c **** 	                    {   
 1142              		.loc 1 136 0
 1143 04c2 D2EBAC02 		rsbs	r2, r2, ip, asr #2
 138:../../source/src/user/OS_LIB/myMicroLIB.c **** 	                         r_val /= 10;  
 1144              		.loc 1 138 0
 1145 04c6 C9B2     		uxtb	r1, r1
 1146              	.LVL170:
 136:../../source/src/user/OS_LIB/myMicroLIB.c **** 	                    {   
 1147              		.loc 1 136 0
 1148 04c8 F6D1     		bne	.L114
 1149              	.LVL171:
 141:../../source/src/user/OS_LIB/myMicroLIB.c **** 	                    r_val = val;  
 1150              		.loc 1 141 0
 1151 04ca 0E44     		add	r6, r6, r1
 1152              	.LVL172:
 143:../../source/src/user/OS_LIB/myMicroLIB.c **** 	                    {   
 1153              		.loc 1 143 0
 1154 04cc 49B3     		cbz	r1, .L58
 1155 04ce A1F1030A 		sub	r10, r1, #3
ARM GAS  G:\Users\Jaxb\AppData\Local\Temp\cci3ToTS.s 			page 30


 1156 04d2 AAEB000A 		sub	r10, r10, r0
 1157 04d6 A1F1020B 		sub	fp, r1, #2
 1158              	.LVL173:
 1159              	.L63:
 1160              	.LBB63:
 1161              	.LBB64:
  11:../../source/src/user/OS_LIB/myMicroLIB.c **** 	{
 1162              		.loc 1 11 0
 1163 04da BBF1FF3F 		cmp	fp, #-1
 1164 04de 58D0     		beq	.L59
 1165 04e0 5A46     		mov	r2, fp
  10:../../source/src/user/OS_LIB/myMicroLIB.c **** 	while(y--)
 1166              		.loc 1 10 0
 1167 04e2 0123     		movs	r3, #1
 1168              	.LVL174:
 1169              	.L60:
  11:../../source/src/user/OS_LIB/myMicroLIB.c **** 	{
 1170              		.loc 1 11 0
 1171 04e4 013A     		subs	r2, r2, #1
 1172              	.LVL175:
  13:../../source/src/user/OS_LIB/myMicroLIB.c **** 	}
 1173              		.loc 1 13 0
 1174 04e6 03EB8303 		add	r3, r3, r3, lsl #2
 1175              	.LVL176:
  11:../../source/src/user/OS_LIB/myMicroLIB.c **** 	{
 1176              		.loc 1 11 0
 1177 04ea 501C     		adds	r0, r2, #1
  13:../../source/src/user/OS_LIB/myMicroLIB.c **** 	}
 1178              		.loc 1 13 0
 1179 04ec 4FEA4303 		lsl	r3, r3, #1
 1180              	.LVL177:
  11:../../source/src/user/OS_LIB/myMicroLIB.c **** 	{
 1181              		.loc 1 11 0
 1182 04f0 F8D1     		bne	.L60
 1183              	.LVL178:
 1184              	.LBE64:
 1185              	.LBE63:
 145:../../source/src/user/OS_LIB/myMicroLIB.c **** 	                          r_val %= ka_pow(10,count - 1); 
 1186              		.loc 1 145 0
 1187 04f2 B7FBF3F0 		udiv	r0, r7, r3
 1188 04f6 5A46     		mov	r2, fp
 1189              	.LBB65:
 1190              	.LBB66:
  10:../../source/src/user/OS_LIB/myMicroLIB.c **** 	while(y--)
 1191              		.loc 1 10 0
 1192 04f8 0123     		movs	r3, #1
 1193              	.LBE66:
 1194              	.LBE65:
 145:../../source/src/user/OS_LIB/myMicroLIB.c **** 	                          r_val %= ka_pow(10,count - 1); 
 1195              		.loc 1 145 0
 1196 04fa C0B2     		uxtb	r0, r0
 1197              	.LVL179:
 1198              	.L62:
 1199              	.LBB68:
 1200              	.LBB67:
  11:../../source/src/user/OS_LIB/myMicroLIB.c **** 	{
 1201              		.loc 1 11 0
ARM GAS  G:\Users\Jaxb\AppData\Local\Temp\cci3ToTS.s 			page 31


 1202 04fc 013A     		subs	r2, r2, #1
 1203              	.LVL180:
  13:../../source/src/user/OS_LIB/myMicroLIB.c **** 	}
 1204              		.loc 1 13 0
 1205 04fe 03EB8303 		add	r3, r3, r3, lsl #2
 1206              	.LVL181:
  11:../../source/src/user/OS_LIB/myMicroLIB.c **** 	{
 1207              		.loc 1 11 0
 1208 0502 511C     		adds	r1, r2, #1
  13:../../source/src/user/OS_LIB/myMicroLIB.c **** 	}
 1209              		.loc 1 13 0
 1210 0504 4FEA4303 		lsl	r3, r3, #1
 1211              	.LVL182:
  11:../../source/src/user/OS_LIB/myMicroLIB.c **** 	{
 1212              		.loc 1 11 0
 1213 0508 F8D1     		bne	.L62
 1214 050a B7FBF3F2 		udiv	r2, r7, r3
 1215              	.LVL183:
 1216 050e 03FB1277 		mls	r7, r3, r2, r7
 1217              	.LVL184:
 1218              	.L106:
 1219              	.LBE67:
 1220              	.LBE68:
 147:../../source/src/user/OS_LIB/myMicroLIB.c **** 	                          count--;  
 1221              		.loc 1 147 0
 1222 0512 3030     		adds	r0, r0, #48
 1223              	.LVL185:
 1224 0514 C0B2     		uxtb	r0, r0
 1225 0516 0BF1FF3B 		add	fp, fp, #-1
 1226              	.LVL186:
 1227 051a FFF7FEFF 		bl	ka_putchar
 1228              	.LVL187:
 143:../../source/src/user/OS_LIB/myMicroLIB.c **** 	                    {   
 1229              		.loc 1 143 0
 1230 051e D345     		cmp	fp, r10
 1231 0520 DBD1     		bne	.L63
 1232              	.L58:
 151:../../source/src/user/OS_LIB/myMicroLIB.c **** 	                    //the following is decimal part
 1233              		.loc 1 151 0
 1234 0522 2E20     		movs	r0, #46
 1235 0524 FFF7FEFF 		bl	ka_putchar
 1236              	.LVL188:
 1237 0528 0627     		movs	r7, #6
 1238 052a 14E0     		b	.L65
 1239              	.LVL189:
 1240              	.L64:
 159:../../source/src/user/OS_LIB/myMicroLIB.c **** 							val_f -= val;
 1241              		.loc 1 159 0
 1242 052c 08F13000 		add	r0, r8, #48
 1243 0530 C0B2     		uxtb	r0, r0
 1244 0532 FFF7FEFF 		bl	ka_putchar
 1245              	.LVL190:
 160:../../source/src/user/OS_LIB/myMicroLIB.c **** 	                    }
 1246              		.loc 1 160 0
 1247 0536 4046     		mov	r0, r8
 1248 0538 FFF7FEFF 		bl	__aeabi_i2d
 1249              	.LVL191:
ARM GAS  G:\Users\Jaxb\AppData\Local\Temp\cci3ToTS.s 			page 32


 1250 053c 0246     		mov	r2, r0
 1251 053e 0B46     		mov	r3, r1
 1252 0540 5046     		mov	r0, r10
 1253 0542 5946     		mov	r1, fp
 1254 0544 FFF7FEFF 		bl	__aeabi_dsub
 1255              	.LVL192:
 1256 0548 013F     		subs	r7, r7, #1
 1257              	.LVL193:
 154:../../source/src/user/OS_LIB/myMicroLIB.c **** 	                    {
 1258              		.loc 1 154 0
 1259 054a 17F0FF07 		ands	r7, r7, #255
 160:../../source/src/user/OS_LIB/myMicroLIB.c **** 	                    }
 1260              		.loc 1 160 0
 1261 054e 8046     		mov	r8, r0
 1262              	.LVL194:
 1263 0550 8946     		mov	r9, r1
 1264              	.LVL195:
 154:../../source/src/user/OS_LIB/myMicroLIB.c **** 	                    {
 1265              		.loc 1 154 0
 1266 0552 3FF412AE 		beq	.L47
 1267              	.L65:
 1268              	.LVL196:
 156:../../source/src/user/OS_LIB/myMicroLIB.c **** 	                    	val = (int)val_f;
 1269              		.loc 1 156 0
 1270 0556 494B     		ldr	r3, .L189
 1271 0558 4046     		mov	r0, r8
 1272 055a 0022     		movs	r2, #0
 1273 055c 4946     		mov	r1, r9
 1274 055e FFF7FEFF 		bl	__aeabi_dmul
 1275              	.LVL197:
 1276 0562 8246     		mov	r10, r0
 1277 0564 8B46     		mov	fp, r1
 1278              	.LVL198:
 157:../../source/src/user/OS_LIB/myMicroLIB.c **** 	                    	ASSERT(val<10 && val>-10);
 1279              		.loc 1 157 0
 1280 0566 FFF7FEFF 		bl	__aeabi_d2iz
 1281              	.LVL199:
 158:../../source/src/user/OS_LIB/myMicroLIB.c **** 	                    	ka_putchar(val + '0');
 1282              		.loc 1 158 0
 1283 056a 00F10903 		add	r3, r0, #9
 1284 056e 122B     		cmp	r3, #18
 157:../../source/src/user/OS_LIB/myMicroLIB.c **** 	                    	ASSERT(val<10 && val>-10);
 1285              		.loc 1 157 0
 1286 0570 8046     		mov	r8, r0
 1287              	.LVL200:
 158:../../source/src/user/OS_LIB/myMicroLIB.c **** 	                    	ka_putchar(val + '0');
 1288              		.loc 1 158 0
 1289 0572 DBD9     		bls	.L64
 158:../../source/src/user/OS_LIB/myMicroLIB.c **** 	                    	ka_putchar(val + '0');
 1290              		.loc 1 158 0 is_stmt 0 discriminator 1
 1291 0574 9E21     		movs	r1, #158
 1292 0576 4248     		ldr	r0, .L189+4
 1293              	.LVL201:
 1294 0578 FFF7FEFF 		bl	_ASSERT
 1295              	.LVL202:
 1296 057c D6E7     		b	.L64
 1297              	.LVL203:
ARM GAS  G:\Users\Jaxb\AppData\Local\Temp\cci3ToTS.s 			page 33


 1298              	.L35:
 299:../../source/src/user/OS_LIB/myMicroLIB.c **** 	                    	;
 1299              		.loc 1 299 0 is_stmt 1 discriminator 1
 1300 057e 40F22B11 		movw	r1, #299
 1301 0582 3F48     		ldr	r0, .L189+4
 1302 0584 FFF7FEFF 		bl	_ASSERT
 1303              	.LVL204:
 1304 0588 F7E5     		b	.L47
 1305              	.L180:
 198:../../source/src/user/OS_LIB/myMicroLIB.c **** 				 			break;
 1306              		.loc 1 198 0
 1307 058a 3020     		movs	r0, #48
 1308 058c FFF7FEFF 		bl	ka_putchar
 1309              	.LVL205:
 199:../../source/src/user/OS_LIB/myMicroLIB.c **** 				 		} 
 1310              		.loc 1 199 0
 1311 0590 F3E5     		b	.L47
 1312              	.LVL206:
 1313              	.L59:
 145:../../source/src/user/OS_LIB/myMicroLIB.c **** 	                          r_val %= ka_pow(10,count - 1); 
 1314              		.loc 1 145 0
 1315 0592 F8B2     		uxtb	r0, r7
 1316              	.LVL207:
 1317 0594 0027     		movs	r7, #0
 1318              	.LVL208:
 1319 0596 BCE7     		b	.L106
 1320              	.LVL209:
 1321              	.L112:
  79:../../source/src/user/OS_LIB/myMicroLIB.c **** 	int buffer;
 1322              		.loc 1 79 0
 1323 0598 3E46     		mov	r6, r7
 317:../../source/src/user/OS_LIB/myMicroLIB.c **** 
 1324              		.loc 1 317 0
 1325 059a F1E5     		b	.L30
 1326              	.LVL210:
 1327              	.L116:
 1328 059c 4346     		mov	r3, r8
 228:../../source/src/user/OS_LIB/myMicroLIB.c **** 	                    while(r_val)  
 1329              		.loc 1 228 0
 1330 059e 0027     		movs	r7, #0
 1331              	.L80:
 1332              	.LVL211:
 232:../../source/src/user/OS_LIB/myMicroLIB.c **** 	                    }
 1333              		.loc 1 232 0
 1334 05a0 002B     		cmp	r3, #0
 1335 05a2 B8BF     		it	lt
 1336 05a4 0F33     		addlt	r3, r3, #15
 1337              	.LVL212:
 231:../../source/src/user/OS_LIB/myMicroLIB.c **** 	                         r_val /= 16;   
 1338              		.loc 1 231 0
 1339 05a6 0137     		adds	r7, r7, #1
 1340              	.LVL213:
 229:../../source/src/user/OS_LIB/myMicroLIB.c **** 	                    {   
 1341              		.loc 1 229 0
 1342 05a8 1B11     		asrs	r3, r3, #4
 231:../../source/src/user/OS_LIB/myMicroLIB.c **** 	                         r_val /= 16;   
 1343              		.loc 1 231 0
ARM GAS  G:\Users\Jaxb\AppData\Local\Temp\cci3ToTS.s 			page 34


 1344 05aa FFB2     		uxtb	r7, r7
 1345              	.LVL214:
 229:../../source/src/user/OS_LIB/myMicroLIB.c **** 	                    {   
 1346              		.loc 1 229 0
 1347 05ac F8D1     		bne	.L80
 236:../../source/src/user/OS_LIB/myMicroLIB.c **** 	                    ka_putchar('x');
 1348              		.loc 1 236 0
 1349 05ae 3020     		movs	r0, #48
 1350 05b0 FFF7FEFF 		bl	ka_putchar
 1351              	.LVL215:
 237:../../source/src/user/OS_LIB/myMicroLIB.c **** 	                    while(count)   
 1352              		.loc 1 237 0
 1353 05b4 7820     		movs	r0, #120
 234:../../source/src/user/OS_LIB/myMicroLIB.c **** 	                    r_val = val; 
 1354              		.loc 1 234 0
 1355 05b6 3E44     		add	r6, r6, r7
 1356              	.LVL216:
 237:../../source/src/user/OS_LIB/myMicroLIB.c **** 	                    while(count)   
 1357              		.loc 1 237 0
 1358 05b8 FFF7FEFF 		bl	ka_putchar
 1359              	.LVL217:
 238:../../source/src/user/OS_LIB/myMicroLIB.c **** 	                    {   
 1360              		.loc 1 238 0
 1361 05bc 002F     		cmp	r7, #0
 1362 05be 3FF4DCAD 		beq	.L47
 1363              	.LVL218:
 1364              	.L88:
 1365              	.LBB69:
 1366              	.LBB70:
  11:../../source/src/user/OS_LIB/myMicroLIB.c **** 	{
 1367              		.loc 1 11 0
 1368 05c2 012F     		cmp	r7, #1
 1369 05c4 A7F10202 		sub	r2, r7, #2
 1370              	.LVL219:
 1371 05c8 1FD0     		beq	.L82
 1372 05ca 1146     		mov	r1, r2
  10:../../source/src/user/OS_LIB/myMicroLIB.c **** 	while(y--)
 1373              		.loc 1 10 0
 1374 05cc 0123     		movs	r3, #1
 1375              	.LVL220:
 1376              	.L83:
  11:../../source/src/user/OS_LIB/myMicroLIB.c **** 	{
 1377              		.loc 1 11 0
 1378 05ce 0139     		subs	r1, r1, #1
 1379              	.LVL221:
 1380 05d0 481C     		adds	r0, r1, #1
  13:../../source/src/user/OS_LIB/myMicroLIB.c **** 	}
 1381              		.loc 1 13 0
 1382 05d2 4FEA0313 		lsl	r3, r3, #4
 1383              	.LVL222:
  11:../../source/src/user/OS_LIB/myMicroLIB.c **** 	{
 1384              		.loc 1 11 0
 1385 05d6 FAD1     		bne	.L83
 1386              	.LVL223:
 1387              	.LBE70:
 1388              	.LBE69:
 240:../../source/src/user/OS_LIB/myMicroLIB.c **** 	                        r_val %= ka_pow(16, count - 1);  
ARM GAS  G:\Users\Jaxb\AppData\Local\Temp\cci3ToTS.s 			page 35


 1389              		.loc 1 240 0
 1390 05d8 B8FBF3F3 		udiv	r3, r8, r3
 1391              	.LBB71:
 1392              	.LBB72:
  10:../../source/src/user/OS_LIB/myMicroLIB.c **** 	while(y--)
 1393              		.loc 1 10 0
 1394 05dc 0121     		movs	r1, #1
 1395              	.LBE72:
 1396              	.LBE71:
 240:../../source/src/user/OS_LIB/myMicroLIB.c **** 	                        r_val %= ka_pow(16, count - 1);  
 1397              		.loc 1 240 0
 1398 05de DBB2     		uxtb	r3, r3
 1399              	.LVL224:
 1400              	.L85:
 1401              	.LBB74:
 1402              	.LBB73:
  11:../../source/src/user/OS_LIB/myMicroLIB.c **** 	{
 1403              		.loc 1 11 0
 1404 05e0 013A     		subs	r2, r2, #1
 1405 05e2 501C     		adds	r0, r2, #1
  13:../../source/src/user/OS_LIB/myMicroLIB.c **** 	}
 1406              		.loc 1 13 0
 1407 05e4 4FEA0111 		lsl	r1, r1, #4
 1408              	.LVL225:
  11:../../source/src/user/OS_LIB/myMicroLIB.c **** 	{
 1409              		.loc 1 11 0
 1410 05e8 FAD1     		bne	.L85
 1411 05ea B8FBF1F2 		udiv	r2, r8, r1
 1412 05ee 01FB1288 		mls	r8, r1, r2, r8
 1413              	.LVL226:
 1414              	.L109:
 1415              	.LBE73:
 1416              	.LBE74:
 242:../../source/src/user/OS_LIB/myMicroLIB.c **** 	                            ka_putchar(ch + '0');
 1417              		.loc 1 242 0
 1418 05f2 092B     		cmp	r3, #9
 243:../../source/src/user/OS_LIB/myMicroLIB.c **** 	                        else   
 1419              		.loc 1 243 0
 1420 05f4 94BF     		ite	ls
 1421 05f6 03F13000 		addls	r0, r3, #48
 245:../../source/src/user/OS_LIB/myMicroLIB.c **** 	                        count--;  
 1422              		.loc 1 245 0
 1423 05fa 03F15700 		addhi	r0, r3, #87
 1424 05fe C0B2     		uxtb	r0, r0
 1425 0600 FFF7FEFF 		bl	ka_putchar
 1426              	.LVL227:
 238:../../source/src/user/OS_LIB/myMicroLIB.c **** 	                    {   
 1427              		.loc 1 238 0
 1428 0604 013F     		subs	r7, r7, #1
 1429              	.LVL228:
 1430 0606 DCD1     		bne	.L88
 1431 0608 B7E5     		b	.L47
 1432              	.LVL229:
 1433              	.L82:
 240:../../source/src/user/OS_LIB/myMicroLIB.c **** 	                        r_val %= ka_pow(16, count - 1);  
 1434              		.loc 1 240 0
 1435 060a 5FFA88F3 		uxtb	r3, r8
ARM GAS  G:\Users\Jaxb\AppData\Local\Temp\cci3ToTS.s 			page 36


 1436              	.LVL230:
 1437 060e 4FF00008 		mov	r8, #0
 1438              	.LVL231:
 1439 0612 EEE7     		b	.L109
 1440              	.LVL232:
 1441              	.L69:
 187:../../source/src/user/OS_LIB/myMicroLIB.c **** 	                          r_val_l %= ka_pow(10,count - 1); 
 1442              		.loc 1 187 0
 1443 0614 5FFA88FB 		uxtb	fp, r8
 1444              	.LVL233:
 1445 0618 4FF00009 		mov	r9, #0
 1446 061c 4FF00008 		mov	r8, #0
 1447              	.LVL234:
 1448 0620 19E6     		b	.L107
 1449              	.LVL235:
 1450              	.L75:
 212:../../source/src/user/OS_LIB/myMicroLIB.c **** 	                          r_val1 %= ka_pow(10,count - 1); 
 1451              		.loc 1 212 0
 1452 0622 5FFA88F3 		uxtb	r3, r8
 1453              	.LVL236:
 1454 0626 4FF00008 		mov	r8, #0
 1455              	.LVL237:
 1456 062a 07E7     		b	.L108
 1457              	.LVL238:
 1458              	.L50:
 114:../../source/src/user/OS_LIB/myMicroLIB.c **** 	                          r_val %= ka_pow(10,count - 1); 
 1459              		.loc 1 114 0
 1460 062c 5FFA88F3 		uxtb	r3, r8
 1461              	.LVL239:
 1462 0630 4FF00008 		mov	r8, #0
 1463              	.LVL240:
 1464 0634 C8E6     		b	.L105
 1465              	.LVL241:
 1466              	.L186:
 132:../../source/src/user/OS_LIB/myMicroLIB.c **** 				 		} 
 1467              		.loc 1 132 0
 1468 0636 3020     		movs	r0, #48
 1469 0638 FFF7FEFF 		bl	ka_putchar
 1470              	.LVL242:
 1471 063c 71E7     		b	.L58
 1472              	.LVL243:
 1473              	.L185:
 125:../../source/src/user/OS_LIB/myMicroLIB.c **** 	                		val_f = -val_f;
 1474              		.loc 1 125 0
 1475 063e 2D20     		movs	r0, #45
 1476 0640 FFF7FEFF 		bl	ka_putchar
 1477              	.LVL244:
 126:../../source/src/user/OS_LIB/myMicroLIB.c **** 	                	}
 1478              		.loc 1 126 0
 1479 0644 08F10048 		add	r8, r8, #-2147483648
 1480              	.LVL245:
 1481 0648 1AE7     		b	.L55
 1482              	.LVL246:
 1483              	.L92:
 279:../../source/src/user/OS_LIB/myMicroLIB.c **** 	                    ka_putchar('x');
 1484              		.loc 1 279 0
 1485 064a 3020     		movs	r0, #48
ARM GAS  G:\Users\Jaxb\AppData\Local\Temp\cci3ToTS.s 			page 37


 1486 064c FFF7FEFF 		bl	ka_putchar
 1487              	.LVL247:
 280:../../source/src/user/OS_LIB/myMicroLIB.c **** 	                    buffer = 8-count;
 1488              		.loc 1 280 0
 1489 0650 7820     		movs	r0, #120
 1490 0652 FFF7FEFF 		bl	ka_putchar
 1491              	.LVL248:
 271:../../source/src/user/OS_LIB/myMicroLIB.c **** 	                    while(r_val)  
 1492              		.loc 1 271 0
 1493 0656 B846     		mov	r8, r7
 282:../../source/src/user/OS_LIB/myMicroLIB.c **** 	                    {
 1494              		.loc 1 282 0
 1495 0658 4FF00709 		mov	r9, #7
 1496 065c 23E6     		b	.L96
 1497              	.LVL249:
 1498              	.L184:
 100:../../source/src/user/OS_LIB/myMicroLIB.c **** 							val = -val;
 1499              		.loc 1 100 0
 1500 065e 2D20     		movs	r0, #45
 1501 0660 FFF7FEFF 		bl	ka_putchar
 1502              	.LVL250:
 101:../../source/src/user/OS_LIB/myMicroLIB.c **** 						}
 1503              		.loc 1 101 0
 1504 0664 C8F10008 		rsb	r8, r8, #0
 1505              	.LVL251:
 1506 0668 82E6     		b	.L48
 1507              	.LVL252:
 1508              	.L182:
 173:../../source/src/user/OS_LIB/myMicroLIB.c **** 				 			ka_putchar('-');
 1509              		.loc 1 173 0
 1510 066a D8F10008 		rsbs	r8, r8, #0
 174:../../source/src/user/OS_LIB/myMicroLIB.c **** 				 		}
 1511              		.loc 1 174 0
 1512 066e 4FF02D00 		mov	r0, #45
 173:../../source/src/user/OS_LIB/myMicroLIB.c **** 				 			ka_putchar('-');
 1513              		.loc 1 173 0
 1514 0672 69EB4909 		sbc	r9, r9, r9, lsl #1
 1515              	.LVL253:
 174:../../source/src/user/OS_LIB/myMicroLIB.c **** 				 		}
 1516              		.loc 1 174 0
 1517 0676 FFF7FEFF 		bl	ka_putchar
 1518              	.LVL254:
 1519 067a B4E5     		b	.L67
 1520              	.L190:
 1521              		.align	2
 1522              	.L189:
 1523 067c 00002440 		.word	1076101120
 1524 0680 00000000 		.word	.LC0
 1525              		.cfi_endproc
 1526              	.LFE34:
 1527              		.size	ka_printf, .-ka_printf
 1528              		.align	1
 1529              		.p2align 2,,3
 1530              		.global	ka_strncmp
 1531              		.syntax unified
 1532              		.thumb
 1533              		.thumb_func
ARM GAS  G:\Users\Jaxb\AppData\Local\Temp\cci3ToTS.s 			page 38


 1534              		.fpu softvfp
 1535              		.type	ka_strncmp, %function
 1536              	ka_strncmp:
 1537              	.LFB35:
 320:../../source/src/user/OS_LIB/myMicroLIB.c **** 
 321:../../source/src/user/OS_LIB/myMicroLIB.c **** int ka_strncmp(const char * str1, const char * str2, int num)
 322:../../source/src/user/OS_LIB/myMicroLIB.c **** {
 1538              		.loc 1 322 0
 1539              		.cfi_startproc
 1540              		@ args = 0, pretend = 0, frame = 0
 1541              		@ frame_needed = 0, uses_anonymous_args = 0
 1542              		@ link register save eliminated.
 1543              	.LVL255:
 1544 0684 10B4     		push	{r4}
 1545              	.LCFI12:
 1546              		.cfi_def_cfa_offset 4
 1547              		.cfi_offset 4, -4
 323:../../source/src/user/OS_LIB/myMicroLIB.c **** 	if(0 == num)
 1548              		.loc 1 323 0
 1549 0686 6AB1     		cbz	r2, .L191
 324:../../source/src/user/OS_LIB/myMicroLIB.c **** 	{
 325:../../source/src/user/OS_LIB/myMicroLIB.c **** 		return 0;
 326:../../source/src/user/OS_LIB/myMicroLIB.c **** 	}
 327:../../source/src/user/OS_LIB/myMicroLIB.c **** 	while(*str1 == *str2)
 1550              		.loc 1 327 0
 1551 0688 0378     		ldrb	r3, [r0]	@ zero_extendqisi2
 1552 068a 0C78     		ldrb	r4, [r1]	@ zero_extendqisi2
 1553 068c A342     		cmp	r3, r4
 1554 068e 07D0     		beq	.L195
 1555 0690 0BE0     		b	.L193
 1556              	.LVL256:
 1557              	.L208:
 328:../../source/src/user/OS_LIB/myMicroLIB.c **** 	{
 329:../../source/src/user/OS_LIB/myMicroLIB.c **** 		if((0 == --num) || ('\0' == *str1))
 1558              		.loc 1 329 0 discriminator 1
 1559 0692 73B1     		cbz	r3, .L198
 1560              	.LVL257:
 327:../../source/src/user/OS_LIB/myMicroLIB.c **** 	{
 1561              		.loc 1 327 0
 1562 0694 10F8013F 		ldrb	r3, [r0, #1]!	@ zero_extendqisi2
 1563              	.LVL258:
 1564 0698 11F8014F 		ldrb	r4, [r1, #1]!	@ zero_extendqisi2
 1565 069c A342     		cmp	r3, r4
 1566 069e 04D1     		bne	.L193
 1567              	.LVL259:
 1568              	.L195:
 1569              		.loc 1 329 0
 1570 06a0 013A     		subs	r2, r2, #1
 1571              	.LVL260:
 1572 06a2 F6D1     		bne	.L208
 1573              	.LVL261:
 1574              	.L191:
 330:../../source/src/user/OS_LIB/myMicroLIB.c **** 		{
 331:../../source/src/user/OS_LIB/myMicroLIB.c **** 			return 0;
 332:../../source/src/user/OS_LIB/myMicroLIB.c **** 		}
 333:../../source/src/user/OS_LIB/myMicroLIB.c **** 		++str1;
 334:../../source/src/user/OS_LIB/myMicroLIB.c **** 		++str2;
ARM GAS  G:\Users\Jaxb\AppData\Local\Temp\cci3ToTS.s 			page 39


 335:../../source/src/user/OS_LIB/myMicroLIB.c **** 	}
 336:../../source/src/user/OS_LIB/myMicroLIB.c **** 	return *str1 - *str2;
 337:../../source/src/user/OS_LIB/myMicroLIB.c **** }
 1575              		.loc 1 337 0
 1576 06a4 1046     		mov	r0, r2
 1577 06a6 10BC     		pop	{r4}
 1578              	.LCFI13:
 1579              		.cfi_remember_state
 1580              		.cfi_restore 4
 1581              		.cfi_def_cfa_offset 0
 1582 06a8 7047     		bx	lr
 1583              	.LVL262:
 1584              	.L193:
 1585              	.LCFI14:
 1586              		.cfi_restore_state
 336:../../source/src/user/OS_LIB/myMicroLIB.c **** }
 1587              		.loc 1 336 0
 1588 06aa 1A1B     		subs	r2, r3, r4
 1589              	.LVL263:
 1590              		.loc 1 337 0
 1591 06ac 1046     		mov	r0, r2
 1592 06ae 10BC     		pop	{r4}
 1593              	.LCFI15:
 1594              		.cfi_remember_state
 1595              		.cfi_restore 4
 1596              		.cfi_def_cfa_offset 0
 1597 06b0 7047     		bx	lr
 1598              	.LVL264:
 1599              	.L198:
 1600              	.LCFI16:
 1601              		.cfi_restore_state
 325:../../source/src/user/OS_LIB/myMicroLIB.c **** 	}
 1602              		.loc 1 325 0
 1603 06b2 1A46     		mov	r2, r3
 1604              	.LVL265:
 1605              		.loc 1 337 0
 1606 06b4 10BC     		pop	{r4}
 1607              	.LCFI17:
 1608              		.cfi_restore 4
 1609              		.cfi_def_cfa_offset 0
 1610 06b6 1046     		mov	r0, r2
 1611 06b8 7047     		bx	lr
 1612              		.cfi_endproc
 1613              	.LFE35:
 1614              		.size	ka_strncmp, .-ka_strncmp
 1615              		.align	1
 1616 06ba 00BF     		.p2align 2,,3
 1617              		.global	ka_memset
 1618              		.syntax unified
 1619              		.thumb
 1620              		.thumb_func
 1621              		.fpu softvfp
 1622              		.type	ka_memset, %function
 1623              	ka_memset:
 1624              	.LFB36:
 338:../../source/src/user/OS_LIB/myMicroLIB.c **** 
 339:../../source/src/user/OS_LIB/myMicroLIB.c **** void ka_memset(void *s,const int ch, int n)
ARM GAS  G:\Users\Jaxb\AppData\Local\Temp\cci3ToTS.s 			page 40


 340:../../source/src/user/OS_LIB/myMicroLIB.c **** {
 1625              		.loc 1 340 0
 1626              		.cfi_startproc
 1627              		@ args = 0, pretend = 0, frame = 0
 1628              		@ frame_needed = 0, uses_anonymous_args = 0
 1629              		@ link register save eliminated.
 1630              	.LVL266:
 341:../../source/src/user/OS_LIB/myMicroLIB.c **** 	char *ptr = (char *)s;
 342:../../source/src/user/OS_LIB/myMicroLIB.c **** 	const char buffer = (char)ch;
 1631              		.loc 1 342 0
 1632 06bc C9B2     		uxtb	r1, r1
 1633              	.LVL267:
 343:../../source/src/user/OS_LIB/myMicroLIB.c **** 	while(n--)
 1634              		.loc 1 343 0
 1635 06be 22B1     		cbz	r2, .L209
 1636 06c0 0244     		add	r2, r2, r0
 1637              	.LVL268:
 1638              	.L211:
 344:../../source/src/user/OS_LIB/myMicroLIB.c **** 	{
 345:../../source/src/user/OS_LIB/myMicroLIB.c **** 		*ptr++ = buffer;
 1639              		.loc 1 345 0
 1640 06c2 00F8011B 		strb	r1, [r0], #1
 1641              	.LVL269:
 343:../../source/src/user/OS_LIB/myMicroLIB.c **** 	while(n--)
 1642              		.loc 1 343 0
 1643 06c6 8242     		cmp	r2, r0
 1644 06c8 FBD1     		bne	.L211
 1645              	.LVL270:
 1646              	.L209:
 346:../../source/src/user/OS_LIB/myMicroLIB.c **** 	}
 347:../../source/src/user/OS_LIB/myMicroLIB.c **** }
 1647              		.loc 1 347 0
 1648 06ca 7047     		bx	lr
 1649              		.cfi_endproc
 1650              	.LFE36:
 1651              		.size	ka_memset, .-ka_memset
 1652              		.align	1
 1653              		.p2align 2,,3
 1654              		.global	ka_strcpy
 1655              		.syntax unified
 1656              		.thumb
 1657              		.thumb_func
 1658              		.fpu softvfp
 1659              		.type	ka_strcpy, %function
 1660              	ka_strcpy:
 1661              	.LFB37:
 348:../../source/src/user/OS_LIB/myMicroLIB.c **** 
 349:../../source/src/user/OS_LIB/myMicroLIB.c **** void ka_strcpy(char *strDest, const char *strSrc)
 350:../../source/src/user/OS_LIB/myMicroLIB.c **** {
 1662              		.loc 1 350 0
 1663              		.cfi_startproc
 1664              		@ args = 0, pretend = 0, frame = 0
 1665              		@ frame_needed = 0, uses_anonymous_args = 0
 1666              		@ link register save eliminated.
 1667              	.LVL271:
 351:../../source/src/user/OS_LIB/myMicroLIB.c **** 	if(!(strDest && strSrc))
 1668              		.loc 1 351 0
ARM GAS  G:\Users\Jaxb\AppData\Local\Temp\cci3ToTS.s 			page 41


 1669 06cc 38B1     		cbz	r0, .L216
 1670              		.loc 1 351 0 is_stmt 0 discriminator 1
 1671 06ce 31B1     		cbz	r1, .L216
 1672 06d0 0138     		subs	r0, r0, #1
 1673              	.LVL272:
 1674              	.L218:
 352:../../source/src/user/OS_LIB/myMicroLIB.c **** 		return;
 353:../../source/src/user/OS_LIB/myMicroLIB.c **** 	//while((*strDest++ = *strSrc++));
 354:../../source/src/user/OS_LIB/myMicroLIB.c **** 	while((*strDest++ = *strSrc++));
 1675              		.loc 1 354 0 is_stmt 1 discriminator 1
 1676 06d2 11F8013B 		ldrb	r3, [r1], #1	@ zero_extendqisi2
 1677              	.LVL273:
 1678 06d6 00F8013F 		strb	r3, [r0, #1]!
 1679 06da 002B     		cmp	r3, #0
 1680 06dc F9D1     		bne	.L218
 1681              	.LVL274:
 1682              	.L216:
 355:../../source/src/user/OS_LIB/myMicroLIB.c **** }
 1683              		.loc 1 355 0
 1684 06de 7047     		bx	lr
 1685              		.cfi_endproc
 1686              	.LFE37:
 1687              		.size	ka_strcpy, .-ka_strcpy
 1688              		.align	1
 1689              		.p2align 2,,3
 1690              		.global	ka_atoi
 1691              		.syntax unified
 1692              		.thumb
 1693              		.thumb_func
 1694              		.fpu softvfp
 1695              		.type	ka_atoi, %function
 1696              	ka_atoi:
 1697              	.LFB38:
 356:../../source/src/user/OS_LIB/myMicroLIB.c **** 
 357:../../source/src/user/OS_LIB/myMicroLIB.c **** int ka_atoi(const char *char_ptr)
 358:../../source/src/user/OS_LIB/myMicroLIB.c **** {
 1698              		.loc 1 358 0
 1699              		.cfi_startproc
 1700              		@ args = 0, pretend = 0, frame = 0
 1701              		@ frame_needed = 0, uses_anonymous_args = 0
 1702              		@ link register save eliminated.
 1703              	.LVL275:
 1704 06e0 10B4     		push	{r4}
 1705              	.LCFI18:
 1706              		.cfi_def_cfa_offset 4
 1707              		.cfi_offset 4, -4
 359:../../source/src/user/OS_LIB/myMicroLIB.c **** 	int num = 0;
 360:../../source/src/user/OS_LIB/myMicroLIB.c **** 	int sign = 1;
 361:../../source/src/user/OS_LIB/myMicroLIB.c **** 	if(NULL == char_ptr)
 1708              		.loc 1 361 0
 1709 06e2 F8B1     		cbz	r0, .L226
 362:../../source/src/user/OS_LIB/myMicroLIB.c **** 	{
 363:../../source/src/user/OS_LIB/myMicroLIB.c **** 		return 0;
 364:../../source/src/user/OS_LIB/myMicroLIB.c **** 	}
 365:../../source/src/user/OS_LIB/myMicroLIB.c **** 	while(' ' == *char_ptr)
 1710              		.loc 1 365 0
 1711 06e4 0378     		ldrb	r3, [r0]	@ zero_extendqisi2
ARM GAS  G:\Users\Jaxb\AppData\Local\Temp\cci3ToTS.s 			page 42


 1712 06e6 202B     		cmp	r3, #32
 1713 06e8 03D1     		bne	.L228
 1714              	.LVL276:
 1715              	.L229:
 1716 06ea 10F8013F 		ldrb	r3, [r0, #1]!	@ zero_extendqisi2
 1717              	.LVL277:
 1718 06ee 202B     		cmp	r3, #32
 1719 06f0 FBD0     		beq	.L229
 1720              	.LVL278:
 1721              	.L228:
 366:../../source/src/user/OS_LIB/myMicroLIB.c **** 	{
 367:../../source/src/user/OS_LIB/myMicroLIB.c **** 		++char_ptr;
 368:../../source/src/user/OS_LIB/myMicroLIB.c **** 	}
 369:../../source/src/user/OS_LIB/myMicroLIB.c **** 	if('-' == *char_ptr)
 1722              		.loc 1 369 0
 1723 06f2 2D2B     		cmp	r3, #45
 1724 06f4 18D0     		beq	.L241
 370:../../source/src/user/OS_LIB/myMicroLIB.c **** 	{
 371:../../source/src/user/OS_LIB/myMicroLIB.c **** 		sign = -1;
 372:../../source/src/user/OS_LIB/myMicroLIB.c **** 	}
 373:../../source/src/user/OS_LIB/myMicroLIB.c **** 	if(('-' == *char_ptr) || ('+' == *char_ptr))
 1725              		.loc 1 373 0
 1726 06f6 2B2B     		cmp	r3, #43
 360:../../source/src/user/OS_LIB/myMicroLIB.c **** 	if(NULL == char_ptr)
 1727              		.loc 1 360 0
 1728 06f8 4FF00104 		mov	r4, #1
 1729              		.loc 1 373 0
 1730 06fc 16D0     		beq	.L233
 1731              	.LVL279:
 374:../../source/src/user/OS_LIB/myMicroLIB.c **** 	{
 375:../../source/src/user/OS_LIB/myMicroLIB.c **** 		++char_ptr;
 376:../../source/src/user/OS_LIB/myMicroLIB.c **** 	}
 377:../../source/src/user/OS_LIB/myMicroLIB.c **** 	while(IS_NUM(*char_ptr))
 1732              		.loc 1 377 0
 1733 06fe 0278     		ldrb	r2, [r0]	@ zero_extendqisi2
 1734 0700 A2F13001 		sub	r1, r2, #48
 1735 0704 0929     		cmp	r1, #9
 1736 0706 17D8     		bhi	.L236
 1737              	.L242:
 1738 0708 0023     		movs	r3, #0
 1739              	.LVL280:
 1740              	.L232:
 378:../../source/src/user/OS_LIB/myMicroLIB.c **** 	{
 379:../../source/src/user/OS_LIB/myMicroLIB.c **** 		num = 10 * num + *char_ptr - '0';
 1741              		.loc 1 379 0
 1742 070a 03EB8303 		add	r3, r3, r3, lsl #2
 1743              	.LVL281:
 1744 070e 02EB4303 		add	r3, r2, r3, lsl #1
 377:../../source/src/user/OS_LIB/myMicroLIB.c **** 	{
 1745              		.loc 1 377 0
 1746 0712 10F8012F 		ldrb	r2, [r0, #1]!	@ zero_extendqisi2
 1747              	.LVL282:
 1748              		.loc 1 379 0
 1749 0716 303B     		subs	r3, r3, #48
 1750              	.LVL283:
 377:../../source/src/user/OS_LIB/myMicroLIB.c **** 	{
 1751              		.loc 1 377 0
ARM GAS  G:\Users\Jaxb\AppData\Local\Temp\cci3ToTS.s 			page 43


 1752 0718 A2F13001 		sub	r1, r2, #48
 1753 071c 0929     		cmp	r1, #9
 1754 071e F4D9     		bls	.L232
 1755 0720 04FB03F0 		mul	r0, r4, r3
 1756              	.LVL284:
 1757              	.L226:
 380:../../source/src/user/OS_LIB/myMicroLIB.c **** 		++char_ptr;
 381:../../source/src/user/OS_LIB/myMicroLIB.c **** 	}
 382:../../source/src/user/OS_LIB/myMicroLIB.c **** 	return (sign*num);
 383:../../source/src/user/OS_LIB/myMicroLIB.c **** }
 1758              		.loc 1 383 0
 1759 0724 10BC     		pop	{r4}
 1760              	.LCFI19:
 1761              		.cfi_remember_state
 1762              		.cfi_restore 4
 1763              		.cfi_def_cfa_offset 0
 1764 0726 7047     		bx	lr
 1765              	.LVL285:
 1766              	.L241:
 1767              	.LCFI20:
 1768              		.cfi_restore_state
 371:../../source/src/user/OS_LIB/myMicroLIB.c **** 	}
 1769              		.loc 1 371 0
 1770 0728 4FF0FF34 		mov	r4, #-1
 1771              	.L233:
 375:../../source/src/user/OS_LIB/myMicroLIB.c **** 	}
 1772              		.loc 1 375 0
 1773 072c 0130     		adds	r0, r0, #1
 1774              	.LVL286:
 377:../../source/src/user/OS_LIB/myMicroLIB.c **** 	{
 1775              		.loc 1 377 0
 1776 072e 0278     		ldrb	r2, [r0]	@ zero_extendqisi2
 1777 0730 A2F13001 		sub	r1, r2, #48
 1778 0734 0929     		cmp	r1, #9
 1779 0736 E7D9     		bls	.L242
 1780              	.L236:
 1781 0738 0020     		movs	r0, #0
 1782              	.LVL287:
 1783              		.loc 1 383 0
 1784 073a 10BC     		pop	{r4}
 1785              	.LCFI21:
 1786              		.cfi_restore 4
 1787              		.cfi_def_cfa_offset 0
 1788 073c 7047     		bx	lr
 1789              		.cfi_endproc
 1790              	.LFE38:
 1791              		.size	ka_atoi, .-ka_atoi
 1792              		.global	__aeabi_dadd
 1793              		.global	__aeabi_ddiv
 1794              		.align	1
 1795 073e 00BF     		.p2align 2,,3
 1796              		.global	ka_atof
 1797              		.syntax unified
 1798              		.thumb
 1799              		.thumb_func
 1800              		.fpu softvfp
 1801              		.type	ka_atof, %function
ARM GAS  G:\Users\Jaxb\AppData\Local\Temp\cci3ToTS.s 			page 44


 1802              	ka_atof:
 1803              	.LFB39:
 384:../../source/src/user/OS_LIB/myMicroLIB.c **** 
 385:../../source/src/user/OS_LIB/myMicroLIB.c **** double ka_atof(const char *char_ptr)
 386:../../source/src/user/OS_LIB/myMicroLIB.c **** {
 1804              		.loc 1 386 0
 1805              		.cfi_startproc
 1806              		@ args = 0, pretend = 0, frame = 8
 1807              		@ frame_needed = 0, uses_anonymous_args = 0
 1808              	.LVL288:
 1809 0740 2DE9F04F 		push	{r4, r5, r6, r7, r8, r9, r10, fp, lr}
 1810              	.LCFI22:
 1811              		.cfi_def_cfa_offset 36
 1812              		.cfi_offset 4, -36
 1813              		.cfi_offset 5, -32
 1814              		.cfi_offset 6, -28
 1815              		.cfi_offset 7, -24
 1816              		.cfi_offset 8, -20
 1817              		.cfi_offset 9, -16
 1818              		.cfi_offset 10, -12
 1819              		.cfi_offset 11, -8
 1820              		.cfi_offset 14, -4
 387:../../source/src/user/OS_LIB/myMicroLIB.c **** 	double num = 0.0;
 388:../../source/src/user/OS_LIB/myMicroLIB.c **** 	int sign = 1;
 389:../../source/src/user/OS_LIB/myMicroLIB.c **** 	double divisor = 10.0;
 390:../../source/src/user/OS_LIB/myMicroLIB.c **** 	if(NULL == char_ptr)
 1821              		.loc 1 390 0
 1822 0744 8246     		mov	r10, r0
 386:../../source/src/user/OS_LIB/myMicroLIB.c **** 	double num = 0.0;
 1823              		.loc 1 386 0
 1824 0746 83B0     		sub	sp, sp, #12
 1825              	.LCFI23:
 1826              		.cfi_def_cfa_offset 48
 1827              		.loc 1 390 0
 1828 0748 0028     		cmp	r0, #0
 1829 074a 76D0     		beq	.L255
 391:../../source/src/user/OS_LIB/myMicroLIB.c **** 	{
 392:../../source/src/user/OS_LIB/myMicroLIB.c **** 		return 0.0;
 393:../../source/src/user/OS_LIB/myMicroLIB.c **** 	}
 394:../../source/src/user/OS_LIB/myMicroLIB.c **** 	while(' ' == *char_ptr)
 1830              		.loc 1 394 0
 1831 074c 0378     		ldrb	r3, [r0]	@ zero_extendqisi2
 1832 074e 202B     		cmp	r3, #32
 1833 0750 03D1     		bne	.L245
 1834              	.LVL289:
 1835              	.L246:
 1836 0752 1AF8013F 		ldrb	r3, [r10, #1]!	@ zero_extendqisi2
 1837              	.LVL290:
 1838 0756 202B     		cmp	r3, #32
 1839 0758 FBD0     		beq	.L246
 1840              	.LVL291:
 1841              	.L245:
 395:../../source/src/user/OS_LIB/myMicroLIB.c **** 	{
 396:../../source/src/user/OS_LIB/myMicroLIB.c **** 		++char_ptr;
 397:../../source/src/user/OS_LIB/myMicroLIB.c **** 	}
 398:../../source/src/user/OS_LIB/myMicroLIB.c **** 	if('-' == *char_ptr)
 1842              		.loc 1 398 0
ARM GAS  G:\Users\Jaxb\AppData\Local\Temp\cci3ToTS.s 			page 45


 1843 075a 2D2B     		cmp	r3, #45
 1844 075c 3DD0     		beq	.L262
 399:../../source/src/user/OS_LIB/myMicroLIB.c **** 	{
 400:../../source/src/user/OS_LIB/myMicroLIB.c **** 		sign = -1;
 401:../../source/src/user/OS_LIB/myMicroLIB.c **** 	}
 402:../../source/src/user/OS_LIB/myMicroLIB.c **** 	if(('-' == *char_ptr) || ('+' == *char_ptr))
 1845              		.loc 1 402 0
 1846 075e 2B2B     		cmp	r3, #43
 1847 0760 4FF00003 		mov	r3, #0
 1848 0764 374C     		ldr	r4, .L263
 1849 0766 CDE90034 		strd	r3, [sp]
 1850 076a 3AD0     		beq	.L253
 1851              	.L254:
 1852              	.LVL292:
 403:../../source/src/user/OS_LIB/myMicroLIB.c **** 	{
 404:../../source/src/user/OS_LIB/myMicroLIB.c **** 		++char_ptr;
 405:../../source/src/user/OS_LIB/myMicroLIB.c **** 	}
 406:../../source/src/user/OS_LIB/myMicroLIB.c **** 	while(IS_NUM(*char_ptr))
 1853              		.loc 1 406 0
 1854 076c 9AF800B0 		ldrb	fp, [r10]	@ zero_extendqisi2
 1855 0770 4FF00008 		mov	r8, #0
 1856 0774 ABF13003 		sub	r3, fp, #48
 1857 0778 092B     		cmp	r3, #9
 1858 077a 4FF00009 		mov	r9, #0
 1859 077e 20D8     		bhi	.L248
 407:../../source/src/user/OS_LIB/myMicroLIB.c **** 	{
 408:../../source/src/user/OS_LIB/myMicroLIB.c **** 		num = divisor * num + *char_ptr - '0';
 1860              		.loc 1 408 0
 1861 0780 0026     		movs	r6, #0
 1862 0782 0024     		movs	r4, #0
 1863 0784 304F     		ldr	r7, .L263+4
 1864 0786 314D     		ldr	r5, .L263+8
 1865              	.LVL293:
 1866              	.L249:
 1867 0788 3246     		mov	r2, r6
 1868 078a 3B46     		mov	r3, r7
 1869 078c 4046     		mov	r0, r8
 1870 078e 4946     		mov	r1, r9
 1871 0790 FFF7FEFF 		bl	__aeabi_dmul
 1872              	.LVL294:
 1873 0794 8046     		mov	r8, r0
 1874              	.LVL295:
 1875 0796 5846     		mov	r0, fp
 1876 0798 8946     		mov	r9, r1
 1877 079a FFF7FEFF 		bl	__aeabi_i2d
 1878              	.LVL296:
 1879 079e 0246     		mov	r2, r0
 1880 07a0 0B46     		mov	r3, r1
 1881 07a2 4046     		mov	r0, r8
 1882 07a4 4946     		mov	r1, r9
 1883 07a6 FFF7FEFF 		bl	__aeabi_dadd
 1884              	.LVL297:
 1885 07aa 2B46     		mov	r3, r5
 1886 07ac 2246     		mov	r2, r4
 1887 07ae FFF7FEFF 		bl	__aeabi_dsub
 1888              	.LVL298:
 406:../../source/src/user/OS_LIB/myMicroLIB.c **** 	{
ARM GAS  G:\Users\Jaxb\AppData\Local\Temp\cci3ToTS.s 			page 46


 1889              		.loc 1 406 0
 1890 07b2 1AF801BF 		ldrb	fp, [r10, #1]!	@ zero_extendqisi2
 1891              	.LVL299:
 1892              		.loc 1 408 0
 1893 07b6 8046     		mov	r8, r0
 406:../../source/src/user/OS_LIB/myMicroLIB.c **** 	{
 1894              		.loc 1 406 0
 1895 07b8 ABF13003 		sub	r3, fp, #48
 1896 07bc 092B     		cmp	r3, #9
 1897              		.loc 1 408 0
 1898 07be 8946     		mov	r9, r1
 1899              	.LVL300:
 406:../../source/src/user/OS_LIB/myMicroLIB.c **** 	{
 1900              		.loc 1 406 0
 1901 07c0 E2D9     		bls	.L249
 1902              	.LVL301:
 1903              	.L248:
 409:../../source/src/user/OS_LIB/myMicroLIB.c **** 		++char_ptr;
 410:../../source/src/user/OS_LIB/myMicroLIB.c **** 	}
 411:../../source/src/user/OS_LIB/myMicroLIB.c **** 	if('.' != *char_ptr)
 1904              		.loc 1 411 0
 1905 07c2 BBF12E0F 		cmp	fp, #46
 1906 07c6 0FD0     		beq	.L250
 1907              	.LVL302:
 1908              	.L251:
 412:../../source/src/user/OS_LIB/myMicroLIB.c **** 	{
 413:../../source/src/user/OS_LIB/myMicroLIB.c **** 		return (sign * num);
 414:../../source/src/user/OS_LIB/myMicroLIB.c **** 	}
 415:../../source/src/user/OS_LIB/myMicroLIB.c **** 	++char_ptr;
 416:../../source/src/user/OS_LIB/myMicroLIB.c **** 	while(IS_NUM(*char_ptr))
 417:../../source/src/user/OS_LIB/myMicroLIB.c **** 	{
 418:../../source/src/user/OS_LIB/myMicroLIB.c **** 		num += (double)(*char_ptr - '0') / divisor;
 419:../../source/src/user/OS_LIB/myMicroLIB.c **** 		divisor *= 10.0;
 420:../../source/src/user/OS_LIB/myMicroLIB.c **** 		++char_ptr;
 421:../../source/src/user/OS_LIB/myMicroLIB.c **** 	}
 422:../../source/src/user/OS_LIB/myMicroLIB.c **** 	return (sign * num);
 1909              		.loc 1 422 0
 1910 07c8 DDE90023 		ldrd	r2, [sp]
 1911 07cc 4046     		mov	r0, r8
 1912 07ce 4946     		mov	r1, r9
 1913 07d0 FFF7FEFF 		bl	__aeabi_dmul
 1914              	.LVL303:
 423:../../source/src/user/OS_LIB/myMicroLIB.c **** }
 1915              		.loc 1 423 0
 1916 07d4 03B0     		add	sp, sp, #12
 1917              	.LCFI24:
 1918              		.cfi_remember_state
 1919              		.cfi_def_cfa_offset 36
 1920              		@ sp needed
 1921 07d6 BDE8F08F 		pop	{r4, r5, r6, r7, r8, r9, r10, fp, pc}
 1922              	.LVL304:
 1923              	.L262:
 1924              	.LCFI25:
 1925              		.cfi_restore_state
 1926 07da 0023     		movs	r3, #0
 1927 07dc 1C4C     		ldr	r4, .L263+12
 1928 07de CDE90034 		strd	r3, [sp]
ARM GAS  G:\Users\Jaxb\AppData\Local\Temp\cci3ToTS.s 			page 47


 1929              	.L253:
 404:../../source/src/user/OS_LIB/myMicroLIB.c **** 	}
 1930              		.loc 1 404 0
 1931 07e2 0AF1010A 		add	r10, r10, #1
 1932              	.LVL305:
 1933 07e6 C1E7     		b	.L254
 1934              	.LVL306:
 1935              	.L250:
 416:../../source/src/user/OS_LIB/myMicroLIB.c **** 	{
 1936              		.loc 1 416 0
 1937 07e8 9AF80100 		ldrb	r0, [r10, #1]	@ zero_extendqisi2
 415:../../source/src/user/OS_LIB/myMicroLIB.c **** 	while(IS_NUM(*char_ptr))
 1938              		.loc 1 415 0
 1939 07ec 0AF1010A 		add	r10, r10, #1
 1940              	.LVL307:
 416:../../source/src/user/OS_LIB/myMicroLIB.c **** 	{
 1941              		.loc 1 416 0
 1942 07f0 3038     		subs	r0, r0, #48
 1943 07f2 C3B2     		uxtb	r3, r0
 1944 07f4 092B     		cmp	r3, #9
 1945 07f6 E7D8     		bhi	.L251
 389:../../source/src/user/OS_LIB/myMicroLIB.c **** 	if(NULL == char_ptr)
 1946              		.loc 1 389 0
 1947 07f8 0024     		movs	r4, #0
 1948 07fa 134D     		ldr	r5, .L263+4
 419:../../source/src/user/OS_LIB/myMicroLIB.c **** 		++char_ptr;
 1949              		.loc 1 419 0
 1950 07fc 2646     		mov	r6, r4
 1951 07fe 2F46     		mov	r7, r5
 1952              	.LVL308:
 1953              	.L252:
 418:../../source/src/user/OS_LIB/myMicroLIB.c **** 		divisor *= 10.0;
 1954              		.loc 1 418 0
 1955 0800 FFF7FEFF 		bl	__aeabi_i2d
 1956              	.LVL309:
 1957 0804 2246     		mov	r2, r4
 1958 0806 2B46     		mov	r3, r5
 1959 0808 FFF7FEFF 		bl	__aeabi_ddiv
 1960              	.LVL310:
 1961 080c 0246     		mov	r2, r0
 1962 080e 0B46     		mov	r3, r1
 1963 0810 4046     		mov	r0, r8
 1964 0812 4946     		mov	r1, r9
 1965 0814 FFF7FEFF 		bl	__aeabi_dadd
 1966              	.LVL311:
 419:../../source/src/user/OS_LIB/myMicroLIB.c **** 		++char_ptr;
 1967              		.loc 1 419 0
 1968 0818 3B46     		mov	r3, r7
 418:../../source/src/user/OS_LIB/myMicroLIB.c **** 		divisor *= 10.0;
 1969              		.loc 1 418 0
 1970 081a 8046     		mov	r8, r0
 1971              	.LVL312:
 1972 081c 8946     		mov	r9, r1
 1973              	.LVL313:
 419:../../source/src/user/OS_LIB/myMicroLIB.c **** 		++char_ptr;
 1974              		.loc 1 419 0
 1975 081e 2046     		mov	r0, r4
ARM GAS  G:\Users\Jaxb\AppData\Local\Temp\cci3ToTS.s 			page 48


 1976 0820 2946     		mov	r1, r5
 1977 0822 3246     		mov	r2, r6
 1978 0824 FFF7FEFF 		bl	__aeabi_dmul
 1979              	.LVL314:
 1980 0828 0446     		mov	r4, r0
 1981              	.LVL315:
 416:../../source/src/user/OS_LIB/myMicroLIB.c **** 	{
 1982              		.loc 1 416 0
 1983 082a 1AF8010F 		ldrb	r0, [r10, #1]!	@ zero_extendqisi2
 1984              	.LVL316:
 419:../../source/src/user/OS_LIB/myMicroLIB.c **** 		++char_ptr;
 1985              		.loc 1 419 0
 1986 082e 0D46     		mov	r5, r1
 1987              	.LVL317:
 416:../../source/src/user/OS_LIB/myMicroLIB.c **** 	{
 1988              		.loc 1 416 0
 1989 0830 3038     		subs	r0, r0, #48
 1990 0832 C3B2     		uxtb	r3, r0
 1991 0834 092B     		cmp	r3, #9
 1992 0836 E3D9     		bls	.L252
 1993 0838 C6E7     		b	.L251
 1994              	.LVL318:
 1995              	.L255:
 392:../../source/src/user/OS_LIB/myMicroLIB.c **** 	}
 1996              		.loc 1 392 0
 1997 083a 0020     		movs	r0, #0
 1998              	.LVL319:
 1999 083c 0021     		movs	r1, #0
 2000              		.loc 1 423 0
 2001 083e 03B0     		add	sp, sp, #12
 2002              	.LCFI26:
 2003              		.cfi_def_cfa_offset 36
 2004              		@ sp needed
 2005 0840 BDE8F08F 		pop	{r4, r5, r6, r7, r8, r9, r10, fp, pc}
 2006              	.LVL320:
 2007              	.L264:
 2008              		.align	2
 2009              	.L263:
 2010 0844 0000F03F 		.word	1072693248
 2011 0848 00002440 		.word	1076101120
 2012 084c 00004840 		.word	1078460416
 2013 0850 0000F0BF 		.word	-1074790400
 2014              		.cfi_endproc
 2015              	.LFE39:
 2016              		.size	ka_atof, .-ka_atof
 2017              		.align	1
 2018              		.p2align 2,,3
 2019              		.global	ka_strcmp
 2020              		.syntax unified
 2021              		.thumb
 2022              		.thumb_func
 2023              		.fpu softvfp
 2024              		.type	ka_strcmp, %function
 2025              	ka_strcmp:
 2026              	.LFB40:
 424:../../source/src/user/OS_LIB/myMicroLIB.c **** 
 425:../../source/src/user/OS_LIB/myMicroLIB.c **** int ka_strcmp(const char * str1, const char * str2)
ARM GAS  G:\Users\Jaxb\AppData\Local\Temp\cci3ToTS.s 			page 49


 426:../../source/src/user/OS_LIB/myMicroLIB.c **** {
 2027              		.loc 1 426 0
 2028              		.cfi_startproc
 2029              		@ args = 0, pretend = 0, frame = 0
 2030              		@ frame_needed = 0, uses_anonymous_args = 0
 2031              		@ link register save eliminated.
 2032              	.LVL321:
 427:../../source/src/user/OS_LIB/myMicroLIB.c **** 	while(*str1 == *str2)
 2033              		.loc 1 427 0
 2034 0854 0378     		ldrb	r3, [r0]	@ zero_extendqisi2
 2035 0856 0A78     		ldrb	r2, [r1]	@ zero_extendqisi2
 2036 0858 9A42     		cmp	r2, r3
 2037 085a 08D1     		bne	.L266
 428:../../source/src/user/OS_LIB/myMicroLIB.c **** 	{
 429:../../source/src/user/OS_LIB/myMicroLIB.c **** 		if('\0' == *str1)
 2038              		.loc 1 429 0
 2039 085c 0AB9     		cbnz	r2, .L268
 2040 085e 0AE0     		b	.L270
 2041              	.LVL322:
 2042              	.L269:
 2043 0860 3BB1     		cbz	r3, .L271
 2044              	.LVL323:
 2045              	.L268:
 427:../../source/src/user/OS_LIB/myMicroLIB.c **** 	while(*str1 == *str2)
 2046              		.loc 1 427 0
 2047 0862 10F8013F 		ldrb	r3, [r0, #1]!	@ zero_extendqisi2
 2048              	.LVL324:
 2049 0866 11F8012F 		ldrb	r2, [r1, #1]!	@ zero_extendqisi2
 2050 086a 9342     		cmp	r3, r2
 2051 086c F8D0     		beq	.L269
 2052              	.LVL325:
 2053              	.L266:
 430:../../source/src/user/OS_LIB/myMicroLIB.c **** 		{
 431:../../source/src/user/OS_LIB/myMicroLIB.c **** 			return 0;
 432:../../source/src/user/OS_LIB/myMicroLIB.c **** 		}
 433:../../source/src/user/OS_LIB/myMicroLIB.c **** 		++str1;
 434:../../source/src/user/OS_LIB/myMicroLIB.c **** 		++str2;
 435:../../source/src/user/OS_LIB/myMicroLIB.c **** 	}
 436:../../source/src/user/OS_LIB/myMicroLIB.c **** 	return (*str1 - *str2);
 2054              		.loc 1 436 0
 2055 086e 981A     		subs	r0, r3, r2
 2056 0870 7047     		bx	lr
 2057              	.LVL326:
 2058              	.L271:
 431:../../source/src/user/OS_LIB/myMicroLIB.c **** 		}
 2059              		.loc 1 431 0
 2060 0872 1846     		mov	r0, r3
 2061              	.LVL327:
 437:../../source/src/user/OS_LIB/myMicroLIB.c **** }
 2062              		.loc 1 437 0
 2063 0874 7047     		bx	lr
 2064              	.LVL328:
 2065              	.L270:
 431:../../source/src/user/OS_LIB/myMicroLIB.c **** 		}
 2066              		.loc 1 431 0
 2067 0876 1046     		mov	r0, r2
 2068              	.LVL329:
ARM GAS  G:\Users\Jaxb\AppData\Local\Temp\cci3ToTS.s 			page 50


 2069 0878 7047     		bx	lr
 2070              		.cfi_endproc
 2071              	.LFE40:
 2072              		.size	ka_strcmp, .-ka_strcmp
 2073              		.align	1
 2074 087a 00BF     		.p2align 2,,3
 2075              		.global	__init_my_micro_lib
 2076              		.syntax unified
 2077              		.thumb
 2078              		.thumb_func
 2079              		.fpu softvfp
 2080              		.type	__init_my_micro_lib, %function
 2081              	__init_my_micro_lib:
 2082              	.LFB41:
 438:../../source/src/user/OS_LIB/myMicroLIB.c **** 
 439:../../source/src/user/OS_LIB/myMicroLIB.c **** extern void init_malloc(void);
 440:../../source/src/user/OS_LIB/myMicroLIB.c **** void __init_my_micro_lib(void)
 441:../../source/src/user/OS_LIB/myMicroLIB.c **** {
 2083              		.loc 1 441 0
 2084              		.cfi_startproc
 2085              		@ args = 0, pretend = 0, frame = 0
 2086              		@ frame_needed = 0, uses_anonymous_args = 0
 2087              		@ link register save eliminated.
 442:../../source/src/user/OS_LIB/myMicroLIB.c **** 	init_malloc();
 2088              		.loc 1 442 0
 2089 087c FFF7FEBF 		b	init_malloc
 2090              	.LVL330:
 2091              		.cfi_endproc
 2092              	.LFE41:
 2093              		.size	__init_my_micro_lib, .-__init_my_micro_lib
 2094              		.section	.rodata.str1.4,"aMS",%progbits,1
 2095              		.align	2
 2096              	.LC0:
 2097 0000 2E2E2F2E 		.ascii	"../../source/src/user/OS_LIB/myMicroLIB.c\000"
 2097      2E2F736F 
 2097      75726365 
 2097      2F737263 
 2097      2F757365 
 2098 002a 0000     		.space	2
 2099              	.LC1:
 2100 002c 30783030 		.ascii	"0x00\000"
 2100      00
 2101              		.text
 2102              	.Letext0:
 2103              		.file 2 "f:\\arm\\gcc2018\\lib\\gcc\\arm-none-eabi\\7.3.1\\include\\stdarg.h"
 2104              		.file 3 "f:\\arm\\gcc2018\\arm-none-eabi\\include\\machine\\_default_types.h"
 2105              		.file 4 "f:\\arm\\gcc2018\\arm-none-eabi\\include\\sys\\_stdint.h"
 2106              		.file 5 "../../source/include/core_cm3.h"
 2107              		.file 6 "../../source/include/system_stm32f10x.h"
 2108              		.file 7 "../../source/include/os_cpu/kakaosstdint.h"
 2109              		.file 8 "../../source/include/os_lib/myMicroLIB.h"
 2110              		.file 9 "../../source/include/os_lib/myassert.h"
 2111              		.file 10 "<built-in>"