ARM GAS  G:\Users\Jaxb\AppData\Local\Temp\cc9ieDdq.s 			page 1


   1              		.cpu cortex-m3
   2              		.eabi_attribute 20, 1
   3              		.eabi_attribute 21, 1
   4              		.eabi_attribute 23, 3
   5              		.eabi_attribute 24, 1
   6              		.eabi_attribute 25, 1
   7              		.eabi_attribute 26, 1
   8              		.eabi_attribute 30, 2
   9              		.eabi_attribute 34, 1
  10              		.eabi_attribute 18, 4
  11              		.file	"OS_CPU_STM32.c"
  12              		.text
  13              	.Ltext0:
  14              		.cfi_sections	.debug_frame
  15              		.align	1
  16              		.p2align 2,,3
  17              		.global	set_register
  18              		.syntax unified
  19              		.thumb
  20              		.thumb_func
  21              		.fpu softvfp
  22              		.type	set_register, %function
  23              	set_register:
  24              	.LFB29:
  25              		.file 1 "../../source/src/kernel/OS_CPU/OS_CPU_STM32.c"
   1:../../source/src/kernel/OS_CPU/OS_CPU_STM32.c **** #include <os_cpu_stm32.h>
   2:../../source/src/kernel/OS_CPU/OS_CPU_STM32.c **** #include <ka_configuration.h>
   3:../../source/src/kernel/OS_CPU/OS_CPU_STM32.c **** #include <stm32f10x.h>
   4:../../source/src/kernel/OS_CPU/OS_CPU_STM32.c **** #include <osinit.h>
   5:../../source/src/kernel/OS_CPU/OS_CPU_STM32.c **** #include "stm32f10x_pwr.h" 
   6:../../source/src/kernel/OS_CPU/OS_CPU_STM32.c **** #include "stm32f10x_rcc.h" 
   7:../../source/src/kernel/OS_CPU/OS_CPU_STM32.c **** #include <myMicroLIB.h>
   8:../../source/src/kernel/OS_CPU/OS_CPU_STM32.c **** 
   9:../../source/src/kernel/OS_CPU/OS_CPU_STM32.c **** 
  10:../../source/src/kernel/OS_CPU/OS_CPU_STM32.c **** 
  11:../../source/src/kernel/OS_CPU/OS_CPU_STM32.c **** #if (32 == CPU_BIT)
  12:../../source/src/kernel/OS_CPU/OS_CPU_STM32.c **** 	typedef unsigned int* STACK_P;
  13:../../source/src/kernel/OS_CPU/OS_CPU_STM32.c **** #else
  14:../../source/src/kernel/OS_CPU/OS_CPU_STM32.c **** 	#error "CPU_BIT not be setted,end compile"
  15:../../source/src/kernel/OS_CPU/OS_CPU_STM32.c **** #endif
  16:../../source/src/kernel/OS_CPU/OS_CPU_STM32.c **** 
  17:../../source/src/kernel/OS_CPU/OS_CPU_STM32.c **** void set_register(void **stack_ptr,void *entry_ptr,void *return_ptr,void *para)
  18:../../source/src/kernel/OS_CPU/OS_CPU_STM32.c **** {
  26              		.loc 1 18 0
  27              		.cfi_startproc
  28              		@ args = 0, pretend = 0, frame = 0
  29              		@ frame_needed = 0, uses_anonymous_args = 0
  30              	.LVL0:
  31 0000 2DE9F04F 		push	{r4, r5, r6, r7, r8, r9, r10, fp, lr}
  32              	.LCFI0:
  33              		.cfi_def_cfa_offset 36
  34              		.cfi_offset 4, -36
  35              		.cfi_offset 5, -32
  36              		.cfi_offset 6, -28
  37              		.cfi_offset 7, -24
  38              		.cfi_offset 8, -20
  39              		.cfi_offset 9, -16
ARM GAS  G:\Users\Jaxb\AppData\Local\Temp\cc9ieDdq.s 			page 2


  40              		.cfi_offset 10, -12
  41              		.cfi_offset 11, -8
  42              		.cfi_offset 14, -4
  19:../../source/src/kernel/OS_CPU/OS_CPU_STM32.c **** 	STACK_P stack = *stack_ptr;
  43              		.loc 1 19 0
  44 0004 0468     		ldr	r4, [r0]
  45              	.LVL1:
  20:../../source/src/kernel/OS_CPU/OS_CPU_STM32.c **** 	*stack = (unsigned int)0x01000000uL;		//xPSR
  46              		.loc 1 20 0
  47 0006 4FF0807B 		mov	fp, #16777216
  21:../../source/src/kernel/OS_CPU/OS_CPU_STM32.c **** 	*(--stack) = (unsigned int)entry_ptr;  		//R15 PC
  22:../../source/src/kernel/OS_CPU/OS_CPU_STM32.c **** 	*(--stack) = (unsigned int)return_ptr;		//R14 LR	
  48              		.loc 1 22 0
  49 000a 44E90221 		strd	r2, r1, [r4, #-8]
  23:../../source/src/kernel/OS_CPU/OS_CPU_STM32.c **** 	*(--stack) = (unsigned int)0x12121212uL;	//R12
  24:../../source/src/kernel/OS_CPU/OS_CPU_STM32.c **** 	*(--stack) = (unsigned int)0x03030303uL;	//R3
  25:../../source/src/kernel/OS_CPU/OS_CPU_STM32.c **** 	*(--stack) = (unsigned int)0x02020202uL;	//R2
  26:../../source/src/kernel/OS_CPU/OS_CPU_STM32.c **** 	*(--stack) = (unsigned int)0x01010101uL;	//R1
  27:../../source/src/kernel/OS_CPU/OS_CPU_STM32.c **** 	*(--stack) = (unsigned int)para;			//R0
  50              		.loc 1 27 0
  51 000e 44F81C3C 		str	r3, [r4, #-28]
  28:../../source/src/kernel/OS_CPU/OS_CPU_STM32.c **** 	*(--stack) = (unsigned int)0x11111111uL;	//R11
  29:../../source/src/kernel/OS_CPU/OS_CPU_STM32.c **** 	*(--stack) = (unsigned int)0x10101010uL;	//R10
  52              		.loc 1 29 0
  53 0012 4FF01132 		mov	r2, #286331153
  54              	.LVL2:
  55 0016 4FF01033 		mov	r3, #269488144
  56              	.LVL3:
  30:../../source/src/kernel/OS_CPU/OS_CPU_STM32.c **** 	*(--stack) = (unsigned int)0x09090909uL;	//R9
  31:../../source/src/kernel/OS_CPU/OS_CPU_STM32.c **** 	*(--stack) = (unsigned int)0x08080808uL;	//R8
  57              		.loc 1 31 0
  58 001a 4FF00931 		mov	r1, #151587081
  59              	.LVL4:
  29:../../source/src/kernel/OS_CPU/OS_CPU_STM32.c **** 	*(--stack) = (unsigned int)0x09090909uL;	//R9
  60              		.loc 1 29 0
  61 001e 44E90932 		strd	r3, r2, [r4, #-36]
  62              		.loc 1 31 0
  63 0022 4FF00833 		mov	r3, #134744072
  32:../../source/src/kernel/OS_CPU/OS_CPU_STM32.c **** 	*(--stack) = (unsigned int)0x07070707uL;	//R7
  33:../../source/src/kernel/OS_CPU/OS_CPU_STM32.c **** 	*(--stack) = (unsigned int)0x06060606uL;	//R6
  34:../../source/src/kernel/OS_CPU/OS_CPU_STM32.c **** 	*(--stack) = (unsigned int)0x05050505uL;	//R5
  35:../../source/src/kernel/OS_CPU/OS_CPU_STM32.c **** 	*(--stack) = (unsigned int)0x04040404uL;	//R4
  64              		.loc 1 35 0
  65 0026 2546     		mov	r5, r4
  31:../../source/src/kernel/OS_CPU/OS_CPU_STM32.c **** 	*(--stack) = (unsigned int)0x07070707uL;	//R7
  66              		.loc 1 31 0
  67 0028 44E90B31 		strd	r3, r1, [r4, #-44]
  23:../../source/src/kernel/OS_CPU/OS_CPU_STM32.c **** 	*(--stack) = (unsigned int)0x03030303uL;	//R3
  68              		.loc 1 23 0
  69 002c 4FF0123A 		mov	r10, #303174162
  24:../../source/src/kernel/OS_CPU/OS_CPU_STM32.c **** 	*(--stack) = (unsigned int)0x02020202uL;	//R2
  70              		.loc 1 24 0
  71 0030 4FF00339 		mov	r9, #50529027
  25:../../source/src/kernel/OS_CPU/OS_CPU_STM32.c **** 	*(--stack) = (unsigned int)0x01010101uL;	//R1
  72              		.loc 1 25 0
  73 0034 4FF00238 		mov	r8, #33686018
  26:../../source/src/kernel/OS_CPU/OS_CPU_STM32.c **** 	*(--stack) = (unsigned int)para;			//R0
ARM GAS  G:\Users\Jaxb\AppData\Local\Temp\cc9ieDdq.s 			page 3


  74              		.loc 1 26 0
  75 0038 4FF0013E 		mov	lr, #16843009
  33:../../source/src/kernel/OS_CPU/OS_CPU_STM32.c **** 	*(--stack) = (unsigned int)0x05050505uL;	//R5
  76              		.loc 1 33 0
  77 003c 4FF0063C 		mov	ip, #101058054
  34:../../source/src/kernel/OS_CPU/OS_CPU_STM32.c **** 	*(--stack) = (unsigned int)0x04040404uL;	//R4
  78              		.loc 1 34 0
  79 0040 4FF00537 		mov	r7, #84215045
  80              		.loc 1 35 0
  81 0044 4FF00436 		mov	r6, #67372036
  32:../../source/src/kernel/OS_CPU/OS_CPU_STM32.c **** 	*(--stack) = (unsigned int)0x06060606uL;	//R6
  82              		.loc 1 32 0
  83 0048 4FF00733 		mov	r3, #117901063
  20:../../source/src/kernel/OS_CPU/OS_CPU_STM32.c **** 	*(--stack) = (unsigned int)entry_ptr;  		//R15 PC
  84              		.loc 1 20 0
  85 004c C4F800B0 		str	fp, [r4]
  86              	.LVL5:
  24:../../source/src/kernel/OS_CPU/OS_CPU_STM32.c **** 	*(--stack) = (unsigned int)0x02020202uL;	//R2
  87              		.loc 1 24 0
  88 0050 44E9049A 		strd	r9, r10, [r4, #-16]
  89              	.LVL6:
  26:../../source/src/kernel/OS_CPU/OS_CPU_STM32.c **** 	*(--stack) = (unsigned int)para;			//R0
  90              		.loc 1 26 0
  91 0054 44E906E8 		strd	lr, r8, [r4, #-24]
  92              	.LVL7:
  33:../../source/src/kernel/OS_CPU/OS_CPU_STM32.c **** 	*(--stack) = (unsigned int)0x05050505uL;	//R5
  93              		.loc 1 33 0
  94 0058 44E90DC3 		strd	ip, r3, [r4, #-52]
  95              	.LVL8:
  34:../../source/src/kernel/OS_CPU/OS_CPU_STM32.c **** 	*(--stack) = (unsigned int)0x04040404uL;	//R4
  96              		.loc 1 34 0
  97 005c 44F8387C 		str	r7, [r4, #-56]
  98              	.LVL9:
  99              		.loc 1 35 0
 100 0060 45F83C6D 		str	r6, [r5, #-60]!
  36:../../source/src/kernel/OS_CPU/OS_CPU_STM32.c **** 	*stack_ptr = stack;
 101              		.loc 1 36 0
 102 0064 0560     		str	r5, [r0]
  37:../../source/src/kernel/OS_CPU/OS_CPU_STM32.c **** }
 103              		.loc 1 37 0
 104 0066 BDE8F08F 		pop	{r4, r5, r6, r7, r8, r9, r10, fp, pc}
 105              		.cfi_endproc
 106              	.LFE29:
 107              		.size	set_register, .-set_register
 108              		.align	1
 109 006a 00BF     		.p2align 2,,3
 110              		.global	__init_systick
 111              		.syntax unified
 112              		.thumb
 113              		.thumb_func
 114              		.fpu softvfp
 115              		.type	__init_systick, %function
 116              	__init_systick:
 117              	.LFB30:
  38:../../source/src/kernel/OS_CPU/OS_CPU_STM32.c **** 
  39:../../source/src/kernel/OS_CPU/OS_CPU_STM32.c **** void __init_systick(void)
  40:../../source/src/kernel/OS_CPU/OS_CPU_STM32.c **** {
ARM GAS  G:\Users\Jaxb\AppData\Local\Temp\cc9ieDdq.s 			page 4


 118              		.loc 1 40 0
 119              		.cfi_startproc
 120              		@ args = 0, pretend = 0, frame = 0
 121              		@ frame_needed = 0, uses_anonymous_args = 0
 122              		@ link register save eliminated.
  41:../../source/src/kernel/OS_CPU/OS_CPU_STM32.c **** 	CPU_INT32U  prio;
  42:../../source/src/kernel/OS_CPU/OS_CPU_STM32.c **** 	CPU_REG_NVIC_ST_RELOAD = SystemCoreClock / TICK_PER_SEC  -1 ; 
 123              		.loc 1 42 0
 124 006c 0B4B     		ldr	r3, .L4
 125 006e 0C49     		ldr	r1, .L4+4
 126 0070 1B68     		ldr	r3, [r3]
 127 0072 0C4A     		ldr	r2, .L4+8
 128 0074 A1FB0313 		umull	r1, r3, r1, r3
 129 0078 5B09     		lsrs	r3, r3, #5
 130 007a 013B     		subs	r3, r3, #1
  43:../../source/src/kernel/OS_CPU/OS_CPU_STM32.c ****     /* Set SysTick handler prio */
  44:../../source/src/kernel/OS_CPU/OS_CPU_STM32.c ****     prio  = CPU_REG_NVIC_SHPRI3;
 131              		.loc 1 44 0
 132 007c 0A49     		ldr	r1, .L4+12
  42:../../source/src/kernel/OS_CPU/OS_CPU_STM32.c ****     /* Set SysTick handler prio */
 133              		.loc 1 42 0
 134 007e 1360     		str	r3, [r2]
 135              		.loc 1 44 0
 136 0080 0A68     		ldr	r2, [r1]
 137              	.LVL10:
  45:../../source/src/kernel/OS_CPU/OS_CPU_STM32.c ****     prio &= DEF_BIT_FIELD(24, 0);
  46:../../source/src/kernel/OS_CPU/OS_CPU_STM32.c ****     prio |= DEF_BIT_MASK(OS_CPU_CFG_SYSTICK_PRIO, 24);
  47:../../source/src/kernel/OS_CPU/OS_CPU_STM32.c **** 
  48:../../source/src/kernel/OS_CPU/OS_CPU_STM32.c ****     CPU_REG_NVIC_SHPRI3 = prio; 
  49:../../source/src/kernel/OS_CPU/OS_CPU_STM32.c **** 
  50:../../source/src/kernel/OS_CPU/OS_CPU_STM32.c ****                                                             /* Enable timer.                       
  51:../../source/src/kernel/OS_CPU/OS_CPU_STM32.c ****     CPU_REG_NVIC_ST_CTRL |= CPU_REG_NVIC_ST_CTRL_CLKSOURCE |
 138              		.loc 1 51 0
 139 0082 0A4B     		ldr	r3, .L4+16
  45:../../source/src/kernel/OS_CPU/OS_CPU_STM32.c ****     prio &= DEF_BIT_FIELD(24, 0);
 140              		.loc 1 45 0
 141 0084 22F07F42 		bic	r2, r2, #-16777216
 142              	.LVL11:
  48:../../source/src/kernel/OS_CPU/OS_CPU_STM32.c **** 
 143              		.loc 1 48 0
 144 0088 0A60     		str	r2, [r1]
 145              		.loc 1 51 0
 146 008a 1A68     		ldr	r2, [r3]
 147              	.LVL12:
 148 008c 42F00502 		orr	r2, r2, #5
 149 0090 1A60     		str	r2, [r3]
 150              	.LVL13:
  52:../../source/src/kernel/OS_CPU/OS_CPU_STM32.c ****                             CPU_REG_NVIC_ST_CTRL_ENABLE;
  53:../../source/src/kernel/OS_CPU/OS_CPU_STM32.c ****                                                             /* Enable timer interrupt.             
  54:../../source/src/kernel/OS_CPU/OS_CPU_STM32.c ****     CPU_REG_NVIC_ST_CTRL |= CPU_REG_NVIC_ST_CTRL_TICKINT;
 151              		.loc 1 54 0
 152 0092 1A68     		ldr	r2, [r3]
 153 0094 42F00202 		orr	r2, r2, #2
 154 0098 1A60     		str	r2, [r3]
  55:../../source/src/kernel/OS_CPU/OS_CPU_STM32.c **** }
 155              		.loc 1 55 0
 156 009a 7047     		bx	lr
ARM GAS  G:\Users\Jaxb\AppData\Local\Temp\cc9ieDdq.s 			page 5


 157              	.L5:
 158              		.align	2
 159              	.L4:
 160 009c 00000000 		.word	SystemCoreClock
 161 00a0 1F85EB51 		.word	1374389535
 162 00a4 14E000E0 		.word	-536813548
 163 00a8 20ED00E0 		.word	-536810208
 164 00ac 10E000E0 		.word	-536813552
 165              		.cfi_endproc
 166              	.LFE30:
 167              		.size	__init_systick, .-__init_systick
 168              		.align	1
 169              		.p2align 2,,3
 170              		.global	ReBoot
 171              		.syntax unified
 172              		.thumb
 173              		.thumb_func
 174              		.fpu softvfp
 175              		.type	ReBoot, %function
 176              	ReBoot:
 177              	.LFB31:
  56:../../source/src/kernel/OS_CPU/OS_CPU_STM32.c **** 
  57:../../source/src/kernel/OS_CPU/OS_CPU_STM32.c **** extern void Reset_Handler();
  58:../../source/src/kernel/OS_CPU/OS_CPU_STM32.c **** void ReBoot()
  59:../../source/src/kernel/OS_CPU/OS_CPU_STM32.c **** {
 178              		.loc 1 59 0
 179              		.cfi_startproc
 180              		@ args = 0, pretend = 0, frame = 0
 181              		@ frame_needed = 0, uses_anonymous_args = 0
 182              		@ link register save eliminated.
  60:../../source/src/kernel/OS_CPU/OS_CPU_STM32.c **** 	asm volatile(
 183              		.loc 1 60 0
 184              		.syntax unified
 185              	@ 60 "../../source/src/kernel/OS_CPU/OS_CPU_STM32.c" 1
 186 00b0 72B6     		CPSID   I
 187 00b2 EFF31480 		MRS R0,CONTROL
 188 00b6 00F00100 		AND R0,#0x01
 189 00ba 80F31488 		MSR CONTROL,R0
 190 00be DFF83CD0 		LDR SP, =_estack
 191 00c2 0F49     		LDR R1,=0xE000E010
 192 00c4 0868     		LDR R0,[R1]
 193 00c6 20F00200 		AND R0,#0xFFFFFFFD
 194 00ca 0860     		STR R0,[R1]
 195 00cc FFF7FEBF 		B   Reset_Handler
 196              		
 197              	@ 0 "" 2
  61:../../source/src/kernel/OS_CPU/OS_CPU_STM32.c **** 	    "CPSID   I\n\t"
  62:../../source/src/kernel/OS_CPU/OS_CPU_STM32.c **** 	    "MRS R0,CONTROL\n\t"
  63:../../source/src/kernel/OS_CPU/OS_CPU_STM32.c **** 	    "AND R0,#0x01\n\t"
  64:../../source/src/kernel/OS_CPU/OS_CPU_STM32.c **** 	    "MSR CONTROL,R0\n\t"
  65:../../source/src/kernel/OS_CPU/OS_CPU_STM32.c **** 	    "LDR SP, =_estack\n\t"
  66:../../source/src/kernel/OS_CPU/OS_CPU_STM32.c **** 	    "LDR R1,=0xE000E010\n\t"
  67:../../source/src/kernel/OS_CPU/OS_CPU_STM32.c **** 	    "LDR R0,[R1]\n\t"
  68:../../source/src/kernel/OS_CPU/OS_CPU_STM32.c **** 	    "AND R0,#0xFFFFFFFD\n\t"
  69:../../source/src/kernel/OS_CPU/OS_CPU_STM32.c **** 	    "STR R0,[R1]\n\t"
  70:../../source/src/kernel/OS_CPU/OS_CPU_STM32.c **** 	    "B   Reset_Handler\n\t"
  71:../../source/src/kernel/OS_CPU/OS_CPU_STM32.c **** 	);
ARM GAS  G:\Users\Jaxb\AppData\Local\Temp\cc9ieDdq.s 			page 6


  72:../../source/src/kernel/OS_CPU/OS_CPU_STM32.c **** }
 198              		.loc 1 72 0
 199              		.thumb
 200              		.syntax unified
 201 00d0 7047     		bx	lr
 202              		.cfi_endproc
 203              	.LFE31:
 204              		.size	ReBoot, .-ReBoot
 205              		.align	1
 206 00d2 00BF     		.p2align 2,,3
 207              		.global	sys_sleep
 208              		.syntax unified
 209              		.thumb
 210              		.thumb_func
 211              		.fpu softvfp
 212              		.type	sys_sleep, %function
 213              	sys_sleep:
 214              	.LFB32:
  73:../../source/src/kernel/OS_CPU/OS_CPU_STM32.c **** 
  74:../../source/src/kernel/OS_CPU/OS_CPU_STM32.c **** #if CONFIG_POWER_MANAGEMENT
  75:../../source/src/kernel/OS_CPU/OS_CPU_STM32.c **** void sys_sleep(void)
  76:../../source/src/kernel/OS_CPU/OS_CPU_STM32.c **** {
 215              		.loc 1 76 0
 216              		.cfi_startproc
 217              		@ args = 0, pretend = 0, frame = 0
 218              		@ frame_needed = 0, uses_anonymous_args = 0
 219              		@ link register save eliminated.
  77:../../source/src/kernel/OS_CPU/OS_CPU_STM32.c **** 
  78:../../source/src/kernel/OS_CPU/OS_CPU_STM32.c **** 	CPU_REG_NVIC_ST_CTRL &= ~(CPU_REG_NVIC_ST_CTRL_TICKINT | CPU_REG_NVIC_ST_CTRL_ENABLE);
 220              		.loc 1 78 0
 221 00d4 074B     		ldr	r3, .L8
 222 00d6 1A68     		ldr	r2, [r3]
 223 00d8 22F00302 		bic	r2, r2, #3
 224 00dc 1A60     		str	r2, [r3]
  79:../../source/src/kernel/OS_CPU/OS_CPU_STM32.c **** 	asm volatile("wfi");
 225              		.loc 1 79 0
 226              		.syntax unified
 227              	@ 79 "../../source/src/kernel/OS_CPU/OS_CPU_STM32.c" 1
 228 00de 30BF     		wfi
 229              	@ 0 "" 2
  80:../../source/src/kernel/OS_CPU/OS_CPU_STM32.c **** 
  81:../../source/src/kernel/OS_CPU/OS_CPU_STM32.c **** 	CPU_REG_NVIC_ST_CTRL |= CPU_REG_NVIC_ST_CTRL_CLKSOURCE |
 230              		.loc 1 81 0
 231              		.thumb
 232              		.syntax unified
 233 00e0 1A68     		ldr	r2, [r3]
 234 00e2 42F00502 		orr	r2, r2, #5
 235 00e6 1A60     		str	r2, [r3]
  82:../../source/src/kernel/OS_CPU/OS_CPU_STM32.c ****                             CPU_REG_NVIC_ST_CTRL_ENABLE;
  83:../../source/src/kernel/OS_CPU/OS_CPU_STM32.c ****                                                             /* Enable timer interrupt.             
  84:../../source/src/kernel/OS_CPU/OS_CPU_STM32.c ****     CPU_REG_NVIC_ST_CTRL |= CPU_REG_NVIC_ST_CTRL_TICKINT;
 236              		.loc 1 84 0
 237 00e8 1A68     		ldr	r2, [r3]
 238 00ea 42F00202 		orr	r2, r2, #2
 239 00ee 1A60     		str	r2, [r3]
  85:../../source/src/kernel/OS_CPU/OS_CPU_STM32.c **** 
  86:../../source/src/kernel/OS_CPU/OS_CPU_STM32.c **** }
ARM GAS  G:\Users\Jaxb\AppData\Local\Temp\cc9ieDdq.s 			page 7


 240              		.loc 1 86 0
 241 00f0 7047     		bx	lr
 242              	.L9:
 243 00f2 00BF     		.align	2
 244              	.L8:
 245 00f4 10E000E0 		.word	-536813552
 246              		.cfi_endproc
 247              	.LFE32:
 248              		.size	sys_sleep, .-sys_sleep
 249              		.align	1
 250              		.p2align 2,,3
 251              		.global	sys_shutdown
 252              		.syntax unified
 253              		.thumb
 254              		.thumb_func
 255              		.fpu softvfp
 256              		.type	sys_shutdown, %function
 257              	sys_shutdown:
 258              	.LFB33:
  87:../../source/src/kernel/OS_CPU/OS_CPU_STM32.c **** 
  88:../../source/src/kernel/OS_CPU/OS_CPU_STM32.c **** void sys_shutdown(void)
  89:../../source/src/kernel/OS_CPU/OS_CPU_STM32.c **** {
 259              		.loc 1 89 0
 260              		.cfi_startproc
 261              		@ args = 0, pretend = 0, frame = 0
 262              		@ frame_needed = 0, uses_anonymous_args = 0
 263              		@ link register save eliminated.
  90:../../source/src/kernel/OS_CPU/OS_CPU_STM32.c **** 	PWR_EnterSTANDBYMode();
 264              		.loc 1 90 0
 265 00f8 FFF7FEBF 		b	PWR_EnterSTANDBYMode
 266              	.LVL14:
 267              		.cfi_endproc
 268              	.LFE33:
 269              		.size	sys_shutdown, .-sys_shutdown
 270              	.Letext0:
 271              		.file 2 "../../source/include/os_cpu/os_cpu_stm32.h"
 272              		.file 3 "f:\\arm\\gcc2018\\arm-none-eabi\\include\\machine\\_default_types.h"
 273              		.file 4 "f:\\arm\\gcc2018\\arm-none-eabi\\include\\sys\\_stdint.h"
 274              		.file 5 "../../source/include/core_cm3.h"
 275              		.file 6 "../../source/include/system_stm32f10x.h"
 276              		.file 7 "../../source/src/FWlib/inc/stm32f10x_pwr.h"
 277              		.section	.debug_info,"",%progbits
 278              	.Ldebug_info0:
 279 0000 B9010000 		.4byte	0x1b9
 280 0004 0200     		.2byte	0x2
 281 0006 00000000 		.4byte	.Ldebug_abbrev0
 282 000a 04       		.byte	0x4
 283 000b 01       		.uleb128 0x1
 284 000c 60010000 		.4byte	.LASF25
 285 0010 0C       		.byte	0xc
 286 0011 DB000000 		.4byte	.LASF26
 287 0015 1C020000 		.4byte	.LASF27
 288 0019 00000000 		.4byte	.Ltext0
 289 001d FC000000 		.4byte	.Letext0
 290 0021 00000000 		.4byte	.Ldebug_line0
 291 0025 02       		.uleb128 0x2
 292 0026 38000000 		.4byte	.LASF0
ARM GAS  G:\Users\Jaxb\AppData\Local\Temp\cc9ieDdq.s 			page 8


 293 002a 02       		.byte	0x2
 294 002b 04       		.byte	0x4
 295 002c 35000000 		.4byte	0x35
 296 0030 03       		.uleb128 0x3
 297 0031 25000000 		.4byte	0x25
 298 0035 04       		.uleb128 0x4
 299 0036 04       		.byte	0x4
 300 0037 07       		.byte	0x7
 301 0038 A2000000 		.4byte	.LASF2
 302 003c 02       		.uleb128 0x2
 303 003d 2D010000 		.4byte	.LASF1
 304 0041 02       		.byte	0x2
 305 0042 05       		.byte	0x5
 306 0043 30000000 		.4byte	0x30
 307 0047 04       		.uleb128 0x4
 308 0048 01       		.byte	0x1
 309 0049 06       		.byte	0x6
 310 004a 10020000 		.4byte	.LASF3
 311 004e 04       		.uleb128 0x4
 312 004f 01       		.byte	0x1
 313 0050 08       		.byte	0x8
 314 0051 4D000000 		.4byte	.LASF4
 315 0055 04       		.uleb128 0x4
 316 0056 02       		.byte	0x2
 317 0057 05       		.byte	0x5
 318 0058 37010000 		.4byte	.LASF5
 319 005c 04       		.uleb128 0x4
 320 005d 02       		.byte	0x2
 321 005e 07       		.byte	0x7
 322 005f 6D000000 		.4byte	.LASF6
 323 0063 04       		.uleb128 0x4
 324 0064 04       		.byte	0x4
 325 0065 05       		.byte	0x5
 326 0066 57010000 		.4byte	.LASF7
 327 006a 02       		.uleb128 0x2
 328 006b 8D000000 		.4byte	.LASF8
 329 006f 03       		.byte	0x3
 330 0070 4F       		.byte	0x4f
 331 0071 75000000 		.4byte	0x75
 332 0075 04       		.uleb128 0x4
 333 0076 04       		.byte	0x4
 334 0077 07       		.byte	0x7
 335 0078 5B000000 		.4byte	.LASF9
 336 007c 04       		.uleb128 0x4
 337 007d 08       		.byte	0x8
 338 007e 05       		.byte	0x5
 339 007f CD000000 		.4byte	.LASF10
 340 0083 04       		.uleb128 0x4
 341 0084 08       		.byte	0x8
 342 0085 07       		.byte	0x7
 343 0086 AF000000 		.4byte	.LASF11
 344 008a 05       		.uleb128 0x5
 345 008b 04       		.byte	0x4
 346 008c 05       		.byte	0x5
 347 008d 696E7400 		.ascii	"int\000"
 348 0091 03       		.uleb128 0x3
 349 0092 8A000000 		.4byte	0x8a
ARM GAS  G:\Users\Jaxb\AppData\Local\Temp\cc9ieDdq.s 			page 9


 350 0096 02       		.uleb128 0x2
 351 0097 4E010000 		.4byte	.LASF12
 352 009b 04       		.byte	0x4
 353 009c 30       		.byte	0x30
 354 009d 6A000000 		.4byte	0x6a
 355 00a1 06       		.uleb128 0x6
 356 00a2 80000000 		.4byte	.LASF13
 357 00a6 05       		.byte	0x5
 358 00a7 CE06     		.2byte	0x6ce
 359 00a9 91000000 		.4byte	0x91
 360 00ad 01       		.byte	0x1
 361 00ae 01       		.byte	0x1
 362 00af 07       		.uleb128 0x7
 363 00b0 09010000 		.4byte	.LASF14
 364 00b4 06       		.byte	0x6
 365 00b5 35       		.byte	0x35
 366 00b6 96000000 		.4byte	0x96
 367 00ba 01       		.byte	0x1
 368 00bb 01       		.byte	0x1
 369 00bc 02       		.uleb128 0x2
 370 00bd 4A020000 		.4byte	.LASF15
 371 00c1 01       		.byte	0x1
 372 00c2 0C       		.byte	0xc
 373 00c3 C7000000 		.4byte	0xc7
 374 00c7 08       		.uleb128 0x8
 375 00c8 04       		.byte	0x4
 376 00c9 35000000 		.4byte	0x35
 377 00cd 09       		.uleb128 0x9
 378 00ce 01       		.byte	0x1
 379 00cf 41010000 		.4byte	.LASF16
 380 00d3 01       		.byte	0x1
 381 00d4 58       		.byte	0x58
 382 00d5 01       		.byte	0x1
 383 00d6 F8000000 		.4byte	.LFB33
 384 00da FC000000 		.4byte	.LFE33
 385 00de 02       		.byte	0x2
 386 00df 7D       		.byte	0x7d
 387 00e0 00       		.sleb128 0
 388 00e1 01       		.byte	0x1
 389 00e2 F1000000 		.4byte	0xf1
 390 00e6 0A       		.uleb128 0xa
 391 00e7 FC000000 		.4byte	.LVL14
 392 00eb 01       		.byte	0x1
 393 00ec AF010000 		.4byte	0x1af
 394 00f0 00       		.byte	0
 395 00f1 0B       		.uleb128 0xb
 396 00f2 01       		.byte	0x1
 397 00f3 43000000 		.4byte	.LASF28
 398 00f7 01       		.byte	0x1
 399 00f8 4B       		.byte	0x4b
 400 00f9 01       		.byte	0x1
 401 00fa D4000000 		.4byte	.LFB32
 402 00fe F8000000 		.4byte	.LFE32
 403 0102 02       		.byte	0x2
 404 0103 7D       		.byte	0x7d
 405 0104 00       		.sleb128 0
 406 0105 01       		.byte	0x1
ARM GAS  G:\Users\Jaxb\AppData\Local\Temp\cc9ieDdq.s 			page 10


 407 0106 0C       		.uleb128 0xc
 408 0107 01       		.byte	0x1
 409 0108 C6000000 		.4byte	.LASF29
 410 010c 01       		.byte	0x1
 411 010d 3A       		.byte	0x3a
 412 010e B0000000 		.4byte	.LFB31
 413 0112 D2000000 		.4byte	.LFE31
 414 0116 02       		.byte	0x2
 415 0117 7D       		.byte	0x7d
 416 0118 00       		.sleb128 0
 417 0119 01       		.byte	0x1
 418 011a 09       		.uleb128 0x9
 419 011b 01       		.byte	0x1
 420 011c 19010000 		.4byte	.LASF17
 421 0120 01       		.byte	0x1
 422 0121 27       		.byte	0x27
 423 0122 01       		.byte	0x1
 424 0123 6C000000 		.4byte	.LFB30
 425 0127 B0000000 		.4byte	.LFE30
 426 012b 02       		.byte	0x2
 427 012c 7D       		.byte	0x7d
 428 012d 00       		.sleb128 0
 429 012e 01       		.byte	0x1
 430 012f 43010000 		.4byte	0x143
 431 0133 0D       		.uleb128 0xd
 432 0134 00000000 		.4byte	.LASF23
 433 0138 01       		.byte	0x1
 434 0139 29       		.byte	0x29
 435 013a 25000000 		.4byte	0x25
 436 013e 00000000 		.4byte	.LLST5
 437 0142 00       		.byte	0
 438 0143 0E       		.uleb128 0xe
 439 0144 01       		.byte	0x1
 440 0145 10000000 		.4byte	.LASF18
 441 0149 01       		.byte	0x1
 442 014a 11       		.byte	0x11
 443 014b 01       		.byte	0x1
 444 014c 00000000 		.4byte	.LFB29
 445 0150 6A000000 		.4byte	.LFE29
 446 0154 1F000000 		.4byte	.LLST0
 447 0158 01       		.byte	0x1
 448 0159 A7010000 		.4byte	0x1a7
 449 015d 0F       		.uleb128 0xf
 450 015e 98000000 		.4byte	.LASF19
 451 0162 01       		.byte	0x1
 452 0163 11       		.byte	0x11
 453 0164 A7010000 		.4byte	0x1a7
 454 0168 01       		.byte	0x1
 455 0169 50       		.byte	0x50
 456 016a 10       		.uleb128 0x10
 457 016b 06020000 		.4byte	.LASF20
 458 016f 01       		.byte	0x1
 459 0170 11       		.byte	0x11
 460 0171 AD010000 		.4byte	0x1ad
 461 0175 3F000000 		.4byte	.LLST1
 462 0179 10       		.uleb128 0x10
 463 017a 05000000 		.4byte	.LASF21
ARM GAS  G:\Users\Jaxb\AppData\Local\Temp\cc9ieDdq.s 			page 11


 464 017e 01       		.byte	0x1
 465 017f 11       		.byte	0x11
 466 0180 AD010000 		.4byte	0x1ad
 467 0184 5E000000 		.4byte	.LLST2
 468 0188 10       		.uleb128 0x10
 469 0189 28010000 		.4byte	.LASF22
 470 018d 01       		.byte	0x1
 471 018e 11       		.byte	0x11
 472 018f AD010000 		.4byte	0x1ad
 473 0193 7D000000 		.4byte	.LLST3
 474 0197 0D       		.uleb128 0xd
 475 0198 1D000000 		.4byte	.LASF24
 476 019c 01       		.byte	0x1
 477 019d 13       		.byte	0x13
 478 019e BC000000 		.4byte	0xbc
 479 01a2 9C000000 		.4byte	.LLST4
 480 01a6 00       		.byte	0
 481 01a7 08       		.uleb128 0x8
 482 01a8 04       		.byte	0x4
 483 01a9 AD010000 		.4byte	0x1ad
 484 01ad 11       		.uleb128 0x11
 485 01ae 04       		.byte	0x4
 486 01af 12       		.uleb128 0x12
 487 01b0 01       		.byte	0x1
 488 01b1 01       		.byte	0x1
 489 01b2 23000000 		.4byte	.LASF30
 490 01b6 23000000 		.4byte	.LASF30
 491 01ba 07       		.byte	0x7
 492 01bb 87       		.byte	0x87
 493 01bc 00       		.byte	0
 494              		.section	.debug_abbrev,"",%progbits
 495              	.Ldebug_abbrev0:
 496 0000 01       		.uleb128 0x1
 497 0001 11       		.uleb128 0x11
 498 0002 01       		.byte	0x1
 499 0003 25       		.uleb128 0x25
 500 0004 0E       		.uleb128 0xe
 501 0005 13       		.uleb128 0x13
 502 0006 0B       		.uleb128 0xb
 503 0007 03       		.uleb128 0x3
 504 0008 0E       		.uleb128 0xe
 505 0009 1B       		.uleb128 0x1b
 506 000a 0E       		.uleb128 0xe
 507 000b 11       		.uleb128 0x11
 508 000c 01       		.uleb128 0x1
 509 000d 12       		.uleb128 0x12
 510 000e 01       		.uleb128 0x1
 511 000f 10       		.uleb128 0x10
 512 0010 06       		.uleb128 0x6
 513 0011 00       		.byte	0
 514 0012 00       		.byte	0
 515 0013 02       		.uleb128 0x2
 516 0014 16       		.uleb128 0x16
 517 0015 00       		.byte	0
 518 0016 03       		.uleb128 0x3
 519 0017 0E       		.uleb128 0xe
 520 0018 3A       		.uleb128 0x3a
ARM GAS  G:\Users\Jaxb\AppData\Local\Temp\cc9ieDdq.s 			page 12


 521 0019 0B       		.uleb128 0xb
 522 001a 3B       		.uleb128 0x3b
 523 001b 0B       		.uleb128 0xb
 524 001c 49       		.uleb128 0x49
 525 001d 13       		.uleb128 0x13
 526 001e 00       		.byte	0
 527 001f 00       		.byte	0
 528 0020 03       		.uleb128 0x3
 529 0021 35       		.uleb128 0x35
 530 0022 00       		.byte	0
 531 0023 49       		.uleb128 0x49
 532 0024 13       		.uleb128 0x13
 533 0025 00       		.byte	0
 534 0026 00       		.byte	0
 535 0027 04       		.uleb128 0x4
 536 0028 24       		.uleb128 0x24
 537 0029 00       		.byte	0
 538 002a 0B       		.uleb128 0xb
 539 002b 0B       		.uleb128 0xb
 540 002c 3E       		.uleb128 0x3e
 541 002d 0B       		.uleb128 0xb
 542 002e 03       		.uleb128 0x3
 543 002f 0E       		.uleb128 0xe
 544 0030 00       		.byte	0
 545 0031 00       		.byte	0
 546 0032 05       		.uleb128 0x5
 547 0033 24       		.uleb128 0x24
 548 0034 00       		.byte	0
 549 0035 0B       		.uleb128 0xb
 550 0036 0B       		.uleb128 0xb
 551 0037 3E       		.uleb128 0x3e
 552 0038 0B       		.uleb128 0xb
 553 0039 03       		.uleb128 0x3
 554 003a 08       		.uleb128 0x8
 555 003b 00       		.byte	0
 556 003c 00       		.byte	0
 557 003d 06       		.uleb128 0x6
 558 003e 34       		.uleb128 0x34
 559 003f 00       		.byte	0
 560 0040 03       		.uleb128 0x3
 561 0041 0E       		.uleb128 0xe
 562 0042 3A       		.uleb128 0x3a
 563 0043 0B       		.uleb128 0xb
 564 0044 3B       		.uleb128 0x3b
 565 0045 05       		.uleb128 0x5
 566 0046 49       		.uleb128 0x49
 567 0047 13       		.uleb128 0x13
 568 0048 3F       		.uleb128 0x3f
 569 0049 0C       		.uleb128 0xc
 570 004a 3C       		.uleb128 0x3c
 571 004b 0C       		.uleb128 0xc
 572 004c 00       		.byte	0
 573 004d 00       		.byte	0
 574 004e 07       		.uleb128 0x7
 575 004f 34       		.uleb128 0x34
 576 0050 00       		.byte	0
 577 0051 03       		.uleb128 0x3
ARM GAS  G:\Users\Jaxb\AppData\Local\Temp\cc9ieDdq.s 			page 13


 578 0052 0E       		.uleb128 0xe
 579 0053 3A       		.uleb128 0x3a
 580 0054 0B       		.uleb128 0xb
 581 0055 3B       		.uleb128 0x3b
 582 0056 0B       		.uleb128 0xb
 583 0057 49       		.uleb128 0x49
 584 0058 13       		.uleb128 0x13
 585 0059 3F       		.uleb128 0x3f
 586 005a 0C       		.uleb128 0xc
 587 005b 3C       		.uleb128 0x3c
 588 005c 0C       		.uleb128 0xc
 589 005d 00       		.byte	0
 590 005e 00       		.byte	0
 591 005f 08       		.uleb128 0x8
 592 0060 0F       		.uleb128 0xf
 593 0061 00       		.byte	0
 594 0062 0B       		.uleb128 0xb
 595 0063 0B       		.uleb128 0xb
 596 0064 49       		.uleb128 0x49
 597 0065 13       		.uleb128 0x13
 598 0066 00       		.byte	0
 599 0067 00       		.byte	0
 600 0068 09       		.uleb128 0x9
 601 0069 2E       		.uleb128 0x2e
 602 006a 01       		.byte	0x1
 603 006b 3F       		.uleb128 0x3f
 604 006c 0C       		.uleb128 0xc
 605 006d 03       		.uleb128 0x3
 606 006e 0E       		.uleb128 0xe
 607 006f 3A       		.uleb128 0x3a
 608 0070 0B       		.uleb128 0xb
 609 0071 3B       		.uleb128 0x3b
 610 0072 0B       		.uleb128 0xb
 611 0073 27       		.uleb128 0x27
 612 0074 0C       		.uleb128 0xc
 613 0075 11       		.uleb128 0x11
 614 0076 01       		.uleb128 0x1
 615 0077 12       		.uleb128 0x12
 616 0078 01       		.uleb128 0x1
 617 0079 40       		.uleb128 0x40
 618 007a 0A       		.uleb128 0xa
 619 007b 9742     		.uleb128 0x2117
 620 007d 0C       		.uleb128 0xc
 621 007e 01       		.uleb128 0x1
 622 007f 13       		.uleb128 0x13
 623 0080 00       		.byte	0
 624 0081 00       		.byte	0
 625 0082 0A       		.uleb128 0xa
 626 0083 898201   		.uleb128 0x4109
 627 0086 00       		.byte	0
 628 0087 11       		.uleb128 0x11
 629 0088 01       		.uleb128 0x1
 630 0089 9542     		.uleb128 0x2115
 631 008b 0C       		.uleb128 0xc
 632 008c 31       		.uleb128 0x31
 633 008d 13       		.uleb128 0x13
 634 008e 00       		.byte	0
ARM GAS  G:\Users\Jaxb\AppData\Local\Temp\cc9ieDdq.s 			page 14


 635 008f 00       		.byte	0
 636 0090 0B       		.uleb128 0xb
 637 0091 2E       		.uleb128 0x2e
 638 0092 00       		.byte	0
 639 0093 3F       		.uleb128 0x3f
 640 0094 0C       		.uleb128 0xc
 641 0095 03       		.uleb128 0x3
 642 0096 0E       		.uleb128 0xe
 643 0097 3A       		.uleb128 0x3a
 644 0098 0B       		.uleb128 0xb
 645 0099 3B       		.uleb128 0x3b
 646 009a 0B       		.uleb128 0xb
 647 009b 27       		.uleb128 0x27
 648 009c 0C       		.uleb128 0xc
 649 009d 11       		.uleb128 0x11
 650 009e 01       		.uleb128 0x1
 651 009f 12       		.uleb128 0x12
 652 00a0 01       		.uleb128 0x1
 653 00a1 40       		.uleb128 0x40
 654 00a2 0A       		.uleb128 0xa
 655 00a3 9742     		.uleb128 0x2117
 656 00a5 0C       		.uleb128 0xc
 657 00a6 00       		.byte	0
 658 00a7 00       		.byte	0
 659 00a8 0C       		.uleb128 0xc
 660 00a9 2E       		.uleb128 0x2e
 661 00aa 00       		.byte	0
 662 00ab 3F       		.uleb128 0x3f
 663 00ac 0C       		.uleb128 0xc
 664 00ad 03       		.uleb128 0x3
 665 00ae 0E       		.uleb128 0xe
 666 00af 3A       		.uleb128 0x3a
 667 00b0 0B       		.uleb128 0xb
 668 00b1 3B       		.uleb128 0x3b
 669 00b2 0B       		.uleb128 0xb
 670 00b3 11       		.uleb128 0x11
 671 00b4 01       		.uleb128 0x1
 672 00b5 12       		.uleb128 0x12
 673 00b6 01       		.uleb128 0x1
 674 00b7 40       		.uleb128 0x40
 675 00b8 0A       		.uleb128 0xa
 676 00b9 9742     		.uleb128 0x2117
 677 00bb 0C       		.uleb128 0xc
 678 00bc 00       		.byte	0
 679 00bd 00       		.byte	0
 680 00be 0D       		.uleb128 0xd
 681 00bf 34       		.uleb128 0x34
 682 00c0 00       		.byte	0
 683 00c1 03       		.uleb128 0x3
 684 00c2 0E       		.uleb128 0xe
 685 00c3 3A       		.uleb128 0x3a
 686 00c4 0B       		.uleb128 0xb
 687 00c5 3B       		.uleb128 0x3b
 688 00c6 0B       		.uleb128 0xb
 689 00c7 49       		.uleb128 0x49
 690 00c8 13       		.uleb128 0x13
 691 00c9 02       		.uleb128 0x2
ARM GAS  G:\Users\Jaxb\AppData\Local\Temp\cc9ieDdq.s 			page 15


 692 00ca 06       		.uleb128 0x6
 693 00cb 00       		.byte	0
 694 00cc 00       		.byte	0
 695 00cd 0E       		.uleb128 0xe
 696 00ce 2E       		.uleb128 0x2e
 697 00cf 01       		.byte	0x1
 698 00d0 3F       		.uleb128 0x3f
 699 00d1 0C       		.uleb128 0xc
 700 00d2 03       		.uleb128 0x3
 701 00d3 0E       		.uleb128 0xe
 702 00d4 3A       		.uleb128 0x3a
 703 00d5 0B       		.uleb128 0xb
 704 00d6 3B       		.uleb128 0x3b
 705 00d7 0B       		.uleb128 0xb
 706 00d8 27       		.uleb128 0x27
 707 00d9 0C       		.uleb128 0xc
 708 00da 11       		.uleb128 0x11
 709 00db 01       		.uleb128 0x1
 710 00dc 12       		.uleb128 0x12
 711 00dd 01       		.uleb128 0x1
 712 00de 40       		.uleb128 0x40
 713 00df 06       		.uleb128 0x6
 714 00e0 9742     		.uleb128 0x2117
 715 00e2 0C       		.uleb128 0xc
 716 00e3 01       		.uleb128 0x1
 717 00e4 13       		.uleb128 0x13
 718 00e5 00       		.byte	0
 719 00e6 00       		.byte	0
 720 00e7 0F       		.uleb128 0xf
 721 00e8 05       		.uleb128 0x5
 722 00e9 00       		.byte	0
 723 00ea 03       		.uleb128 0x3
 724 00eb 0E       		.uleb128 0xe
 725 00ec 3A       		.uleb128 0x3a
 726 00ed 0B       		.uleb128 0xb
 727 00ee 3B       		.uleb128 0x3b
 728 00ef 0B       		.uleb128 0xb
 729 00f0 49       		.uleb128 0x49
 730 00f1 13       		.uleb128 0x13
 731 00f2 02       		.uleb128 0x2
 732 00f3 0A       		.uleb128 0xa
 733 00f4 00       		.byte	0
 734 00f5 00       		.byte	0
 735 00f6 10       		.uleb128 0x10
 736 00f7 05       		.uleb128 0x5
 737 00f8 00       		.byte	0
 738 00f9 03       		.uleb128 0x3
 739 00fa 0E       		.uleb128 0xe
 740 00fb 3A       		.uleb128 0x3a
 741 00fc 0B       		.uleb128 0xb
 742 00fd 3B       		.uleb128 0x3b
 743 00fe 0B       		.uleb128 0xb
 744 00ff 49       		.uleb128 0x49
 745 0100 13       		.uleb128 0x13
 746 0101 02       		.uleb128 0x2
 747 0102 06       		.uleb128 0x6
 748 0103 00       		.byte	0
ARM GAS  G:\Users\Jaxb\AppData\Local\Temp\cc9ieDdq.s 			page 16


 749 0104 00       		.byte	0
 750 0105 11       		.uleb128 0x11
 751 0106 0F       		.uleb128 0xf
 752 0107 00       		.byte	0
 753 0108 0B       		.uleb128 0xb
 754 0109 0B       		.uleb128 0xb
 755 010a 00       		.byte	0
 756 010b 00       		.byte	0
 757 010c 12       		.uleb128 0x12
 758 010d 2E       		.uleb128 0x2e
 759 010e 00       		.byte	0
 760 010f 3F       		.uleb128 0x3f
 761 0110 0C       		.uleb128 0xc
 762 0111 3C       		.uleb128 0x3c
 763 0112 0C       		.uleb128 0xc
 764 0113 8740     		.uleb128 0x2007
 765 0115 0E       		.uleb128 0xe
 766 0116 03       		.uleb128 0x3
 767 0117 0E       		.uleb128 0xe
 768 0118 3A       		.uleb128 0x3a
 769 0119 0B       		.uleb128 0xb
 770 011a 3B       		.uleb128 0x3b
 771 011b 0B       		.uleb128 0xb
 772 011c 00       		.byte	0
 773 011d 00       		.byte	0
 774 011e 00       		.byte	0
 775              		.section	.debug_loc,"",%progbits
 776              	.Ldebug_loc0:
 777              	.LLST5:
 778 0000 82000000 		.4byte	.LVL10-.Ltext0
 779 0004 8C000000 		.4byte	.LVL12-.Ltext0
 780 0008 0100     		.2byte	0x1
 781 000a 52       		.byte	0x52
 782 000b 8C000000 		.4byte	.LVL12-.Ltext0
 783 000f 92000000 		.4byte	.LVL13-.Ltext0
 784 0013 0200     		.2byte	0x2
 785 0015 71       		.byte	0x71
 786 0016 00       		.sleb128 0
 787 0017 00000000 		.4byte	0
 788 001b 00000000 		.4byte	0
 789              	.LLST0:
 790 001f 00000000 		.4byte	.LFB29-.Ltext0
 791 0023 04000000 		.4byte	.LCFI0-.Ltext0
 792 0027 0200     		.2byte	0x2
 793 0029 7D       		.byte	0x7d
 794 002a 00       		.sleb128 0
 795 002b 04000000 		.4byte	.LCFI0-.Ltext0
 796 002f 6A000000 		.4byte	.LFE29-.Ltext0
 797 0033 0200     		.2byte	0x2
 798 0035 7D       		.byte	0x7d
 799 0036 24       		.sleb128 36
 800 0037 00000000 		.4byte	0
 801 003b 00000000 		.4byte	0
 802              	.LLST1:
 803 003f 00000000 		.4byte	.LVL0-.Ltext0
 804 0043 1E000000 		.4byte	.LVL4-.Ltext0
 805 0047 0100     		.2byte	0x1
ARM GAS  G:\Users\Jaxb\AppData\Local\Temp\cc9ieDdq.s 			page 17


 806 0049 51       		.byte	0x51
 807 004a 1E000000 		.4byte	.LVL4-.Ltext0
 808 004e 6A000000 		.4byte	.LFE29-.Ltext0
 809 0052 0200     		.2byte	0x2
 810 0054 74       		.byte	0x74
 811 0055 7C       		.sleb128 -4
 812 0056 00000000 		.4byte	0
 813 005a 00000000 		.4byte	0
 814              	.LLST2:
 815 005e 00000000 		.4byte	.LVL0-.Ltext0
 816 0062 16000000 		.4byte	.LVL2-.Ltext0
 817 0066 0100     		.2byte	0x1
 818 0068 52       		.byte	0x52
 819 0069 16000000 		.4byte	.LVL2-.Ltext0
 820 006d 6A000000 		.4byte	.LFE29-.Ltext0
 821 0071 0200     		.2byte	0x2
 822 0073 74       		.byte	0x74
 823 0074 78       		.sleb128 -8
 824 0075 00000000 		.4byte	0
 825 0079 00000000 		.4byte	0
 826              	.LLST3:
 827 007d 00000000 		.4byte	.LVL0-.Ltext0
 828 0081 1A000000 		.4byte	.LVL3-.Ltext0
 829 0085 0100     		.2byte	0x1
 830 0087 53       		.byte	0x53
 831 0088 1A000000 		.4byte	.LVL3-.Ltext0
 832 008c 6A000000 		.4byte	.LFE29-.Ltext0
 833 0090 0200     		.2byte	0x2
 834 0092 74       		.byte	0x74
 835 0093 64       		.sleb128 -28
 836 0094 00000000 		.4byte	0
 837 0098 00000000 		.4byte	0
 838              	.LLST4:
 839 009c 06000000 		.4byte	.LVL1-.Ltext0
 840 00a0 50000000 		.4byte	.LVL5-.Ltext0
 841 00a4 0100     		.2byte	0x1
 842 00a6 54       		.byte	0x54
 843 00a7 50000000 		.4byte	.LVL5-.Ltext0
 844 00ab 54000000 		.4byte	.LVL6-.Ltext0
 845 00af 0300     		.2byte	0x3
 846 00b1 74       		.byte	0x74
 847 00b2 74       		.sleb128 -12
 848 00b3 9F       		.byte	0x9f
 849 00b4 54000000 		.4byte	.LVL6-.Ltext0
 850 00b8 58000000 		.4byte	.LVL7-.Ltext0
 851 00bc 0300     		.2byte	0x3
 852 00be 74       		.byte	0x74
 853 00bf 6C       		.sleb128 -20
 854 00c0 9F       		.byte	0x9f
 855 00c1 58000000 		.4byte	.LVL7-.Ltext0
 856 00c5 5C000000 		.4byte	.LVL8-.Ltext0
 857 00c9 0300     		.2byte	0x3
 858 00cb 74       		.byte	0x74
 859 00cc 50       		.sleb128 -48
 860 00cd 9F       		.byte	0x9f
 861 00ce 5C000000 		.4byte	.LVL8-.Ltext0
 862 00d2 60000000 		.4byte	.LVL9-.Ltext0
ARM GAS  G:\Users\Jaxb\AppData\Local\Temp\cc9ieDdq.s 			page 18


 863 00d6 0300     		.2byte	0x3
 864 00d8 74       		.byte	0x74
 865 00d9 48       		.sleb128 -56
 866 00da 9F       		.byte	0x9f
 867 00db 60000000 		.4byte	.LVL9-.Ltext0
 868 00df 6A000000 		.4byte	.LFE29-.Ltext0
 869 00e3 0300     		.2byte	0x3
 870 00e5 74       		.byte	0x74
 871 00e6 44       		.sleb128 -60
 872 00e7 9F       		.byte	0x9f
 873 00e8 00000000 		.4byte	0
 874 00ec 00000000 		.4byte	0
 875              		.section	.debug_aranges,"",%progbits
 876 0000 1C000000 		.4byte	0x1c
 877 0004 0200     		.2byte	0x2
 878 0006 00000000 		.4byte	.Ldebug_info0
 879 000a 04       		.byte	0x4
 880 000b 00       		.byte	0
 881 000c 0000     		.2byte	0
 882 000e 0000     		.2byte	0
 883 0010 00000000 		.4byte	.Ltext0
 884 0014 FC000000 		.4byte	.Letext0-.Ltext0
 885 0018 00000000 		.4byte	0
 886 001c 00000000 		.4byte	0
 887              		.section	.debug_line,"",%progbits
 888              	.Ldebug_line0:
 889 0000 9D010000 		.section	.debug_str,"MS",%progbits,1
 889      02005001 
 889      00000201 
 889      FB0E0D00 
 889      01010101 
 890              	.LASF23:
 891 0000 7072696F 		.ascii	"prio\000"
 891      00
 892              	.LASF21:
 893 0005 72657475 		.ascii	"return_ptr\000"
 893      726E5F70 
 893      747200
 894              	.LASF18:
 895 0010 7365745F 		.ascii	"set_register\000"
 895      72656769 
 895      73746572 
 895      00
 896              	.LASF24:
 897 001d 73746163 		.ascii	"stack\000"
 897      6B00
 898              	.LASF30:
 899 0023 5057525F 		.ascii	"PWR_EnterSTANDBYMode\000"
 899      456E7465 
 899      72535441 
 899      4E444259 
 899      4D6F6465 
 900              	.LASF0:
 901 0038 4350555F 		.ascii	"CPU_INT32U\000"
 901      494E5433 
 901      325500
 902              	.LASF28:
ARM GAS  G:\Users\Jaxb\AppData\Local\Temp\cc9ieDdq.s 			page 19


 903 0043 7379735F 		.ascii	"sys_sleep\000"
 903      736C6565 
 903      7000
 904              	.LASF4:
 905 004d 756E7369 		.ascii	"unsigned char\000"
 905      676E6564 
 905      20636861 
 905      7200
 906              	.LASF9:
 907 005b 6C6F6E67 		.ascii	"long unsigned int\000"
 907      20756E73 
 907      69676E65 
 907      6420696E 
 907      7400
 908              	.LASF6:
 909 006d 73686F72 		.ascii	"short unsigned int\000"
 909      7420756E 
 909      7369676E 
 909      65642069 
 909      6E7400
 910              	.LASF13:
 911 0080 49544D5F 		.ascii	"ITM_RxBuffer\000"
 911      52784275 
 911      66666572 
 911      00
 912              	.LASF8:
 913 008d 5F5F7569 		.ascii	"__uint32_t\000"
 913      6E743332 
 913      5F7400
 914              	.LASF19:
 915 0098 73746163 		.ascii	"stack_ptr\000"
 915      6B5F7074 
 915      7200
 916              	.LASF2:
 917 00a2 756E7369 		.ascii	"unsigned int\000"
 917      676E6564 
 917      20696E74 
 917      00
 918              	.LASF11:
 919 00af 6C6F6E67 		.ascii	"long long unsigned int\000"
 919      206C6F6E 
 919      6720756E 
 919      7369676E 
 919      65642069 
 920              	.LASF29:
 921 00c6 5265426F 		.ascii	"ReBoot\000"
 921      6F7400
 922              	.LASF10:
 923 00cd 6C6F6E67 		.ascii	"long long int\000"
 923      206C6F6E 
 923      6720696E 
 923      7400
 924              	.LASF26:
 925 00db 2E2E2F2E 		.ascii	"../../source/src/kernel/OS_CPU/OS_CPU_STM32.c\000"
 925      2E2F736F 
 925      75726365 
 925      2F737263 
ARM GAS  G:\Users\Jaxb\AppData\Local\Temp\cc9ieDdq.s 			page 20


 925      2F6B6572 
 926              	.LASF14:
 927 0109 53797374 		.ascii	"SystemCoreClock\000"
 927      656D436F 
 927      7265436C 
 927      6F636B00 
 928              	.LASF17:
 929 0119 5F5F696E 		.ascii	"__init_systick\000"
 929      69745F73 
 929      79737469 
 929      636B00
 930              	.LASF22:
 931 0128 70617261 		.ascii	"para\000"
 931      00
 932              	.LASF1:
 933 012d 4350555F 		.ascii	"CPU_REG32\000"
 933      52454733 
 933      3200
 934              	.LASF5:
 935 0137 73686F72 		.ascii	"short int\000"
 935      7420696E 
 935      7400
 936              	.LASF16:
 937 0141 7379735F 		.ascii	"sys_shutdown\000"
 937      73687574 
 937      646F776E 
 937      00
 938              	.LASF12:
 939 014e 75696E74 		.ascii	"uint32_t\000"
 939      33325F74 
 939      00
 940              	.LASF7:
 941 0157 6C6F6E67 		.ascii	"long int\000"
 941      20696E74 
 941      00
 942              	.LASF25:
 943 0160 474E5520 		.ascii	"GNU C11 7.3.1 20180622 (release) [ARM/embedded-7-br"
 943      43313120 
 943      372E332E 
 943      31203230 
 943      31383036 
 944 0193 616E6368 		.ascii	"anch revision 261907] -mcpu=cortex-m3 -mthumb -mapc"
 944      20726576 
 944      6973696F 
 944      6E203236 
 944      31393037 
 945 01c6 732D6672 		.ascii	"s-frame -mthumb-interwork -mcpu=cortex-m3 -mthumb -"
 945      616D6520 
 945      2D6D7468 
 945      756D622D 
 945      696E7465 
 946 01f9 67647761 		.ascii	"gdwarf-2 -O2\000"
 946      72662D32 
 946      202D4F32 
 946      00
 947              	.LASF20:
 948 0206 656E7472 		.ascii	"entry_ptr\000"
ARM GAS  G:\Users\Jaxb\AppData\Local\Temp\cc9ieDdq.s 			page 21


 948      795F7074 
 948      7200
 949              	.LASF3:
 950 0210 7369676E 		.ascii	"signed char\000"
 950      65642063 
 950      68617200 
 951              	.LASF27:
 952 021c 463A5C6B 		.ascii	"F:\\kaka\\KAKAOS\\C\\windows\\Project\\RVMDK\243\250"
 952      616B615C 
 952      4B414B41 
 952      4F535C43 
 952      5C77696E 
 953 0244 757635A3 		.ascii	"uv5\243\251\000"
 953      A900
 954              	.LASF15:
 955 024a 53544143 		.ascii	"STACK_P\000"
 955      4B5F5000 
 956              		.ident	"GCC: (GNU Tools for Arm Embedded Processors 7-2018-q2-update) 7.3.1 20180622 (release) [AR
ARM GAS  G:\Users\Jaxb\AppData\Local\Temp\cc9ieDdq.s 			page 22


DEFINED SYMBOLS
                            *ABS*:00000000 OS_CPU_STM32.c
G:\Users\Jaxb\AppData\Local\Temp\cc9ieDdq.s:15     .text:00000000 $t
G:\Users\Jaxb\AppData\Local\Temp\cc9ieDdq.s:23     .text:00000000 set_register
G:\Users\Jaxb\AppData\Local\Temp\cc9ieDdq.s:116    .text:0000006c __init_systick
G:\Users\Jaxb\AppData\Local\Temp\cc9ieDdq.s:160    .text:0000009c $d
G:\Users\Jaxb\AppData\Local\Temp\cc9ieDdq.s:168    .text:000000b0 $t
G:\Users\Jaxb\AppData\Local\Temp\cc9ieDdq.s:176    .text:000000b0 ReBoot
G:\Users\Jaxb\AppData\Local\Temp\cc9ieDdq.s:213    .text:000000d4 sys_sleep
G:\Users\Jaxb\AppData\Local\Temp\cc9ieDdq.s:245    .text:000000f4 $d
G:\Users\Jaxb\AppData\Local\Temp\cc9ieDdq.s:249    .text:000000f8 $t
G:\Users\Jaxb\AppData\Local\Temp\cc9ieDdq.s:257    .text:000000f8 sys_shutdown
G:\Users\Jaxb\AppData\Local\Temp\cc9ieDdq.s:956    .text:000000fc $d

UNDEFINED SYMBOLS
SystemCoreClock
_estack
Reset_Handler
PWR_EnterSTANDBYMode
