ARM GAS  G:\Users\Jaxb\AppData\Local\Temp\ccXqQ7Kb.s 			page 1


   1              		.cpu cortex-m3
   2              		.eabi_attribute 20, 1
   3              		.eabi_attribute 21, 1
   4              		.eabi_attribute 23, 3
   5              		.eabi_attribute 24, 1
   6              		.eabi_attribute 25, 1
   7              		.eabi_attribute 26, 1
   8              		.eabi_attribute 30, 6
   9              		.eabi_attribute 34, 1
  10              		.eabi_attribute 18, 4
  11              		.file	"OS_CPU_STM32.c"
  12              		.text
  13              	.Ltext0:
  14              		.cfi_sections	.debug_frame
  15              		.align	1
  16              		.global	set_register
  17              		.syntax unified
  18              		.thumb
  19              		.thumb_func
  20              		.fpu softvfp
  21              		.type	set_register, %function
  22              	set_register:
  23              	.LFB29:
  24              		.file 1 "../../source/src/kernel/OS_CPU/OS_CPU_STM32.c"
   1:../../source/src/kernel/OS_CPU/OS_CPU_STM32.c **** #include <os_cpu_stm32.h>
   2:../../source/src/kernel/OS_CPU/OS_CPU_STM32.c **** #include <ka_configuration.h>
   3:../../source/src/kernel/OS_CPU/OS_CPU_STM32.c **** #include <stm32f10x.h>
   4:../../source/src/kernel/OS_CPU/OS_CPU_STM32.c **** #include <osinit.h>
   5:../../source/src/kernel/OS_CPU/OS_CPU_STM32.c **** #include "stm32f10x_pwr.h" 
   6:../../source/src/kernel/OS_CPU/OS_CPU_STM32.c **** #include "stm32f10x_rcc.h" 
   7:../../source/src/kernel/OS_CPU/OS_CPU_STM32.c **** #include <myMicroLIB.h>
   8:../../source/src/kernel/OS_CPU/OS_CPU_STM32.c **** 
   9:../../source/src/kernel/OS_CPU/OS_CPU_STM32.c **** 
  10:../../source/src/kernel/OS_CPU/OS_CPU_STM32.c **** 
  11:../../source/src/kernel/OS_CPU/OS_CPU_STM32.c **** #if (32 == CPU_BIT)
  12:../../source/src/kernel/OS_CPU/OS_CPU_STM32.c **** 	typedef unsigned int* STACK_P;
  13:../../source/src/kernel/OS_CPU/OS_CPU_STM32.c **** #else
  14:../../source/src/kernel/OS_CPU/OS_CPU_STM32.c **** 	#error "CPU_BIT not be setted,end compile"
  15:../../source/src/kernel/OS_CPU/OS_CPU_STM32.c **** #endif
  16:../../source/src/kernel/OS_CPU/OS_CPU_STM32.c **** 
  17:../../source/src/kernel/OS_CPU/OS_CPU_STM32.c **** void set_register(void **stack_ptr,void *entry_ptr,void *return_ptr,void *para)
  18:../../source/src/kernel/OS_CPU/OS_CPU_STM32.c **** {
  25              		.loc 1 18 0
  26              		.cfi_startproc
  27              		@ args = 0, pretend = 0, frame = 24
  28              		@ frame_needed = 1, uses_anonymous_args = 0
  29              		@ link register save eliminated.
  30 0000 80B4     		push	{r7}
  31              	.LCFI0:
  32              		.cfi_def_cfa_offset 4
  33              		.cfi_offset 7, -4
  34 0002 87B0     		sub	sp, sp, #28
  35              	.LCFI1:
  36              		.cfi_def_cfa_offset 32
  37 0004 00AF     		add	r7, sp, #0
  38              	.LCFI2:
  39              		.cfi_def_cfa_register 7
ARM GAS  G:\Users\Jaxb\AppData\Local\Temp\ccXqQ7Kb.s 			page 2


  40 0006 F860     		str	r0, [r7, #12]
  41 0008 B960     		str	r1, [r7, #8]
  42 000a 7A60     		str	r2, [r7, #4]
  43 000c 3B60     		str	r3, [r7]
  19:../../source/src/kernel/OS_CPU/OS_CPU_STM32.c **** 	STACK_P stack = *stack_ptr;
  44              		.loc 1 19 0
  45 000e FB68     		ldr	r3, [r7, #12]
  46 0010 1B68     		ldr	r3, [r3]
  47 0012 7B61     		str	r3, [r7, #20]
  20:../../source/src/kernel/OS_CPU/OS_CPU_STM32.c **** 	*stack = (unsigned int)0x01000000uL;		/*xPSR*/
  48              		.loc 1 20 0
  49 0014 7B69     		ldr	r3, [r7, #20]
  50 0016 4FF08072 		mov	r2, #16777216
  51 001a 1A60     		str	r2, [r3]
  21:../../source/src/kernel/OS_CPU/OS_CPU_STM32.c **** 	*(--stack) = (unsigned int)entry_ptr;  		/*R15 PC*/
  52              		.loc 1 21 0
  53 001c 7B69     		ldr	r3, [r7, #20]
  54 001e 043B     		subs	r3, r3, #4
  55 0020 7B61     		str	r3, [r7, #20]
  56 0022 BA68     		ldr	r2, [r7, #8]
  57 0024 7B69     		ldr	r3, [r7, #20]
  58 0026 1A60     		str	r2, [r3]
  22:../../source/src/kernel/OS_CPU/OS_CPU_STM32.c **** 	*(--stack) = (unsigned int)return_ptr;		/*R14 LR*/
  59              		.loc 1 22 0
  60 0028 7B69     		ldr	r3, [r7, #20]
  61 002a 043B     		subs	r3, r3, #4
  62 002c 7B61     		str	r3, [r7, #20]
  63 002e 7A68     		ldr	r2, [r7, #4]
  64 0030 7B69     		ldr	r3, [r7, #20]
  65 0032 1A60     		str	r2, [r3]
  23:../../source/src/kernel/OS_CPU/OS_CPU_STM32.c **** 	*(--stack) = (unsigned int)0x12121212uL;	/*R12*/
  66              		.loc 1 23 0
  67 0034 7B69     		ldr	r3, [r7, #20]
  68 0036 043B     		subs	r3, r3, #4
  69 0038 7B61     		str	r3, [r7, #20]
  70 003a 7B69     		ldr	r3, [r7, #20]
  71 003c 4FF01232 		mov	r2, #303174162
  72 0040 1A60     		str	r2, [r3]
  24:../../source/src/kernel/OS_CPU/OS_CPU_STM32.c **** 	*(--stack) = (unsigned int)0x03030303uL;	/*R3*/
  73              		.loc 1 24 0
  74 0042 7B69     		ldr	r3, [r7, #20]
  75 0044 043B     		subs	r3, r3, #4
  76 0046 7B61     		str	r3, [r7, #20]
  77 0048 7B69     		ldr	r3, [r7, #20]
  78 004a 4FF00332 		mov	r2, #50529027
  79 004e 1A60     		str	r2, [r3]
  25:../../source/src/kernel/OS_CPU/OS_CPU_STM32.c **** 	*(--stack) = (unsigned int)0x02020202uL;	/*R2*/
  80              		.loc 1 25 0
  81 0050 7B69     		ldr	r3, [r7, #20]
  82 0052 043B     		subs	r3, r3, #4
  83 0054 7B61     		str	r3, [r7, #20]
  84 0056 7B69     		ldr	r3, [r7, #20]
  85 0058 4FF00232 		mov	r2, #33686018
  86 005c 1A60     		str	r2, [r3]
  26:../../source/src/kernel/OS_CPU/OS_CPU_STM32.c **** 	*(--stack) = (unsigned int)0x01010101uL;	/*R1*/
  87              		.loc 1 26 0
  88 005e 7B69     		ldr	r3, [r7, #20]
ARM GAS  G:\Users\Jaxb\AppData\Local\Temp\ccXqQ7Kb.s 			page 3


  89 0060 043B     		subs	r3, r3, #4
  90 0062 7B61     		str	r3, [r7, #20]
  91 0064 7B69     		ldr	r3, [r7, #20]
  92 0066 4FF00132 		mov	r2, #16843009
  93 006a 1A60     		str	r2, [r3]
  27:../../source/src/kernel/OS_CPU/OS_CPU_STM32.c **** 	*(--stack) = (unsigned int)para;			/*R0*/
  94              		.loc 1 27 0
  95 006c 7B69     		ldr	r3, [r7, #20]
  96 006e 043B     		subs	r3, r3, #4
  97 0070 7B61     		str	r3, [r7, #20]
  98 0072 3A68     		ldr	r2, [r7]
  99 0074 7B69     		ldr	r3, [r7, #20]
 100 0076 1A60     		str	r2, [r3]
  28:../../source/src/kernel/OS_CPU/OS_CPU_STM32.c **** 	*(--stack) = (unsigned int)0x11111111uL;	/*R11*/
 101              		.loc 1 28 0
 102 0078 7B69     		ldr	r3, [r7, #20]
 103 007a 043B     		subs	r3, r3, #4
 104 007c 7B61     		str	r3, [r7, #20]
 105 007e 7B69     		ldr	r3, [r7, #20]
 106 0080 4FF01132 		mov	r2, #286331153
 107 0084 1A60     		str	r2, [r3]
  29:../../source/src/kernel/OS_CPU/OS_CPU_STM32.c **** 	*(--stack) = (unsigned int)0x10101010uL;	/*R10*/
 108              		.loc 1 29 0
 109 0086 7B69     		ldr	r3, [r7, #20]
 110 0088 043B     		subs	r3, r3, #4
 111 008a 7B61     		str	r3, [r7, #20]
 112 008c 7B69     		ldr	r3, [r7, #20]
 113 008e 4FF01032 		mov	r2, #269488144
 114 0092 1A60     		str	r2, [r3]
  30:../../source/src/kernel/OS_CPU/OS_CPU_STM32.c **** 	*(--stack) = (unsigned int)0x09090909uL;	/*R9*/
 115              		.loc 1 30 0
 116 0094 7B69     		ldr	r3, [r7, #20]
 117 0096 043B     		subs	r3, r3, #4
 118 0098 7B61     		str	r3, [r7, #20]
 119 009a 7B69     		ldr	r3, [r7, #20]
 120 009c 4FF00932 		mov	r2, #151587081
 121 00a0 1A60     		str	r2, [r3]
  31:../../source/src/kernel/OS_CPU/OS_CPU_STM32.c **** 	*(--stack) = (unsigned int)0x08080808uL;	/*R8*/
 122              		.loc 1 31 0
 123 00a2 7B69     		ldr	r3, [r7, #20]
 124 00a4 043B     		subs	r3, r3, #4
 125 00a6 7B61     		str	r3, [r7, #20]
 126 00a8 7B69     		ldr	r3, [r7, #20]
 127 00aa 4FF00832 		mov	r2, #134744072
 128 00ae 1A60     		str	r2, [r3]
  32:../../source/src/kernel/OS_CPU/OS_CPU_STM32.c **** 	*(--stack) = (unsigned int)0x07070707uL;	/*R7*/
 129              		.loc 1 32 0
 130 00b0 7B69     		ldr	r3, [r7, #20]
 131 00b2 043B     		subs	r3, r3, #4
 132 00b4 7B61     		str	r3, [r7, #20]
 133 00b6 7B69     		ldr	r3, [r7, #20]
 134 00b8 4FF00732 		mov	r2, #117901063
 135 00bc 1A60     		str	r2, [r3]
  33:../../source/src/kernel/OS_CPU/OS_CPU_STM32.c **** 	*(--stack) = (unsigned int)0x06060606uL;	/*R6*/
 136              		.loc 1 33 0
 137 00be 7B69     		ldr	r3, [r7, #20]
 138 00c0 043B     		subs	r3, r3, #4
ARM GAS  G:\Users\Jaxb\AppData\Local\Temp\ccXqQ7Kb.s 			page 4


 139 00c2 7B61     		str	r3, [r7, #20]
 140 00c4 7B69     		ldr	r3, [r7, #20]
 141 00c6 4FF00632 		mov	r2, #101058054
 142 00ca 1A60     		str	r2, [r3]
  34:../../source/src/kernel/OS_CPU/OS_CPU_STM32.c **** 	*(--stack) = (unsigned int)0x05050505uL;	/*R5*/
 143              		.loc 1 34 0
 144 00cc 7B69     		ldr	r3, [r7, #20]
 145 00ce 043B     		subs	r3, r3, #4
 146 00d0 7B61     		str	r3, [r7, #20]
 147 00d2 7B69     		ldr	r3, [r7, #20]
 148 00d4 4FF00532 		mov	r2, #84215045
 149 00d8 1A60     		str	r2, [r3]
  35:../../source/src/kernel/OS_CPU/OS_CPU_STM32.c **** 	*(--stack) = (unsigned int)0x04040404uL;	/*R4*/
 150              		.loc 1 35 0
 151 00da 7B69     		ldr	r3, [r7, #20]
 152 00dc 043B     		subs	r3, r3, #4
 153 00de 7B61     		str	r3, [r7, #20]
 154 00e0 7B69     		ldr	r3, [r7, #20]
 155 00e2 4FF00432 		mov	r2, #67372036
 156 00e6 1A60     		str	r2, [r3]
  36:../../source/src/kernel/OS_CPU/OS_CPU_STM32.c **** 	*stack_ptr = stack;
 157              		.loc 1 36 0
 158 00e8 FB68     		ldr	r3, [r7, #12]
 159 00ea 7A69     		ldr	r2, [r7, #20]
 160 00ec 1A60     		str	r2, [r3]
  37:../../source/src/kernel/OS_CPU/OS_CPU_STM32.c **** }
 161              		.loc 1 37 0
 162 00ee 00BF     		nop
 163 00f0 1C37     		adds	r7, r7, #28
 164              	.LCFI3:
 165              		.cfi_def_cfa_offset 4
 166 00f2 BD46     		mov	sp, r7
 167              	.LCFI4:
 168              		.cfi_def_cfa_register 13
 169              		@ sp needed
 170 00f4 80BC     		pop	{r7}
 171              	.LCFI5:
 172              		.cfi_restore 7
 173              		.cfi_def_cfa_offset 0
 174 00f6 7047     		bx	lr
 175              		.cfi_endproc
 176              	.LFE29:
 177              		.size	set_register, .-set_register
 178              		.align	1
 179              		.global	__init_systick
 180              		.syntax unified
 181              		.thumb
 182              		.thumb_func
 183              		.fpu softvfp
 184              		.type	__init_systick, %function
 185              	__init_systick:
 186              	.LFB30:
  38:../../source/src/kernel/OS_CPU/OS_CPU_STM32.c **** 
  39:../../source/src/kernel/OS_CPU/OS_CPU_STM32.c **** void __init_systick(void)
  40:../../source/src/kernel/OS_CPU/OS_CPU_STM32.c **** {
 187              		.loc 1 40 0
 188              		.cfi_startproc
ARM GAS  G:\Users\Jaxb\AppData\Local\Temp\ccXqQ7Kb.s 			page 5


 189              		@ args = 0, pretend = 0, frame = 8
 190              		@ frame_needed = 1, uses_anonymous_args = 0
 191              		@ link register save eliminated.
 192 00f8 80B4     		push	{r7}
 193              	.LCFI6:
 194              		.cfi_def_cfa_offset 4
 195              		.cfi_offset 7, -4
 196 00fa 83B0     		sub	sp, sp, #12
 197              	.LCFI7:
 198              		.cfi_def_cfa_offset 16
 199 00fc 00AF     		add	r7, sp, #0
 200              	.LCFI8:
 201              		.cfi_def_cfa_register 7
  41:../../source/src/kernel/OS_CPU/OS_CPU_STM32.c **** 	CPU_INT32U  prio;
  42:../../source/src/kernel/OS_CPU/OS_CPU_STM32.c **** 	CPU_REG_NVIC_ST_RELOAD = SystemCoreClock / TICK_PER_SEC  -1 ; 
 202              		.loc 1 42 0
 203 00fe 124B     		ldr	r3, .L3
 204 0100 1B68     		ldr	r3, [r3]
 205 0102 124A     		ldr	r2, .L3+4
 206 0104 A2FB0323 		umull	r2, r3, r2, r3
 207 0108 5B09     		lsrs	r3, r3, #5
 208 010a 114A     		ldr	r2, .L3+8
 209 010c 013B     		subs	r3, r3, #1
 210 010e 1360     		str	r3, [r2]
  43:../../source/src/kernel/OS_CPU/OS_CPU_STM32.c ****     /* Set SysTick handler prio */
  44:../../source/src/kernel/OS_CPU/OS_CPU_STM32.c ****     prio  = CPU_REG_NVIC_SHPRI3;
 211              		.loc 1 44 0
 212 0110 104B     		ldr	r3, .L3+12
 213 0112 1B68     		ldr	r3, [r3]
 214 0114 7B60     		str	r3, [r7, #4]
  45:../../source/src/kernel/OS_CPU/OS_CPU_STM32.c ****     prio &= DEF_BIT_FIELD(24, 0);
 215              		.loc 1 45 0
 216 0116 7B68     		ldr	r3, [r7, #4]
 217 0118 23F07F43 		bic	r3, r3, #-16777216
 218 011c 7B60     		str	r3, [r7, #4]
  46:../../source/src/kernel/OS_CPU/OS_CPU_STM32.c ****     prio |= DEF_BIT_MASK(OS_CPU_CFG_SYSTICK_PRIO, 24);
  47:../../source/src/kernel/OS_CPU/OS_CPU_STM32.c **** 
  48:../../source/src/kernel/OS_CPU/OS_CPU_STM32.c ****     CPU_REG_NVIC_SHPRI3 = prio; 
 219              		.loc 1 48 0
 220 011e 0D4A     		ldr	r2, .L3+12
 221 0120 7B68     		ldr	r3, [r7, #4]
 222 0122 1360     		str	r3, [r2]
  49:../../source/src/kernel/OS_CPU/OS_CPU_STM32.c **** 
  50:../../source/src/kernel/OS_CPU/OS_CPU_STM32.c ****                                                             /* Enable timer. */
  51:../../source/src/kernel/OS_CPU/OS_CPU_STM32.c ****     CPU_REG_NVIC_ST_CTRL |= CPU_REG_NVIC_ST_CTRL_CLKSOURCE |
 223              		.loc 1 51 0
 224 0124 0C4B     		ldr	r3, .L3+16
 225 0126 1B68     		ldr	r3, [r3]
 226 0128 0B4A     		ldr	r2, .L3+16
 227 012a 43F00503 		orr	r3, r3, #5
 228 012e 1360     		str	r3, [r2]
  52:../../source/src/kernel/OS_CPU/OS_CPU_STM32.c ****                             CPU_REG_NVIC_ST_CTRL_ENABLE;
  53:../../source/src/kernel/OS_CPU/OS_CPU_STM32.c ****                                                             /* Enable timer interrupt. */
  54:../../source/src/kernel/OS_CPU/OS_CPU_STM32.c ****     CPU_REG_NVIC_ST_CTRL |= CPU_REG_NVIC_ST_CTRL_TICKINT;
 229              		.loc 1 54 0
 230 0130 094B     		ldr	r3, .L3+16
 231 0132 1B68     		ldr	r3, [r3]
ARM GAS  G:\Users\Jaxb\AppData\Local\Temp\ccXqQ7Kb.s 			page 6


 232 0134 084A     		ldr	r2, .L3+16
 233 0136 43F00203 		orr	r3, r3, #2
 234 013a 1360     		str	r3, [r2]
  55:../../source/src/kernel/OS_CPU/OS_CPU_STM32.c **** }
 235              		.loc 1 55 0
 236 013c 00BF     		nop
 237 013e 0C37     		adds	r7, r7, #12
 238              	.LCFI9:
 239              		.cfi_def_cfa_offset 4
 240 0140 BD46     		mov	sp, r7
 241              	.LCFI10:
 242              		.cfi_def_cfa_register 13
 243              		@ sp needed
 244 0142 80BC     		pop	{r7}
 245              	.LCFI11:
 246              		.cfi_restore 7
 247              		.cfi_def_cfa_offset 0
 248 0144 7047     		bx	lr
 249              	.L4:
 250 0146 00BF     		.align	2
 251              	.L3:
 252 0148 00000000 		.word	SystemCoreClock
 253 014c 1F85EB51 		.word	1374389535
 254 0150 14E000E0 		.word	-536813548
 255 0154 20ED00E0 		.word	-536810208
 256 0158 10E000E0 		.word	-536813552
 257              		.cfi_endproc
 258              	.LFE30:
 259              		.size	__init_systick, .-__init_systick
 260              		.align	1
 261              		.global	ReBoot
 262              		.syntax unified
 263              		.thumb
 264              		.thumb_func
 265              		.fpu softvfp
 266              		.type	ReBoot, %function
 267              	ReBoot:
 268              	.LFB31:
  56:../../source/src/kernel/OS_CPU/OS_CPU_STM32.c **** 
  57:../../source/src/kernel/OS_CPU/OS_CPU_STM32.c **** extern void Reset_Handler();
  58:../../source/src/kernel/OS_CPU/OS_CPU_STM32.c **** void ReBoot()
  59:../../source/src/kernel/OS_CPU/OS_CPU_STM32.c **** {
 269              		.loc 1 59 0
 270              		.cfi_startproc
 271              		@ args = 0, pretend = 0, frame = 0
 272              		@ frame_needed = 1, uses_anonymous_args = 0
 273              		@ link register save eliminated.
 274 015c 80B4     		push	{r7}
 275              	.LCFI12:
 276              		.cfi_def_cfa_offset 4
 277              		.cfi_offset 7, -4
 278 015e 00AF     		add	r7, sp, #0
 279              	.LCFI13:
 280              		.cfi_def_cfa_register 7
  60:../../source/src/kernel/OS_CPU/OS_CPU_STM32.c **** 	asm volatile(
 281              		.loc 1 60 0
 282              		.syntax unified
ARM GAS  G:\Users\Jaxb\AppData\Local\Temp\ccXqQ7Kb.s 			page 7


 283              	@ 60 "../../source/src/kernel/OS_CPU/OS_CPU_STM32.c" 1
 284 0160 72B6     		CPSID   I
 285 0162 EFF31480 		MRS R0,CONTROL
 286 0166 00F00100 		AND R0,#0x01
 287 016a 80F31488 		MSR CONTROL,R0
 288 016e DFF85CD0 		LDR SP, =_estack
 289 0172 1749     		LDR R1,=0xE000E010
 290 0174 0868     		LDR R0,[R1]
 291 0176 20F00200 		AND R0,#0xFFFFFFFD
 292 017a 0860     		STR R0,[R1]
 293 017c FFF7FEBF 		B   Reset_Handler
 294              		
 295              	@ 0 "" 2
  61:../../source/src/kernel/OS_CPU/OS_CPU_STM32.c **** 	    "CPSID   I\n\t"
  62:../../source/src/kernel/OS_CPU/OS_CPU_STM32.c **** 	    "MRS R0,CONTROL\n\t"
  63:../../source/src/kernel/OS_CPU/OS_CPU_STM32.c **** 	    "AND R0,#0x01\n\t"
  64:../../source/src/kernel/OS_CPU/OS_CPU_STM32.c **** 	    "MSR CONTROL,R0\n\t"
  65:../../source/src/kernel/OS_CPU/OS_CPU_STM32.c **** 	    "LDR SP, =_estack\n\t"
  66:../../source/src/kernel/OS_CPU/OS_CPU_STM32.c **** 	    "LDR R1,=0xE000E010\n\t"
  67:../../source/src/kernel/OS_CPU/OS_CPU_STM32.c **** 	    "LDR R0,[R1]\n\t"
  68:../../source/src/kernel/OS_CPU/OS_CPU_STM32.c **** 	    "AND R0,#0xFFFFFFFD\n\t"
  69:../../source/src/kernel/OS_CPU/OS_CPU_STM32.c **** 	    "STR R0,[R1]\n\t"
  70:../../source/src/kernel/OS_CPU/OS_CPU_STM32.c **** 	    "B   Reset_Handler\n\t"
  71:../../source/src/kernel/OS_CPU/OS_CPU_STM32.c **** 	);
  72:../../source/src/kernel/OS_CPU/OS_CPU_STM32.c **** }
 296              		.loc 1 72 0
 297              		.thumb
 298              		.syntax unified
 299 0180 00BF     		nop
 300 0182 BD46     		mov	sp, r7
 301              	.LCFI14:
 302              		.cfi_def_cfa_register 13
 303              		@ sp needed
 304 0184 80BC     		pop	{r7}
 305              	.LCFI15:
 306              		.cfi_restore 7
 307              		.cfi_def_cfa_offset 0
 308 0186 7047     		bx	lr
 309              		.cfi_endproc
 310              	.LFE31:
 311              		.size	ReBoot, .-ReBoot
 312              		.align	1
 313              		.global	sys_sleep
 314              		.syntax unified
 315              		.thumb
 316              		.thumb_func
 317              		.fpu softvfp
 318              		.type	sys_sleep, %function
 319              	sys_sleep:
 320              	.LFB32:
  73:../../source/src/kernel/OS_CPU/OS_CPU_STM32.c **** 
  74:../../source/src/kernel/OS_CPU/OS_CPU_STM32.c **** #if CONFIG_POWER_MANAGEMENT
  75:../../source/src/kernel/OS_CPU/OS_CPU_STM32.c **** void sys_sleep(void)
  76:../../source/src/kernel/OS_CPU/OS_CPU_STM32.c **** {
 321              		.loc 1 76 0
 322              		.cfi_startproc
 323              		@ args = 0, pretend = 0, frame = 0
ARM GAS  G:\Users\Jaxb\AppData\Local\Temp\ccXqQ7Kb.s 			page 8


 324              		@ frame_needed = 1, uses_anonymous_args = 0
 325              		@ link register save eliminated.
 326 0188 80B4     		push	{r7}
 327              	.LCFI16:
 328              		.cfi_def_cfa_offset 4
 329              		.cfi_offset 7, -4
 330 018a 00AF     		add	r7, sp, #0
 331              	.LCFI17:
 332              		.cfi_def_cfa_register 7
  77:../../source/src/kernel/OS_CPU/OS_CPU_STM32.c **** 
  78:../../source/src/kernel/OS_CPU/OS_CPU_STM32.c **** 	CPU_REG_NVIC_ST_CTRL &= ~(CPU_REG_NVIC_ST_CTRL_TICKINT | CPU_REG_NVIC_ST_CTRL_ENABLE);
 333              		.loc 1 78 0
 334 018c 0B4B     		ldr	r3, .L7
 335 018e 1B68     		ldr	r3, [r3]
 336 0190 0A4A     		ldr	r2, .L7
 337 0192 23F00303 		bic	r3, r3, #3
 338 0196 1360     		str	r3, [r2]
  79:../../source/src/kernel/OS_CPU/OS_CPU_STM32.c **** 	asm volatile("wfi");
 339              		.loc 1 79 0
 340              		.syntax unified
 341              	@ 79 "../../source/src/kernel/OS_CPU/OS_CPU_STM32.c" 1
 342 0198 30BF     		wfi
 343              	@ 0 "" 2
  80:../../source/src/kernel/OS_CPU/OS_CPU_STM32.c **** 
  81:../../source/src/kernel/OS_CPU/OS_CPU_STM32.c **** 	CPU_REG_NVIC_ST_CTRL |= CPU_REG_NVIC_ST_CTRL_CLKSOURCE |
 344              		.loc 1 81 0
 345              		.thumb
 346              		.syntax unified
 347 019a 084B     		ldr	r3, .L7
 348 019c 1B68     		ldr	r3, [r3]
 349 019e 074A     		ldr	r2, .L7
 350 01a0 43F00503 		orr	r3, r3, #5
 351 01a4 1360     		str	r3, [r2]
  82:../../source/src/kernel/OS_CPU/OS_CPU_STM32.c ****                             CPU_REG_NVIC_ST_CTRL_ENABLE;
  83:../../source/src/kernel/OS_CPU/OS_CPU_STM32.c ****                                                             /* Enable timer interrupt.*/
  84:../../source/src/kernel/OS_CPU/OS_CPU_STM32.c ****     CPU_REG_NVIC_ST_CTRL |= CPU_REG_NVIC_ST_CTRL_TICKINT;
 352              		.loc 1 84 0
 353 01a6 054B     		ldr	r3, .L7
 354 01a8 1B68     		ldr	r3, [r3]
 355 01aa 044A     		ldr	r2, .L7
 356 01ac 43F00203 		orr	r3, r3, #2
 357 01b0 1360     		str	r3, [r2]
  85:../../source/src/kernel/OS_CPU/OS_CPU_STM32.c **** 
  86:../../source/src/kernel/OS_CPU/OS_CPU_STM32.c **** }
 358              		.loc 1 86 0
 359 01b2 00BF     		nop
 360 01b4 BD46     		mov	sp, r7
 361              	.LCFI18:
 362              		.cfi_def_cfa_register 13
 363              		@ sp needed
 364 01b6 80BC     		pop	{r7}
 365              	.LCFI19:
 366              		.cfi_restore 7
 367              		.cfi_def_cfa_offset 0
 368 01b8 7047     		bx	lr
 369              	.L8:
 370 01ba 00BF     		.align	2
ARM GAS  G:\Users\Jaxb\AppData\Local\Temp\ccXqQ7Kb.s 			page 9


 371              	.L7:
 372 01bc 10E000E0 		.word	-536813552
 373              		.cfi_endproc
 374              	.LFE32:
 375              		.size	sys_sleep, .-sys_sleep
 376              		.align	1
 377              		.global	sys_shutdown
 378              		.syntax unified
 379              		.thumb
 380              		.thumb_func
 381              		.fpu softvfp
 382              		.type	sys_shutdown, %function
 383              	sys_shutdown:
 384              	.LFB33:
  87:../../source/src/kernel/OS_CPU/OS_CPU_STM32.c **** 
  88:../../source/src/kernel/OS_CPU/OS_CPU_STM32.c **** void sys_shutdown(void)
  89:../../source/src/kernel/OS_CPU/OS_CPU_STM32.c **** {
 385              		.loc 1 89 0
 386              		.cfi_startproc
 387              		@ args = 0, pretend = 0, frame = 0
 388              		@ frame_needed = 1, uses_anonymous_args = 0
 389 01c0 80B5     		push	{r7, lr}
 390              	.LCFI20:
 391              		.cfi_def_cfa_offset 8
 392              		.cfi_offset 7, -8
 393              		.cfi_offset 14, -4
 394 01c2 00AF     		add	r7, sp, #0
 395              	.LCFI21:
 396              		.cfi_def_cfa_register 7
  90:../../source/src/kernel/OS_CPU/OS_CPU_STM32.c **** 	PWR_EnterSTANDBYMode();
 397              		.loc 1 90 0
 398 01c4 FFF7FEFF 		bl	PWR_EnterSTANDBYMode
  91:../../source/src/kernel/OS_CPU/OS_CPU_STM32.c **** }
 399              		.loc 1 91 0
 400 01c8 00BF     		nop
 401 01ca 80BD     		pop	{r7, pc}
 402              		.cfi_endproc
 403              	.LFE33:
 404              		.size	sys_shutdown, .-sys_shutdown
 405              	.Letext0:
 406              		.file 2 "../../source/include/os_cpu/os_cpu_stm32.h"
 407              		.file 3 "f:\\arm\\gcc2018\\arm-none-eabi\\include\\machine\\_default_types.h"
 408              		.file 4 "f:\\arm\\gcc2018\\arm-none-eabi\\include\\sys\\_stdint.h"
 409              		.file 5 "../../source/include/core_cm3.h"
 410              		.file 6 "../../source/include/system_stm32f10x.h"
 411              		.section	.debug_info,"",%progbits
 412              	.Ldebug_info0:
 413 0000 9D010000 		.4byte	0x19d
 414 0004 0200     		.2byte	0x2
 415 0006 00000000 		.4byte	.Ldebug_abbrev0
 416 000a 04       		.byte	0x4
 417 000b 01       		.uleb128 0x1
 418 000c 4B010000 		.4byte	.LASF26
 419 0010 0C       		.byte	0xc
 420 0011 CF000000 		.4byte	.LASF27
 421 0015 07020000 		.4byte	.LASF28
 422 0019 00000000 		.4byte	.Ltext0
ARM GAS  G:\Users\Jaxb\AppData\Local\Temp\ccXqQ7Kb.s 			page 10


 423 001d CC010000 		.4byte	.Letext0
 424 0021 00000000 		.4byte	.Ldebug_line0
 425 0025 02       		.uleb128 0x2
 426 0026 2C000000 		.4byte	.LASF0
 427 002a 02       		.byte	0x2
 428 002b 06       		.byte	0x6
 429 002c 35000000 		.4byte	0x35
 430 0030 03       		.uleb128 0x3
 431 0031 25000000 		.4byte	0x25
 432 0035 04       		.uleb128 0x4
 433 0036 04       		.byte	0x4
 434 0037 07       		.byte	0x7
 435 0038 96000000 		.4byte	.LASF2
 436 003c 02       		.uleb128 0x2
 437 003d 21010000 		.4byte	.LASF1
 438 0041 02       		.byte	0x2
 439 0042 07       		.byte	0x7
 440 0043 30000000 		.4byte	0x30
 441 0047 04       		.uleb128 0x4
 442 0048 01       		.byte	0x1
 443 0049 06       		.byte	0x6
 444 004a FB010000 		.4byte	.LASF3
 445 004e 04       		.uleb128 0x4
 446 004f 01       		.byte	0x1
 447 0050 08       		.byte	0x8
 448 0051 41000000 		.4byte	.LASF4
 449 0055 04       		.uleb128 0x4
 450 0056 02       		.byte	0x2
 451 0057 05       		.byte	0x5
 452 0058 2B010000 		.4byte	.LASF5
 453 005c 04       		.uleb128 0x4
 454 005d 02       		.byte	0x2
 455 005e 07       		.byte	0x7
 456 005f 61000000 		.4byte	.LASF6
 457 0063 04       		.uleb128 0x4
 458 0064 04       		.byte	0x4
 459 0065 05       		.byte	0x5
 460 0066 1D000000 		.4byte	.LASF7
 461 006a 02       		.uleb128 0x2
 462 006b 81000000 		.4byte	.LASF8
 463 006f 03       		.byte	0x3
 464 0070 4F       		.byte	0x4f
 465 0071 75000000 		.4byte	0x75
 466 0075 04       		.uleb128 0x4
 467 0076 04       		.byte	0x4
 468 0077 07       		.byte	0x7
 469 0078 4F000000 		.4byte	.LASF9
 470 007c 04       		.uleb128 0x4
 471 007d 08       		.byte	0x8
 472 007e 05       		.byte	0x5
 473 007f C1000000 		.4byte	.LASF10
 474 0083 04       		.uleb128 0x4
 475 0084 08       		.byte	0x8
 476 0085 07       		.byte	0x7
 477 0086 A3000000 		.4byte	.LASF11
 478 008a 05       		.uleb128 0x5
 479 008b 04       		.byte	0x4
ARM GAS  G:\Users\Jaxb\AppData\Local\Temp\ccXqQ7Kb.s 			page 11


 480 008c 05       		.byte	0x5
 481 008d 696E7400 		.ascii	"int\000"
 482 0091 03       		.uleb128 0x3
 483 0092 8A000000 		.4byte	0x8a
 484 0096 02       		.uleb128 0x2
 485 0097 42010000 		.4byte	.LASF12
 486 009b 04       		.byte	0x4
 487 009c 30       		.byte	0x30
 488 009d 6A000000 		.4byte	0x6a
 489 00a1 06       		.uleb128 0x6
 490 00a2 74000000 		.4byte	.LASF13
 491 00a6 05       		.byte	0x5
 492 00a7 CE06     		.2byte	0x6ce
 493 00a9 91000000 		.4byte	0x91
 494 00ad 01       		.byte	0x1
 495 00ae 01       		.byte	0x1
 496 00af 07       		.uleb128 0x7
 497 00b0 FD000000 		.4byte	.LASF14
 498 00b4 06       		.byte	0x6
 499 00b5 35       		.byte	0x35
 500 00b6 96000000 		.4byte	0x96
 501 00ba 01       		.byte	0x1
 502 00bb 01       		.byte	0x1
 503 00bc 02       		.uleb128 0x2
 504 00bd 35020000 		.4byte	.LASF15
 505 00c1 01       		.byte	0x1
 506 00c2 0C       		.byte	0xc
 507 00c3 C7000000 		.4byte	0xc7
 508 00c7 08       		.uleb128 0x8
 509 00c8 04       		.byte	0x4
 510 00c9 35000000 		.4byte	0x35
 511 00cd 09       		.uleb128 0x9
 512 00ce 01       		.byte	0x1
 513 00cf 35010000 		.4byte	.LASF16
 514 00d3 01       		.byte	0x1
 515 00d4 58       		.byte	0x58
 516 00d5 01       		.byte	0x1
 517 00d6 C0010000 		.4byte	.LFB33
 518 00da CC010000 		.4byte	.LFE33
 519 00de 00000000 		.4byte	.LLST4
 520 00e2 01       		.byte	0x1
 521 00e3 0A       		.uleb128 0xa
 522 00e4 01       		.byte	0x1
 523 00e5 37000000 		.4byte	.LASF17
 524 00e9 01       		.byte	0x1
 525 00ea 4B       		.byte	0x4b
 526 00eb 01       		.byte	0x1
 527 00ec 88010000 		.4byte	.LFB32
 528 00f0 C0010000 		.4byte	.LFE32
 529 00f4 2C000000 		.4byte	.LLST3
 530 00f8 01       		.byte	0x1
 531 00f9 0B       		.uleb128 0xb
 532 00fa 01       		.byte	0x1
 533 00fb BA000000 		.4byte	.LASF29
 534 00ff 01       		.byte	0x1
 535 0100 3A       		.byte	0x3a
 536 0101 5C010000 		.4byte	.LFB31
ARM GAS  G:\Users\Jaxb\AppData\Local\Temp\ccXqQ7Kb.s 			page 12


 537 0105 88010000 		.4byte	.LFE31
 538 0109 70000000 		.4byte	.LLST2
 539 010d 01       		.byte	0x1
 540 010e 0C       		.uleb128 0xc
 541 010f 01       		.byte	0x1
 542 0110 0D010000 		.4byte	.LASF18
 543 0114 01       		.byte	0x1
 544 0115 27       		.byte	0x27
 545 0116 01       		.byte	0x1
 546 0117 F8000000 		.4byte	.LFB30
 547 011b 5C010000 		.4byte	.LFE30
 548 011f B4000000 		.4byte	.LLST1
 549 0123 01       		.byte	0x1
 550 0124 37010000 		.4byte	0x137
 551 0128 0D       		.uleb128 0xd
 552 0129 00000000 		.4byte	.LASF24
 553 012d 01       		.byte	0x1
 554 012e 29       		.byte	0x29
 555 012f 25000000 		.4byte	0x25
 556 0133 02       		.byte	0x2
 557 0134 91       		.byte	0x91
 558 0135 74       		.sleb128 -12
 559 0136 00       		.byte	0
 560 0137 0C       		.uleb128 0xc
 561 0138 01       		.byte	0x1
 562 0139 10000000 		.4byte	.LASF19
 563 013d 01       		.byte	0x1
 564 013e 11       		.byte	0x11
 565 013f 01       		.byte	0x1
 566 0140 00000000 		.4byte	.LFB29
 567 0144 F8000000 		.4byte	.LFE29
 568 0148 10010000 		.4byte	.LLST0
 569 014c 01       		.byte	0x1
 570 014d 98010000 		.4byte	0x198
 571 0151 0E       		.uleb128 0xe
 572 0152 8C000000 		.4byte	.LASF20
 573 0156 01       		.byte	0x1
 574 0157 11       		.byte	0x11
 575 0158 98010000 		.4byte	0x198
 576 015c 02       		.byte	0x2
 577 015d 91       		.byte	0x91
 578 015e 6C       		.sleb128 -20
 579 015f 0E       		.uleb128 0xe
 580 0160 F1010000 		.4byte	.LASF21
 581 0164 01       		.byte	0x1
 582 0165 11       		.byte	0x11
 583 0166 9E010000 		.4byte	0x19e
 584 016a 02       		.byte	0x2
 585 016b 91       		.byte	0x91
 586 016c 68       		.sleb128 -24
 587 016d 0E       		.uleb128 0xe
 588 016e 05000000 		.4byte	.LASF22
 589 0172 01       		.byte	0x1
 590 0173 11       		.byte	0x11
 591 0174 9E010000 		.4byte	0x19e
 592 0178 02       		.byte	0x2
 593 0179 91       		.byte	0x91
ARM GAS  G:\Users\Jaxb\AppData\Local\Temp\ccXqQ7Kb.s 			page 13


 594 017a 64       		.sleb128 -28
 595 017b 0E       		.uleb128 0xe
 596 017c 1C010000 		.4byte	.LASF23
 597 0180 01       		.byte	0x1
 598 0181 11       		.byte	0x11
 599 0182 9E010000 		.4byte	0x19e
 600 0186 02       		.byte	0x2
 601 0187 91       		.byte	0x91
 602 0188 60       		.sleb128 -32
 603 0189 0D       		.uleb128 0xd
 604 018a 26000000 		.4byte	.LASF25
 605 018e 01       		.byte	0x1
 606 018f 13       		.byte	0x13
 607 0190 BC000000 		.4byte	0xbc
 608 0194 02       		.byte	0x2
 609 0195 91       		.byte	0x91
 610 0196 74       		.sleb128 -12
 611 0197 00       		.byte	0
 612 0198 08       		.uleb128 0x8
 613 0199 04       		.byte	0x4
 614 019a 9E010000 		.4byte	0x19e
 615 019e 0F       		.uleb128 0xf
 616 019f 04       		.byte	0x4
 617 01a0 00       		.byte	0
 618              		.section	.debug_abbrev,"",%progbits
 619              	.Ldebug_abbrev0:
 620 0000 01       		.uleb128 0x1
 621 0001 11       		.uleb128 0x11
 622 0002 01       		.byte	0x1
 623 0003 25       		.uleb128 0x25
 624 0004 0E       		.uleb128 0xe
 625 0005 13       		.uleb128 0x13
 626 0006 0B       		.uleb128 0xb
 627 0007 03       		.uleb128 0x3
 628 0008 0E       		.uleb128 0xe
 629 0009 1B       		.uleb128 0x1b
 630 000a 0E       		.uleb128 0xe
 631 000b 11       		.uleb128 0x11
 632 000c 01       		.uleb128 0x1
 633 000d 12       		.uleb128 0x12
 634 000e 01       		.uleb128 0x1
 635 000f 10       		.uleb128 0x10
 636 0010 06       		.uleb128 0x6
 637 0011 00       		.byte	0
 638 0012 00       		.byte	0
 639 0013 02       		.uleb128 0x2
 640 0014 16       		.uleb128 0x16
 641 0015 00       		.byte	0
 642 0016 03       		.uleb128 0x3
 643 0017 0E       		.uleb128 0xe
 644 0018 3A       		.uleb128 0x3a
 645 0019 0B       		.uleb128 0xb
 646 001a 3B       		.uleb128 0x3b
 647 001b 0B       		.uleb128 0xb
 648 001c 49       		.uleb128 0x49
 649 001d 13       		.uleb128 0x13
 650 001e 00       		.byte	0
ARM GAS  G:\Users\Jaxb\AppData\Local\Temp\ccXqQ7Kb.s 			page 14


 651 001f 00       		.byte	0
 652 0020 03       		.uleb128 0x3
 653 0021 35       		.uleb128 0x35
 654 0022 00       		.byte	0
 655 0023 49       		.uleb128 0x49
 656 0024 13       		.uleb128 0x13
 657 0025 00       		.byte	0
 658 0026 00       		.byte	0
 659 0027 04       		.uleb128 0x4
 660 0028 24       		.uleb128 0x24
 661 0029 00       		.byte	0
 662 002a 0B       		.uleb128 0xb
 663 002b 0B       		.uleb128 0xb
 664 002c 3E       		.uleb128 0x3e
 665 002d 0B       		.uleb128 0xb
 666 002e 03       		.uleb128 0x3
 667 002f 0E       		.uleb128 0xe
 668 0030 00       		.byte	0
 669 0031 00       		.byte	0
 670 0032 05       		.uleb128 0x5
 671 0033 24       		.uleb128 0x24
 672 0034 00       		.byte	0
 673 0035 0B       		.uleb128 0xb
 674 0036 0B       		.uleb128 0xb
 675 0037 3E       		.uleb128 0x3e
 676 0038 0B       		.uleb128 0xb
 677 0039 03       		.uleb128 0x3
 678 003a 08       		.uleb128 0x8
 679 003b 00       		.byte	0
 680 003c 00       		.byte	0
 681 003d 06       		.uleb128 0x6
 682 003e 34       		.uleb128 0x34
 683 003f 00       		.byte	0
 684 0040 03       		.uleb128 0x3
 685 0041 0E       		.uleb128 0xe
 686 0042 3A       		.uleb128 0x3a
 687 0043 0B       		.uleb128 0xb
 688 0044 3B       		.uleb128 0x3b
 689 0045 05       		.uleb128 0x5
 690 0046 49       		.uleb128 0x49
 691 0047 13       		.uleb128 0x13
 692 0048 3F       		.uleb128 0x3f
 693 0049 0C       		.uleb128 0xc
 694 004a 3C       		.uleb128 0x3c
 695 004b 0C       		.uleb128 0xc
 696 004c 00       		.byte	0
 697 004d 00       		.byte	0
 698 004e 07       		.uleb128 0x7
 699 004f 34       		.uleb128 0x34
 700 0050 00       		.byte	0
 701 0051 03       		.uleb128 0x3
 702 0052 0E       		.uleb128 0xe
 703 0053 3A       		.uleb128 0x3a
 704 0054 0B       		.uleb128 0xb
 705 0055 3B       		.uleb128 0x3b
 706 0056 0B       		.uleb128 0xb
 707 0057 49       		.uleb128 0x49
ARM GAS  G:\Users\Jaxb\AppData\Local\Temp\ccXqQ7Kb.s 			page 15


 708 0058 13       		.uleb128 0x13
 709 0059 3F       		.uleb128 0x3f
 710 005a 0C       		.uleb128 0xc
 711 005b 3C       		.uleb128 0x3c
 712 005c 0C       		.uleb128 0xc
 713 005d 00       		.byte	0
 714 005e 00       		.byte	0
 715 005f 08       		.uleb128 0x8
 716 0060 0F       		.uleb128 0xf
 717 0061 00       		.byte	0
 718 0062 0B       		.uleb128 0xb
 719 0063 0B       		.uleb128 0xb
 720 0064 49       		.uleb128 0x49
 721 0065 13       		.uleb128 0x13
 722 0066 00       		.byte	0
 723 0067 00       		.byte	0
 724 0068 09       		.uleb128 0x9
 725 0069 2E       		.uleb128 0x2e
 726 006a 00       		.byte	0
 727 006b 3F       		.uleb128 0x3f
 728 006c 0C       		.uleb128 0xc
 729 006d 03       		.uleb128 0x3
 730 006e 0E       		.uleb128 0xe
 731 006f 3A       		.uleb128 0x3a
 732 0070 0B       		.uleb128 0xb
 733 0071 3B       		.uleb128 0x3b
 734 0072 0B       		.uleb128 0xb
 735 0073 27       		.uleb128 0x27
 736 0074 0C       		.uleb128 0xc
 737 0075 11       		.uleb128 0x11
 738 0076 01       		.uleb128 0x1
 739 0077 12       		.uleb128 0x12
 740 0078 01       		.uleb128 0x1
 741 0079 40       		.uleb128 0x40
 742 007a 06       		.uleb128 0x6
 743 007b 9642     		.uleb128 0x2116
 744 007d 0C       		.uleb128 0xc
 745 007e 00       		.byte	0
 746 007f 00       		.byte	0
 747 0080 0A       		.uleb128 0xa
 748 0081 2E       		.uleb128 0x2e
 749 0082 00       		.byte	0
 750 0083 3F       		.uleb128 0x3f
 751 0084 0C       		.uleb128 0xc
 752 0085 03       		.uleb128 0x3
 753 0086 0E       		.uleb128 0xe
 754 0087 3A       		.uleb128 0x3a
 755 0088 0B       		.uleb128 0xb
 756 0089 3B       		.uleb128 0x3b
 757 008a 0B       		.uleb128 0xb
 758 008b 27       		.uleb128 0x27
 759 008c 0C       		.uleb128 0xc
 760 008d 11       		.uleb128 0x11
 761 008e 01       		.uleb128 0x1
 762 008f 12       		.uleb128 0x12
 763 0090 01       		.uleb128 0x1
 764 0091 40       		.uleb128 0x40
ARM GAS  G:\Users\Jaxb\AppData\Local\Temp\ccXqQ7Kb.s 			page 16


 765 0092 06       		.uleb128 0x6
 766 0093 9742     		.uleb128 0x2117
 767 0095 0C       		.uleb128 0xc
 768 0096 00       		.byte	0
 769 0097 00       		.byte	0
 770 0098 0B       		.uleb128 0xb
 771 0099 2E       		.uleb128 0x2e
 772 009a 00       		.byte	0
 773 009b 3F       		.uleb128 0x3f
 774 009c 0C       		.uleb128 0xc
 775 009d 03       		.uleb128 0x3
 776 009e 0E       		.uleb128 0xe
 777 009f 3A       		.uleb128 0x3a
 778 00a0 0B       		.uleb128 0xb
 779 00a1 3B       		.uleb128 0x3b
 780 00a2 0B       		.uleb128 0xb
 781 00a3 11       		.uleb128 0x11
 782 00a4 01       		.uleb128 0x1
 783 00a5 12       		.uleb128 0x12
 784 00a6 01       		.uleb128 0x1
 785 00a7 40       		.uleb128 0x40
 786 00a8 06       		.uleb128 0x6
 787 00a9 9742     		.uleb128 0x2117
 788 00ab 0C       		.uleb128 0xc
 789 00ac 00       		.byte	0
 790 00ad 00       		.byte	0
 791 00ae 0C       		.uleb128 0xc
 792 00af 2E       		.uleb128 0x2e
 793 00b0 01       		.byte	0x1
 794 00b1 3F       		.uleb128 0x3f
 795 00b2 0C       		.uleb128 0xc
 796 00b3 03       		.uleb128 0x3
 797 00b4 0E       		.uleb128 0xe
 798 00b5 3A       		.uleb128 0x3a
 799 00b6 0B       		.uleb128 0xb
 800 00b7 3B       		.uleb128 0x3b
 801 00b8 0B       		.uleb128 0xb
 802 00b9 27       		.uleb128 0x27
 803 00ba 0C       		.uleb128 0xc
 804 00bb 11       		.uleb128 0x11
 805 00bc 01       		.uleb128 0x1
 806 00bd 12       		.uleb128 0x12
 807 00be 01       		.uleb128 0x1
 808 00bf 40       		.uleb128 0x40
 809 00c0 06       		.uleb128 0x6
 810 00c1 9742     		.uleb128 0x2117
 811 00c3 0C       		.uleb128 0xc
 812 00c4 01       		.uleb128 0x1
 813 00c5 13       		.uleb128 0x13
 814 00c6 00       		.byte	0
 815 00c7 00       		.byte	0
 816 00c8 0D       		.uleb128 0xd
 817 00c9 34       		.uleb128 0x34
 818 00ca 00       		.byte	0
 819 00cb 03       		.uleb128 0x3
 820 00cc 0E       		.uleb128 0xe
 821 00cd 3A       		.uleb128 0x3a
ARM GAS  G:\Users\Jaxb\AppData\Local\Temp\ccXqQ7Kb.s 			page 17


 822 00ce 0B       		.uleb128 0xb
 823 00cf 3B       		.uleb128 0x3b
 824 00d0 0B       		.uleb128 0xb
 825 00d1 49       		.uleb128 0x49
 826 00d2 13       		.uleb128 0x13
 827 00d3 02       		.uleb128 0x2
 828 00d4 0A       		.uleb128 0xa
 829 00d5 00       		.byte	0
 830 00d6 00       		.byte	0
 831 00d7 0E       		.uleb128 0xe
 832 00d8 05       		.uleb128 0x5
 833 00d9 00       		.byte	0
 834 00da 03       		.uleb128 0x3
 835 00db 0E       		.uleb128 0xe
 836 00dc 3A       		.uleb128 0x3a
 837 00dd 0B       		.uleb128 0xb
 838 00de 3B       		.uleb128 0x3b
 839 00df 0B       		.uleb128 0xb
 840 00e0 49       		.uleb128 0x49
 841 00e1 13       		.uleb128 0x13
 842 00e2 02       		.uleb128 0x2
 843 00e3 0A       		.uleb128 0xa
 844 00e4 00       		.byte	0
 845 00e5 00       		.byte	0
 846 00e6 0F       		.uleb128 0xf
 847 00e7 0F       		.uleb128 0xf
 848 00e8 00       		.byte	0
 849 00e9 0B       		.uleb128 0xb
 850 00ea 0B       		.uleb128 0xb
 851 00eb 00       		.byte	0
 852 00ec 00       		.byte	0
 853 00ed 00       		.byte	0
 854              		.section	.debug_loc,"",%progbits
 855              	.Ldebug_loc0:
 856              	.LLST4:
 857 0000 C0010000 		.4byte	.LFB33-.Ltext0
 858 0004 C2010000 		.4byte	.LCFI20-.Ltext0
 859 0008 0200     		.2byte	0x2
 860 000a 7D       		.byte	0x7d
 861 000b 00       		.sleb128 0
 862 000c C2010000 		.4byte	.LCFI20-.Ltext0
 863 0010 C4010000 		.4byte	.LCFI21-.Ltext0
 864 0014 0200     		.2byte	0x2
 865 0016 7D       		.byte	0x7d
 866 0017 08       		.sleb128 8
 867 0018 C4010000 		.4byte	.LCFI21-.Ltext0
 868 001c CC010000 		.4byte	.LFE33-.Ltext0
 869 0020 0200     		.2byte	0x2
 870 0022 77       		.byte	0x77
 871 0023 08       		.sleb128 8
 872 0024 00000000 		.4byte	0
 873 0028 00000000 		.4byte	0
 874              	.LLST3:
 875 002c 88010000 		.4byte	.LFB32-.Ltext0
 876 0030 8A010000 		.4byte	.LCFI16-.Ltext0
 877 0034 0200     		.2byte	0x2
 878 0036 7D       		.byte	0x7d
ARM GAS  G:\Users\Jaxb\AppData\Local\Temp\ccXqQ7Kb.s 			page 18


 879 0037 00       		.sleb128 0
 880 0038 8A010000 		.4byte	.LCFI16-.Ltext0
 881 003c 8C010000 		.4byte	.LCFI17-.Ltext0
 882 0040 0200     		.2byte	0x2
 883 0042 7D       		.byte	0x7d
 884 0043 04       		.sleb128 4
 885 0044 8C010000 		.4byte	.LCFI17-.Ltext0
 886 0048 B6010000 		.4byte	.LCFI18-.Ltext0
 887 004c 0200     		.2byte	0x2
 888 004e 77       		.byte	0x77
 889 004f 04       		.sleb128 4
 890 0050 B6010000 		.4byte	.LCFI18-.Ltext0
 891 0054 B8010000 		.4byte	.LCFI19-.Ltext0
 892 0058 0200     		.2byte	0x2
 893 005a 7D       		.byte	0x7d
 894 005b 04       		.sleb128 4
 895 005c B8010000 		.4byte	.LCFI19-.Ltext0
 896 0060 C0010000 		.4byte	.LFE32-.Ltext0
 897 0064 0200     		.2byte	0x2
 898 0066 7D       		.byte	0x7d
 899 0067 00       		.sleb128 0
 900 0068 00000000 		.4byte	0
 901 006c 00000000 		.4byte	0
 902              	.LLST2:
 903 0070 5C010000 		.4byte	.LFB31-.Ltext0
 904 0074 5E010000 		.4byte	.LCFI12-.Ltext0
 905 0078 0200     		.2byte	0x2
 906 007a 7D       		.byte	0x7d
 907 007b 00       		.sleb128 0
 908 007c 5E010000 		.4byte	.LCFI12-.Ltext0
 909 0080 60010000 		.4byte	.LCFI13-.Ltext0
 910 0084 0200     		.2byte	0x2
 911 0086 7D       		.byte	0x7d
 912 0087 04       		.sleb128 4
 913 0088 60010000 		.4byte	.LCFI13-.Ltext0
 914 008c 84010000 		.4byte	.LCFI14-.Ltext0
 915 0090 0200     		.2byte	0x2
 916 0092 77       		.byte	0x77
 917 0093 04       		.sleb128 4
 918 0094 84010000 		.4byte	.LCFI14-.Ltext0
 919 0098 86010000 		.4byte	.LCFI15-.Ltext0
 920 009c 0200     		.2byte	0x2
 921 009e 7D       		.byte	0x7d
 922 009f 04       		.sleb128 4
 923 00a0 86010000 		.4byte	.LCFI15-.Ltext0
 924 00a4 88010000 		.4byte	.LFE31-.Ltext0
 925 00a8 0200     		.2byte	0x2
 926 00aa 7D       		.byte	0x7d
 927 00ab 00       		.sleb128 0
 928 00ac 00000000 		.4byte	0
 929 00b0 00000000 		.4byte	0
 930              	.LLST1:
 931 00b4 F8000000 		.4byte	.LFB30-.Ltext0
 932 00b8 FA000000 		.4byte	.LCFI6-.Ltext0
 933 00bc 0200     		.2byte	0x2
 934 00be 7D       		.byte	0x7d
 935 00bf 00       		.sleb128 0
ARM GAS  G:\Users\Jaxb\AppData\Local\Temp\ccXqQ7Kb.s 			page 19


 936 00c0 FA000000 		.4byte	.LCFI6-.Ltext0
 937 00c4 FC000000 		.4byte	.LCFI7-.Ltext0
 938 00c8 0200     		.2byte	0x2
 939 00ca 7D       		.byte	0x7d
 940 00cb 04       		.sleb128 4
 941 00cc FC000000 		.4byte	.LCFI7-.Ltext0
 942 00d0 FE000000 		.4byte	.LCFI8-.Ltext0
 943 00d4 0200     		.2byte	0x2
 944 00d6 7D       		.byte	0x7d
 945 00d7 10       		.sleb128 16
 946 00d8 FE000000 		.4byte	.LCFI8-.Ltext0
 947 00dc 40010000 		.4byte	.LCFI9-.Ltext0
 948 00e0 0200     		.2byte	0x2
 949 00e2 77       		.byte	0x77
 950 00e3 10       		.sleb128 16
 951 00e4 40010000 		.4byte	.LCFI9-.Ltext0
 952 00e8 42010000 		.4byte	.LCFI10-.Ltext0
 953 00ec 0200     		.2byte	0x2
 954 00ee 77       		.byte	0x77
 955 00ef 04       		.sleb128 4
 956 00f0 42010000 		.4byte	.LCFI10-.Ltext0
 957 00f4 44010000 		.4byte	.LCFI11-.Ltext0
 958 00f8 0200     		.2byte	0x2
 959 00fa 7D       		.byte	0x7d
 960 00fb 04       		.sleb128 4
 961 00fc 44010000 		.4byte	.LCFI11-.Ltext0
 962 0100 5C010000 		.4byte	.LFE30-.Ltext0
 963 0104 0200     		.2byte	0x2
 964 0106 7D       		.byte	0x7d
 965 0107 00       		.sleb128 0
 966 0108 00000000 		.4byte	0
 967 010c 00000000 		.4byte	0
 968              	.LLST0:
 969 0110 00000000 		.4byte	.LFB29-.Ltext0
 970 0114 02000000 		.4byte	.LCFI0-.Ltext0
 971 0118 0200     		.2byte	0x2
 972 011a 7D       		.byte	0x7d
 973 011b 00       		.sleb128 0
 974 011c 02000000 		.4byte	.LCFI0-.Ltext0
 975 0120 04000000 		.4byte	.LCFI1-.Ltext0
 976 0124 0200     		.2byte	0x2
 977 0126 7D       		.byte	0x7d
 978 0127 04       		.sleb128 4
 979 0128 04000000 		.4byte	.LCFI1-.Ltext0
 980 012c 06000000 		.4byte	.LCFI2-.Ltext0
 981 0130 0200     		.2byte	0x2
 982 0132 7D       		.byte	0x7d
 983 0133 20       		.sleb128 32
 984 0134 06000000 		.4byte	.LCFI2-.Ltext0
 985 0138 F2000000 		.4byte	.LCFI3-.Ltext0
 986 013c 0200     		.2byte	0x2
 987 013e 77       		.byte	0x77
 988 013f 20       		.sleb128 32
 989 0140 F2000000 		.4byte	.LCFI3-.Ltext0
 990 0144 F4000000 		.4byte	.LCFI4-.Ltext0
 991 0148 0200     		.2byte	0x2
 992 014a 77       		.byte	0x77
ARM GAS  G:\Users\Jaxb\AppData\Local\Temp\ccXqQ7Kb.s 			page 20


 993 014b 04       		.sleb128 4
 994 014c F4000000 		.4byte	.LCFI4-.Ltext0
 995 0150 F6000000 		.4byte	.LCFI5-.Ltext0
 996 0154 0200     		.2byte	0x2
 997 0156 7D       		.byte	0x7d
 998 0157 04       		.sleb128 4
 999 0158 F6000000 		.4byte	.LCFI5-.Ltext0
 1000 015c F8000000 		.4byte	.LFE29-.Ltext0
 1001 0160 0200     		.2byte	0x2
 1002 0162 7D       		.byte	0x7d
 1003 0163 00       		.sleb128 0
 1004 0164 00000000 		.4byte	0
 1005 0168 00000000 		.4byte	0
 1006              		.section	.debug_aranges,"",%progbits
 1007 0000 1C000000 		.4byte	0x1c
 1008 0004 0200     		.2byte	0x2
 1009 0006 00000000 		.4byte	.Ldebug_info0
 1010 000a 04       		.byte	0x4
 1011 000b 00       		.byte	0
 1012 000c 0000     		.2byte	0
 1013 000e 0000     		.2byte	0
 1014 0010 00000000 		.4byte	.Ltext0
 1015 0014 CC010000 		.4byte	.Letext0-.Ltext0
 1016 0018 00000000 		.4byte	0
 1017 001c 00000000 		.4byte	0
 1018              		.section	.debug_line,"",%progbits
 1019              	.Ldebug_line0:
 1020 0000 60010000 		.section	.debug_str,"MS",%progbits,1
 1020      02002201 
 1020      00000201 
 1020      FB0E0D00 
 1020      01010101 
 1021              	.LASF24:
 1022 0000 7072696F 		.ascii	"prio\000"
 1022      00
 1023              	.LASF22:
 1024 0005 72657475 		.ascii	"return_ptr\000"
 1024      726E5F70 
 1024      747200
 1025              	.LASF19:
 1026 0010 7365745F 		.ascii	"set_register\000"
 1026      72656769 
 1026      73746572 
 1026      00
 1027              	.LASF7:
 1028 001d 6C6F6E67 		.ascii	"long int\000"
 1028      20696E74 
 1028      00
 1029              	.LASF25:
 1030 0026 73746163 		.ascii	"stack\000"
 1030      6B00
 1031              	.LASF0:
 1032 002c 4350555F 		.ascii	"CPU_INT32U\000"
 1032      494E5433 
 1032      325500
 1033              	.LASF17:
 1034 0037 7379735F 		.ascii	"sys_sleep\000"
ARM GAS  G:\Users\Jaxb\AppData\Local\Temp\ccXqQ7Kb.s 			page 21


 1034      736C6565 
 1034      7000
 1035              	.LASF4:
 1036 0041 756E7369 		.ascii	"unsigned char\000"
 1036      676E6564 
 1036      20636861 
 1036      7200
 1037              	.LASF9:
 1038 004f 6C6F6E67 		.ascii	"long unsigned int\000"
 1038      20756E73 
 1038      69676E65 
 1038      6420696E 
 1038      7400
 1039              	.LASF6:
 1040 0061 73686F72 		.ascii	"short unsigned int\000"
 1040      7420756E 
 1040      7369676E 
 1040      65642069 
 1040      6E7400
 1041              	.LASF13:
 1042 0074 49544D5F 		.ascii	"ITM_RxBuffer\000"
 1042      52784275 
 1042      66666572 
 1042      00
 1043              	.LASF8:
 1044 0081 5F5F7569 		.ascii	"__uint32_t\000"
 1044      6E743332 
 1044      5F7400
 1045              	.LASF20:
 1046 008c 73746163 		.ascii	"stack_ptr\000"
 1046      6B5F7074 
 1046      7200
 1047              	.LASF2:
 1048 0096 756E7369 		.ascii	"unsigned int\000"
 1048      676E6564 
 1048      20696E74 
 1048      00
 1049              	.LASF11:
 1050 00a3 6C6F6E67 		.ascii	"long long unsigned int\000"
 1050      206C6F6E 
 1050      6720756E 
 1050      7369676E 
 1050      65642069 
 1051              	.LASF29:
 1052 00ba 5265426F 		.ascii	"ReBoot\000"
 1052      6F7400
 1053              	.LASF10:
 1054 00c1 6C6F6E67 		.ascii	"long long int\000"
 1054      206C6F6E 
 1054      6720696E 
 1054      7400
 1055              	.LASF27:
 1056 00cf 2E2E2F2E 		.ascii	"../../source/src/kernel/OS_CPU/OS_CPU_STM32.c\000"
 1056      2E2F736F 
 1056      75726365 
 1056      2F737263 
 1056      2F6B6572 
ARM GAS  G:\Users\Jaxb\AppData\Local\Temp\ccXqQ7Kb.s 			page 22


 1057              	.LASF14:
 1058 00fd 53797374 		.ascii	"SystemCoreClock\000"
 1058      656D436F 
 1058      7265436C 
 1058      6F636B00 
 1059              	.LASF18:
 1060 010d 5F5F696E 		.ascii	"__init_systick\000"
 1060      69745F73 
 1060      79737469 
 1060      636B00
 1061              	.LASF23:
 1062 011c 70617261 		.ascii	"para\000"
 1062      00
 1063              	.LASF1:
 1064 0121 4350555F 		.ascii	"CPU_REG32\000"
 1064      52454733 
 1064      3200
 1065              	.LASF5:
 1066 012b 73686F72 		.ascii	"short int\000"
 1066      7420696E 
 1066      7400
 1067              	.LASF16:
 1068 0135 7379735F 		.ascii	"sys_shutdown\000"
 1068      73687574 
 1068      646F776E 
 1068      00
 1069              	.LASF12:
 1070 0142 75696E74 		.ascii	"uint32_t\000"
 1070      33325F74 
 1070      00
 1071              	.LASF26:
 1072 014b 474E5520 		.ascii	"GNU C11 7.3.1 20180622 (release) [ARM/embedded-7-br"
 1072      43313120 
 1072      372E332E 
 1072      31203230 
 1072      31383036 
 1073 017e 616E6368 		.ascii	"anch revision 261907] -mcpu=cortex-m3 -mthumb -mapc"
 1073      20726576 
 1073      6973696F 
 1073      6E203236 
 1073      31393037 
 1074 01b1 732D6672 		.ascii	"s-frame -mthumb-interwork -mcpu=cortex-m3 -mthumb -"
 1074      616D6520 
 1074      2D6D7468 
 1074      756D622D 
 1074      696E7465 
 1075 01e4 67647761 		.ascii	"gdwarf-2 -O0\000"
 1075      72662D32 
 1075      202D4F30 
 1075      00
 1076              	.LASF21:
 1077 01f1 656E7472 		.ascii	"entry_ptr\000"
 1077      795F7074 
 1077      7200
 1078              	.LASF3:
 1079 01fb 7369676E 		.ascii	"signed char\000"
 1079      65642063 
ARM GAS  G:\Users\Jaxb\AppData\Local\Temp\ccXqQ7Kb.s 			page 23


 1079      68617200 
 1080              	.LASF28:
 1081 0207 463A5C6B 		.ascii	"F:\\kaka\\KAKAOS\\C\\windows\\Project\\RVMDK\243\250"
 1081      616B615C 
 1081      4B414B41 
 1081      4F535C43 
 1081      5C77696E 
 1082 022f 757635A3 		.ascii	"uv5\243\251\000"
 1082      A900
 1083              	.LASF15:
 1084 0235 53544143 		.ascii	"STACK_P\000"
 1084      4B5F5000 
 1085              		.ident	"GCC: (GNU Tools for Arm Embedded Processors 7-2018-q2-update) 7.3.1 20180622 (release) [AR
ARM GAS  G:\Users\Jaxb\AppData\Local\Temp\ccXqQ7Kb.s 			page 24


DEFINED SYMBOLS
                            *ABS*:00000000 OS_CPU_STM32.c
G:\Users\Jaxb\AppData\Local\Temp\ccXqQ7Kb.s:15     .text:00000000 $t
G:\Users\Jaxb\AppData\Local\Temp\ccXqQ7Kb.s:22     .text:00000000 set_register
G:\Users\Jaxb\AppData\Local\Temp\ccXqQ7Kb.s:185    .text:000000f8 __init_systick
G:\Users\Jaxb\AppData\Local\Temp\ccXqQ7Kb.s:252    .text:00000148 $d
G:\Users\Jaxb\AppData\Local\Temp\ccXqQ7Kb.s:260    .text:0000015c $t
G:\Users\Jaxb\AppData\Local\Temp\ccXqQ7Kb.s:267    .text:0000015c ReBoot
G:\Users\Jaxb\AppData\Local\Temp\ccXqQ7Kb.s:319    .text:00000188 sys_sleep
G:\Users\Jaxb\AppData\Local\Temp\ccXqQ7Kb.s:372    .text:000001bc $d
G:\Users\Jaxb\AppData\Local\Temp\ccXqQ7Kb.s:376    .text:000001c0 $t
G:\Users\Jaxb\AppData\Local\Temp\ccXqQ7Kb.s:383    .text:000001c0 sys_shutdown
G:\Users\Jaxb\AppData\Local\Temp\ccXqQ7Kb.s:1085   .text:000001cc $d

UNDEFINED SYMBOLS
SystemCoreClock
_estack
Reset_Handler
PWR_EnterSTANDBYMode
