ARM GAS  G:\Users\Jaxb\AppData\Local\Temp\cc9ieDdq.s 			page 1


   1              		.cpu cortex-m3
   2              		.eabi_attribute 20, 1
   3              		.eabi_attribute 21, 1
   4              		.eabi_attribute 23, 3
   5              		.eabi_attribute 24, 1
   6              		.eabi_attribute 25, 1
   7              		.eabi_attribute 26, 1
   8              		.eabi_attribute 30, 2
   9              		.eabi_attribute 34, 1
  10              		.eabi_attribute 18, 4
  11              		.file	"OS_CPU_STM32.c"
  12              		.text
  13              	.Ltext0:
  14              		.cfi_sections	.debug_frame
  15              		.align	1
  16              		.p2align 2,,3
  17              		.global	set_register
  18              		.syntax unified
  19              		.thumb
  20              		.thumb_func
  21              		.fpu softvfp
  22              		.type	set_register, %function
  23              	set_register:
  24              	.LFB29:
  25              		.file 1 "../../source/src/kernel/OS_CPU/OS_CPU_STM32.c"
   1:../../source/src/kernel/OS_CPU/OS_CPU_STM32.c **** #include <os_cpu_stm32.h>
   2:../../source/src/kernel/OS_CPU/OS_CPU_STM32.c **** #include <ka_configuration.h>
   3:../../source/src/kernel/OS_CPU/OS_CPU_STM32.c **** #include <stm32f10x.h>
   4:../../source/src/kernel/OS_CPU/OS_CPU_STM32.c **** #include <osinit.h>
   5:../../source/src/kernel/OS_CPU/OS_CPU_STM32.c **** #include "stm32f10x_pwr.h" 
   6:../../source/src/kernel/OS_CPU/OS_CPU_STM32.c **** #include "stm32f10x_rcc.h" 
   7:../../source/src/kernel/OS_CPU/OS_CPU_STM32.c **** #include <myMicroLIB.h>
   8:../../source/src/kernel/OS_CPU/OS_CPU_STM32.c **** 
   9:../../source/src/kernel/OS_CPU/OS_CPU_STM32.c **** 
  10:../../source/src/kernel/OS_CPU/OS_CPU_STM32.c **** 
  11:../../source/src/kernel/OS_CPU/OS_CPU_STM32.c **** #if (32 == CPU_BIT)
  12:../../source/src/kernel/OS_CPU/OS_CPU_STM32.c **** 	typedef unsigned int* STACK_P;
  13:../../source/src/kernel/OS_CPU/OS_CPU_STM32.c **** #else
  14:../../source/src/kernel/OS_CPU/OS_CPU_STM32.c **** 	#error "CPU_BIT not be setted,end compile"
  15:../../source/src/kernel/OS_CPU/OS_CPU_STM32.c **** #endif
  16:../../source/src/kernel/OS_CPU/OS_CPU_STM32.c **** 
  17:../../source/src/kernel/OS_CPU/OS_CPU_STM32.c **** void set_register(void **stack_ptr,void *entry_ptr,void *return_ptr,void *para)
  18:../../source/src/kernel/OS_CPU/OS_CPU_STM32.c **** {
  26              		.loc 1 18 0
  27              		.cfi_startproc
  28              		@ args = 0, pretend = 0, frame = 0
  29              		@ frame_needed = 0, uses_anonymous_args = 0
  30              	.LVL0:
  31 0000 2DE9F04F 		push	{r4, r5, r6, r7, r8, r9, r10, fp, lr}
  32              	.LCFI0:
  33              		.cfi_def_cfa_offset 36
  34              		.cfi_offset 4, -36
  35              		.cfi_offset 5, -32
  36              		.cfi_offset 6, -28
  37              		.cfi_offset 7, -24
  38              		.cfi_offset 8, -20
  39              		.cfi_offset 9, -16
ARM GAS  G:\Users\Jaxb\AppData\Local\Temp\cc9ieDdq.s 			page 2


  40              		.cfi_offset 10, -12
  41              		.cfi_offset 11, -8
  42              		.cfi_offset 14, -4
  19:../../source/src/kernel/OS_CPU/OS_CPU_STM32.c **** 	STACK_P stack = *stack_ptr;
  43              		.loc 1 19 0
  44 0004 0468     		ldr	r4, [r0]
  45              	.LVL1:
  20:../../source/src/kernel/OS_CPU/OS_CPU_STM32.c **** 	*stack = (unsigned int)0x01000000uL;		//xPSR
  46              		.loc 1 20 0
  47 0006 4FF0807B 		mov	fp, #16777216
  21:../../source/src/kernel/OS_CPU/OS_CPU_STM32.c **** 	*(--stack) = (unsigned int)entry_ptr;  		//R15 PC
  22:../../source/src/kernel/OS_CPU/OS_CPU_STM32.c **** 	*(--stack) = (unsigned int)return_ptr;		//R14 LR	
  48              		.loc 1 22 0
  49 000a 44E90221 		strd	r2, r1, [r4, #-8]
  23:../../source/src/kernel/OS_CPU/OS_CPU_STM32.c **** 	*(--stack) = (unsigned int)0x12121212uL;	//R12
  24:../../source/src/kernel/OS_CPU/OS_CPU_STM32.c **** 	*(--stack) = (unsigned int)0x03030303uL;	//R3
  25:../../source/src/kernel/OS_CPU/OS_CPU_STM32.c **** 	*(--stack) = (unsigned int)0x02020202uL;	//R2
  26:../../source/src/kernel/OS_CPU/OS_CPU_STM32.c **** 	*(--stack) = (unsigned int)0x01010101uL;	//R1
  27:../../source/src/kernel/OS_CPU/OS_CPU_STM32.c **** 	*(--stack) = (unsigned int)para;			//R0
  50              		.loc 1 27 0
  51 000e 44F81C3C 		str	r3, [r4, #-28]
  28:../../source/src/kernel/OS_CPU/OS_CPU_STM32.c **** 	*(--stack) = (unsigned int)0x11111111uL;	//R11
  29:../../source/src/kernel/OS_CPU/OS_CPU_STM32.c **** 	*(--stack) = (unsigned int)0x10101010uL;	//R10
  52              		.loc 1 29 0
  53 0012 4FF01132 		mov	r2, #286331153
  54              	.LVL2:
  55 0016 4FF01033 		mov	r3, #269488144
  56              	.LVL3:
  30:../../source/src/kernel/OS_CPU/OS_CPU_STM32.c **** 	*(--stack) = (unsigned int)0x09090909uL;	//R9
  31:../../source/src/kernel/OS_CPU/OS_CPU_STM32.c **** 	*(--stack) = (unsigned int)0x08080808uL;	//R8
  57              		.loc 1 31 0
  58 001a 4FF00931 		mov	r1, #151587081
  59              	.LVL4:
  29:../../source/src/kernel/OS_CPU/OS_CPU_STM32.c **** 	*(--stack) = (unsigned int)0x09090909uL;	//R9
  60              		.loc 1 29 0
  61 001e 44E90932 		strd	r3, r2, [r4, #-36]
  62              		.loc 1 31 0
  63 0022 4FF00833 		mov	r3, #134744072
  32:../../source/src/kernel/OS_CPU/OS_CPU_STM32.c **** 	*(--stack) = (unsigned int)0x07070707uL;	//R7
  33:../../source/src/kernel/OS_CPU/OS_CPU_STM32.c **** 	*(--stack) = (unsigned int)0x06060606uL;	//R6
  34:../../source/src/kernel/OS_CPU/OS_CPU_STM32.c **** 	*(--stack) = (unsigned int)0x05050505uL;	//R5
  35:../../source/src/kernel/OS_CPU/OS_CPU_STM32.c **** 	*(--stack) = (unsigned int)0x04040404uL;	//R4
  64              		.loc 1 35 0
  65 0026 2546     		mov	r5, r4
  31:../../source/src/kernel/OS_CPU/OS_CPU_STM32.c **** 	*(--stack) = (unsigned int)0x07070707uL;	//R7
  66              		.loc 1 31 0
  67 0028 44E90B31 		strd	r3, r1, [r4, #-44]
  23:../../source/src/kernel/OS_CPU/OS_CPU_STM32.c **** 	*(--stack) = (unsigned int)0x03030303uL;	//R3
  68              		.loc 1 23 0
  69 002c 4FF0123A 		mov	r10, #303174162
  24:../../source/src/kernel/OS_CPU/OS_CPU_STM32.c **** 	*(--stack) = (unsigned int)0x02020202uL;	//R2
  70              		.loc 1 24 0
  71 0030 4FF00339 		mov	r9, #50529027
  25:../../source/src/kernel/OS_CPU/OS_CPU_STM32.c **** 	*(--stack) = (unsigned int)0x01010101uL;	//R1
  72              		.loc 1 25 0
  73 0034 4FF00238 		mov	r8, #33686018
  26:../../source/src/kernel/OS_CPU/OS_CPU_STM32.c **** 	*(--stack) = (unsigned int)para;			//R0
ARM GAS  G:\Users\Jaxb\AppData\Local\Temp\cc9ieDdq.s 			page 3


  74              		.loc 1 26 0
  75 0038 4FF0013E 		mov	lr, #16843009
  33:../../source/src/kernel/OS_CPU/OS_CPU_STM32.c **** 	*(--stack) = (unsigned int)0x05050505uL;	//R5
  76              		.loc 1 33 0
  77 003c 4FF0063C 		mov	ip, #101058054
  34:../../source/src/kernel/OS_CPU/OS_CPU_STM32.c **** 	*(--stack) = (unsigned int)0x04040404uL;	//R4
  78              		.loc 1 34 0
  79 0040 4FF00537 		mov	r7, #84215045
  80              		.loc 1 35 0
  81 0044 4FF00436 		mov	r6, #67372036
  32:../../source/src/kernel/OS_CPU/OS_CPU_STM32.c **** 	*(--stack) = (unsigned int)0x06060606uL;	//R6
  82              		.loc 1 32 0
  83 0048 4FF00733 		mov	r3, #117901063
  20:../../source/src/kernel/OS_CPU/OS_CPU_STM32.c **** 	*(--stack) = (unsigned int)entry_ptr;  		//R15 PC
  84              		.loc 1 20 0
  85 004c C4F800B0 		str	fp, [r4]
  86              	.LVL5:
  24:../../source/src/kernel/OS_CPU/OS_CPU_STM32.c **** 	*(--stack) = (unsigned int)0x02020202uL;	//R2
  87              		.loc 1 24 0
  88 0050 44E9049A 		strd	r9, r10, [r4, #-16]
  89              	.LVL6:
  26:../../source/src/kernel/OS_CPU/OS_CPU_STM32.c **** 	*(--stack) = (unsigned int)para;			//R0
  90              		.loc 1 26 0
  91 0054 44E906E8 		strd	lr, r8, [r4, #-24]
  92              	.LVL7:
  33:../../source/src/kernel/OS_CPU/OS_CPU_STM32.c **** 	*(--stack) = (unsigned int)0x05050505uL;	//R5
  93              		.loc 1 33 0
  94 0058 44E90DC3 		strd	ip, r3, [r4, #-52]
  95              	.LVL8:
  34:../../source/src/kernel/OS_CPU/OS_CPU_STM32.c **** 	*(--stack) = (unsigned int)0x04040404uL;	//R4
  96              		.loc 1 34 0
  97 005c 44F8387C 		str	r7, [r4, #-56]
  98              	.LVL9:
  99              		.loc 1 35 0
 100 0060 45F83C6D 		str	r6, [r5, #-60]!
  36:../../source/src/kernel/OS_CPU/OS_CPU_STM32.c **** 	*stack_ptr = stack;
 101              		.loc 1 36 0
 102 0064 0560     		str	r5, [r0]
  37:../../source/src/kernel/OS_CPU/OS_CPU_STM32.c **** }
 103              		.loc 1 37 0
 104 0066 BDE8F08F 		pop	{r4, r5, r6, r7, r8, r9, r10, fp, pc}
 105              		.cfi_endproc
 106              	.LFE29:
 107              		.size	set_register, .-set_register
 108              		.align	1
 109 006a 00BF     		.p2align 2,,3
 110              		.global	__init_systick
 111              		.syntax unified
 112              		.thumb
 113              		.thumb_func
 114              		.fpu softvfp
 115              		.type	__init_systick, %function
 116              	__init_systick:
 117              	.LFB30:
  38:../../source/src/kernel/OS_CPU/OS_CPU_STM32.c **** 
  39:../../source/src/kernel/OS_CPU/OS_CPU_STM32.c **** void __init_systick(void)
  40:../../source/src/kernel/OS_CPU/OS_CPU_STM32.c **** {
ARM GAS  G:\Users\Jaxb\AppData\Local\Temp\cc9ieDdq.s 			page 4


 118              		.loc 1 40 0
 119              		.cfi_startproc
 120              		@ args = 0, pretend = 0, frame = 0
 121              		@ frame_needed = 0, uses_anonymous_args = 0
 122              		@ link register save eliminated.
  41:../../source/src/kernel/OS_CPU/OS_CPU_STM32.c **** 	CPU_INT32U  prio;
  42:../../source/src/kernel/OS_CPU/OS_CPU_STM32.c **** 	CPU_REG_NVIC_ST_RELOAD = SystemCoreClock / TICK_PER_SEC  -1 ; 
 123              		.loc 1 42 0
 124 006c 0B4B     		ldr	r3, .L4
 125 006e 0C49     		ldr	r1, .L4+4
 126 0070 1B68     		ldr	r3, [r3]
 127 0072 0C4A     		ldr	r2, .L4+8
 128 0074 A1FB0313 		umull	r1, r3, r1, r3
 129 0078 5B09     		lsrs	r3, r3, #5
 130 007a 013B     		subs	r3, r3, #1
  43:../../source/src/kernel/OS_CPU/OS_CPU_STM32.c ****     /* Set SysTick handler prio */
  44:../../source/src/kernel/OS_CPU/OS_CPU_STM32.c ****     prio  = CPU_REG_NVIC_SHPRI3;
 131              		.loc 1 44 0
 132 007c 0A49     		ldr	r1, .L4+12
  42:../../source/src/kernel/OS_CPU/OS_CPU_STM32.c ****     /* Set SysTick handler prio */
 133              		.loc 1 42 0
 134 007e 1360     		str	r3, [r2]
 135              		.loc 1 44 0
 136 0080 0A68     		ldr	r2, [r1]
 137              	.LVL10:
  45:../../source/src/kernel/OS_CPU/OS_CPU_STM32.c ****     prio &= DEF_BIT_FIELD(24, 0);
  46:../../source/src/kernel/OS_CPU/OS_CPU_STM32.c ****     prio |= DEF_BIT_MASK(OS_CPU_CFG_SYSTICK_PRIO, 24);
  47:../../source/src/kernel/OS_CPU/OS_CPU_STM32.c **** 
  48:../../source/src/kernel/OS_CPU/OS_CPU_STM32.c ****     CPU_REG_NVIC_SHPRI3 = prio; 
  49:../../source/src/kernel/OS_CPU/OS_CPU_STM32.c **** 
  50:../../source/src/kernel/OS_CPU/OS_CPU_STM32.c ****                                                             /* Enable timer.                       
  51:../../source/src/kernel/OS_CPU/OS_CPU_STM32.c ****     CPU_REG_NVIC_ST_CTRL |= CPU_REG_NVIC_ST_CTRL_CLKSOURCE |
 138              		.loc 1 51 0
 139 0082 0A4B     		ldr	r3, .L4+16
  45:../../source/src/kernel/OS_CPU/OS_CPU_STM32.c ****     prio &= DEF_BIT_FIELD(24, 0);
 140              		.loc 1 45 0
 141 0084 22F07F42 		bic	r2, r2, #-16777216
 142              	.LVL11:
  48:../../source/src/kernel/OS_CPU/OS_CPU_STM32.c **** 
 143              		.loc 1 48 0
 144 0088 0A60     		str	r2, [r1]
 145              		.loc 1 51 0
 146 008a 1A68     		ldr	r2, [r3]
 147              	.LVL12:
 148 008c 42F00502 		orr	r2, r2, #5
 149 0090 1A60     		str	r2, [r3]
 150              	.LVL13:
  52:../../source/src/kernel/OS_CPU/OS_CPU_STM32.c ****                             CPU_REG_NVIC_ST_CTRL_ENABLE;
  53:../../source/src/kernel/OS_CPU/OS_CPU_STM32.c ****                                                             /* Enable timer interrupt.             
  54:../../source/src/kernel/OS_CPU/OS_CPU_STM32.c ****     CPU_REG_NVIC_ST_CTRL |= CPU_REG_NVIC_ST_CTRL_TICKINT;
 151              		.loc 1 54 0
 152 0092 1A68     		ldr	r2, [r3]
 153 0094 42F00202 		orr	r2, r2, #2
 154 0098 1A60     		str	r2, [r3]
  55:../../source/src/kernel/OS_CPU/OS_CPU_STM32.c **** }
 155              		.loc 1 55 0
 156 009a 7047     		bx	lr
ARM GAS  G:\Users\Jaxb\AppData\Local\Temp\cc9ieDdq.s 			page 5


 157              	.L5:
 158              		.align	2
 159              	.L4:
 160 009c 00000000 		.word	SystemCoreClock
 161 00a0 1F85EB51 		.word	1374389535
 162 00a4 14E000E0 		.word	-536813548
 163 00a8 20ED00E0 		.word	-536810208
 164 00ac 10E000E0 		.word	-536813552
 165              		.cfi_endproc
 166              	.LFE30:
 167              		.size	__init_systick, .-__init_systick
 168              		.align	1
 169              		.p2align 2,,3
 170              		.global	ReBoot
 171              		.syntax unified
 172              		.thumb
 173              		.thumb_func
 174              		.fpu softvfp
 175              		.type	ReBoot, %function
 176              	ReBoot:
 177              	.LFB31:
  56:../../source/src/kernel/OS_CPU/OS_CPU_STM32.c **** 
  57:../../source/src/kernel/OS_CPU/OS_CPU_STM32.c **** extern void Reset_Handler();
  58:../../source/src/kernel/OS_CPU/OS_CPU_STM32.c **** void ReBoot()
  59:../../source/src/kernel/OS_CPU/OS_CPU_STM32.c **** {
 178              		.loc 1 59 0
 179              		.cfi_startproc
 180              		@ args = 0, pretend = 0, frame = 0
 181              		@ frame_needed = 0, uses_anonymous_args = 0
 182              		@ link register save eliminated.
  60:../../source/src/kernel/OS_CPU/OS_CPU_STM32.c **** 	asm volatile(
 183              		.loc 1 60 0
 184              		.syntax unified
 185              	@ 60 "../../source/src/kernel/OS_CPU/OS_CPU_STM32.c" 1
 186 00b0 72B6     		CPSID   I
 187 00b2 EFF31480 		MRS R0,CONTROL
 188 00b6 00F00100 		AND R0,#0x01
 189 00ba 80F31488 		MSR CONTROL,R0
 190 00be DFF83CD0 		LDR SP, =_estack
 191 00c2 0F49     		LDR R1,=0xE000E010
 192 00c4 0868     		LDR R0,[R1]
 193 00c6 20F00200 		AND R0,#0xFFFFFFFD
 194 00ca 0860     		STR R0,[R1]
 195 00cc FFF7FEBF 		B   Reset_Handler
 196              		
 197              	@ 0 "" 2
  61:../../source/src/kernel/OS_CPU/OS_CPU_STM32.c **** 	    "CPSID   I\n\t"
  62:../../source/src/kernel/OS_CPU/OS_CPU_STM32.c **** 	    "MRS R0,CONTROL\n\t"
  63:../../source/src/kernel/OS_CPU/OS_CPU_STM32.c **** 	    "AND R0,#0x01\n\t"
  64:../../source/src/kernel/OS_CPU/OS_CPU_STM32.c **** 	    "MSR CONTROL,R0\n\t"
  65:../../source/src/kernel/OS_CPU/OS_CPU_STM32.c **** 	    "LDR SP, =_estack\n\t"
  66:../../source/src/kernel/OS_CPU/OS_CPU_STM32.c **** 	    "LDR R1,=0xE000E010\n\t"
  67:../../source/src/kernel/OS_CPU/OS_CPU_STM32.c **** 	    "LDR R0,[R1]\n\t"
  68:../../source/src/kernel/OS_CPU/OS_CPU_STM32.c **** 	    "AND R0,#0xFFFFFFFD\n\t"
  69:../../source/src/kernel/OS_CPU/OS_CPU_STM32.c **** 	    "STR R0,[R1]\n\t"
  70:../../source/src/kernel/OS_CPU/OS_CPU_STM32.c **** 	    "B   Reset_Handler\n\t"
  71:../../source/src/kernel/OS_CPU/OS_CPU_STM32.c **** 	);
ARM GAS  G:\Users\Jaxb\AppData\Local\Temp\cc9ieDdq.s 			page 6


  72:../../source/src/kernel/OS_CPU/OS_CPU_STM32.c **** }
 198              		.loc 1 72 0
 199              		.thumb
 200              		.syntax unified
 201 00d0 7047     		bx	lr
 202              		.cfi_endproc
 203              	.LFE31:
 204              		.size	ReBoot, .-ReBoot
 205              		.align	1
 206 00d2 00BF     		.p2align 2,,3
 207              		.global	sys_sleep
 208              		.syntax unified
 209              		.thumb
 210              		.thumb_func
 211              		.fpu softvfp
 212              		.type	sys_sleep, %function
 213              	sys_sleep:
 214              	.LFB32:
  73:../../source/src/kernel/OS_CPU/OS_CPU_STM32.c **** 
  74:../../source/src/kernel/OS_CPU/OS_CPU_STM32.c **** #if CONFIG_POWER_MANAGEMENT
  75:../../source/src/kernel/OS_CPU/OS_CPU_STM32.c **** void sys_sleep(void)
  76:../../source/src/kernel/OS_CPU/OS_CPU_STM32.c **** {
 215              		.loc 1 76 0
 216              		.cfi_startproc
 217              		@ args = 0, pretend = 0, frame = 0
 218              		@ frame_needed = 0, uses_anonymous_args = 0
 219              		@ link register save eliminated.
  77:../../source/src/kernel/OS_CPU/OS_CPU_STM32.c **** 
  78:../../source/src/kernel/OS_CPU/OS_CPU_STM32.c **** 	CPU_REG_NVIC_ST_CTRL &= ~(CPU_REG_NVIC_ST_CTRL_TICKINT | CPU_REG_NVIC_ST_CTRL_ENABLE);
 220              		.loc 1 78 0
 221 00d4 074B     		ldr	r3, .L8
 222 00d6 1A68     		ldr	r2, [r3]
 223 00d8 22F00302 		bic	r2, r2, #3
 224 00dc 1A60     		str	r2, [r3]
  79:../../source/src/kernel/OS_CPU/OS_CPU_STM32.c **** 	asm volatile("wfi");
 225              		.loc 1 79 0
 226              		.syntax unified
 227              	@ 79 "../../source/src/kernel/OS_CPU/OS_CPU_STM32.c" 1
 228 00de 30BF     		wfi
 229              	@ 0 "" 2
  80:../../source/src/kernel/OS_CPU/OS_CPU_STM32.c **** 
  81:../../source/src/kernel/OS_CPU/OS_CPU_STM32.c **** 	CPU_REG_NVIC_ST_CTRL |= CPU_REG_NVIC_ST_CTRL_CLKSOURCE |
 230              		.loc 1 81 0
 231              		.thumb
 232              		.syntax unified
 233 00e0 1A68     		ldr	r2, [r3]
 234 00e2 42F00502 		orr	r2, r2, #5
 235 00e6 1A60     		str	r2, [r3]
  82:../../source/src/kernel/OS_CPU/OS_CPU_STM32.c ****                             CPU_REG_NVIC_ST_CTRL_ENABLE;
  83:../../source/src/kernel/OS_CPU/OS_CPU_STM32.c ****                                                             /* Enable timer interrupt.             
  84:../../source/src/kernel/OS_CPU/OS_CPU_STM32.c ****     CPU_REG_NVIC_ST_CTRL |= CPU_REG_NVIC_ST_CTRL_TICKINT;
 236              		.loc 1 84 0
 237 00e8 1A68     		ldr	r2, [r3]
 238 00ea 42F00202 		orr	r2, r2, #2
 239 00ee 1A60     		str	r2, [r3]
  85:../../source/src/kernel/OS_CPU/OS_CPU_STM32.c **** 
  86:../../source/src/kernel/OS_CPU/OS_CPU_STM32.c **** }
ARM GAS  G:\Users\Jaxb\AppData\Local\Temp\cc9ieDdq.s 			page 7


 240              		.loc 1 86 0
 241 00f0 7047     		bx	lr
 242              	.L9:
 243 00f2 00BF     		.align	2
 244              	.L8:
 245 00f4 10E000E0 		.word	-536813552
 246              		.cfi_endproc
 247              	.LFE32:
 248              		.size	sys_sleep, .-sys_sleep
 249              		.align	1
 250              		.p2align 2,,3
 251              		.global	sys_shutdown
 252              		.syntax unified
 253              		.thumb
 254              		.thumb_func
 255              		.fpu softvfp
 256              		.type	sys_shutdown, %function
 257              	sys_shutdown:
 258              	.LFB33:
  87:../../source/src/kernel/OS_CPU/OS_CPU_STM32.c **** 
  88:../../source/src/kernel/OS_CPU/OS_CPU_STM32.c **** void sys_shutdown(void)
  89:../../source/src/kernel/OS_CPU/OS_CPU_STM32.c **** {
 259              		.loc 1 89 0
 260              		.cfi_startproc
 261              		@ args = 0, pretend = 0, frame = 0
 262              		@ frame_needed = 0, uses_anonymous_args = 0
 263              		@ link register save eliminated.
  90:../../source/src/kernel/OS_CPU/OS_CPU_STM32.c **** 	PWR_EnterSTANDBYMode();
 264              		.loc 1 90 0
 265 00f8 FFF7FEBF 		b	PWR_EnterSTANDBYMode
 266              	.LVL14:
 267              		.cfi_endproc
 268              	.LFE33:
 269              		.size	sys_shutdown, .-sys_shutdown
 270              	.Letext0:
 271              		.file 2 "../../source/include/os_cpu/os_cpu_stm32.h"
 272              		.file 3 "f:\\arm\\gcc2018\\arm-none-eabi\\include\\machine\\_default_types.h"
 273              		.file 4 "f:\\arm\\gcc2018\\arm-none-eabi\\include\\sys\\_stdint.h"
 274              		.file 5 "../../source/include/core_cm3.h"
 275              		.file 6 "../../source/include/system_stm32f10x.h"
 276              		.file 7 "../../source/src/FWlib/inc/stm32f10x_pwr.h"