ARM GAS  G:\Users\Jaxb\AppData\Local\Temp\ccWcCVoL.s 			page 1


   1              		.cpu cortex-m3
   2              		.eabi_attribute 20, 1
   3              		.eabi_attribute 21, 1
   4              		.eabi_attribute 23, 3
   5              		.eabi_attribute 24, 1
   6              		.eabi_attribute 25, 1
   7              		.eabi_attribute 26, 1
   8              		.eabi_attribute 30, 2
   9              		.eabi_attribute 34, 1
  10              		.eabi_attribute 18, 4
  11              		.file	"os_delay.c"
  12              		.text
  13              	.Ltext0:
  14              		.cfi_sections	.debug_frame
  15              		.align	1
  16              		.p2align 2,,3
  17              		.syntax unified
  18              		.thumb
  19              		.thumb_func
  20              		.fpu softvfp
  21              		.type	index_change_record, %function
  22              	index_change_record:
  23              	.LFB13:
  24              		.file 1 "../../source/src/user/OS_CORE/schedule/os_delay.c"
   1:../../source/src/user/OS_CORE/schedule/os_delay.c **** #include "os_delay.h"
   2:../../source/src/user/OS_CORE/schedule/os_delay.c **** #include "TCB.h"
   3:../../source/src/user/OS_CORE/schedule/os_delay.c **** #include "ka_configuration.h"
   4:../../source/src/user/OS_CORE/schedule/os_delay.c **** #include "heap_oo.h"
   5:../../source/src/user/OS_CORE/schedule/os_delay.c **** #include "myassert.h"
   6:../../source/src/user/OS_CORE/schedule/os_delay.c **** #include <os_ready.h>
   7:../../source/src/user/OS_CORE/schedule/os_delay.c **** #include "myMicroLIB.h"
   8:../../source/src/user/OS_CORE/schedule/os_delay.c **** 
   9:../../source/src/user/OS_CORE/schedule/os_delay.c **** #define TIME_FIRST_SMALLER_THAN_SECOND(first,second) ((INT64)(first)-(INT64)(second) < 0)
  10:../../source/src/user/OS_CORE/schedule/os_delay.c **** #define TIME_FIRST_BIGGER_THAN_SECOND(first,second)  ((INT64)(first)-(INT64)(second) > 0)
  11:../../source/src/user/OS_CORE/schedule/os_delay.c **** 
  12:../../source/src/user/OS_CORE/schedule/os_delay.c **** static struct little_heap delay_heap;
  13:../../source/src/user/OS_CORE/schedule/os_delay.c **** 
  14:../../source/src/user/OS_CORE/schedule/os_delay.c **** //this function is used by delay_heap
  15:../../source/src/user/OS_CORE/schedule/os_delay.c **** static int _cmp(Vector *Vector_ptr,unsigned int index1,unsigned int index2)
  16:../../source/src/user/OS_CORE/schedule/os_delay.c **** {
  17:../../source/src/user/OS_CORE/schedule/os_delay.c **** 	const TCB **a, **b;
  18:../../source/src/user/OS_CORE/schedule/os_delay.c **** 	Vector_get_index_address (Vector_ptr, index1, (void **)&a);
  19:../../source/src/user/OS_CORE/schedule/os_delay.c **** 	Vector_get_index_address (Vector_ptr, index2, (void **)&b);
  20:../../source/src/user/OS_CORE/schedule/os_delay.c **** 	if (TIME_FIRST_SMALLER_THAN_SECOND((*a)->delay_reach_time,(*b)->delay_reach_time))
  21:../../source/src/user/OS_CORE/schedule/os_delay.c **** 	{
  22:../../source/src/user/OS_CORE/schedule/os_delay.c **** 	  return -1;
  23:../../source/src/user/OS_CORE/schedule/os_delay.c **** 	}
  24:../../source/src/user/OS_CORE/schedule/os_delay.c **** 	else if (TIME_FIRST_BIGGER_THAN_SECOND((*a)->delay_reach_time,(*b)->delay_reach_time))
  25:../../source/src/user/OS_CORE/schedule/os_delay.c **** 	{
  26:../../source/src/user/OS_CORE/schedule/os_delay.c **** 	  return 1;
  27:../../source/src/user/OS_CORE/schedule/os_delay.c **** 	}
  28:../../source/src/user/OS_CORE/schedule/os_delay.c **** 	else
  29:../../source/src/user/OS_CORE/schedule/os_delay.c **** 	{
  30:../../source/src/user/OS_CORE/schedule/os_delay.c **** 	  return 0;
  31:../../source/src/user/OS_CORE/schedule/os_delay.c **** 	}
  32:../../source/src/user/OS_CORE/schedule/os_delay.c **** }
  33:../../source/src/user/OS_CORE/schedule/os_delay.c **** 
ARM GAS  G:\Users\Jaxb\AppData\Local\Temp\ccWcCVoL.s 			page 2


  34:../../source/src/user/OS_CORE/schedule/os_delay.c **** static inline void index_change_record(Vector *Vector_ptr,int index)
  35:../../source/src/user/OS_CORE/schedule/os_delay.c **** {
  25              		.loc 1 35 0
  26              		.cfi_startproc
  27              		@ args = 0, pretend = 0, frame = 8
  28              		@ frame_needed = 0, uses_anonymous_args = 0
  29              	.LVL0:
  30 0000 10B5     		push	{r4, lr}
  31              	.LCFI0:
  32              		.cfi_def_cfa_offset 8
  33              		.cfi_offset 4, -8
  34              		.cfi_offset 14, -4
  35 0002 82B0     		sub	sp, sp, #8
  36              	.LCFI1:
  37              		.cfi_def_cfa_offset 16
  36:../../source/src/user/OS_CORE/schedule/os_delay.c **** 	TCB *TCB_ptr;
  37:../../source/src/user/OS_CORE/schedule/os_delay.c **** 	Vector_get_index_data(Vector_ptr,index,&TCB_ptr);
  38              		.loc 1 37 0
  39 0004 01AA     		add	r2, sp, #4
  35:../../source/src/user/OS_CORE/schedule/os_delay.c **** 	TCB *TCB_ptr;
  40              		.loc 1 35 0
  41 0006 0C46     		mov	r4, r1
  42              		.loc 1 37 0
  43 0008 FFF7FEFF 		bl	Vector_get_index_data
  44              	.LVL1:
  38:../../source/src/user/OS_CORE/schedule/os_delay.c **** 	TCB_ptr->delay_heap_position = index;
  45              		.loc 1 38 0
  46 000c 019B     		ldr	r3, [sp, #4]
  47 000e 9C61     		str	r4, [r3, #24]
  39:../../source/src/user/OS_CORE/schedule/os_delay.c **** }
  48              		.loc 1 39 0
  49 0010 02B0     		add	sp, sp, #8
  50              	.LCFI2:
  51              		.cfi_def_cfa_offset 8
  52              		@ sp needed
  53 0012 10BD     		pop	{r4, pc}
  54              		.cfi_endproc
  55              	.LFE13:
  56              		.size	index_change_record, .-index_change_record
  57              		.align	1
  58              		.p2align 2,,3
  59              		.syntax unified
  60              		.thumb
  61              		.thumb_func
  62              		.fpu softvfp
  63              		.type	_cmp, %function
  64              	_cmp:
  65              	.LFB12:
  16:../../source/src/user/OS_CORE/schedule/os_delay.c **** 	const TCB **a, **b;
  66              		.loc 1 16 0
  67              		.cfi_startproc
  68              		@ args = 0, pretend = 0, frame = 8
  69              		@ frame_needed = 0, uses_anonymous_args = 0
  70              	.LVL2:
  71 0014 30B5     		push	{r4, r5, lr}
  72              	.LCFI3:
  73              		.cfi_def_cfa_offset 12
ARM GAS  G:\Users\Jaxb\AppData\Local\Temp\ccWcCVoL.s 			page 3


  74              		.cfi_offset 4, -12
  75              		.cfi_offset 5, -8
  76              		.cfi_offset 14, -4
  77 0016 1546     		mov	r5, r2
  78 0018 0446     		mov	r4, r0
  79 001a 83B0     		sub	sp, sp, #12
  80              	.LCFI4:
  81              		.cfi_def_cfa_offset 24
  18:../../source/src/user/OS_CORE/schedule/os_delay.c **** 	Vector_get_index_address (Vector_ptr, index2, (void **)&b);
  82              		.loc 1 18 0
  83 001c 6A46     		mov	r2, sp
  84              	.LVL3:
  85 001e FFF7FEFF 		bl	Vector_get_index_address
  86              	.LVL4:
  19:../../source/src/user/OS_CORE/schedule/os_delay.c **** 	if (TIME_FIRST_SMALLER_THAN_SECOND((*a)->delay_reach_time,(*b)->delay_reach_time))
  87              		.loc 1 19 0
  88 0022 2946     		mov	r1, r5
  89 0024 01AA     		add	r2, sp, #4
  90 0026 2046     		mov	r0, r4
  91 0028 FFF7FEFF 		bl	Vector_get_index_address
  92              	.LVL5:
  20:../../source/src/user/OS_CORE/schedule/os_delay.c **** 	{
  93              		.loc 1 20 0
  94 002c DDE90032 		ldrd	r3, r2, [sp]
  95 0030 1168     		ldr	r1, [r2]
  96 0032 1B68     		ldr	r3, [r3]
  97 0034 D1E91001 		ldrd	r0, [r1, #64]
  98 0038 D3E91023 		ldrd	r2, [r3, #64]
  99 003c 121A     		subs	r2, r2, r0
 100 003e 63EB0103 		sbc	r3, r3, r1
 101 0042 1D46     		mov	r5, r3
 102              	.LVL6:
 103 0044 002A     		cmp	r2, #0
 104 0046 75F10003 		sbcs	r3, r5, #0
 105 004a 06DB     		blt	.L5
  24:../../source/src/user/OS_CORE/schedule/os_delay.c **** 	{
 106              		.loc 1 24 0
 107 004c 52EA0503 		orrs	r3, r2, r5
 108 0050 14BF     		ite	ne
 109 0052 0120     		movne	r0, #1
 110 0054 0020     		moveq	r0, #0
 111              	.L3:
  32:../../source/src/user/OS_CORE/schedule/os_delay.c **** 
 112              		.loc 1 32 0
 113 0056 03B0     		add	sp, sp, #12
 114              	.LCFI5:
 115              		.cfi_remember_state
 116              		.cfi_def_cfa_offset 12
 117              		@ sp needed
 118 0058 30BD     		pop	{r4, r5, pc}
 119              	.LVL7:
 120              	.L5:
 121              	.LCFI6:
 122              		.cfi_restore_state
  22:../../source/src/user/OS_CORE/schedule/os_delay.c **** 	}
 123              		.loc 1 22 0
 124 005a 4FF0FF30 		mov	r0, #-1
ARM GAS  G:\Users\Jaxb\AppData\Local\Temp\ccWcCVoL.s 			page 4


 125 005e FAE7     		b	.L3
 126              		.cfi_endproc
 127              	.LFE12:
 128              		.size	_cmp, .-_cmp
 129              		.align	1
 130              		.p2align 2,,3
 131              		.global	__init_delay_heap
 132              		.syntax unified
 133              		.thumb
 134              		.thumb_func
 135              		.fpu softvfp
 136              		.type	__init_delay_heap, %function
 137              	__init_delay_heap:
 138              	.LFB14:
  40:../../source/src/user/OS_CORE/schedule/os_delay.c **** 	
  41:../../source/src/user/OS_CORE/schedule/os_delay.c **** inline void __init_delay_heap(void)
  42:../../source/src/user/OS_CORE/schedule/os_delay.c **** {
 139              		.loc 1 42 0
 140              		.cfi_startproc
 141              		@ args = 0, pretend = 0, frame = 0
 142              		@ frame_needed = 0, uses_anonymous_args = 0
 143 0060 00B5     		push	{lr}
 144              	.LCFI7:
 145              		.cfi_def_cfa_offset 4
 146              		.cfi_offset 14, -4
  43:../../source/src/user/OS_CORE/schedule/os_delay.c **** 	if(0 != heap_init(&delay_heap,PRIO_MAX/4,sizeof(TCB *),_cmp,index_change_record))
 147              		.loc 1 43 0
 148 0062 084A     		ldr	r2, .L10
  42:../../source/src/user/OS_CORE/schedule/os_delay.c **** 	if(0 != heap_init(&delay_heap,PRIO_MAX/4,sizeof(TCB *),_cmp,index_change_record))
 149              		.loc 1 42 0
 150 0064 83B0     		sub	sp, sp, #12
 151              	.LCFI8:
 152              		.cfi_def_cfa_offset 16
 153              		.loc 1 43 0
 154 0066 0092     		str	r2, [sp]
 155 0068 074B     		ldr	r3, .L10+4
 156 006a 0422     		movs	r2, #4
 157 006c 1021     		movs	r1, #16
 158 006e 0748     		ldr	r0, .L10+8
 159 0070 FFF7FEFF 		bl	heap_init
 160              	.LVL8:
 161 0074 10B9     		cbnz	r0, .L9
  44:../../source/src/user/OS_CORE/schedule/os_delay.c **** 	{
  45:../../source/src/user/OS_CORE/schedule/os_delay.c **** 		ka_printf("init_delay_heap error!\nstop booting.....\n");
  46:../../source/src/user/OS_CORE/schedule/os_delay.c **** 		while(1);
  47:../../source/src/user/OS_CORE/schedule/os_delay.c **** 		//os stop here
  48:../../source/src/user/OS_CORE/schedule/os_delay.c **** 	}
  49:../../source/src/user/OS_CORE/schedule/os_delay.c **** }
 162              		.loc 1 49 0
 163 0076 03B0     		add	sp, sp, #12
 164              	.LCFI9:
 165              		.cfi_remember_state
 166              		.cfi_def_cfa_offset 4
 167              		@ sp needed
 168 0078 5DF804FB 		ldr	pc, [sp], #4
 169              	.L9:
 170              	.LCFI10:
ARM GAS  G:\Users\Jaxb\AppData\Local\Temp\ccWcCVoL.s 			page 5


 171              		.cfi_restore_state
  45:../../source/src/user/OS_CORE/schedule/os_delay.c **** 		while(1);
 172              		.loc 1 45 0
 173 007c 0448     		ldr	r0, .L10+12
 174 007e FFF7FEFF 		bl	ka_printf
 175              	.LVL9:
 176              	.L8:
 177 0082 FEE7     		b	.L8
 178              	.L11:
 179              		.align	2
 180              	.L10:
 181 0084 00000000 		.word	index_change_record
 182 0088 00000000 		.word	_cmp
 183 008c 00000000 		.word	.LANCHOR0
 184 0090 00000000 		.word	.LC0
 185              		.cfi_endproc
 186              	.LFE14:
 187              		.size	__init_delay_heap, .-__init_delay_heap
 188              		.align	1
 189              		.p2align 2,,3
 190              		.global	insert_into_delay_heap
 191              		.syntax unified
 192              		.thumb
 193              		.thumb_func
 194              		.fpu softvfp
 195              		.type	insert_into_delay_heap, %function
 196              	insert_into_delay_heap:
 197              	.LFB15:
  50:../../source/src/user/OS_CORE/schedule/os_delay.c **** 
  51:../../source/src/user/OS_CORE/schedule/os_delay.c **** //before inserting action,os should set the delay_reach_time
  52:../../source/src/user/OS_CORE/schedule/os_delay.c **** //this function do not change the task_state of the TCB,os shoule
  53:../../source/src/user/OS_CORE/schedule/os_delay.c **** //change it before using this function
  54:../../source/src/user/OS_CORE/schedule/os_delay.c **** inline int insert_into_delay_heap(TCB *TCB_ptr)
  55:../../source/src/user/OS_CORE/schedule/os_delay.c **** {
 198              		.loc 1 55 0
 199              		.cfi_startproc
 200              		@ args = 0, pretend = 0, frame = 8
 201              		@ frame_needed = 0, uses_anonymous_args = 0
 202              	.LVL10:
 203 0094 00B5     		push	{lr}
 204              	.LCFI11:
 205              		.cfi_def_cfa_offset 4
 206              		.cfi_offset 14, -4
 207 0096 83B0     		sub	sp, sp, #12
 208              	.LCFI12:
 209              		.cfi_def_cfa_offset 16
 210              		.loc 1 55 0
 211 0098 0190     		str	r0, [sp, #4]
  56:../../source/src/user/OS_CORE/schedule/os_delay.c **** 	ASSERT(NULL != TCB_ptr);
 212              		.loc 1 56 0
 213 009a 30B1     		cbz	r0, .L15
 214              	.LVL11:
 215              	.L13:
  57:../../source/src/user/OS_CORE/schedule/os_delay.c **** #if CONFIG_PARA_CHECK
  58:../../source/src/user/OS_CORE/schedule/os_delay.c **** 	if(NULL == TCB_ptr)
  59:../../source/src/user/OS_CORE/schedule/os_delay.c **** 	{
  60:../../source/src/user/OS_CORE/schedule/os_delay.c **** 		OS_ERROR_PARA_MESSAGE_DISPLAY(insert_into_delay_heap,TCB_ptr);
ARM GAS  G:\Users\Jaxb\AppData\Local\Temp\ccWcCVoL.s 			page 6


  61:../../source/src/user/OS_CORE/schedule/os_delay.c **** 		return -ERROR_NULL_INPUT_PTR;
  62:../../source/src/user/OS_CORE/schedule/os_delay.c **** 	}
  63:../../source/src/user/OS_CORE/schedule/os_delay.c **** #endif
  64:../../source/src/user/OS_CORE/schedule/os_delay.c **** 	return heap_push(&delay_heap,&TCB_ptr);
 216              		.loc 1 64 0
 217 009c 01A9     		add	r1, sp, #4
 218 009e 0948     		ldr	r0, .L16
 219 00a0 FFF7FEFF 		bl	heap_push
 220              	.LVL12:
 221              	.L12:
  65:../../source/src/user/OS_CORE/schedule/os_delay.c **** }
 222              		.loc 1 65 0
 223 00a4 03B0     		add	sp, sp, #12
 224              	.LCFI13:
 225              		.cfi_remember_state
 226              		.cfi_def_cfa_offset 4
 227              		@ sp needed
 228 00a6 5DF804FB 		ldr	pc, [sp], #4
 229              	.LVL13:
 230              	.L15:
 231              	.LCFI14:
 232              		.cfi_restore_state
  56:../../source/src/user/OS_CORE/schedule/os_delay.c **** 	ASSERT(NULL != TCB_ptr);
 233              		.loc 1 56 0 discriminator 1
 234 00aa 3821     		movs	r1, #56
 235 00ac 0648     		ldr	r0, .L16+4
 236              	.LVL14:
 237 00ae FFF7FEFF 		bl	_ASSERT
 238              	.LVL15:
  58:../../source/src/user/OS_CORE/schedule/os_delay.c **** 	{
 239              		.loc 1 58 0 discriminator 1
 240 00b2 019B     		ldr	r3, [sp, #4]
 241 00b4 002B     		cmp	r3, #0
 242 00b6 F1D1     		bne	.L13
  60:../../source/src/user/OS_CORE/schedule/os_delay.c **** 		return -ERROR_NULL_INPUT_PTR;
 243              		.loc 1 60 0
 244 00b8 0448     		ldr	r0, .L16+8
 245 00ba FFF7FEFF 		bl	ka_printf
 246              	.LVL16:
  61:../../source/src/user/OS_CORE/schedule/os_delay.c **** 	}
 247              		.loc 1 61 0
 248 00be 6FF0FE00 		mvn	r0, #254
 249 00c2 EFE7     		b	.L12
 250              	.L17:
 251              		.align	2
 252              	.L16:
 253 00c4 00000000 		.word	.LANCHOR0
 254 00c8 2C000000 		.word	.LC1
 255 00cc 60000000 		.word	.LC2
 256              		.cfi_endproc
 257              	.LFE15:
 258              		.size	insert_into_delay_heap, .-insert_into_delay_heap
 259              		.align	1
 260              		.p2align 2,,3
 261              		.global	remove_from_delay_heap
 262              		.syntax unified
 263              		.thumb
ARM GAS  G:\Users\Jaxb\AppData\Local\Temp\ccWcCVoL.s 			page 7


 264              		.thumb_func
 265              		.fpu softvfp
 266              		.type	remove_from_delay_heap, %function
 267              	remove_from_delay_heap:
 268              	.LFB16:
  66:../../source/src/user/OS_CORE/schedule/os_delay.c **** 
  67:../../source/src/user/OS_CORE/schedule/os_delay.c **** int remove_from_delay_heap(TCB *TCB_ptr)
  68:../../source/src/user/OS_CORE/schedule/os_delay.c **** {
 269              		.loc 1 68 0
 270              		.cfi_startproc
 271              		@ args = 0, pretend = 0, frame = 8
 272              		@ frame_needed = 0, uses_anonymous_args = 0
 273              	.LVL17:
 274 00d0 F0B5     		push	{r4, r5, r6, r7, lr}
 275              	.LCFI15:
 276              		.cfi_def_cfa_offset 20
 277              		.cfi_offset 4, -20
 278              		.cfi_offset 5, -16
 279              		.cfi_offset 6, -12
 280              		.cfi_offset 7, -8
 281              		.cfi_offset 14, -4
  69:../../source/src/user/OS_CORE/schedule/os_delay.c **** 	ASSERT(NULL != TCB_ptr);
 282              		.loc 1 69 0
 283 00d2 0546     		mov	r5, r0
  68:../../source/src/user/OS_CORE/schedule/os_delay.c **** 	ASSERT(NULL != TCB_ptr);
 284              		.loc 1 68 0
 285 00d4 83B0     		sub	sp, sp, #12
 286              	.LCFI16:
 287              		.cfi_def_cfa_offset 32
 288              		.loc 1 69 0
 289 00d6 28B3     		cbz	r0, .L26
  70:../../source/src/user/OS_CORE/schedule/os_delay.c **** #if CONFIG_PARA_CHECK
  71:../../source/src/user/OS_CORE/schedule/os_delay.c **** 	if(NULL == TCB_ptr)
  72:../../source/src/user/OS_CORE/schedule/os_delay.c **** 	{
  73:../../source/src/user/OS_CORE/schedule/os_delay.c **** 		OS_ERROR_PARA_MESSAGE_DISPLAY(remove_from_delay_heap,TCB_ptr);
  74:../../source/src/user/OS_CORE/schedule/os_delay.c **** 		return -ERROR_NULL_INPUT_PTR;
  75:../../source/src/user/OS_CORE/schedule/os_delay.c **** 	}
  76:../../source/src/user/OS_CORE/schedule/os_delay.c **** #endif
  77:../../source/src/user/OS_CORE/schedule/os_delay.c **** 	TCB *TCB_ptr_buffer;
  78:../../source/src/user/OS_CORE/schedule/os_delay.c **** 	int i;
  79:../../source/src/user/OS_CORE/schedule/os_delay.c **** 	int ret;
  80:../../source/src/user/OS_CORE/schedule/os_delay.c **** 	int len = heap_get_cur_len(&delay_heap);
 290              		.loc 1 80 0
 291 00d8 1848     		ldr	r0, .L27
 292              	.LVL18:
 293 00da FFF7FEFF 		bl	heap_get_cur_len
 294              	.LVL19:
  81:../../source/src/user/OS_CORE/schedule/os_delay.c **** 	for(i=1;i<len;++i) // check from first to the end
 295              		.loc 1 81 0
 296 00de 0128     		cmp	r0, #1
  80:../../source/src/user/OS_CORE/schedule/os_delay.c **** 	for(i=1;i<len;++i) // check from first to the end
 297              		.loc 1 80 0
 298 00e0 0646     		mov	r6, r0
 299              	.LVL20:
 300              		.loc 1 81 0
 301 00e2 1ADD     		ble	.L23
 302 00e4 0124     		movs	r4, #1
ARM GAS  G:\Users\Jaxb\AppData\Local\Temp\ccWcCVoL.s 			page 8


  82:../../source/src/user/OS_CORE/schedule/os_delay.c **** 	{
  83:../../source/src/user/OS_CORE/schedule/os_delay.c **** 		heap_get_index_data(&delay_heap,&TCB_ptr_buffer,i);
 303              		.loc 1 83 0
 304 00e6 154F     		ldr	r7, .L27
 305 00e8 02E0     		b	.L22
 306              	.LVL21:
 307              	.L21:
  81:../../source/src/user/OS_CORE/schedule/os_delay.c **** 	{
 308              		.loc 1 81 0 discriminator 2
 309 00ea 0134     		adds	r4, r4, #1
 310              	.LVL22:
 311 00ec A642     		cmp	r6, r4
 312 00ee 14D0     		beq	.L23
 313              	.LVL23:
 314              	.L22:
 315              		.loc 1 83 0
 316 00f0 2246     		mov	r2, r4
 317 00f2 01A9     		add	r1, sp, #4
 318 00f4 3846     		mov	r0, r7
 319 00f6 FFF7FEFF 		bl	heap_get_index_data
 320              	.LVL24:
  84:../../source/src/user/OS_CORE/schedule/os_delay.c **** 		if(TCB_ptr == TCB_ptr_buffer)
 321              		.loc 1 84 0
 322 00fa 019B     		ldr	r3, [sp, #4]
 323 00fc AB42     		cmp	r3, r5
 324 00fe F4D1     		bne	.L21
  85:../../source/src/user/OS_CORE/schedule/os_delay.c **** 		{
  86:../../source/src/user/OS_CORE/schedule/os_delay.c **** 			ret = heap_remove_index_data(&delay_heap,i,NULL);
 325              		.loc 1 86 0
 326 0100 2146     		mov	r1, r4
 327 0102 0022     		movs	r2, #0
 328 0104 0D48     		ldr	r0, .L27
 329 0106 FFF7FEFF 		bl	heap_remove_index_data
 330              	.LVL25:
  87:../../source/src/user/OS_CORE/schedule/os_delay.c **** 			if(0 != ret)
 331              		.loc 1 87 0
 332 010a 0446     		mov	r4, r0
 333              	.LVL26:
 334 010c 38B9     		cbnz	r0, .L18
  88:../../source/src/user/OS_CORE/schedule/os_delay.c **** 			{
  89:../../source/src/user/OS_CORE/schedule/os_delay.c **** 				return ret;
  90:../../source/src/user/OS_CORE/schedule/os_delay.c **** 			}
  91:../../source/src/user/OS_CORE/schedule/os_delay.c **** 			insert_ready_TCB(TCB_ptr);
 335              		.loc 1 91 0
 336 010e 2846     		mov	r0, r5
 337              	.LVL27:
 338 0110 FFF7FEFF 		bl	insert_ready_TCB
 339              	.LVL28:
  92:../../source/src/user/OS_CORE/schedule/os_delay.c **** 			return FUN_EXECUTE_SUCCESSFULLY;
  93:../../source/src/user/OS_CORE/schedule/os_delay.c **** 		}
  94:../../source/src/user/OS_CORE/schedule/os_delay.c **** 	}
  95:../../source/src/user/OS_CORE/schedule/os_delay.c **** 	return -ERROR_VALUELESS_INPUT;
  96:../../source/src/user/OS_CORE/schedule/os_delay.c **** }
 340              		.loc 1 96 0
 341 0114 2046     		mov	r0, r4
 342 0116 03B0     		add	sp, sp, #12
 343              	.LCFI17:
ARM GAS  G:\Users\Jaxb\AppData\Local\Temp\ccWcCVoL.s 			page 9


 344              		.cfi_remember_state
 345              		.cfi_def_cfa_offset 20
 346              		@ sp needed
 347 0118 F0BD     		pop	{r4, r5, r6, r7, pc}
 348              	.LVL29:
 349              	.L23:
 350              	.LCFI18:
 351              		.cfi_restore_state
  95:../../source/src/user/OS_CORE/schedule/os_delay.c **** }
 352              		.loc 1 95 0
 353 011a 6FF0FD04 		mvn	r4, #253
 354              	.L18:
 355              		.loc 1 96 0
 356 011e 2046     		mov	r0, r4
 357 0120 03B0     		add	sp, sp, #12
 358              	.LCFI19:
 359              		.cfi_remember_state
 360              		.cfi_def_cfa_offset 20
 361              		@ sp needed
 362 0122 F0BD     		pop	{r4, r5, r6, r7, pc}
 363              	.LVL30:
 364              	.L26:
 365              	.LCFI20:
 366              		.cfi_restore_state
  74:../../source/src/user/OS_CORE/schedule/os_delay.c **** 	}
 367              		.loc 1 74 0 discriminator 1
 368 0124 6FF0FE04 		mvn	r4, #254
  69:../../source/src/user/OS_CORE/schedule/os_delay.c **** #if CONFIG_PARA_CHECK
 369              		.loc 1 69 0 discriminator 1
 370 0128 4521     		movs	r1, #69
 371 012a 0548     		ldr	r0, .L27+4
 372              	.LVL31:
 373 012c FFF7FEFF 		bl	_ASSERT
 374              	.LVL32:
  73:../../source/src/user/OS_CORE/schedule/os_delay.c **** 		return -ERROR_NULL_INPUT_PTR;
 375              		.loc 1 73 0 discriminator 1
 376 0130 0448     		ldr	r0, .L27+8
 377 0132 FFF7FEFF 		bl	ka_printf
 378              	.LVL33:
 379              		.loc 1 96 0 discriminator 1
 380 0136 2046     		mov	r0, r4
 381 0138 03B0     		add	sp, sp, #12
 382              	.LCFI21:
 383              		.cfi_def_cfa_offset 20
 384              		@ sp needed
 385 013a F0BD     		pop	{r4, r5, r6, r7, pc}
 386              	.LVL34:
 387              	.L28:
 388              		.align	2
 389              	.L27:
 390 013c 00000000 		.word	.LANCHOR0
 391 0140 2C000000 		.word	.LC1
 392 0144 A0000000 		.word	.LC3
 393              		.cfi_endproc
 394              	.LFE16:
 395              		.size	remove_from_delay_heap, .-remove_from_delay_heap
 396              		.align	1
ARM GAS  G:\Users\Jaxb\AppData\Local\Temp\ccWcCVoL.s 			page 10


 397              		.p2align 2,,3
 398              		.global	delay_heap_get_top_TCB
 399              		.syntax unified
 400              		.thumb
 401              		.thumb_func
 402              		.fpu softvfp
 403              		.type	delay_heap_get_top_TCB, %function
 404              	delay_heap_get_top_TCB:
 405              	.LFB17:
  97:../../source/src/user/OS_CORE/schedule/os_delay.c **** 
  98:../../source/src/user/OS_CORE/schedule/os_delay.c **** inline TCB* delay_heap_get_top_TCB(void)
  99:../../source/src/user/OS_CORE/schedule/os_delay.c **** {
 406              		.loc 1 99 0
 407              		.cfi_startproc
 408              		@ args = 0, pretend = 0, frame = 8
 409              		@ frame_needed = 0, uses_anonymous_args = 0
 410 0148 00B5     		push	{lr}
 411              	.LCFI22:
 412              		.cfi_def_cfa_offset 4
 413              		.cfi_offset 14, -4
 414 014a 83B0     		sub	sp, sp, #12
 415              	.LCFI23:
 416              		.cfi_def_cfa_offset 16
 100:../../source/src/user/OS_CORE/schedule/os_delay.c **** 	//TCB *TCB_ptr;
 101:../../source/src/user/OS_CORE/schedule/os_delay.c **** 	TCB *TCB_ptr;
 102:../../source/src/user/OS_CORE/schedule/os_delay.c **** 	if(0 != heap_get_top_safe(&delay_heap,&TCB_ptr))
 417              		.loc 1 102 0
 418 014c 0122     		movs	r2, #1
 419 014e 01A9     		add	r1, sp, #4
 420 0150 0448     		ldr	r0, .L32
 421 0152 FFF7FEFF 		bl	heap_get_index_data_safe
 422              	.LVL35:
 423 0156 18B9     		cbnz	r0, .L31
 103:../../source/src/user/OS_CORE/schedule/os_delay.c **** 	{
 104:../../source/src/user/OS_CORE/schedule/os_delay.c **** 		return NULL;
 105:../../source/src/user/OS_CORE/schedule/os_delay.c **** 	}
 106:../../source/src/user/OS_CORE/schedule/os_delay.c **** 	return TCB_ptr;
 424              		.loc 1 106 0
 425 0158 0198     		ldr	r0, [sp, #4]
 426              	.L29:
 107:../../source/src/user/OS_CORE/schedule/os_delay.c **** }
 427              		.loc 1 107 0
 428 015a 03B0     		add	sp, sp, #12
 429              	.LCFI24:
 430              		.cfi_remember_state
 431              		.cfi_def_cfa_offset 4
 432              		@ sp needed
 433 015c 5DF804FB 		ldr	pc, [sp], #4
 434              	.L31:
 435              	.LCFI25:
 436              		.cfi_restore_state
 104:../../source/src/user/OS_CORE/schedule/os_delay.c **** 	}
 437              		.loc 1 104 0
 438 0160 0020     		movs	r0, #0
 439 0162 FAE7     		b	.L29
 440              	.L33:
 441              		.align	2
ARM GAS  G:\Users\Jaxb\AppData\Local\Temp\ccWcCVoL.s 			page 11


 442              	.L32:
 443 0164 00000000 		.word	.LANCHOR0
 444              		.cfi_endproc
 445              	.LFE17:
 446              		.size	delay_heap_get_top_TCB, .-delay_heap_get_top_TCB
 447              		.align	1
 448              		.p2align 2,,3
 449              		.global	delay_heap_remove_top_TCB
 450              		.syntax unified
 451              		.thumb
 452              		.thumb_func
 453              		.fpu softvfp
 454              		.type	delay_heap_remove_top_TCB, %function
 455              	delay_heap_remove_top_TCB:
 456              	.LFB18:
 108:../../source/src/user/OS_CORE/schedule/os_delay.c **** 
 109:../../source/src/user/OS_CORE/schedule/os_delay.c **** inline TCB* delay_heap_remove_top_TCB(void)
 110:../../source/src/user/OS_CORE/schedule/os_delay.c **** {
 457              		.loc 1 110 0
 458              		.cfi_startproc
 459              		@ args = 0, pretend = 0, frame = 8
 460              		@ frame_needed = 0, uses_anonymous_args = 0
 461 0168 00B5     		push	{lr}
 462              	.LCFI26:
 463              		.cfi_def_cfa_offset 4
 464              		.cfi_offset 14, -4
 465 016a 83B0     		sub	sp, sp, #12
 466              	.LCFI27:
 467              		.cfi_def_cfa_offset 16
 111:../../source/src/user/OS_CORE/schedule/os_delay.c **** 	TCB *TCB_ptr;
 112:../../source/src/user/OS_CORE/schedule/os_delay.c **** 	if(0 != heap_remove_top(&delay_heap,&TCB_ptr))
 468              		.loc 1 112 0
 469 016c 01AA     		add	r2, sp, #4
 470 016e 0121     		movs	r1, #1
 471 0170 0448     		ldr	r0, .L37
 472 0172 FFF7FEFF 		bl	heap_remove_index_data
 473              	.LVL36:
 474 0176 18B9     		cbnz	r0, .L36
 113:../../source/src/user/OS_CORE/schedule/os_delay.c **** 	{
 114:../../source/src/user/OS_CORE/schedule/os_delay.c **** 		return NULL;
 115:../../source/src/user/OS_CORE/schedule/os_delay.c **** 	}
 116:../../source/src/user/OS_CORE/schedule/os_delay.c **** 	return TCB_ptr;
 475              		.loc 1 116 0
 476 0178 0198     		ldr	r0, [sp, #4]
 477              	.L34:
 117:../../source/src/user/OS_CORE/schedule/os_delay.c **** }
 478              		.loc 1 117 0
 479 017a 03B0     		add	sp, sp, #12
 480              	.LCFI28:
 481              		.cfi_remember_state
 482              		.cfi_def_cfa_offset 4
 483              		@ sp needed
 484 017c 5DF804FB 		ldr	pc, [sp], #4
 485              	.L36:
 486              	.LCFI29:
 487              		.cfi_restore_state
 114:../../source/src/user/OS_CORE/schedule/os_delay.c **** 	}
ARM GAS  G:\Users\Jaxb\AppData\Local\Temp\ccWcCVoL.s 			page 12


 488              		.loc 1 114 0
 489 0180 0020     		movs	r0, #0
 490 0182 FAE7     		b	.L34
 491              	.L38:
 492              		.align	2
 493              	.L37:
 494 0184 00000000 		.word	.LANCHOR0
 495              		.cfi_endproc
 496              	.LFE18:
 497              		.size	delay_heap_remove_top_TCB, .-delay_heap_remove_top_TCB
 498              		.align	1
 499              		.p2align 2,,3
 500              		.global	shell_delay_heap_check
 501              		.syntax unified
 502              		.thumb
 503              		.thumb_func
 504              		.fpu softvfp
 505              		.type	shell_delay_heap_check, %function
 506              	shell_delay_heap_check:
 507              	.LFB19:
 118:../../source/src/user/OS_CORE/schedule/os_delay.c **** 
 119:../../source/src/user/OS_CORE/schedule/os_delay.c **** #if CONFIG_SHELL_EN
 120:../../source/src/user/OS_CORE/schedule/os_delay.c **** void shell_delay_heap_check(void)
 121:../../source/src/user/OS_CORE/schedule/os_delay.c **** {
 508              		.loc 1 121 0
 509              		.cfi_startproc
 510              		@ args = 0, pretend = 0, frame = 8
 511              		@ frame_needed = 0, uses_anonymous_args = 0
 512 0188 2DE9F048 		push	{r4, r5, r6, r7, fp, lr}
 513              	.LCFI30:
 514              		.cfi_def_cfa_offset 24
 515              		.cfi_offset 4, -24
 516              		.cfi_offset 5, -20
 517              		.cfi_offset 6, -16
 518              		.cfi_offset 7, -12
 519              		.cfi_offset 11, -8
 520              		.cfi_offset 14, -4
 122:../../source/src/user/OS_CORE/schedule/os_delay.c **** 	TCB *TCB_ptr1,*TCB_ptr2;
 123:../../source/src/user/OS_CORE/schedule/os_delay.c **** 	unsigned int len;
 124:../../source/src/user/OS_CORE/schedule/os_delay.c **** 	unsigned int i;
 125:../../source/src/user/OS_CORE/schedule/os_delay.c **** 	len = heap_get_cur_len(&delay_heap);
 521              		.loc 1 125 0
 522 018c 1A48     		ldr	r0, .L47
 121:../../source/src/user/OS_CORE/schedule/os_delay.c **** 	TCB *TCB_ptr1,*TCB_ptr2;
 523              		.loc 1 121 0
 524 018e 82B0     		sub	sp, sp, #8
 525              	.LCFI31:
 526              		.cfi_def_cfa_offset 32
 527              		.loc 1 125 0
 528 0190 FFF7FEFF 		bl	heap_get_cur_len
 529              	.LVL37:
 530 0194 0446     		mov	r4, r0
 531              	.LVL38:
 126:../../source/src/user/OS_CORE/schedule/os_delay.c **** 	ka_printf("now start checking delay_heap\n");
 532              		.loc 1 126 0
 533 0196 1948     		ldr	r0, .L47+4
 534              	.LVL39:
ARM GAS  G:\Users\Jaxb\AppData\Local\Temp\ccWcCVoL.s 			page 13


 535 0198 FFF7FEFF 		bl	ka_printf
 536              	.LVL40:
 127:../../source/src/user/OS_CORE/schedule/os_delay.c **** 	for(i=len-1;i>0;--i)
 537              		.loc 1 127 0
 538 019c 013C     		subs	r4, r4, #1
 539              	.LVL41:
 540 019e 24D0     		beq	.L40
 128:../../source/src/user/OS_CORE/schedule/os_delay.c **** 	{
 129:../../source/src/user/OS_CORE/schedule/os_delay.c **** 		heap_get_index_data(&delay_heap,&TCB_ptr1,i);
 541              		.loc 1 129 0
 542 01a0 154E     		ldr	r6, .L47
 130:../../source/src/user/OS_CORE/schedule/os_delay.c **** 		heap_get_index_data(&delay_heap,&TCB_ptr2,i/2);
 131:../../source/src/user/OS_CORE/schedule/os_delay.c **** 		if(TIME_FIRST_SMALLER_THAN_SECOND(TCB_ptr1->delay_reach_time,TCB_ptr2->delay_reach_time))
 132:../../source/src/user/OS_CORE/schedule/os_delay.c **** 		{
 133:../../source/src/user/OS_CORE/schedule/os_delay.c **** 			ka_printf("heap member %u has incorrect position with member %u\n",i,i/2);
 543              		.loc 1 133 0
 544 01a2 174F     		ldr	r7, .L47+8
 545 01a4 01E0     		b	.L42
 546              	.LVL42:
 547              	.L41:
 127:../../source/src/user/OS_CORE/schedule/os_delay.c **** 	{
 548              		.loc 1 127 0 discriminator 2
 549 01a6 013C     		subs	r4, r4, #1
 550              	.LVL43:
 551 01a8 1FD0     		beq	.L40
 552              	.L42:
 129:../../source/src/user/OS_CORE/schedule/os_delay.c **** 		heap_get_index_data(&delay_heap,&TCB_ptr2,i/2);
 553              		.loc 1 129 0
 554 01aa 2246     		mov	r2, r4
 555 01ac 6946     		mov	r1, sp
 556 01ae 3046     		mov	r0, r6
 130:../../source/src/user/OS_CORE/schedule/os_delay.c **** 		heap_get_index_data(&delay_heap,&TCB_ptr2,i/2);
 557              		.loc 1 130 0
 558 01b0 6508     		lsrs	r5, r4, #1
 129:../../source/src/user/OS_CORE/schedule/os_delay.c **** 		heap_get_index_data(&delay_heap,&TCB_ptr2,i/2);
 559              		.loc 1 129 0
 560 01b2 FFF7FEFF 		bl	heap_get_index_data
 561              	.LVL44:
 130:../../source/src/user/OS_CORE/schedule/os_delay.c **** 		heap_get_index_data(&delay_heap,&TCB_ptr2,i/2);
 562              		.loc 1 130 0
 563 01b6 2A46     		mov	r2, r5
 564 01b8 01A9     		add	r1, sp, #4
 565 01ba 3046     		mov	r0, r6
 566 01bc FFF7FEFF 		bl	heap_get_index_data
 567              	.LVL45:
 131:../../source/src/user/OS_CORE/schedule/os_delay.c **** 		{
 568              		.loc 1 131 0
 569 01c0 DDE90031 		ldrd	r3, r1, [sp]
 570 01c4 D3E91023 		ldrd	r2, [r3, #64]
 571 01c8 D1E91001 		ldrd	r0, [r1, #64]
 572 01cc 121A     		subs	r2, r2, r0
 573 01ce 63EB0103 		sbc	r3, r3, r1
 574 01d2 9C46     		mov	ip, r3
 575 01d4 002A     		cmp	r2, #0
 576 01d6 7CF10003 		sbcs	r3, ip, #0
 577 01da E4DA     		bge	.L41
 578              		.loc 1 133 0
ARM GAS  G:\Users\Jaxb\AppData\Local\Temp\ccWcCVoL.s 			page 14


 579 01dc 2146     		mov	r1, r4
 580 01de 2A46     		mov	r2, r5
 581 01e0 3846     		mov	r0, r7
 582 01e2 FFF7FEFF 		bl	ka_printf
 583              	.LVL46:
 127:../../source/src/user/OS_CORE/schedule/os_delay.c **** 	{
 584              		.loc 1 127 0
 585 01e6 013C     		subs	r4, r4, #1
 586              	.LVL47:
 587 01e8 DFD1     		bne	.L42
 588              	.L40:
 134:../../source/src/user/OS_CORE/schedule/os_delay.c **** 		}
 135:../../source/src/user/OS_CORE/schedule/os_delay.c **** 	}
 136:../../source/src/user/OS_CORE/schedule/os_delay.c **** 	ka_printf("delay_heap check complete\n");
 589              		.loc 1 136 0
 590 01ea 0648     		ldr	r0, .L47+12
 591 01ec FFF7FEFF 		bl	ka_printf
 592              	.LVL48:
 137:../../source/src/user/OS_CORE/schedule/os_delay.c **** }
 593              		.loc 1 137 0
 594 01f0 02B0     		add	sp, sp, #8
 595              	.LCFI32:
 596              		.cfi_def_cfa_offset 24
 597              		@ sp needed
 598 01f2 BDE8F088 		pop	{r4, r5, r6, r7, fp, pc}
 599              	.LVL49:
 600              	.L48:
 601 01f6 00BF     		.align	2
 602              	.L47:
 603 01f8 00000000 		.word	.LANCHOR0
 604 01fc E0000000 		.word	.LC4
 605 0200 00010000 		.word	.LC5
 606 0204 38010000 		.word	.LC6
 607              		.cfi_endproc
 608              	.LFE19:
 609              		.size	shell_delay_heap_check, .-shell_delay_heap_check
 610              		.bss
 611              		.align	2
 612              		.set	.LANCHOR0,. + 0
 613              		.type	delay_heap, %object
 614              		.size	delay_heap, 28
 615              	delay_heap:
 616 0000 00000000 		.space	28
 616      00000000 
 616      00000000 
 616      00000000 
 616      00000000 
 617              		.section	.rodata.str1.4,"aMS",%progbits,1
 618              		.align	2
 619              	.LC0:
 620 0000 696E6974 		.ascii	"init_delay_heap error!\012stop booting.....\012\000"
 620      5F64656C 
 620      61795F68 
 620      65617020 
 620      6572726F 
 621 002a 0000     		.space	2
 622              	.LC1:
ARM GAS  G:\Users\Jaxb\AppData\Local\Temp\ccWcCVoL.s 			page 15


 623 002c 2E2E2F2E 		.ascii	"../../source/src/user/OS_CORE/schedule/os_delay.c\000"
 623      2E2F736F 
 623      75726365 
 623      2F737263 
 623      2F757365 
 624 005e 0000     		.space	2
 625              	.LC2:
 626 0060 6572726F 		.ascii	"error fun name : insert_into_delay_heap\012error pa"
 626      72206675 
 626      6E206E61 
 626      6D65203A 
 626      20696E73 
 627 0090 7261203A 		.ascii	"ra : TCB_ptr\012\000"
 627      20544342 
 627      5F707472 
 627      0A00
 628 009e 0000     		.space	2
 629              	.LC3:
 630 00a0 6572726F 		.ascii	"error fun name : remove_from_delay_heap\012error pa"
 630      72206675 
 630      6E206E61 
 630      6D65203A 
 630      2072656D 
 631 00d0 7261203A 		.ascii	"ra : TCB_ptr\012\000"
 631      20544342 
 631      5F707472 
 631      0A00
 632 00de 0000     		.space	2
 633              	.LC4:
 634 00e0 6E6F7720 		.ascii	"now start checking delay_heap\012\000"
 634      73746172 
 634      74206368 
 634      65636B69 
 634      6E672064 
 635 00ff 00       		.space	1
 636              	.LC5:
 637 0100 68656170 		.ascii	"heap member %u has incorrect position with member %"
 637      206D656D 
 637      62657220 
 637      25752068 
 637      61732069 
 638 0133 750A00   		.ascii	"u\012\000"
 639 0136 0000     		.space	2
 640              	.LC6:
 641 0138 64656C61 		.ascii	"delay_heap check complete\012\000"
 641      795F6865 
 641      61702063 
 641      6865636B 
 641      20636F6D 
 642              		.text
 643              	.Letext0:
 644              		.file 2 "../../source/include/os_lib/vector.h"
 645              		.file 3 "../../source/include/os_lib/heap_oo.h"
 646              		.file 4 "../../source/include/os_cpu/kakaosstdint.h"
 647              		.file 5 "../../source/include/os_lib/double_linked_list.h"
 648              		.file 6 "../../source/include/os_core/task_state.h"
 649              		.file 7 "../../source/include/os_core/TCB.h"
ARM GAS  G:\Users\Jaxb\AppData\Local\Temp\ccWcCVoL.s 			page 16


 650              		.file 8 "../../source/include/os_lib/myMicroLIB.h"
 651              		.file 9 "../../source/include/os_core/schedule/os_ready.h"
 652              		.file 10 "../../source/include/os_lib/myassert.h"
 653              		.section	.debug_info,"",%progbits
 654              	.Ldebug_info0:
 655 0000 10080000 		.4byte	0x810
 656 0004 0200     		.2byte	0x2
 657 0006 00000000 		.4byte	.Ldebug_abbrev0
 658 000a 04       		.byte	0x4
 659 000b 01       		.uleb128 0x1
 660 000c 2D040000 		.4byte	.LASF78
 661 0010 0C       		.byte	0xc
 662 0011 C5010000 		.4byte	.LASF79
 663 0015 5D050000 		.4byte	.LASF80
 664 0019 00000000 		.4byte	.Ltext0
 665 001d 08020000 		.4byte	.Letext0
 666 0021 00000000 		.4byte	.Ldebug_line0
 667 0025 02       		.uleb128 0x2
 668 0026 AF030000 		.4byte	.LASF5
 669 002a 14       		.byte	0x14
 670 002b 02       		.byte	0x2
 671 002c 08       		.byte	0x8
 672 002d 78000000 		.4byte	0x78
 673 0031 03       		.uleb128 0x3
 674 0032 A9020000 		.4byte	.LASF0
 675 0036 02       		.byte	0x2
 676 0037 0A       		.byte	0xa
 677 0038 78000000 		.4byte	0x78
 678 003c 02       		.byte	0x2
 679 003d 23       		.byte	0x23
 680 003e 00       		.uleb128 0
 681 003f 03       		.uleb128 0x3
 682 0040 82020000 		.4byte	.LASF1
 683 0044 02       		.byte	0x2
 684 0045 0B       		.byte	0xb
 685 0046 7A000000 		.4byte	0x7a
 686 004a 02       		.byte	0x2
 687 004b 23       		.byte	0x23
 688 004c 04       		.uleb128 0x4
 689 004d 03       		.uleb128 0x3
 690 004e 4C020000 		.4byte	.LASF2
 691 0052 02       		.byte	0x2
 692 0053 0C       		.byte	0xc
 693 0054 7A000000 		.4byte	0x7a
 694 0058 02       		.byte	0x2
 695 0059 23       		.byte	0x23
 696 005a 08       		.uleb128 0x8
 697 005b 03       		.uleb128 0x3
 698 005c F3000000 		.4byte	.LASF3
 699 0060 02       		.byte	0x2
 700 0061 0D       		.byte	0xd
 701 0062 7A000000 		.4byte	0x7a
 702 0066 02       		.byte	0x2
 703 0067 23       		.byte	0x23
 704 0068 0C       		.uleb128 0xc
 705 0069 03       		.uleb128 0x3
 706 006a CE030000 		.4byte	.LASF4
ARM GAS  G:\Users\Jaxb\AppData\Local\Temp\ccWcCVoL.s 			page 17


 707 006e 02       		.byte	0x2
 708 006f 13       		.byte	0x13
 709 0070 7A000000 		.4byte	0x7a
 710 0074 02       		.byte	0x2
 711 0075 23       		.byte	0x23
 712 0076 10       		.uleb128 0x10
 713 0077 00       		.byte	0
 714 0078 04       		.uleb128 0x4
 715 0079 04       		.byte	0x4
 716 007a 05       		.uleb128 0x5
 717 007b 04       		.byte	0x4
 718 007c 07       		.byte	0x7
 719 007d FD000000 		.4byte	.LASF9
 720 0081 06       		.uleb128 0x6
 721 0082 37030000 		.4byte	.LASF12
 722 0086 02       		.byte	0x2
 723 0087 14       		.byte	0x14
 724 0088 25000000 		.4byte	0x25
 725 008c 02       		.uleb128 0x2
 726 008d 22010000 		.4byte	.LASF6
 727 0091 1C       		.byte	0x1c
 728 0092 03       		.byte	0x3
 729 0093 0A       		.byte	0xa
 730 0094 C3000000 		.4byte	0xc3
 731 0098 03       		.uleb128 0x3
 732 0099 77010000 		.4byte	.LASF7
 733 009d 03       		.byte	0x3
 734 009e 0D       		.byte	0xd
 735 009f 81000000 		.4byte	0x81
 736 00a3 02       		.byte	0x2
 737 00a4 23       		.byte	0x23
 738 00a5 00       		.uleb128 0
 739 00a6 07       		.uleb128 0x7
 740 00a7 636D7000 		.ascii	"cmp\000"
 741 00ab 03       		.byte	0x3
 742 00ac 10       		.byte	0x10
 743 00ad EF000000 		.4byte	0xef
 744 00b1 02       		.byte	0x2
 745 00b2 23       		.byte	0x23
 746 00b3 14       		.uleb128 0x14
 747 00b4 03       		.uleb128 0x3
 748 00b5 4A000000 		.4byte	.LASF8
 749 00b9 03       		.byte	0x3
 750 00ba 12       		.byte	0x12
 751 00bb 06010000 		.4byte	0x106
 752 00bf 02       		.byte	0x2
 753 00c0 23       		.byte	0x23
 754 00c1 18       		.uleb128 0x18
 755 00c2 00       		.byte	0
 756 00c3 08       		.uleb128 0x8
 757 00c4 01       		.byte	0x1
 758 00c5 DD000000 		.4byte	0xdd
 759 00c9 DD000000 		.4byte	0xdd
 760 00cd 09       		.uleb128 0x9
 761 00ce E9000000 		.4byte	0xe9
 762 00d2 09       		.uleb128 0x9
 763 00d3 7A000000 		.4byte	0x7a
ARM GAS  G:\Users\Jaxb\AppData\Local\Temp\ccWcCVoL.s 			page 18


 764 00d7 09       		.uleb128 0x9
 765 00d8 7A000000 		.4byte	0x7a
 766 00dc 00       		.byte	0
 767 00dd 0A       		.uleb128 0xa
 768 00de 04       		.byte	0x4
 769 00df 05       		.byte	0x5
 770 00e0 696E7400 		.ascii	"int\000"
 771 00e4 0B       		.uleb128 0xb
 772 00e5 DD000000 		.4byte	0xdd
 773 00e9 0C       		.uleb128 0xc
 774 00ea 04       		.byte	0x4
 775 00eb 81000000 		.4byte	0x81
 776 00ef 0C       		.uleb128 0xc
 777 00f0 04       		.byte	0x4
 778 00f1 C3000000 		.4byte	0xc3
 779 00f5 0D       		.uleb128 0xd
 780 00f6 01       		.byte	0x1
 781 00f7 06010000 		.4byte	0x106
 782 00fb 09       		.uleb128 0x9
 783 00fc E9000000 		.4byte	0xe9
 784 0100 09       		.uleb128 0x9
 785 0101 DD000000 		.4byte	0xdd
 786 0105 00       		.byte	0
 787 0106 0C       		.uleb128 0xc
 788 0107 04       		.byte	0x4
 789 0108 F5000000 		.4byte	0xf5
 790 010c 05       		.uleb128 0x5
 791 010d 01       		.byte	0x1
 792 010e 06       		.byte	0x6
 793 010f F4040000 		.4byte	.LASF10
 794 0113 05       		.uleb128 0x5
 795 0114 02       		.byte	0x2
 796 0115 05       		.byte	0x5
 797 0116 DF030000 		.4byte	.LASF11
 798 011a 06       		.uleb128 0x6
 799 011b 71010000 		.4byte	.LASF13
 800 011f 04       		.byte	0x4
 801 0120 08       		.byte	0x8
 802 0121 25010000 		.4byte	0x125
 803 0125 05       		.uleb128 0x5
 804 0126 08       		.byte	0x8
 805 0127 05       		.byte	0x5
 806 0128 96030000 		.4byte	.LASF14
 807 012c 05       		.uleb128 0x5
 808 012d 01       		.byte	0x1
 809 012e 08       		.byte	0x8
 810 012f 9A010000 		.4byte	.LASF15
 811 0133 05       		.uleb128 0x5
 812 0134 02       		.byte	0x2
 813 0135 07       		.byte	0x7
 814 0136 F7010000 		.4byte	.LASF16
 815 013a 06       		.uleb128 0x6
 816 013b C7030000 		.4byte	.LASF17
 817 013f 04       		.byte	0x4
 818 0140 0C       		.byte	0xc
 819 0141 7A000000 		.4byte	0x7a
 820 0145 06       		.uleb128 0x6
ARM GAS  G:\Users\Jaxb\AppData\Local\Temp\ccWcCVoL.s 			page 19


 821 0146 BE010000 		.4byte	.LASF18
 822 014a 04       		.byte	0x4
 823 014b 0D       		.byte	0xd
 824 014c 50010000 		.4byte	0x150
 825 0150 05       		.uleb128 0x5
 826 0151 08       		.byte	0x8
 827 0152 07       		.byte	0x7
 828 0153 CC020000 		.4byte	.LASF19
 829 0157 02       		.uleb128 0x2
 830 0158 8C030000 		.4byte	.LASF20
 831 015c 08       		.byte	0x8
 832 015d 05       		.byte	0x5
 833 015e 04       		.byte	0x4
 834 015f 80010000 		.4byte	0x180
 835 0163 03       		.uleb128 0x3
 836 0164 10000000 		.4byte	.LASF21
 837 0168 05       		.byte	0x5
 838 0169 05       		.byte	0x5
 839 016a 80010000 		.4byte	0x180
 840 016e 02       		.byte	0x2
 841 016f 23       		.byte	0x23
 842 0170 00       		.uleb128 0
 843 0171 03       		.uleb128 0x3
 844 0172 38050000 		.4byte	.LASF22
 845 0176 05       		.byte	0x5
 846 0177 05       		.byte	0x5
 847 0178 80010000 		.4byte	0x180
 848 017c 02       		.byte	0x2
 849 017d 23       		.byte	0x23
 850 017e 04       		.uleb128 0x4
 851 017f 00       		.byte	0
 852 0180 0C       		.uleb128 0xc
 853 0181 04       		.byte	0x4
 854 0182 57010000 		.4byte	0x157
 855 0186 0E       		.uleb128 0xe
 856 0187 22030000 		.4byte	.LASF81
 857 018b 07       		.byte	0x7
 858 018c 01       		.byte	0x1
 859 018d 2C010000 		.4byte	0x12c
 860 0191 06       		.byte	0x6
 861 0192 04       		.byte	0x4
 862 0193 D4010000 		.4byte	0x1d4
 863 0197 0F       		.uleb128 0xf
 864 0198 58010000 		.4byte	.LASF23
 865 019c 01       		.byte	0x1
 866 019d 0F       		.uleb128 0xf
 867 019e 2F000000 		.4byte	.LASF24
 868 01a2 02       		.byte	0x2
 869 01a3 0F       		.uleb128 0xf
 870 01a4 00050000 		.4byte	.LASF25
 871 01a8 03       		.byte	0x3
 872 01a9 0F       		.uleb128 0xf
 873 01aa 35020000 		.4byte	.LASF26
 874 01ae 04       		.byte	0x4
 875 01af 0F       		.uleb128 0xf
 876 01b0 D3040000 		.4byte	.LASF27
 877 01b4 05       		.byte	0x5
ARM GAS  G:\Users\Jaxb\AppData\Local\Temp\ccWcCVoL.s 			page 20


 878 01b5 0F       		.uleb128 0xf
 879 01b6 37010000 		.4byte	.LASF28
 880 01ba 06       		.byte	0x6
 881 01bb 0F       		.uleb128 0xf
 882 01bc 0A020000 		.4byte	.LASF29
 883 01c0 07       		.byte	0x7
 884 01c1 0F       		.uleb128 0xf
 885 01c2 3D050000 		.4byte	.LASF30
 886 01c6 08       		.byte	0x8
 887 01c7 0F       		.uleb128 0xf
 888 01c8 8E000000 		.4byte	.LASF31
 889 01cc 09       		.byte	0x9
 890 01cd 0F       		.uleb128 0xf
 891 01ce 3E030000 		.4byte	.LASF32
 892 01d2 0A       		.byte	0xa
 893 01d3 00       		.byte	0
 894 01d4 06       		.uleb128 0x6
 895 01d5 8A020000 		.4byte	.LASF33
 896 01d9 06       		.byte	0x6
 897 01da 0F       		.byte	0xf
 898 01db 86010000 		.4byte	0x186
 899 01df 06       		.uleb128 0x6
 900 01e0 70030000 		.4byte	.LASF34
 901 01e4 07       		.byte	0x7
 902 01e5 09       		.byte	0x9
 903 01e6 7A000000 		.4byte	0x7a
 904 01ea 06       		.uleb128 0x6
 905 01eb 3B000000 		.4byte	.LASF35
 906 01ef 07       		.byte	0x7
 907 01f0 0B       		.byte	0xb
 908 01f1 7A000000 		.4byte	0x7a
 909 01f5 10       		.uleb128 0x10
 910 01f6 15050000 		.4byte	.LASF82
 911 01fa 07       		.byte	0x7
 912 01fb 12       		.byte	0x12
 913 01fc E4000000 		.4byte	0xe4
 914 0200 01       		.byte	0x1
 915 0201 01       		.byte	0x1
 916 0202 02       		.uleb128 0x2
 917 0203 B2020000 		.4byte	.LASF36
 918 0207 48       		.byte	0x48
 919 0208 07       		.byte	0x7
 920 0209 2F       		.byte	0x2f
 921 020a D3020000 		.4byte	0x2d3
 922 020e 03       		.uleb128 0x3
 923 020f ED000000 		.4byte	.LASF37
 924 0213 07       		.byte	0x7
 925 0214 30       		.byte	0x30
 926 0215 D3020000 		.4byte	0x2d3
 927 0219 02       		.byte	0x2
 928 021a 23       		.byte	0x23
 929 021b 00       		.uleb128 0
 930 021c 03       		.uleb128 0x3
 931 021d A4030000 		.4byte	.LASF38
 932 0221 07       		.byte	0x7
 933 0222 31       		.byte	0x31
 934 0223 7A000000 		.4byte	0x7a
ARM GAS  G:\Users\Jaxb\AppData\Local\Temp\ccWcCVoL.s 			page 21


 935 0227 02       		.byte	0x2
 936 0228 23       		.byte	0x23
 937 0229 04       		.uleb128 0x4
 938 022a 03       		.uleb128 0x3
 939 022b 2B020000 		.4byte	.LASF39
 940 022f 07       		.byte	0x7
 941 0230 32       		.byte	0x32
 942 0231 D3020000 		.4byte	0x2d3
 943 0235 02       		.byte	0x2
 944 0236 23       		.byte	0x23
 945 0237 08       		.uleb128 0x8
 946 0238 03       		.uleb128 0x3
 947 0239 00000000 		.4byte	.LASF40
 948 023d 07       		.byte	0x7
 949 023e 33       		.byte	0x33
 950 023f EA010000 		.4byte	0x1ea
 951 0243 02       		.byte	0x2
 952 0244 23       		.byte	0x23
 953 0245 0C       		.uleb128 0xc
 954 0246 03       		.uleb128 0x3
 955 0247 64010000 		.4byte	.LASF41
 956 024b 07       		.byte	0x7
 957 024c 34       		.byte	0x34
 958 024d EA010000 		.4byte	0x1ea
 959 0251 02       		.byte	0x2
 960 0252 23       		.byte	0x23
 961 0253 10       		.uleb128 0x10
 962 0254 03       		.uleb128 0x3
 963 0255 05000000 		.4byte	.LASF42
 964 0259 07       		.byte	0x7
 965 025a 35       		.byte	0x35
 966 025b D4010000 		.4byte	0x1d4
 967 025f 02       		.byte	0x2
 968 0260 23       		.byte	0x23
 969 0261 14       		.uleb128 0x14
 970 0262 03       		.uleb128 0x3
 971 0263 AE000000 		.4byte	.LASF43
 972 0267 07       		.byte	0x7
 973 0268 36       		.byte	0x36
 974 0269 DD000000 		.4byte	0xdd
 975 026d 02       		.byte	0x2
 976 026e 23       		.byte	0x23
 977 026f 18       		.uleb128 0x18
 978 0270 03       		.uleb128 0x3
 979 0271 13030000 		.4byte	.LASF44
 980 0275 07       		.byte	0x7
 981 0276 37       		.byte	0x37
 982 0277 57010000 		.4byte	0x157
 983 027b 02       		.byte	0x2
 984 027c 23       		.byte	0x23
 985 027d 1C       		.uleb128 0x1c
 986 027e 03       		.uleb128 0x3
 987 027f 1B040000 		.4byte	.LASF45
 988 0283 07       		.byte	0x7
 989 0284 38       		.byte	0x38
 990 0285 57010000 		.4byte	0x157
 991 0289 02       		.byte	0x2
ARM GAS  G:\Users\Jaxb\AppData\Local\Temp\ccWcCVoL.s 			page 22


 992 028a 23       		.byte	0x23
 993 028b 24       		.uleb128 0x24
 994 028c 03       		.uleb128 0x3
 995 028d B6030000 		.4byte	.LASF46
 996 0291 07       		.byte	0x7
 997 0292 39       		.byte	0x39
 998 0293 D9020000 		.4byte	0x2d9
 999 0297 02       		.byte	0x2
 1000 0298 23       		.byte	0x23
 1001 0299 2C       		.uleb128 0x2c
 1002 029a 03       		.uleb128 0x3
 1003 029b D9000000 		.4byte	.LASF47
 1004 029f 07       		.byte	0x7
 1005 02a0 3A       		.byte	0x3a
 1006 02a1 7A000000 		.4byte	0x7a
 1007 02a5 02       		.byte	0x2
 1008 02a6 23       		.byte	0x23
 1009 02a7 30       		.uleb128 0x30
 1010 02a8 03       		.uleb128 0x3
 1011 02a9 54020000 		.4byte	.LASF48
 1012 02ad 07       		.byte	0x7
 1013 02ae 3B       		.byte	0x3b
 1014 02af 7A000000 		.4byte	0x7a
 1015 02b3 02       		.byte	0x2
 1016 02b4 23       		.byte	0x23
 1017 02b5 34       		.uleb128 0x34
 1018 02b6 03       		.uleb128 0x3
 1019 02b7 BB030000 		.4byte	.LASF49
 1020 02bb 07       		.byte	0x7
 1021 02bc 3C       		.byte	0x3c
 1022 02bd 3A010000 		.4byte	0x13a
 1023 02c1 02       		.byte	0x2
 1024 02c2 23       		.byte	0x23
 1025 02c3 38       		.uleb128 0x38
 1026 02c4 03       		.uleb128 0x3
 1027 02c5 27050000 		.4byte	.LASF50
 1028 02c9 07       		.byte	0x7
 1029 02ca 3D       		.byte	0x3d
 1030 02cb 45010000 		.4byte	0x145
 1031 02cf 02       		.byte	0x2
 1032 02d0 23       		.byte	0x23
 1033 02d1 40       		.uleb128 0x40
 1034 02d2 00       		.byte	0
 1035 02d3 0C       		.uleb128 0xc
 1036 02d4 04       		.byte	0x4
 1037 02d5 DF010000 		.4byte	0x1df
 1038 02d9 0C       		.uleb128 0xc
 1039 02da 04       		.byte	0x4
 1040 02db DF020000 		.4byte	0x2df
 1041 02df 05       		.uleb128 0x5
 1042 02e0 01       		.byte	0x1
 1043 02e1 08       		.byte	0x8
 1044 02e2 28040000 		.4byte	.LASF51
 1045 02e6 11       		.uleb128 0x11
 1046 02e7 54434200 		.ascii	"TCB\000"
 1047 02eb 07       		.byte	0x7
 1048 02ec 3E       		.byte	0x3e
ARM GAS  G:\Users\Jaxb\AppData\Local\Temp\ccWcCVoL.s 			page 23


 1049 02ed 02020000 		.4byte	0x202
 1050 02f1 12       		.uleb128 0x12
 1051 02f2 E6020000 		.4byte	0x2e6
 1052 02f6 13       		.uleb128 0x13
 1053 02f7 68020000 		.4byte	.LASF52
 1054 02fb 01       		.byte	0x1
 1055 02fc 0C       		.byte	0xc
 1056 02fd 8C000000 		.4byte	0x8c
 1057 0301 05       		.byte	0x5
 1058 0302 03       		.byte	0x3
 1059 0303 00000000 		.4byte	delay_heap
 1060 0307 14       		.uleb128 0x14
 1061 0308 01       		.byte	0x1
 1062 0309 04040000 		.4byte	.LASF61
 1063 030d 01       		.byte	0x1
 1064 030e 78       		.byte	0x78
 1065 030f 01       		.byte	0x1
 1066 0310 88010000 		.4byte	.LFB19
 1067 0314 08020000 		.4byte	.LFE19
 1068 0318 00000000 		.4byte	.LLST17
 1069 031c 01       		.byte	0x1
 1070 031d FB030000 		.4byte	0x3fb
 1071 0321 13       		.uleb128 0x13
 1072 0322 19010000 		.4byte	.LASF53
 1073 0326 01       		.byte	0x1
 1074 0327 7A       		.byte	0x7a
 1075 0328 FB030000 		.4byte	0x3fb
 1076 032c 02       		.byte	0x2
 1077 032d 91       		.byte	0x91
 1078 032e 60       		.sleb128 -32
 1079 032f 13       		.uleb128 0x13
 1080 0330 2E010000 		.4byte	.LASF54
 1081 0334 01       		.byte	0x1
 1082 0335 7A       		.byte	0x7a
 1083 0336 FB030000 		.4byte	0x3fb
 1084 033a 02       		.byte	0x2
 1085 033b 91       		.byte	0x91
 1086 033c 64       		.sleb128 -28
 1087 033d 15       		.uleb128 0x15
 1088 033e 6C656E00 		.ascii	"len\000"
 1089 0342 01       		.byte	0x1
 1090 0343 7B       		.byte	0x7b
 1091 0344 7A000000 		.4byte	0x7a
 1092 0348 38000000 		.4byte	.LLST18
 1093 034c 15       		.uleb128 0x15
 1094 034d 6900     		.ascii	"i\000"
 1095 034f 01       		.byte	0x1
 1096 0350 7C       		.byte	0x7c
 1097 0351 7A000000 		.4byte	0x7a
 1098 0355 63000000 		.4byte	.LLST19
 1099 0359 16       		.uleb128 0x16
 1100 035a 94010000 		.4byte	.LVL37
 1101 035e 84070000 		.4byte	0x784
 1102 0362 70030000 		.4byte	0x370
 1103 0366 17       		.uleb128 0x17
 1104 0367 01       		.byte	0x1
 1105 0368 50       		.byte	0x50
ARM GAS  G:\Users\Jaxb\AppData\Local\Temp\ccWcCVoL.s 			page 24


 1106 0369 05       		.byte	0x5
 1107 036a 03       		.byte	0x3
 1108 036b 00000000 		.4byte	.LANCHOR0
 1109 036f 00       		.byte	0
 1110 0370 16       		.uleb128 0x16
 1111 0371 9C010000 		.4byte	.LVL40
 1112 0375 91070000 		.4byte	0x791
 1113 0379 87030000 		.4byte	0x387
 1114 037d 17       		.uleb128 0x17
 1115 037e 01       		.byte	0x1
 1116 037f 50       		.byte	0x50
 1117 0380 05       		.byte	0x5
 1118 0381 03       		.byte	0x3
 1119 0382 E0000000 		.4byte	.LC4
 1120 0386 00       		.byte	0
 1121 0387 16       		.uleb128 0x16
 1122 0388 B6010000 		.4byte	.LVL44
 1123 038c 9E070000 		.4byte	0x79e
 1124 0390 A7030000 		.4byte	0x3a7
 1125 0394 17       		.uleb128 0x17
 1126 0395 01       		.byte	0x1
 1127 0396 50       		.byte	0x50
 1128 0397 02       		.byte	0x2
 1129 0398 76       		.byte	0x76
 1130 0399 00       		.sleb128 0
 1131 039a 17       		.uleb128 0x17
 1132 039b 01       		.byte	0x1
 1133 039c 51       		.byte	0x51
 1134 039d 02       		.byte	0x2
 1135 039e 7D       		.byte	0x7d
 1136 039f 00       		.sleb128 0
 1137 03a0 17       		.uleb128 0x17
 1138 03a1 01       		.byte	0x1
 1139 03a2 52       		.byte	0x52
 1140 03a3 02       		.byte	0x2
 1141 03a4 74       		.byte	0x74
 1142 03a5 00       		.sleb128 0
 1143 03a6 00       		.byte	0
 1144 03a7 16       		.uleb128 0x16
 1145 03a8 C0010000 		.4byte	.LVL45
 1146 03ac 9E070000 		.4byte	0x79e
 1147 03b0 C7030000 		.4byte	0x3c7
 1148 03b4 17       		.uleb128 0x17
 1149 03b5 01       		.byte	0x1
 1150 03b6 50       		.byte	0x50
 1151 03b7 02       		.byte	0x2
 1152 03b8 76       		.byte	0x76
 1153 03b9 00       		.sleb128 0
 1154 03ba 17       		.uleb128 0x17
 1155 03bb 01       		.byte	0x1
 1156 03bc 51       		.byte	0x51
 1157 03bd 02       		.byte	0x2
 1158 03be 91       		.byte	0x91
 1159 03bf 64       		.sleb128 -28
 1160 03c0 17       		.uleb128 0x17
 1161 03c1 01       		.byte	0x1
 1162 03c2 52       		.byte	0x52
ARM GAS  G:\Users\Jaxb\AppData\Local\Temp\ccWcCVoL.s 			page 25


 1163 03c3 02       		.byte	0x2
 1164 03c4 75       		.byte	0x75
 1165 03c5 00       		.sleb128 0
 1166 03c6 00       		.byte	0
 1167 03c7 16       		.uleb128 0x16
 1168 03c8 E6010000 		.4byte	.LVL46
 1169 03cc 91070000 		.4byte	0x791
 1170 03d0 E7030000 		.4byte	0x3e7
 1171 03d4 17       		.uleb128 0x17
 1172 03d5 01       		.byte	0x1
 1173 03d6 50       		.byte	0x50
 1174 03d7 02       		.byte	0x2
 1175 03d8 77       		.byte	0x77
 1176 03d9 00       		.sleb128 0
 1177 03da 17       		.uleb128 0x17
 1178 03db 01       		.byte	0x1
 1179 03dc 51       		.byte	0x51
 1180 03dd 02       		.byte	0x2
 1181 03de 74       		.byte	0x74
 1182 03df 00       		.sleb128 0
 1183 03e0 17       		.uleb128 0x17
 1184 03e1 01       		.byte	0x1
 1185 03e2 52       		.byte	0x52
 1186 03e3 02       		.byte	0x2
 1187 03e4 75       		.byte	0x75
 1188 03e5 00       		.sleb128 0
 1189 03e6 00       		.byte	0
 1190 03e7 18       		.uleb128 0x18
 1191 03e8 F0010000 		.4byte	.LVL48
 1192 03ec 91070000 		.4byte	0x791
 1193 03f0 17       		.uleb128 0x17
 1194 03f1 01       		.byte	0x1
 1195 03f2 50       		.byte	0x50
 1196 03f3 05       		.byte	0x5
 1197 03f4 03       		.byte	0x3
 1198 03f5 38010000 		.4byte	.LC6
 1199 03f9 00       		.byte	0
 1200 03fa 00       		.byte	0
 1201 03fb 0C       		.uleb128 0xc
 1202 03fc 04       		.byte	0x4
 1203 03fd E6020000 		.4byte	0x2e6
 1204 0401 19       		.uleb128 0x19
 1205 0402 01       		.byte	0x1
 1206 0403 15000000 		.4byte	.LASF56
 1207 0407 01       		.byte	0x1
 1208 0408 6D       		.byte	0x6d
 1209 0409 01       		.byte	0x1
 1210 040a FB030000 		.4byte	0x3fb
 1211 040e 68010000 		.4byte	.LFB18
 1212 0412 88010000 		.4byte	.LFE18
 1213 0416 B3000000 		.4byte	.LLST16
 1214 041a 01       		.byte	0x1
 1215 041b 4C040000 		.4byte	0x44c
 1216 041f 13       		.uleb128 0x13
 1217 0420 92010000 		.4byte	.LASF55
 1218 0424 01       		.byte	0x1
 1219 0425 6F       		.byte	0x6f
ARM GAS  G:\Users\Jaxb\AppData\Local\Temp\ccWcCVoL.s 			page 26


 1220 0426 FB030000 		.4byte	0x3fb
 1221 042a 02       		.byte	0x2
 1222 042b 91       		.byte	0x91
 1223 042c 74       		.sleb128 -12
 1224 042d 18       		.uleb128 0x18
 1225 042e 76010000 		.4byte	.LVL36
 1226 0432 AB070000 		.4byte	0x7ab
 1227 0436 17       		.uleb128 0x17
 1228 0437 01       		.byte	0x1
 1229 0438 50       		.byte	0x50
 1230 0439 05       		.byte	0x5
 1231 043a 03       		.byte	0x3
 1232 043b 00000000 		.4byte	.LANCHOR0
 1233 043f 17       		.uleb128 0x17
 1234 0440 01       		.byte	0x1
 1235 0441 51       		.byte	0x51
 1236 0442 01       		.byte	0x1
 1237 0443 31       		.byte	0x31
 1238 0444 17       		.uleb128 0x17
 1239 0445 01       		.byte	0x1
 1240 0446 52       		.byte	0x52
 1241 0447 02       		.byte	0x2
 1242 0448 91       		.byte	0x91
 1243 0449 74       		.sleb128 -12
 1244 044a 00       		.byte	0
 1245 044b 00       		.byte	0
 1246 044c 19       		.uleb128 0x19
 1247 044d 01       		.byte	0x1
 1248 044e A8050000 		.4byte	.LASF57
 1249 0452 01       		.byte	0x1
 1250 0453 62       		.byte	0x62
 1251 0454 01       		.byte	0x1
 1252 0455 FB030000 		.4byte	0x3fb
 1253 0459 48010000 		.4byte	.LFB17
 1254 045d 68010000 		.4byte	.LFE17
 1255 0461 F7000000 		.4byte	.LLST15
 1256 0465 01       		.byte	0x1
 1257 0466 97040000 		.4byte	0x497
 1258 046a 13       		.uleb128 0x13
 1259 046b 92010000 		.4byte	.LASF55
 1260 046f 01       		.byte	0x1
 1261 0470 65       		.byte	0x65
 1262 0471 FB030000 		.4byte	0x3fb
 1263 0475 02       		.byte	0x2
 1264 0476 91       		.byte	0x91
 1265 0477 74       		.sleb128 -12
 1266 0478 18       		.uleb128 0x18
 1267 0479 56010000 		.4byte	.LVL35
 1268 047d B8070000 		.4byte	0x7b8
 1269 0481 17       		.uleb128 0x17
 1270 0482 01       		.byte	0x1
 1271 0483 50       		.byte	0x50
 1272 0484 05       		.byte	0x5
 1273 0485 03       		.byte	0x3
 1274 0486 00000000 		.4byte	.LANCHOR0
 1275 048a 17       		.uleb128 0x17
 1276 048b 01       		.byte	0x1
ARM GAS  G:\Users\Jaxb\AppData\Local\Temp\ccWcCVoL.s 			page 27


 1277 048c 51       		.byte	0x51
 1278 048d 02       		.byte	0x2
 1279 048e 91       		.byte	0x91
 1280 048f 74       		.sleb128 -12
 1281 0490 17       		.uleb128 0x17
 1282 0491 01       		.byte	0x1
 1283 0492 52       		.byte	0x52
 1284 0493 01       		.byte	0x1
 1285 0494 31       		.byte	0x31
 1286 0495 00       		.byte	0
 1287 0496 00       		.byte	0
 1288 0497 19       		.uleb128 0x19
 1289 0498 01       		.byte	0x1
 1290 0499 65000000 		.4byte	.LASF58
 1291 049d 01       		.byte	0x1
 1292 049e 43       		.byte	0x43
 1293 049f 01       		.byte	0x1
 1294 04a0 DD000000 		.4byte	0xdd
 1295 04a4 D0000000 		.4byte	.LFB16
 1296 04a8 48010000 		.4byte	.LFE16
 1297 04ac 3B010000 		.4byte	.LLST10
 1298 04b0 01       		.byte	0x1
 1299 04b1 98050000 		.4byte	0x598
 1300 04b5 1A       		.uleb128 0x1a
 1301 04b6 92010000 		.4byte	.LASF55
 1302 04ba 01       		.byte	0x1
 1303 04bb 43       		.byte	0x43
 1304 04bc FB030000 		.4byte	0x3fb
 1305 04c0 A3010000 		.4byte	.LLST11
 1306 04c4 13       		.uleb128 0x13
 1307 04c5 0A010000 		.4byte	.LASF59
 1308 04c9 01       		.byte	0x1
 1309 04ca 4D       		.byte	0x4d
 1310 04cb FB030000 		.4byte	0x3fb
 1311 04cf 02       		.byte	0x2
 1312 04d0 91       		.byte	0x91
 1313 04d1 64       		.sleb128 -28
 1314 04d2 15       		.uleb128 0x15
 1315 04d3 6900     		.ascii	"i\000"
 1316 04d5 01       		.byte	0x1
 1317 04d6 4E       		.byte	0x4e
 1318 04d7 DD000000 		.4byte	0xdd
 1319 04db E5010000 		.4byte	.LLST12
 1320 04df 15       		.uleb128 0x15
 1321 04e0 72657400 		.ascii	"ret\000"
 1322 04e4 01       		.byte	0x1
 1323 04e5 4F       		.byte	0x4f
 1324 04e6 DD000000 		.4byte	0xdd
 1325 04ea 04020000 		.4byte	.LLST13
 1326 04ee 15       		.uleb128 0x15
 1327 04ef 6C656E00 		.ascii	"len\000"
 1328 04f3 01       		.byte	0x1
 1329 04f4 50       		.byte	0x50
 1330 04f5 DD000000 		.4byte	0xdd
 1331 04f9 22020000 		.4byte	.LLST14
 1332 04fd 16       		.uleb128 0x16
 1333 04fe DE000000 		.4byte	.LVL19
ARM GAS  G:\Users\Jaxb\AppData\Local\Temp\ccWcCVoL.s 			page 28


 1334 0502 84070000 		.4byte	0x784
 1335 0506 14050000 		.4byte	0x514
 1336 050a 17       		.uleb128 0x17
 1337 050b 01       		.byte	0x1
 1338 050c 50       		.byte	0x50
 1339 050d 05       		.byte	0x5
 1340 050e 03       		.byte	0x3
 1341 050f 00000000 		.4byte	.LANCHOR0
 1342 0513 00       		.byte	0
 1343 0514 16       		.uleb128 0x16
 1344 0515 FA000000 		.4byte	.LVL24
 1345 0519 9E070000 		.4byte	0x79e
 1346 051d 34050000 		.4byte	0x534
 1347 0521 17       		.uleb128 0x17
 1348 0522 01       		.byte	0x1
 1349 0523 50       		.byte	0x50
 1350 0524 02       		.byte	0x2
 1351 0525 77       		.byte	0x77
 1352 0526 00       		.sleb128 0
 1353 0527 17       		.uleb128 0x17
 1354 0528 01       		.byte	0x1
 1355 0529 51       		.byte	0x51
 1356 052a 02       		.byte	0x2
 1357 052b 91       		.byte	0x91
 1358 052c 64       		.sleb128 -28
 1359 052d 17       		.uleb128 0x17
 1360 052e 01       		.byte	0x1
 1361 052f 52       		.byte	0x52
 1362 0530 02       		.byte	0x2
 1363 0531 74       		.byte	0x74
 1364 0532 00       		.sleb128 0
 1365 0533 00       		.byte	0
 1366 0534 16       		.uleb128 0x16
 1367 0535 0A010000 		.4byte	.LVL25
 1368 0539 AB070000 		.4byte	0x7ab
 1369 053d 53050000 		.4byte	0x553
 1370 0541 17       		.uleb128 0x17
 1371 0542 01       		.byte	0x1
 1372 0543 50       		.byte	0x50
 1373 0544 02       		.byte	0x2
 1374 0545 77       		.byte	0x77
 1375 0546 00       		.sleb128 0
 1376 0547 17       		.uleb128 0x17
 1377 0548 01       		.byte	0x1
 1378 0549 51       		.byte	0x51
 1379 054a 02       		.byte	0x2
 1380 054b 74       		.byte	0x74
 1381 054c 00       		.sleb128 0
 1382 054d 17       		.uleb128 0x17
 1383 054e 01       		.byte	0x1
 1384 054f 52       		.byte	0x52
 1385 0550 01       		.byte	0x1
 1386 0551 30       		.byte	0x30
 1387 0552 00       		.byte	0
 1388 0553 16       		.uleb128 0x16
 1389 0554 14010000 		.4byte	.LVL28
 1390 0558 C5070000 		.4byte	0x7c5
ARM GAS  G:\Users\Jaxb\AppData\Local\Temp\ccWcCVoL.s 			page 29


 1391 055c 67050000 		.4byte	0x567
 1392 0560 17       		.uleb128 0x17
 1393 0561 01       		.byte	0x1
 1394 0562 50       		.byte	0x50
 1395 0563 02       		.byte	0x2
 1396 0564 75       		.byte	0x75
 1397 0565 00       		.sleb128 0
 1398 0566 00       		.byte	0
 1399 0567 16       		.uleb128 0x16
 1400 0568 30010000 		.4byte	.LVL32
 1401 056c D2070000 		.4byte	0x7d2
 1402 0570 84050000 		.4byte	0x584
 1403 0574 17       		.uleb128 0x17
 1404 0575 01       		.byte	0x1
 1405 0576 50       		.byte	0x50
 1406 0577 05       		.byte	0x5
 1407 0578 03       		.byte	0x3
 1408 0579 2C000000 		.4byte	.LC1
 1409 057d 17       		.uleb128 0x17
 1410 057e 01       		.byte	0x1
 1411 057f 51       		.byte	0x51
 1412 0580 02       		.byte	0x2
 1413 0581 08       		.byte	0x8
 1414 0582 45       		.byte	0x45
 1415 0583 00       		.byte	0
 1416 0584 18       		.uleb128 0x18
 1417 0585 36010000 		.4byte	.LVL33
 1418 0589 91070000 		.4byte	0x791
 1419 058d 17       		.uleb128 0x17
 1420 058e 01       		.byte	0x1
 1421 058f 50       		.byte	0x50
 1422 0590 05       		.byte	0x5
 1423 0591 03       		.byte	0x3
 1424 0592 A0000000 		.4byte	.LC3
 1425 0596 00       		.byte	0
 1426 0597 00       		.byte	0
 1427 0598 19       		.uleb128 0x19
 1428 0599 01       		.byte	0x1
 1429 059a C2000000 		.4byte	.LASF60
 1430 059e 01       		.byte	0x1
 1431 059f 36       		.byte	0x36
 1432 05a0 01       		.byte	0x1
 1433 05a1 DD000000 		.4byte	0xdd
 1434 05a5 94000000 		.4byte	.LFB15
 1435 05a9 D0000000 		.4byte	.LFE15
 1436 05ad 40020000 		.4byte	.LLST8
 1437 05b1 01       		.byte	0x1
 1438 05b2 13060000 		.4byte	0x613
 1439 05b6 1A       		.uleb128 0x1a
 1440 05b7 92010000 		.4byte	.LASF55
 1441 05bb 01       		.byte	0x1
 1442 05bc 36       		.byte	0x36
 1443 05bd FB030000 		.4byte	0x3fb
 1444 05c1 84020000 		.4byte	.LLST9
 1445 05c5 16       		.uleb128 0x16
 1446 05c6 A4000000 		.4byte	.LVL12
 1447 05ca DF070000 		.4byte	0x7df
ARM GAS  G:\Users\Jaxb\AppData\Local\Temp\ccWcCVoL.s 			page 30


 1448 05ce E2050000 		.4byte	0x5e2
 1449 05d2 17       		.uleb128 0x17
 1450 05d3 01       		.byte	0x1
 1451 05d4 50       		.byte	0x50
 1452 05d5 05       		.byte	0x5
 1453 05d6 03       		.byte	0x3
 1454 05d7 00000000 		.4byte	.LANCHOR0
 1455 05db 17       		.uleb128 0x17
 1456 05dc 01       		.byte	0x1
 1457 05dd 51       		.byte	0x51
 1458 05de 02       		.byte	0x2
 1459 05df 91       		.byte	0x91
 1460 05e0 74       		.sleb128 -12
 1461 05e1 00       		.byte	0
 1462 05e2 16       		.uleb128 0x16
 1463 05e3 B2000000 		.4byte	.LVL15
 1464 05e7 D2070000 		.4byte	0x7d2
 1465 05eb FF050000 		.4byte	0x5ff
 1466 05ef 17       		.uleb128 0x17
 1467 05f0 01       		.byte	0x1
 1468 05f1 50       		.byte	0x50
 1469 05f2 05       		.byte	0x5
 1470 05f3 03       		.byte	0x3
 1471 05f4 2C000000 		.4byte	.LC1
 1472 05f8 17       		.uleb128 0x17
 1473 05f9 01       		.byte	0x1
 1474 05fa 51       		.byte	0x51
 1475 05fb 02       		.byte	0x2
 1476 05fc 08       		.byte	0x8
 1477 05fd 38       		.byte	0x38
 1478 05fe 00       		.byte	0
 1479 05ff 18       		.uleb128 0x18
 1480 0600 BE000000 		.4byte	.LVL16
 1481 0604 91070000 		.4byte	0x791
 1482 0608 17       		.uleb128 0x17
 1483 0609 01       		.byte	0x1
 1484 060a 50       		.byte	0x50
 1485 060b 05       		.byte	0x5
 1486 060c 03       		.byte	0x3
 1487 060d 60000000 		.4byte	.LC2
 1488 0611 00       		.byte	0
 1489 0612 00       		.byte	0
 1490 0613 14       		.uleb128 0x14
 1491 0614 01       		.byte	0x1
 1492 0615 7C000000 		.4byte	.LASF62
 1493 0619 01       		.byte	0x1
 1494 061a 29       		.byte	0x29
 1495 061b 01       		.byte	0x1
 1496 061c 60000000 		.4byte	.LFB14
 1497 0620 94000000 		.4byte	.LFE14
 1498 0624 AE020000 		.4byte	.LLST7
 1499 0628 01       		.byte	0x1
 1500 0629 75060000 		.4byte	0x675
 1501 062d 16       		.uleb128 0x16
 1502 062e 74000000 		.4byte	.LVL8
 1503 0632 EC070000 		.4byte	0x7ec
 1504 0636 61060000 		.4byte	0x661
ARM GAS  G:\Users\Jaxb\AppData\Local\Temp\ccWcCVoL.s 			page 31


 1505 063a 17       		.uleb128 0x17
 1506 063b 01       		.byte	0x1
 1507 063c 50       		.byte	0x50
 1508 063d 05       		.byte	0x5
 1509 063e 03       		.byte	0x3
 1510 063f 00000000 		.4byte	.LANCHOR0
 1511 0643 17       		.uleb128 0x17
 1512 0644 01       		.byte	0x1
 1513 0645 51       		.byte	0x51
 1514 0646 01       		.byte	0x1
 1515 0647 40       		.byte	0x40
 1516 0648 17       		.uleb128 0x17
 1517 0649 01       		.byte	0x1
 1518 064a 52       		.byte	0x52
 1519 064b 01       		.byte	0x1
 1520 064c 34       		.byte	0x34
 1521 064d 17       		.uleb128 0x17
 1522 064e 01       		.byte	0x1
 1523 064f 53       		.byte	0x53
 1524 0650 05       		.byte	0x5
 1525 0651 03       		.byte	0x3
 1526 0652 00000000 		.4byte	_cmp
 1527 0656 17       		.uleb128 0x17
 1528 0657 02       		.byte	0x2
 1529 0658 7D       		.byte	0x7d
 1530 0659 00       		.sleb128 0
 1531 065a 05       		.byte	0x5
 1532 065b 03       		.byte	0x3
 1533 065c 00000000 		.4byte	index_change_record
 1534 0660 00       		.byte	0
 1535 0661 18       		.uleb128 0x18
 1536 0662 82000000 		.4byte	.LVL9
 1537 0666 91070000 		.4byte	0x791
 1538 066a 17       		.uleb128 0x17
 1539 066b 01       		.byte	0x1
 1540 066c 50       		.byte	0x50
 1541 066d 05       		.byte	0x5
 1542 066e 03       		.byte	0x3
 1543 066f 00000000 		.4byte	.LC0
 1544 0673 00       		.byte	0
 1545 0674 00       		.byte	0
 1546 0675 1B       		.uleb128 0x1b
 1547 0676 4A000000 		.4byte	.LASF8
 1548 067a 01       		.byte	0x1
 1549 067b 22       		.byte	0x22
 1550 067c 01       		.byte	0x1
 1551 067d 00000000 		.4byte	.LFB13
 1552 0681 14000000 		.4byte	.LFE13
 1553 0685 F2020000 		.4byte	.LLST0
 1554 0689 01       		.byte	0x1
 1555 068a D8060000 		.4byte	0x6d8
 1556 068e 1A       		.uleb128 0x1a
 1557 068f E9030000 		.4byte	.LASF63
 1558 0693 01       		.byte	0x1
 1559 0694 22       		.byte	0x22
 1560 0695 E9000000 		.4byte	0xe9
 1561 0699 2A030000 		.4byte	.LLST1
ARM GAS  G:\Users\Jaxb\AppData\Local\Temp\ccWcCVoL.s 			page 32


 1562 069d 1A       		.uleb128 0x1a
 1563 069e F4030000 		.4byte	.LASF64
 1564 06a2 01       		.byte	0x1
 1565 06a3 22       		.byte	0x22
 1566 06a4 DD000000 		.4byte	0xdd
 1567 06a8 4B030000 		.4byte	.LLST2
 1568 06ac 13       		.uleb128 0x13
 1569 06ad 92010000 		.4byte	.LASF55
 1570 06b1 01       		.byte	0x1
 1571 06b2 24       		.byte	0x24
 1572 06b3 FB030000 		.4byte	0x3fb
 1573 06b7 02       		.byte	0x2
 1574 06b8 91       		.byte	0x91
 1575 06b9 74       		.sleb128 -12
 1576 06ba 18       		.uleb128 0x18
 1577 06bb 0C000000 		.4byte	.LVL1
 1578 06bf F9070000 		.4byte	0x7f9
 1579 06c3 17       		.uleb128 0x17
 1580 06c4 01       		.byte	0x1
 1581 06c5 50       		.byte	0x50
 1582 06c6 03       		.byte	0x3
 1583 06c7 F3       		.byte	0xf3
 1584 06c8 01       		.uleb128 0x1
 1585 06c9 50       		.byte	0x50
 1586 06ca 17       		.uleb128 0x17
 1587 06cb 01       		.byte	0x1
 1588 06cc 51       		.byte	0x51
 1589 06cd 02       		.byte	0x2
 1590 06ce 74       		.byte	0x74
 1591 06cf 00       		.sleb128 0
 1592 06d0 17       		.uleb128 0x17
 1593 06d1 01       		.byte	0x1
 1594 06d2 52       		.byte	0x52
 1595 06d3 02       		.byte	0x2
 1596 06d4 91       		.byte	0x91
 1597 06d5 74       		.sleb128 -12
 1598 06d6 00       		.byte	0
 1599 06d7 00       		.byte	0
 1600 06d8 1C       		.uleb128 0x1c
 1601 06d9 A8010000 		.4byte	.LASF83
 1602 06dd 01       		.byte	0x1
 1603 06de 0F       		.byte	0xf
 1604 06df 01       		.byte	0x1
 1605 06e0 DD000000 		.4byte	0xdd
 1606 06e4 14000000 		.4byte	.LFB12
 1607 06e8 60000000 		.4byte	.LFE12
 1608 06ec 69030000 		.4byte	.LLST3
 1609 06f0 01       		.byte	0x1
 1610 06f1 78070000 		.4byte	0x778
 1611 06f5 1A       		.uleb128 0x1a
 1612 06f6 E9030000 		.4byte	.LASF63
 1613 06fa 01       		.byte	0x1
 1614 06fb 0F       		.byte	0xf
 1615 06fc E9000000 		.4byte	0xe9
 1616 0700 AD030000 		.4byte	.LLST4
 1617 0704 1A       		.uleb128 0x1a
 1618 0705 73020000 		.4byte	.LASF65
ARM GAS  G:\Users\Jaxb\AppData\Local\Temp\ccWcCVoL.s 			page 33


 1619 0709 01       		.byte	0x1
 1620 070a 0F       		.byte	0xf
 1621 070b 7A000000 		.4byte	0x7a
 1622 070f CB030000 		.4byte	.LLST5
 1623 0713 1A       		.uleb128 0x1a
 1624 0714 5E000000 		.4byte	.LASF66
 1625 0718 01       		.byte	0x1
 1626 0719 0F       		.byte	0xf
 1627 071a 7A000000 		.4byte	0x7a
 1628 071e EC030000 		.4byte	.LLST6
 1629 0722 1D       		.uleb128 0x1d
 1630 0723 6100     		.ascii	"a\000"
 1631 0725 01       		.byte	0x1
 1632 0726 11       		.byte	0x11
 1633 0727 78070000 		.4byte	0x778
 1634 072b 02       		.byte	0x2
 1635 072c 91       		.byte	0x91
 1636 072d 68       		.sleb128 -24
 1637 072e 1D       		.uleb128 0x1d
 1638 072f 6200     		.ascii	"b\000"
 1639 0731 01       		.byte	0x1
 1640 0732 11       		.byte	0x11
 1641 0733 78070000 		.4byte	0x778
 1642 0737 02       		.byte	0x2
 1643 0738 91       		.byte	0x91
 1644 0739 6C       		.sleb128 -20
 1645 073a 16       		.uleb128 0x16
 1646 073b 22000000 		.4byte	.LVL4
 1647 073f 06080000 		.4byte	0x806
 1648 0743 5B070000 		.4byte	0x75b
 1649 0747 17       		.uleb128 0x17
 1650 0748 01       		.byte	0x1
 1651 0749 50       		.byte	0x50
 1652 074a 02       		.byte	0x2
 1653 074b 74       		.byte	0x74
 1654 074c 00       		.sleb128 0
 1655 074d 17       		.uleb128 0x17
 1656 074e 01       		.byte	0x1
 1657 074f 51       		.byte	0x51
 1658 0750 03       		.byte	0x3
 1659 0751 F3       		.byte	0xf3
 1660 0752 01       		.uleb128 0x1
 1661 0753 51       		.byte	0x51
 1662 0754 17       		.uleb128 0x17
 1663 0755 01       		.byte	0x1
 1664 0756 52       		.byte	0x52
 1665 0757 02       		.byte	0x2
 1666 0758 7D       		.byte	0x7d
 1667 0759 00       		.sleb128 0
 1668 075a 00       		.byte	0
 1669 075b 18       		.uleb128 0x18
 1670 075c 2C000000 		.4byte	.LVL5
 1671 0760 06080000 		.4byte	0x806
 1672 0764 17       		.uleb128 0x17
 1673 0765 01       		.byte	0x1
 1674 0766 50       		.byte	0x50
 1675 0767 02       		.byte	0x2
ARM GAS  G:\Users\Jaxb\AppData\Local\Temp\ccWcCVoL.s 			page 34


 1676 0768 74       		.byte	0x74
 1677 0769 00       		.sleb128 0
 1678 076a 17       		.uleb128 0x17
 1679 076b 01       		.byte	0x1
 1680 076c 51       		.byte	0x51
 1681 076d 02       		.byte	0x2
 1682 076e 75       		.byte	0x75
 1683 076f 00       		.sleb128 0
 1684 0770 17       		.uleb128 0x17
 1685 0771 01       		.byte	0x1
 1686 0772 52       		.byte	0x52
 1687 0773 02       		.byte	0x2
 1688 0774 91       		.byte	0x91
 1689 0775 6C       		.sleb128 -20
 1690 0776 00       		.byte	0
 1691 0777 00       		.byte	0
 1692 0778 0C       		.uleb128 0xc
 1693 0779 04       		.byte	0x4
 1694 077a 7E070000 		.4byte	0x77e
 1695 077e 0C       		.uleb128 0xc
 1696 077f 04       		.byte	0x4
 1697 0780 F1020000 		.4byte	0x2f1
 1698 0784 1E       		.uleb128 0x1e
 1699 0785 01       		.byte	0x1
 1700 0786 01       		.byte	0x1
 1701 0787 AD010000 		.4byte	.LASF67
 1702 078b AD010000 		.4byte	.LASF67
 1703 078f 03       		.byte	0x3
 1704 0790 23       		.byte	0x23
 1705 0791 1E       		.uleb128 0x1e
 1706 0792 01       		.byte	0x1
 1707 0793 01       		.byte	0x1
 1708 0794 EA040000 		.4byte	.LASF68
 1709 0798 EA040000 		.4byte	.LASF68
 1710 079c 08       		.byte	0x8
 1711 079d 0C       		.byte	0xc
 1712 079e 1E       		.uleb128 0x1e
 1713 079f 01       		.byte	0x1
 1714 07a0 01       		.byte	0x1
 1715 07a1 95020000 		.4byte	.LASF69
 1716 07a5 95020000 		.4byte	.LASF69
 1717 07a9 03       		.byte	0x3
 1718 07aa 1D       		.byte	0x1d
 1719 07ab 1E       		.uleb128 0x1e
 1720 07ac 01       		.byte	0x1
 1721 07ad 01       		.byte	0x1
 1722 07ae FC020000 		.4byte	.LASF70
 1723 07b2 FC020000 		.4byte	.LASF70
 1724 07b6 03       		.byte	0x3
 1725 07b7 21       		.byte	0x21
 1726 07b8 1E       		.uleb128 0x1e
 1727 07b9 01       		.byte	0x1
 1728 07ba 01       		.byte	0x1
 1729 07bb E3020000 		.4byte	.LASF71
 1730 07bf E3020000 		.4byte	.LASF71
 1731 07c3 03       		.byte	0x3
 1732 07c4 1E       		.byte	0x1e
ARM GAS  G:\Users\Jaxb\AppData\Local\Temp\ccWcCVoL.s 			page 35


 1733 07c5 1E       		.uleb128 0x1e
 1734 07c6 01       		.byte	0x1
 1735 07c7 01       		.byte	0x1
 1736 07c8 7B030000 		.4byte	.LASF72
 1737 07cc 7B030000 		.4byte	.LASF72
 1738 07d0 09       		.byte	0x9
 1739 07d1 06       		.byte	0x6
 1740 07d2 1E       		.uleb128 0x1e
 1741 07d3 01       		.byte	0x1
 1742 07d4 01       		.byte	0x1
 1743 07d5 7A020000 		.4byte	.LASF73
 1744 07d9 7A020000 		.4byte	.LASF73
 1745 07dd 0A       		.byte	0xa
 1746 07de 06       		.byte	0x6
 1747 07df 1E       		.uleb128 0x1e
 1748 07e0 01       		.byte	0x1
 1749 07e1 01       		.byte	0x1
 1750 07e2 FA030000 		.4byte	.LASF74
 1751 07e6 FA030000 		.4byte	.LASF74
 1752 07ea 03       		.byte	0x3
 1753 07eb 1C       		.byte	0x1c
 1754 07ec 1E       		.uleb128 0x1e
 1755 07ed 01       		.byte	0x1
 1756 07ee 01       		.byte	0x1
 1757 07ef 2D030000 		.4byte	.LASF75
 1758 07f3 2D030000 		.4byte	.LASF75
 1759 07f7 03       		.byte	0x3
 1760 07f8 15       		.byte	0x15
 1761 07f9 1E       		.uleb128 0x1e
 1762 07fa 01       		.byte	0x1
 1763 07fb 01       		.byte	0x1
 1764 07fc 7C010000 		.4byte	.LASF76
 1765 0800 7C010000 		.4byte	.LASF76
 1766 0804 02       		.byte	0x2
 1767 0805 1C       		.byte	0x1c
 1768 0806 1E       		.uleb128 0x1e
 1769 0807 01       		.byte	0x1
 1770 0808 01       		.byte	0x1
 1771 0809 57030000 		.4byte	.LASF77
 1772 080d 57030000 		.4byte	.LASF77
 1773 0811 02       		.byte	0x2
 1774 0812 1E       		.byte	0x1e
 1775 0813 00       		.byte	0
 1776              		.section	.debug_abbrev,"",%progbits
 1777              	.Ldebug_abbrev0:
 1778 0000 01       		.uleb128 0x1
 1779 0001 11       		.uleb128 0x11
 1780 0002 01       		.byte	0x1
 1781 0003 25       		.uleb128 0x25
 1782 0004 0E       		.uleb128 0xe
 1783 0005 13       		.uleb128 0x13
 1784 0006 0B       		.uleb128 0xb
 1785 0007 03       		.uleb128 0x3
 1786 0008 0E       		.uleb128 0xe
 1787 0009 1B       		.uleb128 0x1b
 1788 000a 0E       		.uleb128 0xe
 1789 000b 11       		.uleb128 0x11
ARM GAS  G:\Users\Jaxb\AppData\Local\Temp\ccWcCVoL.s 			page 36


 1790 000c 01       		.uleb128 0x1
 1791 000d 12       		.uleb128 0x12
 1792 000e 01       		.uleb128 0x1
 1793 000f 10       		.uleb128 0x10
 1794 0010 06       		.uleb128 0x6
 1795 0011 00       		.byte	0
 1796 0012 00       		.byte	0
 1797 0013 02       		.uleb128 0x2
 1798 0014 13       		.uleb128 0x13
 1799 0015 01       		.byte	0x1
 1800 0016 03       		.uleb128 0x3
 1801 0017 0E       		.uleb128 0xe
 1802 0018 0B       		.uleb128 0xb
 1803 0019 0B       		.uleb128 0xb
 1804 001a 3A       		.uleb128 0x3a
 1805 001b 0B       		.uleb128 0xb
 1806 001c 3B       		.uleb128 0x3b
 1807 001d 0B       		.uleb128 0xb
 1808 001e 01       		.uleb128 0x1
 1809 001f 13       		.uleb128 0x13
 1810 0020 00       		.byte	0
 1811 0021 00       		.byte	0
 1812 0022 03       		.uleb128 0x3
 1813 0023 0D       		.uleb128 0xd
 1814 0024 00       		.byte	0
 1815 0025 03       		.uleb128 0x3
 1816 0026 0E       		.uleb128 0xe
 1817 0027 3A       		.uleb128 0x3a
 1818 0028 0B       		.uleb128 0xb
 1819 0029 3B       		.uleb128 0x3b
 1820 002a 0B       		.uleb128 0xb
 1821 002b 49       		.uleb128 0x49
 1822 002c 13       		.uleb128 0x13
 1823 002d 38       		.uleb128 0x38
 1824 002e 0A       		.uleb128 0xa
 1825 002f 00       		.byte	0
 1826 0030 00       		.byte	0
 1827 0031 04       		.uleb128 0x4
 1828 0032 0F       		.uleb128 0xf
 1829 0033 00       		.byte	0
 1830 0034 0B       		.uleb128 0xb
 1831 0035 0B       		.uleb128 0xb
 1832 0036 00       		.byte	0
 1833 0037 00       		.byte	0
 1834 0038 05       		.uleb128 0x5
 1835 0039 24       		.uleb128 0x24
 1836 003a 00       		.byte	0
 1837 003b 0B       		.uleb128 0xb
 1838 003c 0B       		.uleb128 0xb
 1839 003d 3E       		.uleb128 0x3e
 1840 003e 0B       		.uleb128 0xb
 1841 003f 03       		.uleb128 0x3
 1842 0040 0E       		.uleb128 0xe
 1843 0041 00       		.byte	0
 1844 0042 00       		.byte	0
 1845 0043 06       		.uleb128 0x6
 1846 0044 16       		.uleb128 0x16
ARM GAS  G:\Users\Jaxb\AppData\Local\Temp\ccWcCVoL.s 			page 37


 1847 0045 00       		.byte	0
 1848 0046 03       		.uleb128 0x3
 1849 0047 0E       		.uleb128 0xe
 1850 0048 3A       		.uleb128 0x3a
 1851 0049 0B       		.uleb128 0xb
 1852 004a 3B       		.uleb128 0x3b
 1853 004b 0B       		.uleb128 0xb
 1854 004c 49       		.uleb128 0x49
 1855 004d 13       		.uleb128 0x13
 1856 004e 00       		.byte	0
 1857 004f 00       		.byte	0
 1858 0050 07       		.uleb128 0x7
 1859 0051 0D       		.uleb128 0xd
 1860 0052 00       		.byte	0
 1861 0053 03       		.uleb128 0x3
 1862 0054 08       		.uleb128 0x8
 1863 0055 3A       		.uleb128 0x3a
 1864 0056 0B       		.uleb128 0xb
 1865 0057 3B       		.uleb128 0x3b
 1866 0058 0B       		.uleb128 0xb
 1867 0059 49       		.uleb128 0x49
 1868 005a 13       		.uleb128 0x13
 1869 005b 38       		.uleb128 0x38
 1870 005c 0A       		.uleb128 0xa
 1871 005d 00       		.byte	0
 1872 005e 00       		.byte	0
 1873 005f 08       		.uleb128 0x8
 1874 0060 15       		.uleb128 0x15
 1875 0061 01       		.byte	0x1
 1876 0062 27       		.uleb128 0x27
 1877 0063 0C       		.uleb128 0xc
 1878 0064 49       		.uleb128 0x49
 1879 0065 13       		.uleb128 0x13
 1880 0066 01       		.uleb128 0x1
 1881 0067 13       		.uleb128 0x13
 1882 0068 00       		.byte	0
 1883 0069 00       		.byte	0
 1884 006a 09       		.uleb128 0x9
 1885 006b 05       		.uleb128 0x5
 1886 006c 00       		.byte	0
 1887 006d 49       		.uleb128 0x49
 1888 006e 13       		.uleb128 0x13
 1889 006f 00       		.byte	0
 1890 0070 00       		.byte	0
 1891 0071 0A       		.uleb128 0xa
 1892 0072 24       		.uleb128 0x24
 1893 0073 00       		.byte	0
 1894 0074 0B       		.uleb128 0xb
 1895 0075 0B       		.uleb128 0xb
 1896 0076 3E       		.uleb128 0x3e
 1897 0077 0B       		.uleb128 0xb
 1898 0078 03       		.uleb128 0x3
 1899 0079 08       		.uleb128 0x8
 1900 007a 00       		.byte	0
 1901 007b 00       		.byte	0
 1902 007c 0B       		.uleb128 0xb
 1903 007d 35       		.uleb128 0x35
ARM GAS  G:\Users\Jaxb\AppData\Local\Temp\ccWcCVoL.s 			page 38


 1904 007e 00       		.byte	0
 1905 007f 49       		.uleb128 0x49
 1906 0080 13       		.uleb128 0x13
 1907 0081 00       		.byte	0
 1908 0082 00       		.byte	0
 1909 0083 0C       		.uleb128 0xc
 1910 0084 0F       		.uleb128 0xf
 1911 0085 00       		.byte	0
 1912 0086 0B       		.uleb128 0xb
 1913 0087 0B       		.uleb128 0xb
 1914 0088 49       		.uleb128 0x49
 1915 0089 13       		.uleb128 0x13
 1916 008a 00       		.byte	0
 1917 008b 00       		.byte	0
 1918 008c 0D       		.uleb128 0xd
 1919 008d 15       		.uleb128 0x15
 1920 008e 01       		.byte	0x1
 1921 008f 27       		.uleb128 0x27
 1922 0090 0C       		.uleb128 0xc
 1923 0091 01       		.uleb128 0x1
 1924 0092 13       		.uleb128 0x13
 1925 0093 00       		.byte	0
 1926 0094 00       		.byte	0
 1927 0095 0E       		.uleb128 0xe
 1928 0096 04       		.uleb128 0x4
 1929 0097 01       		.byte	0x1
 1930 0098 03       		.uleb128 0x3
 1931 0099 0E       		.uleb128 0xe
 1932 009a 3E       		.uleb128 0x3e
 1933 009b 0B       		.uleb128 0xb
 1934 009c 0B       		.uleb128 0xb
 1935 009d 0B       		.uleb128 0xb
 1936 009e 49       		.uleb128 0x49
 1937 009f 13       		.uleb128 0x13
 1938 00a0 3A       		.uleb128 0x3a
 1939 00a1 0B       		.uleb128 0xb
 1940 00a2 3B       		.uleb128 0x3b
 1941 00a3 0B       		.uleb128 0xb
 1942 00a4 01       		.uleb128 0x1
 1943 00a5 13       		.uleb128 0x13
 1944 00a6 00       		.byte	0
 1945 00a7 00       		.byte	0
 1946 00a8 0F       		.uleb128 0xf
 1947 00a9 28       		.uleb128 0x28
 1948 00aa 00       		.byte	0
 1949 00ab 03       		.uleb128 0x3
 1950 00ac 0E       		.uleb128 0xe
 1951 00ad 1C       		.uleb128 0x1c
 1952 00ae 0B       		.uleb128 0xb
 1953 00af 00       		.byte	0
 1954 00b0 00       		.byte	0
 1955 00b1 10       		.uleb128 0x10
 1956 00b2 34       		.uleb128 0x34
 1957 00b3 00       		.byte	0
 1958 00b4 03       		.uleb128 0x3
 1959 00b5 0E       		.uleb128 0xe
 1960 00b6 3A       		.uleb128 0x3a
ARM GAS  G:\Users\Jaxb\AppData\Local\Temp\ccWcCVoL.s 			page 39


 1961 00b7 0B       		.uleb128 0xb
 1962 00b8 3B       		.uleb128 0x3b
 1963 00b9 0B       		.uleb128 0xb
 1964 00ba 49       		.uleb128 0x49
 1965 00bb 13       		.uleb128 0x13
 1966 00bc 3F       		.uleb128 0x3f
 1967 00bd 0C       		.uleb128 0xc
 1968 00be 3C       		.uleb128 0x3c
 1969 00bf 0C       		.uleb128 0xc
 1970 00c0 00       		.byte	0
 1971 00c1 00       		.byte	0
 1972 00c2 11       		.uleb128 0x11
 1973 00c3 16       		.uleb128 0x16
 1974 00c4 00       		.byte	0
 1975 00c5 03       		.uleb128 0x3
 1976 00c6 08       		.uleb128 0x8
 1977 00c7 3A       		.uleb128 0x3a
 1978 00c8 0B       		.uleb128 0xb
 1979 00c9 3B       		.uleb128 0x3b
 1980 00ca 0B       		.uleb128 0xb
 1981 00cb 49       		.uleb128 0x49
 1982 00cc 13       		.uleb128 0x13
 1983 00cd 00       		.byte	0
 1984 00ce 00       		.byte	0
 1985 00cf 12       		.uleb128 0x12
 1986 00d0 26       		.uleb128 0x26
 1987 00d1 00       		.byte	0
 1988 00d2 49       		.uleb128 0x49
 1989 00d3 13       		.uleb128 0x13
 1990 00d4 00       		.byte	0
 1991 00d5 00       		.byte	0
 1992 00d6 13       		.uleb128 0x13
 1993 00d7 34       		.uleb128 0x34
 1994 00d8 00       		.byte	0
 1995 00d9 03       		.uleb128 0x3
 1996 00da 0E       		.uleb128 0xe
 1997 00db 3A       		.uleb128 0x3a
 1998 00dc 0B       		.uleb128 0xb
 1999 00dd 3B       		.uleb128 0x3b
 2000 00de 0B       		.uleb128 0xb
 2001 00df 49       		.uleb128 0x49
 2002 00e0 13       		.uleb128 0x13
 2003 00e1 02       		.uleb128 0x2
 2004 00e2 0A       		.uleb128 0xa
 2005 00e3 00       		.byte	0
 2006 00e4 00       		.byte	0
 2007 00e5 14       		.uleb128 0x14
 2008 00e6 2E       		.uleb128 0x2e
 2009 00e7 01       		.byte	0x1
 2010 00e8 3F       		.uleb128 0x3f
 2011 00e9 0C       		.uleb128 0xc
 2012 00ea 03       		.uleb128 0x3
 2013 00eb 0E       		.uleb128 0xe
 2014 00ec 3A       		.uleb128 0x3a
 2015 00ed 0B       		.uleb128 0xb
 2016 00ee 3B       		.uleb128 0x3b
 2017 00ef 0B       		.uleb128 0xb
ARM GAS  G:\Users\Jaxb\AppData\Local\Temp\ccWcCVoL.s 			page 40


 2018 00f0 27       		.uleb128 0x27
 2019 00f1 0C       		.uleb128 0xc
 2020 00f2 11       		.uleb128 0x11
 2021 00f3 01       		.uleb128 0x1
 2022 00f4 12       		.uleb128 0x12
 2023 00f5 01       		.uleb128 0x1
 2024 00f6 40       		.uleb128 0x40
 2025 00f7 06       		.uleb128 0x6
 2026 00f8 9742     		.uleb128 0x2117
 2027 00fa 0C       		.uleb128 0xc
 2028 00fb 01       		.uleb128 0x1
 2029 00fc 13       		.uleb128 0x13
 2030 00fd 00       		.byte	0
 2031 00fe 00       		.byte	0
 2032 00ff 15       		.uleb128 0x15
 2033 0100 34       		.uleb128 0x34
 2034 0101 00       		.byte	0
 2035 0102 03       		.uleb128 0x3
 2036 0103 08       		.uleb128 0x8
 2037 0104 3A       		.uleb128 0x3a
 2038 0105 0B       		.uleb128 0xb
 2039 0106 3B       		.uleb128 0x3b
 2040 0107 0B       		.uleb128 0xb
 2041 0108 49       		.uleb128 0x49
 2042 0109 13       		.uleb128 0x13
 2043 010a 02       		.uleb128 0x2
 2044 010b 06       		.uleb128 0x6
 2045 010c 00       		.byte	0
 2046 010d 00       		.byte	0
 2047 010e 16       		.uleb128 0x16
 2048 010f 898201   		.uleb128 0x4109
 2049 0112 01       		.byte	0x1
 2050 0113 11       		.uleb128 0x11
 2051 0114 01       		.uleb128 0x1
 2052 0115 31       		.uleb128 0x31
 2053 0116 13       		.uleb128 0x13
 2054 0117 01       		.uleb128 0x1
 2055 0118 13       		.uleb128 0x13
 2056 0119 00       		.byte	0
 2057 011a 00       		.byte	0
 2058 011b 17       		.uleb128 0x17
 2059 011c 8A8201   		.uleb128 0x410a
 2060 011f 00       		.byte	0
 2061 0120 02       		.uleb128 0x2
 2062 0121 0A       		.uleb128 0xa
 2063 0122 9142     		.uleb128 0x2111
 2064 0124 0A       		.uleb128 0xa
 2065 0125 00       		.byte	0
 2066 0126 00       		.byte	0
 2067 0127 18       		.uleb128 0x18
 2068 0128 898201   		.uleb128 0x4109
 2069 012b 01       		.byte	0x1
 2070 012c 11       		.uleb128 0x11
 2071 012d 01       		.uleb128 0x1
 2072 012e 31       		.uleb128 0x31
 2073 012f 13       		.uleb128 0x13
 2074 0130 00       		.byte	0
ARM GAS  G:\Users\Jaxb\AppData\Local\Temp\ccWcCVoL.s 			page 41


 2075 0131 00       		.byte	0
 2076 0132 19       		.uleb128 0x19
 2077 0133 2E       		.uleb128 0x2e
 2078 0134 01       		.byte	0x1
 2079 0135 3F       		.uleb128 0x3f
 2080 0136 0C       		.uleb128 0xc
 2081 0137 03       		.uleb128 0x3
 2082 0138 0E       		.uleb128 0xe
 2083 0139 3A       		.uleb128 0x3a
 2084 013a 0B       		.uleb128 0xb
 2085 013b 3B       		.uleb128 0x3b
 2086 013c 0B       		.uleb128 0xb
 2087 013d 27       		.uleb128 0x27
 2088 013e 0C       		.uleb128 0xc
 2089 013f 49       		.uleb128 0x49
 2090 0140 13       		.uleb128 0x13
 2091 0141 11       		.uleb128 0x11
 2092 0142 01       		.uleb128 0x1
 2093 0143 12       		.uleb128 0x12
 2094 0144 01       		.uleb128 0x1
 2095 0145 40       		.uleb128 0x40
 2096 0146 06       		.uleb128 0x6
 2097 0147 9742     		.uleb128 0x2117
 2098 0149 0C       		.uleb128 0xc
 2099 014a 01       		.uleb128 0x1
 2100 014b 13       		.uleb128 0x13
 2101 014c 00       		.byte	0
 2102 014d 00       		.byte	0
 2103 014e 1A       		.uleb128 0x1a
 2104 014f 05       		.uleb128 0x5
 2105 0150 00       		.byte	0
 2106 0151 03       		.uleb128 0x3
 2107 0152 0E       		.uleb128 0xe
 2108 0153 3A       		.uleb128 0x3a
 2109 0154 0B       		.uleb128 0xb
 2110 0155 3B       		.uleb128 0x3b
 2111 0156 0B       		.uleb128 0xb
 2112 0157 49       		.uleb128 0x49
 2113 0158 13       		.uleb128 0x13
 2114 0159 02       		.uleb128 0x2
 2115 015a 06       		.uleb128 0x6
 2116 015b 00       		.byte	0
 2117 015c 00       		.byte	0
 2118 015d 1B       		.uleb128 0x1b
 2119 015e 2E       		.uleb128 0x2e
 2120 015f 01       		.byte	0x1
 2121 0160 03       		.uleb128 0x3
 2122 0161 0E       		.uleb128 0xe
 2123 0162 3A       		.uleb128 0x3a
 2124 0163 0B       		.uleb128 0xb
 2125 0164 3B       		.uleb128 0x3b
 2126 0165 0B       		.uleb128 0xb
 2127 0166 27       		.uleb128 0x27
 2128 0167 0C       		.uleb128 0xc
 2129 0168 11       		.uleb128 0x11
 2130 0169 01       		.uleb128 0x1
 2131 016a 12       		.uleb128 0x12
ARM GAS  G:\Users\Jaxb\AppData\Local\Temp\ccWcCVoL.s 			page 42


 2132 016b 01       		.uleb128 0x1
 2133 016c 40       		.uleb128 0x40
 2134 016d 06       		.uleb128 0x6
 2135 016e 9742     		.uleb128 0x2117
 2136 0170 0C       		.uleb128 0xc
 2137 0171 01       		.uleb128 0x1
 2138 0172 13       		.uleb128 0x13
 2139 0173 00       		.byte	0
 2140 0174 00       		.byte	0
 2141 0175 1C       		.uleb128 0x1c
 2142 0176 2E       		.uleb128 0x2e
 2143 0177 01       		.byte	0x1
 2144 0178 03       		.uleb128 0x3
 2145 0179 0E       		.uleb128 0xe
 2146 017a 3A       		.uleb128 0x3a
 2147 017b 0B       		.uleb128 0xb
 2148 017c 3B       		.uleb128 0x3b
 2149 017d 0B       		.uleb128 0xb
 2150 017e 27       		.uleb128 0x27
 2151 017f 0C       		.uleb128 0xc
 2152 0180 49       		.uleb128 0x49
 2153 0181 13       		.uleb128 0x13
 2154 0182 11       		.uleb128 0x11
 2155 0183 01       		.uleb128 0x1
 2156 0184 12       		.uleb128 0x12
 2157 0185 01       		.uleb128 0x1
 2158 0186 40       		.uleb128 0x40
 2159 0187 06       		.uleb128 0x6
 2160 0188 9742     		.uleb128 0x2117
 2161 018a 0C       		.uleb128 0xc
 2162 018b 01       		.uleb128 0x1
 2163 018c 13       		.uleb128 0x13
 2164 018d 00       		.byte	0
 2165 018e 00       		.byte	0
 2166 018f 1D       		.uleb128 0x1d
 2167 0190 34       		.uleb128 0x34
 2168 0191 00       		.byte	0
 2169 0192 03       		.uleb128 0x3
 2170 0193 08       		.uleb128 0x8
 2171 0194 3A       		.uleb128 0x3a
 2172 0195 0B       		.uleb128 0xb
 2173 0196 3B       		.uleb128 0x3b
 2174 0197 0B       		.uleb128 0xb
 2175 0198 49       		.uleb128 0x49
 2176 0199 13       		.uleb128 0x13
 2177 019a 02       		.uleb128 0x2
 2178 019b 0A       		.uleb128 0xa
 2179 019c 00       		.byte	0
 2180 019d 00       		.byte	0
 2181 019e 1E       		.uleb128 0x1e
 2182 019f 2E       		.uleb128 0x2e
 2183 01a0 00       		.byte	0
 2184 01a1 3F       		.uleb128 0x3f
 2185 01a2 0C       		.uleb128 0xc
 2186 01a3 3C       		.uleb128 0x3c
 2187 01a4 0C       		.uleb128 0xc
 2188 01a5 8740     		.uleb128 0x2007
ARM GAS  G:\Users\Jaxb\AppData\Local\Temp\ccWcCVoL.s 			page 43


 2189 01a7 0E       		.uleb128 0xe
 2190 01a8 03       		.uleb128 0x3
 2191 01a9 0E       		.uleb128 0xe
 2192 01aa 3A       		.uleb128 0x3a
 2193 01ab 0B       		.uleb128 0xb
 2194 01ac 3B       		.uleb128 0x3b
 2195 01ad 0B       		.uleb128 0xb
 2196 01ae 00       		.byte	0
 2197 01af 00       		.byte	0
 2198 01b0 00       		.byte	0
 2199              		.section	.debug_loc,"",%progbits
 2200              	.Ldebug_loc0:
 2201              	.LLST17:
 2202 0000 88010000 		.4byte	.LFB19-.Ltext0
 2203 0004 8C010000 		.4byte	.LCFI30-.Ltext0
 2204 0008 0200     		.2byte	0x2
 2205 000a 7D       		.byte	0x7d
 2206 000b 00       		.sleb128 0
 2207 000c 8C010000 		.4byte	.LCFI30-.Ltext0
 2208 0010 90010000 		.4byte	.LCFI31-.Ltext0
 2209 0014 0200     		.2byte	0x2
 2210 0016 7D       		.byte	0x7d
 2211 0017 18       		.sleb128 24
 2212 0018 90010000 		.4byte	.LCFI31-.Ltext0
 2213 001c F2010000 		.4byte	.LCFI32-.Ltext0
 2214 0020 0200     		.2byte	0x2
 2215 0022 7D       		.byte	0x7d
 2216 0023 20       		.sleb128 32
 2217 0024 F2010000 		.4byte	.LCFI32-.Ltext0
 2218 0028 08020000 		.4byte	.LFE19-.Ltext0
 2219 002c 0200     		.2byte	0x2
 2220 002e 7D       		.byte	0x7d
 2221 002f 18       		.sleb128 24
 2222 0030 00000000 		.4byte	0
 2223 0034 00000000 		.4byte	0
 2224              	.LLST18:
 2225 0038 96010000 		.4byte	.LVL38-.Ltext0
 2226 003c 98010000 		.4byte	.LVL39-.Ltext0
 2227 0040 0100     		.2byte	0x1
 2228 0042 50       		.byte	0x50
 2229 0043 98010000 		.4byte	.LVL39-.Ltext0
 2230 0047 9E010000 		.4byte	.LVL41-.Ltext0
 2231 004b 0100     		.2byte	0x1
 2232 004d 54       		.byte	0x54
 2233 004e 9E010000 		.4byte	.LVL41-.Ltext0
 2234 0052 A6010000 		.4byte	.LVL42-.Ltext0
 2235 0056 0300     		.2byte	0x3
 2236 0058 74       		.byte	0x74
 2237 0059 01       		.sleb128 1
 2238 005a 9F       		.byte	0x9f
 2239 005b 00000000 		.4byte	0
 2240 005f 00000000 		.4byte	0
 2241              	.LLST19:
 2242 0063 9C010000 		.4byte	.LVL40-.Ltext0
 2243 0067 9E010000 		.4byte	.LVL41-.Ltext0
 2244 006b 0300     		.2byte	0x3
 2245 006d 74       		.byte	0x74
ARM GAS  G:\Users\Jaxb\AppData\Local\Temp\ccWcCVoL.s 			page 44


 2246 006e 7F       		.sleb128 -1
 2247 006f 9F       		.byte	0x9f
 2248 0070 9E010000 		.4byte	.LVL41-.Ltext0
 2249 0074 A6010000 		.4byte	.LVL42-.Ltext0
 2250 0078 0100     		.2byte	0x1
 2251 007a 54       		.byte	0x54
 2252 007b A6010000 		.4byte	.LVL42-.Ltext0
 2253 007f A8010000 		.4byte	.LVL43-.Ltext0
 2254 0083 0300     		.2byte	0x3
 2255 0085 74       		.byte	0x74
 2256 0086 7F       		.sleb128 -1
 2257 0087 9F       		.byte	0x9f
 2258 0088 A8010000 		.4byte	.LVL43-.Ltext0
 2259 008c E6010000 		.4byte	.LVL46-.Ltext0
 2260 0090 0100     		.2byte	0x1
 2261 0092 54       		.byte	0x54
 2262 0093 E6010000 		.4byte	.LVL46-.Ltext0
 2263 0097 E8010000 		.4byte	.LVL47-.Ltext0
 2264 009b 0300     		.2byte	0x3
 2265 009d 74       		.byte	0x74
 2266 009e 7F       		.sleb128 -1
 2267 009f 9F       		.byte	0x9f
 2268 00a0 E8010000 		.4byte	.LVL47-.Ltext0
 2269 00a4 F6010000 		.4byte	.LVL49-.Ltext0
 2270 00a8 0100     		.2byte	0x1
 2271 00aa 54       		.byte	0x54
 2272 00ab 00000000 		.4byte	0
 2273 00af 00000000 		.4byte	0
 2274              	.LLST16:
 2275 00b3 68010000 		.4byte	.LFB18-.Ltext0
 2276 00b7 6A010000 		.4byte	.LCFI26-.Ltext0
 2277 00bb 0200     		.2byte	0x2
 2278 00bd 7D       		.byte	0x7d
 2279 00be 00       		.sleb128 0
 2280 00bf 6A010000 		.4byte	.LCFI26-.Ltext0
 2281 00c3 6C010000 		.4byte	.LCFI27-.Ltext0
 2282 00c7 0200     		.2byte	0x2
 2283 00c9 7D       		.byte	0x7d
 2284 00ca 04       		.sleb128 4
 2285 00cb 6C010000 		.4byte	.LCFI27-.Ltext0
 2286 00cf 7C010000 		.4byte	.LCFI28-.Ltext0
 2287 00d3 0200     		.2byte	0x2
 2288 00d5 7D       		.byte	0x7d
 2289 00d6 10       		.sleb128 16
 2290 00d7 7C010000 		.4byte	.LCFI28-.Ltext0
 2291 00db 80010000 		.4byte	.LCFI29-.Ltext0
 2292 00df 0200     		.2byte	0x2
 2293 00e1 7D       		.byte	0x7d
 2294 00e2 04       		.sleb128 4
 2295 00e3 80010000 		.4byte	.LCFI29-.Ltext0
 2296 00e7 88010000 		.4byte	.LFE18-.Ltext0
 2297 00eb 0200     		.2byte	0x2
 2298 00ed 7D       		.byte	0x7d
 2299 00ee 10       		.sleb128 16
 2300 00ef 00000000 		.4byte	0
 2301 00f3 00000000 		.4byte	0
 2302              	.LLST15:
ARM GAS  G:\Users\Jaxb\AppData\Local\Temp\ccWcCVoL.s 			page 45


 2303 00f7 48010000 		.4byte	.LFB17-.Ltext0
 2304 00fb 4A010000 		.4byte	.LCFI22-.Ltext0
 2305 00ff 0200     		.2byte	0x2
 2306 0101 7D       		.byte	0x7d
 2307 0102 00       		.sleb128 0
 2308 0103 4A010000 		.4byte	.LCFI22-.Ltext0
 2309 0107 4C010000 		.4byte	.LCFI23-.Ltext0
 2310 010b 0200     		.2byte	0x2
 2311 010d 7D       		.byte	0x7d
 2312 010e 04       		.sleb128 4
 2313 010f 4C010000 		.4byte	.LCFI23-.Ltext0
 2314 0113 5C010000 		.4byte	.LCFI24-.Ltext0
 2315 0117 0200     		.2byte	0x2
 2316 0119 7D       		.byte	0x7d
 2317 011a 10       		.sleb128 16
 2318 011b 5C010000 		.4byte	.LCFI24-.Ltext0
 2319 011f 60010000 		.4byte	.LCFI25-.Ltext0
 2320 0123 0200     		.2byte	0x2
 2321 0125 7D       		.byte	0x7d
 2322 0126 04       		.sleb128 4
 2323 0127 60010000 		.4byte	.LCFI25-.Ltext0
 2324 012b 68010000 		.4byte	.LFE17-.Ltext0
 2325 012f 0200     		.2byte	0x2
 2326 0131 7D       		.byte	0x7d
 2327 0132 10       		.sleb128 16
 2328 0133 00000000 		.4byte	0
 2329 0137 00000000 		.4byte	0
 2330              	.LLST10:
 2331 013b D0000000 		.4byte	.LFB16-.Ltext0
 2332 013f D2000000 		.4byte	.LCFI15-.Ltext0
 2333 0143 0200     		.2byte	0x2
 2334 0145 7D       		.byte	0x7d
 2335 0146 00       		.sleb128 0
 2336 0147 D2000000 		.4byte	.LCFI15-.Ltext0
 2337 014b D6000000 		.4byte	.LCFI16-.Ltext0
 2338 014f 0200     		.2byte	0x2
 2339 0151 7D       		.byte	0x7d
 2340 0152 14       		.sleb128 20
 2341 0153 D6000000 		.4byte	.LCFI16-.Ltext0
 2342 0157 18010000 		.4byte	.LCFI17-.Ltext0
 2343 015b 0200     		.2byte	0x2
 2344 015d 7D       		.byte	0x7d
 2345 015e 20       		.sleb128 32
 2346 015f 18010000 		.4byte	.LCFI17-.Ltext0
 2347 0163 1A010000 		.4byte	.LCFI18-.Ltext0
 2348 0167 0200     		.2byte	0x2
 2349 0169 7D       		.byte	0x7d
 2350 016a 14       		.sleb128 20
 2351 016b 1A010000 		.4byte	.LCFI18-.Ltext0
 2352 016f 22010000 		.4byte	.LCFI19-.Ltext0
 2353 0173 0200     		.2byte	0x2
 2354 0175 7D       		.byte	0x7d
 2355 0176 20       		.sleb128 32
 2356 0177 22010000 		.4byte	.LCFI19-.Ltext0
 2357 017b 24010000 		.4byte	.LCFI20-.Ltext0
 2358 017f 0200     		.2byte	0x2
 2359 0181 7D       		.byte	0x7d
ARM GAS  G:\Users\Jaxb\AppData\Local\Temp\ccWcCVoL.s 			page 46


 2360 0182 14       		.sleb128 20
 2361 0183 24010000 		.4byte	.LCFI20-.Ltext0
 2362 0187 3A010000 		.4byte	.LCFI21-.Ltext0
 2363 018b 0200     		.2byte	0x2
 2364 018d 7D       		.byte	0x7d
 2365 018e 20       		.sleb128 32
 2366 018f 3A010000 		.4byte	.LCFI21-.Ltext0
 2367 0193 48010000 		.4byte	.LFE16-.Ltext0
 2368 0197 0200     		.2byte	0x2
 2369 0199 7D       		.byte	0x7d
 2370 019a 14       		.sleb128 20
 2371 019b 00000000 		.4byte	0
 2372 019f 00000000 		.4byte	0
 2373              	.LLST11:
 2374 01a3 D0000000 		.4byte	.LVL17-.Ltext0
 2375 01a7 DA000000 		.4byte	.LVL18-.Ltext0
 2376 01ab 0100     		.2byte	0x1
 2377 01ad 50       		.byte	0x50
 2378 01ae DA000000 		.4byte	.LVL18-.Ltext0
 2379 01b2 24010000 		.4byte	.LVL30-.Ltext0
 2380 01b6 0100     		.2byte	0x1
 2381 01b8 55       		.byte	0x55
 2382 01b9 24010000 		.4byte	.LVL30-.Ltext0
 2383 01bd 2C010000 		.4byte	.LVL31-.Ltext0
 2384 01c1 0100     		.2byte	0x1
 2385 01c3 50       		.byte	0x50
 2386 01c4 2C010000 		.4byte	.LVL31-.Ltext0
 2387 01c8 3C010000 		.4byte	.LVL34-.Ltext0
 2388 01cc 0100     		.2byte	0x1
 2389 01ce 55       		.byte	0x55
 2390 01cf 3C010000 		.4byte	.LVL34-.Ltext0
 2391 01d3 48010000 		.4byte	.LFE16-.Ltext0
 2392 01d7 0400     		.2byte	0x4
 2393 01d9 F3       		.byte	0xf3
 2394 01da 01       		.uleb128 0x1
 2395 01db 50       		.byte	0x50
 2396 01dc 9F       		.byte	0x9f
 2397 01dd 00000000 		.4byte	0
 2398 01e1 00000000 		.4byte	0
 2399              	.LLST12:
 2400 01e5 E2000000 		.4byte	.LVL20-.Ltext0
 2401 01e9 EA000000 		.4byte	.LVL21-.Ltext0
 2402 01ed 0200     		.2byte	0x2
 2403 01ef 31       		.byte	0x31
 2404 01f0 9F       		.byte	0x9f
 2405 01f1 EA000000 		.4byte	.LVL21-.Ltext0
 2406 01f5 0C010000 		.4byte	.LVL26-.Ltext0
 2407 01f9 0100     		.2byte	0x1
 2408 01fb 54       		.byte	0x54
 2409 01fc 00000000 		.4byte	0
 2410 0200 00000000 		.4byte	0
 2411              	.LLST13:
 2412 0204 0A010000 		.4byte	.LVL25-.Ltext0
 2413 0208 10010000 		.4byte	.LVL27-.Ltext0
 2414 020c 0100     		.2byte	0x1
 2415 020e 50       		.byte	0x50
 2416 020f 10010000 		.4byte	.LVL27-.Ltext0
ARM GAS  G:\Users\Jaxb\AppData\Local\Temp\ccWcCVoL.s 			page 47


 2417 0213 1A010000 		.4byte	.LVL29-.Ltext0
 2418 0217 0100     		.2byte	0x1
 2419 0219 54       		.byte	0x54
 2420 021a 00000000 		.4byte	0
 2421 021e 00000000 		.4byte	0
 2422              	.LLST14:
 2423 0222 E2000000 		.4byte	.LVL20-.Ltext0
 2424 0226 EA000000 		.4byte	.LVL21-.Ltext0
 2425 022a 0100     		.2byte	0x1
 2426 022c 50       		.byte	0x50
 2427 022d EA000000 		.4byte	.LVL21-.Ltext0
 2428 0231 24010000 		.4byte	.LVL30-.Ltext0
 2429 0235 0100     		.2byte	0x1
 2430 0237 56       		.byte	0x56
 2431 0238 00000000 		.4byte	0
 2432 023c 00000000 		.4byte	0
 2433              	.LLST8:
 2434 0240 94000000 		.4byte	.LFB15-.Ltext0
 2435 0244 96000000 		.4byte	.LCFI11-.Ltext0
 2436 0248 0200     		.2byte	0x2
 2437 024a 7D       		.byte	0x7d
 2438 024b 00       		.sleb128 0
 2439 024c 96000000 		.4byte	.LCFI11-.Ltext0
 2440 0250 98000000 		.4byte	.LCFI12-.Ltext0
 2441 0254 0200     		.2byte	0x2
 2442 0256 7D       		.byte	0x7d
 2443 0257 04       		.sleb128 4
 2444 0258 98000000 		.4byte	.LCFI12-.Ltext0
 2445 025c A6000000 		.4byte	.LCFI13-.Ltext0
 2446 0260 0200     		.2byte	0x2
 2447 0262 7D       		.byte	0x7d
 2448 0263 10       		.sleb128 16
 2449 0264 A6000000 		.4byte	.LCFI13-.Ltext0
 2450 0268 AA000000 		.4byte	.LCFI14-.Ltext0
 2451 026c 0200     		.2byte	0x2
 2452 026e 7D       		.byte	0x7d
 2453 026f 04       		.sleb128 4
 2454 0270 AA000000 		.4byte	.LCFI14-.Ltext0
 2455 0274 D0000000 		.4byte	.LFE15-.Ltext0
 2456 0278 0200     		.2byte	0x2
 2457 027a 7D       		.byte	0x7d
 2458 027b 10       		.sleb128 16
 2459 027c 00000000 		.4byte	0
 2460 0280 00000000 		.4byte	0
 2461              	.LLST9:
 2462 0284 94000000 		.4byte	.LVL10-.Ltext0
 2463 0288 9C000000 		.4byte	.LVL11-.Ltext0
 2464 028c 0100     		.2byte	0x1
 2465 028e 50       		.byte	0x50
 2466 028f AA000000 		.4byte	.LVL13-.Ltext0
 2467 0293 AE000000 		.4byte	.LVL14-.Ltext0
 2468 0297 0100     		.2byte	0x1
 2469 0299 50       		.byte	0x50
 2470 029a AE000000 		.4byte	.LVL14-.Ltext0
 2471 029e B1000000 		.4byte	.LVL15-1-.Ltext0
 2472 02a2 0200     		.2byte	0x2
 2473 02a4 91       		.byte	0x91
ARM GAS  G:\Users\Jaxb\AppData\Local\Temp\ccWcCVoL.s 			page 48


 2474 02a5 74       		.sleb128 -12
 2475 02a6 00000000 		.4byte	0
 2476 02aa 00000000 		.4byte	0
 2477              	.LLST7:
 2478 02ae 60000000 		.4byte	.LFB14-.Ltext0
 2479 02b2 62000000 		.4byte	.LCFI7-.Ltext0
 2480 02b6 0200     		.2byte	0x2
 2481 02b8 7D       		.byte	0x7d
 2482 02b9 00       		.sleb128 0
 2483 02ba 62000000 		.4byte	.LCFI7-.Ltext0
 2484 02be 66000000 		.4byte	.LCFI8-.Ltext0
 2485 02c2 0200     		.2byte	0x2
 2486 02c4 7D       		.byte	0x7d
 2487 02c5 04       		.sleb128 4
 2488 02c6 66000000 		.4byte	.LCFI8-.Ltext0
 2489 02ca 78000000 		.4byte	.LCFI9-.Ltext0
 2490 02ce 0200     		.2byte	0x2
 2491 02d0 7D       		.byte	0x7d
 2492 02d1 10       		.sleb128 16
 2493 02d2 78000000 		.4byte	.LCFI9-.Ltext0
 2494 02d6 7C000000 		.4byte	.LCFI10-.Ltext0
 2495 02da 0200     		.2byte	0x2
 2496 02dc 7D       		.byte	0x7d
 2497 02dd 04       		.sleb128 4
 2498 02de 7C000000 		.4byte	.LCFI10-.Ltext0
 2499 02e2 94000000 		.4byte	.LFE14-.Ltext0
 2500 02e6 0200     		.2byte	0x2
 2501 02e8 7D       		.byte	0x7d
 2502 02e9 10       		.sleb128 16
 2503 02ea 00000000 		.4byte	0
 2504 02ee 00000000 		.4byte	0
 2505              	.LLST0:
 2506 02f2 00000000 		.4byte	.LFB13-.Ltext0
 2507 02f6 02000000 		.4byte	.LCFI0-.Ltext0
 2508 02fa 0200     		.2byte	0x2
 2509 02fc 7D       		.byte	0x7d
 2510 02fd 00       		.sleb128 0
 2511 02fe 02000000 		.4byte	.LCFI0-.Ltext0
 2512 0302 04000000 		.4byte	.LCFI1-.Ltext0
 2513 0306 0200     		.2byte	0x2
 2514 0308 7D       		.byte	0x7d
 2515 0309 08       		.sleb128 8
 2516 030a 04000000 		.4byte	.LCFI1-.Ltext0
 2517 030e 12000000 		.4byte	.LCFI2-.Ltext0
 2518 0312 0200     		.2byte	0x2
 2519 0314 7D       		.byte	0x7d
 2520 0315 10       		.sleb128 16
 2521 0316 12000000 		.4byte	.LCFI2-.Ltext0
 2522 031a 14000000 		.4byte	.LFE13-.Ltext0
 2523 031e 0200     		.2byte	0x2
 2524 0320 7D       		.byte	0x7d
 2525 0321 08       		.sleb128 8
 2526 0322 00000000 		.4byte	0
 2527 0326 00000000 		.4byte	0
 2528              	.LLST1:
 2529 032a 00000000 		.4byte	.LVL0-.Ltext0
 2530 032e 0B000000 		.4byte	.LVL1-1-.Ltext0
ARM GAS  G:\Users\Jaxb\AppData\Local\Temp\ccWcCVoL.s 			page 49


 2531 0332 0100     		.2byte	0x1
 2532 0334 50       		.byte	0x50
 2533 0335 0B000000 		.4byte	.LVL1-1-.Ltext0
 2534 0339 14000000 		.4byte	.LFE13-.Ltext0
 2535 033d 0400     		.2byte	0x4
 2536 033f F3       		.byte	0xf3
 2537 0340 01       		.uleb128 0x1
 2538 0341 50       		.byte	0x50
 2539 0342 9F       		.byte	0x9f
 2540 0343 00000000 		.4byte	0
 2541 0347 00000000 		.4byte	0
 2542              	.LLST2:
 2543 034b 00000000 		.4byte	.LVL0-.Ltext0
 2544 034f 0B000000 		.4byte	.LVL1-1-.Ltext0
 2545 0353 0100     		.2byte	0x1
 2546 0355 51       		.byte	0x51
 2547 0356 0B000000 		.4byte	.LVL1-1-.Ltext0
 2548 035a 14000000 		.4byte	.LFE13-.Ltext0
 2549 035e 0100     		.2byte	0x1
 2550 0360 54       		.byte	0x54
 2551 0361 00000000 		.4byte	0
 2552 0365 00000000 		.4byte	0
 2553              	.LLST3:
 2554 0369 14000000 		.4byte	.LFB12-.Ltext0
 2555 036d 16000000 		.4byte	.LCFI3-.Ltext0
 2556 0371 0200     		.2byte	0x2
 2557 0373 7D       		.byte	0x7d
 2558 0374 00       		.sleb128 0
 2559 0375 16000000 		.4byte	.LCFI3-.Ltext0
 2560 0379 1C000000 		.4byte	.LCFI4-.Ltext0
 2561 037d 0200     		.2byte	0x2
 2562 037f 7D       		.byte	0x7d
 2563 0380 0C       		.sleb128 12
 2564 0381 1C000000 		.4byte	.LCFI4-.Ltext0
 2565 0385 58000000 		.4byte	.LCFI5-.Ltext0
 2566 0389 0200     		.2byte	0x2
 2567 038b 7D       		.byte	0x7d
 2568 038c 18       		.sleb128 24
 2569 038d 58000000 		.4byte	.LCFI5-.Ltext0
 2570 0391 5A000000 		.4byte	.LCFI6-.Ltext0
 2571 0395 0200     		.2byte	0x2
 2572 0397 7D       		.byte	0x7d
 2573 0398 0C       		.sleb128 12
 2574 0399 5A000000 		.4byte	.LCFI6-.Ltext0
 2575 039d 60000000 		.4byte	.LFE12-.Ltext0
 2576 03a1 0200     		.2byte	0x2
 2577 03a3 7D       		.byte	0x7d
 2578 03a4 18       		.sleb128 24
 2579 03a5 00000000 		.4byte	0
 2580 03a9 00000000 		.4byte	0
 2581              	.LLST4:
 2582 03ad 14000000 		.4byte	.LVL2-.Ltext0
 2583 03b1 21000000 		.4byte	.LVL4-1-.Ltext0
 2584 03b5 0100     		.2byte	0x1
 2585 03b7 50       		.byte	0x50
 2586 03b8 21000000 		.4byte	.LVL4-1-.Ltext0
 2587 03bc 60000000 		.4byte	.LFE12-.Ltext0
ARM GAS  G:\Users\Jaxb\AppData\Local\Temp\ccWcCVoL.s 			page 50


 2588 03c0 0100     		.2byte	0x1
 2589 03c2 54       		.byte	0x54
 2590 03c3 00000000 		.4byte	0
 2591 03c7 00000000 		.4byte	0
 2592              	.LLST5:
 2593 03cb 14000000 		.4byte	.LVL2-.Ltext0
 2594 03cf 21000000 		.4byte	.LVL4-1-.Ltext0
 2595 03d3 0100     		.2byte	0x1
 2596 03d5 51       		.byte	0x51
 2597 03d6 21000000 		.4byte	.LVL4-1-.Ltext0
 2598 03da 60000000 		.4byte	.LFE12-.Ltext0
 2599 03de 0400     		.2byte	0x4
 2600 03e0 F3       		.byte	0xf3
 2601 03e1 01       		.uleb128 0x1
 2602 03e2 51       		.byte	0x51
 2603 03e3 9F       		.byte	0x9f
 2604 03e4 00000000 		.4byte	0
 2605 03e8 00000000 		.4byte	0
 2606              	.LLST6:
 2607 03ec 14000000 		.4byte	.LVL2-.Ltext0
 2608 03f0 1E000000 		.4byte	.LVL3-.Ltext0
 2609 03f4 0100     		.2byte	0x1
 2610 03f6 52       		.byte	0x52
 2611 03f7 1E000000 		.4byte	.LVL3-.Ltext0
 2612 03fb 44000000 		.4byte	.LVL6-.Ltext0
 2613 03ff 0100     		.2byte	0x1
 2614 0401 55       		.byte	0x55
 2615 0402 44000000 		.4byte	.LVL6-.Ltext0
 2616 0406 60000000 		.4byte	.LFE12-.Ltext0
 2617 040a 0400     		.2byte	0x4
 2618 040c F3       		.byte	0xf3
 2619 040d 01       		.uleb128 0x1
 2620 040e 52       		.byte	0x52
 2621 040f 9F       		.byte	0x9f
 2622 0410 00000000 		.4byte	0
 2623 0414 00000000 		.4byte	0
 2624              		.section	.debug_aranges,"",%progbits
 2625 0000 1C000000 		.4byte	0x1c
 2626 0004 0200     		.2byte	0x2
 2627 0006 00000000 		.4byte	.Ldebug_info0
 2628 000a 04       		.byte	0x4
 2629 000b 00       		.byte	0
 2630 000c 0000     		.2byte	0
 2631 000e 0000     		.2byte	0
 2632 0010 00000000 		.4byte	.Ltext0
 2633 0014 08020000 		.4byte	.Letext0-.Ltext0
 2634 0018 00000000 		.4byte	0
 2635 001c 00000000 		.4byte	0
 2636              		.section	.debug_line,"",%progbits
 2637              	.Ldebug_line0:
 2638 0000 E3010000 		.section	.debug_str,"MS",%progbits,1
 2638      02004B01 
 2638      00000201 
 2638      FB0E0D00 
 2638      01010101 
 2639              	.LASF40:
 2640 0000 7072696F 		.ascii	"prio\000"
ARM GAS  G:\Users\Jaxb\AppData\Local\Temp\ccWcCVoL.s 			page 51


 2640      00
 2641              	.LASF42:
 2642 0005 7461736B 		.ascii	"task_state\000"
 2642      5F737461 
 2642      746500
 2643              	.LASF21:
 2644 0010 6E657874 		.ascii	"next\000"
 2644      00
 2645              	.LASF56:
 2646 0015 64656C61 		.ascii	"delay_heap_remove_top_TCB\000"
 2646      795F6865 
 2646      61705F72 
 2646      656D6F76 
 2646      655F746F 
 2647              	.LASF24:
 2648 002f 53544154 		.ascii	"STATE_DELAY\000"
 2648      455F4445 
 2648      4C415900 
 2649              	.LASF35:
 2650 003b 5441534B 		.ascii	"TASK_PRIO_TYPE\000"
 2650      5F505249 
 2650      4F5F5459 
 2650      504500
 2651              	.LASF8:
 2652 004a 696E6465 		.ascii	"index_change_record\000"
 2652      785F6368 
 2652      616E6765 
 2652      5F726563 
 2652      6F726400 
 2653              	.LASF66:
 2654 005e 696E6465 		.ascii	"index2\000"
 2654      783200
 2655              	.LASF58:
 2656 0065 72656D6F 		.ascii	"remove_from_delay_heap\000"
 2656      76655F66 
 2656      726F6D5F 
 2656      64656C61 
 2656      795F6865 
 2657              	.LASF62:
 2658 007c 5F5F696E 		.ascii	"__init_delay_heap\000"
 2658      69745F64 
 2658      656C6179 
 2658      5F686561 
 2658      7000
 2659              	.LASF31:
 2660 008e 53544154 		.ascii	"STATE_PUT_MESSAGE_QUEUE_TIMEOUT\000"
 2660      455F5055 
 2660      545F4D45 
 2660      53534147 
 2660      455F5155 
 2661              	.LASF43:
 2662 00ae 64656C61 		.ascii	"delay_heap_position\000"
 2662      795F6865 
 2662      61705F70 
 2662      6F736974 
 2662      696F6E00 
 2663              	.LASF60:
ARM GAS  G:\Users\Jaxb\AppData\Local\Temp\ccWcCVoL.s 			page 52


 2664 00c2 696E7365 		.ascii	"insert_into_delay_heap\000"
 2664      72745F69 
 2664      6E746F5F 
 2664      64656C61 
 2664      795F6865 
 2665              	.LASF47:
 2666 00d9 74696D65 		.ascii	"timeslice_hope_time\000"
 2666      736C6963 
 2666      655F686F 
 2666      70655F74 
 2666      696D6500 
 2667              	.LASF37:
 2668 00ed 73746163 		.ascii	"stack\000"
 2668      6B00
 2669              	.LASF3:
 2670 00f3 64617461 		.ascii	"data_size\000"
 2670      5F73697A 
 2670      6500
 2671              	.LASF9:
 2672 00fd 756E7369 		.ascii	"unsigned int\000"
 2672      676E6564 
 2672      20696E74 
 2672      00
 2673              	.LASF59:
 2674 010a 5443425F 		.ascii	"TCB_ptr_buffer\000"
 2674      7074725F 
 2674      62756666 
 2674      657200
 2675              	.LASF53:
 2676 0119 5443425F 		.ascii	"TCB_ptr1\000"
 2676      70747231 
 2676      00
 2677              	.LASF6:
 2678 0122 6C697474 		.ascii	"little_heap\000"
 2678      6C655F68 
 2678      65617000 
 2679              	.LASF54:
 2680 012e 5443425F 		.ascii	"TCB_ptr2\000"
 2680      70747232 
 2680      00
 2681              	.LASF28:
 2682 0137 53544154 		.ascii	"STATE_WAIT_MESSAGE_QUEUE_FOREVER\000"
 2682      455F5741 
 2682      49545F4D 
 2682      45535341 
 2682      47455F51 
 2683              	.LASF23:
 2684 0158 53544154 		.ascii	"STATE_READY\000"
 2684      455F5245 
 2684      41445900 
 2685              	.LASF41:
 2686 0164 72657365 		.ascii	"reserve_prio\000"
 2686      7276655F 
 2686      7072696F 
 2686      00
 2687              	.LASF13:
 2688 0171 494E5436 		.ascii	"INT64\000"
ARM GAS  G:\Users\Jaxb\AppData\Local\Temp\ccWcCVoL.s 			page 53


 2688      3400
 2689              	.LASF7:
 2690 0177 64617461 		.ascii	"data\000"
 2690      00
 2691              	.LASF76:
 2692 017c 56656374 		.ascii	"Vector_get_index_data\000"
 2692      6F725F67 
 2692      65745F69 
 2692      6E646578 
 2692      5F646174 
 2693              	.LASF55:
 2694 0192 5443425F 		.ascii	"TCB_ptr\000"
 2694      70747200 
 2695              	.LASF15:
 2696 019a 756E7369 		.ascii	"unsigned char\000"
 2696      676E6564 
 2696      20636861 
 2696      7200
 2697              	.LASF83:
 2698 01a8 5F636D70 		.ascii	"_cmp\000"
 2698      00
 2699              	.LASF67:
 2700 01ad 68656170 		.ascii	"heap_get_cur_len\000"
 2700      5F676574 
 2700      5F637572 
 2700      5F6C656E 
 2700      00
 2701              	.LASF18:
 2702 01be 55494E54 		.ascii	"UINT64\000"
 2702      363400
 2703              	.LASF79:
 2704 01c5 2E2E2F2E 		.ascii	"../../source/src/user/OS_CORE/schedule/os_delay.c\000"
 2704      2E2F736F 
 2704      75726365 
 2704      2F737263 
 2704      2F757365 
 2705              	.LASF16:
 2706 01f7 73686F72 		.ascii	"short unsigned int\000"
 2706      7420756E 
 2706      7369676E 
 2706      65642069 
 2706      6E7400
 2707              	.LASF29:
 2708 020a 53544154 		.ascii	"STATE_WAIT_MESSAGE_QUEUE_TIMEOUT\000"
 2708      455F5741 
 2708      49545F4D 
 2708      45535341 
 2708      47455F51 
 2709              	.LASF39:
 2710 022b 73746163 		.ascii	"stack_end\000"
 2710      6B5F656E 
 2710      6400
 2711              	.LASF26:
 2712 0235 53544154 		.ascii	"STATE_WAIT_MCB_FOREVER\000"
 2712      455F5741 
 2712      49545F4D 
 2712      43425F46 
ARM GAS  G:\Users\Jaxb\AppData\Local\Temp\ccWcCVoL.s 			page 54


 2712      4F524556 
 2713              	.LASF2:
 2714 024c 6375725F 		.ascii	"cur_len\000"
 2714      6C656E00 
 2715              	.LASF48:
 2716 0254 74696D65 		.ascii	"timeslice_rest_time\000"
 2716      736C6963 
 2716      655F7265 
 2716      73745F74 
 2716      696D6500 
 2717              	.LASF52:
 2718 0268 64656C61 		.ascii	"delay_heap\000"
 2718      795F6865 
 2718      617000
 2719              	.LASF65:
 2720 0273 696E6465 		.ascii	"index1\000"
 2720      783100
 2721              	.LASF73:
 2722 027a 5F415353 		.ascii	"_ASSERT\000"
 2722      45525400 
 2723              	.LASF1:
 2724 0282 6D61785F 		.ascii	"max_len\000"
 2724      6C656E00 
 2725              	.LASF33:
 2726 028a 5441534B 		.ascii	"TASK_STATE\000"
 2726      5F535441 
 2726      544500
 2727              	.LASF69:
 2728 0295 68656170 		.ascii	"heap_get_index_data\000"
 2728      5F676574 
 2728      5F696E64 
 2728      65785F64 
 2728      61746100 
 2729              	.LASF0:
 2730 02a9 64617461 		.ascii	"data_ptr\000"
 2730      5F707472 
 2730      00
 2731              	.LASF36:
 2732 02b2 7461736B 		.ascii	"task_control_block_struct\000"
 2732      5F636F6E 
 2732      74726F6C 
 2732      5F626C6F 
 2732      636B5F73 
 2733              	.LASF19:
 2734 02cc 6C6F6E67 		.ascii	"long long unsigned int\000"
 2734      206C6F6E 
 2734      6720756E 
 2734      7369676E 
 2734      65642069 
 2735              	.LASF71:
 2736 02e3 68656170 		.ascii	"heap_get_index_data_safe\000"
 2736      5F676574 
 2736      5F696E64 
 2736      65785F64 
 2736      6174615F 
 2737              	.LASF70:
 2738 02fc 68656170 		.ascii	"heap_remove_index_data\000"
ARM GAS  G:\Users\Jaxb\AppData\Local\Temp\ccWcCVoL.s 			page 55


 2738      5F72656D 
 2738      6F76655F 
 2738      696E6465 
 2738      785F6461 
 2739              	.LASF44:
 2740 0313 73616D65 		.ascii	"same_prio_list\000"
 2740      5F707269 
 2740      6F5F6C69 
 2740      737400
 2741              	.LASF81:
 2742 0322 5461736B 		.ascii	"Task_State\000"
 2742      5F537461 
 2742      746500
 2743              	.LASF75:
 2744 032d 68656170 		.ascii	"heap_init\000"
 2744      5F696E69 
 2744      7400
 2745              	.LASF12:
 2746 0337 56656374 		.ascii	"Vector\000"
 2746      6F7200
 2747              	.LASF32:
 2748 033e 53544154 		.ascii	"STATE_WAIT_MUTEX_FOREVER\000"
 2748      455F5741 
 2748      49545F4D 
 2748      55544558 
 2748      5F464F52 
 2749              	.LASF77:
 2750 0357 56656374 		.ascii	"Vector_get_index_address\000"
 2750      6F725F67 
 2750      65745F69 
 2750      6E646578 
 2750      5F616464 
 2751              	.LASF34:
 2752 0370 53544143 		.ascii	"STACK_TYPE\000"
 2752      4B5F5459 
 2752      504500
 2753              	.LASF72:
 2754 037b 696E7365 		.ascii	"insert_ready_TCB\000"
 2754      72745F72 
 2754      65616479 
 2754      5F544342 
 2754      00
 2755              	.LASF20:
 2756 038c 6C697374 		.ascii	"list_head\000"
 2756      5F686561 
 2756      6400
 2757              	.LASF14:
 2758 0396 6C6F6E67 		.ascii	"long long int\000"
 2758      206C6F6E 
 2758      6720696E 
 2758      7400
 2759              	.LASF38:
 2760 03a4 73746163 		.ascii	"stack_size\000"
 2760      6B5F7369 
 2760      7A6500
 2761              	.LASF5:
 2762 03af 76656374 		.ascii	"vector\000"
ARM GAS  G:\Users\Jaxb\AppData\Local\Temp\ccWcCVoL.s 			page 56


 2762      6F7200
 2763              	.LASF46:
 2764 03b6 6E616D65 		.ascii	"name\000"
 2764      00
 2765              	.LASF49:
 2766 03bb 61747472 		.ascii	"attribution\000"
 2766      69627574 
 2766      696F6E00 
 2767              	.LASF17:
 2768 03c7 55494E54 		.ascii	"UINT32\000"
 2768      333200
 2769              	.LASF4:
 2770 03ce 65787465 		.ascii	"extension_factor\000"
 2770      6E73696F 
 2770      6E5F6661 
 2770      63746F72 
 2770      00
 2771              	.LASF11:
 2772 03df 73686F72 		.ascii	"short int\000"
 2772      7420696E 
 2772      7400
 2773              	.LASF63:
 2774 03e9 56656374 		.ascii	"Vector_ptr\000"
 2774      6F725F70 
 2774      747200
 2775              	.LASF64:
 2776 03f4 696E6465 		.ascii	"index\000"
 2776      7800
 2777              	.LASF74:
 2778 03fa 68656170 		.ascii	"heap_push\000"
 2778      5F707573 
 2778      6800
 2779              	.LASF61:
 2780 0404 7368656C 		.ascii	"shell_delay_heap_check\000"
 2780      6C5F6465 
 2780      6C61795F 
 2780      68656170 
 2780      5F636865 
 2781              	.LASF45:
 2782 041b 73757370 		.ascii	"suspend_list\000"
 2782      656E645F 
 2782      6C697374 
 2782      00
 2783              	.LASF51:
 2784 0428 63686172 		.ascii	"char\000"
 2784      00
 2785              	.LASF78:
 2786 042d 474E5520 		.ascii	"GNU C11 7.3.1 20180622 (release) [ARM/embedded-7-br"
 2786      43313120 
 2786      372E332E 
 2786      31203230 
 2786      31383036 
 2787 0460 616E6368 		.ascii	"anch revision 261907] -mcpu=cortex-m3 -mthumb -mapc"
 2787      20726576 
 2787      6973696F 
 2787      6E203236 
 2787      31393037 
ARM GAS  G:\Users\Jaxb\AppData\Local\Temp\ccWcCVoL.s 			page 57


 2788 0493 732D6672 		.ascii	"s-frame -mthumb-interwork -mcpu=cortex-m3 -mthumb -"
 2788      616D6520 
 2788      2D6D7468 
 2788      756D622D 
 2788      696E7465 
 2789 04c6 67647761 		.ascii	"gdwarf-2 -O2\000"
 2789      72662D32 
 2789      202D4F32 
 2789      00
 2790              	.LASF27:
 2791 04d3 53544154 		.ascii	"STATE_WAIT_MCB_TIMEOUT\000"
 2791      455F5741 
 2791      49545F4D 
 2791      43425F54 
 2791      494D454F 
 2792              	.LASF68:
 2793 04ea 6B615F70 		.ascii	"ka_printf\000"
 2793      72696E74 
 2793      6600
 2794              	.LASF10:
 2795 04f4 7369676E 		.ascii	"signed char\000"
 2795      65642063 
 2795      68617200 
 2796              	.LASF25:
 2797 0500 53544154 		.ascii	"STATE_SUSPEND_NORMAL\000"
 2797      455F5355 
 2797      5350454E 
 2797      445F4E4F 
 2797      524D414C 
 2798              	.LASF82:
 2799 0515 675F696E 		.ascii	"g_interrupt_count\000"
 2799      74657272 
 2799      7570745F 
 2799      636F756E 
 2799      7400
 2800              	.LASF50:
 2801 0527 64656C61 		.ascii	"delay_reach_time\000"
 2801      795F7265 
 2801      6163685F 
 2801      74696D65 
 2801      00
 2802              	.LASF22:
 2803 0538 70726576 		.ascii	"prev\000"
 2803      00
 2804              	.LASF30:
 2805 053d 53544154 		.ascii	"STATE_PUT_MESSAGE_QUEUE_FOREVER\000"
 2805      455F5055 
 2805      545F4D45 
 2805      53534147 
 2805      455F5155 
 2806              	.LASF80:
 2807 055d 473A5C55 		.ascii	"G:\\Users\\Jaxb\\Desktop\\KAKAOS-0.07  2019.2.21  f"
 2807      73657273 
 2807      5C4A6178 
 2807      625C4465 
 2807      736B746F 
 2808 058c 6F722067 		.ascii	"or gcc\\Project\\RVMDK\243\250uv5\243\251\000"
ARM GAS  G:\Users\Jaxb\AppData\Local\Temp\ccWcCVoL.s 			page 58


 2808      63635C50 
 2808      726F6A65 
 2808      63745C52 
 2808      564D444B 
 2809              	.LASF57:
 2810 05a8 64656C61 		.ascii	"delay_heap_get_top_TCB\000"
 2810      795F6865 
 2810      61705F67 
 2810      65745F74 
 2810      6F705F54 
 2811              		.ident	"GCC: (GNU Tools for Arm Embedded Processors 7-2018-q2-update) 7.3.1 20180622 (release) [AR
ARM GAS  G:\Users\Jaxb\AppData\Local\Temp\ccWcCVoL.s 			page 59


DEFINED SYMBOLS
                            *ABS*:00000000 os_delay.c
G:\Users\Jaxb\AppData\Local\Temp\ccWcCVoL.s:15     .text:00000000 $t
G:\Users\Jaxb\AppData\Local\Temp\ccWcCVoL.s:22     .text:00000000 index_change_record
G:\Users\Jaxb\AppData\Local\Temp\ccWcCVoL.s:64     .text:00000014 _cmp
G:\Users\Jaxb\AppData\Local\Temp\ccWcCVoL.s:137    .text:00000060 __init_delay_heap
G:\Users\Jaxb\AppData\Local\Temp\ccWcCVoL.s:181    .text:00000084 $d
G:\Users\Jaxb\AppData\Local\Temp\ccWcCVoL.s:188    .text:00000094 $t
G:\Users\Jaxb\AppData\Local\Temp\ccWcCVoL.s:196    .text:00000094 insert_into_delay_heap
G:\Users\Jaxb\AppData\Local\Temp\ccWcCVoL.s:253    .text:000000c4 $d
G:\Users\Jaxb\AppData\Local\Temp\ccWcCVoL.s:259    .text:000000d0 $t
G:\Users\Jaxb\AppData\Local\Temp\ccWcCVoL.s:267    .text:000000d0 remove_from_delay_heap
G:\Users\Jaxb\AppData\Local\Temp\ccWcCVoL.s:390    .text:0000013c $d
G:\Users\Jaxb\AppData\Local\Temp\ccWcCVoL.s:396    .text:00000148 $t
G:\Users\Jaxb\AppData\Local\Temp\ccWcCVoL.s:404    .text:00000148 delay_heap_get_top_TCB
G:\Users\Jaxb\AppData\Local\Temp\ccWcCVoL.s:443    .text:00000164 $d
G:\Users\Jaxb\AppData\Local\Temp\ccWcCVoL.s:447    .text:00000168 $t
G:\Users\Jaxb\AppData\Local\Temp\ccWcCVoL.s:455    .text:00000168 delay_heap_remove_top_TCB
G:\Users\Jaxb\AppData\Local\Temp\ccWcCVoL.s:494    .text:00000184 $d
G:\Users\Jaxb\AppData\Local\Temp\ccWcCVoL.s:498    .text:00000188 $t
G:\Users\Jaxb\AppData\Local\Temp\ccWcCVoL.s:506    .text:00000188 shell_delay_heap_check
G:\Users\Jaxb\AppData\Local\Temp\ccWcCVoL.s:603    .text:000001f8 $d
G:\Users\Jaxb\AppData\Local\Temp\ccWcCVoL.s:611    .bss:00000000 $d
G:\Users\Jaxb\AppData\Local\Temp\ccWcCVoL.s:615    .bss:00000000 delay_heap
G:\Users\Jaxb\AppData\Local\Temp\ccWcCVoL.s:618    .rodata.str1.4:00000000 $d

UNDEFINED SYMBOLS
Vector_get_index_data
Vector_get_index_address
heap_init
ka_printf
heap_push
_ASSERT
heap_get_cur_len
heap_get_index_data
heap_remove_index_data
insert_ready_TCB
heap_get_index_data_safe
