ARM GAS  G:\Users\Jaxb\AppData\Local\Temp\ccQL58kh.s 			page 1


   1              		.cpu cortex-m3
   2              		.eabi_attribute 20, 1
   3              		.eabi_attribute 21, 1
   4              		.eabi_attribute 23, 3
   5              		.eabi_attribute 24, 1
   6              		.eabi_attribute 25, 1
   7              		.eabi_attribute 26, 1
   8              		.eabi_attribute 30, 6
   9              		.eabi_attribute 34, 1
  10              		.eabi_attribute 18, 4
  11              		.file	"os_delay.c"
  12              		.text
  13              	.Ltext0:
  14              		.cfi_sections	.debug_frame
  15              		.bss
  16              		.align	2
  17              	delay_heap:
  18 0000 00000000 		.space	28
  18      00000000 
  18      00000000 
  18      00000000 
  18      00000000 
  19              		.size	delay_heap, 28
  20              		.text
  21              		.align	1
  22              		.syntax unified
  23              		.thumb
  24              		.thumb_func
  25              		.fpu softvfp
  26              		.type	_cmp, %function
  27              	_cmp:
  28              	.LFB13:
  29              		.file 1 "../../source/src/kernel/OS_CORE/schedule/os_delay.c"
   1:../../source/src/kernel/OS_CORE/schedule/os_delay.c **** #include "os_delay.h"
   2:../../source/src/kernel/OS_CORE/schedule/os_delay.c **** #include "TCB.h"
   3:../../source/src/kernel/OS_CORE/schedule/os_delay.c **** #include "ka_configuration.h"
   4:../../source/src/kernel/OS_CORE/schedule/os_delay.c **** #include "heap_oo.h"
   5:../../source/src/kernel/OS_CORE/schedule/os_delay.c **** #include "myassert.h"
   6:../../source/src/kernel/OS_CORE/schedule/os_delay.c **** #include <os_ready.h>
   7:../../source/src/kernel/OS_CORE/schedule/os_delay.c **** #include "myMicroLIB.h"
   8:../../source/src/kernel/OS_CORE/schedule/os_delay.c **** 
   9:../../source/src/kernel/OS_CORE/schedule/os_delay.c **** #define TIME_FIRST_SMALLER_THAN_SECOND(first,second) ((INT64)(first)-(INT64)(second) < 0)
  10:../../source/src/kernel/OS_CORE/schedule/os_delay.c **** #define TIME_FIRST_BIGGER_THAN_SECOND(first,second)  ((INT64)(first)-(INT64)(second) > 0)
  11:../../source/src/kernel/OS_CORE/schedule/os_delay.c **** 
  12:../../source/src/kernel/OS_CORE/schedule/os_delay.c **** static struct little_heap delay_heap;
  13:../../source/src/kernel/OS_CORE/schedule/os_delay.c **** 
  14:../../source/src/kernel/OS_CORE/schedule/os_delay.c **** //this function is used by delay_heap
  15:../../source/src/kernel/OS_CORE/schedule/os_delay.c **** static int _cmp(Vector *Vector_ptr,unsigned int index1,unsigned int index2)
  16:../../source/src/kernel/OS_CORE/schedule/os_delay.c **** {
  30              		.loc 1 16 0
  31              		.cfi_startproc
  32              		@ args = 0, pretend = 0, frame = 24
  33              		@ frame_needed = 1, uses_anonymous_args = 0
  34 0000 2DE99048 		push	{r4, r7, fp, lr}
  35              	.LCFI0:
  36              		.cfi_def_cfa_offset 16
  37              		.cfi_offset 4, -16
ARM GAS  G:\Users\Jaxb\AppData\Local\Temp\ccQL58kh.s 			page 2


  38              		.cfi_offset 7, -12
  39              		.cfi_offset 11, -8
  40              		.cfi_offset 14, -4
  41 0004 86B0     		sub	sp, sp, #24
  42              	.LCFI1:
  43              		.cfi_def_cfa_offset 40
  44 0006 00AF     		add	r7, sp, #0
  45              	.LCFI2:
  46              		.cfi_def_cfa_register 7
  47 0008 F860     		str	r0, [r7, #12]
  48 000a B960     		str	r1, [r7, #8]
  49 000c 7A60     		str	r2, [r7, #4]
  17:../../source/src/kernel/OS_CORE/schedule/os_delay.c **** 	const TCB **a, **b;
  18:../../source/src/kernel/OS_CORE/schedule/os_delay.c **** 	Vector_get_index_address (Vector_ptr, index1, (void **)&a);
  50              		.loc 1 18 0
  51 000e 07F11403 		add	r3, r7, #20
  52 0012 1A46     		mov	r2, r3
  53 0014 B968     		ldr	r1, [r7, #8]
  54 0016 F868     		ldr	r0, [r7, #12]
  55 0018 FFF7FEFF 		bl	Vector_get_index_address
  19:../../source/src/kernel/OS_CORE/schedule/os_delay.c **** 	Vector_get_index_address (Vector_ptr, index2, (void **)&b);
  56              		.loc 1 19 0
  57 001c 07F11003 		add	r3, r7, #16
  58 0020 1A46     		mov	r2, r3
  59 0022 7968     		ldr	r1, [r7, #4]
  60 0024 F868     		ldr	r0, [r7, #12]
  61 0026 FFF7FEFF 		bl	Vector_get_index_address
  20:../../source/src/kernel/OS_CORE/schedule/os_delay.c **** 	if (TIME_FIRST_SMALLER_THAN_SECOND((*a)->delay_reach_time,(*b)->delay_reach_time))
  62              		.loc 1 20 0
  63 002a 7B69     		ldr	r3, [r7, #20]
  64 002c 1B68     		ldr	r3, [r3]
  65 002e 03F14004 		add	r4, r3, #64
  66 0032 D4E90034 		ldrd	r3, [r4]
  67 0036 1946     		mov	r1, r3
  68 0038 2246     		mov	r2, r4
  69 003a 3B69     		ldr	r3, [r7, #16]
  70 003c 1B68     		ldr	r3, [r3]
  71 003e 03F14004 		add	r4, r3, #64
  72 0042 D4E90034 		ldrd	r3, [r4]
  73 0046 9B46     		mov	fp, r3
  74 0048 A446     		mov	ip, r4
  75 004a 0B46     		mov	r3, r1
  76 004c 1446     		mov	r4, r2
  77 004e B3EB0B03 		subs	r3, r3, fp
  78 0052 64EB0C04 		sbc	r4, r4, ip
  79 0056 002B     		cmp	r3, #0
  80 0058 74F10003 		sbcs	r3, r4, #0
  81 005c 02DA     		bge	.L2
  21:../../source/src/kernel/OS_CORE/schedule/os_delay.c **** 	{
  22:../../source/src/kernel/OS_CORE/schedule/os_delay.c **** 	  return -1;
  82              		.loc 1 22 0
  83 005e 4FF0FF33 		mov	r3, #-1
  84 0062 1CE0     		b	.L5
  85              	.L2:
  23:../../source/src/kernel/OS_CORE/schedule/os_delay.c **** 	}
  24:../../source/src/kernel/OS_CORE/schedule/os_delay.c **** 	else if (TIME_FIRST_BIGGER_THAN_SECOND((*a)->delay_reach_time,(*b)->delay_reach_time))
  86              		.loc 1 24 0
ARM GAS  G:\Users\Jaxb\AppData\Local\Temp\ccQL58kh.s 			page 3


  87 0064 7B69     		ldr	r3, [r7, #20]
  88 0066 1B68     		ldr	r3, [r3]
  89 0068 03F14004 		add	r4, r3, #64
  90 006c D4E90034 		ldrd	r3, [r4]
  91 0070 1946     		mov	r1, r3
  92 0072 2246     		mov	r2, r4
  93 0074 3B69     		ldr	r3, [r7, #16]
  94 0076 1B68     		ldr	r3, [r3]
  95 0078 03F14004 		add	r4, r3, #64
  96 007c D4E90034 		ldrd	r3, [r4]
  97 0080 9B46     		mov	fp, r3
  98 0082 A446     		mov	ip, r4
  99 0084 0B46     		mov	r3, r1
 100 0086 1446     		mov	r4, r2
 101 0088 B3EB0B03 		subs	r3, r3, fp
 102 008c 64EB0C04 		sbc	r4, r4, ip
 103 0090 012B     		cmp	r3, #1
 104 0092 74F10003 		sbcs	r3, r4, #0
 105 0096 01DB     		blt	.L4
  25:../../source/src/kernel/OS_CORE/schedule/os_delay.c **** 	{
  26:../../source/src/kernel/OS_CORE/schedule/os_delay.c **** 	  return 1;
 106              		.loc 1 26 0
 107 0098 0123     		movs	r3, #1
 108 009a 00E0     		b	.L5
 109              	.L4:
  27:../../source/src/kernel/OS_CORE/schedule/os_delay.c **** 	}
  28:../../source/src/kernel/OS_CORE/schedule/os_delay.c **** 	else
  29:../../source/src/kernel/OS_CORE/schedule/os_delay.c **** 	{
  30:../../source/src/kernel/OS_CORE/schedule/os_delay.c **** 	  return 0;
 110              		.loc 1 30 0
 111 009c 0023     		movs	r3, #0
 112              	.L5:
  31:../../source/src/kernel/OS_CORE/schedule/os_delay.c **** 	}
  32:../../source/src/kernel/OS_CORE/schedule/os_delay.c **** }
 113              		.loc 1 32 0 discriminator 1
 114 009e 1846     		mov	r0, r3
 115 00a0 1837     		adds	r7, r7, #24
 116              	.LCFI3:
 117              		.cfi_def_cfa_offset 16
 118 00a2 BD46     		mov	sp, r7
 119              	.LCFI4:
 120              		.cfi_def_cfa_register 13
 121              		@ sp needed
 122 00a4 BDE89088 		pop	{r4, r7, fp, pc}
 123              		.cfi_endproc
 124              	.LFE13:
 125              		.size	_cmp, .-_cmp
 126              		.align	1
 127              		.syntax unified
 128              		.thumb
 129              		.thumb_func
 130              		.fpu softvfp
 131              		.type	index_change_record, %function
 132              	index_change_record:
 133              	.LFB14:
  33:../../source/src/kernel/OS_CORE/schedule/os_delay.c **** 
  34:../../source/src/kernel/OS_CORE/schedule/os_delay.c **** static inline void index_change_record(Vector *Vector_ptr,int index)
ARM GAS  G:\Users\Jaxb\AppData\Local\Temp\ccQL58kh.s 			page 4


  35:../../source/src/kernel/OS_CORE/schedule/os_delay.c **** {
 134              		.loc 1 35 0
 135              		.cfi_startproc
 136              		@ args = 0, pretend = 0, frame = 16
 137              		@ frame_needed = 1, uses_anonymous_args = 0
 138 00a8 80B5     		push	{r7, lr}
 139              	.LCFI5:
 140              		.cfi_def_cfa_offset 8
 141              		.cfi_offset 7, -8
 142              		.cfi_offset 14, -4
 143 00aa 84B0     		sub	sp, sp, #16
 144              	.LCFI6:
 145              		.cfi_def_cfa_offset 24
 146 00ac 00AF     		add	r7, sp, #0
 147              	.LCFI7:
 148              		.cfi_def_cfa_register 7
 149 00ae 7860     		str	r0, [r7, #4]
 150 00b0 3960     		str	r1, [r7]
  36:../../source/src/kernel/OS_CORE/schedule/os_delay.c **** 	TCB *TCB_ptr;
  37:../../source/src/kernel/OS_CORE/schedule/os_delay.c **** 	Vector_get_index_data(Vector_ptr,index,&TCB_ptr);
 151              		.loc 1 37 0
 152 00b2 3B68     		ldr	r3, [r7]
 153 00b4 07F10C02 		add	r2, r7, #12
 154 00b8 1946     		mov	r1, r3
 155 00ba 7868     		ldr	r0, [r7, #4]
 156 00bc FFF7FEFF 		bl	Vector_get_index_data
  38:../../source/src/kernel/OS_CORE/schedule/os_delay.c **** 	TCB_ptr->delay_heap_position = index;
 157              		.loc 1 38 0
 158 00c0 FB68     		ldr	r3, [r7, #12]
 159 00c2 3A68     		ldr	r2, [r7]
 160 00c4 9A61     		str	r2, [r3, #24]
  39:../../source/src/kernel/OS_CORE/schedule/os_delay.c **** }
 161              		.loc 1 39 0
 162 00c6 00BF     		nop
 163 00c8 1037     		adds	r7, r7, #16
 164              	.LCFI8:
 165              		.cfi_def_cfa_offset 8
 166 00ca BD46     		mov	sp, r7
 167              	.LCFI9:
 168              		.cfi_def_cfa_register 13
 169              		@ sp needed
 170 00cc 80BD     		pop	{r7, pc}
 171              		.cfi_endproc
 172              	.LFE14:
 173              		.size	index_change_record, .-index_change_record
 174              		.section	.rodata
 175              		.align	2
 176              	.LC0:
 177 0000 696E6974 		.ascii	"init_delay_heap error!\012stop booting.....\012\000"
 177      5F64656C 
 177      61795F68 
 177      65617020 
 177      6572726F 
 178              		.text
 179              		.align	1
 180              		.global	__init_delay_heap
 181              		.syntax unified
ARM GAS  G:\Users\Jaxb\AppData\Local\Temp\ccQL58kh.s 			page 5


 182              		.thumb
 183              		.thumb_func
 184              		.fpu softvfp
 185              		.type	__init_delay_heap, %function
 186              	__init_delay_heap:
 187              	.LFB15:
  40:../../source/src/kernel/OS_CORE/schedule/os_delay.c **** 	
  41:../../source/src/kernel/OS_CORE/schedule/os_delay.c **** inline void __init_delay_heap(void)
  42:../../source/src/kernel/OS_CORE/schedule/os_delay.c **** {
 188              		.loc 1 42 0
 189              		.cfi_startproc
 190              		@ args = 0, pretend = 0, frame = 0
 191              		@ frame_needed = 1, uses_anonymous_args = 0
 192 00ce 80B5     		push	{r7, lr}
 193              	.LCFI10:
 194              		.cfi_def_cfa_offset 8
 195              		.cfi_offset 7, -8
 196              		.cfi_offset 14, -4
 197 00d0 82B0     		sub	sp, sp, #8
 198              	.LCFI11:
 199              		.cfi_def_cfa_offset 16
 200 00d2 02AF     		add	r7, sp, #8
 201              	.LCFI12:
 202              		.cfi_def_cfa 7, 8
  43:../../source/src/kernel/OS_CORE/schedule/os_delay.c **** 	if(0 != heap_init(&delay_heap,PRIO_MAX/4,sizeof(TCB *),_cmp,index_change_record))
 203              		.loc 1 43 0
 204 00d4 084B     		ldr	r3, .L11
 205 00d6 0093     		str	r3, [sp]
 206 00d8 084B     		ldr	r3, .L11+4
 207 00da 0422     		movs	r2, #4
 208 00dc 1021     		movs	r1, #16
 209 00de 0848     		ldr	r0, .L11+8
 210 00e0 FFF7FEFF 		bl	heap_init
 211 00e4 0346     		mov	r3, r0
 212 00e6 002B     		cmp	r3, #0
 213 00e8 03D0     		beq	.L10
  44:../../source/src/kernel/OS_CORE/schedule/os_delay.c **** 	{
  45:../../source/src/kernel/OS_CORE/schedule/os_delay.c **** 		ka_printf("init_delay_heap error!\nstop booting.....\n");
 214              		.loc 1 45 0
 215 00ea 0648     		ldr	r0, .L11+12
 216 00ec FFF7FEFF 		bl	ka_printf
 217              	.L9:
  46:../../source/src/kernel/OS_CORE/schedule/os_delay.c **** 		while(1);
 218              		.loc 1 46 0 discriminator 1
 219 00f0 FEE7     		b	.L9
 220              	.L10:
  47:../../source/src/kernel/OS_CORE/schedule/os_delay.c **** 		//os stop here
  48:../../source/src/kernel/OS_CORE/schedule/os_delay.c **** 	}
  49:../../source/src/kernel/OS_CORE/schedule/os_delay.c **** }
 221              		.loc 1 49 0
 222 00f2 00BF     		nop
 223 00f4 BD46     		mov	sp, r7
 224              	.LCFI13:
 225              		.cfi_def_cfa_register 13
 226              		@ sp needed
 227 00f6 80BD     		pop	{r7, pc}
 228              	.L12:
ARM GAS  G:\Users\Jaxb\AppData\Local\Temp\ccQL58kh.s 			page 6


 229              		.align	2
 230              	.L11:
 231 00f8 00000000 		.word	index_change_record
 232 00fc 00000000 		.word	_cmp
 233 0100 00000000 		.word	delay_heap
 234 0104 00000000 		.word	.LC0
 235              		.cfi_endproc
 236              	.LFE15:
 237              		.size	__init_delay_heap, .-__init_delay_heap
 238              		.section	.rodata
 239 002a 0000     		.align	2
 240              	.LC1:
 241 002c 2E2E2F2E 		.ascii	"../../source/src/kernel/OS_CORE/schedule/os_delay.c"
 241      2E2F736F 
 241      75726365 
 241      2F737263 
 241      2F6B6572 
 242 005f 00       		.ascii	"\000"
 243              		.align	2
 244              	.LC2:
 245 0060 6572726F 		.ascii	"error fun name : insert_into_delay_heap\012error pa"
 245      72206675 
 245      6E206E61 
 245      6D65203A 
 245      20696E73 
 246 0090 7261203A 		.ascii	"ra : TCB_ptr\012\000"
 246      20544342 
 246      5F707472 
 246      0A00
 247              		.text
 248              		.align	1
 249              		.global	insert_into_delay_heap
 250              		.syntax unified
 251              		.thumb
 252              		.thumb_func
 253              		.fpu softvfp
 254              		.type	insert_into_delay_heap, %function
 255              	insert_into_delay_heap:
 256              	.LFB16:
  50:../../source/src/kernel/OS_CORE/schedule/os_delay.c **** 
  51:../../source/src/kernel/OS_CORE/schedule/os_delay.c **** //before inserting action,os should set the delay_reach_time
  52:../../source/src/kernel/OS_CORE/schedule/os_delay.c **** //this function do not change the task_state of the TCB,os shoule
  53:../../source/src/kernel/OS_CORE/schedule/os_delay.c **** //change it before using this function
  54:../../source/src/kernel/OS_CORE/schedule/os_delay.c **** inline int insert_into_delay_heap(TCB *TCB_ptr)
  55:../../source/src/kernel/OS_CORE/schedule/os_delay.c **** {
 257              		.loc 1 55 0
 258              		.cfi_startproc
 259              		@ args = 0, pretend = 0, frame = 8
 260              		@ frame_needed = 1, uses_anonymous_args = 0
 261 0108 80B5     		push	{r7, lr}
 262              	.LCFI14:
 263              		.cfi_def_cfa_offset 8
 264              		.cfi_offset 7, -8
 265              		.cfi_offset 14, -4
 266 010a 82B0     		sub	sp, sp, #8
 267              	.LCFI15:
 268              		.cfi_def_cfa_offset 16
ARM GAS  G:\Users\Jaxb\AppData\Local\Temp\ccQL58kh.s 			page 7


 269 010c 00AF     		add	r7, sp, #0
 270              	.LCFI16:
 271              		.cfi_def_cfa_register 7
 272 010e 7860     		str	r0, [r7, #4]
  56:../../source/src/kernel/OS_CORE/schedule/os_delay.c **** 	ASSERT(NULL != TCB_ptr);
 273              		.loc 1 56 0
 274 0110 7B68     		ldr	r3, [r7, #4]
 275 0112 002B     		cmp	r3, #0
 276 0114 03D1     		bne	.L14
 277              		.loc 1 56 0 is_stmt 0 discriminator 1
 278 0116 3821     		movs	r1, #56
 279 0118 0A48     		ldr	r0, .L17
 280 011a FFF7FEFF 		bl	_ASSERT
 281              	.L14:
  57:../../source/src/kernel/OS_CORE/schedule/os_delay.c **** #if CONFIG_PARA_CHECK
  58:../../source/src/kernel/OS_CORE/schedule/os_delay.c **** 	if(NULL == TCB_ptr)
 282              		.loc 1 58 0 is_stmt 1
 283 011e 7B68     		ldr	r3, [r7, #4]
 284 0120 002B     		cmp	r3, #0
 285 0122 05D1     		bne	.L15
  59:../../source/src/kernel/OS_CORE/schedule/os_delay.c **** 	{
  60:../../source/src/kernel/OS_CORE/schedule/os_delay.c **** 		OS_ERROR_PARA_MESSAGE_DISPLAY(insert_into_delay_heap,TCB_ptr);
 286              		.loc 1 60 0
 287 0124 0848     		ldr	r0, .L17+4
 288 0126 FFF7FEFF 		bl	ka_printf
  61:../../source/src/kernel/OS_CORE/schedule/os_delay.c **** 		return -ERROR_NULL_INPUT_PTR;
 289              		.loc 1 61 0
 290 012a 6FF0FE03 		mvn	r3, #254
 291 012e 05E0     		b	.L16
 292              	.L15:
  62:../../source/src/kernel/OS_CORE/schedule/os_delay.c **** 	}
  63:../../source/src/kernel/OS_CORE/schedule/os_delay.c **** #endif
  64:../../source/src/kernel/OS_CORE/schedule/os_delay.c **** 	return heap_push(&delay_heap,&TCB_ptr);
 293              		.loc 1 64 0
 294 0130 3B1D     		adds	r3, r7, #4
 295 0132 1946     		mov	r1, r3
 296 0134 0548     		ldr	r0, .L17+8
 297 0136 FFF7FEFF 		bl	heap_push
 298 013a 0346     		mov	r3, r0
 299              	.L16:
  65:../../source/src/kernel/OS_CORE/schedule/os_delay.c **** }
 300              		.loc 1 65 0
 301 013c 1846     		mov	r0, r3
 302 013e 0837     		adds	r7, r7, #8
 303              	.LCFI17:
 304              		.cfi_def_cfa_offset 8
 305 0140 BD46     		mov	sp, r7
 306              	.LCFI18:
 307              		.cfi_def_cfa_register 13
 308              		@ sp needed
 309 0142 80BD     		pop	{r7, pc}
 310              	.L18:
 311              		.align	2
 312              	.L17:
 313 0144 2C000000 		.word	.LC1
 314 0148 60000000 		.word	.LC2
 315 014c 00000000 		.word	delay_heap
ARM GAS  G:\Users\Jaxb\AppData\Local\Temp\ccQL58kh.s 			page 8


 316              		.cfi_endproc
 317              	.LFE16:
 318              		.size	insert_into_delay_heap, .-insert_into_delay_heap
 319              		.section	.rodata
 320 009e 0000     		.align	2
 321              	.LC3:
 322 00a0 6572726F 		.ascii	"error fun name : remove_from_delay_heap\012error pa"
 322      72206675 
 322      6E206E61 
 322      6D65203A 
 322      2072656D 
 323 00d0 7261203A 		.ascii	"ra : TCB_ptr\012\000"
 323      20544342 
 323      5F707472 
 323      0A00
 324              		.text
 325              		.align	1
 326              		.global	remove_from_delay_heap
 327              		.syntax unified
 328              		.thumb
 329              		.thumb_func
 330              		.fpu softvfp
 331              		.type	remove_from_delay_heap, %function
 332              	remove_from_delay_heap:
 333              	.LFB17:
  66:../../source/src/kernel/OS_CORE/schedule/os_delay.c **** 
  67:../../source/src/kernel/OS_CORE/schedule/os_delay.c **** int remove_from_delay_heap(TCB *TCB_ptr)
  68:../../source/src/kernel/OS_CORE/schedule/os_delay.c **** {
 334              		.loc 1 68 0
 335              		.cfi_startproc
 336              		@ args = 0, pretend = 0, frame = 24
 337              		@ frame_needed = 1, uses_anonymous_args = 0
 338 0150 80B5     		push	{r7, lr}
 339              	.LCFI19:
 340              		.cfi_def_cfa_offset 8
 341              		.cfi_offset 7, -8
 342              		.cfi_offset 14, -4
 343 0152 86B0     		sub	sp, sp, #24
 344              	.LCFI20:
 345              		.cfi_def_cfa_offset 32
 346 0154 00AF     		add	r7, sp, #0
 347              	.LCFI21:
 348              		.cfi_def_cfa_register 7
 349 0156 7860     		str	r0, [r7, #4]
  69:../../source/src/kernel/OS_CORE/schedule/os_delay.c **** 	ASSERT(NULL != TCB_ptr);
 350              		.loc 1 69 0
 351 0158 7B68     		ldr	r3, [r7, #4]
 352 015a 002B     		cmp	r3, #0
 353 015c 03D1     		bne	.L20
 354              		.loc 1 69 0 is_stmt 0 discriminator 1
 355 015e 4521     		movs	r1, #69
 356 0160 1E48     		ldr	r0, .L28
 357 0162 FFF7FEFF 		bl	_ASSERT
 358              	.L20:
  70:../../source/src/kernel/OS_CORE/schedule/os_delay.c **** #if CONFIG_PARA_CHECK
  71:../../source/src/kernel/OS_CORE/schedule/os_delay.c **** 	if(NULL == TCB_ptr)
 359              		.loc 1 71 0 is_stmt 1
ARM GAS  G:\Users\Jaxb\AppData\Local\Temp\ccQL58kh.s 			page 9


 360 0166 7B68     		ldr	r3, [r7, #4]
 361 0168 002B     		cmp	r3, #0
 362 016a 05D1     		bne	.L21
  72:../../source/src/kernel/OS_CORE/schedule/os_delay.c **** 	{
  73:../../source/src/kernel/OS_CORE/schedule/os_delay.c **** 		OS_ERROR_PARA_MESSAGE_DISPLAY(remove_from_delay_heap,TCB_ptr);
 363              		.loc 1 73 0
 364 016c 1C48     		ldr	r0, .L28+4
 365 016e FFF7FEFF 		bl	ka_printf
  74:../../source/src/kernel/OS_CORE/schedule/os_delay.c **** 		return -ERROR_NULL_INPUT_PTR;
 366              		.loc 1 74 0
 367 0172 6FF0FE03 		mvn	r3, #254
 368 0176 2CE0     		b	.L27
 369              	.L21:
  75:../../source/src/kernel/OS_CORE/schedule/os_delay.c **** 	}
  76:../../source/src/kernel/OS_CORE/schedule/os_delay.c **** #endif
  77:../../source/src/kernel/OS_CORE/schedule/os_delay.c **** 	TCB *TCB_ptr_buffer;
  78:../../source/src/kernel/OS_CORE/schedule/os_delay.c **** 	int i;
  79:../../source/src/kernel/OS_CORE/schedule/os_delay.c **** 	int ret;
  80:../../source/src/kernel/OS_CORE/schedule/os_delay.c **** 	int len = heap_get_cur_len(&delay_heap);
 370              		.loc 1 80 0
 371 0178 1A48     		ldr	r0, .L28+8
 372 017a FFF7FEFF 		bl	heap_get_cur_len
 373 017e 0346     		mov	r3, r0
 374 0180 3B61     		str	r3, [r7, #16]
  81:../../source/src/kernel/OS_CORE/schedule/os_delay.c **** 	for(i=1;i<len;++i) // check from first to the end
 375              		.loc 1 81 0
 376 0182 0123     		movs	r3, #1
 377 0184 7B61     		str	r3, [r7, #20]
 378 0186 1EE0     		b	.L23
 379              	.L26:
  82:../../source/src/kernel/OS_CORE/schedule/os_delay.c **** 	{
  83:../../source/src/kernel/OS_CORE/schedule/os_delay.c **** 		heap_get_index_data(&delay_heap,&TCB_ptr_buffer,i);
 380              		.loc 1 83 0
 381 0188 7A69     		ldr	r2, [r7, #20]
 382 018a 07F10803 		add	r3, r7, #8
 383 018e 1946     		mov	r1, r3
 384 0190 1448     		ldr	r0, .L28+8
 385 0192 FFF7FEFF 		bl	heap_get_index_data
  84:../../source/src/kernel/OS_CORE/schedule/os_delay.c **** 		if(TCB_ptr == TCB_ptr_buffer)
 386              		.loc 1 84 0
 387 0196 BB68     		ldr	r3, [r7, #8]
 388 0198 7A68     		ldr	r2, [r7, #4]
 389 019a 9A42     		cmp	r2, r3
 390 019c 10D1     		bne	.L24
  85:../../source/src/kernel/OS_CORE/schedule/os_delay.c **** 		{
  86:../../source/src/kernel/OS_CORE/schedule/os_delay.c **** 			ret = heap_remove_index_data(&delay_heap,i,NULL);
 391              		.loc 1 86 0
 392 019e 7B69     		ldr	r3, [r7, #20]
 393 01a0 0022     		movs	r2, #0
 394 01a2 1946     		mov	r1, r3
 395 01a4 0F48     		ldr	r0, .L28+8
 396 01a6 FFF7FEFF 		bl	heap_remove_index_data
 397 01aa F860     		str	r0, [r7, #12]
  87:../../source/src/kernel/OS_CORE/schedule/os_delay.c **** 			if(0 != ret)
 398              		.loc 1 87 0
 399 01ac FB68     		ldr	r3, [r7, #12]
 400 01ae 002B     		cmp	r3, #0
ARM GAS  G:\Users\Jaxb\AppData\Local\Temp\ccQL58kh.s 			page 10


 401 01b0 01D0     		beq	.L25
  88:../../source/src/kernel/OS_CORE/schedule/os_delay.c **** 			{
  89:../../source/src/kernel/OS_CORE/schedule/os_delay.c **** 				return ret;
 402              		.loc 1 89 0
 403 01b2 FB68     		ldr	r3, [r7, #12]
 404 01b4 0DE0     		b	.L27
 405              	.L25:
  90:../../source/src/kernel/OS_CORE/schedule/os_delay.c **** 			}
  91:../../source/src/kernel/OS_CORE/schedule/os_delay.c **** 			insert_ready_TCB(TCB_ptr);
 406              		.loc 1 91 0
 407 01b6 7868     		ldr	r0, [r7, #4]
 408 01b8 FFF7FEFF 		bl	insert_ready_TCB
  92:../../source/src/kernel/OS_CORE/schedule/os_delay.c **** 			return FUN_EXECUTE_SUCCESSFULLY;
 409              		.loc 1 92 0
 410 01bc 0023     		movs	r3, #0
 411 01be 08E0     		b	.L27
 412              	.L24:
  81:../../source/src/kernel/OS_CORE/schedule/os_delay.c **** 	{
 413              		.loc 1 81 0 discriminator 2
 414 01c0 7B69     		ldr	r3, [r7, #20]
 415 01c2 0133     		adds	r3, r3, #1
 416 01c4 7B61     		str	r3, [r7, #20]
 417              	.L23:
  81:../../source/src/kernel/OS_CORE/schedule/os_delay.c **** 	{
 418              		.loc 1 81 0 is_stmt 0 discriminator 1
 419 01c6 7A69     		ldr	r2, [r7, #20]
 420 01c8 3B69     		ldr	r3, [r7, #16]
 421 01ca 9A42     		cmp	r2, r3
 422 01cc DCDB     		blt	.L26
  93:../../source/src/kernel/OS_CORE/schedule/os_delay.c **** 		}
  94:../../source/src/kernel/OS_CORE/schedule/os_delay.c **** 	}
  95:../../source/src/kernel/OS_CORE/schedule/os_delay.c **** 	return -ERROR_VALUELESS_INPUT;
 423              		.loc 1 95 0 is_stmt 1
 424 01ce 6FF0FD03 		mvn	r3, #253
 425              	.L27:
  96:../../source/src/kernel/OS_CORE/schedule/os_delay.c **** }
 426              		.loc 1 96 0 discriminator 1
 427 01d2 1846     		mov	r0, r3
 428 01d4 1837     		adds	r7, r7, #24
 429              	.LCFI22:
 430              		.cfi_def_cfa_offset 8
 431 01d6 BD46     		mov	sp, r7
 432              	.LCFI23:
 433              		.cfi_def_cfa_register 13
 434              		@ sp needed
 435 01d8 80BD     		pop	{r7, pc}
 436              	.L29:
 437 01da 00BF     		.align	2
 438              	.L28:
 439 01dc 2C000000 		.word	.LC1
 440 01e0 A0000000 		.word	.LC3
 441 01e4 00000000 		.word	delay_heap
 442              		.cfi_endproc
 443              	.LFE17:
 444              		.size	remove_from_delay_heap, .-remove_from_delay_heap
 445              		.align	1
 446              		.global	delay_heap_get_top_TCB
ARM GAS  G:\Users\Jaxb\AppData\Local\Temp\ccQL58kh.s 			page 11


 447              		.syntax unified
 448              		.thumb
 449              		.thumb_func
 450              		.fpu softvfp
 451              		.type	delay_heap_get_top_TCB, %function
 452              	delay_heap_get_top_TCB:
 453              	.LFB18:
  97:../../source/src/kernel/OS_CORE/schedule/os_delay.c **** 
  98:../../source/src/kernel/OS_CORE/schedule/os_delay.c **** inline TCB* delay_heap_get_top_TCB(void)
  99:../../source/src/kernel/OS_CORE/schedule/os_delay.c **** {
 454              		.loc 1 99 0
 455              		.cfi_startproc
 456              		@ args = 0, pretend = 0, frame = 8
 457              		@ frame_needed = 1, uses_anonymous_args = 0
 458 01e8 80B5     		push	{r7, lr}
 459              	.LCFI24:
 460              		.cfi_def_cfa_offset 8
 461              		.cfi_offset 7, -8
 462              		.cfi_offset 14, -4
 463 01ea 82B0     		sub	sp, sp, #8
 464              	.LCFI25:
 465              		.cfi_def_cfa_offset 16
 466 01ec 00AF     		add	r7, sp, #0
 467              	.LCFI26:
 468              		.cfi_def_cfa_register 7
 100:../../source/src/kernel/OS_CORE/schedule/os_delay.c **** 	//TCB *TCB_ptr;
 101:../../source/src/kernel/OS_CORE/schedule/os_delay.c **** 	TCB *TCB_ptr;
 102:../../source/src/kernel/OS_CORE/schedule/os_delay.c **** 	if(0 != heap_get_top_safe(&delay_heap,&TCB_ptr))
 469              		.loc 1 102 0
 470 01ee 3B1D     		adds	r3, r7, #4
 471 01f0 0122     		movs	r2, #1
 472 01f2 1946     		mov	r1, r3
 473 01f4 0648     		ldr	r0, .L34
 474 01f6 FFF7FEFF 		bl	heap_get_index_data_safe
 475 01fa 0346     		mov	r3, r0
 476 01fc 002B     		cmp	r3, #0
 477 01fe 01D0     		beq	.L31
 103:../../source/src/kernel/OS_CORE/schedule/os_delay.c **** 	{
 104:../../source/src/kernel/OS_CORE/schedule/os_delay.c **** 		return NULL;
 478              		.loc 1 104 0
 479 0200 0023     		movs	r3, #0
 480 0202 00E0     		b	.L33
 481              	.L31:
 105:../../source/src/kernel/OS_CORE/schedule/os_delay.c **** 	}
 106:../../source/src/kernel/OS_CORE/schedule/os_delay.c **** 	return TCB_ptr;
 482              		.loc 1 106 0
 483 0204 7B68     		ldr	r3, [r7, #4]
 484              	.L33:
 107:../../source/src/kernel/OS_CORE/schedule/os_delay.c **** }
 485              		.loc 1 107 0 discriminator 1
 486 0206 1846     		mov	r0, r3
 487 0208 0837     		adds	r7, r7, #8
 488              	.LCFI27:
 489              		.cfi_def_cfa_offset 8
 490 020a BD46     		mov	sp, r7
 491              	.LCFI28:
 492              		.cfi_def_cfa_register 13
ARM GAS  G:\Users\Jaxb\AppData\Local\Temp\ccQL58kh.s 			page 12


 493              		@ sp needed
 494 020c 80BD     		pop	{r7, pc}
 495              	.L35:
 496 020e 00BF     		.align	2
 497              	.L34:
 498 0210 00000000 		.word	delay_heap
 499              		.cfi_endproc
 500              	.LFE18:
 501              		.size	delay_heap_get_top_TCB, .-delay_heap_get_top_TCB
 502              		.align	1
 503              		.global	delay_heap_remove_top_TCB
 504              		.syntax unified
 505              		.thumb
 506              		.thumb_func
 507              		.fpu softvfp
 508              		.type	delay_heap_remove_top_TCB, %function
 509              	delay_heap_remove_top_TCB:
 510              	.LFB19:
 108:../../source/src/kernel/OS_CORE/schedule/os_delay.c **** 
 109:../../source/src/kernel/OS_CORE/schedule/os_delay.c **** inline TCB* delay_heap_remove_top_TCB(void)
 110:../../source/src/kernel/OS_CORE/schedule/os_delay.c **** {
 511              		.loc 1 110 0
 512              		.cfi_startproc
 513              		@ args = 0, pretend = 0, frame = 8
 514              		@ frame_needed = 1, uses_anonymous_args = 0
 515 0214 80B5     		push	{r7, lr}
 516              	.LCFI29:
 517              		.cfi_def_cfa_offset 8
 518              		.cfi_offset 7, -8
 519              		.cfi_offset 14, -4
 520 0216 82B0     		sub	sp, sp, #8
 521              	.LCFI30:
 522              		.cfi_def_cfa_offset 16
 523 0218 00AF     		add	r7, sp, #0
 524              	.LCFI31:
 525              		.cfi_def_cfa_register 7
 111:../../source/src/kernel/OS_CORE/schedule/os_delay.c **** 	TCB *TCB_ptr;
 112:../../source/src/kernel/OS_CORE/schedule/os_delay.c **** 	if(0 != heap_remove_top(&delay_heap,&TCB_ptr))
 526              		.loc 1 112 0
 527 021a 3B1D     		adds	r3, r7, #4
 528 021c 1A46     		mov	r2, r3
 529 021e 0121     		movs	r1, #1
 530 0220 0648     		ldr	r0, .L40
 531 0222 FFF7FEFF 		bl	heap_remove_index_data
 532 0226 0346     		mov	r3, r0
 533 0228 002B     		cmp	r3, #0
 534 022a 01D0     		beq	.L37
 113:../../source/src/kernel/OS_CORE/schedule/os_delay.c **** 	{
 114:../../source/src/kernel/OS_CORE/schedule/os_delay.c **** 		return NULL;
 535              		.loc 1 114 0
 536 022c 0023     		movs	r3, #0
 537 022e 00E0     		b	.L39
 538              	.L37:
 115:../../source/src/kernel/OS_CORE/schedule/os_delay.c **** 	}
 116:../../source/src/kernel/OS_CORE/schedule/os_delay.c **** 	return TCB_ptr;
 539              		.loc 1 116 0
 540 0230 7B68     		ldr	r3, [r7, #4]
ARM GAS  G:\Users\Jaxb\AppData\Local\Temp\ccQL58kh.s 			page 13


 541              	.L39:
 117:../../source/src/kernel/OS_CORE/schedule/os_delay.c **** }
 542              		.loc 1 117 0 discriminator 1
 543 0232 1846     		mov	r0, r3
 544 0234 0837     		adds	r7, r7, #8
 545              	.LCFI32:
 546              		.cfi_def_cfa_offset 8
 547 0236 BD46     		mov	sp, r7
 548              	.LCFI33:
 549              		.cfi_def_cfa_register 13
 550              		@ sp needed
 551 0238 80BD     		pop	{r7, pc}
 552              	.L41:
 553 023a 00BF     		.align	2
 554              	.L40:
 555 023c 00000000 		.word	delay_heap
 556              		.cfi_endproc
 557              	.LFE19:
 558              		.size	delay_heap_remove_top_TCB, .-delay_heap_remove_top_TCB
 559              		.section	.rodata
 560 00de 0000     		.align	2
 561              	.LC4:
 562 00e0 6E6F7720 		.ascii	"now start checking delay_heap\012\000"
 562      73746172 
 562      74206368 
 562      65636B69 
 562      6E672064 
 563 00ff 00       		.align	2
 564              	.LC5:
 565 0100 68656170 		.ascii	"heap member %u has incorrect position with member %"
 565      206D656D 
 565      62657220 
 565      25752068 
 565      61732069 
 566 0133 750A00   		.ascii	"u\012\000"
 567 0136 0000     		.align	2
 568              	.LC6:
 569 0138 64656C61 		.ascii	"delay_heap check complete\012\000"
 569      795F6865 
 569      61702063 
 569      6865636B 
 569      20636F6D 
 570              		.text
 571              		.align	1
 572              		.global	shell_delay_heap_check
 573              		.syntax unified
 574              		.thumb
 575              		.thumb_func
 576              		.fpu softvfp
 577              		.type	shell_delay_heap_check, %function
 578              	shell_delay_heap_check:
 579              	.LFB20:
 118:../../source/src/kernel/OS_CORE/schedule/os_delay.c **** 
 119:../../source/src/kernel/OS_CORE/schedule/os_delay.c **** #if CONFIG_SHELL_EN
 120:../../source/src/kernel/OS_CORE/schedule/os_delay.c **** void shell_delay_heap_check(void)
 121:../../source/src/kernel/OS_CORE/schedule/os_delay.c **** {
 580              		.loc 1 121 0
ARM GAS  G:\Users\Jaxb\AppData\Local\Temp\ccQL58kh.s 			page 14


 581              		.cfi_startproc
 582              		@ args = 0, pretend = 0, frame = 16
 583              		@ frame_needed = 1, uses_anonymous_args = 0
 584 0240 2DE99048 		push	{r4, r7, fp, lr}
 585              	.LCFI34:
 586              		.cfi_def_cfa_offset 16
 587              		.cfi_offset 4, -16
 588              		.cfi_offset 7, -12
 589              		.cfi_offset 11, -8
 590              		.cfi_offset 14, -4
 591 0244 84B0     		sub	sp, sp, #16
 592              	.LCFI35:
 593              		.cfi_def_cfa_offset 32
 594 0246 00AF     		add	r7, sp, #0
 595              	.LCFI36:
 596              		.cfi_def_cfa_register 7
 122:../../source/src/kernel/OS_CORE/schedule/os_delay.c **** 	TCB *TCB_ptr1,*TCB_ptr2;
 123:../../source/src/kernel/OS_CORE/schedule/os_delay.c **** 	unsigned int len;
 124:../../source/src/kernel/OS_CORE/schedule/os_delay.c **** 	unsigned int i;
 125:../../source/src/kernel/OS_CORE/schedule/os_delay.c **** 	len = heap_get_cur_len(&delay_heap);
 597              		.loc 1 125 0
 598 0248 2248     		ldr	r0, .L46
 599 024a FFF7FEFF 		bl	heap_get_cur_len
 600 024e B860     		str	r0, [r7, #8]
 126:../../source/src/kernel/OS_CORE/schedule/os_delay.c **** 	ka_printf("now start checking delay_heap\n");
 601              		.loc 1 126 0
 602 0250 2148     		ldr	r0, .L46+4
 603 0252 FFF7FEFF 		bl	ka_printf
 127:../../source/src/kernel/OS_CORE/schedule/os_delay.c **** 	for(i=len-1;i>0;--i)
 604              		.loc 1 127 0
 605 0256 BB68     		ldr	r3, [r7, #8]
 606 0258 013B     		subs	r3, r3, #1
 607 025a FB60     		str	r3, [r7, #12]
 608 025c 2EE0     		b	.L43
 609              	.L45:
 128:../../source/src/kernel/OS_CORE/schedule/os_delay.c **** 	{
 129:../../source/src/kernel/OS_CORE/schedule/os_delay.c **** 		heap_get_index_data(&delay_heap,&TCB_ptr1,i);
 610              		.loc 1 129 0
 611 025e 3B1D     		adds	r3, r7, #4
 612 0260 FA68     		ldr	r2, [r7, #12]
 613 0262 1946     		mov	r1, r3
 614 0264 1B48     		ldr	r0, .L46
 615 0266 FFF7FEFF 		bl	heap_get_index_data
 130:../../source/src/kernel/OS_CORE/schedule/os_delay.c **** 		heap_get_index_data(&delay_heap,&TCB_ptr2,i/2);
 616              		.loc 1 130 0
 617 026a FB68     		ldr	r3, [r7, #12]
 618 026c 5A08     		lsrs	r2, r3, #1
 619 026e 3B46     		mov	r3, r7
 620 0270 1946     		mov	r1, r3
 621 0272 1848     		ldr	r0, .L46
 622 0274 FFF7FEFF 		bl	heap_get_index_data
 131:../../source/src/kernel/OS_CORE/schedule/os_delay.c **** 		if(TIME_FIRST_SMALLER_THAN_SECOND(TCB_ptr1->delay_reach_time,TCB_ptr2->delay_reach_time))
 623              		.loc 1 131 0
 624 0278 7B68     		ldr	r3, [r7, #4]
 625 027a 03F14004 		add	r4, r3, #64
 626 027e D4E90034 		ldrd	r3, [r4]
 627 0282 1946     		mov	r1, r3
ARM GAS  G:\Users\Jaxb\AppData\Local\Temp\ccQL58kh.s 			page 15


 628 0284 2246     		mov	r2, r4
 629 0286 3B68     		ldr	r3, [r7]
 630 0288 03F14004 		add	r4, r3, #64
 631 028c D4E90034 		ldrd	r3, [r4]
 632 0290 9B46     		mov	fp, r3
 633 0292 A446     		mov	ip, r4
 634 0294 0B46     		mov	r3, r1
 635 0296 1446     		mov	r4, r2
 636 0298 B3EB0B03 		subs	r3, r3, fp
 637 029c 64EB0C04 		sbc	r4, r4, ip
 638 02a0 002B     		cmp	r3, #0
 639 02a2 74F10003 		sbcs	r3, r4, #0
 640 02a6 06DA     		bge	.L44
 132:../../source/src/kernel/OS_CORE/schedule/os_delay.c **** 		{
 133:../../source/src/kernel/OS_CORE/schedule/os_delay.c **** 			ka_printf("heap member %u has incorrect position with member %u\n",i,i/2);
 641              		.loc 1 133 0
 642 02a8 FB68     		ldr	r3, [r7, #12]
 643 02aa 5B08     		lsrs	r3, r3, #1
 644 02ac 1A46     		mov	r2, r3
 645 02ae F968     		ldr	r1, [r7, #12]
 646 02b0 0A48     		ldr	r0, .L46+8
 647 02b2 FFF7FEFF 		bl	ka_printf
 648              	.L44:
 127:../../source/src/kernel/OS_CORE/schedule/os_delay.c **** 	{
 649              		.loc 1 127 0 discriminator 2
 650 02b6 FB68     		ldr	r3, [r7, #12]
 651 02b8 013B     		subs	r3, r3, #1
 652 02ba FB60     		str	r3, [r7, #12]
 653              	.L43:
 127:../../source/src/kernel/OS_CORE/schedule/os_delay.c **** 	{
 654              		.loc 1 127 0 is_stmt 0 discriminator 1
 655 02bc FB68     		ldr	r3, [r7, #12]
 656 02be 002B     		cmp	r3, #0
 657 02c0 CDD1     		bne	.L45
 134:../../source/src/kernel/OS_CORE/schedule/os_delay.c **** 		}
 135:../../source/src/kernel/OS_CORE/schedule/os_delay.c **** 	}
 136:../../source/src/kernel/OS_CORE/schedule/os_delay.c **** 	ka_printf("delay_heap check complete\n");
 658              		.loc 1 136 0 is_stmt 1
 659 02c2 0748     		ldr	r0, .L46+12
 660 02c4 FFF7FEFF 		bl	ka_printf
 137:../../source/src/kernel/OS_CORE/schedule/os_delay.c **** }
 661              		.loc 1 137 0
 662 02c8 00BF     		nop
 663 02ca 1037     		adds	r7, r7, #16
 664              	.LCFI37:
 665              		.cfi_def_cfa_offset 16
 666 02cc BD46     		mov	sp, r7
 667              	.LCFI38:
 668              		.cfi_def_cfa_register 13
 669              		@ sp needed
 670 02ce BDE89088 		pop	{r4, r7, fp, pc}
 671              	.L47:
 672 02d2 00BF     		.align	2
 673              	.L46:
 674 02d4 00000000 		.word	delay_heap
 675 02d8 E0000000 		.word	.LC4
 676 02dc 00010000 		.word	.LC5
ARM GAS  G:\Users\Jaxb\AppData\Local\Temp\ccQL58kh.s 			page 16


 677 02e0 38010000 		.word	.LC6
 678              		.cfi_endproc
 679              	.LFE20:
 680              		.size	shell_delay_heap_check, .-shell_delay_heap_check
 681              	.Letext0:
 682              		.file 2 "../../source/include/os_lib/vector.h"
 683              		.file 3 "../../source/include/os_lib/heap_oo.h"
 684              		.file 4 "../../source/include/os_cpu/kakaosstdint.h"
 685              		.file 5 "../../source/include/os_lib/double_linked_list.h"
 686              		.file 6 "../../source/include/os_core/task_state.h"
 687              		.file 7 "../../source/include/os_core/TCB.h"