ARM GAS  G:\Users\Jaxb\AppData\Local\Temp\cc7U8HMJ.s 			page 1


   1              		.cpu cortex-m3
   2              		.eabi_attribute 20, 1
   3              		.eabi_attribute 21, 1
   4              		.eabi_attribute 23, 3
   5              		.eabi_attribute 24, 1
   6              		.eabi_attribute 25, 1
   7              		.eabi_attribute 26, 1
   8              		.eabi_attribute 30, 6
   9              		.eabi_attribute 34, 1
  10              		.eabi_attribute 18, 4
  11              		.file	"os_delay.c"
  12              		.text
  13              	.Ltext0:
  14              		.cfi_sections	.debug_frame
  15              		.bss
  16              		.align	2
  17              	delay_heap:
  18 0000 00000000 		.space	28
  18      00000000 
  18      00000000 
  18      00000000 
  18      00000000 
  19              		.size	delay_heap, 28
  20              		.text
  21              		.align	1
  22              		.syntax unified
  23              		.thumb
  24              		.thumb_func
  25              		.fpu softvfp
  26              		.type	_cmp, %function
  27              	_cmp:
  28              	.LFB12:
  29              		.file 1 "../../source/src/kernel/OS_CORE/schedule/os_delay.c"
   1:../../source/src/kernel/OS_CORE/schedule/os_delay.c **** #include "os_delay.h"
   2:../../source/src/kernel/OS_CORE/schedule/os_delay.c **** #include "TCB.h"
   3:../../source/src/kernel/OS_CORE/schedule/os_delay.c **** #include "ka_configuration.h"
   4:../../source/src/kernel/OS_CORE/schedule/os_delay.c **** #include "heap_oo.h"
   5:../../source/src/kernel/OS_CORE/schedule/os_delay.c **** #include "myassert.h"
   6:../../source/src/kernel/OS_CORE/schedule/os_delay.c **** #include <os_ready.h>
   7:../../source/src/kernel/OS_CORE/schedule/os_delay.c **** #include "myMicroLIB.h"
   8:../../source/src/kernel/OS_CORE/schedule/os_delay.c **** 
   9:../../source/src/kernel/OS_CORE/schedule/os_delay.c **** #define TIME_FIRST_SMALLER_THAN_SECOND(first,second) ((INT64)(first)-(INT64)(second) < 0)
  10:../../source/src/kernel/OS_CORE/schedule/os_delay.c **** #define TIME_FIRST_BIGGER_THAN_SECOND(first,second)  ((INT64)(first)-(INT64)(second) > 0)
  11:../../source/src/kernel/OS_CORE/schedule/os_delay.c **** 
  12:../../source/src/kernel/OS_CORE/schedule/os_delay.c **** static struct little_heap delay_heap;
  13:../../source/src/kernel/OS_CORE/schedule/os_delay.c **** 
  14:../../source/src/kernel/OS_CORE/schedule/os_delay.c **** //this function is used by delay_heap
  15:../../source/src/kernel/OS_CORE/schedule/os_delay.c **** static int _cmp(Vector *Vector_ptr,unsigned int index1,unsigned int index2)
  16:../../source/src/kernel/OS_CORE/schedule/os_delay.c **** {
  30              		.loc 1 16 0
  31              		.cfi_startproc
  32              		@ args = 0, pretend = 0, frame = 24
  33              		@ frame_needed = 1, uses_anonymous_args = 0
  34 0000 2DE99048 		push	{r4, r7, fp, lr}
  35              	.LCFI0:
  36              		.cfi_def_cfa_offset 16
  37              		.cfi_offset 4, -16
ARM GAS  G:\Users\Jaxb\AppData\Local\Temp\cc7U8HMJ.s 			page 2


  38              		.cfi_offset 7, -12
  39              		.cfi_offset 11, -8
  40              		.cfi_offset 14, -4
  41 0004 86B0     		sub	sp, sp, #24
  42              	.LCFI1:
  43              		.cfi_def_cfa_offset 40
  44 0006 00AF     		add	r7, sp, #0
  45              	.LCFI2:
  46              		.cfi_def_cfa_register 7
  47 0008 F860     		str	r0, [r7, #12]
  48 000a B960     		str	r1, [r7, #8]
  49 000c 7A60     		str	r2, [r7, #4]
  17:../../source/src/kernel/OS_CORE/schedule/os_delay.c **** 	const TCB **a, **b;
  18:../../source/src/kernel/OS_CORE/schedule/os_delay.c **** 	Vector_get_index_address (Vector_ptr, index1, (void **)&a);
  50              		.loc 1 18 0
  51 000e 07F11403 		add	r3, r7, #20
  52 0012 1A46     		mov	r2, r3
  53 0014 B968     		ldr	r1, [r7, #8]
  54 0016 F868     		ldr	r0, [r7, #12]
  55 0018 FFF7FEFF 		bl	Vector_get_index_address
  19:../../source/src/kernel/OS_CORE/schedule/os_delay.c **** 	Vector_get_index_address (Vector_ptr, index2, (void **)&b);
  56              		.loc 1 19 0
  57 001c 07F11003 		add	r3, r7, #16
  58 0020 1A46     		mov	r2, r3
  59 0022 7968     		ldr	r1, [r7, #4]
  60 0024 F868     		ldr	r0, [r7, #12]
  61 0026 FFF7FEFF 		bl	Vector_get_index_address
  20:../../source/src/kernel/OS_CORE/schedule/os_delay.c **** 	if (TIME_FIRST_SMALLER_THAN_SECOND((*a)->delay_reach_time,(*b)->delay_reach_time))
  62              		.loc 1 20 0
  63 002a 7B69     		ldr	r3, [r7, #20]
  64 002c 1B68     		ldr	r3, [r3]
  65 002e 03F14004 		add	r4, r3, #64
  66 0032 D4E90034 		ldrd	r3, [r4]
  67 0036 1946     		mov	r1, r3
  68 0038 2246     		mov	r2, r4
  69 003a 3B69     		ldr	r3, [r7, #16]
  70 003c 1B68     		ldr	r3, [r3]
  71 003e 03F14004 		add	r4, r3, #64
  72 0042 D4E90034 		ldrd	r3, [r4]
  73 0046 9B46     		mov	fp, r3
  74 0048 A446     		mov	ip, r4
  75 004a 0B46     		mov	r3, r1
  76 004c 1446     		mov	r4, r2
  77 004e B3EB0B03 		subs	r3, r3, fp
  78 0052 64EB0C04 		sbc	r4, r4, ip
  79 0056 002B     		cmp	r3, #0
  80 0058 74F10003 		sbcs	r3, r4, #0
  81 005c 02DA     		bge	.L2
  21:../../source/src/kernel/OS_CORE/schedule/os_delay.c **** 	{
  22:../../source/src/kernel/OS_CORE/schedule/os_delay.c **** 	  return -1;
  82              		.loc 1 22 0
  83 005e 4FF0FF33 		mov	r3, #-1
  84 0062 1CE0     		b	.L5
  85              	.L2:
  23:../../source/src/kernel/OS_CORE/schedule/os_delay.c **** 	}
  24:../../source/src/kernel/OS_CORE/schedule/os_delay.c **** 	else if (TIME_FIRST_BIGGER_THAN_SECOND((*a)->delay_reach_time,(*b)->delay_reach_time))
  86              		.loc 1 24 0
ARM GAS  G:\Users\Jaxb\AppData\Local\Temp\cc7U8HMJ.s 			page 3


  87 0064 7B69     		ldr	r3, [r7, #20]
  88 0066 1B68     		ldr	r3, [r3]
  89 0068 03F14004 		add	r4, r3, #64
  90 006c D4E90034 		ldrd	r3, [r4]
  91 0070 1946     		mov	r1, r3
  92 0072 2246     		mov	r2, r4
  93 0074 3B69     		ldr	r3, [r7, #16]
  94 0076 1B68     		ldr	r3, [r3]
  95 0078 03F14004 		add	r4, r3, #64
  96 007c D4E90034 		ldrd	r3, [r4]
  97 0080 9B46     		mov	fp, r3
  98 0082 A446     		mov	ip, r4
  99 0084 0B46     		mov	r3, r1
 100 0086 1446     		mov	r4, r2
 101 0088 B3EB0B03 		subs	r3, r3, fp
 102 008c 64EB0C04 		sbc	r4, r4, ip
 103 0090 012B     		cmp	r3, #1
 104 0092 74F10003 		sbcs	r3, r4, #0
 105 0096 01DB     		blt	.L4
  25:../../source/src/kernel/OS_CORE/schedule/os_delay.c **** 	{
  26:../../source/src/kernel/OS_CORE/schedule/os_delay.c **** 	  return 1;
 106              		.loc 1 26 0
 107 0098 0123     		movs	r3, #1
 108 009a 00E0     		b	.L5
 109              	.L4:
  27:../../source/src/kernel/OS_CORE/schedule/os_delay.c **** 	}
  28:../../source/src/kernel/OS_CORE/schedule/os_delay.c **** 	else
  29:../../source/src/kernel/OS_CORE/schedule/os_delay.c **** 	{
  30:../../source/src/kernel/OS_CORE/schedule/os_delay.c **** 	  return 0;
 110              		.loc 1 30 0
 111 009c 0023     		movs	r3, #0
 112              	.L5:
  31:../../source/src/kernel/OS_CORE/schedule/os_delay.c **** 	}
  32:../../source/src/kernel/OS_CORE/schedule/os_delay.c **** }
 113              		.loc 1 32 0 discriminator 1
 114 009e 1846     		mov	r0, r3
 115 00a0 1837     		adds	r7, r7, #24
 116              	.LCFI3:
 117              		.cfi_def_cfa_offset 16
 118 00a2 BD46     		mov	sp, r7
 119              	.LCFI4:
 120              		.cfi_def_cfa_register 13
 121              		@ sp needed
 122 00a4 BDE89088 		pop	{r4, r7, fp, pc}
 123              		.cfi_endproc
 124              	.LFE12:
 125              		.size	_cmp, .-_cmp
 126              		.align	1
 127              		.syntax unified
 128              		.thumb
 129              		.thumb_func
 130              		.fpu softvfp
 131              		.type	index_change_record, %function
 132              	index_change_record:
 133              	.LFB13:
  33:../../source/src/kernel/OS_CORE/schedule/os_delay.c **** 
  34:../../source/src/kernel/OS_CORE/schedule/os_delay.c **** static inline void index_change_record(Vector *Vector_ptr,int index)
ARM GAS  G:\Users\Jaxb\AppData\Local\Temp\cc7U8HMJ.s 			page 4


  35:../../source/src/kernel/OS_CORE/schedule/os_delay.c **** {
 134              		.loc 1 35 0
 135              		.cfi_startproc
 136              		@ args = 0, pretend = 0, frame = 16
 137              		@ frame_needed = 1, uses_anonymous_args = 0
 138 00a8 80B5     		push	{r7, lr}
 139              	.LCFI5:
 140              		.cfi_def_cfa_offset 8
 141              		.cfi_offset 7, -8
 142              		.cfi_offset 14, -4
 143 00aa 84B0     		sub	sp, sp, #16
 144              	.LCFI6:
 145              		.cfi_def_cfa_offset 24
 146 00ac 00AF     		add	r7, sp, #0
 147              	.LCFI7:
 148              		.cfi_def_cfa_register 7
 149 00ae 7860     		str	r0, [r7, #4]
 150 00b0 3960     		str	r1, [r7]
  36:../../source/src/kernel/OS_CORE/schedule/os_delay.c **** 	TCB *TCB_ptr;
  37:../../source/src/kernel/OS_CORE/schedule/os_delay.c **** 	Vector_get_index_data(Vector_ptr,index,&TCB_ptr);
 151              		.loc 1 37 0
 152 00b2 3B68     		ldr	r3, [r7]
 153 00b4 07F10C02 		add	r2, r7, #12
 154 00b8 1946     		mov	r1, r3
 155 00ba 7868     		ldr	r0, [r7, #4]
 156 00bc FFF7FEFF 		bl	Vector_get_index_data
  38:../../source/src/kernel/OS_CORE/schedule/os_delay.c **** 	TCB_ptr->delay_heap_position = index;
 157              		.loc 1 38 0
 158 00c0 FB68     		ldr	r3, [r7, #12]
 159 00c2 3A68     		ldr	r2, [r7]
 160 00c4 9A61     		str	r2, [r3, #24]
  39:../../source/src/kernel/OS_CORE/schedule/os_delay.c **** }
 161              		.loc 1 39 0
 162 00c6 00BF     		nop
 163 00c8 1037     		adds	r7, r7, #16
 164              	.LCFI8:
 165              		.cfi_def_cfa_offset 8
 166 00ca BD46     		mov	sp, r7
 167              	.LCFI9:
 168              		.cfi_def_cfa_register 13
 169              		@ sp needed
 170 00cc 80BD     		pop	{r7, pc}
 171              		.cfi_endproc
 172              	.LFE13:
 173              		.size	index_change_record, .-index_change_record
 174              		.section	.rodata
 175              		.align	2
 176              	.LC0:
 177 0000 696E6974 		.ascii	"init_delay_heap error!\012stop booting.....\012\000"
 177      5F64656C 
 177      61795F68 
 177      65617020 
 177      6572726F 
 178              		.text
 179              		.align	1
 180              		.global	__init_delay_heap
 181              		.syntax unified
ARM GAS  G:\Users\Jaxb\AppData\Local\Temp\cc7U8HMJ.s 			page 5


 182              		.thumb
 183              		.thumb_func
 184              		.fpu softvfp
 185              		.type	__init_delay_heap, %function
 186              	__init_delay_heap:
 187              	.LFB14:
  40:../../source/src/kernel/OS_CORE/schedule/os_delay.c **** 	
  41:../../source/src/kernel/OS_CORE/schedule/os_delay.c **** inline void __init_delay_heap(void)
  42:../../source/src/kernel/OS_CORE/schedule/os_delay.c **** {
 188              		.loc 1 42 0
 189              		.cfi_startproc
 190              		@ args = 0, pretend = 0, frame = 0
 191              		@ frame_needed = 1, uses_anonymous_args = 0
 192 00ce 80B5     		push	{r7, lr}
 193              	.LCFI10:
 194              		.cfi_def_cfa_offset 8
 195              		.cfi_offset 7, -8
 196              		.cfi_offset 14, -4
 197 00d0 82B0     		sub	sp, sp, #8
 198              	.LCFI11:
 199              		.cfi_def_cfa_offset 16
 200 00d2 02AF     		add	r7, sp, #8
 201              	.LCFI12:
 202              		.cfi_def_cfa 7, 8
  43:../../source/src/kernel/OS_CORE/schedule/os_delay.c **** 	if(0 != heap_init(&delay_heap,PRIO_MAX/4,sizeof(TCB *),_cmp,index_change_record))
 203              		.loc 1 43 0
 204 00d4 084B     		ldr	r3, .L11
 205 00d6 0093     		str	r3, [sp]
 206 00d8 084B     		ldr	r3, .L11+4
 207 00da 0422     		movs	r2, #4
 208 00dc 1021     		movs	r1, #16
 209 00de 0848     		ldr	r0, .L11+8
 210 00e0 FFF7FEFF 		bl	heap_init
 211 00e4 0346     		mov	r3, r0
 212 00e6 002B     		cmp	r3, #0
 213 00e8 03D0     		beq	.L10
  44:../../source/src/kernel/OS_CORE/schedule/os_delay.c **** 	{
  45:../../source/src/kernel/OS_CORE/schedule/os_delay.c **** 		ka_printf("init_delay_heap error!\nstop booting.....\n");
 214              		.loc 1 45 0
 215 00ea 0648     		ldr	r0, .L11+12
 216 00ec FFF7FEFF 		bl	ka_printf
 217              	.L9:
  46:../../source/src/kernel/OS_CORE/schedule/os_delay.c **** 		while(1);
 218              		.loc 1 46 0 discriminator 1
 219 00f0 FEE7     		b	.L9
 220              	.L10:
  47:../../source/src/kernel/OS_CORE/schedule/os_delay.c **** 		//os stop here
  48:../../source/src/kernel/OS_CORE/schedule/os_delay.c **** 	}
  49:../../source/src/kernel/OS_CORE/schedule/os_delay.c **** }
 221              		.loc 1 49 0
 222 00f2 00BF     		nop
 223 00f4 BD46     		mov	sp, r7
 224              	.LCFI13:
 225              		.cfi_def_cfa_register 13
 226              		@ sp needed
 227 00f6 80BD     		pop	{r7, pc}
 228              	.L12:
ARM GAS  G:\Users\Jaxb\AppData\Local\Temp\cc7U8HMJ.s 			page 6


 229              		.align	2
 230              	.L11:
 231 00f8 00000000 		.word	index_change_record
 232 00fc 00000000 		.word	_cmp
 233 0100 00000000 		.word	delay_heap
 234 0104 00000000 		.word	.LC0
 235              		.cfi_endproc
 236              	.LFE14:
 237              		.size	__init_delay_heap, .-__init_delay_heap
 238              		.section	.rodata
 239 002a 0000     		.align	2
 240              	.LC1:
 241 002c 2E2E2F2E 		.ascii	"../../source/src/kernel/OS_CORE/schedule/os_delay.c"
 241      2E2F736F 
 241      75726365 
 241      2F737263 
 241      2F6B6572 
 242 005f 00       		.ascii	"\000"
 243              		.align	2
 244              	.LC2:
 245 0060 6572726F 		.ascii	"error fun name : insert_into_delay_heap\012error pa"
 245      72206675 
 245      6E206E61 
 245      6D65203A 
 245      20696E73 
 246 0090 7261203A 		.ascii	"ra : TCB_ptr\012\000"
 246      20544342 
 246      5F707472 
 246      0A00
 247              		.text
 248              		.align	1
 249              		.global	insert_into_delay_heap
 250              		.syntax unified
 251              		.thumb
 252              		.thumb_func
 253              		.fpu softvfp
 254              		.type	insert_into_delay_heap, %function
 255              	insert_into_delay_heap:
 256              	.LFB15:
  50:../../source/src/kernel/OS_CORE/schedule/os_delay.c **** 
  51:../../source/src/kernel/OS_CORE/schedule/os_delay.c **** //before inserting action,os should set the delay_reach_time
  52:../../source/src/kernel/OS_CORE/schedule/os_delay.c **** //this function do not change the task_state of the TCB,os shoule
  53:../../source/src/kernel/OS_CORE/schedule/os_delay.c **** //change it before using this function
  54:../../source/src/kernel/OS_CORE/schedule/os_delay.c **** inline int insert_into_delay_heap(TCB *TCB_ptr)
  55:../../source/src/kernel/OS_CORE/schedule/os_delay.c **** {
 257              		.loc 1 55 0
 258              		.cfi_startproc
 259              		@ args = 0, pretend = 0, frame = 8
 260              		@ frame_needed = 1, uses_anonymous_args = 0
 261 0108 80B5     		push	{r7, lr}
 262              	.LCFI14:
 263              		.cfi_def_cfa_offset 8
 264              		.cfi_offset 7, -8
 265              		.cfi_offset 14, -4
 266 010a 82B0     		sub	sp, sp, #8
 267              	.LCFI15:
 268              		.cfi_def_cfa_offset 16
ARM GAS  G:\Users\Jaxb\AppData\Local\Temp\cc7U8HMJ.s 			page 7


 269 010c 00AF     		add	r7, sp, #0
 270              	.LCFI16:
 271              		.cfi_def_cfa_register 7
 272 010e 7860     		str	r0, [r7, #4]
  56:../../source/src/kernel/OS_CORE/schedule/os_delay.c **** 	ASSERT(NULL != TCB_ptr);
 273              		.loc 1 56 0
 274 0110 7B68     		ldr	r3, [r7, #4]
 275 0112 002B     		cmp	r3, #0
 276 0114 03D1     		bne	.L14
 277              		.loc 1 56 0 is_stmt 0 discriminator 1
 278 0116 3821     		movs	r1, #56
 279 0118 0A48     		ldr	r0, .L17
 280 011a FFF7FEFF 		bl	_ASSERT
 281              	.L14:
  57:../../source/src/kernel/OS_CORE/schedule/os_delay.c **** #if CONFIG_PARA_CHECK
  58:../../source/src/kernel/OS_CORE/schedule/os_delay.c **** 	if(NULL == TCB_ptr)
 282              		.loc 1 58 0 is_stmt 1
 283 011e 7B68     		ldr	r3, [r7, #4]
 284 0120 002B     		cmp	r3, #0
 285 0122 05D1     		bne	.L15
  59:../../source/src/kernel/OS_CORE/schedule/os_delay.c **** 	{
  60:../../source/src/kernel/OS_CORE/schedule/os_delay.c **** 		OS_ERROR_PARA_MESSAGE_DISPLAY(insert_into_delay_heap,TCB_ptr);
 286              		.loc 1 60 0
 287 0124 0848     		ldr	r0, .L17+4
 288 0126 FFF7FEFF 		bl	ka_printf
  61:../../source/src/kernel/OS_CORE/schedule/os_delay.c **** 		return -ERROR_NULL_INPUT_PTR;
 289              		.loc 1 61 0
 290 012a 6FF0FE03 		mvn	r3, #254
 291 012e 05E0     		b	.L16
 292              	.L15:
  62:../../source/src/kernel/OS_CORE/schedule/os_delay.c **** 	}
  63:../../source/src/kernel/OS_CORE/schedule/os_delay.c **** #endif
  64:../../source/src/kernel/OS_CORE/schedule/os_delay.c **** 	return heap_push(&delay_heap,&TCB_ptr);
 293              		.loc 1 64 0
 294 0130 3B1D     		adds	r3, r7, #4
 295 0132 1946     		mov	r1, r3
 296 0134 0548     		ldr	r0, .L17+8
 297 0136 FFF7FEFF 		bl	heap_push
 298 013a 0346     		mov	r3, r0
 299              	.L16:
  65:../../source/src/kernel/OS_CORE/schedule/os_delay.c **** }
 300              		.loc 1 65 0
 301 013c 1846     		mov	r0, r3
 302 013e 0837     		adds	r7, r7, #8
 303              	.LCFI17:
 304              		.cfi_def_cfa_offset 8
 305 0140 BD46     		mov	sp, r7
 306              	.LCFI18:
 307              		.cfi_def_cfa_register 13
 308              		@ sp needed
 309 0142 80BD     		pop	{r7, pc}
 310              	.L18:
 311              		.align	2
 312              	.L17:
 313 0144 2C000000 		.word	.LC1
 314 0148 60000000 		.word	.LC2
 315 014c 00000000 		.word	delay_heap
ARM GAS  G:\Users\Jaxb\AppData\Local\Temp\cc7U8HMJ.s 			page 8


 316              		.cfi_endproc
 317              	.LFE15:
 318              		.size	insert_into_delay_heap, .-insert_into_delay_heap
 319              		.section	.rodata
 320 009e 0000     		.align	2
 321              	.LC3:
 322 00a0 6572726F 		.ascii	"error fun name : remove_from_delay_heap\012error pa"
 322      72206675 
 322      6E206E61 
 322      6D65203A 
 322      2072656D 
 323 00d0 7261203A 		.ascii	"ra : TCB_ptr\012\000"
 323      20544342 
 323      5F707472 
 323      0A00
 324              		.text
 325              		.align	1
 326              		.global	remove_from_delay_heap
 327              		.syntax unified
 328              		.thumb
 329              		.thumb_func
 330              		.fpu softvfp
 331              		.type	remove_from_delay_heap, %function
 332              	remove_from_delay_heap:
 333              	.LFB16:
  66:../../source/src/kernel/OS_CORE/schedule/os_delay.c **** 
  67:../../source/src/kernel/OS_CORE/schedule/os_delay.c **** int remove_from_delay_heap(TCB *TCB_ptr)
  68:../../source/src/kernel/OS_CORE/schedule/os_delay.c **** {
 334              		.loc 1 68 0
 335              		.cfi_startproc
 336              		@ args = 0, pretend = 0, frame = 24
 337              		@ frame_needed = 1, uses_anonymous_args = 0
 338 0150 80B5     		push	{r7, lr}
 339              	.LCFI19:
 340              		.cfi_def_cfa_offset 8
 341              		.cfi_offset 7, -8
 342              		.cfi_offset 14, -4
 343 0152 86B0     		sub	sp, sp, #24
 344              	.LCFI20:
 345              		.cfi_def_cfa_offset 32
 346 0154 00AF     		add	r7, sp, #0
 347              	.LCFI21:
 348              		.cfi_def_cfa_register 7
 349 0156 7860     		str	r0, [r7, #4]
  69:../../source/src/kernel/OS_CORE/schedule/os_delay.c **** 	ASSERT(NULL != TCB_ptr);
 350              		.loc 1 69 0
 351 0158 7B68     		ldr	r3, [r7, #4]
 352 015a 002B     		cmp	r3, #0
 353 015c 03D1     		bne	.L20
 354              		.loc 1 69 0 is_stmt 0 discriminator 1
 355 015e 4521     		movs	r1, #69
 356 0160 1E48     		ldr	r0, .L28
 357 0162 FFF7FEFF 		bl	_ASSERT
 358              	.L20:
  70:../../source/src/kernel/OS_CORE/schedule/os_delay.c **** #if CONFIG_PARA_CHECK
  71:../../source/src/kernel/OS_CORE/schedule/os_delay.c **** 	if(NULL == TCB_ptr)
 359              		.loc 1 71 0 is_stmt 1
ARM GAS  G:\Users\Jaxb\AppData\Local\Temp\cc7U8HMJ.s 			page 9


 360 0166 7B68     		ldr	r3, [r7, #4]
 361 0168 002B     		cmp	r3, #0
 362 016a 05D1     		bne	.L21
  72:../../source/src/kernel/OS_CORE/schedule/os_delay.c **** 	{
  73:../../source/src/kernel/OS_CORE/schedule/os_delay.c **** 		OS_ERROR_PARA_MESSAGE_DISPLAY(remove_from_delay_heap,TCB_ptr);
 363              		.loc 1 73 0
 364 016c 1C48     		ldr	r0, .L28+4
 365 016e FFF7FEFF 		bl	ka_printf
  74:../../source/src/kernel/OS_CORE/schedule/os_delay.c **** 		return -ERROR_NULL_INPUT_PTR;
 366              		.loc 1 74 0
 367 0172 6FF0FE03 		mvn	r3, #254
 368 0176 2CE0     		b	.L27
 369              	.L21:
  75:../../source/src/kernel/OS_CORE/schedule/os_delay.c **** 	}
  76:../../source/src/kernel/OS_CORE/schedule/os_delay.c **** #endif
  77:../../source/src/kernel/OS_CORE/schedule/os_delay.c **** 	TCB *TCB_ptr_buffer;
  78:../../source/src/kernel/OS_CORE/schedule/os_delay.c **** 	int i;
  79:../../source/src/kernel/OS_CORE/schedule/os_delay.c **** 	int ret;
  80:../../source/src/kernel/OS_CORE/schedule/os_delay.c **** 	int len = heap_get_cur_len(&delay_heap);
 370              		.loc 1 80 0
 371 0178 1A48     		ldr	r0, .L28+8
 372 017a FFF7FEFF 		bl	heap_get_cur_len
 373 017e 0346     		mov	r3, r0
 374 0180 3B61     		str	r3, [r7, #16]
  81:../../source/src/kernel/OS_CORE/schedule/os_delay.c **** 	for(i=1;i<len;++i) // check from first to the end
 375              		.loc 1 81 0
 376 0182 0123     		movs	r3, #1
 377 0184 7B61     		str	r3, [r7, #20]
 378 0186 1EE0     		b	.L23
 379              	.L26:
  82:../../source/src/kernel/OS_CORE/schedule/os_delay.c **** 	{
  83:../../source/src/kernel/OS_CORE/schedule/os_delay.c **** 		heap_get_index_data(&delay_heap,&TCB_ptr_buffer,i);
 380              		.loc 1 83 0
 381 0188 7A69     		ldr	r2, [r7, #20]
 382 018a 07F10803 		add	r3, r7, #8
 383 018e 1946     		mov	r1, r3
 384 0190 1448     		ldr	r0, .L28+8
 385 0192 FFF7FEFF 		bl	heap_get_index_data
  84:../../source/src/kernel/OS_CORE/schedule/os_delay.c **** 		if(TCB_ptr == TCB_ptr_buffer)
 386              		.loc 1 84 0
 387 0196 BB68     		ldr	r3, [r7, #8]
 388 0198 7A68     		ldr	r2, [r7, #4]
 389 019a 9A42     		cmp	r2, r3
 390 019c 10D1     		bne	.L24
  85:../../source/src/kernel/OS_CORE/schedule/os_delay.c **** 		{
  86:../../source/src/kernel/OS_CORE/schedule/os_delay.c **** 			ret = heap_remove_index_data(&delay_heap,i,NULL);
 391              		.loc 1 86 0
 392 019e 7B69     		ldr	r3, [r7, #20]
 393 01a0 0022     		movs	r2, #0
 394 01a2 1946     		mov	r1, r3
 395 01a4 0F48     		ldr	r0, .L28+8
 396 01a6 FFF7FEFF 		bl	heap_remove_index_data
 397 01aa F860     		str	r0, [r7, #12]
  87:../../source/src/kernel/OS_CORE/schedule/os_delay.c **** 			if(0 != ret)
 398              		.loc 1 87 0
 399 01ac FB68     		ldr	r3, [r7, #12]
 400 01ae 002B     		cmp	r3, #0
ARM GAS  G:\Users\Jaxb\AppData\Local\Temp\cc7U8HMJ.s 			page 10


 401 01b0 01D0     		beq	.L25
  88:../../source/src/kernel/OS_CORE/schedule/os_delay.c **** 			{
  89:../../source/src/kernel/OS_CORE/schedule/os_delay.c **** 				return ret;
 402              		.loc 1 89 0
 403 01b2 FB68     		ldr	r3, [r7, #12]
 404 01b4 0DE0     		b	.L27
 405              	.L25:
  90:../../source/src/kernel/OS_CORE/schedule/os_delay.c **** 			}
  91:../../source/src/kernel/OS_CORE/schedule/os_delay.c **** 			insert_ready_TCB(TCB_ptr);
 406              		.loc 1 91 0
 407 01b6 7868     		ldr	r0, [r7, #4]
 408 01b8 FFF7FEFF 		bl	insert_ready_TCB
  92:../../source/src/kernel/OS_CORE/schedule/os_delay.c **** 			return FUN_EXECUTE_SUCCESSFULLY;
 409              		.loc 1 92 0
 410 01bc 0023     		movs	r3, #0
 411 01be 08E0     		b	.L27
 412              	.L24:
  81:../../source/src/kernel/OS_CORE/schedule/os_delay.c **** 	{
 413              		.loc 1 81 0 discriminator 2
 414 01c0 7B69     		ldr	r3, [r7, #20]
 415 01c2 0133     		adds	r3, r3, #1
 416 01c4 7B61     		str	r3, [r7, #20]
 417              	.L23:
  81:../../source/src/kernel/OS_CORE/schedule/os_delay.c **** 	{
 418              		.loc 1 81 0 is_stmt 0 discriminator 1
 419 01c6 7A69     		ldr	r2, [r7, #20]
 420 01c8 3B69     		ldr	r3, [r7, #16]
 421 01ca 9A42     		cmp	r2, r3
 422 01cc DCDB     		blt	.L26
  93:../../source/src/kernel/OS_CORE/schedule/os_delay.c **** 		}
  94:../../source/src/kernel/OS_CORE/schedule/os_delay.c **** 	}
  95:../../source/src/kernel/OS_CORE/schedule/os_delay.c **** 	return -ERROR_VALUELESS_INPUT;
 423              		.loc 1 95 0 is_stmt 1
 424 01ce 6FF0FD03 		mvn	r3, #253
 425              	.L27:
  96:../../source/src/kernel/OS_CORE/schedule/os_delay.c **** }
 426              		.loc 1 96 0 discriminator 1
 427 01d2 1846     		mov	r0, r3
 428 01d4 1837     		adds	r7, r7, #24
 429              	.LCFI22:
 430              		.cfi_def_cfa_offset 8
 431 01d6 BD46     		mov	sp, r7
 432              	.LCFI23:
 433              		.cfi_def_cfa_register 13
 434              		@ sp needed
 435 01d8 80BD     		pop	{r7, pc}
 436              	.L29:
 437 01da 00BF     		.align	2
 438              	.L28:
 439 01dc 2C000000 		.word	.LC1
 440 01e0 A0000000 		.word	.LC3
 441 01e4 00000000 		.word	delay_heap
 442              		.cfi_endproc
 443              	.LFE16:
 444              		.size	remove_from_delay_heap, .-remove_from_delay_heap
 445              		.align	1
 446              		.global	delay_heap_get_top_TCB
ARM GAS  G:\Users\Jaxb\AppData\Local\Temp\cc7U8HMJ.s 			page 11


 447              		.syntax unified
 448              		.thumb
 449              		.thumb_func
 450              		.fpu softvfp
 451              		.type	delay_heap_get_top_TCB, %function
 452              	delay_heap_get_top_TCB:
 453              	.LFB17:
  97:../../source/src/kernel/OS_CORE/schedule/os_delay.c **** 
  98:../../source/src/kernel/OS_CORE/schedule/os_delay.c **** inline TCB* delay_heap_get_top_TCB(void)
  99:../../source/src/kernel/OS_CORE/schedule/os_delay.c **** {
 454              		.loc 1 99 0
 455              		.cfi_startproc
 456              		@ args = 0, pretend = 0, frame = 8
 457              		@ frame_needed = 1, uses_anonymous_args = 0
 458 01e8 80B5     		push	{r7, lr}
 459              	.LCFI24:
 460              		.cfi_def_cfa_offset 8
 461              		.cfi_offset 7, -8
 462              		.cfi_offset 14, -4
 463 01ea 82B0     		sub	sp, sp, #8
 464              	.LCFI25:
 465              		.cfi_def_cfa_offset 16
 466 01ec 00AF     		add	r7, sp, #0
 467              	.LCFI26:
 468              		.cfi_def_cfa_register 7
 100:../../source/src/kernel/OS_CORE/schedule/os_delay.c **** 	//TCB *TCB_ptr;
 101:../../source/src/kernel/OS_CORE/schedule/os_delay.c **** 	TCB *TCB_ptr;
 102:../../source/src/kernel/OS_CORE/schedule/os_delay.c **** 	if(0 != heap_get_top_safe(&delay_heap,&TCB_ptr))
 469              		.loc 1 102 0
 470 01ee 3B1D     		adds	r3, r7, #4
 471 01f0 0122     		movs	r2, #1
 472 01f2 1946     		mov	r1, r3
 473 01f4 0648     		ldr	r0, .L34
 474 01f6 FFF7FEFF 		bl	heap_get_index_data_safe
 475 01fa 0346     		mov	r3, r0
 476 01fc 002B     		cmp	r3, #0
 477 01fe 01D0     		beq	.L31
 103:../../source/src/kernel/OS_CORE/schedule/os_delay.c **** 	{
 104:../../source/src/kernel/OS_CORE/schedule/os_delay.c **** 		return NULL;
 478              		.loc 1 104 0
 479 0200 0023     		movs	r3, #0
 480 0202 00E0     		b	.L33
 481              	.L31:
 105:../../source/src/kernel/OS_CORE/schedule/os_delay.c **** 	}
 106:../../source/src/kernel/OS_CORE/schedule/os_delay.c **** 	return TCB_ptr;
 482              		.loc 1 106 0
 483 0204 7B68     		ldr	r3, [r7, #4]
 484              	.L33:
 107:../../source/src/kernel/OS_CORE/schedule/os_delay.c **** }
 485              		.loc 1 107 0 discriminator 1
 486 0206 1846     		mov	r0, r3
 487 0208 0837     		adds	r7, r7, #8
 488              	.LCFI27:
 489              		.cfi_def_cfa_offset 8
 490 020a BD46     		mov	sp, r7
 491              	.LCFI28:
 492              		.cfi_def_cfa_register 13
ARM GAS  G:\Users\Jaxb\AppData\Local\Temp\cc7U8HMJ.s 			page 12


 493              		@ sp needed
 494 020c 80BD     		pop	{r7, pc}
 495              	.L35:
 496 020e 00BF     		.align	2
 497              	.L34:
 498 0210 00000000 		.word	delay_heap
 499              		.cfi_endproc
 500              	.LFE17:
 501              		.size	delay_heap_get_top_TCB, .-delay_heap_get_top_TCB
 502              		.align	1
 503              		.global	delay_heap_remove_top_TCB
 504              		.syntax unified
 505              		.thumb
 506              		.thumb_func
 507              		.fpu softvfp
 508              		.type	delay_heap_remove_top_TCB, %function
 509              	delay_heap_remove_top_TCB:
 510              	.LFB18:
 108:../../source/src/kernel/OS_CORE/schedule/os_delay.c **** 
 109:../../source/src/kernel/OS_CORE/schedule/os_delay.c **** inline TCB* delay_heap_remove_top_TCB(void)
 110:../../source/src/kernel/OS_CORE/schedule/os_delay.c **** {
 511              		.loc 1 110 0
 512              		.cfi_startproc
 513              		@ args = 0, pretend = 0, frame = 8
 514              		@ frame_needed = 1, uses_anonymous_args = 0
 515 0214 80B5     		push	{r7, lr}
 516              	.LCFI29:
 517              		.cfi_def_cfa_offset 8
 518              		.cfi_offset 7, -8
 519              		.cfi_offset 14, -4
 520 0216 82B0     		sub	sp, sp, #8
 521              	.LCFI30:
 522              		.cfi_def_cfa_offset 16
 523 0218 00AF     		add	r7, sp, #0
 524              	.LCFI31:
 525              		.cfi_def_cfa_register 7
 111:../../source/src/kernel/OS_CORE/schedule/os_delay.c **** 	TCB *TCB_ptr;
 112:../../source/src/kernel/OS_CORE/schedule/os_delay.c **** 	if(0 != heap_remove_top(&delay_heap,&TCB_ptr))
 526              		.loc 1 112 0
 527 021a 3B1D     		adds	r3, r7, #4
 528 021c 1A46     		mov	r2, r3
 529 021e 0121     		movs	r1, #1
 530 0220 0648     		ldr	r0, .L40
 531 0222 FFF7FEFF 		bl	heap_remove_index_data
 532 0226 0346     		mov	r3, r0
 533 0228 002B     		cmp	r3, #0
 534 022a 01D0     		beq	.L37
 113:../../source/src/kernel/OS_CORE/schedule/os_delay.c **** 	{
 114:../../source/src/kernel/OS_CORE/schedule/os_delay.c **** 		return NULL;
 535              		.loc 1 114 0
 536 022c 0023     		movs	r3, #0
 537 022e 00E0     		b	.L39
 538              	.L37:
 115:../../source/src/kernel/OS_CORE/schedule/os_delay.c **** 	}
 116:../../source/src/kernel/OS_CORE/schedule/os_delay.c **** 	return TCB_ptr;
 539              		.loc 1 116 0
 540 0230 7B68     		ldr	r3, [r7, #4]
ARM GAS  G:\Users\Jaxb\AppData\Local\Temp\cc7U8HMJ.s 			page 13


 541              	.L39:
 117:../../source/src/kernel/OS_CORE/schedule/os_delay.c **** }
 542              		.loc 1 117 0 discriminator 1
 543 0232 1846     		mov	r0, r3
 544 0234 0837     		adds	r7, r7, #8
 545              	.LCFI32:
 546              		.cfi_def_cfa_offset 8
 547 0236 BD46     		mov	sp, r7
 548              	.LCFI33:
 549              		.cfi_def_cfa_register 13
 550              		@ sp needed
 551 0238 80BD     		pop	{r7, pc}
 552              	.L41:
 553 023a 00BF     		.align	2
 554              	.L40:
 555 023c 00000000 		.word	delay_heap
 556              		.cfi_endproc
 557              	.LFE18:
 558              		.size	delay_heap_remove_top_TCB, .-delay_heap_remove_top_TCB
 559              		.section	.rodata
 560 00de 0000     		.align	2
 561              	.LC4:
 562 00e0 6E6F7720 		.ascii	"now start checking delay_heap\012\000"
 562      73746172 
 562      74206368 
 562      65636B69 
 562      6E672064 
 563 00ff 00       		.align	2
 564              	.LC5:
 565 0100 68656170 		.ascii	"heap member %u has incorrect position with member %"
 565      206D656D 
 565      62657220 
 565      25752068 
 565      61732069 
 566 0133 750A00   		.ascii	"u\012\000"
 567 0136 0000     		.align	2
 568              	.LC6:
 569 0138 64656C61 		.ascii	"delay_heap check complete\012\000"
 569      795F6865 
 569      61702063 
 569      6865636B 
 569      20636F6D 
 570              		.text
 571              		.align	1
 572              		.global	shell_delay_heap_check
 573              		.syntax unified
 574              		.thumb
 575              		.thumb_func
 576              		.fpu softvfp
 577              		.type	shell_delay_heap_check, %function
 578              	shell_delay_heap_check:
 579              	.LFB19:
 118:../../source/src/kernel/OS_CORE/schedule/os_delay.c **** 
 119:../../source/src/kernel/OS_CORE/schedule/os_delay.c **** #if CONFIG_SHELL_EN
 120:../../source/src/kernel/OS_CORE/schedule/os_delay.c **** void shell_delay_heap_check(void)
 121:../../source/src/kernel/OS_CORE/schedule/os_delay.c **** {
 580              		.loc 1 121 0
ARM GAS  G:\Users\Jaxb\AppData\Local\Temp\cc7U8HMJ.s 			page 14


 581              		.cfi_startproc
 582              		@ args = 0, pretend = 0, frame = 16
 583              		@ frame_needed = 1, uses_anonymous_args = 0
 584 0240 2DE99048 		push	{r4, r7, fp, lr}
 585              	.LCFI34:
 586              		.cfi_def_cfa_offset 16
 587              		.cfi_offset 4, -16
 588              		.cfi_offset 7, -12
 589              		.cfi_offset 11, -8
 590              		.cfi_offset 14, -4
 591 0244 84B0     		sub	sp, sp, #16
 592              	.LCFI35:
 593              		.cfi_def_cfa_offset 32
 594 0246 00AF     		add	r7, sp, #0
 595              	.LCFI36:
 596              		.cfi_def_cfa_register 7
 122:../../source/src/kernel/OS_CORE/schedule/os_delay.c **** 	TCB *TCB_ptr1,*TCB_ptr2;
 123:../../source/src/kernel/OS_CORE/schedule/os_delay.c **** 	unsigned int len;
 124:../../source/src/kernel/OS_CORE/schedule/os_delay.c **** 	unsigned int i;
 125:../../source/src/kernel/OS_CORE/schedule/os_delay.c **** 	len = heap_get_cur_len(&delay_heap);
 597              		.loc 1 125 0
 598 0248 2248     		ldr	r0, .L46
 599 024a FFF7FEFF 		bl	heap_get_cur_len
 600 024e B860     		str	r0, [r7, #8]
 126:../../source/src/kernel/OS_CORE/schedule/os_delay.c **** 	ka_printf("now start checking delay_heap\n");
 601              		.loc 1 126 0
 602 0250 2148     		ldr	r0, .L46+4
 603 0252 FFF7FEFF 		bl	ka_printf
 127:../../source/src/kernel/OS_CORE/schedule/os_delay.c **** 	for(i=len-1;i>0;--i)
 604              		.loc 1 127 0
 605 0256 BB68     		ldr	r3, [r7, #8]
 606 0258 013B     		subs	r3, r3, #1
 607 025a FB60     		str	r3, [r7, #12]
 608 025c 2EE0     		b	.L43
 609              	.L45:
 128:../../source/src/kernel/OS_CORE/schedule/os_delay.c **** 	{
 129:../../source/src/kernel/OS_CORE/schedule/os_delay.c **** 		heap_get_index_data(&delay_heap,&TCB_ptr1,i);
 610              		.loc 1 129 0
 611 025e 3B1D     		adds	r3, r7, #4
 612 0260 FA68     		ldr	r2, [r7, #12]
 613 0262 1946     		mov	r1, r3
 614 0264 1B48     		ldr	r0, .L46
 615 0266 FFF7FEFF 		bl	heap_get_index_data
 130:../../source/src/kernel/OS_CORE/schedule/os_delay.c **** 		heap_get_index_data(&delay_heap,&TCB_ptr2,i/2);
 616              		.loc 1 130 0
 617 026a FB68     		ldr	r3, [r7, #12]
 618 026c 5A08     		lsrs	r2, r3, #1
 619 026e 3B46     		mov	r3, r7
 620 0270 1946     		mov	r1, r3
 621 0272 1848     		ldr	r0, .L46
 622 0274 FFF7FEFF 		bl	heap_get_index_data
 131:../../source/src/kernel/OS_CORE/schedule/os_delay.c **** 		if(TIME_FIRST_SMALLER_THAN_SECOND(TCB_ptr1->delay_reach_time,TCB_ptr2->delay_reach_time))
 623              		.loc 1 131 0
 624 0278 7B68     		ldr	r3, [r7, #4]
 625 027a 03F14004 		add	r4, r3, #64
 626 027e D4E90034 		ldrd	r3, [r4]
 627 0282 1946     		mov	r1, r3
ARM GAS  G:\Users\Jaxb\AppData\Local\Temp\cc7U8HMJ.s 			page 15


 628 0284 2246     		mov	r2, r4
 629 0286 3B68     		ldr	r3, [r7]
 630 0288 03F14004 		add	r4, r3, #64
 631 028c D4E90034 		ldrd	r3, [r4]
 632 0290 9B46     		mov	fp, r3
 633 0292 A446     		mov	ip, r4
 634 0294 0B46     		mov	r3, r1
 635 0296 1446     		mov	r4, r2
 636 0298 B3EB0B03 		subs	r3, r3, fp
 637 029c 64EB0C04 		sbc	r4, r4, ip
 638 02a0 002B     		cmp	r3, #0
 639 02a2 74F10003 		sbcs	r3, r4, #0
 640 02a6 06DA     		bge	.L44
 132:../../source/src/kernel/OS_CORE/schedule/os_delay.c **** 		{
 133:../../source/src/kernel/OS_CORE/schedule/os_delay.c **** 			ka_printf("heap member %u has incorrect position with member %u\n",i,i/2);
 641              		.loc 1 133 0
 642 02a8 FB68     		ldr	r3, [r7, #12]
 643 02aa 5B08     		lsrs	r3, r3, #1
 644 02ac 1A46     		mov	r2, r3
 645 02ae F968     		ldr	r1, [r7, #12]
 646 02b0 0A48     		ldr	r0, .L46+8
 647 02b2 FFF7FEFF 		bl	ka_printf
 648              	.L44:
 127:../../source/src/kernel/OS_CORE/schedule/os_delay.c **** 	{
 649              		.loc 1 127 0 discriminator 2
 650 02b6 FB68     		ldr	r3, [r7, #12]
 651 02b8 013B     		subs	r3, r3, #1
 652 02ba FB60     		str	r3, [r7, #12]
 653              	.L43:
 127:../../source/src/kernel/OS_CORE/schedule/os_delay.c **** 	{
 654              		.loc 1 127 0 is_stmt 0 discriminator 1
 655 02bc FB68     		ldr	r3, [r7, #12]
 656 02be 002B     		cmp	r3, #0
 657 02c0 CDD1     		bne	.L45
 134:../../source/src/kernel/OS_CORE/schedule/os_delay.c **** 		}
 135:../../source/src/kernel/OS_CORE/schedule/os_delay.c **** 	}
 136:../../source/src/kernel/OS_CORE/schedule/os_delay.c **** 	ka_printf("delay_heap check complete\n");
 658              		.loc 1 136 0 is_stmt 1
 659 02c2 0748     		ldr	r0, .L46+12
 660 02c4 FFF7FEFF 		bl	ka_printf
 137:../../source/src/kernel/OS_CORE/schedule/os_delay.c **** }
 661              		.loc 1 137 0
 662 02c8 00BF     		nop
 663 02ca 1037     		adds	r7, r7, #16
 664              	.LCFI37:
 665              		.cfi_def_cfa_offset 16
 666 02cc BD46     		mov	sp, r7
 667              	.LCFI38:
 668              		.cfi_def_cfa_register 13
 669              		@ sp needed
 670 02ce BDE89088 		pop	{r4, r7, fp, pc}
 671              	.L47:
 672 02d2 00BF     		.align	2
 673              	.L46:
 674 02d4 00000000 		.word	delay_heap
 675 02d8 E0000000 		.word	.LC4
 676 02dc 00010000 		.word	.LC5
ARM GAS  G:\Users\Jaxb\AppData\Local\Temp\cc7U8HMJ.s 			page 16


 677 02e0 38010000 		.word	.LC6
 678              		.cfi_endproc
 679              	.LFE19:
 680              		.size	shell_delay_heap_check, .-shell_delay_heap_check
 681              	.Letext0:
 682              		.file 2 "../../source/include/os_lib/vector.h"
 683              		.file 3 "../../source/include/os_lib/heap_oo.h"
 684              		.file 4 "../../source/include/os_cpu/kakaosstdint.h"
 685              		.file 5 "../../source/include/os_lib/double_linked_list.h"
 686              		.file 6 "../../source/include/os_core/task_state.h"
 687              		.file 7 "../../source/include/os_core/TCB.h"
 688              		.section	.debug_info,"",%progbits
 689              	.Ldebug_info0:
 690 0000 0B050000 		.4byte	0x50b
 691 0004 0200     		.2byte	0x2
 692 0006 00000000 		.4byte	.Ldebug_abbrev0
 693 000a 04       		.byte	0x4
 694 000b 01       		.uleb128 0x1
 695 000c 85030000 		.4byte	.LASF65
 696 0010 0C       		.byte	0xc
 697 0011 74020000 		.4byte	.LASF66
 698 0015 B0040000 		.4byte	.LASF67
 699 0019 00000000 		.4byte	.Ltext0
 700 001d E4020000 		.4byte	.Letext0
 701 0021 00000000 		.4byte	.Ldebug_line0
 702 0025 02       		.uleb128 0x2
 703 0026 27030000 		.4byte	.LASF5
 704 002a 14       		.byte	0x14
 705 002b 02       		.byte	0x2
 706 002c 08       		.byte	0x8
 707 002d 78000000 		.4byte	0x78
 708 0031 03       		.uleb128 0x3
 709 0032 51020000 		.4byte	.LASF0
 710 0036 02       		.byte	0x2
 711 0037 0A       		.byte	0xa
 712 0038 78000000 		.4byte	0x78
 713 003c 02       		.byte	0x2
 714 003d 23       		.byte	0x23
 715 003e 00       		.uleb128 0
 716 003f 03       		.uleb128 0x3
 717 0040 3E020000 		.4byte	.LASF1
 718 0044 02       		.byte	0x2
 719 0045 0B       		.byte	0xb
 720 0046 7A000000 		.4byte	0x7a
 721 004a 02       		.byte	0x2
 722 004b 23       		.byte	0x23
 723 004c 04       		.uleb128 0x4
 724 004d 03       		.uleb128 0x3
 725 004e 0A020000 		.4byte	.LASF2
 726 0052 02       		.byte	0x2
 727 0053 0C       		.byte	0xc
 728 0054 7A000000 		.4byte	0x7a
 729 0058 02       		.byte	0x2
 730 0059 23       		.byte	0x23
 731 005a 08       		.uleb128 0x8
 732 005b 03       		.uleb128 0x3
 733 005c F3000000 		.4byte	.LASF3
ARM GAS  G:\Users\Jaxb\AppData\Local\Temp\cc7U8HMJ.s 			page 17


 734 0060 02       		.byte	0x2
 735 0061 0D       		.byte	0xd
 736 0062 7A000000 		.4byte	0x7a
 737 0066 02       		.byte	0x2
 738 0067 23       		.byte	0x23
 739 0068 0C       		.uleb128 0xc
 740 0069 03       		.uleb128 0x3
 741 006a 4D030000 		.4byte	.LASF4
 742 006e 02       		.byte	0x2
 743 006f 13       		.byte	0x13
 744 0070 7A000000 		.4byte	0x7a
 745 0074 02       		.byte	0x2
 746 0075 23       		.byte	0x23
 747 0076 10       		.uleb128 0x10
 748 0077 00       		.byte	0
 749 0078 04       		.uleb128 0x4
 750 0079 04       		.byte	0x4
 751 007a 05       		.uleb128 0x5
 752 007b 04       		.byte	0x4
 753 007c 07       		.byte	0x7
 754 007d FD000000 		.4byte	.LASF9
 755 0081 06       		.uleb128 0x6
 756 0082 D9020000 		.4byte	.LASF12
 757 0086 02       		.byte	0x2
 758 0087 14       		.byte	0x14
 759 0088 25000000 		.4byte	0x25
 760 008c 02       		.uleb128 0x2
 761 008d 22010000 		.4byte	.LASF6
 762 0091 1C       		.byte	0x1c
 763 0092 03       		.byte	0x3
 764 0093 0A       		.byte	0xa
 765 0094 C3000000 		.4byte	0xc3
 766 0098 03       		.uleb128 0x3
 767 0099 77010000 		.4byte	.LASF7
 768 009d 03       		.byte	0x3
 769 009e 0D       		.byte	0xd
 770 009f 81000000 		.4byte	0x81
 771 00a3 02       		.byte	0x2
 772 00a4 23       		.byte	0x23
 773 00a5 00       		.uleb128 0
 774 00a6 07       		.uleb128 0x7
 775 00a7 636D7000 		.ascii	"cmp\000"
 776 00ab 03       		.byte	0x3
 777 00ac 10       		.byte	0x10
 778 00ad EF000000 		.4byte	0xef
 779 00b1 02       		.byte	0x2
 780 00b2 23       		.byte	0x23
 781 00b3 14       		.uleb128 0x14
 782 00b4 03       		.uleb128 0x3
 783 00b5 4A000000 		.4byte	.LASF8
 784 00b9 03       		.byte	0x3
 785 00ba 12       		.byte	0x12
 786 00bb 06010000 		.4byte	0x106
 787 00bf 02       		.byte	0x2
 788 00c0 23       		.byte	0x23
 789 00c1 18       		.uleb128 0x18
 790 00c2 00       		.byte	0
ARM GAS  G:\Users\Jaxb\AppData\Local\Temp\cc7U8HMJ.s 			page 18


 791 00c3 08       		.uleb128 0x8
 792 00c4 01       		.byte	0x1
 793 00c5 DD000000 		.4byte	0xdd
 794 00c9 DD000000 		.4byte	0xdd
 795 00cd 09       		.uleb128 0x9
 796 00ce E9000000 		.4byte	0xe9
 797 00d2 09       		.uleb128 0x9
 798 00d3 7A000000 		.4byte	0x7a
 799 00d7 09       		.uleb128 0x9
 800 00d8 7A000000 		.4byte	0x7a
 801 00dc 00       		.byte	0
 802 00dd 0A       		.uleb128 0xa
 803 00de 04       		.byte	0x4
 804 00df 05       		.byte	0x5
 805 00e0 696E7400 		.ascii	"int\000"
 806 00e4 0B       		.uleb128 0xb
 807 00e5 DD000000 		.4byte	0xdd
 808 00e9 0C       		.uleb128 0xc
 809 00ea 04       		.byte	0x4
 810 00eb 81000000 		.4byte	0x81
 811 00ef 0C       		.uleb128 0xc
 812 00f0 04       		.byte	0x4
 813 00f1 C3000000 		.4byte	0xc3
 814 00f5 0D       		.uleb128 0xd
 815 00f6 01       		.byte	0x1
 816 00f7 06010000 		.4byte	0x106
 817 00fb 09       		.uleb128 0x9
 818 00fc E9000000 		.4byte	0xe9
 819 0100 09       		.uleb128 0x9
 820 0101 DD000000 		.4byte	0xdd
 821 0105 00       		.byte	0
 822 0106 0C       		.uleb128 0xc
 823 0107 04       		.byte	0x4
 824 0108 F5000000 		.4byte	0xf5
 825 010c 05       		.uleb128 0x5
 826 010d 01       		.byte	0x1
 827 010e 06       		.byte	0x6
 828 010f 47040000 		.4byte	.LASF10
 829 0113 05       		.uleb128 0x5
 830 0114 02       		.byte	0x2
 831 0115 05       		.byte	0x5
 832 0116 5E030000 		.4byte	.LASF11
 833 011a 06       		.uleb128 0x6
 834 011b 71010000 		.4byte	.LASF13
 835 011f 04       		.byte	0x4
 836 0120 08       		.byte	0x8
 837 0121 25010000 		.4byte	0x125
 838 0125 05       		.uleb128 0x5
 839 0126 08       		.byte	0x8
 840 0127 05       		.byte	0x5
 841 0128 0E030000 		.4byte	.LASF14
 842 012c 05       		.uleb128 0x5
 843 012d 01       		.byte	0x1
 844 012e 08       		.byte	0x8
 845 012f 84010000 		.4byte	.LASF15
 846 0133 05       		.uleb128 0x5
 847 0134 02       		.byte	0x2
ARM GAS  G:\Users\Jaxb\AppData\Local\Temp\cc7U8HMJ.s 			page 19


 848 0135 07       		.byte	0x7
 849 0136 B5010000 		.4byte	.LASF16
 850 013a 06       		.uleb128 0x6
 851 013b 3F030000 		.4byte	.LASF17
 852 013f 04       		.byte	0x4
 853 0140 0C       		.byte	0xc
 854 0141 7A000000 		.4byte	0x7a
 855 0145 06       		.uleb128 0x6
 856 0146 97010000 		.4byte	.LASF18
 857 014a 04       		.byte	0x4
 858 014b 0D       		.byte	0xd
 859 014c 50010000 		.4byte	0x150
 860 0150 05       		.uleb128 0x5
 861 0151 08       		.byte	0x8
 862 0152 07       		.byte	0x7
 863 0153 A8020000 		.4byte	.LASF19
 864 0157 02       		.uleb128 0x2
 865 0158 04030000 		.4byte	.LASF20
 866 015c 08       		.byte	0x8
 867 015d 05       		.byte	0x5
 868 015e 04       		.byte	0x4
 869 015f 80010000 		.4byte	0x180
 870 0163 03       		.uleb128 0x3
 871 0164 10000000 		.4byte	.LASF21
 872 0168 05       		.byte	0x5
 873 0169 05       		.byte	0x5
 874 016a 80010000 		.4byte	0x180
 875 016e 02       		.byte	0x2
 876 016f 23       		.byte	0x23
 877 0170 00       		.uleb128 0
 878 0171 03       		.uleb128 0x3
 879 0172 AB040000 		.4byte	.LASF22
 880 0176 05       		.byte	0x5
 881 0177 05       		.byte	0x5
 882 0178 80010000 		.4byte	0x180
 883 017c 02       		.byte	0x2
 884 017d 23       		.byte	0x23
 885 017e 04       		.uleb128 0x4
 886 017f 00       		.byte	0
 887 0180 0C       		.uleb128 0xc
 888 0181 04       		.byte	0x4
 889 0182 57010000 		.4byte	0x157
 890 0186 0E       		.uleb128 0xe
 891 0187 CE020000 		.4byte	.LASF68
 892 018b 07       		.byte	0x7
 893 018c 01       		.byte	0x1
 894 018d 2C010000 		.4byte	0x12c
 895 0191 06       		.byte	0x6
 896 0192 04       		.byte	0x4
 897 0193 D4010000 		.4byte	0x1d4
 898 0197 0F       		.uleb128 0xf
 899 0198 58010000 		.4byte	.LASF23
 900 019c 01       		.byte	0x1
 901 019d 0F       		.uleb128 0xf
 902 019e 2F000000 		.4byte	.LASF24
 903 01a2 02       		.byte	0x2
 904 01a3 0F       		.uleb128 0xf
ARM GAS  G:\Users\Jaxb\AppData\Local\Temp\cc7U8HMJ.s 			page 20


 905 01a4 73040000 		.4byte	.LASF25
 906 01a8 03       		.byte	0x3
 907 01a9 0F       		.uleb128 0xf
 908 01aa F3010000 		.4byte	.LASF26
 909 01ae 04       		.byte	0x4
 910 01af 0F       		.uleb128 0xf
 911 01b0 30040000 		.4byte	.LASF27
 912 01b4 05       		.byte	0x5
 913 01b5 0F       		.uleb128 0xf
 914 01b6 37010000 		.4byte	.LASF28
 915 01ba 06       		.byte	0x6
 916 01bb 0F       		.uleb128 0xf
 917 01bc C8010000 		.4byte	.LASF29
 918 01c0 07       		.byte	0x7
 919 01c1 0F       		.uleb128 0xf
 920 01c2 53040000 		.4byte	.LASF30
 921 01c6 08       		.byte	0x8
 922 01c7 0F       		.uleb128 0xf
 923 01c8 8E000000 		.4byte	.LASF31
 924 01cc 09       		.byte	0x9
 925 01cd 0F       		.uleb128 0xf
 926 01ce E0020000 		.4byte	.LASF32
 927 01d2 0A       		.byte	0xa
 928 01d3 00       		.byte	0
 929 01d4 06       		.uleb128 0x6
 930 01d5 46020000 		.4byte	.LASF33
 931 01d9 06       		.byte	0x6
 932 01da 0F       		.byte	0xf
 933 01db 86010000 		.4byte	0x186
 934 01df 06       		.uleb128 0x6
 935 01e0 F9020000 		.4byte	.LASF34
 936 01e4 07       		.byte	0x7
 937 01e5 09       		.byte	0x9
 938 01e6 7A000000 		.4byte	0x7a
 939 01ea 06       		.uleb128 0x6
 940 01eb 3B000000 		.4byte	.LASF35
 941 01ef 07       		.byte	0x7
 942 01f0 0B       		.byte	0xb
 943 01f1 7A000000 		.4byte	0x7a
 944 01f5 10       		.uleb128 0x10
 945 01f6 88040000 		.4byte	.LASF69
 946 01fa 07       		.byte	0x7
 947 01fb 12       		.byte	0x12
 948 01fc E4000000 		.4byte	0xe4
 949 0200 01       		.byte	0x1
 950 0201 01       		.byte	0x1
 951 0202 02       		.uleb128 0x2
 952 0203 5A020000 		.4byte	.LASF36
 953 0207 48       		.byte	0x48
 954 0208 07       		.byte	0x7
 955 0209 2F       		.byte	0x2f
 956 020a D3020000 		.4byte	0x2d3
 957 020e 03       		.uleb128 0x3
 958 020f ED000000 		.4byte	.LASF37
 959 0213 07       		.byte	0x7
 960 0214 30       		.byte	0x30
 961 0215 D3020000 		.4byte	0x2d3
ARM GAS  G:\Users\Jaxb\AppData\Local\Temp\cc7U8HMJ.s 			page 21


 962 0219 02       		.byte	0x2
 963 021a 23       		.byte	0x23
 964 021b 00       		.uleb128 0
 965 021c 03       		.uleb128 0x3
 966 021d 1C030000 		.4byte	.LASF38
 967 0221 07       		.byte	0x7
 968 0222 31       		.byte	0x31
 969 0223 7A000000 		.4byte	0x7a
 970 0227 02       		.byte	0x2
 971 0228 23       		.byte	0x23
 972 0229 04       		.uleb128 0x4
 973 022a 03       		.uleb128 0x3
 974 022b E9010000 		.4byte	.LASF39
 975 022f 07       		.byte	0x7
 976 0230 32       		.byte	0x32
 977 0231 D3020000 		.4byte	0x2d3
 978 0235 02       		.byte	0x2
 979 0236 23       		.byte	0x23
 980 0237 08       		.uleb128 0x8
 981 0238 03       		.uleb128 0x3
 982 0239 00000000 		.4byte	.LASF40
 983 023d 07       		.byte	0x7
 984 023e 33       		.byte	0x33
 985 023f EA010000 		.4byte	0x1ea
 986 0243 02       		.byte	0x2
 987 0244 23       		.byte	0x23
 988 0245 0C       		.uleb128 0xc
 989 0246 03       		.uleb128 0x3
 990 0247 64010000 		.4byte	.LASF41
 991 024b 07       		.byte	0x7
 992 024c 34       		.byte	0x34
 993 024d EA010000 		.4byte	0x1ea
 994 0251 02       		.byte	0x2
 995 0252 23       		.byte	0x23
 996 0253 10       		.uleb128 0x10
 997 0254 03       		.uleb128 0x3
 998 0255 05000000 		.4byte	.LASF42
 999 0259 07       		.byte	0x7
 1000 025a 35       		.byte	0x35
 1001 025b D4010000 		.4byte	0x1d4
 1002 025f 02       		.byte	0x2
 1003 0260 23       		.byte	0x23
 1004 0261 14       		.uleb128 0x14
 1005 0262 03       		.uleb128 0x3
 1006 0263 AE000000 		.4byte	.LASF43
 1007 0267 07       		.byte	0x7
 1008 0268 36       		.byte	0x36
 1009 0269 DD000000 		.4byte	0xdd
 1010 026d 02       		.byte	0x2
 1011 026e 23       		.byte	0x23
 1012 026f 18       		.uleb128 0x18
 1013 0270 03       		.uleb128 0x3
 1014 0271 BF020000 		.4byte	.LASF44
 1015 0275 07       		.byte	0x7
 1016 0276 37       		.byte	0x37
 1017 0277 57010000 		.4byte	0x157
 1018 027b 02       		.byte	0x2
ARM GAS  G:\Users\Jaxb\AppData\Local\Temp\cc7U8HMJ.s 			page 22


 1019 027c 23       		.byte	0x23
 1020 027d 1C       		.uleb128 0x1c
 1021 027e 03       		.uleb128 0x3
 1022 027f 31020000 		.4byte	.LASF45
 1023 0283 07       		.byte	0x7
 1024 0284 38       		.byte	0x38
 1025 0285 57010000 		.4byte	0x157
 1026 0289 02       		.byte	0x2
 1027 028a 23       		.byte	0x23
 1028 028b 24       		.uleb128 0x24
 1029 028c 03       		.uleb128 0x3
 1030 028d 2E030000 		.4byte	.LASF46
 1031 0291 07       		.byte	0x7
 1032 0292 39       		.byte	0x39
 1033 0293 D9020000 		.4byte	0x2d9
 1034 0297 02       		.byte	0x2
 1035 0298 23       		.byte	0x23
 1036 0299 2C       		.uleb128 0x2c
 1037 029a 03       		.uleb128 0x3
 1038 029b D9000000 		.4byte	.LASF47
 1039 029f 07       		.byte	0x7
 1040 02a0 3A       		.byte	0x3a
 1041 02a1 7A000000 		.4byte	0x7a
 1042 02a5 02       		.byte	0x2
 1043 02a6 23       		.byte	0x23
 1044 02a7 30       		.uleb128 0x30
 1045 02a8 03       		.uleb128 0x3
 1046 02a9 12020000 		.4byte	.LASF48
 1047 02ad 07       		.byte	0x7
 1048 02ae 3B       		.byte	0x3b
 1049 02af 7A000000 		.4byte	0x7a
 1050 02b3 02       		.byte	0x2
 1051 02b4 23       		.byte	0x23
 1052 02b5 34       		.uleb128 0x34
 1053 02b6 03       		.uleb128 0x3
 1054 02b7 33030000 		.4byte	.LASF49
 1055 02bb 07       		.byte	0x7
 1056 02bc 3C       		.byte	0x3c
 1057 02bd 3A010000 		.4byte	0x13a
 1058 02c1 02       		.byte	0x2
 1059 02c2 23       		.byte	0x23
 1060 02c3 38       		.uleb128 0x38
 1061 02c4 03       		.uleb128 0x3
 1062 02c5 9A040000 		.4byte	.LASF50
 1063 02c9 07       		.byte	0x7
 1064 02ca 3D       		.byte	0x3d
 1065 02cb 45010000 		.4byte	0x145
 1066 02cf 02       		.byte	0x2
 1067 02d0 23       		.byte	0x23
 1068 02d1 40       		.uleb128 0x40
 1069 02d2 00       		.byte	0
 1070 02d3 0C       		.uleb128 0xc
 1071 02d4 04       		.byte	0x4
 1072 02d5 DF010000 		.4byte	0x1df
 1073 02d9 0C       		.uleb128 0xc
 1074 02da 04       		.byte	0x4
 1075 02db DF020000 		.4byte	0x2df
ARM GAS  G:\Users\Jaxb\AppData\Local\Temp\cc7U8HMJ.s 			page 23


 1076 02df 05       		.uleb128 0x5
 1077 02e0 01       		.byte	0x1
 1078 02e1 08       		.byte	0x8
 1079 02e2 2B040000 		.4byte	.LASF51
 1080 02e6 11       		.uleb128 0x11
 1081 02e7 54434200 		.ascii	"TCB\000"
 1082 02eb 07       		.byte	0x7
 1083 02ec 3E       		.byte	0x3e
 1084 02ed 02020000 		.4byte	0x202
 1085 02f1 12       		.uleb128 0x12
 1086 02f2 E6020000 		.4byte	0x2e6
 1087 02f6 13       		.uleb128 0x13
 1088 02f7 26020000 		.4byte	.LASF52
 1089 02fb 01       		.byte	0x1
 1090 02fc 0C       		.byte	0xc
 1091 02fd 8C000000 		.4byte	0x8c
 1092 0301 05       		.byte	0x5
 1093 0302 03       		.byte	0x3
 1094 0303 00000000 		.4byte	delay_heap
 1095 0307 14       		.uleb128 0x14
 1096 0308 01       		.byte	0x1
 1097 0309 6E030000 		.4byte	.LASF70
 1098 030d 01       		.byte	0x1
 1099 030e 78       		.byte	0x78
 1100 030f 01       		.byte	0x1
 1101 0310 40020000 		.4byte	.LFB19
 1102 0314 E4020000 		.4byte	.LFE19
 1103 0318 00000000 		.4byte	.LLST7
 1104 031c 01       		.byte	0x1
 1105 031d 58030000 		.4byte	0x358
 1106 0321 13       		.uleb128 0x13
 1107 0322 19010000 		.4byte	.LASF53
 1108 0326 01       		.byte	0x1
 1109 0327 7A       		.byte	0x7a
 1110 0328 58030000 		.4byte	0x358
 1111 032c 02       		.byte	0x2
 1112 032d 91       		.byte	0x91
 1113 032e 64       		.sleb128 -28
 1114 032f 13       		.uleb128 0x13
 1115 0330 2E010000 		.4byte	.LASF54
 1116 0334 01       		.byte	0x1
 1117 0335 7A       		.byte	0x7a
 1118 0336 58030000 		.4byte	0x358
 1119 033a 02       		.byte	0x2
 1120 033b 91       		.byte	0x91
 1121 033c 60       		.sleb128 -32
 1122 033d 15       		.uleb128 0x15
 1123 033e 6C656E00 		.ascii	"len\000"
 1124 0342 01       		.byte	0x1
 1125 0343 7B       		.byte	0x7b
 1126 0344 7A000000 		.4byte	0x7a
 1127 0348 02       		.byte	0x2
 1128 0349 91       		.byte	0x91
 1129 034a 68       		.sleb128 -24
 1130 034b 15       		.uleb128 0x15
 1131 034c 6900     		.ascii	"i\000"
 1132 034e 01       		.byte	0x1
ARM GAS  G:\Users\Jaxb\AppData\Local\Temp\cc7U8HMJ.s 			page 24


 1133 034f 7C       		.byte	0x7c
 1134 0350 7A000000 		.4byte	0x7a
 1135 0354 02       		.byte	0x2
 1136 0355 91       		.byte	0x91
 1137 0356 6C       		.sleb128 -20
 1138 0357 00       		.byte	0
 1139 0358 0C       		.uleb128 0xc
 1140 0359 04       		.byte	0x4
 1141 035a E6020000 		.4byte	0x2e6
 1142 035e 16       		.uleb128 0x16
 1143 035f 01       		.byte	0x1
 1144 0360 15000000 		.4byte	.LASF56
 1145 0364 01       		.byte	0x1
 1146 0365 6D       		.byte	0x6d
 1147 0366 01       		.byte	0x1
 1148 0367 58030000 		.4byte	0x358
 1149 036b 14020000 		.4byte	.LFB18
 1150 036f 40020000 		.4byte	.LFE18
 1151 0373 50000000 		.4byte	.LLST6
 1152 0377 01       		.byte	0x1
 1153 0378 8B030000 		.4byte	0x38b
 1154 037c 13       		.uleb128 0x13
 1155 037d 7C010000 		.4byte	.LASF55
 1156 0381 01       		.byte	0x1
 1157 0382 6F       		.byte	0x6f
 1158 0383 58030000 		.4byte	0x358
 1159 0387 02       		.byte	0x2
 1160 0388 91       		.byte	0x91
 1161 0389 74       		.sleb128 -12
 1162 038a 00       		.byte	0
 1163 038b 16       		.uleb128 0x16
 1164 038c 01       		.byte	0x1
 1165 038d 9E010000 		.4byte	.LASF57
 1166 0391 01       		.byte	0x1
 1167 0392 62       		.byte	0x62
 1168 0393 01       		.byte	0x1
 1169 0394 58030000 		.4byte	0x358
 1170 0398 E8010000 		.4byte	.LFB17
 1171 039c 14020000 		.4byte	.LFE17
 1172 03a0 A0000000 		.4byte	.LLST5
 1173 03a4 01       		.byte	0x1
 1174 03a5 B8030000 		.4byte	0x3b8
 1175 03a9 13       		.uleb128 0x13
 1176 03aa 7C010000 		.4byte	.LASF55
 1177 03ae 01       		.byte	0x1
 1178 03af 65       		.byte	0x65
 1179 03b0 58030000 		.4byte	0x358
 1180 03b4 02       		.byte	0x2
 1181 03b5 91       		.byte	0x91
 1182 03b6 74       		.sleb128 -12
 1183 03b7 00       		.byte	0
 1184 03b8 16       		.uleb128 0x16
 1185 03b9 01       		.byte	0x1
 1186 03ba 65000000 		.4byte	.LASF58
 1187 03be 01       		.byte	0x1
 1188 03bf 43       		.byte	0x43
 1189 03c0 01       		.byte	0x1
ARM GAS  G:\Users\Jaxb\AppData\Local\Temp\cc7U8HMJ.s 			page 25


 1190 03c1 DD000000 		.4byte	0xdd
 1191 03c5 50010000 		.4byte	.LFB16
 1192 03c9 E8010000 		.4byte	.LFE16
 1193 03cd F0000000 		.4byte	.LLST4
 1194 03d1 01       		.byte	0x1
 1195 03d2 1B040000 		.4byte	0x41b
 1196 03d6 17       		.uleb128 0x17
 1197 03d7 7C010000 		.4byte	.LASF55
 1198 03db 01       		.byte	0x1
 1199 03dc 43       		.byte	0x43
 1200 03dd 58030000 		.4byte	0x358
 1201 03e1 02       		.byte	0x2
 1202 03e2 91       		.byte	0x91
 1203 03e3 64       		.sleb128 -28
 1204 03e4 13       		.uleb128 0x13
 1205 03e5 0A010000 		.4byte	.LASF59
 1206 03e9 01       		.byte	0x1
 1207 03ea 4D       		.byte	0x4d
 1208 03eb 58030000 		.4byte	0x358
 1209 03ef 02       		.byte	0x2
 1210 03f0 91       		.byte	0x91
 1211 03f1 68       		.sleb128 -24
 1212 03f2 15       		.uleb128 0x15
 1213 03f3 6900     		.ascii	"i\000"
 1214 03f5 01       		.byte	0x1
 1215 03f6 4E       		.byte	0x4e
 1216 03f7 DD000000 		.4byte	0xdd
 1217 03fb 02       		.byte	0x2
 1218 03fc 91       		.byte	0x91
 1219 03fd 74       		.sleb128 -12
 1220 03fe 15       		.uleb128 0x15
 1221 03ff 72657400 		.ascii	"ret\000"
 1222 0403 01       		.byte	0x1
 1223 0404 4F       		.byte	0x4f
 1224 0405 DD000000 		.4byte	0xdd
 1225 0409 02       		.byte	0x2
 1226 040a 91       		.byte	0x91
 1227 040b 6C       		.sleb128 -20
 1228 040c 15       		.uleb128 0x15
 1229 040d 6C656E00 		.ascii	"len\000"
 1230 0411 01       		.byte	0x1
 1231 0412 50       		.byte	0x50
 1232 0413 DD000000 		.4byte	0xdd
 1233 0417 02       		.byte	0x2
 1234 0418 91       		.byte	0x91
 1235 0419 70       		.sleb128 -16
 1236 041a 00       		.byte	0
 1237 041b 16       		.uleb128 0x16
 1238 041c 01       		.byte	0x1
 1239 041d C2000000 		.4byte	.LASF60
 1240 0421 01       		.byte	0x1
 1241 0422 36       		.byte	0x36
 1242 0423 01       		.byte	0x1
 1243 0424 DD000000 		.4byte	0xdd
 1244 0428 08010000 		.4byte	.LFB15
 1245 042c 50010000 		.4byte	.LFE15
 1246 0430 40010000 		.4byte	.LLST3
ARM GAS  G:\Users\Jaxb\AppData\Local\Temp\cc7U8HMJ.s 			page 26


 1247 0434 01       		.byte	0x1
 1248 0435 48040000 		.4byte	0x448
 1249 0439 17       		.uleb128 0x17
 1250 043a 7C010000 		.4byte	.LASF55
 1251 043e 01       		.byte	0x1
 1252 043f 36       		.byte	0x36
 1253 0440 58030000 		.4byte	0x358
 1254 0444 02       		.byte	0x2
 1255 0445 91       		.byte	0x91
 1256 0446 74       		.sleb128 -12
 1257 0447 00       		.byte	0
 1258 0448 18       		.uleb128 0x18
 1259 0449 01       		.byte	0x1
 1260 044a 7C000000 		.4byte	.LASF71
 1261 044e 01       		.byte	0x1
 1262 044f 29       		.byte	0x29
 1263 0450 01       		.byte	0x1
 1264 0451 CE000000 		.4byte	.LFB14
 1265 0455 08010000 		.4byte	.LFE14
 1266 0459 90010000 		.4byte	.LLST2
 1267 045d 01       		.byte	0x1
 1268 045e 19       		.uleb128 0x19
 1269 045f 4A000000 		.4byte	.LASF8
 1270 0463 01       		.byte	0x1
 1271 0464 22       		.byte	0x22
 1272 0465 01       		.byte	0x1
 1273 0466 A8000000 		.4byte	.LFB13
 1274 046a CE000000 		.4byte	.LFE13
 1275 046e D4010000 		.4byte	.LLST1
 1276 0472 01       		.byte	0x1
 1277 0473 A2040000 		.4byte	0x4a2
 1278 0477 17       		.uleb128 0x17
 1279 0478 DE040000 		.4byte	.LASF61
 1280 047c 01       		.byte	0x1
 1281 047d 22       		.byte	0x22
 1282 047e E9000000 		.4byte	0xe9
 1283 0482 02       		.byte	0x2
 1284 0483 91       		.byte	0x91
 1285 0484 6C       		.sleb128 -20
 1286 0485 17       		.uleb128 0x17
 1287 0486 68030000 		.4byte	.LASF62
 1288 048a 01       		.byte	0x1
 1289 048b 22       		.byte	0x22
 1290 048c DD000000 		.4byte	0xdd
 1291 0490 02       		.byte	0x2
 1292 0491 91       		.byte	0x91
 1293 0492 68       		.sleb128 -24
 1294 0493 13       		.uleb128 0x13
 1295 0494 7C010000 		.4byte	.LASF55
 1296 0498 01       		.byte	0x1
 1297 0499 24       		.byte	0x24
 1298 049a 58030000 		.4byte	0x358
 1299 049e 02       		.byte	0x2
 1300 049f 91       		.byte	0x91
 1301 04a0 74       		.sleb128 -12
 1302 04a1 00       		.byte	0
 1303 04a2 1A       		.uleb128 0x1a
ARM GAS  G:\Users\Jaxb\AppData\Local\Temp\cc7U8HMJ.s 			page 27


 1304 04a3 92010000 		.4byte	.LASF72
 1305 04a7 01       		.byte	0x1
 1306 04a8 0F       		.byte	0xf
 1307 04a9 01       		.byte	0x1
 1308 04aa DD000000 		.4byte	0xdd
 1309 04ae 00000000 		.4byte	.LFB12
 1310 04b2 A8000000 		.4byte	.LFE12
 1311 04b6 24020000 		.4byte	.LLST0
 1312 04ba 01       		.byte	0x1
 1313 04bb 02050000 		.4byte	0x502
 1314 04bf 17       		.uleb128 0x17
 1315 04c0 DE040000 		.4byte	.LASF61
 1316 04c4 01       		.byte	0x1
 1317 04c5 0F       		.byte	0xf
 1318 04c6 E9000000 		.4byte	0xe9
 1319 04ca 02       		.byte	0x2
 1320 04cb 91       		.byte	0x91
 1321 04cc 64       		.sleb128 -28
 1322 04cd 17       		.uleb128 0x17
 1323 04ce 46030000 		.4byte	.LASF63
 1324 04d2 01       		.byte	0x1
 1325 04d3 0F       		.byte	0xf
 1326 04d4 7A000000 		.4byte	0x7a
 1327 04d8 02       		.byte	0x2
 1328 04d9 91       		.byte	0x91
 1329 04da 60       		.sleb128 -32
 1330 04db 17       		.uleb128 0x17
 1331 04dc 5E000000 		.4byte	.LASF64
 1332 04e0 01       		.byte	0x1
 1333 04e1 0F       		.byte	0xf
 1334 04e2 7A000000 		.4byte	0x7a
 1335 04e6 02       		.byte	0x2
 1336 04e7 91       		.byte	0x91
 1337 04e8 5C       		.sleb128 -36
 1338 04e9 15       		.uleb128 0x15
 1339 04ea 6100     		.ascii	"a\000"
 1340 04ec 01       		.byte	0x1
 1341 04ed 11       		.byte	0x11
 1342 04ee 02050000 		.4byte	0x502
 1343 04f2 02       		.byte	0x2
 1344 04f3 91       		.byte	0x91
 1345 04f4 6C       		.sleb128 -20
 1346 04f5 15       		.uleb128 0x15
 1347 04f6 6200     		.ascii	"b\000"
 1348 04f8 01       		.byte	0x1
 1349 04f9 11       		.byte	0x11
 1350 04fa 02050000 		.4byte	0x502
 1351 04fe 02       		.byte	0x2
 1352 04ff 91       		.byte	0x91
 1353 0500 68       		.sleb128 -24
 1354 0501 00       		.byte	0
 1355 0502 0C       		.uleb128 0xc
 1356 0503 04       		.byte	0x4
 1357 0504 08050000 		.4byte	0x508
 1358 0508 0C       		.uleb128 0xc
 1359 0509 04       		.byte	0x4
 1360 050a F1020000 		.4byte	0x2f1
ARM GAS  G:\Users\Jaxb\AppData\Local\Temp\cc7U8HMJ.s 			page 28


 1361 050e 00       		.byte	0
 1362              		.section	.debug_abbrev,"",%progbits
 1363              	.Ldebug_abbrev0:
 1364 0000 01       		.uleb128 0x1
 1365 0001 11       		.uleb128 0x11
 1366 0002 01       		.byte	0x1
 1367 0003 25       		.uleb128 0x25
 1368 0004 0E       		.uleb128 0xe
 1369 0005 13       		.uleb128 0x13
 1370 0006 0B       		.uleb128 0xb
 1371 0007 03       		.uleb128 0x3
 1372 0008 0E       		.uleb128 0xe
 1373 0009 1B       		.uleb128 0x1b
 1374 000a 0E       		.uleb128 0xe
 1375 000b 11       		.uleb128 0x11
 1376 000c 01       		.uleb128 0x1
 1377 000d 12       		.uleb128 0x12
 1378 000e 01       		.uleb128 0x1
 1379 000f 10       		.uleb128 0x10
 1380 0010 06       		.uleb128 0x6
 1381 0011 00       		.byte	0
 1382 0012 00       		.byte	0
 1383 0013 02       		.uleb128 0x2
 1384 0014 13       		.uleb128 0x13
 1385 0015 01       		.byte	0x1
 1386 0016 03       		.uleb128 0x3
 1387 0017 0E       		.uleb128 0xe
 1388 0018 0B       		.uleb128 0xb
 1389 0019 0B       		.uleb128 0xb
 1390 001a 3A       		.uleb128 0x3a
 1391 001b 0B       		.uleb128 0xb
 1392 001c 3B       		.uleb128 0x3b
 1393 001d 0B       		.uleb128 0xb
 1394 001e 01       		.uleb128 0x1
 1395 001f 13       		.uleb128 0x13
 1396 0020 00       		.byte	0
 1397 0021 00       		.byte	0
 1398 0022 03       		.uleb128 0x3
 1399 0023 0D       		.uleb128 0xd
 1400 0024 00       		.byte	0
 1401 0025 03       		.uleb128 0x3
 1402 0026 0E       		.uleb128 0xe
 1403 0027 3A       		.uleb128 0x3a
 1404 0028 0B       		.uleb128 0xb
 1405 0029 3B       		.uleb128 0x3b
 1406 002a 0B       		.uleb128 0xb
 1407 002b 49       		.uleb128 0x49
 1408 002c 13       		.uleb128 0x13
 1409 002d 38       		.uleb128 0x38
 1410 002e 0A       		.uleb128 0xa
 1411 002f 00       		.byte	0
 1412 0030 00       		.byte	0
 1413 0031 04       		.uleb128 0x4
 1414 0032 0F       		.uleb128 0xf
 1415 0033 00       		.byte	0
 1416 0034 0B       		.uleb128 0xb
 1417 0035 0B       		.uleb128 0xb
ARM GAS  G:\Users\Jaxb\AppData\Local\Temp\cc7U8HMJ.s 			page 29


 1418 0036 00       		.byte	0
 1419 0037 00       		.byte	0
 1420 0038 05       		.uleb128 0x5
 1421 0039 24       		.uleb128 0x24
 1422 003a 00       		.byte	0
 1423 003b 0B       		.uleb128 0xb
 1424 003c 0B       		.uleb128 0xb
 1425 003d 3E       		.uleb128 0x3e
 1426 003e 0B       		.uleb128 0xb
 1427 003f 03       		.uleb128 0x3
 1428 0040 0E       		.uleb128 0xe
 1429 0041 00       		.byte	0
 1430 0042 00       		.byte	0
 1431 0043 06       		.uleb128 0x6
 1432 0044 16       		.uleb128 0x16
 1433 0045 00       		.byte	0
 1434 0046 03       		.uleb128 0x3
 1435 0047 0E       		.uleb128 0xe
 1436 0048 3A       		.uleb128 0x3a
 1437 0049 0B       		.uleb128 0xb
 1438 004a 3B       		.uleb128 0x3b
 1439 004b 0B       		.uleb128 0xb
 1440 004c 49       		.uleb128 0x49
 1441 004d 13       		.uleb128 0x13
 1442 004e 00       		.byte	0
 1443 004f 00       		.byte	0
 1444 0050 07       		.uleb128 0x7
 1445 0051 0D       		.uleb128 0xd
 1446 0052 00       		.byte	0
 1447 0053 03       		.uleb128 0x3
 1448 0054 08       		.uleb128 0x8
 1449 0055 3A       		.uleb128 0x3a
 1450 0056 0B       		.uleb128 0xb
 1451 0057 3B       		.uleb128 0x3b
 1452 0058 0B       		.uleb128 0xb
 1453 0059 49       		.uleb128 0x49
 1454 005a 13       		.uleb128 0x13
 1455 005b 38       		.uleb128 0x38
 1456 005c 0A       		.uleb128 0xa
 1457 005d 00       		.byte	0
 1458 005e 00       		.byte	0
 1459 005f 08       		.uleb128 0x8
 1460 0060 15       		.uleb128 0x15
 1461 0061 01       		.byte	0x1
 1462 0062 27       		.uleb128 0x27
 1463 0063 0C       		.uleb128 0xc
 1464 0064 49       		.uleb128 0x49
 1465 0065 13       		.uleb128 0x13
 1466 0066 01       		.uleb128 0x1
 1467 0067 13       		.uleb128 0x13
 1468 0068 00       		.byte	0
 1469 0069 00       		.byte	0
 1470 006a 09       		.uleb128 0x9
 1471 006b 05       		.uleb128 0x5
 1472 006c 00       		.byte	0
 1473 006d 49       		.uleb128 0x49
 1474 006e 13       		.uleb128 0x13
ARM GAS  G:\Users\Jaxb\AppData\Local\Temp\cc7U8HMJ.s 			page 30


 1475 006f 00       		.byte	0
 1476 0070 00       		.byte	0
 1477 0071 0A       		.uleb128 0xa
 1478 0072 24       		.uleb128 0x24
 1479 0073 00       		.byte	0
 1480 0074 0B       		.uleb128 0xb
 1481 0075 0B       		.uleb128 0xb
 1482 0076 3E       		.uleb128 0x3e
 1483 0077 0B       		.uleb128 0xb
 1484 0078 03       		.uleb128 0x3
 1485 0079 08       		.uleb128 0x8
 1486 007a 00       		.byte	0
 1487 007b 00       		.byte	0
 1488 007c 0B       		.uleb128 0xb
 1489 007d 35       		.uleb128 0x35
 1490 007e 00       		.byte	0
 1491 007f 49       		.uleb128 0x49
 1492 0080 13       		.uleb128 0x13
 1493 0081 00       		.byte	0
 1494 0082 00       		.byte	0
 1495 0083 0C       		.uleb128 0xc
 1496 0084 0F       		.uleb128 0xf
 1497 0085 00       		.byte	0
 1498 0086 0B       		.uleb128 0xb
 1499 0087 0B       		.uleb128 0xb
 1500 0088 49       		.uleb128 0x49
 1501 0089 13       		.uleb128 0x13
 1502 008a 00       		.byte	0
 1503 008b 00       		.byte	0
 1504 008c 0D       		.uleb128 0xd
 1505 008d 15       		.uleb128 0x15
 1506 008e 01       		.byte	0x1
 1507 008f 27       		.uleb128 0x27
 1508 0090 0C       		.uleb128 0xc
 1509 0091 01       		.uleb128 0x1
 1510 0092 13       		.uleb128 0x13
 1511 0093 00       		.byte	0
 1512 0094 00       		.byte	0
 1513 0095 0E       		.uleb128 0xe
 1514 0096 04       		.uleb128 0x4
 1515 0097 01       		.byte	0x1
 1516 0098 03       		.uleb128 0x3
 1517 0099 0E       		.uleb128 0xe
 1518 009a 3E       		.uleb128 0x3e
 1519 009b 0B       		.uleb128 0xb
 1520 009c 0B       		.uleb128 0xb
 1521 009d 0B       		.uleb128 0xb
 1522 009e 49       		.uleb128 0x49
 1523 009f 13       		.uleb128 0x13
 1524 00a0 3A       		.uleb128 0x3a
 1525 00a1 0B       		.uleb128 0xb
 1526 00a2 3B       		.uleb128 0x3b
 1527 00a3 0B       		.uleb128 0xb
 1528 00a4 01       		.uleb128 0x1
 1529 00a5 13       		.uleb128 0x13
 1530 00a6 00       		.byte	0
 1531 00a7 00       		.byte	0
ARM GAS  G:\Users\Jaxb\AppData\Local\Temp\cc7U8HMJ.s 			page 31


 1532 00a8 0F       		.uleb128 0xf
 1533 00a9 28       		.uleb128 0x28
 1534 00aa 00       		.byte	0
 1535 00ab 03       		.uleb128 0x3
 1536 00ac 0E       		.uleb128 0xe
 1537 00ad 1C       		.uleb128 0x1c
 1538 00ae 0B       		.uleb128 0xb
 1539 00af 00       		.byte	0
 1540 00b0 00       		.byte	0
 1541 00b1 10       		.uleb128 0x10
 1542 00b2 34       		.uleb128 0x34
 1543 00b3 00       		.byte	0
 1544 00b4 03       		.uleb128 0x3
 1545 00b5 0E       		.uleb128 0xe
 1546 00b6 3A       		.uleb128 0x3a
 1547 00b7 0B       		.uleb128 0xb
 1548 00b8 3B       		.uleb128 0x3b
 1549 00b9 0B       		.uleb128 0xb
 1550 00ba 49       		.uleb128 0x49
 1551 00bb 13       		.uleb128 0x13
 1552 00bc 3F       		.uleb128 0x3f
 1553 00bd 0C       		.uleb128 0xc
 1554 00be 3C       		.uleb128 0x3c
 1555 00bf 0C       		.uleb128 0xc
 1556 00c0 00       		.byte	0
 1557 00c1 00       		.byte	0
 1558 00c2 11       		.uleb128 0x11
 1559 00c3 16       		.uleb128 0x16
 1560 00c4 00       		.byte	0
 1561 00c5 03       		.uleb128 0x3
 1562 00c6 08       		.uleb128 0x8
 1563 00c7 3A       		.uleb128 0x3a
 1564 00c8 0B       		.uleb128 0xb
 1565 00c9 3B       		.uleb128 0x3b
 1566 00ca 0B       		.uleb128 0xb
 1567 00cb 49       		.uleb128 0x49
 1568 00cc 13       		.uleb128 0x13
 1569 00cd 00       		.byte	0
 1570 00ce 00       		.byte	0
 1571 00cf 12       		.uleb128 0x12
 1572 00d0 26       		.uleb128 0x26
 1573 00d1 00       		.byte	0
 1574 00d2 49       		.uleb128 0x49
 1575 00d3 13       		.uleb128 0x13
 1576 00d4 00       		.byte	0
 1577 00d5 00       		.byte	0
 1578 00d6 13       		.uleb128 0x13
 1579 00d7 34       		.uleb128 0x34
 1580 00d8 00       		.byte	0
 1581 00d9 03       		.uleb128 0x3
 1582 00da 0E       		.uleb128 0xe
 1583 00db 3A       		.uleb128 0x3a
 1584 00dc 0B       		.uleb128 0xb
 1585 00dd 3B       		.uleb128 0x3b
 1586 00de 0B       		.uleb128 0xb
 1587 00df 49       		.uleb128 0x49
 1588 00e0 13       		.uleb128 0x13
ARM GAS  G:\Users\Jaxb\AppData\Local\Temp\cc7U8HMJ.s 			page 32


 1589 00e1 02       		.uleb128 0x2
 1590 00e2 0A       		.uleb128 0xa
 1591 00e3 00       		.byte	0
 1592 00e4 00       		.byte	0
 1593 00e5 14       		.uleb128 0x14
 1594 00e6 2E       		.uleb128 0x2e
 1595 00e7 01       		.byte	0x1
 1596 00e8 3F       		.uleb128 0x3f
 1597 00e9 0C       		.uleb128 0xc
 1598 00ea 03       		.uleb128 0x3
 1599 00eb 0E       		.uleb128 0xe
 1600 00ec 3A       		.uleb128 0x3a
 1601 00ed 0B       		.uleb128 0xb
 1602 00ee 3B       		.uleb128 0x3b
 1603 00ef 0B       		.uleb128 0xb
 1604 00f0 27       		.uleb128 0x27
 1605 00f1 0C       		.uleb128 0xc
 1606 00f2 11       		.uleb128 0x11
 1607 00f3 01       		.uleb128 0x1
 1608 00f4 12       		.uleb128 0x12
 1609 00f5 01       		.uleb128 0x1
 1610 00f6 40       		.uleb128 0x40
 1611 00f7 06       		.uleb128 0x6
 1612 00f8 9642     		.uleb128 0x2116
 1613 00fa 0C       		.uleb128 0xc
 1614 00fb 01       		.uleb128 0x1
 1615 00fc 13       		.uleb128 0x13
 1616 00fd 00       		.byte	0
 1617 00fe 00       		.byte	0
 1618 00ff 15       		.uleb128 0x15
 1619 0100 34       		.uleb128 0x34
 1620 0101 00       		.byte	0
 1621 0102 03       		.uleb128 0x3
 1622 0103 08       		.uleb128 0x8
 1623 0104 3A       		.uleb128 0x3a
 1624 0105 0B       		.uleb128 0xb
 1625 0106 3B       		.uleb128 0x3b
 1626 0107 0B       		.uleb128 0xb
 1627 0108 49       		.uleb128 0x49
 1628 0109 13       		.uleb128 0x13
 1629 010a 02       		.uleb128 0x2
 1630 010b 0A       		.uleb128 0xa
 1631 010c 00       		.byte	0
 1632 010d 00       		.byte	0
 1633 010e 16       		.uleb128 0x16
 1634 010f 2E       		.uleb128 0x2e
 1635 0110 01       		.byte	0x1
 1636 0111 3F       		.uleb128 0x3f
 1637 0112 0C       		.uleb128 0xc
 1638 0113 03       		.uleb128 0x3
 1639 0114 0E       		.uleb128 0xe
 1640 0115 3A       		.uleb128 0x3a
 1641 0116 0B       		.uleb128 0xb
 1642 0117 3B       		.uleb128 0x3b
 1643 0118 0B       		.uleb128 0xb
 1644 0119 27       		.uleb128 0x27
 1645 011a 0C       		.uleb128 0xc
ARM GAS  G:\Users\Jaxb\AppData\Local\Temp\cc7U8HMJ.s 			page 33


 1646 011b 49       		.uleb128 0x49
 1647 011c 13       		.uleb128 0x13
 1648 011d 11       		.uleb128 0x11
 1649 011e 01       		.uleb128 0x1
 1650 011f 12       		.uleb128 0x12
 1651 0120 01       		.uleb128 0x1
 1652 0121 40       		.uleb128 0x40
 1653 0122 06       		.uleb128 0x6
 1654 0123 9642     		.uleb128 0x2116
 1655 0125 0C       		.uleb128 0xc
 1656 0126 01       		.uleb128 0x1
 1657 0127 13       		.uleb128 0x13
 1658 0128 00       		.byte	0
 1659 0129 00       		.byte	0
 1660 012a 17       		.uleb128 0x17
 1661 012b 05       		.uleb128 0x5
 1662 012c 00       		.byte	0
 1663 012d 03       		.uleb128 0x3
 1664 012e 0E       		.uleb128 0xe
 1665 012f 3A       		.uleb128 0x3a
 1666 0130 0B       		.uleb128 0xb
 1667 0131 3B       		.uleb128 0x3b
 1668 0132 0B       		.uleb128 0xb
 1669 0133 49       		.uleb128 0x49
 1670 0134 13       		.uleb128 0x13
 1671 0135 02       		.uleb128 0x2
 1672 0136 0A       		.uleb128 0xa
 1673 0137 00       		.byte	0
 1674 0138 00       		.byte	0
 1675 0139 18       		.uleb128 0x18
 1676 013a 2E       		.uleb128 0x2e
 1677 013b 00       		.byte	0
 1678 013c 3F       		.uleb128 0x3f
 1679 013d 0C       		.uleb128 0xc
 1680 013e 03       		.uleb128 0x3
 1681 013f 0E       		.uleb128 0xe
 1682 0140 3A       		.uleb128 0x3a
 1683 0141 0B       		.uleb128 0xb
 1684 0142 3B       		.uleb128 0x3b
 1685 0143 0B       		.uleb128 0xb
 1686 0144 27       		.uleb128 0x27
 1687 0145 0C       		.uleb128 0xc
 1688 0146 11       		.uleb128 0x11
 1689 0147 01       		.uleb128 0x1
 1690 0148 12       		.uleb128 0x12
 1691 0149 01       		.uleb128 0x1
 1692 014a 40       		.uleb128 0x40
 1693 014b 06       		.uleb128 0x6
 1694 014c 9642     		.uleb128 0x2116
 1695 014e 0C       		.uleb128 0xc
 1696 014f 00       		.byte	0
 1697 0150 00       		.byte	0
 1698 0151 19       		.uleb128 0x19
 1699 0152 2E       		.uleb128 0x2e
 1700 0153 01       		.byte	0x1
 1701 0154 03       		.uleb128 0x3
 1702 0155 0E       		.uleb128 0xe
ARM GAS  G:\Users\Jaxb\AppData\Local\Temp\cc7U8HMJ.s 			page 34


 1703 0156 3A       		.uleb128 0x3a
 1704 0157 0B       		.uleb128 0xb
 1705 0158 3B       		.uleb128 0x3b
 1706 0159 0B       		.uleb128 0xb
 1707 015a 27       		.uleb128 0x27
 1708 015b 0C       		.uleb128 0xc
 1709 015c 11       		.uleb128 0x11
 1710 015d 01       		.uleb128 0x1
 1711 015e 12       		.uleb128 0x12
 1712 015f 01       		.uleb128 0x1
 1713 0160 40       		.uleb128 0x40
 1714 0161 06       		.uleb128 0x6
 1715 0162 9642     		.uleb128 0x2116
 1716 0164 0C       		.uleb128 0xc
 1717 0165 01       		.uleb128 0x1
 1718 0166 13       		.uleb128 0x13
 1719 0167 00       		.byte	0
 1720 0168 00       		.byte	0
 1721 0169 1A       		.uleb128 0x1a
 1722 016a 2E       		.uleb128 0x2e
 1723 016b 01       		.byte	0x1
 1724 016c 03       		.uleb128 0x3
 1725 016d 0E       		.uleb128 0xe
 1726 016e 3A       		.uleb128 0x3a
 1727 016f 0B       		.uleb128 0xb
 1728 0170 3B       		.uleb128 0x3b
 1729 0171 0B       		.uleb128 0xb
 1730 0172 27       		.uleb128 0x27
 1731 0173 0C       		.uleb128 0xc
 1732 0174 49       		.uleb128 0x49
 1733 0175 13       		.uleb128 0x13
 1734 0176 11       		.uleb128 0x11
 1735 0177 01       		.uleb128 0x1
 1736 0178 12       		.uleb128 0x12
 1737 0179 01       		.uleb128 0x1
 1738 017a 40       		.uleb128 0x40
 1739 017b 06       		.uleb128 0x6
 1740 017c 9642     		.uleb128 0x2116
 1741 017e 0C       		.uleb128 0xc
 1742 017f 01       		.uleb128 0x1
 1743 0180 13       		.uleb128 0x13
 1744 0181 00       		.byte	0
 1745 0182 00       		.byte	0
 1746 0183 00       		.byte	0
 1747              		.section	.debug_loc,"",%progbits
 1748              	.Ldebug_loc0:
 1749              	.LLST7:
 1750 0000 40020000 		.4byte	.LFB19-.Ltext0
 1751 0004 44020000 		.4byte	.LCFI34-.Ltext0
 1752 0008 0200     		.2byte	0x2
 1753 000a 7D       		.byte	0x7d
 1754 000b 00       		.sleb128 0
 1755 000c 44020000 		.4byte	.LCFI34-.Ltext0
 1756 0010 46020000 		.4byte	.LCFI35-.Ltext0
 1757 0014 0200     		.2byte	0x2
 1758 0016 7D       		.byte	0x7d
 1759 0017 10       		.sleb128 16
ARM GAS  G:\Users\Jaxb\AppData\Local\Temp\cc7U8HMJ.s 			page 35


 1760 0018 46020000 		.4byte	.LCFI35-.Ltext0
 1761 001c 48020000 		.4byte	.LCFI36-.Ltext0
 1762 0020 0200     		.2byte	0x2
 1763 0022 7D       		.byte	0x7d
 1764 0023 20       		.sleb128 32
 1765 0024 48020000 		.4byte	.LCFI36-.Ltext0
 1766 0028 CC020000 		.4byte	.LCFI37-.Ltext0
 1767 002c 0200     		.2byte	0x2
 1768 002e 77       		.byte	0x77
 1769 002f 20       		.sleb128 32
 1770 0030 CC020000 		.4byte	.LCFI37-.Ltext0
 1771 0034 CE020000 		.4byte	.LCFI38-.Ltext0
 1772 0038 0200     		.2byte	0x2
 1773 003a 77       		.byte	0x77
 1774 003b 10       		.sleb128 16
 1775 003c CE020000 		.4byte	.LCFI38-.Ltext0
 1776 0040 E4020000 		.4byte	.LFE19-.Ltext0
 1777 0044 0200     		.2byte	0x2
 1778 0046 7D       		.byte	0x7d
 1779 0047 10       		.sleb128 16
 1780 0048 00000000 		.4byte	0
 1781 004c 00000000 		.4byte	0
 1782              	.LLST6:
 1783 0050 14020000 		.4byte	.LFB18-.Ltext0
 1784 0054 16020000 		.4byte	.LCFI29-.Ltext0
 1785 0058 0200     		.2byte	0x2
 1786 005a 7D       		.byte	0x7d
 1787 005b 00       		.sleb128 0
 1788 005c 16020000 		.4byte	.LCFI29-.Ltext0
 1789 0060 18020000 		.4byte	.LCFI30-.Ltext0
 1790 0064 0200     		.2byte	0x2
 1791 0066 7D       		.byte	0x7d
 1792 0067 08       		.sleb128 8
 1793 0068 18020000 		.4byte	.LCFI30-.Ltext0
 1794 006c 1A020000 		.4byte	.LCFI31-.Ltext0
 1795 0070 0200     		.2byte	0x2
 1796 0072 7D       		.byte	0x7d
 1797 0073 10       		.sleb128 16
 1798 0074 1A020000 		.4byte	.LCFI31-.Ltext0
 1799 0078 36020000 		.4byte	.LCFI32-.Ltext0
 1800 007c 0200     		.2byte	0x2
 1801 007e 77       		.byte	0x77
 1802 007f 10       		.sleb128 16
 1803 0080 36020000 		.4byte	.LCFI32-.Ltext0
 1804 0084 38020000 		.4byte	.LCFI33-.Ltext0
 1805 0088 0200     		.2byte	0x2
 1806 008a 77       		.byte	0x77
 1807 008b 08       		.sleb128 8
 1808 008c 38020000 		.4byte	.LCFI33-.Ltext0
 1809 0090 40020000 		.4byte	.LFE18-.Ltext0
 1810 0094 0200     		.2byte	0x2
 1811 0096 7D       		.byte	0x7d
 1812 0097 08       		.sleb128 8
 1813 0098 00000000 		.4byte	0
 1814 009c 00000000 		.4byte	0
 1815              	.LLST5:
 1816 00a0 E8010000 		.4byte	.LFB17-.Ltext0
ARM GAS  G:\Users\Jaxb\AppData\Local\Temp\cc7U8HMJ.s 			page 36


 1817 00a4 EA010000 		.4byte	.LCFI24-.Ltext0
 1818 00a8 0200     		.2byte	0x2
 1819 00aa 7D       		.byte	0x7d
 1820 00ab 00       		.sleb128 0
 1821 00ac EA010000 		.4byte	.LCFI24-.Ltext0
 1822 00b0 EC010000 		.4byte	.LCFI25-.Ltext0
 1823 00b4 0200     		.2byte	0x2
 1824 00b6 7D       		.byte	0x7d
 1825 00b7 08       		.sleb128 8
 1826 00b8 EC010000 		.4byte	.LCFI25-.Ltext0
 1827 00bc EE010000 		.4byte	.LCFI26-.Ltext0
 1828 00c0 0200     		.2byte	0x2
 1829 00c2 7D       		.byte	0x7d
 1830 00c3 10       		.sleb128 16
 1831 00c4 EE010000 		.4byte	.LCFI26-.Ltext0
 1832 00c8 0A020000 		.4byte	.LCFI27-.Ltext0
 1833 00cc 0200     		.2byte	0x2
 1834 00ce 77       		.byte	0x77
 1835 00cf 10       		.sleb128 16
 1836 00d0 0A020000 		.4byte	.LCFI27-.Ltext0
 1837 00d4 0C020000 		.4byte	.LCFI28-.Ltext0
 1838 00d8 0200     		.2byte	0x2
 1839 00da 77       		.byte	0x77
 1840 00db 08       		.sleb128 8
 1841 00dc 0C020000 		.4byte	.LCFI28-.Ltext0
 1842 00e0 14020000 		.4byte	.LFE17-.Ltext0
 1843 00e4 0200     		.2byte	0x2
 1844 00e6 7D       		.byte	0x7d
 1845 00e7 08       		.sleb128 8
 1846 00e8 00000000 		.4byte	0
 1847 00ec 00000000 		.4byte	0
 1848              	.LLST4:
 1849 00f0 50010000 		.4byte	.LFB16-.Ltext0
 1850 00f4 52010000 		.4byte	.LCFI19-.Ltext0
 1851 00f8 0200     		.2byte	0x2
 1852 00fa 7D       		.byte	0x7d
 1853 00fb 00       		.sleb128 0
 1854 00fc 52010000 		.4byte	.LCFI19-.Ltext0
 1855 0100 54010000 		.4byte	.LCFI20-.Ltext0
 1856 0104 0200     		.2byte	0x2
 1857 0106 7D       		.byte	0x7d
 1858 0107 08       		.sleb128 8
 1859 0108 54010000 		.4byte	.LCFI20-.Ltext0
 1860 010c 56010000 		.4byte	.LCFI21-.Ltext0
 1861 0110 0200     		.2byte	0x2
 1862 0112 7D       		.byte	0x7d
 1863 0113 20       		.sleb128 32
 1864 0114 56010000 		.4byte	.LCFI21-.Ltext0
 1865 0118 D6010000 		.4byte	.LCFI22-.Ltext0
 1866 011c 0200     		.2byte	0x2
 1867 011e 77       		.byte	0x77
 1868 011f 20       		.sleb128 32
 1869 0120 D6010000 		.4byte	.LCFI22-.Ltext0
 1870 0124 D8010000 		.4byte	.LCFI23-.Ltext0
 1871 0128 0200     		.2byte	0x2
 1872 012a 77       		.byte	0x77
 1873 012b 08       		.sleb128 8
ARM GAS  G:\Users\Jaxb\AppData\Local\Temp\cc7U8HMJ.s 			page 37


 1874 012c D8010000 		.4byte	.LCFI23-.Ltext0
 1875 0130 E8010000 		.4byte	.LFE16-.Ltext0
 1876 0134 0200     		.2byte	0x2
 1877 0136 7D       		.byte	0x7d
 1878 0137 08       		.sleb128 8
 1879 0138 00000000 		.4byte	0
 1880 013c 00000000 		.4byte	0
 1881              	.LLST3:
 1882 0140 08010000 		.4byte	.LFB15-.Ltext0
 1883 0144 0A010000 		.4byte	.LCFI14-.Ltext0
 1884 0148 0200     		.2byte	0x2
 1885 014a 7D       		.byte	0x7d
 1886 014b 00       		.sleb128 0
 1887 014c 0A010000 		.4byte	.LCFI14-.Ltext0
 1888 0150 0C010000 		.4byte	.LCFI15-.Ltext0
 1889 0154 0200     		.2byte	0x2
 1890 0156 7D       		.byte	0x7d
 1891 0157 08       		.sleb128 8
 1892 0158 0C010000 		.4byte	.LCFI15-.Ltext0
 1893 015c 0E010000 		.4byte	.LCFI16-.Ltext0
 1894 0160 0200     		.2byte	0x2
 1895 0162 7D       		.byte	0x7d
 1896 0163 10       		.sleb128 16
 1897 0164 0E010000 		.4byte	.LCFI16-.Ltext0
 1898 0168 40010000 		.4byte	.LCFI17-.Ltext0
 1899 016c 0200     		.2byte	0x2
 1900 016e 77       		.byte	0x77
 1901 016f 10       		.sleb128 16
 1902 0170 40010000 		.4byte	.LCFI17-.Ltext0
 1903 0174 42010000 		.4byte	.LCFI18-.Ltext0
 1904 0178 0200     		.2byte	0x2
 1905 017a 77       		.byte	0x77
 1906 017b 08       		.sleb128 8
 1907 017c 42010000 		.4byte	.LCFI18-.Ltext0
 1908 0180 50010000 		.4byte	.LFE15-.Ltext0
 1909 0184 0200     		.2byte	0x2
 1910 0186 7D       		.byte	0x7d
 1911 0187 08       		.sleb128 8
 1912 0188 00000000 		.4byte	0
 1913 018c 00000000 		.4byte	0
 1914              	.LLST2:
 1915 0190 CE000000 		.4byte	.LFB14-.Ltext0
 1916 0194 D0000000 		.4byte	.LCFI10-.Ltext0
 1917 0198 0200     		.2byte	0x2
 1918 019a 7D       		.byte	0x7d
 1919 019b 00       		.sleb128 0
 1920 019c D0000000 		.4byte	.LCFI10-.Ltext0
 1921 01a0 D2000000 		.4byte	.LCFI11-.Ltext0
 1922 01a4 0200     		.2byte	0x2
 1923 01a6 7D       		.byte	0x7d
 1924 01a7 08       		.sleb128 8
 1925 01a8 D2000000 		.4byte	.LCFI11-.Ltext0
 1926 01ac D4000000 		.4byte	.LCFI12-.Ltext0
 1927 01b0 0200     		.2byte	0x2
 1928 01b2 7D       		.byte	0x7d
 1929 01b3 10       		.sleb128 16
 1930 01b4 D4000000 		.4byte	.LCFI12-.Ltext0
ARM GAS  G:\Users\Jaxb\AppData\Local\Temp\cc7U8HMJ.s 			page 38


 1931 01b8 F6000000 		.4byte	.LCFI13-.Ltext0
 1932 01bc 0200     		.2byte	0x2
 1933 01be 77       		.byte	0x77
 1934 01bf 08       		.sleb128 8
 1935 01c0 F6000000 		.4byte	.LCFI13-.Ltext0
 1936 01c4 08010000 		.4byte	.LFE14-.Ltext0
 1937 01c8 0200     		.2byte	0x2
 1938 01ca 7D       		.byte	0x7d
 1939 01cb 08       		.sleb128 8
 1940 01cc 00000000 		.4byte	0
 1941 01d0 00000000 		.4byte	0
 1942              	.LLST1:
 1943 01d4 A8000000 		.4byte	.LFB13-.Ltext0
 1944 01d8 AA000000 		.4byte	.LCFI5-.Ltext0
 1945 01dc 0200     		.2byte	0x2
 1946 01de 7D       		.byte	0x7d
 1947 01df 00       		.sleb128 0
 1948 01e0 AA000000 		.4byte	.LCFI5-.Ltext0
 1949 01e4 AC000000 		.4byte	.LCFI6-.Ltext0
 1950 01e8 0200     		.2byte	0x2
 1951 01ea 7D       		.byte	0x7d
 1952 01eb 08       		.sleb128 8
 1953 01ec AC000000 		.4byte	.LCFI6-.Ltext0
 1954 01f0 AE000000 		.4byte	.LCFI7-.Ltext0
 1955 01f4 0200     		.2byte	0x2
 1956 01f6 7D       		.byte	0x7d
 1957 01f7 18       		.sleb128 24
 1958 01f8 AE000000 		.4byte	.LCFI7-.Ltext0
 1959 01fc CA000000 		.4byte	.LCFI8-.Ltext0
 1960 0200 0200     		.2byte	0x2
 1961 0202 77       		.byte	0x77
 1962 0203 18       		.sleb128 24
 1963 0204 CA000000 		.4byte	.LCFI8-.Ltext0
 1964 0208 CC000000 		.4byte	.LCFI9-.Ltext0
 1965 020c 0200     		.2byte	0x2
 1966 020e 77       		.byte	0x77
 1967 020f 08       		.sleb128 8
 1968 0210 CC000000 		.4byte	.LCFI9-.Ltext0
 1969 0214 CE000000 		.4byte	.LFE13-.Ltext0
 1970 0218 0200     		.2byte	0x2
 1971 021a 7D       		.byte	0x7d
 1972 021b 08       		.sleb128 8
 1973 021c 00000000 		.4byte	0
 1974 0220 00000000 		.4byte	0
 1975              	.LLST0:
 1976 0224 00000000 		.4byte	.LFB12-.Ltext0
 1977 0228 04000000 		.4byte	.LCFI0-.Ltext0
 1978 022c 0200     		.2byte	0x2
 1979 022e 7D       		.byte	0x7d
 1980 022f 00       		.sleb128 0
 1981 0230 04000000 		.4byte	.LCFI0-.Ltext0
 1982 0234 06000000 		.4byte	.LCFI1-.Ltext0
 1983 0238 0200     		.2byte	0x2
 1984 023a 7D       		.byte	0x7d
 1985 023b 10       		.sleb128 16
 1986 023c 06000000 		.4byte	.LCFI1-.Ltext0
 1987 0240 08000000 		.4byte	.LCFI2-.Ltext0
ARM GAS  G:\Users\Jaxb\AppData\Local\Temp\cc7U8HMJ.s 			page 39


 1988 0244 0200     		.2byte	0x2
 1989 0246 7D       		.byte	0x7d
 1990 0247 28       		.sleb128 40
 1991 0248 08000000 		.4byte	.LCFI2-.Ltext0
 1992 024c A2000000 		.4byte	.LCFI3-.Ltext0
 1993 0250 0200     		.2byte	0x2
 1994 0252 77       		.byte	0x77
 1995 0253 28       		.sleb128 40
 1996 0254 A2000000 		.4byte	.LCFI3-.Ltext0
 1997 0258 A4000000 		.4byte	.LCFI4-.Ltext0
 1998 025c 0200     		.2byte	0x2
 1999 025e 77       		.byte	0x77
 2000 025f 10       		.sleb128 16
 2001 0260 A4000000 		.4byte	.LCFI4-.Ltext0
 2002 0264 A8000000 		.4byte	.LFE12-.Ltext0
 2003 0268 0200     		.2byte	0x2
 2004 026a 7D       		.byte	0x7d
 2005 026b 10       		.sleb128 16
 2006 026c 00000000 		.4byte	0
 2007 0270 00000000 		.4byte	0
 2008              		.section	.debug_aranges,"",%progbits
 2009 0000 1C000000 		.4byte	0x1c
 2010 0004 0200     		.2byte	0x2
 2011 0006 00000000 		.4byte	.Ldebug_info0
 2012 000a 04       		.byte	0x4
 2013 000b 00       		.byte	0
 2014 000c 0000     		.2byte	0
 2015 000e 0000     		.2byte	0
 2016 0010 00000000 		.4byte	.Ltext0
 2017 0014 E4020000 		.4byte	.Letext0-.Ltext0
 2018 0018 00000000 		.4byte	0
 2019 001c 00000000 		.4byte	0
 2020              		.section	.debug_line,"",%progbits
 2021              	.Ldebug_line0:
 2022 0000 91010000 		.section	.debug_str,"MS",%progbits,1
 2022      0200FB00 
 2022      00000201 
 2022      FB0E0D00 
 2022      01010101 
 2023              	.LASF40:
 2024 0000 7072696F 		.ascii	"prio\000"
 2024      00
 2025              	.LASF42:
 2026 0005 7461736B 		.ascii	"task_state\000"
 2026      5F737461 
 2026      746500
 2027              	.LASF21:
 2028 0010 6E657874 		.ascii	"next\000"
 2028      00
 2029              	.LASF56:
 2030 0015 64656C61 		.ascii	"delay_heap_remove_top_TCB\000"
 2030      795F6865 
 2030      61705F72 
 2030      656D6F76 
 2030      655F746F 
 2031              	.LASF24:
 2032 002f 53544154 		.ascii	"STATE_DELAY\000"
ARM GAS  G:\Users\Jaxb\AppData\Local\Temp\cc7U8HMJ.s 			page 40


 2032      455F4445 
 2032      4C415900 
 2033              	.LASF35:
 2034 003b 5441534B 		.ascii	"TASK_PRIO_TYPE\000"
 2034      5F505249 
 2034      4F5F5459 
 2034      504500
 2035              	.LASF8:
 2036 004a 696E6465 		.ascii	"index_change_record\000"
 2036      785F6368 
 2036      616E6765 
 2036      5F726563 
 2036      6F726400 
 2037              	.LASF64:
 2038 005e 696E6465 		.ascii	"index2\000"
 2038      783200
 2039              	.LASF58:
 2040 0065 72656D6F 		.ascii	"remove_from_delay_heap\000"
 2040      76655F66 
 2040      726F6D5F 
 2040      64656C61 
 2040      795F6865 
 2041              	.LASF71:
 2042 007c 5F5F696E 		.ascii	"__init_delay_heap\000"
 2042      69745F64 
 2042      656C6179 
 2042      5F686561 
 2042      7000
 2043              	.LASF31:
 2044 008e 53544154 		.ascii	"STATE_PUT_MESSAGE_QUEUE_TIMEOUT\000"
 2044      455F5055 
 2044      545F4D45 
 2044      53534147 
 2044      455F5155 
 2045              	.LASF43:
 2046 00ae 64656C61 		.ascii	"delay_heap_position\000"
 2046      795F6865 
 2046      61705F70 
 2046      6F736974 
 2046      696F6E00 
 2047              	.LASF60:
 2048 00c2 696E7365 		.ascii	"insert_into_delay_heap\000"
 2048      72745F69 
 2048      6E746F5F 
 2048      64656C61 
 2048      795F6865 
 2049              	.LASF47:
 2050 00d9 74696D65 		.ascii	"timeslice_hope_time\000"
 2050      736C6963 
 2050      655F686F 
 2050      70655F74 
 2050      696D6500 
 2051              	.LASF37:
 2052 00ed 73746163 		.ascii	"stack\000"
 2052      6B00
 2053              	.LASF3:
 2054 00f3 64617461 		.ascii	"data_size\000"
ARM GAS  G:\Users\Jaxb\AppData\Local\Temp\cc7U8HMJ.s 			page 41


 2054      5F73697A 
 2054      6500
 2055              	.LASF9:
 2056 00fd 756E7369 		.ascii	"unsigned int\000"
 2056      676E6564 
 2056      20696E74 
 2056      00
 2057              	.LASF59:
 2058 010a 5443425F 		.ascii	"TCB_ptr_buffer\000"
 2058      7074725F 
 2058      62756666 
 2058      657200
 2059              	.LASF53:
 2060 0119 5443425F 		.ascii	"TCB_ptr1\000"
 2060      70747231 
 2060      00
 2061              	.LASF6:
 2062 0122 6C697474 		.ascii	"little_heap\000"
 2062      6C655F68 
 2062      65617000 
 2063              	.LASF54:
 2064 012e 5443425F 		.ascii	"TCB_ptr2\000"
 2064      70747232 
 2064      00
 2065              	.LASF28:
 2066 0137 53544154 		.ascii	"STATE_WAIT_MESSAGE_QUEUE_FOREVER\000"
 2066      455F5741 
 2066      49545F4D 
 2066      45535341 
 2066      47455F51 
 2067              	.LASF23:
 2068 0158 53544154 		.ascii	"STATE_READY\000"
 2068      455F5245 
 2068      41445900 
 2069              	.LASF41:
 2070 0164 72657365 		.ascii	"reserve_prio\000"
 2070      7276655F 
 2070      7072696F 
 2070      00
 2071              	.LASF13:
 2072 0171 494E5436 		.ascii	"INT64\000"
 2072      3400
 2073              	.LASF7:
 2074 0177 64617461 		.ascii	"data\000"
 2074      00
 2075              	.LASF55:
 2076 017c 5443425F 		.ascii	"TCB_ptr\000"
 2076      70747200 
 2077              	.LASF15:
 2078 0184 756E7369 		.ascii	"unsigned char\000"
 2078      676E6564 
 2078      20636861 
 2078      7200
 2079              	.LASF72:
 2080 0192 5F636D70 		.ascii	"_cmp\000"
 2080      00
 2081              	.LASF18:
ARM GAS  G:\Users\Jaxb\AppData\Local\Temp\cc7U8HMJ.s 			page 42


 2082 0197 55494E54 		.ascii	"UINT64\000"
 2082      363400
 2083              	.LASF57:
 2084 019e 64656C61 		.ascii	"delay_heap_get_top_TCB\000"
 2084      795F6865 
 2084      61705F67 
 2084      65745F74 
 2084      6F705F54 
 2085              	.LASF16:
 2086 01b5 73686F72 		.ascii	"short unsigned int\000"
 2086      7420756E 
 2086      7369676E 
 2086      65642069 
 2086      6E7400
 2087              	.LASF29:
 2088 01c8 53544154 		.ascii	"STATE_WAIT_MESSAGE_QUEUE_TIMEOUT\000"
 2088      455F5741 
 2088      49545F4D 
 2088      45535341 
 2088      47455F51 
 2089              	.LASF39:
 2090 01e9 73746163 		.ascii	"stack_end\000"
 2090      6B5F656E 
 2090      6400
 2091              	.LASF26:
 2092 01f3 53544154 		.ascii	"STATE_WAIT_MCB_FOREVER\000"
 2092      455F5741 
 2092      49545F4D 
 2092      43425F46 
 2092      4F524556 
 2093              	.LASF2:
 2094 020a 6375725F 		.ascii	"cur_len\000"
 2094      6C656E00 
 2095              	.LASF48:
 2096 0212 74696D65 		.ascii	"timeslice_rest_time\000"
 2096      736C6963 
 2096      655F7265 
 2096      73745F74 
 2096      696D6500 
 2097              	.LASF52:
 2098 0226 64656C61 		.ascii	"delay_heap\000"
 2098      795F6865 
 2098      617000
 2099              	.LASF45:
 2100 0231 73757370 		.ascii	"suspend_list\000"
 2100      656E645F 
 2100      6C697374 
 2100      00
 2101              	.LASF1:
 2102 023e 6D61785F 		.ascii	"max_len\000"
 2102      6C656E00 
 2103              	.LASF33:
 2104 0246 5441534B 		.ascii	"TASK_STATE\000"
 2104      5F535441 
 2104      544500
 2105              	.LASF0:
 2106 0251 64617461 		.ascii	"data_ptr\000"
ARM GAS  G:\Users\Jaxb\AppData\Local\Temp\cc7U8HMJ.s 			page 43


 2106      5F707472 
 2106      00
 2107              	.LASF36:
 2108 025a 7461736B 		.ascii	"task_control_block_struct\000"
 2108      5F636F6E 
 2108      74726F6C 
 2108      5F626C6F 
 2108      636B5F73 
 2109              	.LASF66:
 2110 0274 2E2E2F2E 		.ascii	"../../source/src/kernel/OS_CORE/schedule/os_delay.c"
 2110      2E2F736F 
 2110      75726365 
 2110      2F737263 
 2110      2F6B6572 
 2111 02a7 00       		.ascii	"\000"
 2112              	.LASF19:
 2113 02a8 6C6F6E67 		.ascii	"long long unsigned int\000"
 2113      206C6F6E 
 2113      6720756E 
 2113      7369676E 
 2113      65642069 
 2114              	.LASF44:
 2115 02bf 73616D65 		.ascii	"same_prio_list\000"
 2115      5F707269 
 2115      6F5F6C69 
 2115      737400
 2116              	.LASF68:
 2117 02ce 5461736B 		.ascii	"Task_State\000"
 2117      5F537461 
 2117      746500
 2118              	.LASF12:
 2119 02d9 56656374 		.ascii	"Vector\000"
 2119      6F7200
 2120              	.LASF32:
 2121 02e0 53544154 		.ascii	"STATE_WAIT_MUTEX_FOREVER\000"
 2121      455F5741 
 2121      49545F4D 
 2121      55544558 
 2121      5F464F52 
 2122              	.LASF34:
 2123 02f9 53544143 		.ascii	"STACK_TYPE\000"
 2123      4B5F5459 
 2123      504500
 2124              	.LASF20:
 2125 0304 6C697374 		.ascii	"list_head\000"
 2125      5F686561 
 2125      6400
 2126              	.LASF14:
 2127 030e 6C6F6E67 		.ascii	"long long int\000"
 2127      206C6F6E 
 2127      6720696E 
 2127      7400
 2128              	.LASF38:
 2129 031c 73746163 		.ascii	"stack_size\000"
 2129      6B5F7369 
 2129      7A6500
 2130              	.LASF5:
ARM GAS  G:\Users\Jaxb\AppData\Local\Temp\cc7U8HMJ.s 			page 44


 2131 0327 76656374 		.ascii	"vector\000"
 2131      6F7200
 2132              	.LASF46:
 2133 032e 6E616D65 		.ascii	"name\000"
 2133      00
 2134              	.LASF49:
 2135 0333 61747472 		.ascii	"attribution\000"
 2135      69627574 
 2135      696F6E00 
 2136              	.LASF17:
 2137 033f 55494E54 		.ascii	"UINT32\000"
 2137      333200
 2138              	.LASF63:
 2139 0346 696E6465 		.ascii	"index1\000"
 2139      783100
 2140              	.LASF4:
 2141 034d 65787465 		.ascii	"extension_factor\000"
 2141      6E73696F 
 2141      6E5F6661 
 2141      63746F72 
 2141      00
 2142              	.LASF11:
 2143 035e 73686F72 		.ascii	"short int\000"
 2143      7420696E 
 2143      7400
 2144              	.LASF62:
 2145 0368 696E6465 		.ascii	"index\000"
 2145      7800
 2146              	.LASF70:
 2147 036e 7368656C 		.ascii	"shell_delay_heap_check\000"
 2147      6C5F6465 
 2147      6C61795F 
 2147      68656170 
 2147      5F636865 
 2148              	.LASF65:
 2149 0385 474E5520 		.ascii	"GNU C11 7.3.1 20180622 (release) [ARM/embedded-7-br"
 2149      43313120 
 2149      372E332E 
 2149      31203230 
 2149      31383036 
 2150 03b8 616E6368 		.ascii	"anch revision 261907] -mcpu=cortex-m3 -mthumb -mapc"
 2150      20726576 
 2150      6973696F 
 2150      6E203236 
 2150      31393037 
 2151 03eb 732D6672 		.ascii	"s-frame -mthumb-interwork -mcpu=cortex-m3 -mthumb -"
 2151      616D6520 
 2151      2D6D7468 
 2151      756D622D 
 2151      696E7465 
 2152 041e 67647761 		.ascii	"gdwarf-2 -O0\000"
 2152      72662D32 
 2152      202D4F30 
 2152      00
 2153              	.LASF51:
 2154 042b 63686172 		.ascii	"char\000"
 2154      00
ARM GAS  G:\Users\Jaxb\AppData\Local\Temp\cc7U8HMJ.s 			page 45


 2155              	.LASF27:
 2156 0430 53544154 		.ascii	"STATE_WAIT_MCB_TIMEOUT\000"
 2156      455F5741 
 2156      49545F4D 
 2156      43425F54 
 2156      494D454F 
 2157              	.LASF10:
 2158 0447 7369676E 		.ascii	"signed char\000"
 2158      65642063 
 2158      68617200 
 2159              	.LASF30:
 2160 0453 53544154 		.ascii	"STATE_PUT_MESSAGE_QUEUE_FOREVER\000"
 2160      455F5055 
 2160      545F4D45 
 2160      53534147 
 2160      455F5155 
 2161              	.LASF25:
 2162 0473 53544154 		.ascii	"STATE_SUSPEND_NORMAL\000"
 2162      455F5355 
 2162      5350454E 
 2162      445F4E4F 
 2162      524D414C 
 2163              	.LASF69:
 2164 0488 675F696E 		.ascii	"g_interrupt_count\000"
 2164      74657272 
 2164      7570745F 
 2164      636F756E 
 2164      7400
 2165              	.LASF50:
 2166 049a 64656C61 		.ascii	"delay_reach_time\000"
 2166      795F7265 
 2166      6163685F 
 2166      74696D65 
 2166      00
 2167              	.LASF22:
 2168 04ab 70726576 		.ascii	"prev\000"
 2168      00
 2169              	.LASF67:
 2170 04b0 463A5C6B 		.ascii	"F:\\kaka\\KAKAOS\\C\\windows\\Project\\RVMDK\243\250"
 2170      616B615C 
 2170      4B414B41 
 2170      4F535C43 
 2170      5C77696E 
 2171 04d8 757635A3 		.ascii	"uv5\243\251\000"
 2171      A900
 2172              	.LASF61:
 2173 04de 56656374 		.ascii	"Vector_ptr\000"
 2173      6F725F70 
 2173      747200
 2174              		.ident	"GCC: (GNU Tools for Arm Embedded Processors 7-2018-q2-update) 7.3.1 20180622 (release) [AR
ARM GAS  G:\Users\Jaxb\AppData\Local\Temp\cc7U8HMJ.s 			page 46


DEFINED SYMBOLS
                            *ABS*:00000000 os_delay.c
G:\Users\Jaxb\AppData\Local\Temp\cc7U8HMJ.s:16     .bss:00000000 $d
G:\Users\Jaxb\AppData\Local\Temp\cc7U8HMJ.s:17     .bss:00000000 delay_heap
G:\Users\Jaxb\AppData\Local\Temp\cc7U8HMJ.s:21     .text:00000000 $t
G:\Users\Jaxb\AppData\Local\Temp\cc7U8HMJ.s:27     .text:00000000 _cmp
G:\Users\Jaxb\AppData\Local\Temp\cc7U8HMJ.s:132    .text:000000a8 index_change_record
G:\Users\Jaxb\AppData\Local\Temp\cc7U8HMJ.s:175    .rodata:00000000 $d
G:\Users\Jaxb\AppData\Local\Temp\cc7U8HMJ.s:186    .text:000000ce __init_delay_heap
G:\Users\Jaxb\AppData\Local\Temp\cc7U8HMJ.s:231    .text:000000f8 $d
G:\Users\Jaxb\AppData\Local\Temp\cc7U8HMJ.s:248    .text:00000108 $t
G:\Users\Jaxb\AppData\Local\Temp\cc7U8HMJ.s:255    .text:00000108 insert_into_delay_heap
G:\Users\Jaxb\AppData\Local\Temp\cc7U8HMJ.s:313    .text:00000144 $d
G:\Users\Jaxb\AppData\Local\Temp\cc7U8HMJ.s:325    .text:00000150 $t
G:\Users\Jaxb\AppData\Local\Temp\cc7U8HMJ.s:332    .text:00000150 remove_from_delay_heap
G:\Users\Jaxb\AppData\Local\Temp\cc7U8HMJ.s:439    .text:000001dc $d
G:\Users\Jaxb\AppData\Local\Temp\cc7U8HMJ.s:445    .text:000001e8 $t
G:\Users\Jaxb\AppData\Local\Temp\cc7U8HMJ.s:452    .text:000001e8 delay_heap_get_top_TCB
G:\Users\Jaxb\AppData\Local\Temp\cc7U8HMJ.s:498    .text:00000210 $d
G:\Users\Jaxb\AppData\Local\Temp\cc7U8HMJ.s:502    .text:00000214 $t
G:\Users\Jaxb\AppData\Local\Temp\cc7U8HMJ.s:509    .text:00000214 delay_heap_remove_top_TCB
G:\Users\Jaxb\AppData\Local\Temp\cc7U8HMJ.s:555    .text:0000023c $d
G:\Users\Jaxb\AppData\Local\Temp\cc7U8HMJ.s:571    .text:00000240 $t
G:\Users\Jaxb\AppData\Local\Temp\cc7U8HMJ.s:578    .text:00000240 shell_delay_heap_check
G:\Users\Jaxb\AppData\Local\Temp\cc7U8HMJ.s:674    .text:000002d4 $d

UNDEFINED SYMBOLS
Vector_get_index_address
Vector_get_index_data
heap_init
ka_printf
_ASSERT
heap_push
heap_get_cur_len
heap_get_index_data
heap_remove_index_data
insert_ready_TCB
heap_get_index_data_safe
