ARM GAS  G:\Users\Jaxb\AppData\Local\Temp\ccnDzD0x.s 			page 1


   1              		.cpu cortex-m3
   2              		.eabi_attribute 20, 1
   3              		.eabi_attribute 21, 1
   4              		.eabi_attribute 23, 3
   5              		.eabi_attribute 24, 1
   6              		.eabi_attribute 25, 1
   7              		.eabi_attribute 26, 1
   8              		.eabi_attribute 30, 6
   9              		.eabi_attribute 34, 1
  10              		.eabi_attribute 18, 4
  11              		.file	"os_delay.c"
  12              		.text
  13              	.Ltext0:
  14              		.cfi_sections	.debug_frame
  15              		.align	1
  16              		.syntax unified
  17              		.thumb
  18              		.thumb_func
  19              		.fpu softvfp
  20              		.type	Vector_get_index_data, %function
  21              	Vector_get_index_data:
  22              	.LFB0:
  23              		.file 1 "../../source/include/os_lib/vector.h"
   1:../../source/include/os_lib/vector.h **** #ifndef _VECTOR_H
   2:../../source/include/os_lib/vector.h **** #define _VECTOR_H
   3:../../source/include/os_lib/vector.h **** 
   4:../../source/include/os_lib/vector.h **** #include <myMicroLIB.h>
   5:../../source/include/os_lib/vector.h **** 
   6:../../source/include/os_lib/vector.h **** #define f_free(ptr)				ka_free(ptr)
   7:../../source/include/os_lib/vector.h **** #define f_memcpy(des,src,size)	ka_memcpy(des,src,size)
   8:../../source/include/os_lib/vector.h **** #define f_malloc(size)			ka_malloc(size)
   9:../../source/include/os_lib/vector.h **** 
  10:../../source/include/os_lib/vector.h **** typedef struct vector
  11:../../source/include/os_lib/vector.h **** {
  12:../../source/include/os_lib/vector.h ****     void *data_ptr;
  13:../../source/include/os_lib/vector.h ****     unsigned int max_len;
  14:../../source/include/os_lib/vector.h ****     unsigned int cur_len;
  15:../../source/include/os_lib/vector.h ****     unsigned int data_size;
  16:../../source/include/os_lib/vector.h **** /*
  17:../../source/include/os_lib/vector.h **** 	if the highest bit is 1, multiply
  18:../../source/include/os_lib/vector.h **** 	if the highest bit is 0, add
  19:../../source/include/os_lib/vector.h **** 	use the following macro to produce this member:MKVFMUL  MKVFADD
  20:../../source/include/os_lib/vector.h ****  */
  21:../../source/include/os_lib/vector.h ****     unsigned int extension_factor;
  22:../../source/include/os_lib/vector.h **** }Vector;
  23:../../source/include/os_lib/vector.h **** 
  24:../../source/include/os_lib/vector.h **** #define ERROR_ALLOCATE_ROOM 1
  25:../../source/include/os_lib/vector.h **** #define ERROR_DATA_EMPTY    2
  26:../../source/include/os_lib/vector.h **** 
  27:../../source/include/os_lib/vector.h **** /*
  28:../../source/include/os_lib/vector.h **** get vector[index] data into *data_store_ptr
  29:../../source/include/os_lib/vector.h ****  */
  30:../../source/include/os_lib/vector.h **** static inline void Vector_get_index_data(Vector *vector_ptr,unsigned int index,void *data_store_ptr
  31:../../source/include/os_lib/vector.h **** {
  24              		.loc 1 31 0
  25              		.cfi_startproc
  26              		@ args = 0, pretend = 0, frame = 16
ARM GAS  G:\Users\Jaxb\AppData\Local\Temp\ccnDzD0x.s 			page 2


  27              		@ frame_needed = 1, uses_anonymous_args = 0
  28 0000 80B5     		push	{r7, lr}
  29              	.LCFI0:
  30              		.cfi_def_cfa_offset 8
  31              		.cfi_offset 7, -8
  32              		.cfi_offset 14, -4
  33 0002 84B0     		sub	sp, sp, #16
  34              	.LCFI1:
  35              		.cfi_def_cfa_offset 24
  36 0004 00AF     		add	r7, sp, #0
  37              	.LCFI2:
  38              		.cfi_def_cfa_register 7
  39 0006 F860     		str	r0, [r7, #12]
  40 0008 B960     		str	r1, [r7, #8]
  41 000a 7A60     		str	r2, [r7, #4]
  32:../../source/include/os_lib/vector.h **** 	f_memcpy(data_store_ptr,(char*)(vector_ptr->data_ptr) + index * vector_ptr->data_size,vector_ptr->
  42              		.loc 1 32 0
  43 000c FB68     		ldr	r3, [r7, #12]
  44 000e 1A68     		ldr	r2, [r3]
  45 0010 FB68     		ldr	r3, [r7, #12]
  46 0012 DB68     		ldr	r3, [r3, #12]
  47 0014 B968     		ldr	r1, [r7, #8]
  48 0016 01FB03F3 		mul	r3, r1, r3
  49 001a D118     		adds	r1, r2, r3
  50 001c FB68     		ldr	r3, [r7, #12]
  51 001e DB68     		ldr	r3, [r3, #12]
  52 0020 1A46     		mov	r2, r3
  53 0022 7868     		ldr	r0, [r7, #4]
  54 0024 FFF7FEFF 		bl	ka_memcpy
  33:../../source/include/os_lib/vector.h **** }
  55              		.loc 1 33 0
  56 0028 00BF     		nop
  57 002a 1037     		adds	r7, r7, #16
  58              	.LCFI3:
  59              		.cfi_def_cfa_offset 8
  60 002c BD46     		mov	sp, r7
  61              	.LCFI4:
  62              		.cfi_def_cfa_register 13
  63              		@ sp needed
  64 002e 80BD     		pop	{r7, pc}
  65              		.cfi_endproc
  66              	.LFE0:
  67              		.size	Vector_get_index_data, .-Vector_get_index_data
  68              		.align	1
  69              		.syntax unified
  70              		.thumb
  71              		.thumb_func
  72              		.fpu softvfp
  73              		.type	Vector_get_index_address, %function
  74              	Vector_get_index_address:
  75              	.LFB3:
  34:../../source/include/os_lib/vector.h **** 
  35:../../source/include/os_lib/vector.h **** /*
  36:../../source/include/os_lib/vector.h **** set vector[index] data with *data_store_ptr
  37:../../source/include/os_lib/vector.h ****  */
  38:../../source/include/os_lib/vector.h **** static inline void Vector_set_index_data(Vector *vector_ptr,unsigned int index,void *data_store_ptr
  39:../../source/include/os_lib/vector.h **** {
ARM GAS  G:\Users\Jaxb\AppData\Local\Temp\ccnDzD0x.s 			page 3


  40:../../source/include/os_lib/vector.h **** 	f_memcpy((char*)(vector_ptr->data_ptr) + index * vector_ptr->data_size,data_store_ptr,vector_ptr->
  41:../../source/include/os_lib/vector.h **** }
  42:../../source/include/os_lib/vector.h **** 
  43:../../source/include/os_lib/vector.h **** /*
  44:../../source/include/os_lib/vector.h **** delete vector
  45:../../source/include/os_lib/vector.h ****  */
  46:../../source/include/os_lib/vector.h **** static inline void Vector_delete(Vector *vector_ptr)
  47:../../source/include/os_lib/vector.h **** {
  48:../../source/include/os_lib/vector.h **** 	f_free(vector_ptr->data_ptr);
  49:../../source/include/os_lib/vector.h **** }
  50:../../source/include/os_lib/vector.h **** 
  51:../../source/include/os_lib/vector.h **** static inline void Vector_get_index_address(Vector *vector_ptr,unsigned int index,void **data_add_p
  52:../../source/include/os_lib/vector.h **** {
  76              		.loc 1 52 0
  77              		.cfi_startproc
  78              		@ args = 0, pretend = 0, frame = 16
  79              		@ frame_needed = 1, uses_anonymous_args = 0
  80              		@ link register save eliminated.
  81 0030 80B4     		push	{r7}
  82              	.LCFI5:
  83              		.cfi_def_cfa_offset 4
  84              		.cfi_offset 7, -4
  85 0032 85B0     		sub	sp, sp, #20
  86              	.LCFI6:
  87              		.cfi_def_cfa_offset 24
  88 0034 00AF     		add	r7, sp, #0
  89              	.LCFI7:
  90              		.cfi_def_cfa_register 7
  91 0036 F860     		str	r0, [r7, #12]
  92 0038 B960     		str	r1, [r7, #8]
  93 003a 7A60     		str	r2, [r7, #4]
  53:../../source/include/os_lib/vector.h **** 	*data_add_ptr = (void *)((char*)(vector_ptr->data_ptr) + index * vector_ptr->data_size);
  94              		.loc 1 53 0
  95 003c FB68     		ldr	r3, [r7, #12]
  96 003e 1A68     		ldr	r2, [r3]
  97 0040 FB68     		ldr	r3, [r7, #12]
  98 0042 DB68     		ldr	r3, [r3, #12]
  99 0044 B968     		ldr	r1, [r7, #8]
 100 0046 01FB03F3 		mul	r3, r1, r3
 101 004a 1A44     		add	r2, r2, r3
 102 004c 7B68     		ldr	r3, [r7, #4]
 103 004e 1A60     		str	r2, [r3]
  54:../../source/include/os_lib/vector.h **** }
 104              		.loc 1 54 0
 105 0050 00BF     		nop
 106 0052 1437     		adds	r7, r7, #20
 107              	.LCFI8:
 108              		.cfi_def_cfa_offset 4
 109 0054 BD46     		mov	sp, r7
 110              	.LCFI9:
 111              		.cfi_def_cfa_register 13
 112              		@ sp needed
 113 0056 80BC     		pop	{r7}
 114              	.LCFI10:
 115              		.cfi_restore 7
 116              		.cfi_def_cfa_offset 0
 117 0058 7047     		bx	lr
ARM GAS  G:\Users\Jaxb\AppData\Local\Temp\ccnDzD0x.s 			page 4


 118              		.cfi_endproc
 119              	.LFE3:
 120              		.size	Vector_get_index_address, .-Vector_get_index_address
 121              		.align	1
 122              		.syntax unified
 123              		.thumb
 124              		.thumb_func
 125              		.fpu softvfp
 126              		.type	get_Vector_cur_len, %function
 127              	get_Vector_cur_len:
 128              	.LFB5:
  55:../../source/include/os_lib/vector.h **** 
  56:../../source/include/os_lib/vector.h **** int Vector_init(Vector *vector_ptr,unsigned int size,int len_per_data,unsigned int extension_factor
  57:../../source/include/os_lib/vector.h **** int Vector_push_back(Vector *vector_ptr,void *push_data_ptr);
  58:../../source/include/os_lib/vector.h **** int Vector_pop_back(Vector *vector_ptr,void *pop_data_ptr);
  59:../../source/include/os_lib/vector.h **** void Vector_set_index_data(Vector *vector_ptr,unsigned int index,void *data_store_ptr);
  60:../../source/include/os_lib/vector.h **** int Vector_erase_data(Vector *vector_ptr,unsigned int from,unsigned int to);
  61:../../source/include/os_lib/vector.h **** int Vector_remove_index_data(Vector *vector_ptr,unsigned int index,void *data_store_ptr);/*if data_
  62:../../source/include/os_lib/vector.h **** int Vector_set_inner(Vector *vector_ptr,unsigned int dest_index,unsigned int src_index);
  63:../../source/include/os_lib/vector.h **** int Vector_swap_inner(Vector *vector_ptr,unsigned int index1,unsigned int index2);
  64:../../source/include/os_lib/vector.h **** 
  65:../../source/include/os_lib/vector.h **** 
  66:../../source/include/os_lib/vector.h **** #define MKVFMUL(x) (0x80000000 | (x))
  67:../../source/include/os_lib/vector.h **** #define MKVFADD(x) (~0x80000000 & (x))
  68:../../source/include/os_lib/vector.h **** #define VFISMUL(x) (0x80000000 & (x))
  69:../../source/include/os_lib/vector.h **** #define VFISADD(x) (!(VFISMUL(x)))
  70:../../source/include/os_lib/vector.h **** #define GET_EXPENSION_FACTOR(x) (~0x80000000 & (x))
  71:../../source/include/os_lib/vector.h **** #define DECLARE_VECTOR(name,type,len,extension_factor) \
  72:../../source/include/os_lib/vector.h **** Vector name; \
  73:../../source/include/os_lib/vector.h **** do{ \
  74:../../source/include/os_lib/vector.h **** 	Vector_init(&(name),len,sizeof(type),extension_factor); \
  75:../../source/include/os_lib/vector.h **** }while(0)
  76:../../source/include/os_lib/vector.h **** 
  77:../../source/include/os_lib/vector.h **** static inline unsigned int get_Vector_size(Vector *vector_ptr)
  78:../../source/include/os_lib/vector.h **** {
  79:../../source/include/os_lib/vector.h **** 	return vector_ptr->max_len;
  80:../../source/include/os_lib/vector.h **** }
  81:../../source/include/os_lib/vector.h **** static inline unsigned int get_Vector_cur_len(Vector *vector_ptr)
  82:../../source/include/os_lib/vector.h **** {
 129              		.loc 1 82 0
 130              		.cfi_startproc
 131              		@ args = 0, pretend = 0, frame = 8
 132              		@ frame_needed = 1, uses_anonymous_args = 0
 133              		@ link register save eliminated.
 134 005a 80B4     		push	{r7}
 135              	.LCFI11:
 136              		.cfi_def_cfa_offset 4
 137              		.cfi_offset 7, -4
 138 005c 83B0     		sub	sp, sp, #12
 139              	.LCFI12:
 140              		.cfi_def_cfa_offset 16
 141 005e 00AF     		add	r7, sp, #0
 142              	.LCFI13:
 143              		.cfi_def_cfa_register 7
 144 0060 7860     		str	r0, [r7, #4]
  83:../../source/include/os_lib/vector.h **** 	return vector_ptr->cur_len;
 145              		.loc 1 83 0
ARM GAS  G:\Users\Jaxb\AppData\Local\Temp\ccnDzD0x.s 			page 5


 146 0062 7B68     		ldr	r3, [r7, #4]
 147 0064 9B68     		ldr	r3, [r3, #8]
  84:../../source/include/os_lib/vector.h **** }
 148              		.loc 1 84 0
 149 0066 1846     		mov	r0, r3
 150 0068 0C37     		adds	r7, r7, #12
 151              	.LCFI14:
 152              		.cfi_def_cfa_offset 4
 153 006a BD46     		mov	sp, r7
 154              	.LCFI15:
 155              		.cfi_def_cfa_register 13
 156              		@ sp needed
 157 006c 80BC     		pop	{r7}
 158              	.LCFI16:
 159              		.cfi_restore 7
 160              		.cfi_def_cfa_offset 0
 161 006e 7047     		bx	lr
 162              		.cfi_endproc
 163              	.LFE5:
 164              		.size	get_Vector_cur_len, .-get_Vector_cur_len
 165              		.align	1
 166              		.syntax unified
 167              		.thumb
 168              		.thumb_func
 169              		.fpu softvfp
 170              		.type	heap_get_index_data, %function
 171              	heap_get_index_data:
 172              	.LFB7:
 173              		.file 2 "../../source/include/os_lib/heap_oo.h"
   1:../../source/include/os_lib/heap_oo.h **** #ifndef _HEAP_OO_H
   2:../../source/include/os_lib/heap_oo.h **** #define _HEAP_OO_H
   3:../../source/include/os_lib/heap_oo.h **** 
   4:../../source/include/os_lib/heap_oo.h **** #include <vector.h>
   5:../../source/include/os_lib/heap_oo.h **** 
   6:../../source/include/os_lib/heap_oo.h **** #define heap_remove_top(little_heap_ptr,data_store_ptr)  heap_remove_index_data((little_heap_ptr),1
   7:../../source/include/os_lib/heap_oo.h **** #define heap_get_top(little_heap_ptr,data_store_ptr)  heap_get_index_data((little_heap_ptr),(data_s
   8:../../source/include/os_lib/heap_oo.h **** #define heap_get_top_safe(little_heap_ptr,data_store_ptr)  heap_get_index_data_safe((little_heap_pt
   9:../../source/include/os_lib/heap_oo.h **** 
  10:../../source/include/os_lib/heap_oo.h **** struct little_heap
  11:../../source/include/os_lib/heap_oo.h **** {
  12:../../source/include/os_lib/heap_oo.h **** /*private*/
  13:../../source/include/os_lib/heap_oo.h **** 	Vector data;   /* use array to store the data , index start is 1*/
  14:../../source/include/os_lib/heap_oo.h **** 	/* return value <0 means data[index1] < data[index2] */
  15:../../source/include/os_lib/heap_oo.h **** 	int (*cmp)(Vector *Vector_ptr,unsigned int index1,unsigned int index2); /* object oriented*/
  16:../../source/include/os_lib/heap_oo.h **** 	/*auto used by heap_adjust(),if you do not need if,give a empty function to it*/
  17:../../source/include/os_lib/heap_oo.h **** 	void (*index_change_record)(Vector *Vector_ptr,int index);/* object oriented*/
  18:../../source/include/os_lib/heap_oo.h **** };
  19:../../source/include/os_lib/heap_oo.h **** 
  20:../../source/include/os_lib/heap_oo.h **** int heap_init(struct little_heap *const little_heap_ptr,
  21:../../source/include/os_lib/heap_oo.h **** 	unsigned int size,
  22:../../source/include/os_lib/heap_oo.h **** 	unsigned int len_per_data,
  23:../../source/include/os_lib/heap_oo.h **** 	int (*cmp)(Vector *Vector_ptr,unsigned int index1,unsigned int index2),
  24:../../source/include/os_lib/heap_oo.h **** 	void (*index_change_record)(Vector *Vector_ptr,int index));
  25:../../source/include/os_lib/heap_oo.h **** 
  26:../../source/include/os_lib/heap_oo.h **** static inline void heap_delete(struct little_heap *little_heap_ptr)
  27:../../source/include/os_lib/heap_oo.h **** {
  28:../../source/include/os_lib/heap_oo.h **** 	Vector_delete(&little_heap_ptr->data);
ARM GAS  G:\Users\Jaxb\AppData\Local\Temp\ccnDzD0x.s 			page 6


  29:../../source/include/os_lib/heap_oo.h **** }
  30:../../source/include/os_lib/heap_oo.h **** 
  31:../../source/include/os_lib/heap_oo.h **** /*get the data with index "index" and store it into *data_store_ptr*/
  32:../../source/include/os_lib/heap_oo.h **** static inline void heap_get_index_data(struct little_heap *little_heap_ptr,void *data_store_ptr,uns
  33:../../source/include/os_lib/heap_oo.h **** {
 174              		.loc 2 33 0
 175              		.cfi_startproc
 176              		@ args = 0, pretend = 0, frame = 16
 177              		@ frame_needed = 1, uses_anonymous_args = 0
 178 0070 80B5     		push	{r7, lr}
 179              	.LCFI17:
 180              		.cfi_def_cfa_offset 8
 181              		.cfi_offset 7, -8
 182              		.cfi_offset 14, -4
 183 0072 84B0     		sub	sp, sp, #16
 184              	.LCFI18:
 185              		.cfi_def_cfa_offset 24
 186 0074 00AF     		add	r7, sp, #0
 187              	.LCFI19:
 188              		.cfi_def_cfa_register 7
 189 0076 F860     		str	r0, [r7, #12]
 190 0078 B960     		str	r1, [r7, #8]
 191 007a 7A60     		str	r2, [r7, #4]
  34:../../source/include/os_lib/heap_oo.h **** 	Vector_get_index_data(&little_heap_ptr->data,index,data_store_ptr);
 192              		.loc 2 34 0
 193 007c FB68     		ldr	r3, [r7, #12]
 194 007e BA68     		ldr	r2, [r7, #8]
 195 0080 7968     		ldr	r1, [r7, #4]
 196 0082 1846     		mov	r0, r3
 197 0084 FFF7BCFF 		bl	Vector_get_index_data
  35:../../source/include/os_lib/heap_oo.h **** }
 198              		.loc 2 35 0
 199 0088 00BF     		nop
 200 008a 1037     		adds	r7, r7, #16
 201              	.LCFI20:
 202              		.cfi_def_cfa_offset 8
 203 008c BD46     		mov	sp, r7
 204              	.LCFI21:
 205              		.cfi_def_cfa_register 13
 206              		@ sp needed
 207 008e 80BD     		pop	{r7, pc}
 208              		.cfi_endproc
 209              	.LFE7:
 210              		.size	heap_get_index_data, .-heap_get_index_data
 211              		.align	1
 212              		.syntax unified
 213              		.thumb
 214              		.thumb_func
 215              		.fpu softvfp
 216              		.type	heap_get_cur_len, %function
 217              	heap_get_cur_len:
 218              	.LFB8:
  36:../../source/include/os_lib/heap_oo.h **** 
  37:../../source/include/os_lib/heap_oo.h **** static inline unsigned int heap_get_cur_len(struct little_heap *little_heap_ptr)
  38:../../source/include/os_lib/heap_oo.h **** {
 219              		.loc 2 38 0
 220              		.cfi_startproc
ARM GAS  G:\Users\Jaxb\AppData\Local\Temp\ccnDzD0x.s 			page 7


 221              		@ args = 0, pretend = 0, frame = 8
 222              		@ frame_needed = 1, uses_anonymous_args = 0
 223 0090 80B5     		push	{r7, lr}
 224              	.LCFI22:
 225              		.cfi_def_cfa_offset 8
 226              		.cfi_offset 7, -8
 227              		.cfi_offset 14, -4
 228 0092 82B0     		sub	sp, sp, #8
 229              	.LCFI23:
 230              		.cfi_def_cfa_offset 16
 231 0094 00AF     		add	r7, sp, #0
 232              	.LCFI24:
 233              		.cfi_def_cfa_register 7
 234 0096 7860     		str	r0, [r7, #4]
  39:../../source/include/os_lib/heap_oo.h **** 	return get_Vector_cur_len(&little_heap_ptr->data);
 235              		.loc 2 39 0
 236 0098 7B68     		ldr	r3, [r7, #4]
 237 009a 1846     		mov	r0, r3
 238 009c FFF7DDFF 		bl	get_Vector_cur_len
 239 00a0 0346     		mov	r3, r0
  40:../../source/include/os_lib/heap_oo.h **** }
 240              		.loc 2 40 0
 241 00a2 1846     		mov	r0, r3
 242 00a4 0837     		adds	r7, r7, #8
 243              	.LCFI25:
 244              		.cfi_def_cfa_offset 8
 245 00a6 BD46     		mov	sp, r7
 246              	.LCFI26:
 247              		.cfi_def_cfa_register 13
 248              		@ sp needed
 249 00a8 80BD     		pop	{r7, pc}
 250              		.cfi_endproc
 251              	.LFE8:
 252              		.size	heap_get_cur_len, .-heap_get_cur_len
 253              		.bss
 254              		.align	2
 255              	delay_heap:
 256 0000 00000000 		.space	28
 256      00000000 
 256      00000000 
 256      00000000 
 256      00000000 
 257              		.size	delay_heap, 28
 258              		.text
 259              		.align	1
 260              		.syntax unified
 261              		.thumb
 262              		.thumb_func
 263              		.fpu softvfp
 264              		.type	_cmp, %function
 265              	_cmp:
 266              	.LFB20:
 267              		.file 3 "../../source/src/kernel/OS_CORE/schedule/os_delay.c"
   1:../../source/src/kernel/OS_CORE/schedule/os_delay.c **** #include "os_delay.h"
   2:../../source/src/kernel/OS_CORE/schedule/os_delay.c **** #include "TCB.h"
   3:../../source/src/kernel/OS_CORE/schedule/os_delay.c **** #include "ka_configuration.h"
   4:../../source/src/kernel/OS_CORE/schedule/os_delay.c **** #include "heap_oo.h"
ARM GAS  G:\Users\Jaxb\AppData\Local\Temp\ccnDzD0x.s 			page 8


   5:../../source/src/kernel/OS_CORE/schedule/os_delay.c **** #include "myassert.h"
   6:../../source/src/kernel/OS_CORE/schedule/os_delay.c **** #include <os_ready.h>
   7:../../source/src/kernel/OS_CORE/schedule/os_delay.c **** #include "myMicroLIB.h"
   8:../../source/src/kernel/OS_CORE/schedule/os_delay.c **** 
   9:../../source/src/kernel/OS_CORE/schedule/os_delay.c **** #define TIME_FIRST_SMALLER_THAN_SECOND(first,second) ((INT64)(first)-(INT64)(second) < 0)
  10:../../source/src/kernel/OS_CORE/schedule/os_delay.c **** #define TIME_FIRST_BIGGER_THAN_SECOND(first,second)  ((INT64)(first)-(INT64)(second) > 0)
  11:../../source/src/kernel/OS_CORE/schedule/os_delay.c **** 
  12:../../source/src/kernel/OS_CORE/schedule/os_delay.c **** static struct little_heap delay_heap;
  13:../../source/src/kernel/OS_CORE/schedule/os_delay.c **** 
  14:../../source/src/kernel/OS_CORE/schedule/os_delay.c **** /*this function is used by delay_heap*/
  15:../../source/src/kernel/OS_CORE/schedule/os_delay.c **** static int _cmp(Vector *Vector_ptr,unsigned int index1,unsigned int index2)
  16:../../source/src/kernel/OS_CORE/schedule/os_delay.c **** {
 268              		.loc 3 16 0
 269              		.cfi_startproc
 270              		@ args = 0, pretend = 0, frame = 24
 271              		@ frame_needed = 1, uses_anonymous_args = 0
 272 00aa 2DE99048 		push	{r4, r7, fp, lr}
 273              	.LCFI27:
 274              		.cfi_def_cfa_offset 16
 275              		.cfi_offset 4, -16
 276              		.cfi_offset 7, -12
 277              		.cfi_offset 11, -8
 278              		.cfi_offset 14, -4
 279 00ae 86B0     		sub	sp, sp, #24
 280              	.LCFI28:
 281              		.cfi_def_cfa_offset 40
 282 00b0 00AF     		add	r7, sp, #0
 283              	.LCFI29:
 284              		.cfi_def_cfa_register 7
 285 00b2 F860     		str	r0, [r7, #12]
 286 00b4 B960     		str	r1, [r7, #8]
 287 00b6 7A60     		str	r2, [r7, #4]
  17:../../source/src/kernel/OS_CORE/schedule/os_delay.c **** 	const TCB **a, **b;
  18:../../source/src/kernel/OS_CORE/schedule/os_delay.c **** 	Vector_get_index_address (Vector_ptr, index1, (void **)&a);
 288              		.loc 3 18 0
 289 00b8 07F11403 		add	r3, r7, #20
 290 00bc 1A46     		mov	r2, r3
 291 00be B968     		ldr	r1, [r7, #8]
 292 00c0 F868     		ldr	r0, [r7, #12]
 293 00c2 FFF7B5FF 		bl	Vector_get_index_address
  19:../../source/src/kernel/OS_CORE/schedule/os_delay.c **** 	Vector_get_index_address (Vector_ptr, index2, (void **)&b);
 294              		.loc 3 19 0
 295 00c6 07F11003 		add	r3, r7, #16
 296 00ca 1A46     		mov	r2, r3
 297 00cc 7968     		ldr	r1, [r7, #4]
 298 00ce F868     		ldr	r0, [r7, #12]
 299 00d0 FFF7AEFF 		bl	Vector_get_index_address
  20:../../source/src/kernel/OS_CORE/schedule/os_delay.c **** 	if (TIME_FIRST_SMALLER_THAN_SECOND((*a)->delay_reach_time,(*b)->delay_reach_time))
 300              		.loc 3 20 0
 301 00d4 7B69     		ldr	r3, [r7, #20]
 302 00d6 1B68     		ldr	r3, [r3]
 303 00d8 03F14004 		add	r4, r3, #64
 304 00dc D4E90034 		ldrd	r3, [r4]
 305 00e0 1946     		mov	r1, r3
 306 00e2 2246     		mov	r2, r4
 307 00e4 3B69     		ldr	r3, [r7, #16]
 308 00e6 1B68     		ldr	r3, [r3]
ARM GAS  G:\Users\Jaxb\AppData\Local\Temp\ccnDzD0x.s 			page 9


 309 00e8 03F14004 		add	r4, r3, #64
 310 00ec D4E90034 		ldrd	r3, [r4]
 311 00f0 9B46     		mov	fp, r3
 312 00f2 A446     		mov	ip, r4
 313 00f4 0B46     		mov	r3, r1
 314 00f6 1446     		mov	r4, r2
 315 00f8 B3EB0B03 		subs	r3, r3, fp
 316 00fc 64EB0C04 		sbc	r4, r4, ip
 317 0100 002B     		cmp	r3, #0
 318 0102 74F10003 		sbcs	r3, r4, #0
 319 0106 02DA     		bge	.L9
  21:../../source/src/kernel/OS_CORE/schedule/os_delay.c **** 	{
  22:../../source/src/kernel/OS_CORE/schedule/os_delay.c **** 	  return -1;
 320              		.loc 3 22 0
 321 0108 4FF0FF33 		mov	r3, #-1
 322 010c 1CE0     		b	.L12
 323              	.L9:
  23:../../source/src/kernel/OS_CORE/schedule/os_delay.c **** 	}
  24:../../source/src/kernel/OS_CORE/schedule/os_delay.c **** 	else if (TIME_FIRST_BIGGER_THAN_SECOND((*a)->delay_reach_time,(*b)->delay_reach_time))
 324              		.loc 3 24 0
 325 010e 7B69     		ldr	r3, [r7, #20]
 326 0110 1B68     		ldr	r3, [r3]
 327 0112 03F14004 		add	r4, r3, #64
 328 0116 D4E90034 		ldrd	r3, [r4]
 329 011a 1946     		mov	r1, r3
 330 011c 2246     		mov	r2, r4
 331 011e 3B69     		ldr	r3, [r7, #16]
 332 0120 1B68     		ldr	r3, [r3]
 333 0122 03F14004 		add	r4, r3, #64
 334 0126 D4E90034 		ldrd	r3, [r4]
 335 012a 9B46     		mov	fp, r3
 336 012c A446     		mov	ip, r4
 337 012e 0B46     		mov	r3, r1
 338 0130 1446     		mov	r4, r2
 339 0132 B3EB0B03 		subs	r3, r3, fp
 340 0136 64EB0C04 		sbc	r4, r4, ip
 341 013a 012B     		cmp	r3, #1
 342 013c 74F10003 		sbcs	r3, r4, #0
 343 0140 01DB     		blt	.L11
  25:../../source/src/kernel/OS_CORE/schedule/os_delay.c **** 	{
  26:../../source/src/kernel/OS_CORE/schedule/os_delay.c **** 	  return 1;
 344              		.loc 3 26 0
 345 0142 0123     		movs	r3, #1
 346 0144 00E0     		b	.L12
 347              	.L11:
  27:../../source/src/kernel/OS_CORE/schedule/os_delay.c **** 	}
  28:../../source/src/kernel/OS_CORE/schedule/os_delay.c **** 	else
  29:../../source/src/kernel/OS_CORE/schedule/os_delay.c **** 	{
  30:../../source/src/kernel/OS_CORE/schedule/os_delay.c **** 	  return 0;
 348              		.loc 3 30 0
 349 0146 0023     		movs	r3, #0
 350              	.L12:
  31:../../source/src/kernel/OS_CORE/schedule/os_delay.c **** 	}
  32:../../source/src/kernel/OS_CORE/schedule/os_delay.c **** }
 351              		.loc 3 32 0 discriminator 1
 352 0148 1846     		mov	r0, r3
 353 014a 1837     		adds	r7, r7, #24
ARM GAS  G:\Users\Jaxb\AppData\Local\Temp\ccnDzD0x.s 			page 10


 354              	.LCFI30:
 355              		.cfi_def_cfa_offset 16
 356 014c BD46     		mov	sp, r7
 357              	.LCFI31:
 358              		.cfi_def_cfa_register 13
 359              		@ sp needed
 360 014e BDE89088 		pop	{r4, r7, fp, pc}
 361              		.cfi_endproc
 362              	.LFE20:
 363              		.size	_cmp, .-_cmp
 364              		.align	1
 365              		.syntax unified
 366              		.thumb
 367              		.thumb_func
 368              		.fpu softvfp
 369              		.type	index_change_record, %function
 370              	index_change_record:
 371              	.LFB21:
  33:../../source/src/kernel/OS_CORE/schedule/os_delay.c **** 
  34:../../source/src/kernel/OS_CORE/schedule/os_delay.c **** static inline void index_change_record(Vector *Vector_ptr,int index)
  35:../../source/src/kernel/OS_CORE/schedule/os_delay.c **** {
 372              		.loc 3 35 0
 373              		.cfi_startproc
 374              		@ args = 0, pretend = 0, frame = 16
 375              		@ frame_needed = 1, uses_anonymous_args = 0
 376 0152 80B5     		push	{r7, lr}
 377              	.LCFI32:
 378              		.cfi_def_cfa_offset 8
 379              		.cfi_offset 7, -8
 380              		.cfi_offset 14, -4
 381 0154 84B0     		sub	sp, sp, #16
 382              	.LCFI33:
 383              		.cfi_def_cfa_offset 24
 384 0156 00AF     		add	r7, sp, #0
 385              	.LCFI34:
 386              		.cfi_def_cfa_register 7
 387 0158 7860     		str	r0, [r7, #4]
 388 015a 3960     		str	r1, [r7]
  36:../../source/src/kernel/OS_CORE/schedule/os_delay.c **** 	TCB *TCB_ptr;
  37:../../source/src/kernel/OS_CORE/schedule/os_delay.c **** 	Vector_get_index_data(Vector_ptr,index,&TCB_ptr);
 389              		.loc 3 37 0
 390 015c 3B68     		ldr	r3, [r7]
 391 015e 07F10C02 		add	r2, r7, #12
 392 0162 1946     		mov	r1, r3
 393 0164 7868     		ldr	r0, [r7, #4]
 394 0166 FFF74BFF 		bl	Vector_get_index_data
  38:../../source/src/kernel/OS_CORE/schedule/os_delay.c **** 	TCB_ptr->delay_heap_position = index;
 395              		.loc 3 38 0
 396 016a FB68     		ldr	r3, [r7, #12]
 397 016c 3A68     		ldr	r2, [r7]
 398 016e 9A61     		str	r2, [r3, #24]
  39:../../source/src/kernel/OS_CORE/schedule/os_delay.c **** }
 399              		.loc 3 39 0
 400 0170 00BF     		nop
 401 0172 1037     		adds	r7, r7, #16
 402              	.LCFI35:
 403              		.cfi_def_cfa_offset 8
ARM GAS  G:\Users\Jaxb\AppData\Local\Temp\ccnDzD0x.s 			page 11


 404 0174 BD46     		mov	sp, r7
 405              	.LCFI36:
 406              		.cfi_def_cfa_register 13
 407              		@ sp needed
 408 0176 80BD     		pop	{r7, pc}
 409              		.cfi_endproc
 410              	.LFE21:
 411              		.size	index_change_record, .-index_change_record
 412              		.section	.rodata
 413              		.align	2
 414              	.LC0:
 415 0000 696E6974 		.ascii	"init_delay_heap error!\012stop booting.....\012\000"
 415      5F64656C 
 415      61795F68 
 415      65617020 
 415      6572726F 
 416              		.text
 417              		.align	1
 418              		.global	__init_delay_heap
 419              		.syntax unified
 420              		.thumb
 421              		.thumb_func
 422              		.fpu softvfp
 423              		.type	__init_delay_heap, %function
 424              	__init_delay_heap:
 425              	.LFB22:
  40:../../source/src/kernel/OS_CORE/schedule/os_delay.c **** 	
  41:../../source/src/kernel/OS_CORE/schedule/os_delay.c **** void __init_delay_heap(void)
  42:../../source/src/kernel/OS_CORE/schedule/os_delay.c **** {
 426              		.loc 3 42 0
 427              		.cfi_startproc
 428              		@ args = 0, pretend = 0, frame = 0
 429              		@ frame_needed = 1, uses_anonymous_args = 0
 430 0178 80B5     		push	{r7, lr}
 431              	.LCFI37:
 432              		.cfi_def_cfa_offset 8
 433              		.cfi_offset 7, -8
 434              		.cfi_offset 14, -4
 435 017a 82B0     		sub	sp, sp, #8
 436              	.LCFI38:
 437              		.cfi_def_cfa_offset 16
 438 017c 02AF     		add	r7, sp, #8
 439              	.LCFI39:
 440              		.cfi_def_cfa 7, 8
  43:../../source/src/kernel/OS_CORE/schedule/os_delay.c **** 	if(0 != heap_init(&delay_heap,PRIO_MAX/4,sizeof(TCB *),_cmp,index_change_record))
 441              		.loc 3 43 0
 442 017e 094B     		ldr	r3, .L18
 443 0180 0093     		str	r3, [sp]
 444 0182 094B     		ldr	r3, .L18+4
 445 0184 0422     		movs	r2, #4
 446 0186 1021     		movs	r1, #16
 447 0188 0848     		ldr	r0, .L18+8
 448 018a FFF7FEFF 		bl	heap_init
 449 018e 0346     		mov	r3, r0
 450 0190 002B     		cmp	r3, #0
 451 0192 03D0     		beq	.L17
  44:../../source/src/kernel/OS_CORE/schedule/os_delay.c **** 	{
ARM GAS  G:\Users\Jaxb\AppData\Local\Temp\ccnDzD0x.s 			page 12


  45:../../source/src/kernel/OS_CORE/schedule/os_delay.c **** 		ka_printf("init_delay_heap error!\nstop booting.....\n");
 452              		.loc 3 45 0
 453 0194 0648     		ldr	r0, .L18+12
 454 0196 FFF7FEFF 		bl	ka_printf
 455              	.L16:
  46:../../source/src/kernel/OS_CORE/schedule/os_delay.c **** 		while(1);
 456              		.loc 3 46 0 discriminator 1
 457 019a FEE7     		b	.L16
 458              	.L17:
  47:../../source/src/kernel/OS_CORE/schedule/os_delay.c **** 		/*os stop here*/
  48:../../source/src/kernel/OS_CORE/schedule/os_delay.c **** 	}
  49:../../source/src/kernel/OS_CORE/schedule/os_delay.c **** }
 459              		.loc 3 49 0
 460 019c 00BF     		nop
 461 019e BD46     		mov	sp, r7
 462              	.LCFI40:
 463              		.cfi_def_cfa_register 13
 464              		@ sp needed
 465 01a0 80BD     		pop	{r7, pc}
 466              	.L19:
 467 01a2 00BF     		.align	2
 468              	.L18:
 469 01a4 00000000 		.word	index_change_record
 470 01a8 00000000 		.word	_cmp
 471 01ac 00000000 		.word	delay_heap
 472 01b0 00000000 		.word	.LC0
 473              		.cfi_endproc
 474              	.LFE22:
 475              		.size	__init_delay_heap, .-__init_delay_heap
 476              		.section	.rodata
 477 002a 0000     		.align	2
 478              	.LC1:
 479 002c 2E2E2F2E 		.ascii	"../../source/src/kernel/OS_CORE/schedule/os_delay.c"
 479      2E2F736F 
 479      75726365 
 479      2F737263 
 479      2F6B6572 
 480 005f 00       		.ascii	"\000"
 481              		.text
 482              		.align	1
 483              		.global	_insert_into_delay_heap
 484              		.syntax unified
 485              		.thumb
 486              		.thumb_func
 487              		.fpu softvfp
 488              		.type	_insert_into_delay_heap, %function
 489              	_insert_into_delay_heap:
 490              	.LFB23:
  50:../../source/src/kernel/OS_CORE/schedule/os_delay.c **** 
  51:../../source/src/kernel/OS_CORE/schedule/os_delay.c **** /*before inserting action,os should set the delay_reach_time
  52:../../source/src/kernel/OS_CORE/schedule/os_delay.c **** this function do not change the task_state of the TCB,os shoule
  53:../../source/src/kernel/OS_CORE/schedule/os_delay.c **** change it before using this function*/
  54:../../source/src/kernel/OS_CORE/schedule/os_delay.c **** int _insert_into_delay_heap(TCB *TCB_ptr)
  55:../../source/src/kernel/OS_CORE/schedule/os_delay.c **** {
 491              		.loc 3 55 0
 492              		.cfi_startproc
 493              		@ args = 0, pretend = 0, frame = 8
ARM GAS  G:\Users\Jaxb\AppData\Local\Temp\ccnDzD0x.s 			page 13


 494              		@ frame_needed = 1, uses_anonymous_args = 0
 495 01b4 80B5     		push	{r7, lr}
 496              	.LCFI41:
 497              		.cfi_def_cfa_offset 8
 498              		.cfi_offset 7, -8
 499              		.cfi_offset 14, -4
 500 01b6 82B0     		sub	sp, sp, #8
 501              	.LCFI42:
 502              		.cfi_def_cfa_offset 16
 503 01b8 00AF     		add	r7, sp, #0
 504              	.LCFI43:
 505              		.cfi_def_cfa_register 7
 506 01ba 7860     		str	r0, [r7, #4]
  56:../../source/src/kernel/OS_CORE/schedule/os_delay.c **** 	ASSERT(NULL != TCB_ptr);
 507              		.loc 3 56 0
 508 01bc 7B68     		ldr	r3, [r7, #4]
 509 01be 002B     		cmp	r3, #0
 510 01c0 03D1     		bne	.L21
 511              		.loc 3 56 0 is_stmt 0 discriminator 1
 512 01c2 3821     		movs	r1, #56
 513 01c4 0648     		ldr	r0, .L23
 514 01c6 FFF7FEFF 		bl	_ASSERT
 515              	.L21:
  57:../../source/src/kernel/OS_CORE/schedule/os_delay.c **** 	return heap_push(&delay_heap,&TCB_ptr);
 516              		.loc 3 57 0 is_stmt 1
 517 01ca 3B1D     		adds	r3, r7, #4
 518 01cc 1946     		mov	r1, r3
 519 01ce 0548     		ldr	r0, .L23+4
 520 01d0 FFF7FEFF 		bl	heap_push
 521 01d4 0346     		mov	r3, r0
  58:../../source/src/kernel/OS_CORE/schedule/os_delay.c **** }
 522              		.loc 3 58 0
 523 01d6 1846     		mov	r0, r3
 524 01d8 0837     		adds	r7, r7, #8
 525              	.LCFI44:
 526              		.cfi_def_cfa_offset 8
 527 01da BD46     		mov	sp, r7
 528              	.LCFI45:
 529              		.cfi_def_cfa_register 13
 530              		@ sp needed
 531 01dc 80BD     		pop	{r7, pc}
 532              	.L24:
 533 01de 00BF     		.align	2
 534              	.L23:
 535 01e0 2C000000 		.word	.LC1
 536 01e4 00000000 		.word	delay_heap
 537              		.cfi_endproc
 538              	.LFE23:
 539              		.size	_insert_into_delay_heap, .-_insert_into_delay_heap
 540              		.align	1
 541              		.global	_remove_from_delay_heap
 542              		.syntax unified
 543              		.thumb
 544              		.thumb_func
 545              		.fpu softvfp
 546              		.type	_remove_from_delay_heap, %function
 547              	_remove_from_delay_heap:
ARM GAS  G:\Users\Jaxb\AppData\Local\Temp\ccnDzD0x.s 			page 14


 548              	.LFB24:
  59:../../source/src/kernel/OS_CORE/schedule/os_delay.c **** 
  60:../../source/src/kernel/OS_CORE/schedule/os_delay.c **** int _remove_from_delay_heap(TCB *TCB_ptr)
  61:../../source/src/kernel/OS_CORE/schedule/os_delay.c **** {
 549              		.loc 3 61 0
 550              		.cfi_startproc
 551              		@ args = 0, pretend = 0, frame = 24
 552              		@ frame_needed = 1, uses_anonymous_args = 0
 553 01e8 80B5     		push	{r7, lr}
 554              	.LCFI46:
 555              		.cfi_def_cfa_offset 8
 556              		.cfi_offset 7, -8
 557              		.cfi_offset 14, -4
 558 01ea 86B0     		sub	sp, sp, #24
 559              	.LCFI47:
 560              		.cfi_def_cfa_offset 32
 561 01ec 00AF     		add	r7, sp, #0
 562              	.LCFI48:
 563              		.cfi_def_cfa_register 7
 564 01ee 7860     		str	r0, [r7, #4]
  62:../../source/src/kernel/OS_CORE/schedule/os_delay.c **** 	ASSERT(NULL != TCB_ptr);
 565              		.loc 3 62 0
 566 01f0 7B68     		ldr	r3, [r7, #4]
 567 01f2 002B     		cmp	r3, #0
 568 01f4 03D1     		bne	.L26
 569              		.loc 3 62 0 is_stmt 0 discriminator 1
 570 01f6 3E21     		movs	r1, #62
 571 01f8 1948     		ldr	r0, .L33
 572 01fa FFF7FEFF 		bl	_ASSERT
 573              	.L26:
  63:../../source/src/kernel/OS_CORE/schedule/os_delay.c **** 	TCB *TCB_ptr_buffer;
  64:../../source/src/kernel/OS_CORE/schedule/os_delay.c **** 	int i;
  65:../../source/src/kernel/OS_CORE/schedule/os_delay.c **** 	int ret;
  66:../../source/src/kernel/OS_CORE/schedule/os_delay.c **** 	int len = heap_get_cur_len(&delay_heap);
 574              		.loc 3 66 0 is_stmt 1
 575 01fe 1948     		ldr	r0, .L33+4
 576 0200 FFF746FF 		bl	heap_get_cur_len
 577 0204 0346     		mov	r3, r0
 578 0206 3B61     		str	r3, [r7, #16]
  67:../../source/src/kernel/OS_CORE/schedule/os_delay.c **** 	for(i=1;i<len;++i) /* check from first to the end*/
 579              		.loc 3 67 0
 580 0208 0123     		movs	r3, #1
 581 020a 7B61     		str	r3, [r7, #20]
 582 020c 1EE0     		b	.L27
 583              	.L31:
  68:../../source/src/kernel/OS_CORE/schedule/os_delay.c **** 	{
  69:../../source/src/kernel/OS_CORE/schedule/os_delay.c **** 		heap_get_index_data(&delay_heap,&TCB_ptr_buffer,i);
 584              		.loc 3 69 0
 585 020e 7A69     		ldr	r2, [r7, #20]
 586 0210 07F10803 		add	r3, r7, #8
 587 0214 1946     		mov	r1, r3
 588 0216 1348     		ldr	r0, .L33+4
 589 0218 FFF72AFF 		bl	heap_get_index_data
  70:../../source/src/kernel/OS_CORE/schedule/os_delay.c **** 		if(TCB_ptr == TCB_ptr_buffer)
 590              		.loc 3 70 0
 591 021c BB68     		ldr	r3, [r7, #8]
 592 021e 7A68     		ldr	r2, [r7, #4]
ARM GAS  G:\Users\Jaxb\AppData\Local\Temp\ccnDzD0x.s 			page 15


 593 0220 9A42     		cmp	r2, r3
 594 0222 10D1     		bne	.L28
  71:../../source/src/kernel/OS_CORE/schedule/os_delay.c **** 		{
  72:../../source/src/kernel/OS_CORE/schedule/os_delay.c **** 			ret = heap_remove_index_data(&delay_heap,i,NULL);
 595              		.loc 3 72 0
 596 0224 7B69     		ldr	r3, [r7, #20]
 597 0226 0022     		movs	r2, #0
 598 0228 1946     		mov	r1, r3
 599 022a 0E48     		ldr	r0, .L33+4
 600 022c FFF7FEFF 		bl	heap_remove_index_data
 601 0230 F860     		str	r0, [r7, #12]
  73:../../source/src/kernel/OS_CORE/schedule/os_delay.c **** 			if(0 != ret)
 602              		.loc 3 73 0
 603 0232 FB68     		ldr	r3, [r7, #12]
 604 0234 002B     		cmp	r3, #0
 605 0236 01D0     		beq	.L29
  74:../../source/src/kernel/OS_CORE/schedule/os_delay.c **** 			{
  75:../../source/src/kernel/OS_CORE/schedule/os_delay.c **** 				return ret;
 606              		.loc 3 75 0
 607 0238 FB68     		ldr	r3, [r7, #12]
 608 023a 0DE0     		b	.L32
 609              	.L29:
  76:../../source/src/kernel/OS_CORE/schedule/os_delay.c **** 			}
  77:../../source/src/kernel/OS_CORE/schedule/os_delay.c **** 			_insert_ready_TCB(TCB_ptr);
 610              		.loc 3 77 0
 611 023c 7868     		ldr	r0, [r7, #4]
 612 023e FFF7FEFF 		bl	_insert_ready_TCB
  78:../../source/src/kernel/OS_CORE/schedule/os_delay.c **** 			return FUN_EXECUTE_SUCCESSFULLY;
 613              		.loc 3 78 0
 614 0242 0023     		movs	r3, #0
 615 0244 08E0     		b	.L32
 616              	.L28:
  67:../../source/src/kernel/OS_CORE/schedule/os_delay.c **** 	{
 617              		.loc 3 67 0 discriminator 2
 618 0246 7B69     		ldr	r3, [r7, #20]
 619 0248 0133     		adds	r3, r3, #1
 620 024a 7B61     		str	r3, [r7, #20]
 621              	.L27:
  67:../../source/src/kernel/OS_CORE/schedule/os_delay.c **** 	{
 622              		.loc 3 67 0 is_stmt 0 discriminator 1
 623 024c 7A69     		ldr	r2, [r7, #20]
 624 024e 3B69     		ldr	r3, [r7, #16]
 625 0250 9A42     		cmp	r2, r3
 626 0252 DCDB     		blt	.L31
  79:../../source/src/kernel/OS_CORE/schedule/os_delay.c **** 		}
  80:../../source/src/kernel/OS_CORE/schedule/os_delay.c **** 	}
  81:../../source/src/kernel/OS_CORE/schedule/os_delay.c **** 	return -ERROR_VALUELESS_INPUT;
 627              		.loc 3 81 0 is_stmt 1
 628 0254 6FF0FD03 		mvn	r3, #253
 629              	.L32:
  82:../../source/src/kernel/OS_CORE/schedule/os_delay.c **** }
 630              		.loc 3 82 0 discriminator 1
 631 0258 1846     		mov	r0, r3
 632 025a 1837     		adds	r7, r7, #24
 633              	.LCFI49:
 634              		.cfi_def_cfa_offset 8
 635 025c BD46     		mov	sp, r7
ARM GAS  G:\Users\Jaxb\AppData\Local\Temp\ccnDzD0x.s 			page 16


 636              	.LCFI50:
 637              		.cfi_def_cfa_register 13
 638              		@ sp needed
 639 025e 80BD     		pop	{r7, pc}
 640              	.L34:
 641              		.align	2
 642              	.L33:
 643 0260 2C000000 		.word	.LC1
 644 0264 00000000 		.word	delay_heap
 645              		.cfi_endproc
 646              	.LFE24:
 647              		.size	_remove_from_delay_heap, .-_remove_from_delay_heap
 648              		.align	1
 649              		.global	_delay_heap_get_top_TCB
 650              		.syntax unified
 651              		.thumb
 652              		.thumb_func
 653              		.fpu softvfp
 654              		.type	_delay_heap_get_top_TCB, %function
 655              	_delay_heap_get_top_TCB:
 656              	.LFB25:
  83:../../source/src/kernel/OS_CORE/schedule/os_delay.c **** 
  84:../../source/src/kernel/OS_CORE/schedule/os_delay.c **** TCB* _delay_heap_get_top_TCB(void)
  85:../../source/src/kernel/OS_CORE/schedule/os_delay.c **** {
 657              		.loc 3 85 0
 658              		.cfi_startproc
 659              		@ args = 0, pretend = 0, frame = 8
 660              		@ frame_needed = 1, uses_anonymous_args = 0
 661 0268 80B5     		push	{r7, lr}
 662              	.LCFI51:
 663              		.cfi_def_cfa_offset 8
 664              		.cfi_offset 7, -8
 665              		.cfi_offset 14, -4
 666 026a 82B0     		sub	sp, sp, #8
 667              	.LCFI52:
 668              		.cfi_def_cfa_offset 16
 669 026c 00AF     		add	r7, sp, #0
 670              	.LCFI53:
 671              		.cfi_def_cfa_register 7
  86:../../source/src/kernel/OS_CORE/schedule/os_delay.c **** 	TCB *TCB_ptr;
  87:../../source/src/kernel/OS_CORE/schedule/os_delay.c **** 	if(0 != heap_get_top_safe(&delay_heap,&TCB_ptr))
 672              		.loc 3 87 0
 673 026e 3B1D     		adds	r3, r7, #4
 674 0270 0122     		movs	r2, #1
 675 0272 1946     		mov	r1, r3
 676 0274 0648     		ldr	r0, .L39
 677 0276 FFF7FEFF 		bl	heap_get_index_data_safe
 678 027a 0346     		mov	r3, r0
 679 027c 002B     		cmp	r3, #0
 680 027e 01D0     		beq	.L36
  88:../../source/src/kernel/OS_CORE/schedule/os_delay.c **** 	{
  89:../../source/src/kernel/OS_CORE/schedule/os_delay.c **** 		return NULL;
 681              		.loc 3 89 0
 682 0280 0023     		movs	r3, #0
 683 0282 00E0     		b	.L38
 684              	.L36:
  90:../../source/src/kernel/OS_CORE/schedule/os_delay.c **** 	}
ARM GAS  G:\Users\Jaxb\AppData\Local\Temp\ccnDzD0x.s 			page 17


  91:../../source/src/kernel/OS_CORE/schedule/os_delay.c **** 	return TCB_ptr;
 685              		.loc 3 91 0
 686 0284 7B68     		ldr	r3, [r7, #4]
 687              	.L38:
  92:../../source/src/kernel/OS_CORE/schedule/os_delay.c **** }
 688              		.loc 3 92 0 discriminator 1
 689 0286 1846     		mov	r0, r3
 690 0288 0837     		adds	r7, r7, #8
 691              	.LCFI54:
 692              		.cfi_def_cfa_offset 8
 693 028a BD46     		mov	sp, r7
 694              	.LCFI55:
 695              		.cfi_def_cfa_register 13
 696              		@ sp needed
 697 028c 80BD     		pop	{r7, pc}
 698              	.L40:
 699 028e 00BF     		.align	2
 700              	.L39:
 701 0290 00000000 		.word	delay_heap
 702              		.cfi_endproc
 703              	.LFE25:
 704              		.size	_delay_heap_get_top_TCB, .-_delay_heap_get_top_TCB
 705              		.align	1
 706              		.global	_delay_heap_remove_top_TCB
 707              		.syntax unified
 708              		.thumb
 709              		.thumb_func
 710              		.fpu softvfp
 711              		.type	_delay_heap_remove_top_TCB, %function
 712              	_delay_heap_remove_top_TCB:
 713              	.LFB26:
  93:../../source/src/kernel/OS_CORE/schedule/os_delay.c **** 
  94:../../source/src/kernel/OS_CORE/schedule/os_delay.c **** TCB* _delay_heap_remove_top_TCB(void)
  95:../../source/src/kernel/OS_CORE/schedule/os_delay.c **** {
 714              		.loc 3 95 0
 715              		.cfi_startproc
 716              		@ args = 0, pretend = 0, frame = 8
 717              		@ frame_needed = 1, uses_anonymous_args = 0
 718 0294 80B5     		push	{r7, lr}
 719              	.LCFI56:
 720              		.cfi_def_cfa_offset 8
 721              		.cfi_offset 7, -8
 722              		.cfi_offset 14, -4
 723 0296 82B0     		sub	sp, sp, #8
 724              	.LCFI57:
 725              		.cfi_def_cfa_offset 16
 726 0298 00AF     		add	r7, sp, #0
 727              	.LCFI58:
 728              		.cfi_def_cfa_register 7
  96:../../source/src/kernel/OS_CORE/schedule/os_delay.c **** 	TCB *TCB_ptr;
  97:../../source/src/kernel/OS_CORE/schedule/os_delay.c **** 	if(0 != heap_remove_top(&delay_heap,&TCB_ptr))
 729              		.loc 3 97 0
 730 029a 3B1D     		adds	r3, r7, #4
 731 029c 1A46     		mov	r2, r3
 732 029e 0121     		movs	r1, #1
 733 02a0 0648     		ldr	r0, .L45
 734 02a2 FFF7FEFF 		bl	heap_remove_index_data
ARM GAS  G:\Users\Jaxb\AppData\Local\Temp\ccnDzD0x.s 			page 18


 735 02a6 0346     		mov	r3, r0
 736 02a8 002B     		cmp	r3, #0
 737 02aa 01D0     		beq	.L42
  98:../../source/src/kernel/OS_CORE/schedule/os_delay.c **** 	{
  99:../../source/src/kernel/OS_CORE/schedule/os_delay.c **** 		return NULL;
 738              		.loc 3 99 0
 739 02ac 0023     		movs	r3, #0
 740 02ae 00E0     		b	.L44
 741              	.L42:
 100:../../source/src/kernel/OS_CORE/schedule/os_delay.c **** 	}
 101:../../source/src/kernel/OS_CORE/schedule/os_delay.c **** 	return TCB_ptr;
 742              		.loc 3 101 0
 743 02b0 7B68     		ldr	r3, [r7, #4]
 744              	.L44:
 102:../../source/src/kernel/OS_CORE/schedule/os_delay.c **** }
 745              		.loc 3 102 0 discriminator 1
 746 02b2 1846     		mov	r0, r3
 747 02b4 0837     		adds	r7, r7, #8
 748              	.LCFI59:
 749              		.cfi_def_cfa_offset 8
 750 02b6 BD46     		mov	sp, r7
 751              	.LCFI60:
 752              		.cfi_def_cfa_register 13
 753              		@ sp needed
 754 02b8 80BD     		pop	{r7, pc}
 755              	.L46:
 756 02ba 00BF     		.align	2
 757              	.L45:
 758 02bc 00000000 		.word	delay_heap
 759              		.cfi_endproc
 760              	.LFE26:
 761              		.size	_delay_heap_remove_top_TCB, .-_delay_heap_remove_top_TCB
 762              		.section	.rodata
 763              		.align	2
 764              	.LC2:
 765 0060 6E6F7720 		.ascii	"now start checking delay_heap\012\000"
 765      73746172 
 765      74206368 
 765      65636B69 
 765      6E672064 
 766 007f 00       		.align	2
 767              	.LC3:
 768 0080 68656170 		.ascii	"heap member %u has incorrect position with member %"
 768      206D656D 
 768      62657220 
 768      25752068 
 768      61732069 
 769 00b3 750A00   		.ascii	"u\012\000"
 770 00b6 0000     		.align	2
 771              	.LC4:
 772 00b8 64656C61 		.ascii	"delay_heap check complete\012\000"
 772      795F6865 
 772      61702063 
 772      6865636B 
 772      20636F6D 
 773              		.text
 774              		.align	1
ARM GAS  G:\Users\Jaxb\AppData\Local\Temp\ccnDzD0x.s 			page 19


 775              		.global	shell_delay_heap_check
 776              		.syntax unified
 777              		.thumb
 778              		.thumb_func
 779              		.fpu softvfp
 780              		.type	shell_delay_heap_check, %function
 781              	shell_delay_heap_check:
 782              	.LFB27:
 103:../../source/src/kernel/OS_CORE/schedule/os_delay.c **** 
 104:../../source/src/kernel/OS_CORE/schedule/os_delay.c **** #if CONFIG_SHELL_EN
 105:../../source/src/kernel/OS_CORE/schedule/os_delay.c **** void shell_delay_heap_check(void)
 106:../../source/src/kernel/OS_CORE/schedule/os_delay.c **** {
 783              		.loc 3 106 0
 784              		.cfi_startproc
 785              		@ args = 0, pretend = 0, frame = 16
 786              		@ frame_needed = 1, uses_anonymous_args = 0
 787 02c0 2DE99048 		push	{r4, r7, fp, lr}
 788              	.LCFI61:
 789              		.cfi_def_cfa_offset 16
 790              		.cfi_offset 4, -16
 791              		.cfi_offset 7, -12
 792              		.cfi_offset 11, -8
 793              		.cfi_offset 14, -4
 794 02c4 84B0     		sub	sp, sp, #16
 795              	.LCFI62:
 796              		.cfi_def_cfa_offset 32
 797 02c6 00AF     		add	r7, sp, #0
 798              	.LCFI63:
 799              		.cfi_def_cfa_register 7
 107:../../source/src/kernel/OS_CORE/schedule/os_delay.c **** 	TCB *TCB_ptr1,*TCB_ptr2;
 108:../../source/src/kernel/OS_CORE/schedule/os_delay.c **** 	unsigned int len;
 109:../../source/src/kernel/OS_CORE/schedule/os_delay.c **** 	unsigned int i;
 110:../../source/src/kernel/OS_CORE/schedule/os_delay.c **** 	len = heap_get_cur_len(&delay_heap);
 800              		.loc 3 110 0
 801 02c8 2248     		ldr	r0, .L51
 802 02ca FFF7E1FE 		bl	heap_get_cur_len
 803 02ce B860     		str	r0, [r7, #8]
 111:../../source/src/kernel/OS_CORE/schedule/os_delay.c **** 	ka_printf("now start checking delay_heap\n");
 804              		.loc 3 111 0
 805 02d0 2148     		ldr	r0, .L51+4
 806 02d2 FFF7FEFF 		bl	ka_printf
 112:../../source/src/kernel/OS_CORE/schedule/os_delay.c **** 	for(i=len-1;i>0;--i)
 807              		.loc 3 112 0
 808 02d6 BB68     		ldr	r3, [r7, #8]
 809 02d8 013B     		subs	r3, r3, #1
 810 02da FB60     		str	r3, [r7, #12]
 811 02dc 2EE0     		b	.L48
 812              	.L50:
 113:../../source/src/kernel/OS_CORE/schedule/os_delay.c **** 	{
 114:../../source/src/kernel/OS_CORE/schedule/os_delay.c **** 		heap_get_index_data(&delay_heap,&TCB_ptr1,i);
 813              		.loc 3 114 0
 814 02de 3B1D     		adds	r3, r7, #4
 815 02e0 FA68     		ldr	r2, [r7, #12]
 816 02e2 1946     		mov	r1, r3
 817 02e4 1B48     		ldr	r0, .L51
 818 02e6 FFF7C3FE 		bl	heap_get_index_data
 115:../../source/src/kernel/OS_CORE/schedule/os_delay.c **** 		heap_get_index_data(&delay_heap,&TCB_ptr2,i/2);
ARM GAS  G:\Users\Jaxb\AppData\Local\Temp\ccnDzD0x.s 			page 20


 819              		.loc 3 115 0
 820 02ea FB68     		ldr	r3, [r7, #12]
 821 02ec 5A08     		lsrs	r2, r3, #1
 822 02ee 3B46     		mov	r3, r7
 823 02f0 1946     		mov	r1, r3
 824 02f2 1848     		ldr	r0, .L51
 825 02f4 FFF7BCFE 		bl	heap_get_index_data
 116:../../source/src/kernel/OS_CORE/schedule/os_delay.c **** 		if(TIME_FIRST_SMALLER_THAN_SECOND(TCB_ptr1->delay_reach_time,TCB_ptr2->delay_reach_time))
 826              		.loc 3 116 0
 827 02f8 7B68     		ldr	r3, [r7, #4]
 828 02fa 03F14004 		add	r4, r3, #64
 829 02fe D4E90034 		ldrd	r3, [r4]
 830 0302 1946     		mov	r1, r3
 831 0304 2246     		mov	r2, r4
 832 0306 3B68     		ldr	r3, [r7]
 833 0308 03F14004 		add	r4, r3, #64
 834 030c D4E90034 		ldrd	r3, [r4]
 835 0310 9B46     		mov	fp, r3
 836 0312 A446     		mov	ip, r4
 837 0314 0B46     		mov	r3, r1
 838 0316 1446     		mov	r4, r2
 839 0318 B3EB0B03 		subs	r3, r3, fp
 840 031c 64EB0C04 		sbc	r4, r4, ip
 841 0320 002B     		cmp	r3, #0
 842 0322 74F10003 		sbcs	r3, r4, #0
 843 0326 06DA     		bge	.L49
 117:../../source/src/kernel/OS_CORE/schedule/os_delay.c **** 		{
 118:../../source/src/kernel/OS_CORE/schedule/os_delay.c **** 			ka_printf("heap member %u has incorrect position with member %u\n",i,i/2);
 844              		.loc 3 118 0
 845 0328 FB68     		ldr	r3, [r7, #12]
 846 032a 5B08     		lsrs	r3, r3, #1
 847 032c 1A46     		mov	r2, r3
 848 032e F968     		ldr	r1, [r7, #12]
 849 0330 0A48     		ldr	r0, .L51+8
 850 0332 FFF7FEFF 		bl	ka_printf
 851              	.L49:
 112:../../source/src/kernel/OS_CORE/schedule/os_delay.c **** 	{
 852              		.loc 3 112 0 discriminator 2
 853 0336 FB68     		ldr	r3, [r7, #12]
 854 0338 013B     		subs	r3, r3, #1
 855 033a FB60     		str	r3, [r7, #12]
 856              	.L48:
 112:../../source/src/kernel/OS_CORE/schedule/os_delay.c **** 	{
 857              		.loc 3 112 0 is_stmt 0 discriminator 1
 858 033c FB68     		ldr	r3, [r7, #12]
 859 033e 002B     		cmp	r3, #0
 860 0340 CDD1     		bne	.L50
 119:../../source/src/kernel/OS_CORE/schedule/os_delay.c **** 		}
 120:../../source/src/kernel/OS_CORE/schedule/os_delay.c **** 	}
 121:../../source/src/kernel/OS_CORE/schedule/os_delay.c **** 	ka_printf("delay_heap check complete\n");
 861              		.loc 3 121 0 is_stmt 1
 862 0342 0748     		ldr	r0, .L51+12
 863 0344 FFF7FEFF 		bl	ka_printf
 122:../../source/src/kernel/OS_CORE/schedule/os_delay.c **** }
 864              		.loc 3 122 0
 865 0348 00BF     		nop
 866 034a 1037     		adds	r7, r7, #16
ARM GAS  G:\Users\Jaxb\AppData\Local\Temp\ccnDzD0x.s 			page 21


 867              	.LCFI64:
 868              		.cfi_def_cfa_offset 16
 869 034c BD46     		mov	sp, r7
 870              	.LCFI65:
 871              		.cfi_def_cfa_register 13
 872              		@ sp needed
 873 034e BDE89088 		pop	{r4, r7, fp, pc}
 874              	.L52:
 875 0352 00BF     		.align	2
 876              	.L51:
 877 0354 00000000 		.word	delay_heap
 878 0358 60000000 		.word	.LC2
 879 035c 80000000 		.word	.LC3
 880 0360 B8000000 		.word	.LC4
 881              		.cfi_endproc
 882              	.LFE27:
 883              		.size	shell_delay_heap_check, .-shell_delay_heap_check
 884              	.Letext0:
 885              		.file 4 "../../source/include/os_cpu/kakaosstdint.h"
 886              		.file 5 "../../source/include/os_lib/double_linked_list.h"
 887              		.file 6 "../../source/include/os_core/schedule/task_state.h"
 888              		.file 7 "../../source/include/os_core/schedule/TCB.h"
 889              		.section	.debug_info,"",%progbits
 890              	.Ldebug_info0:
 891 0000 51060000 		.4byte	0x651
 892 0004 0200     		.2byte	0x2
 893 0006 00000000 		.4byte	.Ldebug_abbrev0
 894 000a 04       		.byte	0x4
 895 000b 01       		.uleb128 0x1
 896 000c AC040000 		.4byte	.LASF75
 897 0010 0C       		.byte	0xc
 898 0011 0F000000 		.4byte	.LASF76
 899 0015 E0010000 		.4byte	.LASF77
 900 0019 00000000 		.4byte	.Ltext0
 901 001d 64030000 		.4byte	.Letext0
 902 0021 00000000 		.4byte	.Ldebug_line0
 903 0025 02       		.uleb128 0x2
 904 0026 77010000 		.4byte	.LASF5
 905 002a 14       		.byte	0x14
 906 002b 01       		.byte	0x1
 907 002c 0A       		.byte	0xa
 908 002d 78000000 		.4byte	0x78
 909 0031 03       		.uleb128 0x3
 910 0032 8D050000 		.4byte	.LASF0
 911 0036 01       		.byte	0x1
 912 0037 0C       		.byte	0xc
 913 0038 78000000 		.4byte	0x78
 914 003c 02       		.byte	0x2
 915 003d 23       		.byte	0x23
 916 003e 00       		.uleb128 0
 917 003f 03       		.uleb128 0x3
 918 0040 85000000 		.4byte	.LASF1
 919 0044 01       		.byte	0x1
 920 0045 0D       		.byte	0xd
 921 0046 7A000000 		.4byte	0x7a
 922 004a 02       		.byte	0x2
 923 004b 23       		.byte	0x23
ARM GAS  G:\Users\Jaxb\AppData\Local\Temp\ccnDzD0x.s 			page 22


 924 004c 04       		.uleb128 0x4
 925 004d 03       		.uleb128 0x3
 926 004e 3B020000 		.4byte	.LASF2
 927 0052 01       		.byte	0x1
 928 0053 0E       		.byte	0xe
 929 0054 7A000000 		.4byte	0x7a
 930 0058 02       		.byte	0x2
 931 0059 23       		.byte	0x23
 932 005a 08       		.uleb128 0x8
 933 005b 03       		.uleb128 0x3
 934 005c C7030000 		.4byte	.LASF3
 935 0060 01       		.byte	0x1
 936 0061 0F       		.byte	0xf
 937 0062 7A000000 		.4byte	0x7a
 938 0066 02       		.byte	0x2
 939 0067 23       		.byte	0x23
 940 0068 0C       		.uleb128 0xc
 941 0069 03       		.uleb128 0x3
 942 006a 6A030000 		.4byte	.LASF4
 943 006e 01       		.byte	0x1
 944 006f 15       		.byte	0x15
 945 0070 7A000000 		.4byte	0x7a
 946 0074 02       		.byte	0x2
 947 0075 23       		.byte	0x23
 948 0076 10       		.uleb128 0x10
 949 0077 00       		.byte	0
 950 0078 04       		.uleb128 0x4
 951 0079 04       		.byte	0x4
 952 007a 05       		.uleb128 0x5
 953 007b 04       		.byte	0x4
 954 007c 07       		.byte	0x7
 955 007d E5020000 		.4byte	.LASF9
 956 0081 06       		.uleb128 0x6
 957 0082 77020000 		.4byte	.LASF12
 958 0086 01       		.byte	0x1
 959 0087 16       		.byte	0x16
 960 0088 25000000 		.4byte	0x25
 961 008c 02       		.uleb128 0x2
 962 008d BB030000 		.4byte	.LASF6
 963 0091 1C       		.byte	0x1c
 964 0092 02       		.byte	0x2
 965 0093 0A       		.byte	0xa
 966 0094 C3000000 		.4byte	0xc3
 967 0098 03       		.uleb128 0x3
 968 0099 B6030000 		.4byte	.LASF7
 969 009d 02       		.byte	0x2
 970 009e 0D       		.byte	0xd
 971 009f 81000000 		.4byte	0x81
 972 00a3 02       		.byte	0x2
 973 00a4 23       		.byte	0x23
 974 00a5 00       		.uleb128 0
 975 00a6 07       		.uleb128 0x7
 976 00a7 636D7000 		.ascii	"cmp\000"
 977 00ab 02       		.byte	0x2
 978 00ac 0F       		.byte	0xf
 979 00ad EF000000 		.4byte	0xef
 980 00b1 02       		.byte	0x2
ARM GAS  G:\Users\Jaxb\AppData\Local\Temp\ccnDzD0x.s 			page 23


 981 00b2 23       		.byte	0x23
 982 00b3 14       		.uleb128 0x14
 983 00b4 03       		.uleb128 0x3
 984 00b5 17010000 		.4byte	.LASF8
 985 00b9 02       		.byte	0x2
 986 00ba 11       		.byte	0x11
 987 00bb 06010000 		.4byte	0x106
 988 00bf 02       		.byte	0x2
 989 00c0 23       		.byte	0x23
 990 00c1 18       		.uleb128 0x18
 991 00c2 00       		.byte	0
 992 00c3 08       		.uleb128 0x8
 993 00c4 01       		.byte	0x1
 994 00c5 DD000000 		.4byte	0xdd
 995 00c9 DD000000 		.4byte	0xdd
 996 00cd 09       		.uleb128 0x9
 997 00ce E9000000 		.4byte	0xe9
 998 00d2 09       		.uleb128 0x9
 999 00d3 7A000000 		.4byte	0x7a
 1000 00d7 09       		.uleb128 0x9
 1001 00d8 7A000000 		.4byte	0x7a
 1002 00dc 00       		.byte	0
 1003 00dd 0A       		.uleb128 0xa
 1004 00de 04       		.byte	0x4
 1005 00df 05       		.byte	0x5
 1006 00e0 696E7400 		.ascii	"int\000"
 1007 00e4 0B       		.uleb128 0xb
 1008 00e5 DD000000 		.4byte	0xdd
 1009 00e9 0C       		.uleb128 0xc
 1010 00ea 04       		.byte	0x4
 1011 00eb 81000000 		.4byte	0x81
 1012 00ef 0C       		.uleb128 0xc
 1013 00f0 04       		.byte	0x4
 1014 00f1 C3000000 		.4byte	0xc3
 1015 00f5 0D       		.uleb128 0xd
 1016 00f6 01       		.byte	0x1
 1017 00f7 06010000 		.4byte	0x106
 1018 00fb 09       		.uleb128 0x9
 1019 00fc E9000000 		.4byte	0xe9
 1020 0100 09       		.uleb128 0x9
 1021 0101 DD000000 		.4byte	0xdd
 1022 0105 00       		.byte	0
 1023 0106 0C       		.uleb128 0xc
 1024 0107 04       		.byte	0x4
 1025 0108 F5000000 		.4byte	0xf5
 1026 010c 05       		.uleb128 0x5
 1027 010d 01       		.byte	0x1
 1028 010e 06       		.byte	0x6
 1029 010f AF020000 		.4byte	.LASF10
 1030 0113 05       		.uleb128 0x5
 1031 0114 02       		.byte	0x2
 1032 0115 05       		.byte	0x5
 1033 0116 8D000000 		.4byte	.LASF11
 1034 011a 06       		.uleb128 0x6
 1035 011b DC030000 		.4byte	.LASF13
 1036 011f 04       		.byte	0x4
 1037 0120 08       		.byte	0x8
ARM GAS  G:\Users\Jaxb\AppData\Local\Temp\ccnDzD0x.s 			page 24


 1038 0121 25010000 		.4byte	0x125
 1039 0125 05       		.uleb128 0x5
 1040 0126 08       		.byte	0x8
 1041 0127 05       		.byte	0x5
 1042 0128 0E020000 		.4byte	.LASF14
 1043 012c 05       		.uleb128 0x5
 1044 012d 01       		.byte	0x1
 1045 012e 08       		.byte	0x8
 1046 012f 7E020000 		.4byte	.LASF15
 1047 0133 05       		.uleb128 0x5
 1048 0134 02       		.byte	0x2
 1049 0135 07       		.byte	0x7
 1050 0136 41030000 		.4byte	.LASF16
 1051 013a 06       		.uleb128 0x6
 1052 013b F8000000 		.4byte	.LASF17
 1053 013f 04       		.byte	0x4
 1054 0140 0C       		.byte	0xc
 1055 0141 7A000000 		.4byte	0x7a
 1056 0145 06       		.uleb128 0x6
 1057 0146 81050000 		.4byte	.LASF18
 1058 014a 04       		.byte	0x4
 1059 014b 0D       		.byte	0xd
 1060 014c 50010000 		.4byte	0x150
 1061 0150 05       		.uleb128 0x5
 1062 0151 08       		.byte	0x8
 1063 0152 07       		.byte	0x7
 1064 0153 BB020000 		.4byte	.LASF19
 1065 0157 02       		.uleb128 0x2
 1066 0158 6A000000 		.4byte	.LASF20
 1067 015c 08       		.byte	0x8
 1068 015d 05       		.byte	0x5
 1069 015e 04       		.byte	0x4
 1070 015f 80010000 		.4byte	0x180
 1071 0163 03       		.uleb128 0x3
 1072 0164 96050000 		.4byte	.LASF21
 1073 0168 05       		.byte	0x5
 1074 0169 05       		.byte	0x5
 1075 016a 80010000 		.4byte	0x180
 1076 016e 02       		.byte	0x2
 1077 016f 23       		.byte	0x23
 1078 0170 00       		.uleb128 0
 1079 0171 03       		.uleb128 0x3
 1080 0172 6B050000 		.4byte	.LASF22
 1081 0176 05       		.byte	0x5
 1082 0177 05       		.byte	0x5
 1083 0178 80010000 		.4byte	0x180
 1084 017c 02       		.byte	0x2
 1085 017d 23       		.byte	0x23
 1086 017e 04       		.uleb128 0x4
 1087 017f 00       		.byte	0
 1088 0180 0C       		.uleb128 0xc
 1089 0181 04       		.byte	0x4
 1090 0182 57010000 		.4byte	0x157
 1091 0186 0E       		.uleb128 0xe
 1092 0187 36010000 		.4byte	.LASF78
 1093 018b 07       		.byte	0x7
 1094 018c 01       		.byte	0x1
ARM GAS  G:\Users\Jaxb\AppData\Local\Temp\ccnDzD0x.s 			page 25


 1095 018d 2C010000 		.4byte	0x12c
 1096 0191 06       		.byte	0x6
 1097 0192 04       		.byte	0x4
 1098 0193 D4010000 		.4byte	0x1d4
 1099 0197 0F       		.uleb128 0xf
 1100 0198 54030000 		.4byte	.LASF23
 1101 019c 01       		.byte	0x1
 1102 019d 0F       		.uleb128 0xf
 1103 019e 8C020000 		.4byte	.LASF24
 1104 01a2 02       		.byte	0x2
 1105 01a3 0F       		.uleb128 0xf
 1106 01a4 43000000 		.4byte	.LASF25
 1107 01a8 03       		.byte	0x3
 1108 01a9 0F       		.uleb128 0xf
 1109 01aa 0D040000 		.4byte	.LASF26
 1110 01ae 04       		.byte	0x4
 1111 01af 0F       		.uleb128 0xf
 1112 01b0 A0010000 		.4byte	.LASF27
 1113 01b4 05       		.byte	0x5
 1114 01b5 0F       		.uleb128 0xf
 1115 01b6 D7000000 		.4byte	.LASF28
 1116 01ba 06       		.byte	0x6
 1117 01bb 0F       		.uleb128 0xf
 1118 01bc BF010000 		.4byte	.LASF29
 1119 01c0 07       		.byte	0x7
 1120 01c1 0F       		.uleb128 0xf
 1121 01c2 41010000 		.4byte	.LASF30
 1122 01c6 08       		.byte	0x8
 1123 01c7 0F       		.uleb128 0xf
 1124 01c8 7B030000 		.4byte	.LASF31
 1125 01cc 09       		.byte	0x9
 1126 01cd 0F       		.uleb128 0xf
 1127 01ce 52050000 		.4byte	.LASF32
 1128 01d2 0A       		.byte	0xa
 1129 01d3 00       		.byte	0
 1130 01d4 06       		.uleb128 0x6
 1131 01d5 30020000 		.4byte	.LASF33
 1132 01d9 06       		.byte	0x6
 1133 01da 0F       		.byte	0xf
 1134 01db 86010000 		.4byte	0x186
 1135 01df 06       		.uleb128 0x6
 1136 01e0 2B010000 		.4byte	.LASF34
 1137 01e4 07       		.byte	0x7
 1138 01e5 0A       		.byte	0xa
 1139 01e6 7A000000 		.4byte	0x7a
 1140 01ea 06       		.uleb128 0x6
 1141 01eb 00000000 		.4byte	.LASF35
 1142 01ef 07       		.byte	0x7
 1143 01f0 0C       		.byte	0xc
 1144 01f1 7A000000 		.4byte	0x7a
 1145 01f5 10       		.uleb128 0x10
 1146 01f6 9A040000 		.4byte	.LASF79
 1147 01fa 07       		.byte	0x7
 1148 01fb 13       		.byte	0x13
 1149 01fc E4000000 		.4byte	0xe4
 1150 0200 01       		.byte	0x1
 1151 0201 01       		.byte	0x1
ARM GAS  G:\Users\Jaxb\AppData\Local\Temp\ccnDzD0x.s 			page 26


 1152 0202 02       		.uleb128 0x2
 1153 0203 24040000 		.4byte	.LASF36
 1154 0207 48       		.byte	0x48
 1155 0208 07       		.byte	0x7
 1156 0209 37       		.byte	0x37
 1157 020a E1020000 		.4byte	0x2e1
 1158 020e 03       		.uleb128 0x3
 1159 020f 0A030000 		.4byte	.LASF37
 1160 0213 07       		.byte	0x7
 1161 0214 38       		.byte	0x38
 1162 0215 E1020000 		.4byte	0x2e1
 1163 0219 02       		.byte	0x2
 1164 021a 23       		.byte	0x23
 1165 021b 00       		.uleb128 0
 1166 021c 03       		.uleb128 0x3
 1167 021d 3E040000 		.4byte	.LASF38
 1168 0221 07       		.byte	0x7
 1169 0222 39       		.byte	0x39
 1170 0223 7A000000 		.4byte	0x7a
 1171 0227 02       		.byte	0x2
 1172 0228 23       		.byte	0x23
 1173 0229 04       		.uleb128 0x4
 1174 022a 03       		.uleb128 0x3
 1175 022b 96010000 		.4byte	.LASF39
 1176 022f 07       		.byte	0x7
 1177 0230 3A       		.byte	0x3a
 1178 0231 E1020000 		.4byte	0x2e1
 1179 0235 02       		.byte	0x2
 1180 0236 23       		.byte	0x23
 1181 0237 08       		.uleb128 0x8
 1182 0238 03       		.uleb128 0x3
 1183 0239 6C040000 		.4byte	.LASF40
 1184 023d 07       		.byte	0x7
 1185 023e 3B       		.byte	0x3b
 1186 023f EA010000 		.4byte	0x1ea
 1187 0243 02       		.byte	0x2
 1188 0244 23       		.byte	0x23
 1189 0245 0C       		.uleb128 0xc
 1190 0246 03       		.uleb128 0x3
 1191 0247 D1030000 		.4byte	.LASF41
 1192 024b 07       		.byte	0x7
 1193 024c 3C       		.byte	0x3c
 1194 024d D4010000 		.4byte	0x1d4
 1195 0251 02       		.byte	0x2
 1196 0252 23       		.byte	0x23
 1197 0253 10       		.uleb128 0x10
 1198 0254 03       		.uleb128 0x3
 1199 0255 88050000 		.4byte	.LASF42
 1200 0259 07       		.byte	0x7
 1201 025a 3D       		.byte	0x3d
 1202 025b EA010000 		.4byte	0x1ea
 1203 025f 02       		.byte	0x2
 1204 0260 23       		.byte	0x23
 1205 0261 14       		.uleb128 0x14
 1206 0262 03       		.uleb128 0x3
 1207 0263 B5000000 		.4byte	.LASF43
 1208 0267 07       		.byte	0x7
ARM GAS  G:\Users\Jaxb\AppData\Local\Temp\ccnDzD0x.s 			page 27


 1209 0268 3E       		.byte	0x3e
 1210 0269 DD000000 		.4byte	0xdd
 1211 026d 02       		.byte	0x2
 1212 026e 23       		.byte	0x23
 1213 026f 18       		.uleb128 0x18
 1214 0270 03       		.uleb128 0x3
 1215 0271 10030000 		.4byte	.LASF44
 1216 0275 07       		.byte	0x7
 1217 0276 3F       		.byte	0x3f
 1218 0277 57010000 		.4byte	0x157
 1219 027b 02       		.byte	0x2
 1220 027c 23       		.byte	0x23
 1221 027d 1C       		.uleb128 0x1c
 1222 027e 03       		.uleb128 0x3
 1223 027f 8D040000 		.4byte	.LASF45
 1224 0283 07       		.byte	0x7
 1225 0284 40       		.byte	0x40
 1226 0285 57010000 		.4byte	0x157
 1227 0289 02       		.byte	0x2
 1228 028a 23       		.byte	0x23
 1229 028b 24       		.uleb128 0x24
 1230 028c 03       		.uleb128 0x3
 1231 028d 59020000 		.4byte	.LASF46
 1232 0291 07       		.byte	0x7
 1233 0292 41       		.byte	0x41
 1234 0293 E7020000 		.4byte	0x2e7
 1235 0297 02       		.byte	0x2
 1236 0298 23       		.byte	0x23
 1237 0299 2C       		.uleb128 0x2c
 1238 029a 03       		.uleb128 0x3
 1239 029b 1C020000 		.4byte	.LASF47
 1240 029f 07       		.byte	0x7
 1241 02a0 42       		.byte	0x42
 1242 02a1 7A000000 		.4byte	0x7a
 1243 02a5 02       		.byte	0x2
 1244 02a6 23       		.byte	0x23
 1245 02a7 30       		.uleb128 0x30
 1246 02a8 03       		.uleb128 0x3
 1247 02a9 F9030000 		.4byte	.LASF48
 1248 02ad 07       		.byte	0x7
 1249 02ae 43       		.byte	0x43
 1250 02af 7A000000 		.4byte	0x7a
 1251 02b3 02       		.byte	0x2
 1252 02b4 23       		.byte	0x23
 1253 02b5 34       		.uleb128 0x34
 1254 02b6 03       		.uleb128 0x3
 1255 02b7 A3020000 		.4byte	.LASF49
 1256 02bb 07       		.byte	0x7
 1257 02bc 44       		.byte	0x44
 1258 02bd 3A010000 		.4byte	0x13a
 1259 02c1 02       		.byte	0x2
 1260 02c2 23       		.byte	0x23
 1261 02c3 38       		.uleb128 0x38
 1262 02c4 03       		.uleb128 0x3
 1263 02c5 D2020000 		.4byte	.LASF50
 1264 02c9 07       		.byte	0x7
 1265 02ca 45       		.byte	0x45
ARM GAS  G:\Users\Jaxb\AppData\Local\Temp\ccnDzD0x.s 			page 28


 1266 02cb FA020000 		.4byte	0x2fa
 1267 02cf 02       		.byte	0x2
 1268 02d0 23       		.byte	0x23
 1269 02d1 3C       		.uleb128 0x3c
 1270 02d2 03       		.uleb128 0x3
 1271 02d3 70050000 		.4byte	.LASF51
 1272 02d7 07       		.byte	0x7
 1273 02d8 46       		.byte	0x46
 1274 02d9 45010000 		.4byte	0x145
 1275 02dd 02       		.byte	0x2
 1276 02de 23       		.byte	0x23
 1277 02df 40       		.uleb128 0x40
 1278 02e0 00       		.byte	0
 1279 02e1 0C       		.uleb128 0xc
 1280 02e2 04       		.byte	0x4
 1281 02e3 DF010000 		.4byte	0x1df
 1282 02e7 0C       		.uleb128 0xc
 1283 02e8 04       		.byte	0x4
 1284 02e9 ED020000 		.4byte	0x2ed
 1285 02ed 05       		.uleb128 0x5
 1286 02ee 01       		.byte	0x1
 1287 02ef 08       		.byte	0x8
 1288 02f0 60030000 		.4byte	.LASF52
 1289 02f4 11       		.uleb128 0x11
 1290 02f5 32030000 		.4byte	.LASF80
 1291 02f9 01       		.byte	0x1
 1292 02fa 0C       		.uleb128 0xc
 1293 02fb 04       		.byte	0x4
 1294 02fc F4020000 		.4byte	0x2f4
 1295 0300 12       		.uleb128 0x12
 1296 0301 54434200 		.ascii	"TCB\000"
 1297 0305 07       		.byte	0x7
 1298 0306 47       		.byte	0x47
 1299 0307 02020000 		.4byte	0x202
 1300 030b 13       		.uleb128 0x13
 1301 030c 00030000 		.4byte	0x300
 1302 0310 14       		.uleb128 0x14
 1303 0311 61040000 		.4byte	.LASF53
 1304 0315 03       		.byte	0x3
 1305 0316 0C       		.byte	0xc
 1306 0317 8C000000 		.4byte	0x8c
 1307 031b 05       		.byte	0x5
 1308 031c 03       		.byte	0x3
 1309 031d 00000000 		.4byte	delay_heap
 1310 0321 15       		.uleb128 0x15
 1311 0322 01       		.byte	0x1
 1312 0323 E2030000 		.4byte	.LASF81
 1313 0327 03       		.byte	0x3
 1314 0328 69       		.byte	0x69
 1315 0329 01       		.byte	0x1
 1316 032a C0020000 		.4byte	.LFB27
 1317 032e 64030000 		.4byte	.LFE27
 1318 0332 00000000 		.4byte	.LLST12
 1319 0336 01       		.byte	0x1
 1320 0337 72030000 		.4byte	0x372
 1321 033b 14       		.uleb128 0x14
 1322 033c 9B050000 		.4byte	.LASF54
ARM GAS  G:\Users\Jaxb\AppData\Local\Temp\ccnDzD0x.s 			page 29


 1323 0340 03       		.byte	0x3
 1324 0341 6B       		.byte	0x6b
 1325 0342 72030000 		.4byte	0x372
 1326 0346 02       		.byte	0x2
 1327 0347 91       		.byte	0x91
 1328 0348 64       		.sleb128 -28
 1329 0349 14       		.uleb128 0x14
 1330 034a A4050000 		.4byte	.LASF55
 1331 034e 03       		.byte	0x3
 1332 034f 6B       		.byte	0x6b
 1333 0350 72030000 		.4byte	0x372
 1334 0354 02       		.byte	0x2
 1335 0355 91       		.byte	0x91
 1336 0356 60       		.sleb128 -32
 1337 0357 16       		.uleb128 0x16
 1338 0358 6C656E00 		.ascii	"len\000"
 1339 035c 03       		.byte	0x3
 1340 035d 6C       		.byte	0x6c
 1341 035e 7A000000 		.4byte	0x7a
 1342 0362 02       		.byte	0x2
 1343 0363 91       		.byte	0x91
 1344 0364 68       		.sleb128 -24
 1345 0365 16       		.uleb128 0x16
 1346 0366 6900     		.ascii	"i\000"
 1347 0368 03       		.byte	0x3
 1348 0369 6D       		.byte	0x6d
 1349 036a 7A000000 		.4byte	0x7a
 1350 036e 02       		.byte	0x2
 1351 036f 91       		.byte	0x91
 1352 0370 6C       		.sleb128 -20
 1353 0371 00       		.byte	0
 1354 0372 0C       		.uleb128 0xc
 1355 0373 04       		.byte	0x4
 1356 0374 00030000 		.4byte	0x300
 1357 0378 17       		.uleb128 0x17
 1358 0379 01       		.byte	0x1
 1359 037a 9B030000 		.4byte	.LASF57
 1360 037e 03       		.byte	0x3
 1361 037f 5E       		.byte	0x5e
 1362 0380 01       		.byte	0x1
 1363 0381 72030000 		.4byte	0x372
 1364 0385 94020000 		.4byte	.LFB26
 1365 0389 C0020000 		.4byte	.LFE26
 1366 038d 50000000 		.4byte	.LLST11
 1367 0391 01       		.byte	0x1
 1368 0392 A5030000 		.4byte	0x3a5
 1369 0396 14       		.uleb128 0x14
 1370 0397 B7010000 		.4byte	.LASF56
 1371 039b 03       		.byte	0x3
 1372 039c 60       		.byte	0x60
 1373 039d 72030000 		.4byte	0x372
 1374 03a1 02       		.byte	0x2
 1375 03a2 91       		.byte	0x91
 1376 03a3 74       		.sleb128 -12
 1377 03a4 00       		.byte	0
 1378 03a5 17       		.uleb128 0x17
 1379 03a6 01       		.byte	0x1
ARM GAS  G:\Users\Jaxb\AppData\Local\Temp\ccnDzD0x.s 			page 30


 1380 03a7 7E010000 		.4byte	.LASF58
 1381 03ab 03       		.byte	0x3
 1382 03ac 54       		.byte	0x54
 1383 03ad 01       		.byte	0x1
 1384 03ae 72030000 		.4byte	0x372
 1385 03b2 68020000 		.4byte	.LFB25
 1386 03b6 94020000 		.4byte	.LFE25
 1387 03ba A0000000 		.4byte	.LLST10
 1388 03be 01       		.byte	0x1
 1389 03bf D2030000 		.4byte	0x3d2
 1390 03c3 14       		.uleb128 0x14
 1391 03c4 B7010000 		.4byte	.LASF56
 1392 03c8 03       		.byte	0x3
 1393 03c9 56       		.byte	0x56
 1394 03ca 72030000 		.4byte	0x372
 1395 03ce 02       		.byte	0x2
 1396 03cf 91       		.byte	0x91
 1397 03d0 74       		.sleb128 -12
 1398 03d1 00       		.byte	0
 1399 03d2 17       		.uleb128 0x17
 1400 03d3 01       		.byte	0x1
 1401 03d4 49040000 		.4byte	.LASF59
 1402 03d8 03       		.byte	0x3
 1403 03d9 3C       		.byte	0x3c
 1404 03da 01       		.byte	0x1
 1405 03db DD000000 		.4byte	0xdd
 1406 03df E8010000 		.4byte	.LFB24
 1407 03e3 68020000 		.4byte	.LFE24
 1408 03e7 F0000000 		.4byte	.LLST9
 1409 03eb 01       		.byte	0x1
 1410 03ec 35040000 		.4byte	0x435
 1411 03f0 18       		.uleb128 0x18
 1412 03f1 B7010000 		.4byte	.LASF56
 1413 03f5 03       		.byte	0x3
 1414 03f6 3C       		.byte	0x3c
 1415 03f7 72030000 		.4byte	0x372
 1416 03fb 02       		.byte	0x2
 1417 03fc 91       		.byte	0x91
 1418 03fd 64       		.sleb128 -28
 1419 03fe 14       		.uleb128 0x14
 1420 03ff A6000000 		.4byte	.LASF60
 1421 0403 03       		.byte	0x3
 1422 0404 3F       		.byte	0x3f
 1423 0405 72030000 		.4byte	0x372
 1424 0409 02       		.byte	0x2
 1425 040a 91       		.byte	0x91
 1426 040b 68       		.sleb128 -24
 1427 040c 16       		.uleb128 0x16
 1428 040d 6900     		.ascii	"i\000"
 1429 040f 03       		.byte	0x3
 1430 0410 40       		.byte	0x40
 1431 0411 DD000000 		.4byte	0xdd
 1432 0415 02       		.byte	0x2
 1433 0416 91       		.byte	0x91
 1434 0417 74       		.sleb128 -12
 1435 0418 16       		.uleb128 0x16
 1436 0419 72657400 		.ascii	"ret\000"
ARM GAS  G:\Users\Jaxb\AppData\Local\Temp\ccnDzD0x.s 			page 31


 1437 041d 03       		.byte	0x3
 1438 041e 41       		.byte	0x41
 1439 041f DD000000 		.4byte	0xdd
 1440 0423 02       		.byte	0x2
 1441 0424 91       		.byte	0x91
 1442 0425 6C       		.sleb128 -20
 1443 0426 16       		.uleb128 0x16
 1444 0427 6C656E00 		.ascii	"len\000"
 1445 042b 03       		.byte	0x3
 1446 042c 42       		.byte	0x42
 1447 042d DD000000 		.4byte	0xdd
 1448 0431 02       		.byte	0x2
 1449 0432 91       		.byte	0x91
 1450 0433 70       		.sleb128 -16
 1451 0434 00       		.byte	0
 1452 0435 17       		.uleb128 0x17
 1453 0436 01       		.byte	0x1
 1454 0437 F2020000 		.4byte	.LASF61
 1455 043b 03       		.byte	0x3
 1456 043c 36       		.byte	0x36
 1457 043d 01       		.byte	0x1
 1458 043e DD000000 		.4byte	0xdd
 1459 0442 B4010000 		.4byte	.LFB23
 1460 0446 E8010000 		.4byte	.LFE23
 1461 044a 40010000 		.4byte	.LLST8
 1462 044e 01       		.byte	0x1
 1463 044f 62040000 		.4byte	0x462
 1464 0453 18       		.uleb128 0x18
 1465 0454 B7010000 		.4byte	.LASF56
 1466 0458 03       		.byte	0x3
 1467 0459 36       		.byte	0x36
 1468 045a 72030000 		.4byte	0x372
 1469 045e 02       		.byte	0x2
 1470 045f 91       		.byte	0x91
 1471 0460 74       		.sleb128 -12
 1472 0461 00       		.byte	0
 1473 0462 19       		.uleb128 0x19
 1474 0463 01       		.byte	0x1
 1475 0464 58000000 		.4byte	.LASF82
 1476 0468 03       		.byte	0x3
 1477 0469 29       		.byte	0x29
 1478 046a 01       		.byte	0x1
 1479 046b 78010000 		.4byte	.LFB22
 1480 046f B4010000 		.4byte	.LFE22
 1481 0473 90010000 		.4byte	.LLST7
 1482 0477 01       		.byte	0x1
 1483 0478 1A       		.uleb128 0x1a
 1484 0479 17010000 		.4byte	.LASF8
 1485 047d 03       		.byte	0x3
 1486 047e 22       		.byte	0x22
 1487 047f 01       		.byte	0x1
 1488 0480 52010000 		.4byte	.LFB21
 1489 0484 78010000 		.4byte	.LFE21
 1490 0488 D4010000 		.4byte	.LLST6
 1491 048c 01       		.byte	0x1
 1492 048d BC040000 		.4byte	0x4bc
 1493 0491 18       		.uleb128 0x18
ARM GAS  G:\Users\Jaxb\AppData\Local\Temp\ccnDzD0x.s 			page 32


 1494 0492 0C010000 		.4byte	.LASF62
 1495 0496 03       		.byte	0x3
 1496 0497 22       		.byte	0x22
 1497 0498 E9000000 		.4byte	0xe9
 1498 049c 02       		.byte	0x2
 1499 049d 91       		.byte	0x91
 1500 049e 6C       		.sleb128 -20
 1501 049f 18       		.uleb128 0x18
 1502 04a0 71010000 		.4byte	.LASF63
 1503 04a4 03       		.byte	0x3
 1504 04a5 22       		.byte	0x22
 1505 04a6 DD000000 		.4byte	0xdd
 1506 04aa 02       		.byte	0x2
 1507 04ab 91       		.byte	0x91
 1508 04ac 68       		.sleb128 -24
 1509 04ad 14       		.uleb128 0x14
 1510 04ae B7010000 		.4byte	.LASF56
 1511 04b2 03       		.byte	0x3
 1512 04b3 24       		.byte	0x24
 1513 04b4 72030000 		.4byte	0x372
 1514 04b8 02       		.byte	0x2
 1515 04b9 91       		.byte	0x91
 1516 04ba 74       		.sleb128 -12
 1517 04bb 00       		.byte	0
 1518 04bc 1B       		.uleb128 0x1b
 1519 04bd 65030000 		.4byte	.LASF66
 1520 04c1 03       		.byte	0x3
 1521 04c2 0F       		.byte	0xf
 1522 04c3 01       		.byte	0x1
 1523 04c4 DD000000 		.4byte	0xdd
 1524 04c8 AA000000 		.4byte	.LFB20
 1525 04cc 52010000 		.4byte	.LFE20
 1526 04d0 24020000 		.4byte	.LLST5
 1527 04d4 01       		.byte	0x1
 1528 04d5 1C050000 		.4byte	0x51c
 1529 04d9 18       		.uleb128 0x18
 1530 04da 0C010000 		.4byte	.LASF62
 1531 04de 03       		.byte	0x3
 1532 04df 0F       		.byte	0xf
 1533 04e0 E9000000 		.4byte	0xe9
 1534 04e4 02       		.byte	0x2
 1535 04e5 91       		.byte	0x91
 1536 04e6 64       		.sleb128 -28
 1537 04e7 18       		.uleb128 0x18
 1538 04e8 C9000000 		.4byte	.LASF64
 1539 04ec 03       		.byte	0x3
 1540 04ed 0F       		.byte	0xf
 1541 04ee 7A000000 		.4byte	0x7a
 1542 04f2 02       		.byte	0x2
 1543 04f3 91       		.byte	0x91
 1544 04f4 60       		.sleb128 -32
 1545 04f5 18       		.uleb128 0x18
 1546 04f6 D0000000 		.4byte	.LASF65
 1547 04fa 03       		.byte	0x3
 1548 04fb 0F       		.byte	0xf
 1549 04fc 7A000000 		.4byte	0x7a
 1550 0500 02       		.byte	0x2
ARM GAS  G:\Users\Jaxb\AppData\Local\Temp\ccnDzD0x.s 			page 33


 1551 0501 91       		.byte	0x91
 1552 0502 5C       		.sleb128 -36
 1553 0503 16       		.uleb128 0x16
 1554 0504 6100     		.ascii	"a\000"
 1555 0506 03       		.byte	0x3
 1556 0507 11       		.byte	0x11
 1557 0508 1C050000 		.4byte	0x51c
 1558 050c 02       		.byte	0x2
 1559 050d 91       		.byte	0x91
 1560 050e 6C       		.sleb128 -20
 1561 050f 16       		.uleb128 0x16
 1562 0510 6200     		.ascii	"b\000"
 1563 0512 03       		.byte	0x3
 1564 0513 11       		.byte	0x11
 1565 0514 1C050000 		.4byte	0x51c
 1566 0518 02       		.byte	0x2
 1567 0519 91       		.byte	0x91
 1568 051a 68       		.sleb128 -24
 1569 051b 00       		.byte	0
 1570 051c 0C       		.uleb128 0xc
 1571 051d 04       		.byte	0x4
 1572 051e 22050000 		.4byte	0x522
 1573 0522 0C       		.uleb128 0xc
 1574 0523 04       		.byte	0x4
 1575 0524 0B030000 		.4byte	0x30b
 1576 0528 1B       		.uleb128 0x1b
 1577 0529 74000000 		.4byte	.LASF67
 1578 052d 02       		.byte	0x2
 1579 052e 25       		.byte	0x25
 1580 052f 01       		.byte	0x1
 1581 0530 7A000000 		.4byte	0x7a
 1582 0534 90000000 		.4byte	.LFB8
 1583 0538 AA000000 		.4byte	.LFE8
 1584 053c 74020000 		.4byte	.LLST4
 1585 0540 01       		.byte	0x1
 1586 0541 54050000 		.4byte	0x554
 1587 0545 18       		.uleb128 0x18
 1588 0546 61010000 		.4byte	.LASF68
 1589 054a 02       		.byte	0x2
 1590 054b 25       		.byte	0x25
 1591 054c 54050000 		.4byte	0x554
 1592 0550 02       		.byte	0x2
 1593 0551 91       		.byte	0x91
 1594 0552 74       		.sleb128 -12
 1595 0553 00       		.byte	0
 1596 0554 0C       		.uleb128 0xc
 1597 0555 04       		.byte	0x4
 1598 0556 8C000000 		.4byte	0x8c
 1599 055a 1A       		.uleb128 0x1a
 1600 055b 79040000 		.4byte	.LASF69
 1601 055f 02       		.byte	0x2
 1602 0560 20       		.byte	0x20
 1603 0561 01       		.byte	0x1
 1604 0562 70000000 		.4byte	.LFB7
 1605 0566 90000000 		.4byte	.LFE7
 1606 056a C4020000 		.4byte	.LLST3
 1607 056e 01       		.byte	0x1
ARM GAS  G:\Users\Jaxb\AppData\Local\Temp\ccnDzD0x.s 			page 34


 1608 056f 9E050000 		.4byte	0x59e
 1609 0573 18       		.uleb128 0x18
 1610 0574 61010000 		.4byte	.LASF68
 1611 0578 02       		.byte	0x2
 1612 0579 20       		.byte	0x20
 1613 057a 54050000 		.4byte	0x554
 1614 057e 02       		.byte	0x2
 1615 057f 91       		.byte	0x91
 1616 0580 74       		.sleb128 -12
 1617 0581 18       		.uleb128 0x18
 1618 0582 97000000 		.4byte	.LASF70
 1619 0586 02       		.byte	0x2
 1620 0587 20       		.byte	0x20
 1621 0588 78000000 		.4byte	0x78
 1622 058c 02       		.byte	0x2
 1623 058d 91       		.byte	0x91
 1624 058e 70       		.sleb128 -16
 1625 058f 18       		.uleb128 0x18
 1626 0590 71010000 		.4byte	.LASF63
 1627 0594 02       		.byte	0x2
 1628 0595 20       		.byte	0x20
 1629 0596 7A000000 		.4byte	0x7a
 1630 059a 02       		.byte	0x2
 1631 059b 91       		.byte	0x91
 1632 059c 6C       		.sleb128 -20
 1633 059d 00       		.byte	0
 1634 059e 1C       		.uleb128 0x1c
 1635 059f 1F030000 		.4byte	.LASF71
 1636 05a3 01       		.byte	0x1
 1637 05a4 51       		.byte	0x51
 1638 05a5 01       		.byte	0x1
 1639 05a6 7A000000 		.4byte	0x7a
 1640 05aa 5A000000 		.4byte	.LFB5
 1641 05ae 70000000 		.4byte	.LFE5
 1642 05b2 14030000 		.4byte	.LLST2
 1643 05b6 01       		.byte	0x1
 1644 05b7 CA050000 		.4byte	0x5ca
 1645 05bb 18       		.uleb128 0x18
 1646 05bc 98020000 		.4byte	.LASF72
 1647 05c0 01       		.byte	0x1
 1648 05c1 51       		.byte	0x51
 1649 05c2 E9000000 		.4byte	0xe9
 1650 05c6 02       		.byte	0x2
 1651 05c7 91       		.byte	0x91
 1652 05c8 74       		.sleb128 -12
 1653 05c9 00       		.byte	0
 1654 05ca 1D       		.uleb128 0x1d
 1655 05cb 5E020000 		.4byte	.LASF73
 1656 05cf 01       		.byte	0x1
 1657 05d0 33       		.byte	0x33
 1658 05d1 01       		.byte	0x1
 1659 05d2 30000000 		.4byte	.LFB3
 1660 05d6 5A000000 		.4byte	.LFE3
 1661 05da 70030000 		.4byte	.LLST1
 1662 05de 01       		.byte	0x1
 1663 05df 0E060000 		.4byte	0x60e
 1664 05e3 18       		.uleb128 0x18
ARM GAS  G:\Users\Jaxb\AppData\Local\Temp\ccnDzD0x.s 			page 35


 1665 05e4 98020000 		.4byte	.LASF72
 1666 05e8 01       		.byte	0x1
 1667 05e9 33       		.byte	0x33
 1668 05ea E9000000 		.4byte	0xe9
 1669 05ee 02       		.byte	0x2
 1670 05ef 91       		.byte	0x91
 1671 05f0 74       		.sleb128 -12
 1672 05f1 18       		.uleb128 0x18
 1673 05f2 71010000 		.4byte	.LASF63
 1674 05f6 01       		.byte	0x1
 1675 05f7 33       		.byte	0x33
 1676 05f8 7A000000 		.4byte	0x7a
 1677 05fc 02       		.byte	0x2
 1678 05fd 91       		.byte	0x91
 1679 05fe 70       		.sleb128 -16
 1680 05ff 18       		.uleb128 0x18
 1681 0600 FF000000 		.4byte	.LASF74
 1682 0604 01       		.byte	0x1
 1683 0605 33       		.byte	0x33
 1684 0606 0E060000 		.4byte	0x60e
 1685 060a 02       		.byte	0x2
 1686 060b 91       		.byte	0x91
 1687 060c 6C       		.sleb128 -20
 1688 060d 00       		.byte	0
 1689 060e 0C       		.uleb128 0xc
 1690 060f 04       		.byte	0x4
 1691 0610 78000000 		.4byte	0x78
 1692 0614 1E       		.uleb128 0x1e
 1693 0615 43020000 		.4byte	.LASF83
 1694 0619 01       		.byte	0x1
 1695 061a 1E       		.byte	0x1e
 1696 061b 01       		.byte	0x1
 1697 061c 00000000 		.4byte	.LFB0
 1698 0620 30000000 		.4byte	.LFE0
 1699 0624 CC030000 		.4byte	.LLST0
 1700 0628 01       		.byte	0x1
 1701 0629 18       		.uleb128 0x18
 1702 062a 98020000 		.4byte	.LASF72
 1703 062e 01       		.byte	0x1
 1704 062f 1E       		.byte	0x1e
 1705 0630 E9000000 		.4byte	0xe9
 1706 0634 02       		.byte	0x2
 1707 0635 91       		.byte	0x91
 1708 0636 74       		.sleb128 -12
 1709 0637 18       		.uleb128 0x18
 1710 0638 71010000 		.4byte	.LASF63
 1711 063c 01       		.byte	0x1
 1712 063d 1E       		.byte	0x1e
 1713 063e 7A000000 		.4byte	0x7a
 1714 0642 02       		.byte	0x2
 1715 0643 91       		.byte	0x91
 1716 0644 70       		.sleb128 -16
 1717 0645 18       		.uleb128 0x18
 1718 0646 97000000 		.4byte	.LASF70
 1719 064a 01       		.byte	0x1
 1720 064b 1E       		.byte	0x1e
 1721 064c 78000000 		.4byte	0x78
ARM GAS  G:\Users\Jaxb\AppData\Local\Temp\ccnDzD0x.s 			page 36


 1722 0650 02       		.byte	0x2
 1723 0651 91       		.byte	0x91
 1724 0652 6C       		.sleb128 -20
 1725 0653 00       		.byte	0
 1726 0654 00       		.byte	0
 1727              		.section	.debug_abbrev,"",%progbits
 1728              	.Ldebug_abbrev0:
 1729 0000 01       		.uleb128 0x1
 1730 0001 11       		.uleb128 0x11
 1731 0002 01       		.byte	0x1
 1732 0003 25       		.uleb128 0x25
 1733 0004 0E       		.uleb128 0xe
 1734 0005 13       		.uleb128 0x13
 1735 0006 0B       		.uleb128 0xb
 1736 0007 03       		.uleb128 0x3
 1737 0008 0E       		.uleb128 0xe
 1738 0009 1B       		.uleb128 0x1b
 1739 000a 0E       		.uleb128 0xe
 1740 000b 11       		.uleb128 0x11
 1741 000c 01       		.uleb128 0x1
 1742 000d 12       		.uleb128 0x12
 1743 000e 01       		.uleb128 0x1
 1744 000f 10       		.uleb128 0x10
 1745 0010 06       		.uleb128 0x6
 1746 0011 00       		.byte	0
 1747 0012 00       		.byte	0
 1748 0013 02       		.uleb128 0x2
 1749 0014 13       		.uleb128 0x13
 1750 0015 01       		.byte	0x1
 1751 0016 03       		.uleb128 0x3
 1752 0017 0E       		.uleb128 0xe
 1753 0018 0B       		.uleb128 0xb
 1754 0019 0B       		.uleb128 0xb
 1755 001a 3A       		.uleb128 0x3a
 1756 001b 0B       		.uleb128 0xb
 1757 001c 3B       		.uleb128 0x3b
 1758 001d 0B       		.uleb128 0xb
 1759 001e 01       		.uleb128 0x1
 1760 001f 13       		.uleb128 0x13
 1761 0020 00       		.byte	0
 1762 0021 00       		.byte	0
 1763 0022 03       		.uleb128 0x3
 1764 0023 0D       		.uleb128 0xd
 1765 0024 00       		.byte	0
 1766 0025 03       		.uleb128 0x3
 1767 0026 0E       		.uleb128 0xe
 1768 0027 3A       		.uleb128 0x3a
 1769 0028 0B       		.uleb128 0xb
 1770 0029 3B       		.uleb128 0x3b
 1771 002a 0B       		.uleb128 0xb
 1772 002b 49       		.uleb128 0x49
 1773 002c 13       		.uleb128 0x13
 1774 002d 38       		.uleb128 0x38
 1775 002e 0A       		.uleb128 0xa
 1776 002f 00       		.byte	0
 1777 0030 00       		.byte	0
 1778 0031 04       		.uleb128 0x4
ARM GAS  G:\Users\Jaxb\AppData\Local\Temp\ccnDzD0x.s 			page 37


 1779 0032 0F       		.uleb128 0xf
 1780 0033 00       		.byte	0
 1781 0034 0B       		.uleb128 0xb
 1782 0035 0B       		.uleb128 0xb
 1783 0036 00       		.byte	0
 1784 0037 00       		.byte	0
 1785 0038 05       		.uleb128 0x5
 1786 0039 24       		.uleb128 0x24
 1787 003a 00       		.byte	0
 1788 003b 0B       		.uleb128 0xb
 1789 003c 0B       		.uleb128 0xb
 1790 003d 3E       		.uleb128 0x3e
 1791 003e 0B       		.uleb128 0xb
 1792 003f 03       		.uleb128 0x3
 1793 0040 0E       		.uleb128 0xe
 1794 0041 00       		.byte	0
 1795 0042 00       		.byte	0
 1796 0043 06       		.uleb128 0x6
 1797 0044 16       		.uleb128 0x16
 1798 0045 00       		.byte	0
 1799 0046 03       		.uleb128 0x3
 1800 0047 0E       		.uleb128 0xe
 1801 0048 3A       		.uleb128 0x3a
 1802 0049 0B       		.uleb128 0xb
 1803 004a 3B       		.uleb128 0x3b
 1804 004b 0B       		.uleb128 0xb
 1805 004c 49       		.uleb128 0x49
 1806 004d 13       		.uleb128 0x13
 1807 004e 00       		.byte	0
 1808 004f 00       		.byte	0
 1809 0050 07       		.uleb128 0x7
 1810 0051 0D       		.uleb128 0xd
 1811 0052 00       		.byte	0
 1812 0053 03       		.uleb128 0x3
 1813 0054 08       		.uleb128 0x8
 1814 0055 3A       		.uleb128 0x3a
 1815 0056 0B       		.uleb128 0xb
 1816 0057 3B       		.uleb128 0x3b
 1817 0058 0B       		.uleb128 0xb
 1818 0059 49       		.uleb128 0x49
 1819 005a 13       		.uleb128 0x13
 1820 005b 38       		.uleb128 0x38
 1821 005c 0A       		.uleb128 0xa
 1822 005d 00       		.byte	0
 1823 005e 00       		.byte	0
 1824 005f 08       		.uleb128 0x8
 1825 0060 15       		.uleb128 0x15
 1826 0061 01       		.byte	0x1
 1827 0062 27       		.uleb128 0x27
 1828 0063 0C       		.uleb128 0xc
 1829 0064 49       		.uleb128 0x49
 1830 0065 13       		.uleb128 0x13
 1831 0066 01       		.uleb128 0x1
 1832 0067 13       		.uleb128 0x13
 1833 0068 00       		.byte	0
 1834 0069 00       		.byte	0
 1835 006a 09       		.uleb128 0x9
ARM GAS  G:\Users\Jaxb\AppData\Local\Temp\ccnDzD0x.s 			page 38


 1836 006b 05       		.uleb128 0x5
 1837 006c 00       		.byte	0
 1838 006d 49       		.uleb128 0x49
 1839 006e 13       		.uleb128 0x13
 1840 006f 00       		.byte	0
 1841 0070 00       		.byte	0
 1842 0071 0A       		.uleb128 0xa
 1843 0072 24       		.uleb128 0x24
 1844 0073 00       		.byte	0
 1845 0074 0B       		.uleb128 0xb
 1846 0075 0B       		.uleb128 0xb
 1847 0076 3E       		.uleb128 0x3e
 1848 0077 0B       		.uleb128 0xb
 1849 0078 03       		.uleb128 0x3
 1850 0079 08       		.uleb128 0x8
 1851 007a 00       		.byte	0
 1852 007b 00       		.byte	0
 1853 007c 0B       		.uleb128 0xb
 1854 007d 35       		.uleb128 0x35
 1855 007e 00       		.byte	0
 1856 007f 49       		.uleb128 0x49
 1857 0080 13       		.uleb128 0x13
 1858 0081 00       		.byte	0
 1859 0082 00       		.byte	0
 1860 0083 0C       		.uleb128 0xc
 1861 0084 0F       		.uleb128 0xf
 1862 0085 00       		.byte	0
 1863 0086 0B       		.uleb128 0xb
 1864 0087 0B       		.uleb128 0xb
 1865 0088 49       		.uleb128 0x49
 1866 0089 13       		.uleb128 0x13
 1867 008a 00       		.byte	0
 1868 008b 00       		.byte	0
 1869 008c 0D       		.uleb128 0xd
 1870 008d 15       		.uleb128 0x15
 1871 008e 01       		.byte	0x1
 1872 008f 27       		.uleb128 0x27
 1873 0090 0C       		.uleb128 0xc
 1874 0091 01       		.uleb128 0x1
 1875 0092 13       		.uleb128 0x13
 1876 0093 00       		.byte	0
 1877 0094 00       		.byte	0
 1878 0095 0E       		.uleb128 0xe
 1879 0096 04       		.uleb128 0x4
 1880 0097 01       		.byte	0x1
 1881 0098 03       		.uleb128 0x3
 1882 0099 0E       		.uleb128 0xe
 1883 009a 3E       		.uleb128 0x3e
 1884 009b 0B       		.uleb128 0xb
 1885 009c 0B       		.uleb128 0xb
 1886 009d 0B       		.uleb128 0xb
 1887 009e 49       		.uleb128 0x49
 1888 009f 13       		.uleb128 0x13
 1889 00a0 3A       		.uleb128 0x3a
 1890 00a1 0B       		.uleb128 0xb
 1891 00a2 3B       		.uleb128 0x3b
 1892 00a3 0B       		.uleb128 0xb
ARM GAS  G:\Users\Jaxb\AppData\Local\Temp\ccnDzD0x.s 			page 39


 1893 00a4 01       		.uleb128 0x1
 1894 00a5 13       		.uleb128 0x13
 1895 00a6 00       		.byte	0
 1896 00a7 00       		.byte	0
 1897 00a8 0F       		.uleb128 0xf
 1898 00a9 28       		.uleb128 0x28
 1899 00aa 00       		.byte	0
 1900 00ab 03       		.uleb128 0x3
 1901 00ac 0E       		.uleb128 0xe
 1902 00ad 1C       		.uleb128 0x1c
 1903 00ae 0B       		.uleb128 0xb
 1904 00af 00       		.byte	0
 1905 00b0 00       		.byte	0
 1906 00b1 10       		.uleb128 0x10
 1907 00b2 34       		.uleb128 0x34
 1908 00b3 00       		.byte	0
 1909 00b4 03       		.uleb128 0x3
 1910 00b5 0E       		.uleb128 0xe
 1911 00b6 3A       		.uleb128 0x3a
 1912 00b7 0B       		.uleb128 0xb
 1913 00b8 3B       		.uleb128 0x3b
 1914 00b9 0B       		.uleb128 0xb
 1915 00ba 49       		.uleb128 0x49
 1916 00bb 13       		.uleb128 0x13
 1917 00bc 3F       		.uleb128 0x3f
 1918 00bd 0C       		.uleb128 0xc
 1919 00be 3C       		.uleb128 0x3c
 1920 00bf 0C       		.uleb128 0xc
 1921 00c0 00       		.byte	0
 1922 00c1 00       		.byte	0
 1923 00c2 11       		.uleb128 0x11
 1924 00c3 13       		.uleb128 0x13
 1925 00c4 00       		.byte	0
 1926 00c5 03       		.uleb128 0x3
 1927 00c6 0E       		.uleb128 0xe
 1928 00c7 3C       		.uleb128 0x3c
 1929 00c8 0C       		.uleb128 0xc
 1930 00c9 00       		.byte	0
 1931 00ca 00       		.byte	0
 1932 00cb 12       		.uleb128 0x12
 1933 00cc 16       		.uleb128 0x16
 1934 00cd 00       		.byte	0
 1935 00ce 03       		.uleb128 0x3
 1936 00cf 08       		.uleb128 0x8
 1937 00d0 3A       		.uleb128 0x3a
 1938 00d1 0B       		.uleb128 0xb
 1939 00d2 3B       		.uleb128 0x3b
 1940 00d3 0B       		.uleb128 0xb
 1941 00d4 49       		.uleb128 0x49
 1942 00d5 13       		.uleb128 0x13
 1943 00d6 00       		.byte	0
 1944 00d7 00       		.byte	0
 1945 00d8 13       		.uleb128 0x13
 1946 00d9 26       		.uleb128 0x26
 1947 00da 00       		.byte	0
 1948 00db 49       		.uleb128 0x49
 1949 00dc 13       		.uleb128 0x13
ARM GAS  G:\Users\Jaxb\AppData\Local\Temp\ccnDzD0x.s 			page 40


 1950 00dd 00       		.byte	0
 1951 00de 00       		.byte	0
 1952 00df 14       		.uleb128 0x14
 1953 00e0 34       		.uleb128 0x34
 1954 00e1 00       		.byte	0
 1955 00e2 03       		.uleb128 0x3
 1956 00e3 0E       		.uleb128 0xe
 1957 00e4 3A       		.uleb128 0x3a
 1958 00e5 0B       		.uleb128 0xb
 1959 00e6 3B       		.uleb128 0x3b
 1960 00e7 0B       		.uleb128 0xb
 1961 00e8 49       		.uleb128 0x49
 1962 00e9 13       		.uleb128 0x13
 1963 00ea 02       		.uleb128 0x2
 1964 00eb 0A       		.uleb128 0xa
 1965 00ec 00       		.byte	0
 1966 00ed 00       		.byte	0
 1967 00ee 15       		.uleb128 0x15
 1968 00ef 2E       		.uleb128 0x2e
 1969 00f0 01       		.byte	0x1
 1970 00f1 3F       		.uleb128 0x3f
 1971 00f2 0C       		.uleb128 0xc
 1972 00f3 03       		.uleb128 0x3
 1973 00f4 0E       		.uleb128 0xe
 1974 00f5 3A       		.uleb128 0x3a
 1975 00f6 0B       		.uleb128 0xb
 1976 00f7 3B       		.uleb128 0x3b
 1977 00f8 0B       		.uleb128 0xb
 1978 00f9 27       		.uleb128 0x27
 1979 00fa 0C       		.uleb128 0xc
 1980 00fb 11       		.uleb128 0x11
 1981 00fc 01       		.uleb128 0x1
 1982 00fd 12       		.uleb128 0x12
 1983 00fe 01       		.uleb128 0x1
 1984 00ff 40       		.uleb128 0x40
 1985 0100 06       		.uleb128 0x6
 1986 0101 9642     		.uleb128 0x2116
 1987 0103 0C       		.uleb128 0xc
 1988 0104 01       		.uleb128 0x1
 1989 0105 13       		.uleb128 0x13
 1990 0106 00       		.byte	0
 1991 0107 00       		.byte	0
 1992 0108 16       		.uleb128 0x16
 1993 0109 34       		.uleb128 0x34
 1994 010a 00       		.byte	0
 1995 010b 03       		.uleb128 0x3
 1996 010c 08       		.uleb128 0x8
 1997 010d 3A       		.uleb128 0x3a
 1998 010e 0B       		.uleb128 0xb
 1999 010f 3B       		.uleb128 0x3b
 2000 0110 0B       		.uleb128 0xb
 2001 0111 49       		.uleb128 0x49
 2002 0112 13       		.uleb128 0x13
 2003 0113 02       		.uleb128 0x2
 2004 0114 0A       		.uleb128 0xa
 2005 0115 00       		.byte	0
 2006 0116 00       		.byte	0
ARM GAS  G:\Users\Jaxb\AppData\Local\Temp\ccnDzD0x.s 			page 41


 2007 0117 17       		.uleb128 0x17
 2008 0118 2E       		.uleb128 0x2e
 2009 0119 01       		.byte	0x1
 2010 011a 3F       		.uleb128 0x3f
 2011 011b 0C       		.uleb128 0xc
 2012 011c 03       		.uleb128 0x3
 2013 011d 0E       		.uleb128 0xe
 2014 011e 3A       		.uleb128 0x3a
 2015 011f 0B       		.uleb128 0xb
 2016 0120 3B       		.uleb128 0x3b
 2017 0121 0B       		.uleb128 0xb
 2018 0122 27       		.uleb128 0x27
 2019 0123 0C       		.uleb128 0xc
 2020 0124 49       		.uleb128 0x49
 2021 0125 13       		.uleb128 0x13
 2022 0126 11       		.uleb128 0x11
 2023 0127 01       		.uleb128 0x1
 2024 0128 12       		.uleb128 0x12
 2025 0129 01       		.uleb128 0x1
 2026 012a 40       		.uleb128 0x40
 2027 012b 06       		.uleb128 0x6
 2028 012c 9642     		.uleb128 0x2116
 2029 012e 0C       		.uleb128 0xc
 2030 012f 01       		.uleb128 0x1
 2031 0130 13       		.uleb128 0x13
 2032 0131 00       		.byte	0
 2033 0132 00       		.byte	0
 2034 0133 18       		.uleb128 0x18
 2035 0134 05       		.uleb128 0x5
 2036 0135 00       		.byte	0
 2037 0136 03       		.uleb128 0x3
 2038 0137 0E       		.uleb128 0xe
 2039 0138 3A       		.uleb128 0x3a
 2040 0139 0B       		.uleb128 0xb
 2041 013a 3B       		.uleb128 0x3b
 2042 013b 0B       		.uleb128 0xb
 2043 013c 49       		.uleb128 0x49
 2044 013d 13       		.uleb128 0x13
 2045 013e 02       		.uleb128 0x2
 2046 013f 0A       		.uleb128 0xa
 2047 0140 00       		.byte	0
 2048 0141 00       		.byte	0
 2049 0142 19       		.uleb128 0x19
 2050 0143 2E       		.uleb128 0x2e
 2051 0144 00       		.byte	0
 2052 0145 3F       		.uleb128 0x3f
 2053 0146 0C       		.uleb128 0xc
 2054 0147 03       		.uleb128 0x3
 2055 0148 0E       		.uleb128 0xe
 2056 0149 3A       		.uleb128 0x3a
 2057 014a 0B       		.uleb128 0xb
 2058 014b 3B       		.uleb128 0x3b
 2059 014c 0B       		.uleb128 0xb
 2060 014d 27       		.uleb128 0x27
 2061 014e 0C       		.uleb128 0xc
 2062 014f 11       		.uleb128 0x11
 2063 0150 01       		.uleb128 0x1
ARM GAS  G:\Users\Jaxb\AppData\Local\Temp\ccnDzD0x.s 			page 42


 2064 0151 12       		.uleb128 0x12
 2065 0152 01       		.uleb128 0x1
 2066 0153 40       		.uleb128 0x40
 2067 0154 06       		.uleb128 0x6
 2068 0155 9642     		.uleb128 0x2116
 2069 0157 0C       		.uleb128 0xc
 2070 0158 00       		.byte	0
 2071 0159 00       		.byte	0
 2072 015a 1A       		.uleb128 0x1a
 2073 015b 2E       		.uleb128 0x2e
 2074 015c 01       		.byte	0x1
 2075 015d 03       		.uleb128 0x3
 2076 015e 0E       		.uleb128 0xe
 2077 015f 3A       		.uleb128 0x3a
 2078 0160 0B       		.uleb128 0xb
 2079 0161 3B       		.uleb128 0x3b
 2080 0162 0B       		.uleb128 0xb
 2081 0163 27       		.uleb128 0x27
 2082 0164 0C       		.uleb128 0xc
 2083 0165 11       		.uleb128 0x11
 2084 0166 01       		.uleb128 0x1
 2085 0167 12       		.uleb128 0x12
 2086 0168 01       		.uleb128 0x1
 2087 0169 40       		.uleb128 0x40
 2088 016a 06       		.uleb128 0x6
 2089 016b 9642     		.uleb128 0x2116
 2090 016d 0C       		.uleb128 0xc
 2091 016e 01       		.uleb128 0x1
 2092 016f 13       		.uleb128 0x13
 2093 0170 00       		.byte	0
 2094 0171 00       		.byte	0
 2095 0172 1B       		.uleb128 0x1b
 2096 0173 2E       		.uleb128 0x2e
 2097 0174 01       		.byte	0x1
 2098 0175 03       		.uleb128 0x3
 2099 0176 0E       		.uleb128 0xe
 2100 0177 3A       		.uleb128 0x3a
 2101 0178 0B       		.uleb128 0xb
 2102 0179 3B       		.uleb128 0x3b
 2103 017a 0B       		.uleb128 0xb
 2104 017b 27       		.uleb128 0x27
 2105 017c 0C       		.uleb128 0xc
 2106 017d 49       		.uleb128 0x49
 2107 017e 13       		.uleb128 0x13
 2108 017f 11       		.uleb128 0x11
 2109 0180 01       		.uleb128 0x1
 2110 0181 12       		.uleb128 0x12
 2111 0182 01       		.uleb128 0x1
 2112 0183 40       		.uleb128 0x40
 2113 0184 06       		.uleb128 0x6
 2114 0185 9642     		.uleb128 0x2116
 2115 0187 0C       		.uleb128 0xc
 2116 0188 01       		.uleb128 0x1
 2117 0189 13       		.uleb128 0x13
 2118 018a 00       		.byte	0
 2119 018b 00       		.byte	0
 2120 018c 1C       		.uleb128 0x1c
ARM GAS  G:\Users\Jaxb\AppData\Local\Temp\ccnDzD0x.s 			page 43


 2121 018d 2E       		.uleb128 0x2e
 2122 018e 01       		.byte	0x1
 2123 018f 03       		.uleb128 0x3
 2124 0190 0E       		.uleb128 0xe
 2125 0191 3A       		.uleb128 0x3a
 2126 0192 0B       		.uleb128 0xb
 2127 0193 3B       		.uleb128 0x3b
 2128 0194 0B       		.uleb128 0xb
 2129 0195 27       		.uleb128 0x27
 2130 0196 0C       		.uleb128 0xc
 2131 0197 49       		.uleb128 0x49
 2132 0198 13       		.uleb128 0x13
 2133 0199 11       		.uleb128 0x11
 2134 019a 01       		.uleb128 0x1
 2135 019b 12       		.uleb128 0x12
 2136 019c 01       		.uleb128 0x1
 2137 019d 40       		.uleb128 0x40
 2138 019e 06       		.uleb128 0x6
 2139 019f 9742     		.uleb128 0x2117
 2140 01a1 0C       		.uleb128 0xc
 2141 01a2 01       		.uleb128 0x1
 2142 01a3 13       		.uleb128 0x13
 2143 01a4 00       		.byte	0
 2144 01a5 00       		.byte	0
 2145 01a6 1D       		.uleb128 0x1d
 2146 01a7 2E       		.uleb128 0x2e
 2147 01a8 01       		.byte	0x1
 2148 01a9 03       		.uleb128 0x3
 2149 01aa 0E       		.uleb128 0xe
 2150 01ab 3A       		.uleb128 0x3a
 2151 01ac 0B       		.uleb128 0xb
 2152 01ad 3B       		.uleb128 0x3b
 2153 01ae 0B       		.uleb128 0xb
 2154 01af 27       		.uleb128 0x27
 2155 01b0 0C       		.uleb128 0xc
 2156 01b1 11       		.uleb128 0x11
 2157 01b2 01       		.uleb128 0x1
 2158 01b3 12       		.uleb128 0x12
 2159 01b4 01       		.uleb128 0x1
 2160 01b5 40       		.uleb128 0x40
 2161 01b6 06       		.uleb128 0x6
 2162 01b7 9742     		.uleb128 0x2117
 2163 01b9 0C       		.uleb128 0xc
 2164 01ba 01       		.uleb128 0x1
 2165 01bb 13       		.uleb128 0x13
 2166 01bc 00       		.byte	0
 2167 01bd 00       		.byte	0
 2168 01be 1E       		.uleb128 0x1e
 2169 01bf 2E       		.uleb128 0x2e
 2170 01c0 01       		.byte	0x1
 2171 01c1 03       		.uleb128 0x3
 2172 01c2 0E       		.uleb128 0xe
 2173 01c3 3A       		.uleb128 0x3a
 2174 01c4 0B       		.uleb128 0xb
 2175 01c5 3B       		.uleb128 0x3b
 2176 01c6 0B       		.uleb128 0xb
 2177 01c7 27       		.uleb128 0x27
ARM GAS  G:\Users\Jaxb\AppData\Local\Temp\ccnDzD0x.s 			page 44


 2178 01c8 0C       		.uleb128 0xc
 2179 01c9 11       		.uleb128 0x11
 2180 01ca 01       		.uleb128 0x1
 2181 01cb 12       		.uleb128 0x12
 2182 01cc 01       		.uleb128 0x1
 2183 01cd 40       		.uleb128 0x40
 2184 01ce 06       		.uleb128 0x6
 2185 01cf 9642     		.uleb128 0x2116
 2186 01d1 0C       		.uleb128 0xc
 2187 01d2 00       		.byte	0
 2188 01d3 00       		.byte	0
 2189 01d4 00       		.byte	0
 2190              		.section	.debug_loc,"",%progbits
 2191              	.Ldebug_loc0:
 2192              	.LLST12:
 2193 0000 C0020000 		.4byte	.LFB27-.Ltext0
 2194 0004 C4020000 		.4byte	.LCFI61-.Ltext0
 2195 0008 0200     		.2byte	0x2
 2196 000a 7D       		.byte	0x7d
 2197 000b 00       		.sleb128 0
 2198 000c C4020000 		.4byte	.LCFI61-.Ltext0
 2199 0010 C6020000 		.4byte	.LCFI62-.Ltext0
 2200 0014 0200     		.2byte	0x2
 2201 0016 7D       		.byte	0x7d
 2202 0017 10       		.sleb128 16
 2203 0018 C6020000 		.4byte	.LCFI62-.Ltext0
 2204 001c C8020000 		.4byte	.LCFI63-.Ltext0
 2205 0020 0200     		.2byte	0x2
 2206 0022 7D       		.byte	0x7d
 2207 0023 20       		.sleb128 32
 2208 0024 C8020000 		.4byte	.LCFI63-.Ltext0
 2209 0028 4C030000 		.4byte	.LCFI64-.Ltext0
 2210 002c 0200     		.2byte	0x2
 2211 002e 77       		.byte	0x77
 2212 002f 20       		.sleb128 32
 2213 0030 4C030000 		.4byte	.LCFI64-.Ltext0
 2214 0034 4E030000 		.4byte	.LCFI65-.Ltext0
 2215 0038 0200     		.2byte	0x2
 2216 003a 77       		.byte	0x77
 2217 003b 10       		.sleb128 16
 2218 003c 4E030000 		.4byte	.LCFI65-.Ltext0
 2219 0040 64030000 		.4byte	.LFE27-.Ltext0
 2220 0044 0200     		.2byte	0x2
 2221 0046 7D       		.byte	0x7d
 2222 0047 10       		.sleb128 16
 2223 0048 00000000 		.4byte	0
 2224 004c 00000000 		.4byte	0
 2225              	.LLST11:
 2226 0050 94020000 		.4byte	.LFB26-.Ltext0
 2227 0054 96020000 		.4byte	.LCFI56-.Ltext0
 2228 0058 0200     		.2byte	0x2
 2229 005a 7D       		.byte	0x7d
 2230 005b 00       		.sleb128 0
 2231 005c 96020000 		.4byte	.LCFI56-.Ltext0
 2232 0060 98020000 		.4byte	.LCFI57-.Ltext0
 2233 0064 0200     		.2byte	0x2
 2234 0066 7D       		.byte	0x7d
ARM GAS  G:\Users\Jaxb\AppData\Local\Temp\ccnDzD0x.s 			page 45


 2235 0067 08       		.sleb128 8
 2236 0068 98020000 		.4byte	.LCFI57-.Ltext0
 2237 006c 9A020000 		.4byte	.LCFI58-.Ltext0
 2238 0070 0200     		.2byte	0x2
 2239 0072 7D       		.byte	0x7d
 2240 0073 10       		.sleb128 16
 2241 0074 9A020000 		.4byte	.LCFI58-.Ltext0
 2242 0078 B6020000 		.4byte	.LCFI59-.Ltext0
 2243 007c 0200     		.2byte	0x2
 2244 007e 77       		.byte	0x77
 2245 007f 10       		.sleb128 16
 2246 0080 B6020000 		.4byte	.LCFI59-.Ltext0
 2247 0084 B8020000 		.4byte	.LCFI60-.Ltext0
 2248 0088 0200     		.2byte	0x2
 2249 008a 77       		.byte	0x77
 2250 008b 08       		.sleb128 8
 2251 008c B8020000 		.4byte	.LCFI60-.Ltext0
 2252 0090 C0020000 		.4byte	.LFE26-.Ltext0
 2253 0094 0200     		.2byte	0x2
 2254 0096 7D       		.byte	0x7d
 2255 0097 08       		.sleb128 8
 2256 0098 00000000 		.4byte	0
 2257 009c 00000000 		.4byte	0
 2258              	.LLST10:
 2259 00a0 68020000 		.4byte	.LFB25-.Ltext0
 2260 00a4 6A020000 		.4byte	.LCFI51-.Ltext0
 2261 00a8 0200     		.2byte	0x2
 2262 00aa 7D       		.byte	0x7d
 2263 00ab 00       		.sleb128 0
 2264 00ac 6A020000 		.4byte	.LCFI51-.Ltext0
 2265 00b0 6C020000 		.4byte	.LCFI52-.Ltext0
 2266 00b4 0200     		.2byte	0x2
 2267 00b6 7D       		.byte	0x7d
 2268 00b7 08       		.sleb128 8
 2269 00b8 6C020000 		.4byte	.LCFI52-.Ltext0
 2270 00bc 6E020000 		.4byte	.LCFI53-.Ltext0
 2271 00c0 0200     		.2byte	0x2
 2272 00c2 7D       		.byte	0x7d
 2273 00c3 10       		.sleb128 16
 2274 00c4 6E020000 		.4byte	.LCFI53-.Ltext0
 2275 00c8 8A020000 		.4byte	.LCFI54-.Ltext0
 2276 00cc 0200     		.2byte	0x2
 2277 00ce 77       		.byte	0x77
 2278 00cf 10       		.sleb128 16
 2279 00d0 8A020000 		.4byte	.LCFI54-.Ltext0
 2280 00d4 8C020000 		.4byte	.LCFI55-.Ltext0
 2281 00d8 0200     		.2byte	0x2
 2282 00da 77       		.byte	0x77
 2283 00db 08       		.sleb128 8
 2284 00dc 8C020000 		.4byte	.LCFI55-.Ltext0
 2285 00e0 94020000 		.4byte	.LFE25-.Ltext0
 2286 00e4 0200     		.2byte	0x2
 2287 00e6 7D       		.byte	0x7d
 2288 00e7 08       		.sleb128 8
 2289 00e8 00000000 		.4byte	0
 2290 00ec 00000000 		.4byte	0
 2291              	.LLST9:
ARM GAS  G:\Users\Jaxb\AppData\Local\Temp\ccnDzD0x.s 			page 46


 2292 00f0 E8010000 		.4byte	.LFB24-.Ltext0
 2293 00f4 EA010000 		.4byte	.LCFI46-.Ltext0
 2294 00f8 0200     		.2byte	0x2
 2295 00fa 7D       		.byte	0x7d
 2296 00fb 00       		.sleb128 0
 2297 00fc EA010000 		.4byte	.LCFI46-.Ltext0
 2298 0100 EC010000 		.4byte	.LCFI47-.Ltext0
 2299 0104 0200     		.2byte	0x2
 2300 0106 7D       		.byte	0x7d
 2301 0107 08       		.sleb128 8
 2302 0108 EC010000 		.4byte	.LCFI47-.Ltext0
 2303 010c EE010000 		.4byte	.LCFI48-.Ltext0
 2304 0110 0200     		.2byte	0x2
 2305 0112 7D       		.byte	0x7d
 2306 0113 20       		.sleb128 32
 2307 0114 EE010000 		.4byte	.LCFI48-.Ltext0
 2308 0118 5C020000 		.4byte	.LCFI49-.Ltext0
 2309 011c 0200     		.2byte	0x2
 2310 011e 77       		.byte	0x77
 2311 011f 20       		.sleb128 32
 2312 0120 5C020000 		.4byte	.LCFI49-.Ltext0
 2313 0124 5E020000 		.4byte	.LCFI50-.Ltext0
 2314 0128 0200     		.2byte	0x2
 2315 012a 77       		.byte	0x77
 2316 012b 08       		.sleb128 8
 2317 012c 5E020000 		.4byte	.LCFI50-.Ltext0
 2318 0130 68020000 		.4byte	.LFE24-.Ltext0
 2319 0134 0200     		.2byte	0x2
 2320 0136 7D       		.byte	0x7d
 2321 0137 08       		.sleb128 8
 2322 0138 00000000 		.4byte	0
 2323 013c 00000000 		.4byte	0
 2324              	.LLST8:
 2325 0140 B4010000 		.4byte	.LFB23-.Ltext0
 2326 0144 B6010000 		.4byte	.LCFI41-.Ltext0
 2327 0148 0200     		.2byte	0x2
 2328 014a 7D       		.byte	0x7d
 2329 014b 00       		.sleb128 0
 2330 014c B6010000 		.4byte	.LCFI41-.Ltext0
 2331 0150 B8010000 		.4byte	.LCFI42-.Ltext0
 2332 0154 0200     		.2byte	0x2
 2333 0156 7D       		.byte	0x7d
 2334 0157 08       		.sleb128 8
 2335 0158 B8010000 		.4byte	.LCFI42-.Ltext0
 2336 015c BA010000 		.4byte	.LCFI43-.Ltext0
 2337 0160 0200     		.2byte	0x2
 2338 0162 7D       		.byte	0x7d
 2339 0163 10       		.sleb128 16
 2340 0164 BA010000 		.4byte	.LCFI43-.Ltext0
 2341 0168 DA010000 		.4byte	.LCFI44-.Ltext0
 2342 016c 0200     		.2byte	0x2
 2343 016e 77       		.byte	0x77
 2344 016f 10       		.sleb128 16
 2345 0170 DA010000 		.4byte	.LCFI44-.Ltext0
 2346 0174 DC010000 		.4byte	.LCFI45-.Ltext0
 2347 0178 0200     		.2byte	0x2
 2348 017a 77       		.byte	0x77
ARM GAS  G:\Users\Jaxb\AppData\Local\Temp\ccnDzD0x.s 			page 47


 2349 017b 08       		.sleb128 8
 2350 017c DC010000 		.4byte	.LCFI45-.Ltext0
 2351 0180 E8010000 		.4byte	.LFE23-.Ltext0
 2352 0184 0200     		.2byte	0x2
 2353 0186 7D       		.byte	0x7d
 2354 0187 08       		.sleb128 8
 2355 0188 00000000 		.4byte	0
 2356 018c 00000000 		.4byte	0
 2357              	.LLST7:
 2358 0190 78010000 		.4byte	.LFB22-.Ltext0
 2359 0194 7A010000 		.4byte	.LCFI37-.Ltext0
 2360 0198 0200     		.2byte	0x2
 2361 019a 7D       		.byte	0x7d
 2362 019b 00       		.sleb128 0
 2363 019c 7A010000 		.4byte	.LCFI37-.Ltext0
 2364 01a0 7C010000 		.4byte	.LCFI38-.Ltext0
 2365 01a4 0200     		.2byte	0x2
 2366 01a6 7D       		.byte	0x7d
 2367 01a7 08       		.sleb128 8
 2368 01a8 7C010000 		.4byte	.LCFI38-.Ltext0
 2369 01ac 7E010000 		.4byte	.LCFI39-.Ltext0
 2370 01b0 0200     		.2byte	0x2
 2371 01b2 7D       		.byte	0x7d
 2372 01b3 10       		.sleb128 16
 2373 01b4 7E010000 		.4byte	.LCFI39-.Ltext0
 2374 01b8 A0010000 		.4byte	.LCFI40-.Ltext0
 2375 01bc 0200     		.2byte	0x2
 2376 01be 77       		.byte	0x77
 2377 01bf 08       		.sleb128 8
 2378 01c0 A0010000 		.4byte	.LCFI40-.Ltext0
 2379 01c4 B4010000 		.4byte	.LFE22-.Ltext0
 2380 01c8 0200     		.2byte	0x2
 2381 01ca 7D       		.byte	0x7d
 2382 01cb 08       		.sleb128 8
 2383 01cc 00000000 		.4byte	0
 2384 01d0 00000000 		.4byte	0
 2385              	.LLST6:
 2386 01d4 52010000 		.4byte	.LFB21-.Ltext0
 2387 01d8 54010000 		.4byte	.LCFI32-.Ltext0
 2388 01dc 0200     		.2byte	0x2
 2389 01de 7D       		.byte	0x7d
 2390 01df 00       		.sleb128 0
 2391 01e0 54010000 		.4byte	.LCFI32-.Ltext0
 2392 01e4 56010000 		.4byte	.LCFI33-.Ltext0
 2393 01e8 0200     		.2byte	0x2
 2394 01ea 7D       		.byte	0x7d
 2395 01eb 08       		.sleb128 8
 2396 01ec 56010000 		.4byte	.LCFI33-.Ltext0
 2397 01f0 58010000 		.4byte	.LCFI34-.Ltext0
 2398 01f4 0200     		.2byte	0x2
 2399 01f6 7D       		.byte	0x7d
 2400 01f7 18       		.sleb128 24
 2401 01f8 58010000 		.4byte	.LCFI34-.Ltext0
 2402 01fc 74010000 		.4byte	.LCFI35-.Ltext0
 2403 0200 0200     		.2byte	0x2
 2404 0202 77       		.byte	0x77
 2405 0203 18       		.sleb128 24
ARM GAS  G:\Users\Jaxb\AppData\Local\Temp\ccnDzD0x.s 			page 48


 2406 0204 74010000 		.4byte	.LCFI35-.Ltext0
 2407 0208 76010000 		.4byte	.LCFI36-.Ltext0
 2408 020c 0200     		.2byte	0x2
 2409 020e 77       		.byte	0x77
 2410 020f 08       		.sleb128 8
 2411 0210 76010000 		.4byte	.LCFI36-.Ltext0
 2412 0214 78010000 		.4byte	.LFE21-.Ltext0
 2413 0218 0200     		.2byte	0x2
 2414 021a 7D       		.byte	0x7d
 2415 021b 08       		.sleb128 8
 2416 021c 00000000 		.4byte	0
 2417 0220 00000000 		.4byte	0
 2418              	.LLST5:
 2419 0224 AA000000 		.4byte	.LFB20-.Ltext0
 2420 0228 AE000000 		.4byte	.LCFI27-.Ltext0
 2421 022c 0200     		.2byte	0x2
 2422 022e 7D       		.byte	0x7d
 2423 022f 00       		.sleb128 0
 2424 0230 AE000000 		.4byte	.LCFI27-.Ltext0
 2425 0234 B0000000 		.4byte	.LCFI28-.Ltext0
 2426 0238 0200     		.2byte	0x2
 2427 023a 7D       		.byte	0x7d
 2428 023b 10       		.sleb128 16
 2429 023c B0000000 		.4byte	.LCFI28-.Ltext0
 2430 0240 B2000000 		.4byte	.LCFI29-.Ltext0
 2431 0244 0200     		.2byte	0x2
 2432 0246 7D       		.byte	0x7d
 2433 0247 28       		.sleb128 40
 2434 0248 B2000000 		.4byte	.LCFI29-.Ltext0
 2435 024c 4C010000 		.4byte	.LCFI30-.Ltext0
 2436 0250 0200     		.2byte	0x2
 2437 0252 77       		.byte	0x77
 2438 0253 28       		.sleb128 40
 2439 0254 4C010000 		.4byte	.LCFI30-.Ltext0
 2440 0258 4E010000 		.4byte	.LCFI31-.Ltext0
 2441 025c 0200     		.2byte	0x2
 2442 025e 77       		.byte	0x77
 2443 025f 10       		.sleb128 16
 2444 0260 4E010000 		.4byte	.LCFI31-.Ltext0
 2445 0264 52010000 		.4byte	.LFE20-.Ltext0
 2446 0268 0200     		.2byte	0x2
 2447 026a 7D       		.byte	0x7d
 2448 026b 10       		.sleb128 16
 2449 026c 00000000 		.4byte	0
 2450 0270 00000000 		.4byte	0
 2451              	.LLST4:
 2452 0274 90000000 		.4byte	.LFB8-.Ltext0
 2453 0278 92000000 		.4byte	.LCFI22-.Ltext0
 2454 027c 0200     		.2byte	0x2
 2455 027e 7D       		.byte	0x7d
 2456 027f 00       		.sleb128 0
 2457 0280 92000000 		.4byte	.LCFI22-.Ltext0
 2458 0284 94000000 		.4byte	.LCFI23-.Ltext0
 2459 0288 0200     		.2byte	0x2
 2460 028a 7D       		.byte	0x7d
 2461 028b 08       		.sleb128 8
 2462 028c 94000000 		.4byte	.LCFI23-.Ltext0
ARM GAS  G:\Users\Jaxb\AppData\Local\Temp\ccnDzD0x.s 			page 49


 2463 0290 96000000 		.4byte	.LCFI24-.Ltext0
 2464 0294 0200     		.2byte	0x2
 2465 0296 7D       		.byte	0x7d
 2466 0297 10       		.sleb128 16
 2467 0298 96000000 		.4byte	.LCFI24-.Ltext0
 2468 029c A6000000 		.4byte	.LCFI25-.Ltext0
 2469 02a0 0200     		.2byte	0x2
 2470 02a2 77       		.byte	0x77
 2471 02a3 10       		.sleb128 16
 2472 02a4 A6000000 		.4byte	.LCFI25-.Ltext0
 2473 02a8 A8000000 		.4byte	.LCFI26-.Ltext0
 2474 02ac 0200     		.2byte	0x2
 2475 02ae 77       		.byte	0x77
 2476 02af 08       		.sleb128 8
 2477 02b0 A8000000 		.4byte	.LCFI26-.Ltext0
 2478 02b4 AA000000 		.4byte	.LFE8-.Ltext0
 2479 02b8 0200     		.2byte	0x2
 2480 02ba 7D       		.byte	0x7d
 2481 02bb 08       		.sleb128 8
 2482 02bc 00000000 		.4byte	0
 2483 02c0 00000000 		.4byte	0
 2484              	.LLST3:
 2485 02c4 70000000 		.4byte	.LFB7-.Ltext0
 2486 02c8 72000000 		.4byte	.LCFI17-.Ltext0
 2487 02cc 0200     		.2byte	0x2
 2488 02ce 7D       		.byte	0x7d
 2489 02cf 00       		.sleb128 0
 2490 02d0 72000000 		.4byte	.LCFI17-.Ltext0
 2491 02d4 74000000 		.4byte	.LCFI18-.Ltext0
 2492 02d8 0200     		.2byte	0x2
 2493 02da 7D       		.byte	0x7d
 2494 02db 08       		.sleb128 8
 2495 02dc 74000000 		.4byte	.LCFI18-.Ltext0
 2496 02e0 76000000 		.4byte	.LCFI19-.Ltext0
 2497 02e4 0200     		.2byte	0x2
 2498 02e6 7D       		.byte	0x7d
 2499 02e7 18       		.sleb128 24
 2500 02e8 76000000 		.4byte	.LCFI19-.Ltext0
 2501 02ec 8C000000 		.4byte	.LCFI20-.Ltext0
 2502 02f0 0200     		.2byte	0x2
 2503 02f2 77       		.byte	0x77
 2504 02f3 18       		.sleb128 24
 2505 02f4 8C000000 		.4byte	.LCFI20-.Ltext0
 2506 02f8 8E000000 		.4byte	.LCFI21-.Ltext0
 2507 02fc 0200     		.2byte	0x2
 2508 02fe 77       		.byte	0x77
 2509 02ff 08       		.sleb128 8
 2510 0300 8E000000 		.4byte	.LCFI21-.Ltext0
 2511 0304 90000000 		.4byte	.LFE7-.Ltext0
 2512 0308 0200     		.2byte	0x2
 2513 030a 7D       		.byte	0x7d
 2514 030b 08       		.sleb128 8
 2515 030c 00000000 		.4byte	0
 2516 0310 00000000 		.4byte	0
 2517              	.LLST2:
 2518 0314 5A000000 		.4byte	.LFB5-.Ltext0
 2519 0318 5C000000 		.4byte	.LCFI11-.Ltext0
ARM GAS  G:\Users\Jaxb\AppData\Local\Temp\ccnDzD0x.s 			page 50


 2520 031c 0200     		.2byte	0x2
 2521 031e 7D       		.byte	0x7d
 2522 031f 00       		.sleb128 0
 2523 0320 5C000000 		.4byte	.LCFI11-.Ltext0
 2524 0324 5E000000 		.4byte	.LCFI12-.Ltext0
 2525 0328 0200     		.2byte	0x2
 2526 032a 7D       		.byte	0x7d
 2527 032b 04       		.sleb128 4
 2528 032c 5E000000 		.4byte	.LCFI12-.Ltext0
 2529 0330 60000000 		.4byte	.LCFI13-.Ltext0
 2530 0334 0200     		.2byte	0x2
 2531 0336 7D       		.byte	0x7d
 2532 0337 10       		.sleb128 16
 2533 0338 60000000 		.4byte	.LCFI13-.Ltext0
 2534 033c 6A000000 		.4byte	.LCFI14-.Ltext0
 2535 0340 0200     		.2byte	0x2
 2536 0342 77       		.byte	0x77
 2537 0343 10       		.sleb128 16
 2538 0344 6A000000 		.4byte	.LCFI14-.Ltext0
 2539 0348 6C000000 		.4byte	.LCFI15-.Ltext0
 2540 034c 0200     		.2byte	0x2
 2541 034e 77       		.byte	0x77
 2542 034f 04       		.sleb128 4
 2543 0350 6C000000 		.4byte	.LCFI15-.Ltext0
 2544 0354 6E000000 		.4byte	.LCFI16-.Ltext0
 2545 0358 0200     		.2byte	0x2
 2546 035a 7D       		.byte	0x7d
 2547 035b 04       		.sleb128 4
 2548 035c 6E000000 		.4byte	.LCFI16-.Ltext0
 2549 0360 70000000 		.4byte	.LFE5-.Ltext0
 2550 0364 0200     		.2byte	0x2
 2551 0366 7D       		.byte	0x7d
 2552 0367 00       		.sleb128 0
 2553 0368 00000000 		.4byte	0
 2554 036c 00000000 		.4byte	0
 2555              	.LLST1:
 2556 0370 30000000 		.4byte	.LFB3-.Ltext0
 2557 0374 32000000 		.4byte	.LCFI5-.Ltext0
 2558 0378 0200     		.2byte	0x2
 2559 037a 7D       		.byte	0x7d
 2560 037b 00       		.sleb128 0
 2561 037c 32000000 		.4byte	.LCFI5-.Ltext0
 2562 0380 34000000 		.4byte	.LCFI6-.Ltext0
 2563 0384 0200     		.2byte	0x2
 2564 0386 7D       		.byte	0x7d
 2565 0387 04       		.sleb128 4
 2566 0388 34000000 		.4byte	.LCFI6-.Ltext0
 2567 038c 36000000 		.4byte	.LCFI7-.Ltext0
 2568 0390 0200     		.2byte	0x2
 2569 0392 7D       		.byte	0x7d
 2570 0393 18       		.sleb128 24
 2571 0394 36000000 		.4byte	.LCFI7-.Ltext0
 2572 0398 54000000 		.4byte	.LCFI8-.Ltext0
 2573 039c 0200     		.2byte	0x2
 2574 039e 77       		.byte	0x77
 2575 039f 18       		.sleb128 24
 2576 03a0 54000000 		.4byte	.LCFI8-.Ltext0
ARM GAS  G:\Users\Jaxb\AppData\Local\Temp\ccnDzD0x.s 			page 51


 2577 03a4 56000000 		.4byte	.LCFI9-.Ltext0
 2578 03a8 0200     		.2byte	0x2
 2579 03aa 77       		.byte	0x77
 2580 03ab 04       		.sleb128 4
 2581 03ac 56000000 		.4byte	.LCFI9-.Ltext0
 2582 03b0 58000000 		.4byte	.LCFI10-.Ltext0
 2583 03b4 0200     		.2byte	0x2
 2584 03b6 7D       		.byte	0x7d
 2585 03b7 04       		.sleb128 4
 2586 03b8 58000000 		.4byte	.LCFI10-.Ltext0
 2587 03bc 5A000000 		.4byte	.LFE3-.Ltext0
 2588 03c0 0200     		.2byte	0x2
 2589 03c2 7D       		.byte	0x7d
 2590 03c3 00       		.sleb128 0
 2591 03c4 00000000 		.4byte	0
 2592 03c8 00000000 		.4byte	0
 2593              	.LLST0:
 2594 03cc 00000000 		.4byte	.LFB0-.Ltext0
 2595 03d0 02000000 		.4byte	.LCFI0-.Ltext0
 2596 03d4 0200     		.2byte	0x2
 2597 03d6 7D       		.byte	0x7d
 2598 03d7 00       		.sleb128 0
 2599 03d8 02000000 		.4byte	.LCFI0-.Ltext0
 2600 03dc 04000000 		.4byte	.LCFI1-.Ltext0
 2601 03e0 0200     		.2byte	0x2
 2602 03e2 7D       		.byte	0x7d
 2603 03e3 08       		.sleb128 8
 2604 03e4 04000000 		.4byte	.LCFI1-.Ltext0
 2605 03e8 06000000 		.4byte	.LCFI2-.Ltext0
 2606 03ec 0200     		.2byte	0x2
 2607 03ee 7D       		.byte	0x7d
 2608 03ef 18       		.sleb128 24
 2609 03f0 06000000 		.4byte	.LCFI2-.Ltext0
 2610 03f4 2C000000 		.4byte	.LCFI3-.Ltext0
 2611 03f8 0200     		.2byte	0x2
 2612 03fa 77       		.byte	0x77
 2613 03fb 18       		.sleb128 24
 2614 03fc 2C000000 		.4byte	.LCFI3-.Ltext0
 2615 0400 2E000000 		.4byte	.LCFI4-.Ltext0
 2616 0404 0200     		.2byte	0x2
 2617 0406 77       		.byte	0x77
 2618 0407 08       		.sleb128 8
 2619 0408 2E000000 		.4byte	.LCFI4-.Ltext0
 2620 040c 30000000 		.4byte	.LFE0-.Ltext0
 2621 0410 0200     		.2byte	0x2
 2622 0412 7D       		.byte	0x7d
 2623 0413 08       		.sleb128 8
 2624 0414 00000000 		.4byte	0
 2625 0418 00000000 		.4byte	0
 2626              		.section	.debug_aranges,"",%progbits
 2627 0000 1C000000 		.4byte	0x1c
 2628 0004 0200     		.2byte	0x2
 2629 0006 00000000 		.4byte	.Ldebug_info0
 2630 000a 04       		.byte	0x4
 2631 000b 00       		.byte	0
 2632 000c 0000     		.2byte	0
 2633 000e 0000     		.2byte	0
ARM GAS  G:\Users\Jaxb\AppData\Local\Temp\ccnDzD0x.s 			page 52


 2634 0010 00000000 		.4byte	.Ltext0
 2635 0014 64030000 		.4byte	.Letext0-.Ltext0
 2636 0018 00000000 		.4byte	0
 2637 001c 00000000 		.4byte	0
 2638              		.section	.debug_line,"",%progbits
 2639              	.Ldebug_line0:
 2640 0000 AF010000 		.section	.debug_str,"MS",%progbits,1
 2640      02000401 
 2640      00000201 
 2640      FB0E0D00 
 2640      01010101 
 2641              	.LASF35:
 2642 0000 5441534B 		.ascii	"TASK_PRIO_TYPE\000"
 2642      5F505249 
 2642      4F5F5459 
 2642      504500
 2643              	.LASF76:
 2644 000f 2E2E2F2E 		.ascii	"../../source/src/kernel/OS_CORE/schedule/os_delay.c"
 2644      2E2F736F 
 2644      75726365 
 2644      2F737263 
 2644      2F6B6572 
 2645 0042 00       		.ascii	"\000"
 2646              	.LASF25:
 2647 0043 53544154 		.ascii	"STATE_SUSPEND_NORMAL\000"
 2647      455F5355 
 2647      5350454E 
 2647      445F4E4F 
 2647      524D414C 
 2648              	.LASF82:
 2649 0058 5F5F696E 		.ascii	"__init_delay_heap\000"
 2649      69745F64 
 2649      656C6179 
 2649      5F686561 
 2649      7000
 2650              	.LASF20:
 2651 006a 6C697374 		.ascii	"list_head\000"
 2651      5F686561 
 2651      6400
 2652              	.LASF67:
 2653 0074 68656170 		.ascii	"heap_get_cur_len\000"
 2653      5F676574 
 2653      5F637572 
 2653      5F6C656E 
 2653      00
 2654              	.LASF1:
 2655 0085 6D61785F 		.ascii	"max_len\000"
 2655      6C656E00 
 2656              	.LASF11:
 2657 008d 73686F72 		.ascii	"short int\000"
 2657      7420696E 
 2657      7400
 2658              	.LASF70:
 2659 0097 64617461 		.ascii	"data_store_ptr\000"
 2659      5F73746F 
 2659      72655F70 
 2659      747200
ARM GAS  G:\Users\Jaxb\AppData\Local\Temp\ccnDzD0x.s 			page 53


 2660              	.LASF60:
 2661 00a6 5443425F 		.ascii	"TCB_ptr_buffer\000"
 2661      7074725F 
 2661      62756666 
 2661      657200
 2662              	.LASF43:
 2663 00b5 64656C61 		.ascii	"delay_heap_position\000"
 2663      795F6865 
 2663      61705F70 
 2663      6F736974 
 2663      696F6E00 
 2664              	.LASF64:
 2665 00c9 696E6465 		.ascii	"index1\000"
 2665      783100
 2666              	.LASF65:
 2667 00d0 696E6465 		.ascii	"index2\000"
 2667      783200
 2668              	.LASF28:
 2669 00d7 53544154 		.ascii	"STATE_WAIT_MESSAGE_QUEUE_FOREVER\000"
 2669      455F5741 
 2669      49545F4D 
 2669      45535341 
 2669      47455F51 
 2670              	.LASF17:
 2671 00f8 55494E54 		.ascii	"UINT32\000"
 2671      333200
 2672              	.LASF74:
 2673 00ff 64617461 		.ascii	"data_add_ptr\000"
 2673      5F616464 
 2673      5F707472 
 2673      00
 2674              	.LASF62:
 2675 010c 56656374 		.ascii	"Vector_ptr\000"
 2675      6F725F70 
 2675      747200
 2676              	.LASF8:
 2677 0117 696E6465 		.ascii	"index_change_record\000"
 2677      785F6368 
 2677      616E6765 
 2677      5F726563 
 2677      6F726400 
 2678              	.LASF34:
 2679 012b 53544143 		.ascii	"STACK_TYPE\000"
 2679      4B5F5459 
 2679      504500
 2680              	.LASF78:
 2681 0136 5461736B 		.ascii	"Task_State\000"
 2681      5F537461 
 2681      746500
 2682              	.LASF30:
 2683 0141 53544154 		.ascii	"STATE_PUT_MESSAGE_QUEUE_FOREVER\000"
 2683      455F5055 
 2683      545F4D45 
 2683      53534147 
 2683      455F5155 
 2684              	.LASF68:
 2685 0161 6C697474 		.ascii	"little_heap_ptr\000"
ARM GAS  G:\Users\Jaxb\AppData\Local\Temp\ccnDzD0x.s 			page 54


 2685      6C655F68 
 2685      6561705F 
 2685      70747200 
 2686              	.LASF63:
 2687 0171 696E6465 		.ascii	"index\000"
 2687      7800
 2688              	.LASF5:
 2689 0177 76656374 		.ascii	"vector\000"
 2689      6F7200
 2690              	.LASF58:
 2691 017e 5F64656C 		.ascii	"_delay_heap_get_top_TCB\000"
 2691      61795F68 
 2691      6561705F 
 2691      6765745F 
 2691      746F705F 
 2692              	.LASF39:
 2693 0196 73746163 		.ascii	"stack_end\000"
 2693      6B5F656E 
 2693      6400
 2694              	.LASF27:
 2695 01a0 53544154 		.ascii	"STATE_WAIT_MCB_TIMEOUT\000"
 2695      455F5741 
 2695      49545F4D 
 2695      43425F54 
 2695      494D454F 
 2696              	.LASF56:
 2697 01b7 5443425F 		.ascii	"TCB_ptr\000"
 2697      70747200 
 2698              	.LASF29:
 2699 01bf 53544154 		.ascii	"STATE_WAIT_MESSAGE_QUEUE_TIMEOUT\000"
 2699      455F5741 
 2699      49545F4D 
 2699      45535341 
 2699      47455F51 
 2700              	.LASF77:
 2701 01e0 463A5C6B 		.ascii	"F:\\kaka\\KAKAOS\\C\\windows\\Project\\RVMDK\243\250"
 2701      616B615C 
 2701      4B414B41 
 2701      4F535C43 
 2701      5C77696E 
 2702 0208 757635A3 		.ascii	"uv5\243\251\000"
 2702      A900
 2703              	.LASF14:
 2704 020e 6C6F6E67 		.ascii	"long long int\000"
 2704      206C6F6E 
 2704      6720696E 
 2704      7400
 2705              	.LASF47:
 2706 021c 74696D65 		.ascii	"timeslice_hope_time\000"
 2706      736C6963 
 2706      655F686F 
 2706      70655F74 
 2706      696D6500 
 2707              	.LASF33:
 2708 0230 5441534B 		.ascii	"TASK_STATE\000"
 2708      5F535441 
 2708      544500
ARM GAS  G:\Users\Jaxb\AppData\Local\Temp\ccnDzD0x.s 			page 55


 2709              	.LASF2:
 2710 023b 6375725F 		.ascii	"cur_len\000"
 2710      6C656E00 
 2711              	.LASF83:
 2712 0243 56656374 		.ascii	"Vector_get_index_data\000"
 2712      6F725F67 
 2712      65745F69 
 2712      6E646578 
 2712      5F646174 
 2713              	.LASF46:
 2714 0259 6E616D65 		.ascii	"name\000"
 2714      00
 2715              	.LASF73:
 2716 025e 56656374 		.ascii	"Vector_get_index_address\000"
 2716      6F725F67 
 2716      65745F69 
 2716      6E646578 
 2716      5F616464 
 2717              	.LASF12:
 2718 0277 56656374 		.ascii	"Vector\000"
 2718      6F7200
 2719              	.LASF15:
 2720 027e 756E7369 		.ascii	"unsigned char\000"
 2720      676E6564 
 2720      20636861 
 2720      7200
 2721              	.LASF24:
 2722 028c 53544154 		.ascii	"STATE_DELAY\000"
 2722      455F4445 
 2722      4C415900 
 2723              	.LASF72:
 2724 0298 76656374 		.ascii	"vector_ptr\000"
 2724      6F725F70 
 2724      747200
 2725              	.LASF49:
 2726 02a3 61747472 		.ascii	"attribution\000"
 2726      69627574 
 2726      696F6E00 
 2727              	.LASF10:
 2728 02af 7369676E 		.ascii	"signed char\000"
 2728      65642063 
 2728      68617200 
 2729              	.LASF19:
 2730 02bb 6C6F6E67 		.ascii	"long long unsigned int\000"
 2730      206C6F6E 
 2730      6720756E 
 2730      7369676E 
 2730      65642069 
 2731              	.LASF50:
 2732 02d2 64796E61 		.ascii	"dynamic_module_ptr\000"
 2732      6D69635F 
 2732      6D6F6475 
 2732      6C655F70 
 2732      747200
 2733              	.LASF9:
 2734 02e5 756E7369 		.ascii	"unsigned int\000"
 2734      676E6564 
ARM GAS  G:\Users\Jaxb\AppData\Local\Temp\ccnDzD0x.s 			page 56


 2734      20696E74 
 2734      00
 2735              	.LASF61:
 2736 02f2 5F696E73 		.ascii	"_insert_into_delay_heap\000"
 2736      6572745F 
 2736      696E746F 
 2736      5F64656C 
 2736      61795F68 
 2737              	.LASF37:
 2738 030a 73746163 		.ascii	"stack\000"
 2738      6B00
 2739              	.LASF44:
 2740 0310 73616D65 		.ascii	"same_prio_list\000"
 2740      5F707269 
 2740      6F5F6C69 
 2740      737400
 2741              	.LASF71:
 2742 031f 6765745F 		.ascii	"get_Vector_cur_len\000"
 2742      56656374 
 2742      6F725F63 
 2742      75725F6C 
 2742      656E00
 2743              	.LASF80:
 2744 0332 64796E61 		.ascii	"dynamic_module\000"
 2744      6D69635F 
 2744      6D6F6475 
 2744      6C6500
 2745              	.LASF16:
 2746 0341 73686F72 		.ascii	"short unsigned int\000"
 2746      7420756E 
 2746      7369676E 
 2746      65642069 
 2746      6E7400
 2747              	.LASF23:
 2748 0354 53544154 		.ascii	"STATE_READY\000"
 2748      455F5245 
 2748      41445900 
 2749              	.LASF52:
 2750 0360 63686172 		.ascii	"char\000"
 2750      00
 2751              	.LASF66:
 2752 0365 5F636D70 		.ascii	"_cmp\000"
 2752      00
 2753              	.LASF4:
 2754 036a 65787465 		.ascii	"extension_factor\000"
 2754      6E73696F 
 2754      6E5F6661 
 2754      63746F72 
 2754      00
 2755              	.LASF31:
 2756 037b 53544154 		.ascii	"STATE_PUT_MESSAGE_QUEUE_TIMEOUT\000"
 2756      455F5055 
 2756      545F4D45 
 2756      53534147 
 2756      455F5155 
 2757              	.LASF57:
 2758 039b 5F64656C 		.ascii	"_delay_heap_remove_top_TCB\000"
ARM GAS  G:\Users\Jaxb\AppData\Local\Temp\ccnDzD0x.s 			page 57


 2758      61795F68 
 2758      6561705F 
 2758      72656D6F 
 2758      76655F74 
 2759              	.LASF7:
 2760 03b6 64617461 		.ascii	"data\000"
 2760      00
 2761              	.LASF6:
 2762 03bb 6C697474 		.ascii	"little_heap\000"
 2762      6C655F68 
 2762      65617000 
 2763              	.LASF3:
 2764 03c7 64617461 		.ascii	"data_size\000"
 2764      5F73697A 
 2764      6500
 2765              	.LASF41:
 2766 03d1 7461736B 		.ascii	"task_state\000"
 2766      5F737461 
 2766      746500
 2767              	.LASF13:
 2768 03dc 494E5436 		.ascii	"INT64\000"
 2768      3400
 2769              	.LASF81:
 2770 03e2 7368656C 		.ascii	"shell_delay_heap_check\000"
 2770      6C5F6465 
 2770      6C61795F 
 2770      68656170 
 2770      5F636865 
 2771              	.LASF48:
 2772 03f9 74696D65 		.ascii	"timeslice_rest_time\000"
 2772      736C6963 
 2772      655F7265 
 2772      73745F74 
 2772      696D6500 
 2773              	.LASF26:
 2774 040d 53544154 		.ascii	"STATE_WAIT_MCB_FOREVER\000"
 2774      455F5741 
 2774      49545F4D 
 2774      43425F46 
 2774      4F524556 
 2775              	.LASF36:
 2776 0424 7461736B 		.ascii	"task_control_block_struct\000"
 2776      5F636F6E 
 2776      74726F6C 
 2776      5F626C6F 
 2776      636B5F73 
 2777              	.LASF38:
 2778 043e 73746163 		.ascii	"stack_size\000"
 2778      6B5F7369 
 2778      7A6500
 2779              	.LASF59:
 2780 0449 5F72656D 		.ascii	"_remove_from_delay_heap\000"
 2780      6F76655F 
 2780      66726F6D 
 2780      5F64656C 
 2780      61795F68 
 2781              	.LASF53:
ARM GAS  G:\Users\Jaxb\AppData\Local\Temp\ccnDzD0x.s 			page 58


 2782 0461 64656C61 		.ascii	"delay_heap\000"
 2782      795F6865 
 2782      617000
 2783              	.LASF40:
 2784 046c 72657365 		.ascii	"reserve_prio\000"
 2784      7276655F 
 2784      7072696F 
 2784      00
 2785              	.LASF69:
 2786 0479 68656170 		.ascii	"heap_get_index_data\000"
 2786      5F676574 
 2786      5F696E64 
 2786      65785F64 
 2786      61746100 
 2787              	.LASF45:
 2788 048d 73757370 		.ascii	"suspend_list\000"
 2788      656E645F 
 2788      6C697374 
 2788      00
 2789              	.LASF79:
 2790 049a 675F696E 		.ascii	"g_interrupt_count\000"
 2790      74657272 
 2790      7570745F 
 2790      636F756E 
 2790      7400
 2791              	.LASF75:
 2792 04ac 474E5520 		.ascii	"GNU C11 7.3.1 20180622 (release) [ARM/embedded-7-br"
 2792      43313120 
 2792      372E332E 
 2792      31203230 
 2792      31383036 
 2793 04df 616E6368 		.ascii	"anch revision 261907] -mcpu=cortex-m3 -mthumb -mapc"
 2793      20726576 
 2793      6973696F 
 2793      6E203236 
 2793      31393037 
 2794 0512 732D6672 		.ascii	"s-frame -mthumb-interwork -mcpu=cortex-m3 -mthumb -"
 2794      616D6520 
 2794      2D6D7468 
 2794      756D622D 
 2794      696E7465 
 2795 0545 67647761 		.ascii	"gdwarf-2 -O0\000"
 2795      72662D32 
 2795      202D4F30 
 2795      00
 2796              	.LASF32:
 2797 0552 53544154 		.ascii	"STATE_WAIT_MUTEX_FOREVER\000"
 2797      455F5741 
 2797      49545F4D 
 2797      55544558 
 2797      5F464F52 
 2798              	.LASF22:
 2799 056b 70726576 		.ascii	"prev\000"
 2799      00
 2800              	.LASF51:
 2801 0570 64656C61 		.ascii	"delay_reach_time\000"
 2801      795F7265 
ARM GAS  G:\Users\Jaxb\AppData\Local\Temp\ccnDzD0x.s 			page 59


 2801      6163685F 
 2801      74696D65 
 2801      00
 2802              	.LASF18:
 2803 0581 55494E54 		.ascii	"UINT64\000"
 2803      363400
 2804              	.LASF42:
 2805 0588 7072696F 		.ascii	"prio\000"
 2805      00
 2806              	.LASF0:
 2807 058d 64617461 		.ascii	"data_ptr\000"
 2807      5F707472 
 2807      00
 2808              	.LASF21:
 2809 0596 6E657874 		.ascii	"next\000"
 2809      00
 2810              	.LASF54:
 2811 059b 5443425F 		.ascii	"TCB_ptr1\000"
 2811      70747231 
 2811      00
 2812              	.LASF55:
 2813 05a4 5443425F 		.ascii	"TCB_ptr2\000"
 2813      70747232 
 2813      00
 2814              		.ident	"GCC: (GNU Tools for Arm Embedded Processors 7-2018-q2-update) 7.3.1 20180622 (release) [AR
ARM GAS  G:\Users\Jaxb\AppData\Local\Temp\ccnDzD0x.s 			page 60


DEFINED SYMBOLS
                            *ABS*:00000000 os_delay.c
G:\Users\Jaxb\AppData\Local\Temp\ccnDzD0x.s:15     .text:00000000 $t
G:\Users\Jaxb\AppData\Local\Temp\ccnDzD0x.s:21     .text:00000000 Vector_get_index_data
G:\Users\Jaxb\AppData\Local\Temp\ccnDzD0x.s:74     .text:00000030 Vector_get_index_address
G:\Users\Jaxb\AppData\Local\Temp\ccnDzD0x.s:127    .text:0000005a get_Vector_cur_len
G:\Users\Jaxb\AppData\Local\Temp\ccnDzD0x.s:171    .text:00000070 heap_get_index_data
G:\Users\Jaxb\AppData\Local\Temp\ccnDzD0x.s:217    .text:00000090 heap_get_cur_len
G:\Users\Jaxb\AppData\Local\Temp\ccnDzD0x.s:254    .bss:00000000 $d
G:\Users\Jaxb\AppData\Local\Temp\ccnDzD0x.s:255    .bss:00000000 delay_heap
G:\Users\Jaxb\AppData\Local\Temp\ccnDzD0x.s:265    .text:000000aa _cmp
G:\Users\Jaxb\AppData\Local\Temp\ccnDzD0x.s:370    .text:00000152 index_change_record
G:\Users\Jaxb\AppData\Local\Temp\ccnDzD0x.s:413    .rodata:00000000 $d
G:\Users\Jaxb\AppData\Local\Temp\ccnDzD0x.s:424    .text:00000178 __init_delay_heap
G:\Users\Jaxb\AppData\Local\Temp\ccnDzD0x.s:469    .text:000001a4 $d
G:\Users\Jaxb\AppData\Local\Temp\ccnDzD0x.s:482    .text:000001b4 $t
G:\Users\Jaxb\AppData\Local\Temp\ccnDzD0x.s:489    .text:000001b4 _insert_into_delay_heap
G:\Users\Jaxb\AppData\Local\Temp\ccnDzD0x.s:535    .text:000001e0 $d
G:\Users\Jaxb\AppData\Local\Temp\ccnDzD0x.s:540    .text:000001e8 $t
G:\Users\Jaxb\AppData\Local\Temp\ccnDzD0x.s:547    .text:000001e8 _remove_from_delay_heap
G:\Users\Jaxb\AppData\Local\Temp\ccnDzD0x.s:643    .text:00000260 $d
G:\Users\Jaxb\AppData\Local\Temp\ccnDzD0x.s:648    .text:00000268 $t
G:\Users\Jaxb\AppData\Local\Temp\ccnDzD0x.s:655    .text:00000268 _delay_heap_get_top_TCB
G:\Users\Jaxb\AppData\Local\Temp\ccnDzD0x.s:701    .text:00000290 $d
G:\Users\Jaxb\AppData\Local\Temp\ccnDzD0x.s:705    .text:00000294 $t
G:\Users\Jaxb\AppData\Local\Temp\ccnDzD0x.s:712    .text:00000294 _delay_heap_remove_top_TCB
G:\Users\Jaxb\AppData\Local\Temp\ccnDzD0x.s:758    .text:000002bc $d
G:\Users\Jaxb\AppData\Local\Temp\ccnDzD0x.s:774    .text:000002c0 $t
G:\Users\Jaxb\AppData\Local\Temp\ccnDzD0x.s:781    .text:000002c0 shell_delay_heap_check
G:\Users\Jaxb\AppData\Local\Temp\ccnDzD0x.s:877    .text:00000354 $d

UNDEFINED SYMBOLS
ka_memcpy
heap_init
ka_printf
_ASSERT
heap_push
heap_remove_index_data
_insert_ready_TCB
heap_get_index_data_safe
