ARM GAS  G:\Users\Jaxb\AppData\Local\Temp\ccDpynBW.s 			page 1


   1              		.cpu cortex-m3
   2              		.eabi_attribute 20, 1
   3              		.eabi_attribute 21, 1
   4              		.eabi_attribute 23, 3
   5              		.eabi_attribute 24, 1
   6              		.eabi_attribute 25, 1
   7              		.eabi_attribute 26, 1
   8              		.eabi_attribute 30, 6
   9              		.eabi_attribute 34, 1
  10              		.eabi_attribute 18, 4
  11              		.file	"os_ready.c"
  12              		.text
  13              	.Ltext0:
  14              		.cfi_sections	.debug_frame
  15              		.align	1
  16              		.syntax unified
  17              		.thumb
  18              		.thumb_func
  19              		.fpu softvfp
  20              		.type	list_empty, %function
  21              	list_empty:
  22              	.LFB9:
  23              		.file 1 "../../source/include/os_lib/double_linked_list.h"
   1:../../source/include/os_lib/double_linked_list.h **** #ifndef _DOUBLE_LINKED_LIST_H
   2:../../source/include/os_lib/double_linked_list.h **** #define _DOUBLE_LINKED_LIST_H
   3:../../source/include/os_lib/double_linked_list.h **** 
   4:../../source/include/os_lib/double_linked_list.h **** struct list_head {
   5:../../source/include/os_lib/double_linked_list.h ****     struct list_head *next, *prev;
   6:../../source/include/os_lib/double_linked_list.h **** };
   7:../../source/include/os_lib/double_linked_list.h **** 
   8:../../source/include/os_lib/double_linked_list.h **** 
   9:../../source/include/os_lib/double_linked_list.h **** #define LIST_HEAD_INIT(name) { &(name), &(name) }
  10:../../source/include/os_lib/double_linked_list.h **** 
  11:../../source/include/os_lib/double_linked_list.h **** 
  12:../../source/include/os_lib/double_linked_list.h **** #define LIST_HEAD(name) \
  13:../../source/include/os_lib/double_linked_list.h ****     struct list_head name = LIST_HEAD_INIT(name)
  14:../../source/include/os_lib/double_linked_list.h **** 
  15:../../source/include/os_lib/double_linked_list.h **** 
  16:../../source/include/os_lib/double_linked_list.h **** static inline void INIT_LIST_HEAD(struct list_head *list)
  17:../../source/include/os_lib/double_linked_list.h **** {
  18:../../source/include/os_lib/double_linked_list.h ****     list->next = list;
  19:../../source/include/os_lib/double_linked_list.h ****     list->prev = list;
  20:../../source/include/os_lib/double_linked_list.h **** }
  21:../../source/include/os_lib/double_linked_list.h **** 
  22:../../source/include/os_lib/double_linked_list.h **** 
  23:../../source/include/os_lib/double_linked_list.h **** static inline void __list_add(struct list_head *new,
  24:../../source/include/os_lib/double_linked_list.h ****                   struct list_head *prev,
  25:../../source/include/os_lib/double_linked_list.h ****                   struct list_head *next)
  26:../../source/include/os_lib/double_linked_list.h **** {
  27:../../source/include/os_lib/double_linked_list.h ****     next->prev = new;
  28:../../source/include/os_lib/double_linked_list.h ****     new->next = next;
  29:../../source/include/os_lib/double_linked_list.h ****     new->prev = prev;
  30:../../source/include/os_lib/double_linked_list.h ****     prev->next = new;
  31:../../source/include/os_lib/double_linked_list.h **** }
  32:../../source/include/os_lib/double_linked_list.h **** 
  33:../../source/include/os_lib/double_linked_list.h **** 
  34:../../source/include/os_lib/double_linked_list.h **** static inline void list_add(struct list_head *new, struct list_head *head)
ARM GAS  G:\Users\Jaxb\AppData\Local\Temp\ccDpynBW.s 			page 2


  35:../../source/include/os_lib/double_linked_list.h **** {
  36:../../source/include/os_lib/double_linked_list.h ****     __list_add(new, head, head->next);
  37:../../source/include/os_lib/double_linked_list.h **** }
  38:../../source/include/os_lib/double_linked_list.h **** 
  39:../../source/include/os_lib/double_linked_list.h **** 
  40:../../source/include/os_lib/double_linked_list.h **** static inline void list_add_tail(struct list_head *new, struct list_head *head)
  41:../../source/include/os_lib/double_linked_list.h **** {
  42:../../source/include/os_lib/double_linked_list.h ****     __list_add(new, head->prev, head);
  43:../../source/include/os_lib/double_linked_list.h **** }
  44:../../source/include/os_lib/double_linked_list.h **** 
  45:../../source/include/os_lib/double_linked_list.h **** 
  46:../../source/include/os_lib/double_linked_list.h **** static inline void __list_del(struct list_head * prev, struct list_head * next)
  47:../../source/include/os_lib/double_linked_list.h **** {
  48:../../source/include/os_lib/double_linked_list.h ****     next->prev = prev;
  49:../../source/include/os_lib/double_linked_list.h ****     prev->next = next;
  50:../../source/include/os_lib/double_linked_list.h **** }
  51:../../source/include/os_lib/double_linked_list.h **** 
  52:../../source/include/os_lib/double_linked_list.h **** 
  53:../../source/include/os_lib/double_linked_list.h **** static inline void list_del(struct list_head *entry)
  54:../../source/include/os_lib/double_linked_list.h **** {
  55:../../source/include/os_lib/double_linked_list.h ****     __list_del(entry->prev, entry->next);
  56:../../source/include/os_lib/double_linked_list.h **** }
  57:../../source/include/os_lib/double_linked_list.h **** 
  58:../../source/include/os_lib/double_linked_list.h **** 
  59:../../source/include/os_lib/double_linked_list.h **** static inline void __list_del_entry(struct list_head *entry)
  60:../../source/include/os_lib/double_linked_list.h **** {
  61:../../source/include/os_lib/double_linked_list.h ****     __list_del(entry->prev, entry->next);
  62:../../source/include/os_lib/double_linked_list.h **** }
  63:../../source/include/os_lib/double_linked_list.h **** 
  64:../../source/include/os_lib/double_linked_list.h **** 
  65:../../source/include/os_lib/double_linked_list.h **** static inline void list_del_init(struct list_head *entry)
  66:../../source/include/os_lib/double_linked_list.h **** {
  67:../../source/include/os_lib/double_linked_list.h ****     __list_del_entry(entry);
  68:../../source/include/os_lib/double_linked_list.h ****     INIT_LIST_HEAD(entry);
  69:../../source/include/os_lib/double_linked_list.h **** }
  70:../../source/include/os_lib/double_linked_list.h **** 
  71:../../source/include/os_lib/double_linked_list.h **** 
  72:../../source/include/os_lib/double_linked_list.h **** static inline void list_replace(struct list_head *old,
  73:../../source/include/os_lib/double_linked_list.h ****                 struct list_head *new)
  74:../../source/include/os_lib/double_linked_list.h **** {
  75:../../source/include/os_lib/double_linked_list.h ****     new->next = old->next;
  76:../../source/include/os_lib/double_linked_list.h ****     new->next->prev = new;
  77:../../source/include/os_lib/double_linked_list.h ****     new->prev = old->prev;
  78:../../source/include/os_lib/double_linked_list.h ****     new->prev->next = new;
  79:../../source/include/os_lib/double_linked_list.h **** }
  80:../../source/include/os_lib/double_linked_list.h **** 
  81:../../source/include/os_lib/double_linked_list.h **** 
  82:../../source/include/os_lib/double_linked_list.h **** static inline int list_empty(const struct list_head *head)
  83:../../source/include/os_lib/double_linked_list.h **** {
  24              		.loc 1 83 0
  25              		.cfi_startproc
  26              		@ args = 0, pretend = 0, frame = 8
  27              		@ frame_needed = 1, uses_anonymous_args = 0
  28              		@ link register save eliminated.
  29 0000 80B4     		push	{r7}
  30              	.LCFI0:
  31              		.cfi_def_cfa_offset 4
ARM GAS  G:\Users\Jaxb\AppData\Local\Temp\ccDpynBW.s 			page 3


  32              		.cfi_offset 7, -4
  33 0002 83B0     		sub	sp, sp, #12
  34              	.LCFI1:
  35              		.cfi_def_cfa_offset 16
  36 0004 00AF     		add	r7, sp, #0
  37              	.LCFI2:
  38              		.cfi_def_cfa_register 7
  39 0006 7860     		str	r0, [r7, #4]
  84:../../source/include/os_lib/double_linked_list.h ****     return head->next == head;
  40              		.loc 1 84 0
  41 0008 7B68     		ldr	r3, [r7, #4]
  42 000a 1B68     		ldr	r3, [r3]
  43 000c 7A68     		ldr	r2, [r7, #4]
  44 000e 9A42     		cmp	r2, r3
  45 0010 0CBF     		ite	eq
  46 0012 0123     		moveq	r3, #1
  47 0014 0023     		movne	r3, #0
  48 0016 DBB2     		uxtb	r3, r3
  85:../../source/include/os_lib/double_linked_list.h **** }
  49              		.loc 1 85 0
  50 0018 1846     		mov	r0, r3
  51 001a 0C37     		adds	r7, r7, #12
  52              	.LCFI3:
  53              		.cfi_def_cfa_offset 4
  54 001c BD46     		mov	sp, r7
  55              	.LCFI4:
  56              		.cfi_def_cfa_register 13
  57              		@ sp needed
  58 001e 80BC     		pop	{r7}
  59              	.LCFI5:
  60              		.cfi_restore 7
  61              		.cfi_def_cfa_offset 0
  62 0020 7047     		bx	lr
  63              		.cfi_endproc
  64              	.LFE9:
  65              		.size	list_empty, .-list_empty
  66              		.section	.rodata
  67              		.align	2
  68              		.type	map, %object
  69              		.size	map, 8
  70              	map:
  71 0000 01       		.byte	1
  72 0001 02       		.byte	2
  73 0002 04       		.byte	4
  74 0003 08       		.byte	8
  75 0004 10       		.byte	16
  76 0005 20       		.byte	32
  77 0006 40       		.byte	64
  78 0007 80       		.byte	-128
  79              		.align	2
  80              		.type	unmap, %object
  81              		.size	unmap, 256
  82              	unmap:
  83 0008 00       		.byte	0
  84 0009 00       		.byte	0
  85 000a 01       		.byte	1
  86 000b 00       		.byte	0
ARM GAS  G:\Users\Jaxb\AppData\Local\Temp\ccDpynBW.s 			page 4


  87 000c 02       		.byte	2
  88 000d 00       		.byte	0
  89 000e 01       		.byte	1
  90 000f 00       		.byte	0
  91 0010 03       		.byte	3
  92 0011 00       		.byte	0
  93 0012 01       		.byte	1
  94 0013 00       		.byte	0
  95 0014 02       		.byte	2
  96 0015 00       		.byte	0
  97 0016 01       		.byte	1
  98 0017 00       		.byte	0
  99 0018 04       		.byte	4
 100 0019 00       		.byte	0
 101 001a 01       		.byte	1
 102 001b 00       		.byte	0
 103 001c 02       		.byte	2
 104 001d 00       		.byte	0
 105 001e 01       		.byte	1
 106 001f 00       		.byte	0
 107 0020 03       		.byte	3
 108 0021 00       		.byte	0
 109 0022 01       		.byte	1
 110 0023 00       		.byte	0
 111 0024 02       		.byte	2
 112 0025 00       		.byte	0
 113 0026 01       		.byte	1
 114 0027 00       		.byte	0
 115 0028 05       		.byte	5
 116 0029 00       		.byte	0
 117 002a 01       		.byte	1
 118 002b 00       		.byte	0
 119 002c 02       		.byte	2
 120 002d 00       		.byte	0
 121 002e 01       		.byte	1
 122 002f 00       		.byte	0
 123 0030 03       		.byte	3
 124 0031 00       		.byte	0
 125 0032 01       		.byte	1
 126 0033 00       		.byte	0
 127 0034 02       		.byte	2
 128 0035 00       		.byte	0
 129 0036 01       		.byte	1
 130 0037 00       		.byte	0
 131 0038 04       		.byte	4
 132 0039 00       		.byte	0
 133 003a 01       		.byte	1
 134 003b 00       		.byte	0
 135 003c 02       		.byte	2
 136 003d 00       		.byte	0
 137 003e 01       		.byte	1
 138 003f 00       		.byte	0
 139 0040 03       		.byte	3
 140 0041 00       		.byte	0
 141 0042 01       		.byte	1
 142 0043 00       		.byte	0
 143 0044 02       		.byte	2
ARM GAS  G:\Users\Jaxb\AppData\Local\Temp\ccDpynBW.s 			page 5


 144 0045 00       		.byte	0
 145 0046 01       		.byte	1
 146 0047 00       		.byte	0
 147 0048 06       		.byte	6
 148 0049 00       		.byte	0
 149 004a 01       		.byte	1
 150 004b 00       		.byte	0
 151 004c 02       		.byte	2
 152 004d 00       		.byte	0
 153 004e 01       		.byte	1
 154 004f 00       		.byte	0
 155 0050 03       		.byte	3
 156 0051 00       		.byte	0
 157 0052 01       		.byte	1
 158 0053 00       		.byte	0
 159 0054 02       		.byte	2
 160 0055 00       		.byte	0
 161 0056 01       		.byte	1
 162 0057 00       		.byte	0
 163 0058 04       		.byte	4
 164 0059 00       		.byte	0
 165 005a 01       		.byte	1
 166 005b 00       		.byte	0
 167 005c 02       		.byte	2
 168 005d 00       		.byte	0
 169 005e 01       		.byte	1
 170 005f 00       		.byte	0
 171 0060 03       		.byte	3
 172 0061 00       		.byte	0
 173 0062 01       		.byte	1
 174 0063 00       		.byte	0
 175 0064 02       		.byte	2
 176 0065 00       		.byte	0
 177 0066 01       		.byte	1
 178 0067 00       		.byte	0
 179 0068 05       		.byte	5
 180 0069 00       		.byte	0
 181 006a 01       		.byte	1
 182 006b 00       		.byte	0
 183 006c 02       		.byte	2
 184 006d 00       		.byte	0
 185 006e 01       		.byte	1
 186 006f 00       		.byte	0
 187 0070 03       		.byte	3
 188 0071 00       		.byte	0
 189 0072 01       		.byte	1
 190 0073 00       		.byte	0
 191 0074 02       		.byte	2
 192 0075 00       		.byte	0
 193 0076 01       		.byte	1
 194 0077 00       		.byte	0
 195 0078 04       		.byte	4
 196 0079 00       		.byte	0
 197 007a 01       		.byte	1
 198 007b 00       		.byte	0
 199 007c 02       		.byte	2
 200 007d 00       		.byte	0
ARM GAS  G:\Users\Jaxb\AppData\Local\Temp\ccDpynBW.s 			page 6


 201 007e 01       		.byte	1
 202 007f 00       		.byte	0
 203 0080 03       		.byte	3
 204 0081 00       		.byte	0
 205 0082 01       		.byte	1
 206 0083 00       		.byte	0
 207 0084 02       		.byte	2
 208 0085 00       		.byte	0
 209 0086 01       		.byte	1
 210 0087 00       		.byte	0
 211 0088 07       		.byte	7
 212 0089 00       		.byte	0
 213 008a 01       		.byte	1
 214 008b 00       		.byte	0
 215 008c 02       		.byte	2
 216 008d 00       		.byte	0
 217 008e 01       		.byte	1
 218 008f 00       		.byte	0
 219 0090 03       		.byte	3
 220 0091 00       		.byte	0
 221 0092 01       		.byte	1
 222 0093 00       		.byte	0
 223 0094 02       		.byte	2
 224 0095 00       		.byte	0
 225 0096 01       		.byte	1
 226 0097 00       		.byte	0
 227 0098 04       		.byte	4
 228 0099 00       		.byte	0
 229 009a 01       		.byte	1
 230 009b 00       		.byte	0
 231 009c 02       		.byte	2
 232 009d 00       		.byte	0
 233 009e 01       		.byte	1
 234 009f 00       		.byte	0
 235 00a0 03       		.byte	3
 236 00a1 00       		.byte	0
 237 00a2 01       		.byte	1
 238 00a3 00       		.byte	0
 239 00a4 02       		.byte	2
 240 00a5 00       		.byte	0
 241 00a6 01       		.byte	1
 242 00a7 00       		.byte	0
 243 00a8 05       		.byte	5
 244 00a9 00       		.byte	0
 245 00aa 01       		.byte	1
 246 00ab 00       		.byte	0
 247 00ac 02       		.byte	2
 248 00ad 00       		.byte	0
 249 00ae 01       		.byte	1
 250 00af 00       		.byte	0
 251 00b0 03       		.byte	3
 252 00b1 00       		.byte	0
 253 00b2 01       		.byte	1
 254 00b3 00       		.byte	0
 255 00b4 02       		.byte	2
 256 00b5 00       		.byte	0
 257 00b6 01       		.byte	1
ARM GAS  G:\Users\Jaxb\AppData\Local\Temp\ccDpynBW.s 			page 7


 258 00b7 00       		.byte	0
 259 00b8 04       		.byte	4
 260 00b9 00       		.byte	0
 261 00ba 01       		.byte	1
 262 00bb 00       		.byte	0
 263 00bc 02       		.byte	2
 264 00bd 00       		.byte	0
 265 00be 01       		.byte	1
 266 00bf 00       		.byte	0
 267 00c0 03       		.byte	3
 268 00c1 00       		.byte	0
 269 00c2 01       		.byte	1
 270 00c3 00       		.byte	0
 271 00c4 02       		.byte	2
 272 00c5 00       		.byte	0
 273 00c6 01       		.byte	1
 274 00c7 00       		.byte	0
 275 00c8 06       		.byte	6
 276 00c9 00       		.byte	0
 277 00ca 01       		.byte	1
 278 00cb 00       		.byte	0
 279 00cc 02       		.byte	2
 280 00cd 00       		.byte	0
 281 00ce 01       		.byte	1
 282 00cf 00       		.byte	0
 283 00d0 03       		.byte	3
 284 00d1 00       		.byte	0
 285 00d2 01       		.byte	1
 286 00d3 00       		.byte	0
 287 00d4 02       		.byte	2
 288 00d5 00       		.byte	0
 289 00d6 01       		.byte	1
 290 00d7 00       		.byte	0
 291 00d8 04       		.byte	4
 292 00d9 00       		.byte	0
 293 00da 01       		.byte	1
 294 00db 00       		.byte	0
 295 00dc 02       		.byte	2
 296 00dd 00       		.byte	0
 297 00de 01       		.byte	1
 298 00df 00       		.byte	0
 299 00e0 03       		.byte	3
 300 00e1 00       		.byte	0
 301 00e2 01       		.byte	1
 302 00e3 00       		.byte	0
 303 00e4 02       		.byte	2
 304 00e5 00       		.byte	0
 305 00e6 01       		.byte	1
 306 00e7 00       		.byte	0
 307 00e8 05       		.byte	5
 308 00e9 00       		.byte	0
 309 00ea 01       		.byte	1
 310 00eb 00       		.byte	0
 311 00ec 02       		.byte	2
 312 00ed 00       		.byte	0
 313 00ee 01       		.byte	1
 314 00ef 00       		.byte	0
ARM GAS  G:\Users\Jaxb\AppData\Local\Temp\ccDpynBW.s 			page 8


 315 00f0 03       		.byte	3
 316 00f1 00       		.byte	0
 317 00f2 01       		.byte	1
 318 00f3 00       		.byte	0
 319 00f4 02       		.byte	2
 320 00f5 00       		.byte	0
 321 00f6 01       		.byte	1
 322 00f7 00       		.byte	0
 323 00f8 04       		.byte	4
 324 00f9 00       		.byte	0
 325 00fa 01       		.byte	1
 326 00fb 00       		.byte	0
 327 00fc 02       		.byte	2
 328 00fd 00       		.byte	0
 329 00fe 01       		.byte	1
 330 00ff 00       		.byte	0
 331 0100 03       		.byte	3
 332 0101 00       		.byte	0
 333 0102 01       		.byte	1
 334 0103 00       		.byte	0
 335 0104 02       		.byte	2
 336 0105 00       		.byte	0
 337 0106 01       		.byte	1
 338 0107 00       		.byte	0
 339              		.bss
 340              	ready_group:
 341 0000 00       		.space	1
 342              		.size	ready_group, 1
 343 0001 000000   		.align	2
 344              	ready_table:
 345 0004 00000000 		.space	8
 345      00000000 
 346              		.size	ready_table, 8
 347              		.text
 348              		.align	1
 349              		.global	__init_ready_group
 350              		.syntax unified
 351              		.thumb
 352              		.thumb_func
 353              		.fpu softvfp
 354              		.type	__init_ready_group, %function
 355              	__init_ready_group:
 356              	.LFB20:
 357              		.file 2 "../../source/src/kernel/OS_CORE/schedule/os_ready.c"
   1:../../source/src/kernel/OS_CORE/schedule/os_ready.c **** #include "os_ready.h"
   2:../../source/src/kernel/OS_CORE/schedule/os_ready.c **** #include "heap_oo.h"
   3:../../source/src/kernel/OS_CORE/schedule/os_ready.c **** #include "myassert.h"
   4:../../source/src/kernel/OS_CORE/schedule/os_ready.c **** #include "os_TCB_list.h"
   5:../../source/src/kernel/OS_CORE/schedule/os_ready.c **** #include "os_error.h"
   6:../../source/src/kernel/OS_CORE/schedule/os_ready.c **** #include "myMicroLIB.h"
   7:../../source/src/kernel/OS_CORE/schedule/os_ready.c **** #include "task_state.h"
   8:../../source/src/kernel/OS_CORE/schedule/os_ready.c **** 
   9:../../source/src/kernel/OS_CORE/schedule/os_ready.c **** /*==============================================*/
  10:../../source/src/kernel/OS_CORE/schedule/os_ready.c **** /*this typedef associate with macro PRIO_MAX in TCB.h*/
  11:../../source/src/kernel/OS_CORE/schedule/os_ready.c **** typedef unsigned char READY_GROUP_TYPE;
  12:../../source/src/kernel/OS_CORE/schedule/os_ready.c **** typedef unsigned char READY_TABLE_TYPE;
  13:../../source/src/kernel/OS_CORE/schedule/os_ready.c **** 
ARM GAS  G:\Users\Jaxb\AppData\Local\Temp\ccDpynBW.s 			page 9


  14:../../source/src/kernel/OS_CORE/schedule/os_ready.c **** static const READY_TABLE_TYPE map[8*sizeof(READY_GROUP_TYPE)] = {
  15:../../source/src/kernel/OS_CORE/schedule/os_ready.c **** 	0x01,
  16:../../source/src/kernel/OS_CORE/schedule/os_ready.c **** 	0x02,
  17:../../source/src/kernel/OS_CORE/schedule/os_ready.c **** 	0x04,
  18:../../source/src/kernel/OS_CORE/schedule/os_ready.c **** 	0x08,
  19:../../source/src/kernel/OS_CORE/schedule/os_ready.c **** 	0x10,
  20:../../source/src/kernel/OS_CORE/schedule/os_ready.c **** 	0x20,
  21:../../source/src/kernel/OS_CORE/schedule/os_ready.c **** 	0x40,
  22:../../source/src/kernel/OS_CORE/schedule/os_ready.c **** 	0x80
  23:../../source/src/kernel/OS_CORE/schedule/os_ready.c **** };
  24:../../source/src/kernel/OS_CORE/schedule/os_ready.c **** static const INT8 unmap[256] = { 
  25:../../source/src/kernel/OS_CORE/schedule/os_ready.c ****     0, 0, 1, 0, 2, 0, 1, 0, 3, 0, 1, 0, 2, 0, 1, 0,       /* 0x00 to 0x0F  */ 
  26:../../source/src/kernel/OS_CORE/schedule/os_ready.c ****     4, 0, 1, 0, 2, 0, 1, 0, 3, 0, 1, 0, 2, 0, 1, 0,       /* 0x10 to 0x1F  */ 
  27:../../source/src/kernel/OS_CORE/schedule/os_ready.c ****     5, 0, 1, 0, 2, 0, 1, 0, 3, 0, 1, 0, 2, 0, 1, 0,       /* 0x20 to 0x2F  */ 
  28:../../source/src/kernel/OS_CORE/schedule/os_ready.c ****     4, 0, 1, 0, 2, 0, 1, 0, 3, 0, 1, 0, 2, 0, 1, 0,       /* 0x30 to 0x3F  */ 
  29:../../source/src/kernel/OS_CORE/schedule/os_ready.c ****     6, 0, 1, 0, 2, 0, 1, 0, 3, 0, 1, 0, 2, 0, 1, 0,       /* 0x40 to 0x4F  */ 
  30:../../source/src/kernel/OS_CORE/schedule/os_ready.c ****     4, 0, 1, 0, 2, 0, 1, 0, 3, 0, 1, 0, 2, 0, 1, 0,       /* 0x50 to 0x5F  */ 
  31:../../source/src/kernel/OS_CORE/schedule/os_ready.c ****     5, 0, 1, 0, 2, 0, 1, 0, 3, 0, 1, 0, 2, 0, 1, 0,       /* 0x60 to 0x6F  */ 
  32:../../source/src/kernel/OS_CORE/schedule/os_ready.c ****     4, 0, 1, 0, 2, 0, 1, 0, 3, 0, 1, 0, 2, 0, 1, 0,       /* 0x70 to 0x7F  */ 
  33:../../source/src/kernel/OS_CORE/schedule/os_ready.c ****     7, 0, 1, 0, 2, 0, 1, 0, 3, 0, 1, 0, 2, 0, 1, 0,       /* 0x80 to 0x8F  */ 
  34:../../source/src/kernel/OS_CORE/schedule/os_ready.c ****     4, 0, 1, 0, 2, 0, 1, 0, 3, 0, 1, 0, 2, 0, 1, 0,       /* 0x90 to 0x9F  */ 
  35:../../source/src/kernel/OS_CORE/schedule/os_ready.c ****     5, 0, 1, 0, 2, 0, 1, 0, 3, 0, 1, 0, 2, 0, 1, 0,       /* 0xA0 to 0xAF  */ 
  36:../../source/src/kernel/OS_CORE/schedule/os_ready.c ****     4, 0, 1, 0, 2, 0, 1, 0, 3, 0, 1, 0, 2, 0, 1, 0,       /* 0xB0 to 0xBF  */ 
  37:../../source/src/kernel/OS_CORE/schedule/os_ready.c ****     6, 0, 1, 0, 2, 0, 1, 0, 3, 0, 1, 0, 2, 0, 1, 0,       /* 0xC0 to 0xCF  */ 
  38:../../source/src/kernel/OS_CORE/schedule/os_ready.c ****     4, 0, 1, 0, 2, 0, 1, 0, 3, 0, 1, 0, 2, 0, 1, 0,       /* 0xD0 to 0xDF  */ 
  39:../../source/src/kernel/OS_CORE/schedule/os_ready.c ****     5, 0, 1, 0, 2, 0, 1, 0, 3, 0, 1, 0, 2, 0, 1, 0,       /* 0xE0 to 0xEF  */ 
  40:../../source/src/kernel/OS_CORE/schedule/os_ready.c ****     4, 0, 1, 0, 2, 0, 1, 0, 3, 0, 1, 0, 2, 0, 1, 0        /* 0xF0 to 0xFF  */ 
  41:../../source/src/kernel/OS_CORE/schedule/os_ready.c **** }; 
  42:../../source/src/kernel/OS_CORE/schedule/os_ready.c **** 
  43:../../source/src/kernel/OS_CORE/schedule/os_ready.c **** static READY_GROUP_TYPE ready_group;
  44:../../source/src/kernel/OS_CORE/schedule/os_ready.c **** static READY_TABLE_TYPE ready_table[PRIO_MAX/(sizeof(READY_TABLE_TYPE)*8)];
  45:../../source/src/kernel/OS_CORE/schedule/os_ready.c **** /*==============================================*/
  46:../../source/src/kernel/OS_CORE/schedule/os_ready.c **** 
  47:../../source/src/kernel/OS_CORE/schedule/os_ready.c **** void __init_ready_group(void)
  48:../../source/src/kernel/OS_CORE/schedule/os_ready.c **** {
 358              		.loc 2 48 0
 359              		.cfi_startproc
 360              		@ args = 0, pretend = 0, frame = 8
 361              		@ frame_needed = 1, uses_anonymous_args = 0
 362              		@ link register save eliminated.
 363 0022 80B4     		push	{r7}
 364              	.LCFI6:
 365              		.cfi_def_cfa_offset 4
 366              		.cfi_offset 7, -4
 367 0024 83B0     		sub	sp, sp, #12
 368              	.LCFI7:
 369              		.cfi_def_cfa_offset 16
 370 0026 00AF     		add	r7, sp, #0
 371              	.LCFI8:
 372              		.cfi_def_cfa_register 7
  49:../../source/src/kernel/OS_CORE/schedule/os_ready.c **** 	unsigned int i;
  50:../../source/src/kernel/OS_CORE/schedule/os_ready.c **** 	ready_group = 0;
 373              		.loc 2 50 0
 374 0028 0A4B     		ldr	r3, .L6
 375 002a 0022     		movs	r2, #0
 376 002c 1A70     		strb	r2, [r3]
  51:../../source/src/kernel/OS_CORE/schedule/os_ready.c **** 	for(i=0;i<PRIO_MAX/(sizeof(READY_TABLE_TYPE)*8);++i)
ARM GAS  G:\Users\Jaxb\AppData\Local\Temp\ccDpynBW.s 			page 10


 377              		.loc 2 51 0
 378 002e 0023     		movs	r3, #0
 379 0030 7B60     		str	r3, [r7, #4]
 380 0032 07E0     		b	.L4
 381              	.L5:
  52:../../source/src/kernel/OS_CORE/schedule/os_ready.c **** 	{
  53:../../source/src/kernel/OS_CORE/schedule/os_ready.c **** 		ready_table[i] = 0;
 382              		.loc 2 53 0 discriminator 3
 383 0034 084A     		ldr	r2, .L6+4
 384 0036 7B68     		ldr	r3, [r7, #4]
 385 0038 1344     		add	r3, r3, r2
 386 003a 0022     		movs	r2, #0
 387 003c 1A70     		strb	r2, [r3]
  51:../../source/src/kernel/OS_CORE/schedule/os_ready.c **** 	for(i=0;i<PRIO_MAX/(sizeof(READY_TABLE_TYPE)*8);++i)
 388              		.loc 2 51 0 discriminator 3
 389 003e 7B68     		ldr	r3, [r7, #4]
 390 0040 0133     		adds	r3, r3, #1
 391 0042 7B60     		str	r3, [r7, #4]
 392              	.L4:
  51:../../source/src/kernel/OS_CORE/schedule/os_ready.c **** 	for(i=0;i<PRIO_MAX/(sizeof(READY_TABLE_TYPE)*8);++i)
 393              		.loc 2 51 0 is_stmt 0 discriminator 1
 394 0044 7B68     		ldr	r3, [r7, #4]
 395 0046 072B     		cmp	r3, #7
 396 0048 F4D9     		bls	.L5
  54:../../source/src/kernel/OS_CORE/schedule/os_ready.c **** 	}
  55:../../source/src/kernel/OS_CORE/schedule/os_ready.c **** }
 397              		.loc 2 55 0 is_stmt 1
 398 004a 00BF     		nop
 399 004c 0C37     		adds	r7, r7, #12
 400              	.LCFI9:
 401              		.cfi_def_cfa_offset 4
 402 004e BD46     		mov	sp, r7
 403              	.LCFI10:
 404              		.cfi_def_cfa_register 13
 405              		@ sp needed
 406 0050 80BC     		pop	{r7}
 407              	.LCFI11:
 408              		.cfi_restore 7
 409              		.cfi_def_cfa_offset 0
 410 0052 7047     		bx	lr
 411              	.L7:
 412              		.align	2
 413              	.L6:
 414 0054 00000000 		.word	ready_group
 415 0058 04000000 		.word	ready_table
 416              		.cfi_endproc
 417              	.LFE20:
 418              		.size	__init_ready_group, .-__init_ready_group
 419              		.section	.rodata
 420              		.align	2
 421              	.LC0:
 422 0108 2E2E2F2E 		.ascii	"../../source/src/kernel/OS_CORE/schedule/os_ready.c"
 422      2E2F736F 
 422      75726365 
 422      2F737263 
 422      2F6B6572 
 423 013b 00       		.ascii	"\000"
ARM GAS  G:\Users\Jaxb\AppData\Local\Temp\ccDpynBW.s 			page 11


 424              		.text
 425              		.align	1
 426              		.global	_insert_ready_TCB
 427              		.syntax unified
 428              		.thumb
 429              		.thumb_func
 430              		.fpu softvfp
 431              		.type	_insert_ready_TCB, %function
 432              	_insert_ready_TCB:
 433              	.LFB21:
  56:../../source/src/kernel/OS_CORE/schedule/os_ready.c **** 
  57:../../source/src/kernel/OS_CORE/schedule/os_ready.c **** int _insert_ready_TCB(TCB *TCB_ptr)
  58:../../source/src/kernel/OS_CORE/schedule/os_ready.c **** {
 434              		.loc 2 58 0
 435              		.cfi_startproc
 436              		@ args = 0, pretend = 0, frame = 8
 437              		@ frame_needed = 1, uses_anonymous_args = 0
 438 005c 80B5     		push	{r7, lr}
 439              	.LCFI12:
 440              		.cfi_def_cfa_offset 8
 441              		.cfi_offset 7, -8
 442              		.cfi_offset 14, -4
 443 005e 82B0     		sub	sp, sp, #8
 444              	.LCFI13:
 445              		.cfi_def_cfa_offset 16
 446 0060 00AF     		add	r7, sp, #0
 447              	.LCFI14:
 448              		.cfi_def_cfa_register 7
 449 0062 7860     		str	r0, [r7, #4]
  59:../../source/src/kernel/OS_CORE/schedule/os_ready.c **** 	ASSERT(NULL != TCB_ptr);
 450              		.loc 2 59 0
 451 0064 7B68     		ldr	r3, [r7, #4]
 452 0066 002B     		cmp	r3, #0
 453 0068 03D1     		bne	.L9
 454              		.loc 2 59 0 is_stmt 0 discriminator 1
 455 006a 3B21     		movs	r1, #59
 456 006c 1448     		ldr	r0, .L11
 457 006e FFF7FEFF 		bl	_ASSERT
 458              	.L9:
  60:../../source/src/kernel/OS_CORE/schedule/os_ready.c **** 	TCB_ptr->task_state = STATE_READY;
 459              		.loc 2 60 0 is_stmt 1
 460 0072 7B68     		ldr	r3, [r7, #4]
 461 0074 0122     		movs	r2, #1
 462 0076 1A74     		strb	r2, [r3, #16]
  61:../../source/src/kernel/OS_CORE/schedule/os_ready.c **** 	_increase_ready_num(TCB_ptr->prio);
 463              		.loc 2 61 0
 464 0078 7B68     		ldr	r3, [r7, #4]
 465 007a 5B69     		ldr	r3, [r3, #20]
 466 007c 1846     		mov	r0, r3
 467 007e FFF7FEFF 		bl	_increase_ready_num
  62:../../source/src/kernel/OS_CORE/schedule/os_ready.c **** 	/*deal with the ready_group and ready_table*/
  63:../../source/src/kernel/OS_CORE/schedule/os_ready.c **** 	ready_group |= map[TCB_ptr->prio / (8*sizeof(READY_GROUP_TYPE))];
 468              		.loc 2 63 0
 469 0082 7B68     		ldr	r3, [r7, #4]
 470 0084 5B69     		ldr	r3, [r3, #20]
 471 0086 DB08     		lsrs	r3, r3, #3
 472 0088 0E4A     		ldr	r2, .L11+4
ARM GAS  G:\Users\Jaxb\AppData\Local\Temp\ccDpynBW.s 			page 12


 473 008a D25C     		ldrb	r2, [r2, r3]	@ zero_extendqisi2
 474 008c 0E4B     		ldr	r3, .L11+8
 475 008e 1B78     		ldrb	r3, [r3]	@ zero_extendqisi2
 476 0090 1343     		orrs	r3, r3, r2
 477 0092 DAB2     		uxtb	r2, r3
 478 0094 0C4B     		ldr	r3, .L11+8
 479 0096 1A70     		strb	r2, [r3]
  64:../../source/src/kernel/OS_CORE/schedule/os_ready.c **** 	ready_table[TCB_ptr->prio / (8*sizeof(READY_GROUP_TYPE))] |= map[TCB_ptr->prio & 0x07];/*0x07 is a
 480              		.loc 2 64 0
 481 0098 7B68     		ldr	r3, [r7, #4]
 482 009a 5B69     		ldr	r3, [r3, #20]
 483 009c DB08     		lsrs	r3, r3, #3
 484 009e 0B4A     		ldr	r2, .L11+12
 485 00a0 D15C     		ldrb	r1, [r2, r3]	@ zero_extendqisi2
 486 00a2 7A68     		ldr	r2, [r7, #4]
 487 00a4 5269     		ldr	r2, [r2, #20]
 488 00a6 02F00702 		and	r2, r2, #7
 489 00aa 0648     		ldr	r0, .L11+4
 490 00ac 825C     		ldrb	r2, [r0, r2]	@ zero_extendqisi2
 491 00ae 0A43     		orrs	r2, r2, r1
 492 00b0 D1B2     		uxtb	r1, r2
 493 00b2 064A     		ldr	r2, .L11+12
 494 00b4 D154     		strb	r1, [r2, r3]
  65:../../source/src/kernel/OS_CORE/schedule/os_ready.c **** 	return FUN_EXECUTE_SUCCESSFULLY;
 495              		.loc 2 65 0
 496 00b6 0023     		movs	r3, #0
  66:../../source/src/kernel/OS_CORE/schedule/os_ready.c **** }
 497              		.loc 2 66 0
 498 00b8 1846     		mov	r0, r3
 499 00ba 0837     		adds	r7, r7, #8
 500              	.LCFI15:
 501              		.cfi_def_cfa_offset 8
 502 00bc BD46     		mov	sp, r7
 503              	.LCFI16:
 504              		.cfi_def_cfa_register 13
 505              		@ sp needed
 506 00be 80BD     		pop	{r7, pc}
 507              	.L12:
 508              		.align	2
 509              	.L11:
 510 00c0 08010000 		.word	.LC0
 511 00c4 00000000 		.word	map
 512 00c8 00000000 		.word	ready_group
 513 00cc 04000000 		.word	ready_table
 514              		.cfi_endproc
 515              	.LFE21:
 516              		.size	_insert_ready_TCB, .-_insert_ready_TCB
 517              		.align	1
 518              		.global	_delete_TCB_from_ready
 519              		.syntax unified
 520              		.thumb
 521              		.thumb_func
 522              		.fpu softvfp
 523              		.type	_delete_TCB_from_ready, %function
 524              	_delete_TCB_from_ready:
 525              	.LFB22:
  67:../../source/src/kernel/OS_CORE/schedule/os_ready.c **** 
ARM GAS  G:\Users\Jaxb\AppData\Local\Temp\ccDpynBW.s 			page 13


  68:../../source/src/kernel/OS_CORE/schedule/os_ready.c **** /*if os delete a task,use _delete_from_TCB_list() first*/
  69:../../source/src/kernel/OS_CORE/schedule/os_ready.c **** int _delete_TCB_from_ready(TCB *TCB_ptr)
  70:../../source/src/kernel/OS_CORE/schedule/os_ready.c **** {
 526              		.loc 2 70 0
 527              		.cfi_startproc
 528              		@ args = 0, pretend = 0, frame = 8
 529              		@ frame_needed = 1, uses_anonymous_args = 0
 530 00d0 80B5     		push	{r7, lr}
 531              	.LCFI17:
 532              		.cfi_def_cfa_offset 8
 533              		.cfi_offset 7, -8
 534              		.cfi_offset 14, -4
 535 00d2 82B0     		sub	sp, sp, #8
 536              	.LCFI18:
 537              		.cfi_def_cfa_offset 16
 538 00d4 00AF     		add	r7, sp, #0
 539              	.LCFI19:
 540              		.cfi_def_cfa_register 7
 541 00d6 7860     		str	r0, [r7, #4]
  71:../../source/src/kernel/OS_CORE/schedule/os_ready.c **** 	ASSERT(NULL != TCB_ptr);
 542              		.loc 2 71 0
 543 00d8 7B68     		ldr	r3, [r7, #4]
 544 00da 002B     		cmp	r3, #0
 545 00dc 03D1     		bne	.L14
 546              		.loc 2 71 0 is_stmt 0 discriminator 1
 547 00de 4721     		movs	r1, #71
 548 00e0 2048     		ldr	r0, .L18
 549 00e2 FFF7FEFF 		bl	_ASSERT
 550              	.L14:
  72:../../source/src/kernel/OS_CORE/schedule/os_ready.c **** 	_decrease_ready_num(TCB_ptr->prio);
 551              		.loc 2 72 0 is_stmt 1
 552 00e6 7B68     		ldr	r3, [r7, #4]
 553 00e8 5B69     		ldr	r3, [r3, #20]
 554 00ea 1846     		mov	r0, r3
 555 00ec FFF7FEFF 		bl	_decrease_ready_num
  73:../../source/src/kernel/OS_CORE/schedule/os_ready.c **** 	if(0 != _get_ready_num_from_TCB_list(TCB_ptr->prio))
 556              		.loc 2 73 0
 557 00f0 7B68     		ldr	r3, [r7, #4]
 558 00f2 5B69     		ldr	r3, [r3, #20]
 559 00f4 1846     		mov	r0, r3
 560 00f6 FFF7FEFF 		bl	_get_ready_num_from_TCB_list
 561 00fa 0346     		mov	r3, r0
 562 00fc 002B     		cmp	r3, #0
 563 00fe 01D0     		beq	.L15
  74:../../source/src/kernel/OS_CORE/schedule/os_ready.c **** 	{
  75:../../source/src/kernel/OS_CORE/schedule/os_ready.c **** 		return FUN_EXECUTE_SUCCESSFULLY;
 564              		.loc 2 75 0
 565 0100 0023     		movs	r3, #0
 566 0102 2BE0     		b	.L16
 567              	.L15:
  76:../../source/src/kernel/OS_CORE/schedule/os_ready.c **** 	}
  77:../../source/src/kernel/OS_CORE/schedule/os_ready.c **** 	/*first deal with the ready_table*/
  78:../../source/src/kernel/OS_CORE/schedule/os_ready.c **** 	ready_table[TCB_ptr->prio / (8*sizeof(READY_GROUP_TYPE))] &= ~map[TCB_ptr->prio & 0x07];/*0x07 is 
 568              		.loc 2 78 0
 569 0104 7B68     		ldr	r3, [r7, #4]
 570 0106 5B69     		ldr	r3, [r3, #20]
 571 0108 DB08     		lsrs	r3, r3, #3
ARM GAS  G:\Users\Jaxb\AppData\Local\Temp\ccDpynBW.s 			page 14


 572 010a 174A     		ldr	r2, .L18+4
 573 010c D25C     		ldrb	r2, [r2, r3]	@ zero_extendqisi2
 574 010e 51B2     		sxtb	r1, r2
 575 0110 7A68     		ldr	r2, [r7, #4]
 576 0112 5269     		ldr	r2, [r2, #20]
 577 0114 02F00702 		and	r2, r2, #7
 578 0118 1448     		ldr	r0, .L18+8
 579 011a 825C     		ldrb	r2, [r0, r2]	@ zero_extendqisi2
 580 011c 52B2     		sxtb	r2, r2
 581 011e D243     		mvns	r2, r2
 582 0120 52B2     		sxtb	r2, r2
 583 0122 0A40     		ands	r2, r2, r1
 584 0124 52B2     		sxtb	r2, r2
 585 0126 D1B2     		uxtb	r1, r2
 586 0128 0F4A     		ldr	r2, .L18+4
 587 012a D154     		strb	r1, [r2, r3]
  79:../../source/src/kernel/OS_CORE/schedule/os_ready.c **** 	/*if the ready_table[index] is 0 after resetting,deal with ready_group*/
  80:../../source/src/kernel/OS_CORE/schedule/os_ready.c **** 	if(0 == ready_table[TCB_ptr->prio / (8*sizeof(READY_GROUP_TYPE))])
 588              		.loc 2 80 0
 589 012c 7B68     		ldr	r3, [r7, #4]
 590 012e 5B69     		ldr	r3, [r3, #20]
 591 0130 DB08     		lsrs	r3, r3, #3
 592 0132 0D4A     		ldr	r2, .L18+4
 593 0134 D35C     		ldrb	r3, [r2, r3]	@ zero_extendqisi2
 594 0136 002B     		cmp	r3, #0
 595 0138 0FD1     		bne	.L17
  81:../../source/src/kernel/OS_CORE/schedule/os_ready.c **** 	{
  82:../../source/src/kernel/OS_CORE/schedule/os_ready.c **** 		ready_group &= ~map[TCB_ptr->prio / (8*sizeof(READY_GROUP_TYPE))];
 596              		.loc 2 82 0
 597 013a 7B68     		ldr	r3, [r7, #4]
 598 013c 5B69     		ldr	r3, [r3, #20]
 599 013e DB08     		lsrs	r3, r3, #3
 600 0140 0A4A     		ldr	r2, .L18+8
 601 0142 D35C     		ldrb	r3, [r2, r3]	@ zero_extendqisi2
 602 0144 5BB2     		sxtb	r3, r3
 603 0146 DB43     		mvns	r3, r3
 604 0148 5AB2     		sxtb	r2, r3
 605 014a 094B     		ldr	r3, .L18+12
 606 014c 1B78     		ldrb	r3, [r3]	@ zero_extendqisi2
 607 014e 5BB2     		sxtb	r3, r3
 608 0150 1340     		ands	r3, r3, r2
 609 0152 5BB2     		sxtb	r3, r3
 610 0154 DAB2     		uxtb	r2, r3
 611 0156 064B     		ldr	r3, .L18+12
 612 0158 1A70     		strb	r2, [r3]
 613              	.L17:
  83:../../source/src/kernel/OS_CORE/schedule/os_ready.c **** 	}
  84:../../source/src/kernel/OS_CORE/schedule/os_ready.c **** 	return FUN_EXECUTE_SUCCESSFULLY;
 614              		.loc 2 84 0
 615 015a 0023     		movs	r3, #0
 616              	.L16:
  85:../../source/src/kernel/OS_CORE/schedule/os_ready.c **** }
 617              		.loc 2 85 0
 618 015c 1846     		mov	r0, r3
 619 015e 0837     		adds	r7, r7, #8
 620              	.LCFI20:
 621              		.cfi_def_cfa_offset 8
ARM GAS  G:\Users\Jaxb\AppData\Local\Temp\ccDpynBW.s 			page 15


 622 0160 BD46     		mov	sp, r7
 623              	.LCFI21:
 624              		.cfi_def_cfa_register 13
 625              		@ sp needed
 626 0162 80BD     		pop	{r7, pc}
 627              	.L19:
 628              		.align	2
 629              	.L18:
 630 0164 08010000 		.word	.LC0
 631 0168 04000000 		.word	ready_table
 632 016c 00000000 		.word	map
 633 0170 00000000 		.word	ready_group
 634              		.cfi_endproc
 635              	.LFE22:
 636              		.size	_delete_TCB_from_ready, .-_delete_TCB_from_ready
 637              		.align	1
 638              		.global	_get_highest_prio_ready_TCB
 639              		.syntax unified
 640              		.thumb
 641              		.thumb_func
 642              		.fpu softvfp
 643              		.type	_get_highest_prio_ready_TCB, %function
 644              	_get_highest_prio_ready_TCB:
 645              	.LFB23:
  86:../../source/src/kernel/OS_CORE/schedule/os_ready.c **** 
  87:../../source/src/kernel/OS_CORE/schedule/os_ready.c **** TCB *_get_highest_prio_ready_TCB(void)
  88:../../source/src/kernel/OS_CORE/schedule/os_ready.c **** {
 646              		.loc 2 88 0
 647              		.cfi_startproc
 648              		@ args = 0, pretend = 0, frame = 24
 649              		@ frame_needed = 1, uses_anonymous_args = 0
 650 0174 80B5     		push	{r7, lr}
 651              	.LCFI22:
 652              		.cfi_def_cfa_offset 8
 653              		.cfi_offset 7, -8
 654              		.cfi_offset 14, -4
 655 0176 86B0     		sub	sp, sp, #24
 656              	.LCFI23:
 657              		.cfi_def_cfa_offset 32
 658 0178 00AF     		add	r7, sp, #0
 659              	.LCFI24:
 660              		.cfi_def_cfa_register 7
  89:../../source/src/kernel/OS_CORE/schedule/os_ready.c **** 	int y;
  90:../../source/src/kernel/OS_CORE/schedule/os_ready.c **** 	struct list_head *pos,*head;
  91:../../source/src/kernel/OS_CORE/schedule/os_ready.c **** 	TCB *TCB_ptr;
  92:../../source/src/kernel/OS_CORE/schedule/os_ready.c **** 	/*according to the ready_group and ready_table,get the highest priority
  93:../../source/src/kernel/OS_CORE/schedule/os_ready.c **** 	**than, get the respoding head of the same-priority TCB_list*/
  94:../../source/src/kernel/OS_CORE/schedule/os_ready.c **** 	y = unmap[ready_group]; // the lowest '1' bit
 661              		.loc 2 94 0
 662 017a 1A4B     		ldr	r3, .L25
 663 017c 1B78     		ldrb	r3, [r3]	@ zero_extendqisi2
 664 017e 1A46     		mov	r2, r3
 665 0180 194B     		ldr	r3, .L25+4
 666 0182 9B56     		ldrsb	r3, [r3, r2]
 667 0184 3B61     		str	r3, [r7, #16]
  95:../../source/src/kernel/OS_CORE/schedule/os_ready.c **** 	head = _get_from_TCB_list(y*8*sizeof(READY_TABLE_TYPE) + unmap[ready_table[y]]);
 668              		.loc 2 95 0
ARM GAS  G:\Users\Jaxb\AppData\Local\Temp\ccDpynBW.s 			page 16


 669 0186 3B69     		ldr	r3, [r7, #16]
 670 0188 DB00     		lsls	r3, r3, #3
 671 018a 1946     		mov	r1, r3
 672 018c 174A     		ldr	r2, .L25+8
 673 018e 3B69     		ldr	r3, [r7, #16]
 674 0190 1344     		add	r3, r3, r2
 675 0192 1B78     		ldrb	r3, [r3]	@ zero_extendqisi2
 676 0194 1A46     		mov	r2, r3
 677 0196 144B     		ldr	r3, .L25+4
 678 0198 9B56     		ldrsb	r3, [r3, r2]
 679 019a 0B44     		add	r3, r3, r1
 680 019c 1846     		mov	r0, r3
 681 019e FFF7FEFF 		bl	_get_from_TCB_list
 682 01a2 F860     		str	r0, [r7, #12]
  96:../../source/src/kernel/OS_CORE/schedule/os_ready.c **** 	list_for_each(pos,head)
 683              		.loc 2 96 0
 684 01a4 FB68     		ldr	r3, [r7, #12]
 685 01a6 1B68     		ldr	r3, [r3]
 686 01a8 7B61     		str	r3, [r7, #20]
 687 01aa 0DE0     		b	.L21
 688              	.L24:
 689              	.LBB2:
  97:../../source/src/kernel/OS_CORE/schedule/os_ready.c **** 	{
  98:../../source/src/kernel/OS_CORE/schedule/os_ready.c **** 		TCB_ptr = list_entry(pos,TCB,same_prio_list);
 690              		.loc 2 98 0
 691 01ac 7B69     		ldr	r3, [r7, #20]
 692 01ae BB60     		str	r3, [r7, #8]
 693 01b0 BB68     		ldr	r3, [r7, #8]
 694 01b2 1C3B     		subs	r3, r3, #28
 695              	.LBE2:
 696 01b4 7B60     		str	r3, [r7, #4]
  99:../../source/src/kernel/OS_CORE/schedule/os_ready.c **** 		if(STATE_READY == TCB_ptr->task_state)/*take the first TCB whose state is ready*/
 697              		.loc 2 99 0
 698 01b6 7B68     		ldr	r3, [r7, #4]
 699 01b8 1B7C     		ldrb	r3, [r3, #16]	@ zero_extendqisi2
 700 01ba 012B     		cmp	r3, #1
 701 01bc 01D1     		bne	.L22
 100:../../source/src/kernel/OS_CORE/schedule/os_ready.c **** 		{
 101:../../source/src/kernel/OS_CORE/schedule/os_ready.c **** 			return TCB_ptr;
 702              		.loc 2 101 0
 703 01be 7B68     		ldr	r3, [r7, #4]
 704 01c0 0BE0     		b	.L23
 705              	.L22:
  96:../../source/src/kernel/OS_CORE/schedule/os_ready.c **** 	{
 706              		.loc 2 96 0 discriminator 2
 707 01c2 7B69     		ldr	r3, [r7, #20]
 708 01c4 1B68     		ldr	r3, [r3]
 709 01c6 7B61     		str	r3, [r7, #20]
 710              	.L21:
  96:../../source/src/kernel/OS_CORE/schedule/os_ready.c **** 	{
 711              		.loc 2 96 0 is_stmt 0 discriminator 1
 712 01c8 7A69     		ldr	r2, [r7, #20]
 713 01ca FB68     		ldr	r3, [r7, #12]
 714 01cc 9A42     		cmp	r2, r3
 715 01ce EDD1     		bne	.L24
 102:../../source/src/kernel/OS_CORE/schedule/os_ready.c **** 		}
 103:../../source/src/kernel/OS_CORE/schedule/os_ready.c **** 	}
ARM GAS  G:\Users\Jaxb\AppData\Local\Temp\ccDpynBW.s 			page 17


 104:../../source/src/kernel/OS_CORE/schedule/os_ready.c **** 	/*should not go here*/
 105:../../source/src/kernel/OS_CORE/schedule/os_ready.c **** 	ASSERT(0);
 716              		.loc 2 105 0 is_stmt 1 discriminator 1
 717 01d0 6921     		movs	r1, #105
 718 01d2 0748     		ldr	r0, .L25+12
 719 01d4 FFF7FEFF 		bl	_ASSERT
 106:../../source/src/kernel/OS_CORE/schedule/os_ready.c **** 	return NULL;
 720              		.loc 2 106 0 discriminator 1
 721 01d8 0023     		movs	r3, #0
 722              	.L23:
 107:../../source/src/kernel/OS_CORE/schedule/os_ready.c **** }
 723              		.loc 2 107 0
 724 01da 1846     		mov	r0, r3
 725 01dc 1837     		adds	r7, r7, #24
 726              	.LCFI25:
 727              		.cfi_def_cfa_offset 8
 728 01de BD46     		mov	sp, r7
 729              	.LCFI26:
 730              		.cfi_def_cfa_register 13
 731              		@ sp needed
 732 01e0 80BD     		pop	{r7, pc}
 733              	.L26:
 734 01e2 00BF     		.align	2
 735              	.L25:
 736 01e4 00000000 		.word	ready_group
 737 01e8 08000000 		.word	unmap
 738 01ec 04000000 		.word	ready_table
 739 01f0 08010000 		.word	.LC0
 740              		.cfi_endproc
 741              	.LFE23:
 742              		.size	_get_highest_prio_ready_TCB, .-_get_highest_prio_ready_TCB
 743              		.section	.rodata
 744              		.align	2
 745              	.LC1:
 746 013c 72656164 		.ascii	"ready_group's bit %d error with ready_table[%d]\012"
 746      795F6772 
 746      6F757027 
 746      73206269 
 746      74202564 
 747 016c 00       		.ascii	"\000"
 748 016d 000000   		.align	2
 749              	.LC2:
 750 0170 6163636F 		.ascii	"according to TCB_list's information, check ready_ta"
 750      7264696E 
 750      6720746F 
 750      20544342 
 750      5F6C6973 
 751 01a3 626C652E 		.ascii	"ble...\012\000"
 751      2E2E0A00 
 752 01ab 00       		.align	2
 753              	.LC3:
 754 01ac 7072696F 		.ascii	"priority %d's map error\012\000"
 754      72697479 
 754      20256427 
 754      73206D61 
 754      70206572 
 755 01c5 000000   		.align	2
ARM GAS  G:\Users\Jaxb\AppData\Local\Temp\ccDpynBW.s 			page 18


 756              	.LC4:
 757 01c8 7072696F 		.ascii	"priority %d's ready_num error\012\000"
 757      72697479 
 757      20256427 
 757      73207265 
 757      6164795F 
 758 01e7 00       		.align	2
 759              	.LC5:
 760 01e8 7072696F 		.ascii	"priority %d's TCB_num error\012\000"
 760      72697479 
 760      20256427 
 760      73205443 
 760      425F6E75 
 761 0205 000000   		.align	2
 762              	.LC6:
 763 0208 636F6D70 		.ascii	"complete...\012\012\000"
 763      6C657465 
 763      2E2E2E0A 
 763      0A00
 764 0216 0000     		.align	2
 765              	.LC7:
 766 0218 6163636F 		.ascii	"according to ready_table's information, check TCB_l"
 766      7264696E 
 766      6720746F 
 766      20726561 
 766      64795F74 
 767 024b 6973742E 		.ascii	"ist...\012\000"
 767      2E2E0A00 
 768 0253 00       		.align	2
 769              	.LC8:
 770 0254 7072696F 		.ascii	"priority %d error\012\000"
 770      72697479 
 770      20256420 
 770      6572726F 
 770      720A00
 771 0267 00       		.align	2
 772              	.LC9:
 773 0268 63686563 		.ascii	"checking complete....%u error\012\000"
 773      6B696E67 
 773      20636F6D 
 773      706C6574 
 773      652E2E2E 
 774 0287 00       		.align	2
 775              	.LC10:
 776 0288 63686563 		.ascii	"checking complete....everything okay\012\000"
 776      6B696E67 
 776      20636F6D 
 776      706C6574 
 776      652E2E2E 
 777              		.text
 778              		.align	1
 779              		.global	shell_check_os_ready
 780              		.syntax unified
 781              		.thumb
 782              		.thumb_func
 783              		.fpu softvfp
 784              		.type	shell_check_os_ready, %function
ARM GAS  G:\Users\Jaxb\AppData\Local\Temp\ccDpynBW.s 			page 19


 785              	shell_check_os_ready:
 786              	.LFB24:
 108:../../source/src/kernel/OS_CORE/schedule/os_ready.c **** 
 109:../../source/src/kernel/OS_CORE/schedule/os_ready.c **** #if CONFIG_SHELL_EN
 110:../../source/src/kernel/OS_CORE/schedule/os_ready.c **** void shell_check_os_ready(void)
 111:../../source/src/kernel/OS_CORE/schedule/os_ready.c **** {
 787              		.loc 2 111 0
 788              		.cfi_startproc
 789              		@ args = 0, pretend = 0, frame = 48
 790              		@ frame_needed = 1, uses_anonymous_args = 0
 791 01f4 80B5     		push	{r7, lr}
 792              	.LCFI27:
 793              		.cfi_def_cfa_offset 8
 794              		.cfi_offset 7, -8
 795              		.cfi_offset 14, -4
 796 01f6 8CB0     		sub	sp, sp, #48
 797              	.LCFI28:
 798              		.cfi_def_cfa_offset 56
 799 01f8 00AF     		add	r7, sp, #0
 800              	.LCFI29:
 801              		.cfi_def_cfa_register 7
 112:../../source/src/kernel/OS_CORE/schedule/os_ready.c **** 	unsigned int i,j;
 113:../../source/src/kernel/OS_CORE/schedule/os_ready.c **** 	unsigned int num = 0;
 802              		.loc 2 113 0
 803 01fa 0023     		movs	r3, #0
 804 01fc 7B62     		str	r3, [r7, #36]
 114:../../source/src/kernel/OS_CORE/schedule/os_ready.c **** 	struct list_head *pos,*head;
 115:../../source/src/kernel/OS_CORE/schedule/os_ready.c **** 	TCB *TCB_ptr;
 116:../../source/src/kernel/OS_CORE/schedule/os_ready.c **** 	unsigned int ready_TCB_num;
 117:../../source/src/kernel/OS_CORE/schedule/os_ready.c **** 	unsigned int TCB_num;
 118:../../source/src/kernel/OS_CORE/schedule/os_ready.c **** 	/* check relation between ready_group and ready_table*/
 119:../../source/src/kernel/OS_CORE/schedule/os_ready.c **** 	for(i=0;i<sizeof(READY_GROUP_TYPE)*8;++i)
 805              		.loc 2 119 0
 806 01fe 0023     		movs	r3, #0
 807 0200 FB62     		str	r3, [r7, #44]
 808 0202 1AE0     		b	.L28
 809              	.L30:
 120:../../source/src/kernel/OS_CORE/schedule/os_ready.c **** 	{
 121:../../source/src/kernel/OS_CORE/schedule/os_ready.c **** 		if((ready_group >> i) & (0x01))
 810              		.loc 2 121 0
 811 0204 6E4B     		ldr	r3, .L51
 812 0206 1B78     		ldrb	r3, [r3]	@ zero_extendqisi2
 813 0208 1A46     		mov	r2, r3
 814 020a FB6A     		ldr	r3, [r7, #44]
 815 020c 42FA03F3 		asr	r3, r2, r3
 816 0210 03F00103 		and	r3, r3, #1
 817 0214 002B     		cmp	r3, #0
 818 0216 0DD0     		beq	.L29
 122:../../source/src/kernel/OS_CORE/schedule/os_ready.c **** 		{
 123:../../source/src/kernel/OS_CORE/schedule/os_ready.c **** 			if(!ready_table[i])
 819              		.loc 2 123 0
 820 0218 6A4A     		ldr	r2, .L51+4
 821 021a FB6A     		ldr	r3, [r7, #44]
 822 021c 1344     		add	r3, r3, r2
 823 021e 1B78     		ldrb	r3, [r3]	@ zero_extendqisi2
 824 0220 002B     		cmp	r3, #0
 825 0222 07D1     		bne	.L29
ARM GAS  G:\Users\Jaxb\AppData\Local\Temp\ccDpynBW.s 			page 20


 124:../../source/src/kernel/OS_CORE/schedule/os_ready.c **** 			{
 125:../../source/src/kernel/OS_CORE/schedule/os_ready.c **** 				++num;
 826              		.loc 2 125 0
 827 0224 7B6A     		ldr	r3, [r7, #36]
 828 0226 0133     		adds	r3, r3, #1
 829 0228 7B62     		str	r3, [r7, #36]
 126:../../source/src/kernel/OS_CORE/schedule/os_ready.c **** 				ka_printf("ready_group's bit %d error with ready_table[%d]\n",i,i);
 830              		.loc 2 126 0
 831 022a FA6A     		ldr	r2, [r7, #44]
 832 022c F96A     		ldr	r1, [r7, #44]
 833 022e 6648     		ldr	r0, .L51+8
 834 0230 FFF7FEFF 		bl	ka_printf
 835              	.L29:
 119:../../source/src/kernel/OS_CORE/schedule/os_ready.c **** 	{
 836              		.loc 2 119 0 discriminator 2
 837 0234 FB6A     		ldr	r3, [r7, #44]
 838 0236 0133     		adds	r3, r3, #1
 839 0238 FB62     		str	r3, [r7, #44]
 840              	.L28:
 119:../../source/src/kernel/OS_CORE/schedule/os_ready.c **** 	{
 841              		.loc 2 119 0 is_stmt 0 discriminator 1
 842 023a FB6A     		ldr	r3, [r7, #44]
 843 023c 072B     		cmp	r3, #7
 844 023e E1D9     		bls	.L30
 127:../../source/src/kernel/OS_CORE/schedule/os_ready.c **** 			}
 128:../../source/src/kernel/OS_CORE/schedule/os_ready.c **** 		}
 129:../../source/src/kernel/OS_CORE/schedule/os_ready.c **** 	}
 130:../../source/src/kernel/OS_CORE/schedule/os_ready.c **** 	/*according to TCB_list's information, check ready_table*/
 131:../../source/src/kernel/OS_CORE/schedule/os_ready.c **** 	ka_printf("according to TCB_list's information, check ready_table...\n");
 845              		.loc 2 131 0 is_stmt 1
 846 0240 6248     		ldr	r0, .L51+12
 847 0242 FFF7FEFF 		bl	ka_printf
 132:../../source/src/kernel/OS_CORE/schedule/os_ready.c **** 	for(i=0;i<PRIO_MAX;++i)
 848              		.loc 2 132 0
 849 0246 0023     		movs	r3, #0
 850 0248 FB62     		str	r3, [r7, #44]
 851 024a 57E0     		b	.L31
 852              	.L37:
 133:../../source/src/kernel/OS_CORE/schedule/os_ready.c **** 	{
 134:../../source/src/kernel/OS_CORE/schedule/os_ready.c **** 		head = _get_from_TCB_list(i);
 853              		.loc 2 134 0
 854 024c F86A     		ldr	r0, [r7, #44]
 855 024e FFF7FEFF 		bl	_get_from_TCB_list
 856 0252 7861     		str	r0, [r7, #20]
 135:../../source/src/kernel/OS_CORE/schedule/os_ready.c **** 		if(!list_empty(head))
 857              		.loc 2 135 0
 858 0254 7869     		ldr	r0, [r7, #20]
 859 0256 FFF7D3FE 		bl	list_empty
 860 025a 0346     		mov	r3, r0
 861 025c 002B     		cmp	r3, #0
 862 025e 4AD1     		bne	.L32
 136:../../source/src/kernel/OS_CORE/schedule/os_ready.c **** 		{
 137:../../source/src/kernel/OS_CORE/schedule/os_ready.c **** 			ready_TCB_num = 0;
 863              		.loc 2 137 0
 864 0260 0023     		movs	r3, #0
 865 0262 FB61     		str	r3, [r7, #28]
 138:../../source/src/kernel/OS_CORE/schedule/os_ready.c **** 			TCB_num = 0;
ARM GAS  G:\Users\Jaxb\AppData\Local\Temp\ccDpynBW.s 			page 21


 866              		.loc 2 138 0
 867 0264 0023     		movs	r3, #0
 868 0266 BB61     		str	r3, [r7, #24]
 139:../../source/src/kernel/OS_CORE/schedule/os_ready.c **** 			list_for_each(pos,head)
 869              		.loc 2 139 0
 870 0268 7B69     		ldr	r3, [r7, #20]
 871 026a 1B68     		ldr	r3, [r3]
 872 026c 3B62     		str	r3, [r7, #32]
 873 026e 26E0     		b	.L33
 874              	.L35:
 140:../../source/src/kernel/OS_CORE/schedule/os_ready.c **** 			{
 141:../../source/src/kernel/OS_CORE/schedule/os_ready.c **** 				++TCB_num;
 875              		.loc 2 141 0
 876 0270 BB69     		ldr	r3, [r7, #24]
 877 0272 0133     		adds	r3, r3, #1
 878 0274 BB61     		str	r3, [r7, #24]
 879              	.LBB3:
 142:../../source/src/kernel/OS_CORE/schedule/os_ready.c **** 				TCB_ptr = list_entry(pos,TCB,same_prio_list);
 880              		.loc 2 142 0
 881 0276 3B6A     		ldr	r3, [r7, #32]
 882 0278 3B60     		str	r3, [r7]
 883 027a 3B68     		ldr	r3, [r7]
 884 027c 1C3B     		subs	r3, r3, #28
 885              	.LBE3:
 886 027e FB60     		str	r3, [r7, #12]
 143:../../source/src/kernel/OS_CORE/schedule/os_ready.c **** 				if(STATE_READY == TCB_ptr->task_state)
 887              		.loc 2 143 0
 888 0280 FB68     		ldr	r3, [r7, #12]
 889 0282 1B7C     		ldrb	r3, [r3, #16]	@ zero_extendqisi2
 890 0284 012B     		cmp	r3, #1
 891 0286 17D1     		bne	.L34
 144:../../source/src/kernel/OS_CORE/schedule/os_ready.c **** 				{
 145:../../source/src/kernel/OS_CORE/schedule/os_ready.c **** 					++ready_TCB_num;
 892              		.loc 2 145 0
 893 0288 FB69     		ldr	r3, [r7, #28]
 894 028a 0133     		adds	r3, r3, #1
 895 028c FB61     		str	r3, [r7, #28]
 146:../../source/src/kernel/OS_CORE/schedule/os_ready.c **** 					if(!(0x01 & (ready_table[i/(8*sizeof(READY_TABLE_TYPE))] >> (i%(8*sizeof(READY_TABLE_TYPE)))))
 896              		.loc 2 146 0
 897 028e FB6A     		ldr	r3, [r7, #44]
 898 0290 DB08     		lsrs	r3, r3, #3
 899 0292 4C4A     		ldr	r2, .L51+4
 900 0294 D35C     		ldrb	r3, [r2, r3]	@ zero_extendqisi2
 901 0296 1A46     		mov	r2, r3
 902 0298 FB6A     		ldr	r3, [r7, #44]
 903 029a 03F00703 		and	r3, r3, #7
 904 029e 42FA03F3 		asr	r3, r2, r3
 905 02a2 03F00103 		and	r3, r3, #1
 906 02a6 002B     		cmp	r3, #0
 907 02a8 06D1     		bne	.L34
 147:../../source/src/kernel/OS_CORE/schedule/os_ready.c **** 					{
 148:../../source/src/kernel/OS_CORE/schedule/os_ready.c **** 						++num;
 908              		.loc 2 148 0
 909 02aa 7B6A     		ldr	r3, [r7, #36]
 910 02ac 0133     		adds	r3, r3, #1
 911 02ae 7B62     		str	r3, [r7, #36]
 149:../../source/src/kernel/OS_CORE/schedule/os_ready.c **** 						ka_printf("priority %d's map error\n",i);
ARM GAS  G:\Users\Jaxb\AppData\Local\Temp\ccDpynBW.s 			page 22


 912              		.loc 2 149 0
 913 02b0 F96A     		ldr	r1, [r7, #44]
 914 02b2 4748     		ldr	r0, .L51+16
 915 02b4 FFF7FEFF 		bl	ka_printf
 916              	.L34:
 139:../../source/src/kernel/OS_CORE/schedule/os_ready.c **** 			{
 917              		.loc 2 139 0 discriminator 2
 918 02b8 3B6A     		ldr	r3, [r7, #32]
 919 02ba 1B68     		ldr	r3, [r3]
 920 02bc 3B62     		str	r3, [r7, #32]
 921              	.L33:
 139:../../source/src/kernel/OS_CORE/schedule/os_ready.c **** 			{
 922              		.loc 2 139 0 is_stmt 0 discriminator 1
 923 02be 3A6A     		ldr	r2, [r7, #32]
 924 02c0 7B69     		ldr	r3, [r7, #20]
 925 02c2 9A42     		cmp	r2, r3
 926 02c4 D4D1     		bne	.L35
 927              	.LBB4:
 150:../../source/src/kernel/OS_CORE/schedule/os_ready.c **** 					}
 151:../../source/src/kernel/OS_CORE/schedule/os_ready.c **** 				}
 152:../../source/src/kernel/OS_CORE/schedule/os_ready.c **** 			}
 153:../../source/src/kernel/OS_CORE/schedule/os_ready.c **** 			if(list_entry(head,struct TCB_list,head)->ready_num != ready_TCB_num)
 928              		.loc 2 153 0 is_stmt 1
 929 02c6 7B69     		ldr	r3, [r7, #20]
 930 02c8 BB60     		str	r3, [r7, #8]
 931 02ca BB68     		ldr	r3, [r7, #8]
 932              	.LBE4:
 933 02cc 1B7A     		ldrb	r3, [r3, #8]	@ zero_extendqisi2
 934 02ce 1A46     		mov	r2, r3
 935 02d0 FB69     		ldr	r3, [r7, #28]
 936 02d2 9342     		cmp	r3, r2
 937 02d4 03D0     		beq	.L36
 154:../../source/src/kernel/OS_CORE/schedule/os_ready.c **** 			{
 155:../../source/src/kernel/OS_CORE/schedule/os_ready.c **** 				ka_printf("priority %d's ready_num error\n",i);
 938              		.loc 2 155 0
 939 02d6 F96A     		ldr	r1, [r7, #44]
 940 02d8 3E48     		ldr	r0, .L51+20
 941 02da FFF7FEFF 		bl	ka_printf
 942              	.L36:
 943              	.LBB5:
 156:../../source/src/kernel/OS_CORE/schedule/os_ready.c **** 			}
 157:../../source/src/kernel/OS_CORE/schedule/os_ready.c **** 			if(list_entry(head,struct TCB_list,head)->TCB_num != TCB_num)
 944              		.loc 2 157 0
 945 02de 7B69     		ldr	r3, [r7, #20]
 946 02e0 7B60     		str	r3, [r7, #4]
 947 02e2 7B68     		ldr	r3, [r7, #4]
 948              	.LBE5:
 949 02e4 5B7A     		ldrb	r3, [r3, #9]	@ zero_extendqisi2
 950 02e6 1A46     		mov	r2, r3
 951 02e8 BB69     		ldr	r3, [r7, #24]
 952 02ea 9342     		cmp	r3, r2
 953 02ec 03D0     		beq	.L32
 158:../../source/src/kernel/OS_CORE/schedule/os_ready.c **** 			{
 159:../../source/src/kernel/OS_CORE/schedule/os_ready.c **** 				ka_printf("priority %d's TCB_num error\n",i);
 954              		.loc 2 159 0
 955 02ee F96A     		ldr	r1, [r7, #44]
 956 02f0 3948     		ldr	r0, .L51+24
ARM GAS  G:\Users\Jaxb\AppData\Local\Temp\ccDpynBW.s 			page 23


 957 02f2 FFF7FEFF 		bl	ka_printf
 958              	.L32:
 132:../../source/src/kernel/OS_CORE/schedule/os_ready.c **** 	{
 959              		.loc 2 132 0 discriminator 2
 960 02f6 FB6A     		ldr	r3, [r7, #44]
 961 02f8 0133     		adds	r3, r3, #1
 962 02fa FB62     		str	r3, [r7, #44]
 963              	.L31:
 132:../../source/src/kernel/OS_CORE/schedule/os_ready.c **** 	{
 964              		.loc 2 132 0 is_stmt 0 discriminator 1
 965 02fc FB6A     		ldr	r3, [r7, #44]
 966 02fe 3F2B     		cmp	r3, #63
 967 0300 A4D9     		bls	.L37
 160:../../source/src/kernel/OS_CORE/schedule/os_ready.c **** 			}
 161:../../source/src/kernel/OS_CORE/schedule/os_ready.c **** 		}
 162:../../source/src/kernel/OS_CORE/schedule/os_ready.c **** 	}
 163:../../source/src/kernel/OS_CORE/schedule/os_ready.c **** 	ka_printf("complete...\n\n");
 968              		.loc 2 163 0 is_stmt 1
 969 0302 3648     		ldr	r0, .L51+28
 970 0304 FFF7FEFF 		bl	ka_printf
 164:../../source/src/kernel/OS_CORE/schedule/os_ready.c **** 	/*according to ready_table's information, check TCB_list*/
 165:../../source/src/kernel/OS_CORE/schedule/os_ready.c **** 	ka_printf("according to ready_table's information, check TCB_list...\n");
 971              		.loc 2 165 0
 972 0308 3548     		ldr	r0, .L51+32
 973 030a FFF7FEFF 		bl	ka_printf
 166:../../source/src/kernel/OS_CORE/schedule/os_ready.c **** 	for(i=0;i<sizeof(READY_GROUP_TYPE)*8;++i)
 974              		.loc 2 166 0
 975 030e 0023     		movs	r3, #0
 976 0310 FB62     		str	r3, [r7, #44]
 977 0312 42E0     		b	.L38
 978              	.L45:
 167:../../source/src/kernel/OS_CORE/schedule/os_ready.c **** 	{
 168:../../source/src/kernel/OS_CORE/schedule/os_ready.c **** 		for(j=0;j<8*sizeof(READY_TABLE_TYPE);++j)
 979              		.loc 2 168 0
 980 0314 0023     		movs	r3, #0
 981 0316 BB62     		str	r3, [r7, #40]
 982 0318 39E0     		b	.L39
 983              	.L44:
 169:../../source/src/kernel/OS_CORE/schedule/os_ready.c **** 		{
 170:../../source/src/kernel/OS_CORE/schedule/os_ready.c **** 			if(0x01 & (ready_table[i] >> j))
 984              		.loc 2 170 0
 985 031a 2A4A     		ldr	r2, .L51+4
 986 031c FB6A     		ldr	r3, [r7, #44]
 987 031e 1344     		add	r3, r3, r2
 988 0320 1B78     		ldrb	r3, [r3]	@ zero_extendqisi2
 989 0322 1A46     		mov	r2, r3
 990 0324 BB6A     		ldr	r3, [r7, #40]
 991 0326 42FA03F3 		asr	r3, r2, r3
 992 032a 03F00103 		and	r3, r3, #1
 993 032e 002B     		cmp	r3, #0
 994 0330 27D0     		beq	.L48
 171:../../source/src/kernel/OS_CORE/schedule/os_ready.c **** 			{
 172:../../source/src/kernel/OS_CORE/schedule/os_ready.c **** 				head = _get_from_TCB_list(j + i*8*sizeof(READY_TABLE_TYPE));
 995              		.loc 2 172 0
 996 0332 FB6A     		ldr	r3, [r7, #44]
 997 0334 DA00     		lsls	r2, r3, #3
 998 0336 BB6A     		ldr	r3, [r7, #40]
ARM GAS  G:\Users\Jaxb\AppData\Local\Temp\ccDpynBW.s 			page 24


 999 0338 1344     		add	r3, r3, r2
 1000 033a 1846     		mov	r0, r3
 1001 033c FFF7FEFF 		bl	_get_from_TCB_list
 1002 0340 7861     		str	r0, [r7, #20]
 173:../../source/src/kernel/OS_CORE/schedule/os_ready.c **** 				list_for_each(pos,head)
 1003              		.loc 2 173 0
 1004 0342 7B69     		ldr	r3, [r7, #20]
 1005 0344 1B68     		ldr	r3, [r3]
 1006 0346 3B62     		str	r3, [r7, #32]
 1007 0348 0BE0     		b	.L41
 1008              	.L43:
 1009              	.LBB6:
 174:../../source/src/kernel/OS_CORE/schedule/os_ready.c **** 				{
 175:../../source/src/kernel/OS_CORE/schedule/os_ready.c **** 					TCB_ptr = list_entry(pos,TCB,same_prio_list);
 1010              		.loc 2 175 0
 1011 034a 3B6A     		ldr	r3, [r7, #32]
 1012 034c 3B61     		str	r3, [r7, #16]
 1013 034e 3B69     		ldr	r3, [r7, #16]
 1014 0350 1C3B     		subs	r3, r3, #28
 1015              	.LBE6:
 1016 0352 FB60     		str	r3, [r7, #12]
 176:../../source/src/kernel/OS_CORE/schedule/os_ready.c **** 					if(STATE_READY == TCB_ptr->task_state)
 1017              		.loc 2 176 0
 1018 0354 FB68     		ldr	r3, [r7, #12]
 1019 0356 1B7C     		ldrb	r3, [r3, #16]	@ zero_extendqisi2
 1020 0358 012B     		cmp	r3, #1
 1021 035a 14D0     		beq	.L49
 173:../../source/src/kernel/OS_CORE/schedule/os_ready.c **** 				list_for_each(pos,head)
 1022              		.loc 2 173 0 discriminator 2
 1023 035c 3B6A     		ldr	r3, [r7, #32]
 1024 035e 1B68     		ldr	r3, [r3]
 1025 0360 3B62     		str	r3, [r7, #32]
 1026              	.L41:
 173:../../source/src/kernel/OS_CORE/schedule/os_ready.c **** 				list_for_each(pos,head)
 1027              		.loc 2 173 0 is_stmt 0 discriminator 1
 1028 0362 3A6A     		ldr	r2, [r7, #32]
 1029 0364 7B69     		ldr	r3, [r7, #20]
 1030 0366 9A42     		cmp	r2, r3
 1031 0368 EFD1     		bne	.L43
 177:../../source/src/kernel/OS_CORE/schedule/os_ready.c **** 					{
 178:../../source/src/kernel/OS_CORE/schedule/os_ready.c **** 						goto out;
 179:../../source/src/kernel/OS_CORE/schedule/os_ready.c **** 					}
 180:../../source/src/kernel/OS_CORE/schedule/os_ready.c **** 				}
 181:../../source/src/kernel/OS_CORE/schedule/os_ready.c **** 				++num;
 1032              		.loc 2 181 0 is_stmt 1
 1033 036a 7B6A     		ldr	r3, [r7, #36]
 1034 036c 0133     		adds	r3, r3, #1
 1035 036e 7B62     		str	r3, [r7, #36]
 182:../../source/src/kernel/OS_CORE/schedule/os_ready.c **** 				ka_printf("priority %d error\n",j + i*8*sizeof(READY_TABLE_TYPE));
 1036              		.loc 2 182 0
 1037 0370 FB6A     		ldr	r3, [r7, #44]
 1038 0372 DA00     		lsls	r2, r3, #3
 1039 0374 BB6A     		ldr	r3, [r7, #40]
 1040 0376 1344     		add	r3, r3, r2
 1041 0378 1946     		mov	r1, r3
 1042 037a 1A48     		ldr	r0, .L51+36
 1043 037c FFF7FEFF 		bl	ka_printf
ARM GAS  G:\Users\Jaxb\AppData\Local\Temp\ccDpynBW.s 			page 25


 1044 0380 02E0     		b	.L40
 1045              	.L48:
 183:../../source/src/kernel/OS_CORE/schedule/os_ready.c **** 			}
 184:../../source/src/kernel/OS_CORE/schedule/os_ready.c **** out:
 1046              		.loc 2 184 0
 1047 0382 00BF     		nop
 1048 0384 00E0     		b	.L40
 1049              	.L49:
 178:../../source/src/kernel/OS_CORE/schedule/os_ready.c **** 					}
 1050              		.loc 2 178 0
 1051 0386 00BF     		nop
 1052              	.L40:
 168:../../source/src/kernel/OS_CORE/schedule/os_ready.c **** 		{
 1053              		.loc 2 168 0 discriminator 2
 1054 0388 BB6A     		ldr	r3, [r7, #40]
 1055 038a 0133     		adds	r3, r3, #1
 1056 038c BB62     		str	r3, [r7, #40]
 1057              	.L39:
 168:../../source/src/kernel/OS_CORE/schedule/os_ready.c **** 		{
 1058              		.loc 2 168 0 is_stmt 0 discriminator 1
 1059 038e BB6A     		ldr	r3, [r7, #40]
 1060 0390 072B     		cmp	r3, #7
 1061 0392 C2D9     		bls	.L44
 166:../../source/src/kernel/OS_CORE/schedule/os_ready.c **** 	{
 1062              		.loc 2 166 0 is_stmt 1 discriminator 2
 1063 0394 FB6A     		ldr	r3, [r7, #44]
 1064 0396 0133     		adds	r3, r3, #1
 1065 0398 FB62     		str	r3, [r7, #44]
 1066              	.L38:
 166:../../source/src/kernel/OS_CORE/schedule/os_ready.c **** 	{
 1067              		.loc 2 166 0 is_stmt 0 discriminator 1
 1068 039a FB6A     		ldr	r3, [r7, #44]
 1069 039c 072B     		cmp	r3, #7
 1070 039e B9D9     		bls	.L45
 185:../../source/src/kernel/OS_CORE/schedule/os_ready.c **** 		;
 186:../../source/src/kernel/OS_CORE/schedule/os_ready.c **** 		}
 187:../../source/src/kernel/OS_CORE/schedule/os_ready.c **** 	}
 188:../../source/src/kernel/OS_CORE/schedule/os_ready.c **** 	/*conclusion*/
 189:../../source/src/kernel/OS_CORE/schedule/os_ready.c **** 	if(num)
 1071              		.loc 2 189 0 is_stmt 1
 1072 03a0 7B6A     		ldr	r3, [r7, #36]
 1073 03a2 002B     		cmp	r3, #0
 1074 03a4 04D0     		beq	.L46
 190:../../source/src/kernel/OS_CORE/schedule/os_ready.c **** 	{
 191:../../source/src/kernel/OS_CORE/schedule/os_ready.c **** 		ka_printf("checking complete....%u error\n",num);
 1075              		.loc 2 191 0
 1076 03a6 796A     		ldr	r1, [r7, #36]
 1077 03a8 0F48     		ldr	r0, .L51+40
 1078 03aa FFF7FEFF 		bl	ka_printf
 192:../../source/src/kernel/OS_CORE/schedule/os_ready.c **** 	}
 193:../../source/src/kernel/OS_CORE/schedule/os_ready.c **** 	else
 194:../../source/src/kernel/OS_CORE/schedule/os_ready.c **** 	{
 195:../../source/src/kernel/OS_CORE/schedule/os_ready.c **** 		ka_printf("checking complete....everything okay\n");
 196:../../source/src/kernel/OS_CORE/schedule/os_ready.c **** 	}
 197:../../source/src/kernel/OS_CORE/schedule/os_ready.c **** }
 1079              		.loc 2 197 0
 1080 03ae 02E0     		b	.L50
ARM GAS  G:\Users\Jaxb\AppData\Local\Temp\ccDpynBW.s 			page 26


 1081              	.L46:
 195:../../source/src/kernel/OS_CORE/schedule/os_ready.c **** 	}
 1082              		.loc 2 195 0
 1083 03b0 0E48     		ldr	r0, .L51+44
 1084 03b2 FFF7FEFF 		bl	ka_printf
 1085              	.L50:
 1086              		.loc 2 197 0
 1087 03b6 00BF     		nop
 1088 03b8 3037     		adds	r7, r7, #48
 1089              	.LCFI30:
 1090              		.cfi_def_cfa_offset 8
 1091 03ba BD46     		mov	sp, r7
 1092              	.LCFI31:
 1093              		.cfi_def_cfa_register 13
 1094              		@ sp needed
 1095 03bc 80BD     		pop	{r7, pc}
 1096              	.L52:
 1097 03be 00BF     		.align	2
 1098              	.L51:
 1099 03c0 00000000 		.word	ready_group
 1100 03c4 04000000 		.word	ready_table
 1101 03c8 3C010000 		.word	.LC1
 1102 03cc 70010000 		.word	.LC2
 1103 03d0 AC010000 		.word	.LC3
 1104 03d4 C8010000 		.word	.LC4
 1105 03d8 E8010000 		.word	.LC5
 1106 03dc 08020000 		.word	.LC6
 1107 03e0 18020000 		.word	.LC7
 1108 03e4 54020000 		.word	.LC8
 1109 03e8 68020000 		.word	.LC9
 1110 03ec 88020000 		.word	.LC10
 1111              		.cfi_endproc
 1112              	.LFE24:
 1113              		.size	shell_check_os_ready, .-shell_check_os_ready
 1114              	.Letext0:
 1115              		.file 3 "../../source/include/os_cpu/kakaosstdint.h"
 1116              		.file 4 "../../source/include/os_core/schedule/task_state.h"
 1117              		.file 5 "../../source/include/os_core/schedule/TCB.h"
 1118              		.file 6 "../../source/include/os_core/schedule/os_TCB_list.h"
 1119              		.section	.debug_info,"",%progbits
 1120              	.Ldebug_info0:
 1121 0000 39050000 		.4byte	0x539
 1122 0004 0200     		.2byte	0x2
 1123 0006 00000000 		.4byte	.Ldebug_abbrev0
 1124 000a 04       		.byte	0x4
 1125 000b 01       		.uleb128 0x1
 1126 000c D9030000 		.4byte	.LASF61
 1127 0010 0C       		.byte	0xc
 1128 0011 2B000000 		.4byte	.LASF62
 1129 0015 60010000 		.4byte	.LASF63
 1130 0019 00000000 		.4byte	.Ltext0
 1131 001d F0030000 		.4byte	.Letext0
 1132 0021 00000000 		.4byte	.Ldebug_line0
 1133 0025 02       		.uleb128 0x2
 1134 0026 E6000000 		.4byte	.LASF5
 1135 002a 03       		.byte	0x3
 1136 002b 05       		.byte	0x5
ARM GAS  G:\Users\Jaxb\AppData\Local\Temp\ccDpynBW.s 			page 27


 1137 002c 35000000 		.4byte	0x35
 1138 0030 03       		.uleb128 0x3
 1139 0031 25000000 		.4byte	0x25
 1140 0035 04       		.uleb128 0x4
 1141 0036 01       		.byte	0x1
 1142 0037 06       		.byte	0x6
 1143 0038 0C020000 		.4byte	.LASF0
 1144 003c 04       		.uleb128 0x4
 1145 003d 02       		.byte	0x2
 1146 003e 05       		.byte	0x5
 1147 003f 69000000 		.4byte	.LASF1
 1148 0043 05       		.uleb128 0x5
 1149 0044 04       		.byte	0x4
 1150 0045 05       		.byte	0x5
 1151 0046 696E7400 		.ascii	"int\000"
 1152 004a 06       		.uleb128 0x6
 1153 004b 43000000 		.4byte	0x43
 1154 004f 04       		.uleb128 0x4
 1155 0050 08       		.byte	0x8
 1156 0051 05       		.byte	0x5
 1157 0052 8E010000 		.4byte	.LASF2
 1158 0056 04       		.uleb128 0x4
 1159 0057 01       		.byte	0x1
 1160 0058 08       		.byte	0x8
 1161 0059 E6010000 		.4byte	.LASF3
 1162 005d 04       		.uleb128 0x4
 1163 005e 02       		.byte	0x2
 1164 005f 07       		.byte	0x7
 1165 0060 A2020000 		.4byte	.LASF4
 1166 0064 02       		.uleb128 0x2
 1167 0065 A9000000 		.4byte	.LASF6
 1168 0069 03       		.byte	0x3
 1169 006a 0C       		.byte	0xc
 1170 006b 6F000000 		.4byte	0x6f
 1171 006f 04       		.uleb128 0x4
 1172 0070 04       		.byte	0x4
 1173 0071 07       		.byte	0x7
 1174 0072 41020000 		.4byte	.LASF7
 1175 0076 02       		.uleb128 0x2
 1176 0077 AE040000 		.4byte	.LASF8
 1177 007b 03       		.byte	0x3
 1178 007c 0D       		.byte	0xd
 1179 007d 81000000 		.4byte	0x81
 1180 0081 04       		.uleb128 0x4
 1181 0082 08       		.byte	0x8
 1182 0083 07       		.byte	0x7
 1183 0084 1E020000 		.4byte	.LASF9
 1184 0088 02       		.uleb128 0x2
 1185 0089 73000000 		.4byte	.LASF10
 1186 008d 03       		.byte	0x3
 1187 008e 23       		.byte	0x23
 1188 008f 6F000000 		.4byte	0x6f
 1189 0093 07       		.uleb128 0x7
 1190 0094 5F000000 		.4byte	.LASF26
 1191 0098 08       		.byte	0x8
 1192 0099 01       		.byte	0x1
 1193 009a 04       		.byte	0x4
ARM GAS  G:\Users\Jaxb\AppData\Local\Temp\ccDpynBW.s 			page 28


 1194 009b BC000000 		.4byte	0xbc
 1195 009f 08       		.uleb128 0x8
 1196 00a0 BA040000 		.4byte	.LASF11
 1197 00a4 01       		.byte	0x1
 1198 00a5 05       		.byte	0x5
 1199 00a6 C1000000 		.4byte	0xc1
 1200 00aa 02       		.byte	0x2
 1201 00ab 23       		.byte	0x23
 1202 00ac 00       		.uleb128 0
 1203 00ad 08       		.uleb128 0x8
 1204 00ae 98040000 		.4byte	.LASF12
 1205 00b2 01       		.byte	0x1
 1206 00b3 05       		.byte	0x5
 1207 00b4 C1000000 		.4byte	0xc1
 1208 00b8 02       		.byte	0x2
 1209 00b9 23       		.byte	0x23
 1210 00ba 04       		.uleb128 0x4
 1211 00bb 00       		.byte	0
 1212 00bc 03       		.uleb128 0x3
 1213 00bd 93000000 		.4byte	0x93
 1214 00c1 09       		.uleb128 0x9
 1215 00c2 04       		.byte	0x4
 1216 00c3 93000000 		.4byte	0x93
 1217 00c7 0A       		.uleb128 0xa
 1218 00c8 BB000000 		.4byte	.LASF64
 1219 00cc 07       		.byte	0x7
 1220 00cd 01       		.byte	0x1
 1221 00ce 56000000 		.4byte	0x56
 1222 00d2 04       		.byte	0x4
 1223 00d3 04       		.byte	0x4
 1224 00d4 15010000 		.4byte	0x115
 1225 00d8 0B       		.uleb128 0xb
 1226 00d9 B5020000 		.4byte	.LASF13
 1227 00dd 01       		.byte	0x1
 1228 00de 0B       		.uleb128 0xb
 1229 00df F4010000 		.4byte	.LASF14
 1230 00e3 02       		.byte	0x2
 1231 00e4 0B       		.uleb128 0xb
 1232 00e5 2A010000 		.4byte	.LASF15
 1233 00e9 03       		.byte	0x3
 1234 00ea 0B       		.uleb128 0xb
 1235 00eb 40030000 		.4byte	.LASF16
 1236 00ef 04       		.byte	0x4
 1237 00f0 0B       		.uleb128 0xb
 1238 00f1 0B010000 		.4byte	.LASF17
 1239 00f5 05       		.byte	0x5
 1240 00f6 0B       		.uleb128 0xb
 1241 00f7 88000000 		.4byte	.LASF18
 1242 00fb 06       		.byte	0x6
 1243 00fc 0B       		.uleb128 0xb
 1244 00fd 3F010000 		.4byte	.LASF19
 1245 0101 07       		.byte	0x7
 1246 0102 0B       		.uleb128 0xb
 1247 0103 C6000000 		.4byte	.LASF20
 1248 0107 08       		.byte	0x8
 1249 0108 0B       		.uleb128 0xb
 1250 0109 DD020000 		.4byte	.LASF21
ARM GAS  G:\Users\Jaxb\AppData\Local\Temp\ccDpynBW.s 			page 29


 1251 010d 09       		.byte	0x9
 1252 010e 0B       		.uleb128 0xb
 1253 010f 7F040000 		.4byte	.LASF22
 1254 0113 0A       		.byte	0xa
 1255 0114 00       		.byte	0
 1256 0115 02       		.uleb128 0x2
 1257 0116 C3010000 		.4byte	.LASF23
 1258 011a 04       		.byte	0x4
 1259 011b 0F       		.byte	0xf
 1260 011c C7000000 		.4byte	0xc7
 1261 0120 02       		.uleb128 0x2
 1262 0121 B0000000 		.4byte	.LASF24
 1263 0125 05       		.byte	0x5
 1264 0126 0A       		.byte	0xa
 1265 0127 6F000000 		.4byte	0x6f
 1266 012b 02       		.uleb128 0x2
 1267 012c 00000000 		.4byte	.LASF25
 1268 0130 05       		.byte	0x5
 1269 0131 0C       		.byte	0xc
 1270 0132 6F000000 		.4byte	0x6f
 1271 0136 0C       		.uleb128 0xc
 1272 0137 B2030000 		.4byte	.LASF65
 1273 013b 05       		.byte	0x5
 1274 013c 13       		.byte	0x13
 1275 013d 4A000000 		.4byte	0x4a
 1276 0141 01       		.byte	0x1
 1277 0142 01       		.byte	0x1
 1278 0143 07       		.uleb128 0x7
 1279 0144 69030000 		.4byte	.LASF27
 1280 0148 48       		.byte	0x48
 1281 0149 05       		.byte	0x5
 1282 014a 37       		.byte	0x37
 1283 014b 22020000 		.4byte	0x222
 1284 014f 08       		.uleb128 0x8
 1285 0150 5F020000 		.4byte	.LASF28
 1286 0154 05       		.byte	0x5
 1287 0155 38       		.byte	0x38
 1288 0156 22020000 		.4byte	0x222
 1289 015a 02       		.byte	0x2
 1290 015b 23       		.byte	0x23
 1291 015c 00       		.uleb128 0
 1292 015d 08       		.uleb128 0x8
 1293 015e 83030000 		.4byte	.LASF29
 1294 0162 05       		.byte	0x5
 1295 0163 39       		.byte	0x39
 1296 0164 6F000000 		.4byte	0x6f
 1297 0168 02       		.byte	0x2
 1298 0169 23       		.byte	0x23
 1299 016a 04       		.uleb128 0x4
 1300 016b 08       		.uleb128 0x8
 1301 016c 01010000 		.4byte	.LASF30
 1302 0170 05       		.byte	0x5
 1303 0171 3A       		.byte	0x3a
 1304 0172 22020000 		.4byte	0x222
 1305 0176 02       		.byte	0x2
 1306 0177 23       		.byte	0x23
 1307 0178 08       		.uleb128 0x8
ARM GAS  G:\Users\Jaxb\AppData\Local\Temp\ccDpynBW.s 			page 30


 1308 0179 08       		.uleb128 0x8
 1309 017a 98030000 		.4byte	.LASF31
 1310 017e 05       		.byte	0x5
 1311 017f 3B       		.byte	0x3b
 1312 0180 2B010000 		.4byte	0x12b
 1313 0184 02       		.byte	0x2
 1314 0185 23       		.byte	0x23
 1315 0186 0C       		.uleb128 0xc
 1316 0187 08       		.uleb128 0x8
 1317 0188 18030000 		.4byte	.LASF32
 1318 018c 05       		.byte	0x5
 1319 018d 3C       		.byte	0x3c
 1320 018e 15010000 		.4byte	0x115
 1321 0192 02       		.byte	0x2
 1322 0193 23       		.byte	0x23
 1323 0194 10       		.uleb128 0x10
 1324 0195 08       		.uleb128 0x8
 1325 0196 B5040000 		.4byte	.LASF33
 1326 019a 05       		.byte	0x5
 1327 019b 3D       		.byte	0x3d
 1328 019c 2B010000 		.4byte	0x12b
 1329 01a0 02       		.byte	0x2
 1330 01a1 23       		.byte	0x23
 1331 01a2 14       		.uleb128 0x14
 1332 01a3 08       		.uleb128 0x8
 1333 01a4 04030000 		.4byte	.LASF34
 1334 01a8 05       		.byte	0x5
 1335 01a9 3E       		.byte	0x3e
 1336 01aa 43000000 		.4byte	0x43
 1337 01ae 02       		.byte	0x2
 1338 01af 23       		.byte	0x23
 1339 01b0 18       		.uleb128 0x18
 1340 01b1 08       		.uleb128 0x8
 1341 01b2 71020000 		.4byte	.LASF35
 1342 01b6 05       		.byte	0x5
 1343 01b7 3F       		.byte	0x3f
 1344 01b8 93000000 		.4byte	0x93
 1345 01bc 02       		.byte	0x2
 1346 01bd 23       		.byte	0x23
 1347 01be 1C       		.uleb128 0x1c
 1348 01bf 08       		.uleb128 0x8
 1349 01c0 A5030000 		.4byte	.LASF36
 1350 01c4 05       		.byte	0x5
 1351 01c5 40       		.byte	0x40
 1352 01c6 93000000 		.4byte	0x93
 1353 01ca 02       		.byte	0x2
 1354 01cb 23       		.byte	0x23
 1355 01cc 24       		.uleb128 0x24
 1356 01cd 08       		.uleb128 0x8
 1357 01ce CE010000 		.4byte	.LASF37
 1358 01d2 05       		.byte	0x5
 1359 01d3 41       		.byte	0x41
 1360 01d4 28020000 		.4byte	0x228
 1361 01d8 02       		.byte	0x2
 1362 01d9 23       		.byte	0x23
 1363 01da 2C       		.uleb128 0x2c
 1364 01db 08       		.uleb128 0x8
ARM GAS  G:\Users\Jaxb\AppData\Local\Temp\ccDpynBW.s 			page 31


 1365 01dc A4010000 		.4byte	.LASF38
 1366 01e0 05       		.byte	0x5
 1367 01e1 42       		.byte	0x42
 1368 01e2 6F000000 		.4byte	0x6f
 1369 01e6 02       		.byte	0x2
 1370 01e7 23       		.byte	0x23
 1371 01e8 30       		.uleb128 0x30
 1372 01e9 08       		.uleb128 0x8
 1373 01ea 2C030000 		.4byte	.LASF39
 1374 01ee 05       		.byte	0x5
 1375 01ef 43       		.byte	0x43
 1376 01f0 6F000000 		.4byte	0x6f
 1377 01f4 02       		.byte	0x2
 1378 01f5 23       		.byte	0x23
 1379 01f6 34       		.uleb128 0x34
 1380 01f7 08       		.uleb128 0x8
 1381 01f8 00020000 		.4byte	.LASF40
 1382 01fc 05       		.byte	0x5
 1383 01fd 44       		.byte	0x44
 1384 01fe 64000000 		.4byte	0x64
 1385 0202 02       		.byte	0x2
 1386 0203 23       		.byte	0x23
 1387 0204 38       		.uleb128 0x38
 1388 0205 08       		.uleb128 0x8
 1389 0206 D3010000 		.4byte	.LASF41
 1390 020a 05       		.byte	0x5
 1391 020b 45       		.byte	0x45
 1392 020c 3B020000 		.4byte	0x23b
 1393 0210 02       		.byte	0x2
 1394 0211 23       		.byte	0x23
 1395 0212 3C       		.uleb128 0x3c
 1396 0213 08       		.uleb128 0x8
 1397 0214 9D040000 		.4byte	.LASF42
 1398 0218 05       		.byte	0x5
 1399 0219 46       		.byte	0x46
 1400 021a 76000000 		.4byte	0x76
 1401 021e 02       		.byte	0x2
 1402 021f 23       		.byte	0x23
 1403 0220 40       		.uleb128 0x40
 1404 0221 00       		.byte	0
 1405 0222 09       		.uleb128 0x9
 1406 0223 04       		.byte	0x4
 1407 0224 20010000 		.4byte	0x120
 1408 0228 09       		.uleb128 0x9
 1409 0229 04       		.byte	0x4
 1410 022a 2E020000 		.4byte	0x22e
 1411 022e 04       		.uleb128 0x4
 1412 022f 01       		.byte	0x1
 1413 0230 08       		.byte	0x8
 1414 0231 C1020000 		.4byte	.LASF43
 1415 0235 0D       		.uleb128 0xd
 1416 0236 93020000 		.4byte	.LASF66
 1417 023a 01       		.byte	0x1
 1418 023b 09       		.uleb128 0x9
 1419 023c 04       		.byte	0x4
 1420 023d 35020000 		.4byte	0x235
 1421 0241 0E       		.uleb128 0xe
ARM GAS  G:\Users\Jaxb\AppData\Local\Temp\ccDpynBW.s 			page 32


 1422 0242 54434200 		.ascii	"TCB\000"
 1423 0246 05       		.byte	0x5
 1424 0247 47       		.byte	0x47
 1425 0248 43010000 		.4byte	0x143
 1426 024c 07       		.uleb128 0x7
 1427 024d 23030000 		.4byte	.LASF44
 1428 0251 0C       		.byte	0xc
 1429 0252 06       		.byte	0x6
 1430 0253 07       		.byte	0x7
 1431 0254 83020000 		.4byte	0x283
 1432 0258 08       		.uleb128 0x8
 1433 0259 EB000000 		.4byte	.LASF45
 1434 025d 06       		.byte	0x6
 1435 025e 08       		.byte	0x8
 1436 025f 93000000 		.4byte	0x93
 1437 0263 02       		.byte	0x2
 1438 0264 23       		.byte	0x23
 1439 0265 00       		.uleb128 0
 1440 0266 08       		.uleb128 0x8
 1441 0267 8E030000 		.4byte	.LASF46
 1442 026b 06       		.byte	0x6
 1443 026c 09       		.byte	0x9
 1444 026d 56000000 		.4byte	0x56
 1445 0271 02       		.byte	0x2
 1446 0272 23       		.byte	0x23
 1447 0273 08       		.uleb128 0x8
 1448 0274 08       		.uleb128 0x8
 1449 0275 9C010000 		.4byte	.LASF47
 1450 0279 06       		.byte	0x6
 1451 027a 0A       		.byte	0xa
 1452 027b 56000000 		.4byte	0x56
 1453 027f 02       		.byte	0x2
 1454 0280 23       		.byte	0x23
 1455 0281 09       		.uleb128 0x9
 1456 0282 00       		.byte	0
 1457 0283 02       		.uleb128 0x2
 1458 0284 F0000000 		.4byte	.LASF48
 1459 0288 02       		.byte	0x2
 1460 0289 0B       		.byte	0xb
 1461 028a 56000000 		.4byte	0x56
 1462 028e 02       		.uleb128 0x2
 1463 028f 4E020000 		.4byte	.LASF49
 1464 0293 02       		.byte	0x2
 1465 0294 0C       		.byte	0xc
 1466 0295 56000000 		.4byte	0x56
 1467 0299 03       		.uleb128 0x3
 1468 029a 8E020000 		.4byte	0x28e
 1469 029e 0F       		.uleb128 0xf
 1470 029f 99020000 		.4byte	0x299
 1471 02a3 AE020000 		.4byte	0x2ae
 1472 02a7 10       		.uleb128 0x10
 1473 02a8 6F000000 		.4byte	0x6f
 1474 02ac 07       		.byte	0x7
 1475 02ad 00       		.byte	0
 1476 02ae 03       		.uleb128 0x3
 1477 02af 9E020000 		.4byte	0x29e
 1478 02b3 11       		.uleb128 0x11
ARM GAS  G:\Users\Jaxb\AppData\Local\Temp\ccDpynBW.s 			page 33


 1479 02b4 6D617000 		.ascii	"map\000"
 1480 02b8 02       		.byte	0x2
 1481 02b9 0E       		.byte	0xe
 1482 02ba AE020000 		.4byte	0x2ae
 1483 02be 05       		.byte	0x5
 1484 02bf 03       		.byte	0x3
 1485 02c0 00000000 		.4byte	map
 1486 02c4 0F       		.uleb128 0xf
 1487 02c5 30000000 		.4byte	0x30
 1488 02c9 D4020000 		.4byte	0x2d4
 1489 02cd 10       		.uleb128 0x10
 1490 02ce 6F000000 		.4byte	0x6f
 1491 02d2 FF       		.byte	0xff
 1492 02d3 00       		.byte	0
 1493 02d4 03       		.uleb128 0x3
 1494 02d5 C4020000 		.4byte	0x2c4
 1495 02d9 12       		.uleb128 0x12
 1496 02da 18020000 		.4byte	.LASF50
 1497 02de 02       		.byte	0x2
 1498 02df 18       		.byte	0x18
 1499 02e0 D4020000 		.4byte	0x2d4
 1500 02e4 05       		.byte	0x5
 1501 02e5 03       		.byte	0x3
 1502 02e6 08000000 		.4byte	unmap
 1503 02ea 12       		.uleb128 0x12
 1504 02eb 35020000 		.4byte	.LASF51
 1505 02ef 02       		.byte	0x2
 1506 02f0 2B       		.byte	0x2b
 1507 02f1 83020000 		.4byte	0x283
 1508 02f5 05       		.byte	0x5
 1509 02f6 03       		.byte	0x3
 1510 02f7 00000000 		.4byte	ready_group
 1511 02fb 0F       		.uleb128 0xf
 1512 02fc 8E020000 		.4byte	0x28e
 1513 0300 0B030000 		.4byte	0x30b
 1514 0304 10       		.uleb128 0x10
 1515 0305 6F000000 		.4byte	0x6f
 1516 0309 07       		.byte	0x7
 1517 030a 00       		.byte	0
 1518 030b 12       		.uleb128 0x12
 1519 030c 65020000 		.4byte	.LASF52
 1520 0310 02       		.byte	0x2
 1521 0311 2C       		.byte	0x2c
 1522 0312 FB020000 		.4byte	0x2fb
 1523 0316 05       		.byte	0x5
 1524 0317 03       		.byte	0x3
 1525 0318 04000000 		.4byte	ready_table
 1526 031c 13       		.uleb128 0x13
 1527 031d 01       		.byte	0x1
 1528 031e C4030000 		.4byte	.LASF59
 1529 0322 02       		.byte	0x2
 1530 0323 6E       		.byte	0x6e
 1531 0324 01       		.byte	0x1
 1532 0325 F4010000 		.4byte	.LFB24
 1533 0329 F0030000 		.4byte	.LFE24
 1534 032d 00000000 		.4byte	.LLST5
 1535 0331 01       		.byte	0x1
ARM GAS  G:\Users\Jaxb\AppData\Local\Temp\ccDpynBW.s 			page 34


 1536 0332 1A040000 		.4byte	0x41a
 1537 0336 11       		.uleb128 0x11
 1538 0337 6900     		.ascii	"i\000"
 1539 0339 02       		.byte	0x2
 1540 033a 70       		.byte	0x70
 1541 033b 6F000000 		.4byte	0x6f
 1542 033f 02       		.byte	0x2
 1543 0340 91       		.byte	0x91
 1544 0341 74       		.sleb128 -12
 1545 0342 11       		.uleb128 0x11
 1546 0343 6A00     		.ascii	"j\000"
 1547 0345 02       		.byte	0x2
 1548 0346 70       		.byte	0x70
 1549 0347 6F000000 		.4byte	0x6f
 1550 034b 02       		.byte	0x2
 1551 034c 91       		.byte	0x91
 1552 034d 70       		.sleb128 -16
 1553 034e 11       		.uleb128 0x11
 1554 034f 6E756D00 		.ascii	"num\000"
 1555 0353 02       		.byte	0x2
 1556 0354 71       		.byte	0x71
 1557 0355 6F000000 		.4byte	0x6f
 1558 0359 02       		.byte	0x2
 1559 035a 91       		.byte	0x91
 1560 035b 6C       		.sleb128 -20
 1561 035c 11       		.uleb128 0x11
 1562 035d 706F7300 		.ascii	"pos\000"
 1563 0361 02       		.byte	0x2
 1564 0362 72       		.byte	0x72
 1565 0363 C1000000 		.4byte	0xc1
 1566 0367 02       		.byte	0x2
 1567 0368 91       		.byte	0x91
 1568 0369 68       		.sleb128 -24
 1569 036a 12       		.uleb128 0x12
 1570 036b EB000000 		.4byte	.LASF45
 1571 036f 02       		.byte	0x2
 1572 0370 72       		.byte	0x72
 1573 0371 C1000000 		.4byte	0xc1
 1574 0375 02       		.byte	0x2
 1575 0376 91       		.byte	0x91
 1576 0377 5C       		.sleb128 -36
 1577 0378 12       		.uleb128 0x12
 1578 0379 22010000 		.4byte	.LASF53
 1579 037d 02       		.byte	0x2
 1580 037e 73       		.byte	0x73
 1581 037f 1A040000 		.4byte	0x41a
 1582 0383 02       		.byte	0x2
 1583 0384 91       		.byte	0x91
 1584 0385 54       		.sleb128 -44
 1585 0386 12       		.uleb128 0x12
 1586 0387 7A000000 		.4byte	.LASF54
 1587 038b 02       		.byte	0x2
 1588 038c 74       		.byte	0x74
 1589 038d 6F000000 		.4byte	0x6f
 1590 0391 02       		.byte	0x2
 1591 0392 91       		.byte	0x91
 1592 0393 64       		.sleb128 -28
ARM GAS  G:\Users\Jaxb\AppData\Local\Temp\ccDpynBW.s 			page 35


 1593 0394 12       		.uleb128 0x12
 1594 0395 9C010000 		.4byte	.LASF47
 1595 0399 02       		.byte	0x2
 1596 039a 75       		.byte	0x75
 1597 039b 6F000000 		.4byte	0x6f
 1598 039f 02       		.byte	0x2
 1599 03a0 91       		.byte	0x91
 1600 03a1 60       		.sleb128 -32
 1601 03a2 14       		.uleb128 0x14
 1602 03a3 6F757400 		.ascii	"out\000"
 1603 03a7 02       		.byte	0x2
 1604 03a8 B8       		.byte	0xb8
 1605 03a9 88030000 		.4byte	.L40
 1606 03ad 15       		.uleb128 0x15
 1607 03ae 76020000 		.4byte	.LBB3
 1608 03b2 7E020000 		.4byte	.LBE3
 1609 03b6 C9030000 		.4byte	0x3c9
 1610 03ba 12       		.uleb128 0x12
 1611 03bb FD020000 		.4byte	.LASF55
 1612 03bf 02       		.byte	0x2
 1613 03c0 8E       		.byte	0x8e
 1614 03c1 20040000 		.4byte	0x420
 1615 03c5 02       		.byte	0x2
 1616 03c6 91       		.byte	0x91
 1617 03c7 48       		.sleb128 -56
 1618 03c8 00       		.byte	0
 1619 03c9 15       		.uleb128 0x15
 1620 03ca C6020000 		.4byte	.LBB4
 1621 03ce CC020000 		.4byte	.LBE4
 1622 03d2 E5030000 		.4byte	0x3e5
 1623 03d6 12       		.uleb128 0x12
 1624 03d7 FD020000 		.4byte	.LASF55
 1625 03db 02       		.byte	0x2
 1626 03dc 99       		.byte	0x99
 1627 03dd 20040000 		.4byte	0x420
 1628 03e1 02       		.byte	0x2
 1629 03e2 91       		.byte	0x91
 1630 03e3 50       		.sleb128 -48
 1631 03e4 00       		.byte	0
 1632 03e5 15       		.uleb128 0x15
 1633 03e6 DE020000 		.4byte	.LBB5
 1634 03ea E4020000 		.4byte	.LBE5
 1635 03ee 01040000 		.4byte	0x401
 1636 03f2 12       		.uleb128 0x12
 1637 03f3 FD020000 		.4byte	.LASF55
 1638 03f7 02       		.byte	0x2
 1639 03f8 9D       		.byte	0x9d
 1640 03f9 20040000 		.4byte	0x420
 1641 03fd 02       		.byte	0x2
 1642 03fe 91       		.byte	0x91
 1643 03ff 4C       		.sleb128 -52
 1644 0400 00       		.byte	0
 1645 0401 16       		.uleb128 0x16
 1646 0402 4A030000 		.4byte	.LBB6
 1647 0406 52030000 		.4byte	.LBE6
 1648 040a 12       		.uleb128 0x12
 1649 040b FD020000 		.4byte	.LASF55
ARM GAS  G:\Users\Jaxb\AppData\Local\Temp\ccDpynBW.s 			page 36


 1650 040f 02       		.byte	0x2
 1651 0410 AF       		.byte	0xaf
 1652 0411 20040000 		.4byte	0x420
 1653 0415 02       		.byte	0x2
 1654 0416 91       		.byte	0x91
 1655 0417 58       		.sleb128 -40
 1656 0418 00       		.byte	0
 1657 0419 00       		.byte	0
 1658 041a 09       		.uleb128 0x9
 1659 041b 04       		.byte	0x4
 1660 041c 41020000 		.4byte	0x241
 1661 0420 09       		.uleb128 0x9
 1662 0421 04       		.byte	0x4
 1663 0422 BC000000 		.4byte	0xbc
 1664 0426 17       		.uleb128 0x17
 1665 0427 01       		.byte	0x1
 1666 0428 0F000000 		.4byte	.LASF56
 1667 042c 02       		.byte	0x2
 1668 042d 57       		.byte	0x57
 1669 042e 01       		.byte	0x1
 1670 042f 1A040000 		.4byte	0x41a
 1671 0433 74010000 		.4byte	.LFB23
 1672 0437 F4010000 		.4byte	.LFE23
 1673 043b 50000000 		.4byte	.LLST4
 1674 043f 01       		.byte	0x1
 1675 0440 93040000 		.4byte	0x493
 1676 0444 11       		.uleb128 0x11
 1677 0445 7900     		.ascii	"y\000"
 1678 0447 02       		.byte	0x2
 1679 0448 59       		.byte	0x59
 1680 0449 43000000 		.4byte	0x43
 1681 044d 02       		.byte	0x2
 1682 044e 91       		.byte	0x91
 1683 044f 70       		.sleb128 -16
 1684 0450 11       		.uleb128 0x11
 1685 0451 706F7300 		.ascii	"pos\000"
 1686 0455 02       		.byte	0x2
 1687 0456 5A       		.byte	0x5a
 1688 0457 C1000000 		.4byte	0xc1
 1689 045b 02       		.byte	0x2
 1690 045c 91       		.byte	0x91
 1691 045d 74       		.sleb128 -12
 1692 045e 12       		.uleb128 0x12
 1693 045f EB000000 		.4byte	.LASF45
 1694 0463 02       		.byte	0x2
 1695 0464 5A       		.byte	0x5a
 1696 0465 C1000000 		.4byte	0xc1
 1697 0469 02       		.byte	0x2
 1698 046a 91       		.byte	0x91
 1699 046b 6C       		.sleb128 -20
 1700 046c 12       		.uleb128 0x12
 1701 046d 22010000 		.4byte	.LASF53
 1702 0471 02       		.byte	0x2
 1703 0472 5B       		.byte	0x5b
 1704 0473 1A040000 		.4byte	0x41a
 1705 0477 02       		.byte	0x2
 1706 0478 91       		.byte	0x91
ARM GAS  G:\Users\Jaxb\AppData\Local\Temp\ccDpynBW.s 			page 37


 1707 0479 64       		.sleb128 -28
 1708 047a 16       		.uleb128 0x16
 1709 047b AC010000 		.4byte	.LBB2
 1710 047f B4010000 		.4byte	.LBE2
 1711 0483 12       		.uleb128 0x12
 1712 0484 FD020000 		.4byte	.LASF55
 1713 0488 02       		.byte	0x2
 1714 0489 62       		.byte	0x62
 1715 048a 20040000 		.4byte	0x420
 1716 048e 02       		.byte	0x2
 1717 048f 91       		.byte	0x91
 1718 0490 68       		.sleb128 -24
 1719 0491 00       		.byte	0
 1720 0492 00       		.byte	0
 1721 0493 17       		.uleb128 0x17
 1722 0494 01       		.byte	0x1
 1723 0495 C6020000 		.4byte	.LASF57
 1724 0499 02       		.byte	0x2
 1725 049a 45       		.byte	0x45
 1726 049b 01       		.byte	0x1
 1727 049c 43000000 		.4byte	0x43
 1728 04a0 D0000000 		.4byte	.LFB22
 1729 04a4 74010000 		.4byte	.LFE22
 1730 04a8 A0000000 		.4byte	.LLST3
 1731 04ac 01       		.byte	0x1
 1732 04ad C0040000 		.4byte	0x4c0
 1733 04b1 18       		.uleb128 0x18
 1734 04b2 22010000 		.4byte	.LASF53
 1735 04b6 02       		.byte	0x2
 1736 04b7 45       		.byte	0x45
 1737 04b8 1A040000 		.4byte	0x41a
 1738 04bc 02       		.byte	0x2
 1739 04bd 91       		.byte	0x91
 1740 04be 74       		.sleb128 -12
 1741 04bf 00       		.byte	0
 1742 04c0 17       		.uleb128 0x17
 1743 04c1 01       		.byte	0x1
 1744 04c2 57030000 		.4byte	.LASF58
 1745 04c6 02       		.byte	0x2
 1746 04c7 39       		.byte	0x39
 1747 04c8 01       		.byte	0x1
 1748 04c9 43000000 		.4byte	0x43
 1749 04cd 5C000000 		.4byte	.LFB21
 1750 04d1 D0000000 		.4byte	.LFE21
 1751 04d5 F0000000 		.4byte	.LLST2
 1752 04d9 01       		.byte	0x1
 1753 04da ED040000 		.4byte	0x4ed
 1754 04de 18       		.uleb128 0x18
 1755 04df 22010000 		.4byte	.LASF53
 1756 04e3 02       		.byte	0x2
 1757 04e4 39       		.byte	0x39
 1758 04e5 1A040000 		.4byte	0x41a
 1759 04e9 02       		.byte	0x2
 1760 04ea 91       		.byte	0x91
 1761 04eb 74       		.sleb128 -12
 1762 04ec 00       		.byte	0
 1763 04ed 19       		.uleb128 0x19
ARM GAS  G:\Users\Jaxb\AppData\Local\Temp\ccDpynBW.s 			page 38


 1764 04ee 01       		.byte	0x1
 1765 04ef 80020000 		.4byte	.LASF60
 1766 04f3 02       		.byte	0x2
 1767 04f4 2F       		.byte	0x2f
 1768 04f5 01       		.byte	0x1
 1769 04f6 22000000 		.4byte	.LFB20
 1770 04fa 5C000000 		.4byte	.LFE20
 1771 04fe 40010000 		.4byte	.LLST1
 1772 0502 01       		.byte	0x1
 1773 0503 14050000 		.4byte	0x514
 1774 0507 11       		.uleb128 0x11
 1775 0508 6900     		.ascii	"i\000"
 1776 050a 02       		.byte	0x2
 1777 050b 31       		.byte	0x31
 1778 050c 6F000000 		.4byte	0x6f
 1779 0510 02       		.byte	0x2
 1780 0511 91       		.byte	0x91
 1781 0512 74       		.sleb128 -12
 1782 0513 00       		.byte	0
 1783 0514 1A       		.uleb128 0x1a
 1784 0515 B8010000 		.4byte	.LASF67
 1785 0519 01       		.byte	0x1
 1786 051a 52       		.byte	0x52
 1787 051b 01       		.byte	0x1
 1788 051c 43000000 		.4byte	0x43
 1789 0520 00000000 		.4byte	.LFB9
 1790 0524 22000000 		.4byte	.LFE9
 1791 0528 9C010000 		.4byte	.LLST0
 1792 052c 01       		.byte	0x1
 1793 052d 18       		.uleb128 0x18
 1794 052e EB000000 		.4byte	.LASF45
 1795 0532 01       		.byte	0x1
 1796 0533 52       		.byte	0x52
 1797 0534 20040000 		.4byte	0x420
 1798 0538 02       		.byte	0x2
 1799 0539 91       		.byte	0x91
 1800 053a 74       		.sleb128 -12
 1801 053b 00       		.byte	0
 1802 053c 00       		.byte	0
 1803              		.section	.debug_abbrev,"",%progbits
 1804              	.Ldebug_abbrev0:
 1805 0000 01       		.uleb128 0x1
 1806 0001 11       		.uleb128 0x11
 1807 0002 01       		.byte	0x1
 1808 0003 25       		.uleb128 0x25
 1809 0004 0E       		.uleb128 0xe
 1810 0005 13       		.uleb128 0x13
 1811 0006 0B       		.uleb128 0xb
 1812 0007 03       		.uleb128 0x3
 1813 0008 0E       		.uleb128 0xe
 1814 0009 1B       		.uleb128 0x1b
 1815 000a 0E       		.uleb128 0xe
 1816 000b 11       		.uleb128 0x11
 1817 000c 01       		.uleb128 0x1
 1818 000d 12       		.uleb128 0x12
 1819 000e 01       		.uleb128 0x1
 1820 000f 10       		.uleb128 0x10
ARM GAS  G:\Users\Jaxb\AppData\Local\Temp\ccDpynBW.s 			page 39


 1821 0010 06       		.uleb128 0x6
 1822 0011 00       		.byte	0
 1823 0012 00       		.byte	0
 1824 0013 02       		.uleb128 0x2
 1825 0014 16       		.uleb128 0x16
 1826 0015 00       		.byte	0
 1827 0016 03       		.uleb128 0x3
 1828 0017 0E       		.uleb128 0xe
 1829 0018 3A       		.uleb128 0x3a
 1830 0019 0B       		.uleb128 0xb
 1831 001a 3B       		.uleb128 0x3b
 1832 001b 0B       		.uleb128 0xb
 1833 001c 49       		.uleb128 0x49
 1834 001d 13       		.uleb128 0x13
 1835 001e 00       		.byte	0
 1836 001f 00       		.byte	0
 1837 0020 03       		.uleb128 0x3
 1838 0021 26       		.uleb128 0x26
 1839 0022 00       		.byte	0
 1840 0023 49       		.uleb128 0x49
 1841 0024 13       		.uleb128 0x13
 1842 0025 00       		.byte	0
 1843 0026 00       		.byte	0
 1844 0027 04       		.uleb128 0x4
 1845 0028 24       		.uleb128 0x24
 1846 0029 00       		.byte	0
 1847 002a 0B       		.uleb128 0xb
 1848 002b 0B       		.uleb128 0xb
 1849 002c 3E       		.uleb128 0x3e
 1850 002d 0B       		.uleb128 0xb
 1851 002e 03       		.uleb128 0x3
 1852 002f 0E       		.uleb128 0xe
 1853 0030 00       		.byte	0
 1854 0031 00       		.byte	0
 1855 0032 05       		.uleb128 0x5
 1856 0033 24       		.uleb128 0x24
 1857 0034 00       		.byte	0
 1858 0035 0B       		.uleb128 0xb
 1859 0036 0B       		.uleb128 0xb
 1860 0037 3E       		.uleb128 0x3e
 1861 0038 0B       		.uleb128 0xb
 1862 0039 03       		.uleb128 0x3
 1863 003a 08       		.uleb128 0x8
 1864 003b 00       		.byte	0
 1865 003c 00       		.byte	0
 1866 003d 06       		.uleb128 0x6
 1867 003e 35       		.uleb128 0x35
 1868 003f 00       		.byte	0
 1869 0040 49       		.uleb128 0x49
 1870 0041 13       		.uleb128 0x13
 1871 0042 00       		.byte	0
 1872 0043 00       		.byte	0
 1873 0044 07       		.uleb128 0x7
 1874 0045 13       		.uleb128 0x13
 1875 0046 01       		.byte	0x1
 1876 0047 03       		.uleb128 0x3
 1877 0048 0E       		.uleb128 0xe
ARM GAS  G:\Users\Jaxb\AppData\Local\Temp\ccDpynBW.s 			page 40


 1878 0049 0B       		.uleb128 0xb
 1879 004a 0B       		.uleb128 0xb
 1880 004b 3A       		.uleb128 0x3a
 1881 004c 0B       		.uleb128 0xb
 1882 004d 3B       		.uleb128 0x3b
 1883 004e 0B       		.uleb128 0xb
 1884 004f 01       		.uleb128 0x1
 1885 0050 13       		.uleb128 0x13
 1886 0051 00       		.byte	0
 1887 0052 00       		.byte	0
 1888 0053 08       		.uleb128 0x8
 1889 0054 0D       		.uleb128 0xd
 1890 0055 00       		.byte	0
 1891 0056 03       		.uleb128 0x3
 1892 0057 0E       		.uleb128 0xe
 1893 0058 3A       		.uleb128 0x3a
 1894 0059 0B       		.uleb128 0xb
 1895 005a 3B       		.uleb128 0x3b
 1896 005b 0B       		.uleb128 0xb
 1897 005c 49       		.uleb128 0x49
 1898 005d 13       		.uleb128 0x13
 1899 005e 38       		.uleb128 0x38
 1900 005f 0A       		.uleb128 0xa
 1901 0060 00       		.byte	0
 1902 0061 00       		.byte	0
 1903 0062 09       		.uleb128 0x9
 1904 0063 0F       		.uleb128 0xf
 1905 0064 00       		.byte	0
 1906 0065 0B       		.uleb128 0xb
 1907 0066 0B       		.uleb128 0xb
 1908 0067 49       		.uleb128 0x49
 1909 0068 13       		.uleb128 0x13
 1910 0069 00       		.byte	0
 1911 006a 00       		.byte	0
 1912 006b 0A       		.uleb128 0xa
 1913 006c 04       		.uleb128 0x4
 1914 006d 01       		.byte	0x1
 1915 006e 03       		.uleb128 0x3
 1916 006f 0E       		.uleb128 0xe
 1917 0070 3E       		.uleb128 0x3e
 1918 0071 0B       		.uleb128 0xb
 1919 0072 0B       		.uleb128 0xb
 1920 0073 0B       		.uleb128 0xb
 1921 0074 49       		.uleb128 0x49
 1922 0075 13       		.uleb128 0x13
 1923 0076 3A       		.uleb128 0x3a
 1924 0077 0B       		.uleb128 0xb
 1925 0078 3B       		.uleb128 0x3b
 1926 0079 0B       		.uleb128 0xb
 1927 007a 01       		.uleb128 0x1
 1928 007b 13       		.uleb128 0x13
 1929 007c 00       		.byte	0
 1930 007d 00       		.byte	0
 1931 007e 0B       		.uleb128 0xb
 1932 007f 28       		.uleb128 0x28
 1933 0080 00       		.byte	0
 1934 0081 03       		.uleb128 0x3
ARM GAS  G:\Users\Jaxb\AppData\Local\Temp\ccDpynBW.s 			page 41


 1935 0082 0E       		.uleb128 0xe
 1936 0083 1C       		.uleb128 0x1c
 1937 0084 0B       		.uleb128 0xb
 1938 0085 00       		.byte	0
 1939 0086 00       		.byte	0
 1940 0087 0C       		.uleb128 0xc
 1941 0088 34       		.uleb128 0x34
 1942 0089 00       		.byte	0
 1943 008a 03       		.uleb128 0x3
 1944 008b 0E       		.uleb128 0xe
 1945 008c 3A       		.uleb128 0x3a
 1946 008d 0B       		.uleb128 0xb
 1947 008e 3B       		.uleb128 0x3b
 1948 008f 0B       		.uleb128 0xb
 1949 0090 49       		.uleb128 0x49
 1950 0091 13       		.uleb128 0x13
 1951 0092 3F       		.uleb128 0x3f
 1952 0093 0C       		.uleb128 0xc
 1953 0094 3C       		.uleb128 0x3c
 1954 0095 0C       		.uleb128 0xc
 1955 0096 00       		.byte	0
 1956 0097 00       		.byte	0
 1957 0098 0D       		.uleb128 0xd
 1958 0099 13       		.uleb128 0x13
 1959 009a 00       		.byte	0
 1960 009b 03       		.uleb128 0x3
 1961 009c 0E       		.uleb128 0xe
 1962 009d 3C       		.uleb128 0x3c
 1963 009e 0C       		.uleb128 0xc
 1964 009f 00       		.byte	0
 1965 00a0 00       		.byte	0
 1966 00a1 0E       		.uleb128 0xe
 1967 00a2 16       		.uleb128 0x16
 1968 00a3 00       		.byte	0
 1969 00a4 03       		.uleb128 0x3
 1970 00a5 08       		.uleb128 0x8
 1971 00a6 3A       		.uleb128 0x3a
 1972 00a7 0B       		.uleb128 0xb
 1973 00a8 3B       		.uleb128 0x3b
 1974 00a9 0B       		.uleb128 0xb
 1975 00aa 49       		.uleb128 0x49
 1976 00ab 13       		.uleb128 0x13
 1977 00ac 00       		.byte	0
 1978 00ad 00       		.byte	0
 1979 00ae 0F       		.uleb128 0xf
 1980 00af 01       		.uleb128 0x1
 1981 00b0 01       		.byte	0x1
 1982 00b1 49       		.uleb128 0x49
 1983 00b2 13       		.uleb128 0x13
 1984 00b3 01       		.uleb128 0x1
 1985 00b4 13       		.uleb128 0x13
 1986 00b5 00       		.byte	0
 1987 00b6 00       		.byte	0
 1988 00b7 10       		.uleb128 0x10
 1989 00b8 21       		.uleb128 0x21
 1990 00b9 00       		.byte	0
 1991 00ba 49       		.uleb128 0x49
ARM GAS  G:\Users\Jaxb\AppData\Local\Temp\ccDpynBW.s 			page 42


 1992 00bb 13       		.uleb128 0x13
 1993 00bc 2F       		.uleb128 0x2f
 1994 00bd 0B       		.uleb128 0xb
 1995 00be 00       		.byte	0
 1996 00bf 00       		.byte	0
 1997 00c0 11       		.uleb128 0x11
 1998 00c1 34       		.uleb128 0x34
 1999 00c2 00       		.byte	0
 2000 00c3 03       		.uleb128 0x3
 2001 00c4 08       		.uleb128 0x8
 2002 00c5 3A       		.uleb128 0x3a
 2003 00c6 0B       		.uleb128 0xb
 2004 00c7 3B       		.uleb128 0x3b
 2005 00c8 0B       		.uleb128 0xb
 2006 00c9 49       		.uleb128 0x49
 2007 00ca 13       		.uleb128 0x13
 2008 00cb 02       		.uleb128 0x2
 2009 00cc 0A       		.uleb128 0xa
 2010 00cd 00       		.byte	0
 2011 00ce 00       		.byte	0
 2012 00cf 12       		.uleb128 0x12
 2013 00d0 34       		.uleb128 0x34
 2014 00d1 00       		.byte	0
 2015 00d2 03       		.uleb128 0x3
 2016 00d3 0E       		.uleb128 0xe
 2017 00d4 3A       		.uleb128 0x3a
 2018 00d5 0B       		.uleb128 0xb
 2019 00d6 3B       		.uleb128 0x3b
 2020 00d7 0B       		.uleb128 0xb
 2021 00d8 49       		.uleb128 0x49
 2022 00d9 13       		.uleb128 0x13
 2023 00da 02       		.uleb128 0x2
 2024 00db 0A       		.uleb128 0xa
 2025 00dc 00       		.byte	0
 2026 00dd 00       		.byte	0
 2027 00de 13       		.uleb128 0x13
 2028 00df 2E       		.uleb128 0x2e
 2029 00e0 01       		.byte	0x1
 2030 00e1 3F       		.uleb128 0x3f
 2031 00e2 0C       		.uleb128 0xc
 2032 00e3 03       		.uleb128 0x3
 2033 00e4 0E       		.uleb128 0xe
 2034 00e5 3A       		.uleb128 0x3a
 2035 00e6 0B       		.uleb128 0xb
 2036 00e7 3B       		.uleb128 0x3b
 2037 00e8 0B       		.uleb128 0xb
 2038 00e9 27       		.uleb128 0x27
 2039 00ea 0C       		.uleb128 0xc
 2040 00eb 11       		.uleb128 0x11
 2041 00ec 01       		.uleb128 0x1
 2042 00ed 12       		.uleb128 0x12
 2043 00ee 01       		.uleb128 0x1
 2044 00ef 40       		.uleb128 0x40
 2045 00f0 06       		.uleb128 0x6
 2046 00f1 9642     		.uleb128 0x2116
 2047 00f3 0C       		.uleb128 0xc
 2048 00f4 01       		.uleb128 0x1
ARM GAS  G:\Users\Jaxb\AppData\Local\Temp\ccDpynBW.s 			page 43


 2049 00f5 13       		.uleb128 0x13
 2050 00f6 00       		.byte	0
 2051 00f7 00       		.byte	0
 2052 00f8 14       		.uleb128 0x14
 2053 00f9 0A       		.uleb128 0xa
 2054 00fa 00       		.byte	0
 2055 00fb 03       		.uleb128 0x3
 2056 00fc 08       		.uleb128 0x8
 2057 00fd 3A       		.uleb128 0x3a
 2058 00fe 0B       		.uleb128 0xb
 2059 00ff 3B       		.uleb128 0x3b
 2060 0100 0B       		.uleb128 0xb
 2061 0101 11       		.uleb128 0x11
 2062 0102 01       		.uleb128 0x1
 2063 0103 00       		.byte	0
 2064 0104 00       		.byte	0
 2065 0105 15       		.uleb128 0x15
 2066 0106 0B       		.uleb128 0xb
 2067 0107 01       		.byte	0x1
 2068 0108 11       		.uleb128 0x11
 2069 0109 01       		.uleb128 0x1
 2070 010a 12       		.uleb128 0x12
 2071 010b 01       		.uleb128 0x1
 2072 010c 01       		.uleb128 0x1
 2073 010d 13       		.uleb128 0x13
 2074 010e 00       		.byte	0
 2075 010f 00       		.byte	0
 2076 0110 16       		.uleb128 0x16
 2077 0111 0B       		.uleb128 0xb
 2078 0112 01       		.byte	0x1
 2079 0113 11       		.uleb128 0x11
 2080 0114 01       		.uleb128 0x1
 2081 0115 12       		.uleb128 0x12
 2082 0116 01       		.uleb128 0x1
 2083 0117 00       		.byte	0
 2084 0118 00       		.byte	0
 2085 0119 17       		.uleb128 0x17
 2086 011a 2E       		.uleb128 0x2e
 2087 011b 01       		.byte	0x1
 2088 011c 3F       		.uleb128 0x3f
 2089 011d 0C       		.uleb128 0xc
 2090 011e 03       		.uleb128 0x3
 2091 011f 0E       		.uleb128 0xe
 2092 0120 3A       		.uleb128 0x3a
 2093 0121 0B       		.uleb128 0xb
 2094 0122 3B       		.uleb128 0x3b
 2095 0123 0B       		.uleb128 0xb
 2096 0124 27       		.uleb128 0x27
 2097 0125 0C       		.uleb128 0xc
 2098 0126 49       		.uleb128 0x49
 2099 0127 13       		.uleb128 0x13
 2100 0128 11       		.uleb128 0x11
 2101 0129 01       		.uleb128 0x1
 2102 012a 12       		.uleb128 0x12
 2103 012b 01       		.uleb128 0x1
 2104 012c 40       		.uleb128 0x40
 2105 012d 06       		.uleb128 0x6
ARM GAS  G:\Users\Jaxb\AppData\Local\Temp\ccDpynBW.s 			page 44


 2106 012e 9642     		.uleb128 0x2116
 2107 0130 0C       		.uleb128 0xc
 2108 0131 01       		.uleb128 0x1
 2109 0132 13       		.uleb128 0x13
 2110 0133 00       		.byte	0
 2111 0134 00       		.byte	0
 2112 0135 18       		.uleb128 0x18
 2113 0136 05       		.uleb128 0x5
 2114 0137 00       		.byte	0
 2115 0138 03       		.uleb128 0x3
 2116 0139 0E       		.uleb128 0xe
 2117 013a 3A       		.uleb128 0x3a
 2118 013b 0B       		.uleb128 0xb
 2119 013c 3B       		.uleb128 0x3b
 2120 013d 0B       		.uleb128 0xb
 2121 013e 49       		.uleb128 0x49
 2122 013f 13       		.uleb128 0x13
 2123 0140 02       		.uleb128 0x2
 2124 0141 0A       		.uleb128 0xa
 2125 0142 00       		.byte	0
 2126 0143 00       		.byte	0
 2127 0144 19       		.uleb128 0x19
 2128 0145 2E       		.uleb128 0x2e
 2129 0146 01       		.byte	0x1
 2130 0147 3F       		.uleb128 0x3f
 2131 0148 0C       		.uleb128 0xc
 2132 0149 03       		.uleb128 0x3
 2133 014a 0E       		.uleb128 0xe
 2134 014b 3A       		.uleb128 0x3a
 2135 014c 0B       		.uleb128 0xb
 2136 014d 3B       		.uleb128 0x3b
 2137 014e 0B       		.uleb128 0xb
 2138 014f 27       		.uleb128 0x27
 2139 0150 0C       		.uleb128 0xc
 2140 0151 11       		.uleb128 0x11
 2141 0152 01       		.uleb128 0x1
 2142 0153 12       		.uleb128 0x12
 2143 0154 01       		.uleb128 0x1
 2144 0155 40       		.uleb128 0x40
 2145 0156 06       		.uleb128 0x6
 2146 0157 9742     		.uleb128 0x2117
 2147 0159 0C       		.uleb128 0xc
 2148 015a 01       		.uleb128 0x1
 2149 015b 13       		.uleb128 0x13
 2150 015c 00       		.byte	0
 2151 015d 00       		.byte	0
 2152 015e 1A       		.uleb128 0x1a
 2153 015f 2E       		.uleb128 0x2e
 2154 0160 01       		.byte	0x1
 2155 0161 03       		.uleb128 0x3
 2156 0162 0E       		.uleb128 0xe
 2157 0163 3A       		.uleb128 0x3a
 2158 0164 0B       		.uleb128 0xb
 2159 0165 3B       		.uleb128 0x3b
 2160 0166 0B       		.uleb128 0xb
 2161 0167 27       		.uleb128 0x27
 2162 0168 0C       		.uleb128 0xc
ARM GAS  G:\Users\Jaxb\AppData\Local\Temp\ccDpynBW.s 			page 45


 2163 0169 49       		.uleb128 0x49
 2164 016a 13       		.uleb128 0x13
 2165 016b 11       		.uleb128 0x11
 2166 016c 01       		.uleb128 0x1
 2167 016d 12       		.uleb128 0x12
 2168 016e 01       		.uleb128 0x1
 2169 016f 40       		.uleb128 0x40
 2170 0170 06       		.uleb128 0x6
 2171 0171 9742     		.uleb128 0x2117
 2172 0173 0C       		.uleb128 0xc
 2173 0174 00       		.byte	0
 2174 0175 00       		.byte	0
 2175 0176 00       		.byte	0
 2176              		.section	.debug_loc,"",%progbits
 2177              	.Ldebug_loc0:
 2178              	.LLST5:
 2179 0000 F4010000 		.4byte	.LFB24-.Ltext0
 2180 0004 F6010000 		.4byte	.LCFI27-.Ltext0
 2181 0008 0200     		.2byte	0x2
 2182 000a 7D       		.byte	0x7d
 2183 000b 00       		.sleb128 0
 2184 000c F6010000 		.4byte	.LCFI27-.Ltext0
 2185 0010 F8010000 		.4byte	.LCFI28-.Ltext0
 2186 0014 0200     		.2byte	0x2
 2187 0016 7D       		.byte	0x7d
 2188 0017 08       		.sleb128 8
 2189 0018 F8010000 		.4byte	.LCFI28-.Ltext0
 2190 001c FA010000 		.4byte	.LCFI29-.Ltext0
 2191 0020 0200     		.2byte	0x2
 2192 0022 7D       		.byte	0x7d
 2193 0023 38       		.sleb128 56
 2194 0024 FA010000 		.4byte	.LCFI29-.Ltext0
 2195 0028 BA030000 		.4byte	.LCFI30-.Ltext0
 2196 002c 0200     		.2byte	0x2
 2197 002e 77       		.byte	0x77
 2198 002f 38       		.sleb128 56
 2199 0030 BA030000 		.4byte	.LCFI30-.Ltext0
 2200 0034 BC030000 		.4byte	.LCFI31-.Ltext0
 2201 0038 0200     		.2byte	0x2
 2202 003a 77       		.byte	0x77
 2203 003b 08       		.sleb128 8
 2204 003c BC030000 		.4byte	.LCFI31-.Ltext0
 2205 0040 F0030000 		.4byte	.LFE24-.Ltext0
 2206 0044 0200     		.2byte	0x2
 2207 0046 7D       		.byte	0x7d
 2208 0047 08       		.sleb128 8
 2209 0048 00000000 		.4byte	0
 2210 004c 00000000 		.4byte	0
 2211              	.LLST4:
 2212 0050 74010000 		.4byte	.LFB23-.Ltext0
 2213 0054 76010000 		.4byte	.LCFI22-.Ltext0
 2214 0058 0200     		.2byte	0x2
 2215 005a 7D       		.byte	0x7d
 2216 005b 00       		.sleb128 0
 2217 005c 76010000 		.4byte	.LCFI22-.Ltext0
 2218 0060 78010000 		.4byte	.LCFI23-.Ltext0
 2219 0064 0200     		.2byte	0x2
ARM GAS  G:\Users\Jaxb\AppData\Local\Temp\ccDpynBW.s 			page 46


 2220 0066 7D       		.byte	0x7d
 2221 0067 08       		.sleb128 8
 2222 0068 78010000 		.4byte	.LCFI23-.Ltext0
 2223 006c 7A010000 		.4byte	.LCFI24-.Ltext0
 2224 0070 0200     		.2byte	0x2
 2225 0072 7D       		.byte	0x7d
 2226 0073 20       		.sleb128 32
 2227 0074 7A010000 		.4byte	.LCFI24-.Ltext0
 2228 0078 DE010000 		.4byte	.LCFI25-.Ltext0
 2229 007c 0200     		.2byte	0x2
 2230 007e 77       		.byte	0x77
 2231 007f 20       		.sleb128 32
 2232 0080 DE010000 		.4byte	.LCFI25-.Ltext0
 2233 0084 E0010000 		.4byte	.LCFI26-.Ltext0
 2234 0088 0200     		.2byte	0x2
 2235 008a 77       		.byte	0x77
 2236 008b 08       		.sleb128 8
 2237 008c E0010000 		.4byte	.LCFI26-.Ltext0
 2238 0090 F4010000 		.4byte	.LFE23-.Ltext0
 2239 0094 0200     		.2byte	0x2
 2240 0096 7D       		.byte	0x7d
 2241 0097 08       		.sleb128 8
 2242 0098 00000000 		.4byte	0
 2243 009c 00000000 		.4byte	0
 2244              	.LLST3:
 2245 00a0 D0000000 		.4byte	.LFB22-.Ltext0
 2246 00a4 D2000000 		.4byte	.LCFI17-.Ltext0
 2247 00a8 0200     		.2byte	0x2
 2248 00aa 7D       		.byte	0x7d
 2249 00ab 00       		.sleb128 0
 2250 00ac D2000000 		.4byte	.LCFI17-.Ltext0
 2251 00b0 D4000000 		.4byte	.LCFI18-.Ltext0
 2252 00b4 0200     		.2byte	0x2
 2253 00b6 7D       		.byte	0x7d
 2254 00b7 08       		.sleb128 8
 2255 00b8 D4000000 		.4byte	.LCFI18-.Ltext0
 2256 00bc D6000000 		.4byte	.LCFI19-.Ltext0
 2257 00c0 0200     		.2byte	0x2
 2258 00c2 7D       		.byte	0x7d
 2259 00c3 10       		.sleb128 16
 2260 00c4 D6000000 		.4byte	.LCFI19-.Ltext0
 2261 00c8 60010000 		.4byte	.LCFI20-.Ltext0
 2262 00cc 0200     		.2byte	0x2
 2263 00ce 77       		.byte	0x77
 2264 00cf 10       		.sleb128 16
 2265 00d0 60010000 		.4byte	.LCFI20-.Ltext0
 2266 00d4 62010000 		.4byte	.LCFI21-.Ltext0
 2267 00d8 0200     		.2byte	0x2
 2268 00da 77       		.byte	0x77
 2269 00db 08       		.sleb128 8
 2270 00dc 62010000 		.4byte	.LCFI21-.Ltext0
 2271 00e0 74010000 		.4byte	.LFE22-.Ltext0
 2272 00e4 0200     		.2byte	0x2
 2273 00e6 7D       		.byte	0x7d
 2274 00e7 08       		.sleb128 8
 2275 00e8 00000000 		.4byte	0
 2276 00ec 00000000 		.4byte	0
ARM GAS  G:\Users\Jaxb\AppData\Local\Temp\ccDpynBW.s 			page 47


 2277              	.LLST2:
 2278 00f0 5C000000 		.4byte	.LFB21-.Ltext0
 2279 00f4 5E000000 		.4byte	.LCFI12-.Ltext0
 2280 00f8 0200     		.2byte	0x2
 2281 00fa 7D       		.byte	0x7d
 2282 00fb 00       		.sleb128 0
 2283 00fc 5E000000 		.4byte	.LCFI12-.Ltext0
 2284 0100 60000000 		.4byte	.LCFI13-.Ltext0
 2285 0104 0200     		.2byte	0x2
 2286 0106 7D       		.byte	0x7d
 2287 0107 08       		.sleb128 8
 2288 0108 60000000 		.4byte	.LCFI13-.Ltext0
 2289 010c 62000000 		.4byte	.LCFI14-.Ltext0
 2290 0110 0200     		.2byte	0x2
 2291 0112 7D       		.byte	0x7d
 2292 0113 10       		.sleb128 16
 2293 0114 62000000 		.4byte	.LCFI14-.Ltext0
 2294 0118 BC000000 		.4byte	.LCFI15-.Ltext0
 2295 011c 0200     		.2byte	0x2
 2296 011e 77       		.byte	0x77
 2297 011f 10       		.sleb128 16
 2298 0120 BC000000 		.4byte	.LCFI15-.Ltext0
 2299 0124 BE000000 		.4byte	.LCFI16-.Ltext0
 2300 0128 0200     		.2byte	0x2
 2301 012a 77       		.byte	0x77
 2302 012b 08       		.sleb128 8
 2303 012c BE000000 		.4byte	.LCFI16-.Ltext0
 2304 0130 D0000000 		.4byte	.LFE21-.Ltext0
 2305 0134 0200     		.2byte	0x2
 2306 0136 7D       		.byte	0x7d
 2307 0137 08       		.sleb128 8
 2308 0138 00000000 		.4byte	0
 2309 013c 00000000 		.4byte	0
 2310              	.LLST1:
 2311 0140 22000000 		.4byte	.LFB20-.Ltext0
 2312 0144 24000000 		.4byte	.LCFI6-.Ltext0
 2313 0148 0200     		.2byte	0x2
 2314 014a 7D       		.byte	0x7d
 2315 014b 00       		.sleb128 0
 2316 014c 24000000 		.4byte	.LCFI6-.Ltext0
 2317 0150 26000000 		.4byte	.LCFI7-.Ltext0
 2318 0154 0200     		.2byte	0x2
 2319 0156 7D       		.byte	0x7d
 2320 0157 04       		.sleb128 4
 2321 0158 26000000 		.4byte	.LCFI7-.Ltext0
 2322 015c 28000000 		.4byte	.LCFI8-.Ltext0
 2323 0160 0200     		.2byte	0x2
 2324 0162 7D       		.byte	0x7d
 2325 0163 10       		.sleb128 16
 2326 0164 28000000 		.4byte	.LCFI8-.Ltext0
 2327 0168 4E000000 		.4byte	.LCFI9-.Ltext0
 2328 016c 0200     		.2byte	0x2
 2329 016e 77       		.byte	0x77
 2330 016f 10       		.sleb128 16
 2331 0170 4E000000 		.4byte	.LCFI9-.Ltext0
 2332 0174 50000000 		.4byte	.LCFI10-.Ltext0
 2333 0178 0200     		.2byte	0x2
ARM GAS  G:\Users\Jaxb\AppData\Local\Temp\ccDpynBW.s 			page 48


 2334 017a 77       		.byte	0x77
 2335 017b 04       		.sleb128 4
 2336 017c 50000000 		.4byte	.LCFI10-.Ltext0
 2337 0180 52000000 		.4byte	.LCFI11-.Ltext0
 2338 0184 0200     		.2byte	0x2
 2339 0186 7D       		.byte	0x7d
 2340 0187 04       		.sleb128 4
 2341 0188 52000000 		.4byte	.LCFI11-.Ltext0
 2342 018c 5C000000 		.4byte	.LFE20-.Ltext0
 2343 0190 0200     		.2byte	0x2
 2344 0192 7D       		.byte	0x7d
 2345 0193 00       		.sleb128 0
 2346 0194 00000000 		.4byte	0
 2347 0198 00000000 		.4byte	0
 2348              	.LLST0:
 2349 019c 00000000 		.4byte	.LFB9-.Ltext0
 2350 01a0 02000000 		.4byte	.LCFI0-.Ltext0
 2351 01a4 0200     		.2byte	0x2
 2352 01a6 7D       		.byte	0x7d
 2353 01a7 00       		.sleb128 0
 2354 01a8 02000000 		.4byte	.LCFI0-.Ltext0
 2355 01ac 04000000 		.4byte	.LCFI1-.Ltext0
 2356 01b0 0200     		.2byte	0x2
 2357 01b2 7D       		.byte	0x7d
 2358 01b3 04       		.sleb128 4
 2359 01b4 04000000 		.4byte	.LCFI1-.Ltext0
 2360 01b8 06000000 		.4byte	.LCFI2-.Ltext0
 2361 01bc 0200     		.2byte	0x2
 2362 01be 7D       		.byte	0x7d
 2363 01bf 10       		.sleb128 16
 2364 01c0 06000000 		.4byte	.LCFI2-.Ltext0
 2365 01c4 1C000000 		.4byte	.LCFI3-.Ltext0
 2366 01c8 0200     		.2byte	0x2
 2367 01ca 77       		.byte	0x77
 2368 01cb 10       		.sleb128 16
 2369 01cc 1C000000 		.4byte	.LCFI3-.Ltext0
 2370 01d0 1E000000 		.4byte	.LCFI4-.Ltext0
 2371 01d4 0200     		.2byte	0x2
 2372 01d6 77       		.byte	0x77
 2373 01d7 04       		.sleb128 4
 2374 01d8 1E000000 		.4byte	.LCFI4-.Ltext0
 2375 01dc 20000000 		.4byte	.LCFI5-.Ltext0
 2376 01e0 0200     		.2byte	0x2
 2377 01e2 7D       		.byte	0x7d
 2378 01e3 04       		.sleb128 4
 2379 01e4 20000000 		.4byte	.LCFI5-.Ltext0
 2380 01e8 22000000 		.4byte	.LFE9-.Ltext0
 2381 01ec 0200     		.2byte	0x2
 2382 01ee 7D       		.byte	0x7d
 2383 01ef 00       		.sleb128 0
 2384 01f0 00000000 		.4byte	0
 2385 01f4 00000000 		.4byte	0
 2386              		.section	.debug_aranges,"",%progbits
 2387 0000 1C000000 		.4byte	0x1c
 2388 0004 0200     		.2byte	0x2
 2389 0006 00000000 		.4byte	.Ldebug_info0
 2390 000a 04       		.byte	0x4
ARM GAS  G:\Users\Jaxb\AppData\Local\Temp\ccDpynBW.s 			page 49


 2391 000b 00       		.byte	0
 2392 000c 0000     		.2byte	0
 2393 000e 0000     		.2byte	0
 2394 0010 00000000 		.4byte	.Ltext0
 2395 0014 F0030000 		.4byte	.Letext0-.Ltext0
 2396 0018 00000000 		.4byte	0
 2397 001c 00000000 		.4byte	0
 2398              		.section	.debug_line,"",%progbits
 2399              	.Ldebug_line0:
 2400 0000 F3010000 		.section	.debug_str,"MS",%progbits,1
 2400      0200FC00 
 2400      00000201 
 2400      FB0E0D00 
 2400      01010101 
 2401              	.LASF25:
 2402 0000 5441534B 		.ascii	"TASK_PRIO_TYPE\000"
 2402      5F505249 
 2402      4F5F5459 
 2402      504500
 2403              	.LASF56:
 2404 000f 5F676574 		.ascii	"_get_highest_prio_ready_TCB\000"
 2404      5F686967 
 2404      68657374 
 2404      5F707269 
 2404      6F5F7265 
 2405              	.LASF62:
 2406 002b 2E2E2F2E 		.ascii	"../../source/src/kernel/OS_CORE/schedule/os_ready.c"
 2406      2E2F736F 
 2406      75726365 
 2406      2F737263 
 2406      2F6B6572 
 2407 005e 00       		.ascii	"\000"
 2408              	.LASF26:
 2409 005f 6C697374 		.ascii	"list_head\000"
 2409      5F686561 
 2409      6400
 2410              	.LASF1:
 2411 0069 73686F72 		.ascii	"short int\000"
 2411      7420696E 
 2411      7400
 2412              	.LASF10:
 2413 0073 73697A65 		.ascii	"size_t\000"
 2413      5F7400
 2414              	.LASF54:
 2415 007a 72656164 		.ascii	"ready_TCB_num\000"
 2415      795F5443 
 2415      425F6E75 
 2415      6D00
 2416              	.LASF18:
 2417 0088 53544154 		.ascii	"STATE_WAIT_MESSAGE_QUEUE_FOREVER\000"
 2417      455F5741 
 2417      49545F4D 
 2417      45535341 
 2417      47455F51 
 2418              	.LASF6:
 2419 00a9 55494E54 		.ascii	"UINT32\000"
 2419      333200
ARM GAS  G:\Users\Jaxb\AppData\Local\Temp\ccDpynBW.s 			page 50


 2420              	.LASF24:
 2421 00b0 53544143 		.ascii	"STACK_TYPE\000"
 2421      4B5F5459 
 2421      504500
 2422              	.LASF64:
 2423 00bb 5461736B 		.ascii	"Task_State\000"
 2423      5F537461 
 2423      746500
 2424              	.LASF20:
 2425 00c6 53544154 		.ascii	"STATE_PUT_MESSAGE_QUEUE_FOREVER\000"
 2425      455F5055 
 2425      545F4D45 
 2425      53534147 
 2425      455F5155 
 2426              	.LASF5:
 2427 00e6 494E5438 		.ascii	"INT8\000"
 2427      00
 2428              	.LASF45:
 2429 00eb 68656164 		.ascii	"head\000"
 2429      00
 2430              	.LASF48:
 2431 00f0 52454144 		.ascii	"READY_GROUP_TYPE\000"
 2431      595F4752 
 2431      4F55505F 
 2431      54595045 
 2431      00
 2432              	.LASF30:
 2433 0101 73746163 		.ascii	"stack_end\000"
 2433      6B5F656E 
 2433      6400
 2434              	.LASF17:
 2435 010b 53544154 		.ascii	"STATE_WAIT_MCB_TIMEOUT\000"
 2435      455F5741 
 2435      49545F4D 
 2435      43425F54 
 2435      494D454F 
 2436              	.LASF53:
 2437 0122 5443425F 		.ascii	"TCB_ptr\000"
 2437      70747200 
 2438              	.LASF15:
 2439 012a 53544154 		.ascii	"STATE_SUSPEND_NORMAL\000"
 2439      455F5355 
 2439      5350454E 
 2439      445F4E4F 
 2439      524D414C 
 2440              	.LASF19:
 2441 013f 53544154 		.ascii	"STATE_WAIT_MESSAGE_QUEUE_TIMEOUT\000"
 2441      455F5741 
 2441      49545F4D 
 2441      45535341 
 2441      47455F51 
 2442              	.LASF63:
 2443 0160 463A5C6B 		.ascii	"F:\\kaka\\KAKAOS\\C\\windows\\Project\\RVMDK\243\250"
 2443      616B615C 
 2443      4B414B41 
 2443      4F535C43 
 2443      5C77696E 
ARM GAS  G:\Users\Jaxb\AppData\Local\Temp\ccDpynBW.s 			page 51


 2444 0188 757635A3 		.ascii	"uv5\243\251\000"
 2444      A900
 2445              	.LASF2:
 2446 018e 6C6F6E67 		.ascii	"long long int\000"
 2446      206C6F6E 
 2446      6720696E 
 2446      7400
 2447              	.LASF47:
 2448 019c 5443425F 		.ascii	"TCB_num\000"
 2448      6E756D00 
 2449              	.LASF38:
 2450 01a4 74696D65 		.ascii	"timeslice_hope_time\000"
 2450      736C6963 
 2450      655F686F 
 2450      70655F74 
 2450      696D6500 
 2451              	.LASF67:
 2452 01b8 6C697374 		.ascii	"list_empty\000"
 2452      5F656D70 
 2452      747900
 2453              	.LASF23:
 2454 01c3 5441534B 		.ascii	"TASK_STATE\000"
 2454      5F535441 
 2454      544500
 2455              	.LASF37:
 2456 01ce 6E616D65 		.ascii	"name\000"
 2456      00
 2457              	.LASF41:
 2458 01d3 64796E61 		.ascii	"dynamic_module_ptr\000"
 2458      6D69635F 
 2458      6D6F6475 
 2458      6C655F70 
 2458      747200
 2459              	.LASF3:
 2460 01e6 756E7369 		.ascii	"unsigned char\000"
 2460      676E6564 
 2460      20636861 
 2460      7200
 2461              	.LASF14:
 2462 01f4 53544154 		.ascii	"STATE_DELAY\000"
 2462      455F4445 
 2462      4C415900 
 2463              	.LASF40:
 2464 0200 61747472 		.ascii	"attribution\000"
 2464      69627574 
 2464      696F6E00 
 2465              	.LASF0:
 2466 020c 7369676E 		.ascii	"signed char\000"
 2466      65642063 
 2466      68617200 
 2467              	.LASF50:
 2468 0218 756E6D61 		.ascii	"unmap\000"
 2468      7000
 2469              	.LASF9:
 2470 021e 6C6F6E67 		.ascii	"long long unsigned int\000"
 2470      206C6F6E 
 2470      6720756E 
ARM GAS  G:\Users\Jaxb\AppData\Local\Temp\ccDpynBW.s 			page 52


 2470      7369676E 
 2470      65642069 
 2471              	.LASF51:
 2472 0235 72656164 		.ascii	"ready_group\000"
 2472      795F6772 
 2472      6F757000 
 2473              	.LASF7:
 2474 0241 756E7369 		.ascii	"unsigned int\000"
 2474      676E6564 
 2474      20696E74 
 2474      00
 2475              	.LASF49:
 2476 024e 52454144 		.ascii	"READY_TABLE_TYPE\000"
 2476      595F5441 
 2476      424C455F 
 2476      54595045 
 2476      00
 2477              	.LASF28:
 2478 025f 73746163 		.ascii	"stack\000"
 2478      6B00
 2479              	.LASF52:
 2480 0265 72656164 		.ascii	"ready_table\000"
 2480      795F7461 
 2480      626C6500 
 2481              	.LASF35:
 2482 0271 73616D65 		.ascii	"same_prio_list\000"
 2482      5F707269 
 2482      6F5F6C69 
 2482      737400
 2483              	.LASF60:
 2484 0280 5F5F696E 		.ascii	"__init_ready_group\000"
 2484      69745F72 
 2484      65616479 
 2484      5F67726F 
 2484      757000
 2485              	.LASF66:
 2486 0293 64796E61 		.ascii	"dynamic_module\000"
 2486      6D69635F 
 2486      6D6F6475 
 2486      6C6500
 2487              	.LASF4:
 2488 02a2 73686F72 		.ascii	"short unsigned int\000"
 2488      7420756E 
 2488      7369676E 
 2488      65642069 
 2488      6E7400
 2489              	.LASF13:
 2490 02b5 53544154 		.ascii	"STATE_READY\000"
 2490      455F5245 
 2490      41445900 
 2491              	.LASF43:
 2492 02c1 63686172 		.ascii	"char\000"
 2492      00
 2493              	.LASF57:
 2494 02c6 5F64656C 		.ascii	"_delete_TCB_from_ready\000"
 2494      6574655F 
 2494      5443425F 
ARM GAS  G:\Users\Jaxb\AppData\Local\Temp\ccDpynBW.s 			page 53


 2494      66726F6D 
 2494      5F726561 
 2495              	.LASF21:
 2496 02dd 53544154 		.ascii	"STATE_PUT_MESSAGE_QUEUE_TIMEOUT\000"
 2496      455F5055 
 2496      545F4D45 
 2496      53534147 
 2496      455F5155 
 2497              	.LASF55:
 2498 02fd 5F5F6D70 		.ascii	"__mptr\000"
 2498      747200
 2499              	.LASF34:
 2500 0304 64656C61 		.ascii	"delay_heap_position\000"
 2500      795F6865 
 2500      61705F70 
 2500      6F736974 
 2500      696F6E00 
 2501              	.LASF32:
 2502 0318 7461736B 		.ascii	"task_state\000"
 2502      5F737461 
 2502      746500
 2503              	.LASF44:
 2504 0323 5443425F 		.ascii	"TCB_list\000"
 2504      6C697374 
 2504      00
 2505              	.LASF39:
 2506 032c 74696D65 		.ascii	"timeslice_rest_time\000"
 2506      736C6963 
 2506      655F7265 
 2506      73745F74 
 2506      696D6500 
 2507              	.LASF16:
 2508 0340 53544154 		.ascii	"STATE_WAIT_MCB_FOREVER\000"
 2508      455F5741 
 2508      49545F4D 
 2508      43425F46 
 2508      4F524556 
 2509              	.LASF58:
 2510 0357 5F696E73 		.ascii	"_insert_ready_TCB\000"
 2510      6572745F 
 2510      72656164 
 2510      795F5443 
 2510      4200
 2511              	.LASF27:
 2512 0369 7461736B 		.ascii	"task_control_block_struct\000"
 2512      5F636F6E 
 2512      74726F6C 
 2512      5F626C6F 
 2512      636B5F73 
 2513              	.LASF29:
 2514 0383 73746163 		.ascii	"stack_size\000"
 2514      6B5F7369 
 2514      7A6500
 2515              	.LASF46:
 2516 038e 72656164 		.ascii	"ready_num\000"
 2516      795F6E75 
 2516      6D00
ARM GAS  G:\Users\Jaxb\AppData\Local\Temp\ccDpynBW.s 			page 54


 2517              	.LASF31:
 2518 0398 72657365 		.ascii	"reserve_prio\000"
 2518      7276655F 
 2518      7072696F 
 2518      00
 2519              	.LASF36:
 2520 03a5 73757370 		.ascii	"suspend_list\000"
 2520      656E645F 
 2520      6C697374 
 2520      00
 2521              	.LASF65:
 2522 03b2 675F696E 		.ascii	"g_interrupt_count\000"
 2522      74657272 
 2522      7570745F 
 2522      636F756E 
 2522      7400
 2523              	.LASF59:
 2524 03c4 7368656C 		.ascii	"shell_check_os_ready\000"
 2524      6C5F6368 
 2524      65636B5F 
 2524      6F735F72 
 2524      65616479 
 2525              	.LASF61:
 2526 03d9 474E5520 		.ascii	"GNU C11 7.3.1 20180622 (release) [ARM/embedded-7-br"
 2526      43313120 
 2526      372E332E 
 2526      31203230 
 2526      31383036 
 2527 040c 616E6368 		.ascii	"anch revision 261907] -mcpu=cortex-m3 -mthumb -mapc"
 2527      20726576 
 2527      6973696F 
 2527      6E203236 
 2527      31393037 
 2528 043f 732D6672 		.ascii	"s-frame -mthumb-interwork -mcpu=cortex-m3 -mthumb -"
 2528      616D6520 
 2528      2D6D7468 
 2528      756D622D 
 2528      696E7465 
 2529 0472 67647761 		.ascii	"gdwarf-2 -O0\000"
 2529      72662D32 
 2529      202D4F30 
 2529      00
 2530              	.LASF22:
 2531 047f 53544154 		.ascii	"STATE_WAIT_MUTEX_FOREVER\000"
 2531      455F5741 
 2531      49545F4D 
 2531      55544558 
 2531      5F464F52 
 2532              	.LASF12:
 2533 0498 70726576 		.ascii	"prev\000"
 2533      00
 2534              	.LASF42:
 2535 049d 64656C61 		.ascii	"delay_reach_time\000"
 2535      795F7265 
 2535      6163685F 
 2535      74696D65 
 2535      00
ARM GAS  G:\Users\Jaxb\AppData\Local\Temp\ccDpynBW.s 			page 55


 2536              	.LASF8:
 2537 04ae 55494E54 		.ascii	"UINT64\000"
 2537      363400
 2538              	.LASF33:
 2539 04b5 7072696F 		.ascii	"prio\000"
 2539      00
 2540              	.LASF11:
 2541 04ba 6E657874 		.ascii	"next\000"
 2541      00
 2542              		.ident	"GCC: (GNU Tools for Arm Embedded Processors 7-2018-q2-update) 7.3.1 20180622 (release) [AR
ARM GAS  G:\Users\Jaxb\AppData\Local\Temp\ccDpynBW.s 			page 56


DEFINED SYMBOLS
                            *ABS*:00000000 os_ready.c
G:\Users\Jaxb\AppData\Local\Temp\ccDpynBW.s:15     .text:00000000 $t
G:\Users\Jaxb\AppData\Local\Temp\ccDpynBW.s:21     .text:00000000 list_empty
G:\Users\Jaxb\AppData\Local\Temp\ccDpynBW.s:67     .rodata:00000000 $d
G:\Users\Jaxb\AppData\Local\Temp\ccDpynBW.s:70     .rodata:00000000 map
G:\Users\Jaxb\AppData\Local\Temp\ccDpynBW.s:82     .rodata:00000008 unmap
G:\Users\Jaxb\AppData\Local\Temp\ccDpynBW.s:340    .bss:00000000 ready_group
G:\Users\Jaxb\AppData\Local\Temp\ccDpynBW.s:341    .bss:00000000 $d
G:\Users\Jaxb\AppData\Local\Temp\ccDpynBW.s:344    .bss:00000004 ready_table
G:\Users\Jaxb\AppData\Local\Temp\ccDpynBW.s:355    .text:00000022 __init_ready_group
G:\Users\Jaxb\AppData\Local\Temp\ccDpynBW.s:414    .text:00000054 $d
G:\Users\Jaxb\AppData\Local\Temp\ccDpynBW.s:425    .text:0000005c $t
G:\Users\Jaxb\AppData\Local\Temp\ccDpynBW.s:432    .text:0000005c _insert_ready_TCB
G:\Users\Jaxb\AppData\Local\Temp\ccDpynBW.s:510    .text:000000c0 $d
G:\Users\Jaxb\AppData\Local\Temp\ccDpynBW.s:517    .text:000000d0 $t
G:\Users\Jaxb\AppData\Local\Temp\ccDpynBW.s:524    .text:000000d0 _delete_TCB_from_ready
G:\Users\Jaxb\AppData\Local\Temp\ccDpynBW.s:630    .text:00000164 $d
G:\Users\Jaxb\AppData\Local\Temp\ccDpynBW.s:637    .text:00000174 $t
G:\Users\Jaxb\AppData\Local\Temp\ccDpynBW.s:644    .text:00000174 _get_highest_prio_ready_TCB
G:\Users\Jaxb\AppData\Local\Temp\ccDpynBW.s:736    .text:000001e4 $d
G:\Users\Jaxb\AppData\Local\Temp\ccDpynBW.s:778    .text:000001f4 $t
G:\Users\Jaxb\AppData\Local\Temp\ccDpynBW.s:785    .text:000001f4 shell_check_os_ready
G:\Users\Jaxb\AppData\Local\Temp\ccDpynBW.s:1099   .text:000003c0 $d

UNDEFINED SYMBOLS
_ASSERT
_increase_ready_num
_decrease_ready_num
_get_ready_num_from_TCB_list
_get_from_TCB_list
ka_printf
