ARM GAS  G:\Users\Jaxb\AppData\Local\Temp\cc9A7QMu.s 			page 1


   1              		.cpu cortex-m3
   2              		.eabi_attribute 20, 1
   3              		.eabi_attribute 21, 1
   4              		.eabi_attribute 23, 3
   5              		.eabi_attribute 24, 1
   6              		.eabi_attribute 25, 1
   7              		.eabi_attribute 26, 1
   8              		.eabi_attribute 30, 6
   9              		.eabi_attribute 34, 1
  10              		.eabi_attribute 18, 4
  11              		.file	"os_ready.c"
  12              		.text
  13              	.Ltext0:
  14              		.cfi_sections	.debug_frame
  15              		.align	1
  16              		.syntax unified
  17              		.thumb
  18              		.thumb_func
  19              		.fpu softvfp
  20              		.type	list_empty, %function
  21              	list_empty:
  22              	.LFB9:
  23              		.file 1 "../../source/include/os_lib/double_linked_list.h"
   1:../../source/include/os_lib/double_linked_list.h **** #ifndef _DOUBLE_LINKED_LIST_H
   2:../../source/include/os_lib/double_linked_list.h **** #define _DOUBLE_LINKED_LIST_H
   3:../../source/include/os_lib/double_linked_list.h **** 
   4:../../source/include/os_lib/double_linked_list.h **** struct list_head {
   5:../../source/include/os_lib/double_linked_list.h ****     struct list_head *next, *prev;
   6:../../source/include/os_lib/double_linked_list.h **** };
   7:../../source/include/os_lib/double_linked_list.h **** 
   8:../../source/include/os_lib/double_linked_list.h **** 
   9:../../source/include/os_lib/double_linked_list.h **** #define LIST_HEAD_INIT(name) { &(name), &(name) }
  10:../../source/include/os_lib/double_linked_list.h **** 
  11:../../source/include/os_lib/double_linked_list.h **** 
  12:../../source/include/os_lib/double_linked_list.h **** #define LIST_HEAD(name) \
  13:../../source/include/os_lib/double_linked_list.h ****     struct list_head name = LIST_HEAD_INIT(name)
  14:../../source/include/os_lib/double_linked_list.h **** 
  15:../../source/include/os_lib/double_linked_list.h **** 
  16:../../source/include/os_lib/double_linked_list.h **** static inline void INIT_LIST_HEAD(struct list_head *list)
  17:../../source/include/os_lib/double_linked_list.h **** {
  18:../../source/include/os_lib/double_linked_list.h ****     list->next = list;
  19:../../source/include/os_lib/double_linked_list.h ****     list->prev = list;
  20:../../source/include/os_lib/double_linked_list.h **** }
  21:../../source/include/os_lib/double_linked_list.h **** 
  22:../../source/include/os_lib/double_linked_list.h **** 
  23:../../source/include/os_lib/double_linked_list.h **** static inline void __list_add(struct list_head *new,
  24:../../source/include/os_lib/double_linked_list.h ****                   struct list_head *prev,
  25:../../source/include/os_lib/double_linked_list.h ****                   struct list_head *next)
  26:../../source/include/os_lib/double_linked_list.h **** {
  27:../../source/include/os_lib/double_linked_list.h ****     next->prev = new;
  28:../../source/include/os_lib/double_linked_list.h ****     new->next = next;
  29:../../source/include/os_lib/double_linked_list.h ****     new->prev = prev;
  30:../../source/include/os_lib/double_linked_list.h ****     prev->next = new;
  31:../../source/include/os_lib/double_linked_list.h **** }
  32:../../source/include/os_lib/double_linked_list.h **** 
  33:../../source/include/os_lib/double_linked_list.h **** 
  34:../../source/include/os_lib/double_linked_list.h **** static inline void list_add(struct list_head *new, struct list_head *head)
ARM GAS  G:\Users\Jaxb\AppData\Local\Temp\cc9A7QMu.s 			page 2


  35:../../source/include/os_lib/double_linked_list.h **** {
  36:../../source/include/os_lib/double_linked_list.h ****     __list_add(new, head, head->next);
  37:../../source/include/os_lib/double_linked_list.h **** }
  38:../../source/include/os_lib/double_linked_list.h **** 
  39:../../source/include/os_lib/double_linked_list.h **** 
  40:../../source/include/os_lib/double_linked_list.h **** static inline void list_add_tail(struct list_head *new, struct list_head *head)
  41:../../source/include/os_lib/double_linked_list.h **** {
  42:../../source/include/os_lib/double_linked_list.h ****     __list_add(new, head->prev, head);
  43:../../source/include/os_lib/double_linked_list.h **** }
  44:../../source/include/os_lib/double_linked_list.h **** 
  45:../../source/include/os_lib/double_linked_list.h **** 
  46:../../source/include/os_lib/double_linked_list.h **** static inline void __list_del(struct list_head * prev, struct list_head * next)
  47:../../source/include/os_lib/double_linked_list.h **** {
  48:../../source/include/os_lib/double_linked_list.h ****     next->prev = prev;
  49:../../source/include/os_lib/double_linked_list.h ****     prev->next = next;
  50:../../source/include/os_lib/double_linked_list.h **** }
  51:../../source/include/os_lib/double_linked_list.h **** 
  52:../../source/include/os_lib/double_linked_list.h **** 
  53:../../source/include/os_lib/double_linked_list.h **** static inline void list_del(struct list_head *entry)
  54:../../source/include/os_lib/double_linked_list.h **** {
  55:../../source/include/os_lib/double_linked_list.h ****     __list_del(entry->prev, entry->next);
  56:../../source/include/os_lib/double_linked_list.h **** }
  57:../../source/include/os_lib/double_linked_list.h **** 
  58:../../source/include/os_lib/double_linked_list.h **** 
  59:../../source/include/os_lib/double_linked_list.h **** static inline void __list_del_entry(struct list_head *entry)
  60:../../source/include/os_lib/double_linked_list.h **** {
  61:../../source/include/os_lib/double_linked_list.h ****     __list_del(entry->prev, entry->next);
  62:../../source/include/os_lib/double_linked_list.h **** }
  63:../../source/include/os_lib/double_linked_list.h **** 
  64:../../source/include/os_lib/double_linked_list.h **** 
  65:../../source/include/os_lib/double_linked_list.h **** static inline void list_del_init(struct list_head *entry)
  66:../../source/include/os_lib/double_linked_list.h **** {
  67:../../source/include/os_lib/double_linked_list.h ****     __list_del_entry(entry);
  68:../../source/include/os_lib/double_linked_list.h ****     INIT_LIST_HEAD(entry);
  69:../../source/include/os_lib/double_linked_list.h **** }
  70:../../source/include/os_lib/double_linked_list.h **** 
  71:../../source/include/os_lib/double_linked_list.h **** 
  72:../../source/include/os_lib/double_linked_list.h **** static inline void list_replace(struct list_head *old,
  73:../../source/include/os_lib/double_linked_list.h ****                 struct list_head *new)
  74:../../source/include/os_lib/double_linked_list.h **** {
  75:../../source/include/os_lib/double_linked_list.h ****     new->next = old->next;
  76:../../source/include/os_lib/double_linked_list.h ****     new->next->prev = new;
  77:../../source/include/os_lib/double_linked_list.h ****     new->prev = old->prev;
  78:../../source/include/os_lib/double_linked_list.h ****     new->prev->next = new;
  79:../../source/include/os_lib/double_linked_list.h **** }
  80:../../source/include/os_lib/double_linked_list.h **** 
  81:../../source/include/os_lib/double_linked_list.h **** 
  82:../../source/include/os_lib/double_linked_list.h **** static inline int list_empty(const struct list_head *head)
  83:../../source/include/os_lib/double_linked_list.h **** {
  24              		.loc 1 83 0
  25              		.cfi_startproc
  26              		@ args = 0, pretend = 0, frame = 8
  27              		@ frame_needed = 1, uses_anonymous_args = 0
  28              		@ link register save eliminated.
  29 0000 80B4     		push	{r7}
  30              	.LCFI0:
  31              		.cfi_def_cfa_offset 4
ARM GAS  G:\Users\Jaxb\AppData\Local\Temp\cc9A7QMu.s 			page 3


  32              		.cfi_offset 7, -4
  33 0002 83B0     		sub	sp, sp, #12
  34              	.LCFI1:
  35              		.cfi_def_cfa_offset 16
  36 0004 00AF     		add	r7, sp, #0
  37              	.LCFI2:
  38              		.cfi_def_cfa_register 7
  39 0006 7860     		str	r0, [r7, #4]
  84:../../source/include/os_lib/double_linked_list.h ****     return head->next == head;
  40              		.loc 1 84 0
  41 0008 7B68     		ldr	r3, [r7, #4]
  42 000a 1B68     		ldr	r3, [r3]
  43 000c 7A68     		ldr	r2, [r7, #4]
  44 000e 9A42     		cmp	r2, r3
  45 0010 0CBF     		ite	eq
  46 0012 0123     		moveq	r3, #1
  47 0014 0023     		movne	r3, #0
  48 0016 DBB2     		uxtb	r3, r3
  85:../../source/include/os_lib/double_linked_list.h **** }
  49              		.loc 1 85 0
  50 0018 1846     		mov	r0, r3
  51 001a 0C37     		adds	r7, r7, #12
  52              	.LCFI3:
  53              		.cfi_def_cfa_offset 4
  54 001c BD46     		mov	sp, r7
  55              	.LCFI4:
  56              		.cfi_def_cfa_register 13
  57              		@ sp needed
  58 001e 80BC     		pop	{r7}
  59              	.LCFI5:
  60              		.cfi_restore 7
  61              		.cfi_def_cfa_offset 0
  62 0020 7047     		bx	lr
  63              		.cfi_endproc
  64              	.LFE9:
  65              		.size	list_empty, .-list_empty
  66              		.section	.rodata
  67              		.align	2
  68              		.type	map, %object
  69              		.size	map, 8
  70              	map:
  71 0000 01       		.byte	1
  72 0001 02       		.byte	2
  73 0002 04       		.byte	4
  74 0003 08       		.byte	8
  75 0004 10       		.byte	16
  76 0005 20       		.byte	32
  77 0006 40       		.byte	64
  78 0007 80       		.byte	-128
  79              		.align	2
  80              		.type	unmap, %object
  81              		.size	unmap, 256
  82              	unmap:
  83 0008 00       		.byte	0
  84 0009 00       		.byte	0
  85 000a 01       		.byte	1
  86 000b 00       		.byte	0
ARM GAS  G:\Users\Jaxb\AppData\Local\Temp\cc9A7QMu.s 			page 4


  87 000c 02       		.byte	2
  88 000d 00       		.byte	0
  89 000e 01       		.byte	1
  90 000f 00       		.byte	0
  91 0010 03       		.byte	3
  92 0011 00       		.byte	0
  93 0012 01       		.byte	1
  94 0013 00       		.byte	0
  95 0014 02       		.byte	2
  96 0015 00       		.byte	0
  97 0016 01       		.byte	1
  98 0017 00       		.byte	0
  99 0018 04       		.byte	4
 100 0019 00       		.byte	0
 101 001a 01       		.byte	1
 102 001b 00       		.byte	0
 103 001c 02       		.byte	2
 104 001d 00       		.byte	0
 105 001e 01       		.byte	1
 106 001f 00       		.byte	0
 107 0020 03       		.byte	3
 108 0021 00       		.byte	0
 109 0022 01       		.byte	1
 110 0023 00       		.byte	0
 111 0024 02       		.byte	2
 112 0025 00       		.byte	0
 113 0026 01       		.byte	1
 114 0027 00       		.byte	0
 115 0028 05       		.byte	5
 116 0029 00       		.byte	0
 117 002a 01       		.byte	1
 118 002b 00       		.byte	0
 119 002c 02       		.byte	2
 120 002d 00       		.byte	0
 121 002e 01       		.byte	1
 122 002f 00       		.byte	0
 123 0030 03       		.byte	3
 124 0031 00       		.byte	0
 125 0032 01       		.byte	1
 126 0033 00       		.byte	0
 127 0034 02       		.byte	2
 128 0035 00       		.byte	0
 129 0036 01       		.byte	1
 130 0037 00       		.byte	0
 131 0038 04       		.byte	4
 132 0039 00       		.byte	0
 133 003a 01       		.byte	1
 134 003b 00       		.byte	0
 135 003c 02       		.byte	2
 136 003d 00       		.byte	0
 137 003e 01       		.byte	1
 138 003f 00       		.byte	0
 139 0040 03       		.byte	3
 140 0041 00       		.byte	0
 141 0042 01       		.byte	1
 142 0043 00       		.byte	0
 143 0044 02       		.byte	2
ARM GAS  G:\Users\Jaxb\AppData\Local\Temp\cc9A7QMu.s 			page 5


 144 0045 00       		.byte	0
 145 0046 01       		.byte	1
 146 0047 00       		.byte	0
 147 0048 06       		.byte	6
 148 0049 00       		.byte	0
 149 004a 01       		.byte	1
 150 004b 00       		.byte	0
 151 004c 02       		.byte	2
 152 004d 00       		.byte	0
 153 004e 01       		.byte	1
 154 004f 00       		.byte	0
 155 0050 03       		.byte	3
 156 0051 00       		.byte	0
 157 0052 01       		.byte	1
 158 0053 00       		.byte	0
 159 0054 02       		.byte	2
 160 0055 00       		.byte	0
 161 0056 01       		.byte	1
 162 0057 00       		.byte	0
 163 0058 04       		.byte	4
 164 0059 00       		.byte	0
 165 005a 01       		.byte	1
 166 005b 00       		.byte	0
 167 005c 02       		.byte	2
 168 005d 00       		.byte	0
 169 005e 01       		.byte	1
 170 005f 00       		.byte	0
 171 0060 03       		.byte	3
 172 0061 00       		.byte	0
 173 0062 01       		.byte	1
 174 0063 00       		.byte	0
 175 0064 02       		.byte	2
 176 0065 00       		.byte	0
 177 0066 01       		.byte	1
 178 0067 00       		.byte	0
 179 0068 05       		.byte	5
 180 0069 00       		.byte	0
 181 006a 01       		.byte	1
 182 006b 00       		.byte	0
 183 006c 02       		.byte	2
 184 006d 00       		.byte	0
 185 006e 01       		.byte	1
 186 006f 00       		.byte	0
 187 0070 03       		.byte	3
 188 0071 00       		.byte	0
 189 0072 01       		.byte	1
 190 0073 00       		.byte	0
 191 0074 02       		.byte	2
 192 0075 00       		.byte	0
 193 0076 01       		.byte	1
 194 0077 00       		.byte	0
 195 0078 04       		.byte	4
 196 0079 00       		.byte	0
 197 007a 01       		.byte	1
 198 007b 00       		.byte	0
 199 007c 02       		.byte	2
 200 007d 00       		.byte	0
ARM GAS  G:\Users\Jaxb\AppData\Local\Temp\cc9A7QMu.s 			page 6


 201 007e 01       		.byte	1
 202 007f 00       		.byte	0
 203 0080 03       		.byte	3
 204 0081 00       		.byte	0
 205 0082 01       		.byte	1
 206 0083 00       		.byte	0
 207 0084 02       		.byte	2
 208 0085 00       		.byte	0
 209 0086 01       		.byte	1
 210 0087 00       		.byte	0
 211 0088 07       		.byte	7
 212 0089 00       		.byte	0
 213 008a 01       		.byte	1
 214 008b 00       		.byte	0
 215 008c 02       		.byte	2
 216 008d 00       		.byte	0
 217 008e 01       		.byte	1
 218 008f 00       		.byte	0
 219 0090 03       		.byte	3
 220 0091 00       		.byte	0
 221 0092 01       		.byte	1
 222 0093 00       		.byte	0
 223 0094 02       		.byte	2
 224 0095 00       		.byte	0
 225 0096 01       		.byte	1
 226 0097 00       		.byte	0
 227 0098 04       		.byte	4
 228 0099 00       		.byte	0
 229 009a 01       		.byte	1
 230 009b 00       		.byte	0
 231 009c 02       		.byte	2
 232 009d 00       		.byte	0
 233 009e 01       		.byte	1
 234 009f 00       		.byte	0
 235 00a0 03       		.byte	3
 236 00a1 00       		.byte	0
 237 00a2 01       		.byte	1
 238 00a3 00       		.byte	0
 239 00a4 02       		.byte	2
 240 00a5 00       		.byte	0
 241 00a6 01       		.byte	1
 242 00a7 00       		.byte	0
 243 00a8 05       		.byte	5
 244 00a9 00       		.byte	0
 245 00aa 01       		.byte	1
 246 00ab 00       		.byte	0
 247 00ac 02       		.byte	2
 248 00ad 00       		.byte	0
 249 00ae 01       		.byte	1
 250 00af 00       		.byte	0
 251 00b0 03       		.byte	3
 252 00b1 00       		.byte	0
 253 00b2 01       		.byte	1
 254 00b3 00       		.byte	0
 255 00b4 02       		.byte	2
 256 00b5 00       		.byte	0
 257 00b6 01       		.byte	1
ARM GAS  G:\Users\Jaxb\AppData\Local\Temp\cc9A7QMu.s 			page 7


 258 00b7 00       		.byte	0
 259 00b8 04       		.byte	4
 260 00b9 00       		.byte	0
 261 00ba 01       		.byte	1
 262 00bb 00       		.byte	0
 263 00bc 02       		.byte	2
 264 00bd 00       		.byte	0
 265 00be 01       		.byte	1
 266 00bf 00       		.byte	0
 267 00c0 03       		.byte	3
 268 00c1 00       		.byte	0
 269 00c2 01       		.byte	1
 270 00c3 00       		.byte	0
 271 00c4 02       		.byte	2
 272 00c5 00       		.byte	0
 273 00c6 01       		.byte	1
 274 00c7 00       		.byte	0
 275 00c8 06       		.byte	6
 276 00c9 00       		.byte	0
 277 00ca 01       		.byte	1
 278 00cb 00       		.byte	0
 279 00cc 02       		.byte	2
 280 00cd 00       		.byte	0
 281 00ce 01       		.byte	1
 282 00cf 00       		.byte	0
 283 00d0 03       		.byte	3
 284 00d1 00       		.byte	0
 285 00d2 01       		.byte	1
 286 00d3 00       		.byte	0
 287 00d4 02       		.byte	2
 288 00d5 00       		.byte	0
 289 00d6 01       		.byte	1
 290 00d7 00       		.byte	0
 291 00d8 04       		.byte	4
 292 00d9 00       		.byte	0
 293 00da 01       		.byte	1
 294 00db 00       		.byte	0
 295 00dc 02       		.byte	2
 296 00dd 00       		.byte	0
 297 00de 01       		.byte	1
 298 00df 00       		.byte	0
 299 00e0 03       		.byte	3
 300 00e1 00       		.byte	0
 301 00e2 01       		.byte	1
 302 00e3 00       		.byte	0
 303 00e4 02       		.byte	2
 304 00e5 00       		.byte	0
 305 00e6 01       		.byte	1
 306 00e7 00       		.byte	0
 307 00e8 05       		.byte	5
 308 00e9 00       		.byte	0
 309 00ea 01       		.byte	1
 310 00eb 00       		.byte	0
 311 00ec 02       		.byte	2
 312 00ed 00       		.byte	0
 313 00ee 01       		.byte	1
 314 00ef 00       		.byte	0
ARM GAS  G:\Users\Jaxb\AppData\Local\Temp\cc9A7QMu.s 			page 8


 315 00f0 03       		.byte	3
 316 00f1 00       		.byte	0
 317 00f2 01       		.byte	1
 318 00f3 00       		.byte	0
 319 00f4 02       		.byte	2
 320 00f5 00       		.byte	0
 321 00f6 01       		.byte	1
 322 00f7 00       		.byte	0
 323 00f8 04       		.byte	4
 324 00f9 00       		.byte	0
 325 00fa 01       		.byte	1
 326 00fb 00       		.byte	0
 327 00fc 02       		.byte	2
 328 00fd 00       		.byte	0
 329 00fe 01       		.byte	1
 330 00ff 00       		.byte	0
 331 0100 03       		.byte	3
 332 0101 00       		.byte	0
 333 0102 01       		.byte	1
 334 0103 00       		.byte	0
 335 0104 02       		.byte	2
 336 0105 00       		.byte	0
 337 0106 01       		.byte	1
 338 0107 00       		.byte	0
 339              		.bss
 340              	ready_group:
 341 0000 00       		.space	1
 342              		.size	ready_group, 1
 343 0001 000000   		.align	2
 344              	ready_table:
 345 0004 00000000 		.space	8
 345      00000000 
 346              		.size	ready_table, 8
 347              		.text
 348              		.align	1
 349              		.global	__init_ready_group
 350              		.syntax unified
 351              		.thumb
 352              		.thumb_func
 353              		.fpu softvfp
 354              		.type	__init_ready_group, %function
 355              	__init_ready_group:
 356              	.LFB12:
 357              		.file 2 "../../source/src/kernel/OS_CORE/schedule/os_ready.c"
   1:../../source/src/kernel/OS_CORE/schedule/os_ready.c **** #include "os_ready.h"
   2:../../source/src/kernel/OS_CORE/schedule/os_ready.c **** #include "heap_oo.h"
   3:../../source/src/kernel/OS_CORE/schedule/os_ready.c **** #include "myassert.h"
   4:../../source/src/kernel/OS_CORE/schedule/os_ready.c **** #include "os_TCB_list.h"
   5:../../source/src/kernel/OS_CORE/schedule/os_ready.c **** #include "os_error.h"
   6:../../source/src/kernel/OS_CORE/schedule/os_ready.c **** #include "myMicroLIB.h"
   7:../../source/src/kernel/OS_CORE/schedule/os_ready.c **** #include "task_state.h"
   8:../../source/src/kernel/OS_CORE/schedule/os_ready.c **** 
   9:../../source/src/kernel/OS_CORE/schedule/os_ready.c **** //==============================================
  10:../../source/src/kernel/OS_CORE/schedule/os_ready.c **** //this typedef associate with macro PRIO_MAX in TCB.h
  11:../../source/src/kernel/OS_CORE/schedule/os_ready.c **** typedef unsigned char READY_GROUP_TYPE;
  12:../../source/src/kernel/OS_CORE/schedule/os_ready.c **** typedef unsigned char READY_TABLE_TYPE;
  13:../../source/src/kernel/OS_CORE/schedule/os_ready.c **** 
ARM GAS  G:\Users\Jaxb\AppData\Local\Temp\cc9A7QMu.s 			page 9


  14:../../source/src/kernel/OS_CORE/schedule/os_ready.c **** static const READY_TABLE_TYPE map[8*sizeof(READY_GROUP_TYPE)] = {
  15:../../source/src/kernel/OS_CORE/schedule/os_ready.c **** 	0x01,
  16:../../source/src/kernel/OS_CORE/schedule/os_ready.c **** 	0x02,
  17:../../source/src/kernel/OS_CORE/schedule/os_ready.c **** 	0x04,
  18:../../source/src/kernel/OS_CORE/schedule/os_ready.c **** 	0x08,
  19:../../source/src/kernel/OS_CORE/schedule/os_ready.c **** 	0x10,
  20:../../source/src/kernel/OS_CORE/schedule/os_ready.c **** 	0x20,
  21:../../source/src/kernel/OS_CORE/schedule/os_ready.c **** 	0x40,
  22:../../source/src/kernel/OS_CORE/schedule/os_ready.c **** 	0x80
  23:../../source/src/kernel/OS_CORE/schedule/os_ready.c **** };
  24:../../source/src/kernel/OS_CORE/schedule/os_ready.c **** static const INT8 unmap[256] = { 
  25:../../source/src/kernel/OS_CORE/schedule/os_ready.c ****     0, 0, 1, 0, 2, 0, 1, 0, 3, 0, 1, 0, 2, 0, 1, 0,       /* 0x00 to 0x0F                          
  26:../../source/src/kernel/OS_CORE/schedule/os_ready.c ****     4, 0, 1, 0, 2, 0, 1, 0, 3, 0, 1, 0, 2, 0, 1, 0,       /* 0x10 to 0x1F                          
  27:../../source/src/kernel/OS_CORE/schedule/os_ready.c ****     5, 0, 1, 0, 2, 0, 1, 0, 3, 0, 1, 0, 2, 0, 1, 0,       /* 0x20 to 0x2F                          
  28:../../source/src/kernel/OS_CORE/schedule/os_ready.c ****     4, 0, 1, 0, 2, 0, 1, 0, 3, 0, 1, 0, 2, 0, 1, 0,       /* 0x30 to 0x3F                          
  29:../../source/src/kernel/OS_CORE/schedule/os_ready.c ****     6, 0, 1, 0, 2, 0, 1, 0, 3, 0, 1, 0, 2, 0, 1, 0,       /* 0x40 to 0x4F                          
  30:../../source/src/kernel/OS_CORE/schedule/os_ready.c ****     4, 0, 1, 0, 2, 0, 1, 0, 3, 0, 1, 0, 2, 0, 1, 0,       /* 0x50 to 0x5F                          
  31:../../source/src/kernel/OS_CORE/schedule/os_ready.c ****     5, 0, 1, 0, 2, 0, 1, 0, 3, 0, 1, 0, 2, 0, 1, 0,       /* 0x60 to 0x6F                          
  32:../../source/src/kernel/OS_CORE/schedule/os_ready.c ****     4, 0, 1, 0, 2, 0, 1, 0, 3, 0, 1, 0, 2, 0, 1, 0,       /* 0x70 to 0x7F                          
  33:../../source/src/kernel/OS_CORE/schedule/os_ready.c ****     7, 0, 1, 0, 2, 0, 1, 0, 3, 0, 1, 0, 2, 0, 1, 0,       /* 0x80 to 0x8F                          
  34:../../source/src/kernel/OS_CORE/schedule/os_ready.c ****     4, 0, 1, 0, 2, 0, 1, 0, 3, 0, 1, 0, 2, 0, 1, 0,       /* 0x90 to 0x9F                          
  35:../../source/src/kernel/OS_CORE/schedule/os_ready.c ****     5, 0, 1, 0, 2, 0, 1, 0, 3, 0, 1, 0, 2, 0, 1, 0,       /* 0xA0 to 0xAF                          
  36:../../source/src/kernel/OS_CORE/schedule/os_ready.c ****     4, 0, 1, 0, 2, 0, 1, 0, 3, 0, 1, 0, 2, 0, 1, 0,       /* 0xB0 to 0xBF                          
  37:../../source/src/kernel/OS_CORE/schedule/os_ready.c ****     6, 0, 1, 0, 2, 0, 1, 0, 3, 0, 1, 0, 2, 0, 1, 0,       /* 0xC0 to 0xCF                          
  38:../../source/src/kernel/OS_CORE/schedule/os_ready.c ****     4, 0, 1, 0, 2, 0, 1, 0, 3, 0, 1, 0, 2, 0, 1, 0,       /* 0xD0 to 0xDF                          
  39:../../source/src/kernel/OS_CORE/schedule/os_ready.c ****     5, 0, 1, 0, 2, 0, 1, 0, 3, 0, 1, 0, 2, 0, 1, 0,       /* 0xE0 to 0xEF                          
  40:../../source/src/kernel/OS_CORE/schedule/os_ready.c ****     4, 0, 1, 0, 2, 0, 1, 0, 3, 0, 1, 0, 2, 0, 1, 0        /* 0xF0 to 0xFF                          
  41:../../source/src/kernel/OS_CORE/schedule/os_ready.c **** }; 
  42:../../source/src/kernel/OS_CORE/schedule/os_ready.c **** 
  43:../../source/src/kernel/OS_CORE/schedule/os_ready.c **** static READY_GROUP_TYPE ready_group;
  44:../../source/src/kernel/OS_CORE/schedule/os_ready.c **** static READY_TABLE_TYPE ready_table[PRIO_MAX/(sizeof(READY_TABLE_TYPE)*8)];
  45:../../source/src/kernel/OS_CORE/schedule/os_ready.c **** //==============================================
  46:../../source/src/kernel/OS_CORE/schedule/os_ready.c **** 
  47:../../source/src/kernel/OS_CORE/schedule/os_ready.c **** void __init_ready_group(void)
  48:../../source/src/kernel/OS_CORE/schedule/os_ready.c **** {
 358              		.loc 2 48 0
 359              		.cfi_startproc
 360              		@ args = 0, pretend = 0, frame = 8
 361              		@ frame_needed = 1, uses_anonymous_args = 0
 362              		@ link register save eliminated.
 363 0022 80B4     		push	{r7}
 364              	.LCFI6:
 365              		.cfi_def_cfa_offset 4
 366              		.cfi_offset 7, -4
 367 0024 83B0     		sub	sp, sp, #12
 368              	.LCFI7:
 369              		.cfi_def_cfa_offset 16
 370 0026 00AF     		add	r7, sp, #0
 371              	.LCFI8:
 372              		.cfi_def_cfa_register 7
  49:../../source/src/kernel/OS_CORE/schedule/os_ready.c **** 	unsigned int i;
  50:../../source/src/kernel/OS_CORE/schedule/os_ready.c **** 	ready_group = 0;
 373              		.loc 2 50 0
 374 0028 0A4B     		ldr	r3, .L6
 375 002a 0022     		movs	r2, #0
 376 002c 1A70     		strb	r2, [r3]
  51:../../source/src/kernel/OS_CORE/schedule/os_ready.c **** 	for(i=0;i<PRIO_MAX/(sizeof(READY_TABLE_TYPE)*8);++i)
ARM GAS  G:\Users\Jaxb\AppData\Local\Temp\cc9A7QMu.s 			page 10


 377              		.loc 2 51 0
 378 002e 0023     		movs	r3, #0
 379 0030 7B60     		str	r3, [r7, #4]
 380 0032 07E0     		b	.L4
 381              	.L5:
  52:../../source/src/kernel/OS_CORE/schedule/os_ready.c **** 	{
  53:../../source/src/kernel/OS_CORE/schedule/os_ready.c **** 		ready_table[i] = 0;
 382              		.loc 2 53 0 discriminator 3
 383 0034 084A     		ldr	r2, .L6+4
 384 0036 7B68     		ldr	r3, [r7, #4]
 385 0038 1344     		add	r3, r3, r2
 386 003a 0022     		movs	r2, #0
 387 003c 1A70     		strb	r2, [r3]
  51:../../source/src/kernel/OS_CORE/schedule/os_ready.c **** 	for(i=0;i<PRIO_MAX/(sizeof(READY_TABLE_TYPE)*8);++i)
 388              		.loc 2 51 0 discriminator 3
 389 003e 7B68     		ldr	r3, [r7, #4]
 390 0040 0133     		adds	r3, r3, #1
 391 0042 7B60     		str	r3, [r7, #4]
 392              	.L4:
  51:../../source/src/kernel/OS_CORE/schedule/os_ready.c **** 	for(i=0;i<PRIO_MAX/(sizeof(READY_TABLE_TYPE)*8);++i)
 393              		.loc 2 51 0 is_stmt 0 discriminator 1
 394 0044 7B68     		ldr	r3, [r7, #4]
 395 0046 072B     		cmp	r3, #7
 396 0048 F4D9     		bls	.L5
  54:../../source/src/kernel/OS_CORE/schedule/os_ready.c **** 	}
  55:../../source/src/kernel/OS_CORE/schedule/os_ready.c **** }
 397              		.loc 2 55 0 is_stmt 1
 398 004a 00BF     		nop
 399 004c 0C37     		adds	r7, r7, #12
 400              	.LCFI9:
 401              		.cfi_def_cfa_offset 4
 402 004e BD46     		mov	sp, r7
 403              	.LCFI10:
 404              		.cfi_def_cfa_register 13
 405              		@ sp needed
 406 0050 80BC     		pop	{r7}
 407              	.LCFI11:
 408              		.cfi_restore 7
 409              		.cfi_def_cfa_offset 0
 410 0052 7047     		bx	lr
 411              	.L7:
 412              		.align	2
 413              	.L6:
 414 0054 00000000 		.word	ready_group
 415 0058 04000000 		.word	ready_table
 416              		.cfi_endproc
 417              	.LFE12:
 418              		.size	__init_ready_group, .-__init_ready_group
 419              		.section	.rodata
 420              		.align	2
 421              	.LC0:
 422 0108 2E2E2F2E 		.ascii	"../../source/src/kernel/OS_CORE/schedule/os_ready.c"
 422      2E2F736F 
 422      75726365 
 422      2F737263 
 422      2F6B6572 
 423 013b 00       		.ascii	"\000"
ARM GAS  G:\Users\Jaxb\AppData\Local\Temp\cc9A7QMu.s 			page 11


 424              		.align	2
 425              	.LC1:
 426 013c 6572726F 		.ascii	"error fun name : insert_ready_TCB\012error para : T"
 426      72206675 
 426      6E206E61 
 426      6D65203A 
 426      20696E73 
 427 016c 43425F70 		.ascii	"CB_ptr\012\000"
 427      74720A00 
 428              		.text
 429              		.align	1
 430              		.global	insert_ready_TCB
 431              		.syntax unified
 432              		.thumb
 433              		.thumb_func
 434              		.fpu softvfp
 435              		.type	insert_ready_TCB, %function
 436              	insert_ready_TCB:
 437              	.LFB13:
  56:../../source/src/kernel/OS_CORE/schedule/os_ready.c **** 
  57:../../source/src/kernel/OS_CORE/schedule/os_ready.c **** inline int insert_ready_TCB(TCB *TCB_ptr)
  58:../../source/src/kernel/OS_CORE/schedule/os_ready.c **** {
 438              		.loc 2 58 0
 439              		.cfi_startproc
 440              		@ args = 0, pretend = 0, frame = 8
 441              		@ frame_needed = 1, uses_anonymous_args = 0
 442 005c 80B5     		push	{r7, lr}
 443              	.LCFI12:
 444              		.cfi_def_cfa_offset 8
 445              		.cfi_offset 7, -8
 446              		.cfi_offset 14, -4
 447 005e 82B0     		sub	sp, sp, #8
 448              	.LCFI13:
 449              		.cfi_def_cfa_offset 16
 450 0060 00AF     		add	r7, sp, #0
 451              	.LCFI14:
 452              		.cfi_def_cfa_register 7
 453 0062 7860     		str	r0, [r7, #4]
  59:../../source/src/kernel/OS_CORE/schedule/os_ready.c **** 	ASSERT(NULL != TCB_ptr);
 454              		.loc 2 59 0
 455 0064 7B68     		ldr	r3, [r7, #4]
 456 0066 002B     		cmp	r3, #0
 457 0068 03D1     		bne	.L9
 458              		.loc 2 59 0 is_stmt 0 discriminator 1
 459 006a 3B21     		movs	r1, #59
 460 006c 1948     		ldr	r0, .L12
 461 006e FFF7FEFF 		bl	_ASSERT
 462              	.L9:
  60:../../source/src/kernel/OS_CORE/schedule/os_ready.c **** #if CONFIG_PARA_CHECK
  61:../../source/src/kernel/OS_CORE/schedule/os_ready.c **** 	if(NULL == TCB_ptr)
 463              		.loc 2 61 0 is_stmt 1
 464 0072 7B68     		ldr	r3, [r7, #4]
 465 0074 002B     		cmp	r3, #0
 466 0076 05D1     		bne	.L10
  62:../../source/src/kernel/OS_CORE/schedule/os_ready.c **** 	{
  63:../../source/src/kernel/OS_CORE/schedule/os_ready.c **** 		OS_ERROR_PARA_MESSAGE_DISPLAY(insert_ready_TCB,TCB_ptr);
 467              		.loc 2 63 0
ARM GAS  G:\Users\Jaxb\AppData\Local\Temp\cc9A7QMu.s 			page 12


 468 0078 1748     		ldr	r0, .L12+4
 469 007a FFF7FEFF 		bl	ka_printf
  64:../../source/src/kernel/OS_CORE/schedule/os_ready.c **** 		return -ERROR_NULL_INPUT_PTR;
 470              		.loc 2 64 0
 471 007e 6FF0FE03 		mvn	r3, #254
 472 0082 22E0     		b	.L11
 473              	.L10:
  65:../../source/src/kernel/OS_CORE/schedule/os_ready.c **** 	}
  66:../../source/src/kernel/OS_CORE/schedule/os_ready.c **** #endif
  67:../../source/src/kernel/OS_CORE/schedule/os_ready.c **** 	TCB_ptr->task_state = STATE_READY;
 474              		.loc 2 67 0
 475 0084 7B68     		ldr	r3, [r7, #4]
 476 0086 0122     		movs	r2, #1
 477 0088 1A74     		strb	r2, [r3, #16]
  68:../../source/src/kernel/OS_CORE/schedule/os_ready.c **** 	increase_ready_num(TCB_ptr->prio);
 478              		.loc 2 68 0
 479 008a 7B68     		ldr	r3, [r7, #4]
 480 008c 5B69     		ldr	r3, [r3, #20]
 481 008e 1846     		mov	r0, r3
 482 0090 FFF7FEFF 		bl	increase_ready_num
  69:../../source/src/kernel/OS_CORE/schedule/os_ready.c **** 	//deal with the ready_group and ready_table
  70:../../source/src/kernel/OS_CORE/schedule/os_ready.c **** 	ready_group |= map[TCB_ptr->prio / (8*sizeof(READY_GROUP_TYPE))];
 483              		.loc 2 70 0
 484 0094 7B68     		ldr	r3, [r7, #4]
 485 0096 5B69     		ldr	r3, [r3, #20]
 486 0098 DB08     		lsrs	r3, r3, #3
 487 009a 104A     		ldr	r2, .L12+8
 488 009c D25C     		ldrb	r2, [r2, r3]	@ zero_extendqisi2
 489 009e 104B     		ldr	r3, .L12+12
 490 00a0 1B78     		ldrb	r3, [r3]	@ zero_extendqisi2
 491 00a2 1343     		orrs	r3, r3, r2
 492 00a4 DAB2     		uxtb	r2, r3
 493 00a6 0E4B     		ldr	r3, .L12+12
 494 00a8 1A70     		strb	r2, [r3]
  71:../../source/src/kernel/OS_CORE/schedule/os_ready.c **** 	ready_table[TCB_ptr->prio / (8*sizeof(READY_GROUP_TYPE))] |= map[TCB_ptr->prio & 0x07];//0x07 is a
 495              		.loc 2 71 0
 496 00aa 7B68     		ldr	r3, [r7, #4]
 497 00ac 5B69     		ldr	r3, [r3, #20]
 498 00ae DB08     		lsrs	r3, r3, #3
 499 00b0 0C4A     		ldr	r2, .L12+16
 500 00b2 D15C     		ldrb	r1, [r2, r3]	@ zero_extendqisi2
 501 00b4 7A68     		ldr	r2, [r7, #4]
 502 00b6 5269     		ldr	r2, [r2, #20]
 503 00b8 02F00702 		and	r2, r2, #7
 504 00bc 0748     		ldr	r0, .L12+8
 505 00be 825C     		ldrb	r2, [r0, r2]	@ zero_extendqisi2
 506 00c0 0A43     		orrs	r2, r2, r1
 507 00c2 D1B2     		uxtb	r1, r2
 508 00c4 074A     		ldr	r2, .L12+16
 509 00c6 D154     		strb	r1, [r2, r3]
  72:../../source/src/kernel/OS_CORE/schedule/os_ready.c **** 	return FUN_EXECUTE_SUCCESSFULLY;
 510              		.loc 2 72 0
 511 00c8 0023     		movs	r3, #0
 512              	.L11:
  73:../../source/src/kernel/OS_CORE/schedule/os_ready.c **** }
 513              		.loc 2 73 0
 514 00ca 1846     		mov	r0, r3
ARM GAS  G:\Users\Jaxb\AppData\Local\Temp\cc9A7QMu.s 			page 13


 515 00cc 0837     		adds	r7, r7, #8
 516              	.LCFI15:
 517              		.cfi_def_cfa_offset 8
 518 00ce BD46     		mov	sp, r7
 519              	.LCFI16:
 520              		.cfi_def_cfa_register 13
 521              		@ sp needed
 522 00d0 80BD     		pop	{r7, pc}
 523              	.L13:
 524 00d2 00BF     		.align	2
 525              	.L12:
 526 00d4 08010000 		.word	.LC0
 527 00d8 3C010000 		.word	.LC1
 528 00dc 00000000 		.word	map
 529 00e0 00000000 		.word	ready_group
 530 00e4 04000000 		.word	ready_table
 531              		.cfi_endproc
 532              	.LFE13:
 533              		.size	insert_ready_TCB, .-insert_ready_TCB
 534              		.section	.rodata
 535              		.align	2
 536              	.LC2:
 537 0174 6572726F 		.ascii	"error fun name : delete_TCB_from_ready\012error par"
 537      72206675 
 537      6E206E61 
 537      6D65203A 
 537      2064656C 
 538 01a4 61203A20 		.ascii	"a : TCB_ptr\012\000"
 538      5443425F 
 538      7074720A 
 538      00
 539              		.text
 540              		.align	1
 541              		.global	delete_TCB_from_ready
 542              		.syntax unified
 543              		.thumb
 544              		.thumb_func
 545              		.fpu softvfp
 546              		.type	delete_TCB_from_ready, %function
 547              	delete_TCB_from_ready:
 548              	.LFB14:
  74:../../source/src/kernel/OS_CORE/schedule/os_ready.c **** 
  75:../../source/src/kernel/OS_CORE/schedule/os_ready.c **** //if os delete a task,use delete_from_TCB_list() first
  76:../../source/src/kernel/OS_CORE/schedule/os_ready.c **** int delete_TCB_from_ready(TCB *TCB_ptr)
  77:../../source/src/kernel/OS_CORE/schedule/os_ready.c **** {
 549              		.loc 2 77 0
 550              		.cfi_startproc
 551              		@ args = 0, pretend = 0, frame = 8
 552              		@ frame_needed = 1, uses_anonymous_args = 0
 553 00e8 80B5     		push	{r7, lr}
 554              	.LCFI17:
 555              		.cfi_def_cfa_offset 8
 556              		.cfi_offset 7, -8
 557              		.cfi_offset 14, -4
 558 00ea 82B0     		sub	sp, sp, #8
 559              	.LCFI18:
 560              		.cfi_def_cfa_offset 16
ARM GAS  G:\Users\Jaxb\AppData\Local\Temp\cc9A7QMu.s 			page 14


 561 00ec 00AF     		add	r7, sp, #0
 562              	.LCFI19:
 563              		.cfi_def_cfa_register 7
 564 00ee 7860     		str	r0, [r7, #4]
  78:../../source/src/kernel/OS_CORE/schedule/os_ready.c **** 	ASSERT(NULL != TCB_ptr);
 565              		.loc 2 78 0
 566 00f0 7B68     		ldr	r3, [r7, #4]
 567 00f2 002B     		cmp	r3, #0
 568 00f4 03D1     		bne	.L15
 569              		.loc 2 78 0 is_stmt 0 discriminator 1
 570 00f6 4E21     		movs	r1, #78
 571 00f8 2548     		ldr	r0, .L20
 572 00fa FFF7FEFF 		bl	_ASSERT
 573              	.L15:
  79:../../source/src/kernel/OS_CORE/schedule/os_ready.c **** #if CONFIG_PARA_CHECK
  80:../../source/src/kernel/OS_CORE/schedule/os_ready.c **** 	if(NULL == TCB_ptr)
 574              		.loc 2 80 0 is_stmt 1
 575 00fe 7B68     		ldr	r3, [r7, #4]
 576 0100 002B     		cmp	r3, #0
 577 0102 05D1     		bne	.L16
  81:../../source/src/kernel/OS_CORE/schedule/os_ready.c **** 	{
  82:../../source/src/kernel/OS_CORE/schedule/os_ready.c **** 		OS_ERROR_PARA_MESSAGE_DISPLAY(delete_TCB_from_ready,TCB_ptr);
 578              		.loc 2 82 0
 579 0104 2348     		ldr	r0, .L20+4
 580 0106 FFF7FEFF 		bl	ka_printf
  83:../../source/src/kernel/OS_CORE/schedule/os_ready.c **** 		return -ERROR_NULL_INPUT_PTR;
 581              		.loc 2 83 0
 582 010a 6FF0FE03 		mvn	r3, #254
 583 010e 3AE0     		b	.L17
 584              	.L16:
  84:../../source/src/kernel/OS_CORE/schedule/os_ready.c **** 	}
  85:../../source/src/kernel/OS_CORE/schedule/os_ready.c **** #endif
  86:../../source/src/kernel/OS_CORE/schedule/os_ready.c **** //	struct list_head *head = get_from_TCB_list(TCB_ptr->prio);
  87:../../source/src/kernel/OS_CORE/schedule/os_ready.c **** 	decrease_ready_num(TCB_ptr->prio);
 585              		.loc 2 87 0
 586 0110 7B68     		ldr	r3, [r7, #4]
 587 0112 5B69     		ldr	r3, [r3, #20]
 588 0114 1846     		mov	r0, r3
 589 0116 FFF7FEFF 		bl	decrease_ready_num
  88:../../source/src/kernel/OS_CORE/schedule/os_ready.c **** 	if(0 != get_ready_num_from_TCB_list(TCB_ptr->prio))
 590              		.loc 2 88 0
 591 011a 7B68     		ldr	r3, [r7, #4]
 592 011c 5B69     		ldr	r3, [r3, #20]
 593 011e 1846     		mov	r0, r3
 594 0120 FFF7FEFF 		bl	get_ready_num_from_TCB_list
 595 0124 0346     		mov	r3, r0
 596 0126 002B     		cmp	r3, #0
 597 0128 01D0     		beq	.L18
  89:../../source/src/kernel/OS_CORE/schedule/os_ready.c **** 	{
  90:../../source/src/kernel/OS_CORE/schedule/os_ready.c **** 		return FUN_EXECUTE_SUCCESSFULLY;
 598              		.loc 2 90 0
 599 012a 0023     		movs	r3, #0
 600 012c 2BE0     		b	.L17
 601              	.L18:
  91:../../source/src/kernel/OS_CORE/schedule/os_ready.c **** 	}
  92:../../source/src/kernel/OS_CORE/schedule/os_ready.c **** 	//else (0 == get_ready_num_from_TCB_list(TCB_ptr->prio))
  93:../../source/src/kernel/OS_CORE/schedule/os_ready.c **** 	//first deal with the ready_table
ARM GAS  G:\Users\Jaxb\AppData\Local\Temp\cc9A7QMu.s 			page 15


  94:../../source/src/kernel/OS_CORE/schedule/os_ready.c **** 	ready_table[TCB_ptr->prio / (8*sizeof(READY_GROUP_TYPE))] &= ~map[TCB_ptr->prio & 0x07];//0x07 is 
 602              		.loc 2 94 0
 603 012e 7B68     		ldr	r3, [r7, #4]
 604 0130 5B69     		ldr	r3, [r3, #20]
 605 0132 DB08     		lsrs	r3, r3, #3
 606 0134 184A     		ldr	r2, .L20+8
 607 0136 D25C     		ldrb	r2, [r2, r3]	@ zero_extendqisi2
 608 0138 51B2     		sxtb	r1, r2
 609 013a 7A68     		ldr	r2, [r7, #4]
 610 013c 5269     		ldr	r2, [r2, #20]
 611 013e 02F00702 		and	r2, r2, #7
 612 0142 1648     		ldr	r0, .L20+12
 613 0144 825C     		ldrb	r2, [r0, r2]	@ zero_extendqisi2
 614 0146 52B2     		sxtb	r2, r2
 615 0148 D243     		mvns	r2, r2
 616 014a 52B2     		sxtb	r2, r2
 617 014c 0A40     		ands	r2, r2, r1
 618 014e 52B2     		sxtb	r2, r2
 619 0150 D1B2     		uxtb	r1, r2
 620 0152 114A     		ldr	r2, .L20+8
 621 0154 D154     		strb	r1, [r2, r3]
  95:../../source/src/kernel/OS_CORE/schedule/os_ready.c **** 	//if the ready_table[index] is 0 after resetting,deal with ready_group
  96:../../source/src/kernel/OS_CORE/schedule/os_ready.c **** 	if(0 == ready_table[TCB_ptr->prio / (8*sizeof(READY_GROUP_TYPE))])
 622              		.loc 2 96 0
 623 0156 7B68     		ldr	r3, [r7, #4]
 624 0158 5B69     		ldr	r3, [r3, #20]
 625 015a DB08     		lsrs	r3, r3, #3
 626 015c 0E4A     		ldr	r2, .L20+8
 627 015e D35C     		ldrb	r3, [r2, r3]	@ zero_extendqisi2
 628 0160 002B     		cmp	r3, #0
 629 0162 0FD1     		bne	.L19
  97:../../source/src/kernel/OS_CORE/schedule/os_ready.c **** 	{
  98:../../source/src/kernel/OS_CORE/schedule/os_ready.c **** 		ready_group &= ~map[TCB_ptr->prio / (8*sizeof(READY_GROUP_TYPE))];
 630              		.loc 2 98 0
 631 0164 7B68     		ldr	r3, [r7, #4]
 632 0166 5B69     		ldr	r3, [r3, #20]
 633 0168 DB08     		lsrs	r3, r3, #3
 634 016a 0C4A     		ldr	r2, .L20+12
 635 016c D35C     		ldrb	r3, [r2, r3]	@ zero_extendqisi2
 636 016e 5BB2     		sxtb	r3, r3
 637 0170 DB43     		mvns	r3, r3
 638 0172 5AB2     		sxtb	r2, r3
 639 0174 0A4B     		ldr	r3, .L20+16
 640 0176 1B78     		ldrb	r3, [r3]	@ zero_extendqisi2
 641 0178 5BB2     		sxtb	r3, r3
 642 017a 1340     		ands	r3, r3, r2
 643 017c 5BB2     		sxtb	r3, r3
 644 017e DAB2     		uxtb	r2, r3
 645 0180 074B     		ldr	r3, .L20+16
 646 0182 1A70     		strb	r2, [r3]
 647              	.L19:
  99:../../source/src/kernel/OS_CORE/schedule/os_ready.c **** 	}
 100:../../source/src/kernel/OS_CORE/schedule/os_ready.c **** 	return FUN_EXECUTE_SUCCESSFULLY;
 648              		.loc 2 100 0
 649 0184 0023     		movs	r3, #0
 650              	.L17:
 101:../../source/src/kernel/OS_CORE/schedule/os_ready.c **** }
ARM GAS  G:\Users\Jaxb\AppData\Local\Temp\cc9A7QMu.s 			page 16


 651              		.loc 2 101 0
 652 0186 1846     		mov	r0, r3
 653 0188 0837     		adds	r7, r7, #8
 654              	.LCFI20:
 655              		.cfi_def_cfa_offset 8
 656 018a BD46     		mov	sp, r7
 657              	.LCFI21:
 658              		.cfi_def_cfa_register 13
 659              		@ sp needed
 660 018c 80BD     		pop	{r7, pc}
 661              	.L21:
 662 018e 00BF     		.align	2
 663              	.L20:
 664 0190 08010000 		.word	.LC0
 665 0194 74010000 		.word	.LC2
 666 0198 04000000 		.word	ready_table
 667 019c 00000000 		.word	map
 668 01a0 00000000 		.word	ready_group
 669              		.cfi_endproc
 670              	.LFE14:
 671              		.size	delete_TCB_from_ready, .-delete_TCB_from_ready
 672              		.align	1
 673              		.global	get_highest_prio_ready_TCB
 674              		.syntax unified
 675              		.thumb
 676              		.thumb_func
 677              		.fpu softvfp
 678              		.type	get_highest_prio_ready_TCB, %function
 679              	get_highest_prio_ready_TCB:
 680              	.LFB15:
 102:../../source/src/kernel/OS_CORE/schedule/os_ready.c **** 
 103:../../source/src/kernel/OS_CORE/schedule/os_ready.c **** TCB *get_highest_prio_ready_TCB(void)
 104:../../source/src/kernel/OS_CORE/schedule/os_ready.c **** {
 681              		.loc 2 104 0
 682              		.cfi_startproc
 683              		@ args = 0, pretend = 0, frame = 24
 684              		@ frame_needed = 1, uses_anonymous_args = 0
 685 01a4 80B5     		push	{r7, lr}
 686              	.LCFI22:
 687              		.cfi_def_cfa_offset 8
 688              		.cfi_offset 7, -8
 689              		.cfi_offset 14, -4
 690 01a6 86B0     		sub	sp, sp, #24
 691              	.LCFI23:
 692              		.cfi_def_cfa_offset 32
 693 01a8 00AF     		add	r7, sp, #0
 694              	.LCFI24:
 695              		.cfi_def_cfa_register 7
 105:../../source/src/kernel/OS_CORE/schedule/os_ready.c **** 	int y;
 106:../../source/src/kernel/OS_CORE/schedule/os_ready.c **** 	struct list_head *pos,*head;
 107:../../source/src/kernel/OS_CORE/schedule/os_ready.c **** 	TCB *TCB_ptr;
 108:../../source/src/kernel/OS_CORE/schedule/os_ready.c **** 	//according to the ready_group and ready_table,get the highest priority
 109:../../source/src/kernel/OS_CORE/schedule/os_ready.c **** 	//than, get the respoding head of the same-priority TCB_list
 110:../../source/src/kernel/OS_CORE/schedule/os_ready.c **** 	y = unmap[ready_group]; // the lowest '1' bit
 696              		.loc 2 110 0
 697 01aa 1A4B     		ldr	r3, .L27
 698 01ac 1B78     		ldrb	r3, [r3]	@ zero_extendqisi2
ARM GAS  G:\Users\Jaxb\AppData\Local\Temp\cc9A7QMu.s 			page 17


 699 01ae 1A46     		mov	r2, r3
 700 01b0 194B     		ldr	r3, .L27+4
 701 01b2 9B56     		ldrsb	r3, [r3, r2]
 702 01b4 3B61     		str	r3, [r7, #16]
 111:../../source/src/kernel/OS_CORE/schedule/os_ready.c **** 	head = get_from_TCB_list(y*8*sizeof(READY_TABLE_TYPE) + unmap[ready_table[y]]);
 703              		.loc 2 111 0
 704 01b6 3B69     		ldr	r3, [r7, #16]
 705 01b8 DB00     		lsls	r3, r3, #3
 706 01ba 1946     		mov	r1, r3
 707 01bc 174A     		ldr	r2, .L27+8
 708 01be 3B69     		ldr	r3, [r7, #16]
 709 01c0 1344     		add	r3, r3, r2
 710 01c2 1B78     		ldrb	r3, [r3]	@ zero_extendqisi2
 711 01c4 1A46     		mov	r2, r3
 712 01c6 144B     		ldr	r3, .L27+4
 713 01c8 9B56     		ldrsb	r3, [r3, r2]
 714 01ca 0B44     		add	r3, r3, r1
 715 01cc 1846     		mov	r0, r3
 716 01ce FFF7FEFF 		bl	get_from_TCB_list
 717 01d2 F860     		str	r0, [r7, #12]
 112:../../source/src/kernel/OS_CORE/schedule/os_ready.c **** 	list_for_each(pos,head)
 718              		.loc 2 112 0
 719 01d4 FB68     		ldr	r3, [r7, #12]
 720 01d6 1B68     		ldr	r3, [r3]
 721 01d8 7B61     		str	r3, [r7, #20]
 722 01da 0DE0     		b	.L23
 723              	.L26:
 724              	.LBB2:
 113:../../source/src/kernel/OS_CORE/schedule/os_ready.c **** 	{
 114:../../source/src/kernel/OS_CORE/schedule/os_ready.c **** 		TCB_ptr = list_entry(pos,TCB,same_prio_list);
 725              		.loc 2 114 0
 726 01dc 7B69     		ldr	r3, [r7, #20]
 727 01de BB60     		str	r3, [r7, #8]
 728 01e0 BB68     		ldr	r3, [r7, #8]
 729 01e2 1C3B     		subs	r3, r3, #28
 730              	.LBE2:
 731 01e4 7B60     		str	r3, [r7, #4]
 115:../../source/src/kernel/OS_CORE/schedule/os_ready.c **** 		if(STATE_READY == TCB_ptr->task_state)//take the first TCB whose state is ready
 732              		.loc 2 115 0
 733 01e6 7B68     		ldr	r3, [r7, #4]
 734 01e8 1B7C     		ldrb	r3, [r3, #16]	@ zero_extendqisi2
 735 01ea 012B     		cmp	r3, #1
 736 01ec 01D1     		bne	.L24
 116:../../source/src/kernel/OS_CORE/schedule/os_ready.c **** 		{
 117:../../source/src/kernel/OS_CORE/schedule/os_ready.c **** 			return TCB_ptr;
 737              		.loc 2 117 0
 738 01ee 7B68     		ldr	r3, [r7, #4]
 739 01f0 0BE0     		b	.L25
 740              	.L24:
 112:../../source/src/kernel/OS_CORE/schedule/os_ready.c **** 	{
 741              		.loc 2 112 0 discriminator 2
 742 01f2 7B69     		ldr	r3, [r7, #20]
 743 01f4 1B68     		ldr	r3, [r3]
 744 01f6 7B61     		str	r3, [r7, #20]
 745              	.L23:
 112:../../source/src/kernel/OS_CORE/schedule/os_ready.c **** 	{
 746              		.loc 2 112 0 is_stmt 0 discriminator 1
ARM GAS  G:\Users\Jaxb\AppData\Local\Temp\cc9A7QMu.s 			page 18


 747 01f8 7A69     		ldr	r2, [r7, #20]
 748 01fa FB68     		ldr	r3, [r7, #12]
 749 01fc 9A42     		cmp	r2, r3
 750 01fe EDD1     		bne	.L26
 118:../../source/src/kernel/OS_CORE/schedule/os_ready.c **** 		}
 119:../../source/src/kernel/OS_CORE/schedule/os_ready.c **** 	}
 120:../../source/src/kernel/OS_CORE/schedule/os_ready.c **** 	//should not go here
 121:../../source/src/kernel/OS_CORE/schedule/os_ready.c **** 	ASSERT(0);
 751              		.loc 2 121 0 is_stmt 1 discriminator 1
 752 0200 7921     		movs	r1, #121
 753 0202 0748     		ldr	r0, .L27+12
 754 0204 FFF7FEFF 		bl	_ASSERT
 122:../../source/src/kernel/OS_CORE/schedule/os_ready.c **** 	return NULL;
 755              		.loc 2 122 0 discriminator 1
 756 0208 0023     		movs	r3, #0
 757              	.L25:
 123:../../source/src/kernel/OS_CORE/schedule/os_ready.c **** }
 758              		.loc 2 123 0
 759 020a 1846     		mov	r0, r3
 760 020c 1837     		adds	r7, r7, #24
 761              	.LCFI25:
 762              		.cfi_def_cfa_offset 8
 763 020e BD46     		mov	sp, r7
 764              	.LCFI26:
 765              		.cfi_def_cfa_register 13
 766              		@ sp needed
 767 0210 80BD     		pop	{r7, pc}
 768              	.L28:
 769 0212 00BF     		.align	2
 770              	.L27:
 771 0214 00000000 		.word	ready_group
 772 0218 08000000 		.word	unmap
 773 021c 04000000 		.word	ready_table
 774 0220 08010000 		.word	.LC0
 775              		.cfi_endproc
 776              	.LFE15:
 777              		.size	get_highest_prio_ready_TCB, .-get_highest_prio_ready_TCB
 778              		.section	.rodata
 779 01b1 000000   		.align	2
 780              	.LC3:
 781 01b4 72656164 		.ascii	"ready_group's bit %d error with ready_table[%d]\012"
 781      795F6772 
 781      6F757027 
 781      73206269 
 781      74202564 
 782 01e4 00       		.ascii	"\000"
 783 01e5 000000   		.align	2
 784              	.LC4:
 785 01e8 6163636F 		.ascii	"according to TCB_list's information, check ready_ta"
 785      7264696E 
 785      6720746F 
 785      20544342 
 785      5F6C6973 
 786 021b 626C652E 		.ascii	"ble...\012\000"
 786      2E2E0A00 
 787 0223 00       		.align	2
 788              	.LC5:
ARM GAS  G:\Users\Jaxb\AppData\Local\Temp\cc9A7QMu.s 			page 19


 789 0224 7072696F 		.ascii	"priority %d's map error\012\000"
 789      72697479 
 789      20256427 
 789      73206D61 
 789      70206572 
 790 023d 000000   		.align	2
 791              	.LC6:
 792 0240 7072696F 		.ascii	"priority %d's ready_num error\012\000"
 792      72697479 
 792      20256427 
 792      73207265 
 792      6164795F 
 793 025f 00       		.align	2
 794              	.LC7:
 795 0260 7072696F 		.ascii	"priority %d's TCB_num error\012\000"
 795      72697479 
 795      20256427 
 795      73205443 
 795      425F6E75 
 796 027d 000000   		.align	2
 797              	.LC8:
 798 0280 636F6D70 		.ascii	"complete...\012\012\000"
 798      6C657465 
 798      2E2E2E0A 
 798      0A00
 799 028e 0000     		.align	2
 800              	.LC9:
 801 0290 6163636F 		.ascii	"according to ready_table's information, check TCB_l"
 801      7264696E 
 801      6720746F 
 801      20726561 
 801      64795F74 
 802 02c3 6973742E 		.ascii	"ist...\012\000"
 802      2E2E0A00 
 803 02cb 00       		.align	2
 804              	.LC10:
 805 02cc 7072696F 		.ascii	"priority %d error\012\000"
 805      72697479 
 805      20256420 
 805      6572726F 
 805      720A00
 806 02df 00       		.align	2
 807              	.LC11:
 808 02e0 63686563 		.ascii	"checking complete....%u error\012\000"
 808      6B696E67 
 808      20636F6D 
 808      706C6574 
 808      652E2E2E 
 809 02ff 00       		.align	2
 810              	.LC12:
 811 0300 63686563 		.ascii	"checking complete....everything okay\012\000"
 811      6B696E67 
 811      20636F6D 
 811      706C6574 
 811      652E2E2E 
 812              		.text
 813              		.align	1
ARM GAS  G:\Users\Jaxb\AppData\Local\Temp\cc9A7QMu.s 			page 20


 814              		.global	shell_check_os_ready
 815              		.syntax unified
 816              		.thumb
 817              		.thumb_func
 818              		.fpu softvfp
 819              		.type	shell_check_os_ready, %function
 820              	shell_check_os_ready:
 821              	.LFB16:
 124:../../source/src/kernel/OS_CORE/schedule/os_ready.c **** 
 125:../../source/src/kernel/OS_CORE/schedule/os_ready.c **** #if CONFIG_SHELL_EN
 126:../../source/src/kernel/OS_CORE/schedule/os_ready.c **** void shell_check_os_ready(void)
 127:../../source/src/kernel/OS_CORE/schedule/os_ready.c **** {
 822              		.loc 2 127 0
 823              		.cfi_startproc
 824              		@ args = 0, pretend = 0, frame = 48
 825              		@ frame_needed = 1, uses_anonymous_args = 0
 826 0224 80B5     		push	{r7, lr}
 827              	.LCFI27:
 828              		.cfi_def_cfa_offset 8
 829              		.cfi_offset 7, -8
 830              		.cfi_offset 14, -4
 831 0226 8CB0     		sub	sp, sp, #48
 832              	.LCFI28:
 833              		.cfi_def_cfa_offset 56
 834 0228 00AF     		add	r7, sp, #0
 835              	.LCFI29:
 836              		.cfi_def_cfa_register 7
 128:../../source/src/kernel/OS_CORE/schedule/os_ready.c **** 	unsigned int i,j;
 129:../../source/src/kernel/OS_CORE/schedule/os_ready.c **** 	unsigned int num = 0;
 837              		.loc 2 129 0
 838 022a 0023     		movs	r3, #0
 839 022c 7B62     		str	r3, [r7, #36]
 130:../../source/src/kernel/OS_CORE/schedule/os_ready.c **** 	struct list_head *pos,*head;
 131:../../source/src/kernel/OS_CORE/schedule/os_ready.c **** 	TCB *TCB_ptr;
 132:../../source/src/kernel/OS_CORE/schedule/os_ready.c **** 	unsigned int ready_TCB_num;
 133:../../source/src/kernel/OS_CORE/schedule/os_ready.c **** 	unsigned int TCB_num;
 134:../../source/src/kernel/OS_CORE/schedule/os_ready.c **** 	// check relation between ready_group and ready_table
 135:../../source/src/kernel/OS_CORE/schedule/os_ready.c **** 	for(i=0;i<sizeof(READY_GROUP_TYPE)*8;++i)
 840              		.loc 2 135 0
 841 022e 0023     		movs	r3, #0
 842 0230 FB62     		str	r3, [r7, #44]
 843 0232 1AE0     		b	.L30
 844              	.L32:
 136:../../source/src/kernel/OS_CORE/schedule/os_ready.c **** 	{
 137:../../source/src/kernel/OS_CORE/schedule/os_ready.c **** 		if((ready_group >> i) & (0x01))
 845              		.loc 2 137 0
 846 0234 6E4B     		ldr	r3, .L53
 847 0236 1B78     		ldrb	r3, [r3]	@ zero_extendqisi2
 848 0238 1A46     		mov	r2, r3
 849 023a FB6A     		ldr	r3, [r7, #44]
 850 023c 42FA03F3 		asr	r3, r2, r3
 851 0240 03F00103 		and	r3, r3, #1
 852 0244 002B     		cmp	r3, #0
 853 0246 0DD0     		beq	.L31
 138:../../source/src/kernel/OS_CORE/schedule/os_ready.c **** 		{
 139:../../source/src/kernel/OS_CORE/schedule/os_ready.c **** 			if(!ready_table[i])
 854              		.loc 2 139 0
ARM GAS  G:\Users\Jaxb\AppData\Local\Temp\cc9A7QMu.s 			page 21


 855 0248 6A4A     		ldr	r2, .L53+4
 856 024a FB6A     		ldr	r3, [r7, #44]
 857 024c 1344     		add	r3, r3, r2
 858 024e 1B78     		ldrb	r3, [r3]	@ zero_extendqisi2
 859 0250 002B     		cmp	r3, #0
 860 0252 07D1     		bne	.L31
 140:../../source/src/kernel/OS_CORE/schedule/os_ready.c **** 			{
 141:../../source/src/kernel/OS_CORE/schedule/os_ready.c **** 				++num;
 861              		.loc 2 141 0
 862 0254 7B6A     		ldr	r3, [r7, #36]
 863 0256 0133     		adds	r3, r3, #1
 864 0258 7B62     		str	r3, [r7, #36]
 142:../../source/src/kernel/OS_CORE/schedule/os_ready.c **** 				ka_printf("ready_group's bit %d error with ready_table[%d]\n",i,i);
 865              		.loc 2 142 0
 866 025a FA6A     		ldr	r2, [r7, #44]
 867 025c F96A     		ldr	r1, [r7, #44]
 868 025e 6648     		ldr	r0, .L53+8
 869 0260 FFF7FEFF 		bl	ka_printf
 870              	.L31:
 135:../../source/src/kernel/OS_CORE/schedule/os_ready.c **** 	{
 871              		.loc 2 135 0 discriminator 2
 872 0264 FB6A     		ldr	r3, [r7, #44]
 873 0266 0133     		adds	r3, r3, #1
 874 0268 FB62     		str	r3, [r7, #44]
 875              	.L30:
 135:../../source/src/kernel/OS_CORE/schedule/os_ready.c **** 	{
 876              		.loc 2 135 0 is_stmt 0 discriminator 1
 877 026a FB6A     		ldr	r3, [r7, #44]
 878 026c 072B     		cmp	r3, #7
 879 026e E1D9     		bls	.L32
 143:../../source/src/kernel/OS_CORE/schedule/os_ready.c **** 			}
 144:../../source/src/kernel/OS_CORE/schedule/os_ready.c **** 		}
 145:../../source/src/kernel/OS_CORE/schedule/os_ready.c **** 	}
 146:../../source/src/kernel/OS_CORE/schedule/os_ready.c **** 	//according to TCB_list's information, check ready_table
 147:../../source/src/kernel/OS_CORE/schedule/os_ready.c **** 	ka_printf("according to TCB_list's information, check ready_table...\n");
 880              		.loc 2 147 0 is_stmt 1
 881 0270 6248     		ldr	r0, .L53+12
 882 0272 FFF7FEFF 		bl	ka_printf
 148:../../source/src/kernel/OS_CORE/schedule/os_ready.c **** 	for(i=0;i<PRIO_MAX;++i)
 883              		.loc 2 148 0
 884 0276 0023     		movs	r3, #0
 885 0278 FB62     		str	r3, [r7, #44]
 886 027a 57E0     		b	.L33
 887              	.L39:
 149:../../source/src/kernel/OS_CORE/schedule/os_ready.c **** 	{
 150:../../source/src/kernel/OS_CORE/schedule/os_ready.c **** 		head = get_from_TCB_list(i);
 888              		.loc 2 150 0
 889 027c F86A     		ldr	r0, [r7, #44]
 890 027e FFF7FEFF 		bl	get_from_TCB_list
 891 0282 7861     		str	r0, [r7, #20]
 151:../../source/src/kernel/OS_CORE/schedule/os_ready.c **** 		if(!list_empty(head))
 892              		.loc 2 151 0
 893 0284 7869     		ldr	r0, [r7, #20]
 894 0286 FFF7BBFE 		bl	list_empty
 895 028a 0346     		mov	r3, r0
 896 028c 002B     		cmp	r3, #0
 897 028e 4AD1     		bne	.L34
ARM GAS  G:\Users\Jaxb\AppData\Local\Temp\cc9A7QMu.s 			page 22


 152:../../source/src/kernel/OS_CORE/schedule/os_ready.c **** 		{
 153:../../source/src/kernel/OS_CORE/schedule/os_ready.c **** 			ready_TCB_num = 0;
 898              		.loc 2 153 0
 899 0290 0023     		movs	r3, #0
 900 0292 FB61     		str	r3, [r7, #28]
 154:../../source/src/kernel/OS_CORE/schedule/os_ready.c **** 			TCB_num = 0;
 901              		.loc 2 154 0
 902 0294 0023     		movs	r3, #0
 903 0296 BB61     		str	r3, [r7, #24]
 155:../../source/src/kernel/OS_CORE/schedule/os_ready.c **** 			list_for_each(pos,head)
 904              		.loc 2 155 0
 905 0298 7B69     		ldr	r3, [r7, #20]
 906 029a 1B68     		ldr	r3, [r3]
 907 029c 3B62     		str	r3, [r7, #32]
 908 029e 26E0     		b	.L35
 909              	.L37:
 156:../../source/src/kernel/OS_CORE/schedule/os_ready.c **** 			{
 157:../../source/src/kernel/OS_CORE/schedule/os_ready.c **** 				++TCB_num;
 910              		.loc 2 157 0
 911 02a0 BB69     		ldr	r3, [r7, #24]
 912 02a2 0133     		adds	r3, r3, #1
 913 02a4 BB61     		str	r3, [r7, #24]
 914              	.LBB3:
 158:../../source/src/kernel/OS_CORE/schedule/os_ready.c **** 				TCB_ptr = list_entry(pos,TCB,same_prio_list);
 915              		.loc 2 158 0
 916 02a6 3B6A     		ldr	r3, [r7, #32]
 917 02a8 3B60     		str	r3, [r7]
 918 02aa 3B68     		ldr	r3, [r7]
 919 02ac 1C3B     		subs	r3, r3, #28
 920              	.LBE3:
 921 02ae FB60     		str	r3, [r7, #12]
 159:../../source/src/kernel/OS_CORE/schedule/os_ready.c **** 				if(STATE_READY == TCB_ptr->task_state)
 922              		.loc 2 159 0
 923 02b0 FB68     		ldr	r3, [r7, #12]
 924 02b2 1B7C     		ldrb	r3, [r3, #16]	@ zero_extendqisi2
 925 02b4 012B     		cmp	r3, #1
 926 02b6 17D1     		bne	.L36
 160:../../source/src/kernel/OS_CORE/schedule/os_ready.c **** 				{
 161:../../source/src/kernel/OS_CORE/schedule/os_ready.c **** 					++ready_TCB_num;
 927              		.loc 2 161 0
 928 02b8 FB69     		ldr	r3, [r7, #28]
 929 02ba 0133     		adds	r3, r3, #1
 930 02bc FB61     		str	r3, [r7, #28]
 162:../../source/src/kernel/OS_CORE/schedule/os_ready.c **** 					if(!(0x01 & (ready_table[i/(8*sizeof(READY_TABLE_TYPE))] >> (i%(8*sizeof(READY_TABLE_TYPE)))))
 931              		.loc 2 162 0
 932 02be FB6A     		ldr	r3, [r7, #44]
 933 02c0 DB08     		lsrs	r3, r3, #3
 934 02c2 4C4A     		ldr	r2, .L53+4
 935 02c4 D35C     		ldrb	r3, [r2, r3]	@ zero_extendqisi2
 936 02c6 1A46     		mov	r2, r3
 937 02c8 FB6A     		ldr	r3, [r7, #44]
 938 02ca 03F00703 		and	r3, r3, #7
 939 02ce 42FA03F3 		asr	r3, r2, r3
 940 02d2 03F00103 		and	r3, r3, #1
 941 02d6 002B     		cmp	r3, #0
 942 02d8 06D1     		bne	.L36
 163:../../source/src/kernel/OS_CORE/schedule/os_ready.c **** 					{
ARM GAS  G:\Users\Jaxb\AppData\Local\Temp\cc9A7QMu.s 			page 23


 164:../../source/src/kernel/OS_CORE/schedule/os_ready.c **** 						++num;
 943              		.loc 2 164 0
 944 02da 7B6A     		ldr	r3, [r7, #36]
 945 02dc 0133     		adds	r3, r3, #1
 946 02de 7B62     		str	r3, [r7, #36]
 165:../../source/src/kernel/OS_CORE/schedule/os_ready.c **** 						ka_printf("priority %d's map error\n",i);
 947              		.loc 2 165 0
 948 02e0 F96A     		ldr	r1, [r7, #44]
 949 02e2 4748     		ldr	r0, .L53+16
 950 02e4 FFF7FEFF 		bl	ka_printf
 951              	.L36:
 155:../../source/src/kernel/OS_CORE/schedule/os_ready.c **** 			{
 952              		.loc 2 155 0 discriminator 2
 953 02e8 3B6A     		ldr	r3, [r7, #32]
 954 02ea 1B68     		ldr	r3, [r3]
 955 02ec 3B62     		str	r3, [r7, #32]
 956              	.L35:
 155:../../source/src/kernel/OS_CORE/schedule/os_ready.c **** 			{
 957              		.loc 2 155 0 is_stmt 0 discriminator 1
 958 02ee 3A6A     		ldr	r2, [r7, #32]
 959 02f0 7B69     		ldr	r3, [r7, #20]
 960 02f2 9A42     		cmp	r2, r3
 961 02f4 D4D1     		bne	.L37
 962              	.LBB4:
 166:../../source/src/kernel/OS_CORE/schedule/os_ready.c **** 					}
 167:../../source/src/kernel/OS_CORE/schedule/os_ready.c **** 				}
 168:../../source/src/kernel/OS_CORE/schedule/os_ready.c **** 			}
 169:../../source/src/kernel/OS_CORE/schedule/os_ready.c **** 			if(list_entry(head,struct TCB_list,head)->ready_num != ready_TCB_num)
 963              		.loc 2 169 0 is_stmt 1
 964 02f6 7B69     		ldr	r3, [r7, #20]
 965 02f8 BB60     		str	r3, [r7, #8]
 966 02fa BB68     		ldr	r3, [r7, #8]
 967              	.LBE4:
 968 02fc 1B7A     		ldrb	r3, [r3, #8]	@ zero_extendqisi2
 969 02fe 1A46     		mov	r2, r3
 970 0300 FB69     		ldr	r3, [r7, #28]
 971 0302 9342     		cmp	r3, r2
 972 0304 03D0     		beq	.L38
 170:../../source/src/kernel/OS_CORE/schedule/os_ready.c **** 			{
 171:../../source/src/kernel/OS_CORE/schedule/os_ready.c **** 				ka_printf("priority %d's ready_num error\n",i);
 973              		.loc 2 171 0
 974 0306 F96A     		ldr	r1, [r7, #44]
 975 0308 3E48     		ldr	r0, .L53+20
 976 030a FFF7FEFF 		bl	ka_printf
 977              	.L38:
 978              	.LBB5:
 172:../../source/src/kernel/OS_CORE/schedule/os_ready.c **** 			}
 173:../../source/src/kernel/OS_CORE/schedule/os_ready.c **** 			if(list_entry(head,struct TCB_list,head)->TCB_num != TCB_num)
 979              		.loc 2 173 0
 980 030e 7B69     		ldr	r3, [r7, #20]
 981 0310 7B60     		str	r3, [r7, #4]
 982 0312 7B68     		ldr	r3, [r7, #4]
 983              	.LBE5:
 984 0314 5B7A     		ldrb	r3, [r3, #9]	@ zero_extendqisi2
 985 0316 1A46     		mov	r2, r3
 986 0318 BB69     		ldr	r3, [r7, #24]
 987 031a 9342     		cmp	r3, r2
ARM GAS  G:\Users\Jaxb\AppData\Local\Temp\cc9A7QMu.s 			page 24


 988 031c 03D0     		beq	.L34
 174:../../source/src/kernel/OS_CORE/schedule/os_ready.c **** 			{
 175:../../source/src/kernel/OS_CORE/schedule/os_ready.c **** 				ka_printf("priority %d's TCB_num error\n",i);
 989              		.loc 2 175 0
 990 031e F96A     		ldr	r1, [r7, #44]
 991 0320 3948     		ldr	r0, .L53+24
 992 0322 FFF7FEFF 		bl	ka_printf
 993              	.L34:
 148:../../source/src/kernel/OS_CORE/schedule/os_ready.c **** 	{
 994              		.loc 2 148 0 discriminator 2
 995 0326 FB6A     		ldr	r3, [r7, #44]
 996 0328 0133     		adds	r3, r3, #1
 997 032a FB62     		str	r3, [r7, #44]
 998              	.L33:
 148:../../source/src/kernel/OS_CORE/schedule/os_ready.c **** 	{
 999              		.loc 2 148 0 is_stmt 0 discriminator 1
 1000 032c FB6A     		ldr	r3, [r7, #44]
 1001 032e 3F2B     		cmp	r3, #63
 1002 0330 A4D9     		bls	.L39
 176:../../source/src/kernel/OS_CORE/schedule/os_ready.c **** 			}
 177:../../source/src/kernel/OS_CORE/schedule/os_ready.c **** 		}
 178:../../source/src/kernel/OS_CORE/schedule/os_ready.c **** 	}
 179:../../source/src/kernel/OS_CORE/schedule/os_ready.c **** 	ka_printf("complete...\n\n");
 1003              		.loc 2 179 0 is_stmt 1
 1004 0332 3648     		ldr	r0, .L53+28
 1005 0334 FFF7FEFF 		bl	ka_printf
 180:../../source/src/kernel/OS_CORE/schedule/os_ready.c **** 	//according to ready_table's information, check TCB_list
 181:../../source/src/kernel/OS_CORE/schedule/os_ready.c **** 	ka_printf("according to ready_table's information, check TCB_list...\n");
 1006              		.loc 2 181 0
 1007 0338 3548     		ldr	r0, .L53+32
 1008 033a FFF7FEFF 		bl	ka_printf
 182:../../source/src/kernel/OS_CORE/schedule/os_ready.c **** 	for(i=0;i<sizeof(READY_GROUP_TYPE)*8;++i)
 1009              		.loc 2 182 0
 1010 033e 0023     		movs	r3, #0
 1011 0340 FB62     		str	r3, [r7, #44]
 1012 0342 42E0     		b	.L40
 1013              	.L47:
 183:../../source/src/kernel/OS_CORE/schedule/os_ready.c **** 	{
 184:../../source/src/kernel/OS_CORE/schedule/os_ready.c **** 		for(j=0;j<8*sizeof(READY_TABLE_TYPE);++j)
 1014              		.loc 2 184 0
 1015 0344 0023     		movs	r3, #0
 1016 0346 BB62     		str	r3, [r7, #40]
 1017 0348 39E0     		b	.L41
 1018              	.L46:
 185:../../source/src/kernel/OS_CORE/schedule/os_ready.c **** 		{
 186:../../source/src/kernel/OS_CORE/schedule/os_ready.c **** 			if(0x01 & (ready_table[i] >> j))
 1019              		.loc 2 186 0
 1020 034a 2A4A     		ldr	r2, .L53+4
 1021 034c FB6A     		ldr	r3, [r7, #44]
 1022 034e 1344     		add	r3, r3, r2
 1023 0350 1B78     		ldrb	r3, [r3]	@ zero_extendqisi2
 1024 0352 1A46     		mov	r2, r3
 1025 0354 BB6A     		ldr	r3, [r7, #40]
 1026 0356 42FA03F3 		asr	r3, r2, r3
 1027 035a 03F00103 		and	r3, r3, #1
 1028 035e 002B     		cmp	r3, #0
 1029 0360 27D0     		beq	.L50
ARM GAS  G:\Users\Jaxb\AppData\Local\Temp\cc9A7QMu.s 			page 25


 187:../../source/src/kernel/OS_CORE/schedule/os_ready.c **** 			{
 188:../../source/src/kernel/OS_CORE/schedule/os_ready.c **** 				head = get_from_TCB_list(j + i*8*sizeof(READY_TABLE_TYPE));
 1030              		.loc 2 188 0
 1031 0362 FB6A     		ldr	r3, [r7, #44]
 1032 0364 DA00     		lsls	r2, r3, #3
 1033 0366 BB6A     		ldr	r3, [r7, #40]
 1034 0368 1344     		add	r3, r3, r2
 1035 036a 1846     		mov	r0, r3
 1036 036c FFF7FEFF 		bl	get_from_TCB_list
 1037 0370 7861     		str	r0, [r7, #20]
 189:../../source/src/kernel/OS_CORE/schedule/os_ready.c **** 				list_for_each(pos,head)
 1038              		.loc 2 189 0
 1039 0372 7B69     		ldr	r3, [r7, #20]
 1040 0374 1B68     		ldr	r3, [r3]
 1041 0376 3B62     		str	r3, [r7, #32]
 1042 0378 0BE0     		b	.L43
 1043              	.L45:
 1044              	.LBB6:
 190:../../source/src/kernel/OS_CORE/schedule/os_ready.c **** 				{
 191:../../source/src/kernel/OS_CORE/schedule/os_ready.c **** 					TCB_ptr = list_entry(pos,TCB,same_prio_list);
 1045              		.loc 2 191 0
 1046 037a 3B6A     		ldr	r3, [r7, #32]
 1047 037c 3B61     		str	r3, [r7, #16]
 1048 037e 3B69     		ldr	r3, [r7, #16]
 1049 0380 1C3B     		subs	r3, r3, #28
 1050              	.LBE6:
 1051 0382 FB60     		str	r3, [r7, #12]
 192:../../source/src/kernel/OS_CORE/schedule/os_ready.c **** 					if(STATE_READY == TCB_ptr->task_state)
 1052              		.loc 2 192 0
 1053 0384 FB68     		ldr	r3, [r7, #12]
 1054 0386 1B7C     		ldrb	r3, [r3, #16]	@ zero_extendqisi2
 1055 0388 012B     		cmp	r3, #1
 1056 038a 14D0     		beq	.L51
 189:../../source/src/kernel/OS_CORE/schedule/os_ready.c **** 				list_for_each(pos,head)
 1057              		.loc 2 189 0 discriminator 2
 1058 038c 3B6A     		ldr	r3, [r7, #32]
 1059 038e 1B68     		ldr	r3, [r3]
 1060 0390 3B62     		str	r3, [r7, #32]
 1061              	.L43:
 189:../../source/src/kernel/OS_CORE/schedule/os_ready.c **** 				list_for_each(pos,head)
 1062              		.loc 2 189 0 is_stmt 0 discriminator 1
 1063 0392 3A6A     		ldr	r2, [r7, #32]
 1064 0394 7B69     		ldr	r3, [r7, #20]
 1065 0396 9A42     		cmp	r2, r3
 1066 0398 EFD1     		bne	.L45
 193:../../source/src/kernel/OS_CORE/schedule/os_ready.c **** 					{
 194:../../source/src/kernel/OS_CORE/schedule/os_ready.c **** 						goto out;
 195:../../source/src/kernel/OS_CORE/schedule/os_ready.c **** 					}
 196:../../source/src/kernel/OS_CORE/schedule/os_ready.c **** 				}
 197:../../source/src/kernel/OS_CORE/schedule/os_ready.c **** 				++num;
 1067              		.loc 2 197 0 is_stmt 1
 1068 039a 7B6A     		ldr	r3, [r7, #36]
 1069 039c 0133     		adds	r3, r3, #1
 1070 039e 7B62     		str	r3, [r7, #36]
 198:../../source/src/kernel/OS_CORE/schedule/os_ready.c **** 				ka_printf("priority %d error\n",j + i*8*sizeof(READY_TABLE_TYPE));
 1071              		.loc 2 198 0
 1072 03a0 FB6A     		ldr	r3, [r7, #44]
ARM GAS  G:\Users\Jaxb\AppData\Local\Temp\cc9A7QMu.s 			page 26


 1073 03a2 DA00     		lsls	r2, r3, #3
 1074 03a4 BB6A     		ldr	r3, [r7, #40]
 1075 03a6 1344     		add	r3, r3, r2
 1076 03a8 1946     		mov	r1, r3
 1077 03aa 1A48     		ldr	r0, .L53+36
 1078 03ac FFF7FEFF 		bl	ka_printf
 1079 03b0 02E0     		b	.L42
 1080              	.L50:
 199:../../source/src/kernel/OS_CORE/schedule/os_ready.c **** 			}
 200:../../source/src/kernel/OS_CORE/schedule/os_ready.c **** out:
 1081              		.loc 2 200 0
 1082 03b2 00BF     		nop
 1083 03b4 00E0     		b	.L42
 1084              	.L51:
 194:../../source/src/kernel/OS_CORE/schedule/os_ready.c **** 					}
 1085              		.loc 2 194 0
 1086 03b6 00BF     		nop
 1087              	.L42:
 184:../../source/src/kernel/OS_CORE/schedule/os_ready.c **** 		{
 1088              		.loc 2 184 0 discriminator 2
 1089 03b8 BB6A     		ldr	r3, [r7, #40]
 1090 03ba 0133     		adds	r3, r3, #1
 1091 03bc BB62     		str	r3, [r7, #40]
 1092              	.L41:
 184:../../source/src/kernel/OS_CORE/schedule/os_ready.c **** 		{
 1093              		.loc 2 184 0 is_stmt 0 discriminator 1
 1094 03be BB6A     		ldr	r3, [r7, #40]
 1095 03c0 072B     		cmp	r3, #7
 1096 03c2 C2D9     		bls	.L46
 182:../../source/src/kernel/OS_CORE/schedule/os_ready.c **** 	{
 1097              		.loc 2 182 0 is_stmt 1 discriminator 2
 1098 03c4 FB6A     		ldr	r3, [r7, #44]
 1099 03c6 0133     		adds	r3, r3, #1
 1100 03c8 FB62     		str	r3, [r7, #44]
 1101              	.L40:
 182:../../source/src/kernel/OS_CORE/schedule/os_ready.c **** 	{
 1102              		.loc 2 182 0 is_stmt 0 discriminator 1
 1103 03ca FB6A     		ldr	r3, [r7, #44]
 1104 03cc 072B     		cmp	r3, #7
 1105 03ce B9D9     		bls	.L47
 201:../../source/src/kernel/OS_CORE/schedule/os_ready.c **** 		;
 202:../../source/src/kernel/OS_CORE/schedule/os_ready.c **** 		}
 203:../../source/src/kernel/OS_CORE/schedule/os_ready.c **** 	}
 204:../../source/src/kernel/OS_CORE/schedule/os_ready.c **** 	//conclusion
 205:../../source/src/kernel/OS_CORE/schedule/os_ready.c **** 	if(num)
 1106              		.loc 2 205 0 is_stmt 1
 1107 03d0 7B6A     		ldr	r3, [r7, #36]
 1108 03d2 002B     		cmp	r3, #0
 1109 03d4 04D0     		beq	.L48
 206:../../source/src/kernel/OS_CORE/schedule/os_ready.c **** 	{
 207:../../source/src/kernel/OS_CORE/schedule/os_ready.c **** 		ka_printf("checking complete....%u error\n",num);
 1110              		.loc 2 207 0
 1111 03d6 796A     		ldr	r1, [r7, #36]
 1112 03d8 0F48     		ldr	r0, .L53+40
 1113 03da FFF7FEFF 		bl	ka_printf
 208:../../source/src/kernel/OS_CORE/schedule/os_ready.c **** 	}
 209:../../source/src/kernel/OS_CORE/schedule/os_ready.c **** 	else
ARM GAS  G:\Users\Jaxb\AppData\Local\Temp\cc9A7QMu.s 			page 27


 210:../../source/src/kernel/OS_CORE/schedule/os_ready.c **** 	{
 211:../../source/src/kernel/OS_CORE/schedule/os_ready.c **** 		ka_printf("checking complete....everything okay\n");
 212:../../source/src/kernel/OS_CORE/schedule/os_ready.c **** 	}
 213:../../source/src/kernel/OS_CORE/schedule/os_ready.c **** }
 1114              		.loc 2 213 0
 1115 03de 02E0     		b	.L52
 1116              	.L48:
 211:../../source/src/kernel/OS_CORE/schedule/os_ready.c **** 	}
 1117              		.loc 2 211 0
 1118 03e0 0E48     		ldr	r0, .L53+44
 1119 03e2 FFF7FEFF 		bl	ka_printf
 1120              	.L52:
 1121              		.loc 2 213 0
 1122 03e6 00BF     		nop
 1123 03e8 3037     		adds	r7, r7, #48
 1124              	.LCFI30:
 1125              		.cfi_def_cfa_offset 8
 1126 03ea BD46     		mov	sp, r7
 1127              	.LCFI31:
 1128              		.cfi_def_cfa_register 13
 1129              		@ sp needed
 1130 03ec 80BD     		pop	{r7, pc}
 1131              	.L54:
 1132 03ee 00BF     		.align	2
 1133              	.L53:
 1134 03f0 00000000 		.word	ready_group
 1135 03f4 04000000 		.word	ready_table
 1136 03f8 B4010000 		.word	.LC3
 1137 03fc E8010000 		.word	.LC4
 1138 0400 24020000 		.word	.LC5
 1139 0404 40020000 		.word	.LC6
 1140 0408 60020000 		.word	.LC7
 1141 040c 80020000 		.word	.LC8
 1142 0410 90020000 		.word	.LC9
 1143 0414 CC020000 		.word	.LC10
 1144 0418 E0020000 		.word	.LC11
 1145 041c 00030000 		.word	.LC12
 1146              		.cfi_endproc
 1147              	.LFE16:
 1148              		.size	shell_check_os_ready, .-shell_check_os_ready
 1149              	.Letext0:
 1150              		.file 3 "../../source/include/os_cpu/kakaosstdint.h"
 1151              		.file 4 "../../source/include/os_core/task_state.h"
 1152              		.file 5 "../../source/include/os_core/TCB.h"
 1153              		.file 6 "../../source/include/os_core/schedule/os_TCB_list.h"
 1154              		.section	.debug_info,"",%progbits
 1155              	.Ldebug_info0:
 1156 0000 39050000 		.4byte	0x539
 1157 0004 0200     		.2byte	0x2
 1158 0006 00000000 		.4byte	.Ldebug_abbrev0
 1159 000a 04       		.byte	0x4
 1160 000b 01       		.uleb128 0x1
 1161 000c 58030000 		.4byte	.LASF61
 1162 0010 0C       		.byte	0xc
 1163 0011 D0020000 		.4byte	.LASF62
 1164 0015 83040000 		.4byte	.LASF63
 1165 0019 00000000 		.4byte	.Ltext0
ARM GAS  G:\Users\Jaxb\AppData\Local\Temp\cc9A7QMu.s 			page 28


 1166 001d 20040000 		.4byte	.Letext0
 1167 0021 00000000 		.4byte	.Ldebug_line0
 1168 0025 02       		.uleb128 0x2
 1169 0026 09030000 		.4byte	.LASF5
 1170 002a 03       		.byte	0x3
 1171 002b 05       		.byte	0x5
 1172 002c 35000000 		.4byte	0x35
 1173 0030 03       		.uleb128 0x3
 1174 0031 25000000 		.4byte	0x25
 1175 0035 04       		.uleb128 0x4
 1176 0036 01       		.byte	0x1
 1177 0037 06       		.byte	0x6
 1178 0038 1A040000 		.4byte	.LASF0
 1179 003c 04       		.uleb128 0x4
 1180 003d 02       		.byte	0x2
 1181 003e 05       		.byte	0x5
 1182 003f 24030000 		.4byte	.LASF1
 1183 0043 05       		.uleb128 0x5
 1184 0044 04       		.byte	0x4
 1185 0045 05       		.byte	0x5
 1186 0046 696E7400 		.ascii	"int\000"
 1187 004a 06       		.uleb128 0x6
 1188 004b 43000000 		.4byte	0x43
 1189 004f 04       		.uleb128 0x4
 1190 0050 08       		.byte	0x8
 1191 0051 05       		.byte	0x5
 1192 0052 B7020000 		.4byte	.LASF2
 1193 0056 04       		.uleb128 0x4
 1194 0057 01       		.byte	0x1
 1195 0058 08       		.byte	0x8
 1196 0059 26010000 		.4byte	.LASF3
 1197 005d 04       		.uleb128 0x4
 1198 005e 02       		.byte	0x2
 1199 005f 07       		.byte	0x7
 1200 0060 42010000 		.4byte	.LASF4
 1201 0064 02       		.uleb128 0x2
 1202 0065 0E030000 		.4byte	.LASF6
 1203 0069 03       		.byte	0x3
 1204 006a 0C       		.byte	0xc
 1205 006b 6F000000 		.4byte	0x6f
 1206 006f 04       		.uleb128 0x4
 1207 0070 04       		.byte	0x4
 1208 0071 07       		.byte	0x7
 1209 0072 FC010000 		.4byte	.LASF7
 1210 0076 02       		.uleb128 0x2
 1211 0077 34010000 		.4byte	.LASF8
 1212 007b 03       		.byte	0x3
 1213 007c 0D       		.byte	0xd
 1214 007d 81000000 		.4byte	0x81
 1215 0081 04       		.uleb128 0x4
 1216 0082 08       		.byte	0x8
 1217 0083 07       		.byte	0x7
 1218 0084 23020000 		.4byte	.LASF9
 1219 0088 02       		.uleb128 0x2
 1220 0089 05000000 		.4byte	.LASF10
 1221 008d 03       		.byte	0x3
 1222 008e 23       		.byte	0x23
ARM GAS  G:\Users\Jaxb\AppData\Local\Temp\cc9A7QMu.s 			page 29


 1223 008f 6F000000 		.4byte	0x6f
 1224 0093 07       		.uleb128 0x7
 1225 0094 92020000 		.4byte	.LASF26
 1226 0098 08       		.byte	0x8
 1227 0099 01       		.byte	0x1
 1228 009a 04       		.byte	0x4
 1229 009b BC000000 		.4byte	0xbc
 1230 009f 08       		.uleb128 0x8
 1231 00a0 0C000000 		.4byte	.LASF11
 1232 00a4 01       		.byte	0x1
 1233 00a5 05       		.byte	0x5
 1234 00a6 C1000000 		.4byte	0xc1
 1235 00aa 02       		.byte	0x2
 1236 00ab 23       		.byte	0x23
 1237 00ac 00       		.uleb128 0
 1238 00ad 08       		.uleb128 0x8
 1239 00ae 7E040000 		.4byte	.LASF12
 1240 00b2 01       		.byte	0x1
 1241 00b3 05       		.byte	0x5
 1242 00b4 C1000000 		.4byte	0xc1
 1243 00b8 02       		.byte	0x2
 1244 00b9 23       		.byte	0x23
 1245 00ba 04       		.uleb128 0x4
 1246 00bb 00       		.byte	0
 1247 00bc 03       		.uleb128 0x3
 1248 00bd 93000000 		.4byte	0x93
 1249 00c1 09       		.uleb128 0x9
 1250 00c2 04       		.byte	0x4
 1251 00c3 93000000 		.4byte	0x93
 1252 00c7 0A       		.uleb128 0xa
 1253 00c8 49020000 		.4byte	.LASF64
 1254 00cc 07       		.byte	0x7
 1255 00cd 01       		.byte	0x1
 1256 00ce 56000000 		.4byte	0x56
 1257 00d2 04       		.byte	0x4
 1258 00d3 04       		.byte	0x4
 1259 00d4 15010000 		.4byte	0x115
 1260 00d8 0B       		.uleb128 0xb
 1261 00d9 01010000 		.4byte	.LASF13
 1262 00dd 01       		.byte	0x1
 1263 00de 0B       		.uleb128 0xb
 1264 00df 26000000 		.4byte	.LASF14
 1265 00e3 02       		.byte	0x2
 1266 00e4 0B       		.uleb128 0xb
 1267 00e5 46040000 		.4byte	.LASF15
 1268 00e9 03       		.byte	0x3
 1269 00ea 0B       		.uleb128 0xb
 1270 00eb A8010000 		.4byte	.LASF16
 1271 00ef 04       		.byte	0x4
 1272 00f0 0B       		.uleb128 0xb
 1273 00f1 03040000 		.4byte	.LASF17
 1274 00f5 05       		.byte	0x5
 1275 00f6 0B       		.uleb128 0xb
 1276 00f7 E0000000 		.4byte	.LASF18
 1277 00fb 06       		.byte	0x6
 1278 00fc 0B       		.uleb128 0xb
 1279 00fd 55010000 		.4byte	.LASF19
ARM GAS  G:\Users\Jaxb\AppData\Local\Temp\cc9A7QMu.s 			page 30


 1280 0101 07       		.byte	0x7
 1281 0102 0B       		.uleb128 0xb
 1282 0103 26040000 		.4byte	.LASF20
 1283 0107 08       		.byte	0x8
 1284 0108 0B       		.uleb128 0xb
 1285 0109 41000000 		.4byte	.LASF21
 1286 010d 09       		.byte	0x9
 1287 010e 0B       		.uleb128 0xb
 1288 010f 5D020000 		.4byte	.LASF22
 1289 0113 0A       		.byte	0xa
 1290 0114 00       		.byte	0
 1291 0115 02       		.uleb128 0x2
 1292 0116 F1010000 		.4byte	.LASF23
 1293 011a 04       		.byte	0x4
 1294 011b 0F       		.byte	0xf
 1295 011c C7000000 		.4byte	0xc7
 1296 0120 02       		.uleb128 0x2
 1297 0121 76020000 		.4byte	.LASF24
 1298 0125 05       		.byte	0x5
 1299 0126 0B       		.byte	0xb
 1300 0127 6F000000 		.4byte	0x6f
 1301 012b 02       		.uleb128 0x2
 1302 012c 32000000 		.4byte	.LASF25
 1303 0130 05       		.byte	0x5
 1304 0131 0D       		.byte	0xd
 1305 0132 6F000000 		.4byte	0x6f
 1306 0136 0C       		.uleb128 0xc
 1307 0137 5B040000 		.4byte	.LASF65
 1308 013b 05       		.byte	0x5
 1309 013c 14       		.byte	0x14
 1310 013d 4A000000 		.4byte	0x4a
 1311 0141 01       		.byte	0x1
 1312 0142 01       		.byte	0x1
 1313 0143 07       		.uleb128 0x7
 1314 0144 09020000 		.4byte	.LASF27
 1315 0148 48       		.byte	0x48
 1316 0149 05       		.byte	0x5
 1317 014a 37       		.byte	0x37
 1318 014b 22020000 		.4byte	0x222
 1319 014f 08       		.uleb128 0x8
 1320 0150 AB000000 		.4byte	.LASF28
 1321 0154 05       		.byte	0x5
 1322 0155 38       		.byte	0x38
 1323 0156 22020000 		.4byte	0x222
 1324 015a 02       		.byte	0x2
 1325 015b 23       		.byte	0x23
 1326 015c 00       		.uleb128 0
 1327 015d 08       		.uleb128 0x8
 1328 015e C5020000 		.4byte	.LASF29
 1329 0162 05       		.byte	0x5
 1330 0163 39       		.byte	0x39
 1331 0164 6F000000 		.4byte	0x6f
 1332 0168 02       		.byte	0x2
 1333 0169 23       		.byte	0x23
 1334 016a 04       		.uleb128 0x4
 1335 016b 08       		.uleb128 0x8
 1336 016c 8B010000 		.4byte	.LASF30
ARM GAS  G:\Users\Jaxb\AppData\Local\Temp\cc9A7QMu.s 			page 31


 1337 0170 05       		.byte	0x5
 1338 0171 3A       		.byte	0x3a
 1339 0172 22020000 		.4byte	0x222
 1340 0176 02       		.byte	0x2
 1341 0177 23       		.byte	0x23
 1342 0178 08       		.uleb128 0x8
 1343 0179 08       		.uleb128 0x8
 1344 017a 0D010000 		.4byte	.LASF31
 1345 017e 05       		.byte	0x5
 1346 017f 3B       		.byte	0x3b
 1347 0180 2B010000 		.4byte	0x12b
 1348 0184 02       		.byte	0x2
 1349 0185 23       		.byte	0x23
 1350 0186 0C       		.uleb128 0xc
 1351 0187 08       		.uleb128 0x8
 1352 0188 76010000 		.4byte	.LASF32
 1353 018c 05       		.byte	0x5
 1354 018d 3C       		.byte	0x3c
 1355 018e 15010000 		.4byte	0x115
 1356 0192 02       		.byte	0x2
 1357 0193 23       		.byte	0x23
 1358 0194 10       		.uleb128 0x10
 1359 0195 08       		.uleb128 0x8
 1360 0196 00000000 		.4byte	.LASF33
 1361 019a 05       		.byte	0x5
 1362 019b 3D       		.byte	0x3d
 1363 019c 2B010000 		.4byte	0x12b
 1364 01a0 02       		.byte	0x2
 1365 01a1 23       		.byte	0x23
 1366 01a2 14       		.uleb128 0x14
 1367 01a3 08       		.uleb128 0x8
 1368 01a4 61000000 		.4byte	.LASF34
 1369 01a8 05       		.byte	0x5
 1370 01a9 3E       		.byte	0x3e
 1371 01aa 43000000 		.4byte	0x43
 1372 01ae 02       		.byte	0x2
 1373 01af 23       		.byte	0x23
 1374 01b0 18       		.uleb128 0x18
 1375 01b1 08       		.uleb128 0x8
 1376 01b2 3A020000 		.4byte	.LASF35
 1377 01b6 05       		.byte	0x5
 1378 01b7 3F       		.byte	0x3f
 1379 01b8 93000000 		.4byte	0x93
 1380 01bc 02       		.byte	0x2
 1381 01bd 23       		.byte	0x23
 1382 01be 1C       		.uleb128 0x1c
 1383 01bf 08       		.uleb128 0x8
 1384 01c0 D9010000 		.4byte	.LASF36
 1385 01c4 05       		.byte	0x5
 1386 01c5 40       		.byte	0x40
 1387 01c6 93000000 		.4byte	0x93
 1388 01ca 02       		.byte	0x2
 1389 01cb 23       		.byte	0x23
 1390 01cc 24       		.uleb128 0x24
 1391 01cd 08       		.uleb128 0x8
 1392 01ce 04030000 		.4byte	.LASF37
 1393 01d2 05       		.byte	0x5
ARM GAS  G:\Users\Jaxb\AppData\Local\Temp\cc9A7QMu.s 			page 32


 1394 01d3 41       		.byte	0x41
 1395 01d4 28020000 		.4byte	0x228
 1396 01d8 02       		.byte	0x2
 1397 01d9 23       		.byte	0x23
 1398 01da 2C       		.uleb128 0x2c
 1399 01db 08       		.uleb128 0x8
 1400 01dc 8B000000 		.4byte	.LASF38
 1401 01e0 05       		.byte	0x5
 1402 01e1 42       		.byte	0x42
 1403 01e2 6F000000 		.4byte	0x6f
 1404 01e6 02       		.byte	0x2
 1405 01e7 23       		.byte	0x23
 1406 01e8 30       		.uleb128 0x30
 1407 01e9 08       		.uleb128 0x8
 1408 01ea B9000000 		.4byte	.LASF39
 1409 01ee 05       		.byte	0x5
 1410 01ef 43       		.byte	0x43
 1411 01f0 6F000000 		.4byte	0x6f
 1412 01f4 02       		.byte	0x2
 1413 01f5 23       		.byte	0x23
 1414 01f6 34       		.uleb128 0x34
 1415 01f7 08       		.uleb128 0x8
 1416 01f8 BF010000 		.4byte	.LASF40
 1417 01fc 05       		.byte	0x5
 1418 01fd 44       		.byte	0x44
 1419 01fe 64000000 		.4byte	0x64
 1420 0202 02       		.byte	0x2
 1421 0203 23       		.byte	0x23
 1422 0204 38       		.uleb128 0x38
 1423 0205 08       		.uleb128 0x8
 1424 0206 CD000000 		.4byte	.LASF41
 1425 020a 05       		.byte	0x5
 1426 020b 45       		.byte	0x45
 1427 020c 3B020000 		.4byte	0x23b
 1428 0210 02       		.byte	0x2
 1429 0211 23       		.byte	0x23
 1430 0212 3C       		.uleb128 0x3c
 1431 0213 08       		.uleb128 0x8
 1432 0214 6D040000 		.4byte	.LASF42
 1433 0218 05       		.byte	0x5
 1434 0219 46       		.byte	0x46
 1435 021a 76000000 		.4byte	0x76
 1436 021e 02       		.byte	0x2
 1437 021f 23       		.byte	0x23
 1438 0220 40       		.uleb128 0x40
 1439 0221 00       		.byte	0
 1440 0222 09       		.uleb128 0x9
 1441 0223 04       		.byte	0x4
 1442 0224 20010000 		.4byte	0x120
 1443 0228 09       		.uleb128 0x9
 1444 0229 04       		.byte	0x4
 1445 022a 2E020000 		.4byte	0x22e
 1446 022e 04       		.uleb128 0x4
 1447 022f 01       		.byte	0x1
 1448 0230 08       		.byte	0x8
 1449 0231 FE030000 		.4byte	.LASF43
 1450 0235 0D       		.uleb128 0xd
ARM GAS  G:\Users\Jaxb\AppData\Local\Temp\cc9A7QMu.s 			page 33


 1451 0236 15030000 		.4byte	.LASF66
 1452 023a 01       		.byte	0x1
 1453 023b 09       		.uleb128 0x9
 1454 023c 04       		.byte	0x4
 1455 023d 35020000 		.4byte	0x235
 1456 0241 0E       		.uleb128 0xe
 1457 0242 54434200 		.ascii	"TCB\000"
 1458 0246 05       		.byte	0x5
 1459 0247 47       		.byte	0x47
 1460 0248 43010000 		.4byte	0x143
 1461 024c 07       		.uleb128 0x7
 1462 024d 54020000 		.4byte	.LASF44
 1463 0251 0C       		.byte	0xc
 1464 0252 06       		.byte	0x6
 1465 0253 07       		.byte	0x7
 1466 0254 83020000 		.4byte	0x283
 1467 0258 08       		.uleb128 0x8
 1468 0259 EC010000 		.4byte	.LASF45
 1469 025d 06       		.byte	0x6
 1470 025e 08       		.byte	0x8
 1471 025f 93000000 		.4byte	0x93
 1472 0263 02       		.byte	0x2
 1473 0264 23       		.byte	0x23
 1474 0265 00       		.uleb128 0
 1475 0266 08       		.uleb128 0x8
 1476 0267 81010000 		.4byte	.LASF46
 1477 026b 06       		.byte	0x6
 1478 026c 09       		.byte	0x9
 1479 026d 56000000 		.4byte	0x56
 1480 0271 02       		.byte	0x2
 1481 0272 23       		.byte	0x23
 1482 0273 08       		.uleb128 0x8
 1483 0274 08       		.uleb128 0x8
 1484 0275 2E030000 		.4byte	.LASF47
 1485 0279 06       		.byte	0x6
 1486 027a 0A       		.byte	0xa
 1487 027b 56000000 		.4byte	0x56
 1488 027f 02       		.byte	0x2
 1489 0280 23       		.byte	0x23
 1490 0281 09       		.uleb128 0x9
 1491 0282 00       		.byte	0
 1492 0283 02       		.uleb128 0x2
 1493 0284 36030000 		.4byte	.LASF48
 1494 0288 02       		.byte	0x2
 1495 0289 0B       		.byte	0xb
 1496 028a 56000000 		.4byte	0x56
 1497 028e 02       		.uleb128 0x2
 1498 028f 47030000 		.4byte	.LASF49
 1499 0293 02       		.byte	0x2
 1500 0294 0C       		.byte	0xc
 1501 0295 56000000 		.4byte	0x56
 1502 0299 03       		.uleb128 0x3
 1503 029a 8E020000 		.4byte	0x28e
 1504 029e 0F       		.uleb128 0xf
 1505 029f 99020000 		.4byte	0x299
 1506 02a3 AE020000 		.4byte	0x2ae
 1507 02a7 10       		.uleb128 0x10
ARM GAS  G:\Users\Jaxb\AppData\Local\Temp\cc9A7QMu.s 			page 34


 1508 02a8 6F000000 		.4byte	0x6f
 1509 02ac 07       		.byte	0x7
 1510 02ad 00       		.byte	0
 1511 02ae 03       		.uleb128 0x3
 1512 02af 9E020000 		.4byte	0x29e
 1513 02b3 11       		.uleb128 0x11
 1514 02b4 6D617000 		.ascii	"map\000"
 1515 02b8 02       		.byte	0x2
 1516 02b9 0E       		.byte	0xe
 1517 02ba AE020000 		.4byte	0x2ae
 1518 02be 05       		.byte	0x5
 1519 02bf 03       		.byte	0x3
 1520 02c0 00000000 		.4byte	map
 1521 02c4 0F       		.uleb128 0xf
 1522 02c5 30000000 		.4byte	0x30
 1523 02c9 D4020000 		.4byte	0x2d4
 1524 02cd 10       		.uleb128 0x10
 1525 02ce 6F000000 		.4byte	0x6f
 1526 02d2 FF       		.byte	0xff
 1527 02d3 00       		.byte	0
 1528 02d4 03       		.uleb128 0x3
 1529 02d5 C4020000 		.4byte	0x2c4
 1530 02d9 12       		.uleb128 0x12
 1531 02da E6010000 		.4byte	.LASF50
 1532 02de 02       		.byte	0x2
 1533 02df 18       		.byte	0x18
 1534 02e0 D4020000 		.4byte	0x2d4
 1535 02e4 05       		.byte	0x5
 1536 02e5 03       		.byte	0x3
 1537 02e6 08000000 		.4byte	unmap
 1538 02ea 12       		.uleb128 0x12
 1539 02eb 1A010000 		.4byte	.LASF51
 1540 02ef 02       		.byte	0x2
 1541 02f0 2B       		.byte	0x2b
 1542 02f1 83020000 		.4byte	0x283
 1543 02f5 05       		.byte	0x5
 1544 02f6 03       		.byte	0x3
 1545 02f7 00000000 		.4byte	ready_group
 1546 02fb 0F       		.uleb128 0xf
 1547 02fc 8E020000 		.4byte	0x28e
 1548 0300 0B030000 		.4byte	0x30b
 1549 0304 10       		.uleb128 0x10
 1550 0305 6F000000 		.4byte	0x6f
 1551 0309 07       		.byte	0x7
 1552 030a 00       		.byte	0
 1553 030b 12       		.uleb128 0x12
 1554 030c 9F000000 		.4byte	.LASF52
 1555 0310 02       		.byte	0x2
 1556 0311 2C       		.byte	0x2c
 1557 0312 FB020000 		.4byte	0x2fb
 1558 0316 05       		.byte	0x5
 1559 0317 03       		.byte	0x3
 1560 0318 04000000 		.4byte	ready_table
 1561 031c 13       		.uleb128 0x13
 1562 031d 01       		.byte	0x1
 1563 031e 11000000 		.4byte	.LASF59
 1564 0322 02       		.byte	0x2
ARM GAS  G:\Users\Jaxb\AppData\Local\Temp\cc9A7QMu.s 			page 35


 1565 0323 7E       		.byte	0x7e
 1566 0324 01       		.byte	0x1
 1567 0325 24020000 		.4byte	.LFB16
 1568 0329 20040000 		.4byte	.LFE16
 1569 032d 00000000 		.4byte	.LLST5
 1570 0331 01       		.byte	0x1
 1571 0332 1A040000 		.4byte	0x41a
 1572 0336 11       		.uleb128 0x11
 1573 0337 6900     		.ascii	"i\000"
 1574 0339 02       		.byte	0x2
 1575 033a 80       		.byte	0x80
 1576 033b 6F000000 		.4byte	0x6f
 1577 033f 02       		.byte	0x2
 1578 0340 91       		.byte	0x91
 1579 0341 74       		.sleb128 -12
 1580 0342 11       		.uleb128 0x11
 1581 0343 6A00     		.ascii	"j\000"
 1582 0345 02       		.byte	0x2
 1583 0346 80       		.byte	0x80
 1584 0347 6F000000 		.4byte	0x6f
 1585 034b 02       		.byte	0x2
 1586 034c 91       		.byte	0x91
 1587 034d 70       		.sleb128 -16
 1588 034e 11       		.uleb128 0x11
 1589 034f 6E756D00 		.ascii	"num\000"
 1590 0353 02       		.byte	0x2
 1591 0354 81       		.byte	0x81
 1592 0355 6F000000 		.4byte	0x6f
 1593 0359 02       		.byte	0x2
 1594 035a 91       		.byte	0x91
 1595 035b 6C       		.sleb128 -20
 1596 035c 11       		.uleb128 0x11
 1597 035d 706F7300 		.ascii	"pos\000"
 1598 0361 02       		.byte	0x2
 1599 0362 82       		.byte	0x82
 1600 0363 C1000000 		.4byte	0xc1
 1601 0367 02       		.byte	0x2
 1602 0368 91       		.byte	0x91
 1603 0369 68       		.sleb128 -24
 1604 036a 12       		.uleb128 0x12
 1605 036b EC010000 		.4byte	.LASF45
 1606 036f 02       		.byte	0x2
 1607 0370 82       		.byte	0x82
 1608 0371 C1000000 		.4byte	0xc1
 1609 0375 02       		.byte	0x2
 1610 0376 91       		.byte	0x91
 1611 0377 5C       		.sleb128 -36
 1612 0378 12       		.uleb128 0x12
 1613 0379 B1000000 		.4byte	.LASF53
 1614 037d 02       		.byte	0x2
 1615 037e 83       		.byte	0x83
 1616 037f 1A040000 		.4byte	0x41a
 1617 0383 02       		.byte	0x2
 1618 0384 91       		.byte	0x91
 1619 0385 54       		.sleb128 -44
 1620 0386 12       		.uleb128 0x12
 1621 0387 CB010000 		.4byte	.LASF54
ARM GAS  G:\Users\Jaxb\AppData\Local\Temp\cc9A7QMu.s 			page 36


 1622 038b 02       		.byte	0x2
 1623 038c 84       		.byte	0x84
 1624 038d 6F000000 		.4byte	0x6f
 1625 0391 02       		.byte	0x2
 1626 0392 91       		.byte	0x91
 1627 0393 64       		.sleb128 -28
 1628 0394 12       		.uleb128 0x12
 1629 0395 2E030000 		.4byte	.LASF47
 1630 0399 02       		.byte	0x2
 1631 039a 85       		.byte	0x85
 1632 039b 6F000000 		.4byte	0x6f
 1633 039f 02       		.byte	0x2
 1634 03a0 91       		.byte	0x91
 1635 03a1 60       		.sleb128 -32
 1636 03a2 14       		.uleb128 0x14
 1637 03a3 6F757400 		.ascii	"out\000"
 1638 03a7 02       		.byte	0x2
 1639 03a8 C8       		.byte	0xc8
 1640 03a9 B8030000 		.4byte	.L42
 1641 03ad 15       		.uleb128 0x15
 1642 03ae A6020000 		.4byte	.LBB3
 1643 03b2 AE020000 		.4byte	.LBE3
 1644 03b6 C9030000 		.4byte	0x3c9
 1645 03ba 12       		.uleb128 0x12
 1646 03bb 3B010000 		.4byte	.LASF55
 1647 03bf 02       		.byte	0x2
 1648 03c0 9E       		.byte	0x9e
 1649 03c1 20040000 		.4byte	0x420
 1650 03c5 02       		.byte	0x2
 1651 03c6 91       		.byte	0x91
 1652 03c7 48       		.sleb128 -56
 1653 03c8 00       		.byte	0
 1654 03c9 15       		.uleb128 0x15
 1655 03ca F6020000 		.4byte	.LBB4
 1656 03ce FC020000 		.4byte	.LBE4
 1657 03d2 E5030000 		.4byte	0x3e5
 1658 03d6 12       		.uleb128 0x12
 1659 03d7 3B010000 		.4byte	.LASF55
 1660 03db 02       		.byte	0x2
 1661 03dc A9       		.byte	0xa9
 1662 03dd 20040000 		.4byte	0x420
 1663 03e1 02       		.byte	0x2
 1664 03e2 91       		.byte	0x91
 1665 03e3 50       		.sleb128 -48
 1666 03e4 00       		.byte	0
 1667 03e5 15       		.uleb128 0x15
 1668 03e6 0E030000 		.4byte	.LBB5
 1669 03ea 14030000 		.4byte	.LBE5
 1670 03ee 01040000 		.4byte	0x401
 1671 03f2 12       		.uleb128 0x12
 1672 03f3 3B010000 		.4byte	.LASF55
 1673 03f7 02       		.byte	0x2
 1674 03f8 AD       		.byte	0xad
 1675 03f9 20040000 		.4byte	0x420
 1676 03fd 02       		.byte	0x2
 1677 03fe 91       		.byte	0x91
 1678 03ff 4C       		.sleb128 -52
ARM GAS  G:\Users\Jaxb\AppData\Local\Temp\cc9A7QMu.s 			page 37


 1679 0400 00       		.byte	0
 1680 0401 16       		.uleb128 0x16
 1681 0402 7A030000 		.4byte	.LBB6
 1682 0406 82030000 		.4byte	.LBE6
 1683 040a 12       		.uleb128 0x12
 1684 040b 3B010000 		.4byte	.LASF55
 1685 040f 02       		.byte	0x2
 1686 0410 BF       		.byte	0xbf
 1687 0411 20040000 		.4byte	0x420
 1688 0415 02       		.byte	0x2
 1689 0416 91       		.byte	0x91
 1690 0417 58       		.sleb128 -40
 1691 0418 00       		.byte	0
 1692 0419 00       		.byte	0
 1693 041a 09       		.uleb128 0x9
 1694 041b 04       		.byte	0x4
 1695 041c 41020000 		.4byte	0x241
 1696 0420 09       		.uleb128 0x9
 1697 0421 04       		.byte	0x4
 1698 0422 BC000000 		.4byte	0xbc
 1699 0426 17       		.uleb128 0x17
 1700 0427 01       		.byte	0x1
 1701 0428 9C020000 		.4byte	.LASF56
 1702 042c 02       		.byte	0x2
 1703 042d 67       		.byte	0x67
 1704 042e 01       		.byte	0x1
 1705 042f 1A040000 		.4byte	0x41a
 1706 0433 A4010000 		.4byte	.LFB15
 1707 0437 24020000 		.4byte	.LFE15
 1708 043b 50000000 		.4byte	.LLST4
 1709 043f 01       		.byte	0x1
 1710 0440 93040000 		.4byte	0x493
 1711 0444 11       		.uleb128 0x11
 1712 0445 7900     		.ascii	"y\000"
 1713 0447 02       		.byte	0x2
 1714 0448 69       		.byte	0x69
 1715 0449 43000000 		.4byte	0x43
 1716 044d 02       		.byte	0x2
 1717 044e 91       		.byte	0x91
 1718 044f 70       		.sleb128 -16
 1719 0450 11       		.uleb128 0x11
 1720 0451 706F7300 		.ascii	"pos\000"
 1721 0455 02       		.byte	0x2
 1722 0456 6A       		.byte	0x6a
 1723 0457 C1000000 		.4byte	0xc1
 1724 045b 02       		.byte	0x2
 1725 045c 91       		.byte	0x91
 1726 045d 74       		.sleb128 -12
 1727 045e 12       		.uleb128 0x12
 1728 045f EC010000 		.4byte	.LASF45
 1729 0463 02       		.byte	0x2
 1730 0464 6A       		.byte	0x6a
 1731 0465 C1000000 		.4byte	0xc1
 1732 0469 02       		.byte	0x2
 1733 046a 91       		.byte	0x91
 1734 046b 6C       		.sleb128 -20
 1735 046c 12       		.uleb128 0x12
ARM GAS  G:\Users\Jaxb\AppData\Local\Temp\cc9A7QMu.s 			page 38


 1736 046d B1000000 		.4byte	.LASF53
 1737 0471 02       		.byte	0x2
 1738 0472 6B       		.byte	0x6b
 1739 0473 1A040000 		.4byte	0x41a
 1740 0477 02       		.byte	0x2
 1741 0478 91       		.byte	0x91
 1742 0479 64       		.sleb128 -28
 1743 047a 16       		.uleb128 0x16
 1744 047b DC010000 		.4byte	.LBB2
 1745 047f E4010000 		.4byte	.LBE2
 1746 0483 12       		.uleb128 0x12
 1747 0484 3B010000 		.4byte	.LASF55
 1748 0488 02       		.byte	0x2
 1749 0489 72       		.byte	0x72
 1750 048a 20040000 		.4byte	0x420
 1751 048e 02       		.byte	0x2
 1752 048f 91       		.byte	0x91
 1753 0490 68       		.sleb128 -24
 1754 0491 00       		.byte	0
 1755 0492 00       		.byte	0
 1756 0493 17       		.uleb128 0x17
 1757 0494 01       		.byte	0x1
 1758 0495 75000000 		.4byte	.LASF57
 1759 0499 02       		.byte	0x2
 1760 049a 4C       		.byte	0x4c
 1761 049b 01       		.byte	0x1
 1762 049c 43000000 		.4byte	0x43
 1763 04a0 E8000000 		.4byte	.LFB14
 1764 04a4 A4010000 		.4byte	.LFE14
 1765 04a8 A0000000 		.4byte	.LLST3
 1766 04ac 01       		.byte	0x1
 1767 04ad C0040000 		.4byte	0x4c0
 1768 04b1 18       		.uleb128 0x18
 1769 04b2 B1000000 		.4byte	.LASF53
 1770 04b6 02       		.byte	0x2
 1771 04b7 4C       		.byte	0x4c
 1772 04b8 1A040000 		.4byte	0x41a
 1773 04bc 02       		.byte	0x2
 1774 04bd 91       		.byte	0x91
 1775 04be 74       		.sleb128 -12
 1776 04bf 00       		.byte	0
 1777 04c0 17       		.uleb128 0x17
 1778 04c1 01       		.byte	0x1
 1779 04c2 81020000 		.4byte	.LASF58
 1780 04c6 02       		.byte	0x2
 1781 04c7 39       		.byte	0x39
 1782 04c8 01       		.byte	0x1
 1783 04c9 43000000 		.4byte	0x43
 1784 04cd 5C000000 		.4byte	.LFB13
 1785 04d1 E8000000 		.4byte	.LFE13
 1786 04d5 F0000000 		.4byte	.LLST2
 1787 04d9 01       		.byte	0x1
 1788 04da ED040000 		.4byte	0x4ed
 1789 04de 18       		.uleb128 0x18
 1790 04df B1000000 		.4byte	.LASF53
 1791 04e3 02       		.byte	0x2
 1792 04e4 39       		.byte	0x39
ARM GAS  G:\Users\Jaxb\AppData\Local\Temp\cc9A7QMu.s 			page 39


 1793 04e5 1A040000 		.4byte	0x41a
 1794 04e9 02       		.byte	0x2
 1795 04ea 91       		.byte	0x91
 1796 04eb 74       		.sleb128 -12
 1797 04ec 00       		.byte	0
 1798 04ed 19       		.uleb128 0x19
 1799 04ee 01       		.byte	0x1
 1800 04ef 95010000 		.4byte	.LASF60
 1801 04f3 02       		.byte	0x2
 1802 04f4 2F       		.byte	0x2f
 1803 04f5 01       		.byte	0x1
 1804 04f6 22000000 		.4byte	.LFB12
 1805 04fa 5C000000 		.4byte	.LFE12
 1806 04fe 40010000 		.4byte	.LLST1
 1807 0502 01       		.byte	0x1
 1808 0503 14050000 		.4byte	0x514
 1809 0507 11       		.uleb128 0x11
 1810 0508 6900     		.ascii	"i\000"
 1811 050a 02       		.byte	0x2
 1812 050b 31       		.byte	0x31
 1813 050c 6F000000 		.4byte	0x6f
 1814 0510 02       		.byte	0x2
 1815 0511 91       		.byte	0x91
 1816 0512 74       		.sleb128 -12
 1817 0513 00       		.byte	0
 1818 0514 1A       		.uleb128 0x1a
 1819 0515 B1040000 		.4byte	.LASF67
 1820 0519 01       		.byte	0x1
 1821 051a 52       		.byte	0x52
 1822 051b 01       		.byte	0x1
 1823 051c 43000000 		.4byte	0x43
 1824 0520 00000000 		.4byte	.LFB9
 1825 0524 22000000 		.4byte	.LFE9
 1826 0528 9C010000 		.4byte	.LLST0
 1827 052c 01       		.byte	0x1
 1828 052d 18       		.uleb128 0x18
 1829 052e EC010000 		.4byte	.LASF45
 1830 0532 01       		.byte	0x1
 1831 0533 52       		.byte	0x52
 1832 0534 20040000 		.4byte	0x420
 1833 0538 02       		.byte	0x2
 1834 0539 91       		.byte	0x91
 1835 053a 74       		.sleb128 -12
 1836 053b 00       		.byte	0
 1837 053c 00       		.byte	0
 1838              		.section	.debug_abbrev,"",%progbits
 1839              	.Ldebug_abbrev0:
 1840 0000 01       		.uleb128 0x1
 1841 0001 11       		.uleb128 0x11
 1842 0002 01       		.byte	0x1
 1843 0003 25       		.uleb128 0x25
 1844 0004 0E       		.uleb128 0xe
 1845 0005 13       		.uleb128 0x13
 1846 0006 0B       		.uleb128 0xb
 1847 0007 03       		.uleb128 0x3
 1848 0008 0E       		.uleb128 0xe
 1849 0009 1B       		.uleb128 0x1b
ARM GAS  G:\Users\Jaxb\AppData\Local\Temp\cc9A7QMu.s 			page 40


 1850 000a 0E       		.uleb128 0xe
 1851 000b 11       		.uleb128 0x11
 1852 000c 01       		.uleb128 0x1
 1853 000d 12       		.uleb128 0x12
 1854 000e 01       		.uleb128 0x1
 1855 000f 10       		.uleb128 0x10
 1856 0010 06       		.uleb128 0x6
 1857 0011 00       		.byte	0
 1858 0012 00       		.byte	0
 1859 0013 02       		.uleb128 0x2
 1860 0014 16       		.uleb128 0x16
 1861 0015 00       		.byte	0
 1862 0016 03       		.uleb128 0x3
 1863 0017 0E       		.uleb128 0xe
 1864 0018 3A       		.uleb128 0x3a
 1865 0019 0B       		.uleb128 0xb
 1866 001a 3B       		.uleb128 0x3b
 1867 001b 0B       		.uleb128 0xb
 1868 001c 49       		.uleb128 0x49
 1869 001d 13       		.uleb128 0x13
 1870 001e 00       		.byte	0
 1871 001f 00       		.byte	0
 1872 0020 03       		.uleb128 0x3
 1873 0021 26       		.uleb128 0x26
 1874 0022 00       		.byte	0
 1875 0023 49       		.uleb128 0x49
 1876 0024 13       		.uleb128 0x13
 1877 0025 00       		.byte	0
 1878 0026 00       		.byte	0
 1879 0027 04       		.uleb128 0x4
 1880 0028 24       		.uleb128 0x24
 1881 0029 00       		.byte	0
 1882 002a 0B       		.uleb128 0xb
 1883 002b 0B       		.uleb128 0xb
 1884 002c 3E       		.uleb128 0x3e
 1885 002d 0B       		.uleb128 0xb
 1886 002e 03       		.uleb128 0x3
 1887 002f 0E       		.uleb128 0xe
 1888 0030 00       		.byte	0
 1889 0031 00       		.byte	0
 1890 0032 05       		.uleb128 0x5
 1891 0033 24       		.uleb128 0x24
 1892 0034 00       		.byte	0
 1893 0035 0B       		.uleb128 0xb
 1894 0036 0B       		.uleb128 0xb
 1895 0037 3E       		.uleb128 0x3e
 1896 0038 0B       		.uleb128 0xb
 1897 0039 03       		.uleb128 0x3
 1898 003a 08       		.uleb128 0x8
 1899 003b 00       		.byte	0
 1900 003c 00       		.byte	0
 1901 003d 06       		.uleb128 0x6
 1902 003e 35       		.uleb128 0x35
 1903 003f 00       		.byte	0
 1904 0040 49       		.uleb128 0x49
 1905 0041 13       		.uleb128 0x13
 1906 0042 00       		.byte	0
ARM GAS  G:\Users\Jaxb\AppData\Local\Temp\cc9A7QMu.s 			page 41


 1907 0043 00       		.byte	0
 1908 0044 07       		.uleb128 0x7
 1909 0045 13       		.uleb128 0x13
 1910 0046 01       		.byte	0x1
 1911 0047 03       		.uleb128 0x3
 1912 0048 0E       		.uleb128 0xe
 1913 0049 0B       		.uleb128 0xb
 1914 004a 0B       		.uleb128 0xb
 1915 004b 3A       		.uleb128 0x3a
 1916 004c 0B       		.uleb128 0xb
 1917 004d 3B       		.uleb128 0x3b
 1918 004e 0B       		.uleb128 0xb
 1919 004f 01       		.uleb128 0x1
 1920 0050 13       		.uleb128 0x13
 1921 0051 00       		.byte	0
 1922 0052 00       		.byte	0
 1923 0053 08       		.uleb128 0x8
 1924 0054 0D       		.uleb128 0xd
 1925 0055 00       		.byte	0
 1926 0056 03       		.uleb128 0x3
 1927 0057 0E       		.uleb128 0xe
 1928 0058 3A       		.uleb128 0x3a
 1929 0059 0B       		.uleb128 0xb
 1930 005a 3B       		.uleb128 0x3b
 1931 005b 0B       		.uleb128 0xb
 1932 005c 49       		.uleb128 0x49
 1933 005d 13       		.uleb128 0x13
 1934 005e 38       		.uleb128 0x38
 1935 005f 0A       		.uleb128 0xa
 1936 0060 00       		.byte	0
 1937 0061 00       		.byte	0
 1938 0062 09       		.uleb128 0x9
 1939 0063 0F       		.uleb128 0xf
 1940 0064 00       		.byte	0
 1941 0065 0B       		.uleb128 0xb
 1942 0066 0B       		.uleb128 0xb
 1943 0067 49       		.uleb128 0x49
 1944 0068 13       		.uleb128 0x13
 1945 0069 00       		.byte	0
 1946 006a 00       		.byte	0
 1947 006b 0A       		.uleb128 0xa
 1948 006c 04       		.uleb128 0x4
 1949 006d 01       		.byte	0x1
 1950 006e 03       		.uleb128 0x3
 1951 006f 0E       		.uleb128 0xe
 1952 0070 3E       		.uleb128 0x3e
 1953 0071 0B       		.uleb128 0xb
 1954 0072 0B       		.uleb128 0xb
 1955 0073 0B       		.uleb128 0xb
 1956 0074 49       		.uleb128 0x49
 1957 0075 13       		.uleb128 0x13
 1958 0076 3A       		.uleb128 0x3a
 1959 0077 0B       		.uleb128 0xb
 1960 0078 3B       		.uleb128 0x3b
 1961 0079 0B       		.uleb128 0xb
 1962 007a 01       		.uleb128 0x1
 1963 007b 13       		.uleb128 0x13
ARM GAS  G:\Users\Jaxb\AppData\Local\Temp\cc9A7QMu.s 			page 42


 1964 007c 00       		.byte	0
 1965 007d 00       		.byte	0
 1966 007e 0B       		.uleb128 0xb
 1967 007f 28       		.uleb128 0x28
 1968 0080 00       		.byte	0
 1969 0081 03       		.uleb128 0x3
 1970 0082 0E       		.uleb128 0xe
 1971 0083 1C       		.uleb128 0x1c
 1972 0084 0B       		.uleb128 0xb
 1973 0085 00       		.byte	0
 1974 0086 00       		.byte	0
 1975 0087 0C       		.uleb128 0xc
 1976 0088 34       		.uleb128 0x34
 1977 0089 00       		.byte	0
 1978 008a 03       		.uleb128 0x3
 1979 008b 0E       		.uleb128 0xe
 1980 008c 3A       		.uleb128 0x3a
 1981 008d 0B       		.uleb128 0xb
 1982 008e 3B       		.uleb128 0x3b
 1983 008f 0B       		.uleb128 0xb
 1984 0090 49       		.uleb128 0x49
 1985 0091 13       		.uleb128 0x13
 1986 0092 3F       		.uleb128 0x3f
 1987 0093 0C       		.uleb128 0xc
 1988 0094 3C       		.uleb128 0x3c
 1989 0095 0C       		.uleb128 0xc
 1990 0096 00       		.byte	0
 1991 0097 00       		.byte	0
 1992 0098 0D       		.uleb128 0xd
 1993 0099 13       		.uleb128 0x13
 1994 009a 00       		.byte	0
 1995 009b 03       		.uleb128 0x3
 1996 009c 0E       		.uleb128 0xe
 1997 009d 3C       		.uleb128 0x3c
 1998 009e 0C       		.uleb128 0xc
 1999 009f 00       		.byte	0
 2000 00a0 00       		.byte	0
 2001 00a1 0E       		.uleb128 0xe
 2002 00a2 16       		.uleb128 0x16
 2003 00a3 00       		.byte	0
 2004 00a4 03       		.uleb128 0x3
 2005 00a5 08       		.uleb128 0x8
 2006 00a6 3A       		.uleb128 0x3a
 2007 00a7 0B       		.uleb128 0xb
 2008 00a8 3B       		.uleb128 0x3b
 2009 00a9 0B       		.uleb128 0xb
 2010 00aa 49       		.uleb128 0x49
 2011 00ab 13       		.uleb128 0x13
 2012 00ac 00       		.byte	0
 2013 00ad 00       		.byte	0
 2014 00ae 0F       		.uleb128 0xf
 2015 00af 01       		.uleb128 0x1
 2016 00b0 01       		.byte	0x1
 2017 00b1 49       		.uleb128 0x49
 2018 00b2 13       		.uleb128 0x13
 2019 00b3 01       		.uleb128 0x1
 2020 00b4 13       		.uleb128 0x13
ARM GAS  G:\Users\Jaxb\AppData\Local\Temp\cc9A7QMu.s 			page 43


 2021 00b5 00       		.byte	0
 2022 00b6 00       		.byte	0
 2023 00b7 10       		.uleb128 0x10
 2024 00b8 21       		.uleb128 0x21
 2025 00b9 00       		.byte	0
 2026 00ba 49       		.uleb128 0x49
 2027 00bb 13       		.uleb128 0x13
 2028 00bc 2F       		.uleb128 0x2f
 2029 00bd 0B       		.uleb128 0xb
 2030 00be 00       		.byte	0
 2031 00bf 00       		.byte	0
 2032 00c0 11       		.uleb128 0x11
 2033 00c1 34       		.uleb128 0x34
 2034 00c2 00       		.byte	0
 2035 00c3 03       		.uleb128 0x3
 2036 00c4 08       		.uleb128 0x8
 2037 00c5 3A       		.uleb128 0x3a
 2038 00c6 0B       		.uleb128 0xb
 2039 00c7 3B       		.uleb128 0x3b
 2040 00c8 0B       		.uleb128 0xb
 2041 00c9 49       		.uleb128 0x49
 2042 00ca 13       		.uleb128 0x13
 2043 00cb 02       		.uleb128 0x2
 2044 00cc 0A       		.uleb128 0xa
 2045 00cd 00       		.byte	0
 2046 00ce 00       		.byte	0
 2047 00cf 12       		.uleb128 0x12
 2048 00d0 34       		.uleb128 0x34
 2049 00d1 00       		.byte	0
 2050 00d2 03       		.uleb128 0x3
 2051 00d3 0E       		.uleb128 0xe
 2052 00d4 3A       		.uleb128 0x3a
 2053 00d5 0B       		.uleb128 0xb
 2054 00d6 3B       		.uleb128 0x3b
 2055 00d7 0B       		.uleb128 0xb
 2056 00d8 49       		.uleb128 0x49
 2057 00d9 13       		.uleb128 0x13
 2058 00da 02       		.uleb128 0x2
 2059 00db 0A       		.uleb128 0xa
 2060 00dc 00       		.byte	0
 2061 00dd 00       		.byte	0
 2062 00de 13       		.uleb128 0x13
 2063 00df 2E       		.uleb128 0x2e
 2064 00e0 01       		.byte	0x1
 2065 00e1 3F       		.uleb128 0x3f
 2066 00e2 0C       		.uleb128 0xc
 2067 00e3 03       		.uleb128 0x3
 2068 00e4 0E       		.uleb128 0xe
 2069 00e5 3A       		.uleb128 0x3a
 2070 00e6 0B       		.uleb128 0xb
 2071 00e7 3B       		.uleb128 0x3b
 2072 00e8 0B       		.uleb128 0xb
 2073 00e9 27       		.uleb128 0x27
 2074 00ea 0C       		.uleb128 0xc
 2075 00eb 11       		.uleb128 0x11
 2076 00ec 01       		.uleb128 0x1
 2077 00ed 12       		.uleb128 0x12
ARM GAS  G:\Users\Jaxb\AppData\Local\Temp\cc9A7QMu.s 			page 44


 2078 00ee 01       		.uleb128 0x1
 2079 00ef 40       		.uleb128 0x40
 2080 00f0 06       		.uleb128 0x6
 2081 00f1 9642     		.uleb128 0x2116
 2082 00f3 0C       		.uleb128 0xc
 2083 00f4 01       		.uleb128 0x1
 2084 00f5 13       		.uleb128 0x13
 2085 00f6 00       		.byte	0
 2086 00f7 00       		.byte	0
 2087 00f8 14       		.uleb128 0x14
 2088 00f9 0A       		.uleb128 0xa
 2089 00fa 00       		.byte	0
 2090 00fb 03       		.uleb128 0x3
 2091 00fc 08       		.uleb128 0x8
 2092 00fd 3A       		.uleb128 0x3a
 2093 00fe 0B       		.uleb128 0xb
 2094 00ff 3B       		.uleb128 0x3b
 2095 0100 0B       		.uleb128 0xb
 2096 0101 11       		.uleb128 0x11
 2097 0102 01       		.uleb128 0x1
 2098 0103 00       		.byte	0
 2099 0104 00       		.byte	0
 2100 0105 15       		.uleb128 0x15
 2101 0106 0B       		.uleb128 0xb
 2102 0107 01       		.byte	0x1
 2103 0108 11       		.uleb128 0x11
 2104 0109 01       		.uleb128 0x1
 2105 010a 12       		.uleb128 0x12
 2106 010b 01       		.uleb128 0x1
 2107 010c 01       		.uleb128 0x1
 2108 010d 13       		.uleb128 0x13
 2109 010e 00       		.byte	0
 2110 010f 00       		.byte	0
 2111 0110 16       		.uleb128 0x16
 2112 0111 0B       		.uleb128 0xb
 2113 0112 01       		.byte	0x1
 2114 0113 11       		.uleb128 0x11
 2115 0114 01       		.uleb128 0x1
 2116 0115 12       		.uleb128 0x12
 2117 0116 01       		.uleb128 0x1
 2118 0117 00       		.byte	0
 2119 0118 00       		.byte	0
 2120 0119 17       		.uleb128 0x17
 2121 011a 2E       		.uleb128 0x2e
 2122 011b 01       		.byte	0x1
 2123 011c 3F       		.uleb128 0x3f
 2124 011d 0C       		.uleb128 0xc
 2125 011e 03       		.uleb128 0x3
 2126 011f 0E       		.uleb128 0xe
 2127 0120 3A       		.uleb128 0x3a
 2128 0121 0B       		.uleb128 0xb
 2129 0122 3B       		.uleb128 0x3b
 2130 0123 0B       		.uleb128 0xb
 2131 0124 27       		.uleb128 0x27
 2132 0125 0C       		.uleb128 0xc
 2133 0126 49       		.uleb128 0x49
 2134 0127 13       		.uleb128 0x13
ARM GAS  G:\Users\Jaxb\AppData\Local\Temp\cc9A7QMu.s 			page 45


 2135 0128 11       		.uleb128 0x11
 2136 0129 01       		.uleb128 0x1
 2137 012a 12       		.uleb128 0x12
 2138 012b 01       		.uleb128 0x1
 2139 012c 40       		.uleb128 0x40
 2140 012d 06       		.uleb128 0x6
 2141 012e 9642     		.uleb128 0x2116
 2142 0130 0C       		.uleb128 0xc
 2143 0131 01       		.uleb128 0x1
 2144 0132 13       		.uleb128 0x13
 2145 0133 00       		.byte	0
 2146 0134 00       		.byte	0
 2147 0135 18       		.uleb128 0x18
 2148 0136 05       		.uleb128 0x5
 2149 0137 00       		.byte	0
 2150 0138 03       		.uleb128 0x3
 2151 0139 0E       		.uleb128 0xe
 2152 013a 3A       		.uleb128 0x3a
 2153 013b 0B       		.uleb128 0xb
 2154 013c 3B       		.uleb128 0x3b
 2155 013d 0B       		.uleb128 0xb
 2156 013e 49       		.uleb128 0x49
 2157 013f 13       		.uleb128 0x13
 2158 0140 02       		.uleb128 0x2
 2159 0141 0A       		.uleb128 0xa
 2160 0142 00       		.byte	0
 2161 0143 00       		.byte	0
 2162 0144 19       		.uleb128 0x19
 2163 0145 2E       		.uleb128 0x2e
 2164 0146 01       		.byte	0x1
 2165 0147 3F       		.uleb128 0x3f
 2166 0148 0C       		.uleb128 0xc
 2167 0149 03       		.uleb128 0x3
 2168 014a 0E       		.uleb128 0xe
 2169 014b 3A       		.uleb128 0x3a
 2170 014c 0B       		.uleb128 0xb
 2171 014d 3B       		.uleb128 0x3b
 2172 014e 0B       		.uleb128 0xb
 2173 014f 27       		.uleb128 0x27
 2174 0150 0C       		.uleb128 0xc
 2175 0151 11       		.uleb128 0x11
 2176 0152 01       		.uleb128 0x1
 2177 0153 12       		.uleb128 0x12
 2178 0154 01       		.uleb128 0x1
 2179 0155 40       		.uleb128 0x40
 2180 0156 06       		.uleb128 0x6
 2181 0157 9742     		.uleb128 0x2117
 2182 0159 0C       		.uleb128 0xc
 2183 015a 01       		.uleb128 0x1
 2184 015b 13       		.uleb128 0x13
 2185 015c 00       		.byte	0
 2186 015d 00       		.byte	0
 2187 015e 1A       		.uleb128 0x1a
 2188 015f 2E       		.uleb128 0x2e
 2189 0160 01       		.byte	0x1
 2190 0161 03       		.uleb128 0x3
 2191 0162 0E       		.uleb128 0xe
ARM GAS  G:\Users\Jaxb\AppData\Local\Temp\cc9A7QMu.s 			page 46


 2192 0163 3A       		.uleb128 0x3a
 2193 0164 0B       		.uleb128 0xb
 2194 0165 3B       		.uleb128 0x3b
 2195 0166 0B       		.uleb128 0xb
 2196 0167 27       		.uleb128 0x27
 2197 0168 0C       		.uleb128 0xc
 2198 0169 49       		.uleb128 0x49
 2199 016a 13       		.uleb128 0x13
 2200 016b 11       		.uleb128 0x11
 2201 016c 01       		.uleb128 0x1
 2202 016d 12       		.uleb128 0x12
 2203 016e 01       		.uleb128 0x1
 2204 016f 40       		.uleb128 0x40
 2205 0170 06       		.uleb128 0x6
 2206 0171 9742     		.uleb128 0x2117
 2207 0173 0C       		.uleb128 0xc
 2208 0174 00       		.byte	0
 2209 0175 00       		.byte	0
 2210 0176 00       		.byte	0
 2211              		.section	.debug_loc,"",%progbits
 2212              	.Ldebug_loc0:
 2213              	.LLST5:
 2214 0000 24020000 		.4byte	.LFB16-.Ltext0
 2215 0004 26020000 		.4byte	.LCFI27-.Ltext0
 2216 0008 0200     		.2byte	0x2
 2217 000a 7D       		.byte	0x7d
 2218 000b 00       		.sleb128 0
 2219 000c 26020000 		.4byte	.LCFI27-.Ltext0
 2220 0010 28020000 		.4byte	.LCFI28-.Ltext0
 2221 0014 0200     		.2byte	0x2
 2222 0016 7D       		.byte	0x7d
 2223 0017 08       		.sleb128 8
 2224 0018 28020000 		.4byte	.LCFI28-.Ltext0
 2225 001c 2A020000 		.4byte	.LCFI29-.Ltext0
 2226 0020 0200     		.2byte	0x2
 2227 0022 7D       		.byte	0x7d
 2228 0023 38       		.sleb128 56
 2229 0024 2A020000 		.4byte	.LCFI29-.Ltext0
 2230 0028 EA030000 		.4byte	.LCFI30-.Ltext0
 2231 002c 0200     		.2byte	0x2
 2232 002e 77       		.byte	0x77
 2233 002f 38       		.sleb128 56
 2234 0030 EA030000 		.4byte	.LCFI30-.Ltext0
 2235 0034 EC030000 		.4byte	.LCFI31-.Ltext0
 2236 0038 0200     		.2byte	0x2
 2237 003a 77       		.byte	0x77
 2238 003b 08       		.sleb128 8
 2239 003c EC030000 		.4byte	.LCFI31-.Ltext0
 2240 0040 20040000 		.4byte	.LFE16-.Ltext0
 2241 0044 0200     		.2byte	0x2
 2242 0046 7D       		.byte	0x7d
 2243 0047 08       		.sleb128 8
 2244 0048 00000000 		.4byte	0
 2245 004c 00000000 		.4byte	0
 2246              	.LLST4:
 2247 0050 A4010000 		.4byte	.LFB15-.Ltext0
 2248 0054 A6010000 		.4byte	.LCFI22-.Ltext0
ARM GAS  G:\Users\Jaxb\AppData\Local\Temp\cc9A7QMu.s 			page 47


 2249 0058 0200     		.2byte	0x2
 2250 005a 7D       		.byte	0x7d
 2251 005b 00       		.sleb128 0
 2252 005c A6010000 		.4byte	.LCFI22-.Ltext0
 2253 0060 A8010000 		.4byte	.LCFI23-.Ltext0
 2254 0064 0200     		.2byte	0x2
 2255 0066 7D       		.byte	0x7d
 2256 0067 08       		.sleb128 8
 2257 0068 A8010000 		.4byte	.LCFI23-.Ltext0
 2258 006c AA010000 		.4byte	.LCFI24-.Ltext0
 2259 0070 0200     		.2byte	0x2
 2260 0072 7D       		.byte	0x7d
 2261 0073 20       		.sleb128 32
 2262 0074 AA010000 		.4byte	.LCFI24-.Ltext0
 2263 0078 0E020000 		.4byte	.LCFI25-.Ltext0
 2264 007c 0200     		.2byte	0x2
 2265 007e 77       		.byte	0x77
 2266 007f 20       		.sleb128 32
 2267 0080 0E020000 		.4byte	.LCFI25-.Ltext0
 2268 0084 10020000 		.4byte	.LCFI26-.Ltext0
 2269 0088 0200     		.2byte	0x2
 2270 008a 77       		.byte	0x77
 2271 008b 08       		.sleb128 8
 2272 008c 10020000 		.4byte	.LCFI26-.Ltext0
 2273 0090 24020000 		.4byte	.LFE15-.Ltext0
 2274 0094 0200     		.2byte	0x2
 2275 0096 7D       		.byte	0x7d
 2276 0097 08       		.sleb128 8
 2277 0098 00000000 		.4byte	0
 2278 009c 00000000 		.4byte	0
 2279              	.LLST3:
 2280 00a0 E8000000 		.4byte	.LFB14-.Ltext0
 2281 00a4 EA000000 		.4byte	.LCFI17-.Ltext0
 2282 00a8 0200     		.2byte	0x2
 2283 00aa 7D       		.byte	0x7d
 2284 00ab 00       		.sleb128 0
 2285 00ac EA000000 		.4byte	.LCFI17-.Ltext0
 2286 00b0 EC000000 		.4byte	.LCFI18-.Ltext0
 2287 00b4 0200     		.2byte	0x2
 2288 00b6 7D       		.byte	0x7d
 2289 00b7 08       		.sleb128 8
 2290 00b8 EC000000 		.4byte	.LCFI18-.Ltext0
 2291 00bc EE000000 		.4byte	.LCFI19-.Ltext0
 2292 00c0 0200     		.2byte	0x2
 2293 00c2 7D       		.byte	0x7d
 2294 00c3 10       		.sleb128 16
 2295 00c4 EE000000 		.4byte	.LCFI19-.Ltext0
 2296 00c8 8A010000 		.4byte	.LCFI20-.Ltext0
 2297 00cc 0200     		.2byte	0x2
 2298 00ce 77       		.byte	0x77
 2299 00cf 10       		.sleb128 16
 2300 00d0 8A010000 		.4byte	.LCFI20-.Ltext0
 2301 00d4 8C010000 		.4byte	.LCFI21-.Ltext0
 2302 00d8 0200     		.2byte	0x2
 2303 00da 77       		.byte	0x77
 2304 00db 08       		.sleb128 8
 2305 00dc 8C010000 		.4byte	.LCFI21-.Ltext0
ARM GAS  G:\Users\Jaxb\AppData\Local\Temp\cc9A7QMu.s 			page 48


 2306 00e0 A4010000 		.4byte	.LFE14-.Ltext0
 2307 00e4 0200     		.2byte	0x2
 2308 00e6 7D       		.byte	0x7d
 2309 00e7 08       		.sleb128 8
 2310 00e8 00000000 		.4byte	0
 2311 00ec 00000000 		.4byte	0
 2312              	.LLST2:
 2313 00f0 5C000000 		.4byte	.LFB13-.Ltext0
 2314 00f4 5E000000 		.4byte	.LCFI12-.Ltext0
 2315 00f8 0200     		.2byte	0x2
 2316 00fa 7D       		.byte	0x7d
 2317 00fb 00       		.sleb128 0
 2318 00fc 5E000000 		.4byte	.LCFI12-.Ltext0
 2319 0100 60000000 		.4byte	.LCFI13-.Ltext0
 2320 0104 0200     		.2byte	0x2
 2321 0106 7D       		.byte	0x7d
 2322 0107 08       		.sleb128 8
 2323 0108 60000000 		.4byte	.LCFI13-.Ltext0
 2324 010c 62000000 		.4byte	.LCFI14-.Ltext0
 2325 0110 0200     		.2byte	0x2
 2326 0112 7D       		.byte	0x7d
 2327 0113 10       		.sleb128 16
 2328 0114 62000000 		.4byte	.LCFI14-.Ltext0
 2329 0118 CE000000 		.4byte	.LCFI15-.Ltext0
 2330 011c 0200     		.2byte	0x2
 2331 011e 77       		.byte	0x77
 2332 011f 10       		.sleb128 16
 2333 0120 CE000000 		.4byte	.LCFI15-.Ltext0
 2334 0124 D0000000 		.4byte	.LCFI16-.Ltext0
 2335 0128 0200     		.2byte	0x2
 2336 012a 77       		.byte	0x77
 2337 012b 08       		.sleb128 8
 2338 012c D0000000 		.4byte	.LCFI16-.Ltext0
 2339 0130 E8000000 		.4byte	.LFE13-.Ltext0
 2340 0134 0200     		.2byte	0x2
 2341 0136 7D       		.byte	0x7d
 2342 0137 08       		.sleb128 8
 2343 0138 00000000 		.4byte	0
 2344 013c 00000000 		.4byte	0
 2345              	.LLST1:
 2346 0140 22000000 		.4byte	.LFB12-.Ltext0
 2347 0144 24000000 		.4byte	.LCFI6-.Ltext0
 2348 0148 0200     		.2byte	0x2
 2349 014a 7D       		.byte	0x7d
 2350 014b 00       		.sleb128 0
 2351 014c 24000000 		.4byte	.LCFI6-.Ltext0
 2352 0150 26000000 		.4byte	.LCFI7-.Ltext0
 2353 0154 0200     		.2byte	0x2
 2354 0156 7D       		.byte	0x7d
 2355 0157 04       		.sleb128 4
 2356 0158 26000000 		.4byte	.LCFI7-.Ltext0
 2357 015c 28000000 		.4byte	.LCFI8-.Ltext0
 2358 0160 0200     		.2byte	0x2
 2359 0162 7D       		.byte	0x7d
 2360 0163 10       		.sleb128 16
 2361 0164 28000000 		.4byte	.LCFI8-.Ltext0
 2362 0168 4E000000 		.4byte	.LCFI9-.Ltext0
ARM GAS  G:\Users\Jaxb\AppData\Local\Temp\cc9A7QMu.s 			page 49


 2363 016c 0200     		.2byte	0x2
 2364 016e 77       		.byte	0x77
 2365 016f 10       		.sleb128 16
 2366 0170 4E000000 		.4byte	.LCFI9-.Ltext0
 2367 0174 50000000 		.4byte	.LCFI10-.Ltext0
 2368 0178 0200     		.2byte	0x2
 2369 017a 77       		.byte	0x77
 2370 017b 04       		.sleb128 4
 2371 017c 50000000 		.4byte	.LCFI10-.Ltext0
 2372 0180 52000000 		.4byte	.LCFI11-.Ltext0
 2373 0184 0200     		.2byte	0x2
 2374 0186 7D       		.byte	0x7d
 2375 0187 04       		.sleb128 4
 2376 0188 52000000 		.4byte	.LCFI11-.Ltext0
 2377 018c 5C000000 		.4byte	.LFE12-.Ltext0
 2378 0190 0200     		.2byte	0x2
 2379 0192 7D       		.byte	0x7d
 2380 0193 00       		.sleb128 0
 2381 0194 00000000 		.4byte	0
 2382 0198 00000000 		.4byte	0
 2383              	.LLST0:
 2384 019c 00000000 		.4byte	.LFB9-.Ltext0
 2385 01a0 02000000 		.4byte	.LCFI0-.Ltext0
 2386 01a4 0200     		.2byte	0x2
 2387 01a6 7D       		.byte	0x7d
 2388 01a7 00       		.sleb128 0
 2389 01a8 02000000 		.4byte	.LCFI0-.Ltext0
 2390 01ac 04000000 		.4byte	.LCFI1-.Ltext0
 2391 01b0 0200     		.2byte	0x2
 2392 01b2 7D       		.byte	0x7d
 2393 01b3 04       		.sleb128 4
 2394 01b4 04000000 		.4byte	.LCFI1-.Ltext0
 2395 01b8 06000000 		.4byte	.LCFI2-.Ltext0
 2396 01bc 0200     		.2byte	0x2
 2397 01be 7D       		.byte	0x7d
 2398 01bf 10       		.sleb128 16
 2399 01c0 06000000 		.4byte	.LCFI2-.Ltext0
 2400 01c4 1C000000 		.4byte	.LCFI3-.Ltext0
 2401 01c8 0200     		.2byte	0x2
 2402 01ca 77       		.byte	0x77
 2403 01cb 10       		.sleb128 16
 2404 01cc 1C000000 		.4byte	.LCFI3-.Ltext0
 2405 01d0 1E000000 		.4byte	.LCFI4-.Ltext0
 2406 01d4 0200     		.2byte	0x2
 2407 01d6 77       		.byte	0x77
 2408 01d7 04       		.sleb128 4
 2409 01d8 1E000000 		.4byte	.LCFI4-.Ltext0
 2410 01dc 20000000 		.4byte	.LCFI5-.Ltext0
 2411 01e0 0200     		.2byte	0x2
 2412 01e2 7D       		.byte	0x7d
 2413 01e3 04       		.sleb128 4
 2414 01e4 20000000 		.4byte	.LCFI5-.Ltext0
 2415 01e8 22000000 		.4byte	.LFE9-.Ltext0
 2416 01ec 0200     		.2byte	0x2
 2417 01ee 7D       		.byte	0x7d
 2418 01ef 00       		.sleb128 0
 2419 01f0 00000000 		.4byte	0
ARM GAS  G:\Users\Jaxb\AppData\Local\Temp\cc9A7QMu.s 			page 50


 2420 01f4 00000000 		.4byte	0
 2421              		.section	.debug_aranges,"",%progbits
 2422 0000 1C000000 		.4byte	0x1c
 2423 0004 0200     		.2byte	0x2
 2424 0006 00000000 		.4byte	.Ldebug_info0
 2425 000a 04       		.byte	0x4
 2426 000b 00       		.byte	0
 2427 000c 0000     		.2byte	0
 2428 000e 0000     		.2byte	0
 2429 0010 00000000 		.4byte	.Ltext0
 2430 0014 20040000 		.4byte	.Letext0-.Ltext0
 2431 0018 00000000 		.4byte	0
 2432 001c 00000000 		.4byte	0
 2433              		.section	.debug_line,"",%progbits
 2434              	.Ldebug_line0:
 2435 0000 16020000 		.section	.debug_str,"MS",%progbits,1
 2435      02001901 
 2435      00000201 
 2435      FB0E0D00 
 2435      01010101 
 2436              	.LASF33:
 2437 0000 7072696F 		.ascii	"prio\000"
 2437      00
 2438              	.LASF10:
 2439 0005 73697A65 		.ascii	"size_t\000"
 2439      5F7400
 2440              	.LASF11:
 2441 000c 6E657874 		.ascii	"next\000"
 2441      00
 2442              	.LASF59:
 2443 0011 7368656C 		.ascii	"shell_check_os_ready\000"
 2443      6C5F6368 
 2443      65636B5F 
 2443      6F735F72 
 2443      65616479 
 2444              	.LASF14:
 2445 0026 53544154 		.ascii	"STATE_DELAY\000"
 2445      455F4445 
 2445      4C415900 
 2446              	.LASF25:
 2447 0032 5441534B 		.ascii	"TASK_PRIO_TYPE\000"
 2447      5F505249 
 2447      4F5F5459 
 2447      504500
 2448              	.LASF21:
 2449 0041 53544154 		.ascii	"STATE_PUT_MESSAGE_QUEUE_TIMEOUT\000"
 2449      455F5055 
 2449      545F4D45 
 2449      53534147 
 2449      455F5155 
 2450              	.LASF34:
 2451 0061 64656C61 		.ascii	"delay_heap_position\000"
 2451      795F6865 
 2451      61705F70 
 2451      6F736974 
 2451      696F6E00 
 2452              	.LASF57:
ARM GAS  G:\Users\Jaxb\AppData\Local\Temp\cc9A7QMu.s 			page 51


 2453 0075 64656C65 		.ascii	"delete_TCB_from_ready\000"
 2453      74655F54 
 2453      43425F66 
 2453      726F6D5F 
 2453      72656164 
 2454              	.LASF38:
 2455 008b 74696D65 		.ascii	"timeslice_hope_time\000"
 2455      736C6963 
 2455      655F686F 
 2455      70655F74 
 2455      696D6500 
 2456              	.LASF52:
 2457 009f 72656164 		.ascii	"ready_table\000"
 2457      795F7461 
 2457      626C6500 
 2458              	.LASF28:
 2459 00ab 73746163 		.ascii	"stack\000"
 2459      6B00
 2460              	.LASF53:
 2461 00b1 5443425F 		.ascii	"TCB_ptr\000"
 2461      70747200 
 2462              	.LASF39:
 2463 00b9 74696D65 		.ascii	"timeslice_rest_time\000"
 2463      736C6963 
 2463      655F7265 
 2463      73745F74 
 2463      696D6500 
 2464              	.LASF41:
 2465 00cd 64796E61 		.ascii	"dynamic_module_ptr\000"
 2465      6D69635F 
 2465      6D6F6475 
 2465      6C655F70 
 2465      747200
 2466              	.LASF18:
 2467 00e0 53544154 		.ascii	"STATE_WAIT_MESSAGE_QUEUE_FOREVER\000"
 2467      455F5741 
 2467      49545F4D 
 2467      45535341 
 2467      47455F51 
 2468              	.LASF13:
 2469 0101 53544154 		.ascii	"STATE_READY\000"
 2469      455F5245 
 2469      41445900 
 2470              	.LASF31:
 2471 010d 72657365 		.ascii	"reserve_prio\000"
 2471      7276655F 
 2471      7072696F 
 2471      00
 2472              	.LASF51:
 2473 011a 72656164 		.ascii	"ready_group\000"
 2473      795F6772 
 2473      6F757000 
 2474              	.LASF3:
 2475 0126 756E7369 		.ascii	"unsigned char\000"
 2475      676E6564 
 2475      20636861 
 2475      7200
ARM GAS  G:\Users\Jaxb\AppData\Local\Temp\cc9A7QMu.s 			page 52


 2476              	.LASF8:
 2477 0134 55494E54 		.ascii	"UINT64\000"
 2477      363400
 2478              	.LASF55:
 2479 013b 5F5F6D70 		.ascii	"__mptr\000"
 2479      747200
 2480              	.LASF4:
 2481 0142 73686F72 		.ascii	"short unsigned int\000"
 2481      7420756E 
 2481      7369676E 
 2481      65642069 
 2481      6E7400
 2482              	.LASF19:
 2483 0155 53544154 		.ascii	"STATE_WAIT_MESSAGE_QUEUE_TIMEOUT\000"
 2483      455F5741 
 2483      49545F4D 
 2483      45535341 
 2483      47455F51 
 2484              	.LASF32:
 2485 0176 7461736B 		.ascii	"task_state\000"
 2485      5F737461 
 2485      746500
 2486              	.LASF46:
 2487 0181 72656164 		.ascii	"ready_num\000"
 2487      795F6E75 
 2487      6D00
 2488              	.LASF30:
 2489 018b 73746163 		.ascii	"stack_end\000"
 2489      6B5F656E 
 2489      6400
 2490              	.LASF60:
 2491 0195 5F5F696E 		.ascii	"__init_ready_group\000"
 2491      69745F72 
 2491      65616479 
 2491      5F67726F 
 2491      757000
 2492              	.LASF16:
 2493 01a8 53544154 		.ascii	"STATE_WAIT_MCB_FOREVER\000"
 2493      455F5741 
 2493      49545F4D 
 2493      43425F46 
 2493      4F524556 
 2494              	.LASF40:
 2495 01bf 61747472 		.ascii	"attribution\000"
 2495      69627574 
 2495      696F6E00 
 2496              	.LASF54:
 2497 01cb 72656164 		.ascii	"ready_TCB_num\000"
 2497      795F5443 
 2497      425F6E75 
 2497      6D00
 2498              	.LASF36:
 2499 01d9 73757370 		.ascii	"suspend_list\000"
 2499      656E645F 
 2499      6C697374 
 2499      00
 2500              	.LASF50:
ARM GAS  G:\Users\Jaxb\AppData\Local\Temp\cc9A7QMu.s 			page 53


 2501 01e6 756E6D61 		.ascii	"unmap\000"
 2501      7000
 2502              	.LASF45:
 2503 01ec 68656164 		.ascii	"head\000"
 2503      00
 2504              	.LASF23:
 2505 01f1 5441534B 		.ascii	"TASK_STATE\000"
 2505      5F535441 
 2505      544500
 2506              	.LASF7:
 2507 01fc 756E7369 		.ascii	"unsigned int\000"
 2507      676E6564 
 2507      20696E74 
 2507      00
 2508              	.LASF27:
 2509 0209 7461736B 		.ascii	"task_control_block_struct\000"
 2509      5F636F6E 
 2509      74726F6C 
 2509      5F626C6F 
 2509      636B5F73 
 2510              	.LASF9:
 2511 0223 6C6F6E67 		.ascii	"long long unsigned int\000"
 2511      206C6F6E 
 2511      6720756E 
 2511      7369676E 
 2511      65642069 
 2512              	.LASF35:
 2513 023a 73616D65 		.ascii	"same_prio_list\000"
 2513      5F707269 
 2513      6F5F6C69 
 2513      737400
 2514              	.LASF64:
 2515 0249 5461736B 		.ascii	"Task_State\000"
 2515      5F537461 
 2515      746500
 2516              	.LASF44:
 2517 0254 5443425F 		.ascii	"TCB_list\000"
 2517      6C697374 
 2517      00
 2518              	.LASF22:
 2519 025d 53544154 		.ascii	"STATE_WAIT_MUTEX_FOREVER\000"
 2519      455F5741 
 2519      49545F4D 
 2519      55544558 
 2519      5F464F52 
 2520              	.LASF24:
 2521 0276 53544143 		.ascii	"STACK_TYPE\000"
 2521      4B5F5459 
 2521      504500
 2522              	.LASF58:
 2523 0281 696E7365 		.ascii	"insert_ready_TCB\000"
 2523      72745F72 
 2523      65616479 
 2523      5F544342 
 2523      00
 2524              	.LASF26:
 2525 0292 6C697374 		.ascii	"list_head\000"
ARM GAS  G:\Users\Jaxb\AppData\Local\Temp\cc9A7QMu.s 			page 54


 2525      5F686561 
 2525      6400
 2526              	.LASF56:
 2527 029c 6765745F 		.ascii	"get_highest_prio_ready_TCB\000"
 2527      68696768 
 2527      6573745F 
 2527      7072696F 
 2527      5F726561 
 2528              	.LASF2:
 2529 02b7 6C6F6E67 		.ascii	"long long int\000"
 2529      206C6F6E 
 2529      6720696E 
 2529      7400
 2530              	.LASF29:
 2531 02c5 73746163 		.ascii	"stack_size\000"
 2531      6B5F7369 
 2531      7A6500
 2532              	.LASF62:
 2533 02d0 2E2E2F2E 		.ascii	"../../source/src/kernel/OS_CORE/schedule/os_ready.c"
 2533      2E2F736F 
 2533      75726365 
 2533      2F737263 
 2533      2F6B6572 
 2534 0303 00       		.ascii	"\000"
 2535              	.LASF37:
 2536 0304 6E616D65 		.ascii	"name\000"
 2536      00
 2537              	.LASF5:
 2538 0309 494E5438 		.ascii	"INT8\000"
 2538      00
 2539              	.LASF6:
 2540 030e 55494E54 		.ascii	"UINT32\000"
 2540      333200
 2541              	.LASF66:
 2542 0315 64796E61 		.ascii	"dynamic_module\000"
 2542      6D69635F 
 2542      6D6F6475 
 2542      6C6500
 2543              	.LASF1:
 2544 0324 73686F72 		.ascii	"short int\000"
 2544      7420696E 
 2544      7400
 2545              	.LASF47:
 2546 032e 5443425F 		.ascii	"TCB_num\000"
 2546      6E756D00 
 2547              	.LASF48:
 2548 0336 52454144 		.ascii	"READY_GROUP_TYPE\000"
 2548      595F4752 
 2548      4F55505F 
 2548      54595045 
 2548      00
 2549              	.LASF49:
 2550 0347 52454144 		.ascii	"READY_TABLE_TYPE\000"
 2550      595F5441 
 2550      424C455F 
 2550      54595045 
 2550      00
ARM GAS  G:\Users\Jaxb\AppData\Local\Temp\cc9A7QMu.s 			page 55


 2551              	.LASF61:
 2552 0358 474E5520 		.ascii	"GNU C11 7.3.1 20180622 (release) [ARM/embedded-7-br"
 2552      43313120 
 2552      372E332E 
 2552      31203230 
 2552      31383036 
 2553 038b 616E6368 		.ascii	"anch revision 261907] -mcpu=cortex-m3 -mthumb -mapc"
 2553      20726576 
 2553      6973696F 
 2553      6E203236 
 2553      31393037 
 2554 03be 732D6672 		.ascii	"s-frame -mthumb-interwork -mcpu=cortex-m3 -mthumb -"
 2554      616D6520 
 2554      2D6D7468 
 2554      756D622D 
 2554      696E7465 
 2555 03f1 67647761 		.ascii	"gdwarf-2 -O0\000"
 2555      72662D32 
 2555      202D4F30 
 2555      00
 2556              	.LASF43:
 2557 03fe 63686172 		.ascii	"char\000"
 2557      00
 2558              	.LASF17:
 2559 0403 53544154 		.ascii	"STATE_WAIT_MCB_TIMEOUT\000"
 2559      455F5741 
 2559      49545F4D 
 2559      43425F54 
 2559      494D454F 
 2560              	.LASF0:
 2561 041a 7369676E 		.ascii	"signed char\000"
 2561      65642063 
 2561      68617200 
 2562              	.LASF20:
 2563 0426 53544154 		.ascii	"STATE_PUT_MESSAGE_QUEUE_FOREVER\000"
 2563      455F5055 
 2563      545F4D45 
 2563      53534147 
 2563      455F5155 
 2564              	.LASF15:
 2565 0446 53544154 		.ascii	"STATE_SUSPEND_NORMAL\000"
 2565      455F5355 
 2565      5350454E 
 2565      445F4E4F 
 2565      524D414C 
 2566              	.LASF65:
 2567 045b 675F696E 		.ascii	"g_interrupt_count\000"
 2567      74657272 
 2567      7570745F 
 2567      636F756E 
 2567      7400
 2568              	.LASF42:
 2569 046d 64656C61 		.ascii	"delay_reach_time\000"
 2569      795F7265 
 2569      6163685F 
 2569      74696D65 
 2569      00
ARM GAS  G:\Users\Jaxb\AppData\Local\Temp\cc9A7QMu.s 			page 56


 2570              	.LASF12:
 2571 047e 70726576 		.ascii	"prev\000"
 2571      00
 2572              	.LASF63:
 2573 0483 463A5C6B 		.ascii	"F:\\kaka\\KAKAOS\\C\\windows\\Project\\RVMDK\243\250"
 2573      616B615C 
 2573      4B414B41 
 2573      4F535C43 
 2573      5C77696E 
 2574 04ab 757635A3 		.ascii	"uv5\243\251\000"
 2574      A900
 2575              	.LASF67:
 2576 04b1 6C697374 		.ascii	"list_empty\000"
 2576      5F656D70 
 2576      747900
 2577              		.ident	"GCC: (GNU Tools for Arm Embedded Processors 7-2018-q2-update) 7.3.1 20180622 (release) [AR
ARM GAS  G:\Users\Jaxb\AppData\Local\Temp\cc9A7QMu.s 			page 57


DEFINED SYMBOLS
                            *ABS*:00000000 os_ready.c
G:\Users\Jaxb\AppData\Local\Temp\cc9A7QMu.s:15     .text:00000000 $t
G:\Users\Jaxb\AppData\Local\Temp\cc9A7QMu.s:21     .text:00000000 list_empty
G:\Users\Jaxb\AppData\Local\Temp\cc9A7QMu.s:67     .rodata:00000000 $d
G:\Users\Jaxb\AppData\Local\Temp\cc9A7QMu.s:70     .rodata:00000000 map
G:\Users\Jaxb\AppData\Local\Temp\cc9A7QMu.s:82     .rodata:00000008 unmap
G:\Users\Jaxb\AppData\Local\Temp\cc9A7QMu.s:340    .bss:00000000 ready_group
G:\Users\Jaxb\AppData\Local\Temp\cc9A7QMu.s:341    .bss:00000000 $d
G:\Users\Jaxb\AppData\Local\Temp\cc9A7QMu.s:344    .bss:00000004 ready_table
G:\Users\Jaxb\AppData\Local\Temp\cc9A7QMu.s:355    .text:00000022 __init_ready_group
G:\Users\Jaxb\AppData\Local\Temp\cc9A7QMu.s:414    .text:00000054 $d
G:\Users\Jaxb\AppData\Local\Temp\cc9A7QMu.s:429    .text:0000005c $t
G:\Users\Jaxb\AppData\Local\Temp\cc9A7QMu.s:436    .text:0000005c insert_ready_TCB
G:\Users\Jaxb\AppData\Local\Temp\cc9A7QMu.s:526    .text:000000d4 $d
G:\Users\Jaxb\AppData\Local\Temp\cc9A7QMu.s:540    .text:000000e8 $t
G:\Users\Jaxb\AppData\Local\Temp\cc9A7QMu.s:547    .text:000000e8 delete_TCB_from_ready
G:\Users\Jaxb\AppData\Local\Temp\cc9A7QMu.s:664    .text:00000190 $d
G:\Users\Jaxb\AppData\Local\Temp\cc9A7QMu.s:672    .text:000001a4 $t
G:\Users\Jaxb\AppData\Local\Temp\cc9A7QMu.s:679    .text:000001a4 get_highest_prio_ready_TCB
G:\Users\Jaxb\AppData\Local\Temp\cc9A7QMu.s:771    .text:00000214 $d
G:\Users\Jaxb\AppData\Local\Temp\cc9A7QMu.s:813    .text:00000224 $t
G:\Users\Jaxb\AppData\Local\Temp\cc9A7QMu.s:820    .text:00000224 shell_check_os_ready
G:\Users\Jaxb\AppData\Local\Temp\cc9A7QMu.s:1134   .text:000003f0 $d

UNDEFINED SYMBOLS
_ASSERT
ka_printf
increase_ready_num
decrease_ready_num
get_ready_num_from_TCB_list
get_from_TCB_list
