ARM GAS  G:\Users\Jaxb\AppData\Local\Temp\ccDpynBW.s 			page 1


   1              		.cpu cortex-m3
   2              		.eabi_attribute 20, 1
   3              		.eabi_attribute 21, 1
   4              		.eabi_attribute 23, 3
   5              		.eabi_attribute 24, 1
   6              		.eabi_attribute 25, 1
   7              		.eabi_attribute 26, 1
   8              		.eabi_attribute 30, 6
   9              		.eabi_attribute 34, 1
  10              		.eabi_attribute 18, 4
  11              		.file	"os_ready.c"
  12              		.text
  13              	.Ltext0:
  14              		.cfi_sections	.debug_frame
  15              		.align	1
  16              		.syntax unified
  17              		.thumb
  18              		.thumb_func
  19              		.fpu softvfp
  20              		.type	list_empty, %function
  21              	list_empty:
  22              	.LFB9:
  23              		.file 1 "../../source/include/os_lib/double_linked_list.h"
   1:../../source/include/os_lib/double_linked_list.h **** #ifndef _DOUBLE_LINKED_LIST_H
   2:../../source/include/os_lib/double_linked_list.h **** #define _DOUBLE_LINKED_LIST_H
   3:../../source/include/os_lib/double_linked_list.h **** 
   4:../../source/include/os_lib/double_linked_list.h **** struct list_head {
   5:../../source/include/os_lib/double_linked_list.h ****     struct list_head *next, *prev;
   6:../../source/include/os_lib/double_linked_list.h **** };
   7:../../source/include/os_lib/double_linked_list.h **** 
   8:../../source/include/os_lib/double_linked_list.h **** 
   9:../../source/include/os_lib/double_linked_list.h **** #define LIST_HEAD_INIT(name) { &(name), &(name) }
  10:../../source/include/os_lib/double_linked_list.h **** 
  11:../../source/include/os_lib/double_linked_list.h **** 
  12:../../source/include/os_lib/double_linked_list.h **** #define LIST_HEAD(name) \
  13:../../source/include/os_lib/double_linked_list.h ****     struct list_head name = LIST_HEAD_INIT(name)
  14:../../source/include/os_lib/double_linked_list.h **** 
  15:../../source/include/os_lib/double_linked_list.h **** 
  16:../../source/include/os_lib/double_linked_list.h **** static inline void INIT_LIST_HEAD(struct list_head *list)
  17:../../source/include/os_lib/double_linked_list.h **** {
  18:../../source/include/os_lib/double_linked_list.h ****     list->next = list;
  19:../../source/include/os_lib/double_linked_list.h ****     list->prev = list;
  20:../../source/include/os_lib/double_linked_list.h **** }
  21:../../source/include/os_lib/double_linked_list.h **** 
  22:../../source/include/os_lib/double_linked_list.h **** 
  23:../../source/include/os_lib/double_linked_list.h **** static inline void __list_add(struct list_head *new,
  24:../../source/include/os_lib/double_linked_list.h ****                   struct list_head *prev,
  25:../../source/include/os_lib/double_linked_list.h ****                   struct list_head *next)
  26:../../source/include/os_lib/double_linked_list.h **** {
  27:../../source/include/os_lib/double_linked_list.h ****     next->prev = new;
  28:../../source/include/os_lib/double_linked_list.h ****     new->next = next;
  29:../../source/include/os_lib/double_linked_list.h ****     new->prev = prev;
  30:../../source/include/os_lib/double_linked_list.h ****     prev->next = new;
  31:../../source/include/os_lib/double_linked_list.h **** }
  32:../../source/include/os_lib/double_linked_list.h **** 
  33:../../source/include/os_lib/double_linked_list.h **** 
  34:../../source/include/os_lib/double_linked_list.h **** static inline void list_add(struct list_head *new, struct list_head *head)
ARM GAS  G:\Users\Jaxb\AppData\Local\Temp\ccDpynBW.s 			page 2


  35:../../source/include/os_lib/double_linked_list.h **** {
  36:../../source/include/os_lib/double_linked_list.h ****     __list_add(new, head, head->next);
  37:../../source/include/os_lib/double_linked_list.h **** }
  38:../../source/include/os_lib/double_linked_list.h **** 
  39:../../source/include/os_lib/double_linked_list.h **** 
  40:../../source/include/os_lib/double_linked_list.h **** static inline void list_add_tail(struct list_head *new, struct list_head *head)
  41:../../source/include/os_lib/double_linked_list.h **** {
  42:../../source/include/os_lib/double_linked_list.h ****     __list_add(new, head->prev, head);
  43:../../source/include/os_lib/double_linked_list.h **** }
  44:../../source/include/os_lib/double_linked_list.h **** 
  45:../../source/include/os_lib/double_linked_list.h **** 
  46:../../source/include/os_lib/double_linked_list.h **** static inline void __list_del(struct list_head * prev, struct list_head * next)
  47:../../source/include/os_lib/double_linked_list.h **** {
  48:../../source/include/os_lib/double_linked_list.h ****     next->prev = prev;
  49:../../source/include/os_lib/double_linked_list.h ****     prev->next = next;
  50:../../source/include/os_lib/double_linked_list.h **** }
  51:../../source/include/os_lib/double_linked_list.h **** 
  52:../../source/include/os_lib/double_linked_list.h **** 
  53:../../source/include/os_lib/double_linked_list.h **** static inline void list_del(struct list_head *entry)
  54:../../source/include/os_lib/double_linked_list.h **** {
  55:../../source/include/os_lib/double_linked_list.h ****     __list_del(entry->prev, entry->next);
  56:../../source/include/os_lib/double_linked_list.h **** }
  57:../../source/include/os_lib/double_linked_list.h **** 
  58:../../source/include/os_lib/double_linked_list.h **** 
  59:../../source/include/os_lib/double_linked_list.h **** static inline void __list_del_entry(struct list_head *entry)
  60:../../source/include/os_lib/double_linked_list.h **** {
  61:../../source/include/os_lib/double_linked_list.h ****     __list_del(entry->prev, entry->next);
  62:../../source/include/os_lib/double_linked_list.h **** }
  63:../../source/include/os_lib/double_linked_list.h **** 
  64:../../source/include/os_lib/double_linked_list.h **** 
  65:../../source/include/os_lib/double_linked_list.h **** static inline void list_del_init(struct list_head *entry)
  66:../../source/include/os_lib/double_linked_list.h **** {
  67:../../source/include/os_lib/double_linked_list.h ****     __list_del_entry(entry);
  68:../../source/include/os_lib/double_linked_list.h ****     INIT_LIST_HEAD(entry);
  69:../../source/include/os_lib/double_linked_list.h **** }
  70:../../source/include/os_lib/double_linked_list.h **** 
  71:../../source/include/os_lib/double_linked_list.h **** 
  72:../../source/include/os_lib/double_linked_list.h **** static inline void list_replace(struct list_head *old,
  73:../../source/include/os_lib/double_linked_list.h ****                 struct list_head *new)
  74:../../source/include/os_lib/double_linked_list.h **** {
  75:../../source/include/os_lib/double_linked_list.h ****     new->next = old->next;
  76:../../source/include/os_lib/double_linked_list.h ****     new->next->prev = new;
  77:../../source/include/os_lib/double_linked_list.h ****     new->prev = old->prev;
  78:../../source/include/os_lib/double_linked_list.h ****     new->prev->next = new;
  79:../../source/include/os_lib/double_linked_list.h **** }
  80:../../source/include/os_lib/double_linked_list.h **** 
  81:../../source/include/os_lib/double_linked_list.h **** 
  82:../../source/include/os_lib/double_linked_list.h **** static inline int list_empty(const struct list_head *head)
  83:../../source/include/os_lib/double_linked_list.h **** {
  24              		.loc 1 83 0
  25              		.cfi_startproc
  26              		@ args = 0, pretend = 0, frame = 8
  27              		@ frame_needed = 1, uses_anonymous_args = 0
  28              		@ link register save eliminated.
  29 0000 80B4     		push	{r7}
  30              	.LCFI0:
  31              		.cfi_def_cfa_offset 4
ARM GAS  G:\Users\Jaxb\AppData\Local\Temp\ccDpynBW.s 			page 3


  32              		.cfi_offset 7, -4
  33 0002 83B0     		sub	sp, sp, #12
  34              	.LCFI1:
  35              		.cfi_def_cfa_offset 16
  36 0004 00AF     		add	r7, sp, #0
  37              	.LCFI2:
  38              		.cfi_def_cfa_register 7
  39 0006 7860     		str	r0, [r7, #4]
  84:../../source/include/os_lib/double_linked_list.h ****     return head->next == head;
  40              		.loc 1 84 0
  41 0008 7B68     		ldr	r3, [r7, #4]
  42 000a 1B68     		ldr	r3, [r3]
  43 000c 7A68     		ldr	r2, [r7, #4]
  44 000e 9A42     		cmp	r2, r3
  45 0010 0CBF     		ite	eq
  46 0012 0123     		moveq	r3, #1
  47 0014 0023     		movne	r3, #0
  48 0016 DBB2     		uxtb	r3, r3
  85:../../source/include/os_lib/double_linked_list.h **** }
  49              		.loc 1 85 0
  50 0018 1846     		mov	r0, r3
  51 001a 0C37     		adds	r7, r7, #12
  52              	.LCFI3:
  53              		.cfi_def_cfa_offset 4
  54 001c BD46     		mov	sp, r7
  55              	.LCFI4:
  56              		.cfi_def_cfa_register 13
  57              		@ sp needed
  58 001e 80BC     		pop	{r7}
  59              	.LCFI5:
  60              		.cfi_restore 7
  61              		.cfi_def_cfa_offset 0
  62 0020 7047     		bx	lr
  63              		.cfi_endproc
  64              	.LFE9:
  65              		.size	list_empty, .-list_empty
  66              		.section	.rodata
  67              		.align	2
  68              		.type	map, %object
  69              		.size	map, 8
  70              	map:
  71 0000 01       		.byte	1
  72 0001 02       		.byte	2
  73 0002 04       		.byte	4
  74 0003 08       		.byte	8
  75 0004 10       		.byte	16
  76 0005 20       		.byte	32
  77 0006 40       		.byte	64
  78 0007 80       		.byte	-128
  79              		.align	2
  80              		.type	unmap, %object
  81              		.size	unmap, 256
  82              	unmap:
  83 0008 00       		.byte	0
  84 0009 00       		.byte	0
  85 000a 01       		.byte	1
  86 000b 00       		.byte	0
ARM GAS  G:\Users\Jaxb\AppData\Local\Temp\ccDpynBW.s 			page 4


  87 000c 02       		.byte	2
  88 000d 00       		.byte	0
  89 000e 01       		.byte	1
  90 000f 00       		.byte	0
  91 0010 03       		.byte	3
  92 0011 00       		.byte	0
  93 0012 01       		.byte	1
  94 0013 00       		.byte	0
  95 0014 02       		.byte	2
  96 0015 00       		.byte	0
  97 0016 01       		.byte	1
  98 0017 00       		.byte	0
  99 0018 04       		.byte	4
 100 0019 00       		.byte	0
 101 001a 01       		.byte	1
 102 001b 00       		.byte	0
 103 001c 02       		.byte	2
 104 001d 00       		.byte	0
 105 001e 01       		.byte	1
 106 001f 00       		.byte	0
 107 0020 03       		.byte	3
 108 0021 00       		.byte	0
 109 0022 01       		.byte	1
 110 0023 00       		.byte	0
 111 0024 02       		.byte	2
 112 0025 00       		.byte	0
 113 0026 01       		.byte	1
 114 0027 00       		.byte	0
 115 0028 05       		.byte	5
 116 0029 00       		.byte	0
 117 002a 01       		.byte	1
 118 002b 00       		.byte	0
 119 002c 02       		.byte	2
 120 002d 00       		.byte	0
 121 002e 01       		.byte	1
 122 002f 00       		.byte	0
 123 0030 03       		.byte	3
 124 0031 00       		.byte	0
 125 0032 01       		.byte	1
 126 0033 00       		.byte	0
 127 0034 02       		.byte	2
 128 0035 00       		.byte	0
 129 0036 01       		.byte	1
 130 0037 00       		.byte	0
 131 0038 04       		.byte	4
 132 0039 00       		.byte	0
 133 003a 01       		.byte	1
 134 003b 00       		.byte	0
 135 003c 02       		.byte	2
 136 003d 00       		.byte	0
 137 003e 01       		.byte	1
 138 003f 00       		.byte	0
 139 0040 03       		.byte	3
 140 0041 00       		.byte	0
 141 0042 01       		.byte	1
 142 0043 00       		.byte	0
 143 0044 02       		.byte	2
ARM GAS  G:\Users\Jaxb\AppData\Local\Temp\ccDpynBW.s 			page 5


 144 0045 00       		.byte	0
 145 0046 01       		.byte	1
 146 0047 00       		.byte	0
 147 0048 06       		.byte	6
 148 0049 00       		.byte	0
 149 004a 01       		.byte	1
 150 004b 00       		.byte	0
 151 004c 02       		.byte	2
 152 004d 00       		.byte	0
 153 004e 01       		.byte	1
 154 004f 00       		.byte	0
 155 0050 03       		.byte	3
 156 0051 00       		.byte	0
 157 0052 01       		.byte	1
 158 0053 00       		.byte	0
 159 0054 02       		.byte	2
 160 0055 00       		.byte	0
 161 0056 01       		.byte	1
 162 0057 00       		.byte	0
 163 0058 04       		.byte	4
 164 0059 00       		.byte	0
 165 005a 01       		.byte	1
 166 005b 00       		.byte	0
 167 005c 02       		.byte	2
 168 005d 00       		.byte	0
 169 005e 01       		.byte	1
 170 005f 00       		.byte	0
 171 0060 03       		.byte	3
 172 0061 00       		.byte	0
 173 0062 01       		.byte	1
 174 0063 00       		.byte	0
 175 0064 02       		.byte	2
 176 0065 00       		.byte	0
 177 0066 01       		.byte	1
 178 0067 00       		.byte	0
 179 0068 05       		.byte	5
 180 0069 00       		.byte	0
 181 006a 01       		.byte	1
 182 006b 00       		.byte	0
 183 006c 02       		.byte	2
 184 006d 00       		.byte	0
 185 006e 01       		.byte	1
 186 006f 00       		.byte	0
 187 0070 03       		.byte	3
 188 0071 00       		.byte	0
 189 0072 01       		.byte	1
 190 0073 00       		.byte	0
 191 0074 02       		.byte	2
 192 0075 00       		.byte	0
 193 0076 01       		.byte	1
 194 0077 00       		.byte	0
 195 0078 04       		.byte	4
 196 0079 00       		.byte	0
 197 007a 01       		.byte	1
 198 007b 00       		.byte	0
 199 007c 02       		.byte	2
 200 007d 00       		.byte	0
ARM GAS  G:\Users\Jaxb\AppData\Local\Temp\ccDpynBW.s 			page 6


 201 007e 01       		.byte	1
 202 007f 00       		.byte	0
 203 0080 03       		.byte	3
 204 0081 00       		.byte	0
 205 0082 01       		.byte	1
 206 0083 00       		.byte	0
 207 0084 02       		.byte	2
 208 0085 00       		.byte	0
 209 0086 01       		.byte	1
 210 0087 00       		.byte	0
 211 0088 07       		.byte	7
 212 0089 00       		.byte	0
 213 008a 01       		.byte	1
 214 008b 00       		.byte	0
 215 008c 02       		.byte	2
 216 008d 00       		.byte	0
 217 008e 01       		.byte	1
 218 008f 00       		.byte	0
 219 0090 03       		.byte	3
 220 0091 00       		.byte	0
 221 0092 01       		.byte	1
 222 0093 00       		.byte	0
 223 0094 02       		.byte	2
 224 0095 00       		.byte	0
 225 0096 01       		.byte	1
 226 0097 00       		.byte	0
 227 0098 04       		.byte	4
 228 0099 00       		.byte	0
 229 009a 01       		.byte	1
 230 009b 00       		.byte	0
 231 009c 02       		.byte	2
 232 009d 00       		.byte	0
 233 009e 01       		.byte	1
 234 009f 00       		.byte	0
 235 00a0 03       		.byte	3
 236 00a1 00       		.byte	0
 237 00a2 01       		.byte	1
 238 00a3 00       		.byte	0
 239 00a4 02       		.byte	2
 240 00a5 00       		.byte	0
 241 00a6 01       		.byte	1
 242 00a7 00       		.byte	0
 243 00a8 05       		.byte	5
 244 00a9 00       		.byte	0
 245 00aa 01       		.byte	1
 246 00ab 00       		.byte	0
 247 00ac 02       		.byte	2
 248 00ad 00       		.byte	0
 249 00ae 01       		.byte	1
 250 00af 00       		.byte	0
 251 00b0 03       		.byte	3
 252 00b1 00       		.byte	0
 253 00b2 01       		.byte	1
 254 00b3 00       		.byte	0
 255 00b4 02       		.byte	2
 256 00b5 00       		.byte	0
 257 00b6 01       		.byte	1
ARM GAS  G:\Users\Jaxb\AppData\Local\Temp\ccDpynBW.s 			page 7


 258 00b7 00       		.byte	0
 259 00b8 04       		.byte	4
 260 00b9 00       		.byte	0
 261 00ba 01       		.byte	1
 262 00bb 00       		.byte	0
 263 00bc 02       		.byte	2
 264 00bd 00       		.byte	0
 265 00be 01       		.byte	1
 266 00bf 00       		.byte	0
 267 00c0 03       		.byte	3
 268 00c1 00       		.byte	0
 269 00c2 01       		.byte	1
 270 00c3 00       		.byte	0
 271 00c4 02       		.byte	2
 272 00c5 00       		.byte	0
 273 00c6 01       		.byte	1
 274 00c7 00       		.byte	0
 275 00c8 06       		.byte	6
 276 00c9 00       		.byte	0
 277 00ca 01       		.byte	1
 278 00cb 00       		.byte	0
 279 00cc 02       		.byte	2
 280 00cd 00       		.byte	0
 281 00ce 01       		.byte	1
 282 00cf 00       		.byte	0
 283 00d0 03       		.byte	3
 284 00d1 00       		.byte	0
 285 00d2 01       		.byte	1
 286 00d3 00       		.byte	0
 287 00d4 02       		.byte	2
 288 00d5 00       		.byte	0
 289 00d6 01       		.byte	1
 290 00d7 00       		.byte	0
 291 00d8 04       		.byte	4
 292 00d9 00       		.byte	0
 293 00da 01       		.byte	1
 294 00db 00       		.byte	0
 295 00dc 02       		.byte	2
 296 00dd 00       		.byte	0
 297 00de 01       		.byte	1
 298 00df 00       		.byte	0
 299 00e0 03       		.byte	3
 300 00e1 00       		.byte	0
 301 00e2 01       		.byte	1
 302 00e3 00       		.byte	0
 303 00e4 02       		.byte	2
 304 00e5 00       		.byte	0
 305 00e6 01       		.byte	1
 306 00e7 00       		.byte	0
 307 00e8 05       		.byte	5
 308 00e9 00       		.byte	0
 309 00ea 01       		.byte	1
 310 00eb 00       		.byte	0
 311 00ec 02       		.byte	2
 312 00ed 00       		.byte	0
 313 00ee 01       		.byte	1
 314 00ef 00       		.byte	0
ARM GAS  G:\Users\Jaxb\AppData\Local\Temp\ccDpynBW.s 			page 8


 315 00f0 03       		.byte	3
 316 00f1 00       		.byte	0
 317 00f2 01       		.byte	1
 318 00f3 00       		.byte	0
 319 00f4 02       		.byte	2
 320 00f5 00       		.byte	0
 321 00f6 01       		.byte	1
 322 00f7 00       		.byte	0
 323 00f8 04       		.byte	4
 324 00f9 00       		.byte	0
 325 00fa 01       		.byte	1
 326 00fb 00       		.byte	0
 327 00fc 02       		.byte	2
 328 00fd 00       		.byte	0
 329 00fe 01       		.byte	1
 330 00ff 00       		.byte	0
 331 0100 03       		.byte	3
 332 0101 00       		.byte	0
 333 0102 01       		.byte	1
 334 0103 00       		.byte	0
 335 0104 02       		.byte	2
 336 0105 00       		.byte	0
 337 0106 01       		.byte	1
 338 0107 00       		.byte	0
 339              		.bss
 340              	ready_group:
 341 0000 00       		.space	1
 342              		.size	ready_group, 1
 343 0001 000000   		.align	2
 344              	ready_table:
 345 0004 00000000 		.space	8
 345      00000000 
 346              		.size	ready_table, 8
 347              		.text
 348              		.align	1
 349              		.global	__init_ready_group
 350              		.syntax unified
 351              		.thumb
 352              		.thumb_func
 353              		.fpu softvfp
 354              		.type	__init_ready_group, %function
 355              	__init_ready_group:
 356              	.LFB20:
 357              		.file 2 "../../source/src/kernel/OS_CORE/schedule/os_ready.c"
   1:../../source/src/kernel/OS_CORE/schedule/os_ready.c **** #include "os_ready.h"
   2:../../source/src/kernel/OS_CORE/schedule/os_ready.c **** #include "heap_oo.h"
   3:../../source/src/kernel/OS_CORE/schedule/os_ready.c **** #include "myassert.h"
   4:../../source/src/kernel/OS_CORE/schedule/os_ready.c **** #include "os_TCB_list.h"
   5:../../source/src/kernel/OS_CORE/schedule/os_ready.c **** #include "os_error.h"
   6:../../source/src/kernel/OS_CORE/schedule/os_ready.c **** #include "myMicroLIB.h"
   7:../../source/src/kernel/OS_CORE/schedule/os_ready.c **** #include "task_state.h"
   8:../../source/src/kernel/OS_CORE/schedule/os_ready.c **** 
   9:../../source/src/kernel/OS_CORE/schedule/os_ready.c **** /*==============================================*/
  10:../../source/src/kernel/OS_CORE/schedule/os_ready.c **** /*this typedef associate with macro PRIO_MAX in TCB.h*/
  11:../../source/src/kernel/OS_CORE/schedule/os_ready.c **** typedef unsigned char READY_GROUP_TYPE;
  12:../../source/src/kernel/OS_CORE/schedule/os_ready.c **** typedef unsigned char READY_TABLE_TYPE;
  13:../../source/src/kernel/OS_CORE/schedule/os_ready.c **** 
ARM GAS  G:\Users\Jaxb\AppData\Local\Temp\ccDpynBW.s 			page 9


  14:../../source/src/kernel/OS_CORE/schedule/os_ready.c **** static const READY_TABLE_TYPE map[8*sizeof(READY_GROUP_TYPE)] = {
  15:../../source/src/kernel/OS_CORE/schedule/os_ready.c **** 	0x01,
  16:../../source/src/kernel/OS_CORE/schedule/os_ready.c **** 	0x02,
  17:../../source/src/kernel/OS_CORE/schedule/os_ready.c **** 	0x04,
  18:../../source/src/kernel/OS_CORE/schedule/os_ready.c **** 	0x08,
  19:../../source/src/kernel/OS_CORE/schedule/os_ready.c **** 	0x10,
  20:../../source/src/kernel/OS_CORE/schedule/os_ready.c **** 	0x20,
  21:../../source/src/kernel/OS_CORE/schedule/os_ready.c **** 	0x40,
  22:../../source/src/kernel/OS_CORE/schedule/os_ready.c **** 	0x80
  23:../../source/src/kernel/OS_CORE/schedule/os_ready.c **** };
  24:../../source/src/kernel/OS_CORE/schedule/os_ready.c **** static const INT8 unmap[256] = { 
  25:../../source/src/kernel/OS_CORE/schedule/os_ready.c ****     0, 0, 1, 0, 2, 0, 1, 0, 3, 0, 1, 0, 2, 0, 1, 0,       /* 0x00 to 0x0F  */ 
  26:../../source/src/kernel/OS_CORE/schedule/os_ready.c ****     4, 0, 1, 0, 2, 0, 1, 0, 3, 0, 1, 0, 2, 0, 1, 0,       /* 0x10 to 0x1F  */ 
  27:../../source/src/kernel/OS_CORE/schedule/os_ready.c ****     5, 0, 1, 0, 2, 0, 1, 0, 3, 0, 1, 0, 2, 0, 1, 0,       /* 0x20 to 0x2F  */ 
  28:../../source/src/kernel/OS_CORE/schedule/os_ready.c ****     4, 0, 1, 0, 2, 0, 1, 0, 3, 0, 1, 0, 2, 0, 1, 0,       /* 0x30 to 0x3F  */ 
  29:../../source/src/kernel/OS_CORE/schedule/os_ready.c ****     6, 0, 1, 0, 2, 0, 1, 0, 3, 0, 1, 0, 2, 0, 1, 0,       /* 0x40 to 0x4F  */ 
  30:../../source/src/kernel/OS_CORE/schedule/os_ready.c ****     4, 0, 1, 0, 2, 0, 1, 0, 3, 0, 1, 0, 2, 0, 1, 0,       /* 0x50 to 0x5F  */ 
  31:../../source/src/kernel/OS_CORE/schedule/os_ready.c ****     5, 0, 1, 0, 2, 0, 1, 0, 3, 0, 1, 0, 2, 0, 1, 0,       /* 0x60 to 0x6F  */ 
  32:../../source/src/kernel/OS_CORE/schedule/os_ready.c ****     4, 0, 1, 0, 2, 0, 1, 0, 3, 0, 1, 0, 2, 0, 1, 0,       /* 0x70 to 0x7F  */ 
  33:../../source/src/kernel/OS_CORE/schedule/os_ready.c ****     7, 0, 1, 0, 2, 0, 1, 0, 3, 0, 1, 0, 2, 0, 1, 0,       /* 0x80 to 0x8F  */ 
  34:../../source/src/kernel/OS_CORE/schedule/os_ready.c ****     4, 0, 1, 0, 2, 0, 1, 0, 3, 0, 1, 0, 2, 0, 1, 0,       /* 0x90 to 0x9F  */ 
  35:../../source/src/kernel/OS_CORE/schedule/os_ready.c ****     5, 0, 1, 0, 2, 0, 1, 0, 3, 0, 1, 0, 2, 0, 1, 0,       /* 0xA0 to 0xAF  */ 
  36:../../source/src/kernel/OS_CORE/schedule/os_ready.c ****     4, 0, 1, 0, 2, 0, 1, 0, 3, 0, 1, 0, 2, 0, 1, 0,       /* 0xB0 to 0xBF  */ 
  37:../../source/src/kernel/OS_CORE/schedule/os_ready.c ****     6, 0, 1, 0, 2, 0, 1, 0, 3, 0, 1, 0, 2, 0, 1, 0,       /* 0xC0 to 0xCF  */ 
  38:../../source/src/kernel/OS_CORE/schedule/os_ready.c ****     4, 0, 1, 0, 2, 0, 1, 0, 3, 0, 1, 0, 2, 0, 1, 0,       /* 0xD0 to 0xDF  */ 
  39:../../source/src/kernel/OS_CORE/schedule/os_ready.c ****     5, 0, 1, 0, 2, 0, 1, 0, 3, 0, 1, 0, 2, 0, 1, 0,       /* 0xE0 to 0xEF  */ 
  40:../../source/src/kernel/OS_CORE/schedule/os_ready.c ****     4, 0, 1, 0, 2, 0, 1, 0, 3, 0, 1, 0, 2, 0, 1, 0        /* 0xF0 to 0xFF  */ 
  41:../../source/src/kernel/OS_CORE/schedule/os_ready.c **** }; 
  42:../../source/src/kernel/OS_CORE/schedule/os_ready.c **** 
  43:../../source/src/kernel/OS_CORE/schedule/os_ready.c **** static READY_GROUP_TYPE ready_group;
  44:../../source/src/kernel/OS_CORE/schedule/os_ready.c **** static READY_TABLE_TYPE ready_table[PRIO_MAX/(sizeof(READY_TABLE_TYPE)*8)];
  45:../../source/src/kernel/OS_CORE/schedule/os_ready.c **** /*==============================================*/
  46:../../source/src/kernel/OS_CORE/schedule/os_ready.c **** 
  47:../../source/src/kernel/OS_CORE/schedule/os_ready.c **** void __init_ready_group(void)
  48:../../source/src/kernel/OS_CORE/schedule/os_ready.c **** {
 358              		.loc 2 48 0
 359              		.cfi_startproc
 360              		@ args = 0, pretend = 0, frame = 8
 361              		@ frame_needed = 1, uses_anonymous_args = 0
 362              		@ link register save eliminated.
 363 0022 80B4     		push	{r7}
 364              	.LCFI6:
 365              		.cfi_def_cfa_offset 4
 366              		.cfi_offset 7, -4
 367 0024 83B0     		sub	sp, sp, #12
 368              	.LCFI7:
 369              		.cfi_def_cfa_offset 16
 370 0026 00AF     		add	r7, sp, #0
 371              	.LCFI8:
 372              		.cfi_def_cfa_register 7
  49:../../source/src/kernel/OS_CORE/schedule/os_ready.c **** 	unsigned int i;
  50:../../source/src/kernel/OS_CORE/schedule/os_ready.c **** 	ready_group = 0;
 373              		.loc 2 50 0
 374 0028 0A4B     		ldr	r3, .L6
 375 002a 0022     		movs	r2, #0
 376 002c 1A70     		strb	r2, [r3]
  51:../../source/src/kernel/OS_CORE/schedule/os_ready.c **** 	for(i=0;i<PRIO_MAX/(sizeof(READY_TABLE_TYPE)*8);++i)
ARM GAS  G:\Users\Jaxb\AppData\Local\Temp\ccDpynBW.s 			page 10


 377              		.loc 2 51 0
 378 002e 0023     		movs	r3, #0
 379 0030 7B60     		str	r3, [r7, #4]
 380 0032 07E0     		b	.L4
 381              	.L5:
  52:../../source/src/kernel/OS_CORE/schedule/os_ready.c **** 	{
  53:../../source/src/kernel/OS_CORE/schedule/os_ready.c **** 		ready_table[i] = 0;
 382              		.loc 2 53 0 discriminator 3
 383 0034 084A     		ldr	r2, .L6+4
 384 0036 7B68     		ldr	r3, [r7, #4]
 385 0038 1344     		add	r3, r3, r2
 386 003a 0022     		movs	r2, #0
 387 003c 1A70     		strb	r2, [r3]
  51:../../source/src/kernel/OS_CORE/schedule/os_ready.c **** 	for(i=0;i<PRIO_MAX/(sizeof(READY_TABLE_TYPE)*8);++i)
 388              		.loc 2 51 0 discriminator 3
 389 003e 7B68     		ldr	r3, [r7, #4]
 390 0040 0133     		adds	r3, r3, #1
 391 0042 7B60     		str	r3, [r7, #4]
 392              	.L4:
  51:../../source/src/kernel/OS_CORE/schedule/os_ready.c **** 	for(i=0;i<PRIO_MAX/(sizeof(READY_TABLE_TYPE)*8);++i)
 393              		.loc 2 51 0 is_stmt 0 discriminator 1
 394 0044 7B68     		ldr	r3, [r7, #4]
 395 0046 072B     		cmp	r3, #7
 396 0048 F4D9     		bls	.L5
  54:../../source/src/kernel/OS_CORE/schedule/os_ready.c **** 	}
  55:../../source/src/kernel/OS_CORE/schedule/os_ready.c **** }
 397              		.loc 2 55 0 is_stmt 1
 398 004a 00BF     		nop
 399 004c 0C37     		adds	r7, r7, #12
 400              	.LCFI9:
 401              		.cfi_def_cfa_offset 4
 402 004e BD46     		mov	sp, r7
 403              	.LCFI10:
 404              		.cfi_def_cfa_register 13
 405              		@ sp needed
 406 0050 80BC     		pop	{r7}
 407              	.LCFI11:
 408              		.cfi_restore 7
 409              		.cfi_def_cfa_offset 0
 410 0052 7047     		bx	lr
 411              	.L7:
 412              		.align	2
 413              	.L6:
 414 0054 00000000 		.word	ready_group
 415 0058 04000000 		.word	ready_table
 416              		.cfi_endproc
 417              	.LFE20:
 418              		.size	__init_ready_group, .-__init_ready_group
 419              		.section	.rodata
 420              		.align	2
 421              	.LC0:
 422 0108 2E2E2F2E 		.ascii	"../../source/src/kernel/OS_CORE/schedule/os_ready.c"
 422      2E2F736F 
 422      75726365 
 422      2F737263 
 422      2F6B6572 
 423 013b 00       		.ascii	"\000"
ARM GAS  G:\Users\Jaxb\AppData\Local\Temp\ccDpynBW.s 			page 11


 424              		.text
 425              		.align	1
 426              		.global	_insert_ready_TCB
 427              		.syntax unified
 428              		.thumb
 429              		.thumb_func
 430              		.fpu softvfp
 431              		.type	_insert_ready_TCB, %function
 432              	_insert_ready_TCB:
 433              	.LFB21:
  56:../../source/src/kernel/OS_CORE/schedule/os_ready.c **** 
  57:../../source/src/kernel/OS_CORE/schedule/os_ready.c **** int _insert_ready_TCB(TCB *TCB_ptr)
  58:../../source/src/kernel/OS_CORE/schedule/os_ready.c **** {
 434              		.loc 2 58 0
 435              		.cfi_startproc
 436              		@ args = 0, pretend = 0, frame = 8
 437              		@ frame_needed = 1, uses_anonymous_args = 0
 438 005c 80B5     		push	{r7, lr}
 439              	.LCFI12:
 440              		.cfi_def_cfa_offset 8
 441              		.cfi_offset 7, -8
 442              		.cfi_offset 14, -4
 443 005e 82B0     		sub	sp, sp, #8
 444              	.LCFI13:
 445              		.cfi_def_cfa_offset 16
 446 0060 00AF     		add	r7, sp, #0
 447              	.LCFI14:
 448              		.cfi_def_cfa_register 7
 449 0062 7860     		str	r0, [r7, #4]
  59:../../source/src/kernel/OS_CORE/schedule/os_ready.c **** 	ASSERT(NULL != TCB_ptr);
 450              		.loc 2 59 0
 451 0064 7B68     		ldr	r3, [r7, #4]
 452 0066 002B     		cmp	r3, #0
 453 0068 03D1     		bne	.L9
 454              		.loc 2 59 0 is_stmt 0 discriminator 1
 455 006a 3B21     		movs	r1, #59
 456 006c 1448     		ldr	r0, .L11
 457 006e FFF7FEFF 		bl	_ASSERT
 458              	.L9:
  60:../../source/src/kernel/OS_CORE/schedule/os_ready.c **** 	TCB_ptr->task_state = STATE_READY;
 459              		.loc 2 60 0 is_stmt 1
 460 0072 7B68     		ldr	r3, [r7, #4]
 461 0074 0122     		movs	r2, #1
 462 0076 1A74     		strb	r2, [r3, #16]
  61:../../source/src/kernel/OS_CORE/schedule/os_ready.c **** 	_increase_ready_num(TCB_ptr->prio);
 463              		.loc 2 61 0
 464 0078 7B68     		ldr	r3, [r7, #4]
 465 007a 5B69     		ldr	r3, [r3, #20]
 466 007c 1846     		mov	r0, r3
 467 007e FFF7FEFF 		bl	_increase_ready_num
  62:../../source/src/kernel/OS_CORE/schedule/os_ready.c **** 	/*deal with the ready_group and ready_table*/
  63:../../source/src/kernel/OS_CORE/schedule/os_ready.c **** 	ready_group |= map[TCB_ptr->prio / (8*sizeof(READY_GROUP_TYPE))];
 468              		.loc 2 63 0
 469 0082 7B68     		ldr	r3, [r7, #4]
 470 0084 5B69     		ldr	r3, [r3, #20]
 471 0086 DB08     		lsrs	r3, r3, #3
 472 0088 0E4A     		ldr	r2, .L11+4
ARM GAS  G:\Users\Jaxb\AppData\Local\Temp\ccDpynBW.s 			page 12


 473 008a D25C     		ldrb	r2, [r2, r3]	@ zero_extendqisi2
 474 008c 0E4B     		ldr	r3, .L11+8
 475 008e 1B78     		ldrb	r3, [r3]	@ zero_extendqisi2
 476 0090 1343     		orrs	r3, r3, r2
 477 0092 DAB2     		uxtb	r2, r3
 478 0094 0C4B     		ldr	r3, .L11+8
 479 0096 1A70     		strb	r2, [r3]
  64:../../source/src/kernel/OS_CORE/schedule/os_ready.c **** 	ready_table[TCB_ptr->prio / (8*sizeof(READY_GROUP_TYPE))] |= map[TCB_ptr->prio & 0x07];/*0x07 is a
 480              		.loc 2 64 0
 481 0098 7B68     		ldr	r3, [r7, #4]
 482 009a 5B69     		ldr	r3, [r3, #20]
 483 009c DB08     		lsrs	r3, r3, #3
 484 009e 0B4A     		ldr	r2, .L11+12
 485 00a0 D15C     		ldrb	r1, [r2, r3]	@ zero_extendqisi2
 486 00a2 7A68     		ldr	r2, [r7, #4]
 487 00a4 5269     		ldr	r2, [r2, #20]
 488 00a6 02F00702 		and	r2, r2, #7
 489 00aa 0648     		ldr	r0, .L11+4
 490 00ac 825C     		ldrb	r2, [r0, r2]	@ zero_extendqisi2
 491 00ae 0A43     		orrs	r2, r2, r1
 492 00b0 D1B2     		uxtb	r1, r2
 493 00b2 064A     		ldr	r2, .L11+12
 494 00b4 D154     		strb	r1, [r2, r3]
  65:../../source/src/kernel/OS_CORE/schedule/os_ready.c **** 	return FUN_EXECUTE_SUCCESSFULLY;
 495              		.loc 2 65 0
 496 00b6 0023     		movs	r3, #0
  66:../../source/src/kernel/OS_CORE/schedule/os_ready.c **** }
 497              		.loc 2 66 0
 498 00b8 1846     		mov	r0, r3
 499 00ba 0837     		adds	r7, r7, #8
 500              	.LCFI15:
 501              		.cfi_def_cfa_offset 8
 502 00bc BD46     		mov	sp, r7
 503              	.LCFI16:
 504              		.cfi_def_cfa_register 13
 505              		@ sp needed
 506 00be 80BD     		pop	{r7, pc}
 507              	.L12:
 508              		.align	2
 509              	.L11:
 510 00c0 08010000 		.word	.LC0
 511 00c4 00000000 		.word	map
 512 00c8 00000000 		.word	ready_group
 513 00cc 04000000 		.word	ready_table
 514              		.cfi_endproc
 515              	.LFE21:
 516              		.size	_insert_ready_TCB, .-_insert_ready_TCB
 517              		.align	1
 518              		.global	_delete_TCB_from_ready
 519              		.syntax unified
 520              		.thumb
 521              		.thumb_func
 522              		.fpu softvfp
 523              		.type	_delete_TCB_from_ready, %function
 524              	_delete_TCB_from_ready:
 525              	.LFB22:
  67:../../source/src/kernel/OS_CORE/schedule/os_ready.c **** 
ARM GAS  G:\Users\Jaxb\AppData\Local\Temp\ccDpynBW.s 			page 13


  68:../../source/src/kernel/OS_CORE/schedule/os_ready.c **** /*if os delete a task,use _delete_from_TCB_list() first*/
  69:../../source/src/kernel/OS_CORE/schedule/os_ready.c **** int _delete_TCB_from_ready(TCB *TCB_ptr)
  70:../../source/src/kernel/OS_CORE/schedule/os_ready.c **** {
 526              		.loc 2 70 0
 527              		.cfi_startproc
 528              		@ args = 0, pretend = 0, frame = 8
 529              		@ frame_needed = 1, uses_anonymous_args = 0
 530 00d0 80B5     		push	{r7, lr}
 531              	.LCFI17:
 532              		.cfi_def_cfa_offset 8
 533              		.cfi_offset 7, -8
 534              		.cfi_offset 14, -4
 535 00d2 82B0     		sub	sp, sp, #8
 536              	.LCFI18:
 537              		.cfi_def_cfa_offset 16
 538 00d4 00AF     		add	r7, sp, #0
 539              	.LCFI19:
 540              		.cfi_def_cfa_register 7
 541 00d6 7860     		str	r0, [r7, #4]
  71:../../source/src/kernel/OS_CORE/schedule/os_ready.c **** 	ASSERT(NULL != TCB_ptr);
 542              		.loc 2 71 0
 543 00d8 7B68     		ldr	r3, [r7, #4]
 544 00da 002B     		cmp	r3, #0
 545 00dc 03D1     		bne	.L14
 546              		.loc 2 71 0 is_stmt 0 discriminator 1
 547 00de 4721     		movs	r1, #71
 548 00e0 2048     		ldr	r0, .L18
 549 00e2 FFF7FEFF 		bl	_ASSERT
 550              	.L14:
  72:../../source/src/kernel/OS_CORE/schedule/os_ready.c **** 	_decrease_ready_num(TCB_ptr->prio);
 551              		.loc 2 72 0 is_stmt 1
 552 00e6 7B68     		ldr	r3, [r7, #4]
 553 00e8 5B69     		ldr	r3, [r3, #20]
 554 00ea 1846     		mov	r0, r3
 555 00ec FFF7FEFF 		bl	_decrease_ready_num
  73:../../source/src/kernel/OS_CORE/schedule/os_ready.c **** 	if(0 != _get_ready_num_from_TCB_list(TCB_ptr->prio))
 556              		.loc 2 73 0
 557 00f0 7B68     		ldr	r3, [r7, #4]
 558 00f2 5B69     		ldr	r3, [r3, #20]
 559 00f4 1846     		mov	r0, r3
 560 00f6 FFF7FEFF 		bl	_get_ready_num_from_TCB_list
 561 00fa 0346     		mov	r3, r0
 562 00fc 002B     		cmp	r3, #0
 563 00fe 01D0     		beq	.L15
  74:../../source/src/kernel/OS_CORE/schedule/os_ready.c **** 	{
  75:../../source/src/kernel/OS_CORE/schedule/os_ready.c **** 		return FUN_EXECUTE_SUCCESSFULLY;
 564              		.loc 2 75 0
 565 0100 0023     		movs	r3, #0
 566 0102 2BE0     		b	.L16
 567              	.L15:
  76:../../source/src/kernel/OS_CORE/schedule/os_ready.c **** 	}
  77:../../source/src/kernel/OS_CORE/schedule/os_ready.c **** 	/*first deal with the ready_table*/
  78:../../source/src/kernel/OS_CORE/schedule/os_ready.c **** 	ready_table[TCB_ptr->prio / (8*sizeof(READY_GROUP_TYPE))] &= ~map[TCB_ptr->prio & 0x07];/*0x07 is 
 568              		.loc 2 78 0
 569 0104 7B68     		ldr	r3, [r7, #4]
 570 0106 5B69     		ldr	r3, [r3, #20]
 571 0108 DB08     		lsrs	r3, r3, #3
ARM GAS  G:\Users\Jaxb\AppData\Local\Temp\ccDpynBW.s 			page 14


 572 010a 174A     		ldr	r2, .L18+4
 573 010c D25C     		ldrb	r2, [r2, r3]	@ zero_extendqisi2
 574 010e 51B2     		sxtb	r1, r2
 575 0110 7A68     		ldr	r2, [r7, #4]
 576 0112 5269     		ldr	r2, [r2, #20]
 577 0114 02F00702 		and	r2, r2, #7
 578 0118 1448     		ldr	r0, .L18+8
 579 011a 825C     		ldrb	r2, [r0, r2]	@ zero_extendqisi2
 580 011c 52B2     		sxtb	r2, r2
 581 011e D243     		mvns	r2, r2
 582 0120 52B2     		sxtb	r2, r2
 583 0122 0A40     		ands	r2, r2, r1
 584 0124 52B2     		sxtb	r2, r2
 585 0126 D1B2     		uxtb	r1, r2
 586 0128 0F4A     		ldr	r2, .L18+4
 587 012a D154     		strb	r1, [r2, r3]
  79:../../source/src/kernel/OS_CORE/schedule/os_ready.c **** 	/*if the ready_table[index] is 0 after resetting,deal with ready_group*/
  80:../../source/src/kernel/OS_CORE/schedule/os_ready.c **** 	if(0 == ready_table[TCB_ptr->prio / (8*sizeof(READY_GROUP_TYPE))])
 588              		.loc 2 80 0
 589 012c 7B68     		ldr	r3, [r7, #4]
 590 012e 5B69     		ldr	r3, [r3, #20]
 591 0130 DB08     		lsrs	r3, r3, #3
 592 0132 0D4A     		ldr	r2, .L18+4
 593 0134 D35C     		ldrb	r3, [r2, r3]	@ zero_extendqisi2
 594 0136 002B     		cmp	r3, #0
 595 0138 0FD1     		bne	.L17
  81:../../source/src/kernel/OS_CORE/schedule/os_ready.c **** 	{
  82:../../source/src/kernel/OS_CORE/schedule/os_ready.c **** 		ready_group &= ~map[TCB_ptr->prio / (8*sizeof(READY_GROUP_TYPE))];
 596              		.loc 2 82 0
 597 013a 7B68     		ldr	r3, [r7, #4]
 598 013c 5B69     		ldr	r3, [r3, #20]
 599 013e DB08     		lsrs	r3, r3, #3
 600 0140 0A4A     		ldr	r2, .L18+8
 601 0142 D35C     		ldrb	r3, [r2, r3]	@ zero_extendqisi2
 602 0144 5BB2     		sxtb	r3, r3
 603 0146 DB43     		mvns	r3, r3
 604 0148 5AB2     		sxtb	r2, r3
 605 014a 094B     		ldr	r3, .L18+12
 606 014c 1B78     		ldrb	r3, [r3]	@ zero_extendqisi2
 607 014e 5BB2     		sxtb	r3, r3
 608 0150 1340     		ands	r3, r3, r2
 609 0152 5BB2     		sxtb	r3, r3
 610 0154 DAB2     		uxtb	r2, r3
 611 0156 064B     		ldr	r3, .L18+12
 612 0158 1A70     		strb	r2, [r3]
 613              	.L17:
  83:../../source/src/kernel/OS_CORE/schedule/os_ready.c **** 	}
  84:../../source/src/kernel/OS_CORE/schedule/os_ready.c **** 	return FUN_EXECUTE_SUCCESSFULLY;
 614              		.loc 2 84 0
 615 015a 0023     		movs	r3, #0
 616              	.L16:
  85:../../source/src/kernel/OS_CORE/schedule/os_ready.c **** }
 617              		.loc 2 85 0
 618 015c 1846     		mov	r0, r3
 619 015e 0837     		adds	r7, r7, #8
 620              	.LCFI20:
 621              		.cfi_def_cfa_offset 8
ARM GAS  G:\Users\Jaxb\AppData\Local\Temp\ccDpynBW.s 			page 15


 622 0160 BD46     		mov	sp, r7
 623              	.LCFI21:
 624              		.cfi_def_cfa_register 13
 625              		@ sp needed
 626 0162 80BD     		pop	{r7, pc}
 627              	.L19:
 628              		.align	2
 629              	.L18:
 630 0164 08010000 		.word	.LC0
 631 0168 04000000 		.word	ready_table
 632 016c 00000000 		.word	map
 633 0170 00000000 		.word	ready_group
 634              		.cfi_endproc
 635              	.LFE22:
 636              		.size	_delete_TCB_from_ready, .-_delete_TCB_from_ready
 637              		.align	1
 638              		.global	_get_highest_prio_ready_TCB
 639              		.syntax unified
 640              		.thumb
 641              		.thumb_func
 642              		.fpu softvfp
 643              		.type	_get_highest_prio_ready_TCB, %function
 644              	_get_highest_prio_ready_TCB:
 645              	.LFB23:
  86:../../source/src/kernel/OS_CORE/schedule/os_ready.c **** 
  87:../../source/src/kernel/OS_CORE/schedule/os_ready.c **** TCB *_get_highest_prio_ready_TCB(void)
  88:../../source/src/kernel/OS_CORE/schedule/os_ready.c **** {
 646              		.loc 2 88 0
 647              		.cfi_startproc
 648              		@ args = 0, pretend = 0, frame = 24
 649              		@ frame_needed = 1, uses_anonymous_args = 0
 650 0174 80B5     		push	{r7, lr}
 651              	.LCFI22:
 652              		.cfi_def_cfa_offset 8
 653              		.cfi_offset 7, -8
 654              		.cfi_offset 14, -4
 655 0176 86B0     		sub	sp, sp, #24
 656              	.LCFI23:
 657              		.cfi_def_cfa_offset 32
 658 0178 00AF     		add	r7, sp, #0
 659              	.LCFI24:
 660              		.cfi_def_cfa_register 7
  89:../../source/src/kernel/OS_CORE/schedule/os_ready.c **** 	int y;
  90:../../source/src/kernel/OS_CORE/schedule/os_ready.c **** 	struct list_head *pos,*head;
  91:../../source/src/kernel/OS_CORE/schedule/os_ready.c **** 	TCB *TCB_ptr;
  92:../../source/src/kernel/OS_CORE/schedule/os_ready.c **** 	/*according to the ready_group and ready_table,get the highest priority
  93:../../source/src/kernel/OS_CORE/schedule/os_ready.c **** 	**than, get the respoding head of the same-priority TCB_list*/
  94:../../source/src/kernel/OS_CORE/schedule/os_ready.c **** 	y = unmap[ready_group]; // the lowest '1' bit
 661              		.loc 2 94 0
 662 017a 1A4B     		ldr	r3, .L25
 663 017c 1B78     		ldrb	r3, [r3]	@ zero_extendqisi2
 664 017e 1A46     		mov	r2, r3
 665 0180 194B     		ldr	r3, .L25+4
 666 0182 9B56     		ldrsb	r3, [r3, r2]
 667 0184 3B61     		str	r3, [r7, #16]
  95:../../source/src/kernel/OS_CORE/schedule/os_ready.c **** 	head = _get_from_TCB_list(y*8*sizeof(READY_TABLE_TYPE) + unmap[ready_table[y]]);
 668              		.loc 2 95 0
ARM GAS  G:\Users\Jaxb\AppData\Local\Temp\ccDpynBW.s 			page 16


 669 0186 3B69     		ldr	r3, [r7, #16]
 670 0188 DB00     		lsls	r3, r3, #3
 671 018a 1946     		mov	r1, r3
 672 018c 174A     		ldr	r2, .L25+8
 673 018e 3B69     		ldr	r3, [r7, #16]
 674 0190 1344     		add	r3, r3, r2
 675 0192 1B78     		ldrb	r3, [r3]	@ zero_extendqisi2
 676 0194 1A46     		mov	r2, r3
 677 0196 144B     		ldr	r3, .L25+4
 678 0198 9B56     		ldrsb	r3, [r3, r2]
 679 019a 0B44     		add	r3, r3, r1
 680 019c 1846     		mov	r0, r3
 681 019e FFF7FEFF 		bl	_get_from_TCB_list
 682 01a2 F860     		str	r0, [r7, #12]
  96:../../source/src/kernel/OS_CORE/schedule/os_ready.c **** 	list_for_each(pos,head)
 683              		.loc 2 96 0
 684 01a4 FB68     		ldr	r3, [r7, #12]
 685 01a6 1B68     		ldr	r3, [r3]
 686 01a8 7B61     		str	r3, [r7, #20]
 687 01aa 0DE0     		b	.L21
 688              	.L24:
 689              	.LBB2:
  97:../../source/src/kernel/OS_CORE/schedule/os_ready.c **** 	{
  98:../../source/src/kernel/OS_CORE/schedule/os_ready.c **** 		TCB_ptr = list_entry(pos,TCB,same_prio_list);
 690              		.loc 2 98 0
 691 01ac 7B69     		ldr	r3, [r7, #20]
 692 01ae BB60     		str	r3, [r7, #8]
 693 01b0 BB68     		ldr	r3, [r7, #8]
 694 01b2 1C3B     		subs	r3, r3, #28
 695              	.LBE2:
 696 01b4 7B60     		str	r3, [r7, #4]
  99:../../source/src/kernel/OS_CORE/schedule/os_ready.c **** 		if(STATE_READY == TCB_ptr->task_state)/*take the first TCB whose state is ready*/
 697              		.loc 2 99 0
 698 01b6 7B68     		ldr	r3, [r7, #4]
 699 01b8 1B7C     		ldrb	r3, [r3, #16]	@ zero_extendqisi2
 700 01ba 012B     		cmp	r3, #1
 701 01bc 01D1     		bne	.L22
 100:../../source/src/kernel/OS_CORE/schedule/os_ready.c **** 		{
 101:../../source/src/kernel/OS_CORE/schedule/os_ready.c **** 			return TCB_ptr;
 702              		.loc 2 101 0
 703 01be 7B68     		ldr	r3, [r7, #4]
 704 01c0 0BE0     		b	.L23
 705              	.L22:
  96:../../source/src/kernel/OS_CORE/schedule/os_ready.c **** 	{
 706              		.loc 2 96 0 discriminator 2
 707 01c2 7B69     		ldr	r3, [r7, #20]
 708 01c4 1B68     		ldr	r3, [r3]
 709 01c6 7B61     		str	r3, [r7, #20]
 710              	.L21:
  96:../../source/src/kernel/OS_CORE/schedule/os_ready.c **** 	{
 711              		.loc 2 96 0 is_stmt 0 discriminator 1
 712 01c8 7A69     		ldr	r2, [r7, #20]
 713 01ca FB68     		ldr	r3, [r7, #12]
 714 01cc 9A42     		cmp	r2, r3
 715 01ce EDD1     		bne	.L24
 102:../../source/src/kernel/OS_CORE/schedule/os_ready.c **** 		}
 103:../../source/src/kernel/OS_CORE/schedule/os_ready.c **** 	}
ARM GAS  G:\Users\Jaxb\AppData\Local\Temp\ccDpynBW.s 			page 17


 104:../../source/src/kernel/OS_CORE/schedule/os_ready.c **** 	/*should not go here*/
 105:../../source/src/kernel/OS_CORE/schedule/os_ready.c **** 	ASSERT(0);
 716              		.loc 2 105 0 is_stmt 1 discriminator 1
 717 01d0 6921     		movs	r1, #105
 718 01d2 0748     		ldr	r0, .L25+12
 719 01d4 FFF7FEFF 		bl	_ASSERT
 106:../../source/src/kernel/OS_CORE/schedule/os_ready.c **** 	return NULL;
 720              		.loc 2 106 0 discriminator 1
 721 01d8 0023     		movs	r3, #0
 722              	.L23:
 107:../../source/src/kernel/OS_CORE/schedule/os_ready.c **** }
 723              		.loc 2 107 0
 724 01da 1846     		mov	r0, r3
 725 01dc 1837     		adds	r7, r7, #24
 726              	.LCFI25:
 727              		.cfi_def_cfa_offset 8
 728 01de BD46     		mov	sp, r7
 729              	.LCFI26:
 730              		.cfi_def_cfa_register 13
 731              		@ sp needed
 732 01e0 80BD     		pop	{r7, pc}
 733              	.L26:
 734 01e2 00BF     		.align	2
 735              	.L25:
 736 01e4 00000000 		.word	ready_group
 737 01e8 08000000 		.word	unmap
 738 01ec 04000000 		.word	ready_table
 739 01f0 08010000 		.word	.LC0
 740              		.cfi_endproc
 741              	.LFE23:
 742              		.size	_get_highest_prio_ready_TCB, .-_get_highest_prio_ready_TCB
 743              		.section	.rodata
 744              		.align	2
 745              	.LC1:
 746 013c 72656164 		.ascii	"ready_group's bit %d error with ready_table[%d]\012"
 746      795F6772 
 746      6F757027 
 746      73206269 
 746      74202564 
 747 016c 00       		.ascii	"\000"
 748 016d 000000   		.align	2
 749              	.LC2:
 750 0170 6163636F 		.ascii	"according to TCB_list's information, check ready_ta"
 750      7264696E 
 750      6720746F 
 750      20544342 
 750      5F6C6973 
 751 01a3 626C652E 		.ascii	"ble...\012\000"
 751      2E2E0A00 
 752 01ab 00       		.align	2
 753              	.LC3:
 754 01ac 7072696F 		.ascii	"priority %d's map error\012\000"
 754      72697479 
 754      20256427 
 754      73206D61 
 754      70206572 
 755 01c5 000000   		.align	2
ARM GAS  G:\Users\Jaxb\AppData\Local\Temp\ccDpynBW.s 			page 18


 756              	.LC4:
 757 01c8 7072696F 		.ascii	"priority %d's ready_num error\012\000"
 757      72697479 
 757      20256427 
 757      73207265 
 757      6164795F 
 758 01e7 00       		.align	2
 759              	.LC5:
 760 01e8 7072696F 		.ascii	"priority %d's TCB_num error\012\000"
 760      72697479 
 760      20256427 
 760      73205443 
 760      425F6E75 
 761 0205 000000   		.align	2
 762              	.LC6:
 763 0208 636F6D70 		.ascii	"complete...\012\012\000"
 763      6C657465 
 763      2E2E2E0A 
 763      0A00
 764 0216 0000     		.align	2
 765              	.LC7:
 766 0218 6163636F 		.ascii	"according to ready_table's information, check TCB_l"
 766      7264696E 
 766      6720746F 
 766      20726561 
 766      64795F74 
 767 024b 6973742E 		.ascii	"ist...\012\000"
 767      2E2E0A00 
 768 0253 00       		.align	2
 769              	.LC8:
 770 0254 7072696F 		.ascii	"priority %d error\012\000"
 770      72697479 
 770      20256420 
 770      6572726F 
 770      720A00
 771 0267 00       		.align	2
 772              	.LC9:
 773 0268 63686563 		.ascii	"checking complete....%u error\012\000"
 773      6B696E67 
 773      20636F6D 
 773      706C6574 
 773      652E2E2E 
 774 0287 00       		.align	2
 775              	.LC10:
 776 0288 63686563 		.ascii	"checking complete....everything okay\012\000"
 776      6B696E67 
 776      20636F6D 
 776      706C6574 
 776      652E2E2E 
 777              		.text
 778              		.align	1
 779              		.global	shell_check_os_ready
 780              		.syntax unified
 781              		.thumb
 782              		.thumb_func
 783              		.fpu softvfp
 784              		.type	shell_check_os_ready, %function
ARM GAS  G:\Users\Jaxb\AppData\Local\Temp\ccDpynBW.s 			page 19


 785              	shell_check_os_ready:
 786              	.LFB24:
 108:../../source/src/kernel/OS_CORE/schedule/os_ready.c **** 
 109:../../source/src/kernel/OS_CORE/schedule/os_ready.c **** #if CONFIG_SHELL_EN
 110:../../source/src/kernel/OS_CORE/schedule/os_ready.c **** void shell_check_os_ready(void)
 111:../../source/src/kernel/OS_CORE/schedule/os_ready.c **** {
 787              		.loc 2 111 0
 788              		.cfi_startproc
 789              		@ args = 0, pretend = 0, frame = 48
 790              		@ frame_needed = 1, uses_anonymous_args = 0
 791 01f4 80B5     		push	{r7, lr}
 792              	.LCFI27:
 793              		.cfi_def_cfa_offset 8
 794              		.cfi_offset 7, -8
 795              		.cfi_offset 14, -4
 796 01f6 8CB0     		sub	sp, sp, #48
 797              	.LCFI28:
 798              		.cfi_def_cfa_offset 56
 799 01f8 00AF     		add	r7, sp, #0
 800              	.LCFI29:
 801              		.cfi_def_cfa_register 7
 112:../../source/src/kernel/OS_CORE/schedule/os_ready.c **** 	unsigned int i,j;
 113:../../source/src/kernel/OS_CORE/schedule/os_ready.c **** 	unsigned int num = 0;
 802              		.loc 2 113 0
 803 01fa 0023     		movs	r3, #0
 804 01fc 7B62     		str	r3, [r7, #36]
 114:../../source/src/kernel/OS_CORE/schedule/os_ready.c **** 	struct list_head *pos,*head;
 115:../../source/src/kernel/OS_CORE/schedule/os_ready.c **** 	TCB *TCB_ptr;
 116:../../source/src/kernel/OS_CORE/schedule/os_ready.c **** 	unsigned int ready_TCB_num;
 117:../../source/src/kernel/OS_CORE/schedule/os_ready.c **** 	unsigned int TCB_num;
 118:../../source/src/kernel/OS_CORE/schedule/os_ready.c **** 	/* check relation between ready_group and ready_table*/
 119:../../source/src/kernel/OS_CORE/schedule/os_ready.c **** 	for(i=0;i<sizeof(READY_GROUP_TYPE)*8;++i)
 805              		.loc 2 119 0
 806 01fe 0023     		movs	r3, #0
 807 0200 FB62     		str	r3, [r7, #44]
 808 0202 1AE0     		b	.L28
 809              	.L30:
 120:../../source/src/kernel/OS_CORE/schedule/os_ready.c **** 	{
 121:../../source/src/kernel/OS_CORE/schedule/os_ready.c **** 		if((ready_group >> i) & (0x01))
 810              		.loc 2 121 0
 811 0204 6E4B     		ldr	r3, .L51
 812 0206 1B78     		ldrb	r3, [r3]	@ zero_extendqisi2
 813 0208 1A46     		mov	r2, r3
 814 020a FB6A     		ldr	r3, [r7, #44]
 815 020c 42FA03F3 		asr	r3, r2, r3
 816 0210 03F00103 		and	r3, r3, #1
 817 0214 002B     		cmp	r3, #0
 818 0216 0DD0     		beq	.L29
 122:../../source/src/kernel/OS_CORE/schedule/os_ready.c **** 		{
 123:../../source/src/kernel/OS_CORE/schedule/os_ready.c **** 			if(!ready_table[i])
 819              		.loc 2 123 0
 820 0218 6A4A     		ldr	r2, .L51+4
 821 021a FB6A     		ldr	r3, [r7, #44]
 822 021c 1344     		add	r3, r3, r2
 823 021e 1B78     		ldrb	r3, [r3]	@ zero_extendqisi2
 824 0220 002B     		cmp	r3, #0
 825 0222 07D1     		bne	.L29
ARM GAS  G:\Users\Jaxb\AppData\Local\Temp\ccDpynBW.s 			page 20


 124:../../source/src/kernel/OS_CORE/schedule/os_ready.c **** 			{
 125:../../source/src/kernel/OS_CORE/schedule/os_ready.c **** 				++num;
 826              		.loc 2 125 0
 827 0224 7B6A     		ldr	r3, [r7, #36]
 828 0226 0133     		adds	r3, r3, #1
 829 0228 7B62     		str	r3, [r7, #36]
 126:../../source/src/kernel/OS_CORE/schedule/os_ready.c **** 				ka_printf("ready_group's bit %d error with ready_table[%d]\n",i,i);
 830              		.loc 2 126 0
 831 022a FA6A     		ldr	r2, [r7, #44]
 832 022c F96A     		ldr	r1, [r7, #44]
 833 022e 6648     		ldr	r0, .L51+8
 834 0230 FFF7FEFF 		bl	ka_printf
 835              	.L29:
 119:../../source/src/kernel/OS_CORE/schedule/os_ready.c **** 	{
 836              		.loc 2 119 0 discriminator 2
 837 0234 FB6A     		ldr	r3, [r7, #44]
 838 0236 0133     		adds	r3, r3, #1
 839 0238 FB62     		str	r3, [r7, #44]
 840              	.L28:
 119:../../source/src/kernel/OS_CORE/schedule/os_ready.c **** 	{
 841              		.loc 2 119 0 is_stmt 0 discriminator 1
 842 023a FB6A     		ldr	r3, [r7, #44]
 843 023c 072B     		cmp	r3, #7
 844 023e E1D9     		bls	.L30
 127:../../source/src/kernel/OS_CORE/schedule/os_ready.c **** 			}
 128:../../source/src/kernel/OS_CORE/schedule/os_ready.c **** 		}
 129:../../source/src/kernel/OS_CORE/schedule/os_ready.c **** 	}
 130:../../source/src/kernel/OS_CORE/schedule/os_ready.c **** 	/*according to TCB_list's information, check ready_table*/
 131:../../source/src/kernel/OS_CORE/schedule/os_ready.c **** 	ka_printf("according to TCB_list's information, check ready_table...\n");
 845              		.loc 2 131 0 is_stmt 1
 846 0240 6248     		ldr	r0, .L51+12
 847 0242 FFF7FEFF 		bl	ka_printf
 132:../../source/src/kernel/OS_CORE/schedule/os_ready.c **** 	for(i=0;i<PRIO_MAX;++i)
 848              		.loc 2 132 0
 849 0246 0023     		movs	r3, #0
 850 0248 FB62     		str	r3, [r7, #44]
 851 024a 57E0     		b	.L31
 852              	.L37:
 133:../../source/src/kernel/OS_CORE/schedule/os_ready.c **** 	{
 134:../../source/src/kernel/OS_CORE/schedule/os_ready.c **** 		head = _get_from_TCB_list(i);
 853              		.loc 2 134 0
 854 024c F86A     		ldr	r0, [r7, #44]
 855 024e FFF7FEFF 		bl	_get_from_TCB_list
 856 0252 7861     		str	r0, [r7, #20]
 135:../../source/src/kernel/OS_CORE/schedule/os_ready.c **** 		if(!list_empty(head))
 857              		.loc 2 135 0
 858 0254 7869     		ldr	r0, [r7, #20]
 859 0256 FFF7D3FE 		bl	list_empty
 860 025a 0346     		mov	r3, r0
 861 025c 002B     		cmp	r3, #0
 862 025e 4AD1     		bne	.L32
 136:../../source/src/kernel/OS_CORE/schedule/os_ready.c **** 		{
 137:../../source/src/kernel/OS_CORE/schedule/os_ready.c **** 			ready_TCB_num = 0;
 863              		.loc 2 137 0
 864 0260 0023     		movs	r3, #0
 865 0262 FB61     		str	r3, [r7, #28]
 138:../../source/src/kernel/OS_CORE/schedule/os_ready.c **** 			TCB_num = 0;
ARM GAS  G:\Users\Jaxb\AppData\Local\Temp\ccDpynBW.s 			page 21


 866              		.loc 2 138 0
 867 0264 0023     		movs	r3, #0
 868 0266 BB61     		str	r3, [r7, #24]
 139:../../source/src/kernel/OS_CORE/schedule/os_ready.c **** 			list_for_each(pos,head)
 869              		.loc 2 139 0
 870 0268 7B69     		ldr	r3, [r7, #20]
 871 026a 1B68     		ldr	r3, [r3]
 872 026c 3B62     		str	r3, [r7, #32]
 873 026e 26E0     		b	.L33
 874              	.L35:
 140:../../source/src/kernel/OS_CORE/schedule/os_ready.c **** 			{
 141:../../source/src/kernel/OS_CORE/schedule/os_ready.c **** 				++TCB_num;
 875              		.loc 2 141 0
 876 0270 BB69     		ldr	r3, [r7, #24]
 877 0272 0133     		adds	r3, r3, #1
 878 0274 BB61     		str	r3, [r7, #24]
 879              	.LBB3:
 142:../../source/src/kernel/OS_CORE/schedule/os_ready.c **** 				TCB_ptr = list_entry(pos,TCB,same_prio_list);
 880              		.loc 2 142 0
 881 0276 3B6A     		ldr	r3, [r7, #32]
 882 0278 3B60     		str	r3, [r7]
 883 027a 3B68     		ldr	r3, [r7]
 884 027c 1C3B     		subs	r3, r3, #28
 885              	.LBE3:
 886 027e FB60     		str	r3, [r7, #12]
 143:../../source/src/kernel/OS_CORE/schedule/os_ready.c **** 				if(STATE_READY == TCB_ptr->task_state)
 887              		.loc 2 143 0
 888 0280 FB68     		ldr	r3, [r7, #12]
 889 0282 1B7C     		ldrb	r3, [r3, #16]	@ zero_extendqisi2
 890 0284 012B     		cmp	r3, #1
 891 0286 17D1     		bne	.L34
 144:../../source/src/kernel/OS_CORE/schedule/os_ready.c **** 				{
 145:../../source/src/kernel/OS_CORE/schedule/os_ready.c **** 					++ready_TCB_num;
 892              		.loc 2 145 0
 893 0288 FB69     		ldr	r3, [r7, #28]
 894 028a 0133     		adds	r3, r3, #1
 895 028c FB61     		str	r3, [r7, #28]
 146:../../source/src/kernel/OS_CORE/schedule/os_ready.c **** 					if(!(0x01 & (ready_table[i/(8*sizeof(READY_TABLE_TYPE))] >> (i%(8*sizeof(READY_TABLE_TYPE)))))
 896              		.loc 2 146 0
 897 028e FB6A     		ldr	r3, [r7, #44]
 898 0290 DB08     		lsrs	r3, r3, #3
 899 0292 4C4A     		ldr	r2, .L51+4
 900 0294 D35C     		ldrb	r3, [r2, r3]	@ zero_extendqisi2
 901 0296 1A46     		mov	r2, r3
 902 0298 FB6A     		ldr	r3, [r7, #44]
 903 029a 03F00703 		and	r3, r3, #7
 904 029e 42FA03F3 		asr	r3, r2, r3
 905 02a2 03F00103 		and	r3, r3, #1
 906 02a6 002B     		cmp	r3, #0
 907 02a8 06D1     		bne	.L34
 147:../../source/src/kernel/OS_CORE/schedule/os_ready.c **** 					{
 148:../../source/src/kernel/OS_CORE/schedule/os_ready.c **** 						++num;
 908              		.loc 2 148 0
 909 02aa 7B6A     		ldr	r3, [r7, #36]
 910 02ac 0133     		adds	r3, r3, #1
 911 02ae 7B62     		str	r3, [r7, #36]
 149:../../source/src/kernel/OS_CORE/schedule/os_ready.c **** 						ka_printf("priority %d's map error\n",i);
ARM GAS  G:\Users\Jaxb\AppData\Local\Temp\ccDpynBW.s 			page 22


 912              		.loc 2 149 0
 913 02b0 F96A     		ldr	r1, [r7, #44]
 914 02b2 4748     		ldr	r0, .L51+16
 915 02b4 FFF7FEFF 		bl	ka_printf
 916              	.L34:
 139:../../source/src/kernel/OS_CORE/schedule/os_ready.c **** 			{
 917              		.loc 2 139 0 discriminator 2
 918 02b8 3B6A     		ldr	r3, [r7, #32]
 919 02ba 1B68     		ldr	r3, [r3]
 920 02bc 3B62     		str	r3, [r7, #32]
 921              	.L33:
 139:../../source/src/kernel/OS_CORE/schedule/os_ready.c **** 			{
 922              		.loc 2 139 0 is_stmt 0 discriminator 1
 923 02be 3A6A     		ldr	r2, [r7, #32]
 924 02c0 7B69     		ldr	r3, [r7, #20]
 925 02c2 9A42     		cmp	r2, r3
 926 02c4 D4D1     		bne	.L35
 927              	.LBB4:
 150:../../source/src/kernel/OS_CORE/schedule/os_ready.c **** 					}
 151:../../source/src/kernel/OS_CORE/schedule/os_ready.c **** 				}
 152:../../source/src/kernel/OS_CORE/schedule/os_ready.c **** 			}
 153:../../source/src/kernel/OS_CORE/schedule/os_ready.c **** 			if(list_entry(head,struct TCB_list,head)->ready_num != ready_TCB_num)
 928              		.loc 2 153 0 is_stmt 1
 929 02c6 7B69     		ldr	r3, [r7, #20]
 930 02c8 BB60     		str	r3, [r7, #8]
 931 02ca BB68     		ldr	r3, [r7, #8]
 932              	.LBE4:
 933 02cc 1B7A     		ldrb	r3, [r3, #8]	@ zero_extendqisi2
 934 02ce 1A46     		mov	r2, r3
 935 02d0 FB69     		ldr	r3, [r7, #28]
 936 02d2 9342     		cmp	r3, r2
 937 02d4 03D0     		beq	.L36
 154:../../source/src/kernel/OS_CORE/schedule/os_ready.c **** 			{
 155:../../source/src/kernel/OS_CORE/schedule/os_ready.c **** 				ka_printf("priority %d's ready_num error\n",i);
 938              		.loc 2 155 0
 939 02d6 F96A     		ldr	r1, [r7, #44]
 940 02d8 3E48     		ldr	r0, .L51+20
 941 02da FFF7FEFF 		bl	ka_printf
 942              	.L36:
 943              	.LBB5:
 156:../../source/src/kernel/OS_CORE/schedule/os_ready.c **** 			}
 157:../../source/src/kernel/OS_CORE/schedule/os_ready.c **** 			if(list_entry(head,struct TCB_list,head)->TCB_num != TCB_num)
 944              		.loc 2 157 0
 945 02de 7B69     		ldr	r3, [r7, #20]
 946 02e0 7B60     		str	r3, [r7, #4]
 947 02e2 7B68     		ldr	r3, [r7, #4]
 948              	.LBE5:
 949 02e4 5B7A     		ldrb	r3, [r3, #9]	@ zero_extendqisi2
 950 02e6 1A46     		mov	r2, r3
 951 02e8 BB69     		ldr	r3, [r7, #24]
 952 02ea 9342     		cmp	r3, r2
 953 02ec 03D0     		beq	.L32
 158:../../source/src/kernel/OS_CORE/schedule/os_ready.c **** 			{
 159:../../source/src/kernel/OS_CORE/schedule/os_ready.c **** 				ka_printf("priority %d's TCB_num error\n",i);
 954              		.loc 2 159 0
 955 02ee F96A     		ldr	r1, [r7, #44]
 956 02f0 3948     		ldr	r0, .L51+24
ARM GAS  G:\Users\Jaxb\AppData\Local\Temp\ccDpynBW.s 			page 23


 957 02f2 FFF7FEFF 		bl	ka_printf
 958              	.L32:
 132:../../source/src/kernel/OS_CORE/schedule/os_ready.c **** 	{
 959              		.loc 2 132 0 discriminator 2
 960 02f6 FB6A     		ldr	r3, [r7, #44]
 961 02f8 0133     		adds	r3, r3, #1
 962 02fa FB62     		str	r3, [r7, #44]
 963              	.L31:
 132:../../source/src/kernel/OS_CORE/schedule/os_ready.c **** 	{
 964              		.loc 2 132 0 is_stmt 0 discriminator 1
 965 02fc FB6A     		ldr	r3, [r7, #44]
 966 02fe 3F2B     		cmp	r3, #63
 967 0300 A4D9     		bls	.L37
 160:../../source/src/kernel/OS_CORE/schedule/os_ready.c **** 			}
 161:../../source/src/kernel/OS_CORE/schedule/os_ready.c **** 		}
 162:../../source/src/kernel/OS_CORE/schedule/os_ready.c **** 	}
 163:../../source/src/kernel/OS_CORE/schedule/os_ready.c **** 	ka_printf("complete...\n\n");
 968              		.loc 2 163 0 is_stmt 1
 969 0302 3648     		ldr	r0, .L51+28
 970 0304 FFF7FEFF 		bl	ka_printf
 164:../../source/src/kernel/OS_CORE/schedule/os_ready.c **** 	/*according to ready_table's information, check TCB_list*/
 165:../../source/src/kernel/OS_CORE/schedule/os_ready.c **** 	ka_printf("according to ready_table's information, check TCB_list...\n");
 971              		.loc 2 165 0
 972 0308 3548     		ldr	r0, .L51+32
 973 030a FFF7FEFF 		bl	ka_printf
 166:../../source/src/kernel/OS_CORE/schedule/os_ready.c **** 	for(i=0;i<sizeof(READY_GROUP_TYPE)*8;++i)
 974              		.loc 2 166 0
 975 030e 0023     		movs	r3, #0
 976 0310 FB62     		str	r3, [r7, #44]
 977 0312 42E0     		b	.L38
 978              	.L45:
 167:../../source/src/kernel/OS_CORE/schedule/os_ready.c **** 	{
 168:../../source/src/kernel/OS_CORE/schedule/os_ready.c **** 		for(j=0;j<8*sizeof(READY_TABLE_TYPE);++j)
 979              		.loc 2 168 0
 980 0314 0023     		movs	r3, #0
 981 0316 BB62     		str	r3, [r7, #40]
 982 0318 39E0     		b	.L39
 983              	.L44:
 169:../../source/src/kernel/OS_CORE/schedule/os_ready.c **** 		{
 170:../../source/src/kernel/OS_CORE/schedule/os_ready.c **** 			if(0x01 & (ready_table[i] >> j))
 984              		.loc 2 170 0
 985 031a 2A4A     		ldr	r2, .L51+4
 986 031c FB6A     		ldr	r3, [r7, #44]
 987 031e 1344     		add	r3, r3, r2
 988 0320 1B78     		ldrb	r3, [r3]	@ zero_extendqisi2
 989 0322 1A46     		mov	r2, r3
 990 0324 BB6A     		ldr	r3, [r7, #40]
 991 0326 42FA03F3 		asr	r3, r2, r3
 992 032a 03F00103 		and	r3, r3, #1
 993 032e 002B     		cmp	r3, #0
 994 0330 27D0     		beq	.L48
 171:../../source/src/kernel/OS_CORE/schedule/os_ready.c **** 			{
 172:../../source/src/kernel/OS_CORE/schedule/os_ready.c **** 				head = _get_from_TCB_list(j + i*8*sizeof(READY_TABLE_TYPE));
 995              		.loc 2 172 0
 996 0332 FB6A     		ldr	r3, [r7, #44]
 997 0334 DA00     		lsls	r2, r3, #3
 998 0336 BB6A     		ldr	r3, [r7, #40]
ARM GAS  G:\Users\Jaxb\AppData\Local\Temp\ccDpynBW.s 			page 24


 999 0338 1344     		add	r3, r3, r2
 1000 033a 1846     		mov	r0, r3
 1001 033c FFF7FEFF 		bl	_get_from_TCB_list
 1002 0340 7861     		str	r0, [r7, #20]
 173:../../source/src/kernel/OS_CORE/schedule/os_ready.c **** 				list_for_each(pos,head)
 1003              		.loc 2 173 0
 1004 0342 7B69     		ldr	r3, [r7, #20]
 1005 0344 1B68     		ldr	r3, [r3]
 1006 0346 3B62     		str	r3, [r7, #32]
 1007 0348 0BE0     		b	.L41
 1008              	.L43:
 1009              	.LBB6:
 174:../../source/src/kernel/OS_CORE/schedule/os_ready.c **** 				{
 175:../../source/src/kernel/OS_CORE/schedule/os_ready.c **** 					TCB_ptr = list_entry(pos,TCB,same_prio_list);
 1010              		.loc 2 175 0
 1011 034a 3B6A     		ldr	r3, [r7, #32]
 1012 034c 3B61     		str	r3, [r7, #16]
 1013 034e 3B69     		ldr	r3, [r7, #16]
 1014 0350 1C3B     		subs	r3, r3, #28
 1015              	.LBE6:
 1016 0352 FB60     		str	r3, [r7, #12]
 176:../../source/src/kernel/OS_CORE/schedule/os_ready.c **** 					if(STATE_READY == TCB_ptr->task_state)
 1017              		.loc 2 176 0
 1018 0354 FB68     		ldr	r3, [r7, #12]
 1019 0356 1B7C     		ldrb	r3, [r3, #16]	@ zero_extendqisi2
 1020 0358 012B     		cmp	r3, #1
 1021 035a 14D0     		beq	.L49
 173:../../source/src/kernel/OS_CORE/schedule/os_ready.c **** 				list_for_each(pos,head)
 1022              		.loc 2 173 0 discriminator 2
 1023 035c 3B6A     		ldr	r3, [r7, #32]
 1024 035e 1B68     		ldr	r3, [r3]
 1025 0360 3B62     		str	r3, [r7, #32]
 1026              	.L41:
 173:../../source/src/kernel/OS_CORE/schedule/os_ready.c **** 				list_for_each(pos,head)
 1027              		.loc 2 173 0 is_stmt 0 discriminator 1
 1028 0362 3A6A     		ldr	r2, [r7, #32]
 1029 0364 7B69     		ldr	r3, [r7, #20]
 1030 0366 9A42     		cmp	r2, r3
 1031 0368 EFD1     		bne	.L43
 177:../../source/src/kernel/OS_CORE/schedule/os_ready.c **** 					{
 178:../../source/src/kernel/OS_CORE/schedule/os_ready.c **** 						goto out;
 179:../../source/src/kernel/OS_CORE/schedule/os_ready.c **** 					}
 180:../../source/src/kernel/OS_CORE/schedule/os_ready.c **** 				}
 181:../../source/src/kernel/OS_CORE/schedule/os_ready.c **** 				++num;
 1032              		.loc 2 181 0 is_stmt 1
 1033 036a 7B6A     		ldr	r3, [r7, #36]
 1034 036c 0133     		adds	r3, r3, #1
 1035 036e 7B62     		str	r3, [r7, #36]
 182:../../source/src/kernel/OS_CORE/schedule/os_ready.c **** 				ka_printf("priority %d error\n",j + i*8*sizeof(READY_TABLE_TYPE));
 1036              		.loc 2 182 0
 1037 0370 FB6A     		ldr	r3, [r7, #44]
 1038 0372 DA00     		lsls	r2, r3, #3
 1039 0374 BB6A     		ldr	r3, [r7, #40]
 1040 0376 1344     		add	r3, r3, r2
 1041 0378 1946     		mov	r1, r3
 1042 037a 1A48     		ldr	r0, .L51+36
 1043 037c FFF7FEFF 		bl	ka_printf
ARM GAS  G:\Users\Jaxb\AppData\Local\Temp\ccDpynBW.s 			page 25


 1044 0380 02E0     		b	.L40
 1045              	.L48:
 183:../../source/src/kernel/OS_CORE/schedule/os_ready.c **** 			}
 184:../../source/src/kernel/OS_CORE/schedule/os_ready.c **** out:
 1046              		.loc 2 184 0
 1047 0382 00BF     		nop
 1048 0384 00E0     		b	.L40
 1049              	.L49:
 178:../../source/src/kernel/OS_CORE/schedule/os_ready.c **** 					}
 1050              		.loc 2 178 0
 1051 0386 00BF     		nop
 1052              	.L40:
 168:../../source/src/kernel/OS_CORE/schedule/os_ready.c **** 		{
 1053              		.loc 2 168 0 discriminator 2
 1054 0388 BB6A     		ldr	r3, [r7, #40]
 1055 038a 0133     		adds	r3, r3, #1
 1056 038c BB62     		str	r3, [r7, #40]
 1057              	.L39:
 168:../../source/src/kernel/OS_CORE/schedule/os_ready.c **** 		{
 1058              		.loc 2 168 0 is_stmt 0 discriminator 1
 1059 038e BB6A     		ldr	r3, [r7, #40]
 1060 0390 072B     		cmp	r3, #7
 1061 0392 C2D9     		bls	.L44
 166:../../source/src/kernel/OS_CORE/schedule/os_ready.c **** 	{
 1062              		.loc 2 166 0 is_stmt 1 discriminator 2
 1063 0394 FB6A     		ldr	r3, [r7, #44]
 1064 0396 0133     		adds	r3, r3, #1
 1065 0398 FB62     		str	r3, [r7, #44]
 1066              	.L38:
 166:../../source/src/kernel/OS_CORE/schedule/os_ready.c **** 	{
 1067              		.loc 2 166 0 is_stmt 0 discriminator 1
 1068 039a FB6A     		ldr	r3, [r7, #44]
 1069 039c 072B     		cmp	r3, #7
 1070 039e B9D9     		bls	.L45
 185:../../source/src/kernel/OS_CORE/schedule/os_ready.c **** 		;
 186:../../source/src/kernel/OS_CORE/schedule/os_ready.c **** 		}
 187:../../source/src/kernel/OS_CORE/schedule/os_ready.c **** 	}
 188:../../source/src/kernel/OS_CORE/schedule/os_ready.c **** 	/*conclusion*/
 189:../../source/src/kernel/OS_CORE/schedule/os_ready.c **** 	if(num)
 1071              		.loc 2 189 0 is_stmt 1
 1072 03a0 7B6A     		ldr	r3, [r7, #36]
 1073 03a2 002B     		cmp	r3, #0
 1074 03a4 04D0     		beq	.L46
 190:../../source/src/kernel/OS_CORE/schedule/os_ready.c **** 	{
 191:../../source/src/kernel/OS_CORE/schedule/os_ready.c **** 		ka_printf("checking complete....%u error\n",num);
 1075              		.loc 2 191 0
 1076 03a6 796A     		ldr	r1, [r7, #36]
 1077 03a8 0F48     		ldr	r0, .L51+40
 1078 03aa FFF7FEFF 		bl	ka_printf
 192:../../source/src/kernel/OS_CORE/schedule/os_ready.c **** 	}
 193:../../source/src/kernel/OS_CORE/schedule/os_ready.c **** 	else
 194:../../source/src/kernel/OS_CORE/schedule/os_ready.c **** 	{
 195:../../source/src/kernel/OS_CORE/schedule/os_ready.c **** 		ka_printf("checking complete....everything okay\n");
 196:../../source/src/kernel/OS_CORE/schedule/os_ready.c **** 	}
 197:../../source/src/kernel/OS_CORE/schedule/os_ready.c **** }
 1079              		.loc 2 197 0
 1080 03ae 02E0     		b	.L50
ARM GAS  G:\Users\Jaxb\AppData\Local\Temp\ccDpynBW.s 			page 26


 1081              	.L46:
 195:../../source/src/kernel/OS_CORE/schedule/os_ready.c **** 	}
 1082              		.loc 2 195 0
 1083 03b0 0E48     		ldr	r0, .L51+44
 1084 03b2 FFF7FEFF 		bl	ka_printf
 1085              	.L50:
 1086              		.loc 2 197 0
 1087 03b6 00BF     		nop
 1088 03b8 3037     		adds	r7, r7, #48
 1089              	.LCFI30:
 1090              		.cfi_def_cfa_offset 8
 1091 03ba BD46     		mov	sp, r7
 1092              	.LCFI31:
 1093              		.cfi_def_cfa_register 13
 1094              		@ sp needed
 1095 03bc 80BD     		pop	{r7, pc}
 1096              	.L52:
 1097 03be 00BF     		.align	2
 1098              	.L51:
 1099 03c0 00000000 		.word	ready_group
 1100 03c4 04000000 		.word	ready_table
 1101 03c8 3C010000 		.word	.LC1
 1102 03cc 70010000 		.word	.LC2
 1103 03d0 AC010000 		.word	.LC3
 1104 03d4 C8010000 		.word	.LC4
 1105 03d8 E8010000 		.word	.LC5
 1106 03dc 08020000 		.word	.LC6
 1107 03e0 18020000 		.word	.LC7
 1108 03e4 54020000 		.word	.LC8
 1109 03e8 68020000 		.word	.LC9
 1110 03ec 88020000 		.word	.LC10
 1111              		.cfi_endproc
 1112              	.LFE24:
 1113              		.size	shell_check_os_ready, .-shell_check_os_ready
 1114              	.Letext0:
 1115              		.file 3 "../../source/include/os_cpu/kakaosstdint.h"
 1116              		.file 4 "../../source/include/os_core/schedule/task_state.h"
 1117              		.file 5 "../../source/include/os_core/schedule/TCB.h"
 1118              		.file 6 "../../source/include/os_core/schedule/os_TCB_list.h"