ARM GAS  G:\Users\Jaxb\AppData\Local\Temp\cc71XBkm.s 			page 1


   1              		.cpu cortex-m3
   2              		.eabi_attribute 20, 1
   3              		.eabi_attribute 21, 1
   4              		.eabi_attribute 23, 3
   5              		.eabi_attribute 24, 1
   6              		.eabi_attribute 25, 1
   7              		.eabi_attribute 26, 1
   8              		.eabi_attribute 30, 6
   9              		.eabi_attribute 34, 1
  10              		.eabi_attribute 18, 4
  11              		.file	"os_schedule.c"
  12              		.text
  13              	.Ltext0:
  14              		.cfi_sections	.debug_frame
  15              		.global	g_schedule_lock
  16              		.bss
  17              		.align	2
  18              		.type	g_schedule_lock, %object
  19              		.size	g_schedule_lock, 4
  20              	g_schedule_lock:
  21 0000 00000000 		.space	4
  22              		.text
  23              		.align	1
  24              		.global	schedule
  25              		.syntax unified
  26              		.thumb
  27              		.thumb_func
  28              		.fpu softvfp
  29              		.type	schedule, %function
  30              	schedule:
  31              	.LFB13:
  32              		.file 1 "../../source/src/kernel/OS_CORE/schedule/os_schedule.c"
   1:../../source/src/kernel/OS_CORE/schedule/os_schedule.c **** #include <os_schedule.h>
   2:../../source/src/kernel/OS_CORE/schedule/os_schedule.c **** #include <os_cpu.h>
   3:../../source/src/kernel/OS_CORE/schedule/os_schedule.c **** #include <os_delay.h>
   4:../../source/src/kernel/OS_CORE/schedule/os_schedule.c **** #include <TCB.h>
   5:../../source/src/kernel/OS_CORE/schedule/os_schedule.c **** #include <myassert.h>
   6:../../source/src/kernel/OS_CORE/schedule/os_schedule.c **** #include <os_ready.h>
   7:../../source/src/kernel/OS_CORE/schedule/os_schedule.c **** #include <os_suspend.h>
   8:../../source/src/kernel/OS_CORE/schedule/os_schedule.c **** #include <os_TCB_list.h>
   9:../../source/src/kernel/OS_CORE/schedule/os_schedule.c **** #include <osinit.h>
  10:../../source/src/kernel/OS_CORE/schedule/os_schedule.c **** #include <myMicroLIB.h>
  11:../../source/src/kernel/OS_CORE/schedule/os_schedule.c **** #include <os_time.h>
  12:../../source/src/kernel/OS_CORE/schedule/os_schedule.c **** #include <export.h>
  13:../../source/src/kernel/OS_CORE/schedule/os_schedule.c **** 
  14:../../source/src/kernel/OS_CORE/schedule/os_schedule.c **** extern volatile TCB *OSTCBCurPtr;
  15:../../source/src/kernel/OS_CORE/schedule/os_schedule.c **** extern volatile TCB *OSTCBHighRdyPtr;
  16:../../source/src/kernel/OS_CORE/schedule/os_schedule.c **** extern volatile int g_interrupt_count;
  17:../../source/src/kernel/OS_CORE/schedule/os_schedule.c **** extern UINT64 g_time_tick_count;
  18:../../source/src/kernel/OS_CORE/schedule/os_schedule.c **** 
  19:../../source/src/kernel/OS_CORE/schedule/os_schedule.c **** #if PRECISE_TIME_DELAY
  20:../../source/src/kernel/OS_CORE/schedule/os_schedule.c **** 	extern UINT64 num_pre_tick;
  21:../../source/src/kernel/OS_CORE/schedule/os_schedule.c **** #endif
  22:../../source/src/kernel/OS_CORE/schedule/os_schedule.c **** 
  23:../../source/src/kernel/OS_CORE/schedule/os_schedule.c **** volatile int g_schedule_lock = 0;// 0:do not lock;  !0: lock
  24:../../source/src/kernel/OS_CORE/schedule/os_schedule.c **** 
  25:../../source/src/kernel/OS_CORE/schedule/os_schedule.c **** void schedule(void)
ARM GAS  G:\Users\Jaxb\AppData\Local\Temp\cc71XBkm.s 			page 2


  26:../../source/src/kernel/OS_CORE/schedule/os_schedule.c **** {
  33              		.loc 1 26 0
  34              		.cfi_startproc
  35              		@ args = 0, pretend = 0, frame = 8
  36              		@ frame_needed = 1, uses_anonymous_args = 0
  37 0000 80B5     		push	{r7, lr}
  38              	.LCFI0:
  39              		.cfi_def_cfa_offset 8
  40              		.cfi_offset 7, -8
  41              		.cfi_offset 14, -4
  42 0002 82B0     		sub	sp, sp, #8
  43              	.LCFI1:
  44              		.cfi_def_cfa_offset 16
  45 0004 00AF     		add	r7, sp, #0
  46              	.LCFI2:
  47              		.cfi_def_cfa_register 7
  27:../../source/src/kernel/OS_CORE/schedule/os_schedule.c **** 	if(g_schedule_lock)
  48              		.loc 1 27 0
  49 0006 124B     		ldr	r3, .L6
  50 0008 1B68     		ldr	r3, [r3]
  51 000a 002B     		cmp	r3, #0
  52 000c 1CD1     		bne	.L5
  28:../../source/src/kernel/OS_CORE/schedule/os_schedule.c **** 		return ;
  29:../../source/src/kernel/OS_CORE/schedule/os_schedule.c **** 	CPU_SR_ALLOC();
  53              		.loc 1 29 0
  54 000e 0023     		movs	r3, #0
  55 0010 7B60     		str	r3, [r7, #4]
  30:../../source/src/kernel/OS_CORE/schedule/os_schedule.c **** 	CPU_CRITICAL_ENTER();
  56              		.loc 1 30 0
  57 0012 FFF7FEFF 		bl	CPU_SR_Save
  58 0016 7860     		str	r0, [r7, #4]
  31:../../source/src/kernel/OS_CORE/schedule/os_schedule.c **** 	OSTCBHighRdyPtr = get_highest_prio_ready_TCB();
  59              		.loc 1 31 0
  60 0018 FFF7FEFF 		bl	get_highest_prio_ready_TCB
  61 001c 0246     		mov	r2, r0
  62 001e 0D4B     		ldr	r3, .L6+4
  63 0020 1A60     		str	r2, [r3]
  32:../../source/src/kernel/OS_CORE/schedule/os_schedule.c **** 	if(OSTCBHighRdyPtr != OSTCBCurPtr)
  64              		.loc 1 32 0
  65 0022 0C4B     		ldr	r3, .L6+4
  66 0024 1A68     		ldr	r2, [r3]
  67 0026 0C4B     		ldr	r3, .L6+8
  68 0028 1B68     		ldr	r3, [r3]
  69 002a 9A42     		cmp	r2, r3
  70 002c 07D0     		beq	.L4
  33:../../source/src/kernel/OS_CORE/schedule/os_schedule.c **** 	{
  34:../../source/src/kernel/OS_CORE/schedule/os_schedule.c **** 		OSIntCtxSw();
  71              		.loc 1 34 0
  72 002e 0B4B     		ldr	r3, .L6+12
  73 0030 4FF08052 		mov	r2, #268435456
  74 0034 1A60     		str	r2, [r3]
  35:../../source/src/kernel/OS_CORE/schedule/os_schedule.c **** 		CPU_CRITICAL_EXIT();
  75              		.loc 1 35 0
  76 0036 7868     		ldr	r0, [r7, #4]
  77 0038 FFF7FEFF 		bl	CPU_SR_Restore
  36:../../source/src/kernel/OS_CORE/schedule/os_schedule.c **** 		return ;
  78              		.loc 1 36 0
ARM GAS  G:\Users\Jaxb\AppData\Local\Temp\cc71XBkm.s 			page 3


  79 003c 05E0     		b	.L1
  80              	.L4:
  37:../../source/src/kernel/OS_CORE/schedule/os_schedule.c **** 	}
  38:../../source/src/kernel/OS_CORE/schedule/os_schedule.c **** 	CPU_CRITICAL_EXIT();
  81              		.loc 1 38 0
  82 003e 7868     		ldr	r0, [r7, #4]
  83 0040 FFF7FEFF 		bl	CPU_SR_Restore
  39:../../source/src/kernel/OS_CORE/schedule/os_schedule.c **** 	return ;
  84              		.loc 1 39 0
  85 0044 00BF     		nop
  86 0046 00E0     		b	.L1
  87              	.L5:
  28:../../source/src/kernel/OS_CORE/schedule/os_schedule.c **** 	CPU_SR_ALLOC();
  88              		.loc 1 28 0
  89 0048 00BF     		nop
  90              	.L1:
  40:../../source/src/kernel/OS_CORE/schedule/os_schedule.c **** }
  91              		.loc 1 40 0
  92 004a 0837     		adds	r7, r7, #8
  93              	.LCFI3:
  94              		.cfi_def_cfa_offset 8
  95 004c BD46     		mov	sp, r7
  96              	.LCFI4:
  97              		.cfi_def_cfa_register 13
  98              		@ sp needed
  99 004e 80BD     		pop	{r7, pc}
 100              	.L7:
 101              		.align	2
 102              	.L6:
 103 0050 00000000 		.word	g_schedule_lock
 104 0054 00000000 		.word	OSTCBHighRdyPtr
 105 0058 00000000 		.word	OSTCBCurPtr
 106 005c 04ED00E0 		.word	-536810236
 107              		.cfi_endproc
 108              	.LFE13:
 109              		.size	schedule, .-schedule
 110              		.global	__rtmsym_schedule_name
 111              		.section	.rodata.name,"a",%progbits
 112              		.align	2
 113              		.type	__rtmsym_schedule_name, %object
 114              		.size	__rtmsym_schedule_name, 9
 115              	__rtmsym_schedule_name:
 116 0000 73636865 		.ascii	"schedule\000"
 116      64756C65 
 116      00
 117              		.global	__rtmsym_schedule
 118              		.section	.RTMSymTab,"a",%progbits
 119              		.align	2
 120              		.type	__rtmsym_schedule, %object
 121              		.size	__rtmsym_schedule, 8
 122              	__rtmsym_schedule:
 123 0000 00000000 		.word	schedule
 124 0004 00000000 		.word	__rtmsym_schedule_name
 125              		.section	.rodata
 126              		.align	2
 127              	.LC0:
 128 0000 2E2E2F2E 		.ascii	"../../source/src/kernel/OS_CORE/schedule/os_schedul"
ARM GAS  G:\Users\Jaxb\AppData\Local\Temp\cc71XBkm.s 			page 4


 128      2E2F736F 
 128      75726365 
 128      2F737263 
 128      2F6B6572 
 129 0033 652E6300 		.ascii	"e.c\000"
 130 0037 00       		.align	2
 131              	.LC1:
 132 0038 6572726F 		.ascii	"error fun name : sys_delay\012error para : state\012"
 132      72206675 
 132      6E206E61 
 132      6D65203A 
 132      20737973 
 133 0066 00       		.ascii	"\000"
 134 0067 00       		.align	2
 135              	.LC2:
 136 0068 6572726F 		.ascii	"error fun name : sys_delay\012error para : delay_ti"
 136      72206675 
 136      6E206E61 
 136      6D65203A 
 136      20737973 
 137 0098 636B735F 		.ascii	"cks_num\012\000"
 137      6E756D0A 
 137      00
 138              		.text
 139              		.align	1
 140              		.global	sys_delay
 141              		.syntax unified
 142              		.thumb
 143              		.thumb_func
 144              		.fpu softvfp
 145              		.type	sys_delay, %function
 146              	sys_delay:
 147              	.LFB14:
  41:../../source/src/kernel/OS_CORE/schedule/os_schedule.c **** EXPORT_SYMBOL(schedule);
  42:../../source/src/kernel/OS_CORE/schedule/os_schedule.c **** 
  43:../../source/src/kernel/OS_CORE/schedule/os_schedule.c **** #if PRECISE_TIME_DELAY
  44:../../source/src/kernel/OS_CORE/schedule/os_schedule.c **** void delay_ms(unsigned int ms)
  45:../../source/src/kernel/OS_CORE/schedule/os_schedule.c **** {
  46:../../source/src/kernel/OS_CORE/schedule/os_schedule.c **** #define MS_PER_TICK (1000u/TICK_PER_SEC)
  47:../../source/src/kernel/OS_CORE/schedule/os_schedule.c **** 	UINT64 num = 0.2 * (ms * num_pre_tick / MS_PER_TICK);
  48:../../source/src/kernel/OS_CORE/schedule/os_schedule.c **** 	while(--num);
  49:../../source/src/kernel/OS_CORE/schedule/os_schedule.c **** }
  50:../../source/src/kernel/OS_CORE/schedule/os_schedule.c **** 
  51:../../source/src/kernel/OS_CORE/schedule/os_schedule.c **** void delay_us(unsigned int us)
  52:../../source/src/kernel/OS_CORE/schedule/os_schedule.c **** {
  53:../../source/src/kernel/OS_CORE/schedule/os_schedule.c **** #define US_PER_TICK (1000000u/TICK_PER_SEC)
  54:../../source/src/kernel/OS_CORE/schedule/os_schedule.c **** 	UINT64 num = 0.2 * (us * num_pre_tick / US_PER_TICK);
  55:../../source/src/kernel/OS_CORE/schedule/os_schedule.c **** 	while(--num);
  56:../../source/src/kernel/OS_CORE/schedule/os_schedule.c **** }
  57:../../source/src/kernel/OS_CORE/schedule/os_schedule.c **** #endif
  58:../../source/src/kernel/OS_CORE/schedule/os_schedule.c **** 
  59:../../source/src/kernel/OS_CORE/schedule/os_schedule.c **** int sys_delay(unsigned int delay_ticks_num,TASK_STATE state)
  60:../../source/src/kernel/OS_CORE/schedule/os_schedule.c **** {
 148              		.loc 1 60 0
 149              		.cfi_startproc
 150              		@ args = 0, pretend = 0, frame = 16
 151              		@ frame_needed = 1, uses_anonymous_args = 0
ARM GAS  G:\Users\Jaxb\AppData\Local\Temp\cc71XBkm.s 			page 5


 152 0060 2DE99048 		push	{r4, r7, fp, lr}
 153              	.LCFI5:
 154              		.cfi_def_cfa_offset 16
 155              		.cfi_offset 4, -16
 156              		.cfi_offset 7, -12
 157              		.cfi_offset 11, -8
 158              		.cfi_offset 14, -4
 159 0064 84B0     		sub	sp, sp, #16
 160              	.LCFI6:
 161              		.cfi_def_cfa_offset 32
 162 0066 00AF     		add	r7, sp, #0
 163              	.LCFI7:
 164              		.cfi_def_cfa_register 7
 165 0068 7860     		str	r0, [r7, #4]
 166 006a 0B46     		mov	r3, r1
 167 006c FB70     		strb	r3, [r7, #3]
  61:../../source/src/kernel/OS_CORE/schedule/os_schedule.c **** 	ASSERT((STATE_DELAY == state) 						|| 
 168              		.loc 1 61 0
 169 006e FB78     		ldrb	r3, [r7, #3]	@ zero_extendqisi2
 170 0070 022B     		cmp	r3, #2
 171 0072 0CD0     		beq	.L9
 172              		.loc 1 61 0 is_stmt 0 discriminator 1
 173 0074 FB78     		ldrb	r3, [r7, #3]	@ zero_extendqisi2
 174 0076 052B     		cmp	r3, #5
 175 0078 09D0     		beq	.L9
 176              		.loc 1 61 0 discriminator 2
 177 007a FB78     		ldrb	r3, [r7, #3]	@ zero_extendqisi2
 178 007c 072B     		cmp	r3, #7
 179 007e 06D0     		beq	.L9
 180              		.loc 1 61 0 discriminator 3
 181 0080 FB78     		ldrb	r3, [r7, #3]	@ zero_extendqisi2
 182 0082 092B     		cmp	r3, #9
 183 0084 03D0     		beq	.L9
 184              		.loc 1 61 0 discriminator 4
 185 0086 4021     		movs	r1, #64
 186 0088 3348     		ldr	r0, .L15
 187 008a FFF7FEFF 		bl	_ASSERT
 188              	.L9:
  62:../../source/src/kernel/OS_CORE/schedule/os_schedule.c **** 		   (STATE_WAIT_MCB_TIMEOUT == state) 			|| 
  63:../../source/src/kernel/OS_CORE/schedule/os_schedule.c **** 		   (STATE_WAIT_MESSAGE_QUEUE_TIMEOUT == state) 	|| 
  64:../../source/src/kernel/OS_CORE/schedule/os_schedule.c **** 		   (STATE_PUT_MESSAGE_QUEUE_TIMEOUT == state));
  65:../../source/src/kernel/OS_CORE/schedule/os_schedule.c **** 	ASSERT(0 != delay_ticks_num);
 189              		.loc 1 65 0 is_stmt 1
 190 008e 7B68     		ldr	r3, [r7, #4]
 191 0090 002B     		cmp	r3, #0
 192 0092 03D1     		bne	.L10
 193              		.loc 1 65 0 is_stmt 0 discriminator 1
 194 0094 4121     		movs	r1, #65
 195 0096 3048     		ldr	r0, .L15
 196 0098 FFF7FEFF 		bl	_ASSERT
 197              	.L10:
  66:../../source/src/kernel/OS_CORE/schedule/os_schedule.c **** #if CONFIG_PARA_CHECK
  67:../../source/src/kernel/OS_CORE/schedule/os_schedule.c **** 	if(!((STATE_DELAY == state) || (STATE_WAIT_MCB_TIMEOUT == state) || 
 198              		.loc 1 67 0 is_stmt 1
 199 009c FB78     		ldrb	r3, [r7, #3]	@ zero_extendqisi2
 200 009e 022B     		cmp	r3, #2
 201 00a0 0ED0     		beq	.L11
ARM GAS  G:\Users\Jaxb\AppData\Local\Temp\cc71XBkm.s 			page 6


 202              		.loc 1 67 0 is_stmt 0 discriminator 1
 203 00a2 FB78     		ldrb	r3, [r7, #3]	@ zero_extendqisi2
 204 00a4 052B     		cmp	r3, #5
 205 00a6 0BD0     		beq	.L11
 206              		.loc 1 67 0 discriminator 2
 207 00a8 FB78     		ldrb	r3, [r7, #3]	@ zero_extendqisi2
 208 00aa 072B     		cmp	r3, #7
 209 00ac 08D0     		beq	.L11
 210              		.loc 1 67 0 discriminator 3
 211 00ae FB78     		ldrb	r3, [r7, #3]	@ zero_extendqisi2
 212 00b0 092B     		cmp	r3, #9
 213 00b2 05D0     		beq	.L11
  68:../../source/src/kernel/OS_CORE/schedule/os_schedule.c **** 		(STATE_WAIT_MESSAGE_QUEUE_TIMEOUT == state) || (STATE_PUT_MESSAGE_QUEUE_TIMEOUT == state)))
  69:../../source/src/kernel/OS_CORE/schedule/os_schedule.c **** 	{
  70:../../source/src/kernel/OS_CORE/schedule/os_schedule.c **** 		OS_ERROR_PARA_MESSAGE_DISPLAY(sys_delay,state);
 214              		.loc 1 70 0 is_stmt 1
 215 00b4 2948     		ldr	r0, .L15+4
 216 00b6 FFF7FEFF 		bl	ka_printf
  71:../../source/src/kernel/OS_CORE/schedule/os_schedule.c **** 		return -ERROR_VALUELESS_INPUT;
 217              		.loc 1 71 0
 218 00ba 6FF0FD03 		mvn	r3, #253
 219 00be 46E0     		b	.L12
 220              	.L11:
  72:../../source/src/kernel/OS_CORE/schedule/os_schedule.c **** 	}
  73:../../source/src/kernel/OS_CORE/schedule/os_schedule.c **** 	if(0 == delay_ticks_num)
 221              		.loc 1 73 0
 222 00c0 7B68     		ldr	r3, [r7, #4]
 223 00c2 002B     		cmp	r3, #0
 224 00c4 05D1     		bne	.L13
  74:../../source/src/kernel/OS_CORE/schedule/os_schedule.c **** 	{
  75:../../source/src/kernel/OS_CORE/schedule/os_schedule.c **** 		OS_ERROR_PARA_MESSAGE_DISPLAY(sys_delay,delay_ticks_num);
 225              		.loc 1 75 0
 226 00c6 2648     		ldr	r0, .L15+8
 227 00c8 FFF7FEFF 		bl	ka_printf
  76:../../source/src/kernel/OS_CORE/schedule/os_schedule.c **** 		return -ERROR_VALUELESS_INPUT;
 228              		.loc 1 76 0
 229 00cc 6FF0FD03 		mvn	r3, #253
 230 00d0 3DE0     		b	.L12
 231              	.L13:
  77:../../source/src/kernel/OS_CORE/schedule/os_schedule.c **** 	}
  78:../../source/src/kernel/OS_CORE/schedule/os_schedule.c **** #endif	
  79:../../source/src/kernel/OS_CORE/schedule/os_schedule.c **** 	CPU_SR_ALLOC();
 232              		.loc 1 79 0
 233 00d2 0023     		movs	r3, #0
 234 00d4 FB60     		str	r3, [r7, #12]
  80:../../source/src/kernel/OS_CORE/schedule/os_schedule.c **** 	CPU_CRITICAL_ENTER();
 235              		.loc 1 80 0
 236 00d6 FFF7FEFF 		bl	CPU_SR_Save
 237 00da F860     		str	r0, [r7, #12]
  81:../../source/src/kernel/OS_CORE/schedule/os_schedule.c **** 	if (g_interrupt_count > 0)
 238              		.loc 1 81 0
 239 00dc 214B     		ldr	r3, .L15+12
 240 00de 1B68     		ldr	r3, [r3]
 241 00e0 002B     		cmp	r3, #0
 242 00e2 05DD     		ble	.L14
  82:../../source/src/kernel/OS_CORE/schedule/os_schedule.c **** 	{
  83:../../source/src/kernel/OS_CORE/schedule/os_schedule.c **** 		CPU_CRITICAL_EXIT();
ARM GAS  G:\Users\Jaxb\AppData\Local\Temp\cc71XBkm.s 			page 7


 243              		.loc 1 83 0
 244 00e4 F868     		ldr	r0, [r7, #12]
 245 00e6 FFF7FEFF 		bl	CPU_SR_Restore
  84:../../source/src/kernel/OS_CORE/schedule/os_schedule.c **** 		return -ERROR_FUN_USE_IN_INTER;
 246              		.loc 1 84 0
 247 00ea 6FF0FC03 		mvn	r3, #252
 248 00ee 2EE0     		b	.L12
 249              	.L14:
  85:../../source/src/kernel/OS_CORE/schedule/os_schedule.c **** 	}
  86:../../source/src/kernel/OS_CORE/schedule/os_schedule.c **** 	OSTCBCurPtr->delay_reach_time = delay_ticks_num + g_time_tick_count;
 250              		.loc 1 86 0
 251 00f0 7B68     		ldr	r3, [r7, #4]
 252 00f2 1946     		mov	r1, r3
 253 00f4 4FF00002 		mov	r2, #0
 254 00f8 1B4B     		ldr	r3, .L15+16
 255 00fa D3E900BC 		ldrd	fp, [r3]
 256 00fe 1B48     		ldr	r0, .L15+20
 257 0100 0068     		ldr	r0, [r0]
 258 0102 1BEB0103 		adds	r3, fp, r1
 259 0106 4CEB0204 		adc	r4, ip, r2
 260 010a C0E91034 		strd	r3, [r0, #64]
  87:../../source/src/kernel/OS_CORE/schedule/os_schedule.c **** 	OSTCBCurPtr->task_state = state;
 261              		.loc 1 87 0
 262 010e 174B     		ldr	r3, .L15+20
 263 0110 1B68     		ldr	r3, [r3]
 264 0112 FA78     		ldrb	r2, [r7, #3]
 265 0114 1A74     		strb	r2, [r3, #16]
  88:../../source/src/kernel/OS_CORE/schedule/os_schedule.c **** 	delete_TCB_from_ready((TCB *)OSTCBCurPtr);
 266              		.loc 1 88 0
 267 0116 154B     		ldr	r3, .L15+20
 268 0118 1B68     		ldr	r3, [r3]
 269 011a 1846     		mov	r0, r3
 270 011c FFF7FEFF 		bl	delete_TCB_from_ready
  89:../../source/src/kernel/OS_CORE/schedule/os_schedule.c **** 	insert_into_delay_heap((TCB *)OSTCBCurPtr);
 271              		.loc 1 89 0
 272 0120 124B     		ldr	r3, .L15+20
 273 0122 1B68     		ldr	r3, [r3]
 274 0124 1846     		mov	r0, r3
 275 0126 FFF7FEFF 		bl	insert_into_delay_heap
  90:../../source/src/kernel/OS_CORE/schedule/os_schedule.c **** 	schedule();
 276              		.loc 1 90 0
 277 012a FFF7FEFF 		bl	schedule
  91:../../source/src/kernel/OS_CORE/schedule/os_schedule.c **** 	CPU_CRITICAL_EXIT();
 278              		.loc 1 91 0
 279 012e F868     		ldr	r0, [r7, #12]
 280 0130 FFF7FEFF 		bl	CPU_SR_Restore
  92:../../source/src/kernel/OS_CORE/schedule/os_schedule.c **** 	return (unsigned int)(OSTCBCurPtr->delay_reach_time - get_tick());
 281              		.loc 1 92 0
 282 0134 0D4B     		ldr	r3, .L15+20
 283 0136 1B68     		ldr	r3, [r3]
 284 0138 03F14004 		add	r4, r3, #64
 285 013c D4E90034 		ldrd	r3, [r4]
 286 0140 1C46     		mov	r4, r3
 287 0142 FFF7FEFF 		bl	get_tick
 288 0146 0246     		mov	r2, r0
 289 0148 0B46     		mov	r3, r1
 290 014a 1346     		mov	r3, r2
ARM GAS  G:\Users\Jaxb\AppData\Local\Temp\cc71XBkm.s 			page 8


 291 014c E31A     		subs	r3, r4, r3
 292              	.L12:
  93:../../source/src/kernel/OS_CORE/schedule/os_schedule.c **** }
 293              		.loc 1 93 0
 294 014e 1846     		mov	r0, r3
 295 0150 1037     		adds	r7, r7, #16
 296              	.LCFI8:
 297              		.cfi_def_cfa_offset 16
 298 0152 BD46     		mov	sp, r7
 299              	.LCFI9:
 300              		.cfi_def_cfa_register 13
 301              		@ sp needed
 302 0154 BDE89088 		pop	{r4, r7, fp, pc}
 303              	.L16:
 304              		.align	2
 305              	.L15:
 306 0158 00000000 		.word	.LC0
 307 015c 38000000 		.word	.LC1
 308 0160 68000000 		.word	.LC2
 309 0164 00000000 		.word	g_interrupt_count
 310 0168 00000000 		.word	g_time_tick_count
 311 016c 00000000 		.word	OSTCBCurPtr
 312              		.cfi_endproc
 313              	.LFE14:
 314              		.size	sys_delay, .-sys_delay
 315              		.global	__rtmsym_sys_delay_name
 316              		.section	.rodata.name
 317 0009 000000   		.align	2
 318              		.type	__rtmsym_sys_delay_name, %object
 319              		.size	__rtmsym_sys_delay_name, 10
 320              	__rtmsym_sys_delay_name:
 321 000c 7379735F 		.ascii	"sys_delay\000"
 321      64656C61 
 321      7900
 322              		.global	__rtmsym_sys_delay
 323              		.section	.RTMSymTab
 324              		.align	2
 325              		.type	__rtmsym_sys_delay, %object
 326              		.size	__rtmsym_sys_delay, 8
 327              	__rtmsym_sys_delay:
 328 0008 00000000 		.word	sys_delay
 329 000c 00000000 		.word	__rtmsym_sys_delay_name
 330              		.text
 331              		.align	1
 332              		.global	sys_suspend
 333              		.syntax unified
 334              		.thumb
 335              		.thumb_func
 336              		.fpu softvfp
 337              		.type	sys_suspend, %function
 338              	sys_suspend:
 339              	.LFB15:
  94:../../source/src/kernel/OS_CORE/schedule/os_schedule.c **** EXPORT_SYMBOL(sys_delay);
  95:../../source/src/kernel/OS_CORE/schedule/os_schedule.c **** 
  96:../../source/src/kernel/OS_CORE/schedule/os_schedule.c **** int sys_suspend(TASK_STATE state)
  97:../../source/src/kernel/OS_CORE/schedule/os_schedule.c **** {
 340              		.loc 1 97 0
ARM GAS  G:\Users\Jaxb\AppData\Local\Temp\cc71XBkm.s 			page 9


 341              		.cfi_startproc
 342              		@ args = 0, pretend = 0, frame = 16
 343              		@ frame_needed = 1, uses_anonymous_args = 0
 344 0170 80B5     		push	{r7, lr}
 345              	.LCFI10:
 346              		.cfi_def_cfa_offset 8
 347              		.cfi_offset 7, -8
 348              		.cfi_offset 14, -4
 349 0172 84B0     		sub	sp, sp, #16
 350              	.LCFI11:
 351              		.cfi_def_cfa_offset 24
 352 0174 00AF     		add	r7, sp, #0
 353              	.LCFI12:
 354              		.cfi_def_cfa_register 7
 355 0176 0346     		mov	r3, r0
 356 0178 FB71     		strb	r3, [r7, #7]
  98:../../source/src/kernel/OS_CORE/schedule/os_schedule.c **** 	ASSERT((STATE_SUSPEND_NORMAL == state) 				||
 357              		.loc 1 98 0
 358 017a FB79     		ldrb	r3, [r7, #7]	@ zero_extendqisi2
 359 017c 032B     		cmp	r3, #3
 360 017e 0FD0     		beq	.L18
 361              		.loc 1 98 0 is_stmt 0 discriminator 1
 362 0180 FB79     		ldrb	r3, [r7, #7]	@ zero_extendqisi2
 363 0182 042B     		cmp	r3, #4
 364 0184 0CD0     		beq	.L18
 365              		.loc 1 98 0 discriminator 2
 366 0186 FB79     		ldrb	r3, [r7, #7]	@ zero_extendqisi2
 367 0188 062B     		cmp	r3, #6
 368 018a 09D0     		beq	.L18
 369              		.loc 1 98 0 discriminator 3
 370 018c FB79     		ldrb	r3, [r7, #7]	@ zero_extendqisi2
 371 018e 082B     		cmp	r3, #8
 372 0190 06D0     		beq	.L18
 373              		.loc 1 98 0 discriminator 4
 374 0192 FB79     		ldrb	r3, [r7, #7]	@ zero_extendqisi2
 375 0194 0A2B     		cmp	r3, #10
 376 0196 03D0     		beq	.L18
 377              		.loc 1 98 0 discriminator 5
 378 0198 6621     		movs	r1, #102
 379 019a 1F48     		ldr	r0, .L22
 380 019c FFF7FEFF 		bl	_ASSERT
 381              	.L18:
  99:../../source/src/kernel/OS_CORE/schedule/os_schedule.c **** 		   (STATE_WAIT_MCB_FOREVER == state) 			||
 100:../../source/src/kernel/OS_CORE/schedule/os_schedule.c **** 		   (STATE_WAIT_MESSAGE_QUEUE_FOREVER == state) 	||
 101:../../source/src/kernel/OS_CORE/schedule/os_schedule.c **** 		   (STATE_PUT_MESSAGE_QUEUE_FOREVER == state)	||
 102:../../source/src/kernel/OS_CORE/schedule/os_schedule.c **** 		   (STATE_WAIT_MUTEX_FOREVER == state));
 103:../../source/src/kernel/OS_CORE/schedule/os_schedule.c **** #if CONFIG_PARA_CHECK
 104:../../source/src/kernel/OS_CORE/schedule/os_schedule.c **** 	if(!((STATE_SUSPEND_NORMAL == state) 				||
 382              		.loc 1 104 0 is_stmt 1
 383 01a0 FB79     		ldrb	r3, [r7, #7]	@ zero_extendqisi2
 384 01a2 032B     		cmp	r3, #3
 385 01a4 11D0     		beq	.L19
 386              		.loc 1 104 0 is_stmt 0 discriminator 1
 387 01a6 FB79     		ldrb	r3, [r7, #7]	@ zero_extendqisi2
 388 01a8 042B     		cmp	r3, #4
 389 01aa 0ED0     		beq	.L19
 105:../../source/src/kernel/OS_CORE/schedule/os_schedule.c **** 		   (STATE_WAIT_MCB_FOREVER == state) 			||
ARM GAS  G:\Users\Jaxb\AppData\Local\Temp\cc71XBkm.s 			page 10


 390              		.loc 1 105 0 is_stmt 1
 391 01ac FB79     		ldrb	r3, [r7, #7]	@ zero_extendqisi2
 392 01ae 062B     		cmp	r3, #6
 393 01b0 0BD0     		beq	.L19
 106:../../source/src/kernel/OS_CORE/schedule/os_schedule.c **** 		   (STATE_WAIT_MESSAGE_QUEUE_FOREVER == state) 	||
 394              		.loc 1 106 0
 395 01b2 FB79     		ldrb	r3, [r7, #7]	@ zero_extendqisi2
 396 01b4 082B     		cmp	r3, #8
 397 01b6 08D0     		beq	.L19
 104:../../source/src/kernel/OS_CORE/schedule/os_schedule.c **** 		   (STATE_WAIT_MCB_FOREVER == state) 			||
 398              		.loc 1 104 0
 399 01b8 FB79     		ldrb	r3, [r7, #7]	@ zero_extendqisi2
 400 01ba 0A2B     		cmp	r3, #10
 401 01bc 05D0     		beq	.L19
 107:../../source/src/kernel/OS_CORE/schedule/os_schedule.c **** 		   (STATE_PUT_MESSAGE_QUEUE_FOREVER == state)	||
 108:../../source/src/kernel/OS_CORE/schedule/os_schedule.c **** 		   (STATE_WAIT_MUTEX_FOREVER == state)))
 109:../../source/src/kernel/OS_CORE/schedule/os_schedule.c **** 	{
 110:../../source/src/kernel/OS_CORE/schedule/os_schedule.c **** 		OS_ERROR_PARA_MESSAGE_DISPLAY(sys_delay,state);
 402              		.loc 1 110 0
 403 01be 1748     		ldr	r0, .L22+4
 404 01c0 FFF7FEFF 		bl	ka_printf
 111:../../source/src/kernel/OS_CORE/schedule/os_schedule.c **** 		return -ERROR_VALUELESS_INPUT;
 405              		.loc 1 111 0
 406 01c4 6FF0FD03 		mvn	r3, #253
 407 01c8 22E0     		b	.L20
 408              	.L19:
 112:../../source/src/kernel/OS_CORE/schedule/os_schedule.c **** 	} 
 113:../../source/src/kernel/OS_CORE/schedule/os_schedule.c **** #endif
 114:../../source/src/kernel/OS_CORE/schedule/os_schedule.c **** 	CPU_SR_ALLOC();
 409              		.loc 1 114 0
 410 01ca 0023     		movs	r3, #0
 411 01cc FB60     		str	r3, [r7, #12]
 115:../../source/src/kernel/OS_CORE/schedule/os_schedule.c **** 	CPU_CRITICAL_ENTER();
 412              		.loc 1 115 0
 413 01ce FFF7FEFF 		bl	CPU_SR_Save
 414 01d2 F860     		str	r0, [r7, #12]
 116:../../source/src/kernel/OS_CORE/schedule/os_schedule.c **** 	if (g_interrupt_count > 0)
 415              		.loc 1 116 0
 416 01d4 124B     		ldr	r3, .L22+8
 417 01d6 1B68     		ldr	r3, [r3]
 418 01d8 002B     		cmp	r3, #0
 419 01da 05DD     		ble	.L21
 117:../../source/src/kernel/OS_CORE/schedule/os_schedule.c **** 	{
 118:../../source/src/kernel/OS_CORE/schedule/os_schedule.c **** 		CPU_CRITICAL_EXIT();
 420              		.loc 1 118 0
 421 01dc F868     		ldr	r0, [r7, #12]
 422 01de FFF7FEFF 		bl	CPU_SR_Restore
 119:../../source/src/kernel/OS_CORE/schedule/os_schedule.c **** 		return -ERROR_FUN_USE_IN_INTER;
 423              		.loc 1 119 0
 424 01e2 6FF0FC03 		mvn	r3, #252
 425 01e6 13E0     		b	.L20
 426              	.L21:
 120:../../source/src/kernel/OS_CORE/schedule/os_schedule.c **** 	}
 121:../../source/src/kernel/OS_CORE/schedule/os_schedule.c **** 	OSTCBCurPtr->task_state = state;
 427              		.loc 1 121 0
 428 01e8 0E4B     		ldr	r3, .L22+12
 429 01ea 1B68     		ldr	r3, [r3]
ARM GAS  G:\Users\Jaxb\AppData\Local\Temp\cc71XBkm.s 			page 11


 430 01ec FA79     		ldrb	r2, [r7, #7]
 431 01ee 1A74     		strb	r2, [r3, #16]
 122:../../source/src/kernel/OS_CORE/schedule/os_schedule.c **** 	delete_TCB_from_ready((TCB *)OSTCBCurPtr);
 432              		.loc 1 122 0
 433 01f0 0C4B     		ldr	r3, .L22+12
 434 01f2 1B68     		ldr	r3, [r3]
 435 01f4 1846     		mov	r0, r3
 436 01f6 FFF7FEFF 		bl	delete_TCB_from_ready
 123:../../source/src/kernel/OS_CORE/schedule/os_schedule.c **** 	insert_into_suspend_list((TCB *)OSTCBCurPtr);
 437              		.loc 1 123 0
 438 01fa 0A4B     		ldr	r3, .L22+12
 439 01fc 1B68     		ldr	r3, [r3]
 440 01fe 1846     		mov	r0, r3
 441 0200 FFF7FEFF 		bl	insert_into_suspend_list
 124:../../source/src/kernel/OS_CORE/schedule/os_schedule.c **** 	schedule();
 442              		.loc 1 124 0
 443 0204 FFF7FEFF 		bl	schedule
 125:../../source/src/kernel/OS_CORE/schedule/os_schedule.c **** 	CPU_CRITICAL_EXIT();
 444              		.loc 1 125 0
 445 0208 F868     		ldr	r0, [r7, #12]
 446 020a FFF7FEFF 		bl	CPU_SR_Restore
 126:../../source/src/kernel/OS_CORE/schedule/os_schedule.c **** 	return FUN_EXECUTE_SUCCESSFULLY;
 447              		.loc 1 126 0
 448 020e 0023     		movs	r3, #0
 449              	.L20:
 127:../../source/src/kernel/OS_CORE/schedule/os_schedule.c **** }
 450              		.loc 1 127 0
 451 0210 1846     		mov	r0, r3
 452 0212 1037     		adds	r7, r7, #16
 453              	.LCFI13:
 454              		.cfi_def_cfa_offset 8
 455 0214 BD46     		mov	sp, r7
 456              	.LCFI14:
 457              		.cfi_def_cfa_register 13
 458              		@ sp needed
 459 0216 80BD     		pop	{r7, pc}
 460              	.L23:
 461              		.align	2
 462              	.L22:
 463 0218 00000000 		.word	.LC0
 464 021c 38000000 		.word	.LC1
 465 0220 00000000 		.word	g_interrupt_count
 466 0224 00000000 		.word	OSTCBCurPtr
 467              		.cfi_endproc
 468              	.LFE15:
 469              		.size	sys_suspend, .-sys_suspend
 470              		.global	__rtmsym_sys_suspend_name
 471              		.section	.rodata.name
 472 0016 0000     		.align	2
 473              		.type	__rtmsym_sys_suspend_name, %object
 474              		.size	__rtmsym_sys_suspend_name, 12
 475              	__rtmsym_sys_suspend_name:
 476 0018 7379735F 		.ascii	"sys_suspend\000"
 476      73757370 
 476      656E6400 
 477              		.global	__rtmsym_sys_suspend
 478              		.section	.RTMSymTab
ARM GAS  G:\Users\Jaxb\AppData\Local\Temp\cc71XBkm.s 			page 12


 479              		.align	2
 480              		.type	__rtmsym_sys_suspend, %object
 481              		.size	__rtmsym_sys_suspend, 8
 482              	__rtmsym_sys_suspend:
 483 0010 00000000 		.word	sys_suspend
 484 0014 00000000 		.word	__rtmsym_sys_suspend_name
 485              		.text
 486              		.align	1
 487              		.global	task_creat_ready
 488              		.syntax unified
 489              		.thumb
 490              		.thumb_func
 491              		.fpu softvfp
 492              		.type	task_creat_ready, %function
 493              	task_creat_ready:
 494              	.LFB16:
 128:../../source/src/kernel/OS_CORE/schedule/os_schedule.c **** EXPORT_SYMBOL(sys_suspend);
 129:../../source/src/kernel/OS_CORE/schedule/os_schedule.c **** 
 130:../../source/src/kernel/OS_CORE/schedule/os_schedule.c **** int _must_check task_creat_ready(
 131:../../source/src/kernel/OS_CORE/schedule/os_schedule.c **** 	unsigned int stack_size,
 132:../../source/src/kernel/OS_CORE/schedule/os_schedule.c **** 	TASK_PRIO_TYPE prio,
 133:../../source/src/kernel/OS_CORE/schedule/os_schedule.c **** 	unsigned int timeslice_hope_time,
 134:../../source/src/kernel/OS_CORE/schedule/os_schedule.c **** 	const char *name,
 135:../../source/src/kernel/OS_CORE/schedule/os_schedule.c **** 	functionptr function,
 136:../../source/src/kernel/OS_CORE/schedule/os_schedule.c **** 	void *para,
 137:../../source/src/kernel/OS_CORE/schedule/os_schedule.c **** 	TCB **ptr)
 138:../../source/src/kernel/OS_CORE/schedule/os_schedule.c **** {
 495              		.loc 1 138 0
 496              		.cfi_startproc
 497              		@ args = 12, pretend = 0, frame = 32
 498              		@ frame_needed = 1, uses_anonymous_args = 0
 499 0228 80B5     		push	{r7, lr}
 500              	.LCFI15:
 501              		.cfi_def_cfa_offset 8
 502              		.cfi_offset 7, -8
 503              		.cfi_offset 14, -4
 504 022a 8CB0     		sub	sp, sp, #48
 505              	.LCFI16:
 506              		.cfi_def_cfa_offset 56
 507 022c 04AF     		add	r7, sp, #16
 508              	.LCFI17:
 509              		.cfi_def_cfa 7, 40
 510 022e F860     		str	r0, [r7, #12]
 511 0230 B960     		str	r1, [r7, #8]
 512 0232 7A60     		str	r2, [r7, #4]
 513 0234 3B60     		str	r3, [r7]
 139:../../source/src/kernel/OS_CORE/schedule/os_schedule.c **** 	int ret;
 140:../../source/src/kernel/OS_CORE/schedule/os_schedule.c **** 	CPU_SR_ALLOC();
 514              		.loc 1 140 0
 515 0236 0023     		movs	r3, #0
 516 0238 FB61     		str	r3, [r7, #28]
 141:../../source/src/kernel/OS_CORE/schedule/os_schedule.c **** 	CPU_CRITICAL_ENTER();
 517              		.loc 1 141 0
 518 023a FFF7FEFF 		bl	CPU_SR_Save
 519 023e F861     		str	r0, [r7, #28]
 142:../../source/src/kernel/OS_CORE/schedule/os_schedule.c **** 	if (g_interrupt_count > 0)
 520              		.loc 1 142 0
ARM GAS  G:\Users\Jaxb\AppData\Local\Temp\cc71XBkm.s 			page 13


 521 0240 1A4B     		ldr	r3, .L30
 522 0242 1B68     		ldr	r3, [r3]
 523 0244 002B     		cmp	r3, #0
 524 0246 05DD     		ble	.L25
 143:../../source/src/kernel/OS_CORE/schedule/os_schedule.c **** 	{
 144:../../source/src/kernel/OS_CORE/schedule/os_schedule.c **** 		CPU_CRITICAL_EXIT();
 525              		.loc 1 144 0
 526 0248 F869     		ldr	r0, [r7, #28]
 527 024a FFF7FEFF 		bl	CPU_SR_Restore
 145:../../source/src/kernel/OS_CORE/schedule/os_schedule.c **** 		return -ERROR_FUN_USE_IN_INTER;
 528              		.loc 1 145 0
 529 024e 6FF0FC03 		mvn	r3, #252
 530 0252 27E0     		b	.L26
 531              	.L25:
 146:../../source/src/kernel/OS_CORE/schedule/os_schedule.c **** 	}
 147:../../source/src/kernel/OS_CORE/schedule/os_schedule.c **** 	TCB *TCB_ptr = task_creat(stack_size,prio,timeslice_hope_time,name,function,para,STATE_READY);
 532              		.loc 1 147 0
 533 0254 0123     		movs	r3, #1
 534 0256 0293     		str	r3, [sp, #8]
 535 0258 FB6A     		ldr	r3, [r7, #44]
 536 025a 0193     		str	r3, [sp, #4]
 537 025c BB6A     		ldr	r3, [r7, #40]
 538 025e 0093     		str	r3, [sp]
 539 0260 3B68     		ldr	r3, [r7]
 540 0262 7A68     		ldr	r2, [r7, #4]
 541 0264 B968     		ldr	r1, [r7, #8]
 542 0266 F868     		ldr	r0, [r7, #12]
 543 0268 FFF7FEFF 		bl	task_creat
 544 026c B861     		str	r0, [r7, #24]
 148:../../source/src/kernel/OS_CORE/schedule/os_schedule.c **** 	if(NULL == TCB_ptr)
 545              		.loc 1 148 0
 546 026e BB69     		ldr	r3, [r7, #24]
 547 0270 002B     		cmp	r3, #0
 548 0272 02D1     		bne	.L27
 149:../../source/src/kernel/OS_CORE/schedule/os_schedule.c **** 	{
 150:../../source/src/kernel/OS_CORE/schedule/os_schedule.c **** 		return -ERROR_CREATE_TASK;
 549              		.loc 1 150 0
 550 0274 4FF0FF33 		mov	r3, #-1
 551 0278 14E0     		b	.L26
 552              	.L27:
 151:../../source/src/kernel/OS_CORE/schedule/os_schedule.c **** 	}
 152:../../source/src/kernel/OS_CORE/schedule/os_schedule.c **** 	if(NULL != ptr)
 553              		.loc 1 152 0
 554 027a 3B6B     		ldr	r3, [r7, #48]
 555 027c 002B     		cmp	r3, #0
 556 027e 02D0     		beq	.L28
 153:../../source/src/kernel/OS_CORE/schedule/os_schedule.c **** 	{
 154:../../source/src/kernel/OS_CORE/schedule/os_schedule.c **** 		*ptr = TCB_ptr;
 557              		.loc 1 154 0
 558 0280 3B6B     		ldr	r3, [r7, #48]
 559 0282 BA69     		ldr	r2, [r7, #24]
 560 0284 1A60     		str	r2, [r3]
 561              	.L28:
 155:../../source/src/kernel/OS_CORE/schedule/os_schedule.c **** 	}
 156:../../source/src/kernel/OS_CORE/schedule/os_schedule.c **** 	ret = insert_ready_TCB(TCB_ptr);
 562              		.loc 1 156 0
 563 0286 B869     		ldr	r0, [r7, #24]
ARM GAS  G:\Users\Jaxb\AppData\Local\Temp\cc71XBkm.s 			page 14


 564 0288 FFF7FEFF 		bl	insert_ready_TCB
 565 028c 7861     		str	r0, [r7, #20]
 157:../../source/src/kernel/OS_CORE/schedule/os_schedule.c **** 	if(0 != ret)
 566              		.loc 1 157 0
 567 028e 7B69     		ldr	r3, [r7, #20]
 568 0290 002B     		cmp	r3, #0
 569 0292 01D0     		beq	.L29
 158:../../source/src/kernel/OS_CORE/schedule/os_schedule.c **** 	{
 159:../../source/src/kernel/OS_CORE/schedule/os_schedule.c **** 		return ret;
 570              		.loc 1 159 0
 571 0294 7B69     		ldr	r3, [r7, #20]
 572 0296 05E0     		b	.L26
 573              	.L29:
 160:../../source/src/kernel/OS_CORE/schedule/os_schedule.c **** 	}
 161:../../source/src/kernel/OS_CORE/schedule/os_schedule.c **** 	schedule();
 574              		.loc 1 161 0
 575 0298 FFF7FEFF 		bl	schedule
 162:../../source/src/kernel/OS_CORE/schedule/os_schedule.c **** 	CPU_CRITICAL_EXIT();
 576              		.loc 1 162 0
 577 029c F869     		ldr	r0, [r7, #28]
 578 029e FFF7FEFF 		bl	CPU_SR_Restore
 163:../../source/src/kernel/OS_CORE/schedule/os_schedule.c **** 	return FUN_EXECUTE_SUCCESSFULLY;
 579              		.loc 1 163 0
 580 02a2 0023     		movs	r3, #0
 581              	.L26:
 164:../../source/src/kernel/OS_CORE/schedule/os_schedule.c **** }
 582              		.loc 1 164 0
 583 02a4 1846     		mov	r0, r3
 584 02a6 2037     		adds	r7, r7, #32
 585              	.LCFI18:
 586              		.cfi_def_cfa_offset 8
 587 02a8 BD46     		mov	sp, r7
 588              	.LCFI19:
 589              		.cfi_def_cfa_register 13
 590              		@ sp needed
 591 02aa 80BD     		pop	{r7, pc}
 592              	.L31:
 593              		.align	2
 594              	.L30:
 595 02ac 00000000 		.word	g_interrupt_count
 596              		.cfi_endproc
 597              	.LFE16:
 598              		.size	task_creat_ready, .-task_creat_ready
 599              		.global	__rtmsym_task_creat_ready_name
 600              		.section	.rodata.name
 601              		.align	2
 602              		.type	__rtmsym_task_creat_ready_name, %object
 603              		.size	__rtmsym_task_creat_ready_name, 17
 604              	__rtmsym_task_creat_ready_name:
 605 0024 7461736B 		.ascii	"task_creat_ready\000"
 605      5F637265 
 605      61745F72 
 605      65616479 
 605      00
 606              		.global	__rtmsym_task_creat_ready
 607              		.section	.RTMSymTab
 608              		.align	2
ARM GAS  G:\Users\Jaxb\AppData\Local\Temp\cc71XBkm.s 			page 15


 609              		.type	__rtmsym_task_creat_ready, %object
 610              		.size	__rtmsym_task_creat_ready, 8
 611              	__rtmsym_task_creat_ready:
 612 0018 00000000 		.word	task_creat_ready
 613 001c 00000000 		.word	__rtmsym_task_creat_ready_name
 614              		.text
 615              		.align	1
 616              		.global	task_init_ready
 617              		.syntax unified
 618              		.thumb
 619              		.thumb_func
 620              		.fpu softvfp
 621              		.type	task_init_ready, %function
 622              	task_init_ready:
 623              	.LFB17:
 165:../../source/src/kernel/OS_CORE/schedule/os_schedule.c **** EXPORT_SYMBOL(task_creat_ready);
 166:../../source/src/kernel/OS_CORE/schedule/os_schedule.c **** 
 167:../../source/src/kernel/OS_CORE/schedule/os_schedule.c **** int _must_check task_init_ready(
 168:../../source/src/kernel/OS_CORE/schedule/os_schedule.c **** 	TCB *TCB_ptr,
 169:../../source/src/kernel/OS_CORE/schedule/os_schedule.c **** 	unsigned int stack_size,
 170:../../source/src/kernel/OS_CORE/schedule/os_schedule.c **** 	TASK_PRIO_TYPE prio,
 171:../../source/src/kernel/OS_CORE/schedule/os_schedule.c **** 	unsigned int timeslice_hope_time,
 172:../../source/src/kernel/OS_CORE/schedule/os_schedule.c **** 	char *name,
 173:../../source/src/kernel/OS_CORE/schedule/os_schedule.c **** 	functionptr function,
 174:../../source/src/kernel/OS_CORE/schedule/os_schedule.c **** 	void *para)
 175:../../source/src/kernel/OS_CORE/schedule/os_schedule.c **** {	
 624              		.loc 1 175 0
 625              		.cfi_startproc
 626              		@ args = 12, pretend = 0, frame = 24
 627              		@ frame_needed = 1, uses_anonymous_args = 0
 628 02b0 80B5     		push	{r7, lr}
 629              	.LCFI20:
 630              		.cfi_def_cfa_offset 8
 631              		.cfi_offset 7, -8
 632              		.cfi_offset 14, -4
 633 02b2 8AB0     		sub	sp, sp, #40
 634              	.LCFI21:
 635              		.cfi_def_cfa_offset 48
 636 02b4 04AF     		add	r7, sp, #16
 637              	.LCFI22:
 638              		.cfi_def_cfa 7, 32
 639 02b6 F860     		str	r0, [r7, #12]
 640 02b8 B960     		str	r1, [r7, #8]
 641 02ba 7A60     		str	r2, [r7, #4]
 642 02bc 3B60     		str	r3, [r7]
 176:../../source/src/kernel/OS_CORE/schedule/os_schedule.c **** 	CPU_SR_ALLOC();
 643              		.loc 1 176 0
 644 02be 0023     		movs	r3, #0
 645 02c0 7B61     		str	r3, [r7, #20]
 177:../../source/src/kernel/OS_CORE/schedule/os_schedule.c **** 	CPU_CRITICAL_ENTER();
 646              		.loc 1 177 0
 647 02c2 FFF7FEFF 		bl	CPU_SR_Save
 648 02c6 7861     		str	r0, [r7, #20]
 178:../../source/src/kernel/OS_CORE/schedule/os_schedule.c **** 	if (g_interrupt_count > 0)
 649              		.loc 1 178 0
 650 02c8 1B4B     		ldr	r3, .L37
 651 02ca 1B68     		ldr	r3, [r3]
ARM GAS  G:\Users\Jaxb\AppData\Local\Temp\cc71XBkm.s 			page 16


 652 02cc 002B     		cmp	r3, #0
 653 02ce 05DD     		ble	.L33
 179:../../source/src/kernel/OS_CORE/schedule/os_schedule.c **** 	{
 180:../../source/src/kernel/OS_CORE/schedule/os_schedule.c **** 		CPU_CRITICAL_EXIT();
 654              		.loc 1 180 0
 655 02d0 7869     		ldr	r0, [r7, #20]
 656 02d2 FFF7FEFF 		bl	CPU_SR_Restore
 181:../../source/src/kernel/OS_CORE/schedule/os_schedule.c **** 		return -ERROR_FUN_USE_IN_INTER;
 657              		.loc 1 181 0
 658 02d6 6FF0FC03 		mvn	r3, #252
 659 02da 28E0     		b	.L34
 660              	.L33:
 182:../../source/src/kernel/OS_CORE/schedule/os_schedule.c **** 	}
 183:../../source/src/kernel/OS_CORE/schedule/os_schedule.c **** 	int ret;
 184:../../source/src/kernel/OS_CORE/schedule/os_schedule.c **** 	if(0 != task_init(TCB_ptr,stack_size,prio,timeslice_hope_time,name,function,para,STATE_READY))
 661              		.loc 1 184 0
 662 02dc 0123     		movs	r3, #1
 663 02de 0393     		str	r3, [sp, #12]
 664 02e0 BB6A     		ldr	r3, [r7, #40]
 665 02e2 0293     		str	r3, [sp, #8]
 666 02e4 7B6A     		ldr	r3, [r7, #36]
 667 02e6 0193     		str	r3, [sp, #4]
 668 02e8 3B6A     		ldr	r3, [r7, #32]
 669 02ea 0093     		str	r3, [sp]
 670 02ec 3B68     		ldr	r3, [r7]
 671 02ee 7A68     		ldr	r2, [r7, #4]
 672 02f0 B968     		ldr	r1, [r7, #8]
 673 02f2 F868     		ldr	r0, [r7, #12]
 674 02f4 FFF7FEFF 		bl	task_init
 675 02f8 0346     		mov	r3, r0
 676 02fa 002B     		cmp	r3, #0
 677 02fc 05D0     		beq	.L35
 185:../../source/src/kernel/OS_CORE/schedule/os_schedule.c **** 	{
 186:../../source/src/kernel/OS_CORE/schedule/os_schedule.c **** 		CPU_CRITICAL_EXIT();
 678              		.loc 1 186 0
 679 02fe 7869     		ldr	r0, [r7, #20]
 680 0300 FFF7FEFF 		bl	CPU_SR_Restore
 187:../../source/src/kernel/OS_CORE/schedule/os_schedule.c **** 		return -ERROR_TASK_CREATE;
 681              		.loc 1 187 0
 682 0304 4FF0FF33 		mov	r3, #-1
 683 0308 11E0     		b	.L34
 684              	.L35:
 188:../../source/src/kernel/OS_CORE/schedule/os_schedule.c **** 	}
 189:../../source/src/kernel/OS_CORE/schedule/os_schedule.c **** 	ret = insert_ready_TCB(TCB_ptr);
 685              		.loc 1 189 0
 686 030a F868     		ldr	r0, [r7, #12]
 687 030c FFF7FEFF 		bl	insert_ready_TCB
 688 0310 3861     		str	r0, [r7, #16]
 190:../../source/src/kernel/OS_CORE/schedule/os_schedule.c **** 	if(0 != ret)
 689              		.loc 1 190 0
 690 0312 3B69     		ldr	r3, [r7, #16]
 691 0314 002B     		cmp	r3, #0
 692 0316 04D0     		beq	.L36
 191:../../source/src/kernel/OS_CORE/schedule/os_schedule.c **** 	{
 192:../../source/src/kernel/OS_CORE/schedule/os_schedule.c **** 		CPU_CRITICAL_EXIT();
 693              		.loc 1 192 0
 694 0318 7869     		ldr	r0, [r7, #20]
ARM GAS  G:\Users\Jaxb\AppData\Local\Temp\cc71XBkm.s 			page 17


 695 031a FFF7FEFF 		bl	CPU_SR_Restore
 193:../../source/src/kernel/OS_CORE/schedule/os_schedule.c **** 		return ret;
 696              		.loc 1 193 0
 697 031e 3B69     		ldr	r3, [r7, #16]
 698 0320 05E0     		b	.L34
 699              	.L36:
 194:../../source/src/kernel/OS_CORE/schedule/os_schedule.c **** 	}
 195:../../source/src/kernel/OS_CORE/schedule/os_schedule.c **** 	schedule();
 700              		.loc 1 195 0
 701 0322 FFF7FEFF 		bl	schedule
 196:../../source/src/kernel/OS_CORE/schedule/os_schedule.c **** 	CPU_CRITICAL_EXIT();
 702              		.loc 1 196 0
 703 0326 7869     		ldr	r0, [r7, #20]
 704 0328 FFF7FEFF 		bl	CPU_SR_Restore
 197:../../source/src/kernel/OS_CORE/schedule/os_schedule.c **** 	return FUN_EXECUTE_SUCCESSFULLY;
 705              		.loc 1 197 0
 706 032c 0023     		movs	r3, #0
 707              	.L34:
 198:../../source/src/kernel/OS_CORE/schedule/os_schedule.c **** }
 708              		.loc 1 198 0
 709 032e 1846     		mov	r0, r3
 710 0330 1837     		adds	r7, r7, #24
 711              	.LCFI23:
 712              		.cfi_def_cfa_offset 8
 713 0332 BD46     		mov	sp, r7
 714              	.LCFI24:
 715              		.cfi_def_cfa_register 13
 716              		@ sp needed
 717 0334 80BD     		pop	{r7, pc}
 718              	.L38:
 719 0336 00BF     		.align	2
 720              	.L37:
 721 0338 00000000 		.word	g_interrupt_count
 722              		.cfi_endproc
 723              	.LFE17:
 724              		.size	task_init_ready, .-task_init_ready
 725              		.global	__rtmsym_task_init_ready_name
 726              		.section	.rodata.name
 727 0035 000000   		.align	2
 728              		.type	__rtmsym_task_init_ready_name, %object
 729              		.size	__rtmsym_task_init_ready_name, 16
 730              	__rtmsym_task_init_ready_name:
 731 0038 7461736B 		.ascii	"task_init_ready\000"
 731      5F696E69 
 731      745F7265 
 731      61647900 
 732              		.global	__rtmsym_task_init_ready
 733              		.section	.RTMSymTab
 734              		.align	2
 735              		.type	__rtmsym_task_init_ready, %object
 736              		.size	__rtmsym_task_init_ready, 8
 737              	__rtmsym_task_init_ready:
 738 0020 00000000 		.word	task_init_ready
 739 0024 00000000 		.word	__rtmsym_task_init_ready_name
 740              		.text
 741              		.align	1
 742              		.global	sys_schedule_lock
ARM GAS  G:\Users\Jaxb\AppData\Local\Temp\cc71XBkm.s 			page 18


 743              		.syntax unified
 744              		.thumb
 745              		.thumb_func
 746              		.fpu softvfp
 747              		.type	sys_schedule_lock, %function
 748              	sys_schedule_lock:
 749              	.LFB18:
 199:../../source/src/kernel/OS_CORE/schedule/os_schedule.c **** EXPORT_SYMBOL(task_init_ready);
 200:../../source/src/kernel/OS_CORE/schedule/os_schedule.c **** 
 201:../../source/src/kernel/OS_CORE/schedule/os_schedule.c **** void sys_schedule_lock(void)
 202:../../source/src/kernel/OS_CORE/schedule/os_schedule.c **** {
 750              		.loc 1 202 0
 751              		.cfi_startproc
 752              		@ args = 0, pretend = 0, frame = 0
 753              		@ frame_needed = 1, uses_anonymous_args = 0
 754              		@ link register save eliminated.
 755 033c 80B4     		push	{r7}
 756              	.LCFI25:
 757              		.cfi_def_cfa_offset 4
 758              		.cfi_offset 7, -4
 759 033e 00AF     		add	r7, sp, #0
 760              	.LCFI26:
 761              		.cfi_def_cfa_register 7
 203:../../source/src/kernel/OS_CORE/schedule/os_schedule.c **** 	++g_schedule_lock;
 762              		.loc 1 203 0
 763 0340 044B     		ldr	r3, .L40
 764 0342 1B68     		ldr	r3, [r3]
 765 0344 0133     		adds	r3, r3, #1
 766 0346 034A     		ldr	r2, .L40
 767 0348 1360     		str	r3, [r2]
 204:../../source/src/kernel/OS_CORE/schedule/os_schedule.c **** }
 768              		.loc 1 204 0
 769 034a 00BF     		nop
 770 034c BD46     		mov	sp, r7
 771              	.LCFI27:
 772              		.cfi_def_cfa_register 13
 773              		@ sp needed
 774 034e 80BC     		pop	{r7}
 775              	.LCFI28:
 776              		.cfi_restore 7
 777              		.cfi_def_cfa_offset 0
 778 0350 7047     		bx	lr
 779              	.L41:
 780 0352 00BF     		.align	2
 781              	.L40:
 782 0354 00000000 		.word	g_schedule_lock
 783              		.cfi_endproc
 784              	.LFE18:
 785              		.size	sys_schedule_lock, .-sys_schedule_lock
 786              		.align	1
 787              		.global	sys_schedule_unlock
 788              		.syntax unified
 789              		.thumb
 790              		.thumb_func
 791              		.fpu softvfp
 792              		.type	sys_schedule_unlock, %function
 793              	sys_schedule_unlock:
ARM GAS  G:\Users\Jaxb\AppData\Local\Temp\cc71XBkm.s 			page 19


 794              	.LFB19:
 205:../../source/src/kernel/OS_CORE/schedule/os_schedule.c **** 
 206:../../source/src/kernel/OS_CORE/schedule/os_schedule.c **** void sys_schedule_unlock(void)
 207:../../source/src/kernel/OS_CORE/schedule/os_schedule.c **** {
 795              		.loc 1 207 0
 796              		.cfi_startproc
 797              		@ args = 0, pretend = 0, frame = 0
 798              		@ frame_needed = 1, uses_anonymous_args = 0
 799              		@ link register save eliminated.
 800 0358 80B4     		push	{r7}
 801              	.LCFI29:
 802              		.cfi_def_cfa_offset 4
 803              		.cfi_offset 7, -4
 804 035a 00AF     		add	r7, sp, #0
 805              	.LCFI30:
 806              		.cfi_def_cfa_register 7
 208:../../source/src/kernel/OS_CORE/schedule/os_schedule.c **** 	--g_schedule_lock;
 807              		.loc 1 208 0
 808 035c 044B     		ldr	r3, .L43
 809 035e 1B68     		ldr	r3, [r3]
 810 0360 013B     		subs	r3, r3, #1
 811 0362 034A     		ldr	r2, .L43
 812 0364 1360     		str	r3, [r2]
 209:../../source/src/kernel/OS_CORE/schedule/os_schedule.c **** }
 813              		.loc 1 209 0
 814 0366 00BF     		nop
 815 0368 BD46     		mov	sp, r7
 816              	.LCFI31:
 817              		.cfi_def_cfa_register 13
 818              		@ sp needed
 819 036a 80BC     		pop	{r7}
 820              	.LCFI32:
 821              		.cfi_restore 7
 822              		.cfi_def_cfa_offset 0
 823 036c 7047     		bx	lr
 824              	.L44:
 825 036e 00BF     		.align	2
 826              	.L43:
 827 0370 00000000 		.word	g_schedule_lock
 828              		.cfi_endproc
 829              	.LFE19:
 830              		.size	sys_schedule_unlock, .-sys_schedule_unlock
 831              		.align	1
 832              		.global	sys_schedule_islock
 833              		.syntax unified
 834              		.thumb
 835              		.thumb_func
 836              		.fpu softvfp
 837              		.type	sys_schedule_islock, %function
 838              	sys_schedule_islock:
 839              	.LFB20:
 210:../../source/src/kernel/OS_CORE/schedule/os_schedule.c **** 
 211:../../source/src/kernel/OS_CORE/schedule/os_schedule.c **** int sys_schedule_islock(void)
 212:../../source/src/kernel/OS_CORE/schedule/os_schedule.c **** {
 840              		.loc 1 212 0
 841              		.cfi_startproc
 842              		@ args = 0, pretend = 0, frame = 0
ARM GAS  G:\Users\Jaxb\AppData\Local\Temp\cc71XBkm.s 			page 20


 843              		@ frame_needed = 1, uses_anonymous_args = 0
 844              		@ link register save eliminated.
 845 0374 80B4     		push	{r7}
 846              	.LCFI33:
 847              		.cfi_def_cfa_offset 4
 848              		.cfi_offset 7, -4
 849 0376 00AF     		add	r7, sp, #0
 850              	.LCFI34:
 851              		.cfi_def_cfa_register 7
 213:../../source/src/kernel/OS_CORE/schedule/os_schedule.c **** 	return (0 != g_schedule_lock);
 852              		.loc 1 213 0
 853 0378 054B     		ldr	r3, .L47
 854 037a 1B68     		ldr	r3, [r3]
 855 037c 002B     		cmp	r3, #0
 856 037e 14BF     		ite	ne
 857 0380 0123     		movne	r3, #1
 858 0382 0023     		moveq	r3, #0
 859 0384 DBB2     		uxtb	r3, r3
 214:../../source/src/kernel/OS_CORE/schedule/os_schedule.c **** }
 860              		.loc 1 214 0
 861 0386 1846     		mov	r0, r3
 862 0388 BD46     		mov	sp, r7
 863              	.LCFI35:
 864              		.cfi_def_cfa_register 13
 865              		@ sp needed
 866 038a 80BC     		pop	{r7}
 867              	.LCFI36:
 868              		.cfi_restore 7
 869              		.cfi_def_cfa_offset 0
 870 038c 7047     		bx	lr
 871              	.L48:
 872 038e 00BF     		.align	2
 873              	.L47:
 874 0390 00000000 		.word	g_schedule_lock
 875              		.cfi_endproc
 876              	.LFE20:
 877              		.size	sys_schedule_islock, .-sys_schedule_islock
 878              	.Letext0:
 879              		.file 2 "../../source/include/os_core/task_state.h"
 880              		.file 3 "../../source/include/os_cpu/kakaosstdint.h"
 881              		.file 4 "../../source/include/os_lib/double_linked_list.h"
 882              		.file 5 "../../source/include/os_core/TCB.h"
 883              		.file 6 "../../source/include/os_cpu/os_cpu_stm32.h"
 884              		.file 7 "../../source/include/os_core/export.h"
 885              		.section	.debug_info,"",%progbits
 886              	.Ldebug_info0:
 887 0000 4B060000 		.4byte	0x64b
 888 0004 0200     		.2byte	0x2
 889 0006 00000000 		.4byte	.Ldebug_abbrev0
 890 000a 04       		.byte	0x4
 891 000b 01       		.uleb128 0x1
 892 000c C0040000 		.4byte	.LASF75
 893 0010 0C       		.byte	0xc
 894 0011 15010000 		.4byte	.LASF76
 895 0015 94010000 		.4byte	.LASF77
 896 0019 00000000 		.4byte	.Ltext0
 897 001d 94030000 		.4byte	.Letext0
ARM GAS  G:\Users\Jaxb\AppData\Local\Temp\cc71XBkm.s 			page 21


 898 0021 00000000 		.4byte	.Ldebug_line0
 899 0025 02       		.uleb128 0x2
 900 0026 C6000000 		.4byte	.LASF78
 901 002a 07       		.byte	0x7
 902 002b 01       		.byte	0x1
 903 002c 73000000 		.4byte	0x73
 904 0030 02       		.byte	0x2
 905 0031 04       		.byte	0x4
 906 0032 73000000 		.4byte	0x73
 907 0036 03       		.uleb128 0x3
 908 0037 75020000 		.4byte	.LASF0
 909 003b 01       		.byte	0x1
 910 003c 03       		.uleb128 0x3
 911 003d 81020000 		.4byte	.LASF1
 912 0041 02       		.byte	0x2
 913 0042 03       		.uleb128 0x3
 914 0043 0F000000 		.4byte	.LASF2
 915 0047 03       		.byte	0x3
 916 0048 03       		.uleb128 0x3
 917 0049 2C040000 		.4byte	.LASF3
 918 004d 04       		.byte	0x4
 919 004e 03       		.uleb128 0x3
 920 004f 6D010000 		.4byte	.LASF4
 921 0053 05       		.byte	0x5
 922 0054 03       		.uleb128 0x3
 923 0055 79000000 		.4byte	.LASF5
 924 0059 06       		.byte	0x6
 925 005a 03       		.uleb128 0x3
 926 005b FF020000 		.4byte	.LASF6
 927 005f 07       		.byte	0x7
 928 0060 03       		.uleb128 0x3
 929 0061 D1000000 		.4byte	.LASF7
 930 0065 08       		.byte	0x8
 931 0066 03       		.uleb128 0x3
 932 0067 2E030000 		.4byte	.LASF8
 933 006b 09       		.byte	0x9
 934 006c 03       		.uleb128 0x3
 935 006d 7A050000 		.4byte	.LASF9
 936 0071 0A       		.byte	0xa
 937 0072 00       		.byte	0
 938 0073 04       		.uleb128 0x4
 939 0074 01       		.byte	0x1
 940 0075 08       		.byte	0x8
 941 0076 54020000 		.4byte	.LASF10
 942 007a 05       		.uleb128 0x5
 943 007b 07020000 		.4byte	.LASF15
 944 007f 02       		.byte	0x2
 945 0080 0F       		.byte	0xf
 946 0081 25000000 		.4byte	0x25
 947 0085 04       		.uleb128 0x4
 948 0086 01       		.byte	0x1
 949 0087 06       		.byte	0x6
 950 0088 99020000 		.4byte	.LASF11
 951 008c 04       		.uleb128 0x4
 952 008d 02       		.byte	0x2
 953 008e 05       		.byte	0x5
 954 008f 5D000000 		.4byte	.LASF12
ARM GAS  G:\Users\Jaxb\AppData\Local\Temp\cc71XBkm.s 			page 22


 955 0093 06       		.uleb128 0x6
 956 0094 04       		.byte	0x4
 957 0095 05       		.byte	0x5
 958 0096 696E7400 		.ascii	"int\000"
 959 009a 07       		.uleb128 0x7
 960 009b 93000000 		.4byte	0x93
 961 009f 04       		.uleb128 0x4
 962 00a0 08       		.byte	0x8
 963 00a1 05       		.byte	0x5
 964 00a2 C2010000 		.4byte	.LASF13
 965 00a6 04       		.uleb128 0x4
 966 00a7 02       		.byte	0x2
 967 00a8 07       		.byte	0x7
 968 00a9 4E030000 		.4byte	.LASF14
 969 00ad 05       		.uleb128 0x5
 970 00ae 9A000000 		.4byte	.LASF16
 971 00b2 03       		.byte	0x3
 972 00b3 0C       		.byte	0xc
 973 00b4 B8000000 		.4byte	0xb8
 974 00b8 04       		.uleb128 0x4
 975 00b9 04       		.byte	0x4
 976 00ba 07       		.byte	0x7
 977 00bb BC020000 		.4byte	.LASF17
 978 00bf 05       		.uleb128 0x5
 979 00c0 B0050000 		.4byte	.LASF18
 980 00c4 03       		.byte	0x3
 981 00c5 0D       		.byte	0xd
 982 00c6 CA000000 		.4byte	0xca
 983 00ca 04       		.uleb128 0x4
 984 00cb 08       		.byte	0x8
 985 00cc 07       		.byte	0x7
 986 00cd A5020000 		.4byte	.LASF19
 987 00d1 08       		.uleb128 0x8
 988 00d2 24000000 		.4byte	.LASF25
 989 00d6 08       		.byte	0x8
 990 00d7 04       		.byte	0x4
 991 00d8 04       		.byte	0x4
 992 00d9 FA000000 		.4byte	0xfa
 993 00dd 09       		.uleb128 0x9
 994 00de C8050000 		.4byte	.LASF20
 995 00e2 04       		.byte	0x4
 996 00e3 05       		.byte	0x5
 997 00e4 FA000000 		.4byte	0xfa
 998 00e8 02       		.byte	0x2
 999 00e9 23       		.byte	0x23
 1000 00ea 00       		.uleb128 0
 1001 00eb 09       		.uleb128 0x9
 1002 00ec 93050000 		.4byte	.LASF21
 1003 00f0 04       		.byte	0x4
 1004 00f1 05       		.byte	0x5
 1005 00f2 FA000000 		.4byte	0xfa
 1006 00f6 02       		.byte	0x2
 1007 00f7 23       		.byte	0x23
 1008 00f8 04       		.uleb128 0x4
 1009 00f9 00       		.byte	0
 1010 00fa 0A       		.uleb128 0xa
 1011 00fb 04       		.byte	0x4
ARM GAS  G:\Users\Jaxb\AppData\Local\Temp\cc71XBkm.s 			page 23


 1012 00fc D1000000 		.4byte	0xd1
 1013 0100 05       		.uleb128 0x5
 1014 0101 BB000000 		.4byte	.LASF22
 1015 0105 05       		.byte	0x5
 1016 0106 0B       		.byte	0xb
 1017 0107 B8000000 		.4byte	0xb8
 1018 010b 05       		.uleb128 0x5
 1019 010c 00000000 		.4byte	.LASF23
 1020 0110 05       		.byte	0x5
 1021 0111 0D       		.byte	0xd
 1022 0112 B8000000 		.4byte	0xb8
 1023 0116 05       		.uleb128 0x5
 1024 0117 8E040000 		.4byte	.LASF24
 1025 011b 05       		.byte	0x5
 1026 011c 0E       		.byte	0xe
 1027 011d 21010000 		.4byte	0x121
 1028 0121 0A       		.uleb128 0xa
 1029 0122 04       		.byte	0x4
 1030 0123 27010000 		.4byte	0x127
 1031 0127 0B       		.uleb128 0xb
 1032 0128 01       		.byte	0x1
 1033 0129 33010000 		.4byte	0x133
 1034 012d 0C       		.uleb128 0xc
 1035 012e 33010000 		.4byte	0x133
 1036 0132 00       		.byte	0
 1037 0133 0D       		.uleb128 0xd
 1038 0134 04       		.byte	0x4
 1039 0135 0E       		.uleb128 0xe
 1040 0136 A7040000 		.4byte	.LASF48
 1041 013a 05       		.byte	0x5
 1042 013b 14       		.byte	0x14
 1043 013c 9A000000 		.4byte	0x9a
 1044 0140 01       		.byte	0x1
 1045 0141 01       		.byte	0x1
 1046 0142 08       		.uleb128 0x8
 1047 0143 43040000 		.4byte	.LASF26
 1048 0147 48       		.byte	0x48
 1049 0148 05       		.byte	0x5
 1050 0149 37       		.byte	0x37
 1051 014a 21020000 		.4byte	0x221
 1052 014e 09       		.uleb128 0x9
 1053 014f DB020000 		.4byte	.LASF27
 1054 0153 05       		.byte	0x5
 1055 0154 38       		.byte	0x38
 1056 0155 21020000 		.4byte	0x221
 1057 0159 02       		.byte	0x2
 1058 015a 23       		.byte	0x23
 1059 015b 00       		.uleb128 0
 1060 015c 09       		.uleb128 0x9
 1061 015d 5D040000 		.4byte	.LASF28
 1062 0161 05       		.byte	0x5
 1063 0162 39       		.byte	0x39
 1064 0163 B8000000 		.4byte	0xb8
 1065 0167 02       		.byte	0x2
 1066 0168 23       		.byte	0x23
 1067 0169 04       		.uleb128 0x4
 1068 016a 09       		.uleb128 0x9
ARM GAS  G:\Users\Jaxb\AppData\Local\Temp\cc71XBkm.s 			page 24


 1069 016b 63010000 		.4byte	.LASF29
 1070 016f 05       		.byte	0x5
 1071 0170 3A       		.byte	0x3a
 1072 0171 21020000 		.4byte	0x221
 1073 0175 02       		.byte	0x2
 1074 0176 23       		.byte	0x23
 1075 0177 08       		.uleb128 0x8
 1076 0178 09       		.uleb128 0x9
 1077 0179 E4010000 		.4byte	.LASF30
 1078 017d 05       		.byte	0x5
 1079 017e 3B       		.byte	0x3b
 1080 017f 0B010000 		.4byte	0x10b
 1081 0183 02       		.byte	0x2
 1082 0184 23       		.byte	0x23
 1083 0185 0C       		.uleb128 0xc
 1084 0186 09       		.uleb128 0x9
 1085 0187 02040000 		.4byte	.LASF31
 1086 018b 05       		.byte	0x5
 1087 018c 3C       		.byte	0x3c
 1088 018d 7A000000 		.4byte	0x7a
 1089 0191 02       		.byte	0x2
 1090 0192 23       		.byte	0x23
 1091 0193 10       		.uleb128 0x10
 1092 0194 09       		.uleb128 0x9
 1093 0195 B7050000 		.4byte	.LASF32
 1094 0199 05       		.byte	0x5
 1095 019a 3D       		.byte	0x3d
 1096 019b 0B010000 		.4byte	0x10b
 1097 019f 02       		.byte	0x2
 1098 01a0 23       		.byte	0x23
 1099 01a1 14       		.uleb128 0x14
 1100 01a2 09       		.uleb128 0x9
 1101 01a3 EE030000 		.4byte	.LASF33
 1102 01a7 05       		.byte	0x5
 1103 01a8 3E       		.byte	0x3e
 1104 01a9 93000000 		.4byte	0x93
 1105 01ad 02       		.byte	0x2
 1106 01ae 23       		.byte	0x23
 1107 01af 18       		.uleb128 0x18
 1108 01b0 09       		.uleb128 0x9
 1109 01b1 E1020000 		.4byte	.LASF34
 1110 01b5 05       		.byte	0x5
 1111 01b6 3F       		.byte	0x3f
 1112 01b7 D1000000 		.4byte	0xd1
 1113 01bb 02       		.byte	0x2
 1114 01bc 23       		.byte	0x23
 1115 01bd 1C       		.uleb128 0x1c
 1116 01be 09       		.uleb128 0x9
 1117 01bf 9A040000 		.4byte	.LASF35
 1118 01c3 05       		.byte	0x5
 1119 01c4 40       		.byte	0x40
 1120 01c5 D1000000 		.4byte	0xd1
 1121 01c9 02       		.byte	0x2
 1122 01ca 23       		.byte	0x23
 1123 01cb 24       		.uleb128 0x24
 1124 01cc 09       		.uleb128 0x9
 1125 01cd 36020000 		.4byte	.LASF36
ARM GAS  G:\Users\Jaxb\AppData\Local\Temp\cc71XBkm.s 			page 25


 1126 01d1 05       		.byte	0x5
 1127 01d2 41       		.byte	0x41
 1128 01d3 27020000 		.4byte	0x227
 1129 01d7 02       		.byte	0x2
 1130 01d8 23       		.byte	0x23
 1131 01d9 2C       		.uleb128 0x2c
 1132 01da 09       		.uleb128 0x9
 1133 01db D0010000 		.4byte	.LASF37
 1134 01df 05       		.byte	0x5
 1135 01e0 42       		.byte	0x42
 1136 01e1 B8000000 		.4byte	0xb8
 1137 01e5 02       		.byte	0x2
 1138 01e6 23       		.byte	0x23
 1139 01e7 30       		.uleb128 0x30
 1140 01e8 09       		.uleb128 0x9
 1141 01e9 0D040000 		.4byte	.LASF38
 1142 01ed 05       		.byte	0x5
 1143 01ee 43       		.byte	0x43
 1144 01ef B8000000 		.4byte	0xb8
 1145 01f3 02       		.byte	0x2
 1146 01f4 23       		.byte	0x23
 1147 01f5 34       		.uleb128 0x34
 1148 01f6 09       		.uleb128 0x9
 1149 01f7 8D020000 		.4byte	.LASF39
 1150 01fb 05       		.byte	0x5
 1151 01fc 44       		.byte	0x44
 1152 01fd AD000000 		.4byte	0xad
 1153 0201 02       		.byte	0x2
 1154 0202 23       		.byte	0x23
 1155 0203 38       		.uleb128 0x38
 1156 0204 09       		.uleb128 0x9
 1157 0205 62020000 		.4byte	.LASF40
 1158 0209 05       		.byte	0x5
 1159 020a 45       		.byte	0x45
 1160 020b 3F020000 		.4byte	0x23f
 1161 020f 02       		.byte	0x2
 1162 0210 23       		.byte	0x23
 1163 0211 3C       		.uleb128 0x3c
 1164 0212 09       		.uleb128 0x9
 1165 0213 9F050000 		.4byte	.LASF41
 1166 0217 05       		.byte	0x5
 1167 0218 46       		.byte	0x46
 1168 0219 BF000000 		.4byte	0xbf
 1169 021d 02       		.byte	0x2
 1170 021e 23       		.byte	0x23
 1171 021f 40       		.uleb128 0x40
 1172 0220 00       		.byte	0
 1173 0221 0A       		.uleb128 0xa
 1174 0222 04       		.byte	0x4
 1175 0223 00010000 		.4byte	0x100
 1176 0227 0A       		.uleb128 0xa
 1177 0228 04       		.byte	0x4
 1178 0229 2D020000 		.4byte	0x22d
 1179 022d 04       		.uleb128 0x4
 1180 022e 01       		.byte	0x1
 1181 022f 08       		.byte	0x8
 1182 0230 20030000 		.4byte	.LASF42
ARM GAS  G:\Users\Jaxb\AppData\Local\Temp\cc71XBkm.s 			page 26


 1183 0234 0F       		.uleb128 0xf
 1184 0235 2D020000 		.4byte	0x22d
 1185 0239 10       		.uleb128 0x10
 1186 023a F0020000 		.4byte	.LASF79
 1187 023e 01       		.byte	0x1
 1188 023f 0A       		.uleb128 0xa
 1189 0240 04       		.byte	0x4
 1190 0241 39020000 		.4byte	0x239
 1191 0245 11       		.uleb128 0x11
 1192 0246 54434200 		.ascii	"TCB\000"
 1193 024a 05       		.byte	0x5
 1194 024b 47       		.byte	0x47
 1195 024c 42010000 		.4byte	0x142
 1196 0250 07       		.uleb128 0x7
 1197 0251 45020000 		.4byte	0x245
 1198 0255 05       		.uleb128 0x5
 1199 0256 61030000 		.4byte	.LASF43
 1200 025a 06       		.byte	0x6
 1201 025b 06       		.byte	0x6
 1202 025c B8000000 		.4byte	0xb8
 1203 0260 07       		.uleb128 0x7
 1204 0261 55020000 		.4byte	0x255
 1205 0265 05       		.uleb128 0x5
 1206 0266 D0030000 		.4byte	.LASF44
 1207 026a 06       		.byte	0x6
 1208 026b 07       		.byte	0x7
 1209 026c 60020000 		.4byte	0x260
 1210 0270 05       		.uleb128 0x5
 1211 0271 98050000 		.4byte	.LASF45
 1212 0275 06       		.byte	0x6
 1213 0276 08       		.byte	0x8
 1214 0277 55020000 		.4byte	0x255
 1215 027b 08       		.uleb128 0x8
 1216 027c 04010000 		.4byte	.LASF46
 1217 0280 08       		.byte	0x8
 1218 0281 07       		.byte	0x7
 1219 0282 08       		.byte	0x8
 1220 0283 A4020000 		.4byte	0x2a4
 1221 0287 09       		.uleb128 0x9
 1222 0288 F1010000 		.4byte	.LASF47
 1223 028c 07       		.byte	0x7
 1224 028d 0A       		.byte	0xa
 1225 028e 33010000 		.4byte	0x133
 1226 0292 02       		.byte	0x2
 1227 0293 23       		.byte	0x23
 1228 0294 00       		.uleb128 0
 1229 0295 09       		.uleb128 0x9
 1230 0296 36020000 		.4byte	.LASF36
 1231 029a 07       		.byte	0x7
 1232 029b 0B       		.byte	0xb
 1233 029c A9020000 		.4byte	0x2a9
 1234 02a0 02       		.byte	0x2
 1235 02a1 23       		.byte	0x23
 1236 02a2 04       		.uleb128 0x4
 1237 02a3 00       		.byte	0
 1238 02a4 0F       		.uleb128 0xf
 1239 02a5 7B020000 		.4byte	0x27b
ARM GAS  G:\Users\Jaxb\AppData\Local\Temp\cc71XBkm.s 			page 27


 1240 02a9 0A       		.uleb128 0xa
 1241 02aa 04       		.byte	0x4
 1242 02ab 34020000 		.4byte	0x234
 1243 02af 0E       		.uleb128 0xe
 1244 02b0 BC050000 		.4byte	.LASF49
 1245 02b4 01       		.byte	0x1
 1246 02b5 0E       		.byte	0xe
 1247 02b6 BC020000 		.4byte	0x2bc
 1248 02ba 01       		.byte	0x1
 1249 02bb 01       		.byte	0x1
 1250 02bc 0A       		.uleb128 0xa
 1251 02bd 04       		.byte	0x4
 1252 02be 50020000 		.4byte	0x250
 1253 02c2 0E       		.uleb128 0xe
 1254 02c3 AD030000 		.4byte	.LASF50
 1255 02c7 01       		.byte	0x1
 1256 02c8 0F       		.byte	0xf
 1257 02c9 BC020000 		.4byte	0x2bc
 1258 02cd 01       		.byte	0x1
 1259 02ce 01       		.byte	0x1
 1260 02cf 0E       		.uleb128 0xe
 1261 02d0 C9020000 		.4byte	.LASF51
 1262 02d4 01       		.byte	0x1
 1263 02d5 11       		.byte	0x11
 1264 02d6 BF000000 		.4byte	0xbf
 1265 02da 01       		.byte	0x1
 1266 02db 01       		.byte	0x1
 1267 02dc 12       		.uleb128 0x12
 1268 02dd 4D000000 		.4byte	.LASF52
 1269 02e1 01       		.byte	0x1
 1270 02e2 17       		.byte	0x17
 1271 02e3 9A000000 		.4byte	0x9a
 1272 02e7 01       		.byte	0x1
 1273 02e8 05       		.byte	0x5
 1274 02e9 03       		.byte	0x3
 1275 02ea 00000000 		.4byte	g_schedule_lock
 1276 02ee 13       		.uleb128 0x13
 1277 02ef 34020000 		.4byte	0x234
 1278 02f3 FE020000 		.4byte	0x2fe
 1279 02f7 14       		.uleb128 0x14
 1280 02f8 B8000000 		.4byte	0xb8
 1281 02fc 08       		.byte	0x8
 1282 02fd 00       		.byte	0
 1283 02fe 0F       		.uleb128 0xf
 1284 02ff EE020000 		.4byte	0x2ee
 1285 0303 12       		.uleb128 0x12
 1286 0304 4C010000 		.4byte	.LASF53
 1287 0308 01       		.byte	0x1
 1288 0309 29       		.byte	0x29
 1289 030a FE020000 		.4byte	0x2fe
 1290 030e 01       		.byte	0x1
 1291 030f 05       		.byte	0x5
 1292 0310 03       		.byte	0x3
 1293 0311 00000000 		.4byte	__rtmsym_schedule_name
 1294 0315 12       		.uleb128 0x12
 1295 0316 67000000 		.4byte	.LASF54
 1296 031a 01       		.byte	0x1
ARM GAS  G:\Users\Jaxb\AppData\Local\Temp\cc71XBkm.s 			page 28


 1297 031b 29       		.byte	0x29
 1298 031c A4020000 		.4byte	0x2a4
 1299 0320 01       		.byte	0x1
 1300 0321 05       		.byte	0x5
 1301 0322 03       		.byte	0x3
 1302 0323 00000000 		.4byte	__rtmsym_schedule
 1303 0327 13       		.uleb128 0x13
 1304 0328 34020000 		.4byte	0x234
 1305 032c 37030000 		.4byte	0x337
 1306 0330 14       		.uleb128 0x14
 1307 0331 B8000000 		.4byte	0xb8
 1308 0335 09       		.byte	0x9
 1309 0336 00       		.byte	0
 1310 0337 0F       		.uleb128 0xf
 1311 0338 27030000 		.4byte	0x327
 1312 033c 12       		.uleb128 0x12
 1313 033d 12020000 		.4byte	.LASF55
 1314 0341 01       		.byte	0x1
 1315 0342 5E       		.byte	0x5e
 1316 0343 37030000 		.4byte	0x337
 1317 0347 01       		.byte	0x1
 1318 0348 05       		.byte	0x5
 1319 0349 03       		.byte	0x3
 1320 034a 00000000 		.4byte	__rtmsym_sys_delay_name
 1321 034e 12       		.uleb128 0x12
 1322 034f BD030000 		.4byte	.LASF56
 1323 0353 01       		.byte	0x1
 1324 0354 5E       		.byte	0x5e
 1325 0355 A4020000 		.4byte	0x2a4
 1326 0359 01       		.byte	0x1
 1327 035a 05       		.byte	0x5
 1328 035b 03       		.byte	0x3
 1329 035c 00000000 		.4byte	__rtmsym_sys_delay
 1330 0360 13       		.uleb128 0x13
 1331 0361 34020000 		.4byte	0x234
 1332 0365 70030000 		.4byte	0x370
 1333 0369 14       		.uleb128 0x14
 1334 036a B8000000 		.4byte	0xb8
 1335 036e 0B       		.byte	0xb
 1336 036f 00       		.byte	0
 1337 0370 0F       		.uleb128 0xf
 1338 0371 60030000 		.4byte	0x360
 1339 0375 12       		.uleb128 0x12
 1340 0376 A1000000 		.4byte	.LASF57
 1341 037a 01       		.byte	0x1
 1342 037b 80       		.byte	0x80
 1343 037c 70030000 		.4byte	0x370
 1344 0380 01       		.byte	0x1
 1345 0381 05       		.byte	0x5
 1346 0382 03       		.byte	0x3
 1347 0383 00000000 		.4byte	__rtmsym_sys_suspend_name
 1348 0387 12       		.uleb128 0x12
 1349 0388 6C030000 		.4byte	.LASF58
 1350 038c 01       		.byte	0x1
 1351 038d 80       		.byte	0x80
 1352 038e A4020000 		.4byte	0x2a4
 1353 0392 01       		.byte	0x1
ARM GAS  G:\Users\Jaxb\AppData\Local\Temp\cc71XBkm.s 			page 29


 1354 0393 05       		.byte	0x5
 1355 0394 03       		.byte	0x3
 1356 0395 00000000 		.4byte	__rtmsym_sys_suspend
 1357 0399 13       		.uleb128 0x13
 1358 039a 34020000 		.4byte	0x234
 1359 039e A9030000 		.4byte	0x3a9
 1360 03a2 14       		.uleb128 0x14
 1361 03a3 B8000000 		.4byte	0xb8
 1362 03a7 10       		.byte	0x10
 1363 03a8 00       		.byte	0
 1364 03a9 0F       		.uleb128 0xf
 1365 03aa 99030000 		.4byte	0x399
 1366 03ae 12       		.uleb128 0x12
 1367 03af 2E000000 		.4byte	.LASF59
 1368 03b3 01       		.byte	0x1
 1369 03b4 A5       		.byte	0xa5
 1370 03b5 A9030000 		.4byte	0x3a9
 1371 03b9 01       		.byte	0x1
 1372 03ba 05       		.byte	0x5
 1373 03bb 03       		.byte	0x3
 1374 03bc 00000000 		.4byte	__rtmsym_task_creat_ready_name
 1375 03c0 12       		.uleb128 0x12
 1376 03c1 93030000 		.4byte	.LASF60
 1377 03c5 01       		.byte	0x1
 1378 03c6 A5       		.byte	0xa5
 1379 03c7 A4020000 		.4byte	0x2a4
 1380 03cb 01       		.byte	0x1
 1381 03cc 05       		.byte	0x5
 1382 03cd 03       		.byte	0x3
 1383 03ce 00000000 		.4byte	__rtmsym_task_creat_ready
 1384 03d2 13       		.uleb128 0x13
 1385 03d3 34020000 		.4byte	0x234
 1386 03d7 E2030000 		.4byte	0x3e2
 1387 03db 14       		.uleb128 0x14
 1388 03dc B8000000 		.4byte	0xb8
 1389 03e0 0F       		.byte	0xf
 1390 03e1 00       		.byte	0
 1391 03e2 0F       		.uleb128 0xf
 1392 03e3 D2030000 		.4byte	0x3d2
 1393 03e7 12       		.uleb128 0x12
 1394 03e8 68040000 		.4byte	.LASF61
 1395 03ec 01       		.byte	0x1
 1396 03ed C7       		.byte	0xc7
 1397 03ee E2030000 		.4byte	0x3e2
 1398 03f2 01       		.byte	0x1
 1399 03f3 05       		.byte	0x5
 1400 03f4 03       		.byte	0x3
 1401 03f5 00000000 		.4byte	__rtmsym_task_init_ready_name
 1402 03f9 12       		.uleb128 0x12
 1403 03fa 3B020000 		.4byte	.LASF62
 1404 03fe 01       		.byte	0x1
 1405 03ff C7       		.byte	0xc7
 1406 0400 A4020000 		.4byte	0x2a4
 1407 0404 01       		.byte	0x1
 1408 0405 05       		.byte	0x5
 1409 0406 03       		.byte	0x3
 1410 0407 00000000 		.4byte	__rtmsym_task_init_ready
ARM GAS  G:\Users\Jaxb\AppData\Local\Temp\cc71XBkm.s 			page 30


 1411 040b 15       		.uleb128 0x15
 1412 040c 01       		.byte	0x1
 1413 040d DA030000 		.4byte	.LASF80
 1414 0411 01       		.byte	0x1
 1415 0412 D3       		.byte	0xd3
 1416 0413 01       		.byte	0x1
 1417 0414 93000000 		.4byte	0x93
 1418 0418 74030000 		.4byte	.LFB20
 1419 041c 94030000 		.4byte	.LFE20
 1420 0420 00000000 		.4byte	.LLST7
 1421 0424 01       		.byte	0x1
 1422 0425 16       		.uleb128 0x16
 1423 0426 01       		.byte	0x1
 1424 0427 66050000 		.4byte	.LASF63
 1425 042b 01       		.byte	0x1
 1426 042c CE       		.byte	0xce
 1427 042d 01       		.byte	0x1
 1428 042e 58030000 		.4byte	.LFB19
 1429 0432 74030000 		.4byte	.LFE19
 1430 0436 44000000 		.4byte	.LLST6
 1431 043a 01       		.byte	0x1
 1432 043b 16       		.uleb128 0x16
 1433 043c 01       		.byte	0x1
 1434 043d 81030000 		.4byte	.LASF64
 1435 0441 01       		.byte	0x1
 1436 0442 C9       		.byte	0xc9
 1437 0443 01       		.byte	0x1
 1438 0444 3C030000 		.4byte	.LFB18
 1439 0448 58030000 		.4byte	.LFE18
 1440 044c 88000000 		.4byte	.LLST5
 1441 0450 01       		.byte	0x1
 1442 0451 17       		.uleb128 0x17
 1443 0452 01       		.byte	0x1
 1444 0453 CD050000 		.4byte	.LASF69
 1445 0457 01       		.byte	0x1
 1446 0458 A7       		.byte	0xa7
 1447 0459 01       		.byte	0x1
 1448 045a 93000000 		.4byte	0x93
 1449 045e B0020000 		.4byte	.LFB17
 1450 0462 3C030000 		.4byte	.LFE17
 1451 0466 CC000000 		.4byte	.LLST4
 1452 046a 01       		.byte	0x1
 1453 046b EE040000 		.4byte	0x4ee
 1454 046f 18       		.uleb128 0x18
 1455 0470 86040000 		.4byte	.LASF65
 1456 0474 01       		.byte	0x1
 1457 0475 A8       		.byte	0xa8
 1458 0476 EE040000 		.4byte	0x4ee
 1459 047a 02       		.byte	0x2
 1460 047b 91       		.byte	0x91
 1461 047c 6C       		.sleb128 -20
 1462 047d 18       		.uleb128 0x18
 1463 047e 5D040000 		.4byte	.LASF28
 1464 0482 01       		.byte	0x1
 1465 0483 A9       		.byte	0xa9
 1466 0484 B8000000 		.4byte	0xb8
 1467 0488 02       		.byte	0x2
ARM GAS  G:\Users\Jaxb\AppData\Local\Temp\cc71XBkm.s 			page 31


 1468 0489 91       		.byte	0x91
 1469 048a 68       		.sleb128 -24
 1470 048b 18       		.uleb128 0x18
 1471 048c B7050000 		.4byte	.LASF32
 1472 0490 01       		.byte	0x1
 1473 0491 AA       		.byte	0xaa
 1474 0492 0B010000 		.4byte	0x10b
 1475 0496 02       		.byte	0x2
 1476 0497 91       		.byte	0x91
 1477 0498 64       		.sleb128 -28
 1478 0499 18       		.uleb128 0x18
 1479 049a D0010000 		.4byte	.LASF37
 1480 049e 01       		.byte	0x1
 1481 049f AB       		.byte	0xab
 1482 04a0 B8000000 		.4byte	0xb8
 1483 04a4 02       		.byte	0x2
 1484 04a5 91       		.byte	0x91
 1485 04a6 60       		.sleb128 -32
 1486 04a7 18       		.uleb128 0x18
 1487 04a8 36020000 		.4byte	.LASF36
 1488 04ac 01       		.byte	0x1
 1489 04ad AC       		.byte	0xac
 1490 04ae 27020000 		.4byte	0x227
 1491 04b2 02       		.byte	0x2
 1492 04b3 91       		.byte	0x91
 1493 04b4 00       		.sleb128 0
 1494 04b5 18       		.uleb128 0x18
 1495 04b6 25030000 		.4byte	.LASF66
 1496 04ba 01       		.byte	0x1
 1497 04bb AD       		.byte	0xad
 1498 04bc 16010000 		.4byte	0x116
 1499 04c0 02       		.byte	0x2
 1500 04c1 91       		.byte	0x91
 1501 04c2 04       		.sleb128 4
 1502 04c3 18       		.uleb128 0x18
 1503 04c4 27040000 		.4byte	.LASF67
 1504 04c8 01       		.byte	0x1
 1505 04c9 AE       		.byte	0xae
 1506 04ca 33010000 		.4byte	0x133
 1507 04ce 02       		.byte	0x2
 1508 04cf 91       		.byte	0x91
 1509 04d0 08       		.sleb128 8
 1510 04d1 19       		.uleb128 0x19
 1511 04d2 B9040000 		.4byte	.LASF68
 1512 04d6 01       		.byte	0x1
 1513 04d7 B0       		.byte	0xb0
 1514 04d8 70020000 		.4byte	0x270
 1515 04dc 02       		.byte	0x2
 1516 04dd 91       		.byte	0x91
 1517 04de 74       		.sleb128 -12
 1518 04df 1A       		.uleb128 0x1a
 1519 04e0 72657400 		.ascii	"ret\000"
 1520 04e4 01       		.byte	0x1
 1521 04e5 B7       		.byte	0xb7
 1522 04e6 93000000 		.4byte	0x93
 1523 04ea 02       		.byte	0x2
 1524 04eb 91       		.byte	0x91
ARM GAS  G:\Users\Jaxb\AppData\Local\Temp\cc71XBkm.s 			page 32


 1525 04ec 70       		.sleb128 -16
 1526 04ed 00       		.byte	0
 1527 04ee 0A       		.uleb128 0xa
 1528 04ef 04       		.byte	0x4
 1529 04f0 45020000 		.4byte	0x245
 1530 04f4 17       		.uleb128 0x17
 1531 04f5 01       		.byte	0x1
 1532 04f6 F6010000 		.4byte	.LASF70
 1533 04fa 01       		.byte	0x1
 1534 04fb 82       		.byte	0x82
 1535 04fc 01       		.byte	0x1
 1536 04fd 93000000 		.4byte	0x93
 1537 0501 28020000 		.4byte	.LFB16
 1538 0505 B0020000 		.4byte	.LFE16
 1539 0509 1C010000 		.4byte	.LLST3
 1540 050d 01       		.byte	0x1
 1541 050e 9F050000 		.4byte	0x59f
 1542 0512 18       		.uleb128 0x18
 1543 0513 5D040000 		.4byte	.LASF28
 1544 0517 01       		.byte	0x1
 1545 0518 83       		.byte	0x83
 1546 0519 B8000000 		.4byte	0xb8
 1547 051d 02       		.byte	0x2
 1548 051e 91       		.byte	0x91
 1549 051f 64       		.sleb128 -28
 1550 0520 18       		.uleb128 0x18
 1551 0521 B7050000 		.4byte	.LASF32
 1552 0525 01       		.byte	0x1
 1553 0526 84       		.byte	0x84
 1554 0527 0B010000 		.4byte	0x10b
 1555 052b 02       		.byte	0x2
 1556 052c 91       		.byte	0x91
 1557 052d 60       		.sleb128 -32
 1558 052e 18       		.uleb128 0x18
 1559 052f D0010000 		.4byte	.LASF37
 1560 0533 01       		.byte	0x1
 1561 0534 85       		.byte	0x85
 1562 0535 B8000000 		.4byte	0xb8
 1563 0539 02       		.byte	0x2
 1564 053a 91       		.byte	0x91
 1565 053b 5C       		.sleb128 -36
 1566 053c 18       		.uleb128 0x18
 1567 053d 36020000 		.4byte	.LASF36
 1568 0541 01       		.byte	0x1
 1569 0542 86       		.byte	0x86
 1570 0543 A9020000 		.4byte	0x2a9
 1571 0547 02       		.byte	0x2
 1572 0548 91       		.byte	0x91
 1573 0549 58       		.sleb128 -40
 1574 054a 18       		.uleb128 0x18
 1575 054b 25030000 		.4byte	.LASF66
 1576 054f 01       		.byte	0x1
 1577 0550 87       		.byte	0x87
 1578 0551 16010000 		.4byte	0x116
 1579 0555 02       		.byte	0x2
 1580 0556 91       		.byte	0x91
 1581 0557 00       		.sleb128 0
ARM GAS  G:\Users\Jaxb\AppData\Local\Temp\cc71XBkm.s 			page 33


 1582 0558 18       		.uleb128 0x18
 1583 0559 27040000 		.4byte	.LASF67
 1584 055d 01       		.byte	0x1
 1585 055e 88       		.byte	0x88
 1586 055f 33010000 		.4byte	0x133
 1587 0563 02       		.byte	0x2
 1588 0564 91       		.byte	0x91
 1589 0565 04       		.sleb128 4
 1590 0566 1B       		.uleb128 0x1b
 1591 0567 70747200 		.ascii	"ptr\000"
 1592 056b 01       		.byte	0x1
 1593 056c 89       		.byte	0x89
 1594 056d 9F050000 		.4byte	0x59f
 1595 0571 02       		.byte	0x2
 1596 0572 91       		.byte	0x91
 1597 0573 08       		.sleb128 8
 1598 0574 1A       		.uleb128 0x1a
 1599 0575 72657400 		.ascii	"ret\000"
 1600 0579 01       		.byte	0x1
 1601 057a 8B       		.byte	0x8b
 1602 057b 93000000 		.4byte	0x93
 1603 057f 02       		.byte	0x2
 1604 0580 91       		.byte	0x91
 1605 0581 6C       		.sleb128 -20
 1606 0582 19       		.uleb128 0x19
 1607 0583 B9040000 		.4byte	.LASF68
 1608 0587 01       		.byte	0x1
 1609 0588 8C       		.byte	0x8c
 1610 0589 70020000 		.4byte	0x270
 1611 058d 02       		.byte	0x2
 1612 058e 91       		.byte	0x91
 1613 058f 74       		.sleb128 -12
 1614 0590 19       		.uleb128 0x19
 1615 0591 86040000 		.4byte	.LASF65
 1616 0595 01       		.byte	0x1
 1617 0596 93       		.byte	0x93
 1618 0597 EE040000 		.4byte	0x4ee
 1619 059b 02       		.byte	0x2
 1620 059c 91       		.byte	0x91
 1621 059d 70       		.sleb128 -16
 1622 059e 00       		.byte	0
 1623 059f 0A       		.uleb128 0xa
 1624 05a0 04       		.byte	0x4
 1625 05a1 EE040000 		.4byte	0x4ee
 1626 05a5 17       		.uleb128 0x17
 1627 05a6 01       		.byte	0x1
 1628 05a7 2A020000 		.4byte	.LASF71
 1629 05ab 01       		.byte	0x1
 1630 05ac 60       		.byte	0x60
 1631 05ad 01       		.byte	0x1
 1632 05ae 93000000 		.4byte	0x93
 1633 05b2 70010000 		.4byte	.LFB15
 1634 05b6 28020000 		.4byte	.LFE15
 1635 05ba 6C010000 		.4byte	.LLST2
 1636 05be 01       		.byte	0x1
 1637 05bf E0050000 		.4byte	0x5e0
 1638 05c3 18       		.uleb128 0x18
ARM GAS  G:\Users\Jaxb\AppData\Local\Temp\cc71XBkm.s 			page 34


 1639 05c4 21040000 		.4byte	.LASF72
 1640 05c8 01       		.byte	0x1
 1641 05c9 60       		.byte	0x60
 1642 05ca 7A000000 		.4byte	0x7a
 1643 05ce 02       		.byte	0x2
 1644 05cf 91       		.byte	0x91
 1645 05d0 6F       		.sleb128 -17
 1646 05d1 19       		.uleb128 0x19
 1647 05d2 B9040000 		.4byte	.LASF68
 1648 05d6 01       		.byte	0x1
 1649 05d7 72       		.byte	0x72
 1650 05d8 70020000 		.4byte	0x270
 1651 05dc 02       		.byte	0x2
 1652 05dd 91       		.byte	0x91
 1653 05de 74       		.sleb128 -12
 1654 05df 00       		.byte	0
 1655 05e0 17       		.uleb128 0x17
 1656 05e1 01       		.byte	0x1
 1657 05e2 F1000000 		.4byte	.LASF73
 1658 05e6 01       		.byte	0x1
 1659 05e7 3B       		.byte	0x3b
 1660 05e8 01       		.byte	0x1
 1661 05e9 93000000 		.4byte	0x93
 1662 05ed 60000000 		.4byte	.LFB14
 1663 05f1 70010000 		.4byte	.LFE14
 1664 05f5 BC010000 		.4byte	.LLST1
 1665 05f9 01       		.byte	0x1
 1666 05fa 29060000 		.4byte	0x629
 1667 05fe 18       		.uleb128 0x18
 1668 05ff 84010000 		.4byte	.LASF74
 1669 0603 01       		.byte	0x1
 1670 0604 3B       		.byte	0x3b
 1671 0605 B8000000 		.4byte	0xb8
 1672 0609 02       		.byte	0x2
 1673 060a 91       		.byte	0x91
 1674 060b 64       		.sleb128 -28
 1675 060c 18       		.uleb128 0x18
 1676 060d 21040000 		.4byte	.LASF72
 1677 0611 01       		.byte	0x1
 1678 0612 3B       		.byte	0x3b
 1679 0613 7A000000 		.4byte	0x7a
 1680 0617 02       		.byte	0x2
 1681 0618 91       		.byte	0x91
 1682 0619 63       		.sleb128 -29
 1683 061a 19       		.uleb128 0x19
 1684 061b B9040000 		.4byte	.LASF68
 1685 061f 01       		.byte	0x1
 1686 0620 4F       		.byte	0x4f
 1687 0621 70020000 		.4byte	0x270
 1688 0625 02       		.byte	0x2
 1689 0626 91       		.byte	0x91
 1690 0627 6C       		.sleb128 -20
 1691 0628 00       		.byte	0
 1692 0629 1C       		.uleb128 0x1c
 1693 062a 01       		.byte	0x1
 1694 062b FB000000 		.4byte	.LASF81
 1695 062f 01       		.byte	0x1
ARM GAS  G:\Users\Jaxb\AppData\Local\Temp\cc71XBkm.s 			page 35


 1696 0630 19       		.byte	0x19
 1697 0631 01       		.byte	0x1
 1698 0632 00000000 		.4byte	.LFB13
 1699 0636 60000000 		.4byte	.LFE13
 1700 063a 0C020000 		.4byte	.LLST0
 1701 063e 01       		.byte	0x1
 1702 063f 19       		.uleb128 0x19
 1703 0640 B9040000 		.4byte	.LASF68
 1704 0644 01       		.byte	0x1
 1705 0645 1D       		.byte	0x1d
 1706 0646 70020000 		.4byte	0x270
 1707 064a 02       		.byte	0x2
 1708 064b 91       		.byte	0x91
 1709 064c 74       		.sleb128 -12
 1710 064d 00       		.byte	0
 1711 064e 00       		.byte	0
 1712              		.section	.debug_abbrev,"",%progbits
 1713              	.Ldebug_abbrev0:
 1714 0000 01       		.uleb128 0x1
 1715 0001 11       		.uleb128 0x11
 1716 0002 01       		.byte	0x1
 1717 0003 25       		.uleb128 0x25
 1718 0004 0E       		.uleb128 0xe
 1719 0005 13       		.uleb128 0x13
 1720 0006 0B       		.uleb128 0xb
 1721 0007 03       		.uleb128 0x3
 1722 0008 0E       		.uleb128 0xe
 1723 0009 1B       		.uleb128 0x1b
 1724 000a 0E       		.uleb128 0xe
 1725 000b 11       		.uleb128 0x11
 1726 000c 01       		.uleb128 0x1
 1727 000d 12       		.uleb128 0x12
 1728 000e 01       		.uleb128 0x1
 1729 000f 10       		.uleb128 0x10
 1730 0010 06       		.uleb128 0x6
 1731 0011 00       		.byte	0
 1732 0012 00       		.byte	0
 1733 0013 02       		.uleb128 0x2
 1734 0014 04       		.uleb128 0x4
 1735 0015 01       		.byte	0x1
 1736 0016 03       		.uleb128 0x3
 1737 0017 0E       		.uleb128 0xe
 1738 0018 3E       		.uleb128 0x3e
 1739 0019 0B       		.uleb128 0xb
 1740 001a 0B       		.uleb128 0xb
 1741 001b 0B       		.uleb128 0xb
 1742 001c 49       		.uleb128 0x49
 1743 001d 13       		.uleb128 0x13
 1744 001e 3A       		.uleb128 0x3a
 1745 001f 0B       		.uleb128 0xb
 1746 0020 3B       		.uleb128 0x3b
 1747 0021 0B       		.uleb128 0xb
 1748 0022 01       		.uleb128 0x1
 1749 0023 13       		.uleb128 0x13
 1750 0024 00       		.byte	0
 1751 0025 00       		.byte	0
 1752 0026 03       		.uleb128 0x3
ARM GAS  G:\Users\Jaxb\AppData\Local\Temp\cc71XBkm.s 			page 36


 1753 0027 28       		.uleb128 0x28
 1754 0028 00       		.byte	0
 1755 0029 03       		.uleb128 0x3
 1756 002a 0E       		.uleb128 0xe
 1757 002b 1C       		.uleb128 0x1c
 1758 002c 0B       		.uleb128 0xb
 1759 002d 00       		.byte	0
 1760 002e 00       		.byte	0
 1761 002f 04       		.uleb128 0x4
 1762 0030 24       		.uleb128 0x24
 1763 0031 00       		.byte	0
 1764 0032 0B       		.uleb128 0xb
 1765 0033 0B       		.uleb128 0xb
 1766 0034 3E       		.uleb128 0x3e
 1767 0035 0B       		.uleb128 0xb
 1768 0036 03       		.uleb128 0x3
 1769 0037 0E       		.uleb128 0xe
 1770 0038 00       		.byte	0
 1771 0039 00       		.byte	0
 1772 003a 05       		.uleb128 0x5
 1773 003b 16       		.uleb128 0x16
 1774 003c 00       		.byte	0
 1775 003d 03       		.uleb128 0x3
 1776 003e 0E       		.uleb128 0xe
 1777 003f 3A       		.uleb128 0x3a
 1778 0040 0B       		.uleb128 0xb
 1779 0041 3B       		.uleb128 0x3b
 1780 0042 0B       		.uleb128 0xb
 1781 0043 49       		.uleb128 0x49
 1782 0044 13       		.uleb128 0x13
 1783 0045 00       		.byte	0
 1784 0046 00       		.byte	0
 1785 0047 06       		.uleb128 0x6
 1786 0048 24       		.uleb128 0x24
 1787 0049 00       		.byte	0
 1788 004a 0B       		.uleb128 0xb
 1789 004b 0B       		.uleb128 0xb
 1790 004c 3E       		.uleb128 0x3e
 1791 004d 0B       		.uleb128 0xb
 1792 004e 03       		.uleb128 0x3
 1793 004f 08       		.uleb128 0x8
 1794 0050 00       		.byte	0
 1795 0051 00       		.byte	0
 1796 0052 07       		.uleb128 0x7
 1797 0053 35       		.uleb128 0x35
 1798 0054 00       		.byte	0
 1799 0055 49       		.uleb128 0x49
 1800 0056 13       		.uleb128 0x13
 1801 0057 00       		.byte	0
 1802 0058 00       		.byte	0
 1803 0059 08       		.uleb128 0x8
 1804 005a 13       		.uleb128 0x13
 1805 005b 01       		.byte	0x1
 1806 005c 03       		.uleb128 0x3
 1807 005d 0E       		.uleb128 0xe
 1808 005e 0B       		.uleb128 0xb
 1809 005f 0B       		.uleb128 0xb
ARM GAS  G:\Users\Jaxb\AppData\Local\Temp\cc71XBkm.s 			page 37


 1810 0060 3A       		.uleb128 0x3a
 1811 0061 0B       		.uleb128 0xb
 1812 0062 3B       		.uleb128 0x3b
 1813 0063 0B       		.uleb128 0xb
 1814 0064 01       		.uleb128 0x1
 1815 0065 13       		.uleb128 0x13
 1816 0066 00       		.byte	0
 1817 0067 00       		.byte	0
 1818 0068 09       		.uleb128 0x9
 1819 0069 0D       		.uleb128 0xd
 1820 006a 00       		.byte	0
 1821 006b 03       		.uleb128 0x3
 1822 006c 0E       		.uleb128 0xe
 1823 006d 3A       		.uleb128 0x3a
 1824 006e 0B       		.uleb128 0xb
 1825 006f 3B       		.uleb128 0x3b
 1826 0070 0B       		.uleb128 0xb
 1827 0071 49       		.uleb128 0x49
 1828 0072 13       		.uleb128 0x13
 1829 0073 38       		.uleb128 0x38
 1830 0074 0A       		.uleb128 0xa
 1831 0075 00       		.byte	0
 1832 0076 00       		.byte	0
 1833 0077 0A       		.uleb128 0xa
 1834 0078 0F       		.uleb128 0xf
 1835 0079 00       		.byte	0
 1836 007a 0B       		.uleb128 0xb
 1837 007b 0B       		.uleb128 0xb
 1838 007c 49       		.uleb128 0x49
 1839 007d 13       		.uleb128 0x13
 1840 007e 00       		.byte	0
 1841 007f 00       		.byte	0
 1842 0080 0B       		.uleb128 0xb
 1843 0081 15       		.uleb128 0x15
 1844 0082 01       		.byte	0x1
 1845 0083 27       		.uleb128 0x27
 1846 0084 0C       		.uleb128 0xc
 1847 0085 01       		.uleb128 0x1
 1848 0086 13       		.uleb128 0x13
 1849 0087 00       		.byte	0
 1850 0088 00       		.byte	0
 1851 0089 0C       		.uleb128 0xc
 1852 008a 05       		.uleb128 0x5
 1853 008b 00       		.byte	0
 1854 008c 49       		.uleb128 0x49
 1855 008d 13       		.uleb128 0x13
 1856 008e 00       		.byte	0
 1857 008f 00       		.byte	0
 1858 0090 0D       		.uleb128 0xd
 1859 0091 0F       		.uleb128 0xf
 1860 0092 00       		.byte	0
 1861 0093 0B       		.uleb128 0xb
 1862 0094 0B       		.uleb128 0xb
 1863 0095 00       		.byte	0
 1864 0096 00       		.byte	0
 1865 0097 0E       		.uleb128 0xe
 1866 0098 34       		.uleb128 0x34
ARM GAS  G:\Users\Jaxb\AppData\Local\Temp\cc71XBkm.s 			page 38


 1867 0099 00       		.byte	0
 1868 009a 03       		.uleb128 0x3
 1869 009b 0E       		.uleb128 0xe
 1870 009c 3A       		.uleb128 0x3a
 1871 009d 0B       		.uleb128 0xb
 1872 009e 3B       		.uleb128 0x3b
 1873 009f 0B       		.uleb128 0xb
 1874 00a0 49       		.uleb128 0x49
 1875 00a1 13       		.uleb128 0x13
 1876 00a2 3F       		.uleb128 0x3f
 1877 00a3 0C       		.uleb128 0xc
 1878 00a4 3C       		.uleb128 0x3c
 1879 00a5 0C       		.uleb128 0xc
 1880 00a6 00       		.byte	0
 1881 00a7 00       		.byte	0
 1882 00a8 0F       		.uleb128 0xf
 1883 00a9 26       		.uleb128 0x26
 1884 00aa 00       		.byte	0
 1885 00ab 49       		.uleb128 0x49
 1886 00ac 13       		.uleb128 0x13
 1887 00ad 00       		.byte	0
 1888 00ae 00       		.byte	0
 1889 00af 10       		.uleb128 0x10
 1890 00b0 13       		.uleb128 0x13
 1891 00b1 00       		.byte	0
 1892 00b2 03       		.uleb128 0x3
 1893 00b3 0E       		.uleb128 0xe
 1894 00b4 3C       		.uleb128 0x3c
 1895 00b5 0C       		.uleb128 0xc
 1896 00b6 00       		.byte	0
 1897 00b7 00       		.byte	0
 1898 00b8 11       		.uleb128 0x11
 1899 00b9 16       		.uleb128 0x16
 1900 00ba 00       		.byte	0
 1901 00bb 03       		.uleb128 0x3
 1902 00bc 08       		.uleb128 0x8
 1903 00bd 3A       		.uleb128 0x3a
 1904 00be 0B       		.uleb128 0xb
 1905 00bf 3B       		.uleb128 0x3b
 1906 00c0 0B       		.uleb128 0xb
 1907 00c1 49       		.uleb128 0x49
 1908 00c2 13       		.uleb128 0x13
 1909 00c3 00       		.byte	0
 1910 00c4 00       		.byte	0
 1911 00c5 12       		.uleb128 0x12
 1912 00c6 34       		.uleb128 0x34
 1913 00c7 00       		.byte	0
 1914 00c8 03       		.uleb128 0x3
 1915 00c9 0E       		.uleb128 0xe
 1916 00ca 3A       		.uleb128 0x3a
 1917 00cb 0B       		.uleb128 0xb
 1918 00cc 3B       		.uleb128 0x3b
 1919 00cd 0B       		.uleb128 0xb
 1920 00ce 49       		.uleb128 0x49
 1921 00cf 13       		.uleb128 0x13
 1922 00d0 3F       		.uleb128 0x3f
 1923 00d1 0C       		.uleb128 0xc
ARM GAS  G:\Users\Jaxb\AppData\Local\Temp\cc71XBkm.s 			page 39


 1924 00d2 02       		.uleb128 0x2
 1925 00d3 0A       		.uleb128 0xa
 1926 00d4 00       		.byte	0
 1927 00d5 00       		.byte	0
 1928 00d6 13       		.uleb128 0x13
 1929 00d7 01       		.uleb128 0x1
 1930 00d8 01       		.byte	0x1
 1931 00d9 49       		.uleb128 0x49
 1932 00da 13       		.uleb128 0x13
 1933 00db 01       		.uleb128 0x1
 1934 00dc 13       		.uleb128 0x13
 1935 00dd 00       		.byte	0
 1936 00de 00       		.byte	0
 1937 00df 14       		.uleb128 0x14
 1938 00e0 21       		.uleb128 0x21
 1939 00e1 00       		.byte	0
 1940 00e2 49       		.uleb128 0x49
 1941 00e3 13       		.uleb128 0x13
 1942 00e4 2F       		.uleb128 0x2f
 1943 00e5 0B       		.uleb128 0xb
 1944 00e6 00       		.byte	0
 1945 00e7 00       		.byte	0
 1946 00e8 15       		.uleb128 0x15
 1947 00e9 2E       		.uleb128 0x2e
 1948 00ea 00       		.byte	0
 1949 00eb 3F       		.uleb128 0x3f
 1950 00ec 0C       		.uleb128 0xc
 1951 00ed 03       		.uleb128 0x3
 1952 00ee 0E       		.uleb128 0xe
 1953 00ef 3A       		.uleb128 0x3a
 1954 00f0 0B       		.uleb128 0xb
 1955 00f1 3B       		.uleb128 0x3b
 1956 00f2 0B       		.uleb128 0xb
 1957 00f3 27       		.uleb128 0x27
 1958 00f4 0C       		.uleb128 0xc
 1959 00f5 49       		.uleb128 0x49
 1960 00f6 13       		.uleb128 0x13
 1961 00f7 11       		.uleb128 0x11
 1962 00f8 01       		.uleb128 0x1
 1963 00f9 12       		.uleb128 0x12
 1964 00fa 01       		.uleb128 0x1
 1965 00fb 40       		.uleb128 0x40
 1966 00fc 06       		.uleb128 0x6
 1967 00fd 9742     		.uleb128 0x2117
 1968 00ff 0C       		.uleb128 0xc
 1969 0100 00       		.byte	0
 1970 0101 00       		.byte	0
 1971 0102 16       		.uleb128 0x16
 1972 0103 2E       		.uleb128 0x2e
 1973 0104 00       		.byte	0
 1974 0105 3F       		.uleb128 0x3f
 1975 0106 0C       		.uleb128 0xc
 1976 0107 03       		.uleb128 0x3
 1977 0108 0E       		.uleb128 0xe
 1978 0109 3A       		.uleb128 0x3a
 1979 010a 0B       		.uleb128 0xb
 1980 010b 3B       		.uleb128 0x3b
ARM GAS  G:\Users\Jaxb\AppData\Local\Temp\cc71XBkm.s 			page 40


 1981 010c 0B       		.uleb128 0xb
 1982 010d 27       		.uleb128 0x27
 1983 010e 0C       		.uleb128 0xc
 1984 010f 11       		.uleb128 0x11
 1985 0110 01       		.uleb128 0x1
 1986 0111 12       		.uleb128 0x12
 1987 0112 01       		.uleb128 0x1
 1988 0113 40       		.uleb128 0x40
 1989 0114 06       		.uleb128 0x6
 1990 0115 9742     		.uleb128 0x2117
 1991 0117 0C       		.uleb128 0xc
 1992 0118 00       		.byte	0
 1993 0119 00       		.byte	0
 1994 011a 17       		.uleb128 0x17
 1995 011b 2E       		.uleb128 0x2e
 1996 011c 01       		.byte	0x1
 1997 011d 3F       		.uleb128 0x3f
 1998 011e 0C       		.uleb128 0xc
 1999 011f 03       		.uleb128 0x3
 2000 0120 0E       		.uleb128 0xe
 2001 0121 3A       		.uleb128 0x3a
 2002 0122 0B       		.uleb128 0xb
 2003 0123 3B       		.uleb128 0x3b
 2004 0124 0B       		.uleb128 0xb
 2005 0125 27       		.uleb128 0x27
 2006 0126 0C       		.uleb128 0xc
 2007 0127 49       		.uleb128 0x49
 2008 0128 13       		.uleb128 0x13
 2009 0129 11       		.uleb128 0x11
 2010 012a 01       		.uleb128 0x1
 2011 012b 12       		.uleb128 0x12
 2012 012c 01       		.uleb128 0x1
 2013 012d 40       		.uleb128 0x40
 2014 012e 06       		.uleb128 0x6
 2015 012f 9642     		.uleb128 0x2116
 2016 0131 0C       		.uleb128 0xc
 2017 0132 01       		.uleb128 0x1
 2018 0133 13       		.uleb128 0x13
 2019 0134 00       		.byte	0
 2020 0135 00       		.byte	0
 2021 0136 18       		.uleb128 0x18
 2022 0137 05       		.uleb128 0x5
 2023 0138 00       		.byte	0
 2024 0139 03       		.uleb128 0x3
 2025 013a 0E       		.uleb128 0xe
 2026 013b 3A       		.uleb128 0x3a
 2027 013c 0B       		.uleb128 0xb
 2028 013d 3B       		.uleb128 0x3b
 2029 013e 0B       		.uleb128 0xb
 2030 013f 49       		.uleb128 0x49
 2031 0140 13       		.uleb128 0x13
 2032 0141 02       		.uleb128 0x2
 2033 0142 0A       		.uleb128 0xa
 2034 0143 00       		.byte	0
 2035 0144 00       		.byte	0
 2036 0145 19       		.uleb128 0x19
 2037 0146 34       		.uleb128 0x34
ARM GAS  G:\Users\Jaxb\AppData\Local\Temp\cc71XBkm.s 			page 41


 2038 0147 00       		.byte	0
 2039 0148 03       		.uleb128 0x3
 2040 0149 0E       		.uleb128 0xe
 2041 014a 3A       		.uleb128 0x3a
 2042 014b 0B       		.uleb128 0xb
 2043 014c 3B       		.uleb128 0x3b
 2044 014d 0B       		.uleb128 0xb
 2045 014e 49       		.uleb128 0x49
 2046 014f 13       		.uleb128 0x13
 2047 0150 02       		.uleb128 0x2
 2048 0151 0A       		.uleb128 0xa
 2049 0152 00       		.byte	0
 2050 0153 00       		.byte	0
 2051 0154 1A       		.uleb128 0x1a
 2052 0155 34       		.uleb128 0x34
 2053 0156 00       		.byte	0
 2054 0157 03       		.uleb128 0x3
 2055 0158 08       		.uleb128 0x8
 2056 0159 3A       		.uleb128 0x3a
 2057 015a 0B       		.uleb128 0xb
 2058 015b 3B       		.uleb128 0x3b
 2059 015c 0B       		.uleb128 0xb
 2060 015d 49       		.uleb128 0x49
 2061 015e 13       		.uleb128 0x13
 2062 015f 02       		.uleb128 0x2
 2063 0160 0A       		.uleb128 0xa
 2064 0161 00       		.byte	0
 2065 0162 00       		.byte	0
 2066 0163 1B       		.uleb128 0x1b
 2067 0164 05       		.uleb128 0x5
 2068 0165 00       		.byte	0
 2069 0166 03       		.uleb128 0x3
 2070 0167 08       		.uleb128 0x8
 2071 0168 3A       		.uleb128 0x3a
 2072 0169 0B       		.uleb128 0xb
 2073 016a 3B       		.uleb128 0x3b
 2074 016b 0B       		.uleb128 0xb
 2075 016c 49       		.uleb128 0x49
 2076 016d 13       		.uleb128 0x13
 2077 016e 02       		.uleb128 0x2
 2078 016f 0A       		.uleb128 0xa
 2079 0170 00       		.byte	0
 2080 0171 00       		.byte	0
 2081 0172 1C       		.uleb128 0x1c
 2082 0173 2E       		.uleb128 0x2e
 2083 0174 01       		.byte	0x1
 2084 0175 3F       		.uleb128 0x3f
 2085 0176 0C       		.uleb128 0xc
 2086 0177 03       		.uleb128 0x3
 2087 0178 0E       		.uleb128 0xe
 2088 0179 3A       		.uleb128 0x3a
 2089 017a 0B       		.uleb128 0xb
 2090 017b 3B       		.uleb128 0x3b
 2091 017c 0B       		.uleb128 0xb
 2092 017d 27       		.uleb128 0x27
 2093 017e 0C       		.uleb128 0xc
 2094 017f 11       		.uleb128 0x11
ARM GAS  G:\Users\Jaxb\AppData\Local\Temp\cc71XBkm.s 			page 42


 2095 0180 01       		.uleb128 0x1
 2096 0181 12       		.uleb128 0x12
 2097 0182 01       		.uleb128 0x1
 2098 0183 40       		.uleb128 0x40
 2099 0184 06       		.uleb128 0x6
 2100 0185 9642     		.uleb128 0x2116
 2101 0187 0C       		.uleb128 0xc
 2102 0188 00       		.byte	0
 2103 0189 00       		.byte	0
 2104 018a 00       		.byte	0
 2105              		.section	.debug_loc,"",%progbits
 2106              	.Ldebug_loc0:
 2107              	.LLST7:
 2108 0000 74030000 		.4byte	.LFB20-.Ltext0
 2109 0004 76030000 		.4byte	.LCFI33-.Ltext0
 2110 0008 0200     		.2byte	0x2
 2111 000a 7D       		.byte	0x7d
 2112 000b 00       		.sleb128 0
 2113 000c 76030000 		.4byte	.LCFI33-.Ltext0
 2114 0010 78030000 		.4byte	.LCFI34-.Ltext0
 2115 0014 0200     		.2byte	0x2
 2116 0016 7D       		.byte	0x7d
 2117 0017 04       		.sleb128 4
 2118 0018 78030000 		.4byte	.LCFI34-.Ltext0
 2119 001c 8A030000 		.4byte	.LCFI35-.Ltext0
 2120 0020 0200     		.2byte	0x2
 2121 0022 77       		.byte	0x77
 2122 0023 04       		.sleb128 4
 2123 0024 8A030000 		.4byte	.LCFI35-.Ltext0
 2124 0028 8C030000 		.4byte	.LCFI36-.Ltext0
 2125 002c 0200     		.2byte	0x2
 2126 002e 7D       		.byte	0x7d
 2127 002f 04       		.sleb128 4
 2128 0030 8C030000 		.4byte	.LCFI36-.Ltext0
 2129 0034 94030000 		.4byte	.LFE20-.Ltext0
 2130 0038 0200     		.2byte	0x2
 2131 003a 7D       		.byte	0x7d
 2132 003b 00       		.sleb128 0
 2133 003c 00000000 		.4byte	0
 2134 0040 00000000 		.4byte	0
 2135              	.LLST6:
 2136 0044 58030000 		.4byte	.LFB19-.Ltext0
 2137 0048 5A030000 		.4byte	.LCFI29-.Ltext0
 2138 004c 0200     		.2byte	0x2
 2139 004e 7D       		.byte	0x7d
 2140 004f 00       		.sleb128 0
 2141 0050 5A030000 		.4byte	.LCFI29-.Ltext0
 2142 0054 5C030000 		.4byte	.LCFI30-.Ltext0
 2143 0058 0200     		.2byte	0x2
 2144 005a 7D       		.byte	0x7d
 2145 005b 04       		.sleb128 4
 2146 005c 5C030000 		.4byte	.LCFI30-.Ltext0
 2147 0060 6A030000 		.4byte	.LCFI31-.Ltext0
 2148 0064 0200     		.2byte	0x2
 2149 0066 77       		.byte	0x77
 2150 0067 04       		.sleb128 4
 2151 0068 6A030000 		.4byte	.LCFI31-.Ltext0
ARM GAS  G:\Users\Jaxb\AppData\Local\Temp\cc71XBkm.s 			page 43


 2152 006c 6C030000 		.4byte	.LCFI32-.Ltext0
 2153 0070 0200     		.2byte	0x2
 2154 0072 7D       		.byte	0x7d
 2155 0073 04       		.sleb128 4
 2156 0074 6C030000 		.4byte	.LCFI32-.Ltext0
 2157 0078 74030000 		.4byte	.LFE19-.Ltext0
 2158 007c 0200     		.2byte	0x2
 2159 007e 7D       		.byte	0x7d
 2160 007f 00       		.sleb128 0
 2161 0080 00000000 		.4byte	0
 2162 0084 00000000 		.4byte	0
 2163              	.LLST5:
 2164 0088 3C030000 		.4byte	.LFB18-.Ltext0
 2165 008c 3E030000 		.4byte	.LCFI25-.Ltext0
 2166 0090 0200     		.2byte	0x2
 2167 0092 7D       		.byte	0x7d
 2168 0093 00       		.sleb128 0
 2169 0094 3E030000 		.4byte	.LCFI25-.Ltext0
 2170 0098 40030000 		.4byte	.LCFI26-.Ltext0
 2171 009c 0200     		.2byte	0x2
 2172 009e 7D       		.byte	0x7d
 2173 009f 04       		.sleb128 4
 2174 00a0 40030000 		.4byte	.LCFI26-.Ltext0
 2175 00a4 4E030000 		.4byte	.LCFI27-.Ltext0
 2176 00a8 0200     		.2byte	0x2
 2177 00aa 77       		.byte	0x77
 2178 00ab 04       		.sleb128 4
 2179 00ac 4E030000 		.4byte	.LCFI27-.Ltext0
 2180 00b0 50030000 		.4byte	.LCFI28-.Ltext0
 2181 00b4 0200     		.2byte	0x2
 2182 00b6 7D       		.byte	0x7d
 2183 00b7 04       		.sleb128 4
 2184 00b8 50030000 		.4byte	.LCFI28-.Ltext0
 2185 00bc 58030000 		.4byte	.LFE18-.Ltext0
 2186 00c0 0200     		.2byte	0x2
 2187 00c2 7D       		.byte	0x7d
 2188 00c3 00       		.sleb128 0
 2189 00c4 00000000 		.4byte	0
 2190 00c8 00000000 		.4byte	0
 2191              	.LLST4:
 2192 00cc B0020000 		.4byte	.LFB17-.Ltext0
 2193 00d0 B2020000 		.4byte	.LCFI20-.Ltext0
 2194 00d4 0200     		.2byte	0x2
 2195 00d6 7D       		.byte	0x7d
 2196 00d7 00       		.sleb128 0
 2197 00d8 B2020000 		.4byte	.LCFI20-.Ltext0
 2198 00dc B4020000 		.4byte	.LCFI21-.Ltext0
 2199 00e0 0200     		.2byte	0x2
 2200 00e2 7D       		.byte	0x7d
 2201 00e3 08       		.sleb128 8
 2202 00e4 B4020000 		.4byte	.LCFI21-.Ltext0
 2203 00e8 B6020000 		.4byte	.LCFI22-.Ltext0
 2204 00ec 0200     		.2byte	0x2
 2205 00ee 7D       		.byte	0x7d
 2206 00ef 30       		.sleb128 48
 2207 00f0 B6020000 		.4byte	.LCFI22-.Ltext0
 2208 00f4 32030000 		.4byte	.LCFI23-.Ltext0
ARM GAS  G:\Users\Jaxb\AppData\Local\Temp\cc71XBkm.s 			page 44


 2209 00f8 0200     		.2byte	0x2
 2210 00fa 77       		.byte	0x77
 2211 00fb 20       		.sleb128 32
 2212 00fc 32030000 		.4byte	.LCFI23-.Ltext0
 2213 0100 34030000 		.4byte	.LCFI24-.Ltext0
 2214 0104 0200     		.2byte	0x2
 2215 0106 77       		.byte	0x77
 2216 0107 08       		.sleb128 8
 2217 0108 34030000 		.4byte	.LCFI24-.Ltext0
 2218 010c 3C030000 		.4byte	.LFE17-.Ltext0
 2219 0110 0200     		.2byte	0x2
 2220 0112 7D       		.byte	0x7d
 2221 0113 08       		.sleb128 8
 2222 0114 00000000 		.4byte	0
 2223 0118 00000000 		.4byte	0
 2224              	.LLST3:
 2225 011c 28020000 		.4byte	.LFB16-.Ltext0
 2226 0120 2A020000 		.4byte	.LCFI15-.Ltext0
 2227 0124 0200     		.2byte	0x2
 2228 0126 7D       		.byte	0x7d
 2229 0127 00       		.sleb128 0
 2230 0128 2A020000 		.4byte	.LCFI15-.Ltext0
 2231 012c 2C020000 		.4byte	.LCFI16-.Ltext0
 2232 0130 0200     		.2byte	0x2
 2233 0132 7D       		.byte	0x7d
 2234 0133 08       		.sleb128 8
 2235 0134 2C020000 		.4byte	.LCFI16-.Ltext0
 2236 0138 2E020000 		.4byte	.LCFI17-.Ltext0
 2237 013c 0200     		.2byte	0x2
 2238 013e 7D       		.byte	0x7d
 2239 013f 38       		.sleb128 56
 2240 0140 2E020000 		.4byte	.LCFI17-.Ltext0
 2241 0144 A8020000 		.4byte	.LCFI18-.Ltext0
 2242 0148 0200     		.2byte	0x2
 2243 014a 77       		.byte	0x77
 2244 014b 28       		.sleb128 40
 2245 014c A8020000 		.4byte	.LCFI18-.Ltext0
 2246 0150 AA020000 		.4byte	.LCFI19-.Ltext0
 2247 0154 0200     		.2byte	0x2
 2248 0156 77       		.byte	0x77
 2249 0157 08       		.sleb128 8
 2250 0158 AA020000 		.4byte	.LCFI19-.Ltext0
 2251 015c B0020000 		.4byte	.LFE16-.Ltext0
 2252 0160 0200     		.2byte	0x2
 2253 0162 7D       		.byte	0x7d
 2254 0163 08       		.sleb128 8
 2255 0164 00000000 		.4byte	0
 2256 0168 00000000 		.4byte	0
 2257              	.LLST2:
 2258 016c 70010000 		.4byte	.LFB15-.Ltext0
 2259 0170 72010000 		.4byte	.LCFI10-.Ltext0
 2260 0174 0200     		.2byte	0x2
 2261 0176 7D       		.byte	0x7d
 2262 0177 00       		.sleb128 0
 2263 0178 72010000 		.4byte	.LCFI10-.Ltext0
 2264 017c 74010000 		.4byte	.LCFI11-.Ltext0
 2265 0180 0200     		.2byte	0x2
ARM GAS  G:\Users\Jaxb\AppData\Local\Temp\cc71XBkm.s 			page 45


 2266 0182 7D       		.byte	0x7d
 2267 0183 08       		.sleb128 8
 2268 0184 74010000 		.4byte	.LCFI11-.Ltext0
 2269 0188 76010000 		.4byte	.LCFI12-.Ltext0
 2270 018c 0200     		.2byte	0x2
 2271 018e 7D       		.byte	0x7d
 2272 018f 18       		.sleb128 24
 2273 0190 76010000 		.4byte	.LCFI12-.Ltext0
 2274 0194 14020000 		.4byte	.LCFI13-.Ltext0
 2275 0198 0200     		.2byte	0x2
 2276 019a 77       		.byte	0x77
 2277 019b 18       		.sleb128 24
 2278 019c 14020000 		.4byte	.LCFI13-.Ltext0
 2279 01a0 16020000 		.4byte	.LCFI14-.Ltext0
 2280 01a4 0200     		.2byte	0x2
 2281 01a6 77       		.byte	0x77
 2282 01a7 08       		.sleb128 8
 2283 01a8 16020000 		.4byte	.LCFI14-.Ltext0
 2284 01ac 28020000 		.4byte	.LFE15-.Ltext0
 2285 01b0 0200     		.2byte	0x2
 2286 01b2 7D       		.byte	0x7d
 2287 01b3 08       		.sleb128 8
 2288 01b4 00000000 		.4byte	0
 2289 01b8 00000000 		.4byte	0
 2290              	.LLST1:
 2291 01bc 60000000 		.4byte	.LFB14-.Ltext0
 2292 01c0 64000000 		.4byte	.LCFI5-.Ltext0
 2293 01c4 0200     		.2byte	0x2
 2294 01c6 7D       		.byte	0x7d
 2295 01c7 00       		.sleb128 0
 2296 01c8 64000000 		.4byte	.LCFI5-.Ltext0
 2297 01cc 66000000 		.4byte	.LCFI6-.Ltext0
 2298 01d0 0200     		.2byte	0x2
 2299 01d2 7D       		.byte	0x7d
 2300 01d3 10       		.sleb128 16
 2301 01d4 66000000 		.4byte	.LCFI6-.Ltext0
 2302 01d8 68000000 		.4byte	.LCFI7-.Ltext0
 2303 01dc 0200     		.2byte	0x2
 2304 01de 7D       		.byte	0x7d
 2305 01df 20       		.sleb128 32
 2306 01e0 68000000 		.4byte	.LCFI7-.Ltext0
 2307 01e4 52010000 		.4byte	.LCFI8-.Ltext0
 2308 01e8 0200     		.2byte	0x2
 2309 01ea 77       		.byte	0x77
 2310 01eb 20       		.sleb128 32
 2311 01ec 52010000 		.4byte	.LCFI8-.Ltext0
 2312 01f0 54010000 		.4byte	.LCFI9-.Ltext0
 2313 01f4 0200     		.2byte	0x2
 2314 01f6 77       		.byte	0x77
 2315 01f7 10       		.sleb128 16
 2316 01f8 54010000 		.4byte	.LCFI9-.Ltext0
 2317 01fc 70010000 		.4byte	.LFE14-.Ltext0
 2318 0200 0200     		.2byte	0x2
 2319 0202 7D       		.byte	0x7d
 2320 0203 10       		.sleb128 16
 2321 0204 00000000 		.4byte	0
 2322 0208 00000000 		.4byte	0
ARM GAS  G:\Users\Jaxb\AppData\Local\Temp\cc71XBkm.s 			page 46


 2323              	.LLST0:
 2324 020c 00000000 		.4byte	.LFB13-.Ltext0
 2325 0210 02000000 		.4byte	.LCFI0-.Ltext0
 2326 0214 0200     		.2byte	0x2
 2327 0216 7D       		.byte	0x7d
 2328 0217 00       		.sleb128 0
 2329 0218 02000000 		.4byte	.LCFI0-.Ltext0
 2330 021c 04000000 		.4byte	.LCFI1-.Ltext0
 2331 0220 0200     		.2byte	0x2
 2332 0222 7D       		.byte	0x7d
 2333 0223 08       		.sleb128 8
 2334 0224 04000000 		.4byte	.LCFI1-.Ltext0
 2335 0228 06000000 		.4byte	.LCFI2-.Ltext0
 2336 022c 0200     		.2byte	0x2
 2337 022e 7D       		.byte	0x7d
 2338 022f 10       		.sleb128 16
 2339 0230 06000000 		.4byte	.LCFI2-.Ltext0
 2340 0234 4C000000 		.4byte	.LCFI3-.Ltext0
 2341 0238 0200     		.2byte	0x2
 2342 023a 77       		.byte	0x77
 2343 023b 10       		.sleb128 16
 2344 023c 4C000000 		.4byte	.LCFI3-.Ltext0
 2345 0240 4E000000 		.4byte	.LCFI4-.Ltext0
 2346 0244 0200     		.2byte	0x2
 2347 0246 77       		.byte	0x77
 2348 0247 08       		.sleb128 8
 2349 0248 4E000000 		.4byte	.LCFI4-.Ltext0
 2350 024c 60000000 		.4byte	.LFE13-.Ltext0
 2351 0250 0200     		.2byte	0x2
 2352 0252 7D       		.byte	0x7d
 2353 0253 08       		.sleb128 8
 2354 0254 00000000 		.4byte	0
 2355 0258 00000000 		.4byte	0
 2356              		.section	.debug_aranges,"",%progbits
 2357 0000 1C000000 		.4byte	0x1c
 2358 0004 0200     		.2byte	0x2
 2359 0006 00000000 		.4byte	.Ldebug_info0
 2360 000a 04       		.byte	0x4
 2361 000b 00       		.byte	0
 2362 000c 0000     		.2byte	0
 2363 000e 0000     		.2byte	0
 2364 0010 00000000 		.4byte	.Ltext0
 2365 0014 94030000 		.4byte	.Letext0-.Ltext0
 2366 0018 00000000 		.4byte	0
 2367 001c 00000000 		.4byte	0
 2368              		.section	.debug_line,"",%progbits
 2369              	.Ldebug_line0:
 2370 0000 D6010000 		.section	.debug_str,"MS",%progbits,1
 2370      02000301 
 2370      00000201 
 2370      FB0E0D00 
 2370      01010101 
 2371              	.LASF23:
 2372 0000 5441534B 		.ascii	"TASK_PRIO_TYPE\000"
 2372      5F505249 
 2372      4F5F5459 
 2372      504500
ARM GAS  G:\Users\Jaxb\AppData\Local\Temp\cc71XBkm.s 			page 47


 2373              	.LASF2:
 2374 000f 53544154 		.ascii	"STATE_SUSPEND_NORMAL\000"
 2374      455F5355 
 2374      5350454E 
 2374      445F4E4F 
 2374      524D414C 
 2375              	.LASF25:
 2376 0024 6C697374 		.ascii	"list_head\000"
 2376      5F686561 
 2376      6400
 2377              	.LASF59:
 2378 002e 5F5F7274 		.ascii	"__rtmsym_task_creat_ready_name\000"
 2378      6D73796D 
 2378      5F746173 
 2378      6B5F6372 
 2378      6561745F 
 2379              	.LASF52:
 2380 004d 675F7363 		.ascii	"g_schedule_lock\000"
 2380      68656475 
 2380      6C655F6C 
 2380      6F636B00 
 2381              	.LASF12:
 2382 005d 73686F72 		.ascii	"short int\000"
 2382      7420696E 
 2382      7400
 2383              	.LASF54:
 2384 0067 5F5F7274 		.ascii	"__rtmsym_schedule\000"
 2384      6D73796D 
 2384      5F736368 
 2384      6564756C 
 2384      6500
 2385              	.LASF5:
 2386 0079 53544154 		.ascii	"STATE_WAIT_MESSAGE_QUEUE_FOREVER\000"
 2386      455F5741 
 2386      49545F4D 
 2386      45535341 
 2386      47455F51 
 2387              	.LASF16:
 2388 009a 55494E54 		.ascii	"UINT32\000"
 2388      333200
 2389              	.LASF57:
 2390 00a1 5F5F7274 		.ascii	"__rtmsym_sys_suspend_name\000"
 2390      6D73796D 
 2390      5F737973 
 2390      5F737573 
 2390      70656E64 
 2391              	.LASF22:
 2392 00bb 53544143 		.ascii	"STACK_TYPE\000"
 2392      4B5F5459 
 2392      504500
 2393              	.LASF78:
 2394 00c6 5461736B 		.ascii	"Task_State\000"
 2394      5F537461 
 2394      746500
 2395              	.LASF7:
 2396 00d1 53544154 		.ascii	"STATE_PUT_MESSAGE_QUEUE_FOREVER\000"
 2396      455F5055 
ARM GAS  G:\Users\Jaxb\AppData\Local\Temp\cc71XBkm.s 			page 48


 2396      545F4D45 
 2396      53534147 
 2396      455F5155 
 2397              	.LASF73:
 2398 00f1 7379735F 		.ascii	"sys_delay\000"
 2398      64656C61 
 2398      7900
 2399              	.LASF81:
 2400 00fb 73636865 		.ascii	"schedule\000"
 2400      64756C65 
 2400      00
 2401              	.LASF46:
 2402 0104 6B615F6D 		.ascii	"ka_module_symtab\000"
 2402      6F64756C 
 2402      655F7379 
 2402      6D746162 
 2402      00
 2403              	.LASF76:
 2404 0115 2E2E2F2E 		.ascii	"../../source/src/kernel/OS_CORE/schedule/os_schedul"
 2404      2E2F736F 
 2404      75726365 
 2404      2F737263 
 2404      2F6B6572 
 2405 0148 652E6300 		.ascii	"e.c\000"
 2406              	.LASF53:
 2407 014c 5F5F7274 		.ascii	"__rtmsym_schedule_name\000"
 2407      6D73796D 
 2407      5F736368 
 2407      6564756C 
 2407      655F6E61 
 2408              	.LASF29:
 2409 0163 73746163 		.ascii	"stack_end\000"
 2409      6B5F656E 
 2409      6400
 2410              	.LASF4:
 2411 016d 53544154 		.ascii	"STATE_WAIT_MCB_TIMEOUT\000"
 2411      455F5741 
 2411      49545F4D 
 2411      43425F54 
 2411      494D454F 
 2412              	.LASF74:
 2413 0184 64656C61 		.ascii	"delay_ticks_num\000"
 2413      795F7469 
 2413      636B735F 
 2413      6E756D00 
 2414              	.LASF77:
 2415 0194 463A5C6B 		.ascii	"F:\\kaka\\KAKAOS\\C\\windows\\Project\\RVMDK\243\250"
 2415      616B615C 
 2415      4B414B41 
 2415      4F535C43 
 2415      5C77696E 
 2416 01bc 757635A3 		.ascii	"uv5\243\251\000"
 2416      A900
 2417              	.LASF13:
 2418 01c2 6C6F6E67 		.ascii	"long long int\000"
 2418      206C6F6E 
 2418      6720696E 
ARM GAS  G:\Users\Jaxb\AppData\Local\Temp\cc71XBkm.s 			page 49


 2418      7400
 2419              	.LASF37:
 2420 01d0 74696D65 		.ascii	"timeslice_hope_time\000"
 2420      736C6963 
 2420      655F686F 
 2420      70655F74 
 2420      696D6500 
 2421              	.LASF30:
 2422 01e4 72657365 		.ascii	"reserve_prio\000"
 2422      7276655F 
 2422      7072696F 
 2422      00
 2423              	.LASF47:
 2424 01f1 61646472 		.ascii	"addr\000"
 2424      00
 2425              	.LASF70:
 2426 01f6 7461736B 		.ascii	"task_creat_ready\000"
 2426      5F637265 
 2426      61745F72 
 2426      65616479 
 2426      00
 2427              	.LASF15:
 2428 0207 5441534B 		.ascii	"TASK_STATE\000"
 2428      5F535441 
 2428      544500
 2429              	.LASF55:
 2430 0212 5F5F7274 		.ascii	"__rtmsym_sys_delay_name\000"
 2430      6D73796D 
 2430      5F737973 
 2430      5F64656C 
 2430      61795F6E 
 2431              	.LASF71:
 2432 022a 7379735F 		.ascii	"sys_suspend\000"
 2432      73757370 
 2432      656E6400 
 2433              	.LASF36:
 2434 0236 6E616D65 		.ascii	"name\000"
 2434      00
 2435              	.LASF62:
 2436 023b 5F5F7274 		.ascii	"__rtmsym_task_init_ready\000"
 2436      6D73796D 
 2436      5F746173 
 2436      6B5F696E 
 2436      69745F72 
 2437              	.LASF10:
 2438 0254 756E7369 		.ascii	"unsigned char\000"
 2438      676E6564 
 2438      20636861 
 2438      7200
 2439              	.LASF40:
 2440 0262 64796E61 		.ascii	"dynamic_module_ptr\000"
 2440      6D69635F 
 2440      6D6F6475 
 2440      6C655F70 
 2440      747200
 2441              	.LASF0:
 2442 0275 53544154 		.ascii	"STATE_READY\000"
ARM GAS  G:\Users\Jaxb\AppData\Local\Temp\cc71XBkm.s 			page 50


 2442      455F5245 
 2442      41445900 
 2443              	.LASF1:
 2444 0281 53544154 		.ascii	"STATE_DELAY\000"
 2444      455F4445 
 2444      4C415900 
 2445              	.LASF39:
 2446 028d 61747472 		.ascii	"attribution\000"
 2446      69627574 
 2446      696F6E00 
 2447              	.LASF11:
 2448 0299 7369676E 		.ascii	"signed char\000"
 2448      65642063 
 2448      68617200 
 2449              	.LASF19:
 2450 02a5 6C6F6E67 		.ascii	"long long unsigned int\000"
 2450      206C6F6E 
 2450      6720756E 
 2450      7369676E 
 2450      65642069 
 2451              	.LASF17:
 2452 02bc 756E7369 		.ascii	"unsigned int\000"
 2452      676E6564 
 2452      20696E74 
 2452      00
 2453              	.LASF51:
 2454 02c9 675F7469 		.ascii	"g_time_tick_count\000"
 2454      6D655F74 
 2454      69636B5F 
 2454      636F756E 
 2454      7400
 2455              	.LASF27:
 2456 02db 73746163 		.ascii	"stack\000"
 2456      6B00
 2457              	.LASF34:
 2458 02e1 73616D65 		.ascii	"same_prio_list\000"
 2458      5F707269 
 2458      6F5F6C69 
 2458      737400
 2459              	.LASF79:
 2460 02f0 64796E61 		.ascii	"dynamic_module\000"
 2460      6D69635F 
 2460      6D6F6475 
 2460      6C6500
 2461              	.LASF6:
 2462 02ff 53544154 		.ascii	"STATE_WAIT_MESSAGE_QUEUE_TIMEOUT\000"
 2462      455F5741 
 2462      49545F4D 
 2462      45535341 
 2462      47455F51 
 2463              	.LASF42:
 2464 0320 63686172 		.ascii	"char\000"
 2464      00
 2465              	.LASF66:
 2466 0325 66756E63 		.ascii	"function\000"
 2466      74696F6E 
 2466      00
ARM GAS  G:\Users\Jaxb\AppData\Local\Temp\cc71XBkm.s 			page 51


 2467              	.LASF8:
 2468 032e 53544154 		.ascii	"STATE_PUT_MESSAGE_QUEUE_TIMEOUT\000"
 2468      455F5055 
 2468      545F4D45 
 2468      53534147 
 2468      455F5155 
 2469              	.LASF14:
 2470 034e 73686F72 		.ascii	"short unsigned int\000"
 2470      7420756E 
 2470      7369676E 
 2470      65642069 
 2470      6E7400
 2471              	.LASF43:
 2472 0361 4350555F 		.ascii	"CPU_INT32U\000"
 2472      494E5433 
 2472      325500
 2473              	.LASF58:
 2474 036c 5F5F7274 		.ascii	"__rtmsym_sys_suspend\000"
 2474      6D73796D 
 2474      5F737973 
 2474      5F737573 
 2474      70656E64 
 2475              	.LASF64:
 2476 0381 7379735F 		.ascii	"sys_schedule_lock\000"
 2476      73636865 
 2476      64756C65 
 2476      5F6C6F63 
 2476      6B00
 2477              	.LASF60:
 2478 0393 5F5F7274 		.ascii	"__rtmsym_task_creat_ready\000"
 2478      6D73796D 
 2478      5F746173 
 2478      6B5F6372 
 2478      6561745F 
 2479              	.LASF50:
 2480 03ad 4F535443 		.ascii	"OSTCBHighRdyPtr\000"
 2480      42486967 
 2480      68526479 
 2480      50747200 
 2481              	.LASF56:
 2482 03bd 5F5F7274 		.ascii	"__rtmsym_sys_delay\000"
 2482      6D73796D 
 2482      5F737973 
 2482      5F64656C 
 2482      617900
 2483              	.LASF44:
 2484 03d0 4350555F 		.ascii	"CPU_REG32\000"
 2484      52454733 
 2484      3200
 2485              	.LASF80:
 2486 03da 7379735F 		.ascii	"sys_schedule_islock\000"
 2486      73636865 
 2486      64756C65 
 2486      5F69736C 
 2486      6F636B00 
 2487              	.LASF33:
 2488 03ee 64656C61 		.ascii	"delay_heap_position\000"
ARM GAS  G:\Users\Jaxb\AppData\Local\Temp\cc71XBkm.s 			page 52


 2488      795F6865 
 2488      61705F70 
 2488      6F736974 
 2488      696F6E00 
 2489              	.LASF31:
 2490 0402 7461736B 		.ascii	"task_state\000"
 2490      5F737461 
 2490      746500
 2491              	.LASF38:
 2492 040d 74696D65 		.ascii	"timeslice_rest_time\000"
 2492      736C6963 
 2492      655F7265 
 2492      73745F74 
 2492      696D6500 
 2493              	.LASF72:
 2494 0421 73746174 		.ascii	"state\000"
 2494      6500
 2495              	.LASF67:
 2496 0427 70617261 		.ascii	"para\000"
 2496      00
 2497              	.LASF3:
 2498 042c 53544154 		.ascii	"STATE_WAIT_MCB_FOREVER\000"
 2498      455F5741 
 2498      49545F4D 
 2498      43425F46 
 2498      4F524556 
 2499              	.LASF26:
 2500 0443 7461736B 		.ascii	"task_control_block_struct\000"
 2500      5F636F6E 
 2500      74726F6C 
 2500      5F626C6F 
 2500      636B5F73 
 2501              	.LASF28:
 2502 045d 73746163 		.ascii	"stack_size\000"
 2502      6B5F7369 
 2502      7A6500
 2503              	.LASF61:
 2504 0468 5F5F7274 		.ascii	"__rtmsym_task_init_ready_name\000"
 2504      6D73796D 
 2504      5F746173 
 2504      6B5F696E 
 2504      69745F72 
 2505              	.LASF65:
 2506 0486 5443425F 		.ascii	"TCB_ptr\000"
 2506      70747200 
 2507              	.LASF24:
 2508 048e 66756E63 		.ascii	"functionptr\000"
 2508      74696F6E 
 2508      70747200 
 2509              	.LASF35:
 2510 049a 73757370 		.ascii	"suspend_list\000"
 2510      656E645F 
 2510      6C697374 
 2510      00
 2511              	.LASF48:
 2512 04a7 675F696E 		.ascii	"g_interrupt_count\000"
 2512      74657272 
ARM GAS  G:\Users\Jaxb\AppData\Local\Temp\cc71XBkm.s 			page 53


 2512      7570745F 
 2512      636F756E 
 2512      7400
 2513              	.LASF68:
 2514 04b9 6370755F 		.ascii	"cpu_sr\000"
 2514      737200
 2515              	.LASF75:
 2516 04c0 474E5520 		.ascii	"GNU C11 7.3.1 20180622 (release) [ARM/embedded-7-br"
 2516      43313120 
 2516      372E332E 
 2516      31203230 
 2516      31383036 
 2517 04f3 616E6368 		.ascii	"anch revision 261907] -mcpu=cortex-m3 -mthumb -mapc"
 2517      20726576 
 2517      6973696F 
 2517      6E203236 
 2517      31393037 
 2518 0526 732D6672 		.ascii	"s-frame -mthumb-interwork -mcpu=cortex-m3 -mthumb -"
 2518      616D6520 
 2518      2D6D7468 
 2518      756D622D 
 2518      696E7465 
 2519 0559 67647761 		.ascii	"gdwarf-2 -O0\000"
 2519      72662D32 
 2519      202D4F30 
 2519      00
 2520              	.LASF63:
 2521 0566 7379735F 		.ascii	"sys_schedule_unlock\000"
 2521      73636865 
 2521      64756C65 
 2521      5F756E6C 
 2521      6F636B00 
 2522              	.LASF9:
 2523 057a 53544154 		.ascii	"STATE_WAIT_MUTEX_FOREVER\000"
 2523      455F5741 
 2523      49545F4D 
 2523      55544558 
 2523      5F464F52 
 2524              	.LASF21:
 2525 0593 70726576 		.ascii	"prev\000"
 2525      00
 2526              	.LASF45:
 2527 0598 4350555F 		.ascii	"CPU_SR\000"
 2527      535200
 2528              	.LASF41:
 2529 059f 64656C61 		.ascii	"delay_reach_time\000"
 2529      795F7265 
 2529      6163685F 
 2529      74696D65 
 2529      00
 2530              	.LASF18:
 2531 05b0 55494E54 		.ascii	"UINT64\000"
 2531      363400
 2532              	.LASF32:
 2533 05b7 7072696F 		.ascii	"prio\000"
 2533      00
 2534              	.LASF49:
ARM GAS  G:\Users\Jaxb\AppData\Local\Temp\cc71XBkm.s 			page 54


 2535 05bc 4F535443 		.ascii	"OSTCBCurPtr\000"
 2535      42437572 
 2535      50747200 
 2536              	.LASF20:
 2537 05c8 6E657874 		.ascii	"next\000"
 2537      00
 2538              	.LASF69:
 2539 05cd 7461736B 		.ascii	"task_init_ready\000"
 2539      5F696E69 
 2539      745F7265 
 2539      61647900 
 2540              		.ident	"GCC: (GNU Tools for Arm Embedded Processors 7-2018-q2-update) 7.3.1 20180622 (release) [AR
ARM GAS  G:\Users\Jaxb\AppData\Local\Temp\cc71XBkm.s 			page 55


DEFINED SYMBOLS
                            *ABS*:00000000 os_schedule.c
G:\Users\Jaxb\AppData\Local\Temp\cc71XBkm.s:20     .bss:00000000 g_schedule_lock
G:\Users\Jaxb\AppData\Local\Temp\cc71XBkm.s:17     .bss:00000000 $d
G:\Users\Jaxb\AppData\Local\Temp\cc71XBkm.s:23     .text:00000000 $t
G:\Users\Jaxb\AppData\Local\Temp\cc71XBkm.s:30     .text:00000000 schedule
G:\Users\Jaxb\AppData\Local\Temp\cc71XBkm.s:103    .text:00000050 $d
G:\Users\Jaxb\AppData\Local\Temp\cc71XBkm.s:115    .rodata.name:00000000 __rtmsym_schedule_name
G:\Users\Jaxb\AppData\Local\Temp\cc71XBkm.s:112    .rodata.name:00000000 $d
G:\Users\Jaxb\AppData\Local\Temp\cc71XBkm.s:122    .RTMSymTab:00000000 __rtmsym_schedule
G:\Users\Jaxb\AppData\Local\Temp\cc71XBkm.s:119    .RTMSymTab:00000000 $d
G:\Users\Jaxb\AppData\Local\Temp\cc71XBkm.s:126    .rodata:00000000 $d
G:\Users\Jaxb\AppData\Local\Temp\cc71XBkm.s:139    .text:00000060 $t
G:\Users\Jaxb\AppData\Local\Temp\cc71XBkm.s:146    .text:00000060 sys_delay
G:\Users\Jaxb\AppData\Local\Temp\cc71XBkm.s:306    .text:00000158 $d
G:\Users\Jaxb\AppData\Local\Temp\cc71XBkm.s:320    .rodata.name:0000000c __rtmsym_sys_delay_name
G:\Users\Jaxb\AppData\Local\Temp\cc71XBkm.s:327    .RTMSymTab:00000008 __rtmsym_sys_delay
G:\Users\Jaxb\AppData\Local\Temp\cc71XBkm.s:331    .text:00000170 $t
G:\Users\Jaxb\AppData\Local\Temp\cc71XBkm.s:338    .text:00000170 sys_suspend
G:\Users\Jaxb\AppData\Local\Temp\cc71XBkm.s:463    .text:00000218 $d
G:\Users\Jaxb\AppData\Local\Temp\cc71XBkm.s:475    .rodata.name:00000018 __rtmsym_sys_suspend_name
G:\Users\Jaxb\AppData\Local\Temp\cc71XBkm.s:482    .RTMSymTab:00000010 __rtmsym_sys_suspend
G:\Users\Jaxb\AppData\Local\Temp\cc71XBkm.s:486    .text:00000228 $t
G:\Users\Jaxb\AppData\Local\Temp\cc71XBkm.s:493    .text:00000228 task_creat_ready
G:\Users\Jaxb\AppData\Local\Temp\cc71XBkm.s:595    .text:000002ac $d
G:\Users\Jaxb\AppData\Local\Temp\cc71XBkm.s:604    .rodata.name:00000024 __rtmsym_task_creat_ready_name
G:\Users\Jaxb\AppData\Local\Temp\cc71XBkm.s:611    .RTMSymTab:00000018 __rtmsym_task_creat_ready
G:\Users\Jaxb\AppData\Local\Temp\cc71XBkm.s:615    .text:000002b0 $t
G:\Users\Jaxb\AppData\Local\Temp\cc71XBkm.s:622    .text:000002b0 task_init_ready
G:\Users\Jaxb\AppData\Local\Temp\cc71XBkm.s:721    .text:00000338 $d
G:\Users\Jaxb\AppData\Local\Temp\cc71XBkm.s:730    .rodata.name:00000038 __rtmsym_task_init_ready_name
G:\Users\Jaxb\AppData\Local\Temp\cc71XBkm.s:737    .RTMSymTab:00000020 __rtmsym_task_init_ready
G:\Users\Jaxb\AppData\Local\Temp\cc71XBkm.s:741    .text:0000033c $t
G:\Users\Jaxb\AppData\Local\Temp\cc71XBkm.s:748    .text:0000033c sys_schedule_lock
G:\Users\Jaxb\AppData\Local\Temp\cc71XBkm.s:782    .text:00000354 $d
G:\Users\Jaxb\AppData\Local\Temp\cc71XBkm.s:786    .text:00000358 $t
G:\Users\Jaxb\AppData\Local\Temp\cc71XBkm.s:793    .text:00000358 sys_schedule_unlock
G:\Users\Jaxb\AppData\Local\Temp\cc71XBkm.s:827    .text:00000370 $d
G:\Users\Jaxb\AppData\Local\Temp\cc71XBkm.s:831    .text:00000374 $t
G:\Users\Jaxb\AppData\Local\Temp\cc71XBkm.s:838    .text:00000374 sys_schedule_islock
G:\Users\Jaxb\AppData\Local\Temp\cc71XBkm.s:874    .text:00000390 $d

UNDEFINED SYMBOLS
CPU_SR_Save
get_highest_prio_ready_TCB
CPU_SR_Restore
OSTCBHighRdyPtr
OSTCBCurPtr
_ASSERT
ka_printf
delete_TCB_from_ready
insert_into_delay_heap
get_tick
g_interrupt_count
g_time_tick_count
insert_into_suspend_list
task_creat
ARM GAS  G:\Users\Jaxb\AppData\Local\Temp\cc71XBkm.s 			page 56


insert_ready_TCB
task_init
