ARM GAS  G:\Users\Jaxb\AppData\Local\Temp\ccF5r6CH.s 			page 1


   1              		.cpu cortex-m3
   2              		.eabi_attribute 20, 1
   3              		.eabi_attribute 21, 1
   4              		.eabi_attribute 23, 3
   5              		.eabi_attribute 24, 1
   6              		.eabi_attribute 25, 1
   7              		.eabi_attribute 26, 1
   8              		.eabi_attribute 30, 6
   9              		.eabi_attribute 34, 1
  10              		.eabi_attribute 18, 4
  11              		.file	"os_suspend.c"
  12              		.text
  13              	.Ltext0:
  14              		.cfi_sections	.debug_frame
  15              		.align	1
  16              		.syntax unified
  17              		.thumb
  18              		.thumb_func
  19              		.fpu softvfp
  20              		.type	INIT_LIST_HEAD, %function
  21              	INIT_LIST_HEAD:
  22              	.LFB0:
  23              		.file 1 "../../source/include/os_lib/double_linked_list.h"
   1:../../source/include/os_lib/double_linked_list.h **** #ifndef _DOUBLE_LINKED_LIST_H
   2:../../source/include/os_lib/double_linked_list.h **** #define _DOUBLE_LINKED_LIST_H
   3:../../source/include/os_lib/double_linked_list.h **** 
   4:../../source/include/os_lib/double_linked_list.h **** struct list_head {
   5:../../source/include/os_lib/double_linked_list.h ****     struct list_head *next, *prev;
   6:../../source/include/os_lib/double_linked_list.h **** };
   7:../../source/include/os_lib/double_linked_list.h **** 
   8:../../source/include/os_lib/double_linked_list.h **** 
   9:../../source/include/os_lib/double_linked_list.h **** #define LIST_HEAD_INIT(name) { &(name), &(name) }
  10:../../source/include/os_lib/double_linked_list.h **** 
  11:../../source/include/os_lib/double_linked_list.h **** 
  12:../../source/include/os_lib/double_linked_list.h **** #define LIST_HEAD(name) \
  13:../../source/include/os_lib/double_linked_list.h ****     struct list_head name = LIST_HEAD_INIT(name)
  14:../../source/include/os_lib/double_linked_list.h **** 
  15:../../source/include/os_lib/double_linked_list.h **** 
  16:../../source/include/os_lib/double_linked_list.h **** static inline void INIT_LIST_HEAD(struct list_head *list)
  17:../../source/include/os_lib/double_linked_list.h **** {
  24              		.loc 1 17 0
  25              		.cfi_startproc
  26              		@ args = 0, pretend = 0, frame = 8
  27              		@ frame_needed = 1, uses_anonymous_args = 0
  28              		@ link register save eliminated.
  29 0000 80B4     		push	{r7}
  30              	.LCFI0:
  31              		.cfi_def_cfa_offset 4
  32              		.cfi_offset 7, -4
  33 0002 83B0     		sub	sp, sp, #12
  34              	.LCFI1:
  35              		.cfi_def_cfa_offset 16
  36 0004 00AF     		add	r7, sp, #0
  37              	.LCFI2:
  38              		.cfi_def_cfa_register 7
  39 0006 7860     		str	r0, [r7, #4]
  18:../../source/include/os_lib/double_linked_list.h ****     list->next = list;
ARM GAS  G:\Users\Jaxb\AppData\Local\Temp\ccF5r6CH.s 			page 2


  40              		.loc 1 18 0
  41 0008 7B68     		ldr	r3, [r7, #4]
  42 000a 7A68     		ldr	r2, [r7, #4]
  43 000c 1A60     		str	r2, [r3]
  19:../../source/include/os_lib/double_linked_list.h ****     list->prev = list;
  44              		.loc 1 19 0
  45 000e 7B68     		ldr	r3, [r7, #4]
  46 0010 7A68     		ldr	r2, [r7, #4]
  47 0012 5A60     		str	r2, [r3, #4]
  20:../../source/include/os_lib/double_linked_list.h **** }
  48              		.loc 1 20 0
  49 0014 00BF     		nop
  50 0016 0C37     		adds	r7, r7, #12
  51              	.LCFI3:
  52              		.cfi_def_cfa_offset 4
  53 0018 BD46     		mov	sp, r7
  54              	.LCFI4:
  55              		.cfi_def_cfa_register 13
  56              		@ sp needed
  57 001a 80BC     		pop	{r7}
  58              	.LCFI5:
  59              		.cfi_restore 7
  60              		.cfi_def_cfa_offset 0
  61 001c 7047     		bx	lr
  62              		.cfi_endproc
  63              	.LFE0:
  64              		.size	INIT_LIST_HEAD, .-INIT_LIST_HEAD
  65              		.align	1
  66              		.syntax unified
  67              		.thumb
  68              		.thumb_func
  69              		.fpu softvfp
  70              		.type	__list_add, %function
  71              	__list_add:
  72              	.LFB1:
  21:../../source/include/os_lib/double_linked_list.h **** 
  22:../../source/include/os_lib/double_linked_list.h **** 
  23:../../source/include/os_lib/double_linked_list.h **** static inline void __list_add(struct list_head *new,
  24:../../source/include/os_lib/double_linked_list.h ****                   struct list_head *prev,
  25:../../source/include/os_lib/double_linked_list.h ****                   struct list_head *next)
  26:../../source/include/os_lib/double_linked_list.h **** {
  73              		.loc 1 26 0
  74              		.cfi_startproc
  75              		@ args = 0, pretend = 0, frame = 16
  76              		@ frame_needed = 1, uses_anonymous_args = 0
  77              		@ link register save eliminated.
  78 001e 80B4     		push	{r7}
  79              	.LCFI6:
  80              		.cfi_def_cfa_offset 4
  81              		.cfi_offset 7, -4
  82 0020 85B0     		sub	sp, sp, #20
  83              	.LCFI7:
  84              		.cfi_def_cfa_offset 24
  85 0022 00AF     		add	r7, sp, #0
  86              	.LCFI8:
  87              		.cfi_def_cfa_register 7
  88 0024 F860     		str	r0, [r7, #12]
ARM GAS  G:\Users\Jaxb\AppData\Local\Temp\ccF5r6CH.s 			page 3


  89 0026 B960     		str	r1, [r7, #8]
  90 0028 7A60     		str	r2, [r7, #4]
  27:../../source/include/os_lib/double_linked_list.h ****     next->prev = new;
  91              		.loc 1 27 0
  92 002a 7B68     		ldr	r3, [r7, #4]
  93 002c FA68     		ldr	r2, [r7, #12]
  94 002e 5A60     		str	r2, [r3, #4]
  28:../../source/include/os_lib/double_linked_list.h ****     new->next = next;
  95              		.loc 1 28 0
  96 0030 FB68     		ldr	r3, [r7, #12]
  97 0032 7A68     		ldr	r2, [r7, #4]
  98 0034 1A60     		str	r2, [r3]
  29:../../source/include/os_lib/double_linked_list.h ****     new->prev = prev;
  99              		.loc 1 29 0
 100 0036 FB68     		ldr	r3, [r7, #12]
 101 0038 BA68     		ldr	r2, [r7, #8]
 102 003a 5A60     		str	r2, [r3, #4]
  30:../../source/include/os_lib/double_linked_list.h ****     prev->next = new;
 103              		.loc 1 30 0
 104 003c BB68     		ldr	r3, [r7, #8]
 105 003e FA68     		ldr	r2, [r7, #12]
 106 0040 1A60     		str	r2, [r3]
  31:../../source/include/os_lib/double_linked_list.h **** }
 107              		.loc 1 31 0
 108 0042 00BF     		nop
 109 0044 1437     		adds	r7, r7, #20
 110              	.LCFI9:
 111              		.cfi_def_cfa_offset 4
 112 0046 BD46     		mov	sp, r7
 113              	.LCFI10:
 114              		.cfi_def_cfa_register 13
 115              		@ sp needed
 116 0048 80BC     		pop	{r7}
 117              	.LCFI11:
 118              		.cfi_restore 7
 119              		.cfi_def_cfa_offset 0
 120 004a 7047     		bx	lr
 121              		.cfi_endproc
 122              	.LFE1:
 123              		.size	__list_add, .-__list_add
 124              		.align	1
 125              		.syntax unified
 126              		.thumb
 127              		.thumb_func
 128              		.fpu softvfp
 129              		.type	list_add_tail, %function
 130              	list_add_tail:
 131              	.LFB3:
  32:../../source/include/os_lib/double_linked_list.h **** 
  33:../../source/include/os_lib/double_linked_list.h **** 
  34:../../source/include/os_lib/double_linked_list.h **** static inline void list_add(struct list_head *new, struct list_head *head)
  35:../../source/include/os_lib/double_linked_list.h **** {
  36:../../source/include/os_lib/double_linked_list.h ****     __list_add(new, head, head->next);
  37:../../source/include/os_lib/double_linked_list.h **** }
  38:../../source/include/os_lib/double_linked_list.h **** 
  39:../../source/include/os_lib/double_linked_list.h **** 
  40:../../source/include/os_lib/double_linked_list.h **** static inline void list_add_tail(struct list_head *new, struct list_head *head)
ARM GAS  G:\Users\Jaxb\AppData\Local\Temp\ccF5r6CH.s 			page 4


  41:../../source/include/os_lib/double_linked_list.h **** {
 132              		.loc 1 41 0
 133              		.cfi_startproc
 134              		@ args = 0, pretend = 0, frame = 8
 135              		@ frame_needed = 1, uses_anonymous_args = 0
 136 004c 80B5     		push	{r7, lr}
 137              	.LCFI12:
 138              		.cfi_def_cfa_offset 8
 139              		.cfi_offset 7, -8
 140              		.cfi_offset 14, -4
 141 004e 82B0     		sub	sp, sp, #8
 142              	.LCFI13:
 143              		.cfi_def_cfa_offset 16
 144 0050 00AF     		add	r7, sp, #0
 145              	.LCFI14:
 146              		.cfi_def_cfa_register 7
 147 0052 7860     		str	r0, [r7, #4]
 148 0054 3960     		str	r1, [r7]
  42:../../source/include/os_lib/double_linked_list.h ****     __list_add(new, head->prev, head);
 149              		.loc 1 42 0
 150 0056 3B68     		ldr	r3, [r7]
 151 0058 5B68     		ldr	r3, [r3, #4]
 152 005a 3A68     		ldr	r2, [r7]
 153 005c 1946     		mov	r1, r3
 154 005e 7868     		ldr	r0, [r7, #4]
 155 0060 FFF7DDFF 		bl	__list_add
  43:../../source/include/os_lib/double_linked_list.h **** }
 156              		.loc 1 43 0
 157 0064 00BF     		nop
 158 0066 0837     		adds	r7, r7, #8
 159              	.LCFI15:
 160              		.cfi_def_cfa_offset 8
 161 0068 BD46     		mov	sp, r7
 162              	.LCFI16:
 163              		.cfi_def_cfa_register 13
 164              		@ sp needed
 165 006a 80BD     		pop	{r7, pc}
 166              		.cfi_endproc
 167              	.LFE3:
 168              		.size	list_add_tail, .-list_add_tail
 169              		.align	1
 170              		.syntax unified
 171              		.thumb
 172              		.thumb_func
 173              		.fpu softvfp
 174              		.type	__list_del, %function
 175              	__list_del:
 176              	.LFB4:
  44:../../source/include/os_lib/double_linked_list.h **** 
  45:../../source/include/os_lib/double_linked_list.h **** 
  46:../../source/include/os_lib/double_linked_list.h **** static inline void __list_del(struct list_head * prev, struct list_head * next)
  47:../../source/include/os_lib/double_linked_list.h **** {
 177              		.loc 1 47 0
 178              		.cfi_startproc
 179              		@ args = 0, pretend = 0, frame = 8
 180              		@ frame_needed = 1, uses_anonymous_args = 0
 181              		@ link register save eliminated.
ARM GAS  G:\Users\Jaxb\AppData\Local\Temp\ccF5r6CH.s 			page 5


 182 006c 80B4     		push	{r7}
 183              	.LCFI17:
 184              		.cfi_def_cfa_offset 4
 185              		.cfi_offset 7, -4
 186 006e 83B0     		sub	sp, sp, #12
 187              	.LCFI18:
 188              		.cfi_def_cfa_offset 16
 189 0070 00AF     		add	r7, sp, #0
 190              	.LCFI19:
 191              		.cfi_def_cfa_register 7
 192 0072 7860     		str	r0, [r7, #4]
 193 0074 3960     		str	r1, [r7]
  48:../../source/include/os_lib/double_linked_list.h ****     next->prev = prev;
 194              		.loc 1 48 0
 195 0076 3B68     		ldr	r3, [r7]
 196 0078 7A68     		ldr	r2, [r7, #4]
 197 007a 5A60     		str	r2, [r3, #4]
  49:../../source/include/os_lib/double_linked_list.h ****     prev->next = next;
 198              		.loc 1 49 0
 199 007c 7B68     		ldr	r3, [r7, #4]
 200 007e 3A68     		ldr	r2, [r7]
 201 0080 1A60     		str	r2, [r3]
  50:../../source/include/os_lib/double_linked_list.h **** }
 202              		.loc 1 50 0
 203 0082 00BF     		nop
 204 0084 0C37     		adds	r7, r7, #12
 205              	.LCFI20:
 206              		.cfi_def_cfa_offset 4
 207 0086 BD46     		mov	sp, r7
 208              	.LCFI21:
 209              		.cfi_def_cfa_register 13
 210              		@ sp needed
 211 0088 80BC     		pop	{r7}
 212              	.LCFI22:
 213              		.cfi_restore 7
 214              		.cfi_def_cfa_offset 0
 215 008a 7047     		bx	lr
 216              		.cfi_endproc
 217              	.LFE4:
 218              		.size	__list_del, .-__list_del
 219              		.align	1
 220              		.syntax unified
 221              		.thumb
 222              		.thumb_func
 223              		.fpu softvfp
 224              		.type	list_del, %function
 225              	list_del:
 226              	.LFB5:
  51:../../source/include/os_lib/double_linked_list.h **** 
  52:../../source/include/os_lib/double_linked_list.h **** 
  53:../../source/include/os_lib/double_linked_list.h **** static inline void list_del(struct list_head *entry)
  54:../../source/include/os_lib/double_linked_list.h **** {
 227              		.loc 1 54 0
 228              		.cfi_startproc
 229              		@ args = 0, pretend = 0, frame = 8
 230              		@ frame_needed = 1, uses_anonymous_args = 0
 231 008c 80B5     		push	{r7, lr}
ARM GAS  G:\Users\Jaxb\AppData\Local\Temp\ccF5r6CH.s 			page 6


 232              	.LCFI23:
 233              		.cfi_def_cfa_offset 8
 234              		.cfi_offset 7, -8
 235              		.cfi_offset 14, -4
 236 008e 82B0     		sub	sp, sp, #8
 237              	.LCFI24:
 238              		.cfi_def_cfa_offset 16
 239 0090 00AF     		add	r7, sp, #0
 240              	.LCFI25:
 241              		.cfi_def_cfa_register 7
 242 0092 7860     		str	r0, [r7, #4]
  55:../../source/include/os_lib/double_linked_list.h ****     __list_del(entry->prev, entry->next);
 243              		.loc 1 55 0
 244 0094 7B68     		ldr	r3, [r7, #4]
 245 0096 5A68     		ldr	r2, [r3, #4]
 246 0098 7B68     		ldr	r3, [r7, #4]
 247 009a 1B68     		ldr	r3, [r3]
 248 009c 1946     		mov	r1, r3
 249 009e 1046     		mov	r0, r2
 250 00a0 FFF7E4FF 		bl	__list_del
  56:../../source/include/os_lib/double_linked_list.h **** }
 251              		.loc 1 56 0
 252 00a4 00BF     		nop
 253 00a6 0837     		adds	r7, r7, #8
 254              	.LCFI26:
 255              		.cfi_def_cfa_offset 8
 256 00a8 BD46     		mov	sp, r7
 257              	.LCFI27:
 258              		.cfi_def_cfa_register 13
 259              		@ sp needed
 260 00aa 80BD     		pop	{r7, pc}
 261              		.cfi_endproc
 262              	.LFE5:
 263              		.size	list_del, .-list_del
 264              		.bss
 265              		.align	2
 266              	suspend_list_head:
 267 0000 00000000 		.space	8
 267      00000000 
 268              		.size	suspend_list_head, 8
 269              		.text
 270              		.align	1
 271              		.global	__init_suspend_list
 272              		.syntax unified
 273              		.thumb
 274              		.thumb_func
 275              		.fpu softvfp
 276              		.type	__init_suspend_list, %function
 277              	__init_suspend_list:
 278              	.LFB11:
 279              		.file 2 "../../source/src/kernel/OS_CORE/schedule/os_suspend.c"
   1:../../source/src/kernel/OS_CORE/schedule/os_suspend.c **** #include <os_suspend.h>
   2:../../source/src/kernel/OS_CORE/schedule/os_suspend.c **** #include <double_linked_list.h>
   3:../../source/src/kernel/OS_CORE/schedule/os_suspend.c **** #include <ka_configuration.h>
   4:../../source/src/kernel/OS_CORE/schedule/os_suspend.c **** #include <myassert.h>
   5:../../source/src/kernel/OS_CORE/schedule/os_suspend.c **** #include <os_ready.h>
   6:../../source/src/kernel/OS_CORE/schedule/os_suspend.c **** 
ARM GAS  G:\Users\Jaxb\AppData\Local\Temp\ccF5r6CH.s 			page 7


   7:../../source/src/kernel/OS_CORE/schedule/os_suspend.c **** static struct list_head suspend_list_head;
   8:../../source/src/kernel/OS_CORE/schedule/os_suspend.c **** 
   9:../../source/src/kernel/OS_CORE/schedule/os_suspend.c **** void __init_suspend_list(void)
  10:../../source/src/kernel/OS_CORE/schedule/os_suspend.c **** {
 280              		.loc 2 10 0
 281              		.cfi_startproc
 282              		@ args = 0, pretend = 0, frame = 0
 283              		@ frame_needed = 1, uses_anonymous_args = 0
 284 00ac 80B5     		push	{r7, lr}
 285              	.LCFI28:
 286              		.cfi_def_cfa_offset 8
 287              		.cfi_offset 7, -8
 288              		.cfi_offset 14, -4
 289 00ae 00AF     		add	r7, sp, #0
 290              	.LCFI29:
 291              		.cfi_def_cfa_register 7
  11:../../source/src/kernel/OS_CORE/schedule/os_suspend.c **** 	INIT_LIST_HEAD(&suspend_list_head);
 292              		.loc 2 11 0
 293 00b0 0248     		ldr	r0, .L7
 294 00b2 FFF7A5FF 		bl	INIT_LIST_HEAD
  12:../../source/src/kernel/OS_CORE/schedule/os_suspend.c **** }
 295              		.loc 2 12 0
 296 00b6 00BF     		nop
 297 00b8 80BD     		pop	{r7, pc}
 298              	.L8:
 299 00ba 00BF     		.align	2
 300              	.L7:
 301 00bc 00000000 		.word	suspend_list_head
 302              		.cfi_endproc
 303              	.LFE11:
 304              		.size	__init_suspend_list, .-__init_suspend_list
 305              		.section	.rodata
 306              		.align	2
 307              	.LC0:
 308 0000 2E2E2F2E 		.ascii	"../../source/src/kernel/OS_CORE/schedule/os_suspend"
 308      2E2F736F 
 308      75726365 
 308      2F737263 
 308      2F6B6572 
 309 0033 2E6300   		.ascii	".c\000"
 310 0036 0000     		.align	2
 311              	.LC1:
 312 0038 6572726F 		.ascii	"error fun name : insert_into_suspend_list\012error "
 312      72206675 
 312      6E206E61 
 312      6D65203A 
 312      20696E73 
 313 0068 70617261 		.ascii	"para : TCB_ptr\012\000"
 313      203A2054 
 313      43425F70 
 313      74720A00 
 314              		.text
 315              		.align	1
 316              		.global	insert_into_suspend_list
 317              		.syntax unified
 318              		.thumb
 319              		.thumb_func
ARM GAS  G:\Users\Jaxb\AppData\Local\Temp\ccF5r6CH.s 			page 8


 320              		.fpu softvfp
 321              		.type	insert_into_suspend_list, %function
 322              	insert_into_suspend_list:
 323              	.LFB12:
  13:../../source/src/kernel/OS_CORE/schedule/os_suspend.c **** 
  14:../../source/src/kernel/OS_CORE/schedule/os_suspend.c **** inline int  insert_into_suspend_list(TCB *TCB_ptr)
  15:../../source/src/kernel/OS_CORE/schedule/os_suspend.c **** {
 324              		.loc 2 15 0
 325              		.cfi_startproc
 326              		@ args = 0, pretend = 0, frame = 8
 327              		@ frame_needed = 1, uses_anonymous_args = 0
 328 00c0 80B5     		push	{r7, lr}
 329              	.LCFI30:
 330              		.cfi_def_cfa_offset 8
 331              		.cfi_offset 7, -8
 332              		.cfi_offset 14, -4
 333 00c2 82B0     		sub	sp, sp, #8
 334              	.LCFI31:
 335              		.cfi_def_cfa_offset 16
 336 00c4 00AF     		add	r7, sp, #0
 337              	.LCFI32:
 338              		.cfi_def_cfa_register 7
 339 00c6 7860     		str	r0, [r7, #4]
  16:../../source/src/kernel/OS_CORE/schedule/os_suspend.c **** 	ASSERT(NULL != TCB_ptr);
 340              		.loc 2 16 0
 341 00c8 7B68     		ldr	r3, [r7, #4]
 342 00ca 002B     		cmp	r3, #0
 343 00cc 03D1     		bne	.L10
 344              		.loc 2 16 0 is_stmt 0 discriminator 1
 345 00ce 1021     		movs	r1, #16
 346 00d0 0B48     		ldr	r0, .L13
 347 00d2 FFF7FEFF 		bl	_ASSERT
 348              	.L10:
  17:../../source/src/kernel/OS_CORE/schedule/os_suspend.c **** #if CONFIG_PARA_CHECK
  18:../../source/src/kernel/OS_CORE/schedule/os_suspend.c **** 	if(NULL == TCB_ptr)
 349              		.loc 2 18 0 is_stmt 1
 350 00d6 7B68     		ldr	r3, [r7, #4]
 351 00d8 002B     		cmp	r3, #0
 352 00da 05D1     		bne	.L11
  19:../../source/src/kernel/OS_CORE/schedule/os_suspend.c **** 	{
  20:../../source/src/kernel/OS_CORE/schedule/os_suspend.c **** 		OS_ERROR_PARA_MESSAGE_DISPLAY(insert_into_suspend_list,TCB_ptr);
 353              		.loc 2 20 0
 354 00dc 0948     		ldr	r0, .L13+4
 355 00de FFF7FEFF 		bl	ka_printf
  21:../../source/src/kernel/OS_CORE/schedule/os_suspend.c **** 		return -ERROR_NULL_INPUT_PTR;
 356              		.loc 2 21 0
 357 00e2 6FF0FE03 		mvn	r3, #254
 358 00e6 06E0     		b	.L12
 359              	.L11:
  22:../../source/src/kernel/OS_CORE/schedule/os_suspend.c **** 	}
  23:../../source/src/kernel/OS_CORE/schedule/os_suspend.c **** #endif
  24:../../source/src/kernel/OS_CORE/schedule/os_suspend.c **** 	list_add_tail(&TCB_ptr->suspend_list,&suspend_list_head);
 360              		.loc 2 24 0
 361 00e8 7B68     		ldr	r3, [r7, #4]
 362 00ea 2433     		adds	r3, r3, #36
 363 00ec 0649     		ldr	r1, .L13+8
 364 00ee 1846     		mov	r0, r3
ARM GAS  G:\Users\Jaxb\AppData\Local\Temp\ccF5r6CH.s 			page 9


 365 00f0 FFF7ACFF 		bl	list_add_tail
  25:../../source/src/kernel/OS_CORE/schedule/os_suspend.c **** 	return FUN_EXECUTE_SUCCESSFULLY;
 366              		.loc 2 25 0
 367 00f4 0023     		movs	r3, #0
 368              	.L12:
  26:../../source/src/kernel/OS_CORE/schedule/os_suspend.c **** }
 369              		.loc 2 26 0
 370 00f6 1846     		mov	r0, r3
 371 00f8 0837     		adds	r7, r7, #8
 372              	.LCFI33:
 373              		.cfi_def_cfa_offset 8
 374 00fa BD46     		mov	sp, r7
 375              	.LCFI34:
 376              		.cfi_def_cfa_register 13
 377              		@ sp needed
 378 00fc 80BD     		pop	{r7, pc}
 379              	.L14:
 380 00fe 00BF     		.align	2
 381              	.L13:
 382 0100 00000000 		.word	.LC0
 383 0104 38000000 		.word	.LC1
 384 0108 00000000 		.word	suspend_list_head
 385              		.cfi_endproc
 386              	.LFE12:
 387              		.size	insert_into_suspend_list, .-insert_into_suspend_list
 388              		.section	.rodata
 389              		.align	2
 390              	.LC2:
 391 0078 6572726F 		.ascii	"error fun name : remove_from_suspend_list\012error "
 391      72206675 
 391      6E206E61 
 391      6D65203A 
 391      2072656D 
 392 00a8 70617261 		.ascii	"para : TCB_ptr\012\000"
 392      203A2054 
 392      43425F70 
 392      74720A00 
 393              		.text
 394              		.align	1
 395              		.global	remove_from_suspend_list
 396              		.syntax unified
 397              		.thumb
 398              		.thumb_func
 399              		.fpu softvfp
 400              		.type	remove_from_suspend_list, %function
 401              	remove_from_suspend_list:
 402              	.LFB13:
  27:../../source/src/kernel/OS_CORE/schedule/os_suspend.c **** 
  28:../../source/src/kernel/OS_CORE/schedule/os_suspend.c **** int remove_from_suspend_list(TCB *TCB_ptr)
  29:../../source/src/kernel/OS_CORE/schedule/os_suspend.c **** {
 403              		.loc 2 29 0
 404              		.cfi_startproc
 405              		@ args = 0, pretend = 0, frame = 16
 406              		@ frame_needed = 1, uses_anonymous_args = 0
 407 010c 80B5     		push	{r7, lr}
 408              	.LCFI35:
 409              		.cfi_def_cfa_offset 8
ARM GAS  G:\Users\Jaxb\AppData\Local\Temp\ccF5r6CH.s 			page 10


 410              		.cfi_offset 7, -8
 411              		.cfi_offset 14, -4
 412 010e 84B0     		sub	sp, sp, #16
 413              	.LCFI36:
 414              		.cfi_def_cfa_offset 24
 415 0110 00AF     		add	r7, sp, #0
 416              	.LCFI37:
 417              		.cfi_def_cfa_register 7
 418 0112 7860     		str	r0, [r7, #4]
  30:../../source/src/kernel/OS_CORE/schedule/os_suspend.c **** 	ASSERT(NULL != TCB_ptr);
 419              		.loc 2 30 0
 420 0114 7B68     		ldr	r3, [r7, #4]
 421 0116 002B     		cmp	r3, #0
 422 0118 03D1     		bne	.L16
 423              		.loc 2 30 0 is_stmt 0 discriminator 1
 424 011a 1E21     		movs	r1, #30
 425 011c 1448     		ldr	r0, .L22
 426 011e FFF7FEFF 		bl	_ASSERT
 427              	.L16:
  31:../../source/src/kernel/OS_CORE/schedule/os_suspend.c **** #if CONFIG_PARA_CHECK
  32:../../source/src/kernel/OS_CORE/schedule/os_suspend.c **** 	if(NULL == TCB_ptr)
 428              		.loc 2 32 0 is_stmt 1
 429 0122 7B68     		ldr	r3, [r7, #4]
 430 0124 002B     		cmp	r3, #0
 431 0126 05D1     		bne	.L17
  33:../../source/src/kernel/OS_CORE/schedule/os_suspend.c **** 	{
  34:../../source/src/kernel/OS_CORE/schedule/os_suspend.c **** 		OS_ERROR_PARA_MESSAGE_DISPLAY(remove_from_suspend_list,TCB_ptr);
 432              		.loc 2 34 0
 433 0128 1248     		ldr	r0, .L22+4
 434 012a FFF7FEFF 		bl	ka_printf
  35:../../source/src/kernel/OS_CORE/schedule/os_suspend.c **** 		return -ERROR_NULL_INPUT_PTR;
 435              		.loc 2 35 0
 436 012e 6FF0FE03 		mvn	r3, #254
 437 0132 19E0     		b	.L18
 438              	.L17:
  36:../../source/src/kernel/OS_CORE/schedule/os_suspend.c **** 	}
  37:../../source/src/kernel/OS_CORE/schedule/os_suspend.c **** #endif
  38:../../source/src/kernel/OS_CORE/schedule/os_suspend.c **** 	struct list_head *pos;
  39:../../source/src/kernel/OS_CORE/schedule/os_suspend.c **** 	list_for_each(pos,&suspend_list_head)
 439              		.loc 2 39 0
 440 0134 104B     		ldr	r3, .L22+8
 441 0136 1B68     		ldr	r3, [r3]
 442 0138 FB60     		str	r3, [r7, #12]
 443 013a 0FE0     		b	.L19
 444              	.L21:
  40:../../source/src/kernel/OS_CORE/schedule/os_suspend.c **** 	{
  41:../../source/src/kernel/OS_CORE/schedule/os_suspend.c **** 		if(&TCB_ptr->suspend_list == pos)
 445              		.loc 2 41 0
 446 013c 7B68     		ldr	r3, [r7, #4]
 447 013e 2433     		adds	r3, r3, #36
 448 0140 FA68     		ldr	r2, [r7, #12]
 449 0142 9A42     		cmp	r2, r3
 450 0144 07D1     		bne	.L20
  42:../../source/src/kernel/OS_CORE/schedule/os_suspend.c **** 		{
  43:../../source/src/kernel/OS_CORE/schedule/os_suspend.c **** 			list_del(pos);
 451              		.loc 2 43 0
 452 0146 F868     		ldr	r0, [r7, #12]
ARM GAS  G:\Users\Jaxb\AppData\Local\Temp\ccF5r6CH.s 			page 11


 453 0148 FFF7A0FF 		bl	list_del
  44:../../source/src/kernel/OS_CORE/schedule/os_suspend.c **** 			insert_ready_TCB(TCB_ptr);
 454              		.loc 2 44 0
 455 014c 7868     		ldr	r0, [r7, #4]
 456 014e FFF7FEFF 		bl	insert_ready_TCB
  45:../../source/src/kernel/OS_CORE/schedule/os_suspend.c **** 			return FUN_EXECUTE_SUCCESSFULLY;
 457              		.loc 2 45 0
 458 0152 0023     		movs	r3, #0
 459 0154 08E0     		b	.L18
 460              	.L20:
  39:../../source/src/kernel/OS_CORE/schedule/os_suspend.c **** 	{
 461              		.loc 2 39 0 discriminator 2
 462 0156 FB68     		ldr	r3, [r7, #12]
 463 0158 1B68     		ldr	r3, [r3]
 464 015a FB60     		str	r3, [r7, #12]
 465              	.L19:
  39:../../source/src/kernel/OS_CORE/schedule/os_suspend.c **** 	{
 466              		.loc 2 39 0 is_stmt 0 discriminator 1
 467 015c FB68     		ldr	r3, [r7, #12]
 468 015e 064A     		ldr	r2, .L22+8
 469 0160 9342     		cmp	r3, r2
 470 0162 EBD1     		bne	.L21
  46:../../source/src/kernel/OS_CORE/schedule/os_suspend.c **** 		}
  47:../../source/src/kernel/OS_CORE/schedule/os_suspend.c **** 	}
  48:../../source/src/kernel/OS_CORE/schedule/os_suspend.c **** 	return -ERROR_VALUELESS_INPUT;
 471              		.loc 2 48 0 is_stmt 1
 472 0164 6FF0FD03 		mvn	r3, #253
 473              	.L18:
  49:../../source/src/kernel/OS_CORE/schedule/os_suspend.c **** }
 474              		.loc 2 49 0
 475 0168 1846     		mov	r0, r3
 476 016a 1037     		adds	r7, r7, #16
 477              	.LCFI38:
 478              		.cfi_def_cfa_offset 8
 479 016c BD46     		mov	sp, r7
 480              	.LCFI39:
 481              		.cfi_def_cfa_register 13
 482              		@ sp needed
 483 016e 80BD     		pop	{r7, pc}
 484              	.L23:
 485              		.align	2
 486              	.L22:
 487 0170 00000000 		.word	.LC0
 488 0174 78000000 		.word	.LC2
 489 0178 00000000 		.word	suspend_list_head
 490              		.cfi_endproc
 491              	.LFE13:
 492              		.size	remove_from_suspend_list, .-remove_from_suspend_list
 493              	.Letext0:
 494              		.file 3 "../../source/include/os_cpu/kakaosstdint.h"
 495              		.file 4 "../../source/include/os_core/task_state.h"
 496              		.file 5 "../../source/include/os_core/TCB.h"
 497              		.section	.debug_info,"",%progbits
 498              	.Ldebug_info0:
 499 0000 BA030000 		.4byte	0x3ba
 500 0004 0200     		.2byte	0x2
 501 0006 00000000 		.4byte	.Ldebug_abbrev0
ARM GAS  G:\Users\Jaxb\AppData\Local\Temp\ccF5r6CH.s 			page 12


 502 000a 04       		.byte	0x4
 503 000b 01       		.uleb128 0x1
 504 000c FD020000 		.4byte	.LASF53
 505 0010 0C       		.byte	0xc
 506 0011 CB030000 		.4byte	.LASF54
 507 0015 3E040000 		.4byte	.LASF55
 508 0019 00000000 		.4byte	.Ltext0
 509 001d 7C010000 		.4byte	.Letext0
 510 0021 00000000 		.4byte	.Ldebug_line0
 511 0025 02       		.uleb128 0x2
 512 0026 01       		.byte	0x1
 513 0027 06       		.byte	0x6
 514 0028 BF030000 		.4byte	.LASF0
 515 002c 02       		.uleb128 0x2
 516 002d 02       		.byte	0x2
 517 002e 05       		.byte	0x5
 518 002f C8020000 		.4byte	.LASF1
 519 0033 03       		.uleb128 0x3
 520 0034 04       		.byte	0x4
 521 0035 05       		.byte	0x5
 522 0036 696E7400 		.ascii	"int\000"
 523 003a 04       		.uleb128 0x4
 524 003b 33000000 		.4byte	0x33
 525 003f 02       		.uleb128 0x2
 526 0040 08       		.byte	0x8
 527 0041 05       		.byte	0x5
 528 0042 79020000 		.4byte	.LASF2
 529 0046 02       		.uleb128 0x2
 530 0047 01       		.byte	0x1
 531 0048 08       		.byte	0x8
 532 0049 0F010000 		.4byte	.LASF3
 533 004d 02       		.uleb128 0x2
 534 004e 02       		.byte	0x2
 535 004f 07       		.byte	0x7
 536 0050 4B010000 		.4byte	.LASF4
 537 0054 05       		.uleb128 0x5
 538 0055 B2020000 		.4byte	.LASF6
 539 0059 03       		.byte	0x3
 540 005a 0C       		.byte	0xc
 541 005b 5F000000 		.4byte	0x5f
 542 005f 02       		.uleb128 0x2
 543 0060 04       		.byte	0x4
 544 0061 07       		.byte	0x7
 545 0062 E8010000 		.4byte	.LASF5
 546 0066 05       		.uleb128 0x5
 547 0067 44010000 		.4byte	.LASF7
 548 006b 03       		.byte	0x3
 549 006c 0D       		.byte	0xd
 550 006d 71000000 		.4byte	0x71
 551 0071 02       		.uleb128 0x2
 552 0072 08       		.byte	0x8
 553 0073 07       		.byte	0x7
 554 0074 0F020000 		.4byte	.LASF8
 555 0078 06       		.uleb128 0x6
 556 0079 6F020000 		.4byte	.LASF24
 557 007d 08       		.byte	0x8
 558 007e 01       		.byte	0x1
ARM GAS  G:\Users\Jaxb\AppData\Local\Temp\ccF5r6CH.s 			page 13


 559 007f 04       		.byte	0x4
 560 0080 A1000000 		.4byte	0xa1
 561 0084 07       		.uleb128 0x7
 562 0085 15000000 		.4byte	.LASF9
 563 0089 01       		.byte	0x1
 564 008a 05       		.byte	0x5
 565 008b A1000000 		.4byte	0xa1
 566 008f 02       		.byte	0x2
 567 0090 23       		.byte	0x23
 568 0091 00       		.uleb128 0
 569 0092 07       		.uleb128 0x7
 570 0093 39040000 		.4byte	.LASF10
 571 0097 01       		.byte	0x1
 572 0098 05       		.byte	0x5
 573 0099 A1000000 		.4byte	0xa1
 574 009d 02       		.byte	0x2
 575 009e 23       		.byte	0x23
 576 009f 04       		.uleb128 0x4
 577 00a0 00       		.byte	0
 578 00a1 08       		.uleb128 0x8
 579 00a2 04       		.byte	0x4
 580 00a3 78000000 		.4byte	0x78
 581 00a7 09       		.uleb128 0x9
 582 00a8 40020000 		.4byte	.LASF56
 583 00ac 07       		.byte	0x7
 584 00ad 01       		.byte	0x1
 585 00ae 46000000 		.4byte	0x46
 586 00b2 04       		.byte	0x4
 587 00b3 04       		.byte	0x4
 588 00b4 F5000000 		.4byte	0xf5
 589 00b8 0A       		.uleb128 0xa
 590 00b9 F6000000 		.4byte	.LASF11
 591 00bd 01       		.byte	0x1
 592 00be 0A       		.uleb128 0xa
 593 00bf 1A000000 		.4byte	.LASF12
 594 00c3 02       		.byte	0x2
 595 00c4 0A       		.uleb128 0xa
 596 00c5 01040000 		.4byte	.LASF13
 597 00c9 03       		.byte	0x3
 598 00ca 0A       		.uleb128 0xa
 599 00cb 89010000 		.4byte	.LASF14
 600 00cf 04       		.byte	0x4
 601 00d0 0A       		.uleb128 0xa
 602 00d1 A8030000 		.4byte	.LASF15
 603 00d5 05       		.byte	0x5
 604 00d6 0A       		.uleb128 0xa
 605 00d7 D5000000 		.4byte	.LASF16
 606 00db 06       		.byte	0x6
 607 00dc 0A       		.uleb128 0xa
 608 00dd 5E010000 		.4byte	.LASF17
 609 00e1 07       		.byte	0x7
 610 00e2 0A       		.uleb128 0xa
 611 00e3 DD020000 		.4byte	.LASF18
 612 00e7 08       		.byte	0x8
 613 00e8 0A       		.uleb128 0xa
 614 00e9 52000000 		.4byte	.LASF19
 615 00ed 09       		.byte	0x9
ARM GAS  G:\Users\Jaxb\AppData\Local\Temp\ccF5r6CH.s 			page 14


 616 00ee 0A       		.uleb128 0xa
 617 00ef 4B020000 		.4byte	.LASF20
 618 00f3 0A       		.byte	0xa
 619 00f4 00       		.byte	0
 620 00f5 05       		.uleb128 0x5
 621 00f6 CB010000 		.4byte	.LASF21
 622 00fa 04       		.byte	0x4
 623 00fb 0F       		.byte	0xf
 624 00fc A7000000 		.4byte	0xa7
 625 0100 05       		.uleb128 0x5
 626 0101 64020000 		.4byte	.LASF22
 627 0105 05       		.byte	0x5
 628 0106 0B       		.byte	0xb
 629 0107 5F000000 		.4byte	0x5f
 630 010b 05       		.uleb128 0x5
 631 010c 26000000 		.4byte	.LASF23
 632 0110 05       		.byte	0x5
 633 0111 0D       		.byte	0xd
 634 0112 5F000000 		.4byte	0x5f
 635 0116 0B       		.uleb128 0xb
 636 0117 16040000 		.4byte	.LASF57
 637 011b 05       		.byte	0x5
 638 011c 14       		.byte	0x14
 639 011d 3A000000 		.4byte	0x3a
 640 0121 01       		.byte	0x1
 641 0122 01       		.byte	0x1
 642 0123 06       		.uleb128 0x6
 643 0124 F5010000 		.4byte	.LASF25
 644 0128 48       		.byte	0x48
 645 0129 05       		.byte	0x5
 646 012a 37       		.byte	0x37
 647 012b 02020000 		.4byte	0x202
 648 012f 07       		.uleb128 0x7
 649 0130 9A000000 		.4byte	.LASF26
 650 0134 05       		.byte	0x5
 651 0135 38       		.byte	0x38
 652 0136 02020000 		.4byte	0x202
 653 013a 02       		.byte	0x2
 654 013b 23       		.byte	0x23
 655 013c 00       		.uleb128 0
 656 013d 07       		.uleb128 0x7
 657 013e 87020000 		.4byte	.LASF27
 658 0142 05       		.byte	0x5
 659 0143 39       		.byte	0x39
 660 0144 5F000000 		.4byte	0x5f
 661 0148 02       		.byte	0x2
 662 0149 23       		.byte	0x23
 663 014a 04       		.uleb128 0x4
 664 014b 07       		.uleb128 0x7
 665 014c 7F010000 		.4byte	.LASF28
 666 0150 05       		.byte	0x5
 667 0151 3A       		.byte	0x3a
 668 0152 02020000 		.4byte	0x202
 669 0156 02       		.byte	0x2
 670 0157 23       		.byte	0x23
 671 0158 08       		.uleb128 0x8
 672 0159 07       		.uleb128 0x7
ARM GAS  G:\Users\Jaxb\AppData\Local\Temp\ccF5r6CH.s 			page 15


 673 015a 02010000 		.4byte	.LASF29
 674 015e 05       		.byte	0x5
 675 015f 3B       		.byte	0x3b
 676 0160 0B010000 		.4byte	0x10b
 677 0164 02       		.byte	0x2
 678 0165 23       		.byte	0x23
 679 0166 0C       		.uleb128 0xc
 680 0167 07       		.uleb128 0x7
 681 0168 0A000000 		.4byte	.LASF30
 682 016c 05       		.byte	0x5
 683 016d 3C       		.byte	0x3c
 684 016e F5000000 		.4byte	0xf5
 685 0172 02       		.byte	0x2
 686 0173 23       		.byte	0x23
 687 0174 10       		.uleb128 0x10
 688 0175 07       		.uleb128 0x7
 689 0176 05000000 		.4byte	.LASF31
 690 017a 05       		.byte	0x5
 691 017b 3D       		.byte	0x3d
 692 017c 0B010000 		.4byte	0x10b
 693 0180 02       		.byte	0x2
 694 0181 23       		.byte	0x23
 695 0182 14       		.uleb128 0x14
 696 0183 07       		.uleb128 0x7
 697 0184 72000000 		.4byte	.LASF32
 698 0188 05       		.byte	0x5
 699 0189 3E       		.byte	0x3e
 700 018a 33000000 		.4byte	0x33
 701 018e 02       		.byte	0x2
 702 018f 23       		.byte	0x23
 703 0190 18       		.uleb128 0x18
 704 0191 07       		.uleb128 0x7
 705 0192 31020000 		.4byte	.LASF33
 706 0196 05       		.byte	0x5
 707 0197 3F       		.byte	0x3f
 708 0198 78000000 		.4byte	0x78
 709 019c 02       		.byte	0x2
 710 019d 23       		.byte	0x23
 711 019e 1C       		.uleb128 0x1c
 712 019f 07       		.uleb128 0x7
 713 01a0 A0010000 		.4byte	.LASF34
 714 01a4 05       		.byte	0x5
 715 01a5 40       		.byte	0x40
 716 01a6 78000000 		.4byte	0x78
 717 01aa 02       		.byte	0x2
 718 01ab 23       		.byte	0x23
 719 01ac 24       		.uleb128 0x24
 720 01ad 07       		.uleb128 0x7
 721 01ae A1020000 		.4byte	.LASF35
 722 01b2 05       		.byte	0x5
 723 01b3 41       		.byte	0x41
 724 01b4 08020000 		.4byte	0x208
 725 01b8 02       		.byte	0x2
 726 01b9 23       		.byte	0x23
 727 01ba 2C       		.uleb128 0x2c
 728 01bb 07       		.uleb128 0x7
 729 01bc 86000000 		.4byte	.LASF36
ARM GAS  G:\Users\Jaxb\AppData\Local\Temp\ccF5r6CH.s 			page 16


 730 01c0 05       		.byte	0x5
 731 01c1 42       		.byte	0x42
 732 01c2 5F000000 		.4byte	0x5f
 733 01c6 02       		.byte	0x2
 734 01c7 23       		.byte	0x23
 735 01c8 30       		.uleb128 0x30
 736 01c9 07       		.uleb128 0x7
 737 01ca AE000000 		.4byte	.LASF37
 738 01ce 05       		.byte	0x5
 739 01cf 43       		.byte	0x43
 740 01d0 5F000000 		.4byte	0x5f
 741 01d4 02       		.byte	0x2
 742 01d5 23       		.byte	0x23
 743 01d6 34       		.uleb128 0x34
 744 01d7 07       		.uleb128 0x7
 745 01d8 A6020000 		.4byte	.LASF38
 746 01dc 05       		.byte	0x5
 747 01dd 44       		.byte	0x44
 748 01de 54000000 		.4byte	0x54
 749 01e2 02       		.byte	0x2
 750 01e3 23       		.byte	0x23
 751 01e4 38       		.uleb128 0x38
 752 01e5 07       		.uleb128 0x7
 753 01e6 C2000000 		.4byte	.LASF39
 754 01ea 05       		.byte	0x5
 755 01eb 45       		.byte	0x45
 756 01ec 1B020000 		.4byte	0x21b
 757 01f0 02       		.byte	0x2
 758 01f1 23       		.byte	0x23
 759 01f2 3C       		.uleb128 0x3c
 760 01f3 07       		.uleb128 0x7
 761 01f4 28040000 		.4byte	.LASF40
 762 01f8 05       		.byte	0x5
 763 01f9 46       		.byte	0x46
 764 01fa 66000000 		.4byte	0x66
 765 01fe 02       		.byte	0x2
 766 01ff 23       		.byte	0x23
 767 0200 40       		.uleb128 0x40
 768 0201 00       		.byte	0
 769 0202 08       		.uleb128 0x8
 770 0203 04       		.byte	0x4
 771 0204 00010000 		.4byte	0x100
 772 0208 08       		.uleb128 0x8
 773 0209 04       		.byte	0x4
 774 020a 0E020000 		.4byte	0x20e
 775 020e 02       		.uleb128 0x2
 776 020f 01       		.byte	0x1
 777 0210 08       		.byte	0x8
 778 0211 A3030000 		.4byte	.LASF41
 779 0215 0C       		.uleb128 0xc
 780 0216 B9020000 		.4byte	.LASF58
 781 021a 01       		.byte	0x1
 782 021b 08       		.uleb128 0x8
 783 021c 04       		.byte	0x4
 784 021d 15020000 		.4byte	0x215
 785 0221 0D       		.uleb128 0xd
 786 0222 54434200 		.ascii	"TCB\000"
ARM GAS  G:\Users\Jaxb\AppData\Local\Temp\ccF5r6CH.s 			page 17


 787 0226 05       		.byte	0x5
 788 0227 47       		.byte	0x47
 789 0228 23010000 		.4byte	0x123
 790 022c 0E       		.uleb128 0xe
 791 022d D6010000 		.4byte	.LASF42
 792 0231 02       		.byte	0x2
 793 0232 07       		.byte	0x7
 794 0233 78000000 		.4byte	0x78
 795 0237 05       		.byte	0x5
 796 0238 03       		.byte	0x3
 797 0239 00000000 		.4byte	suspend_list_head
 798 023d 0F       		.uleb128 0xf
 799 023e 01       		.byte	0x1
 800 023f 1D010000 		.4byte	.LASF43
 801 0243 02       		.byte	0x2
 802 0244 1C       		.byte	0x1c
 803 0245 01       		.byte	0x1
 804 0246 33000000 		.4byte	0x33
 805 024a 0C010000 		.4byte	.LFB13
 806 024e 7C010000 		.4byte	.LFE13
 807 0252 00000000 		.4byte	.LLST7
 808 0256 01       		.byte	0x1
 809 0257 78020000 		.4byte	0x278
 810 025b 10       		.uleb128 0x10
 811 025c A0000000 		.4byte	.LASF45
 812 0260 02       		.byte	0x2
 813 0261 1C       		.byte	0x1c
 814 0262 78020000 		.4byte	0x278
 815 0266 02       		.byte	0x2
 816 0267 91       		.byte	0x91
 817 0268 6C       		.sleb128 -20
 818 0269 11       		.uleb128 0x11
 819 026a 706F7300 		.ascii	"pos\000"
 820 026e 02       		.byte	0x2
 821 026f 26       		.byte	0x26
 822 0270 A1000000 		.4byte	0xa1
 823 0274 02       		.byte	0x2
 824 0275 91       		.byte	0x91
 825 0276 74       		.sleb128 -12
 826 0277 00       		.byte	0
 827 0278 08       		.uleb128 0x8
 828 0279 04       		.byte	0x4
 829 027a 21020000 		.4byte	0x221
 830 027e 0F       		.uleb128 0xf
 831 027f 01       		.byte	0x1
 832 0280 B2010000 		.4byte	.LASF44
 833 0284 02       		.byte	0x2
 834 0285 0E       		.byte	0xe
 835 0286 01       		.byte	0x1
 836 0287 33000000 		.4byte	0x33
 837 028b C0000000 		.4byte	.LFB12
 838 028f 0C010000 		.4byte	.LFE12
 839 0293 50000000 		.4byte	.LLST6
 840 0297 01       		.byte	0x1
 841 0298 AB020000 		.4byte	0x2ab
 842 029c 10       		.uleb128 0x10
 843 029d A0000000 		.4byte	.LASF45
ARM GAS  G:\Users\Jaxb\AppData\Local\Temp\ccF5r6CH.s 			page 18


 844 02a1 02       		.byte	0x2
 845 02a2 0E       		.byte	0xe
 846 02a3 78020000 		.4byte	0x278
 847 02a7 02       		.byte	0x2
 848 02a8 91       		.byte	0x91
 849 02a9 74       		.sleb128 -12
 850 02aa 00       		.byte	0
 851 02ab 12       		.uleb128 0x12
 852 02ac 01       		.byte	0x1
 853 02ad 35000000 		.4byte	.LASF59
 854 02b1 02       		.byte	0x2
 855 02b2 09       		.byte	0x9
 856 02b3 01       		.byte	0x1
 857 02b4 AC000000 		.4byte	.LFB11
 858 02b8 C0000000 		.4byte	.LFE11
 859 02bc A0000000 		.4byte	.LLST5
 860 02c0 01       		.byte	0x1
 861 02c1 13       		.uleb128 0x13
 862 02c2 49000000 		.4byte	.LASF47
 863 02c6 01       		.byte	0x1
 864 02c7 35       		.byte	0x35
 865 02c8 01       		.byte	0x1
 866 02c9 8C000000 		.4byte	.LFB5
 867 02cd AC000000 		.4byte	.LFE5
 868 02d1 CC000000 		.4byte	.LLST4
 869 02d5 01       		.byte	0x1
 870 02d6 E9020000 		.4byte	0x2e9
 871 02da 10       		.uleb128 0x10
 872 02db A8000000 		.4byte	.LASF46
 873 02df 01       		.byte	0x1
 874 02e0 35       		.byte	0x35
 875 02e1 A1000000 		.4byte	0xa1
 876 02e5 02       		.byte	0x2
 877 02e6 91       		.byte	0x91
 878 02e7 74       		.sleb128 -12
 879 02e8 00       		.byte	0
 880 02e9 14       		.uleb128 0x14
 881 02ea 26020000 		.4byte	.LASF48
 882 02ee 01       		.byte	0x1
 883 02ef 2E       		.byte	0x2e
 884 02f0 01       		.byte	0x1
 885 02f1 6C000000 		.4byte	.LFB4
 886 02f5 8C000000 		.4byte	.LFE4
 887 02f9 1C010000 		.4byte	.LLST3
 888 02fd 01       		.byte	0x1
 889 02fe 1F030000 		.4byte	0x31f
 890 0302 10       		.uleb128 0x10
 891 0303 39040000 		.4byte	.LASF10
 892 0307 01       		.byte	0x1
 893 0308 2E       		.byte	0x2e
 894 0309 A1000000 		.4byte	0xa1
 895 030d 02       		.byte	0x2
 896 030e 91       		.byte	0x91
 897 030f 74       		.sleb128 -12
 898 0310 10       		.uleb128 0x10
 899 0311 15000000 		.4byte	.LASF9
 900 0315 01       		.byte	0x1
ARM GAS  G:\Users\Jaxb\AppData\Local\Temp\ccF5r6CH.s 			page 19


 901 0316 2E       		.byte	0x2e
 902 0317 A1000000 		.4byte	0xa1
 903 031b 02       		.byte	0x2
 904 031c 91       		.byte	0x91
 905 031d 70       		.sleb128 -16
 906 031e 00       		.byte	0
 907 031f 13       		.uleb128 0x13
 908 0320 36010000 		.4byte	.LASF49
 909 0324 01       		.byte	0x1
 910 0325 28       		.byte	0x28
 911 0326 01       		.byte	0x1
 912 0327 4C000000 		.4byte	.LFB3
 913 032b 6C000000 		.4byte	.LFE3
 914 032f 78010000 		.4byte	.LLST2
 915 0333 01       		.byte	0x1
 916 0334 55030000 		.4byte	0x355
 917 0338 15       		.uleb128 0x15
 918 0339 6E657700 		.ascii	"new\000"
 919 033d 01       		.byte	0x1
 920 033e 28       		.byte	0x28
 921 033f A1000000 		.4byte	0xa1
 922 0343 02       		.byte	0x2
 923 0344 91       		.byte	0x91
 924 0345 74       		.sleb128 -12
 925 0346 10       		.uleb128 0x10
 926 0347 AD010000 		.4byte	.LASF50
 927 034b 01       		.byte	0x1
 928 034c 28       		.byte	0x28
 929 034d A1000000 		.4byte	0xa1
 930 0351 02       		.byte	0x2
 931 0352 91       		.byte	0x91
 932 0353 70       		.sleb128 -16
 933 0354 00       		.byte	0
 934 0355 14       		.uleb128 0x14
 935 0356 D2020000 		.4byte	.LASF51
 936 035a 01       		.byte	0x1
 937 035b 17       		.byte	0x17
 938 035c 01       		.byte	0x1
 939 035d 1E000000 		.4byte	.LFB1
 940 0361 4C000000 		.4byte	.LFE1
 941 0365 C8010000 		.4byte	.LLST1
 942 0369 01       		.byte	0x1
 943 036a 99030000 		.4byte	0x399
 944 036e 15       		.uleb128 0x15
 945 036f 6E657700 		.ascii	"new\000"
 946 0373 01       		.byte	0x1
 947 0374 17       		.byte	0x17
 948 0375 A1000000 		.4byte	0xa1
 949 0379 02       		.byte	0x2
 950 037a 91       		.byte	0x91
 951 037b 74       		.sleb128 -12
 952 037c 10       		.uleb128 0x10
 953 037d 39040000 		.4byte	.LASF10
 954 0381 01       		.byte	0x1
 955 0382 18       		.byte	0x18
 956 0383 A1000000 		.4byte	0xa1
 957 0387 02       		.byte	0x2
ARM GAS  G:\Users\Jaxb\AppData\Local\Temp\ccF5r6CH.s 			page 20


 958 0388 91       		.byte	0x91
 959 0389 70       		.sleb128 -16
 960 038a 10       		.uleb128 0x10
 961 038b 15000000 		.4byte	.LASF9
 962 038f 01       		.byte	0x1
 963 0390 19       		.byte	0x19
 964 0391 A1000000 		.4byte	0xa1
 965 0395 02       		.byte	0x2
 966 0396 91       		.byte	0x91
 967 0397 6C       		.sleb128 -20
 968 0398 00       		.byte	0
 969 0399 16       		.uleb128 0x16
 970 039a 92020000 		.4byte	.LASF60
 971 039e 01       		.byte	0x1
 972 039f 10       		.byte	0x10
 973 03a0 01       		.byte	0x1
 974 03a1 00000000 		.4byte	.LFB0
 975 03a5 1E000000 		.4byte	.LFE0
 976 03a9 24020000 		.4byte	.LLST0
 977 03ad 01       		.byte	0x1
 978 03ae 10       		.uleb128 0x10
 979 03af 00000000 		.4byte	.LASF52
 980 03b3 01       		.byte	0x1
 981 03b4 10       		.byte	0x10
 982 03b5 A1000000 		.4byte	0xa1
 983 03b9 02       		.byte	0x2
 984 03ba 91       		.byte	0x91
 985 03bb 74       		.sleb128 -12
 986 03bc 00       		.byte	0
 987 03bd 00       		.byte	0
 988              		.section	.debug_abbrev,"",%progbits
 989              	.Ldebug_abbrev0:
 990 0000 01       		.uleb128 0x1
 991 0001 11       		.uleb128 0x11
 992 0002 01       		.byte	0x1
 993 0003 25       		.uleb128 0x25
 994 0004 0E       		.uleb128 0xe
 995 0005 13       		.uleb128 0x13
 996 0006 0B       		.uleb128 0xb
 997 0007 03       		.uleb128 0x3
 998 0008 0E       		.uleb128 0xe
 999 0009 1B       		.uleb128 0x1b
 1000 000a 0E       		.uleb128 0xe
 1001 000b 11       		.uleb128 0x11
 1002 000c 01       		.uleb128 0x1
 1003 000d 12       		.uleb128 0x12
 1004 000e 01       		.uleb128 0x1
 1005 000f 10       		.uleb128 0x10
 1006 0010 06       		.uleb128 0x6
 1007 0011 00       		.byte	0
 1008 0012 00       		.byte	0
 1009 0013 02       		.uleb128 0x2
 1010 0014 24       		.uleb128 0x24
 1011 0015 00       		.byte	0
 1012 0016 0B       		.uleb128 0xb
 1013 0017 0B       		.uleb128 0xb
 1014 0018 3E       		.uleb128 0x3e
ARM GAS  G:\Users\Jaxb\AppData\Local\Temp\ccF5r6CH.s 			page 21


 1015 0019 0B       		.uleb128 0xb
 1016 001a 03       		.uleb128 0x3
 1017 001b 0E       		.uleb128 0xe
 1018 001c 00       		.byte	0
 1019 001d 00       		.byte	0
 1020 001e 03       		.uleb128 0x3
 1021 001f 24       		.uleb128 0x24
 1022 0020 00       		.byte	0
 1023 0021 0B       		.uleb128 0xb
 1024 0022 0B       		.uleb128 0xb
 1025 0023 3E       		.uleb128 0x3e
 1026 0024 0B       		.uleb128 0xb
 1027 0025 03       		.uleb128 0x3
 1028 0026 08       		.uleb128 0x8
 1029 0027 00       		.byte	0
 1030 0028 00       		.byte	0
 1031 0029 04       		.uleb128 0x4
 1032 002a 35       		.uleb128 0x35
 1033 002b 00       		.byte	0
 1034 002c 49       		.uleb128 0x49
 1035 002d 13       		.uleb128 0x13
 1036 002e 00       		.byte	0
 1037 002f 00       		.byte	0
 1038 0030 05       		.uleb128 0x5
 1039 0031 16       		.uleb128 0x16
 1040 0032 00       		.byte	0
 1041 0033 03       		.uleb128 0x3
 1042 0034 0E       		.uleb128 0xe
 1043 0035 3A       		.uleb128 0x3a
 1044 0036 0B       		.uleb128 0xb
 1045 0037 3B       		.uleb128 0x3b
 1046 0038 0B       		.uleb128 0xb
 1047 0039 49       		.uleb128 0x49
 1048 003a 13       		.uleb128 0x13
 1049 003b 00       		.byte	0
 1050 003c 00       		.byte	0
 1051 003d 06       		.uleb128 0x6
 1052 003e 13       		.uleb128 0x13
 1053 003f 01       		.byte	0x1
 1054 0040 03       		.uleb128 0x3
 1055 0041 0E       		.uleb128 0xe
 1056 0042 0B       		.uleb128 0xb
 1057 0043 0B       		.uleb128 0xb
 1058 0044 3A       		.uleb128 0x3a
 1059 0045 0B       		.uleb128 0xb
 1060 0046 3B       		.uleb128 0x3b
 1061 0047 0B       		.uleb128 0xb
 1062 0048 01       		.uleb128 0x1
 1063 0049 13       		.uleb128 0x13
 1064 004a 00       		.byte	0
 1065 004b 00       		.byte	0
 1066 004c 07       		.uleb128 0x7
 1067 004d 0D       		.uleb128 0xd
 1068 004e 00       		.byte	0
 1069 004f 03       		.uleb128 0x3
 1070 0050 0E       		.uleb128 0xe
 1071 0051 3A       		.uleb128 0x3a
ARM GAS  G:\Users\Jaxb\AppData\Local\Temp\ccF5r6CH.s 			page 22


 1072 0052 0B       		.uleb128 0xb
 1073 0053 3B       		.uleb128 0x3b
 1074 0054 0B       		.uleb128 0xb
 1075 0055 49       		.uleb128 0x49
 1076 0056 13       		.uleb128 0x13
 1077 0057 38       		.uleb128 0x38
 1078 0058 0A       		.uleb128 0xa
 1079 0059 00       		.byte	0
 1080 005a 00       		.byte	0
 1081 005b 08       		.uleb128 0x8
 1082 005c 0F       		.uleb128 0xf
 1083 005d 00       		.byte	0
 1084 005e 0B       		.uleb128 0xb
 1085 005f 0B       		.uleb128 0xb
 1086 0060 49       		.uleb128 0x49
 1087 0061 13       		.uleb128 0x13
 1088 0062 00       		.byte	0
 1089 0063 00       		.byte	0
 1090 0064 09       		.uleb128 0x9
 1091 0065 04       		.uleb128 0x4
 1092 0066 01       		.byte	0x1
 1093 0067 03       		.uleb128 0x3
 1094 0068 0E       		.uleb128 0xe
 1095 0069 3E       		.uleb128 0x3e
 1096 006a 0B       		.uleb128 0xb
 1097 006b 0B       		.uleb128 0xb
 1098 006c 0B       		.uleb128 0xb
 1099 006d 49       		.uleb128 0x49
 1100 006e 13       		.uleb128 0x13
 1101 006f 3A       		.uleb128 0x3a
 1102 0070 0B       		.uleb128 0xb
 1103 0071 3B       		.uleb128 0x3b
 1104 0072 0B       		.uleb128 0xb
 1105 0073 01       		.uleb128 0x1
 1106 0074 13       		.uleb128 0x13
 1107 0075 00       		.byte	0
 1108 0076 00       		.byte	0
 1109 0077 0A       		.uleb128 0xa
 1110 0078 28       		.uleb128 0x28
 1111 0079 00       		.byte	0
 1112 007a 03       		.uleb128 0x3
 1113 007b 0E       		.uleb128 0xe
 1114 007c 1C       		.uleb128 0x1c
 1115 007d 0B       		.uleb128 0xb
 1116 007e 00       		.byte	0
 1117 007f 00       		.byte	0
 1118 0080 0B       		.uleb128 0xb
 1119 0081 34       		.uleb128 0x34
 1120 0082 00       		.byte	0
 1121 0083 03       		.uleb128 0x3
 1122 0084 0E       		.uleb128 0xe
 1123 0085 3A       		.uleb128 0x3a
 1124 0086 0B       		.uleb128 0xb
 1125 0087 3B       		.uleb128 0x3b
 1126 0088 0B       		.uleb128 0xb
 1127 0089 49       		.uleb128 0x49
 1128 008a 13       		.uleb128 0x13
ARM GAS  G:\Users\Jaxb\AppData\Local\Temp\ccF5r6CH.s 			page 23


 1129 008b 3F       		.uleb128 0x3f
 1130 008c 0C       		.uleb128 0xc
 1131 008d 3C       		.uleb128 0x3c
 1132 008e 0C       		.uleb128 0xc
 1133 008f 00       		.byte	0
 1134 0090 00       		.byte	0
 1135 0091 0C       		.uleb128 0xc
 1136 0092 13       		.uleb128 0x13
 1137 0093 00       		.byte	0
 1138 0094 03       		.uleb128 0x3
 1139 0095 0E       		.uleb128 0xe
 1140 0096 3C       		.uleb128 0x3c
 1141 0097 0C       		.uleb128 0xc
 1142 0098 00       		.byte	0
 1143 0099 00       		.byte	0
 1144 009a 0D       		.uleb128 0xd
 1145 009b 16       		.uleb128 0x16
 1146 009c 00       		.byte	0
 1147 009d 03       		.uleb128 0x3
 1148 009e 08       		.uleb128 0x8
 1149 009f 3A       		.uleb128 0x3a
 1150 00a0 0B       		.uleb128 0xb
 1151 00a1 3B       		.uleb128 0x3b
 1152 00a2 0B       		.uleb128 0xb
 1153 00a3 49       		.uleb128 0x49
 1154 00a4 13       		.uleb128 0x13
 1155 00a5 00       		.byte	0
 1156 00a6 00       		.byte	0
 1157 00a7 0E       		.uleb128 0xe
 1158 00a8 34       		.uleb128 0x34
 1159 00a9 00       		.byte	0
 1160 00aa 03       		.uleb128 0x3
 1161 00ab 0E       		.uleb128 0xe
 1162 00ac 3A       		.uleb128 0x3a
 1163 00ad 0B       		.uleb128 0xb
 1164 00ae 3B       		.uleb128 0x3b
 1165 00af 0B       		.uleb128 0xb
 1166 00b0 49       		.uleb128 0x49
 1167 00b1 13       		.uleb128 0x13
 1168 00b2 02       		.uleb128 0x2
 1169 00b3 0A       		.uleb128 0xa
 1170 00b4 00       		.byte	0
 1171 00b5 00       		.byte	0
 1172 00b6 0F       		.uleb128 0xf
 1173 00b7 2E       		.uleb128 0x2e
 1174 00b8 01       		.byte	0x1
 1175 00b9 3F       		.uleb128 0x3f
 1176 00ba 0C       		.uleb128 0xc
 1177 00bb 03       		.uleb128 0x3
 1178 00bc 0E       		.uleb128 0xe
 1179 00bd 3A       		.uleb128 0x3a
 1180 00be 0B       		.uleb128 0xb
 1181 00bf 3B       		.uleb128 0x3b
 1182 00c0 0B       		.uleb128 0xb
 1183 00c1 27       		.uleb128 0x27
 1184 00c2 0C       		.uleb128 0xc
 1185 00c3 49       		.uleb128 0x49
ARM GAS  G:\Users\Jaxb\AppData\Local\Temp\ccF5r6CH.s 			page 24


 1186 00c4 13       		.uleb128 0x13
 1187 00c5 11       		.uleb128 0x11
 1188 00c6 01       		.uleb128 0x1
 1189 00c7 12       		.uleb128 0x12
 1190 00c8 01       		.uleb128 0x1
 1191 00c9 40       		.uleb128 0x40
 1192 00ca 06       		.uleb128 0x6
 1193 00cb 9642     		.uleb128 0x2116
 1194 00cd 0C       		.uleb128 0xc
 1195 00ce 01       		.uleb128 0x1
 1196 00cf 13       		.uleb128 0x13
 1197 00d0 00       		.byte	0
 1198 00d1 00       		.byte	0
 1199 00d2 10       		.uleb128 0x10
 1200 00d3 05       		.uleb128 0x5
 1201 00d4 00       		.byte	0
 1202 00d5 03       		.uleb128 0x3
 1203 00d6 0E       		.uleb128 0xe
 1204 00d7 3A       		.uleb128 0x3a
 1205 00d8 0B       		.uleb128 0xb
 1206 00d9 3B       		.uleb128 0x3b
 1207 00da 0B       		.uleb128 0xb
 1208 00db 49       		.uleb128 0x49
 1209 00dc 13       		.uleb128 0x13
 1210 00dd 02       		.uleb128 0x2
 1211 00de 0A       		.uleb128 0xa
 1212 00df 00       		.byte	0
 1213 00e0 00       		.byte	0
 1214 00e1 11       		.uleb128 0x11
 1215 00e2 34       		.uleb128 0x34
 1216 00e3 00       		.byte	0
 1217 00e4 03       		.uleb128 0x3
 1218 00e5 08       		.uleb128 0x8
 1219 00e6 3A       		.uleb128 0x3a
 1220 00e7 0B       		.uleb128 0xb
 1221 00e8 3B       		.uleb128 0x3b
 1222 00e9 0B       		.uleb128 0xb
 1223 00ea 49       		.uleb128 0x49
 1224 00eb 13       		.uleb128 0x13
 1225 00ec 02       		.uleb128 0x2
 1226 00ed 0A       		.uleb128 0xa
 1227 00ee 00       		.byte	0
 1228 00ef 00       		.byte	0
 1229 00f0 12       		.uleb128 0x12
 1230 00f1 2E       		.uleb128 0x2e
 1231 00f2 00       		.byte	0
 1232 00f3 3F       		.uleb128 0x3f
 1233 00f4 0C       		.uleb128 0xc
 1234 00f5 03       		.uleb128 0x3
 1235 00f6 0E       		.uleb128 0xe
 1236 00f7 3A       		.uleb128 0x3a
 1237 00f8 0B       		.uleb128 0xb
 1238 00f9 3B       		.uleb128 0x3b
 1239 00fa 0B       		.uleb128 0xb
 1240 00fb 27       		.uleb128 0x27
 1241 00fc 0C       		.uleb128 0xc
 1242 00fd 11       		.uleb128 0x11
ARM GAS  G:\Users\Jaxb\AppData\Local\Temp\ccF5r6CH.s 			page 25


 1243 00fe 01       		.uleb128 0x1
 1244 00ff 12       		.uleb128 0x12
 1245 0100 01       		.uleb128 0x1
 1246 0101 40       		.uleb128 0x40
 1247 0102 06       		.uleb128 0x6
 1248 0103 9642     		.uleb128 0x2116
 1249 0105 0C       		.uleb128 0xc
 1250 0106 00       		.byte	0
 1251 0107 00       		.byte	0
 1252 0108 13       		.uleb128 0x13
 1253 0109 2E       		.uleb128 0x2e
 1254 010a 01       		.byte	0x1
 1255 010b 03       		.uleb128 0x3
 1256 010c 0E       		.uleb128 0xe
 1257 010d 3A       		.uleb128 0x3a
 1258 010e 0B       		.uleb128 0xb
 1259 010f 3B       		.uleb128 0x3b
 1260 0110 0B       		.uleb128 0xb
 1261 0111 27       		.uleb128 0x27
 1262 0112 0C       		.uleb128 0xc
 1263 0113 11       		.uleb128 0x11
 1264 0114 01       		.uleb128 0x1
 1265 0115 12       		.uleb128 0x12
 1266 0116 01       		.uleb128 0x1
 1267 0117 40       		.uleb128 0x40
 1268 0118 06       		.uleb128 0x6
 1269 0119 9642     		.uleb128 0x2116
 1270 011b 0C       		.uleb128 0xc
 1271 011c 01       		.uleb128 0x1
 1272 011d 13       		.uleb128 0x13
 1273 011e 00       		.byte	0
 1274 011f 00       		.byte	0
 1275 0120 14       		.uleb128 0x14
 1276 0121 2E       		.uleb128 0x2e
 1277 0122 01       		.byte	0x1
 1278 0123 03       		.uleb128 0x3
 1279 0124 0E       		.uleb128 0xe
 1280 0125 3A       		.uleb128 0x3a
 1281 0126 0B       		.uleb128 0xb
 1282 0127 3B       		.uleb128 0x3b
 1283 0128 0B       		.uleb128 0xb
 1284 0129 27       		.uleb128 0x27
 1285 012a 0C       		.uleb128 0xc
 1286 012b 11       		.uleb128 0x11
 1287 012c 01       		.uleb128 0x1
 1288 012d 12       		.uleb128 0x12
 1289 012e 01       		.uleb128 0x1
 1290 012f 40       		.uleb128 0x40
 1291 0130 06       		.uleb128 0x6
 1292 0131 9742     		.uleb128 0x2117
 1293 0133 0C       		.uleb128 0xc
 1294 0134 01       		.uleb128 0x1
 1295 0135 13       		.uleb128 0x13
 1296 0136 00       		.byte	0
 1297 0137 00       		.byte	0
 1298 0138 15       		.uleb128 0x15
 1299 0139 05       		.uleb128 0x5
ARM GAS  G:\Users\Jaxb\AppData\Local\Temp\ccF5r6CH.s 			page 26


 1300 013a 00       		.byte	0
 1301 013b 03       		.uleb128 0x3
 1302 013c 08       		.uleb128 0x8
 1303 013d 3A       		.uleb128 0x3a
 1304 013e 0B       		.uleb128 0xb
 1305 013f 3B       		.uleb128 0x3b
 1306 0140 0B       		.uleb128 0xb
 1307 0141 49       		.uleb128 0x49
 1308 0142 13       		.uleb128 0x13
 1309 0143 02       		.uleb128 0x2
 1310 0144 0A       		.uleb128 0xa
 1311 0145 00       		.byte	0
 1312 0146 00       		.byte	0
 1313 0147 16       		.uleb128 0x16
 1314 0148 2E       		.uleb128 0x2e
 1315 0149 01       		.byte	0x1
 1316 014a 03       		.uleb128 0x3
 1317 014b 0E       		.uleb128 0xe
 1318 014c 3A       		.uleb128 0x3a
 1319 014d 0B       		.uleb128 0xb
 1320 014e 3B       		.uleb128 0x3b
 1321 014f 0B       		.uleb128 0xb
 1322 0150 27       		.uleb128 0x27
 1323 0151 0C       		.uleb128 0xc
 1324 0152 11       		.uleb128 0x11
 1325 0153 01       		.uleb128 0x1
 1326 0154 12       		.uleb128 0x12
 1327 0155 01       		.uleb128 0x1
 1328 0156 40       		.uleb128 0x40
 1329 0157 06       		.uleb128 0x6
 1330 0158 9742     		.uleb128 0x2117
 1331 015a 0C       		.uleb128 0xc
 1332 015b 00       		.byte	0
 1333 015c 00       		.byte	0
 1334 015d 00       		.byte	0
 1335              		.section	.debug_loc,"",%progbits
 1336              	.Ldebug_loc0:
 1337              	.LLST7:
 1338 0000 0C010000 		.4byte	.LFB13-.Ltext0
 1339 0004 0E010000 		.4byte	.LCFI35-.Ltext0
 1340 0008 0200     		.2byte	0x2
 1341 000a 7D       		.byte	0x7d
 1342 000b 00       		.sleb128 0
 1343 000c 0E010000 		.4byte	.LCFI35-.Ltext0
 1344 0010 10010000 		.4byte	.LCFI36-.Ltext0
 1345 0014 0200     		.2byte	0x2
 1346 0016 7D       		.byte	0x7d
 1347 0017 08       		.sleb128 8
 1348 0018 10010000 		.4byte	.LCFI36-.Ltext0
 1349 001c 12010000 		.4byte	.LCFI37-.Ltext0
 1350 0020 0200     		.2byte	0x2
 1351 0022 7D       		.byte	0x7d
 1352 0023 18       		.sleb128 24
 1353 0024 12010000 		.4byte	.LCFI37-.Ltext0
 1354 0028 6C010000 		.4byte	.LCFI38-.Ltext0
 1355 002c 0200     		.2byte	0x2
 1356 002e 77       		.byte	0x77
ARM GAS  G:\Users\Jaxb\AppData\Local\Temp\ccF5r6CH.s 			page 27


 1357 002f 18       		.sleb128 24
 1358 0030 6C010000 		.4byte	.LCFI38-.Ltext0
 1359 0034 6E010000 		.4byte	.LCFI39-.Ltext0
 1360 0038 0200     		.2byte	0x2
 1361 003a 77       		.byte	0x77
 1362 003b 08       		.sleb128 8
 1363 003c 6E010000 		.4byte	.LCFI39-.Ltext0
 1364 0040 7C010000 		.4byte	.LFE13-.Ltext0
 1365 0044 0200     		.2byte	0x2
 1366 0046 7D       		.byte	0x7d
 1367 0047 08       		.sleb128 8
 1368 0048 00000000 		.4byte	0
 1369 004c 00000000 		.4byte	0
 1370              	.LLST6:
 1371 0050 C0000000 		.4byte	.LFB12-.Ltext0
 1372 0054 C2000000 		.4byte	.LCFI30-.Ltext0
 1373 0058 0200     		.2byte	0x2
 1374 005a 7D       		.byte	0x7d
 1375 005b 00       		.sleb128 0
 1376 005c C2000000 		.4byte	.LCFI30-.Ltext0
 1377 0060 C4000000 		.4byte	.LCFI31-.Ltext0
 1378 0064 0200     		.2byte	0x2
 1379 0066 7D       		.byte	0x7d
 1380 0067 08       		.sleb128 8
 1381 0068 C4000000 		.4byte	.LCFI31-.Ltext0
 1382 006c C6000000 		.4byte	.LCFI32-.Ltext0
 1383 0070 0200     		.2byte	0x2
 1384 0072 7D       		.byte	0x7d
 1385 0073 10       		.sleb128 16
 1386 0074 C6000000 		.4byte	.LCFI32-.Ltext0
 1387 0078 FA000000 		.4byte	.LCFI33-.Ltext0
 1388 007c 0200     		.2byte	0x2
 1389 007e 77       		.byte	0x77
 1390 007f 10       		.sleb128 16
 1391 0080 FA000000 		.4byte	.LCFI33-.Ltext0
 1392 0084 FC000000 		.4byte	.LCFI34-.Ltext0
 1393 0088 0200     		.2byte	0x2
 1394 008a 77       		.byte	0x77
 1395 008b 08       		.sleb128 8
 1396 008c FC000000 		.4byte	.LCFI34-.Ltext0
 1397 0090 0C010000 		.4byte	.LFE12-.Ltext0
 1398 0094 0200     		.2byte	0x2
 1399 0096 7D       		.byte	0x7d
 1400 0097 08       		.sleb128 8
 1401 0098 00000000 		.4byte	0
 1402 009c 00000000 		.4byte	0
 1403              	.LLST5:
 1404 00a0 AC000000 		.4byte	.LFB11-.Ltext0
 1405 00a4 AE000000 		.4byte	.LCFI28-.Ltext0
 1406 00a8 0200     		.2byte	0x2
 1407 00aa 7D       		.byte	0x7d
 1408 00ab 00       		.sleb128 0
 1409 00ac AE000000 		.4byte	.LCFI28-.Ltext0
 1410 00b0 B0000000 		.4byte	.LCFI29-.Ltext0
 1411 00b4 0200     		.2byte	0x2
 1412 00b6 7D       		.byte	0x7d
 1413 00b7 08       		.sleb128 8
ARM GAS  G:\Users\Jaxb\AppData\Local\Temp\ccF5r6CH.s 			page 28


 1414 00b8 B0000000 		.4byte	.LCFI29-.Ltext0
 1415 00bc C0000000 		.4byte	.LFE11-.Ltext0
 1416 00c0 0200     		.2byte	0x2
 1417 00c2 77       		.byte	0x77
 1418 00c3 08       		.sleb128 8
 1419 00c4 00000000 		.4byte	0
 1420 00c8 00000000 		.4byte	0
 1421              	.LLST4:
 1422 00cc 8C000000 		.4byte	.LFB5-.Ltext0
 1423 00d0 8E000000 		.4byte	.LCFI23-.Ltext0
 1424 00d4 0200     		.2byte	0x2
 1425 00d6 7D       		.byte	0x7d
 1426 00d7 00       		.sleb128 0
 1427 00d8 8E000000 		.4byte	.LCFI23-.Ltext0
 1428 00dc 90000000 		.4byte	.LCFI24-.Ltext0
 1429 00e0 0200     		.2byte	0x2
 1430 00e2 7D       		.byte	0x7d
 1431 00e3 08       		.sleb128 8
 1432 00e4 90000000 		.4byte	.LCFI24-.Ltext0
 1433 00e8 92000000 		.4byte	.LCFI25-.Ltext0
 1434 00ec 0200     		.2byte	0x2
 1435 00ee 7D       		.byte	0x7d
 1436 00ef 10       		.sleb128 16
 1437 00f0 92000000 		.4byte	.LCFI25-.Ltext0
 1438 00f4 A8000000 		.4byte	.LCFI26-.Ltext0
 1439 00f8 0200     		.2byte	0x2
 1440 00fa 77       		.byte	0x77
 1441 00fb 10       		.sleb128 16
 1442 00fc A8000000 		.4byte	.LCFI26-.Ltext0
 1443 0100 AA000000 		.4byte	.LCFI27-.Ltext0
 1444 0104 0200     		.2byte	0x2
 1445 0106 77       		.byte	0x77
 1446 0107 08       		.sleb128 8
 1447 0108 AA000000 		.4byte	.LCFI27-.Ltext0
 1448 010c AC000000 		.4byte	.LFE5-.Ltext0
 1449 0110 0200     		.2byte	0x2
 1450 0112 7D       		.byte	0x7d
 1451 0113 08       		.sleb128 8
 1452 0114 00000000 		.4byte	0
 1453 0118 00000000 		.4byte	0
 1454              	.LLST3:
 1455 011c 6C000000 		.4byte	.LFB4-.Ltext0
 1456 0120 6E000000 		.4byte	.LCFI17-.Ltext0
 1457 0124 0200     		.2byte	0x2
 1458 0126 7D       		.byte	0x7d
 1459 0127 00       		.sleb128 0
 1460 0128 6E000000 		.4byte	.LCFI17-.Ltext0
 1461 012c 70000000 		.4byte	.LCFI18-.Ltext0
 1462 0130 0200     		.2byte	0x2
 1463 0132 7D       		.byte	0x7d
 1464 0133 04       		.sleb128 4
 1465 0134 70000000 		.4byte	.LCFI18-.Ltext0
 1466 0138 72000000 		.4byte	.LCFI19-.Ltext0
 1467 013c 0200     		.2byte	0x2
 1468 013e 7D       		.byte	0x7d
 1469 013f 10       		.sleb128 16
 1470 0140 72000000 		.4byte	.LCFI19-.Ltext0
ARM GAS  G:\Users\Jaxb\AppData\Local\Temp\ccF5r6CH.s 			page 29


 1471 0144 86000000 		.4byte	.LCFI20-.Ltext0
 1472 0148 0200     		.2byte	0x2
 1473 014a 77       		.byte	0x77
 1474 014b 10       		.sleb128 16
 1475 014c 86000000 		.4byte	.LCFI20-.Ltext0
 1476 0150 88000000 		.4byte	.LCFI21-.Ltext0
 1477 0154 0200     		.2byte	0x2
 1478 0156 77       		.byte	0x77
 1479 0157 04       		.sleb128 4
 1480 0158 88000000 		.4byte	.LCFI21-.Ltext0
 1481 015c 8A000000 		.4byte	.LCFI22-.Ltext0
 1482 0160 0200     		.2byte	0x2
 1483 0162 7D       		.byte	0x7d
 1484 0163 04       		.sleb128 4
 1485 0164 8A000000 		.4byte	.LCFI22-.Ltext0
 1486 0168 8C000000 		.4byte	.LFE4-.Ltext0
 1487 016c 0200     		.2byte	0x2
 1488 016e 7D       		.byte	0x7d
 1489 016f 00       		.sleb128 0
 1490 0170 00000000 		.4byte	0
 1491 0174 00000000 		.4byte	0
 1492              	.LLST2:
 1493 0178 4C000000 		.4byte	.LFB3-.Ltext0
 1494 017c 4E000000 		.4byte	.LCFI12-.Ltext0
 1495 0180 0200     		.2byte	0x2
 1496 0182 7D       		.byte	0x7d
 1497 0183 00       		.sleb128 0
 1498 0184 4E000000 		.4byte	.LCFI12-.Ltext0
 1499 0188 50000000 		.4byte	.LCFI13-.Ltext0
 1500 018c 0200     		.2byte	0x2
 1501 018e 7D       		.byte	0x7d
 1502 018f 08       		.sleb128 8
 1503 0190 50000000 		.4byte	.LCFI13-.Ltext0
 1504 0194 52000000 		.4byte	.LCFI14-.Ltext0
 1505 0198 0200     		.2byte	0x2
 1506 019a 7D       		.byte	0x7d
 1507 019b 10       		.sleb128 16
 1508 019c 52000000 		.4byte	.LCFI14-.Ltext0
 1509 01a0 68000000 		.4byte	.LCFI15-.Ltext0
 1510 01a4 0200     		.2byte	0x2
 1511 01a6 77       		.byte	0x77
 1512 01a7 10       		.sleb128 16
 1513 01a8 68000000 		.4byte	.LCFI15-.Ltext0
 1514 01ac 6A000000 		.4byte	.LCFI16-.Ltext0
 1515 01b0 0200     		.2byte	0x2
 1516 01b2 77       		.byte	0x77
 1517 01b3 08       		.sleb128 8
 1518 01b4 6A000000 		.4byte	.LCFI16-.Ltext0
 1519 01b8 6C000000 		.4byte	.LFE3-.Ltext0
 1520 01bc 0200     		.2byte	0x2
 1521 01be 7D       		.byte	0x7d
 1522 01bf 08       		.sleb128 8
 1523 01c0 00000000 		.4byte	0
 1524 01c4 00000000 		.4byte	0
 1525              	.LLST1:
 1526 01c8 1E000000 		.4byte	.LFB1-.Ltext0
 1527 01cc 20000000 		.4byte	.LCFI6-.Ltext0
ARM GAS  G:\Users\Jaxb\AppData\Local\Temp\ccF5r6CH.s 			page 30


 1528 01d0 0200     		.2byte	0x2
 1529 01d2 7D       		.byte	0x7d
 1530 01d3 00       		.sleb128 0
 1531 01d4 20000000 		.4byte	.LCFI6-.Ltext0
 1532 01d8 22000000 		.4byte	.LCFI7-.Ltext0
 1533 01dc 0200     		.2byte	0x2
 1534 01de 7D       		.byte	0x7d
 1535 01df 04       		.sleb128 4
 1536 01e0 22000000 		.4byte	.LCFI7-.Ltext0
 1537 01e4 24000000 		.4byte	.LCFI8-.Ltext0
 1538 01e8 0200     		.2byte	0x2
 1539 01ea 7D       		.byte	0x7d
 1540 01eb 18       		.sleb128 24
 1541 01ec 24000000 		.4byte	.LCFI8-.Ltext0
 1542 01f0 46000000 		.4byte	.LCFI9-.Ltext0
 1543 01f4 0200     		.2byte	0x2
 1544 01f6 77       		.byte	0x77
 1545 01f7 18       		.sleb128 24
 1546 01f8 46000000 		.4byte	.LCFI9-.Ltext0
 1547 01fc 48000000 		.4byte	.LCFI10-.Ltext0
 1548 0200 0200     		.2byte	0x2
 1549 0202 77       		.byte	0x77
 1550 0203 04       		.sleb128 4
 1551 0204 48000000 		.4byte	.LCFI10-.Ltext0
 1552 0208 4A000000 		.4byte	.LCFI11-.Ltext0
 1553 020c 0200     		.2byte	0x2
 1554 020e 7D       		.byte	0x7d
 1555 020f 04       		.sleb128 4
 1556 0210 4A000000 		.4byte	.LCFI11-.Ltext0
 1557 0214 4C000000 		.4byte	.LFE1-.Ltext0
 1558 0218 0200     		.2byte	0x2
 1559 021a 7D       		.byte	0x7d
 1560 021b 00       		.sleb128 0
 1561 021c 00000000 		.4byte	0
 1562 0220 00000000 		.4byte	0
 1563              	.LLST0:
 1564 0224 00000000 		.4byte	.LFB0-.Ltext0
 1565 0228 02000000 		.4byte	.LCFI0-.Ltext0
 1566 022c 0200     		.2byte	0x2
 1567 022e 7D       		.byte	0x7d
 1568 022f 00       		.sleb128 0
 1569 0230 02000000 		.4byte	.LCFI0-.Ltext0
 1570 0234 04000000 		.4byte	.LCFI1-.Ltext0
 1571 0238 0200     		.2byte	0x2
 1572 023a 7D       		.byte	0x7d
 1573 023b 04       		.sleb128 4
 1574 023c 04000000 		.4byte	.LCFI1-.Ltext0
 1575 0240 06000000 		.4byte	.LCFI2-.Ltext0
 1576 0244 0200     		.2byte	0x2
 1577 0246 7D       		.byte	0x7d
 1578 0247 10       		.sleb128 16
 1579 0248 06000000 		.4byte	.LCFI2-.Ltext0
 1580 024c 18000000 		.4byte	.LCFI3-.Ltext0
 1581 0250 0200     		.2byte	0x2
 1582 0252 77       		.byte	0x77
 1583 0253 10       		.sleb128 16
 1584 0254 18000000 		.4byte	.LCFI3-.Ltext0
ARM GAS  G:\Users\Jaxb\AppData\Local\Temp\ccF5r6CH.s 			page 31


 1585 0258 1A000000 		.4byte	.LCFI4-.Ltext0
 1586 025c 0200     		.2byte	0x2
 1587 025e 77       		.byte	0x77
 1588 025f 04       		.sleb128 4
 1589 0260 1A000000 		.4byte	.LCFI4-.Ltext0
 1590 0264 1C000000 		.4byte	.LCFI5-.Ltext0
 1591 0268 0200     		.2byte	0x2
 1592 026a 7D       		.byte	0x7d
 1593 026b 04       		.sleb128 4
 1594 026c 1C000000 		.4byte	.LCFI5-.Ltext0
 1595 0270 1E000000 		.4byte	.LFE0-.Ltext0
 1596 0274 0200     		.2byte	0x2
 1597 0276 7D       		.byte	0x7d
 1598 0277 00       		.sleb128 0
 1599 0278 00000000 		.4byte	0
 1600 027c 00000000 		.4byte	0
 1601              		.section	.debug_aranges,"",%progbits
 1602 0000 1C000000 		.4byte	0x1c
 1603 0004 0200     		.2byte	0x2
 1604 0006 00000000 		.4byte	.Ldebug_info0
 1605 000a 04       		.byte	0x4
 1606 000b 00       		.byte	0
 1607 000c 0000     		.2byte	0
 1608 000e 0000     		.2byte	0
 1609 0010 00000000 		.4byte	.Ltext0
 1610 0014 7C010000 		.4byte	.Letext0-.Ltext0
 1611 0018 00000000 		.4byte	0
 1612 001c 00000000 		.4byte	0
 1613              		.section	.debug_line,"",%progbits
 1614              	.Ldebug_line0:
 1615 0000 47010000 		.section	.debug_str,"MS",%progbits,1
 1615      0200E400 
 1615      00000201 
 1615      FB0E0D00 
 1615      01010101 
 1616              	.LASF52:
 1617 0000 6C697374 		.ascii	"list\000"
 1617      00
 1618              	.LASF31:
 1619 0005 7072696F 		.ascii	"prio\000"
 1619      00
 1620              	.LASF30:
 1621 000a 7461736B 		.ascii	"task_state\000"
 1621      5F737461 
 1621      746500
 1622              	.LASF9:
 1623 0015 6E657874 		.ascii	"next\000"
 1623      00
 1624              	.LASF12:
 1625 001a 53544154 		.ascii	"STATE_DELAY\000"
 1625      455F4445 
 1625      4C415900 
 1626              	.LASF23:
 1627 0026 5441534B 		.ascii	"TASK_PRIO_TYPE\000"
 1627      5F505249 
 1627      4F5F5459 
 1627      504500
ARM GAS  G:\Users\Jaxb\AppData\Local\Temp\ccF5r6CH.s 			page 32


 1628              	.LASF59:
 1629 0035 5F5F696E 		.ascii	"__init_suspend_list\000"
 1629      69745F73 
 1629      75737065 
 1629      6E645F6C 
 1629      69737400 
 1630              	.LASF47:
 1631 0049 6C697374 		.ascii	"list_del\000"
 1631      5F64656C 
 1631      00
 1632              	.LASF19:
 1633 0052 53544154 		.ascii	"STATE_PUT_MESSAGE_QUEUE_TIMEOUT\000"
 1633      455F5055 
 1633      545F4D45 
 1633      53534147 
 1633      455F5155 
 1634              	.LASF32:
 1635 0072 64656C61 		.ascii	"delay_heap_position\000"
 1635      795F6865 
 1635      61705F70 
 1635      6F736974 
 1635      696F6E00 
 1636              	.LASF36:
 1637 0086 74696D65 		.ascii	"timeslice_hope_time\000"
 1637      736C6963 
 1637      655F686F 
 1637      70655F74 
 1637      696D6500 
 1638              	.LASF26:
 1639 009a 73746163 		.ascii	"stack\000"
 1639      6B00
 1640              	.LASF45:
 1641 00a0 5443425F 		.ascii	"TCB_ptr\000"
 1641      70747200 
 1642              	.LASF46:
 1643 00a8 656E7472 		.ascii	"entry\000"
 1643      7900
 1644              	.LASF37:
 1645 00ae 74696D65 		.ascii	"timeslice_rest_time\000"
 1645      736C6963 
 1645      655F7265 
 1645      73745F74 
 1645      696D6500 
 1646              	.LASF39:
 1647 00c2 64796E61 		.ascii	"dynamic_module_ptr\000"
 1647      6D69635F 
 1647      6D6F6475 
 1647      6C655F70 
 1647      747200
 1648              	.LASF16:
 1649 00d5 53544154 		.ascii	"STATE_WAIT_MESSAGE_QUEUE_FOREVER\000"
 1649      455F5741 
 1649      49545F4D 
 1649      45535341 
 1649      47455F51 
 1650              	.LASF11:
 1651 00f6 53544154 		.ascii	"STATE_READY\000"
ARM GAS  G:\Users\Jaxb\AppData\Local\Temp\ccF5r6CH.s 			page 33


 1651      455F5245 
 1651      41445900 
 1652              	.LASF29:
 1653 0102 72657365 		.ascii	"reserve_prio\000"
 1653      7276655F 
 1653      7072696F 
 1653      00
 1654              	.LASF3:
 1655 010f 756E7369 		.ascii	"unsigned char\000"
 1655      676E6564 
 1655      20636861 
 1655      7200
 1656              	.LASF43:
 1657 011d 72656D6F 		.ascii	"remove_from_suspend_list\000"
 1657      76655F66 
 1657      726F6D5F 
 1657      73757370 
 1657      656E645F 
 1658              	.LASF49:
 1659 0136 6C697374 		.ascii	"list_add_tail\000"
 1659      5F616464 
 1659      5F746169 
 1659      6C00
 1660              	.LASF7:
 1661 0144 55494E54 		.ascii	"UINT64\000"
 1661      363400
 1662              	.LASF4:
 1663 014b 73686F72 		.ascii	"short unsigned int\000"
 1663      7420756E 
 1663      7369676E 
 1663      65642069 
 1663      6E7400
 1664              	.LASF17:
 1665 015e 53544154 		.ascii	"STATE_WAIT_MESSAGE_QUEUE_TIMEOUT\000"
 1665      455F5741 
 1665      49545F4D 
 1665      45535341 
 1665      47455F51 
 1666              	.LASF28:
 1667 017f 73746163 		.ascii	"stack_end\000"
 1667      6B5F656E 
 1667      6400
 1668              	.LASF14:
 1669 0189 53544154 		.ascii	"STATE_WAIT_MCB_FOREVER\000"
 1669      455F5741 
 1669      49545F4D 
 1669      43425F46 
 1669      4F524556 
 1670              	.LASF34:
 1671 01a0 73757370 		.ascii	"suspend_list\000"
 1671      656E645F 
 1671      6C697374 
 1671      00
 1672              	.LASF50:
 1673 01ad 68656164 		.ascii	"head\000"
 1673      00
 1674              	.LASF44:
ARM GAS  G:\Users\Jaxb\AppData\Local\Temp\ccF5r6CH.s 			page 34


 1675 01b2 696E7365 		.ascii	"insert_into_suspend_list\000"
 1675      72745F69 
 1675      6E746F5F 
 1675      73757370 
 1675      656E645F 
 1676              	.LASF21:
 1677 01cb 5441534B 		.ascii	"TASK_STATE\000"
 1677      5F535441 
 1677      544500
 1678              	.LASF42:
 1679 01d6 73757370 		.ascii	"suspend_list_head\000"
 1679      656E645F 
 1679      6C697374 
 1679      5F686561 
 1679      6400
 1680              	.LASF5:
 1681 01e8 756E7369 		.ascii	"unsigned int\000"
 1681      676E6564 
 1681      20696E74 
 1681      00
 1682              	.LASF25:
 1683 01f5 7461736B 		.ascii	"task_control_block_struct\000"
 1683      5F636F6E 
 1683      74726F6C 
 1683      5F626C6F 
 1683      636B5F73 
 1684              	.LASF8:
 1685 020f 6C6F6E67 		.ascii	"long long unsigned int\000"
 1685      206C6F6E 
 1685      6720756E 
 1685      7369676E 
 1685      65642069 
 1686              	.LASF48:
 1687 0226 5F5F6C69 		.ascii	"__list_del\000"
 1687      73745F64 
 1687      656C00
 1688              	.LASF33:
 1689 0231 73616D65 		.ascii	"same_prio_list\000"
 1689      5F707269 
 1689      6F5F6C69 
 1689      737400
 1690              	.LASF56:
 1691 0240 5461736B 		.ascii	"Task_State\000"
 1691      5F537461 
 1691      746500
 1692              	.LASF20:
 1693 024b 53544154 		.ascii	"STATE_WAIT_MUTEX_FOREVER\000"
 1693      455F5741 
 1693      49545F4D 
 1693      55544558 
 1693      5F464F52 
 1694              	.LASF22:
 1695 0264 53544143 		.ascii	"STACK_TYPE\000"
 1695      4B5F5459 
 1695      504500
 1696              	.LASF24:
 1697 026f 6C697374 		.ascii	"list_head\000"
ARM GAS  G:\Users\Jaxb\AppData\Local\Temp\ccF5r6CH.s 			page 35


 1697      5F686561 
 1697      6400
 1698              	.LASF2:
 1699 0279 6C6F6E67 		.ascii	"long long int\000"
 1699      206C6F6E 
 1699      6720696E 
 1699      7400
 1700              	.LASF27:
 1701 0287 73746163 		.ascii	"stack_size\000"
 1701      6B5F7369 
 1701      7A6500
 1702              	.LASF60:
 1703 0292 494E4954 		.ascii	"INIT_LIST_HEAD\000"
 1703      5F4C4953 
 1703      545F4845 
 1703      414400
 1704              	.LASF35:
 1705 02a1 6E616D65 		.ascii	"name\000"
 1705      00
 1706              	.LASF38:
 1707 02a6 61747472 		.ascii	"attribution\000"
 1707      69627574 
 1707      696F6E00 
 1708              	.LASF6:
 1709 02b2 55494E54 		.ascii	"UINT32\000"
 1709      333200
 1710              	.LASF58:
 1711 02b9 64796E61 		.ascii	"dynamic_module\000"
 1711      6D69635F 
 1711      6D6F6475 
 1711      6C6500
 1712              	.LASF1:
 1713 02c8 73686F72 		.ascii	"short int\000"
 1713      7420696E 
 1713      7400
 1714              	.LASF51:
 1715 02d2 5F5F6C69 		.ascii	"__list_add\000"
 1715      73745F61 
 1715      646400
 1716              	.LASF18:
 1717 02dd 53544154 		.ascii	"STATE_PUT_MESSAGE_QUEUE_FOREVER\000"
 1717      455F5055 
 1717      545F4D45 
 1717      53534147 
 1717      455F5155 
 1718              	.LASF53:
 1719 02fd 474E5520 		.ascii	"GNU C11 7.3.1 20180622 (release) [ARM/embedded-7-br"
 1719      43313120 
 1719      372E332E 
 1719      31203230 
 1719      31383036 
 1720 0330 616E6368 		.ascii	"anch revision 261907] -mcpu=cortex-m3 -mthumb -mapc"
 1720      20726576 
 1720      6973696F 
 1720      6E203236 
 1720      31393037 
 1721 0363 732D6672 		.ascii	"s-frame -mthumb-interwork -mcpu=cortex-m3 -mthumb -"
ARM GAS  G:\Users\Jaxb\AppData\Local\Temp\ccF5r6CH.s 			page 36


 1721      616D6520 
 1721      2D6D7468 
 1721      756D622D 
 1721      696E7465 
 1722 0396 67647761 		.ascii	"gdwarf-2 -O0\000"
 1722      72662D32 
 1722      202D4F30 
 1722      00
 1723              	.LASF41:
 1724 03a3 63686172 		.ascii	"char\000"
 1724      00
 1725              	.LASF15:
 1726 03a8 53544154 		.ascii	"STATE_WAIT_MCB_TIMEOUT\000"
 1726      455F5741 
 1726      49545F4D 
 1726      43425F54 
 1726      494D454F 
 1727              	.LASF0:
 1728 03bf 7369676E 		.ascii	"signed char\000"
 1728      65642063 
 1728      68617200 
 1729              	.LASF54:
 1730 03cb 2E2E2F2E 		.ascii	"../../source/src/kernel/OS_CORE/schedule/os_suspend"
 1730      2E2F736F 
 1730      75726365 
 1730      2F737263 
 1730      2F6B6572 
 1731 03fe 2E6300   		.ascii	".c\000"
 1732              	.LASF13:
 1733 0401 53544154 		.ascii	"STATE_SUSPEND_NORMAL\000"
 1733      455F5355 
 1733      5350454E 
 1733      445F4E4F 
 1733      524D414C 
 1734              	.LASF57:
 1735 0416 675F696E 		.ascii	"g_interrupt_count\000"
 1735      74657272 
 1735      7570745F 
 1735      636F756E 
 1735      7400
 1736              	.LASF40:
 1737 0428 64656C61 		.ascii	"delay_reach_time\000"
 1737      795F7265 
 1737      6163685F 
 1737      74696D65 
 1737      00
 1738              	.LASF10:
 1739 0439 70726576 		.ascii	"prev\000"
 1739      00
 1740              	.LASF55:
 1741 043e 463A5C6B 		.ascii	"F:\\kaka\\KAKAOS\\C\\windows\\Project\\RVMDK\243\250"
 1741      616B615C 
 1741      4B414B41 
 1741      4F535C43 
 1741      5C77696E 
 1742 0466 757635A3 		.ascii	"uv5\243\251\000"
 1742      A900
ARM GAS  G:\Users\Jaxb\AppData\Local\Temp\ccF5r6CH.s 			page 37


 1743              		.ident	"GCC: (GNU Tools for Arm Embedded Processors 7-2018-q2-update) 7.3.1 20180622 (release) [AR
ARM GAS  G:\Users\Jaxb\AppData\Local\Temp\ccF5r6CH.s 			page 38


DEFINED SYMBOLS
                            *ABS*:00000000 os_suspend.c
G:\Users\Jaxb\AppData\Local\Temp\ccF5r6CH.s:15     .text:00000000 $t
G:\Users\Jaxb\AppData\Local\Temp\ccF5r6CH.s:21     .text:00000000 INIT_LIST_HEAD
G:\Users\Jaxb\AppData\Local\Temp\ccF5r6CH.s:71     .text:0000001e __list_add
G:\Users\Jaxb\AppData\Local\Temp\ccF5r6CH.s:130    .text:0000004c list_add_tail
G:\Users\Jaxb\AppData\Local\Temp\ccF5r6CH.s:175    .text:0000006c __list_del
G:\Users\Jaxb\AppData\Local\Temp\ccF5r6CH.s:225    .text:0000008c list_del
G:\Users\Jaxb\AppData\Local\Temp\ccF5r6CH.s:265    .bss:00000000 $d
G:\Users\Jaxb\AppData\Local\Temp\ccF5r6CH.s:266    .bss:00000000 suspend_list_head
G:\Users\Jaxb\AppData\Local\Temp\ccF5r6CH.s:277    .text:000000ac __init_suspend_list
G:\Users\Jaxb\AppData\Local\Temp\ccF5r6CH.s:301    .text:000000bc $d
G:\Users\Jaxb\AppData\Local\Temp\ccF5r6CH.s:306    .rodata:00000000 $d
G:\Users\Jaxb\AppData\Local\Temp\ccF5r6CH.s:315    .text:000000c0 $t
G:\Users\Jaxb\AppData\Local\Temp\ccF5r6CH.s:322    .text:000000c0 insert_into_suspend_list
G:\Users\Jaxb\AppData\Local\Temp\ccF5r6CH.s:382    .text:00000100 $d
G:\Users\Jaxb\AppData\Local\Temp\ccF5r6CH.s:394    .text:0000010c $t
G:\Users\Jaxb\AppData\Local\Temp\ccF5r6CH.s:401    .text:0000010c remove_from_suspend_list
G:\Users\Jaxb\AppData\Local\Temp\ccF5r6CH.s:487    .text:00000170 $d

UNDEFINED SYMBOLS
_ASSERT
ka_printf
insert_ready_TCB
