ARM GAS  G:\Users\Jaxb\AppData\Local\Temp\ccV5xqmv.s 			page 1


   1              		.cpu cortex-m3
   2              		.eabi_attribute 20, 1
   3              		.eabi_attribute 21, 1
   4              		.eabi_attribute 23, 3
   5              		.eabi_attribute 24, 1
   6              		.eabi_attribute 25, 1
   7              		.eabi_attribute 26, 1
   8              		.eabi_attribute 30, 6
   9              		.eabi_attribute 34, 1
  10              		.eabi_attribute 18, 4
  11              		.file	"os_schedule.c"
  12              		.text
  13              	.Ltext0:
  14              		.cfi_sections	.debug_frame
  15              		.global	g_schedule_lock
  16              		.bss
  17              		.align	2
  18              		.type	g_schedule_lock, %object
  19              		.size	g_schedule_lock, 4
  20              	g_schedule_lock:
  21 0000 00000000 		.space	4
  22              		.text
  23              		.align	1
  24              		.syntax unified
  25              		.thumb
  26              		.thumb_func
  27              		.fpu softvfp
  28              		.type	_schedule, %function
  29              	_schedule:
  30              	.LFB20:
  31              		.file 1 "../../source/src/kernel/OS_CORE/schedule/os_schedule.c"
   1:../../source/src/kernel/OS_CORE/schedule/os_schedule.c **** #include <os_schedule.h>
   2:../../source/src/kernel/OS_CORE/schedule/os_schedule.c **** #include <os_cpu.h>
   3:../../source/src/kernel/OS_CORE/schedule/os_schedule.c **** #include <os_delay.h>
   4:../../source/src/kernel/OS_CORE/schedule/os_schedule.c **** #include <TCB.h>
   5:../../source/src/kernel/OS_CORE/schedule/os_schedule.c **** #include <myassert.h>
   6:../../source/src/kernel/OS_CORE/schedule/os_schedule.c **** #include <os_ready.h>
   7:../../source/src/kernel/OS_CORE/schedule/os_schedule.c **** #include <os_suspend.h>
   8:../../source/src/kernel/OS_CORE/schedule/os_schedule.c **** #include <os_TCB_list.h>
   9:../../source/src/kernel/OS_CORE/schedule/os_schedule.c **** #include <osinit.h>
  10:../../source/src/kernel/OS_CORE/schedule/os_schedule.c **** #include <myMicroLIB.h>
  11:../../source/src/kernel/OS_CORE/schedule/os_schedule.c **** #include <os_time.h>
  12:../../source/src/kernel/OS_CORE/schedule/os_schedule.c **** #include <export.h>
  13:../../source/src/kernel/OS_CORE/schedule/os_schedule.c **** 
  14:../../source/src/kernel/OS_CORE/schedule/os_schedule.c **** extern volatile TCB *OSTCBCurPtr;
  15:../../source/src/kernel/OS_CORE/schedule/os_schedule.c **** extern volatile TCB *OSTCBHighRdyPtr;
  16:../../source/src/kernel/OS_CORE/schedule/os_schedule.c **** extern volatile int g_interrupt_count;
  17:../../source/src/kernel/OS_CORE/schedule/os_schedule.c **** extern UINT64 g_time_tick_count;
  18:../../source/src/kernel/OS_CORE/schedule/os_schedule.c **** 
  19:../../source/src/kernel/OS_CORE/schedule/os_schedule.c **** #if PRECISE_TIME_DELAY
  20:../../source/src/kernel/OS_CORE/schedule/os_schedule.c **** 	extern UINT64 num_pre_tick;
  21:../../source/src/kernel/OS_CORE/schedule/os_schedule.c **** #endif
  22:../../source/src/kernel/OS_CORE/schedule/os_schedule.c **** 
  23:../../source/src/kernel/OS_CORE/schedule/os_schedule.c **** volatile int g_schedule_lock = 0;/* 0:do not lock;  !0: lock*/
  24:../../source/src/kernel/OS_CORE/schedule/os_schedule.c **** 
  25:../../source/src/kernel/OS_CORE/schedule/os_schedule.c **** static void _schedule(void)
  26:../../source/src/kernel/OS_CORE/schedule/os_schedule.c **** {
ARM GAS  G:\Users\Jaxb\AppData\Local\Temp\ccV5xqmv.s 			page 2


  32              		.loc 1 26 0
  33              		.cfi_startproc
  34              		@ args = 0, pretend = 0, frame = 8
  35              		@ frame_needed = 1, uses_anonymous_args = 0
  36 0000 80B5     		push	{r7, lr}
  37              	.LCFI0:
  38              		.cfi_def_cfa_offset 8
  39              		.cfi_offset 7, -8
  40              		.cfi_offset 14, -4
  41 0002 82B0     		sub	sp, sp, #8
  42              	.LCFI1:
  43              		.cfi_def_cfa_offset 16
  44 0004 00AF     		add	r7, sp, #0
  45              	.LCFI2:
  46              		.cfi_def_cfa_register 7
  27:../../source/src/kernel/OS_CORE/schedule/os_schedule.c **** 	if(g_schedule_lock)
  47              		.loc 1 27 0
  48 0006 124B     		ldr	r3, .L6
  49 0008 1B68     		ldr	r3, [r3]
  50 000a 002B     		cmp	r3, #0
  51 000c 1CD1     		bne	.L5
  28:../../source/src/kernel/OS_CORE/schedule/os_schedule.c **** 		return ;
  29:../../source/src/kernel/OS_CORE/schedule/os_schedule.c **** 	CPU_SR_ALLOC();
  52              		.loc 1 29 0
  53 000e 0023     		movs	r3, #0
  54 0010 7B60     		str	r3, [r7, #4]
  30:../../source/src/kernel/OS_CORE/schedule/os_schedule.c **** 	CPU_CRITICAL_ENTER();
  55              		.loc 1 30 0
  56 0012 FFF7FEFF 		bl	CPU_SR_Save
  57 0016 7860     		str	r0, [r7, #4]
  31:../../source/src/kernel/OS_CORE/schedule/os_schedule.c **** 	OSTCBHighRdyPtr = _get_highest_prio_ready_TCB();
  58              		.loc 1 31 0
  59 0018 FFF7FEFF 		bl	_get_highest_prio_ready_TCB
  60 001c 0246     		mov	r2, r0
  61 001e 0D4B     		ldr	r3, .L6+4
  62 0020 1A60     		str	r2, [r3]
  32:../../source/src/kernel/OS_CORE/schedule/os_schedule.c **** 	if(OSTCBHighRdyPtr != OSTCBCurPtr)
  63              		.loc 1 32 0
  64 0022 0C4B     		ldr	r3, .L6+4
  65 0024 1A68     		ldr	r2, [r3]
  66 0026 0C4B     		ldr	r3, .L6+8
  67 0028 1B68     		ldr	r3, [r3]
  68 002a 9A42     		cmp	r2, r3
  69 002c 07D0     		beq	.L4
  33:../../source/src/kernel/OS_CORE/schedule/os_schedule.c **** 	{
  34:../../source/src/kernel/OS_CORE/schedule/os_schedule.c **** 		OSIntCtxSw();
  70              		.loc 1 34 0
  71 002e 0B4B     		ldr	r3, .L6+12
  72 0030 4FF08052 		mov	r2, #268435456
  73 0034 1A60     		str	r2, [r3]
  35:../../source/src/kernel/OS_CORE/schedule/os_schedule.c **** 		CPU_CRITICAL_EXIT();
  74              		.loc 1 35 0
  75 0036 7868     		ldr	r0, [r7, #4]
  76 0038 FFF7FEFF 		bl	CPU_SR_Restore
  36:../../source/src/kernel/OS_CORE/schedule/os_schedule.c **** 		return ;
  77              		.loc 1 36 0
  78 003c 05E0     		b	.L1
ARM GAS  G:\Users\Jaxb\AppData\Local\Temp\ccV5xqmv.s 			page 3


  79              	.L4:
  37:../../source/src/kernel/OS_CORE/schedule/os_schedule.c **** 	}
  38:../../source/src/kernel/OS_CORE/schedule/os_schedule.c **** 	CPU_CRITICAL_EXIT();
  80              		.loc 1 38 0
  81 003e 7868     		ldr	r0, [r7, #4]
  82 0040 FFF7FEFF 		bl	CPU_SR_Restore
  39:../../source/src/kernel/OS_CORE/schedule/os_schedule.c **** 	return ;
  83              		.loc 1 39 0
  84 0044 00BF     		nop
  85 0046 00E0     		b	.L1
  86              	.L5:
  28:../../source/src/kernel/OS_CORE/schedule/os_schedule.c **** 	CPU_SR_ALLOC();
  87              		.loc 1 28 0
  88 0048 00BF     		nop
  89              	.L1:
  40:../../source/src/kernel/OS_CORE/schedule/os_schedule.c **** }
  90              		.loc 1 40 0
  91 004a 0837     		adds	r7, r7, #8
  92              	.LCFI3:
  93              		.cfi_def_cfa_offset 8
  94 004c BD46     		mov	sp, r7
  95              	.LCFI4:
  96              		.cfi_def_cfa_register 13
  97              		@ sp needed
  98 004e 80BD     		pop	{r7, pc}
  99              	.L7:
 100              		.align	2
 101              	.L6:
 102 0050 00000000 		.word	g_schedule_lock
 103 0054 00000000 		.word	OSTCBHighRdyPtr
 104 0058 00000000 		.word	OSTCBCurPtr
 105 005c 04ED00E0 		.word	-536810236
 106              		.cfi_endproc
 107              	.LFE20:
 108              		.size	_schedule, .-_schedule
 109              		.align	1
 110              		.global	schedule
 111              		.syntax unified
 112              		.thumb
 113              		.thumb_func
 114              		.fpu softvfp
 115              		.type	schedule, %function
 116              	schedule:
 117              	.LFB21:
  41:../../source/src/kernel/OS_CORE/schedule/os_schedule.c **** 
  42:../../source/src/kernel/OS_CORE/schedule/os_schedule.c **** void schedule(void)
  43:../../source/src/kernel/OS_CORE/schedule/os_schedule.c **** {
 118              		.loc 1 43 0
 119              		.cfi_startproc
 120              		@ args = 0, pretend = 0, frame = 0
 121              		@ frame_needed = 1, uses_anonymous_args = 0
 122 0060 80B5     		push	{r7, lr}
 123              	.LCFI5:
 124              		.cfi_def_cfa_offset 8
 125              		.cfi_offset 7, -8
 126              		.cfi_offset 14, -4
 127 0062 00AF     		add	r7, sp, #0
ARM GAS  G:\Users\Jaxb\AppData\Local\Temp\ccV5xqmv.s 			page 4


 128              	.LCFI6:
 129              		.cfi_def_cfa_register 7
  44:../../source/src/kernel/OS_CORE/schedule/os_schedule.c **** 	_schedule();
 130              		.loc 1 44 0
 131 0064 FFF7CCFF 		bl	_schedule
  45:../../source/src/kernel/OS_CORE/schedule/os_schedule.c **** }
 132              		.loc 1 45 0
 133 0068 00BF     		nop
 134 006a 80BD     		pop	{r7, pc}
 135              		.cfi_endproc
 136              	.LFE21:
 137              		.size	schedule, .-schedule
 138              		.global	__rtmsym_schedule_name
 139              		.section	.rodata.name,"a",%progbits
 140              		.align	2
 141              		.type	__rtmsym_schedule_name, %object
 142              		.size	__rtmsym_schedule_name, 9
 143              	__rtmsym_schedule_name:
 144 0000 73636865 		.ascii	"schedule\000"
 144      64756C65 
 144      00
 145              		.global	__rtmsym_schedule
 146              		.section	.RTMSymTab,"a",%progbits
 147              		.align	2
 148              		.type	__rtmsym_schedule, %object
 149              		.size	__rtmsym_schedule, 8
 150              	__rtmsym_schedule:
 151 0000 00000000 		.word	schedule
 152 0004 00000000 		.word	__rtmsym_schedule_name
 153              		.text
 154              		.align	1
 155              		.global	_sys_delay
 156              		.syntax unified
 157              		.thumb
 158              		.thumb_func
 159              		.fpu softvfp
 160              		.type	_sys_delay, %function
 161              	_sys_delay:
 162              	.LFB22:
  46:../../source/src/kernel/OS_CORE/schedule/os_schedule.c **** EXPORT_SYMBOL(schedule);
  47:../../source/src/kernel/OS_CORE/schedule/os_schedule.c **** 
  48:../../source/src/kernel/OS_CORE/schedule/os_schedule.c **** int _sys_delay(unsigned int delay_ticks_num,TASK_STATE state)
  49:../../source/src/kernel/OS_CORE/schedule/os_schedule.c **** {
 163              		.loc 1 49 0
 164              		.cfi_startproc
 165              		@ args = 0, pretend = 0, frame = 16
 166              		@ frame_needed = 1, uses_anonymous_args = 0
 167 006c 2DE99048 		push	{r4, r7, fp, lr}
 168              	.LCFI7:
 169              		.cfi_def_cfa_offset 16
 170              		.cfi_offset 4, -16
 171              		.cfi_offset 7, -12
 172              		.cfi_offset 11, -8
 173              		.cfi_offset 14, -4
 174 0070 84B0     		sub	sp, sp, #16
 175              	.LCFI8:
 176              		.cfi_def_cfa_offset 32
ARM GAS  G:\Users\Jaxb\AppData\Local\Temp\ccV5xqmv.s 			page 5


 177 0072 00AF     		add	r7, sp, #0
 178              	.LCFI9:
 179              		.cfi_def_cfa_register 7
 180 0074 7860     		str	r0, [r7, #4]
 181 0076 0B46     		mov	r3, r1
 182 0078 FB70     		strb	r3, [r7, #3]
  50:../../source/src/kernel/OS_CORE/schedule/os_schedule.c **** 	CPU_SR_ALLOC();
 183              		.loc 1 50 0
 184 007a 0023     		movs	r3, #0
 185 007c FB60     		str	r3, [r7, #12]
  51:../../source/src/kernel/OS_CORE/schedule/os_schedule.c **** 	CPU_CRITICAL_ENTER();
 186              		.loc 1 51 0
 187 007e FFF7FEFF 		bl	CPU_SR_Save
 188 0082 F860     		str	r0, [r7, #12]
  52:../../source/src/kernel/OS_CORE/schedule/os_schedule.c **** 	if (g_interrupt_count > 0)
 189              		.loc 1 52 0
 190 0084 1E4B     		ldr	r3, .L12
 191 0086 1B68     		ldr	r3, [r3]
 192 0088 002B     		cmp	r3, #0
 193 008a 05DD     		ble	.L10
  53:../../source/src/kernel/OS_CORE/schedule/os_schedule.c **** 	{
  54:../../source/src/kernel/OS_CORE/schedule/os_schedule.c **** 		CPU_CRITICAL_EXIT();
 194              		.loc 1 54 0
 195 008c F868     		ldr	r0, [r7, #12]
 196 008e FFF7FEFF 		bl	CPU_SR_Restore
  55:../../source/src/kernel/OS_CORE/schedule/os_schedule.c **** 		return -ERROR_FUN_USE_IN_INTER;
 197              		.loc 1 55 0
 198 0092 6FF0FC03 		mvn	r3, #252
 199 0096 2EE0     		b	.L11
 200              	.L10:
  56:../../source/src/kernel/OS_CORE/schedule/os_schedule.c **** 	}
  57:../../source/src/kernel/OS_CORE/schedule/os_schedule.c **** 	OSTCBCurPtr->delay_reach_time = delay_ticks_num + g_time_tick_count;
 201              		.loc 1 57 0
 202 0098 7B68     		ldr	r3, [r7, #4]
 203 009a 1946     		mov	r1, r3
 204 009c 4FF00002 		mov	r2, #0
 205 00a0 184B     		ldr	r3, .L12+4
 206 00a2 D3E900BC 		ldrd	fp, [r3]
 207 00a6 1848     		ldr	r0, .L12+8
 208 00a8 0068     		ldr	r0, [r0]
 209 00aa 1BEB0103 		adds	r3, fp, r1
 210 00ae 4CEB0204 		adc	r4, ip, r2
 211 00b2 C0E91034 		strd	r3, [r0, #64]
  58:../../source/src/kernel/OS_CORE/schedule/os_schedule.c **** 	OSTCBCurPtr->task_state = state;
 212              		.loc 1 58 0
 213 00b6 144B     		ldr	r3, .L12+8
 214 00b8 1B68     		ldr	r3, [r3]
 215 00ba FA78     		ldrb	r2, [r7, #3]
 216 00bc 1A74     		strb	r2, [r3, #16]
  59:../../source/src/kernel/OS_CORE/schedule/os_schedule.c **** 	_delete_TCB_from_ready((TCB *)OSTCBCurPtr);
 217              		.loc 1 59 0
 218 00be 124B     		ldr	r3, .L12+8
 219 00c0 1B68     		ldr	r3, [r3]
 220 00c2 1846     		mov	r0, r3
 221 00c4 FFF7FEFF 		bl	_delete_TCB_from_ready
  60:../../source/src/kernel/OS_CORE/schedule/os_schedule.c **** 	_insert_into_delay_heap((TCB *)OSTCBCurPtr);
 222              		.loc 1 60 0
ARM GAS  G:\Users\Jaxb\AppData\Local\Temp\ccV5xqmv.s 			page 6


 223 00c8 0F4B     		ldr	r3, .L12+8
 224 00ca 1B68     		ldr	r3, [r3]
 225 00cc 1846     		mov	r0, r3
 226 00ce FFF7FEFF 		bl	_insert_into_delay_heap
  61:../../source/src/kernel/OS_CORE/schedule/os_schedule.c **** 	schedule();
 227              		.loc 1 61 0
 228 00d2 FFF7FEFF 		bl	schedule
  62:../../source/src/kernel/OS_CORE/schedule/os_schedule.c **** 	CPU_CRITICAL_EXIT();
 229              		.loc 1 62 0
 230 00d6 F868     		ldr	r0, [r7, #12]
 231 00d8 FFF7FEFF 		bl	CPU_SR_Restore
  63:../../source/src/kernel/OS_CORE/schedule/os_schedule.c **** 	return (unsigned int)(OSTCBCurPtr->delay_reach_time - _get_tick());
 232              		.loc 1 63 0
 233 00dc 0A4B     		ldr	r3, .L12+8
 234 00de 1B68     		ldr	r3, [r3]
 235 00e0 03F14004 		add	r4, r3, #64
 236 00e4 D4E90034 		ldrd	r3, [r4]
 237 00e8 1C46     		mov	r4, r3
 238 00ea FFF7FEFF 		bl	_get_tick
 239 00ee 0246     		mov	r2, r0
 240 00f0 0B46     		mov	r3, r1
 241 00f2 1346     		mov	r3, r2
 242 00f4 E31A     		subs	r3, r4, r3
 243              	.L11:
  64:../../source/src/kernel/OS_CORE/schedule/os_schedule.c **** }
 244              		.loc 1 64 0
 245 00f6 1846     		mov	r0, r3
 246 00f8 1037     		adds	r7, r7, #16
 247              	.LCFI10:
 248              		.cfi_def_cfa_offset 16
 249 00fa BD46     		mov	sp, r7
 250              	.LCFI11:
 251              		.cfi_def_cfa_register 13
 252              		@ sp needed
 253 00fc BDE89088 		pop	{r4, r7, fp, pc}
 254              	.L13:
 255              		.align	2
 256              	.L12:
 257 0100 00000000 		.word	g_interrupt_count
 258 0104 00000000 		.word	g_time_tick_count
 259 0108 00000000 		.word	OSTCBCurPtr
 260              		.cfi_endproc
 261              	.LFE22:
 262              		.size	_sys_delay, .-_sys_delay
 263              		.section	.rodata
 264              		.align	2
 265              	.LC0:
 266 0000 2E2E2F2E 		.ascii	"../../source/src/kernel/OS_CORE/schedule/os_schedul"
 266      2E2F736F 
 266      75726365 
 266      2F737263 
 266      2F6B6572 
 267 0033 652E6300 		.ascii	"e.c\000"
 268 0037 00       		.align	2
 269              	.LC1:
 270 0038 6572726F 		.ascii	"error fun name : sys_delay\012error para : state\012"
 270      72206675 
ARM GAS  G:\Users\Jaxb\AppData\Local\Temp\ccV5xqmv.s 			page 7


 270      6E206E61 
 270      6D65203A 
 270      20737973 
 271 0066 00       		.ascii	"\000"
 272 0067 00       		.align	2
 273              	.LC2:
 274 0068 6572726F 		.ascii	"error fun name : sys_delay\012error para : delay_ti"
 274      72206675 
 274      6E206E61 
 274      6D65203A 
 274      20737973 
 275 0098 636B735F 		.ascii	"cks_num\012\000"
 275      6E756D0A 
 275      00
 276              		.text
 277              		.align	1
 278              		.global	sys_delay
 279              		.syntax unified
 280              		.thumb
 281              		.thumb_func
 282              		.fpu softvfp
 283              		.type	sys_delay, %function
 284              	sys_delay:
 285              	.LFB23:
  65:../../source/src/kernel/OS_CORE/schedule/os_schedule.c **** 
  66:../../source/src/kernel/OS_CORE/schedule/os_schedule.c **** int sys_delay(unsigned int delay_ticks_num,TASK_STATE state)
  67:../../source/src/kernel/OS_CORE/schedule/os_schedule.c **** {
 286              		.loc 1 67 0
 287              		.cfi_startproc
 288              		@ args = 0, pretend = 0, frame = 8
 289              		@ frame_needed = 1, uses_anonymous_args = 0
 290 010c 80B5     		push	{r7, lr}
 291              	.LCFI12:
 292              		.cfi_def_cfa_offset 8
 293              		.cfi_offset 7, -8
 294              		.cfi_offset 14, -4
 295 010e 82B0     		sub	sp, sp, #8
 296              	.LCFI13:
 297              		.cfi_def_cfa_offset 16
 298 0110 00AF     		add	r7, sp, #0
 299              	.LCFI14:
 300              		.cfi_def_cfa_register 7
 301 0112 7860     		str	r0, [r7, #4]
 302 0114 0B46     		mov	r3, r1
 303 0116 FB70     		strb	r3, [r7, #3]
  68:../../source/src/kernel/OS_CORE/schedule/os_schedule.c **** 	ASSERT((STATE_DELAY == state) 						|| 
 304              		.loc 1 68 0
 305 0118 FB78     		ldrb	r3, [r7, #3]	@ zero_extendqisi2
 306 011a 022B     		cmp	r3, #2
 307 011c 0CD0     		beq	.L15
 308              		.loc 1 68 0 is_stmt 0 discriminator 1
 309 011e FB78     		ldrb	r3, [r7, #3]	@ zero_extendqisi2
 310 0120 052B     		cmp	r3, #5
 311 0122 09D0     		beq	.L15
 312              		.loc 1 68 0 discriminator 2
 313 0124 FB78     		ldrb	r3, [r7, #3]	@ zero_extendqisi2
 314 0126 072B     		cmp	r3, #7
ARM GAS  G:\Users\Jaxb\AppData\Local\Temp\ccV5xqmv.s 			page 8


 315 0128 06D0     		beq	.L15
 316              		.loc 1 68 0 discriminator 3
 317 012a FB78     		ldrb	r3, [r7, #3]	@ zero_extendqisi2
 318 012c 092B     		cmp	r3, #9
 319 012e 03D0     		beq	.L15
 320              		.loc 1 68 0 discriminator 4
 321 0130 4721     		movs	r1, #71
 322 0132 1748     		ldr	r0, .L20
 323 0134 FFF7FEFF 		bl	_ASSERT
 324              	.L15:
  69:../../source/src/kernel/OS_CORE/schedule/os_schedule.c **** 		   (STATE_WAIT_MCB_TIMEOUT == state) 			|| 
  70:../../source/src/kernel/OS_CORE/schedule/os_schedule.c **** 		   (STATE_WAIT_MESSAGE_QUEUE_TIMEOUT == state) 	|| 
  71:../../source/src/kernel/OS_CORE/schedule/os_schedule.c **** 		   (STATE_PUT_MESSAGE_QUEUE_TIMEOUT == state));
  72:../../source/src/kernel/OS_CORE/schedule/os_schedule.c **** 	ASSERT(0 != delay_ticks_num);
 325              		.loc 1 72 0 is_stmt 1
 326 0138 7B68     		ldr	r3, [r7, #4]
 327 013a 002B     		cmp	r3, #0
 328 013c 03D1     		bne	.L16
 329              		.loc 1 72 0 is_stmt 0 discriminator 1
 330 013e 4821     		movs	r1, #72
 331 0140 1348     		ldr	r0, .L20
 332 0142 FFF7FEFF 		bl	_ASSERT
 333              	.L16:
  73:../../source/src/kernel/OS_CORE/schedule/os_schedule.c **** 	if(!((STATE_DELAY == state) || (STATE_WAIT_MCB_TIMEOUT == state) || 
 334              		.loc 1 73 0 is_stmt 1
 335 0146 FB78     		ldrb	r3, [r7, #3]	@ zero_extendqisi2
 336 0148 022B     		cmp	r3, #2
 337 014a 0ED0     		beq	.L17
 338              		.loc 1 73 0 is_stmt 0 discriminator 1
 339 014c FB78     		ldrb	r3, [r7, #3]	@ zero_extendqisi2
 340 014e 052B     		cmp	r3, #5
 341 0150 0BD0     		beq	.L17
 342              		.loc 1 73 0 discriminator 2
 343 0152 FB78     		ldrb	r3, [r7, #3]	@ zero_extendqisi2
 344 0154 072B     		cmp	r3, #7
 345 0156 08D0     		beq	.L17
 346              		.loc 1 73 0 discriminator 3
 347 0158 FB78     		ldrb	r3, [r7, #3]	@ zero_extendqisi2
 348 015a 092B     		cmp	r3, #9
 349 015c 05D0     		beq	.L17
  74:../../source/src/kernel/OS_CORE/schedule/os_schedule.c **** 		(STATE_WAIT_MESSAGE_QUEUE_TIMEOUT == state) || (STATE_PUT_MESSAGE_QUEUE_TIMEOUT == state)))
  75:../../source/src/kernel/OS_CORE/schedule/os_schedule.c **** 	{
  76:../../source/src/kernel/OS_CORE/schedule/os_schedule.c **** 		OS_ERROR_PARA_MESSAGE_DISPLAY(sys_delay,state);
 350              		.loc 1 76 0 is_stmt 1
 351 015e 0D48     		ldr	r0, .L20+4
 352 0160 FFF7FEFF 		bl	ka_printf
  77:../../source/src/kernel/OS_CORE/schedule/os_schedule.c **** 		return -ERROR_VALUELESS_INPUT;
 353              		.loc 1 77 0
 354 0164 6FF0FD03 		mvn	r3, #253
 355 0168 0EE0     		b	.L18
 356              	.L17:
  78:../../source/src/kernel/OS_CORE/schedule/os_schedule.c **** 	}
  79:../../source/src/kernel/OS_CORE/schedule/os_schedule.c **** 	if(0 == delay_ticks_num)
 357              		.loc 1 79 0
 358 016a 7B68     		ldr	r3, [r7, #4]
 359 016c 002B     		cmp	r3, #0
 360 016e 05D1     		bne	.L19
ARM GAS  G:\Users\Jaxb\AppData\Local\Temp\ccV5xqmv.s 			page 9


  80:../../source/src/kernel/OS_CORE/schedule/os_schedule.c **** 	{
  81:../../source/src/kernel/OS_CORE/schedule/os_schedule.c **** 		OS_ERROR_PARA_MESSAGE_DISPLAY(sys_delay,delay_ticks_num);
 361              		.loc 1 81 0
 362 0170 0948     		ldr	r0, .L20+8
 363 0172 FFF7FEFF 		bl	ka_printf
  82:../../source/src/kernel/OS_CORE/schedule/os_schedule.c **** 		return -ERROR_VALUELESS_INPUT;
 364              		.loc 1 82 0
 365 0176 6FF0FD03 		mvn	r3, #253
 366 017a 05E0     		b	.L18
 367              	.L19:
  83:../../source/src/kernel/OS_CORE/schedule/os_schedule.c **** 	}
  84:../../source/src/kernel/OS_CORE/schedule/os_schedule.c **** 	return _sys_delay(delay_ticks_num,state);
 368              		.loc 1 84 0
 369 017c FB78     		ldrb	r3, [r7, #3]	@ zero_extendqisi2
 370 017e 1946     		mov	r1, r3
 371 0180 7868     		ldr	r0, [r7, #4]
 372 0182 FFF7FEFF 		bl	_sys_delay
 373 0186 0346     		mov	r3, r0
 374              	.L18:
  85:../../source/src/kernel/OS_CORE/schedule/os_schedule.c **** }
 375              		.loc 1 85 0
 376 0188 1846     		mov	r0, r3
 377 018a 0837     		adds	r7, r7, #8
 378              	.LCFI15:
 379              		.cfi_def_cfa_offset 8
 380 018c BD46     		mov	sp, r7
 381              	.LCFI16:
 382              		.cfi_def_cfa_register 13
 383              		@ sp needed
 384 018e 80BD     		pop	{r7, pc}
 385              	.L21:
 386              		.align	2
 387              	.L20:
 388 0190 00000000 		.word	.LC0
 389 0194 38000000 		.word	.LC1
 390 0198 68000000 		.word	.LC2
 391              		.cfi_endproc
 392              	.LFE23:
 393              		.size	sys_delay, .-sys_delay
 394              		.global	__rtmsym_sys_delay_name
 395              		.section	.rodata.name
 396 0009 000000   		.align	2
 397              		.type	__rtmsym_sys_delay_name, %object
 398              		.size	__rtmsym_sys_delay_name, 10
 399              	__rtmsym_sys_delay_name:
 400 000c 7379735F 		.ascii	"sys_delay\000"
 400      64656C61 
 400      7900
 401              		.global	__rtmsym_sys_delay
 402              		.section	.RTMSymTab
 403              		.align	2
 404              		.type	__rtmsym_sys_delay, %object
 405              		.size	__rtmsym_sys_delay, 8
 406              	__rtmsym_sys_delay:
 407 0008 00000000 		.word	sys_delay
 408 000c 00000000 		.word	__rtmsym_sys_delay_name
 409              		.text
ARM GAS  G:\Users\Jaxb\AppData\Local\Temp\ccV5xqmv.s 			page 10


 410              		.align	1
 411              		.global	_sys_suspend
 412              		.syntax unified
 413              		.thumb
 414              		.thumb_func
 415              		.fpu softvfp
 416              		.type	_sys_suspend, %function
 417              	_sys_suspend:
 418              	.LFB24:
  86:../../source/src/kernel/OS_CORE/schedule/os_schedule.c **** EXPORT_SYMBOL(sys_delay);
  87:../../source/src/kernel/OS_CORE/schedule/os_schedule.c **** 
  88:../../source/src/kernel/OS_CORE/schedule/os_schedule.c **** int _sys_suspend(TASK_STATE state)
  89:../../source/src/kernel/OS_CORE/schedule/os_schedule.c **** {
 419              		.loc 1 89 0
 420              		.cfi_startproc
 421              		@ args = 0, pretend = 0, frame = 16
 422              		@ frame_needed = 1, uses_anonymous_args = 0
 423 019c 80B5     		push	{r7, lr}
 424              	.LCFI17:
 425              		.cfi_def_cfa_offset 8
 426              		.cfi_offset 7, -8
 427              		.cfi_offset 14, -4
 428 019e 84B0     		sub	sp, sp, #16
 429              	.LCFI18:
 430              		.cfi_def_cfa_offset 24
 431 01a0 00AF     		add	r7, sp, #0
 432              	.LCFI19:
 433              		.cfi_def_cfa_register 7
 434 01a2 0346     		mov	r3, r0
 435 01a4 FB71     		strb	r3, [r7, #7]
  90:../../source/src/kernel/OS_CORE/schedule/os_schedule.c **** 	CPU_SR_ALLOC();
 436              		.loc 1 90 0
 437 01a6 0023     		movs	r3, #0
 438 01a8 FB60     		str	r3, [r7, #12]
  91:../../source/src/kernel/OS_CORE/schedule/os_schedule.c **** 	CPU_CRITICAL_ENTER();
 439              		.loc 1 91 0
 440 01aa FFF7FEFF 		bl	CPU_SR_Save
 441 01ae F860     		str	r0, [r7, #12]
  92:../../source/src/kernel/OS_CORE/schedule/os_schedule.c **** 	if (g_interrupt_count > 0)
 442              		.loc 1 92 0
 443 01b0 104B     		ldr	r3, .L25
 444 01b2 1B68     		ldr	r3, [r3]
 445 01b4 002B     		cmp	r3, #0
 446 01b6 05DD     		ble	.L23
  93:../../source/src/kernel/OS_CORE/schedule/os_schedule.c **** 	{
  94:../../source/src/kernel/OS_CORE/schedule/os_schedule.c **** 		CPU_CRITICAL_EXIT();
 447              		.loc 1 94 0
 448 01b8 F868     		ldr	r0, [r7, #12]
 449 01ba FFF7FEFF 		bl	CPU_SR_Restore
  95:../../source/src/kernel/OS_CORE/schedule/os_schedule.c **** 		return -ERROR_FUN_USE_IN_INTER;
 450              		.loc 1 95 0
 451 01be 6FF0FC03 		mvn	r3, #252
 452 01c2 13E0     		b	.L24
 453              	.L23:
  96:../../source/src/kernel/OS_CORE/schedule/os_schedule.c **** 	}
  97:../../source/src/kernel/OS_CORE/schedule/os_schedule.c **** 	OSTCBCurPtr->task_state = state;
 454              		.loc 1 97 0
ARM GAS  G:\Users\Jaxb\AppData\Local\Temp\ccV5xqmv.s 			page 11


 455 01c4 0C4B     		ldr	r3, .L25+4
 456 01c6 1B68     		ldr	r3, [r3]
 457 01c8 FA79     		ldrb	r2, [r7, #7]
 458 01ca 1A74     		strb	r2, [r3, #16]
  98:../../source/src/kernel/OS_CORE/schedule/os_schedule.c **** 	_delete_TCB_from_ready((TCB *)OSTCBCurPtr);
 459              		.loc 1 98 0
 460 01cc 0A4B     		ldr	r3, .L25+4
 461 01ce 1B68     		ldr	r3, [r3]
 462 01d0 1846     		mov	r0, r3
 463 01d2 FFF7FEFF 		bl	_delete_TCB_from_ready
  99:../../source/src/kernel/OS_CORE/schedule/os_schedule.c **** 	_insert_into_suspend_list((TCB *)OSTCBCurPtr);
 464              		.loc 1 99 0
 465 01d6 084B     		ldr	r3, .L25+4
 466 01d8 1B68     		ldr	r3, [r3]
 467 01da 1846     		mov	r0, r3
 468 01dc FFF7FEFF 		bl	_insert_into_suspend_list
 100:../../source/src/kernel/OS_CORE/schedule/os_schedule.c **** 	schedule();
 469              		.loc 1 100 0
 470 01e0 FFF7FEFF 		bl	schedule
 101:../../source/src/kernel/OS_CORE/schedule/os_schedule.c **** 	CPU_CRITICAL_EXIT();
 471              		.loc 1 101 0
 472 01e4 F868     		ldr	r0, [r7, #12]
 473 01e6 FFF7FEFF 		bl	CPU_SR_Restore
 102:../../source/src/kernel/OS_CORE/schedule/os_schedule.c **** 	return FUN_EXECUTE_SUCCESSFULLY;
 474              		.loc 1 102 0
 475 01ea 0023     		movs	r3, #0
 476              	.L24:
 103:../../source/src/kernel/OS_CORE/schedule/os_schedule.c **** }
 477              		.loc 1 103 0
 478 01ec 1846     		mov	r0, r3
 479 01ee 1037     		adds	r7, r7, #16
 480              	.LCFI20:
 481              		.cfi_def_cfa_offset 8
 482 01f0 BD46     		mov	sp, r7
 483              	.LCFI21:
 484              		.cfi_def_cfa_register 13
 485              		@ sp needed
 486 01f2 80BD     		pop	{r7, pc}
 487              	.L26:
 488              		.align	2
 489              	.L25:
 490 01f4 00000000 		.word	g_interrupt_count
 491 01f8 00000000 		.word	OSTCBCurPtr
 492              		.cfi_endproc
 493              	.LFE24:
 494              		.size	_sys_suspend, .-_sys_suspend
 495              		.align	1
 496              		.global	sys_suspend
 497              		.syntax unified
 498              		.thumb
 499              		.thumb_func
 500              		.fpu softvfp
 501              		.type	sys_suspend, %function
 502              	sys_suspend:
 503              	.LFB25:
 104:../../source/src/kernel/OS_CORE/schedule/os_schedule.c **** 
 105:../../source/src/kernel/OS_CORE/schedule/os_schedule.c **** int sys_suspend(TASK_STATE state)
ARM GAS  G:\Users\Jaxb\AppData\Local\Temp\ccV5xqmv.s 			page 12


 106:../../source/src/kernel/OS_CORE/schedule/os_schedule.c **** {
 504              		.loc 1 106 0
 505              		.cfi_startproc
 506              		@ args = 0, pretend = 0, frame = 8
 507              		@ frame_needed = 1, uses_anonymous_args = 0
 508 01fc 80B5     		push	{r7, lr}
 509              	.LCFI22:
 510              		.cfi_def_cfa_offset 8
 511              		.cfi_offset 7, -8
 512              		.cfi_offset 14, -4
 513 01fe 82B0     		sub	sp, sp, #8
 514              	.LCFI23:
 515              		.cfi_def_cfa_offset 16
 516 0200 00AF     		add	r7, sp, #0
 517              	.LCFI24:
 518              		.cfi_def_cfa_register 7
 519 0202 0346     		mov	r3, r0
 520 0204 FB71     		strb	r3, [r7, #7]
 107:../../source/src/kernel/OS_CORE/schedule/os_schedule.c **** 	ASSERT((STATE_SUSPEND_NORMAL == state) 				||
 521              		.loc 1 107 0
 522 0206 FB79     		ldrb	r3, [r7, #7]	@ zero_extendqisi2
 523 0208 032B     		cmp	r3, #3
 524 020a 0FD0     		beq	.L28
 525              		.loc 1 107 0 is_stmt 0 discriminator 1
 526 020c FB79     		ldrb	r3, [r7, #7]	@ zero_extendqisi2
 527 020e 042B     		cmp	r3, #4
 528 0210 0CD0     		beq	.L28
 529              		.loc 1 107 0 discriminator 2
 530 0212 FB79     		ldrb	r3, [r7, #7]	@ zero_extendqisi2
 531 0214 062B     		cmp	r3, #6
 532 0216 09D0     		beq	.L28
 533              		.loc 1 107 0 discriminator 3
 534 0218 FB79     		ldrb	r3, [r7, #7]	@ zero_extendqisi2
 535 021a 082B     		cmp	r3, #8
 536 021c 06D0     		beq	.L28
 537              		.loc 1 107 0 discriminator 4
 538 021e FB79     		ldrb	r3, [r7, #7]	@ zero_extendqisi2
 539 0220 0A2B     		cmp	r3, #10
 540 0222 03D0     		beq	.L28
 541              		.loc 1 107 0 discriminator 5
 542 0224 6F21     		movs	r1, #111
 543 0226 1048     		ldr	r0, .L31
 544 0228 FFF7FEFF 		bl	_ASSERT
 545              	.L28:
 108:../../source/src/kernel/OS_CORE/schedule/os_schedule.c **** 		   (STATE_WAIT_MCB_FOREVER == state) 			||
 109:../../source/src/kernel/OS_CORE/schedule/os_schedule.c **** 		   (STATE_WAIT_MESSAGE_QUEUE_FOREVER == state) 	||
 110:../../source/src/kernel/OS_CORE/schedule/os_schedule.c **** 		   (STATE_PUT_MESSAGE_QUEUE_FOREVER == state)	||
 111:../../source/src/kernel/OS_CORE/schedule/os_schedule.c **** 		   (STATE_WAIT_MUTEX_FOREVER == state));
 112:../../source/src/kernel/OS_CORE/schedule/os_schedule.c **** 	if(!((STATE_SUSPEND_NORMAL == state) 				||
 546              		.loc 1 112 0 is_stmt 1
 547 022c FB79     		ldrb	r3, [r7, #7]	@ zero_extendqisi2
 548 022e 032B     		cmp	r3, #3
 549 0230 11D0     		beq	.L29
 550              		.loc 1 112 0 is_stmt 0 discriminator 1
 551 0232 FB79     		ldrb	r3, [r7, #7]	@ zero_extendqisi2
 552 0234 042B     		cmp	r3, #4
 553 0236 0ED0     		beq	.L29
ARM GAS  G:\Users\Jaxb\AppData\Local\Temp\ccV5xqmv.s 			page 13


 113:../../source/src/kernel/OS_CORE/schedule/os_schedule.c **** 		   (STATE_WAIT_MCB_FOREVER == state) 			||
 554              		.loc 1 113 0 is_stmt 1
 555 0238 FB79     		ldrb	r3, [r7, #7]	@ zero_extendqisi2
 556 023a 062B     		cmp	r3, #6
 557 023c 0BD0     		beq	.L29
 114:../../source/src/kernel/OS_CORE/schedule/os_schedule.c **** 		   (STATE_WAIT_MESSAGE_QUEUE_FOREVER == state) 	||
 558              		.loc 1 114 0
 559 023e FB79     		ldrb	r3, [r7, #7]	@ zero_extendqisi2
 560 0240 082B     		cmp	r3, #8
 561 0242 08D0     		beq	.L29
 112:../../source/src/kernel/OS_CORE/schedule/os_schedule.c **** 		   (STATE_WAIT_MCB_FOREVER == state) 			||
 562              		.loc 1 112 0
 563 0244 FB79     		ldrb	r3, [r7, #7]	@ zero_extendqisi2
 564 0246 0A2B     		cmp	r3, #10
 565 0248 05D0     		beq	.L29
 115:../../source/src/kernel/OS_CORE/schedule/os_schedule.c **** 		   (STATE_PUT_MESSAGE_QUEUE_FOREVER == state)	||
 116:../../source/src/kernel/OS_CORE/schedule/os_schedule.c **** 		   (STATE_WAIT_MUTEX_FOREVER == state)))
 117:../../source/src/kernel/OS_CORE/schedule/os_schedule.c **** 	{
 118:../../source/src/kernel/OS_CORE/schedule/os_schedule.c **** 		OS_ERROR_PARA_MESSAGE_DISPLAY(sys_delay,state);
 566              		.loc 1 118 0
 567 024a 0848     		ldr	r0, .L31+4
 568 024c FFF7FEFF 		bl	ka_printf
 119:../../source/src/kernel/OS_CORE/schedule/os_schedule.c **** 		return -ERROR_VALUELESS_INPUT;
 569              		.loc 1 119 0
 570 0250 6FF0FD03 		mvn	r3, #253
 571 0254 04E0     		b	.L30
 572              	.L29:
 120:../../source/src/kernel/OS_CORE/schedule/os_schedule.c **** 	} 
 121:../../source/src/kernel/OS_CORE/schedule/os_schedule.c **** 	return _sys_suspend(state);
 573              		.loc 1 121 0
 574 0256 FB79     		ldrb	r3, [r7, #7]	@ zero_extendqisi2
 575 0258 1846     		mov	r0, r3
 576 025a FFF7FEFF 		bl	_sys_suspend
 577 025e 0346     		mov	r3, r0
 578              	.L30:
 122:../../source/src/kernel/OS_CORE/schedule/os_schedule.c **** }
 579              		.loc 1 122 0
 580 0260 1846     		mov	r0, r3
 581 0262 0837     		adds	r7, r7, #8
 582              	.LCFI25:
 583              		.cfi_def_cfa_offset 8
 584 0264 BD46     		mov	sp, r7
 585              	.LCFI26:
 586              		.cfi_def_cfa_register 13
 587              		@ sp needed
 588 0266 80BD     		pop	{r7, pc}
 589              	.L32:
 590              		.align	2
 591              	.L31:
 592 0268 00000000 		.word	.LC0
 593 026c 38000000 		.word	.LC1
 594              		.cfi_endproc
 595              	.LFE25:
 596              		.size	sys_suspend, .-sys_suspend
 597              		.global	__rtmsym_sys_suspend_name
 598              		.section	.rodata.name
 599 0016 0000     		.align	2
ARM GAS  G:\Users\Jaxb\AppData\Local\Temp\ccV5xqmv.s 			page 14


 600              		.type	__rtmsym_sys_suspend_name, %object
 601              		.size	__rtmsym_sys_suspend_name, 12
 602              	__rtmsym_sys_suspend_name:
 603 0018 7379735F 		.ascii	"sys_suspend\000"
 603      73757370 
 603      656E6400 
 604              		.global	__rtmsym_sys_suspend
 605              		.section	.RTMSymTab
 606              		.align	2
 607              		.type	__rtmsym_sys_suspend, %object
 608              		.size	__rtmsym_sys_suspend, 8
 609              	__rtmsym_sys_suspend:
 610 0010 00000000 		.word	sys_suspend
 611 0014 00000000 		.word	__rtmsym_sys_suspend_name
 612              		.text
 613              		.align	1
 614              		.syntax unified
 615              		.thumb
 616              		.thumb_func
 617              		.fpu softvfp
 618              		.type	_task_creat_ready, %function
 619              	_task_creat_ready:
 620              	.LFB26:
 123:../../source/src/kernel/OS_CORE/schedule/os_schedule.c **** EXPORT_SYMBOL(sys_suspend);
 124:../../source/src/kernel/OS_CORE/schedule/os_schedule.c **** 
 125:../../source/src/kernel/OS_CORE/schedule/os_schedule.c **** static _must_check int _task_creat_ready(
 126:../../source/src/kernel/OS_CORE/schedule/os_schedule.c **** 	unsigned int stack_size,
 127:../../source/src/kernel/OS_CORE/schedule/os_schedule.c **** 	TASK_PRIO_TYPE prio,
 128:../../source/src/kernel/OS_CORE/schedule/os_schedule.c **** 	unsigned int timeslice_hope_time,
 129:../../source/src/kernel/OS_CORE/schedule/os_schedule.c **** 	const char *name,
 130:../../source/src/kernel/OS_CORE/schedule/os_schedule.c **** 	functionptr function,
 131:../../source/src/kernel/OS_CORE/schedule/os_schedule.c **** 	void *para,
 132:../../source/src/kernel/OS_CORE/schedule/os_schedule.c **** 	TCB **ptr)
 133:../../source/src/kernel/OS_CORE/schedule/os_schedule.c **** {
 621              		.loc 1 133 0
 622              		.cfi_startproc
 623              		@ args = 12, pretend = 0, frame = 32
 624              		@ frame_needed = 1, uses_anonymous_args = 0
 625 0270 80B5     		push	{r7, lr}
 626              	.LCFI27:
 627              		.cfi_def_cfa_offset 8
 628              		.cfi_offset 7, -8
 629              		.cfi_offset 14, -4
 630 0272 8CB0     		sub	sp, sp, #48
 631              	.LCFI28:
 632              		.cfi_def_cfa_offset 56
 633 0274 04AF     		add	r7, sp, #16
 634              	.LCFI29:
 635              		.cfi_def_cfa 7, 40
 636 0276 F860     		str	r0, [r7, #12]
 637 0278 B960     		str	r1, [r7, #8]
 638 027a 7A60     		str	r2, [r7, #4]
 639 027c 3B60     		str	r3, [r7]
 134:../../source/src/kernel/OS_CORE/schedule/os_schedule.c **** 	int ret;
 135:../../source/src/kernel/OS_CORE/schedule/os_schedule.c **** 	CPU_SR_ALLOC();
 640              		.loc 1 135 0
 641 027e 0023     		movs	r3, #0
ARM GAS  G:\Users\Jaxb\AppData\Local\Temp\ccV5xqmv.s 			page 15


 642 0280 FB61     		str	r3, [r7, #28]
 136:../../source/src/kernel/OS_CORE/schedule/os_schedule.c **** 	CPU_CRITICAL_ENTER();
 643              		.loc 1 136 0
 644 0282 FFF7FEFF 		bl	CPU_SR_Save
 645 0286 F861     		str	r0, [r7, #28]
 137:../../source/src/kernel/OS_CORE/schedule/os_schedule.c **** 	TCB *TCB_ptr = _task_creat(stack_size,prio,timeslice_hope_time,name,function,para,STATE_READY);
 646              		.loc 1 137 0
 647 0288 0123     		movs	r3, #1
 648 028a 0293     		str	r3, [sp, #8]
 649 028c FB6A     		ldr	r3, [r7, #44]
 650 028e 0193     		str	r3, [sp, #4]
 651 0290 BB6A     		ldr	r3, [r7, #40]
 652 0292 0093     		str	r3, [sp]
 653 0294 3B68     		ldr	r3, [r7]
 654 0296 7A68     		ldr	r2, [r7, #4]
 655 0298 B968     		ldr	r1, [r7, #8]
 656 029a F868     		ldr	r0, [r7, #12]
 657 029c FFF7FEFF 		bl	_task_creat
 658 02a0 B861     		str	r0, [r7, #24]
 138:../../source/src/kernel/OS_CORE/schedule/os_schedule.c **** 	if(NULL == TCB_ptr)
 659              		.loc 1 138 0
 660 02a2 BB69     		ldr	r3, [r7, #24]
 661 02a4 002B     		cmp	r3, #0
 662 02a6 02D1     		bne	.L34
 139:../../source/src/kernel/OS_CORE/schedule/os_schedule.c **** 	{
 140:../../source/src/kernel/OS_CORE/schedule/os_schedule.c **** 		return -ERROR_SYS;
 663              		.loc 1 140 0
 664 02a8 6FF0F703 		mvn	r3, #247
 665 02ac 14E0     		b	.L35
 666              	.L34:
 141:../../source/src/kernel/OS_CORE/schedule/os_schedule.c **** 	}
 142:../../source/src/kernel/OS_CORE/schedule/os_schedule.c **** 	if(NULL != ptr)
 667              		.loc 1 142 0
 668 02ae 3B6B     		ldr	r3, [r7, #48]
 669 02b0 002B     		cmp	r3, #0
 670 02b2 02D0     		beq	.L36
 143:../../source/src/kernel/OS_CORE/schedule/os_schedule.c **** 	{
 144:../../source/src/kernel/OS_CORE/schedule/os_schedule.c **** 		*ptr = TCB_ptr;
 671              		.loc 1 144 0
 672 02b4 3B6B     		ldr	r3, [r7, #48]
 673 02b6 BA69     		ldr	r2, [r7, #24]
 674 02b8 1A60     		str	r2, [r3]
 675              	.L36:
 145:../../source/src/kernel/OS_CORE/schedule/os_schedule.c **** 	}
 146:../../source/src/kernel/OS_CORE/schedule/os_schedule.c **** 	ret = _insert_ready_TCB(TCB_ptr);
 676              		.loc 1 146 0
 677 02ba B869     		ldr	r0, [r7, #24]
 678 02bc FFF7FEFF 		bl	_insert_ready_TCB
 679 02c0 7861     		str	r0, [r7, #20]
 147:../../source/src/kernel/OS_CORE/schedule/os_schedule.c **** 	if(0 != ret)
 680              		.loc 1 147 0
 681 02c2 7B69     		ldr	r3, [r7, #20]
 682 02c4 002B     		cmp	r3, #0
 683 02c6 01D0     		beq	.L37
 148:../../source/src/kernel/OS_CORE/schedule/os_schedule.c **** 	{
 149:../../source/src/kernel/OS_CORE/schedule/os_schedule.c **** 		return ret;
 684              		.loc 1 149 0
ARM GAS  G:\Users\Jaxb\AppData\Local\Temp\ccV5xqmv.s 			page 16


 685 02c8 7B69     		ldr	r3, [r7, #20]
 686 02ca 05E0     		b	.L35
 687              	.L37:
 150:../../source/src/kernel/OS_CORE/schedule/os_schedule.c **** 	}
 151:../../source/src/kernel/OS_CORE/schedule/os_schedule.c **** 	schedule();
 688              		.loc 1 151 0
 689 02cc FFF7FEFF 		bl	schedule
 152:../../source/src/kernel/OS_CORE/schedule/os_schedule.c **** 	CPU_CRITICAL_EXIT();
 690              		.loc 1 152 0
 691 02d0 F869     		ldr	r0, [r7, #28]
 692 02d2 FFF7FEFF 		bl	CPU_SR_Restore
 153:../../source/src/kernel/OS_CORE/schedule/os_schedule.c **** 	return FUN_EXECUTE_SUCCESSFULLY;
 693              		.loc 1 153 0
 694 02d6 0023     		movs	r3, #0
 695              	.L35:
 154:../../source/src/kernel/OS_CORE/schedule/os_schedule.c **** }
 696              		.loc 1 154 0
 697 02d8 1846     		mov	r0, r3
 698 02da 2037     		adds	r7, r7, #32
 699              	.LCFI30:
 700              		.cfi_def_cfa_offset 8
 701 02dc BD46     		mov	sp, r7
 702              	.LCFI31:
 703              		.cfi_def_cfa_register 13
 704              		@ sp needed
 705 02de 80BD     		pop	{r7, pc}
 706              		.cfi_endproc
 707              	.LFE26:
 708              		.size	_task_creat_ready, .-_task_creat_ready
 709              		.align	1
 710              		.global	task_creat_ready
 711              		.syntax unified
 712              		.thumb
 713              		.thumb_func
 714              		.fpu softvfp
 715              		.type	task_creat_ready, %function
 716              	task_creat_ready:
 717              	.LFB27:
 155:../../source/src/kernel/OS_CORE/schedule/os_schedule.c **** 
 156:../../source/src/kernel/OS_CORE/schedule/os_schedule.c **** int _must_check task_creat_ready(
 157:../../source/src/kernel/OS_CORE/schedule/os_schedule.c **** 	unsigned int stack_size,
 158:../../source/src/kernel/OS_CORE/schedule/os_schedule.c **** 	TASK_PRIO_TYPE prio,
 159:../../source/src/kernel/OS_CORE/schedule/os_schedule.c **** 	unsigned int timeslice_hope_time,
 160:../../source/src/kernel/OS_CORE/schedule/os_schedule.c **** 	const char *name,
 161:../../source/src/kernel/OS_CORE/schedule/os_schedule.c **** 	functionptr function,
 162:../../source/src/kernel/OS_CORE/schedule/os_schedule.c **** 	void *para,
 163:../../source/src/kernel/OS_CORE/schedule/os_schedule.c **** 	TCB **ptr)
 164:../../source/src/kernel/OS_CORE/schedule/os_schedule.c **** {
 718              		.loc 1 164 0
 719              		.cfi_startproc
 720              		@ args = 12, pretend = 0, frame = 16
 721              		@ frame_needed = 1, uses_anonymous_args = 0
 722 02e0 80B5     		push	{r7, lr}
 723              	.LCFI32:
 724              		.cfi_def_cfa_offset 8
 725              		.cfi_offset 7, -8
 726              		.cfi_offset 14, -4
ARM GAS  G:\Users\Jaxb\AppData\Local\Temp\ccV5xqmv.s 			page 17


 727 02e2 88B0     		sub	sp, sp, #32
 728              	.LCFI33:
 729              		.cfi_def_cfa_offset 40
 730 02e4 04AF     		add	r7, sp, #16
 731              	.LCFI34:
 732              		.cfi_def_cfa 7, 24
 733 02e6 F860     		str	r0, [r7, #12]
 734 02e8 B960     		str	r1, [r7, #8]
 735 02ea 7A60     		str	r2, [r7, #4]
 736 02ec 3B60     		str	r3, [r7]
 165:../../source/src/kernel/OS_CORE/schedule/os_schedule.c **** 	if (g_interrupt_count > 0)
 737              		.loc 1 165 0
 738 02ee 134B     		ldr	r3, .L44
 739 02f0 1B68     		ldr	r3, [r3]
 740 02f2 002B     		cmp	r3, #0
 741 02f4 02DD     		ble	.L39
 166:../../source/src/kernel/OS_CORE/schedule/os_schedule.c **** 	{
 167:../../source/src/kernel/OS_CORE/schedule/os_schedule.c **** 		return -ERROR_FUN_USE_IN_INTER;
 742              		.loc 1 167 0
 743 02f6 6FF0FC03 		mvn	r3, #252
 744 02fa 1BE0     		b	.L40
 745              	.L39:
 168:../../source/src/kernel/OS_CORE/schedule/os_schedule.c **** 	}
 169:../../source/src/kernel/OS_CORE/schedule/os_schedule.c **** 	if(prio >= PRIO_MAX)
 746              		.loc 1 169 0
 747 02fc BB68     		ldr	r3, [r7, #8]
 748 02fe 3F2B     		cmp	r3, #63
 749 0300 02D9     		bls	.L41
 170:../../source/src/kernel/OS_CORE/schedule/os_schedule.c **** 	{
 171:../../source/src/kernel/OS_CORE/schedule/os_schedule.c **** 		return -ERROR_LOGIC;
 750              		.loc 1 171 0
 751 0302 6FF0F803 		mvn	r3, #248
 752 0306 15E0     		b	.L40
 753              	.L41:
 172:../../source/src/kernel/OS_CORE/schedule/os_schedule.c **** 	}
 173:../../source/src/kernel/OS_CORE/schedule/os_schedule.c **** 	if((NULL == name) || (NULL == function))
 754              		.loc 1 173 0
 755 0308 3B68     		ldr	r3, [r7]
 756 030a 002B     		cmp	r3, #0
 757 030c 02D0     		beq	.L42
 758              		.loc 1 173 0 is_stmt 0 discriminator 1
 759 030e BB69     		ldr	r3, [r7, #24]
 760 0310 002B     		cmp	r3, #0
 761 0312 02D1     		bne	.L43
 762              	.L42:
 174:../../source/src/kernel/OS_CORE/schedule/os_schedule.c **** 	{
 175:../../source/src/kernel/OS_CORE/schedule/os_schedule.c **** 		return -ERROR_NULL_INPUT_PTR;
 763              		.loc 1 175 0 is_stmt 1
 764 0314 6FF0FE03 		mvn	r3, #254
 765 0318 0CE0     		b	.L40
 766              	.L43:
 176:../../source/src/kernel/OS_CORE/schedule/os_schedule.c **** 	}
 177:../../source/src/kernel/OS_CORE/schedule/os_schedule.c **** 	return _task_creat_ready(
 767              		.loc 1 177 0
 768 031a 3B6A     		ldr	r3, [r7, #32]
 769 031c 0293     		str	r3, [sp, #8]
 770 031e FB69     		ldr	r3, [r7, #28]
ARM GAS  G:\Users\Jaxb\AppData\Local\Temp\ccV5xqmv.s 			page 18


 771 0320 0193     		str	r3, [sp, #4]
 772 0322 BB69     		ldr	r3, [r7, #24]
 773 0324 0093     		str	r3, [sp]
 774 0326 3B68     		ldr	r3, [r7]
 775 0328 7A68     		ldr	r2, [r7, #4]
 776 032a B968     		ldr	r1, [r7, #8]
 777 032c F868     		ldr	r0, [r7, #12]
 778 032e FFF79FFF 		bl	_task_creat_ready
 779 0332 0346     		mov	r3, r0
 780              	.L40:
 178:../../source/src/kernel/OS_CORE/schedule/os_schedule.c **** 				stack_size,
 179:../../source/src/kernel/OS_CORE/schedule/os_schedule.c **** 				prio,
 180:../../source/src/kernel/OS_CORE/schedule/os_schedule.c **** 				timeslice_hope_time,
 181:../../source/src/kernel/OS_CORE/schedule/os_schedule.c **** 				name,
 182:../../source/src/kernel/OS_CORE/schedule/os_schedule.c **** 				function,
 183:../../source/src/kernel/OS_CORE/schedule/os_schedule.c **** 				para,
 184:../../source/src/kernel/OS_CORE/schedule/os_schedule.c **** 				ptr);
 185:../../source/src/kernel/OS_CORE/schedule/os_schedule.c **** }
 781              		.loc 1 185 0
 782 0334 1846     		mov	r0, r3
 783 0336 1037     		adds	r7, r7, #16
 784              	.LCFI35:
 785              		.cfi_def_cfa_offset 8
 786 0338 BD46     		mov	sp, r7
 787              	.LCFI36:
 788              		.cfi_def_cfa_register 13
 789              		@ sp needed
 790 033a 80BD     		pop	{r7, pc}
 791              	.L45:
 792              		.align	2
 793              	.L44:
 794 033c 00000000 		.word	g_interrupt_count
 795              		.cfi_endproc
 796              	.LFE27:
 797              		.size	task_creat_ready, .-task_creat_ready
 798              		.global	__rtmsym_task_creat_ready_name
 799              		.section	.rodata.name
 800              		.align	2
 801              		.type	__rtmsym_task_creat_ready_name, %object
 802              		.size	__rtmsym_task_creat_ready_name, 17
 803              	__rtmsym_task_creat_ready_name:
 804 0024 7461736B 		.ascii	"task_creat_ready\000"
 804      5F637265 
 804      61745F72 
 804      65616479 
 804      00
 805              		.global	__rtmsym_task_creat_ready
 806              		.section	.RTMSymTab
 807              		.align	2
 808              		.type	__rtmsym_task_creat_ready, %object
 809              		.size	__rtmsym_task_creat_ready, 8
 810              	__rtmsym_task_creat_ready:
 811 0018 00000000 		.word	task_creat_ready
 812 001c 00000000 		.word	__rtmsym_task_creat_ready_name
 813              		.text
 814              		.align	1
 815              		.global	_task_init_ready
ARM GAS  G:\Users\Jaxb\AppData\Local\Temp\ccV5xqmv.s 			page 19


 816              		.syntax unified
 817              		.thumb
 818              		.thumb_func
 819              		.fpu softvfp
 820              		.type	_task_init_ready, %function
 821              	_task_init_ready:
 822              	.LFB28:
 186:../../source/src/kernel/OS_CORE/schedule/os_schedule.c **** EXPORT_SYMBOL(task_creat_ready);
 187:../../source/src/kernel/OS_CORE/schedule/os_schedule.c **** 
 188:../../source/src/kernel/OS_CORE/schedule/os_schedule.c **** int _must_check _task_init_ready(
 189:../../source/src/kernel/OS_CORE/schedule/os_schedule.c **** 	TCB *TCB_ptr,
 190:../../source/src/kernel/OS_CORE/schedule/os_schedule.c **** 	unsigned int stack_size,
 191:../../source/src/kernel/OS_CORE/schedule/os_schedule.c **** 	TASK_PRIO_TYPE prio,
 192:../../source/src/kernel/OS_CORE/schedule/os_schedule.c **** 	unsigned int timeslice_hope_time,
 193:../../source/src/kernel/OS_CORE/schedule/os_schedule.c **** 	const char *name,
 194:../../source/src/kernel/OS_CORE/schedule/os_schedule.c **** 	functionptr function,
 195:../../source/src/kernel/OS_CORE/schedule/os_schedule.c **** 	void *para)
 196:../../source/src/kernel/OS_CORE/schedule/os_schedule.c **** {
 823              		.loc 1 196 0
 824              		.cfi_startproc
 825              		@ args = 12, pretend = 0, frame = 24
 826              		@ frame_needed = 1, uses_anonymous_args = 0
 827 0340 80B5     		push	{r7, lr}
 828              	.LCFI37:
 829              		.cfi_def_cfa_offset 8
 830              		.cfi_offset 7, -8
 831              		.cfi_offset 14, -4
 832 0342 8AB0     		sub	sp, sp, #40
 833              	.LCFI38:
 834              		.cfi_def_cfa_offset 48
 835 0344 04AF     		add	r7, sp, #16
 836              	.LCFI39:
 837              		.cfi_def_cfa 7, 32
 838 0346 F860     		str	r0, [r7, #12]
 839 0348 B960     		str	r1, [r7, #8]
 840 034a 7A60     		str	r2, [r7, #4]
 841 034c 3B60     		str	r3, [r7]
 197:../../source/src/kernel/OS_CORE/schedule/os_schedule.c **** 	CPU_SR_ALLOC();
 842              		.loc 1 197 0
 843 034e 0023     		movs	r3, #0
 844 0350 7B61     		str	r3, [r7, #20]
 198:../../source/src/kernel/OS_CORE/schedule/os_schedule.c **** 	CPU_CRITICAL_ENTER();
 845              		.loc 1 198 0
 846 0352 FFF7FEFF 		bl	CPU_SR_Save
 847 0356 7861     		str	r0, [r7, #20]
 199:../../source/src/kernel/OS_CORE/schedule/os_schedule.c **** 	int ret;
 200:../../source/src/kernel/OS_CORE/schedule/os_schedule.c **** 	if(0 != _task_init(TCB_ptr,stack_size,prio,timeslice_hope_time,name,function,para,STATE_READY))
 848              		.loc 1 200 0
 849 0358 0123     		movs	r3, #1
 850 035a 0393     		str	r3, [sp, #12]
 851 035c BB6A     		ldr	r3, [r7, #40]
 852 035e 0293     		str	r3, [sp, #8]
 853 0360 7B6A     		ldr	r3, [r7, #36]
 854 0362 0193     		str	r3, [sp, #4]
 855 0364 3B6A     		ldr	r3, [r7, #32]
 856 0366 0093     		str	r3, [sp]
 857 0368 3B68     		ldr	r3, [r7]
ARM GAS  G:\Users\Jaxb\AppData\Local\Temp\ccV5xqmv.s 			page 20


 858 036a 7A68     		ldr	r2, [r7, #4]
 859 036c B968     		ldr	r1, [r7, #8]
 860 036e F868     		ldr	r0, [r7, #12]
 861 0370 FFF7FEFF 		bl	_task_init
 862 0374 0346     		mov	r3, r0
 863 0376 002B     		cmp	r3, #0
 864 0378 05D0     		beq	.L47
 201:../../source/src/kernel/OS_CORE/schedule/os_schedule.c **** 	{
 202:../../source/src/kernel/OS_CORE/schedule/os_schedule.c **** 		CPU_CRITICAL_EXIT();
 865              		.loc 1 202 0
 866 037a 7869     		ldr	r0, [r7, #20]
 867 037c FFF7FEFF 		bl	CPU_SR_Restore
 203:../../source/src/kernel/OS_CORE/schedule/os_schedule.c **** 		return -ERROR_SYS;
 868              		.loc 1 203 0
 869 0380 6FF0F703 		mvn	r3, #247
 870 0384 11E0     		b	.L48
 871              	.L47:
 204:../../source/src/kernel/OS_CORE/schedule/os_schedule.c **** 	}
 205:../../source/src/kernel/OS_CORE/schedule/os_schedule.c **** 	ret = _insert_ready_TCB(TCB_ptr);
 872              		.loc 1 205 0
 873 0386 F868     		ldr	r0, [r7, #12]
 874 0388 FFF7FEFF 		bl	_insert_ready_TCB
 875 038c 3861     		str	r0, [r7, #16]
 206:../../source/src/kernel/OS_CORE/schedule/os_schedule.c **** 	if(0 != ret)
 876              		.loc 1 206 0
 877 038e 3B69     		ldr	r3, [r7, #16]
 878 0390 002B     		cmp	r3, #0
 879 0392 04D0     		beq	.L49
 207:../../source/src/kernel/OS_CORE/schedule/os_schedule.c **** 	{
 208:../../source/src/kernel/OS_CORE/schedule/os_schedule.c **** 		CPU_CRITICAL_EXIT();
 880              		.loc 1 208 0
 881 0394 7869     		ldr	r0, [r7, #20]
 882 0396 FFF7FEFF 		bl	CPU_SR_Restore
 209:../../source/src/kernel/OS_CORE/schedule/os_schedule.c **** 		return ret;
 883              		.loc 1 209 0
 884 039a 3B69     		ldr	r3, [r7, #16]
 885 039c 05E0     		b	.L48
 886              	.L49:
 210:../../source/src/kernel/OS_CORE/schedule/os_schedule.c **** 	}
 211:../../source/src/kernel/OS_CORE/schedule/os_schedule.c **** 	schedule();
 887              		.loc 1 211 0
 888 039e FFF7FEFF 		bl	schedule
 212:../../source/src/kernel/OS_CORE/schedule/os_schedule.c **** 	CPU_CRITICAL_EXIT();
 889              		.loc 1 212 0
 890 03a2 7869     		ldr	r0, [r7, #20]
 891 03a4 FFF7FEFF 		bl	CPU_SR_Restore
 213:../../source/src/kernel/OS_CORE/schedule/os_schedule.c **** 	return FUN_EXECUTE_SUCCESSFULLY;
 892              		.loc 1 213 0
 893 03a8 0023     		movs	r3, #0
 894              	.L48:
 214:../../source/src/kernel/OS_CORE/schedule/os_schedule.c **** }
 895              		.loc 1 214 0
 896 03aa 1846     		mov	r0, r3
 897 03ac 1837     		adds	r7, r7, #24
 898              	.LCFI40:
 899              		.cfi_def_cfa_offset 8
 900 03ae BD46     		mov	sp, r7
ARM GAS  G:\Users\Jaxb\AppData\Local\Temp\ccV5xqmv.s 			page 21


 901              	.LCFI41:
 902              		.cfi_def_cfa_register 13
 903              		@ sp needed
 904 03b0 80BD     		pop	{r7, pc}
 905              		.cfi_endproc
 906              	.LFE28:
 907              		.size	_task_init_ready, .-_task_init_ready
 908              		.align	1
 909              		.global	task_init_ready
 910              		.syntax unified
 911              		.thumb
 912              		.thumb_func
 913              		.fpu softvfp
 914              		.type	task_init_ready, %function
 915              	task_init_ready:
 916              	.LFB29:
 215:../../source/src/kernel/OS_CORE/schedule/os_schedule.c **** 
 216:../../source/src/kernel/OS_CORE/schedule/os_schedule.c **** int _must_check task_init_ready(
 217:../../source/src/kernel/OS_CORE/schedule/os_schedule.c **** 	TCB *TCB_ptr,
 218:../../source/src/kernel/OS_CORE/schedule/os_schedule.c **** 	unsigned int stack_size,
 219:../../source/src/kernel/OS_CORE/schedule/os_schedule.c **** 	TASK_PRIO_TYPE prio,
 220:../../source/src/kernel/OS_CORE/schedule/os_schedule.c **** 	unsigned int timeslice_hope_time,
 221:../../source/src/kernel/OS_CORE/schedule/os_schedule.c **** 	const char *name,
 222:../../source/src/kernel/OS_CORE/schedule/os_schedule.c **** 	functionptr function,
 223:../../source/src/kernel/OS_CORE/schedule/os_schedule.c **** 	void *para)
 224:../../source/src/kernel/OS_CORE/schedule/os_schedule.c **** {	
 917              		.loc 1 224 0
 918              		.cfi_startproc
 919              		@ args = 12, pretend = 0, frame = 16
 920              		@ frame_needed = 1, uses_anonymous_args = 0
 921 03b2 80B5     		push	{r7, lr}
 922              	.LCFI42:
 923              		.cfi_def_cfa_offset 8
 924              		.cfi_offset 7, -8
 925              		.cfi_offset 14, -4
 926 03b4 88B0     		sub	sp, sp, #32
 927              	.LCFI43:
 928              		.cfi_def_cfa_offset 40
 929 03b6 04AF     		add	r7, sp, #16
 930              	.LCFI44:
 931              		.cfi_def_cfa 7, 24
 932 03b8 F860     		str	r0, [r7, #12]
 933 03ba B960     		str	r1, [r7, #8]
 934 03bc 7A60     		str	r2, [r7, #4]
 935 03be 3B60     		str	r3, [r7]
 225:../../source/src/kernel/OS_CORE/schedule/os_schedule.c **** 	if (g_interrupt_count > 0)
 936              		.loc 1 225 0
 937 03c0 144B     		ldr	r3, .L56
 938 03c2 1B68     		ldr	r3, [r3]
 939 03c4 002B     		cmp	r3, #0
 940 03c6 02DD     		ble	.L51
 226:../../source/src/kernel/OS_CORE/schedule/os_schedule.c **** 	{
 227:../../source/src/kernel/OS_CORE/schedule/os_schedule.c **** 		return -ERROR_FUN_USE_IN_INTER;
 941              		.loc 1 227 0
 942 03c8 6FF0FC03 		mvn	r3, #252
 943 03cc 1EE0     		b	.L52
 944              	.L51:
ARM GAS  G:\Users\Jaxb\AppData\Local\Temp\ccV5xqmv.s 			page 22


 228:../../source/src/kernel/OS_CORE/schedule/os_schedule.c **** 	}
 229:../../source/src/kernel/OS_CORE/schedule/os_schedule.c **** 	if(prio >= PRIO_MAX)
 945              		.loc 1 229 0
 946 03ce 7B68     		ldr	r3, [r7, #4]
 947 03d0 3F2B     		cmp	r3, #63
 948 03d2 02D9     		bls	.L53
 230:../../source/src/kernel/OS_CORE/schedule/os_schedule.c **** 	{
 231:../../source/src/kernel/OS_CORE/schedule/os_schedule.c **** 		return -ERROR_LOGIC;
 949              		.loc 1 231 0
 950 03d4 6FF0F803 		mvn	r3, #248
 951 03d8 18E0     		b	.L52
 952              	.L53:
 232:../../source/src/kernel/OS_CORE/schedule/os_schedule.c **** 	}
 233:../../source/src/kernel/OS_CORE/schedule/os_schedule.c **** 	if((NULL == TCB_ptr) || (NULL == name) || (NULL == function))
 953              		.loc 1 233 0
 954 03da FB68     		ldr	r3, [r7, #12]
 955 03dc 002B     		cmp	r3, #0
 956 03de 05D0     		beq	.L54
 957              		.loc 1 233 0 is_stmt 0 discriminator 1
 958 03e0 BB69     		ldr	r3, [r7, #24]
 959 03e2 002B     		cmp	r3, #0
 960 03e4 02D0     		beq	.L54
 961              		.loc 1 233 0 discriminator 2
 962 03e6 FB69     		ldr	r3, [r7, #28]
 963 03e8 002B     		cmp	r3, #0
 964 03ea 02D1     		bne	.L55
 965              	.L54:
 234:../../source/src/kernel/OS_CORE/schedule/os_schedule.c **** 	{
 235:../../source/src/kernel/OS_CORE/schedule/os_schedule.c **** 		return -ERROR_NULL_INPUT_PTR;
 966              		.loc 1 235 0 is_stmt 1
 967 03ec 6FF0FE03 		mvn	r3, #254
 968 03f0 0CE0     		b	.L52
 969              	.L55:
 236:../../source/src/kernel/OS_CORE/schedule/os_schedule.c **** 	}
 237:../../source/src/kernel/OS_CORE/schedule/os_schedule.c **** 	return _task_init_ready(
 970              		.loc 1 237 0
 971 03f2 3B6A     		ldr	r3, [r7, #32]
 972 03f4 0293     		str	r3, [sp, #8]
 973 03f6 FB69     		ldr	r3, [r7, #28]
 974 03f8 0193     		str	r3, [sp, #4]
 975 03fa BB69     		ldr	r3, [r7, #24]
 976 03fc 0093     		str	r3, [sp]
 977 03fe 3B68     		ldr	r3, [r7]
 978 0400 7A68     		ldr	r2, [r7, #4]
 979 0402 B968     		ldr	r1, [r7, #8]
 980 0404 F868     		ldr	r0, [r7, #12]
 981 0406 FFF7FEFF 		bl	_task_init_ready
 982 040a 0346     		mov	r3, r0
 983              	.L52:
 238:../../source/src/kernel/OS_CORE/schedule/os_schedule.c **** 				TCB_ptr,
 239:../../source/src/kernel/OS_CORE/schedule/os_schedule.c **** 				stack_size,
 240:../../source/src/kernel/OS_CORE/schedule/os_schedule.c **** 				prio,
 241:../../source/src/kernel/OS_CORE/schedule/os_schedule.c **** 				timeslice_hope_time,
 242:../../source/src/kernel/OS_CORE/schedule/os_schedule.c **** 				name,
 243:../../source/src/kernel/OS_CORE/schedule/os_schedule.c **** 				function,
 244:../../source/src/kernel/OS_CORE/schedule/os_schedule.c **** 				para);
 245:../../source/src/kernel/OS_CORE/schedule/os_schedule.c **** }
ARM GAS  G:\Users\Jaxb\AppData\Local\Temp\ccV5xqmv.s 			page 23


 984              		.loc 1 245 0
 985 040c 1846     		mov	r0, r3
 986 040e 1037     		adds	r7, r7, #16
 987              	.LCFI45:
 988              		.cfi_def_cfa_offset 8
 989 0410 BD46     		mov	sp, r7
 990              	.LCFI46:
 991              		.cfi_def_cfa_register 13
 992              		@ sp needed
 993 0412 80BD     		pop	{r7, pc}
 994              	.L57:
 995              		.align	2
 996              	.L56:
 997 0414 00000000 		.word	g_interrupt_count
 998              		.cfi_endproc
 999              	.LFE29:
 1000              		.size	task_init_ready, .-task_init_ready
 1001              		.global	__rtmsym_task_init_ready_name
 1002              		.section	.rodata.name
 1003 0035 000000   		.align	2
 1004              		.type	__rtmsym_task_init_ready_name, %object
 1005              		.size	__rtmsym_task_init_ready_name, 16
 1006              	__rtmsym_task_init_ready_name:
 1007 0038 7461736B 		.ascii	"task_init_ready\000"
 1007      5F696E69 
 1007      745F7265 
 1007      61647900 
 1008              		.global	__rtmsym_task_init_ready
 1009              		.section	.RTMSymTab
 1010              		.align	2
 1011              		.type	__rtmsym_task_init_ready, %object
 1012              		.size	__rtmsym_task_init_ready, 8
 1013              	__rtmsym_task_init_ready:
 1014 0020 00000000 		.word	task_init_ready
 1015 0024 00000000 		.word	__rtmsym_task_init_ready_name
 1016              		.text
 1017              		.align	1
 1018              		.global	sys_schedule_lock
 1019              		.syntax unified
 1020              		.thumb
 1021              		.thumb_func
 1022              		.fpu softvfp
 1023              		.type	sys_schedule_lock, %function
 1024              	sys_schedule_lock:
 1025              	.LFB30:
 246:../../source/src/kernel/OS_CORE/schedule/os_schedule.c **** EXPORT_SYMBOL(task_init_ready);
 247:../../source/src/kernel/OS_CORE/schedule/os_schedule.c **** 
 248:../../source/src/kernel/OS_CORE/schedule/os_schedule.c **** void sys_schedule_lock(void)
 249:../../source/src/kernel/OS_CORE/schedule/os_schedule.c **** {
 1026              		.loc 1 249 0
 1027              		.cfi_startproc
 1028              		@ args = 0, pretend = 0, frame = 8
 1029              		@ frame_needed = 1, uses_anonymous_args = 0
 1030 0418 80B5     		push	{r7, lr}
 1031              	.LCFI47:
 1032              		.cfi_def_cfa_offset 8
 1033              		.cfi_offset 7, -8
ARM GAS  G:\Users\Jaxb\AppData\Local\Temp\ccV5xqmv.s 			page 24


 1034              		.cfi_offset 14, -4
 1035 041a 82B0     		sub	sp, sp, #8
 1036              	.LCFI48:
 1037              		.cfi_def_cfa_offset 16
 1038 041c 00AF     		add	r7, sp, #0
 1039              	.LCFI49:
 1040              		.cfi_def_cfa_register 7
 250:../../source/src/kernel/OS_CORE/schedule/os_schedule.c **** 	CPU_SR_ALLOC();
 1041              		.loc 1 250 0
 1042 041e 0023     		movs	r3, #0
 1043 0420 7B60     		str	r3, [r7, #4]
 251:../../source/src/kernel/OS_CORE/schedule/os_schedule.c **** 	CPU_CRITICAL_ENTER();
 1044              		.loc 1 251 0
 1045 0422 FFF7FEFF 		bl	CPU_SR_Save
 1046 0426 7860     		str	r0, [r7, #4]
 252:../../source/src/kernel/OS_CORE/schedule/os_schedule.c **** 	++g_schedule_lock;
 1047              		.loc 1 252 0
 1048 0428 054B     		ldr	r3, .L59
 1049 042a 1B68     		ldr	r3, [r3]
 1050 042c 0133     		adds	r3, r3, #1
 1051 042e 044A     		ldr	r2, .L59
 1052 0430 1360     		str	r3, [r2]
 253:../../source/src/kernel/OS_CORE/schedule/os_schedule.c **** 	CPU_CRITICAL_EXIT();
 1053              		.loc 1 253 0
 1054 0432 7868     		ldr	r0, [r7, #4]
 1055 0434 FFF7FEFF 		bl	CPU_SR_Restore
 254:../../source/src/kernel/OS_CORE/schedule/os_schedule.c **** }
 1056              		.loc 1 254 0
 1057 0438 00BF     		nop
 1058 043a 0837     		adds	r7, r7, #8
 1059              	.LCFI50:
 1060              		.cfi_def_cfa_offset 8
 1061 043c BD46     		mov	sp, r7
 1062              	.LCFI51:
 1063              		.cfi_def_cfa_register 13
 1064              		@ sp needed
 1065 043e 80BD     		pop	{r7, pc}
 1066              	.L60:
 1067              		.align	2
 1068              	.L59:
 1069 0440 00000000 		.word	g_schedule_lock
 1070              		.cfi_endproc
 1071              	.LFE30:
 1072              		.size	sys_schedule_lock, .-sys_schedule_lock
 1073              		.align	1
 1074              		.global	sys_schedule_unlock
 1075              		.syntax unified
 1076              		.thumb
 1077              		.thumb_func
 1078              		.fpu softvfp
 1079              		.type	sys_schedule_unlock, %function
 1080              	sys_schedule_unlock:
 1081              	.LFB31:
 255:../../source/src/kernel/OS_CORE/schedule/os_schedule.c **** 
 256:../../source/src/kernel/OS_CORE/schedule/os_schedule.c **** void sys_schedule_unlock(void)
 257:../../source/src/kernel/OS_CORE/schedule/os_schedule.c **** {
 1082              		.loc 1 257 0
ARM GAS  G:\Users\Jaxb\AppData\Local\Temp\ccV5xqmv.s 			page 25


 1083              		.cfi_startproc
 1084              		@ args = 0, pretend = 0, frame = 8
 1085              		@ frame_needed = 1, uses_anonymous_args = 0
 1086 0444 80B5     		push	{r7, lr}
 1087              	.LCFI52:
 1088              		.cfi_def_cfa_offset 8
 1089              		.cfi_offset 7, -8
 1090              		.cfi_offset 14, -4
 1091 0446 82B0     		sub	sp, sp, #8
 1092              	.LCFI53:
 1093              		.cfi_def_cfa_offset 16
 1094 0448 00AF     		add	r7, sp, #0
 1095              	.LCFI54:
 1096              		.cfi_def_cfa_register 7
 258:../../source/src/kernel/OS_CORE/schedule/os_schedule.c **** 	CPU_SR_ALLOC();
 1097              		.loc 1 258 0
 1098 044a 0023     		movs	r3, #0
 1099 044c 7B60     		str	r3, [r7, #4]
 259:../../source/src/kernel/OS_CORE/schedule/os_schedule.c **** 	CPU_CRITICAL_ENTER();
 1100              		.loc 1 259 0
 1101 044e FFF7FEFF 		bl	CPU_SR_Save
 1102 0452 7860     		str	r0, [r7, #4]
 260:../../source/src/kernel/OS_CORE/schedule/os_schedule.c **** 	--g_schedule_lock;
 1103              		.loc 1 260 0
 1104 0454 054B     		ldr	r3, .L62
 1105 0456 1B68     		ldr	r3, [r3]
 1106 0458 013B     		subs	r3, r3, #1
 1107 045a 044A     		ldr	r2, .L62
 1108 045c 1360     		str	r3, [r2]
 261:../../source/src/kernel/OS_CORE/schedule/os_schedule.c **** 	CPU_CRITICAL_EXIT();
 1109              		.loc 1 261 0
 1110 045e 7868     		ldr	r0, [r7, #4]
 1111 0460 FFF7FEFF 		bl	CPU_SR_Restore
 262:../../source/src/kernel/OS_CORE/schedule/os_schedule.c **** }
 1112              		.loc 1 262 0
 1113 0464 00BF     		nop
 1114 0466 0837     		adds	r7, r7, #8
 1115              	.LCFI55:
 1116              		.cfi_def_cfa_offset 8
 1117 0468 BD46     		mov	sp, r7
 1118              	.LCFI56:
 1119              		.cfi_def_cfa_register 13
 1120              		@ sp needed
 1121 046a 80BD     		pop	{r7, pc}
 1122              	.L63:
 1123              		.align	2
 1124              	.L62:
 1125 046c 00000000 		.word	g_schedule_lock
 1126              		.cfi_endproc
 1127              	.LFE31:
 1128              		.size	sys_schedule_unlock, .-sys_schedule_unlock
 1129              		.align	1
 1130              		.global	sys_schedule_islock
 1131              		.syntax unified
 1132              		.thumb
 1133              		.thumb_func
 1134              		.fpu softvfp
ARM GAS  G:\Users\Jaxb\AppData\Local\Temp\ccV5xqmv.s 			page 26


 1135              		.type	sys_schedule_islock, %function
 1136              	sys_schedule_islock:
 1137              	.LFB32:
 263:../../source/src/kernel/OS_CORE/schedule/os_schedule.c **** 
 264:../../source/src/kernel/OS_CORE/schedule/os_schedule.c **** int sys_schedule_islock(void)
 265:../../source/src/kernel/OS_CORE/schedule/os_schedule.c **** {
 1138              		.loc 1 265 0
 1139              		.cfi_startproc
 1140              		@ args = 0, pretend = 0, frame = 0
 1141              		@ frame_needed = 1, uses_anonymous_args = 0
 1142              		@ link register save eliminated.
 1143 0470 80B4     		push	{r7}
 1144              	.LCFI57:
 1145              		.cfi_def_cfa_offset 4
 1146              		.cfi_offset 7, -4
 1147 0472 00AF     		add	r7, sp, #0
 1148              	.LCFI58:
 1149              		.cfi_def_cfa_register 7
 266:../../source/src/kernel/OS_CORE/schedule/os_schedule.c **** 	return (0 != g_schedule_lock);
 1150              		.loc 1 266 0
 1151 0474 054B     		ldr	r3, .L66
 1152 0476 1B68     		ldr	r3, [r3]
 1153 0478 002B     		cmp	r3, #0
 1154 047a 14BF     		ite	ne
 1155 047c 0123     		movne	r3, #1
 1156 047e 0023     		moveq	r3, #0
 1157 0480 DBB2     		uxtb	r3, r3
 267:../../source/src/kernel/OS_CORE/schedule/os_schedule.c **** }
 1158              		.loc 1 267 0
 1159 0482 1846     		mov	r0, r3
 1160 0484 BD46     		mov	sp, r7
 1161              	.LCFI59:
 1162              		.cfi_def_cfa_register 13
 1163              		@ sp needed
 1164 0486 80BC     		pop	{r7}
 1165              	.LCFI60:
 1166              		.cfi_restore 7
 1167              		.cfi_def_cfa_offset 0
 1168 0488 7047     		bx	lr
 1169              	.L67:
 1170 048a 00BF     		.align	2
 1171              	.L66:
 1172 048c 00000000 		.word	g_schedule_lock
 1173              		.cfi_endproc
 1174              	.LFE32:
 1175              		.size	sys_schedule_islock, .-sys_schedule_islock
 1176              	.Letext0:
 1177              		.file 2 "../../source/include/os_core/task_state.h"
 1178              		.file 3 "../../source/include/os_cpu/kakaosstdint.h"
 1179              		.file 4 "../../source/include/os_lib/double_linked_list.h"
 1180              		.file 5 "../../source/include/os_cpu/os_cpu_stm32.h"
 1181              		.file 6 "../../source/include/os_core/TCB.h"
 1182              		.file 7 "../../source/include/os_core/export.h"
 1183              		.section	.debug_info,"",%progbits
 1184              	.Ldebug_info0:
 1185 0000 F2070000 		.4byte	0x7f2
 1186 0004 0200     		.2byte	0x2
ARM GAS  G:\Users\Jaxb\AppData\Local\Temp\ccV5xqmv.s 			page 27


 1187 0006 00000000 		.4byte	.Ldebug_abbrev0
 1188 000a 04       		.byte	0x4
 1189 000b 01       		.uleb128 0x1
 1190 000c 05050000 		.4byte	.LASF78
 1191 0010 0C       		.byte	0xc
 1192 0011 15010000 		.4byte	.LASF79
 1193 0015 A1010000 		.4byte	.LASF80
 1194 0019 00000000 		.4byte	.Ltext0
 1195 001d 90040000 		.4byte	.Letext0
 1196 0021 00000000 		.4byte	.Ldebug_line0
 1197 0025 02       		.uleb128 0x2
 1198 0026 C6000000 		.4byte	.LASF81
 1199 002a 07       		.byte	0x7
 1200 002b 01       		.byte	0x1
 1201 002c 73000000 		.4byte	0x73
 1202 0030 02       		.byte	0x2
 1203 0031 04       		.byte	0x4
 1204 0032 73000000 		.4byte	0x73
 1205 0036 03       		.uleb128 0x3
 1206 0037 82020000 		.4byte	.LASF0
 1207 003b 01       		.byte	0x1
 1208 003c 03       		.uleb128 0x3
 1209 003d 8E020000 		.4byte	.LASF1
 1210 0041 02       		.byte	0x2
 1211 0042 03       		.uleb128 0x3
 1212 0043 0F000000 		.4byte	.LASF2
 1213 0047 03       		.byte	0x3
 1214 0048 03       		.uleb128 0x3
 1215 0049 60040000 		.4byte	.LASF3
 1216 004d 04       		.byte	0x4
 1217 004e 03       		.uleb128 0x3
 1218 004f 6D010000 		.4byte	.LASF4
 1219 0053 05       		.byte	0x5
 1220 0054 03       		.uleb128 0x3
 1221 0055 79000000 		.4byte	.LASF5
 1222 0059 06       		.byte	0x6
 1223 005a 03       		.uleb128 0x3
 1224 005b 21030000 		.4byte	.LASF6
 1225 005f 07       		.byte	0x7
 1226 0060 03       		.uleb128 0x3
 1227 0061 D1000000 		.4byte	.LASF7
 1228 0065 08       		.byte	0x8
 1229 0066 03       		.uleb128 0x3
 1230 0067 62030000 		.4byte	.LASF8
 1231 006b 09       		.byte	0x9
 1232 006c 03       		.uleb128 0x3
 1233 006d BF050000 		.4byte	.LASF9
 1234 0071 0A       		.byte	0xa
 1235 0072 00       		.byte	0
 1236 0073 04       		.uleb128 0x4
 1237 0074 01       		.byte	0x1
 1238 0075 08       		.byte	0x8
 1239 0076 61020000 		.4byte	.LASF10
 1240 007a 05       		.uleb128 0x5
 1241 007b 14020000 		.4byte	.LASF15
 1242 007f 02       		.byte	0x2
 1243 0080 0F       		.byte	0xf
ARM GAS  G:\Users\Jaxb\AppData\Local\Temp\ccV5xqmv.s 			page 28


 1244 0081 25000000 		.4byte	0x25
 1245 0085 04       		.uleb128 0x4
 1246 0086 01       		.byte	0x1
 1247 0087 06       		.byte	0x6
 1248 0088 A6020000 		.4byte	.LASF11
 1249 008c 04       		.uleb128 0x4
 1250 008d 02       		.byte	0x2
 1251 008e 05       		.byte	0x5
 1252 008f 5D000000 		.4byte	.LASF12
 1253 0093 06       		.uleb128 0x6
 1254 0094 04       		.byte	0x4
 1255 0095 05       		.byte	0x5
 1256 0096 696E7400 		.ascii	"int\000"
 1257 009a 07       		.uleb128 0x7
 1258 009b 93000000 		.4byte	0x93
 1259 009f 04       		.uleb128 0x4
 1260 00a0 08       		.byte	0x8
 1261 00a1 05       		.byte	0x5
 1262 00a2 CF010000 		.4byte	.LASF13
 1263 00a6 04       		.uleb128 0x4
 1264 00a7 02       		.byte	0x2
 1265 00a8 07       		.byte	0x7
 1266 00a9 82030000 		.4byte	.LASF14
 1267 00ad 05       		.uleb128 0x5
 1268 00ae 9A000000 		.4byte	.LASF16
 1269 00b2 03       		.byte	0x3
 1270 00b3 0C       		.byte	0xc
 1271 00b4 B8000000 		.4byte	0xb8
 1272 00b8 04       		.uleb128 0x4
 1273 00b9 04       		.byte	0x4
 1274 00ba 07       		.byte	0x7
 1275 00bb C9020000 		.4byte	.LASF17
 1276 00bf 05       		.uleb128 0x5
 1277 00c0 F5050000 		.4byte	.LASF18
 1278 00c4 03       		.byte	0x3
 1279 00c5 0D       		.byte	0xd
 1280 00c6 CA000000 		.4byte	0xca
 1281 00ca 04       		.uleb128 0x4
 1282 00cb 08       		.byte	0x8
 1283 00cc 07       		.byte	0x7
 1284 00cd B2020000 		.4byte	.LASF19
 1285 00d1 08       		.uleb128 0x8
 1286 00d2 24000000 		.4byte	.LASF28
 1287 00d6 08       		.byte	0x8
 1288 00d7 04       		.byte	0x4
 1289 00d8 04       		.byte	0x4
 1290 00d9 FA000000 		.4byte	0xfa
 1291 00dd 09       		.uleb128 0x9
 1292 00de 0D060000 		.4byte	.LASF20
 1293 00e2 04       		.byte	0x4
 1294 00e3 05       		.byte	0x5
 1295 00e4 FA000000 		.4byte	0xfa
 1296 00e8 02       		.byte	0x2
 1297 00e9 23       		.byte	0x23
 1298 00ea 00       		.uleb128 0
 1299 00eb 09       		.uleb128 0x9
 1300 00ec D8050000 		.4byte	.LASF21
ARM GAS  G:\Users\Jaxb\AppData\Local\Temp\ccV5xqmv.s 			page 29


 1301 00f0 04       		.byte	0x4
 1302 00f1 05       		.byte	0x5
 1303 00f2 FA000000 		.4byte	0xfa
 1304 00f6 02       		.byte	0x2
 1305 00f7 23       		.byte	0x23
 1306 00f8 04       		.uleb128 0x4
 1307 00f9 00       		.byte	0
 1308 00fa 0A       		.uleb128 0xa
 1309 00fb 04       		.byte	0x4
 1310 00fc D1000000 		.4byte	0xd1
 1311 0100 05       		.uleb128 0x5
 1312 0101 95030000 		.4byte	.LASF22
 1313 0105 05       		.byte	0x5
 1314 0106 06       		.byte	0x6
 1315 0107 B8000000 		.4byte	0xb8
 1316 010b 07       		.uleb128 0x7
 1317 010c 00010000 		.4byte	0x100
 1318 0110 05       		.uleb128 0x5
 1319 0111 04040000 		.4byte	.LASF23
 1320 0115 05       		.byte	0x5
 1321 0116 07       		.byte	0x7
 1322 0117 0B010000 		.4byte	0x10b
 1323 011b 05       		.uleb128 0x5
 1324 011c DD050000 		.4byte	.LASF24
 1325 0120 05       		.byte	0x5
 1326 0121 08       		.byte	0x8
 1327 0122 00010000 		.4byte	0x100
 1328 0126 05       		.uleb128 0x5
 1329 0127 BB000000 		.4byte	.LASF25
 1330 012b 06       		.byte	0x6
 1331 012c 0A       		.byte	0xa
 1332 012d B8000000 		.4byte	0xb8
 1333 0131 05       		.uleb128 0x5
 1334 0132 00000000 		.4byte	.LASF26
 1335 0136 06       		.byte	0x6
 1336 0137 0C       		.byte	0xc
 1337 0138 B8000000 		.4byte	0xb8
 1338 013c 05       		.uleb128 0x5
 1339 013d D3040000 		.4byte	.LASF27
 1340 0141 06       		.byte	0x6
 1341 0142 0D       		.byte	0xd
 1342 0143 47010000 		.4byte	0x147
 1343 0147 0A       		.uleb128 0xa
 1344 0148 04       		.byte	0x4
 1345 0149 4D010000 		.4byte	0x14d
 1346 014d 0B       		.uleb128 0xb
 1347 014e 01       		.byte	0x1
 1348 014f 59010000 		.4byte	0x159
 1349 0153 0C       		.uleb128 0xc
 1350 0154 59010000 		.4byte	0x159
 1351 0158 00       		.byte	0
 1352 0159 0D       		.uleb128 0xd
 1353 015a 04       		.byte	0x4
 1354 015b 0E       		.uleb128 0xe
 1355 015c EC040000 		.4byte	.LASF48
 1356 0160 06       		.byte	0x6
 1357 0161 13       		.byte	0x13
ARM GAS  G:\Users\Jaxb\AppData\Local\Temp\ccV5xqmv.s 			page 30


 1358 0162 9A000000 		.4byte	0x9a
 1359 0166 01       		.byte	0x1
 1360 0167 01       		.byte	0x1
 1361 0168 08       		.uleb128 0x8
 1362 0169 77040000 		.4byte	.LASF29
 1363 016d 48       		.byte	0x48
 1364 016e 06       		.byte	0x6
 1365 016f 37       		.byte	0x37
 1366 0170 47020000 		.4byte	0x247
 1367 0174 09       		.uleb128 0x9
 1368 0175 F3020000 		.4byte	.LASF30
 1369 0179 06       		.byte	0x6
 1370 017a 38       		.byte	0x38
 1371 017b 47020000 		.4byte	0x247
 1372 017f 02       		.byte	0x2
 1373 0180 23       		.byte	0x23
 1374 0181 00       		.uleb128 0
 1375 0182 09       		.uleb128 0x9
 1376 0183 91040000 		.4byte	.LASF31
 1377 0187 06       		.byte	0x6
 1378 0188 39       		.byte	0x39
 1379 0189 B8000000 		.4byte	0xb8
 1380 018d 02       		.byte	0x2
 1381 018e 23       		.byte	0x23
 1382 018f 04       		.uleb128 0x4
 1383 0190 09       		.uleb128 0x9
 1384 0191 63010000 		.4byte	.LASF32
 1385 0195 06       		.byte	0x6
 1386 0196 3A       		.byte	0x3a
 1387 0197 47020000 		.4byte	0x247
 1388 019b 02       		.byte	0x2
 1389 019c 23       		.byte	0x23
 1390 019d 08       		.uleb128 0x8
 1391 019e 09       		.uleb128 0x9
 1392 019f F1010000 		.4byte	.LASF33
 1393 01a3 06       		.byte	0x6
 1394 01a4 3B       		.byte	0x3b
 1395 01a5 31010000 		.4byte	0x131
 1396 01a9 02       		.byte	0x2
 1397 01aa 23       		.byte	0x23
 1398 01ab 0C       		.uleb128 0xc
 1399 01ac 09       		.uleb128 0x9
 1400 01ad 36040000 		.4byte	.LASF34
 1401 01b1 06       		.byte	0x6
 1402 01b2 3C       		.byte	0x3c
 1403 01b3 7A000000 		.4byte	0x7a
 1404 01b7 02       		.byte	0x2
 1405 01b8 23       		.byte	0x23
 1406 01b9 10       		.uleb128 0x10
 1407 01ba 09       		.uleb128 0x9
 1408 01bb FC050000 		.4byte	.LASF35
 1409 01bf 06       		.byte	0x6
 1410 01c0 3D       		.byte	0x3d
 1411 01c1 31010000 		.4byte	0x131
 1412 01c5 02       		.byte	0x2
 1413 01c6 23       		.byte	0x23
 1414 01c7 14       		.uleb128 0x14
ARM GAS  G:\Users\Jaxb\AppData\Local\Temp\ccV5xqmv.s 			page 31


 1415 01c8 09       		.uleb128 0x9
 1416 01c9 22040000 		.4byte	.LASF36
 1417 01cd 06       		.byte	0x6
 1418 01ce 3E       		.byte	0x3e
 1419 01cf 93000000 		.4byte	0x93
 1420 01d3 02       		.byte	0x2
 1421 01d4 23       		.byte	0x23
 1422 01d5 18       		.uleb128 0x18
 1423 01d6 09       		.uleb128 0x9
 1424 01d7 F9020000 		.4byte	.LASF37
 1425 01db 06       		.byte	0x6
 1426 01dc 3F       		.byte	0x3f
 1427 01dd D1000000 		.4byte	0xd1
 1428 01e1 02       		.byte	0x2
 1429 01e2 23       		.byte	0x23
 1430 01e3 1C       		.uleb128 0x1c
 1431 01e4 09       		.uleb128 0x9
 1432 01e5 DF040000 		.4byte	.LASF38
 1433 01e9 06       		.byte	0x6
 1434 01ea 40       		.byte	0x40
 1435 01eb D1000000 		.4byte	0xd1
 1436 01ef 02       		.byte	0x2
 1437 01f0 23       		.byte	0x23
 1438 01f1 24       		.uleb128 0x24
 1439 01f2 09       		.uleb128 0x9
 1440 01f3 43020000 		.4byte	.LASF39
 1441 01f7 06       		.byte	0x6
 1442 01f8 41       		.byte	0x41
 1443 01f9 4D020000 		.4byte	0x24d
 1444 01fd 02       		.byte	0x2
 1445 01fe 23       		.byte	0x23
 1446 01ff 2C       		.uleb128 0x2c
 1447 0200 09       		.uleb128 0x9
 1448 0201 DD010000 		.4byte	.LASF40
 1449 0205 06       		.byte	0x6
 1450 0206 42       		.byte	0x42
 1451 0207 B8000000 		.4byte	0xb8
 1452 020b 02       		.byte	0x2
 1453 020c 23       		.byte	0x23
 1454 020d 30       		.uleb128 0x30
 1455 020e 09       		.uleb128 0x9
 1456 020f 41040000 		.4byte	.LASF41
 1457 0213 06       		.byte	0x6
 1458 0214 43       		.byte	0x43
 1459 0215 B8000000 		.4byte	0xb8
 1460 0219 02       		.byte	0x2
 1461 021a 23       		.byte	0x23
 1462 021b 34       		.uleb128 0x34
 1463 021c 09       		.uleb128 0x9
 1464 021d 9A020000 		.4byte	.LASF42
 1465 0221 06       		.byte	0x6
 1466 0222 44       		.byte	0x44
 1467 0223 AD000000 		.4byte	0xad
 1468 0227 02       		.byte	0x2
 1469 0228 23       		.byte	0x23
 1470 0229 38       		.uleb128 0x38
 1471 022a 09       		.uleb128 0x9
ARM GAS  G:\Users\Jaxb\AppData\Local\Temp\ccV5xqmv.s 			page 32


 1472 022b 6F020000 		.4byte	.LASF43
 1473 022f 06       		.byte	0x6
 1474 0230 45       		.byte	0x45
 1475 0231 65020000 		.4byte	0x265
 1476 0235 02       		.byte	0x2
 1477 0236 23       		.byte	0x23
 1478 0237 3C       		.uleb128 0x3c
 1479 0238 09       		.uleb128 0x9
 1480 0239 E4050000 		.4byte	.LASF44
 1481 023d 06       		.byte	0x6
 1482 023e 46       		.byte	0x46
 1483 023f BF000000 		.4byte	0xbf
 1484 0243 02       		.byte	0x2
 1485 0244 23       		.byte	0x23
 1486 0245 40       		.uleb128 0x40
 1487 0246 00       		.byte	0
 1488 0247 0A       		.uleb128 0xa
 1489 0248 04       		.byte	0x4
 1490 0249 26010000 		.4byte	0x126
 1491 024d 0A       		.uleb128 0xa
 1492 024e 04       		.byte	0x4
 1493 024f 53020000 		.4byte	0x253
 1494 0253 04       		.uleb128 0x4
 1495 0254 01       		.byte	0x1
 1496 0255 08       		.byte	0x8
 1497 0256 54030000 		.4byte	.LASF45
 1498 025a 0F       		.uleb128 0xf
 1499 025b 53020000 		.4byte	0x253
 1500 025f 10       		.uleb128 0x10
 1501 0260 12030000 		.4byte	.LASF82
 1502 0264 01       		.byte	0x1
 1503 0265 0A       		.uleb128 0xa
 1504 0266 04       		.byte	0x4
 1505 0267 5F020000 		.4byte	0x25f
 1506 026b 11       		.uleb128 0x11
 1507 026c 54434200 		.ascii	"TCB\000"
 1508 0270 06       		.byte	0x6
 1509 0271 47       		.byte	0x47
 1510 0272 68010000 		.4byte	0x168
 1511 0276 07       		.uleb128 0x7
 1512 0277 6B020000 		.4byte	0x26b
 1513 027b 08       		.uleb128 0x8
 1514 027c 04010000 		.4byte	.LASF46
 1515 0280 08       		.byte	0x8
 1516 0281 07       		.byte	0x7
 1517 0282 08       		.byte	0x8
 1518 0283 A4020000 		.4byte	0x2a4
 1519 0287 09       		.uleb128 0x9
 1520 0288 FE010000 		.4byte	.LASF47
 1521 028c 07       		.byte	0x7
 1522 028d 0A       		.byte	0xa
 1523 028e 59010000 		.4byte	0x159
 1524 0292 02       		.byte	0x2
 1525 0293 23       		.byte	0x23
 1526 0294 00       		.uleb128 0
 1527 0295 09       		.uleb128 0x9
 1528 0296 43020000 		.4byte	.LASF39
ARM GAS  G:\Users\Jaxb\AppData\Local\Temp\ccV5xqmv.s 			page 33


 1529 029a 07       		.byte	0x7
 1530 029b 0B       		.byte	0xb
 1531 029c A9020000 		.4byte	0x2a9
 1532 02a0 02       		.byte	0x2
 1533 02a1 23       		.byte	0x23
 1534 02a2 04       		.uleb128 0x4
 1535 02a3 00       		.byte	0
 1536 02a4 0F       		.uleb128 0xf
 1537 02a5 7B020000 		.4byte	0x27b
 1538 02a9 0A       		.uleb128 0xa
 1539 02aa 04       		.byte	0x4
 1540 02ab 5A020000 		.4byte	0x25a
 1541 02af 0E       		.uleb128 0xe
 1542 02b0 01060000 		.4byte	.LASF49
 1543 02b4 01       		.byte	0x1
 1544 02b5 0E       		.byte	0xe
 1545 02b6 BC020000 		.4byte	0x2bc
 1546 02ba 01       		.byte	0x1
 1547 02bb 01       		.byte	0x1
 1548 02bc 0A       		.uleb128 0xa
 1549 02bd 04       		.byte	0x4
 1550 02be 76020000 		.4byte	0x276
 1551 02c2 0E       		.uleb128 0xe
 1552 02c3 E1030000 		.4byte	.LASF50
 1553 02c7 01       		.byte	0x1
 1554 02c8 0F       		.byte	0xf
 1555 02c9 BC020000 		.4byte	0x2bc
 1556 02cd 01       		.byte	0x1
 1557 02ce 01       		.byte	0x1
 1558 02cf 0E       		.uleb128 0xe
 1559 02d0 D6020000 		.4byte	.LASF51
 1560 02d4 01       		.byte	0x1
 1561 02d5 11       		.byte	0x11
 1562 02d6 BF000000 		.4byte	0xbf
 1563 02da 01       		.byte	0x1
 1564 02db 01       		.byte	0x1
 1565 02dc 12       		.uleb128 0x12
 1566 02dd 4D000000 		.4byte	.LASF52
 1567 02e1 01       		.byte	0x1
 1568 02e2 17       		.byte	0x17
 1569 02e3 9A000000 		.4byte	0x9a
 1570 02e7 01       		.byte	0x1
 1571 02e8 05       		.byte	0x5
 1572 02e9 03       		.byte	0x3
 1573 02ea 00000000 		.4byte	g_schedule_lock
 1574 02ee 13       		.uleb128 0x13
 1575 02ef 5A020000 		.4byte	0x25a
 1576 02f3 FE020000 		.4byte	0x2fe
 1577 02f7 14       		.uleb128 0x14
 1578 02f8 B8000000 		.4byte	0xb8
 1579 02fc 08       		.byte	0x8
 1580 02fd 00       		.byte	0
 1581 02fe 0F       		.uleb128 0xf
 1582 02ff EE020000 		.4byte	0x2ee
 1583 0303 12       		.uleb128 0x12
 1584 0304 4C010000 		.4byte	.LASF53
 1585 0308 01       		.byte	0x1
ARM GAS  G:\Users\Jaxb\AppData\Local\Temp\ccV5xqmv.s 			page 34


 1586 0309 2E       		.byte	0x2e
 1587 030a FE020000 		.4byte	0x2fe
 1588 030e 01       		.byte	0x1
 1589 030f 05       		.byte	0x5
 1590 0310 03       		.byte	0x3
 1591 0311 00000000 		.4byte	__rtmsym_schedule_name
 1592 0315 12       		.uleb128 0x12
 1593 0316 67000000 		.4byte	.LASF54
 1594 031a 01       		.byte	0x1
 1595 031b 2E       		.byte	0x2e
 1596 031c A4020000 		.4byte	0x2a4
 1597 0320 01       		.byte	0x1
 1598 0321 05       		.byte	0x5
 1599 0322 03       		.byte	0x3
 1600 0323 00000000 		.4byte	__rtmsym_schedule
 1601 0327 13       		.uleb128 0x13
 1602 0328 5A020000 		.4byte	0x25a
 1603 032c 37030000 		.4byte	0x337
 1604 0330 14       		.uleb128 0x14
 1605 0331 B8000000 		.4byte	0xb8
 1606 0335 09       		.byte	0x9
 1607 0336 00       		.byte	0
 1608 0337 0F       		.uleb128 0xf
 1609 0338 27030000 		.4byte	0x327
 1610 033c 12       		.uleb128 0x12
 1611 033d 1F020000 		.4byte	.LASF55
 1612 0341 01       		.byte	0x1
 1613 0342 56       		.byte	0x56
 1614 0343 37030000 		.4byte	0x337
 1615 0347 01       		.byte	0x1
 1616 0348 05       		.byte	0x5
 1617 0349 03       		.byte	0x3
 1618 034a 00000000 		.4byte	__rtmsym_sys_delay_name
 1619 034e 12       		.uleb128 0x12
 1620 034f F1030000 		.4byte	.LASF56
 1621 0353 01       		.byte	0x1
 1622 0354 56       		.byte	0x56
 1623 0355 A4020000 		.4byte	0x2a4
 1624 0359 01       		.byte	0x1
 1625 035a 05       		.byte	0x5
 1626 035b 03       		.byte	0x3
 1627 035c 00000000 		.4byte	__rtmsym_sys_delay
 1628 0360 13       		.uleb128 0x13
 1629 0361 5A020000 		.4byte	0x25a
 1630 0365 70030000 		.4byte	0x370
 1631 0369 14       		.uleb128 0x14
 1632 036a B8000000 		.4byte	0xb8
 1633 036e 0B       		.byte	0xb
 1634 036f 00       		.byte	0
 1635 0370 0F       		.uleb128 0xf
 1636 0371 60030000 		.4byte	0x360
 1637 0375 12       		.uleb128 0x12
 1638 0376 A1000000 		.4byte	.LASF57
 1639 037a 01       		.byte	0x1
 1640 037b 7B       		.byte	0x7b
 1641 037c 70030000 		.4byte	0x370
 1642 0380 01       		.byte	0x1
ARM GAS  G:\Users\Jaxb\AppData\Local\Temp\ccV5xqmv.s 			page 35


 1643 0381 05       		.byte	0x5
 1644 0382 03       		.byte	0x3
 1645 0383 00000000 		.4byte	__rtmsym_sys_suspend_name
 1646 0387 12       		.uleb128 0x12
 1647 0388 A0030000 		.4byte	.LASF58
 1648 038c 01       		.byte	0x1
 1649 038d 7B       		.byte	0x7b
 1650 038e A4020000 		.4byte	0x2a4
 1651 0392 01       		.byte	0x1
 1652 0393 05       		.byte	0x5
 1653 0394 03       		.byte	0x3
 1654 0395 00000000 		.4byte	__rtmsym_sys_suspend
 1655 0399 13       		.uleb128 0x13
 1656 039a 5A020000 		.4byte	0x25a
 1657 039e A9030000 		.4byte	0x3a9
 1658 03a2 14       		.uleb128 0x14
 1659 03a3 B8000000 		.4byte	0xb8
 1660 03a7 10       		.byte	0x10
 1661 03a8 00       		.byte	0
 1662 03a9 0F       		.uleb128 0xf
 1663 03aa 99030000 		.4byte	0x399
 1664 03ae 12       		.uleb128 0x12
 1665 03af 2E000000 		.4byte	.LASF59
 1666 03b3 01       		.byte	0x1
 1667 03b4 BA       		.byte	0xba
 1668 03b5 A9030000 		.4byte	0x3a9
 1669 03b9 01       		.byte	0x1
 1670 03ba 05       		.byte	0x5
 1671 03bb 03       		.byte	0x3
 1672 03bc 00000000 		.4byte	__rtmsym_task_creat_ready_name
 1673 03c0 12       		.uleb128 0x12
 1674 03c1 C7030000 		.4byte	.LASF60
 1675 03c5 01       		.byte	0x1
 1676 03c6 BA       		.byte	0xba
 1677 03c7 A4020000 		.4byte	0x2a4
 1678 03cb 01       		.byte	0x1
 1679 03cc 05       		.byte	0x5
 1680 03cd 03       		.byte	0x3
 1681 03ce 00000000 		.4byte	__rtmsym_task_creat_ready
 1682 03d2 13       		.uleb128 0x13
 1683 03d3 5A020000 		.4byte	0x25a
 1684 03d7 E2030000 		.4byte	0x3e2
 1685 03db 14       		.uleb128 0x14
 1686 03dc B8000000 		.4byte	0xb8
 1687 03e0 0F       		.byte	0xf
 1688 03e1 00       		.byte	0
 1689 03e2 0F       		.uleb128 0xf
 1690 03e3 D2030000 		.4byte	0x3d2
 1691 03e7 12       		.uleb128 0x12
 1692 03e8 9C040000 		.4byte	.LASF61
 1693 03ec 01       		.byte	0x1
 1694 03ed F6       		.byte	0xf6
 1695 03ee E2030000 		.4byte	0x3e2
 1696 03f2 01       		.byte	0x1
 1697 03f3 05       		.byte	0x5
 1698 03f4 03       		.byte	0x3
 1699 03f5 00000000 		.4byte	__rtmsym_task_init_ready_name
ARM GAS  G:\Users\Jaxb\AppData\Local\Temp\ccV5xqmv.s 			page 36


 1700 03f9 12       		.uleb128 0x12
 1701 03fa 48020000 		.4byte	.LASF62
 1702 03fe 01       		.byte	0x1
 1703 03ff F6       		.byte	0xf6
 1704 0400 A4020000 		.4byte	0x2a4
 1705 0404 01       		.byte	0x1
 1706 0405 05       		.byte	0x5
 1707 0406 03       		.byte	0x3
 1708 0407 00000000 		.4byte	__rtmsym_task_init_ready
 1709 040b 15       		.uleb128 0x15
 1710 040c 01       		.byte	0x1
 1711 040d 0E040000 		.4byte	.LASF83
 1712 0411 01       		.byte	0x1
 1713 0412 0801     		.2byte	0x108
 1714 0414 01       		.byte	0x1
 1715 0415 93000000 		.4byte	0x93
 1716 0419 70040000 		.4byte	.LFB32
 1717 041d 90040000 		.4byte	.LFE32
 1718 0421 00000000 		.4byte	.LLST12
 1719 0425 01       		.byte	0x1
 1720 0426 16       		.uleb128 0x16
 1721 0427 01       		.byte	0x1
 1722 0428 AB050000 		.4byte	.LASF63
 1723 042c 01       		.byte	0x1
 1724 042d 0001     		.2byte	0x100
 1725 042f 01       		.byte	0x1
 1726 0430 44040000 		.4byte	.LFB31
 1727 0434 70040000 		.4byte	.LFE31
 1728 0438 44000000 		.4byte	.LLST11
 1729 043c 01       		.byte	0x1
 1730 043d 51040000 		.4byte	0x451
 1731 0441 17       		.uleb128 0x17
 1732 0442 FE040000 		.4byte	.LASF65
 1733 0446 01       		.byte	0x1
 1734 0447 0201     		.2byte	0x102
 1735 0449 1B010000 		.4byte	0x11b
 1736 044d 02       		.byte	0x2
 1737 044e 91       		.byte	0x91
 1738 044f 74       		.sleb128 -12
 1739 0450 00       		.byte	0
 1740 0451 18       		.uleb128 0x18
 1741 0452 01       		.byte	0x1
 1742 0453 B5030000 		.4byte	.LASF64
 1743 0457 01       		.byte	0x1
 1744 0458 F8       		.byte	0xf8
 1745 0459 01       		.byte	0x1
 1746 045a 18040000 		.4byte	.LFB30
 1747 045e 44040000 		.4byte	.LFE30
 1748 0462 94000000 		.4byte	.LLST10
 1749 0466 01       		.byte	0x1
 1750 0467 7A040000 		.4byte	0x47a
 1751 046b 19       		.uleb128 0x19
 1752 046c FE040000 		.4byte	.LASF65
 1753 0470 01       		.byte	0x1
 1754 0471 FA       		.byte	0xfa
 1755 0472 1B010000 		.4byte	0x11b
 1756 0476 02       		.byte	0x2
ARM GAS  G:\Users\Jaxb\AppData\Local\Temp\ccV5xqmv.s 			page 37


 1757 0477 91       		.byte	0x91
 1758 0478 74       		.sleb128 -12
 1759 0479 00       		.byte	0
 1760 047a 1A       		.uleb128 0x1a
 1761 047b 01       		.byte	0x1
 1762 047c 12060000 		.4byte	.LASF69
 1763 0480 01       		.byte	0x1
 1764 0481 D8       		.byte	0xd8
 1765 0482 01       		.byte	0x1
 1766 0483 93000000 		.4byte	0x93
 1767 0487 B2030000 		.4byte	.LFB29
 1768 048b 18040000 		.4byte	.LFE29
 1769 048f E4000000 		.4byte	.LLST9
 1770 0493 01       		.byte	0x1
 1771 0494 FB040000 		.4byte	0x4fb
 1772 0498 1B       		.uleb128 0x1b
 1773 0499 BA040000 		.4byte	.LASF66
 1774 049d 01       		.byte	0x1
 1775 049e D9       		.byte	0xd9
 1776 049f FB040000 		.4byte	0x4fb
 1777 04a3 02       		.byte	0x2
 1778 04a4 91       		.byte	0x91
 1779 04a5 74       		.sleb128 -12
 1780 04a6 1B       		.uleb128 0x1b
 1781 04a7 91040000 		.4byte	.LASF31
 1782 04ab 01       		.byte	0x1
 1783 04ac DA       		.byte	0xda
 1784 04ad B8000000 		.4byte	0xb8
 1785 04b1 02       		.byte	0x2
 1786 04b2 91       		.byte	0x91
 1787 04b3 70       		.sleb128 -16
 1788 04b4 1B       		.uleb128 0x1b
 1789 04b5 FC050000 		.4byte	.LASF35
 1790 04b9 01       		.byte	0x1
 1791 04ba DB       		.byte	0xdb
 1792 04bb 31010000 		.4byte	0x131
 1793 04bf 02       		.byte	0x2
 1794 04c0 91       		.byte	0x91
 1795 04c1 6C       		.sleb128 -20
 1796 04c2 1B       		.uleb128 0x1b
 1797 04c3 DD010000 		.4byte	.LASF40
 1798 04c7 01       		.byte	0x1
 1799 04c8 DC       		.byte	0xdc
 1800 04c9 B8000000 		.4byte	0xb8
 1801 04cd 02       		.byte	0x2
 1802 04ce 91       		.byte	0x91
 1803 04cf 68       		.sleb128 -24
 1804 04d0 1B       		.uleb128 0x1b
 1805 04d1 43020000 		.4byte	.LASF39
 1806 04d5 01       		.byte	0x1
 1807 04d6 DD       		.byte	0xdd
 1808 04d7 A9020000 		.4byte	0x2a9
 1809 04db 02       		.byte	0x2
 1810 04dc 91       		.byte	0x91
 1811 04dd 00       		.sleb128 0
 1812 04de 1B       		.uleb128 0x1b
 1813 04df 59030000 		.4byte	.LASF67
ARM GAS  G:\Users\Jaxb\AppData\Local\Temp\ccV5xqmv.s 			page 38


 1814 04e3 01       		.byte	0x1
 1815 04e4 DE       		.byte	0xde
 1816 04e5 3C010000 		.4byte	0x13c
 1817 04e9 02       		.byte	0x2
 1818 04ea 91       		.byte	0x91
 1819 04eb 04       		.sleb128 4
 1820 04ec 1B       		.uleb128 0x1b
 1821 04ed 5B040000 		.4byte	.LASF68
 1822 04f1 01       		.byte	0x1
 1823 04f2 DF       		.byte	0xdf
 1824 04f3 59010000 		.4byte	0x159
 1825 04f7 02       		.byte	0x2
 1826 04f8 91       		.byte	0x91
 1827 04f9 08       		.sleb128 8
 1828 04fa 00       		.byte	0
 1829 04fb 0A       		.uleb128 0xa
 1830 04fc 04       		.byte	0x4
 1831 04fd 6B020000 		.4byte	0x26b
 1832 0501 1A       		.uleb128 0x1a
 1833 0502 01       		.byte	0x1
 1834 0503 C2040000 		.4byte	.LASF70
 1835 0507 01       		.byte	0x1
 1836 0508 BC       		.byte	0xbc
 1837 0509 01       		.byte	0x1
 1838 050a 93000000 		.4byte	0x93
 1839 050e 40030000 		.4byte	.LFB28
 1840 0512 B2030000 		.4byte	.LFE28
 1841 0516 34010000 		.4byte	.LLST8
 1842 051a 01       		.byte	0x1
 1843 051b 9E050000 		.4byte	0x59e
 1844 051f 1B       		.uleb128 0x1b
 1845 0520 BA040000 		.4byte	.LASF66
 1846 0524 01       		.byte	0x1
 1847 0525 BD       		.byte	0xbd
 1848 0526 FB040000 		.4byte	0x4fb
 1849 052a 02       		.byte	0x2
 1850 052b 91       		.byte	0x91
 1851 052c 6C       		.sleb128 -20
 1852 052d 1B       		.uleb128 0x1b
 1853 052e 91040000 		.4byte	.LASF31
 1854 0532 01       		.byte	0x1
 1855 0533 BE       		.byte	0xbe
 1856 0534 B8000000 		.4byte	0xb8
 1857 0538 02       		.byte	0x2
 1858 0539 91       		.byte	0x91
 1859 053a 68       		.sleb128 -24
 1860 053b 1B       		.uleb128 0x1b
 1861 053c FC050000 		.4byte	.LASF35
 1862 0540 01       		.byte	0x1
 1863 0541 BF       		.byte	0xbf
 1864 0542 31010000 		.4byte	0x131
 1865 0546 02       		.byte	0x2
 1866 0547 91       		.byte	0x91
 1867 0548 64       		.sleb128 -28
 1868 0549 1B       		.uleb128 0x1b
 1869 054a DD010000 		.4byte	.LASF40
 1870 054e 01       		.byte	0x1
ARM GAS  G:\Users\Jaxb\AppData\Local\Temp\ccV5xqmv.s 			page 39


 1871 054f C0       		.byte	0xc0
 1872 0550 B8000000 		.4byte	0xb8
 1873 0554 02       		.byte	0x2
 1874 0555 91       		.byte	0x91
 1875 0556 60       		.sleb128 -32
 1876 0557 1B       		.uleb128 0x1b
 1877 0558 43020000 		.4byte	.LASF39
 1878 055c 01       		.byte	0x1
 1879 055d C1       		.byte	0xc1
 1880 055e A9020000 		.4byte	0x2a9
 1881 0562 02       		.byte	0x2
 1882 0563 91       		.byte	0x91
 1883 0564 00       		.sleb128 0
 1884 0565 1B       		.uleb128 0x1b
 1885 0566 59030000 		.4byte	.LASF67
 1886 056a 01       		.byte	0x1
 1887 056b C2       		.byte	0xc2
 1888 056c 3C010000 		.4byte	0x13c
 1889 0570 02       		.byte	0x2
 1890 0571 91       		.byte	0x91
 1891 0572 04       		.sleb128 4
 1892 0573 1B       		.uleb128 0x1b
 1893 0574 5B040000 		.4byte	.LASF68
 1894 0578 01       		.byte	0x1
 1895 0579 C3       		.byte	0xc3
 1896 057a 59010000 		.4byte	0x159
 1897 057e 02       		.byte	0x2
 1898 057f 91       		.byte	0x91
 1899 0580 08       		.sleb128 8
 1900 0581 19       		.uleb128 0x19
 1901 0582 FE040000 		.4byte	.LASF65
 1902 0586 01       		.byte	0x1
 1903 0587 C5       		.byte	0xc5
 1904 0588 1B010000 		.4byte	0x11b
 1905 058c 02       		.byte	0x2
 1906 058d 91       		.byte	0x91
 1907 058e 74       		.sleb128 -12
 1908 058f 1C       		.uleb128 0x1c
 1909 0590 72657400 		.ascii	"ret\000"
 1910 0594 01       		.byte	0x1
 1911 0595 C7       		.byte	0xc7
 1912 0596 93000000 		.4byte	0x93
 1913 059a 02       		.byte	0x2
 1914 059b 91       		.byte	0x91
 1915 059c 70       		.sleb128 -16
 1916 059d 00       		.byte	0
 1917 059e 1A       		.uleb128 0x1a
 1918 059f 01       		.byte	0x1
 1919 05a0 03020000 		.4byte	.LASF71
 1920 05a4 01       		.byte	0x1
 1921 05a5 9C       		.byte	0x9c
 1922 05a6 01       		.byte	0x1
 1923 05a7 93000000 		.4byte	0x93
 1924 05ab E0020000 		.4byte	.LFB27
 1925 05af 40030000 		.4byte	.LFE27
 1926 05b3 84010000 		.4byte	.LLST7
 1927 05b7 01       		.byte	0x1
ARM GAS  G:\Users\Jaxb\AppData\Local\Temp\ccV5xqmv.s 			page 40


 1928 05b8 1F060000 		.4byte	0x61f
 1929 05bc 1B       		.uleb128 0x1b
 1930 05bd 91040000 		.4byte	.LASF31
 1931 05c1 01       		.byte	0x1
 1932 05c2 9D       		.byte	0x9d
 1933 05c3 B8000000 		.4byte	0xb8
 1934 05c7 02       		.byte	0x2
 1935 05c8 91       		.byte	0x91
 1936 05c9 74       		.sleb128 -12
 1937 05ca 1B       		.uleb128 0x1b
 1938 05cb FC050000 		.4byte	.LASF35
 1939 05cf 01       		.byte	0x1
 1940 05d0 9E       		.byte	0x9e
 1941 05d1 31010000 		.4byte	0x131
 1942 05d5 02       		.byte	0x2
 1943 05d6 91       		.byte	0x91
 1944 05d7 70       		.sleb128 -16
 1945 05d8 1B       		.uleb128 0x1b
 1946 05d9 DD010000 		.4byte	.LASF40
 1947 05dd 01       		.byte	0x1
 1948 05de 9F       		.byte	0x9f
 1949 05df B8000000 		.4byte	0xb8
 1950 05e3 02       		.byte	0x2
 1951 05e4 91       		.byte	0x91
 1952 05e5 6C       		.sleb128 -20
 1953 05e6 1B       		.uleb128 0x1b
 1954 05e7 43020000 		.4byte	.LASF39
 1955 05eb 01       		.byte	0x1
 1956 05ec A0       		.byte	0xa0
 1957 05ed A9020000 		.4byte	0x2a9
 1958 05f1 02       		.byte	0x2
 1959 05f2 91       		.byte	0x91
 1960 05f3 68       		.sleb128 -24
 1961 05f4 1B       		.uleb128 0x1b
 1962 05f5 59030000 		.4byte	.LASF67
 1963 05f9 01       		.byte	0x1
 1964 05fa A1       		.byte	0xa1
 1965 05fb 3C010000 		.4byte	0x13c
 1966 05ff 02       		.byte	0x2
 1967 0600 91       		.byte	0x91
 1968 0601 00       		.sleb128 0
 1969 0602 1B       		.uleb128 0x1b
 1970 0603 5B040000 		.4byte	.LASF68
 1971 0607 01       		.byte	0x1
 1972 0608 A2       		.byte	0xa2
 1973 0609 59010000 		.4byte	0x159
 1974 060d 02       		.byte	0x2
 1975 060e 91       		.byte	0x91
 1976 060f 04       		.sleb128 4
 1977 0610 1D       		.uleb128 0x1d
 1978 0611 70747200 		.ascii	"ptr\000"
 1979 0615 01       		.byte	0x1
 1980 0616 A3       		.byte	0xa3
 1981 0617 1F060000 		.4byte	0x61f
 1982 061b 02       		.byte	0x2
 1983 061c 91       		.byte	0x91
 1984 061d 08       		.sleb128 8
ARM GAS  G:\Users\Jaxb\AppData\Local\Temp\ccV5xqmv.s 			page 41


 1985 061e 00       		.byte	0
 1986 061f 0A       		.uleb128 0xa
 1987 0620 04       		.byte	0x4
 1988 0621 FB040000 		.4byte	0x4fb
 1989 0625 1E       		.uleb128 0x1e
 1990 0626 42030000 		.4byte	.LASF84
 1991 062a 01       		.byte	0x1
 1992 062b 7D       		.byte	0x7d
 1993 062c 01       		.byte	0x1
 1994 062d 93000000 		.4byte	0x93
 1995 0631 70020000 		.4byte	.LFB26
 1996 0635 E0020000 		.4byte	.LFE26
 1997 0639 D4010000 		.4byte	.LLST6
 1998 063d 01       		.byte	0x1
 1999 063e CF060000 		.4byte	0x6cf
 2000 0642 1B       		.uleb128 0x1b
 2001 0643 91040000 		.4byte	.LASF31
 2002 0647 01       		.byte	0x1
 2003 0648 7E       		.byte	0x7e
 2004 0649 B8000000 		.4byte	0xb8
 2005 064d 02       		.byte	0x2
 2006 064e 91       		.byte	0x91
 2007 064f 64       		.sleb128 -28
 2008 0650 1B       		.uleb128 0x1b
 2009 0651 FC050000 		.4byte	.LASF35
 2010 0655 01       		.byte	0x1
 2011 0656 7F       		.byte	0x7f
 2012 0657 31010000 		.4byte	0x131
 2013 065b 02       		.byte	0x2
 2014 065c 91       		.byte	0x91
 2015 065d 60       		.sleb128 -32
 2016 065e 1B       		.uleb128 0x1b
 2017 065f DD010000 		.4byte	.LASF40
 2018 0663 01       		.byte	0x1
 2019 0664 80       		.byte	0x80
 2020 0665 B8000000 		.4byte	0xb8
 2021 0669 02       		.byte	0x2
 2022 066a 91       		.byte	0x91
 2023 066b 5C       		.sleb128 -36
 2024 066c 1B       		.uleb128 0x1b
 2025 066d 43020000 		.4byte	.LASF39
 2026 0671 01       		.byte	0x1
 2027 0672 81       		.byte	0x81
 2028 0673 A9020000 		.4byte	0x2a9
 2029 0677 02       		.byte	0x2
 2030 0678 91       		.byte	0x91
 2031 0679 58       		.sleb128 -40
 2032 067a 1B       		.uleb128 0x1b
 2033 067b 59030000 		.4byte	.LASF67
 2034 067f 01       		.byte	0x1
 2035 0680 82       		.byte	0x82
 2036 0681 3C010000 		.4byte	0x13c
 2037 0685 02       		.byte	0x2
 2038 0686 91       		.byte	0x91
 2039 0687 00       		.sleb128 0
 2040 0688 1B       		.uleb128 0x1b
 2041 0689 5B040000 		.4byte	.LASF68
ARM GAS  G:\Users\Jaxb\AppData\Local\Temp\ccV5xqmv.s 			page 42


 2042 068d 01       		.byte	0x1
 2043 068e 83       		.byte	0x83
 2044 068f 59010000 		.4byte	0x159
 2045 0693 02       		.byte	0x2
 2046 0694 91       		.byte	0x91
 2047 0695 04       		.sleb128 4
 2048 0696 1D       		.uleb128 0x1d
 2049 0697 70747200 		.ascii	"ptr\000"
 2050 069b 01       		.byte	0x1
 2051 069c 84       		.byte	0x84
 2052 069d 1F060000 		.4byte	0x61f
 2053 06a1 02       		.byte	0x2
 2054 06a2 91       		.byte	0x91
 2055 06a3 08       		.sleb128 8
 2056 06a4 1C       		.uleb128 0x1c
 2057 06a5 72657400 		.ascii	"ret\000"
 2058 06a9 01       		.byte	0x1
 2059 06aa 86       		.byte	0x86
 2060 06ab 93000000 		.4byte	0x93
 2061 06af 02       		.byte	0x2
 2062 06b0 91       		.byte	0x91
 2063 06b1 6C       		.sleb128 -20
 2064 06b2 19       		.uleb128 0x19
 2065 06b3 FE040000 		.4byte	.LASF65
 2066 06b7 01       		.byte	0x1
 2067 06b8 87       		.byte	0x87
 2068 06b9 1B010000 		.4byte	0x11b
 2069 06bd 02       		.byte	0x2
 2070 06be 91       		.byte	0x91
 2071 06bf 74       		.sleb128 -12
 2072 06c0 19       		.uleb128 0x19
 2073 06c1 BA040000 		.4byte	.LASF66
 2074 06c5 01       		.byte	0x1
 2075 06c6 89       		.byte	0x89
 2076 06c7 FB040000 		.4byte	0x4fb
 2077 06cb 02       		.byte	0x2
 2078 06cc 91       		.byte	0x91
 2079 06cd 70       		.sleb128 -16
 2080 06ce 00       		.byte	0
 2081 06cf 1A       		.uleb128 0x1a
 2082 06d0 01       		.byte	0x1
 2083 06d1 37020000 		.4byte	.LASF72
 2084 06d5 01       		.byte	0x1
 2085 06d6 69       		.byte	0x69
 2086 06d7 01       		.byte	0x1
 2087 06d8 93000000 		.4byte	0x93
 2088 06dc FC010000 		.4byte	.LFB25
 2089 06e0 70020000 		.4byte	.LFE25
 2090 06e4 24020000 		.4byte	.LLST5
 2091 06e8 01       		.byte	0x1
 2092 06e9 FC060000 		.4byte	0x6fc
 2093 06ed 1B       		.uleb128 0x1b
 2094 06ee 55040000 		.4byte	.LASF73
 2095 06f2 01       		.byte	0x1
 2096 06f3 69       		.byte	0x69
 2097 06f4 7A000000 		.4byte	0x7a
 2098 06f8 02       		.byte	0x2
ARM GAS  G:\Users\Jaxb\AppData\Local\Temp\ccV5xqmv.s 			page 43


 2099 06f9 91       		.byte	0x91
 2100 06fa 77       		.sleb128 -9
 2101 06fb 00       		.byte	0
 2102 06fc 1A       		.uleb128 0x1a
 2103 06fd 01       		.byte	0x1
 2104 06fe 94010000 		.4byte	.LASF74
 2105 0702 01       		.byte	0x1
 2106 0703 58       		.byte	0x58
 2107 0704 01       		.byte	0x1
 2108 0705 93000000 		.4byte	0x93
 2109 0709 9C010000 		.4byte	.LFB24
 2110 070d FC010000 		.4byte	.LFE24
 2111 0711 74020000 		.4byte	.LLST4
 2112 0715 01       		.byte	0x1
 2113 0716 37070000 		.4byte	0x737
 2114 071a 1B       		.uleb128 0x1b
 2115 071b 55040000 		.4byte	.LASF73
 2116 071f 01       		.byte	0x1
 2117 0720 58       		.byte	0x58
 2118 0721 7A000000 		.4byte	0x7a
 2119 0725 02       		.byte	0x2
 2120 0726 91       		.byte	0x91
 2121 0727 6F       		.sleb128 -17
 2122 0728 19       		.uleb128 0x19
 2123 0729 FE040000 		.4byte	.LASF65
 2124 072d 01       		.byte	0x1
 2125 072e 5A       		.byte	0x5a
 2126 072f 1B010000 		.4byte	0x11b
 2127 0733 02       		.byte	0x2
 2128 0734 91       		.byte	0x91
 2129 0735 74       		.sleb128 -12
 2130 0736 00       		.byte	0
 2131 0737 1A       		.uleb128 0x1a
 2132 0738 01       		.byte	0x1
 2133 0739 F1000000 		.4byte	.LASF75
 2134 073d 01       		.byte	0x1
 2135 073e 42       		.byte	0x42
 2136 073f 01       		.byte	0x1
 2137 0740 93000000 		.4byte	0x93
 2138 0744 0C010000 		.4byte	.LFB23
 2139 0748 9C010000 		.4byte	.LFE23
 2140 074c C4020000 		.4byte	.LLST3
 2141 0750 01       		.byte	0x1
 2142 0751 72070000 		.4byte	0x772
 2143 0755 1B       		.uleb128 0x1b
 2144 0756 84010000 		.4byte	.LASF76
 2145 075a 01       		.byte	0x1
 2146 075b 42       		.byte	0x42
 2147 075c B8000000 		.4byte	0xb8
 2148 0760 02       		.byte	0x2
 2149 0761 91       		.byte	0x91
 2150 0762 74       		.sleb128 -12
 2151 0763 1B       		.uleb128 0x1b
 2152 0764 55040000 		.4byte	.LASF73
 2153 0768 01       		.byte	0x1
 2154 0769 42       		.byte	0x42
 2155 076a 7A000000 		.4byte	0x7a
ARM GAS  G:\Users\Jaxb\AppData\Local\Temp\ccV5xqmv.s 			page 44


 2156 076e 02       		.byte	0x2
 2157 076f 91       		.byte	0x91
 2158 0770 73       		.sleb128 -13
 2159 0771 00       		.byte	0
 2160 0772 1A       		.uleb128 0x1a
 2161 0773 01       		.byte	0x1
 2162 0774 E8020000 		.4byte	.LASF77
 2163 0778 01       		.byte	0x1
 2164 0779 30       		.byte	0x30
 2165 077a 01       		.byte	0x1
 2166 077b 93000000 		.4byte	0x93
 2167 077f 6C000000 		.4byte	.LFB22
 2168 0783 0C010000 		.4byte	.LFE22
 2169 0787 14030000 		.4byte	.LLST2
 2170 078b 01       		.byte	0x1
 2171 078c BB070000 		.4byte	0x7bb
 2172 0790 1B       		.uleb128 0x1b
 2173 0791 84010000 		.4byte	.LASF76
 2174 0795 01       		.byte	0x1
 2175 0796 30       		.byte	0x30
 2176 0797 B8000000 		.4byte	0xb8
 2177 079b 02       		.byte	0x2
 2178 079c 91       		.byte	0x91
 2179 079d 64       		.sleb128 -28
 2180 079e 1B       		.uleb128 0x1b
 2181 079f 55040000 		.4byte	.LASF73
 2182 07a3 01       		.byte	0x1
 2183 07a4 30       		.byte	0x30
 2184 07a5 7A000000 		.4byte	0x7a
 2185 07a9 02       		.byte	0x2
 2186 07aa 91       		.byte	0x91
 2187 07ab 63       		.sleb128 -29
 2188 07ac 19       		.uleb128 0x19
 2189 07ad FE040000 		.4byte	.LASF65
 2190 07b1 01       		.byte	0x1
 2191 07b2 32       		.byte	0x32
 2192 07b3 1B010000 		.4byte	0x11b
 2193 07b7 02       		.byte	0x2
 2194 07b8 91       		.byte	0x91
 2195 07b9 6C       		.sleb128 -20
 2196 07ba 00       		.byte	0
 2197 07bb 1F       		.uleb128 0x1f
 2198 07bc 01       		.byte	0x1
 2199 07bd FB000000 		.4byte	.LASF85
 2200 07c1 01       		.byte	0x1
 2201 07c2 2A       		.byte	0x2a
 2202 07c3 01       		.byte	0x1
 2203 07c4 60000000 		.4byte	.LFB21
 2204 07c8 6C000000 		.4byte	.LFE21
 2205 07cc 64030000 		.4byte	.LLST1
 2206 07d0 01       		.byte	0x1
 2207 07d1 20       		.uleb128 0x20
 2208 07d2 08030000 		.4byte	.LASF86
 2209 07d6 01       		.byte	0x1
 2210 07d7 19       		.byte	0x19
 2211 07d8 01       		.byte	0x1
 2212 07d9 00000000 		.4byte	.LFB20
ARM GAS  G:\Users\Jaxb\AppData\Local\Temp\ccV5xqmv.s 			page 45


 2213 07dd 60000000 		.4byte	.LFE20
 2214 07e1 90030000 		.4byte	.LLST0
 2215 07e5 01       		.byte	0x1
 2216 07e6 19       		.uleb128 0x19
 2217 07e7 FE040000 		.4byte	.LASF65
 2218 07eb 01       		.byte	0x1
 2219 07ec 1D       		.byte	0x1d
 2220 07ed 1B010000 		.4byte	0x11b
 2221 07f1 02       		.byte	0x2
 2222 07f2 91       		.byte	0x91
 2223 07f3 74       		.sleb128 -12
 2224 07f4 00       		.byte	0
 2225 07f5 00       		.byte	0
 2226              		.section	.debug_abbrev,"",%progbits
 2227              	.Ldebug_abbrev0:
 2228 0000 01       		.uleb128 0x1
 2229 0001 11       		.uleb128 0x11
 2230 0002 01       		.byte	0x1
 2231 0003 25       		.uleb128 0x25
 2232 0004 0E       		.uleb128 0xe
 2233 0005 13       		.uleb128 0x13
 2234 0006 0B       		.uleb128 0xb
 2235 0007 03       		.uleb128 0x3
 2236 0008 0E       		.uleb128 0xe
 2237 0009 1B       		.uleb128 0x1b
 2238 000a 0E       		.uleb128 0xe
 2239 000b 11       		.uleb128 0x11
 2240 000c 01       		.uleb128 0x1
 2241 000d 12       		.uleb128 0x12
 2242 000e 01       		.uleb128 0x1
 2243 000f 10       		.uleb128 0x10
 2244 0010 06       		.uleb128 0x6
 2245 0011 00       		.byte	0
 2246 0012 00       		.byte	0
 2247 0013 02       		.uleb128 0x2
 2248 0014 04       		.uleb128 0x4
 2249 0015 01       		.byte	0x1
 2250 0016 03       		.uleb128 0x3
 2251 0017 0E       		.uleb128 0xe
 2252 0018 3E       		.uleb128 0x3e
 2253 0019 0B       		.uleb128 0xb
 2254 001a 0B       		.uleb128 0xb
 2255 001b 0B       		.uleb128 0xb
 2256 001c 49       		.uleb128 0x49
 2257 001d 13       		.uleb128 0x13
 2258 001e 3A       		.uleb128 0x3a
 2259 001f 0B       		.uleb128 0xb
 2260 0020 3B       		.uleb128 0x3b
 2261 0021 0B       		.uleb128 0xb
 2262 0022 01       		.uleb128 0x1
 2263 0023 13       		.uleb128 0x13
 2264 0024 00       		.byte	0
 2265 0025 00       		.byte	0
 2266 0026 03       		.uleb128 0x3
 2267 0027 28       		.uleb128 0x28
 2268 0028 00       		.byte	0
 2269 0029 03       		.uleb128 0x3
ARM GAS  G:\Users\Jaxb\AppData\Local\Temp\ccV5xqmv.s 			page 46


 2270 002a 0E       		.uleb128 0xe
 2271 002b 1C       		.uleb128 0x1c
 2272 002c 0B       		.uleb128 0xb
 2273 002d 00       		.byte	0
 2274 002e 00       		.byte	0
 2275 002f 04       		.uleb128 0x4
 2276 0030 24       		.uleb128 0x24
 2277 0031 00       		.byte	0
 2278 0032 0B       		.uleb128 0xb
 2279 0033 0B       		.uleb128 0xb
 2280 0034 3E       		.uleb128 0x3e
 2281 0035 0B       		.uleb128 0xb
 2282 0036 03       		.uleb128 0x3
 2283 0037 0E       		.uleb128 0xe
 2284 0038 00       		.byte	0
 2285 0039 00       		.byte	0
 2286 003a 05       		.uleb128 0x5
 2287 003b 16       		.uleb128 0x16
 2288 003c 00       		.byte	0
 2289 003d 03       		.uleb128 0x3
 2290 003e 0E       		.uleb128 0xe
 2291 003f 3A       		.uleb128 0x3a
 2292 0040 0B       		.uleb128 0xb
 2293 0041 3B       		.uleb128 0x3b
 2294 0042 0B       		.uleb128 0xb
 2295 0043 49       		.uleb128 0x49
 2296 0044 13       		.uleb128 0x13
 2297 0045 00       		.byte	0
 2298 0046 00       		.byte	0
 2299 0047 06       		.uleb128 0x6
 2300 0048 24       		.uleb128 0x24
 2301 0049 00       		.byte	0
 2302 004a 0B       		.uleb128 0xb
 2303 004b 0B       		.uleb128 0xb
 2304 004c 3E       		.uleb128 0x3e
 2305 004d 0B       		.uleb128 0xb
 2306 004e 03       		.uleb128 0x3
 2307 004f 08       		.uleb128 0x8
 2308 0050 00       		.byte	0
 2309 0051 00       		.byte	0
 2310 0052 07       		.uleb128 0x7
 2311 0053 35       		.uleb128 0x35
 2312 0054 00       		.byte	0
 2313 0055 49       		.uleb128 0x49
 2314 0056 13       		.uleb128 0x13
 2315 0057 00       		.byte	0
 2316 0058 00       		.byte	0
 2317 0059 08       		.uleb128 0x8
 2318 005a 13       		.uleb128 0x13
 2319 005b 01       		.byte	0x1
 2320 005c 03       		.uleb128 0x3
 2321 005d 0E       		.uleb128 0xe
 2322 005e 0B       		.uleb128 0xb
 2323 005f 0B       		.uleb128 0xb
 2324 0060 3A       		.uleb128 0x3a
 2325 0061 0B       		.uleb128 0xb
 2326 0062 3B       		.uleb128 0x3b
ARM GAS  G:\Users\Jaxb\AppData\Local\Temp\ccV5xqmv.s 			page 47


 2327 0063 0B       		.uleb128 0xb
 2328 0064 01       		.uleb128 0x1
 2329 0065 13       		.uleb128 0x13
 2330 0066 00       		.byte	0
 2331 0067 00       		.byte	0
 2332 0068 09       		.uleb128 0x9
 2333 0069 0D       		.uleb128 0xd
 2334 006a 00       		.byte	0
 2335 006b 03       		.uleb128 0x3
 2336 006c 0E       		.uleb128 0xe
 2337 006d 3A       		.uleb128 0x3a
 2338 006e 0B       		.uleb128 0xb
 2339 006f 3B       		.uleb128 0x3b
 2340 0070 0B       		.uleb128 0xb
 2341 0071 49       		.uleb128 0x49
 2342 0072 13       		.uleb128 0x13
 2343 0073 38       		.uleb128 0x38
 2344 0074 0A       		.uleb128 0xa
 2345 0075 00       		.byte	0
 2346 0076 00       		.byte	0
 2347 0077 0A       		.uleb128 0xa
 2348 0078 0F       		.uleb128 0xf
 2349 0079 00       		.byte	0
 2350 007a 0B       		.uleb128 0xb
 2351 007b 0B       		.uleb128 0xb
 2352 007c 49       		.uleb128 0x49
 2353 007d 13       		.uleb128 0x13
 2354 007e 00       		.byte	0
 2355 007f 00       		.byte	0
 2356 0080 0B       		.uleb128 0xb
 2357 0081 15       		.uleb128 0x15
 2358 0082 01       		.byte	0x1
 2359 0083 27       		.uleb128 0x27
 2360 0084 0C       		.uleb128 0xc
 2361 0085 01       		.uleb128 0x1
 2362 0086 13       		.uleb128 0x13
 2363 0087 00       		.byte	0
 2364 0088 00       		.byte	0
 2365 0089 0C       		.uleb128 0xc
 2366 008a 05       		.uleb128 0x5
 2367 008b 00       		.byte	0
 2368 008c 49       		.uleb128 0x49
 2369 008d 13       		.uleb128 0x13
 2370 008e 00       		.byte	0
 2371 008f 00       		.byte	0
 2372 0090 0D       		.uleb128 0xd
 2373 0091 0F       		.uleb128 0xf
 2374 0092 00       		.byte	0
 2375 0093 0B       		.uleb128 0xb
 2376 0094 0B       		.uleb128 0xb
 2377 0095 00       		.byte	0
 2378 0096 00       		.byte	0
 2379 0097 0E       		.uleb128 0xe
 2380 0098 34       		.uleb128 0x34
 2381 0099 00       		.byte	0
 2382 009a 03       		.uleb128 0x3
 2383 009b 0E       		.uleb128 0xe
ARM GAS  G:\Users\Jaxb\AppData\Local\Temp\ccV5xqmv.s 			page 48


 2384 009c 3A       		.uleb128 0x3a
 2385 009d 0B       		.uleb128 0xb
 2386 009e 3B       		.uleb128 0x3b
 2387 009f 0B       		.uleb128 0xb
 2388 00a0 49       		.uleb128 0x49
 2389 00a1 13       		.uleb128 0x13
 2390 00a2 3F       		.uleb128 0x3f
 2391 00a3 0C       		.uleb128 0xc
 2392 00a4 3C       		.uleb128 0x3c
 2393 00a5 0C       		.uleb128 0xc
 2394 00a6 00       		.byte	0
 2395 00a7 00       		.byte	0
 2396 00a8 0F       		.uleb128 0xf
 2397 00a9 26       		.uleb128 0x26
 2398 00aa 00       		.byte	0
 2399 00ab 49       		.uleb128 0x49
 2400 00ac 13       		.uleb128 0x13
 2401 00ad 00       		.byte	0
 2402 00ae 00       		.byte	0
 2403 00af 10       		.uleb128 0x10
 2404 00b0 13       		.uleb128 0x13
 2405 00b1 00       		.byte	0
 2406 00b2 03       		.uleb128 0x3
 2407 00b3 0E       		.uleb128 0xe
 2408 00b4 3C       		.uleb128 0x3c
 2409 00b5 0C       		.uleb128 0xc
 2410 00b6 00       		.byte	0
 2411 00b7 00       		.byte	0
 2412 00b8 11       		.uleb128 0x11
 2413 00b9 16       		.uleb128 0x16
 2414 00ba 00       		.byte	0
 2415 00bb 03       		.uleb128 0x3
 2416 00bc 08       		.uleb128 0x8
 2417 00bd 3A       		.uleb128 0x3a
 2418 00be 0B       		.uleb128 0xb
 2419 00bf 3B       		.uleb128 0x3b
 2420 00c0 0B       		.uleb128 0xb
 2421 00c1 49       		.uleb128 0x49
 2422 00c2 13       		.uleb128 0x13
 2423 00c3 00       		.byte	0
 2424 00c4 00       		.byte	0
 2425 00c5 12       		.uleb128 0x12
 2426 00c6 34       		.uleb128 0x34
 2427 00c7 00       		.byte	0
 2428 00c8 03       		.uleb128 0x3
 2429 00c9 0E       		.uleb128 0xe
 2430 00ca 3A       		.uleb128 0x3a
 2431 00cb 0B       		.uleb128 0xb
 2432 00cc 3B       		.uleb128 0x3b
 2433 00cd 0B       		.uleb128 0xb
 2434 00ce 49       		.uleb128 0x49
 2435 00cf 13       		.uleb128 0x13
 2436 00d0 3F       		.uleb128 0x3f
 2437 00d1 0C       		.uleb128 0xc
 2438 00d2 02       		.uleb128 0x2
 2439 00d3 0A       		.uleb128 0xa
 2440 00d4 00       		.byte	0
ARM GAS  G:\Users\Jaxb\AppData\Local\Temp\ccV5xqmv.s 			page 49


 2441 00d5 00       		.byte	0
 2442 00d6 13       		.uleb128 0x13
 2443 00d7 01       		.uleb128 0x1
 2444 00d8 01       		.byte	0x1
 2445 00d9 49       		.uleb128 0x49
 2446 00da 13       		.uleb128 0x13
 2447 00db 01       		.uleb128 0x1
 2448 00dc 13       		.uleb128 0x13
 2449 00dd 00       		.byte	0
 2450 00de 00       		.byte	0
 2451 00df 14       		.uleb128 0x14
 2452 00e0 21       		.uleb128 0x21
 2453 00e1 00       		.byte	0
 2454 00e2 49       		.uleb128 0x49
 2455 00e3 13       		.uleb128 0x13
 2456 00e4 2F       		.uleb128 0x2f
 2457 00e5 0B       		.uleb128 0xb
 2458 00e6 00       		.byte	0
 2459 00e7 00       		.byte	0
 2460 00e8 15       		.uleb128 0x15
 2461 00e9 2E       		.uleb128 0x2e
 2462 00ea 00       		.byte	0
 2463 00eb 3F       		.uleb128 0x3f
 2464 00ec 0C       		.uleb128 0xc
 2465 00ed 03       		.uleb128 0x3
 2466 00ee 0E       		.uleb128 0xe
 2467 00ef 3A       		.uleb128 0x3a
 2468 00f0 0B       		.uleb128 0xb
 2469 00f1 3B       		.uleb128 0x3b
 2470 00f2 05       		.uleb128 0x5
 2471 00f3 27       		.uleb128 0x27
 2472 00f4 0C       		.uleb128 0xc
 2473 00f5 49       		.uleb128 0x49
 2474 00f6 13       		.uleb128 0x13
 2475 00f7 11       		.uleb128 0x11
 2476 00f8 01       		.uleb128 0x1
 2477 00f9 12       		.uleb128 0x12
 2478 00fa 01       		.uleb128 0x1
 2479 00fb 40       		.uleb128 0x40
 2480 00fc 06       		.uleb128 0x6
 2481 00fd 9742     		.uleb128 0x2117
 2482 00ff 0C       		.uleb128 0xc
 2483 0100 00       		.byte	0
 2484 0101 00       		.byte	0
 2485 0102 16       		.uleb128 0x16
 2486 0103 2E       		.uleb128 0x2e
 2487 0104 01       		.byte	0x1
 2488 0105 3F       		.uleb128 0x3f
 2489 0106 0C       		.uleb128 0xc
 2490 0107 03       		.uleb128 0x3
 2491 0108 0E       		.uleb128 0xe
 2492 0109 3A       		.uleb128 0x3a
 2493 010a 0B       		.uleb128 0xb
 2494 010b 3B       		.uleb128 0x3b
 2495 010c 05       		.uleb128 0x5
 2496 010d 27       		.uleb128 0x27
 2497 010e 0C       		.uleb128 0xc
ARM GAS  G:\Users\Jaxb\AppData\Local\Temp\ccV5xqmv.s 			page 50


 2498 010f 11       		.uleb128 0x11
 2499 0110 01       		.uleb128 0x1
 2500 0111 12       		.uleb128 0x12
 2501 0112 01       		.uleb128 0x1
 2502 0113 40       		.uleb128 0x40
 2503 0114 06       		.uleb128 0x6
 2504 0115 9642     		.uleb128 0x2116
 2505 0117 0C       		.uleb128 0xc
 2506 0118 01       		.uleb128 0x1
 2507 0119 13       		.uleb128 0x13
 2508 011a 00       		.byte	0
 2509 011b 00       		.byte	0
 2510 011c 17       		.uleb128 0x17
 2511 011d 34       		.uleb128 0x34
 2512 011e 00       		.byte	0
 2513 011f 03       		.uleb128 0x3
 2514 0120 0E       		.uleb128 0xe
 2515 0121 3A       		.uleb128 0x3a
 2516 0122 0B       		.uleb128 0xb
 2517 0123 3B       		.uleb128 0x3b
 2518 0124 05       		.uleb128 0x5
 2519 0125 49       		.uleb128 0x49
 2520 0126 13       		.uleb128 0x13
 2521 0127 02       		.uleb128 0x2
 2522 0128 0A       		.uleb128 0xa
 2523 0129 00       		.byte	0
 2524 012a 00       		.byte	0
 2525 012b 18       		.uleb128 0x18
 2526 012c 2E       		.uleb128 0x2e
 2527 012d 01       		.byte	0x1
 2528 012e 3F       		.uleb128 0x3f
 2529 012f 0C       		.uleb128 0xc
 2530 0130 03       		.uleb128 0x3
 2531 0131 0E       		.uleb128 0xe
 2532 0132 3A       		.uleb128 0x3a
 2533 0133 0B       		.uleb128 0xb
 2534 0134 3B       		.uleb128 0x3b
 2535 0135 0B       		.uleb128 0xb
 2536 0136 27       		.uleb128 0x27
 2537 0137 0C       		.uleb128 0xc
 2538 0138 11       		.uleb128 0x11
 2539 0139 01       		.uleb128 0x1
 2540 013a 12       		.uleb128 0x12
 2541 013b 01       		.uleb128 0x1
 2542 013c 40       		.uleb128 0x40
 2543 013d 06       		.uleb128 0x6
 2544 013e 9642     		.uleb128 0x2116
 2545 0140 0C       		.uleb128 0xc
 2546 0141 01       		.uleb128 0x1
 2547 0142 13       		.uleb128 0x13
 2548 0143 00       		.byte	0
 2549 0144 00       		.byte	0
 2550 0145 19       		.uleb128 0x19
 2551 0146 34       		.uleb128 0x34
 2552 0147 00       		.byte	0
 2553 0148 03       		.uleb128 0x3
 2554 0149 0E       		.uleb128 0xe
ARM GAS  G:\Users\Jaxb\AppData\Local\Temp\ccV5xqmv.s 			page 51


 2555 014a 3A       		.uleb128 0x3a
 2556 014b 0B       		.uleb128 0xb
 2557 014c 3B       		.uleb128 0x3b
 2558 014d 0B       		.uleb128 0xb
 2559 014e 49       		.uleb128 0x49
 2560 014f 13       		.uleb128 0x13
 2561 0150 02       		.uleb128 0x2
 2562 0151 0A       		.uleb128 0xa
 2563 0152 00       		.byte	0
 2564 0153 00       		.byte	0
 2565 0154 1A       		.uleb128 0x1a
 2566 0155 2E       		.uleb128 0x2e
 2567 0156 01       		.byte	0x1
 2568 0157 3F       		.uleb128 0x3f
 2569 0158 0C       		.uleb128 0xc
 2570 0159 03       		.uleb128 0x3
 2571 015a 0E       		.uleb128 0xe
 2572 015b 3A       		.uleb128 0x3a
 2573 015c 0B       		.uleb128 0xb
 2574 015d 3B       		.uleb128 0x3b
 2575 015e 0B       		.uleb128 0xb
 2576 015f 27       		.uleb128 0x27
 2577 0160 0C       		.uleb128 0xc
 2578 0161 49       		.uleb128 0x49
 2579 0162 13       		.uleb128 0x13
 2580 0163 11       		.uleb128 0x11
 2581 0164 01       		.uleb128 0x1
 2582 0165 12       		.uleb128 0x12
 2583 0166 01       		.uleb128 0x1
 2584 0167 40       		.uleb128 0x40
 2585 0168 06       		.uleb128 0x6
 2586 0169 9642     		.uleb128 0x2116
 2587 016b 0C       		.uleb128 0xc
 2588 016c 01       		.uleb128 0x1
 2589 016d 13       		.uleb128 0x13
 2590 016e 00       		.byte	0
 2591 016f 00       		.byte	0
 2592 0170 1B       		.uleb128 0x1b
 2593 0171 05       		.uleb128 0x5
 2594 0172 00       		.byte	0
 2595 0173 03       		.uleb128 0x3
 2596 0174 0E       		.uleb128 0xe
 2597 0175 3A       		.uleb128 0x3a
 2598 0176 0B       		.uleb128 0xb
 2599 0177 3B       		.uleb128 0x3b
 2600 0178 0B       		.uleb128 0xb
 2601 0179 49       		.uleb128 0x49
 2602 017a 13       		.uleb128 0x13
 2603 017b 02       		.uleb128 0x2
 2604 017c 0A       		.uleb128 0xa
 2605 017d 00       		.byte	0
 2606 017e 00       		.byte	0
 2607 017f 1C       		.uleb128 0x1c
 2608 0180 34       		.uleb128 0x34
 2609 0181 00       		.byte	0
 2610 0182 03       		.uleb128 0x3
 2611 0183 08       		.uleb128 0x8
ARM GAS  G:\Users\Jaxb\AppData\Local\Temp\ccV5xqmv.s 			page 52


 2612 0184 3A       		.uleb128 0x3a
 2613 0185 0B       		.uleb128 0xb
 2614 0186 3B       		.uleb128 0x3b
 2615 0187 0B       		.uleb128 0xb
 2616 0188 49       		.uleb128 0x49
 2617 0189 13       		.uleb128 0x13
 2618 018a 02       		.uleb128 0x2
 2619 018b 0A       		.uleb128 0xa
 2620 018c 00       		.byte	0
 2621 018d 00       		.byte	0
 2622 018e 1D       		.uleb128 0x1d
 2623 018f 05       		.uleb128 0x5
 2624 0190 00       		.byte	0
 2625 0191 03       		.uleb128 0x3
 2626 0192 08       		.uleb128 0x8
 2627 0193 3A       		.uleb128 0x3a
 2628 0194 0B       		.uleb128 0xb
 2629 0195 3B       		.uleb128 0x3b
 2630 0196 0B       		.uleb128 0xb
 2631 0197 49       		.uleb128 0x49
 2632 0198 13       		.uleb128 0x13
 2633 0199 02       		.uleb128 0x2
 2634 019a 0A       		.uleb128 0xa
 2635 019b 00       		.byte	0
 2636 019c 00       		.byte	0
 2637 019d 1E       		.uleb128 0x1e
 2638 019e 2E       		.uleb128 0x2e
 2639 019f 01       		.byte	0x1
 2640 01a0 03       		.uleb128 0x3
 2641 01a1 0E       		.uleb128 0xe
 2642 01a2 3A       		.uleb128 0x3a
 2643 01a3 0B       		.uleb128 0xb
 2644 01a4 3B       		.uleb128 0x3b
 2645 01a5 0B       		.uleb128 0xb
 2646 01a6 27       		.uleb128 0x27
 2647 01a7 0C       		.uleb128 0xc
 2648 01a8 49       		.uleb128 0x49
 2649 01a9 13       		.uleb128 0x13
 2650 01aa 11       		.uleb128 0x11
 2651 01ab 01       		.uleb128 0x1
 2652 01ac 12       		.uleb128 0x12
 2653 01ad 01       		.uleb128 0x1
 2654 01ae 40       		.uleb128 0x40
 2655 01af 06       		.uleb128 0x6
 2656 01b0 9642     		.uleb128 0x2116
 2657 01b2 0C       		.uleb128 0xc
 2658 01b3 01       		.uleb128 0x1
 2659 01b4 13       		.uleb128 0x13
 2660 01b5 00       		.byte	0
 2661 01b6 00       		.byte	0
 2662 01b7 1F       		.uleb128 0x1f
 2663 01b8 2E       		.uleb128 0x2e
 2664 01b9 00       		.byte	0
 2665 01ba 3F       		.uleb128 0x3f
 2666 01bb 0C       		.uleb128 0xc
 2667 01bc 03       		.uleb128 0x3
 2668 01bd 0E       		.uleb128 0xe
ARM GAS  G:\Users\Jaxb\AppData\Local\Temp\ccV5xqmv.s 			page 53


 2669 01be 3A       		.uleb128 0x3a
 2670 01bf 0B       		.uleb128 0xb
 2671 01c0 3B       		.uleb128 0x3b
 2672 01c1 0B       		.uleb128 0xb
 2673 01c2 27       		.uleb128 0x27
 2674 01c3 0C       		.uleb128 0xc
 2675 01c4 11       		.uleb128 0x11
 2676 01c5 01       		.uleb128 0x1
 2677 01c6 12       		.uleb128 0x12
 2678 01c7 01       		.uleb128 0x1
 2679 01c8 40       		.uleb128 0x40
 2680 01c9 06       		.uleb128 0x6
 2681 01ca 9642     		.uleb128 0x2116
 2682 01cc 0C       		.uleb128 0xc
 2683 01cd 00       		.byte	0
 2684 01ce 00       		.byte	0
 2685 01cf 20       		.uleb128 0x20
 2686 01d0 2E       		.uleb128 0x2e
 2687 01d1 01       		.byte	0x1
 2688 01d2 03       		.uleb128 0x3
 2689 01d3 0E       		.uleb128 0xe
 2690 01d4 3A       		.uleb128 0x3a
 2691 01d5 0B       		.uleb128 0xb
 2692 01d6 3B       		.uleb128 0x3b
 2693 01d7 0B       		.uleb128 0xb
 2694 01d8 27       		.uleb128 0x27
 2695 01d9 0C       		.uleb128 0xc
 2696 01da 11       		.uleb128 0x11
 2697 01db 01       		.uleb128 0x1
 2698 01dc 12       		.uleb128 0x12
 2699 01dd 01       		.uleb128 0x1
 2700 01de 40       		.uleb128 0x40
 2701 01df 06       		.uleb128 0x6
 2702 01e0 9642     		.uleb128 0x2116
 2703 01e2 0C       		.uleb128 0xc
 2704 01e3 00       		.byte	0
 2705 01e4 00       		.byte	0
 2706 01e5 00       		.byte	0
 2707              		.section	.debug_loc,"",%progbits
 2708              	.Ldebug_loc0:
 2709              	.LLST12:
 2710 0000 70040000 		.4byte	.LFB32-.Ltext0
 2711 0004 72040000 		.4byte	.LCFI57-.Ltext0
 2712 0008 0200     		.2byte	0x2
 2713 000a 7D       		.byte	0x7d
 2714 000b 00       		.sleb128 0
 2715 000c 72040000 		.4byte	.LCFI57-.Ltext0
 2716 0010 74040000 		.4byte	.LCFI58-.Ltext0
 2717 0014 0200     		.2byte	0x2
 2718 0016 7D       		.byte	0x7d
 2719 0017 04       		.sleb128 4
 2720 0018 74040000 		.4byte	.LCFI58-.Ltext0
 2721 001c 86040000 		.4byte	.LCFI59-.Ltext0
 2722 0020 0200     		.2byte	0x2
 2723 0022 77       		.byte	0x77
 2724 0023 04       		.sleb128 4
 2725 0024 86040000 		.4byte	.LCFI59-.Ltext0
ARM GAS  G:\Users\Jaxb\AppData\Local\Temp\ccV5xqmv.s 			page 54


 2726 0028 88040000 		.4byte	.LCFI60-.Ltext0
 2727 002c 0200     		.2byte	0x2
 2728 002e 7D       		.byte	0x7d
 2729 002f 04       		.sleb128 4
 2730 0030 88040000 		.4byte	.LCFI60-.Ltext0
 2731 0034 90040000 		.4byte	.LFE32-.Ltext0
 2732 0038 0200     		.2byte	0x2
 2733 003a 7D       		.byte	0x7d
 2734 003b 00       		.sleb128 0
 2735 003c 00000000 		.4byte	0
 2736 0040 00000000 		.4byte	0
 2737              	.LLST11:
 2738 0044 44040000 		.4byte	.LFB31-.Ltext0
 2739 0048 46040000 		.4byte	.LCFI52-.Ltext0
 2740 004c 0200     		.2byte	0x2
 2741 004e 7D       		.byte	0x7d
 2742 004f 00       		.sleb128 0
 2743 0050 46040000 		.4byte	.LCFI52-.Ltext0
 2744 0054 48040000 		.4byte	.LCFI53-.Ltext0
 2745 0058 0200     		.2byte	0x2
 2746 005a 7D       		.byte	0x7d
 2747 005b 08       		.sleb128 8
 2748 005c 48040000 		.4byte	.LCFI53-.Ltext0
 2749 0060 4A040000 		.4byte	.LCFI54-.Ltext0
 2750 0064 0200     		.2byte	0x2
 2751 0066 7D       		.byte	0x7d
 2752 0067 10       		.sleb128 16
 2753 0068 4A040000 		.4byte	.LCFI54-.Ltext0
 2754 006c 68040000 		.4byte	.LCFI55-.Ltext0
 2755 0070 0200     		.2byte	0x2
 2756 0072 77       		.byte	0x77
 2757 0073 10       		.sleb128 16
 2758 0074 68040000 		.4byte	.LCFI55-.Ltext0
 2759 0078 6A040000 		.4byte	.LCFI56-.Ltext0
 2760 007c 0200     		.2byte	0x2
 2761 007e 77       		.byte	0x77
 2762 007f 08       		.sleb128 8
 2763 0080 6A040000 		.4byte	.LCFI56-.Ltext0
 2764 0084 70040000 		.4byte	.LFE31-.Ltext0
 2765 0088 0200     		.2byte	0x2
 2766 008a 7D       		.byte	0x7d
 2767 008b 08       		.sleb128 8
 2768 008c 00000000 		.4byte	0
 2769 0090 00000000 		.4byte	0
 2770              	.LLST10:
 2771 0094 18040000 		.4byte	.LFB30-.Ltext0
 2772 0098 1A040000 		.4byte	.LCFI47-.Ltext0
 2773 009c 0200     		.2byte	0x2
 2774 009e 7D       		.byte	0x7d
 2775 009f 00       		.sleb128 0
 2776 00a0 1A040000 		.4byte	.LCFI47-.Ltext0
 2777 00a4 1C040000 		.4byte	.LCFI48-.Ltext0
 2778 00a8 0200     		.2byte	0x2
 2779 00aa 7D       		.byte	0x7d
 2780 00ab 08       		.sleb128 8
 2781 00ac 1C040000 		.4byte	.LCFI48-.Ltext0
 2782 00b0 1E040000 		.4byte	.LCFI49-.Ltext0
ARM GAS  G:\Users\Jaxb\AppData\Local\Temp\ccV5xqmv.s 			page 55


 2783 00b4 0200     		.2byte	0x2
 2784 00b6 7D       		.byte	0x7d
 2785 00b7 10       		.sleb128 16
 2786 00b8 1E040000 		.4byte	.LCFI49-.Ltext0
 2787 00bc 3C040000 		.4byte	.LCFI50-.Ltext0
 2788 00c0 0200     		.2byte	0x2
 2789 00c2 77       		.byte	0x77
 2790 00c3 10       		.sleb128 16
 2791 00c4 3C040000 		.4byte	.LCFI50-.Ltext0
 2792 00c8 3E040000 		.4byte	.LCFI51-.Ltext0
 2793 00cc 0200     		.2byte	0x2
 2794 00ce 77       		.byte	0x77
 2795 00cf 08       		.sleb128 8
 2796 00d0 3E040000 		.4byte	.LCFI51-.Ltext0
 2797 00d4 44040000 		.4byte	.LFE30-.Ltext0
 2798 00d8 0200     		.2byte	0x2
 2799 00da 7D       		.byte	0x7d
 2800 00db 08       		.sleb128 8
 2801 00dc 00000000 		.4byte	0
 2802 00e0 00000000 		.4byte	0
 2803              	.LLST9:
 2804 00e4 B2030000 		.4byte	.LFB29-.Ltext0
 2805 00e8 B4030000 		.4byte	.LCFI42-.Ltext0
 2806 00ec 0200     		.2byte	0x2
 2807 00ee 7D       		.byte	0x7d
 2808 00ef 00       		.sleb128 0
 2809 00f0 B4030000 		.4byte	.LCFI42-.Ltext0
 2810 00f4 B6030000 		.4byte	.LCFI43-.Ltext0
 2811 00f8 0200     		.2byte	0x2
 2812 00fa 7D       		.byte	0x7d
 2813 00fb 08       		.sleb128 8
 2814 00fc B6030000 		.4byte	.LCFI43-.Ltext0
 2815 0100 B8030000 		.4byte	.LCFI44-.Ltext0
 2816 0104 0200     		.2byte	0x2
 2817 0106 7D       		.byte	0x7d
 2818 0107 28       		.sleb128 40
 2819 0108 B8030000 		.4byte	.LCFI44-.Ltext0
 2820 010c 10040000 		.4byte	.LCFI45-.Ltext0
 2821 0110 0200     		.2byte	0x2
 2822 0112 77       		.byte	0x77
 2823 0113 18       		.sleb128 24
 2824 0114 10040000 		.4byte	.LCFI45-.Ltext0
 2825 0118 12040000 		.4byte	.LCFI46-.Ltext0
 2826 011c 0200     		.2byte	0x2
 2827 011e 77       		.byte	0x77
 2828 011f 08       		.sleb128 8
 2829 0120 12040000 		.4byte	.LCFI46-.Ltext0
 2830 0124 18040000 		.4byte	.LFE29-.Ltext0
 2831 0128 0200     		.2byte	0x2
 2832 012a 7D       		.byte	0x7d
 2833 012b 08       		.sleb128 8
 2834 012c 00000000 		.4byte	0
 2835 0130 00000000 		.4byte	0
 2836              	.LLST8:
 2837 0134 40030000 		.4byte	.LFB28-.Ltext0
 2838 0138 42030000 		.4byte	.LCFI37-.Ltext0
 2839 013c 0200     		.2byte	0x2
ARM GAS  G:\Users\Jaxb\AppData\Local\Temp\ccV5xqmv.s 			page 56


 2840 013e 7D       		.byte	0x7d
 2841 013f 00       		.sleb128 0
 2842 0140 42030000 		.4byte	.LCFI37-.Ltext0
 2843 0144 44030000 		.4byte	.LCFI38-.Ltext0
 2844 0148 0200     		.2byte	0x2
 2845 014a 7D       		.byte	0x7d
 2846 014b 08       		.sleb128 8
 2847 014c 44030000 		.4byte	.LCFI38-.Ltext0
 2848 0150 46030000 		.4byte	.LCFI39-.Ltext0
 2849 0154 0200     		.2byte	0x2
 2850 0156 7D       		.byte	0x7d
 2851 0157 30       		.sleb128 48
 2852 0158 46030000 		.4byte	.LCFI39-.Ltext0
 2853 015c AE030000 		.4byte	.LCFI40-.Ltext0
 2854 0160 0200     		.2byte	0x2
 2855 0162 77       		.byte	0x77
 2856 0163 20       		.sleb128 32
 2857 0164 AE030000 		.4byte	.LCFI40-.Ltext0
 2858 0168 B0030000 		.4byte	.LCFI41-.Ltext0
 2859 016c 0200     		.2byte	0x2
 2860 016e 77       		.byte	0x77
 2861 016f 08       		.sleb128 8
 2862 0170 B0030000 		.4byte	.LCFI41-.Ltext0
 2863 0174 B2030000 		.4byte	.LFE28-.Ltext0
 2864 0178 0200     		.2byte	0x2
 2865 017a 7D       		.byte	0x7d
 2866 017b 08       		.sleb128 8
 2867 017c 00000000 		.4byte	0
 2868 0180 00000000 		.4byte	0
 2869              	.LLST7:
 2870 0184 E0020000 		.4byte	.LFB27-.Ltext0
 2871 0188 E2020000 		.4byte	.LCFI32-.Ltext0
 2872 018c 0200     		.2byte	0x2
 2873 018e 7D       		.byte	0x7d
 2874 018f 00       		.sleb128 0
 2875 0190 E2020000 		.4byte	.LCFI32-.Ltext0
 2876 0194 E4020000 		.4byte	.LCFI33-.Ltext0
 2877 0198 0200     		.2byte	0x2
 2878 019a 7D       		.byte	0x7d
 2879 019b 08       		.sleb128 8
 2880 019c E4020000 		.4byte	.LCFI33-.Ltext0
 2881 01a0 E6020000 		.4byte	.LCFI34-.Ltext0
 2882 01a4 0200     		.2byte	0x2
 2883 01a6 7D       		.byte	0x7d
 2884 01a7 28       		.sleb128 40
 2885 01a8 E6020000 		.4byte	.LCFI34-.Ltext0
 2886 01ac 38030000 		.4byte	.LCFI35-.Ltext0
 2887 01b0 0200     		.2byte	0x2
 2888 01b2 77       		.byte	0x77
 2889 01b3 18       		.sleb128 24
 2890 01b4 38030000 		.4byte	.LCFI35-.Ltext0
 2891 01b8 3A030000 		.4byte	.LCFI36-.Ltext0
 2892 01bc 0200     		.2byte	0x2
 2893 01be 77       		.byte	0x77
 2894 01bf 08       		.sleb128 8
 2895 01c0 3A030000 		.4byte	.LCFI36-.Ltext0
 2896 01c4 40030000 		.4byte	.LFE27-.Ltext0
ARM GAS  G:\Users\Jaxb\AppData\Local\Temp\ccV5xqmv.s 			page 57


 2897 01c8 0200     		.2byte	0x2
 2898 01ca 7D       		.byte	0x7d
 2899 01cb 08       		.sleb128 8
 2900 01cc 00000000 		.4byte	0
 2901 01d0 00000000 		.4byte	0
 2902              	.LLST6:
 2903 01d4 70020000 		.4byte	.LFB26-.Ltext0
 2904 01d8 72020000 		.4byte	.LCFI27-.Ltext0
 2905 01dc 0200     		.2byte	0x2
 2906 01de 7D       		.byte	0x7d
 2907 01df 00       		.sleb128 0
 2908 01e0 72020000 		.4byte	.LCFI27-.Ltext0
 2909 01e4 74020000 		.4byte	.LCFI28-.Ltext0
 2910 01e8 0200     		.2byte	0x2
 2911 01ea 7D       		.byte	0x7d
 2912 01eb 08       		.sleb128 8
 2913 01ec 74020000 		.4byte	.LCFI28-.Ltext0
 2914 01f0 76020000 		.4byte	.LCFI29-.Ltext0
 2915 01f4 0200     		.2byte	0x2
 2916 01f6 7D       		.byte	0x7d
 2917 01f7 38       		.sleb128 56
 2918 01f8 76020000 		.4byte	.LCFI29-.Ltext0
 2919 01fc DC020000 		.4byte	.LCFI30-.Ltext0
 2920 0200 0200     		.2byte	0x2
 2921 0202 77       		.byte	0x77
 2922 0203 28       		.sleb128 40
 2923 0204 DC020000 		.4byte	.LCFI30-.Ltext0
 2924 0208 DE020000 		.4byte	.LCFI31-.Ltext0
 2925 020c 0200     		.2byte	0x2
 2926 020e 77       		.byte	0x77
 2927 020f 08       		.sleb128 8
 2928 0210 DE020000 		.4byte	.LCFI31-.Ltext0
 2929 0214 E0020000 		.4byte	.LFE26-.Ltext0
 2930 0218 0200     		.2byte	0x2
 2931 021a 7D       		.byte	0x7d
 2932 021b 08       		.sleb128 8
 2933 021c 00000000 		.4byte	0
 2934 0220 00000000 		.4byte	0
 2935              	.LLST5:
 2936 0224 FC010000 		.4byte	.LFB25-.Ltext0
 2937 0228 FE010000 		.4byte	.LCFI22-.Ltext0
 2938 022c 0200     		.2byte	0x2
 2939 022e 7D       		.byte	0x7d
 2940 022f 00       		.sleb128 0
 2941 0230 FE010000 		.4byte	.LCFI22-.Ltext0
 2942 0234 00020000 		.4byte	.LCFI23-.Ltext0
 2943 0238 0200     		.2byte	0x2
 2944 023a 7D       		.byte	0x7d
 2945 023b 08       		.sleb128 8
 2946 023c 00020000 		.4byte	.LCFI23-.Ltext0
 2947 0240 02020000 		.4byte	.LCFI24-.Ltext0
 2948 0244 0200     		.2byte	0x2
 2949 0246 7D       		.byte	0x7d
 2950 0247 10       		.sleb128 16
 2951 0248 02020000 		.4byte	.LCFI24-.Ltext0
 2952 024c 64020000 		.4byte	.LCFI25-.Ltext0
 2953 0250 0200     		.2byte	0x2
ARM GAS  G:\Users\Jaxb\AppData\Local\Temp\ccV5xqmv.s 			page 58


 2954 0252 77       		.byte	0x77
 2955 0253 10       		.sleb128 16
 2956 0254 64020000 		.4byte	.LCFI25-.Ltext0
 2957 0258 66020000 		.4byte	.LCFI26-.Ltext0
 2958 025c 0200     		.2byte	0x2
 2959 025e 77       		.byte	0x77
 2960 025f 08       		.sleb128 8
 2961 0260 66020000 		.4byte	.LCFI26-.Ltext0
 2962 0264 70020000 		.4byte	.LFE25-.Ltext0
 2963 0268 0200     		.2byte	0x2
 2964 026a 7D       		.byte	0x7d
 2965 026b 08       		.sleb128 8
 2966 026c 00000000 		.4byte	0
 2967 0270 00000000 		.4byte	0
 2968              	.LLST4:
 2969 0274 9C010000 		.4byte	.LFB24-.Ltext0
 2970 0278 9E010000 		.4byte	.LCFI17-.Ltext0
 2971 027c 0200     		.2byte	0x2
 2972 027e 7D       		.byte	0x7d
 2973 027f 00       		.sleb128 0
 2974 0280 9E010000 		.4byte	.LCFI17-.Ltext0
 2975 0284 A0010000 		.4byte	.LCFI18-.Ltext0
 2976 0288 0200     		.2byte	0x2
 2977 028a 7D       		.byte	0x7d
 2978 028b 08       		.sleb128 8
 2979 028c A0010000 		.4byte	.LCFI18-.Ltext0
 2980 0290 A2010000 		.4byte	.LCFI19-.Ltext0
 2981 0294 0200     		.2byte	0x2
 2982 0296 7D       		.byte	0x7d
 2983 0297 18       		.sleb128 24
 2984 0298 A2010000 		.4byte	.LCFI19-.Ltext0
 2985 029c F0010000 		.4byte	.LCFI20-.Ltext0
 2986 02a0 0200     		.2byte	0x2
 2987 02a2 77       		.byte	0x77
 2988 02a3 18       		.sleb128 24
 2989 02a4 F0010000 		.4byte	.LCFI20-.Ltext0
 2990 02a8 F2010000 		.4byte	.LCFI21-.Ltext0
 2991 02ac 0200     		.2byte	0x2
 2992 02ae 77       		.byte	0x77
 2993 02af 08       		.sleb128 8
 2994 02b0 F2010000 		.4byte	.LCFI21-.Ltext0
 2995 02b4 FC010000 		.4byte	.LFE24-.Ltext0
 2996 02b8 0200     		.2byte	0x2
 2997 02ba 7D       		.byte	0x7d
 2998 02bb 08       		.sleb128 8
 2999 02bc 00000000 		.4byte	0
 3000 02c0 00000000 		.4byte	0
 3001              	.LLST3:
 3002 02c4 0C010000 		.4byte	.LFB23-.Ltext0
 3003 02c8 0E010000 		.4byte	.LCFI12-.Ltext0
 3004 02cc 0200     		.2byte	0x2
 3005 02ce 7D       		.byte	0x7d
 3006 02cf 00       		.sleb128 0
 3007 02d0 0E010000 		.4byte	.LCFI12-.Ltext0
 3008 02d4 10010000 		.4byte	.LCFI13-.Ltext0
 3009 02d8 0200     		.2byte	0x2
 3010 02da 7D       		.byte	0x7d
ARM GAS  G:\Users\Jaxb\AppData\Local\Temp\ccV5xqmv.s 			page 59


 3011 02db 08       		.sleb128 8
 3012 02dc 10010000 		.4byte	.LCFI13-.Ltext0
 3013 02e0 12010000 		.4byte	.LCFI14-.Ltext0
 3014 02e4 0200     		.2byte	0x2
 3015 02e6 7D       		.byte	0x7d
 3016 02e7 10       		.sleb128 16
 3017 02e8 12010000 		.4byte	.LCFI14-.Ltext0
 3018 02ec 8C010000 		.4byte	.LCFI15-.Ltext0
 3019 02f0 0200     		.2byte	0x2
 3020 02f2 77       		.byte	0x77
 3021 02f3 10       		.sleb128 16
 3022 02f4 8C010000 		.4byte	.LCFI15-.Ltext0
 3023 02f8 8E010000 		.4byte	.LCFI16-.Ltext0
 3024 02fc 0200     		.2byte	0x2
 3025 02fe 77       		.byte	0x77
 3026 02ff 08       		.sleb128 8
 3027 0300 8E010000 		.4byte	.LCFI16-.Ltext0
 3028 0304 9C010000 		.4byte	.LFE23-.Ltext0
 3029 0308 0200     		.2byte	0x2
 3030 030a 7D       		.byte	0x7d
 3031 030b 08       		.sleb128 8
 3032 030c 00000000 		.4byte	0
 3033 0310 00000000 		.4byte	0
 3034              	.LLST2:
 3035 0314 6C000000 		.4byte	.LFB22-.Ltext0
 3036 0318 70000000 		.4byte	.LCFI7-.Ltext0
 3037 031c 0200     		.2byte	0x2
 3038 031e 7D       		.byte	0x7d
 3039 031f 00       		.sleb128 0
 3040 0320 70000000 		.4byte	.LCFI7-.Ltext0
 3041 0324 72000000 		.4byte	.LCFI8-.Ltext0
 3042 0328 0200     		.2byte	0x2
 3043 032a 7D       		.byte	0x7d
 3044 032b 10       		.sleb128 16
 3045 032c 72000000 		.4byte	.LCFI8-.Ltext0
 3046 0330 74000000 		.4byte	.LCFI9-.Ltext0
 3047 0334 0200     		.2byte	0x2
 3048 0336 7D       		.byte	0x7d
 3049 0337 20       		.sleb128 32
 3050 0338 74000000 		.4byte	.LCFI9-.Ltext0
 3051 033c FA000000 		.4byte	.LCFI10-.Ltext0
 3052 0340 0200     		.2byte	0x2
 3053 0342 77       		.byte	0x77
 3054 0343 20       		.sleb128 32
 3055 0344 FA000000 		.4byte	.LCFI10-.Ltext0
 3056 0348 FC000000 		.4byte	.LCFI11-.Ltext0
 3057 034c 0200     		.2byte	0x2
 3058 034e 77       		.byte	0x77
 3059 034f 10       		.sleb128 16
 3060 0350 FC000000 		.4byte	.LCFI11-.Ltext0
 3061 0354 0C010000 		.4byte	.LFE22-.Ltext0
 3062 0358 0200     		.2byte	0x2
 3063 035a 7D       		.byte	0x7d
 3064 035b 10       		.sleb128 16
 3065 035c 00000000 		.4byte	0
 3066 0360 00000000 		.4byte	0
 3067              	.LLST1:
ARM GAS  G:\Users\Jaxb\AppData\Local\Temp\ccV5xqmv.s 			page 60


 3068 0364 60000000 		.4byte	.LFB21-.Ltext0
 3069 0368 62000000 		.4byte	.LCFI5-.Ltext0
 3070 036c 0200     		.2byte	0x2
 3071 036e 7D       		.byte	0x7d
 3072 036f 00       		.sleb128 0
 3073 0370 62000000 		.4byte	.LCFI5-.Ltext0
 3074 0374 64000000 		.4byte	.LCFI6-.Ltext0
 3075 0378 0200     		.2byte	0x2
 3076 037a 7D       		.byte	0x7d
 3077 037b 08       		.sleb128 8
 3078 037c 64000000 		.4byte	.LCFI6-.Ltext0
 3079 0380 6C000000 		.4byte	.LFE21-.Ltext0
 3080 0384 0200     		.2byte	0x2
 3081 0386 77       		.byte	0x77
 3082 0387 08       		.sleb128 8
 3083 0388 00000000 		.4byte	0
 3084 038c 00000000 		.4byte	0
 3085              	.LLST0:
 3086 0390 00000000 		.4byte	.LFB20-.Ltext0
 3087 0394 02000000 		.4byte	.LCFI0-.Ltext0
 3088 0398 0200     		.2byte	0x2
 3089 039a 7D       		.byte	0x7d
 3090 039b 00       		.sleb128 0
 3091 039c 02000000 		.4byte	.LCFI0-.Ltext0
 3092 03a0 04000000 		.4byte	.LCFI1-.Ltext0
 3093 03a4 0200     		.2byte	0x2
 3094 03a6 7D       		.byte	0x7d
 3095 03a7 08       		.sleb128 8
 3096 03a8 04000000 		.4byte	.LCFI1-.Ltext0
 3097 03ac 06000000 		.4byte	.LCFI2-.Ltext0
 3098 03b0 0200     		.2byte	0x2
 3099 03b2 7D       		.byte	0x7d
 3100 03b3 10       		.sleb128 16
 3101 03b4 06000000 		.4byte	.LCFI2-.Ltext0
 3102 03b8 4C000000 		.4byte	.LCFI3-.Ltext0
 3103 03bc 0200     		.2byte	0x2
 3104 03be 77       		.byte	0x77
 3105 03bf 10       		.sleb128 16
 3106 03c0 4C000000 		.4byte	.LCFI3-.Ltext0
 3107 03c4 4E000000 		.4byte	.LCFI4-.Ltext0
 3108 03c8 0200     		.2byte	0x2
 3109 03ca 77       		.byte	0x77
 3110 03cb 08       		.sleb128 8
 3111 03cc 4E000000 		.4byte	.LCFI4-.Ltext0
 3112 03d0 60000000 		.4byte	.LFE20-.Ltext0
 3113 03d4 0200     		.2byte	0x2
 3114 03d6 7D       		.byte	0x7d
 3115 03d7 08       		.sleb128 8
 3116 03d8 00000000 		.4byte	0
 3117 03dc 00000000 		.4byte	0
 3118              		.section	.debug_aranges,"",%progbits
 3119 0000 1C000000 		.4byte	0x1c
 3120 0004 0200     		.2byte	0x2
 3121 0006 00000000 		.4byte	.Ldebug_info0
 3122 000a 04       		.byte	0x4
 3123 000b 00       		.byte	0
 3124 000c 0000     		.2byte	0
ARM GAS  G:\Users\Jaxb\AppData\Local\Temp\ccV5xqmv.s 			page 61


 3125 000e 0000     		.2byte	0
 3126 0010 00000000 		.4byte	.Ltext0
 3127 0014 90040000 		.4byte	.Letext0-.Ltext0
 3128 0018 00000000 		.4byte	0
 3129 001c 00000000 		.4byte	0
 3130              		.section	.debug_line,"",%progbits
 3131              	.Ldebug_line0:
 3132 0000 05020000 		.section	.debug_str,"MS",%progbits,1
 3132      02000301 
 3132      00000201 
 3132      FB0E0D00 
 3132      01010101 
 3133              	.LASF26:
 3134 0000 5441534B 		.ascii	"TASK_PRIO_TYPE\000"
 3134      5F505249 
 3134      4F5F5459 
 3134      504500
 3135              	.LASF2:
 3136 000f 53544154 		.ascii	"STATE_SUSPEND_NORMAL\000"
 3136      455F5355 
 3136      5350454E 
 3136      445F4E4F 
 3136      524D414C 
 3137              	.LASF28:
 3138 0024 6C697374 		.ascii	"list_head\000"
 3138      5F686561 
 3138      6400
 3139              	.LASF59:
 3140 002e 5F5F7274 		.ascii	"__rtmsym_task_creat_ready_name\000"
 3140      6D73796D 
 3140      5F746173 
 3140      6B5F6372 
 3140      6561745F 
 3141              	.LASF52:
 3142 004d 675F7363 		.ascii	"g_schedule_lock\000"
 3142      68656475 
 3142      6C655F6C 
 3142      6F636B00 
 3143              	.LASF12:
 3144 005d 73686F72 		.ascii	"short int\000"
 3144      7420696E 
 3144      7400
 3145              	.LASF54:
 3146 0067 5F5F7274 		.ascii	"__rtmsym_schedule\000"
 3146      6D73796D 
 3146      5F736368 
 3146      6564756C 
 3146      6500
 3147              	.LASF5:
 3148 0079 53544154 		.ascii	"STATE_WAIT_MESSAGE_QUEUE_FOREVER\000"
 3148      455F5741 
 3148      49545F4D 
 3148      45535341 
 3148      47455F51 
 3149              	.LASF16:
 3150 009a 55494E54 		.ascii	"UINT32\000"
 3150      333200
ARM GAS  G:\Users\Jaxb\AppData\Local\Temp\ccV5xqmv.s 			page 62


 3151              	.LASF57:
 3152 00a1 5F5F7274 		.ascii	"__rtmsym_sys_suspend_name\000"
 3152      6D73796D 
 3152      5F737973 
 3152      5F737573 
 3152      70656E64 
 3153              	.LASF25:
 3154 00bb 53544143 		.ascii	"STACK_TYPE\000"
 3154      4B5F5459 
 3154      504500
 3155              	.LASF81:
 3156 00c6 5461736B 		.ascii	"Task_State\000"
 3156      5F537461 
 3156      746500
 3157              	.LASF7:
 3158 00d1 53544154 		.ascii	"STATE_PUT_MESSAGE_QUEUE_FOREVER\000"
 3158      455F5055 
 3158      545F4D45 
 3158      53534147 
 3158      455F5155 
 3159              	.LASF75:
 3160 00f1 7379735F 		.ascii	"sys_delay\000"
 3160      64656C61 
 3160      7900
 3161              	.LASF85:
 3162 00fb 73636865 		.ascii	"schedule\000"
 3162      64756C65 
 3162      00
 3163              	.LASF46:
 3164 0104 6B615F6D 		.ascii	"ka_module_symtab\000"
 3164      6F64756C 
 3164      655F7379 
 3164      6D746162 
 3164      00
 3165              	.LASF79:
 3166 0115 2E2E2F2E 		.ascii	"../../source/src/kernel/OS_CORE/schedule/os_schedul"
 3166      2E2F736F 
 3166      75726365 
 3166      2F737263 
 3166      2F6B6572 
 3167 0148 652E6300 		.ascii	"e.c\000"
 3168              	.LASF53:
 3169 014c 5F5F7274 		.ascii	"__rtmsym_schedule_name\000"
 3169      6D73796D 
 3169      5F736368 
 3169      6564756C 
 3169      655F6E61 
 3170              	.LASF32:
 3171 0163 73746163 		.ascii	"stack_end\000"
 3171      6B5F656E 
 3171      6400
 3172              	.LASF4:
 3173 016d 53544154 		.ascii	"STATE_WAIT_MCB_TIMEOUT\000"
 3173      455F5741 
 3173      49545F4D 
 3173      43425F54 
 3173      494D454F 
ARM GAS  G:\Users\Jaxb\AppData\Local\Temp\ccV5xqmv.s 			page 63


 3174              	.LASF76:
 3175 0184 64656C61 		.ascii	"delay_ticks_num\000"
 3175      795F7469 
 3175      636B735F 
 3175      6E756D00 
 3176              	.LASF74:
 3177 0194 5F737973 		.ascii	"_sys_suspend\000"
 3177      5F737573 
 3177      70656E64 
 3177      00
 3178              	.LASF80:
 3179 01a1 463A5C6B 		.ascii	"F:\\kaka\\KAKAOS\\C\\windows\\Project\\RVMDK\243\250"
 3179      616B615C 
 3179      4B414B41 
 3179      4F535C43 
 3179      5C77696E 
 3180 01c9 757635A3 		.ascii	"uv5\243\251\000"
 3180      A900
 3181              	.LASF13:
 3182 01cf 6C6F6E67 		.ascii	"long long int\000"
 3182      206C6F6E 
 3182      6720696E 
 3182      7400
 3183              	.LASF40:
 3184 01dd 74696D65 		.ascii	"timeslice_hope_time\000"
 3184      736C6963 
 3184      655F686F 
 3184      70655F74 
 3184      696D6500 
 3185              	.LASF33:
 3186 01f1 72657365 		.ascii	"reserve_prio\000"
 3186      7276655F 
 3186      7072696F 
 3186      00
 3187              	.LASF47:
 3188 01fe 61646472 		.ascii	"addr\000"
 3188      00
 3189              	.LASF71:
 3190 0203 7461736B 		.ascii	"task_creat_ready\000"
 3190      5F637265 
 3190      61745F72 
 3190      65616479 
 3190      00
 3191              	.LASF15:
 3192 0214 5441534B 		.ascii	"TASK_STATE\000"
 3192      5F535441 
 3192      544500
 3193              	.LASF55:
 3194 021f 5F5F7274 		.ascii	"__rtmsym_sys_delay_name\000"
 3194      6D73796D 
 3194      5F737973 
 3194      5F64656C 
 3194      61795F6E 
 3195              	.LASF72:
 3196 0237 7379735F 		.ascii	"sys_suspend\000"
 3196      73757370 
 3196      656E6400 
ARM GAS  G:\Users\Jaxb\AppData\Local\Temp\ccV5xqmv.s 			page 64


 3197              	.LASF39:
 3198 0243 6E616D65 		.ascii	"name\000"
 3198      00
 3199              	.LASF62:
 3200 0248 5F5F7274 		.ascii	"__rtmsym_task_init_ready\000"
 3200      6D73796D 
 3200      5F746173 
 3200      6B5F696E 
 3200      69745F72 
 3201              	.LASF10:
 3202 0261 756E7369 		.ascii	"unsigned char\000"
 3202      676E6564 
 3202      20636861 
 3202      7200
 3203              	.LASF43:
 3204 026f 64796E61 		.ascii	"dynamic_module_ptr\000"
 3204      6D69635F 
 3204      6D6F6475 
 3204      6C655F70 
 3204      747200
 3205              	.LASF0:
 3206 0282 53544154 		.ascii	"STATE_READY\000"
 3206      455F5245 
 3206      41445900 
 3207              	.LASF1:
 3208 028e 53544154 		.ascii	"STATE_DELAY\000"
 3208      455F4445 
 3208      4C415900 
 3209              	.LASF42:
 3210 029a 61747472 		.ascii	"attribution\000"
 3210      69627574 
 3210      696F6E00 
 3211              	.LASF11:
 3212 02a6 7369676E 		.ascii	"signed char\000"
 3212      65642063 
 3212      68617200 
 3213              	.LASF19:
 3214 02b2 6C6F6E67 		.ascii	"long long unsigned int\000"
 3214      206C6F6E 
 3214      6720756E 
 3214      7369676E 
 3214      65642069 
 3215              	.LASF17:
 3216 02c9 756E7369 		.ascii	"unsigned int\000"
 3216      676E6564 
 3216      20696E74 
 3216      00
 3217              	.LASF51:
 3218 02d6 675F7469 		.ascii	"g_time_tick_count\000"
 3218      6D655F74 
 3218      69636B5F 
 3218      636F756E 
 3218      7400
 3219              	.LASF77:
 3220 02e8 5F737973 		.ascii	"_sys_delay\000"
 3220      5F64656C 
 3220      617900
ARM GAS  G:\Users\Jaxb\AppData\Local\Temp\ccV5xqmv.s 			page 65


 3221              	.LASF30:
 3222 02f3 73746163 		.ascii	"stack\000"
 3222      6B00
 3223              	.LASF37:
 3224 02f9 73616D65 		.ascii	"same_prio_list\000"
 3224      5F707269 
 3224      6F5F6C69 
 3224      737400
 3225              	.LASF86:
 3226 0308 5F736368 		.ascii	"_schedule\000"
 3226      6564756C 
 3226      6500
 3227              	.LASF82:
 3228 0312 64796E61 		.ascii	"dynamic_module\000"
 3228      6D69635F 
 3228      6D6F6475 
 3228      6C6500
 3229              	.LASF6:
 3230 0321 53544154 		.ascii	"STATE_WAIT_MESSAGE_QUEUE_TIMEOUT\000"
 3230      455F5741 
 3230      49545F4D 
 3230      45535341 
 3230      47455F51 
 3231              	.LASF84:
 3232 0342 5F746173 		.ascii	"_task_creat_ready\000"
 3232      6B5F6372 
 3232      6561745F 
 3232      72656164 
 3232      7900
 3233              	.LASF45:
 3234 0354 63686172 		.ascii	"char\000"
 3234      00
 3235              	.LASF67:
 3236 0359 66756E63 		.ascii	"function\000"
 3236      74696F6E 
 3236      00
 3237              	.LASF8:
 3238 0362 53544154 		.ascii	"STATE_PUT_MESSAGE_QUEUE_TIMEOUT\000"
 3238      455F5055 
 3238      545F4D45 
 3238      53534147 
 3238      455F5155 
 3239              	.LASF14:
 3240 0382 73686F72 		.ascii	"short unsigned int\000"
 3240      7420756E 
 3240      7369676E 
 3240      65642069 
 3240      6E7400
 3241              	.LASF22:
 3242 0395 4350555F 		.ascii	"CPU_INT32U\000"
 3242      494E5433 
 3242      325500
 3243              	.LASF58:
 3244 03a0 5F5F7274 		.ascii	"__rtmsym_sys_suspend\000"
 3244      6D73796D 
 3244      5F737973 
 3244      5F737573 
ARM GAS  G:\Users\Jaxb\AppData\Local\Temp\ccV5xqmv.s 			page 66


 3244      70656E64 
 3245              	.LASF64:
 3246 03b5 7379735F 		.ascii	"sys_schedule_lock\000"
 3246      73636865 
 3246      64756C65 
 3246      5F6C6F63 
 3246      6B00
 3247              	.LASF60:
 3248 03c7 5F5F7274 		.ascii	"__rtmsym_task_creat_ready\000"
 3248      6D73796D 
 3248      5F746173 
 3248      6B5F6372 
 3248      6561745F 
 3249              	.LASF50:
 3250 03e1 4F535443 		.ascii	"OSTCBHighRdyPtr\000"
 3250      42486967 
 3250      68526479 
 3250      50747200 
 3251              	.LASF56:
 3252 03f1 5F5F7274 		.ascii	"__rtmsym_sys_delay\000"
 3252      6D73796D 
 3252      5F737973 
 3252      5F64656C 
 3252      617900
 3253              	.LASF23:
 3254 0404 4350555F 		.ascii	"CPU_REG32\000"
 3254      52454733 
 3254      3200
 3255              	.LASF83:
 3256 040e 7379735F 		.ascii	"sys_schedule_islock\000"
 3256      73636865 
 3256      64756C65 
 3256      5F69736C 
 3256      6F636B00 
 3257              	.LASF36:
 3258 0422 64656C61 		.ascii	"delay_heap_position\000"
 3258      795F6865 
 3258      61705F70 
 3258      6F736974 
 3258      696F6E00 
 3259              	.LASF34:
 3260 0436 7461736B 		.ascii	"task_state\000"
 3260      5F737461 
 3260      746500
 3261              	.LASF41:
 3262 0441 74696D65 		.ascii	"timeslice_rest_time\000"
 3262      736C6963 
 3262      655F7265 
 3262      73745F74 
 3262      696D6500 
 3263              	.LASF73:
 3264 0455 73746174 		.ascii	"state\000"
 3264      6500
 3265              	.LASF68:
 3266 045b 70617261 		.ascii	"para\000"
 3266      00
 3267              	.LASF3:
ARM GAS  G:\Users\Jaxb\AppData\Local\Temp\ccV5xqmv.s 			page 67


 3268 0460 53544154 		.ascii	"STATE_WAIT_MCB_FOREVER\000"
 3268      455F5741 
 3268      49545F4D 
 3268      43425F46 
 3268      4F524556 
 3269              	.LASF29:
 3270 0477 7461736B 		.ascii	"task_control_block_struct\000"
 3270      5F636F6E 
 3270      74726F6C 
 3270      5F626C6F 
 3270      636B5F73 
 3271              	.LASF31:
 3272 0491 73746163 		.ascii	"stack_size\000"
 3272      6B5F7369 
 3272      7A6500
 3273              	.LASF61:
 3274 049c 5F5F7274 		.ascii	"__rtmsym_task_init_ready_name\000"
 3274      6D73796D 
 3274      5F746173 
 3274      6B5F696E 
 3274      69745F72 
 3275              	.LASF66:
 3276 04ba 5443425F 		.ascii	"TCB_ptr\000"
 3276      70747200 
 3277              	.LASF70:
 3278 04c2 5F746173 		.ascii	"_task_init_ready\000"
 3278      6B5F696E 
 3278      69745F72 
 3278      65616479 
 3278      00
 3279              	.LASF27:
 3280 04d3 66756E63 		.ascii	"functionptr\000"
 3280      74696F6E 
 3280      70747200 
 3281              	.LASF38:
 3282 04df 73757370 		.ascii	"suspend_list\000"
 3282      656E645F 
 3282      6C697374 
 3282      00
 3283              	.LASF48:
 3284 04ec 675F696E 		.ascii	"g_interrupt_count\000"
 3284      74657272 
 3284      7570745F 
 3284      636F756E 
 3284      7400
 3285              	.LASF65:
 3286 04fe 6370755F 		.ascii	"cpu_sr\000"
 3286      737200
 3287              	.LASF78:
 3288 0505 474E5520 		.ascii	"GNU C11 7.3.1 20180622 (release) [ARM/embedded-7-br"
 3288      43313120 
 3288      372E332E 
 3288      31203230 
 3288      31383036 
 3289 0538 616E6368 		.ascii	"anch revision 261907] -mcpu=cortex-m3 -mthumb -mapc"
 3289      20726576 
 3289      6973696F 
ARM GAS  G:\Users\Jaxb\AppData\Local\Temp\ccV5xqmv.s 			page 68


 3289      6E203236 
 3289      31393037 
 3290 056b 732D6672 		.ascii	"s-frame -mthumb-interwork -mcpu=cortex-m3 -mthumb -"
 3290      616D6520 
 3290      2D6D7468 
 3290      756D622D 
 3290      696E7465 
 3291 059e 67647761 		.ascii	"gdwarf-2 -O0\000"
 3291      72662D32 
 3291      202D4F30 
 3291      00
 3292              	.LASF63:
 3293 05ab 7379735F 		.ascii	"sys_schedule_unlock\000"
 3293      73636865 
 3293      64756C65 
 3293      5F756E6C 
 3293      6F636B00 
 3294              	.LASF9:
 3295 05bf 53544154 		.ascii	"STATE_WAIT_MUTEX_FOREVER\000"
 3295      455F5741 
 3295      49545F4D 
 3295      55544558 
 3295      5F464F52 
 3296              	.LASF21:
 3297 05d8 70726576 		.ascii	"prev\000"
 3297      00
 3298              	.LASF24:
 3299 05dd 4350555F 		.ascii	"CPU_SR\000"
 3299      535200
 3300              	.LASF44:
 3301 05e4 64656C61 		.ascii	"delay_reach_time\000"
 3301      795F7265 
 3301      6163685F 
 3301      74696D65 
 3301      00
 3302              	.LASF18:
 3303 05f5 55494E54 		.ascii	"UINT64\000"
 3303      363400
 3304              	.LASF35:
 3305 05fc 7072696F 		.ascii	"prio\000"
 3305      00
 3306              	.LASF49:
 3307 0601 4F535443 		.ascii	"OSTCBCurPtr\000"
 3307      42437572 
 3307      50747200 
 3308              	.LASF20:
 3309 060d 6E657874 		.ascii	"next\000"
 3309      00
 3310              	.LASF69:
 3311 0612 7461736B 		.ascii	"task_init_ready\000"
 3311      5F696E69 
 3311      745F7265 
 3311      61647900 
 3312              		.ident	"GCC: (GNU Tools for Arm Embedded Processors 7-2018-q2-update) 7.3.1 20180622 (release) [AR
ARM GAS  G:\Users\Jaxb\AppData\Local\Temp\ccV5xqmv.s 			page 69


DEFINED SYMBOLS
                            *ABS*:00000000 os_schedule.c
G:\Users\Jaxb\AppData\Local\Temp\ccV5xqmv.s:20     .bss:00000000 g_schedule_lock
G:\Users\Jaxb\AppData\Local\Temp\ccV5xqmv.s:17     .bss:00000000 $d
G:\Users\Jaxb\AppData\Local\Temp\ccV5xqmv.s:23     .text:00000000 $t
G:\Users\Jaxb\AppData\Local\Temp\ccV5xqmv.s:29     .text:00000000 _schedule
G:\Users\Jaxb\AppData\Local\Temp\ccV5xqmv.s:102    .text:00000050 $d
G:\Users\Jaxb\AppData\Local\Temp\ccV5xqmv.s:109    .text:00000060 $t
G:\Users\Jaxb\AppData\Local\Temp\ccV5xqmv.s:116    .text:00000060 schedule
G:\Users\Jaxb\AppData\Local\Temp\ccV5xqmv.s:143    .rodata.name:00000000 __rtmsym_schedule_name
G:\Users\Jaxb\AppData\Local\Temp\ccV5xqmv.s:140    .rodata.name:00000000 $d
G:\Users\Jaxb\AppData\Local\Temp\ccV5xqmv.s:150    .RTMSymTab:00000000 __rtmsym_schedule
G:\Users\Jaxb\AppData\Local\Temp\ccV5xqmv.s:147    .RTMSymTab:00000000 $d
G:\Users\Jaxb\AppData\Local\Temp\ccV5xqmv.s:161    .text:0000006c _sys_delay
G:\Users\Jaxb\AppData\Local\Temp\ccV5xqmv.s:257    .text:00000100 $d
G:\Users\Jaxb\AppData\Local\Temp\ccV5xqmv.s:264    .rodata:00000000 $d
G:\Users\Jaxb\AppData\Local\Temp\ccV5xqmv.s:277    .text:0000010c $t
G:\Users\Jaxb\AppData\Local\Temp\ccV5xqmv.s:284    .text:0000010c sys_delay
G:\Users\Jaxb\AppData\Local\Temp\ccV5xqmv.s:388    .text:00000190 $d
G:\Users\Jaxb\AppData\Local\Temp\ccV5xqmv.s:399    .rodata.name:0000000c __rtmsym_sys_delay_name
G:\Users\Jaxb\AppData\Local\Temp\ccV5xqmv.s:406    .RTMSymTab:00000008 __rtmsym_sys_delay
G:\Users\Jaxb\AppData\Local\Temp\ccV5xqmv.s:410    .text:0000019c $t
G:\Users\Jaxb\AppData\Local\Temp\ccV5xqmv.s:417    .text:0000019c _sys_suspend
G:\Users\Jaxb\AppData\Local\Temp\ccV5xqmv.s:490    .text:000001f4 $d
G:\Users\Jaxb\AppData\Local\Temp\ccV5xqmv.s:495    .text:000001fc $t
G:\Users\Jaxb\AppData\Local\Temp\ccV5xqmv.s:502    .text:000001fc sys_suspend
G:\Users\Jaxb\AppData\Local\Temp\ccV5xqmv.s:592    .text:00000268 $d
G:\Users\Jaxb\AppData\Local\Temp\ccV5xqmv.s:602    .rodata.name:00000018 __rtmsym_sys_suspend_name
G:\Users\Jaxb\AppData\Local\Temp\ccV5xqmv.s:609    .RTMSymTab:00000010 __rtmsym_sys_suspend
G:\Users\Jaxb\AppData\Local\Temp\ccV5xqmv.s:613    .text:00000270 $t
G:\Users\Jaxb\AppData\Local\Temp\ccV5xqmv.s:619    .text:00000270 _task_creat_ready
G:\Users\Jaxb\AppData\Local\Temp\ccV5xqmv.s:716    .text:000002e0 task_creat_ready
G:\Users\Jaxb\AppData\Local\Temp\ccV5xqmv.s:794    .text:0000033c $d
G:\Users\Jaxb\AppData\Local\Temp\ccV5xqmv.s:803    .rodata.name:00000024 __rtmsym_task_creat_ready_name
G:\Users\Jaxb\AppData\Local\Temp\ccV5xqmv.s:810    .RTMSymTab:00000018 __rtmsym_task_creat_ready
G:\Users\Jaxb\AppData\Local\Temp\ccV5xqmv.s:814    .text:00000340 $t
G:\Users\Jaxb\AppData\Local\Temp\ccV5xqmv.s:821    .text:00000340 _task_init_ready
G:\Users\Jaxb\AppData\Local\Temp\ccV5xqmv.s:915    .text:000003b2 task_init_ready
G:\Users\Jaxb\AppData\Local\Temp\ccV5xqmv.s:997    .text:00000414 $d
G:\Users\Jaxb\AppData\Local\Temp\ccV5xqmv.s:1006   .rodata.name:00000038 __rtmsym_task_init_ready_name
G:\Users\Jaxb\AppData\Local\Temp\ccV5xqmv.s:1013   .RTMSymTab:00000020 __rtmsym_task_init_ready
G:\Users\Jaxb\AppData\Local\Temp\ccV5xqmv.s:1017   .text:00000418 $t
G:\Users\Jaxb\AppData\Local\Temp\ccV5xqmv.s:1024   .text:00000418 sys_schedule_lock
G:\Users\Jaxb\AppData\Local\Temp\ccV5xqmv.s:1069   .text:00000440 $d
G:\Users\Jaxb\AppData\Local\Temp\ccV5xqmv.s:1073   .text:00000444 $t
G:\Users\Jaxb\AppData\Local\Temp\ccV5xqmv.s:1080   .text:00000444 sys_schedule_unlock
G:\Users\Jaxb\AppData\Local\Temp\ccV5xqmv.s:1125   .text:0000046c $d
G:\Users\Jaxb\AppData\Local\Temp\ccV5xqmv.s:1129   .text:00000470 $t
G:\Users\Jaxb\AppData\Local\Temp\ccV5xqmv.s:1136   .text:00000470 sys_schedule_islock
G:\Users\Jaxb\AppData\Local\Temp\ccV5xqmv.s:1172   .text:0000048c $d

UNDEFINED SYMBOLS
CPU_SR_Save
_get_highest_prio_ready_TCB
CPU_SR_Restore
OSTCBHighRdyPtr
OSTCBCurPtr
ARM GAS  G:\Users\Jaxb\AppData\Local\Temp\ccV5xqmv.s 			page 70


_delete_TCB_from_ready
_insert_into_delay_heap
_get_tick
g_interrupt_count
g_time_tick_count
_ASSERT
ka_printf
_insert_into_suspend_list
_task_creat
_insert_ready_TCB
_task_init
