ARM GAS  G:\Users\Jaxb\AppData\Local\Temp\cc9mxqkM.s 			page 1


   1              		.cpu cortex-m3
   2              		.eabi_attribute 20, 1
   3              		.eabi_attribute 21, 1
   4              		.eabi_attribute 23, 3
   5              		.eabi_attribute 24, 1
   6              		.eabi_attribute 25, 1
   7              		.eabi_attribute 26, 1
   8              		.eabi_attribute 30, 2
   9              		.eabi_attribute 34, 1
  10              		.eabi_attribute 18, 4
  11              		.file	"os_schedule.c"
  12              		.text
  13              	.Ltext0:
  14              		.cfi_sections	.debug_frame
  15              		.align	1
  16              		.p2align 2,,3
  17              		.syntax unified
  18              		.thumb
  19              		.thumb_func
  20              		.fpu softvfp
  21              		.type	schedule.part.0, %function
  22              	schedule.part.0:
  23              	.LFB20:
  24              		.file 1 "../../source/src/user/OS_CORE/schedule/os_schedule.c"
   1:../../source/src/user/OS_CORE/schedule/os_schedule.c **** #include <os_schedule.h>
   2:../../source/src/user/OS_CORE/schedule/os_schedule.c **** #include <os_cpu.h>
   3:../../source/src/user/OS_CORE/schedule/os_schedule.c **** #include <os_delay.h>
   4:../../source/src/user/OS_CORE/schedule/os_schedule.c **** #include <TCB.h>
   5:../../source/src/user/OS_CORE/schedule/os_schedule.c **** #include <myassert.h>
   6:../../source/src/user/OS_CORE/schedule/os_schedule.c **** #include <os_ready.h>
   7:../../source/src/user/OS_CORE/schedule/os_schedule.c **** #include <os_suspend.h>
   8:../../source/src/user/OS_CORE/schedule/os_schedule.c **** #include <os_TCB_list.h>
   9:../../source/src/user/OS_CORE/schedule/os_schedule.c **** #include <osinit.h>
  10:../../source/src/user/OS_CORE/schedule/os_schedule.c **** #include <myMicroLIB.h>
  11:../../source/src/user/OS_CORE/schedule/os_schedule.c **** #include <os_time.h>
  12:../../source/src/user/OS_CORE/schedule/os_schedule.c **** 
  13:../../source/src/user/OS_CORE/schedule/os_schedule.c **** extern volatile TCB *OSTCBCurPtr;
  14:../../source/src/user/OS_CORE/schedule/os_schedule.c **** extern volatile TCB *OSTCBHighRdyPtr;
  15:../../source/src/user/OS_CORE/schedule/os_schedule.c **** extern volatile int g_interrupt_count;
  16:../../source/src/user/OS_CORE/schedule/os_schedule.c **** extern UINT64 g_time_tick_count;
  17:../../source/src/user/OS_CORE/schedule/os_schedule.c **** 
  18:../../source/src/user/OS_CORE/schedule/os_schedule.c **** #if PRECISE_TIME_DELAY
  19:../../source/src/user/OS_CORE/schedule/os_schedule.c **** 	extern UINT64 num_pre_tick;
  20:../../source/src/user/OS_CORE/schedule/os_schedule.c **** #endif
  21:../../source/src/user/OS_CORE/schedule/os_schedule.c **** 
  22:../../source/src/user/OS_CORE/schedule/os_schedule.c **** volatile int g_schedule_lock = 0;// 0:do not lock;  !0: lock
  23:../../source/src/user/OS_CORE/schedule/os_schedule.c **** 
  24:../../source/src/user/OS_CORE/schedule/os_schedule.c **** void schedule(void)
  25              		.loc 1 24 0
  26              		.cfi_startproc
  27              		@ args = 0, pretend = 0, frame = 0
  28              		@ frame_needed = 0, uses_anonymous_args = 0
  29              	.LVL0:
  30 0000 10B5     		push	{r4, lr}
  31              	.LCFI0:
  32              		.cfi_def_cfa_offset 8
  33              		.cfi_offset 4, -8
ARM GAS  G:\Users\Jaxb\AppData\Local\Temp\cc9mxqkM.s 			page 2


  34              		.cfi_offset 14, -4
  25:../../source/src/user/OS_CORE/schedule/os_schedule.c **** {
  26:../../source/src/user/OS_CORE/schedule/os_schedule.c **** 	if(g_schedule_lock)
  27:../../source/src/user/OS_CORE/schedule/os_schedule.c **** 		return ;
  28:../../source/src/user/OS_CORE/schedule/os_schedule.c **** 	CPU_SR_ALLOC();
  29:../../source/src/user/OS_CORE/schedule/os_schedule.c **** 	CPU_CRITICAL_ENTER();
  35              		.loc 1 29 0
  36 0002 FFF7FEFF 		bl	CPU_SR_Save
  37              	.LVL1:
  38 0006 0446     		mov	r4, r0
  39              	.LVL2:
  30:../../source/src/user/OS_CORE/schedule/os_schedule.c **** 	OSTCBHighRdyPtr = get_highest_prio_ready_TCB();
  40              		.loc 1 30 0
  41 0008 FFF7FEFF 		bl	get_highest_prio_ready_TCB
  42              	.LVL3:
  31:../../source/src/user/OS_CORE/schedule/os_schedule.c **** 	if(OSTCBHighRdyPtr != OSTCBCurPtr)
  43              		.loc 1 31 0
  44 000c 094B     		ldr	r3, .L4
  30:../../source/src/user/OS_CORE/schedule/os_schedule.c **** 	OSTCBHighRdyPtr = get_highest_prio_ready_TCB();
  45              		.loc 1 30 0
  46 000e 0A4A     		ldr	r2, .L4+4
  47              		.loc 1 31 0
  48 0010 1B68     		ldr	r3, [r3]
  30:../../source/src/user/OS_CORE/schedule/os_schedule.c **** 	OSTCBHighRdyPtr = get_highest_prio_ready_TCB();
  49              		.loc 1 30 0
  50 0012 1060     		str	r0, [r2]
  51              		.loc 1 31 0
  52 0014 9842     		cmp	r0, r3
  53 0016 08D0     		beq	.L2
  32:../../source/src/user/OS_CORE/schedule/os_schedule.c **** 	{
  33:../../source/src/user/OS_CORE/schedule/os_schedule.c **** 		OSIntCtxSw();
  54              		.loc 1 33 0
  55 0018 4FF08052 		mov	r2, #268435456
  56 001c 074B     		ldr	r3, .L4+8
  34:../../source/src/user/OS_CORE/schedule/os_schedule.c **** 		CPU_CRITICAL_EXIT();
  57              		.loc 1 34 0
  58 001e 2046     		mov	r0, r4
  35:../../source/src/user/OS_CORE/schedule/os_schedule.c **** 		return ;
  36:../../source/src/user/OS_CORE/schedule/os_schedule.c **** 	}
  37:../../source/src/user/OS_CORE/schedule/os_schedule.c **** 	CPU_CRITICAL_EXIT();
  38:../../source/src/user/OS_CORE/schedule/os_schedule.c **** 	return ;
  39:../../source/src/user/OS_CORE/schedule/os_schedule.c **** }
  59              		.loc 1 39 0
  60 0020 BDE81040 		pop	{r4, lr}
  61              	.LCFI1:
  62              		.cfi_remember_state
  63              		.cfi_restore 14
  64              		.cfi_restore 4
  65              		.cfi_def_cfa_offset 0
  66              	.LVL4:
  33:../../source/src/user/OS_CORE/schedule/os_schedule.c **** 		CPU_CRITICAL_EXIT();
  67              		.loc 1 33 0
  68 0024 1A60     		str	r2, [r3]
  34:../../source/src/user/OS_CORE/schedule/os_schedule.c **** 		CPU_CRITICAL_EXIT();
  69              		.loc 1 34 0
  70 0026 FFF7FEBF 		b	CPU_SR_Restore
  71              	.LVL5:
ARM GAS  G:\Users\Jaxb\AppData\Local\Temp\cc9mxqkM.s 			page 3


  72              	.L2:
  73              	.LCFI2:
  74              		.cfi_restore_state
  37:../../source/src/user/OS_CORE/schedule/os_schedule.c **** 	return ;
  75              		.loc 1 37 0
  76 002a 2046     		mov	r0, r4
  77              		.loc 1 39 0
  78 002c BDE81040 		pop	{r4, lr}
  79              	.LCFI3:
  80              		.cfi_restore 14
  81              		.cfi_restore 4
  82              		.cfi_def_cfa_offset 0
  83              	.LVL6:
  37:../../source/src/user/OS_CORE/schedule/os_schedule.c **** 	return ;
  84              		.loc 1 37 0
  85 0030 FFF7FEBF 		b	CPU_SR_Restore
  86              	.LVL7:
  87              	.L5:
  88              		.align	2
  89              	.L4:
  90 0034 00000000 		.word	OSTCBCurPtr
  91 0038 00000000 		.word	OSTCBHighRdyPtr
  92 003c 04ED00E0 		.word	-536810236
  93              		.cfi_endproc
  94              	.LFE20:
  95              		.size	schedule.part.0, .-schedule.part.0
  96              		.align	1
  97              		.p2align 2,,3
  98              		.global	schedule
  99              		.syntax unified
 100              		.thumb
 101              		.thumb_func
 102              		.fpu softvfp
 103              		.type	schedule, %function
 104              	schedule:
 105              	.LFB12:
  25:../../source/src/user/OS_CORE/schedule/os_schedule.c **** 	if(g_schedule_lock)
 106              		.loc 1 25 0
 107              		.cfi_startproc
 108              		@ args = 0, pretend = 0, frame = 0
 109              		@ frame_needed = 0, uses_anonymous_args = 0
 110              		@ link register save eliminated.
  26:../../source/src/user/OS_CORE/schedule/os_schedule.c **** 		return ;
 111              		.loc 1 26 0
 112 0040 024B     		ldr	r3, .L9
 113 0042 1B68     		ldr	r3, [r3]
 114 0044 03B1     		cbz	r3, .L8
 115              		.loc 1 39 0
 116 0046 7047     		bx	lr
 117              	.L8:
 118 0048 DAE7     		b	schedule.part.0
 119              	.LVL8:
 120              	.L10:
 121 004a 00BF     		.align	2
 122              	.L9:
 123 004c 00000000 		.word	.LANCHOR0
 124              		.cfi_endproc
ARM GAS  G:\Users\Jaxb\AppData\Local\Temp\cc9mxqkM.s 			page 4


 125              	.LFE12:
 126              		.size	schedule, .-schedule
 127              		.align	1
 128              		.p2align 2,,3
 129              		.global	sys_delay
 130              		.syntax unified
 131              		.thumb
 132              		.thumb_func
 133              		.fpu softvfp
 134              		.type	sys_delay, %function
 135              	sys_delay:
 136              	.LFB13:
  40:../../source/src/user/OS_CORE/schedule/os_schedule.c **** 
  41:../../source/src/user/OS_CORE/schedule/os_schedule.c **** #if PRECISE_TIME_DELAY
  42:../../source/src/user/OS_CORE/schedule/os_schedule.c **** void delay_ms(unsigned int ms)
  43:../../source/src/user/OS_CORE/schedule/os_schedule.c **** {
  44:../../source/src/user/OS_CORE/schedule/os_schedule.c **** #define MS_PER_TICK (1000u/TICK_PER_SEC)
  45:../../source/src/user/OS_CORE/schedule/os_schedule.c **** 	UINT64 num = 0.2 * (ms * num_pre_tick / MS_PER_TICK);
  46:../../source/src/user/OS_CORE/schedule/os_schedule.c **** 	while(--num);
  47:../../source/src/user/OS_CORE/schedule/os_schedule.c **** }
  48:../../source/src/user/OS_CORE/schedule/os_schedule.c **** 
  49:../../source/src/user/OS_CORE/schedule/os_schedule.c **** void delay_us(unsigned int us)
  50:../../source/src/user/OS_CORE/schedule/os_schedule.c **** {
  51:../../source/src/user/OS_CORE/schedule/os_schedule.c **** #define US_PER_TICK (1000000u/TICK_PER_SEC)
  52:../../source/src/user/OS_CORE/schedule/os_schedule.c **** 	UINT64 num = 0.2 * (us * num_pre_tick / US_PER_TICK);
  53:../../source/src/user/OS_CORE/schedule/os_schedule.c **** 	while(--num);
  54:../../source/src/user/OS_CORE/schedule/os_schedule.c **** }
  55:../../source/src/user/OS_CORE/schedule/os_schedule.c **** #endif
  56:../../source/src/user/OS_CORE/schedule/os_schedule.c **** 
  57:../../source/src/user/OS_CORE/schedule/os_schedule.c **** int sys_delay(unsigned int delay_ticks_num,TASK_STATE state)
  58:../../source/src/user/OS_CORE/schedule/os_schedule.c **** {
 137              		.loc 1 58 0
 138              		.cfi_startproc
 139              		@ args = 0, pretend = 0, frame = 0
 140              		@ frame_needed = 0, uses_anonymous_args = 0
 141              	.LVL9:
  59:../../source/src/user/OS_CORE/schedule/os_schedule.c **** 	ASSERT((STATE_DELAY == state) 						|| 
 142              		.loc 1 59 0
 143 0050 0929     		cmp	r1, #9
  58:../../source/src/user/OS_CORE/schedule/os_schedule.c **** 	ASSERT((STATE_DELAY == state) 						|| 
 144              		.loc 1 58 0
 145 0052 2DE9F048 		push	{r4, r5, r6, r7, fp, lr}
 146              	.LCFI4:
 147              		.cfi_def_cfa_offset 24
 148              		.cfi_offset 4, -24
 149              		.cfi_offset 5, -20
 150              		.cfi_offset 6, -16
 151              		.cfi_offset 7, -12
 152              		.cfi_offset 11, -8
 153              		.cfi_offset 14, -4
  58:../../source/src/user/OS_CORE/schedule/os_schedule.c **** 	ASSERT((STATE_DELAY == state) 						|| 
 154              		.loc 1 58 0
 155 0056 0C46     		mov	r4, r1
 156 0058 0646     		mov	r6, r0
 157              		.loc 1 59 0
 158 005a 2ED9     		bls	.L36
 159              	.L12:
ARM GAS  G:\Users\Jaxb\AppData\Local\Temp\cc9mxqkM.s 			page 5


 160              		.loc 1 59 0 is_stmt 0 discriminator 1
 161 005c 3E21     		movs	r1, #62
 162              	.LVL10:
 163 005e 2E48     		ldr	r0, .L41
 164              	.LVL11:
 165 0060 FFF7FEFF 		bl	_ASSERT
 166              	.LVL12:
  60:../../source/src/user/OS_CORE/schedule/os_schedule.c **** 		   (STATE_WAIT_MCB_TIMEOUT == state) 			|| 
  61:../../source/src/user/OS_CORE/schedule/os_schedule.c **** 		   (STATE_WAIT_MESSAGE_QUEUE_TIMEOUT == state) 	|| 
  62:../../source/src/user/OS_CORE/schedule/os_schedule.c **** 		   (STATE_PUT_MESSAGE_QUEUE_TIMEOUT == state));
  63:../../source/src/user/OS_CORE/schedule/os_schedule.c **** 	ASSERT(0 != delay_ticks_num);
 167              		.loc 1 63 0 is_stmt 1 discriminator 1
 168 0064 002E     		cmp	r6, #0
 169 0066 2FD0     		beq	.L37
 170              	.L14:
  64:../../source/src/user/OS_CORE/schedule/os_schedule.c **** #if CONFIG_PARA_CHECK
  65:../../source/src/user/OS_CORE/schedule/os_schedule.c **** 	if(!((STATE_DELAY == state) || (STATE_WAIT_MCB_TIMEOUT == state) || 
 171              		.loc 1 65 0
 172 0068 022C     		cmp	r4, #2
 173 006a 3FD1     		bne	.L38
 174              	.L21:
 175              	.LVL13:
  66:../../source/src/user/OS_CORE/schedule/os_schedule.c **** 		(STATE_WAIT_MESSAGE_QUEUE_TIMEOUT == state) || (STATE_PUT_MESSAGE_QUEUE_TIMEOUT == state)))
  67:../../source/src/user/OS_CORE/schedule/os_schedule.c **** 	{
  68:../../source/src/user/OS_CORE/schedule/os_schedule.c **** 		OS_ERROR_PARA_MESSAGE_DISPLAY(sys_delay,state);
  69:../../source/src/user/OS_CORE/schedule/os_schedule.c **** 		return -ERROR_VALUELESS_INPUT;
  70:../../source/src/user/OS_CORE/schedule/os_schedule.c **** 	}
  71:../../source/src/user/OS_CORE/schedule/os_schedule.c **** 	if(0 == delay_ticks_num)
  72:../../source/src/user/OS_CORE/schedule/os_schedule.c **** 	{
  73:../../source/src/user/OS_CORE/schedule/os_schedule.c **** 		OS_ERROR_PARA_MESSAGE_DISPLAY(sys_delay,delay_ticks_num);
  74:../../source/src/user/OS_CORE/schedule/os_schedule.c **** 		return -ERROR_VALUELESS_INPUT;
  75:../../source/src/user/OS_CORE/schedule/os_schedule.c **** 	}
  76:../../source/src/user/OS_CORE/schedule/os_schedule.c **** #endif	
  77:../../source/src/user/OS_CORE/schedule/os_schedule.c **** 	CPU_SR_ALLOC();
  78:../../source/src/user/OS_CORE/schedule/os_schedule.c **** 	CPU_CRITICAL_ENTER();
 176              		.loc 1 78 0
 177 006c FFF7FEFF 		bl	CPU_SR_Save
 178              	.LVL14:
  79:../../source/src/user/OS_CORE/schedule/os_schedule.c **** 	if (g_interrupt_count > 0)
 179              		.loc 1 79 0
 180 0070 2A4B     		ldr	r3, .L41+4
  78:../../source/src/user/OS_CORE/schedule/os_schedule.c **** 	if (g_interrupt_count > 0)
 181              		.loc 1 78 0
 182 0072 0746     		mov	r7, r0
 183              	.LVL15:
 184              		.loc 1 79 0
 185 0074 1B68     		ldr	r3, [r3]
 186 0076 002B     		cmp	r3, #0
 187 0078 42DC     		bgt	.L39
  80:../../source/src/user/OS_CORE/schedule/os_schedule.c **** 	{
  81:../../source/src/user/OS_CORE/schedule/os_schedule.c **** 		CPU_CRITICAL_EXIT();
  82:../../source/src/user/OS_CORE/schedule/os_schedule.c **** 		return -ERROR_FUN_USE_IN_INTER;
  83:../../source/src/user/OS_CORE/schedule/os_schedule.c **** 	}
  84:../../source/src/user/OS_CORE/schedule/os_schedule.c **** 	OSTCBCurPtr->delay_reach_time = delay_ticks_num + g_time_tick_count;
 188              		.loc 1 84 0
 189 007a 294B     		ldr	r3, .L41+8
 190 007c 294D     		ldr	r5, .L41+12
ARM GAS  G:\Users\Jaxb\AppData\Local\Temp\cc9mxqkM.s 			page 6


 191 007e D3E90001 		ldrd	r0, [r3]
 192              	.LVL16:
 193 0082 2B68     		ldr	r3, [r5]
 194 0084 10EB060B 		adds	fp, r0, r6
 195 0088 41F1000C 		adc	ip, r1, #0
 196 008c C3E910BC 		strd	fp, [r3, #64]
  85:../../source/src/user/OS_CORE/schedule/os_schedule.c **** 	OSTCBCurPtr->task_state = state;
  86:../../source/src/user/OS_CORE/schedule/os_schedule.c **** 	delete_TCB_from_ready((TCB *)OSTCBCurPtr);
 197              		.loc 1 86 0
 198 0090 1846     		mov	r0, r3
  85:../../source/src/user/OS_CORE/schedule/os_schedule.c **** 	OSTCBCurPtr->task_state = state;
 199              		.loc 1 85 0
 200 0092 1C75     		strb	r4, [r3, #20]
 201              		.loc 1 86 0
 202 0094 FFF7FEFF 		bl	delete_TCB_from_ready
 203              	.LVL17:
  87:../../source/src/user/OS_CORE/schedule/os_schedule.c **** 	insert_into_delay_heap((TCB *)OSTCBCurPtr);
 204              		.loc 1 87 0
 205 0098 2868     		ldr	r0, [r5]
 206 009a FFF7FEFF 		bl	insert_into_delay_heap
 207              	.LVL18:
 208              	.LBB10:
 209              	.LBB11:
  26:../../source/src/user/OS_CORE/schedule/os_schedule.c **** 		return ;
 210              		.loc 1 26 0
 211 009e 224B     		ldr	r3, .L41+16
 212 00a0 1B68     		ldr	r3, [r3]
 213 00a2 53B3     		cbz	r3, .L40
 214              	.L20:
 215              	.LBE11:
 216              	.LBE10:
  88:../../source/src/user/OS_CORE/schedule/os_schedule.c **** 	schedule();
  89:../../source/src/user/OS_CORE/schedule/os_schedule.c **** 	CPU_CRITICAL_EXIT();
 217              		.loc 1 89 0
 218 00a4 3846     		mov	r0, r7
 219 00a6 FFF7FEFF 		bl	CPU_SR_Restore
 220              	.LVL19:
  90:../../source/src/user/OS_CORE/schedule/os_schedule.c **** 	return (unsigned int)(OSTCBCurPtr->delay_reach_time - get_tick());
 221              		.loc 1 90 0
 222 00aa 2B68     		ldr	r3, [r5]
 223 00ac D3E91045 		ldrd	r4, [r3, #64]
 224 00b0 FFF7FEFF 		bl	get_tick
 225              	.LVL20:
 226 00b4 201A     		subs	r0, r4, r0
 227              	.LVL21:
 228              	.L11:
  91:../../source/src/user/OS_CORE/schedule/os_schedule.c **** }
 229              		.loc 1 91 0
 230 00b6 BDE8F088 		pop	{r4, r5, r6, r7, fp, pc}
 231              	.LVL22:
 232              	.L36:
  59:../../source/src/user/OS_CORE/schedule/os_schedule.c **** 		   (STATE_WAIT_MCB_TIMEOUT == state) 			|| 
 233              		.loc 1 59 0
 234 00ba 4FF42973 		mov	r3, #676
 235 00be CB40     		lsrs	r3, r3, r1
 236 00c0 DB07     		lsls	r3, r3, #31
 237 00c2 CBD5     		bpl	.L12
ARM GAS  G:\Users\Jaxb\AppData\Local\Temp\cc9mxqkM.s 			page 7


  63:../../source/src/user/OS_CORE/schedule/os_schedule.c **** #if CONFIG_PARA_CHECK
 238              		.loc 1 63 0
 239 00c4 002E     		cmp	r6, #0
 240 00c6 CFD1     		bne	.L14
 241              	.LVL23:
 242              	.L37:
  63:../../source/src/user/OS_CORE/schedule/os_schedule.c **** #if CONFIG_PARA_CHECK
 243              		.loc 1 63 0 is_stmt 0 discriminator 1
 244 00c8 3F21     		movs	r1, #63
 245 00ca 1348     		ldr	r0, .L41
 246 00cc FFF7FEFF 		bl	_ASSERT
 247              	.LVL24:
  65:../../source/src/user/OS_CORE/schedule/os_schedule.c **** 		(STATE_WAIT_MESSAGE_QUEUE_TIMEOUT == state) || (STATE_PUT_MESSAGE_QUEUE_TIMEOUT == state)))
 248              		.loc 1 65 0 is_stmt 1 discriminator 1
 249 00d0 022C     		cmp	r4, #2
 250 00d2 1AD0     		beq	.L18
  65:../../source/src/user/OS_CORE/schedule/os_schedule.c **** 		(STATE_WAIT_MESSAGE_QUEUE_TIMEOUT == state) || (STATE_PUT_MESSAGE_QUEUE_TIMEOUT == state)))
 251              		.loc 1 65 0 is_stmt 0
 252 00d4 04F0FD03 		and	r3, r4, #253
 253 00d8 052B     		cmp	r3, #5
 254 00da 16D0     		beq	.L18
 255 00dc 092C     		cmp	r4, #9
 256 00de 14D0     		beq	.L18
 257              	.L23:
  68:../../source/src/user/OS_CORE/schedule/os_schedule.c **** 		return -ERROR_VALUELESS_INPUT;
 258              		.loc 1 68 0 is_stmt 1
 259 00e0 1248     		ldr	r0, .L41+20
 260 00e2 FFF7FEFF 		bl	ka_printf
 261              	.LVL25:
  69:../../source/src/user/OS_CORE/schedule/os_schedule.c **** 	}
 262              		.loc 1 69 0
 263 00e6 6FF0FD00 		mvn	r0, #253
 264 00ea E4E7     		b	.L11
 265              	.L38:
  65:../../source/src/user/OS_CORE/schedule/os_schedule.c **** 		(STATE_WAIT_MESSAGE_QUEUE_TIMEOUT == state) || (STATE_PUT_MESSAGE_QUEUE_TIMEOUT == state)))
 266              		.loc 1 65 0
 267 00ec 04F0FD03 		and	r3, r4, #253
 268 00f0 052B     		cmp	r3, #5
 269 00f2 BBD0     		beq	.L21
  65:../../source/src/user/OS_CORE/schedule/os_schedule.c **** 		(STATE_WAIT_MESSAGE_QUEUE_TIMEOUT == state) || (STATE_PUT_MESSAGE_QUEUE_TIMEOUT == state)))
 270              		.loc 1 65 0 is_stmt 0 discriminator 3
 271 00f4 092C     		cmp	r4, #9
 272 00f6 B9D0     		beq	.L21
 273 00f8 F2E7     		b	.L23
 274              	.LVL26:
 275              	.L40:
 276              	.LBB13:
 277              	.LBB12:
 278 00fa FFF781FF 		bl	schedule.part.0
 279              	.LVL27:
 280 00fe D1E7     		b	.L20
 281              	.LVL28:
 282              	.L39:
 283              	.LBE12:
 284              	.LBE13:
  81:../../source/src/user/OS_CORE/schedule/os_schedule.c **** 		return -ERROR_FUN_USE_IN_INTER;
 285              		.loc 1 81 0 is_stmt 1
ARM GAS  G:\Users\Jaxb\AppData\Local\Temp\cc9mxqkM.s 			page 8


 286 0100 FFF7FEFF 		bl	CPU_SR_Restore
 287              	.LVL29:
  82:../../source/src/user/OS_CORE/schedule/os_schedule.c **** 	}
 288              		.loc 1 82 0
 289 0104 6FF0FC00 		mvn	r0, #252
 290 0108 D5E7     		b	.L11
 291              	.LVL30:
 292              	.L18:
  73:../../source/src/user/OS_CORE/schedule/os_schedule.c **** 		return -ERROR_VALUELESS_INPUT;
 293              		.loc 1 73 0
 294 010a 0948     		ldr	r0, .L41+24
 295 010c FFF7FEFF 		bl	ka_printf
 296              	.LVL31:
  74:../../source/src/user/OS_CORE/schedule/os_schedule.c **** 	}
 297              		.loc 1 74 0
 298 0110 6FF0FD00 		mvn	r0, #253
 299 0114 CFE7     		b	.L11
 300              	.L42:
 301 0116 00BF     		.align	2
 302              	.L41:
 303 0118 00000000 		.word	.LC0
 304 011c 00000000 		.word	g_interrupt_count
 305 0120 00000000 		.word	g_time_tick_count
 306 0124 00000000 		.word	OSTCBCurPtr
 307 0128 00000000 		.word	.LANCHOR0
 308 012c 74000000 		.word	.LC2
 309 0130 38000000 		.word	.LC1
 310              		.cfi_endproc
 311              	.LFE13:
 312              		.size	sys_delay, .-sys_delay
 313              		.align	1
 314              		.p2align 2,,3
 315              		.global	sys_suspend
 316              		.syntax unified
 317              		.thumb
 318              		.thumb_func
 319              		.fpu softvfp
 320              		.type	sys_suspend, %function
 321              	sys_suspend:
 322              	.LFB14:
  92:../../source/src/user/OS_CORE/schedule/os_schedule.c **** 
  93:../../source/src/user/OS_CORE/schedule/os_schedule.c **** int sys_suspend(TASK_STATE state)
  94:../../source/src/user/OS_CORE/schedule/os_schedule.c **** {
 323              		.loc 1 94 0
 324              		.cfi_startproc
 325              		@ args = 0, pretend = 0, frame = 0
 326              		@ frame_needed = 0, uses_anonymous_args = 0
 327              	.LVL32:
  95:../../source/src/user/OS_CORE/schedule/os_schedule.c **** 	ASSERT((STATE_SUSPEND_NORMAL == state) 				||
 328              		.loc 1 95 0
 329 0134 0A28     		cmp	r0, #10
  94:../../source/src/user/OS_CORE/schedule/os_schedule.c **** 	ASSERT((STATE_SUSPEND_NORMAL == state) 				||
 330              		.loc 1 94 0
 331 0136 70B5     		push	{r4, r5, r6, lr}
 332              	.LCFI5:
 333              		.cfi_def_cfa_offset 16
 334              		.cfi_offset 4, -16
ARM GAS  G:\Users\Jaxb\AppData\Local\Temp\cc9mxqkM.s 			page 9


 335              		.cfi_offset 5, -12
 336              		.cfi_offset 6, -8
 337              		.cfi_offset 14, -4
  94:../../source/src/user/OS_CORE/schedule/os_schedule.c **** 	ASSERT((STATE_SUSPEND_NORMAL == state) 				||
 338              		.loc 1 94 0
 339 0138 0446     		mov	r4, r0
 340              		.loc 1 95 0
 341 013a 09D9     		bls	.L49
 342              	.L44:
 343              		.loc 1 95 0 is_stmt 0 discriminator 2
 344 013c 6321     		movs	r1, #99
 345 013e 1648     		ldr	r0, .L52
 346              	.LVL33:
 347 0140 FFF7FEFF 		bl	_ASSERT
 348              	.LVL34:
  96:../../source/src/user/OS_CORE/schedule/os_schedule.c **** 		   (STATE_WAIT_MCB_FOREVER == state) 			||
  97:../../source/src/user/OS_CORE/schedule/os_schedule.c **** 		   (STATE_WAIT_MESSAGE_QUEUE_FOREVER == state) 	||
  98:../../source/src/user/OS_CORE/schedule/os_schedule.c **** 		   (STATE_PUT_MESSAGE_QUEUE_FOREVER == state)	||
  99:../../source/src/user/OS_CORE/schedule/os_schedule.c **** 		   (STATE_WAIT_MUTEX_FOREVER == state));
 100:../../source/src/user/OS_CORE/schedule/os_schedule.c **** #if CONFIG_PARA_CHECK
 101:../../source/src/user/OS_CORE/schedule/os_schedule.c **** 	if(!((STATE_SUSPEND_NORMAL == state) 				||
 102:../../source/src/user/OS_CORE/schedule/os_schedule.c **** 		   (STATE_WAIT_MCB_FOREVER == state) 			||
 103:../../source/src/user/OS_CORE/schedule/os_schedule.c **** 		   (STATE_WAIT_MESSAGE_QUEUE_FOREVER == state) 	||
 104:../../source/src/user/OS_CORE/schedule/os_schedule.c **** 		   (STATE_PUT_MESSAGE_QUEUE_FOREVER == state)	||
 105:../../source/src/user/OS_CORE/schedule/os_schedule.c **** 		   (STATE_WAIT_MUTEX_FOREVER == state)))
 106:../../source/src/user/OS_CORE/schedule/os_schedule.c **** 	{
 107:../../source/src/user/OS_CORE/schedule/os_schedule.c **** 		OS_ERROR_PARA_MESSAGE_DISPLAY(sys_delay,state);
 349              		.loc 1 107 0 is_stmt 1 discriminator 2
 350 0144 1548     		ldr	r0, .L52+4
 351 0146 FFF7FEFF 		bl	ka_printf
 352              	.LVL35:
 108:../../source/src/user/OS_CORE/schedule/os_schedule.c **** 		return -ERROR_VALUELESS_INPUT;
 353              		.loc 1 108 0 discriminator 2
 354 014a 6FF0FD00 		mvn	r0, #253
 109:../../source/src/user/OS_CORE/schedule/os_schedule.c **** 	} 
 110:../../source/src/user/OS_CORE/schedule/os_schedule.c **** #endif
 111:../../source/src/user/OS_CORE/schedule/os_schedule.c **** 	CPU_SR_ALLOC();
 112:../../source/src/user/OS_CORE/schedule/os_schedule.c **** 	CPU_CRITICAL_ENTER();
 113:../../source/src/user/OS_CORE/schedule/os_schedule.c **** 	if (g_interrupt_count > 0)
 114:../../source/src/user/OS_CORE/schedule/os_schedule.c **** 	{
 115:../../source/src/user/OS_CORE/schedule/os_schedule.c **** 		CPU_CRITICAL_EXIT();
 116:../../source/src/user/OS_CORE/schedule/os_schedule.c **** 		return -ERROR_FUN_USE_IN_INTER;
 117:../../source/src/user/OS_CORE/schedule/os_schedule.c **** 	}
 118:../../source/src/user/OS_CORE/schedule/os_schedule.c **** 	OSTCBCurPtr->task_state = state;
 119:../../source/src/user/OS_CORE/schedule/os_schedule.c **** 	delete_TCB_from_ready((TCB *)OSTCBCurPtr);
 120:../../source/src/user/OS_CORE/schedule/os_schedule.c **** 	insert_into_suspend_list((TCB *)OSTCBCurPtr);
 121:../../source/src/user/OS_CORE/schedule/os_schedule.c **** 	schedule();
 122:../../source/src/user/OS_CORE/schedule/os_schedule.c **** 	CPU_CRITICAL_EXIT();
 123:../../source/src/user/OS_CORE/schedule/os_schedule.c **** 	return FUN_EXECUTE_SUCCESSFULLY;
 124:../../source/src/user/OS_CORE/schedule/os_schedule.c **** }
 355              		.loc 1 124 0 discriminator 2
 356 014e 70BD     		pop	{r4, r5, r6, pc}
 357              	.LVL36:
 358              	.L49:
  95:../../source/src/user/OS_CORE/schedule/os_schedule.c **** 		   (STATE_WAIT_MCB_FOREVER == state) 			||
 359              		.loc 1 95 0
 360 0150 4FF4AB63 		mov	r3, #1368
ARM GAS  G:\Users\Jaxb\AppData\Local\Temp\cc9mxqkM.s 			page 10


 361 0154 C340     		lsrs	r3, r3, r0
 362 0156 DB07     		lsls	r3, r3, #31
 363 0158 F0D5     		bpl	.L44
 364              	.LVL37:
 112:../../source/src/user/OS_CORE/schedule/os_schedule.c **** 	if (g_interrupt_count > 0)
 365              		.loc 1 112 0
 366 015a FFF7FEFF 		bl	CPU_SR_Save
 367              	.LVL38:
 113:../../source/src/user/OS_CORE/schedule/os_schedule.c **** 	{
 368              		.loc 1 113 0
 369 015e 104B     		ldr	r3, .L52+8
 112:../../source/src/user/OS_CORE/schedule/os_schedule.c **** 	if (g_interrupt_count > 0)
 370              		.loc 1 112 0
 371 0160 0646     		mov	r6, r0
 372              	.LVL39:
 113:../../source/src/user/OS_CORE/schedule/os_schedule.c **** 	{
 373              		.loc 1 113 0
 374 0162 1B68     		ldr	r3, [r3]
 375 0164 002B     		cmp	r3, #0
 376 0166 12DC     		bgt	.L50
 118:../../source/src/user/OS_CORE/schedule/os_schedule.c **** 	delete_TCB_from_ready((TCB *)OSTCBCurPtr);
 377              		.loc 1 118 0
 378 0168 0E4D     		ldr	r5, .L52+12
 379 016a 2868     		ldr	r0, [r5]
 380              	.LVL40:
 381 016c 0475     		strb	r4, [r0, #20]
 119:../../source/src/user/OS_CORE/schedule/os_schedule.c **** 	insert_into_suspend_list((TCB *)OSTCBCurPtr);
 382              		.loc 1 119 0
 383 016e FFF7FEFF 		bl	delete_TCB_from_ready
 384              	.LVL41:
 120:../../source/src/user/OS_CORE/schedule/os_schedule.c **** 	schedule();
 385              		.loc 1 120 0
 386 0172 2868     		ldr	r0, [r5]
 387 0174 FFF7FEFF 		bl	insert_into_suspend_list
 388              	.LVL42:
 389              	.LBB14:
 390              	.LBB15:
  26:../../source/src/user/OS_CORE/schedule/os_schedule.c **** 		return ;
 391              		.loc 1 26 0
 392 0178 0B4B     		ldr	r3, .L52+16
 393 017a 1B68     		ldr	r3, [r3]
 394 017c 23B1     		cbz	r3, .L51
 395              	.L48:
 396              	.LBE15:
 397              	.LBE14:
 122:../../source/src/user/OS_CORE/schedule/os_schedule.c **** 	return FUN_EXECUTE_SUCCESSFULLY;
 398              		.loc 1 122 0
 399 017e 3046     		mov	r0, r6
 400 0180 FFF7FEFF 		bl	CPU_SR_Restore
 401              	.LVL43:
 123:../../source/src/user/OS_CORE/schedule/os_schedule.c **** }
 402              		.loc 1 123 0
 403 0184 0020     		movs	r0, #0
 404              		.loc 1 124 0
 405 0186 70BD     		pop	{r4, r5, r6, pc}
 406              	.LVL44:
 407              	.L51:
ARM GAS  G:\Users\Jaxb\AppData\Local\Temp\cc9mxqkM.s 			page 11


 408              	.LBB17:
 409              	.LBB16:
 410 0188 FFF73AFF 		bl	schedule.part.0
 411              	.LVL45:
 412 018c F7E7     		b	.L48
 413              	.LVL46:
 414              	.L50:
 415              	.LBE16:
 416              	.LBE17:
 115:../../source/src/user/OS_CORE/schedule/os_schedule.c **** 		return -ERROR_FUN_USE_IN_INTER;
 417              		.loc 1 115 0
 418 018e FFF7FEFF 		bl	CPU_SR_Restore
 419              	.LVL47:
 116:../../source/src/user/OS_CORE/schedule/os_schedule.c **** 	}
 420              		.loc 1 116 0
 421 0192 6FF0FC00 		mvn	r0, #252
 422              		.loc 1 124 0
 423 0196 70BD     		pop	{r4, r5, r6, pc}
 424              	.LVL48:
 425              	.L53:
 426              		.align	2
 427              	.L52:
 428 0198 00000000 		.word	.LC0
 429 019c 74000000 		.word	.LC2
 430 01a0 00000000 		.word	g_interrupt_count
 431 01a4 00000000 		.word	OSTCBCurPtr
 432 01a8 00000000 		.word	.LANCHOR0
 433              		.cfi_endproc
 434              	.LFE14:
 435              		.size	sys_suspend, .-sys_suspend
 436              		.align	1
 437              		.p2align 2,,3
 438              		.global	task_creat_ready
 439              		.syntax unified
 440              		.thumb
 441              		.thumb_func
 442              		.fpu softvfp
 443              		.type	task_creat_ready, %function
 444              	task_creat_ready:
 445              	.LFB15:
 125:../../source/src/user/OS_CORE/schedule/os_schedule.c **** 
 126:../../source/src/user/OS_CORE/schedule/os_schedule.c **** int _must_check task_creat_ready(
 127:../../source/src/user/OS_CORE/schedule/os_schedule.c **** 	unsigned int stack_size,
 128:../../source/src/user/OS_CORE/schedule/os_schedule.c **** 	TASK_PRIO_TYPE prio,
 129:../../source/src/user/OS_CORE/schedule/os_schedule.c **** 	unsigned int timeslice_hope_time,
 130:../../source/src/user/OS_CORE/schedule/os_schedule.c **** 	const char *name,
 131:../../source/src/user/OS_CORE/schedule/os_schedule.c **** 	functionptr function,
 132:../../source/src/user/OS_CORE/schedule/os_schedule.c **** 	void *para,
 133:../../source/src/user/OS_CORE/schedule/os_schedule.c **** 	TCB **ptr)
 134:../../source/src/user/OS_CORE/schedule/os_schedule.c **** {
 446              		.loc 1 134 0
 447              		.cfi_startproc
 448              		@ args = 12, pretend = 0, frame = 0
 449              		@ frame_needed = 0, uses_anonymous_args = 0
 450              	.LVL49:
 451 01ac 2DE9F047 		push	{r4, r5, r6, r7, r8, r9, r10, lr}
 452              	.LCFI6:
ARM GAS  G:\Users\Jaxb\AppData\Local\Temp\cc9mxqkM.s 			page 12


 453              		.cfi_def_cfa_offset 32
 454              		.cfi_offset 4, -32
 455              		.cfi_offset 5, -28
 456              		.cfi_offset 6, -24
 457              		.cfi_offset 7, -20
 458              		.cfi_offset 8, -16
 459              		.cfi_offset 9, -12
 460              		.cfi_offset 10, -8
 461              		.cfi_offset 14, -4
 462 01b0 84B0     		sub	sp, sp, #16
 463              	.LCFI7:
 464              		.cfi_def_cfa_offset 48
 465              		.loc 1 134 0
 466 01b2 0646     		mov	r6, r0
 467 01b4 0F46     		mov	r7, r1
 468 01b6 9146     		mov	r9, r2
 469 01b8 9A46     		mov	r10, r3
 470 01ba 0E9C     		ldr	r4, [sp, #56]
 135:../../source/src/user/OS_CORE/schedule/os_schedule.c **** 	int ret;
 136:../../source/src/user/OS_CORE/schedule/os_schedule.c **** 	CPU_SR_ALLOC();
 137:../../source/src/user/OS_CORE/schedule/os_schedule.c **** 	CPU_CRITICAL_ENTER();
 471              		.loc 1 137 0
 472 01bc FFF7FEFF 		bl	CPU_SR_Save
 473              	.LVL50:
 138:../../source/src/user/OS_CORE/schedule/os_schedule.c **** 	if (g_interrupt_count > 0)
 474              		.loc 1 138 0
 475 01c0 164D     		ldr	r5, .L65
 137:../../source/src/user/OS_CORE/schedule/os_schedule.c **** 	if (g_interrupt_count > 0)
 476              		.loc 1 137 0
 477 01c2 8046     		mov	r8, r0
 478              	.LVL51:
 479              		.loc 1 138 0
 480 01c4 2D68     		ldr	r5, [r5]
 481 01c6 002D     		cmp	r5, #0
 482 01c8 1FDC     		bgt	.L63
 139:../../source/src/user/OS_CORE/schedule/os_schedule.c **** 	{
 140:../../source/src/user/OS_CORE/schedule/os_schedule.c **** 		CPU_CRITICAL_EXIT();
 141:../../source/src/user/OS_CORE/schedule/os_schedule.c **** 		return -ERROR_FUN_USE_IN_INTER;
 142:../../source/src/user/OS_CORE/schedule/os_schedule.c **** 	}
 143:../../source/src/user/OS_CORE/schedule/os_schedule.c **** 	TCB *TCB_ptr = task_creat(stack_size,prio,timeslice_hope_time,name,function,para,STATE_READY);
 483              		.loc 1 143 0
 484 01ca 0125     		movs	r5, #1
 485 01cc 0D9B     		ldr	r3, [sp, #52]
 486 01ce 4A46     		mov	r2, r9
 487 01d0 0193     		str	r3, [sp, #4]
 488 01d2 0C9B     		ldr	r3, [sp, #48]
 489 01d4 3946     		mov	r1, r7
 490 01d6 0093     		str	r3, [sp]
 491 01d8 3046     		mov	r0, r6
 492              	.LVL52:
 493 01da 5346     		mov	r3, r10
 494 01dc 0295     		str	r5, [sp, #8]
 495 01de FFF7FEFF 		bl	task_creat
 496              	.LVL53:
 144:../../source/src/user/OS_CORE/schedule/os_schedule.c **** 	if(NULL == TCB_ptr)
 497              		.loc 1 144 0
 498 01e2 B8B1     		cbz	r0, .L59
ARM GAS  G:\Users\Jaxb\AppData\Local\Temp\cc9mxqkM.s 			page 13


 145:../../source/src/user/OS_CORE/schedule/os_schedule.c **** 	{
 146:../../source/src/user/OS_CORE/schedule/os_schedule.c **** 		return -ERROR_CREATE_TASK;
 147:../../source/src/user/OS_CORE/schedule/os_schedule.c **** 	}
 148:../../source/src/user/OS_CORE/schedule/os_schedule.c **** 	if(NULL != ptr)
 499              		.loc 1 148 0
 500 01e4 04B1     		cbz	r4, .L57
 149:../../source/src/user/OS_CORE/schedule/os_schedule.c **** 	{
 150:../../source/src/user/OS_CORE/schedule/os_schedule.c **** 		*ptr = TCB_ptr;
 501              		.loc 1 150 0
 502 01e6 2060     		str	r0, [r4]
 503              	.L57:
 151:../../source/src/user/OS_CORE/schedule/os_schedule.c **** 	}
 152:../../source/src/user/OS_CORE/schedule/os_schedule.c **** 	ret = insert_ready_TCB(TCB_ptr);
 504              		.loc 1 152 0
 505 01e8 FFF7FEFF 		bl	insert_ready_TCB
 506              	.LVL54:
 153:../../source/src/user/OS_CORE/schedule/os_schedule.c **** 	if(0 != ret)
 507              		.loc 1 153 0
 508 01ec 0446     		mov	r4, r0
 509 01ee 28B9     		cbnz	r0, .L54
 510              	.LBB18:
 511              	.LBB19:
  26:../../source/src/user/OS_CORE/schedule/os_schedule.c **** 		return ;
 512              		.loc 1 26 0
 513 01f0 0B4B     		ldr	r3, .L65+4
 514 01f2 1B68     		ldr	r3, [r3]
 515 01f4 33B1     		cbz	r3, .L64
 516              	.LVL55:
 517              	.L58:
 518              	.LBE19:
 519              	.LBE18:
 154:../../source/src/user/OS_CORE/schedule/os_schedule.c **** 	{
 155:../../source/src/user/OS_CORE/schedule/os_schedule.c **** 		return ret;
 156:../../source/src/user/OS_CORE/schedule/os_schedule.c **** 	}
 157:../../source/src/user/OS_CORE/schedule/os_schedule.c **** 	schedule();
 158:../../source/src/user/OS_CORE/schedule/os_schedule.c **** 	CPU_CRITICAL_EXIT();
 520              		.loc 1 158 0
 521 01f6 4046     		mov	r0, r8
 522 01f8 FFF7FEFF 		bl	CPU_SR_Restore
 523              	.LVL56:
 524              	.L54:
 159:../../source/src/user/OS_CORE/schedule/os_schedule.c **** 	return FUN_EXECUTE_SUCCESSFULLY;
 160:../../source/src/user/OS_CORE/schedule/os_schedule.c **** }
 525              		.loc 1 160 0
 526 01fc 2046     		mov	r0, r4
 527 01fe 04B0     		add	sp, sp, #16
 528              	.LCFI8:
 529              		.cfi_remember_state
 530              		.cfi_def_cfa_offset 32
 531              		@ sp needed
 532 0200 BDE8F087 		pop	{r4, r5, r6, r7, r8, r9, r10, pc}
 533              	.LVL57:
 534              	.L64:
 535              	.LCFI9:
 536              		.cfi_restore_state
 537              	.LBB21:
 538              	.LBB20:
ARM GAS  G:\Users\Jaxb\AppData\Local\Temp\cc9mxqkM.s 			page 14


 539 0204 FFF7FCFE 		bl	schedule.part.0
 540              	.LVL58:
 541 0208 F5E7     		b	.L58
 542              	.LVL59:
 543              	.L63:
 544              	.LBE20:
 545              	.LBE21:
 140:../../source/src/user/OS_CORE/schedule/os_schedule.c **** 		return -ERROR_FUN_USE_IN_INTER;
 546              		.loc 1 140 0
 547 020a FFF7FEFF 		bl	CPU_SR_Restore
 548              	.LVL60:
 141:../../source/src/user/OS_CORE/schedule/os_schedule.c **** 	}
 549              		.loc 1 141 0
 550 020e 6FF0FC04 		mvn	r4, #252
 551 0212 F3E7     		b	.L54
 552              	.LVL61:
 553              	.L59:
 146:../../source/src/user/OS_CORE/schedule/os_schedule.c **** 	}
 554              		.loc 1 146 0
 555 0214 4FF0FF34 		mov	r4, #-1
 556 0218 F0E7     		b	.L54
 557              	.L66:
 558 021a 00BF     		.align	2
 559              	.L65:
 560 021c 00000000 		.word	g_interrupt_count
 561 0220 00000000 		.word	.LANCHOR0
 562              		.cfi_endproc
 563              	.LFE15:
 564              		.size	task_creat_ready, .-task_creat_ready
 565              		.align	1
 566              		.p2align 2,,3
 567              		.global	task_init_ready
 568              		.syntax unified
 569              		.thumb
 570              		.thumb_func
 571              		.fpu softvfp
 572              		.type	task_init_ready, %function
 573              	task_init_ready:
 574              	.LFB16:
 161:../../source/src/user/OS_CORE/schedule/os_schedule.c **** 
 162:../../source/src/user/OS_CORE/schedule/os_schedule.c **** int _must_check task_init_ready(
 163:../../source/src/user/OS_CORE/schedule/os_schedule.c **** 	TCB *TCB_ptr,
 164:../../source/src/user/OS_CORE/schedule/os_schedule.c **** 	unsigned int stack_size,
 165:../../source/src/user/OS_CORE/schedule/os_schedule.c **** 	TASK_PRIO_TYPE prio,
 166:../../source/src/user/OS_CORE/schedule/os_schedule.c **** 	unsigned int timeslice_hope_time,
 167:../../source/src/user/OS_CORE/schedule/os_schedule.c **** 	char *name,
 168:../../source/src/user/OS_CORE/schedule/os_schedule.c **** 	functionptr function,
 169:../../source/src/user/OS_CORE/schedule/os_schedule.c **** 	void *para)
 170:../../source/src/user/OS_CORE/schedule/os_schedule.c **** {	
 575              		.loc 1 170 0
 576              		.cfi_startproc
 577              		@ args = 12, pretend = 0, frame = 0
 578              		@ frame_needed = 0, uses_anonymous_args = 0
 579              	.LVL62:
 580 0224 2DE9F043 		push	{r4, r5, r6, r7, r8, r9, lr}
 581              	.LCFI10:
 582              		.cfi_def_cfa_offset 28
ARM GAS  G:\Users\Jaxb\AppData\Local\Temp\cc9mxqkM.s 			page 15


 583              		.cfi_offset 4, -28
 584              		.cfi_offset 5, -24
 585              		.cfi_offset 6, -20
 586              		.cfi_offset 7, -16
 587              		.cfi_offset 8, -12
 588              		.cfi_offset 9, -8
 589              		.cfi_offset 14, -4
 590 0228 85B0     		sub	sp, sp, #20
 591              	.LCFI11:
 592              		.cfi_def_cfa_offset 48
 593              		.loc 1 170 0
 594 022a 0446     		mov	r4, r0
 595 022c 0E46     		mov	r6, r1
 596 022e 1746     		mov	r7, r2
 597 0230 9846     		mov	r8, r3
 171:../../source/src/user/OS_CORE/schedule/os_schedule.c **** 	CPU_SR_ALLOC();
 172:../../source/src/user/OS_CORE/schedule/os_schedule.c **** 	CPU_CRITICAL_ENTER();
 598              		.loc 1 172 0
 599 0232 FFF7FEFF 		bl	CPU_SR_Save
 600              	.LVL63:
 173:../../source/src/user/OS_CORE/schedule/os_schedule.c **** 	if (g_interrupt_count > 0)
 601              		.loc 1 173 0
 602 0236 184D     		ldr	r5, .L76
 172:../../source/src/user/OS_CORE/schedule/os_schedule.c **** 	if (g_interrupt_count > 0)
 603              		.loc 1 172 0
 604 0238 8146     		mov	r9, r0
 605              	.LVL64:
 606              		.loc 1 173 0
 607 023a 2D68     		ldr	r5, [r5]
 608 023c 002D     		cmp	r5, #0
 609 023e 20DC     		bgt	.L73
 174:../../source/src/user/OS_CORE/schedule/os_schedule.c **** 	{
 175:../../source/src/user/OS_CORE/schedule/os_schedule.c **** 		CPU_CRITICAL_EXIT();
 176:../../source/src/user/OS_CORE/schedule/os_schedule.c **** 		return -ERROR_FUN_USE_IN_INTER;
 177:../../source/src/user/OS_CORE/schedule/os_schedule.c **** 	}
 178:../../source/src/user/OS_CORE/schedule/os_schedule.c **** 	int ret;
 179:../../source/src/user/OS_CORE/schedule/os_schedule.c **** 	if(0 != task_init(TCB_ptr,stack_size,prio,timeslice_hope_time,name,function,para,STATE_READY))
 610              		.loc 1 179 0
 611 0240 0120     		movs	r0, #1
 612              	.LVL65:
 613 0242 0E9B     		ldr	r3, [sp, #56]
 614 0244 0390     		str	r0, [sp, #12]
 615 0246 0293     		str	r3, [sp, #8]
 616 0248 0D9B     		ldr	r3, [sp, #52]
 617 024a 3A46     		mov	r2, r7
 618 024c 0193     		str	r3, [sp, #4]
 619 024e 0C9B     		ldr	r3, [sp, #48]
 620 0250 3146     		mov	r1, r6
 621 0252 0093     		str	r3, [sp]
 622 0254 2046     		mov	r0, r4
 623 0256 4346     		mov	r3, r8
 624 0258 FFF7FEFF 		bl	task_init
 625              	.LVL66:
 626 025c B0B9     		cbnz	r0, .L74
 180:../../source/src/user/OS_CORE/schedule/os_schedule.c **** 	{
 181:../../source/src/user/OS_CORE/schedule/os_schedule.c **** 		CPU_CRITICAL_EXIT();
 182:../../source/src/user/OS_CORE/schedule/os_schedule.c **** 		return -ERROR_TASK_CREATE;
ARM GAS  G:\Users\Jaxb\AppData\Local\Temp\cc9mxqkM.s 			page 16


 183:../../source/src/user/OS_CORE/schedule/os_schedule.c **** 	}
 184:../../source/src/user/OS_CORE/schedule/os_schedule.c **** 	ret = insert_ready_TCB(TCB_ptr);
 627              		.loc 1 184 0
 628 025e 2046     		mov	r0, r4
 629 0260 FFF7FEFF 		bl	insert_ready_TCB
 630              	.LVL67:
 185:../../source/src/user/OS_CORE/schedule/os_schedule.c **** 	if(0 != ret)
 631              		.loc 1 185 0
 632 0264 0446     		mov	r4, r0
 633              	.LVL68:
 634 0266 10B9     		cbnz	r0, .L72
 635              	.LBB22:
 636              	.LBB23:
  26:../../source/src/user/OS_CORE/schedule/os_schedule.c **** 		return ;
 637              		.loc 1 26 0
 638 0268 0C4B     		ldr	r3, .L76+4
 639 026a 1B68     		ldr	r3, [r3]
 640 026c 33B1     		cbz	r3, .L75
 641              	.LVL69:
 642              	.L72:
 643              	.LBE23:
 644              	.LBE22:
 186:../../source/src/user/OS_CORE/schedule/os_schedule.c **** 	{
 187:../../source/src/user/OS_CORE/schedule/os_schedule.c **** 		CPU_CRITICAL_EXIT();
 188:../../source/src/user/OS_CORE/schedule/os_schedule.c **** 		return ret;
 189:../../source/src/user/OS_CORE/schedule/os_schedule.c **** 	}
 190:../../source/src/user/OS_CORE/schedule/os_schedule.c **** 	schedule();
 191:../../source/src/user/OS_CORE/schedule/os_schedule.c **** 	CPU_CRITICAL_EXIT();
 645              		.loc 1 191 0
 646 026e 4846     		mov	r0, r9
 647 0270 FFF7FEFF 		bl	CPU_SR_Restore
 648              	.LVL70:
 649              	.L67:
 192:../../source/src/user/OS_CORE/schedule/os_schedule.c **** 	return FUN_EXECUTE_SUCCESSFULLY;
 193:../../source/src/user/OS_CORE/schedule/os_schedule.c **** }
 650              		.loc 1 193 0
 651 0274 2046     		mov	r0, r4
 652 0276 05B0     		add	sp, sp, #20
 653              	.LCFI12:
 654              		.cfi_remember_state
 655              		.cfi_def_cfa_offset 28
 656              		@ sp needed
 657 0278 BDE8F083 		pop	{r4, r5, r6, r7, r8, r9, pc}
 658              	.LVL71:
 659              	.L75:
 660              	.LCFI13:
 661              		.cfi_restore_state
 662              	.LBB25:
 663              	.LBB24:
 664 027c FFF7C0FE 		bl	schedule.part.0
 665              	.LVL72:
 666 0280 F5E7     		b	.L72
 667              	.LVL73:
 668              	.L73:
 669              	.LBE24:
 670              	.LBE25:
 175:../../source/src/user/OS_CORE/schedule/os_schedule.c **** 		return -ERROR_FUN_USE_IN_INTER;
ARM GAS  G:\Users\Jaxb\AppData\Local\Temp\cc9mxqkM.s 			page 17


 671              		.loc 1 175 0
 672 0282 FFF7FEFF 		bl	CPU_SR_Restore
 673              	.LVL74:
 176:../../source/src/user/OS_CORE/schedule/os_schedule.c **** 	}
 674              		.loc 1 176 0
 675 0286 6FF0FC04 		mvn	r4, #252
 676              	.LVL75:
 677 028a F3E7     		b	.L67
 678              	.LVL76:
 679              	.L74:
 181:../../source/src/user/OS_CORE/schedule/os_schedule.c **** 		return -ERROR_TASK_CREATE;
 680              		.loc 1 181 0
 681 028c 4846     		mov	r0, r9
 682 028e FFF7FEFF 		bl	CPU_SR_Restore
 683              	.LVL77:
 182:../../source/src/user/OS_CORE/schedule/os_schedule.c **** 	}
 684              		.loc 1 182 0
 685 0292 4FF0FF34 		mov	r4, #-1
 686              	.LVL78:
 687 0296 EDE7     		b	.L67
 688              	.L77:
 689              		.align	2
 690              	.L76:
 691 0298 00000000 		.word	g_interrupt_count
 692 029c 00000000 		.word	.LANCHOR0
 693              		.cfi_endproc
 694              	.LFE16:
 695              		.size	task_init_ready, .-task_init_ready
 696              		.align	1
 697              		.p2align 2,,3
 698              		.global	sys_schedule_lock
 699              		.syntax unified
 700              		.thumb
 701              		.thumb_func
 702              		.fpu softvfp
 703              		.type	sys_schedule_lock, %function
 704              	sys_schedule_lock:
 705              	.LFB17:
 194:../../source/src/user/OS_CORE/schedule/os_schedule.c **** 
 195:../../source/src/user/OS_CORE/schedule/os_schedule.c **** inline void sys_schedule_lock(void)
 196:../../source/src/user/OS_CORE/schedule/os_schedule.c **** {
 706              		.loc 1 196 0
 707              		.cfi_startproc
 708              		@ args = 0, pretend = 0, frame = 0
 709              		@ frame_needed = 0, uses_anonymous_args = 0
 710              		@ link register save eliminated.
 197:../../source/src/user/OS_CORE/schedule/os_schedule.c **** 	++g_schedule_lock;
 711              		.loc 1 197 0
 712 02a0 024A     		ldr	r2, .L79
 713 02a2 1368     		ldr	r3, [r2]
 714 02a4 0133     		adds	r3, r3, #1
 715 02a6 1360     		str	r3, [r2]
 198:../../source/src/user/OS_CORE/schedule/os_schedule.c **** }
 716              		.loc 1 198 0
 717 02a8 7047     		bx	lr
 718              	.L80:
 719 02aa 00BF     		.align	2
ARM GAS  G:\Users\Jaxb\AppData\Local\Temp\cc9mxqkM.s 			page 18


 720              	.L79:
 721 02ac 00000000 		.word	.LANCHOR0
 722              		.cfi_endproc
 723              	.LFE17:
 724              		.size	sys_schedule_lock, .-sys_schedule_lock
 725              		.align	1
 726              		.p2align 2,,3
 727              		.global	sys_schedule_unlock
 728              		.syntax unified
 729              		.thumb
 730              		.thumb_func
 731              		.fpu softvfp
 732              		.type	sys_schedule_unlock, %function
 733              	sys_schedule_unlock:
 734              	.LFB18:
 199:../../source/src/user/OS_CORE/schedule/os_schedule.c **** 
 200:../../source/src/user/OS_CORE/schedule/os_schedule.c **** inline void sys_schedule_unlock(void)
 201:../../source/src/user/OS_CORE/schedule/os_schedule.c **** {
 735              		.loc 1 201 0
 736              		.cfi_startproc
 737              		@ args = 0, pretend = 0, frame = 0
 738              		@ frame_needed = 0, uses_anonymous_args = 0
 739              		@ link register save eliminated.
 202:../../source/src/user/OS_CORE/schedule/os_schedule.c **** 	--g_schedule_lock;
 740              		.loc 1 202 0
 741 02b0 024A     		ldr	r2, .L82
 742 02b2 1368     		ldr	r3, [r2]
 743 02b4 013B     		subs	r3, r3, #1
 744 02b6 1360     		str	r3, [r2]
 203:../../source/src/user/OS_CORE/schedule/os_schedule.c **** }
 745              		.loc 1 203 0
 746 02b8 7047     		bx	lr
 747              	.L83:
 748 02ba 00BF     		.align	2
 749              	.L82:
 750 02bc 00000000 		.word	.LANCHOR0
 751              		.cfi_endproc
 752              	.LFE18:
 753              		.size	sys_schedule_unlock, .-sys_schedule_unlock
 754              		.align	1
 755              		.p2align 2,,3
 756              		.global	sys_schedule_islock
 757              		.syntax unified
 758              		.thumb
 759              		.thumb_func
 760              		.fpu softvfp
 761              		.type	sys_schedule_islock, %function
 762              	sys_schedule_islock:
 763              	.LFB19:
 204:../../source/src/user/OS_CORE/schedule/os_schedule.c **** 
 205:../../source/src/user/OS_CORE/schedule/os_schedule.c **** inline int sys_schedule_islock(void)
 206:../../source/src/user/OS_CORE/schedule/os_schedule.c **** {
 764              		.loc 1 206 0
 765              		.cfi_startproc
 766              		@ args = 0, pretend = 0, frame = 0
 767              		@ frame_needed = 0, uses_anonymous_args = 0
 768              		@ link register save eliminated.
ARM GAS  G:\Users\Jaxb\AppData\Local\Temp\cc9mxqkM.s 			page 19


 207:../../source/src/user/OS_CORE/schedule/os_schedule.c **** 	return (0 != g_schedule_lock);
 769              		.loc 1 207 0
 770 02c0 024B     		ldr	r3, .L85
 771 02c2 1868     		ldr	r0, [r3]
 208:../../source/src/user/OS_CORE/schedule/os_schedule.c **** }
 772              		.loc 1 208 0
 773 02c4 0030     		adds	r0, r0, #0
 774 02c6 18BF     		it	ne
 775 02c8 0120     		movne	r0, #1
 776 02ca 7047     		bx	lr
 777              	.L86:
 778              		.align	2
 779              	.L85:
 780 02cc 00000000 		.word	.LANCHOR0
 781              		.cfi_endproc
 782              	.LFE19:
 783              		.size	sys_schedule_islock, .-sys_schedule_islock
 784              		.global	g_schedule_lock
 785              		.bss
 786              		.align	2
 787              		.set	.LANCHOR0,. + 0
 788              		.type	g_schedule_lock, %object
 789              		.size	g_schedule_lock, 4
 790              	g_schedule_lock:
 791 0000 00000000 		.space	4
 792              		.section	.rodata.str1.4,"aMS",%progbits,1
 793              		.align	2
 794              	.LC0:
 795 0000 2E2E2F2E 		.ascii	"../../source/src/user/OS_CORE/schedule/os_schedule."
 795      2E2F736F 
 795      75726365 
 795      2F737263 
 795      2F757365 
 796 0033 6300     		.ascii	"c\000"
 797 0035 000000   		.space	3
 798              	.LC1:
 799 0038 6572726F 		.ascii	"error fun name : sys_delay\012error para : delay_ti"
 799      72206675 
 799      6E206E61 
 799      6D65203A 
 799      20737973 
 800 0068 636B735F 		.ascii	"cks_num\012\000"
 800      6E756D0A 
 800      00
 801 0071 000000   		.space	3
 802              	.LC2:
 803 0074 6572726F 		.ascii	"error fun name : sys_delay\012error para : state\012"
 803      72206675 
 803      6E206E61 
 803      6D65203A 
 803      20737973 
 804 00a2 00       		.ascii	"\000"
 805              		.text
 806              	.Letext0:
 807              		.file 2 "../../source/include/os_core/task_state.h"
 808              		.file 3 "../../source/include/os_cpu/kakaosstdint.h"
 809              		.file 4 "../../source/include/os_lib/double_linked_list.h"
ARM GAS  G:\Users\Jaxb\AppData\Local\Temp\cc9mxqkM.s 			page 20


 810              		.file 5 "../../source/include/os_core/TCB.h"
 811              		.file 6 "../../source/include/os_cpu/os_cpu_stm32.h"
 812              		.file 7 "../../source/include/os_core/schedule/os_ready.h"
 813              		.file 8 "../../source/include/os_lib/myassert.h"
 814              		.file 9 "../../source/include/os_lib/myMicroLIB.h"
 815              		.file 10 "../../source/include/os_core/schedule/os_suspend.h"
 816              		.file 11 "../../source/include/os_core/schedule/os_delay.h"
 817              		.file 12 "../../source/include/os_core/os_time.h"
 818              		.section	.debug_info,"",%progbits
 819              	.Ldebug_info0:
 820 0000 A2080000 		.4byte	0x8a2
 821 0004 0200     		.2byte	0x2
 822 0006 00000000 		.4byte	.Ldebug_abbrev0
 823 000a 04       		.byte	0x4
 824 000b 01       		.uleb128 0x1
 825 000c 81040000 		.4byte	.LASF74
 826 0010 0C       		.byte	0xc
 827 0011 0D010000 		.4byte	.LASF75
 828 0015 97030000 		.4byte	.LASF76
 829 0019 00000000 		.4byte	.Ltext0
 830 001d D0020000 		.4byte	.Letext0
 831 0021 00000000 		.4byte	.Ldebug_line0
 832 0025 02       		.uleb128 0x2
 833 0026 C6000000 		.4byte	.LASF77
 834 002a 07       		.byte	0x7
 835 002b 01       		.byte	0x1
 836 002c 73000000 		.4byte	0x73
 837 0030 02       		.byte	0x2
 838 0031 04       		.byte	0x4
 839 0032 73000000 		.4byte	0x73
 840 0036 03       		.uleb128 0x3
 841 0037 15020000 		.4byte	.LASF0
 842 003b 01       		.byte	0x1
 843 003c 03       		.uleb128 0x3
 844 003d 3C020000 		.4byte	.LASF1
 845 0041 02       		.byte	0x2
 846 0042 03       		.uleb128 0x3
 847 0043 0F000000 		.4byte	.LASF2
 848 0047 03       		.byte	0x3
 849 0048 03       		.uleb128 0x3
 850 0049 0B040000 		.4byte	.LASF3
 851 004d 04       		.byte	0x4
 852 004e 03       		.uleb128 0x3
 853 004f 4C010000 		.4byte	.LASF4
 854 0053 05       		.byte	0x5
 855 0054 03       		.uleb128 0x3
 856 0055 88000000 		.4byte	.LASF5
 857 0059 06       		.byte	0x6
 858 005a 03       		.uleb128 0x3
 859 005b B5020000 		.4byte	.LASF6
 860 005f 07       		.byte	0x7
 861 0060 03       		.uleb128 0x3
 862 0061 D1000000 		.4byte	.LASF7
 863 0065 08       		.byte	0x8
 864 0066 03       		.uleb128 0x3
 865 0067 FA020000 		.4byte	.LASF8
 866 006b 09       		.byte	0x9
ARM GAS  G:\Users\Jaxb\AppData\Local\Temp\cc9mxqkM.s 			page 21


 867 006c 03       		.uleb128 0x3
 868 006d 27050000 		.4byte	.LASF9
 869 0071 0A       		.byte	0xa
 870 0072 00       		.byte	0
 871 0073 04       		.uleb128 0x4
 872 0074 01       		.byte	0x1
 873 0075 08       		.byte	0x8
 874 0076 FB010000 		.4byte	.LASF10
 875 007a 05       		.uleb128 0x5
 876 007b D7010000 		.4byte	.LASF15
 877 007f 02       		.byte	0x2
 878 0080 0F       		.byte	0xf
 879 0081 25000000 		.4byte	0x25
 880 0085 04       		.uleb128 0x4
 881 0086 01       		.byte	0x1
 882 0087 06       		.byte	0x6
 883 0088 54020000 		.4byte	.LASF11
 884 008c 04       		.uleb128 0x4
 885 008d 02       		.byte	0x2
 886 008e 05       		.byte	0x5
 887 008f 44000000 		.4byte	.LASF12
 888 0093 06       		.uleb128 0x6
 889 0094 04       		.byte	0x4
 890 0095 05       		.byte	0x5
 891 0096 696E7400 		.ascii	"int\000"
 892 009a 07       		.uleb128 0x7
 893 009b 93000000 		.4byte	0x93
 894 009f 04       		.uleb128 0x4
 895 00a0 08       		.byte	0x8
 896 00a1 05       		.byte	0x5
 897 00a2 63010000 		.4byte	.LASF13
 898 00a6 04       		.uleb128 0x4
 899 00a7 02       		.byte	0x2
 900 00a8 07       		.byte	0x7
 901 00a9 1A030000 		.4byte	.LASF14
 902 00ad 05       		.uleb128 0x5
 903 00ae A9000000 		.4byte	.LASF16
 904 00b2 03       		.byte	0x3
 905 00b3 0C       		.byte	0xc
 906 00b4 B8000000 		.4byte	0xb8
 907 00b8 04       		.uleb128 0x4
 908 00b9 04       		.byte	0x4
 909 00ba 07       		.byte	0x7
 910 00bb 77020000 		.4byte	.LASF17
 911 00bf 05       		.uleb128 0x5
 912 00c0 5D050000 		.4byte	.LASF18
 913 00c4 03       		.byte	0x3
 914 00c5 0D       		.byte	0xd
 915 00c6 CA000000 		.4byte	0xca
 916 00ca 04       		.uleb128 0x4
 917 00cb 08       		.byte	0x8
 918 00cc 07       		.byte	0x7
 919 00cd 60020000 		.4byte	.LASF19
 920 00d1 08       		.uleb128 0x8
 921 00d2 24000000 		.4byte	.LASF25
 922 00d6 08       		.byte	0x8
 923 00d7 04       		.byte	0x4
ARM GAS  G:\Users\Jaxb\AppData\Local\Temp\cc9mxqkM.s 			page 22


 924 00d8 04       		.byte	0x4
 925 00d9 FA000000 		.4byte	0xfa
 926 00dd 09       		.uleb128 0x9
 927 00de 75050000 		.4byte	.LASF20
 928 00e2 04       		.byte	0x4
 929 00e3 05       		.byte	0x5
 930 00e4 FA000000 		.4byte	0xfa
 931 00e8 02       		.byte	0x2
 932 00e9 23       		.byte	0x23
 933 00ea 00       		.uleb128 0
 934 00eb 09       		.uleb128 0x9
 935 00ec 40050000 		.4byte	.LASF21
 936 00f0 04       		.byte	0x4
 937 00f1 05       		.byte	0x5
 938 00f2 FA000000 		.4byte	0xfa
 939 00f6 02       		.byte	0x2
 940 00f7 23       		.byte	0x23
 941 00f8 04       		.uleb128 0x4
 942 00f9 00       		.byte	0
 943 00fa 0A       		.uleb128 0xa
 944 00fb 04       		.byte	0x4
 945 00fc D1000000 		.4byte	0xd1
 946 0100 05       		.uleb128 0x5
 947 0101 BB000000 		.4byte	.LASF22
 948 0105 05       		.byte	0x5
 949 0106 09       		.byte	0x9
 950 0107 B8000000 		.4byte	0xb8
 951 010b 05       		.uleb128 0x5
 952 010c 00000000 		.4byte	.LASF23
 953 0110 05       		.byte	0x5
 954 0111 0B       		.byte	0xb
 955 0112 B8000000 		.4byte	0xb8
 956 0116 05       		.uleb128 0x5
 957 0117 4F040000 		.4byte	.LASF24
 958 011b 05       		.byte	0x5
 959 011c 0C       		.byte	0xc
 960 011d 21010000 		.4byte	0x121
 961 0121 0A       		.uleb128 0xa
 962 0122 04       		.byte	0x4
 963 0123 27010000 		.4byte	0x127
 964 0127 0B       		.uleb128 0xb
 965 0128 01       		.byte	0x1
 966 0129 33010000 		.4byte	0x133
 967 012d 0C       		.uleb128 0xc
 968 012e 33010000 		.4byte	0x133
 969 0132 00       		.byte	0
 970 0133 0D       		.uleb128 0xd
 971 0134 04       		.byte	0x4
 972 0135 0E       		.uleb128 0xe
 973 0136 68040000 		.4byte	.LASF45
 974 013a 05       		.byte	0x5
 975 013b 12       		.byte	0x12
 976 013c 9A000000 		.4byte	0x9a
 977 0140 01       		.byte	0x1
 978 0141 01       		.byte	0x1
 979 0142 08       		.uleb128 0x8
 980 0143 22040000 		.4byte	.LASF26
ARM GAS  G:\Users\Jaxb\AppData\Local\Temp\cc9mxqkM.s 			page 23


 981 0147 48       		.byte	0x48
 982 0148 05       		.byte	0x5
 983 0149 2F       		.byte	0x2f
 984 014a 13020000 		.4byte	0x213
 985 014e 09       		.uleb128 0x9
 986 014f 96020000 		.4byte	.LASF27
 987 0153 05       		.byte	0x5
 988 0154 30       		.byte	0x30
 989 0155 13020000 		.4byte	0x213
 990 0159 02       		.byte	0x2
 991 015a 23       		.byte	0x23
 992 015b 00       		.uleb128 0
 993 015c 09       		.uleb128 0x9
 994 015d 3C040000 		.4byte	.LASF28
 995 0161 05       		.byte	0x5
 996 0162 31       		.byte	0x31
 997 0163 B8000000 		.4byte	0xb8
 998 0167 02       		.byte	0x2
 999 0168 23       		.byte	0x23
 1000 0169 04       		.uleb128 0x4
 1001 016a 09       		.uleb128 0x9
 1002 016b 42010000 		.4byte	.LASF29
 1003 016f 05       		.byte	0x5
 1004 0170 32       		.byte	0x32
 1005 0171 13020000 		.4byte	0x213
 1006 0175 02       		.byte	0x2
 1007 0176 23       		.byte	0x23
 1008 0177 08       		.uleb128 0x8
 1009 0178 09       		.uleb128 0x9
 1010 0179 64050000 		.4byte	.LASF30
 1011 017d 05       		.byte	0x5
 1012 017e 33       		.byte	0x33
 1013 017f 0B010000 		.4byte	0x10b
 1014 0183 02       		.byte	0x2
 1015 0184 23       		.byte	0x23
 1016 0185 0C       		.uleb128 0xc
 1017 0186 09       		.uleb128 0x9
 1018 0187 9E010000 		.4byte	.LASF31
 1019 018b 05       		.byte	0x5
 1020 018c 34       		.byte	0x34
 1021 018d 0B010000 		.4byte	0x10b
 1022 0191 02       		.byte	0x2
 1023 0192 23       		.byte	0x23
 1024 0193 10       		.uleb128 0x10
 1025 0194 09       		.uleb128 0x9
 1026 0195 8C030000 		.4byte	.LASF32
 1027 0199 05       		.byte	0x5
 1028 019a 35       		.byte	0x35
 1029 019b 7A000000 		.4byte	0x7a
 1030 019f 02       		.byte	0x2
 1031 01a0 23       		.byte	0x23
 1032 01a1 14       		.uleb128 0x14
 1033 01a2 09       		.uleb128 0x9
 1034 01a3 78030000 		.4byte	.LASF33
 1035 01a7 05       		.byte	0x5
 1036 01a8 36       		.byte	0x36
 1037 01a9 93000000 		.4byte	0x93
ARM GAS  G:\Users\Jaxb\AppData\Local\Temp\cc9mxqkM.s 			page 24


 1038 01ad 02       		.byte	0x2
 1039 01ae 23       		.byte	0x23
 1040 01af 18       		.uleb128 0x18
 1041 01b0 09       		.uleb128 0x9
 1042 01b1 A6020000 		.4byte	.LASF34
 1043 01b5 05       		.byte	0x5
 1044 01b6 37       		.byte	0x37
 1045 01b7 D1000000 		.4byte	0xd1
 1046 01bb 02       		.byte	0x2
 1047 01bc 23       		.byte	0x23
 1048 01bd 1C       		.uleb128 0x1c
 1049 01be 09       		.uleb128 0x9
 1050 01bf 5B040000 		.4byte	.LASF35
 1051 01c3 05       		.byte	0x5
 1052 01c4 38       		.byte	0x38
 1053 01c5 D1000000 		.4byte	0xd1
 1054 01c9 02       		.byte	0x2
 1055 01ca 23       		.byte	0x23
 1056 01cb 24       		.uleb128 0x24
 1057 01cc 09       		.uleb128 0x9
 1058 01cd EE010000 		.4byte	.LASF36
 1059 01d1 05       		.byte	0x5
 1060 01d2 39       		.byte	0x39
 1061 01d3 19020000 		.4byte	0x219
 1062 01d7 02       		.byte	0x2
 1063 01d8 23       		.byte	0x23
 1064 01d9 2C       		.uleb128 0x2c
 1065 01da 09       		.uleb128 0x9
 1066 01db 71010000 		.4byte	.LASF37
 1067 01df 05       		.byte	0x5
 1068 01e0 3A       		.byte	0x3a
 1069 01e1 B8000000 		.4byte	0xb8
 1070 01e5 02       		.byte	0x2
 1071 01e6 23       		.byte	0x23
 1072 01e7 30       		.uleb128 0x30
 1073 01e8 09       		.uleb128 0x9
 1074 01e9 E2030000 		.4byte	.LASF38
 1075 01ed 05       		.byte	0x5
 1076 01ee 3B       		.byte	0x3b
 1077 01ef B8000000 		.4byte	0xb8
 1078 01f3 02       		.byte	0x2
 1079 01f4 23       		.byte	0x23
 1080 01f5 34       		.uleb128 0x34
 1081 01f6 09       		.uleb128 0x9
 1082 01f7 48020000 		.4byte	.LASF39
 1083 01fb 05       		.byte	0x5
 1084 01fc 3C       		.byte	0x3c
 1085 01fd AD000000 		.4byte	0xad
 1086 0201 02       		.byte	0x2
 1087 0202 23       		.byte	0x23
 1088 0203 38       		.uleb128 0x38
 1089 0204 09       		.uleb128 0x9
 1090 0205 4C050000 		.4byte	.LASF40
 1091 0209 05       		.byte	0x5
 1092 020a 3D       		.byte	0x3d
 1093 020b BF000000 		.4byte	0xbf
 1094 020f 02       		.byte	0x2
ARM GAS  G:\Users\Jaxb\AppData\Local\Temp\cc9mxqkM.s 			page 25


 1095 0210 23       		.byte	0x23
 1096 0211 40       		.uleb128 0x40
 1097 0212 00       		.byte	0
 1098 0213 0A       		.uleb128 0xa
 1099 0214 04       		.byte	0x4
 1100 0215 00010000 		.4byte	0x100
 1101 0219 0A       		.uleb128 0xa
 1102 021a 04       		.byte	0x4
 1103 021b 1F020000 		.4byte	0x21f
 1104 021f 04       		.uleb128 0x4
 1105 0220 01       		.byte	0x1
 1106 0221 08       		.byte	0x8
 1107 0222 EC020000 		.4byte	.LASF41
 1108 0226 0F       		.uleb128 0xf
 1109 0227 1F020000 		.4byte	0x21f
 1110 022b 10       		.uleb128 0x10
 1111 022c 54434200 		.ascii	"TCB\000"
 1112 0230 05       		.byte	0x5
 1113 0231 3E       		.byte	0x3e
 1114 0232 42010000 		.4byte	0x142
 1115 0236 07       		.uleb128 0x7
 1116 0237 2B020000 		.4byte	0x22b
 1117 023b 05       		.uleb128 0x5
 1118 023c 2D030000 		.4byte	.LASF42
 1119 0240 06       		.byte	0x6
 1120 0241 04       		.byte	0x4
 1121 0242 B8000000 		.4byte	0xb8
 1122 0246 07       		.uleb128 0x7
 1123 0247 3B020000 		.4byte	0x23b
 1124 024b 05       		.uleb128 0x5
 1125 024c 5A030000 		.4byte	.LASF43
 1126 0250 06       		.byte	0x6
 1127 0251 05       		.byte	0x5
 1128 0252 46020000 		.4byte	0x246
 1129 0256 05       		.uleb128 0x5
 1130 0257 45050000 		.4byte	.LASF44
 1131 025b 06       		.byte	0x6
 1132 025c 06       		.byte	0x6
 1133 025d 3B020000 		.4byte	0x23b
 1134 0261 0E       		.uleb128 0xe
 1135 0262 69050000 		.4byte	.LASF46
 1136 0266 01       		.byte	0x1
 1137 0267 0D       		.byte	0xd
 1138 0268 6E020000 		.4byte	0x26e
 1139 026c 01       		.byte	0x1
 1140 026d 01       		.byte	0x1
 1141 026e 0A       		.uleb128 0xa
 1142 026f 04       		.byte	0x4
 1143 0270 36020000 		.4byte	0x236
 1144 0274 0E       		.uleb128 0xe
 1145 0275 4A030000 		.4byte	.LASF47
 1146 0279 01       		.byte	0x1
 1147 027a 0E       		.byte	0xe
 1148 027b 6E020000 		.4byte	0x26e
 1149 027f 01       		.byte	0x1
 1150 0280 01       		.byte	0x1
 1151 0281 0E       		.uleb128 0xe
ARM GAS  G:\Users\Jaxb\AppData\Local\Temp\cc9mxqkM.s 			page 26


 1152 0282 84020000 		.4byte	.LASF48
 1153 0286 01       		.byte	0x1
 1154 0287 10       		.byte	0x10
 1155 0288 BF000000 		.4byte	0xbf
 1156 028c 01       		.byte	0x1
 1157 028d 01       		.byte	0x1
 1158 028e 11       		.uleb128 0x11
 1159 028f 34000000 		.4byte	.LASF49
 1160 0293 01       		.byte	0x1
 1161 0294 16       		.byte	0x16
 1162 0295 9A000000 		.4byte	0x9a
 1163 0299 01       		.byte	0x1
 1164 029a 05       		.byte	0x5
 1165 029b 03       		.byte	0x3
 1166 029c 00000000 		.4byte	g_schedule_lock
 1167 02a0 12       		.uleb128 0x12
 1168 02a1 01       		.byte	0x1
 1169 02a2 64030000 		.4byte	.LASF78
 1170 02a6 01       		.byte	0x1
 1171 02a7 CD       		.byte	0xcd
 1172 02a8 01       		.byte	0x1
 1173 02a9 93000000 		.4byte	0x93
 1174 02ad C0020000 		.4byte	.LFB19
 1175 02b1 D0020000 		.4byte	.LFE19
 1176 02b5 02       		.byte	0x2
 1177 02b6 7D       		.byte	0x7d
 1178 02b7 00       		.sleb128 0
 1179 02b8 01       		.byte	0x1
 1180 02b9 13       		.uleb128 0x13
 1181 02ba 01       		.byte	0x1
 1182 02bb 74000000 		.4byte	.LASF50
 1183 02bf 01       		.byte	0x1
 1184 02c0 C8       		.byte	0xc8
 1185 02c1 01       		.byte	0x1
 1186 02c2 B0020000 		.4byte	.LFB18
 1187 02c6 C0020000 		.4byte	.LFE18
 1188 02ca 02       		.byte	0x2
 1189 02cb 7D       		.byte	0x7d
 1190 02cc 00       		.sleb128 0
 1191 02cd 01       		.byte	0x1
 1192 02ce 13       		.uleb128 0x13
 1193 02cf 01       		.byte	0x1
 1194 02d0 38030000 		.4byte	.LASF51
 1195 02d4 01       		.byte	0x1
 1196 02d5 C3       		.byte	0xc3
 1197 02d6 01       		.byte	0x1
 1198 02d7 A0020000 		.4byte	.LFB17
 1199 02db B0020000 		.4byte	.LFE17
 1200 02df 02       		.byte	0x2
 1201 02e0 7D       		.byte	0x7d
 1202 02e1 00       		.sleb128 0
 1203 02e2 01       		.byte	0x1
 1204 02e3 14       		.uleb128 0x14
 1205 02e4 01       		.byte	0x1
 1206 02e5 7A050000 		.4byte	.LASF56
 1207 02e9 01       		.byte	0x1
 1208 02ea A2       		.byte	0xa2
ARM GAS  G:\Users\Jaxb\AppData\Local\Temp\cc9mxqkM.s 			page 27


 1209 02eb 01       		.byte	0x1
 1210 02ec 93000000 		.4byte	0x93
 1211 02f0 24020000 		.4byte	.LFB16
 1212 02f4 A0020000 		.4byte	.LFE16
 1213 02f8 00000000 		.4byte	.LLST20
 1214 02fc 01       		.byte	0x1
 1215 02fd 3F040000 		.4byte	0x43f
 1216 0301 15       		.uleb128 0x15
 1217 0302 47040000 		.4byte	.LASF52
 1218 0306 01       		.byte	0x1
 1219 0307 A3       		.byte	0xa3
 1220 0308 3F040000 		.4byte	0x43f
 1221 030c 44000000 		.4byte	.LLST21
 1222 0310 15       		.uleb128 0x15
 1223 0311 3C040000 		.4byte	.LASF28
 1224 0315 01       		.byte	0x1
 1225 0316 A4       		.byte	0xa4
 1226 0317 B8000000 		.4byte	0xb8
 1227 031b A2000000 		.4byte	.LLST22
 1228 031f 15       		.uleb128 0x15
 1229 0320 64050000 		.4byte	.LASF30
 1230 0324 01       		.byte	0x1
 1231 0325 A5       		.byte	0xa5
 1232 0326 0B010000 		.4byte	0x10b
 1233 032a C0000000 		.4byte	.LLST23
 1234 032e 15       		.uleb128 0x15
 1235 032f 71010000 		.4byte	.LASF37
 1236 0333 01       		.byte	0x1
 1237 0334 A6       		.byte	0xa6
 1238 0335 B8000000 		.4byte	0xb8
 1239 0339 DE000000 		.4byte	.LLST24
 1240 033d 15       		.uleb128 0x15
 1241 033e EE010000 		.4byte	.LASF36
 1242 0342 01       		.byte	0x1
 1243 0343 A7       		.byte	0xa7
 1244 0344 19020000 		.4byte	0x219
 1245 0348 FC000000 		.4byte	.LLST25
 1246 034c 15       		.uleb128 0x15
 1247 034d F1020000 		.4byte	.LASF53
 1248 0351 01       		.byte	0x1
 1249 0352 A8       		.byte	0xa8
 1250 0353 16010000 		.4byte	0x116
 1251 0357 1C010000 		.4byte	.LLST26
 1252 035b 15       		.uleb128 0x15
 1253 035c 06040000 		.4byte	.LASF54
 1254 0360 01       		.byte	0x1
 1255 0361 A9       		.byte	0xa9
 1256 0362 33010000 		.4byte	0x133
 1257 0366 3C010000 		.4byte	.LLST27
 1258 036a 16       		.uleb128 0x16
 1259 036b 7A040000 		.4byte	.LASF55
 1260 036f 01       		.byte	0x1
 1261 0370 AB       		.byte	0xab
 1262 0371 56020000 		.4byte	0x256
 1263 0375 5C010000 		.4byte	.LLST28
 1264 0379 17       		.uleb128 0x17
 1265 037a 72657400 		.ascii	"ret\000"
ARM GAS  G:\Users\Jaxb\AppData\Local\Temp\cc9mxqkM.s 			page 28


 1266 037e 01       		.byte	0x1
 1267 037f B2       		.byte	0xb2
 1268 0380 93000000 		.4byte	0x93
 1269 0384 9C010000 		.4byte	.LLST29
 1270 0388 18       		.uleb128 0x18
 1271 0389 84070000 		.4byte	0x784
 1272 038d 68020000 		.4byte	.LBB22
 1273 0391 48000000 		.4byte	.Ldebug_ranges0+0x48
 1274 0395 01       		.byte	0x1
 1275 0396 BE       		.byte	0xbe
 1276 0397 B0030000 		.4byte	0x3b0
 1277 039b 19       		.uleb128 0x19
 1278 039c 48000000 		.4byte	.Ldebug_ranges0+0x48
 1279 03a0 1A       		.uleb128 0x1a
 1280 03a1 F9070000 		.4byte	0x7f9
 1281 03a5 1B       		.uleb128 0x1b
 1282 03a6 80020000 		.4byte	.LVL72
 1283 03aa 9E070000 		.4byte	0x79e
 1284 03ae 00       		.byte	0
 1285 03af 00       		.byte	0
 1286 03b0 1B       		.uleb128 0x1b
 1287 03b1 36020000 		.4byte	.LVL63
 1288 03b5 09080000 		.4byte	0x809
 1289 03b9 1C       		.uleb128 0x1c
 1290 03ba 5C020000 		.4byte	.LVL66
 1291 03be 16080000 		.4byte	0x816
 1292 03c2 FD030000 		.4byte	0x3fd
 1293 03c6 1D       		.uleb128 0x1d
 1294 03c7 01       		.byte	0x1
 1295 03c8 50       		.byte	0x50
 1296 03c9 02       		.byte	0x2
 1297 03ca 74       		.byte	0x74
 1298 03cb 00       		.sleb128 0
 1299 03cc 1D       		.uleb128 0x1d
 1300 03cd 01       		.byte	0x1
 1301 03ce 51       		.byte	0x51
 1302 03cf 02       		.byte	0x2
 1303 03d0 76       		.byte	0x76
 1304 03d1 00       		.sleb128 0
 1305 03d2 1D       		.uleb128 0x1d
 1306 03d3 01       		.byte	0x1
 1307 03d4 52       		.byte	0x52
 1308 03d5 02       		.byte	0x2
 1309 03d6 77       		.byte	0x77
 1310 03d7 00       		.sleb128 0
 1311 03d8 1D       		.uleb128 0x1d
 1312 03d9 01       		.byte	0x1
 1313 03da 53       		.byte	0x53
 1314 03db 02       		.byte	0x2
 1315 03dc 78       		.byte	0x78
 1316 03dd 00       		.sleb128 0
 1317 03de 1D       		.uleb128 0x1d
 1318 03df 02       		.byte	0x2
 1319 03e0 7D       		.byte	0x7d
 1320 03e1 00       		.sleb128 0
 1321 03e2 03       		.byte	0x3
 1322 03e3 91       		.byte	0x91
ARM GAS  G:\Users\Jaxb\AppData\Local\Temp\cc9mxqkM.s 			page 29


 1323 03e4 00       		.sleb128 0
 1324 03e5 06       		.byte	0x6
 1325 03e6 1D       		.uleb128 0x1d
 1326 03e7 02       		.byte	0x2
 1327 03e8 7D       		.byte	0x7d
 1328 03e9 04       		.sleb128 4
 1329 03ea 03       		.byte	0x3
 1330 03eb 91       		.byte	0x91
 1331 03ec 04       		.sleb128 4
 1332 03ed 06       		.byte	0x6
 1333 03ee 1D       		.uleb128 0x1d
 1334 03ef 02       		.byte	0x2
 1335 03f0 7D       		.byte	0x7d
 1336 03f1 08       		.sleb128 8
 1337 03f2 03       		.byte	0x3
 1338 03f3 91       		.byte	0x91
 1339 03f4 08       		.sleb128 8
 1340 03f5 06       		.byte	0x6
 1341 03f6 1D       		.uleb128 0x1d
 1342 03f7 02       		.byte	0x2
 1343 03f8 7D       		.byte	0x7d
 1344 03f9 0C       		.sleb128 12
 1345 03fa 01       		.byte	0x1
 1346 03fb 31       		.byte	0x31
 1347 03fc 00       		.byte	0
 1348 03fd 1C       		.uleb128 0x1c
 1349 03fe 64020000 		.4byte	.LVL67
 1350 0402 23080000 		.4byte	0x823
 1351 0406 11040000 		.4byte	0x411
 1352 040a 1D       		.uleb128 0x1d
 1353 040b 01       		.byte	0x1
 1354 040c 50       		.byte	0x50
 1355 040d 02       		.byte	0x2
 1356 040e 74       		.byte	0x74
 1357 040f 00       		.sleb128 0
 1358 0410 00       		.byte	0
 1359 0411 1C       		.uleb128 0x1c
 1360 0412 74020000 		.4byte	.LVL70
 1361 0416 30080000 		.4byte	0x830
 1362 041a 25040000 		.4byte	0x425
 1363 041e 1D       		.uleb128 0x1d
 1364 041f 01       		.byte	0x1
 1365 0420 50       		.byte	0x50
 1366 0421 02       		.byte	0x2
 1367 0422 79       		.byte	0x79
 1368 0423 00       		.sleb128 0
 1369 0424 00       		.byte	0
 1370 0425 1B       		.uleb128 0x1b
 1371 0426 86020000 		.4byte	.LVL74
 1372 042a 30080000 		.4byte	0x830
 1373 042e 1E       		.uleb128 0x1e
 1374 042f 92020000 		.4byte	.LVL77
 1375 0433 30080000 		.4byte	0x830
 1376 0437 1D       		.uleb128 0x1d
 1377 0438 01       		.byte	0x1
 1378 0439 50       		.byte	0x50
 1379 043a 02       		.byte	0x2
ARM GAS  G:\Users\Jaxb\AppData\Local\Temp\cc9mxqkM.s 			page 30


 1380 043b 79       		.byte	0x79
 1381 043c 00       		.sleb128 0
 1382 043d 00       		.byte	0
 1383 043e 00       		.byte	0
 1384 043f 0A       		.uleb128 0xa
 1385 0440 04       		.byte	0x4
 1386 0441 2B020000 		.4byte	0x22b
 1387 0445 14       		.uleb128 0x14
 1388 0446 01       		.byte	0x1
 1389 0447 C6010000 		.4byte	.LASF57
 1390 044b 01       		.byte	0x1
 1391 044c 7E       		.byte	0x7e
 1392 044d 01       		.byte	0x1
 1393 044e 93000000 		.4byte	0x93
 1394 0452 AC010000 		.4byte	.LFB15
 1395 0456 24020000 		.4byte	.LFE15
 1396 045a D0010000 		.4byte	.LLST9
 1397 045e 01       		.byte	0x1
 1398 045f 8E050000 		.4byte	0x58e
 1399 0463 15       		.uleb128 0x15
 1400 0464 3C040000 		.4byte	.LASF28
 1401 0468 01       		.byte	0x1
 1402 0469 7F       		.byte	0x7f
 1403 046a B8000000 		.4byte	0xb8
 1404 046e 14020000 		.4byte	.LLST10
 1405 0472 15       		.uleb128 0x15
 1406 0473 64050000 		.4byte	.LASF30
 1407 0477 01       		.byte	0x1
 1408 0478 80       		.byte	0x80
 1409 0479 0B010000 		.4byte	0x10b
 1410 047d 32020000 		.4byte	.LLST11
 1411 0481 15       		.uleb128 0x15
 1412 0482 71010000 		.4byte	.LASF37
 1413 0486 01       		.byte	0x1
 1414 0487 81       		.byte	0x81
 1415 0488 B8000000 		.4byte	0xb8
 1416 048c 50020000 		.4byte	.LLST12
 1417 0490 15       		.uleb128 0x15
 1418 0491 EE010000 		.4byte	.LASF36
 1419 0495 01       		.byte	0x1
 1420 0496 82       		.byte	0x82
 1421 0497 8E050000 		.4byte	0x58e
 1422 049b 6E020000 		.4byte	.LLST13
 1423 049f 15       		.uleb128 0x15
 1424 04a0 F1020000 		.4byte	.LASF53
 1425 04a4 01       		.byte	0x1
 1426 04a5 83       		.byte	0x83
 1427 04a6 16010000 		.4byte	0x116
 1428 04aa 8C020000 		.4byte	.LLST14
 1429 04ae 15       		.uleb128 0x15
 1430 04af 06040000 		.4byte	.LASF54
 1431 04b3 01       		.byte	0x1
 1432 04b4 84       		.byte	0x84
 1433 04b5 33010000 		.4byte	0x133
 1434 04b9 AC020000 		.4byte	.LLST15
 1435 04bd 1F       		.uleb128 0x1f
 1436 04be 70747200 		.ascii	"ptr\000"
ARM GAS  G:\Users\Jaxb\AppData\Local\Temp\cc9mxqkM.s 			page 31


 1437 04c2 01       		.byte	0x1
 1438 04c3 85       		.byte	0x85
 1439 04c4 94050000 		.4byte	0x594
 1440 04c8 CC020000 		.4byte	.LLST16
 1441 04cc 17       		.uleb128 0x17
 1442 04cd 72657400 		.ascii	"ret\000"
 1443 04d1 01       		.byte	0x1
 1444 04d2 87       		.byte	0x87
 1445 04d3 93000000 		.4byte	0x93
 1446 04d7 EC020000 		.4byte	.LLST17
 1447 04db 16       		.uleb128 0x16
 1448 04dc 7A040000 		.4byte	.LASF55
 1449 04e0 01       		.byte	0x1
 1450 04e1 88       		.byte	0x88
 1451 04e2 56020000 		.4byte	0x256
 1452 04e6 20030000 		.4byte	.LLST18
 1453 04ea 16       		.uleb128 0x16
 1454 04eb 47040000 		.4byte	.LASF52
 1455 04ef 01       		.byte	0x1
 1456 04f0 8F       		.byte	0x8f
 1457 04f1 3F040000 		.4byte	0x43f
 1458 04f5 60030000 		.4byte	.LLST19
 1459 04f9 18       		.uleb128 0x18
 1460 04fa 84070000 		.4byte	0x784
 1461 04fe F0010000 		.4byte	.LBB18
 1462 0502 30000000 		.4byte	.Ldebug_ranges0+0x30
 1463 0506 01       		.byte	0x1
 1464 0507 9D       		.byte	0x9d
 1465 0508 21050000 		.4byte	0x521
 1466 050c 19       		.uleb128 0x19
 1467 050d 30000000 		.4byte	.Ldebug_ranges0+0x30
 1468 0511 1A       		.uleb128 0x1a
 1469 0512 F9070000 		.4byte	0x7f9
 1470 0516 1B       		.uleb128 0x1b
 1471 0517 08020000 		.4byte	.LVL58
 1472 051b 9E070000 		.4byte	0x79e
 1473 051f 00       		.byte	0
 1474 0520 00       		.byte	0
 1475 0521 1B       		.uleb128 0x1b
 1476 0522 C0010000 		.4byte	.LVL50
 1477 0526 09080000 		.4byte	0x809
 1478 052a 1C       		.uleb128 0x1c
 1479 052b E2010000 		.4byte	.LVL53
 1480 052f 3D080000 		.4byte	0x83d
 1481 0533 67050000 		.4byte	0x567
 1482 0537 1D       		.uleb128 0x1d
 1483 0538 01       		.byte	0x1
 1484 0539 50       		.byte	0x50
 1485 053a 02       		.byte	0x2
 1486 053b 76       		.byte	0x76
 1487 053c 00       		.sleb128 0
 1488 053d 1D       		.uleb128 0x1d
 1489 053e 01       		.byte	0x1
 1490 053f 51       		.byte	0x51
 1491 0540 02       		.byte	0x2
 1492 0541 77       		.byte	0x77
 1493 0542 00       		.sleb128 0
ARM GAS  G:\Users\Jaxb\AppData\Local\Temp\cc9mxqkM.s 			page 32


 1494 0543 1D       		.uleb128 0x1d
 1495 0544 01       		.byte	0x1
 1496 0545 52       		.byte	0x52
 1497 0546 02       		.byte	0x2
 1498 0547 79       		.byte	0x79
 1499 0548 00       		.sleb128 0
 1500 0549 1D       		.uleb128 0x1d
 1501 054a 01       		.byte	0x1
 1502 054b 53       		.byte	0x53
 1503 054c 02       		.byte	0x2
 1504 054d 7A       		.byte	0x7a
 1505 054e 00       		.sleb128 0
 1506 054f 1D       		.uleb128 0x1d
 1507 0550 02       		.byte	0x2
 1508 0551 7D       		.byte	0x7d
 1509 0552 00       		.sleb128 0
 1510 0553 03       		.byte	0x3
 1511 0554 91       		.byte	0x91
 1512 0555 00       		.sleb128 0
 1513 0556 06       		.byte	0x6
 1514 0557 1D       		.uleb128 0x1d
 1515 0558 02       		.byte	0x2
 1516 0559 7D       		.byte	0x7d
 1517 055a 04       		.sleb128 4
 1518 055b 03       		.byte	0x3
 1519 055c 91       		.byte	0x91
 1520 055d 04       		.sleb128 4
 1521 055e 06       		.byte	0x6
 1522 055f 1D       		.uleb128 0x1d
 1523 0560 02       		.byte	0x2
 1524 0561 7D       		.byte	0x7d
 1525 0562 08       		.sleb128 8
 1526 0563 02       		.byte	0x2
 1527 0564 75       		.byte	0x75
 1528 0565 00       		.sleb128 0
 1529 0566 00       		.byte	0
 1530 0567 1B       		.uleb128 0x1b
 1531 0568 EC010000 		.4byte	.LVL54
 1532 056c 23080000 		.4byte	0x823
 1533 0570 1C       		.uleb128 0x1c
 1534 0571 FC010000 		.4byte	.LVL56
 1535 0575 30080000 		.4byte	0x830
 1536 0579 84050000 		.4byte	0x584
 1537 057d 1D       		.uleb128 0x1d
 1538 057e 01       		.byte	0x1
 1539 057f 50       		.byte	0x50
 1540 0580 02       		.byte	0x2
 1541 0581 78       		.byte	0x78
 1542 0582 00       		.sleb128 0
 1543 0583 00       		.byte	0
 1544 0584 1B       		.uleb128 0x1b
 1545 0585 0E020000 		.4byte	.LVL60
 1546 0589 30080000 		.4byte	0x830
 1547 058d 00       		.byte	0
 1548 058e 0A       		.uleb128 0xa
 1549 058f 04       		.byte	0x4
 1550 0590 26020000 		.4byte	0x226
ARM GAS  G:\Users\Jaxb\AppData\Local\Temp\cc9mxqkM.s 			page 33


 1551 0594 0A       		.uleb128 0xa
 1552 0595 04       		.byte	0x4
 1553 0596 3F040000 		.4byte	0x43f
 1554 059a 14       		.uleb128 0x14
 1555 059b 01       		.byte	0x1
 1556 059c E2010000 		.4byte	.LASF58
 1557 05a0 01       		.byte	0x1
 1558 05a1 5D       		.byte	0x5d
 1559 05a2 01       		.byte	0x1
 1560 05a3 93000000 		.4byte	0x93
 1561 05a7 34010000 		.4byte	.LFB14
 1562 05ab AC010000 		.4byte	.LFE14
 1563 05af 7E030000 		.4byte	.LLST6
 1564 05b3 01       		.byte	0x1
 1565 05b4 6B060000 		.4byte	0x66b
 1566 05b8 15       		.uleb128 0x15
 1567 05b9 2E000000 		.4byte	.LASF59
 1568 05bd 01       		.byte	0x1
 1569 05be 5D       		.byte	0x5d
 1570 05bf 7A000000 		.4byte	0x7a
 1571 05c3 9E030000 		.4byte	.LLST7
 1572 05c7 16       		.uleb128 0x16
 1573 05c8 7A040000 		.4byte	.LASF55
 1574 05cc 01       		.byte	0x1
 1575 05cd 6F       		.byte	0x6f
 1576 05ce 56020000 		.4byte	0x256
 1577 05d2 D8030000 		.4byte	.LLST8
 1578 05d6 18       		.uleb128 0x18
 1579 05d7 84070000 		.4byte	0x784
 1580 05db 78010000 		.4byte	.LBB14
 1581 05df 18000000 		.4byte	.Ldebug_ranges0+0x18
 1582 05e3 01       		.byte	0x1
 1583 05e4 79       		.byte	0x79
 1584 05e5 FE050000 		.4byte	0x5fe
 1585 05e9 19       		.uleb128 0x19
 1586 05ea 18000000 		.4byte	.Ldebug_ranges0+0x18
 1587 05ee 1A       		.uleb128 0x1a
 1588 05ef F9070000 		.4byte	0x7f9
 1589 05f3 1B       		.uleb128 0x1b
 1590 05f4 8C010000 		.4byte	.LVL45
 1591 05f8 9E070000 		.4byte	0x79e
 1592 05fc 00       		.byte	0
 1593 05fd 00       		.byte	0
 1594 05fe 1C       		.uleb128 0x1c
 1595 05ff 44010000 		.4byte	.LVL34
 1596 0603 4A080000 		.4byte	0x84a
 1597 0607 1B060000 		.4byte	0x61b
 1598 060b 1D       		.uleb128 0x1d
 1599 060c 01       		.byte	0x1
 1600 060d 50       		.byte	0x50
 1601 060e 05       		.byte	0x5
 1602 060f 03       		.byte	0x3
 1603 0610 00000000 		.4byte	.LC0
 1604 0614 1D       		.uleb128 0x1d
 1605 0615 01       		.byte	0x1
 1606 0616 51       		.byte	0x51
 1607 0617 02       		.byte	0x2
ARM GAS  G:\Users\Jaxb\AppData\Local\Temp\cc9mxqkM.s 			page 34


 1608 0618 08       		.byte	0x8
 1609 0619 63       		.byte	0x63
 1610 061a 00       		.byte	0
 1611 061b 1C       		.uleb128 0x1c
 1612 061c 4A010000 		.4byte	.LVL35
 1613 0620 57080000 		.4byte	0x857
 1614 0624 32060000 		.4byte	0x632
 1615 0628 1D       		.uleb128 0x1d
 1616 0629 01       		.byte	0x1
 1617 062a 50       		.byte	0x50
 1618 062b 05       		.byte	0x5
 1619 062c 03       		.byte	0x3
 1620 062d 74000000 		.4byte	.LC2
 1621 0631 00       		.byte	0
 1622 0632 1B       		.uleb128 0x1b
 1623 0633 5E010000 		.4byte	.LVL38
 1624 0637 09080000 		.4byte	0x809
 1625 063b 1B       		.uleb128 0x1b
 1626 063c 72010000 		.4byte	.LVL41
 1627 0640 64080000 		.4byte	0x864
 1628 0644 1B       		.uleb128 0x1b
 1629 0645 78010000 		.4byte	.LVL42
 1630 0649 71080000 		.4byte	0x871
 1631 064d 1C       		.uleb128 0x1c
 1632 064e 84010000 		.4byte	.LVL43
 1633 0652 30080000 		.4byte	0x830
 1634 0656 61060000 		.4byte	0x661
 1635 065a 1D       		.uleb128 0x1d
 1636 065b 01       		.byte	0x1
 1637 065c 50       		.byte	0x50
 1638 065d 02       		.byte	0x2
 1639 065e 76       		.byte	0x76
 1640 065f 00       		.sleb128 0
 1641 0660 00       		.byte	0
 1642 0661 1B       		.uleb128 0x1b
 1643 0662 92010000 		.4byte	.LVL47
 1644 0666 30080000 		.4byte	0x830
 1645 066a 00       		.byte	0
 1646 066b 14       		.uleb128 0x14
 1647 066c 01       		.byte	0x1
 1648 066d F1000000 		.4byte	.LASF60
 1649 0671 01       		.byte	0x1
 1650 0672 39       		.byte	0x39
 1651 0673 01       		.byte	0x1
 1652 0674 93000000 		.4byte	0x93
 1653 0678 50000000 		.4byte	.LFB13
 1654 067c 34010000 		.4byte	.LFE13
 1655 0680 18040000 		.4byte	.LLST2
 1656 0684 01       		.byte	0x1
 1657 0685 84070000 		.4byte	0x784
 1658 0689 15       		.uleb128 0x15
 1659 068a F6030000 		.4byte	.LASF61
 1660 068e 01       		.byte	0x1
 1661 068f 39       		.byte	0x39
 1662 0690 B8000000 		.4byte	0xb8
 1663 0694 38040000 		.4byte	.LLST3
 1664 0698 15       		.uleb128 0x15
ARM GAS  G:\Users\Jaxb\AppData\Local\Temp\cc9mxqkM.s 			page 35


 1665 0699 2E000000 		.4byte	.LASF59
 1666 069d 01       		.byte	0x1
 1667 069e 39       		.byte	0x39
 1668 069f 7A000000 		.4byte	0x7a
 1669 06a3 6C040000 		.4byte	.LLST4
 1670 06a7 16       		.uleb128 0x16
 1671 06a8 7A040000 		.4byte	.LASF55
 1672 06ac 01       		.byte	0x1
 1673 06ad 4D       		.byte	0x4d
 1674 06ae 56020000 		.4byte	0x256
 1675 06b2 A6040000 		.4byte	.LLST5
 1676 06b6 18       		.uleb128 0x18
 1677 06b7 84070000 		.4byte	0x784
 1678 06bb 9E000000 		.4byte	.LBB10
 1679 06bf 00000000 		.4byte	.Ldebug_ranges0+0
 1680 06c3 01       		.byte	0x1
 1681 06c4 58       		.byte	0x58
 1682 06c5 DE060000 		.4byte	0x6de
 1683 06c9 19       		.uleb128 0x19
 1684 06ca 00000000 		.4byte	.Ldebug_ranges0+0
 1685 06ce 1A       		.uleb128 0x1a
 1686 06cf F9070000 		.4byte	0x7f9
 1687 06d3 1B       		.uleb128 0x1b
 1688 06d4 FE000000 		.4byte	.LVL27
 1689 06d8 9E070000 		.4byte	0x79e
 1690 06dc 00       		.byte	0
 1691 06dd 00       		.byte	0
 1692 06de 1C       		.uleb128 0x1c
 1693 06df 64000000 		.4byte	.LVL12
 1694 06e3 4A080000 		.4byte	0x84a
 1695 06e7 FB060000 		.4byte	0x6fb
 1696 06eb 1D       		.uleb128 0x1d
 1697 06ec 01       		.byte	0x1
 1698 06ed 50       		.byte	0x50
 1699 06ee 05       		.byte	0x5
 1700 06ef 03       		.byte	0x3
 1701 06f0 00000000 		.4byte	.LC0
 1702 06f4 1D       		.uleb128 0x1d
 1703 06f5 01       		.byte	0x1
 1704 06f6 51       		.byte	0x51
 1705 06f7 02       		.byte	0x2
 1706 06f8 08       		.byte	0x8
 1707 06f9 3E       		.byte	0x3e
 1708 06fa 00       		.byte	0
 1709 06fb 1B       		.uleb128 0x1b
 1710 06fc 70000000 		.4byte	.LVL14
 1711 0700 09080000 		.4byte	0x809
 1712 0704 1B       		.uleb128 0x1b
 1713 0705 98000000 		.4byte	.LVL17
 1714 0709 64080000 		.4byte	0x864
 1715 070d 1B       		.uleb128 0x1b
 1716 070e 9E000000 		.4byte	.LVL18
 1717 0712 7E080000 		.4byte	0x87e
 1718 0716 1C       		.uleb128 0x1c
 1719 0717 AA000000 		.4byte	.LVL19
 1720 071b 30080000 		.4byte	0x830
 1721 071f 2A070000 		.4byte	0x72a
ARM GAS  G:\Users\Jaxb\AppData\Local\Temp\cc9mxqkM.s 			page 36


 1722 0723 1D       		.uleb128 0x1d
 1723 0724 01       		.byte	0x1
 1724 0725 50       		.byte	0x50
 1725 0726 02       		.byte	0x2
 1726 0727 77       		.byte	0x77
 1727 0728 00       		.sleb128 0
 1728 0729 00       		.byte	0
 1729 072a 1B       		.uleb128 0x1b
 1730 072b B4000000 		.4byte	.LVL20
 1731 072f 8B080000 		.4byte	0x88b
 1732 0733 1C       		.uleb128 0x1c
 1733 0734 D0000000 		.4byte	.LVL24
 1734 0738 4A080000 		.4byte	0x84a
 1735 073c 50070000 		.4byte	0x750
 1736 0740 1D       		.uleb128 0x1d
 1737 0741 01       		.byte	0x1
 1738 0742 50       		.byte	0x50
 1739 0743 05       		.byte	0x5
 1740 0744 03       		.byte	0x3
 1741 0745 00000000 		.4byte	.LC0
 1742 0749 1D       		.uleb128 0x1d
 1743 074a 01       		.byte	0x1
 1744 074b 51       		.byte	0x51
 1745 074c 02       		.byte	0x2
 1746 074d 08       		.byte	0x8
 1747 074e 3F       		.byte	0x3f
 1748 074f 00       		.byte	0
 1749 0750 1C       		.uleb128 0x1c
 1750 0751 E6000000 		.4byte	.LVL25
 1751 0755 57080000 		.4byte	0x857
 1752 0759 67070000 		.4byte	0x767
 1753 075d 1D       		.uleb128 0x1d
 1754 075e 01       		.byte	0x1
 1755 075f 50       		.byte	0x50
 1756 0760 05       		.byte	0x5
 1757 0761 03       		.byte	0x3
 1758 0762 74000000 		.4byte	.LC2
 1759 0766 00       		.byte	0
 1760 0767 1B       		.uleb128 0x1b
 1761 0768 04010000 		.4byte	.LVL29
 1762 076c 30080000 		.4byte	0x830
 1763 0770 1E       		.uleb128 0x1e
 1764 0771 10010000 		.4byte	.LVL31
 1765 0775 57080000 		.4byte	0x857
 1766 0779 1D       		.uleb128 0x1d
 1767 077a 01       		.byte	0x1
 1768 077b 50       		.byte	0x50
 1769 077c 05       		.byte	0x5
 1770 077d 03       		.byte	0x3
 1771 077e 38000000 		.4byte	.LC1
 1772 0782 00       		.byte	0
 1773 0783 00       		.byte	0
 1774 0784 20       		.uleb128 0x20
 1775 0785 01       		.byte	0x1
 1776 0786 04010000 		.4byte	.LASF79
 1777 078a 01       		.byte	0x1
 1778 078b 18       		.byte	0x18
ARM GAS  G:\Users\Jaxb\AppData\Local\Temp\cc9mxqkM.s 			page 37


 1779 078c 01       		.byte	0x1
 1780 078d 01       		.byte	0x1
 1781 078e 9E070000 		.4byte	0x79e
 1782 0792 21       		.uleb128 0x21
 1783 0793 7A040000 		.4byte	.LASF55
 1784 0797 01       		.byte	0x1
 1785 0798 1C       		.byte	0x1c
 1786 0799 56020000 		.4byte	0x256
 1787 079d 00       		.byte	0
 1788 079e 22       		.uleb128 0x22
 1789 079f 84070000 		.4byte	0x784
 1790 07a3 00000000 		.4byte	.LFB20
 1791 07a7 40000000 		.4byte	.LFE20
 1792 07ab F1040000 		.4byte	.LLST0
 1793 07af 01       		.byte	0x1
 1794 07b0 E4070000 		.4byte	0x7e4
 1795 07b4 23       		.uleb128 0x23
 1796 07b5 92070000 		.4byte	0x792
 1797 07b9 35050000 		.4byte	.LLST1
 1798 07bd 1B       		.uleb128 0x1b
 1799 07be 06000000 		.4byte	.LVL1
 1800 07c2 09080000 		.4byte	0x809
 1801 07c6 1B       		.uleb128 0x1b
 1802 07c7 0C000000 		.4byte	.LVL3
 1803 07cb 98080000 		.4byte	0x898
 1804 07cf 24       		.uleb128 0x24
 1805 07d0 2A000000 		.4byte	.LVL5
 1806 07d4 01       		.byte	0x1
 1807 07d5 30080000 		.4byte	0x830
 1808 07d9 24       		.uleb128 0x24
 1809 07da 34000000 		.4byte	.LVL7
 1810 07de 01       		.byte	0x1
 1811 07df 30080000 		.4byte	0x830
 1812 07e3 00       		.byte	0
 1813 07e4 25       		.uleb128 0x25
 1814 07e5 84070000 		.4byte	0x784
 1815 07e9 40000000 		.4byte	.LFB12
 1816 07ed 50000000 		.4byte	.LFE12
 1817 07f1 02       		.byte	0x2
 1818 07f2 7D       		.byte	0x7d
 1819 07f3 00       		.sleb128 0
 1820 07f4 01       		.byte	0x1
 1821 07f5 09080000 		.4byte	0x809
 1822 07f9 1A       		.uleb128 0x1a
 1823 07fa 92070000 		.4byte	0x792
 1824 07fe 24       		.uleb128 0x24
 1825 07ff 4A000000 		.4byte	.LVL8
 1826 0803 01       		.byte	0x1
 1827 0804 9E070000 		.4byte	0x79e
 1828 0808 00       		.byte	0
 1829 0809 26       		.uleb128 0x26
 1830 080a 01       		.byte	0x1
 1831 080b 01       		.byte	0x1
 1832 080c 09020000 		.4byte	.LASF62
 1833 0810 09020000 		.4byte	.LASF62
 1834 0814 06       		.byte	0x6
 1835 0815 35       		.byte	0x35
ARM GAS  G:\Users\Jaxb\AppData\Local\Temp\cc9mxqkM.s 			page 38


 1836 0816 26       		.uleb128 0x26
 1837 0817 01       		.byte	0x1
 1838 0818 01       		.byte	0x1
 1839 0819 9C020000 		.4byte	.LASF63
 1840 081d 9C020000 		.4byte	.LASF63
 1841 0821 05       		.byte	0x5
 1842 0822 4A       		.byte	0x4a
 1843 0823 26       		.uleb128 0x26
 1844 0824 01       		.byte	0x1
 1845 0825 01       		.byte	0x1
 1846 0826 AB010000 		.4byte	.LASF64
 1847 082a AB010000 		.4byte	.LASF64
 1848 082e 07       		.byte	0x7
 1849 082f 06       		.byte	0x6
 1850 0830 26       		.uleb128 0x26
 1851 0831 01       		.byte	0x1
 1852 0832 01       		.byte	0x1
 1853 0833 65000000 		.4byte	.LASF65
 1854 0837 65000000 		.4byte	.LASF65
 1855 083b 06       		.byte	0x6
 1856 083c 36       		.byte	0x36
 1857 083d 26       		.uleb128 0x26
 1858 083e 01       		.byte	0x1
 1859 083f 01       		.byte	0x1
 1860 0840 B0000000 		.4byte	.LASF66
 1861 0844 B0000000 		.4byte	.LASF66
 1862 0848 05       		.byte	0x5
 1863 0849 41       		.byte	0x41
 1864 084a 26       		.uleb128 0x26
 1865 084b 01       		.byte	0x1
 1866 084c 01       		.byte	0x1
 1867 084d F3010000 		.4byte	.LASF67
 1868 0851 F3010000 		.4byte	.LASF67
 1869 0855 08       		.byte	0x8
 1870 0856 06       		.byte	0x6
 1871 0857 26       		.uleb128 0x26
 1872 0858 01       		.byte	0x1
 1873 0859 01       		.byte	0x1
 1874 085a BC010000 		.4byte	.LASF68
 1875 085e BC010000 		.4byte	.LASF68
 1876 0862 09       		.byte	0x9
 1877 0863 0C       		.byte	0xc
 1878 0864 26       		.uleb128 0x26
 1879 0865 01       		.byte	0x1
 1880 0866 01       		.byte	0x1
 1881 0867 D6020000 		.4byte	.LASF69
 1882 086b D6020000 		.4byte	.LASF69
 1883 086f 07       		.byte	0x7
 1884 0870 07       		.byte	0x7
 1885 0871 26       		.uleb128 0x26
 1886 0872 01       		.byte	0x1
 1887 0873 01       		.byte	0x1
 1888 0874 85010000 		.4byte	.LASF70
 1889 0878 85010000 		.4byte	.LASF70
 1890 087c 0A       		.byte	0xa
 1891 087d 07       		.byte	0x7
 1892 087e 26       		.uleb128 0x26
ARM GAS  G:\Users\Jaxb\AppData\Local\Temp\cc9mxqkM.s 			page 39


 1893 087f 01       		.byte	0x1
 1894 0880 01       		.byte	0x1
 1895 0881 4E000000 		.4byte	.LASF71
 1896 0885 4E000000 		.4byte	.LASF71
 1897 0889 0B       		.byte	0xb
 1898 088a 08       		.byte	0x8
 1899 088b 26       		.uleb128 0x26
 1900 088c 01       		.byte	0x1
 1901 088d 01       		.byte	0x1
 1902 088e FB000000 		.4byte	.LASF72
 1903 0892 FB000000 		.4byte	.LASF72
 1904 0896 0C       		.byte	0xc
 1905 0897 07       		.byte	0x7
 1906 0898 26       		.uleb128 0x26
 1907 0899 01       		.byte	0x1
 1908 089a 01       		.byte	0x1
 1909 089b 21020000 		.4byte	.LASF73
 1910 089f 21020000 		.4byte	.LASF73
 1911 08a3 07       		.byte	0x7
 1912 08a4 08       		.byte	0x8
 1913 08a5 00       		.byte	0
 1914              		.section	.debug_abbrev,"",%progbits
 1915              	.Ldebug_abbrev0:
 1916 0000 01       		.uleb128 0x1
 1917 0001 11       		.uleb128 0x11
 1918 0002 01       		.byte	0x1
 1919 0003 25       		.uleb128 0x25
 1920 0004 0E       		.uleb128 0xe
 1921 0005 13       		.uleb128 0x13
 1922 0006 0B       		.uleb128 0xb
 1923 0007 03       		.uleb128 0x3
 1924 0008 0E       		.uleb128 0xe
 1925 0009 1B       		.uleb128 0x1b
 1926 000a 0E       		.uleb128 0xe
 1927 000b 11       		.uleb128 0x11
 1928 000c 01       		.uleb128 0x1
 1929 000d 12       		.uleb128 0x12
 1930 000e 01       		.uleb128 0x1
 1931 000f 10       		.uleb128 0x10
 1932 0010 06       		.uleb128 0x6
 1933 0011 00       		.byte	0
 1934 0012 00       		.byte	0
 1935 0013 02       		.uleb128 0x2
 1936 0014 04       		.uleb128 0x4
 1937 0015 01       		.byte	0x1
 1938 0016 03       		.uleb128 0x3
 1939 0017 0E       		.uleb128 0xe
 1940 0018 3E       		.uleb128 0x3e
 1941 0019 0B       		.uleb128 0xb
 1942 001a 0B       		.uleb128 0xb
 1943 001b 0B       		.uleb128 0xb
 1944 001c 49       		.uleb128 0x49
 1945 001d 13       		.uleb128 0x13
 1946 001e 3A       		.uleb128 0x3a
 1947 001f 0B       		.uleb128 0xb
 1948 0020 3B       		.uleb128 0x3b
 1949 0021 0B       		.uleb128 0xb
ARM GAS  G:\Users\Jaxb\AppData\Local\Temp\cc9mxqkM.s 			page 40


 1950 0022 01       		.uleb128 0x1
 1951 0023 13       		.uleb128 0x13
 1952 0024 00       		.byte	0
 1953 0025 00       		.byte	0
 1954 0026 03       		.uleb128 0x3
 1955 0027 28       		.uleb128 0x28
 1956 0028 00       		.byte	0
 1957 0029 03       		.uleb128 0x3
 1958 002a 0E       		.uleb128 0xe
 1959 002b 1C       		.uleb128 0x1c
 1960 002c 0B       		.uleb128 0xb
 1961 002d 00       		.byte	0
 1962 002e 00       		.byte	0
 1963 002f 04       		.uleb128 0x4
 1964 0030 24       		.uleb128 0x24
 1965 0031 00       		.byte	0
 1966 0032 0B       		.uleb128 0xb
 1967 0033 0B       		.uleb128 0xb
 1968 0034 3E       		.uleb128 0x3e
 1969 0035 0B       		.uleb128 0xb
 1970 0036 03       		.uleb128 0x3
 1971 0037 0E       		.uleb128 0xe
 1972 0038 00       		.byte	0
 1973 0039 00       		.byte	0
 1974 003a 05       		.uleb128 0x5
 1975 003b 16       		.uleb128 0x16
 1976 003c 00       		.byte	0
 1977 003d 03       		.uleb128 0x3
 1978 003e 0E       		.uleb128 0xe
 1979 003f 3A       		.uleb128 0x3a
 1980 0040 0B       		.uleb128 0xb
 1981 0041 3B       		.uleb128 0x3b
 1982 0042 0B       		.uleb128 0xb
 1983 0043 49       		.uleb128 0x49
 1984 0044 13       		.uleb128 0x13
 1985 0045 00       		.byte	0
 1986 0046 00       		.byte	0
 1987 0047 06       		.uleb128 0x6
 1988 0048 24       		.uleb128 0x24
 1989 0049 00       		.byte	0
 1990 004a 0B       		.uleb128 0xb
 1991 004b 0B       		.uleb128 0xb
 1992 004c 3E       		.uleb128 0x3e
 1993 004d 0B       		.uleb128 0xb
 1994 004e 03       		.uleb128 0x3
 1995 004f 08       		.uleb128 0x8
 1996 0050 00       		.byte	0
 1997 0051 00       		.byte	0
 1998 0052 07       		.uleb128 0x7
 1999 0053 35       		.uleb128 0x35
 2000 0054 00       		.byte	0
 2001 0055 49       		.uleb128 0x49
 2002 0056 13       		.uleb128 0x13
 2003 0057 00       		.byte	0
 2004 0058 00       		.byte	0
 2005 0059 08       		.uleb128 0x8
 2006 005a 13       		.uleb128 0x13
ARM GAS  G:\Users\Jaxb\AppData\Local\Temp\cc9mxqkM.s 			page 41


 2007 005b 01       		.byte	0x1
 2008 005c 03       		.uleb128 0x3
 2009 005d 0E       		.uleb128 0xe
 2010 005e 0B       		.uleb128 0xb
 2011 005f 0B       		.uleb128 0xb
 2012 0060 3A       		.uleb128 0x3a
 2013 0061 0B       		.uleb128 0xb
 2014 0062 3B       		.uleb128 0x3b
 2015 0063 0B       		.uleb128 0xb
 2016 0064 01       		.uleb128 0x1
 2017 0065 13       		.uleb128 0x13
 2018 0066 00       		.byte	0
 2019 0067 00       		.byte	0
 2020 0068 09       		.uleb128 0x9
 2021 0069 0D       		.uleb128 0xd
 2022 006a 00       		.byte	0
 2023 006b 03       		.uleb128 0x3
 2024 006c 0E       		.uleb128 0xe
 2025 006d 3A       		.uleb128 0x3a
 2026 006e 0B       		.uleb128 0xb
 2027 006f 3B       		.uleb128 0x3b
 2028 0070 0B       		.uleb128 0xb
 2029 0071 49       		.uleb128 0x49
 2030 0072 13       		.uleb128 0x13
 2031 0073 38       		.uleb128 0x38
 2032 0074 0A       		.uleb128 0xa
 2033 0075 00       		.byte	0
 2034 0076 00       		.byte	0
 2035 0077 0A       		.uleb128 0xa
 2036 0078 0F       		.uleb128 0xf
 2037 0079 00       		.byte	0
 2038 007a 0B       		.uleb128 0xb
 2039 007b 0B       		.uleb128 0xb
 2040 007c 49       		.uleb128 0x49
 2041 007d 13       		.uleb128 0x13
 2042 007e 00       		.byte	0
 2043 007f 00       		.byte	0
 2044 0080 0B       		.uleb128 0xb
 2045 0081 15       		.uleb128 0x15
 2046 0082 01       		.byte	0x1
 2047 0083 27       		.uleb128 0x27
 2048 0084 0C       		.uleb128 0xc
 2049 0085 01       		.uleb128 0x1
 2050 0086 13       		.uleb128 0x13
 2051 0087 00       		.byte	0
 2052 0088 00       		.byte	0
 2053 0089 0C       		.uleb128 0xc
 2054 008a 05       		.uleb128 0x5
 2055 008b 00       		.byte	0
 2056 008c 49       		.uleb128 0x49
 2057 008d 13       		.uleb128 0x13
 2058 008e 00       		.byte	0
 2059 008f 00       		.byte	0
 2060 0090 0D       		.uleb128 0xd
 2061 0091 0F       		.uleb128 0xf
 2062 0092 00       		.byte	0
 2063 0093 0B       		.uleb128 0xb
ARM GAS  G:\Users\Jaxb\AppData\Local\Temp\cc9mxqkM.s 			page 42


 2064 0094 0B       		.uleb128 0xb
 2065 0095 00       		.byte	0
 2066 0096 00       		.byte	0
 2067 0097 0E       		.uleb128 0xe
 2068 0098 34       		.uleb128 0x34
 2069 0099 00       		.byte	0
 2070 009a 03       		.uleb128 0x3
 2071 009b 0E       		.uleb128 0xe
 2072 009c 3A       		.uleb128 0x3a
 2073 009d 0B       		.uleb128 0xb
 2074 009e 3B       		.uleb128 0x3b
 2075 009f 0B       		.uleb128 0xb
 2076 00a0 49       		.uleb128 0x49
 2077 00a1 13       		.uleb128 0x13
 2078 00a2 3F       		.uleb128 0x3f
 2079 00a3 0C       		.uleb128 0xc
 2080 00a4 3C       		.uleb128 0x3c
 2081 00a5 0C       		.uleb128 0xc
 2082 00a6 00       		.byte	0
 2083 00a7 00       		.byte	0
 2084 00a8 0F       		.uleb128 0xf
 2085 00a9 26       		.uleb128 0x26
 2086 00aa 00       		.byte	0
 2087 00ab 49       		.uleb128 0x49
 2088 00ac 13       		.uleb128 0x13
 2089 00ad 00       		.byte	0
 2090 00ae 00       		.byte	0
 2091 00af 10       		.uleb128 0x10
 2092 00b0 16       		.uleb128 0x16
 2093 00b1 00       		.byte	0
 2094 00b2 03       		.uleb128 0x3
 2095 00b3 08       		.uleb128 0x8
 2096 00b4 3A       		.uleb128 0x3a
 2097 00b5 0B       		.uleb128 0xb
 2098 00b6 3B       		.uleb128 0x3b
 2099 00b7 0B       		.uleb128 0xb
 2100 00b8 49       		.uleb128 0x49
 2101 00b9 13       		.uleb128 0x13
 2102 00ba 00       		.byte	0
 2103 00bb 00       		.byte	0
 2104 00bc 11       		.uleb128 0x11
 2105 00bd 34       		.uleb128 0x34
 2106 00be 00       		.byte	0
 2107 00bf 03       		.uleb128 0x3
 2108 00c0 0E       		.uleb128 0xe
 2109 00c1 3A       		.uleb128 0x3a
 2110 00c2 0B       		.uleb128 0xb
 2111 00c3 3B       		.uleb128 0x3b
 2112 00c4 0B       		.uleb128 0xb
 2113 00c5 49       		.uleb128 0x49
 2114 00c6 13       		.uleb128 0x13
 2115 00c7 3F       		.uleb128 0x3f
 2116 00c8 0C       		.uleb128 0xc
 2117 00c9 02       		.uleb128 0x2
 2118 00ca 0A       		.uleb128 0xa
 2119 00cb 00       		.byte	0
 2120 00cc 00       		.byte	0
ARM GAS  G:\Users\Jaxb\AppData\Local\Temp\cc9mxqkM.s 			page 43


 2121 00cd 12       		.uleb128 0x12
 2122 00ce 2E       		.uleb128 0x2e
 2123 00cf 00       		.byte	0
 2124 00d0 3F       		.uleb128 0x3f
 2125 00d1 0C       		.uleb128 0xc
 2126 00d2 03       		.uleb128 0x3
 2127 00d3 0E       		.uleb128 0xe
 2128 00d4 3A       		.uleb128 0x3a
 2129 00d5 0B       		.uleb128 0xb
 2130 00d6 3B       		.uleb128 0x3b
 2131 00d7 0B       		.uleb128 0xb
 2132 00d8 27       		.uleb128 0x27
 2133 00d9 0C       		.uleb128 0xc
 2134 00da 49       		.uleb128 0x49
 2135 00db 13       		.uleb128 0x13
 2136 00dc 11       		.uleb128 0x11
 2137 00dd 01       		.uleb128 0x1
 2138 00de 12       		.uleb128 0x12
 2139 00df 01       		.uleb128 0x1
 2140 00e0 40       		.uleb128 0x40
 2141 00e1 0A       		.uleb128 0xa
 2142 00e2 9742     		.uleb128 0x2117
 2143 00e4 0C       		.uleb128 0xc
 2144 00e5 00       		.byte	0
 2145 00e6 00       		.byte	0
 2146 00e7 13       		.uleb128 0x13
 2147 00e8 2E       		.uleb128 0x2e
 2148 00e9 00       		.byte	0
 2149 00ea 3F       		.uleb128 0x3f
 2150 00eb 0C       		.uleb128 0xc
 2151 00ec 03       		.uleb128 0x3
 2152 00ed 0E       		.uleb128 0xe
 2153 00ee 3A       		.uleb128 0x3a
 2154 00ef 0B       		.uleb128 0xb
 2155 00f0 3B       		.uleb128 0x3b
 2156 00f1 0B       		.uleb128 0xb
 2157 00f2 27       		.uleb128 0x27
 2158 00f3 0C       		.uleb128 0xc
 2159 00f4 11       		.uleb128 0x11
 2160 00f5 01       		.uleb128 0x1
 2161 00f6 12       		.uleb128 0x12
 2162 00f7 01       		.uleb128 0x1
 2163 00f8 40       		.uleb128 0x40
 2164 00f9 0A       		.uleb128 0xa
 2165 00fa 9742     		.uleb128 0x2117
 2166 00fc 0C       		.uleb128 0xc
 2167 00fd 00       		.byte	0
 2168 00fe 00       		.byte	0
 2169 00ff 14       		.uleb128 0x14
 2170 0100 2E       		.uleb128 0x2e
 2171 0101 01       		.byte	0x1
 2172 0102 3F       		.uleb128 0x3f
 2173 0103 0C       		.uleb128 0xc
 2174 0104 03       		.uleb128 0x3
 2175 0105 0E       		.uleb128 0xe
 2176 0106 3A       		.uleb128 0x3a
 2177 0107 0B       		.uleb128 0xb
ARM GAS  G:\Users\Jaxb\AppData\Local\Temp\cc9mxqkM.s 			page 44


 2178 0108 3B       		.uleb128 0x3b
 2179 0109 0B       		.uleb128 0xb
 2180 010a 27       		.uleb128 0x27
 2181 010b 0C       		.uleb128 0xc
 2182 010c 49       		.uleb128 0x49
 2183 010d 13       		.uleb128 0x13
 2184 010e 11       		.uleb128 0x11
 2185 010f 01       		.uleb128 0x1
 2186 0110 12       		.uleb128 0x12
 2187 0111 01       		.uleb128 0x1
 2188 0112 40       		.uleb128 0x40
 2189 0113 06       		.uleb128 0x6
 2190 0114 9742     		.uleb128 0x2117
 2191 0116 0C       		.uleb128 0xc
 2192 0117 01       		.uleb128 0x1
 2193 0118 13       		.uleb128 0x13
 2194 0119 00       		.byte	0
 2195 011a 00       		.byte	0
 2196 011b 15       		.uleb128 0x15
 2197 011c 05       		.uleb128 0x5
 2198 011d 00       		.byte	0
 2199 011e 03       		.uleb128 0x3
 2200 011f 0E       		.uleb128 0xe
 2201 0120 3A       		.uleb128 0x3a
 2202 0121 0B       		.uleb128 0xb
 2203 0122 3B       		.uleb128 0x3b
 2204 0123 0B       		.uleb128 0xb
 2205 0124 49       		.uleb128 0x49
 2206 0125 13       		.uleb128 0x13
 2207 0126 02       		.uleb128 0x2
 2208 0127 06       		.uleb128 0x6
 2209 0128 00       		.byte	0
 2210 0129 00       		.byte	0
 2211 012a 16       		.uleb128 0x16
 2212 012b 34       		.uleb128 0x34
 2213 012c 00       		.byte	0
 2214 012d 03       		.uleb128 0x3
 2215 012e 0E       		.uleb128 0xe
 2216 012f 3A       		.uleb128 0x3a
 2217 0130 0B       		.uleb128 0xb
 2218 0131 3B       		.uleb128 0x3b
 2219 0132 0B       		.uleb128 0xb
 2220 0133 49       		.uleb128 0x49
 2221 0134 13       		.uleb128 0x13
 2222 0135 02       		.uleb128 0x2
 2223 0136 06       		.uleb128 0x6
 2224 0137 00       		.byte	0
 2225 0138 00       		.byte	0
 2226 0139 17       		.uleb128 0x17
 2227 013a 34       		.uleb128 0x34
 2228 013b 00       		.byte	0
 2229 013c 03       		.uleb128 0x3
 2230 013d 08       		.uleb128 0x8
 2231 013e 3A       		.uleb128 0x3a
 2232 013f 0B       		.uleb128 0xb
 2233 0140 3B       		.uleb128 0x3b
 2234 0141 0B       		.uleb128 0xb
ARM GAS  G:\Users\Jaxb\AppData\Local\Temp\cc9mxqkM.s 			page 45


 2235 0142 49       		.uleb128 0x49
 2236 0143 13       		.uleb128 0x13
 2237 0144 02       		.uleb128 0x2
 2238 0145 06       		.uleb128 0x6
 2239 0146 00       		.byte	0
 2240 0147 00       		.byte	0
 2241 0148 18       		.uleb128 0x18
 2242 0149 1D       		.uleb128 0x1d
 2243 014a 01       		.byte	0x1
 2244 014b 31       		.uleb128 0x31
 2245 014c 13       		.uleb128 0x13
 2246 014d 52       		.uleb128 0x52
 2247 014e 01       		.uleb128 0x1
 2248 014f 55       		.uleb128 0x55
 2249 0150 06       		.uleb128 0x6
 2250 0151 58       		.uleb128 0x58
 2251 0152 0B       		.uleb128 0xb
 2252 0153 59       		.uleb128 0x59
 2253 0154 0B       		.uleb128 0xb
 2254 0155 01       		.uleb128 0x1
 2255 0156 13       		.uleb128 0x13
 2256 0157 00       		.byte	0
 2257 0158 00       		.byte	0
 2258 0159 19       		.uleb128 0x19
 2259 015a 0B       		.uleb128 0xb
 2260 015b 01       		.byte	0x1
 2261 015c 55       		.uleb128 0x55
 2262 015d 06       		.uleb128 0x6
 2263 015e 00       		.byte	0
 2264 015f 00       		.byte	0
 2265 0160 1A       		.uleb128 0x1a
 2266 0161 34       		.uleb128 0x34
 2267 0162 00       		.byte	0
 2268 0163 31       		.uleb128 0x31
 2269 0164 13       		.uleb128 0x13
 2270 0165 00       		.byte	0
 2271 0166 00       		.byte	0
 2272 0167 1B       		.uleb128 0x1b
 2273 0168 898201   		.uleb128 0x4109
 2274 016b 00       		.byte	0
 2275 016c 11       		.uleb128 0x11
 2276 016d 01       		.uleb128 0x1
 2277 016e 31       		.uleb128 0x31
 2278 016f 13       		.uleb128 0x13
 2279 0170 00       		.byte	0
 2280 0171 00       		.byte	0
 2281 0172 1C       		.uleb128 0x1c
 2282 0173 898201   		.uleb128 0x4109
 2283 0176 01       		.byte	0x1
 2284 0177 11       		.uleb128 0x11
 2285 0178 01       		.uleb128 0x1
 2286 0179 31       		.uleb128 0x31
 2287 017a 13       		.uleb128 0x13
 2288 017b 01       		.uleb128 0x1
 2289 017c 13       		.uleb128 0x13
 2290 017d 00       		.byte	0
 2291 017e 00       		.byte	0
ARM GAS  G:\Users\Jaxb\AppData\Local\Temp\cc9mxqkM.s 			page 46


 2292 017f 1D       		.uleb128 0x1d
 2293 0180 8A8201   		.uleb128 0x410a
 2294 0183 00       		.byte	0
 2295 0184 02       		.uleb128 0x2
 2296 0185 0A       		.uleb128 0xa
 2297 0186 9142     		.uleb128 0x2111
 2298 0188 0A       		.uleb128 0xa
 2299 0189 00       		.byte	0
 2300 018a 00       		.byte	0
 2301 018b 1E       		.uleb128 0x1e
 2302 018c 898201   		.uleb128 0x4109
 2303 018f 01       		.byte	0x1
 2304 0190 11       		.uleb128 0x11
 2305 0191 01       		.uleb128 0x1
 2306 0192 31       		.uleb128 0x31
 2307 0193 13       		.uleb128 0x13
 2308 0194 00       		.byte	0
 2309 0195 00       		.byte	0
 2310 0196 1F       		.uleb128 0x1f
 2311 0197 05       		.uleb128 0x5
 2312 0198 00       		.byte	0
 2313 0199 03       		.uleb128 0x3
 2314 019a 08       		.uleb128 0x8
 2315 019b 3A       		.uleb128 0x3a
 2316 019c 0B       		.uleb128 0xb
 2317 019d 3B       		.uleb128 0x3b
 2318 019e 0B       		.uleb128 0xb
 2319 019f 49       		.uleb128 0x49
 2320 01a0 13       		.uleb128 0x13
 2321 01a1 02       		.uleb128 0x2
 2322 01a2 06       		.uleb128 0x6
 2323 01a3 00       		.byte	0
 2324 01a4 00       		.byte	0
 2325 01a5 20       		.uleb128 0x20
 2326 01a6 2E       		.uleb128 0x2e
 2327 01a7 01       		.byte	0x1
 2328 01a8 3F       		.uleb128 0x3f
 2329 01a9 0C       		.uleb128 0xc
 2330 01aa 03       		.uleb128 0x3
 2331 01ab 0E       		.uleb128 0xe
 2332 01ac 3A       		.uleb128 0x3a
 2333 01ad 0B       		.uleb128 0xb
 2334 01ae 3B       		.uleb128 0x3b
 2335 01af 0B       		.uleb128 0xb
 2336 01b0 27       		.uleb128 0x27
 2337 01b1 0C       		.uleb128 0xc
 2338 01b2 20       		.uleb128 0x20
 2339 01b3 0B       		.uleb128 0xb
 2340 01b4 01       		.uleb128 0x1
 2341 01b5 13       		.uleb128 0x13
 2342 01b6 00       		.byte	0
 2343 01b7 00       		.byte	0
 2344 01b8 21       		.uleb128 0x21
 2345 01b9 34       		.uleb128 0x34
 2346 01ba 00       		.byte	0
 2347 01bb 03       		.uleb128 0x3
 2348 01bc 0E       		.uleb128 0xe
ARM GAS  G:\Users\Jaxb\AppData\Local\Temp\cc9mxqkM.s 			page 47


 2349 01bd 3A       		.uleb128 0x3a
 2350 01be 0B       		.uleb128 0xb
 2351 01bf 3B       		.uleb128 0x3b
 2352 01c0 0B       		.uleb128 0xb
 2353 01c1 49       		.uleb128 0x49
 2354 01c2 13       		.uleb128 0x13
 2355 01c3 00       		.byte	0
 2356 01c4 00       		.byte	0
 2357 01c5 22       		.uleb128 0x22
 2358 01c6 2E       		.uleb128 0x2e
 2359 01c7 01       		.byte	0x1
 2360 01c8 31       		.uleb128 0x31
 2361 01c9 13       		.uleb128 0x13
 2362 01ca 11       		.uleb128 0x11
 2363 01cb 01       		.uleb128 0x1
 2364 01cc 12       		.uleb128 0x12
 2365 01cd 01       		.uleb128 0x1
 2366 01ce 40       		.uleb128 0x40
 2367 01cf 06       		.uleb128 0x6
 2368 01d0 9742     		.uleb128 0x2117
 2369 01d2 0C       		.uleb128 0xc
 2370 01d3 01       		.uleb128 0x1
 2371 01d4 13       		.uleb128 0x13
 2372 01d5 00       		.byte	0
 2373 01d6 00       		.byte	0
 2374 01d7 23       		.uleb128 0x23
 2375 01d8 34       		.uleb128 0x34
 2376 01d9 00       		.byte	0
 2377 01da 31       		.uleb128 0x31
 2378 01db 13       		.uleb128 0x13
 2379 01dc 02       		.uleb128 0x2
 2380 01dd 06       		.uleb128 0x6
 2381 01de 00       		.byte	0
 2382 01df 00       		.byte	0
 2383 01e0 24       		.uleb128 0x24
 2384 01e1 898201   		.uleb128 0x4109
 2385 01e4 00       		.byte	0
 2386 01e5 11       		.uleb128 0x11
 2387 01e6 01       		.uleb128 0x1
 2388 01e7 9542     		.uleb128 0x2115
 2389 01e9 0C       		.uleb128 0xc
 2390 01ea 31       		.uleb128 0x31
 2391 01eb 13       		.uleb128 0x13
 2392 01ec 00       		.byte	0
 2393 01ed 00       		.byte	0
 2394 01ee 25       		.uleb128 0x25
 2395 01ef 2E       		.uleb128 0x2e
 2396 01f0 01       		.byte	0x1
 2397 01f1 31       		.uleb128 0x31
 2398 01f2 13       		.uleb128 0x13
 2399 01f3 11       		.uleb128 0x11
 2400 01f4 01       		.uleb128 0x1
 2401 01f5 12       		.uleb128 0x12
 2402 01f6 01       		.uleb128 0x1
 2403 01f7 40       		.uleb128 0x40
 2404 01f8 0A       		.uleb128 0xa
 2405 01f9 9742     		.uleb128 0x2117
ARM GAS  G:\Users\Jaxb\AppData\Local\Temp\cc9mxqkM.s 			page 48


 2406 01fb 0C       		.uleb128 0xc
 2407 01fc 01       		.uleb128 0x1
 2408 01fd 13       		.uleb128 0x13
 2409 01fe 00       		.byte	0
 2410 01ff 00       		.byte	0
 2411 0200 26       		.uleb128 0x26
 2412 0201 2E       		.uleb128 0x2e
 2413 0202 00       		.byte	0
 2414 0203 3F       		.uleb128 0x3f
 2415 0204 0C       		.uleb128 0xc
 2416 0205 3C       		.uleb128 0x3c
 2417 0206 0C       		.uleb128 0xc
 2418 0207 8740     		.uleb128 0x2007
 2419 0209 0E       		.uleb128 0xe
 2420 020a 03       		.uleb128 0x3
 2421 020b 0E       		.uleb128 0xe
 2422 020c 3A       		.uleb128 0x3a
 2423 020d 0B       		.uleb128 0xb
 2424 020e 3B       		.uleb128 0x3b
 2425 020f 0B       		.uleb128 0xb
 2426 0210 00       		.byte	0
 2427 0211 00       		.byte	0
 2428 0212 00       		.byte	0
 2429              		.section	.debug_loc,"",%progbits
 2430              	.Ldebug_loc0:
 2431              	.LLST20:
 2432 0000 24020000 		.4byte	.LFB16-.Ltext0
 2433 0004 28020000 		.4byte	.LCFI10-.Ltext0
 2434 0008 0200     		.2byte	0x2
 2435 000a 7D       		.byte	0x7d
 2436 000b 00       		.sleb128 0
 2437 000c 28020000 		.4byte	.LCFI10-.Ltext0
 2438 0010 2A020000 		.4byte	.LCFI11-.Ltext0
 2439 0014 0200     		.2byte	0x2
 2440 0016 7D       		.byte	0x7d
 2441 0017 1C       		.sleb128 28
 2442 0018 2A020000 		.4byte	.LCFI11-.Ltext0
 2443 001c 78020000 		.4byte	.LCFI12-.Ltext0
 2444 0020 0200     		.2byte	0x2
 2445 0022 7D       		.byte	0x7d
 2446 0023 30       		.sleb128 48
 2447 0024 78020000 		.4byte	.LCFI12-.Ltext0
 2448 0028 7C020000 		.4byte	.LCFI13-.Ltext0
 2449 002c 0200     		.2byte	0x2
 2450 002e 7D       		.byte	0x7d
 2451 002f 1C       		.sleb128 28
 2452 0030 7C020000 		.4byte	.LCFI13-.Ltext0
 2453 0034 A0020000 		.4byte	.LFE16-.Ltext0
 2454 0038 0200     		.2byte	0x2
 2455 003a 7D       		.byte	0x7d
 2456 003b 30       		.sleb128 48
 2457 003c 00000000 		.4byte	0
 2458 0040 00000000 		.4byte	0
 2459              	.LLST21:
 2460 0044 24020000 		.4byte	.LVL62-.Ltext0
 2461 0048 35020000 		.4byte	.LVL63-1-.Ltext0
 2462 004c 0100     		.2byte	0x1
ARM GAS  G:\Users\Jaxb\AppData\Local\Temp\cc9mxqkM.s 			page 49


 2463 004e 50       		.byte	0x50
 2464 004f 35020000 		.4byte	.LVL63-1-.Ltext0
 2465 0053 66020000 		.4byte	.LVL68-.Ltext0
 2466 0057 0100     		.2byte	0x1
 2467 0059 54       		.byte	0x54
 2468 005a 66020000 		.4byte	.LVL68-.Ltext0
 2469 005e 82020000 		.4byte	.LVL73-.Ltext0
 2470 0062 0400     		.2byte	0x4
 2471 0064 F3       		.byte	0xf3
 2472 0065 01       		.uleb128 0x1
 2473 0066 50       		.byte	0x50
 2474 0067 9F       		.byte	0x9f
 2475 0068 82020000 		.4byte	.LVL73-.Ltext0
 2476 006c 8A020000 		.4byte	.LVL75-.Ltext0
 2477 0070 0100     		.2byte	0x1
 2478 0072 54       		.byte	0x54
 2479 0073 8A020000 		.4byte	.LVL75-.Ltext0
 2480 0077 8C020000 		.4byte	.LVL76-.Ltext0
 2481 007b 0400     		.2byte	0x4
 2482 007d F3       		.byte	0xf3
 2483 007e 01       		.uleb128 0x1
 2484 007f 50       		.byte	0x50
 2485 0080 9F       		.byte	0x9f
 2486 0081 8C020000 		.4byte	.LVL76-.Ltext0
 2487 0085 96020000 		.4byte	.LVL78-.Ltext0
 2488 0089 0100     		.2byte	0x1
 2489 008b 54       		.byte	0x54
 2490 008c 96020000 		.4byte	.LVL78-.Ltext0
 2491 0090 A0020000 		.4byte	.LFE16-.Ltext0
 2492 0094 0400     		.2byte	0x4
 2493 0096 F3       		.byte	0xf3
 2494 0097 01       		.uleb128 0x1
 2495 0098 50       		.byte	0x50
 2496 0099 9F       		.byte	0x9f
 2497 009a 00000000 		.4byte	0
 2498 009e 00000000 		.4byte	0
 2499              	.LLST22:
 2500 00a2 24020000 		.4byte	.LVL62-.Ltext0
 2501 00a6 35020000 		.4byte	.LVL63-1-.Ltext0
 2502 00aa 0100     		.2byte	0x1
 2503 00ac 51       		.byte	0x51
 2504 00ad 35020000 		.4byte	.LVL63-1-.Ltext0
 2505 00b1 A0020000 		.4byte	.LFE16-.Ltext0
 2506 00b5 0100     		.2byte	0x1
 2507 00b7 56       		.byte	0x56
 2508 00b8 00000000 		.4byte	0
 2509 00bc 00000000 		.4byte	0
 2510              	.LLST23:
 2511 00c0 24020000 		.4byte	.LVL62-.Ltext0
 2512 00c4 35020000 		.4byte	.LVL63-1-.Ltext0
 2513 00c8 0100     		.2byte	0x1
 2514 00ca 52       		.byte	0x52
 2515 00cb 35020000 		.4byte	.LVL63-1-.Ltext0
 2516 00cf A0020000 		.4byte	.LFE16-.Ltext0
 2517 00d3 0100     		.2byte	0x1
 2518 00d5 57       		.byte	0x57
 2519 00d6 00000000 		.4byte	0
ARM GAS  G:\Users\Jaxb\AppData\Local\Temp\cc9mxqkM.s 			page 50


 2520 00da 00000000 		.4byte	0
 2521              	.LLST24:
 2522 00de 24020000 		.4byte	.LVL62-.Ltext0
 2523 00e2 35020000 		.4byte	.LVL63-1-.Ltext0
 2524 00e6 0100     		.2byte	0x1
 2525 00e8 53       		.byte	0x53
 2526 00e9 35020000 		.4byte	.LVL63-1-.Ltext0
 2527 00ed A0020000 		.4byte	.LFE16-.Ltext0
 2528 00f1 0100     		.2byte	0x1
 2529 00f3 58       		.byte	0x58
 2530 00f4 00000000 		.4byte	0
 2531 00f8 00000000 		.4byte	0
 2532              	.LLST25:
 2533 00fc 24020000 		.4byte	.LVL62-.Ltext0
 2534 0100 7C020000 		.4byte	.LVL71-.Ltext0
 2535 0104 0200     		.2byte	0x2
 2536 0106 91       		.byte	0x91
 2537 0107 00       		.sleb128 0
 2538 0108 7C020000 		.4byte	.LVL71-.Ltext0
 2539 010c A0020000 		.4byte	.LFE16-.Ltext0
 2540 0110 0200     		.2byte	0x2
 2541 0112 91       		.byte	0x91
 2542 0113 00       		.sleb128 0
 2543 0114 00000000 		.4byte	0
 2544 0118 00000000 		.4byte	0
 2545              	.LLST26:
 2546 011c 24020000 		.4byte	.LVL62-.Ltext0
 2547 0120 7C020000 		.4byte	.LVL71-.Ltext0
 2548 0124 0200     		.2byte	0x2
 2549 0126 91       		.byte	0x91
 2550 0127 04       		.sleb128 4
 2551 0128 7C020000 		.4byte	.LVL71-.Ltext0
 2552 012c A0020000 		.4byte	.LFE16-.Ltext0
 2553 0130 0200     		.2byte	0x2
 2554 0132 91       		.byte	0x91
 2555 0133 04       		.sleb128 4
 2556 0134 00000000 		.4byte	0
 2557 0138 00000000 		.4byte	0
 2558              	.LLST27:
 2559 013c 24020000 		.4byte	.LVL62-.Ltext0
 2560 0140 7C020000 		.4byte	.LVL71-.Ltext0
 2561 0144 0200     		.2byte	0x2
 2562 0146 91       		.byte	0x91
 2563 0147 08       		.sleb128 8
 2564 0148 7C020000 		.4byte	.LVL71-.Ltext0
 2565 014c A0020000 		.4byte	.LFE16-.Ltext0
 2566 0150 0200     		.2byte	0x2
 2567 0152 91       		.byte	0x91
 2568 0153 08       		.sleb128 8
 2569 0154 00000000 		.4byte	0
 2570 0158 00000000 		.4byte	0
 2571              	.LLST28:
 2572 015c 24020000 		.4byte	.LVL62-.Ltext0
 2573 0160 3A020000 		.4byte	.LVL64-.Ltext0
 2574 0164 0200     		.2byte	0x2
 2575 0166 30       		.byte	0x30
 2576 0167 9F       		.byte	0x9f
ARM GAS  G:\Users\Jaxb\AppData\Local\Temp\cc9mxqkM.s 			page 51


 2577 0168 3A020000 		.4byte	.LVL64-.Ltext0
 2578 016c 42020000 		.4byte	.LVL65-.Ltext0
 2579 0170 0100     		.2byte	0x1
 2580 0172 50       		.byte	0x50
 2581 0173 42020000 		.4byte	.LVL65-.Ltext0
 2582 0177 82020000 		.4byte	.LVL73-.Ltext0
 2583 017b 0100     		.2byte	0x1
 2584 017d 59       		.byte	0x59
 2585 017e 82020000 		.4byte	.LVL73-.Ltext0
 2586 0182 85020000 		.4byte	.LVL74-1-.Ltext0
 2587 0186 0100     		.2byte	0x1
 2588 0188 50       		.byte	0x50
 2589 0189 85020000 		.4byte	.LVL74-1-.Ltext0
 2590 018d A0020000 		.4byte	.LFE16-.Ltext0
 2591 0191 0100     		.2byte	0x1
 2592 0193 59       		.byte	0x59
 2593 0194 00000000 		.4byte	0
 2594 0198 00000000 		.4byte	0
 2595              	.LLST29:
 2596 019c 64020000 		.4byte	.LVL67-.Ltext0
 2597 01a0 6E020000 		.4byte	.LVL69-.Ltext0
 2598 01a4 0100     		.2byte	0x1
 2599 01a6 50       		.byte	0x50
 2600 01a7 6E020000 		.4byte	.LVL69-.Ltext0
 2601 01ab 74020000 		.4byte	.LVL70-.Ltext0
 2602 01af 0100     		.2byte	0x1
 2603 01b1 54       		.byte	0x54
 2604 01b2 7C020000 		.4byte	.LVL71-.Ltext0
 2605 01b6 7F020000 		.4byte	.LVL72-1-.Ltext0
 2606 01ba 0100     		.2byte	0x1
 2607 01bc 50       		.byte	0x50
 2608 01bd 7F020000 		.4byte	.LVL72-1-.Ltext0
 2609 01c1 82020000 		.4byte	.LVL73-.Ltext0
 2610 01c5 0100     		.2byte	0x1
 2611 01c7 54       		.byte	0x54
 2612 01c8 00000000 		.4byte	0
 2613 01cc 00000000 		.4byte	0
 2614              	.LLST9:
 2615 01d0 AC010000 		.4byte	.LFB15-.Ltext0
 2616 01d4 B0010000 		.4byte	.LCFI6-.Ltext0
 2617 01d8 0200     		.2byte	0x2
 2618 01da 7D       		.byte	0x7d
 2619 01db 00       		.sleb128 0
 2620 01dc B0010000 		.4byte	.LCFI6-.Ltext0
 2621 01e0 B2010000 		.4byte	.LCFI7-.Ltext0
 2622 01e4 0200     		.2byte	0x2
 2623 01e6 7D       		.byte	0x7d
 2624 01e7 20       		.sleb128 32
 2625 01e8 B2010000 		.4byte	.LCFI7-.Ltext0
 2626 01ec 00020000 		.4byte	.LCFI8-.Ltext0
 2627 01f0 0200     		.2byte	0x2
 2628 01f2 7D       		.byte	0x7d
 2629 01f3 30       		.sleb128 48
 2630 01f4 00020000 		.4byte	.LCFI8-.Ltext0
 2631 01f8 04020000 		.4byte	.LCFI9-.Ltext0
 2632 01fc 0200     		.2byte	0x2
 2633 01fe 7D       		.byte	0x7d
ARM GAS  G:\Users\Jaxb\AppData\Local\Temp\cc9mxqkM.s 			page 52


 2634 01ff 20       		.sleb128 32
 2635 0200 04020000 		.4byte	.LCFI9-.Ltext0
 2636 0204 24020000 		.4byte	.LFE15-.Ltext0
 2637 0208 0200     		.2byte	0x2
 2638 020a 7D       		.byte	0x7d
 2639 020b 30       		.sleb128 48
 2640 020c 00000000 		.4byte	0
 2641 0210 00000000 		.4byte	0
 2642              	.LLST10:
 2643 0214 AC010000 		.4byte	.LVL49-.Ltext0
 2644 0218 BF010000 		.4byte	.LVL50-1-.Ltext0
 2645 021c 0100     		.2byte	0x1
 2646 021e 50       		.byte	0x50
 2647 021f BF010000 		.4byte	.LVL50-1-.Ltext0
 2648 0223 24020000 		.4byte	.LFE15-.Ltext0
 2649 0227 0100     		.2byte	0x1
 2650 0229 56       		.byte	0x56
 2651 022a 00000000 		.4byte	0
 2652 022e 00000000 		.4byte	0
 2653              	.LLST11:
 2654 0232 AC010000 		.4byte	.LVL49-.Ltext0
 2655 0236 BF010000 		.4byte	.LVL50-1-.Ltext0
 2656 023a 0100     		.2byte	0x1
 2657 023c 51       		.byte	0x51
 2658 023d BF010000 		.4byte	.LVL50-1-.Ltext0
 2659 0241 24020000 		.4byte	.LFE15-.Ltext0
 2660 0245 0100     		.2byte	0x1
 2661 0247 57       		.byte	0x57
 2662 0248 00000000 		.4byte	0
 2663 024c 00000000 		.4byte	0
 2664              	.LLST12:
 2665 0250 AC010000 		.4byte	.LVL49-.Ltext0
 2666 0254 BF010000 		.4byte	.LVL50-1-.Ltext0
 2667 0258 0100     		.2byte	0x1
 2668 025a 52       		.byte	0x52
 2669 025b BF010000 		.4byte	.LVL50-1-.Ltext0
 2670 025f 24020000 		.4byte	.LFE15-.Ltext0
 2671 0263 0100     		.2byte	0x1
 2672 0265 59       		.byte	0x59
 2673 0266 00000000 		.4byte	0
 2674 026a 00000000 		.4byte	0
 2675              	.LLST13:
 2676 026e AC010000 		.4byte	.LVL49-.Ltext0
 2677 0272 BF010000 		.4byte	.LVL50-1-.Ltext0
 2678 0276 0100     		.2byte	0x1
 2679 0278 53       		.byte	0x53
 2680 0279 BF010000 		.4byte	.LVL50-1-.Ltext0
 2681 027d 24020000 		.4byte	.LFE15-.Ltext0
 2682 0281 0100     		.2byte	0x1
 2683 0283 5A       		.byte	0x5a
 2684 0284 00000000 		.4byte	0
 2685 0288 00000000 		.4byte	0
 2686              	.LLST14:
 2687 028c AC010000 		.4byte	.LVL49-.Ltext0
 2688 0290 04020000 		.4byte	.LVL57-.Ltext0
 2689 0294 0200     		.2byte	0x2
 2690 0296 91       		.byte	0x91
ARM GAS  G:\Users\Jaxb\AppData\Local\Temp\cc9mxqkM.s 			page 53


 2691 0297 00       		.sleb128 0
 2692 0298 04020000 		.4byte	.LVL57-.Ltext0
 2693 029c 24020000 		.4byte	.LFE15-.Ltext0
 2694 02a0 0200     		.2byte	0x2
 2695 02a2 91       		.byte	0x91
 2696 02a3 00       		.sleb128 0
 2697 02a4 00000000 		.4byte	0
 2698 02a8 00000000 		.4byte	0
 2699              	.LLST15:
 2700 02ac AC010000 		.4byte	.LVL49-.Ltext0
 2701 02b0 04020000 		.4byte	.LVL57-.Ltext0
 2702 02b4 0200     		.2byte	0x2
 2703 02b6 91       		.byte	0x91
 2704 02b7 04       		.sleb128 4
 2705 02b8 04020000 		.4byte	.LVL57-.Ltext0
 2706 02bc 24020000 		.4byte	.LFE15-.Ltext0
 2707 02c0 0200     		.2byte	0x2
 2708 02c2 91       		.byte	0x91
 2709 02c3 04       		.sleb128 4
 2710 02c4 00000000 		.4byte	0
 2711 02c8 00000000 		.4byte	0
 2712              	.LLST16:
 2713 02cc AC010000 		.4byte	.LVL49-.Ltext0
 2714 02d0 04020000 		.4byte	.LVL57-.Ltext0
 2715 02d4 0200     		.2byte	0x2
 2716 02d6 91       		.byte	0x91
 2717 02d7 08       		.sleb128 8
 2718 02d8 04020000 		.4byte	.LVL57-.Ltext0
 2719 02dc 24020000 		.4byte	.LFE15-.Ltext0
 2720 02e0 0200     		.2byte	0x2
 2721 02e2 91       		.byte	0x91
 2722 02e3 08       		.sleb128 8
 2723 02e4 00000000 		.4byte	0
 2724 02e8 00000000 		.4byte	0
 2725              	.LLST17:
 2726 02ec EC010000 		.4byte	.LVL54-.Ltext0
 2727 02f0 F6010000 		.4byte	.LVL55-.Ltext0
 2728 02f4 0100     		.2byte	0x1
 2729 02f6 50       		.byte	0x50
 2730 02f7 F6010000 		.4byte	.LVL55-.Ltext0
 2731 02fb FC010000 		.4byte	.LVL56-.Ltext0
 2732 02ff 0100     		.2byte	0x1
 2733 0301 54       		.byte	0x54
 2734 0302 04020000 		.4byte	.LVL57-.Ltext0
 2735 0306 07020000 		.4byte	.LVL58-1-.Ltext0
 2736 030a 0100     		.2byte	0x1
 2737 030c 50       		.byte	0x50
 2738 030d 07020000 		.4byte	.LVL58-1-.Ltext0
 2739 0311 0A020000 		.4byte	.LVL59-.Ltext0
 2740 0315 0100     		.2byte	0x1
 2741 0317 54       		.byte	0x54
 2742 0318 00000000 		.4byte	0
 2743 031c 00000000 		.4byte	0
 2744              	.LLST18:
 2745 0320 AC010000 		.4byte	.LVL49-.Ltext0
 2746 0324 C4010000 		.4byte	.LVL51-.Ltext0
 2747 0328 0200     		.2byte	0x2
ARM GAS  G:\Users\Jaxb\AppData\Local\Temp\cc9mxqkM.s 			page 54


 2748 032a 30       		.byte	0x30
 2749 032b 9F       		.byte	0x9f
 2750 032c C4010000 		.4byte	.LVL51-.Ltext0
 2751 0330 DA010000 		.4byte	.LVL52-.Ltext0
 2752 0334 0100     		.2byte	0x1
 2753 0336 50       		.byte	0x50
 2754 0337 DA010000 		.4byte	.LVL52-.Ltext0
 2755 033b 0A020000 		.4byte	.LVL59-.Ltext0
 2756 033f 0100     		.2byte	0x1
 2757 0341 58       		.byte	0x58
 2758 0342 0A020000 		.4byte	.LVL59-.Ltext0
 2759 0346 0D020000 		.4byte	.LVL60-1-.Ltext0
 2760 034a 0100     		.2byte	0x1
 2761 034c 50       		.byte	0x50
 2762 034d 0D020000 		.4byte	.LVL60-1-.Ltext0
 2763 0351 24020000 		.4byte	.LFE15-.Ltext0
 2764 0355 0100     		.2byte	0x1
 2765 0357 58       		.byte	0x58
 2766 0358 00000000 		.4byte	0
 2767 035c 00000000 		.4byte	0
 2768              	.LLST19:
 2769 0360 E2010000 		.4byte	.LVL53-.Ltext0
 2770 0364 EB010000 		.4byte	.LVL54-1-.Ltext0
 2771 0368 0100     		.2byte	0x1
 2772 036a 50       		.byte	0x50
 2773 036b 14020000 		.4byte	.LVL61-.Ltext0
 2774 036f 24020000 		.4byte	.LFE15-.Ltext0
 2775 0373 0100     		.2byte	0x1
 2776 0375 50       		.byte	0x50
 2777 0376 00000000 		.4byte	0
 2778 037a 00000000 		.4byte	0
 2779              	.LLST6:
 2780 037e 34010000 		.4byte	.LFB14-.Ltext0
 2781 0382 38010000 		.4byte	.LCFI5-.Ltext0
 2782 0386 0200     		.2byte	0x2
 2783 0388 7D       		.byte	0x7d
 2784 0389 00       		.sleb128 0
 2785 038a 38010000 		.4byte	.LCFI5-.Ltext0
 2786 038e AC010000 		.4byte	.LFE14-.Ltext0
 2787 0392 0200     		.2byte	0x2
 2788 0394 7D       		.byte	0x7d
 2789 0395 10       		.sleb128 16
 2790 0396 00000000 		.4byte	0
 2791 039a 00000000 		.4byte	0
 2792              	.LLST7:
 2793 039e 34010000 		.4byte	.LVL32-.Ltext0
 2794 03a2 40010000 		.4byte	.LVL33-.Ltext0
 2795 03a6 0100     		.2byte	0x1
 2796 03a8 50       		.byte	0x50
 2797 03a9 40010000 		.4byte	.LVL33-.Ltext0
 2798 03ad 50010000 		.4byte	.LVL36-.Ltext0
 2799 03b1 0400     		.2byte	0x4
 2800 03b3 F3       		.byte	0xf3
 2801 03b4 01       		.uleb128 0x1
 2802 03b5 50       		.byte	0x50
 2803 03b6 9F       		.byte	0x9f
 2804 03b7 50010000 		.4byte	.LVL36-.Ltext0
ARM GAS  G:\Users\Jaxb\AppData\Local\Temp\cc9mxqkM.s 			page 55


 2805 03bb 5D010000 		.4byte	.LVL38-1-.Ltext0
 2806 03bf 0100     		.2byte	0x1
 2807 03c1 50       		.byte	0x50
 2808 03c2 5D010000 		.4byte	.LVL38-1-.Ltext0
 2809 03c6 AC010000 		.4byte	.LFE14-.Ltext0
 2810 03ca 0400     		.2byte	0x4
 2811 03cc F3       		.byte	0xf3
 2812 03cd 01       		.uleb128 0x1
 2813 03ce 50       		.byte	0x50
 2814 03cf 9F       		.byte	0x9f
 2815 03d0 00000000 		.4byte	0
 2816 03d4 00000000 		.4byte	0
 2817              	.LLST8:
 2818 03d8 5A010000 		.4byte	.LVL37-.Ltext0
 2819 03dc 62010000 		.4byte	.LVL39-.Ltext0
 2820 03e0 0200     		.2byte	0x2
 2821 03e2 30       		.byte	0x30
 2822 03e3 9F       		.byte	0x9f
 2823 03e4 62010000 		.4byte	.LVL39-.Ltext0
 2824 03e8 6C010000 		.4byte	.LVL40-.Ltext0
 2825 03ec 0100     		.2byte	0x1
 2826 03ee 50       		.byte	0x50
 2827 03ef 6C010000 		.4byte	.LVL40-.Ltext0
 2828 03f3 8E010000 		.4byte	.LVL46-.Ltext0
 2829 03f7 0100     		.2byte	0x1
 2830 03f9 56       		.byte	0x56
 2831 03fa 8E010000 		.4byte	.LVL46-.Ltext0
 2832 03fe 91010000 		.4byte	.LVL47-1-.Ltext0
 2833 0402 0100     		.2byte	0x1
 2834 0404 50       		.byte	0x50
 2835 0405 91010000 		.4byte	.LVL47-1-.Ltext0
 2836 0409 98010000 		.4byte	.LVL48-.Ltext0
 2837 040d 0100     		.2byte	0x1
 2838 040f 56       		.byte	0x56
 2839 0410 00000000 		.4byte	0
 2840 0414 00000000 		.4byte	0
 2841              	.LLST2:
 2842 0418 50000000 		.4byte	.LFB13-.Ltext0
 2843 041c 56000000 		.4byte	.LCFI4-.Ltext0
 2844 0420 0200     		.2byte	0x2
 2845 0422 7D       		.byte	0x7d
 2846 0423 00       		.sleb128 0
 2847 0424 56000000 		.4byte	.LCFI4-.Ltext0
 2848 0428 34010000 		.4byte	.LFE13-.Ltext0
 2849 042c 0200     		.2byte	0x2
 2850 042e 7D       		.byte	0x7d
 2851 042f 18       		.sleb128 24
 2852 0430 00000000 		.4byte	0
 2853 0434 00000000 		.4byte	0
 2854              	.LLST3:
 2855 0438 50000000 		.4byte	.LVL9-.Ltext0
 2856 043c 60000000 		.4byte	.LVL11-.Ltext0
 2857 0440 0100     		.2byte	0x1
 2858 0442 50       		.byte	0x50
 2859 0443 60000000 		.4byte	.LVL11-.Ltext0
 2860 0447 BA000000 		.4byte	.LVL22-.Ltext0
 2861 044b 0100     		.2byte	0x1
ARM GAS  G:\Users\Jaxb\AppData\Local\Temp\cc9mxqkM.s 			page 56


 2862 044d 56       		.byte	0x56
 2863 044e BA000000 		.4byte	.LVL22-.Ltext0
 2864 0452 C8000000 		.4byte	.LVL23-.Ltext0
 2865 0456 0100     		.2byte	0x1
 2866 0458 50       		.byte	0x50
 2867 0459 C8000000 		.4byte	.LVL23-.Ltext0
 2868 045d 34010000 		.4byte	.LFE13-.Ltext0
 2869 0461 0100     		.2byte	0x1
 2870 0463 56       		.byte	0x56
 2871 0464 00000000 		.4byte	0
 2872 0468 00000000 		.4byte	0
 2873              	.LLST4:
 2874 046c 50000000 		.4byte	.LVL9-.Ltext0
 2875 0470 5E000000 		.4byte	.LVL10-.Ltext0
 2876 0474 0100     		.2byte	0x1
 2877 0476 51       		.byte	0x51
 2878 0477 5E000000 		.4byte	.LVL10-.Ltext0
 2879 047b BA000000 		.4byte	.LVL22-.Ltext0
 2880 047f 0400     		.2byte	0x4
 2881 0481 F3       		.byte	0xf3
 2882 0482 01       		.uleb128 0x1
 2883 0483 51       		.byte	0x51
 2884 0484 9F       		.byte	0x9f
 2885 0485 BA000000 		.4byte	.LVL22-.Ltext0
 2886 0489 C8000000 		.4byte	.LVL23-.Ltext0
 2887 048d 0100     		.2byte	0x1
 2888 048f 51       		.byte	0x51
 2889 0490 C8000000 		.4byte	.LVL23-.Ltext0
 2890 0494 34010000 		.4byte	.LFE13-.Ltext0
 2891 0498 0400     		.2byte	0x4
 2892 049a F3       		.byte	0xf3
 2893 049b 01       		.uleb128 0x1
 2894 049c 51       		.byte	0x51
 2895 049d 9F       		.byte	0x9f
 2896 049e 00000000 		.4byte	0
 2897 04a2 00000000 		.4byte	0
 2898              	.LLST5:
 2899 04a6 6C000000 		.4byte	.LVL13-.Ltext0
 2900 04aa 74000000 		.4byte	.LVL15-.Ltext0
 2901 04ae 0200     		.2byte	0x2
 2902 04b0 30       		.byte	0x30
 2903 04b1 9F       		.byte	0x9f
 2904 04b2 74000000 		.4byte	.LVL15-.Ltext0
 2905 04b6 82000000 		.4byte	.LVL16-.Ltext0
 2906 04ba 0100     		.2byte	0x1
 2907 04bc 50       		.byte	0x50
 2908 04bd 82000000 		.4byte	.LVL16-.Ltext0
 2909 04c1 B6000000 		.4byte	.LVL21-.Ltext0
 2910 04c5 0100     		.2byte	0x1
 2911 04c7 57       		.byte	0x57
 2912 04c8 FA000000 		.4byte	.LVL26-.Ltext0
 2913 04cc 00010000 		.4byte	.LVL28-.Ltext0
 2914 04d0 0100     		.2byte	0x1
 2915 04d2 57       		.byte	0x57
 2916 04d3 00010000 		.4byte	.LVL28-.Ltext0
 2917 04d7 03010000 		.4byte	.LVL29-1-.Ltext0
 2918 04db 0100     		.2byte	0x1
ARM GAS  G:\Users\Jaxb\AppData\Local\Temp\cc9mxqkM.s 			page 57


 2919 04dd 50       		.byte	0x50
 2920 04de 03010000 		.4byte	.LVL29-1-.Ltext0
 2921 04e2 0A010000 		.4byte	.LVL30-.Ltext0
 2922 04e6 0100     		.2byte	0x1
 2923 04e8 57       		.byte	0x57
 2924 04e9 00000000 		.4byte	0
 2925 04ed 00000000 		.4byte	0
 2926              	.LLST0:
 2927 04f1 00000000 		.4byte	.LFB20-.Ltext0
 2928 04f5 02000000 		.4byte	.LCFI0-.Ltext0
 2929 04f9 0200     		.2byte	0x2
 2930 04fb 7D       		.byte	0x7d
 2931 04fc 00       		.sleb128 0
 2932 04fd 02000000 		.4byte	.LCFI0-.Ltext0
 2933 0501 24000000 		.4byte	.LCFI1-.Ltext0
 2934 0505 0200     		.2byte	0x2
 2935 0507 7D       		.byte	0x7d
 2936 0508 08       		.sleb128 8
 2937 0509 24000000 		.4byte	.LCFI1-.Ltext0
 2938 050d 2A000000 		.4byte	.LCFI2-.Ltext0
 2939 0511 0200     		.2byte	0x2
 2940 0513 7D       		.byte	0x7d
 2941 0514 00       		.sleb128 0
 2942 0515 2A000000 		.4byte	.LCFI2-.Ltext0
 2943 0519 30000000 		.4byte	.LCFI3-.Ltext0
 2944 051d 0200     		.2byte	0x2
 2945 051f 7D       		.byte	0x7d
 2946 0520 08       		.sleb128 8
 2947 0521 30000000 		.4byte	.LCFI3-.Ltext0
 2948 0525 40000000 		.4byte	.LFE20-.Ltext0
 2949 0529 0200     		.2byte	0x2
 2950 052b 7D       		.byte	0x7d
 2951 052c 00       		.sleb128 0
 2952 052d 00000000 		.4byte	0
 2953 0531 00000000 		.4byte	0
 2954              	.LLST1:
 2955 0535 00000000 		.4byte	.LVL0-.Ltext0
 2956 0539 08000000 		.4byte	.LVL2-.Ltext0
 2957 053d 0200     		.2byte	0x2
 2958 053f 30       		.byte	0x30
 2959 0540 9F       		.byte	0x9f
 2960 0541 08000000 		.4byte	.LVL2-.Ltext0
 2961 0545 0B000000 		.4byte	.LVL3-1-.Ltext0
 2962 0549 0100     		.2byte	0x1
 2963 054b 50       		.byte	0x50
 2964 054c 0B000000 		.4byte	.LVL3-1-.Ltext0
 2965 0550 24000000 		.4byte	.LVL4-.Ltext0
 2966 0554 0100     		.2byte	0x1
 2967 0556 54       		.byte	0x54
 2968 0557 24000000 		.4byte	.LVL4-.Ltext0
 2969 055b 29000000 		.4byte	.LVL5-1-.Ltext0
 2970 055f 0100     		.2byte	0x1
 2971 0561 50       		.byte	0x50
 2972 0562 2A000000 		.4byte	.LVL5-.Ltext0
 2973 0566 30000000 		.4byte	.LVL6-.Ltext0
 2974 056a 0100     		.2byte	0x1
 2975 056c 54       		.byte	0x54
ARM GAS  G:\Users\Jaxb\AppData\Local\Temp\cc9mxqkM.s 			page 58


 2976 056d 30000000 		.4byte	.LVL6-.Ltext0
 2977 0571 33000000 		.4byte	.LVL7-1-.Ltext0
 2978 0575 0100     		.2byte	0x1
 2979 0577 50       		.byte	0x50
 2980 0578 00000000 		.4byte	0
 2981 057c 00000000 		.4byte	0
 2982              		.section	.debug_aranges,"",%progbits
 2983 0000 1C000000 		.4byte	0x1c
 2984 0004 0200     		.2byte	0x2
 2985 0006 00000000 		.4byte	.Ldebug_info0
 2986 000a 04       		.byte	0x4
 2987 000b 00       		.byte	0
 2988 000c 0000     		.2byte	0
 2989 000e 0000     		.2byte	0
 2990 0010 00000000 		.4byte	.Ltext0
 2991 0014 D0020000 		.4byte	.Letext0-.Ltext0
 2992 0018 00000000 		.4byte	0
 2993 001c 00000000 		.4byte	0
 2994              		.section	.debug_ranges,"",%progbits
 2995              	.Ldebug_ranges0:
 2996 0000 9E000000 		.4byte	.LBB10-.Ltext0
 2997 0004 A4000000 		.4byte	.LBE10-.Ltext0
 2998 0008 FA000000 		.4byte	.LBB13-.Ltext0
 2999 000c 00010000 		.4byte	.LBE13-.Ltext0
 3000 0010 00000000 		.4byte	0
 3001 0014 00000000 		.4byte	0
 3002 0018 78010000 		.4byte	.LBB14-.Ltext0
 3003 001c 7E010000 		.4byte	.LBE14-.Ltext0
 3004 0020 88010000 		.4byte	.LBB17-.Ltext0
 3005 0024 8E010000 		.4byte	.LBE17-.Ltext0
 3006 0028 00000000 		.4byte	0
 3007 002c 00000000 		.4byte	0
 3008 0030 F0010000 		.4byte	.LBB18-.Ltext0
 3009 0034 F6010000 		.4byte	.LBE18-.Ltext0
 3010 0038 04020000 		.4byte	.LBB21-.Ltext0
 3011 003c 0A020000 		.4byte	.LBE21-.Ltext0
 3012 0040 00000000 		.4byte	0
 3013 0044 00000000 		.4byte	0
 3014 0048 68020000 		.4byte	.LBB22-.Ltext0
 3015 004c 6E020000 		.4byte	.LBE22-.Ltext0
 3016 0050 7C020000 		.4byte	.LBB25-.Ltext0
 3017 0054 82020000 		.4byte	.LBE25-.Ltext0
 3018 0058 00000000 		.4byte	0
 3019 005c 00000000 		.4byte	0
 3020              		.section	.debug_line,"",%progbits
 3021              	.Ldebug_line0:
 3022 0000 69020000 		.section	.debug_str,"MS",%progbits,1
 3022      02007201 
 3022      00000201 
 3022      FB0E0D00 
 3022      01010101 
 3023              	.LASF23:
 3024 0000 5441534B 		.ascii	"TASK_PRIO_TYPE\000"
 3024      5F505249 
 3024      4F5F5459 
 3024      504500
 3025              	.LASF2:
ARM GAS  G:\Users\Jaxb\AppData\Local\Temp\cc9mxqkM.s 			page 59


 3026 000f 53544154 		.ascii	"STATE_SUSPEND_NORMAL\000"
 3026      455F5355 
 3026      5350454E 
 3026      445F4E4F 
 3026      524D414C 
 3027              	.LASF25:
 3028 0024 6C697374 		.ascii	"list_head\000"
 3028      5F686561 
 3028      6400
 3029              	.LASF59:
 3030 002e 73746174 		.ascii	"state\000"
 3030      6500
 3031              	.LASF49:
 3032 0034 675F7363 		.ascii	"g_schedule_lock\000"
 3032      68656475 
 3032      6C655F6C 
 3032      6F636B00 
 3033              	.LASF12:
 3034 0044 73686F72 		.ascii	"short int\000"
 3034      7420696E 
 3034      7400
 3035              	.LASF71:
 3036 004e 696E7365 		.ascii	"insert_into_delay_heap\000"
 3036      72745F69 
 3036      6E746F5F 
 3036      64656C61 
 3036      795F6865 
 3037              	.LASF65:
 3038 0065 4350555F 		.ascii	"CPU_SR_Restore\000"
 3038      53525F52 
 3038      6573746F 
 3038      726500
 3039              	.LASF50:
 3040 0074 7379735F 		.ascii	"sys_schedule_unlock\000"
 3040      73636865 
 3040      64756C65 
 3040      5F756E6C 
 3040      6F636B00 
 3041              	.LASF5:
 3042 0088 53544154 		.ascii	"STATE_WAIT_MESSAGE_QUEUE_FOREVER\000"
 3042      455F5741 
 3042      49545F4D 
 3042      45535341 
 3042      47455F51 
 3043              	.LASF16:
 3044 00a9 55494E54 		.ascii	"UINT32\000"
 3044      333200
 3045              	.LASF66:
 3046 00b0 7461736B 		.ascii	"task_creat\000"
 3046      5F637265 
 3046      617400
 3047              	.LASF22:
 3048 00bb 53544143 		.ascii	"STACK_TYPE\000"
 3048      4B5F5459 
 3048      504500
 3049              	.LASF77:
 3050 00c6 5461736B 		.ascii	"Task_State\000"
ARM GAS  G:\Users\Jaxb\AppData\Local\Temp\cc9mxqkM.s 			page 60


 3050      5F537461 
 3050      746500
 3051              	.LASF7:
 3052 00d1 53544154 		.ascii	"STATE_PUT_MESSAGE_QUEUE_FOREVER\000"
 3052      455F5055 
 3052      545F4D45 
 3052      53534147 
 3052      455F5155 
 3053              	.LASF60:
 3054 00f1 7379735F 		.ascii	"sys_delay\000"
 3054      64656C61 
 3054      7900
 3055              	.LASF72:
 3056 00fb 6765745F 		.ascii	"get_tick\000"
 3056      7469636B 
 3056      00
 3057              	.LASF79:
 3058 0104 73636865 		.ascii	"schedule\000"
 3058      64756C65 
 3058      00
 3059              	.LASF75:
 3060 010d 2E2E2F2E 		.ascii	"../../source/src/user/OS_CORE/schedule/os_schedule."
 3060      2E2F736F 
 3060      75726365 
 3060      2F737263 
 3060      2F757365 
 3061 0140 6300     		.ascii	"c\000"
 3062              	.LASF29:
 3063 0142 73746163 		.ascii	"stack_end\000"
 3063      6B5F656E 
 3063      6400
 3064              	.LASF4:
 3065 014c 53544154 		.ascii	"STATE_WAIT_MCB_TIMEOUT\000"
 3065      455F5741 
 3065      49545F4D 
 3065      43425F54 
 3065      494D454F 
 3066              	.LASF13:
 3067 0163 6C6F6E67 		.ascii	"long long int\000"
 3067      206C6F6E 
 3067      6720696E 
 3067      7400
 3068              	.LASF37:
 3069 0171 74696D65 		.ascii	"timeslice_hope_time\000"
 3069      736C6963 
 3069      655F686F 
 3069      70655F74 
 3069      696D6500 
 3070              	.LASF70:
 3071 0185 696E7365 		.ascii	"insert_into_suspend_list\000"
 3071      72745F69 
 3071      6E746F5F 
 3071      73757370 
 3071      656E645F 
 3072              	.LASF31:
 3073 019e 72657365 		.ascii	"reserve_prio\000"
 3073      7276655F 
ARM GAS  G:\Users\Jaxb\AppData\Local\Temp\cc9mxqkM.s 			page 61


 3073      7072696F 
 3073      00
 3074              	.LASF64:
 3075 01ab 696E7365 		.ascii	"insert_ready_TCB\000"
 3075      72745F72 
 3075      65616479 
 3075      5F544342 
 3075      00
 3076              	.LASF68:
 3077 01bc 6B615F70 		.ascii	"ka_printf\000"
 3077      72696E74 
 3077      6600
 3078              	.LASF57:
 3079 01c6 7461736B 		.ascii	"task_creat_ready\000"
 3079      5F637265 
 3079      61745F72 
 3079      65616479 
 3079      00
 3080              	.LASF15:
 3081 01d7 5441534B 		.ascii	"TASK_STATE\000"
 3081      5F535441 
 3081      544500
 3082              	.LASF58:
 3083 01e2 7379735F 		.ascii	"sys_suspend\000"
 3083      73757370 
 3083      656E6400 
 3084              	.LASF36:
 3085 01ee 6E616D65 		.ascii	"name\000"
 3085      00
 3086              	.LASF67:
 3087 01f3 5F415353 		.ascii	"_ASSERT\000"
 3087      45525400 
 3088              	.LASF10:
 3089 01fb 756E7369 		.ascii	"unsigned char\000"
 3089      676E6564 
 3089      20636861 
 3089      7200
 3090              	.LASF62:
 3091 0209 4350555F 		.ascii	"CPU_SR_Save\000"
 3091      53525F53 
 3091      61766500 
 3092              	.LASF0:
 3093 0215 53544154 		.ascii	"STATE_READY\000"
 3093      455F5245 
 3093      41445900 
 3094              	.LASF73:
 3095 0221 6765745F 		.ascii	"get_highest_prio_ready_TCB\000"
 3095      68696768 
 3095      6573745F 
 3095      7072696F 
 3095      5F726561 
 3096              	.LASF1:
 3097 023c 53544154 		.ascii	"STATE_DELAY\000"
 3097      455F4445 
 3097      4C415900 
 3098              	.LASF39:
 3099 0248 61747472 		.ascii	"attribution\000"
ARM GAS  G:\Users\Jaxb\AppData\Local\Temp\cc9mxqkM.s 			page 62


 3099      69627574 
 3099      696F6E00 
 3100              	.LASF11:
 3101 0254 7369676E 		.ascii	"signed char\000"
 3101      65642063 
 3101      68617200 
 3102              	.LASF19:
 3103 0260 6C6F6E67 		.ascii	"long long unsigned int\000"
 3103      206C6F6E 
 3103      6720756E 
 3103      7369676E 
 3103      65642069 
 3104              	.LASF17:
 3105 0277 756E7369 		.ascii	"unsigned int\000"
 3105      676E6564 
 3105      20696E74 
 3105      00
 3106              	.LASF48:
 3107 0284 675F7469 		.ascii	"g_time_tick_count\000"
 3107      6D655F74 
 3107      69636B5F 
 3107      636F756E 
 3107      7400
 3108              	.LASF27:
 3109 0296 73746163 		.ascii	"stack\000"
 3109      6B00
 3110              	.LASF63:
 3111 029c 7461736B 		.ascii	"task_init\000"
 3111      5F696E69 
 3111      7400
 3112              	.LASF34:
 3113 02a6 73616D65 		.ascii	"same_prio_list\000"
 3113      5F707269 
 3113      6F5F6C69 
 3113      737400
 3114              	.LASF6:
 3115 02b5 53544154 		.ascii	"STATE_WAIT_MESSAGE_QUEUE_TIMEOUT\000"
 3115      455F5741 
 3115      49545F4D 
 3115      45535341 
 3115      47455F51 
 3116              	.LASF69:
 3117 02d6 64656C65 		.ascii	"delete_TCB_from_ready\000"
 3117      74655F54 
 3117      43425F66 
 3117      726F6D5F 
 3117      72656164 
 3118              	.LASF41:
 3119 02ec 63686172 		.ascii	"char\000"
 3119      00
 3120              	.LASF53:
 3121 02f1 66756E63 		.ascii	"function\000"
 3121      74696F6E 
 3121      00
 3122              	.LASF8:
 3123 02fa 53544154 		.ascii	"STATE_PUT_MESSAGE_QUEUE_TIMEOUT\000"
 3123      455F5055 
ARM GAS  G:\Users\Jaxb\AppData\Local\Temp\cc9mxqkM.s 			page 63


 3123      545F4D45 
 3123      53534147 
 3123      455F5155 
 3124              	.LASF14:
 3125 031a 73686F72 		.ascii	"short unsigned int\000"
 3125      7420756E 
 3125      7369676E 
 3125      65642069 
 3125      6E7400
 3126              	.LASF42:
 3127 032d 4350555F 		.ascii	"CPU_INT32U\000"
 3127      494E5433 
 3127      325500
 3128              	.LASF51:
 3129 0338 7379735F 		.ascii	"sys_schedule_lock\000"
 3129      73636865 
 3129      64756C65 
 3129      5F6C6F63 
 3129      6B00
 3130              	.LASF47:
 3131 034a 4F535443 		.ascii	"OSTCBHighRdyPtr\000"
 3131      42486967 
 3131      68526479 
 3131      50747200 
 3132              	.LASF43:
 3133 035a 4350555F 		.ascii	"CPU_REG32\000"
 3133      52454733 
 3133      3200
 3134              	.LASF78:
 3135 0364 7379735F 		.ascii	"sys_schedule_islock\000"
 3135      73636865 
 3135      64756C65 
 3135      5F69736C 
 3135      6F636B00 
 3136              	.LASF33:
 3137 0378 64656C61 		.ascii	"delay_heap_position\000"
 3137      795F6865 
 3137      61705F70 
 3137      6F736974 
 3137      696F6E00 
 3138              	.LASF32:
 3139 038c 7461736B 		.ascii	"task_state\000"
 3139      5F737461 
 3139      746500
 3140              	.LASF76:
 3141 0397 473A5C55 		.ascii	"G:\\Users\\Jaxb\\Desktop\\KAKAOS-0.07  2019.2.21  f"
 3141      73657273 
 3141      5C4A6178 
 3141      625C4465 
 3141      736B746F 
 3142 03c6 6F722067 		.ascii	"or gcc\\Project\\RVMDK\243\250uv5\243\251\000"
 3142      63635C50 
 3142      726F6A65 
 3142      63745C52 
 3142      564D444B 
 3143              	.LASF38:
 3144 03e2 74696D65 		.ascii	"timeslice_rest_time\000"
ARM GAS  G:\Users\Jaxb\AppData\Local\Temp\cc9mxqkM.s 			page 64


 3144      736C6963 
 3144      655F7265 
 3144      73745F74 
 3144      696D6500 
 3145              	.LASF61:
 3146 03f6 64656C61 		.ascii	"delay_ticks_num\000"
 3146      795F7469 
 3146      636B735F 
 3146      6E756D00 
 3147              	.LASF54:
 3148 0406 70617261 		.ascii	"para\000"
 3148      00
 3149              	.LASF3:
 3150 040b 53544154 		.ascii	"STATE_WAIT_MCB_FOREVER\000"
 3150      455F5741 
 3150      49545F4D 
 3150      43425F46 
 3150      4F524556 
 3151              	.LASF26:
 3152 0422 7461736B 		.ascii	"task_control_block_struct\000"
 3152      5F636F6E 
 3152      74726F6C 
 3152      5F626C6F 
 3152      636B5F73 
 3153              	.LASF28:
 3154 043c 73746163 		.ascii	"stack_size\000"
 3154      6B5F7369 
 3154      7A6500
 3155              	.LASF52:
 3156 0447 5443425F 		.ascii	"TCB_ptr\000"
 3156      70747200 
 3157              	.LASF24:
 3158 044f 66756E63 		.ascii	"functionptr\000"
 3158      74696F6E 
 3158      70747200 
 3159              	.LASF35:
 3160 045b 73757370 		.ascii	"suspend_list\000"
 3160      656E645F 
 3160      6C697374 
 3160      00
 3161              	.LASF45:
 3162 0468 675F696E 		.ascii	"g_interrupt_count\000"
 3162      74657272 
 3162      7570745F 
 3162      636F756E 
 3162      7400
 3163              	.LASF55:
 3164 047a 6370755F 		.ascii	"cpu_sr\000"
 3164      737200
 3165              	.LASF74:
 3166 0481 474E5520 		.ascii	"GNU C11 7.3.1 20180622 (release) [ARM/embedded-7-br"
 3166      43313120 
 3166      372E332E 
 3166      31203230 
 3166      31383036 
 3167 04b4 616E6368 		.ascii	"anch revision 261907] -mcpu=cortex-m3 -mthumb -mapc"
 3167      20726576 
ARM GAS  G:\Users\Jaxb\AppData\Local\Temp\cc9mxqkM.s 			page 65


 3167      6973696F 
 3167      6E203236 
 3167      31393037 
 3168 04e7 732D6672 		.ascii	"s-frame -mthumb-interwork -mcpu=cortex-m3 -mthumb -"
 3168      616D6520 
 3168      2D6D7468 
 3168      756D622D 
 3168      696E7465 
 3169 051a 67647761 		.ascii	"gdwarf-2 -O2\000"
 3169      72662D32 
 3169      202D4F32 
 3169      00
 3170              	.LASF9:
 3171 0527 53544154 		.ascii	"STATE_WAIT_MUTEX_FOREVER\000"
 3171      455F5741 
 3171      49545F4D 
 3171      55544558 
 3171      5F464F52 
 3172              	.LASF21:
 3173 0540 70726576 		.ascii	"prev\000"
 3173      00
 3174              	.LASF44:
 3175 0545 4350555F 		.ascii	"CPU_SR\000"
 3175      535200
 3176              	.LASF40:
 3177 054c 64656C61 		.ascii	"delay_reach_time\000"
 3177      795F7265 
 3177      6163685F 
 3177      74696D65 
 3177      00
 3178              	.LASF18:
 3179 055d 55494E54 		.ascii	"UINT64\000"
 3179      363400
 3180              	.LASF30:
 3181 0564 7072696F 		.ascii	"prio\000"
 3181      00
 3182              	.LASF46:
 3183 0569 4F535443 		.ascii	"OSTCBCurPtr\000"
 3183      42437572 
 3183      50747200 
 3184              	.LASF20:
 3185 0575 6E657874 		.ascii	"next\000"
 3185      00
 3186              	.LASF56:
 3187 057a 7461736B 		.ascii	"task_init_ready\000"
 3187      5F696E69 
 3187      745F7265 
 3187      61647900 
 3188              		.ident	"GCC: (GNU Tools for Arm Embedded Processors 7-2018-q2-update) 7.3.1 20180622 (release) [AR
ARM GAS  G:\Users\Jaxb\AppData\Local\Temp\cc9mxqkM.s 			page 66


DEFINED SYMBOLS
                            *ABS*:00000000 os_schedule.c
G:\Users\Jaxb\AppData\Local\Temp\cc9mxqkM.s:15     .text:00000000 $t
G:\Users\Jaxb\AppData\Local\Temp\cc9mxqkM.s:22     .text:00000000 schedule.part.0
G:\Users\Jaxb\AppData\Local\Temp\cc9mxqkM.s:90     .text:00000034 $d
G:\Users\Jaxb\AppData\Local\Temp\cc9mxqkM.s:96     .text:00000040 $t
G:\Users\Jaxb\AppData\Local\Temp\cc9mxqkM.s:104    .text:00000040 schedule
G:\Users\Jaxb\AppData\Local\Temp\cc9mxqkM.s:123    .text:0000004c $d
G:\Users\Jaxb\AppData\Local\Temp\cc9mxqkM.s:127    .text:00000050 $t
G:\Users\Jaxb\AppData\Local\Temp\cc9mxqkM.s:135    .text:00000050 sys_delay
G:\Users\Jaxb\AppData\Local\Temp\cc9mxqkM.s:303    .text:00000118 $d
G:\Users\Jaxb\AppData\Local\Temp\cc9mxqkM.s:313    .text:00000134 $t
G:\Users\Jaxb\AppData\Local\Temp\cc9mxqkM.s:321    .text:00000134 sys_suspend
G:\Users\Jaxb\AppData\Local\Temp\cc9mxqkM.s:428    .text:00000198 $d
G:\Users\Jaxb\AppData\Local\Temp\cc9mxqkM.s:436    .text:000001ac $t
G:\Users\Jaxb\AppData\Local\Temp\cc9mxqkM.s:444    .text:000001ac task_creat_ready
G:\Users\Jaxb\AppData\Local\Temp\cc9mxqkM.s:560    .text:0000021c $d
G:\Users\Jaxb\AppData\Local\Temp\cc9mxqkM.s:565    .text:00000224 $t
G:\Users\Jaxb\AppData\Local\Temp\cc9mxqkM.s:573    .text:00000224 task_init_ready
G:\Users\Jaxb\AppData\Local\Temp\cc9mxqkM.s:691    .text:00000298 $d
G:\Users\Jaxb\AppData\Local\Temp\cc9mxqkM.s:696    .text:000002a0 $t
G:\Users\Jaxb\AppData\Local\Temp\cc9mxqkM.s:704    .text:000002a0 sys_schedule_lock
G:\Users\Jaxb\AppData\Local\Temp\cc9mxqkM.s:721    .text:000002ac $d
G:\Users\Jaxb\AppData\Local\Temp\cc9mxqkM.s:725    .text:000002b0 $t
G:\Users\Jaxb\AppData\Local\Temp\cc9mxqkM.s:733    .text:000002b0 sys_schedule_unlock
G:\Users\Jaxb\AppData\Local\Temp\cc9mxqkM.s:750    .text:000002bc $d
G:\Users\Jaxb\AppData\Local\Temp\cc9mxqkM.s:754    .text:000002c0 $t
G:\Users\Jaxb\AppData\Local\Temp\cc9mxqkM.s:762    .text:000002c0 sys_schedule_islock
G:\Users\Jaxb\AppData\Local\Temp\cc9mxqkM.s:780    .text:000002cc $d
G:\Users\Jaxb\AppData\Local\Temp\cc9mxqkM.s:790    .bss:00000000 g_schedule_lock
G:\Users\Jaxb\AppData\Local\Temp\cc9mxqkM.s:786    .bss:00000000 $d
G:\Users\Jaxb\AppData\Local\Temp\cc9mxqkM.s:793    .rodata.str1.4:00000000 $d

UNDEFINED SYMBOLS
CPU_SR_Save
get_highest_prio_ready_TCB
CPU_SR_Restore
OSTCBCurPtr
OSTCBHighRdyPtr
_ASSERT
delete_TCB_from_ready
insert_into_delay_heap
get_tick
ka_printf
g_interrupt_count
g_time_tick_count
insert_into_suspend_list
task_creat
insert_ready_TCB
task_init
