ARM GAS  G:\Users\Jaxb\AppData\Local\Temp\ccJlKYXE.s 			page 1


   1              		.cpu cortex-m3
   2              		.eabi_attribute 20, 1
   3              		.eabi_attribute 21, 1
   4              		.eabi_attribute 23, 3
   5              		.eabi_attribute 24, 1
   6              		.eabi_attribute 25, 1
   7              		.eabi_attribute 26, 1
   8              		.eabi_attribute 30, 2
   9              		.eabi_attribute 34, 1
  10              		.eabi_attribute 18, 4
  11              		.file	"os_suspend.c"
  12              		.text
  13              	.Ltext0:
  14              		.cfi_sections	.debug_frame
  15              		.align	1
  16              		.p2align 2,,3
  17              		.global	__init_suspend_list
  18              		.syntax unified
  19              		.thumb
  20              		.thumb_func
  21              		.fpu softvfp
  22              		.type	__init_suspend_list, %function
  23              	__init_suspend_list:
  24              	.LFB10:
  25              		.file 1 "../../source/src/kernel/OS_CORE/schedule/os_suspend.c"
   1:../../source/src/kernel/OS_CORE/schedule/os_suspend.c **** #include <os_suspend.h>
   2:../../source/src/kernel/OS_CORE/schedule/os_suspend.c **** #include <double_linked_list.h>
   3:../../source/src/kernel/OS_CORE/schedule/os_suspend.c **** #include <ka_configuration.h>
   4:../../source/src/kernel/OS_CORE/schedule/os_suspend.c **** #include <myassert.h>
   5:../../source/src/kernel/OS_CORE/schedule/os_suspend.c **** #include <os_ready.h>
   6:../../source/src/kernel/OS_CORE/schedule/os_suspend.c **** 
   7:../../source/src/kernel/OS_CORE/schedule/os_suspend.c **** static struct list_head suspend_list_head;
   8:../../source/src/kernel/OS_CORE/schedule/os_suspend.c **** 
   9:../../source/src/kernel/OS_CORE/schedule/os_suspend.c **** void __init_suspend_list(void)
  10:../../source/src/kernel/OS_CORE/schedule/os_suspend.c **** {
  26              		.loc 1 10 0
  27              		.cfi_startproc
  28              		@ args = 0, pretend = 0, frame = 0
  29              		@ frame_needed = 0, uses_anonymous_args = 0
  30              		@ link register save eliminated.
  31              	.LVL0:
  32              	.LBB16:
  33              	.LBB17:
  34              		.file 2 "../../source/include/os_lib/double_linked_list.h"
   1:../../source/include/os_lib/double_linked_list.h **** #ifndef _DOUBLE_LINKED_LIST_H
   2:../../source/include/os_lib/double_linked_list.h **** #define _DOUBLE_LINKED_LIST_H
   3:../../source/include/os_lib/double_linked_list.h **** 
   4:../../source/include/os_lib/double_linked_list.h **** struct list_head {
   5:../../source/include/os_lib/double_linked_list.h ****     struct list_head *next, *prev;
   6:../../source/include/os_lib/double_linked_list.h **** };
   7:../../source/include/os_lib/double_linked_list.h **** 
   8:../../source/include/os_lib/double_linked_list.h **** 
   9:../../source/include/os_lib/double_linked_list.h **** #define LIST_HEAD_INIT(name) { &(name), &(name) }
  10:../../source/include/os_lib/double_linked_list.h **** 
  11:../../source/include/os_lib/double_linked_list.h **** 
  12:../../source/include/os_lib/double_linked_list.h **** #define LIST_HEAD(name) \
  13:../../source/include/os_lib/double_linked_list.h ****     struct list_head name = LIST_HEAD_INIT(name)
ARM GAS  G:\Users\Jaxb\AppData\Local\Temp\ccJlKYXE.s 			page 2


  14:../../source/include/os_lib/double_linked_list.h **** 
  15:../../source/include/os_lib/double_linked_list.h **** 
  16:../../source/include/os_lib/double_linked_list.h **** static inline void INIT_LIST_HEAD(struct list_head *list)
  17:../../source/include/os_lib/double_linked_list.h **** {
  18:../../source/include/os_lib/double_linked_list.h ****     list->next = list;
  35              		.loc 2 18 0
  36 0000 014B     		ldr	r3, .L3
  19:../../source/include/os_lib/double_linked_list.h ****     list->prev = list;
  37              		.loc 2 19 0
  38 0002 C3E90033 		strd	r3, r3, [r3]
  39              	.LVL1:
  40              	.LBE17:
  41              	.LBE16:
  11:../../source/src/kernel/OS_CORE/schedule/os_suspend.c **** 	INIT_LIST_HEAD(&suspend_list_head);
  12:../../source/src/kernel/OS_CORE/schedule/os_suspend.c **** }
  42              		.loc 1 12 0
  43 0006 7047     		bx	lr
  44              	.L4:
  45              		.align	2
  46              	.L3:
  47 0008 00000000 		.word	.LANCHOR0
  48              		.cfi_endproc
  49              	.LFE10:
  50              		.size	__init_suspend_list, .-__init_suspend_list
  51              		.align	1
  52              		.p2align 2,,3
  53              		.global	insert_into_suspend_list
  54              		.syntax unified
  55              		.thumb
  56              		.thumb_func
  57              		.fpu softvfp
  58              		.type	insert_into_suspend_list, %function
  59              	insert_into_suspend_list:
  60              	.LFB11:
  13:../../source/src/kernel/OS_CORE/schedule/os_suspend.c **** 
  14:../../source/src/kernel/OS_CORE/schedule/os_suspend.c **** inline int  insert_into_suspend_list(TCB *TCB_ptr)
  15:../../source/src/kernel/OS_CORE/schedule/os_suspend.c **** {
  61              		.loc 1 15 0
  62              		.cfi_startproc
  63              		@ args = 0, pretend = 0, frame = 0
  64              		@ frame_needed = 0, uses_anonymous_args = 0
  65              	.LVL2:
  66 000c 10B5     		push	{r4, lr}
  67              	.LCFI0:
  68              		.cfi_def_cfa_offset 8
  69              		.cfi_offset 4, -8
  70              		.cfi_offset 14, -4
  16:../../source/src/kernel/OS_CORE/schedule/os_suspend.c **** 	ASSERT(NULL != TCB_ptr);
  71              		.loc 1 16 0
  72 000e 0346     		mov	r3, r0
  73 0010 48B1     		cbz	r0, .L8
  74              	.LBB18:
  75              	.LBB19:
  20:../../source/include/os_lib/double_linked_list.h **** }
  21:../../source/include/os_lib/double_linked_list.h **** 
  22:../../source/include/os_lib/double_linked_list.h **** 
  23:../../source/include/os_lib/double_linked_list.h **** static inline void __list_add(struct list_head *new,
ARM GAS  G:\Users\Jaxb\AppData\Local\Temp\ccJlKYXE.s 			page 3


  24:../../source/include/os_lib/double_linked_list.h ****                   struct list_head *prev,
  25:../../source/include/os_lib/double_linked_list.h ****                   struct list_head *next)
  26:../../source/include/os_lib/double_linked_list.h **** {
  27:../../source/include/os_lib/double_linked_list.h ****     next->prev = new;
  28:../../source/include/os_lib/double_linked_list.h ****     new->next = next;
  29:../../source/include/os_lib/double_linked_list.h ****     new->prev = prev;
  30:../../source/include/os_lib/double_linked_list.h ****     prev->next = new;
  31:../../source/include/os_lib/double_linked_list.h **** }
  32:../../source/include/os_lib/double_linked_list.h **** 
  33:../../source/include/os_lib/double_linked_list.h **** 
  34:../../source/include/os_lib/double_linked_list.h **** static inline void list_add(struct list_head *new, struct list_head *head)
  35:../../source/include/os_lib/double_linked_list.h **** {
  36:../../source/include/os_lib/double_linked_list.h ****     __list_add(new, head, head->next);
  37:../../source/include/os_lib/double_linked_list.h **** }
  38:../../source/include/os_lib/double_linked_list.h **** 
  39:../../source/include/os_lib/double_linked_list.h **** 
  40:../../source/include/os_lib/double_linked_list.h **** static inline void list_add_tail(struct list_head *new, struct list_head *head)
  41:../../source/include/os_lib/double_linked_list.h **** {
  42:../../source/include/os_lib/double_linked_list.h ****     __list_add(new, head->prev, head);
  76              		.loc 2 42 0
  77 0012 0A4A     		ldr	r2, .L9
  78              	.LBE19:
  79              	.LBE18:
  17:../../source/src/kernel/OS_CORE/schedule/os_suspend.c **** #if CONFIG_PARA_CHECK
  18:../../source/src/kernel/OS_CORE/schedule/os_suspend.c **** 	if(NULL == TCB_ptr)
  19:../../source/src/kernel/OS_CORE/schedule/os_suspend.c **** 	{
  20:../../source/src/kernel/OS_CORE/schedule/os_suspend.c **** 		OS_ERROR_PARA_MESSAGE_DISPLAY(insert_into_suspend_list,TCB_ptr);
  21:../../source/src/kernel/OS_CORE/schedule/os_suspend.c **** 		return -ERROR_NULL_INPUT_PTR;
  22:../../source/src/kernel/OS_CORE/schedule/os_suspend.c **** 	}
  23:../../source/src/kernel/OS_CORE/schedule/os_suspend.c **** #endif
  24:../../source/src/kernel/OS_CORE/schedule/os_suspend.c **** 	list_add_tail(&TCB_ptr->suspend_list,&suspend_list_head);
  80              		.loc 1 24 0
  81 0014 03F12404 		add	r4, r3, #36
  82              	.LVL3:
  83              	.LBB24:
  84              	.LBB22:
  85              		.loc 2 42 0
  86 0018 5168     		ldr	r1, [r2, #4]
  87              	.LVL4:
  88              	.LBE22:
  89              	.LBE24:
  25:../../source/src/kernel/OS_CORE/schedule/os_suspend.c **** 	return FUN_EXECUTE_SUCCESSFULLY;
  90              		.loc 1 25 0
  91 001a 0020     		movs	r0, #0
  92              	.LVL5:
  93              	.LBB25:
  94              	.LBB23:
  95              	.LBB20:
  96              	.LBB21:
  29:../../source/include/os_lib/double_linked_list.h ****     prev->next = new;
  97              		.loc 2 29 0
  98 001c C3E90921 		strd	r2, r1, [r3, #36]
  27:../../source/include/os_lib/double_linked_list.h ****     new->next = next;
  99              		.loc 2 27 0
 100 0020 5460     		str	r4, [r2, #4]
  30:../../source/include/os_lib/double_linked_list.h **** }
 101              		.loc 2 30 0
ARM GAS  G:\Users\Jaxb\AppData\Local\Temp\ccJlKYXE.s 			page 4


 102 0022 0C60     		str	r4, [r1]
 103              	.LVL6:
 104              	.LBE21:
 105              	.LBE20:
 106              	.LBE23:
 107              	.LBE25:
  26:../../source/src/kernel/OS_CORE/schedule/os_suspend.c **** }
 108              		.loc 1 26 0
 109 0024 10BD     		pop	{r4, pc}
 110              	.LVL7:
 111              	.L8:
  16:../../source/src/kernel/OS_CORE/schedule/os_suspend.c **** #if CONFIG_PARA_CHECK
 112              		.loc 1 16 0 discriminator 1
 113 0026 1021     		movs	r1, #16
 114 0028 0548     		ldr	r0, .L9+4
 115              	.LVL8:
 116 002a FFF7FEFF 		bl	_ASSERT
 117              	.LVL9:
  20:../../source/src/kernel/OS_CORE/schedule/os_suspend.c **** 		return -ERROR_NULL_INPUT_PTR;
 118              		.loc 1 20 0 discriminator 1
 119 002e 0548     		ldr	r0, .L9+8
 120 0030 FFF7FEFF 		bl	ka_printf
 121              	.LVL10:
  21:../../source/src/kernel/OS_CORE/schedule/os_suspend.c **** 	}
 122              		.loc 1 21 0 discriminator 1
 123 0034 6FF0FE00 		mvn	r0, #254
 124              		.loc 1 26 0 discriminator 1
 125 0038 10BD     		pop	{r4, pc}
 126              	.L10:
 127 003a 00BF     		.align	2
 128              	.L9:
 129 003c 00000000 		.word	.LANCHOR0
 130 0040 00000000 		.word	.LC0
 131 0044 38000000 		.word	.LC1
 132              		.cfi_endproc
 133              	.LFE11:
 134              		.size	insert_into_suspend_list, .-insert_into_suspend_list
 135              		.align	1
 136              		.p2align 2,,3
 137              		.global	remove_from_suspend_list
 138              		.syntax unified
 139              		.thumb
 140              		.thumb_func
 141              		.fpu softvfp
 142              		.type	remove_from_suspend_list, %function
 143              	remove_from_suspend_list:
 144              	.LFB12:
  27:../../source/src/kernel/OS_CORE/schedule/os_suspend.c **** 
  28:../../source/src/kernel/OS_CORE/schedule/os_suspend.c **** int remove_from_suspend_list(TCB *TCB_ptr)
  29:../../source/src/kernel/OS_CORE/schedule/os_suspend.c **** {
 145              		.loc 1 29 0
 146              		.cfi_startproc
 147              		@ args = 0, pretend = 0, frame = 0
 148              		@ frame_needed = 0, uses_anonymous_args = 0
 149              	.LVL11:
 150 0048 08B5     		push	{r3, lr}
 151              	.LCFI1:
ARM GAS  G:\Users\Jaxb\AppData\Local\Temp\ccJlKYXE.s 			page 5


 152              		.cfi_def_cfa_offset 8
 153              		.cfi_offset 3, -8
 154              		.cfi_offset 14, -4
  30:../../source/src/kernel/OS_CORE/schedule/os_suspend.c **** 	ASSERT(NULL != TCB_ptr);
 155              		.loc 1 30 0
 156 004a C0B1     		cbz	r0, .L19
  31:../../source/src/kernel/OS_CORE/schedule/os_suspend.c **** #if CONFIG_PARA_CHECK
  32:../../source/src/kernel/OS_CORE/schedule/os_suspend.c **** 	if(NULL == TCB_ptr)
  33:../../source/src/kernel/OS_CORE/schedule/os_suspend.c **** 	{
  34:../../source/src/kernel/OS_CORE/schedule/os_suspend.c **** 		OS_ERROR_PARA_MESSAGE_DISPLAY(remove_from_suspend_list,TCB_ptr);
  35:../../source/src/kernel/OS_CORE/schedule/os_suspend.c **** 		return -ERROR_NULL_INPUT_PTR;
  36:../../source/src/kernel/OS_CORE/schedule/os_suspend.c **** 	}
  37:../../source/src/kernel/OS_CORE/schedule/os_suspend.c **** #endif
  38:../../source/src/kernel/OS_CORE/schedule/os_suspend.c **** 	struct list_head *pos;
  39:../../source/src/kernel/OS_CORE/schedule/os_suspend.c **** 	list_for_each(pos,&suspend_list_head)
 157              		.loc 1 39 0
 158 004c 114A     		ldr	r2, .L20
 159 004e 1368     		ldr	r3, [r2]
 160              	.LVL12:
 161 0050 9342     		cmp	r3, r2
 162 0052 09D0     		beq	.L17
  40:../../source/src/kernel/OS_CORE/schedule/os_suspend.c **** 	{
  41:../../source/src/kernel/OS_CORE/schedule/os_suspend.c **** 		if(&TCB_ptr->suspend_list == pos)
 163              		.loc 1 41 0
 164 0054 00F12401 		add	r1, r0, #36
 165 0058 8B42     		cmp	r3, r1
 166 005a 02D1     		bne	.L14
 167 005c 07E0     		b	.L16
 168              	.L15:
 169 005e 8B42     		cmp	r3, r1
 170 0060 05D0     		beq	.L16
 171              	.L14:
  39:../../source/src/kernel/OS_CORE/schedule/os_suspend.c **** 	{
 172              		.loc 1 39 0 discriminator 2
 173 0062 1B68     		ldr	r3, [r3]
 174              	.LVL13:
 175 0064 9342     		cmp	r3, r2
 176 0066 FAD1     		bne	.L15
 177              	.L17:
  42:../../source/src/kernel/OS_CORE/schedule/os_suspend.c **** 		{
  43:../../source/src/kernel/OS_CORE/schedule/os_suspend.c **** 			list_del(pos);
  44:../../source/src/kernel/OS_CORE/schedule/os_suspend.c **** 			insert_ready_TCB(TCB_ptr);
  45:../../source/src/kernel/OS_CORE/schedule/os_suspend.c **** 			return FUN_EXECUTE_SUCCESSFULLY;
  46:../../source/src/kernel/OS_CORE/schedule/os_suspend.c **** 		}
  47:../../source/src/kernel/OS_CORE/schedule/os_suspend.c **** 	}
  48:../../source/src/kernel/OS_CORE/schedule/os_suspend.c **** 	return -ERROR_VALUELESS_INPUT;
 178              		.loc 1 48 0
 179 0068 6FF0FD00 		mvn	r0, #253
 180              	.LVL14:
  49:../../source/src/kernel/OS_CORE/schedule/os_suspend.c **** }
 181              		.loc 1 49 0
 182 006c 08BD     		pop	{r3, pc}
 183              	.LVL15:
 184              	.L16:
 185              	.LBB26:
 186              	.LBB27:
  43:../../source/include/os_lib/double_linked_list.h **** }
ARM GAS  G:\Users\Jaxb\AppData\Local\Temp\ccJlKYXE.s 			page 6


  44:../../source/include/os_lib/double_linked_list.h **** 
  45:../../source/include/os_lib/double_linked_list.h **** 
  46:../../source/include/os_lib/double_linked_list.h **** static inline void __list_del(struct list_head * prev, struct list_head * next)
  47:../../source/include/os_lib/double_linked_list.h **** {
  48:../../source/include/os_lib/double_linked_list.h ****     next->prev = prev;
  49:../../source/include/os_lib/double_linked_list.h ****     prev->next = next;
  50:../../source/include/os_lib/double_linked_list.h **** }
  51:../../source/include/os_lib/double_linked_list.h **** 
  52:../../source/include/os_lib/double_linked_list.h **** 
  53:../../source/include/os_lib/double_linked_list.h **** static inline void list_del(struct list_head *entry)
  54:../../source/include/os_lib/double_linked_list.h **** {
  55:../../source/include/os_lib/double_linked_list.h ****     __list_del(entry->prev, entry->next);
 187              		.loc 2 55 0
 188 006e D0E90923 		ldrd	r2, r3, [r0, #36]
 189              	.LVL16:
 190              	.LBB28:
 191              	.LBB29:
  48:../../source/include/os_lib/double_linked_list.h ****     prev->next = next;
 192              		.loc 2 48 0
 193 0072 5360     		str	r3, [r2, #4]
  49:../../source/include/os_lib/double_linked_list.h **** }
 194              		.loc 2 49 0
 195 0074 1A60     		str	r2, [r3]
 196              	.LVL17:
 197              	.LBE29:
 198              	.LBE28:
 199              	.LBE27:
 200              	.LBE26:
  44:../../source/src/kernel/OS_CORE/schedule/os_suspend.c **** 			return FUN_EXECUTE_SUCCESSFULLY;
 201              		.loc 1 44 0
 202 0076 FFF7FEFF 		bl	insert_ready_TCB
 203              	.LVL18:
  45:../../source/src/kernel/OS_CORE/schedule/os_suspend.c **** 		}
 204              		.loc 1 45 0
 205 007a 0020     		movs	r0, #0
 206              		.loc 1 49 0
 207 007c 08BD     		pop	{r3, pc}
 208              	.LVL19:
 209              	.L19:
  30:../../source/src/kernel/OS_CORE/schedule/os_suspend.c **** #if CONFIG_PARA_CHECK
 210              		.loc 1 30 0 discriminator 1
 211 007e 1E21     		movs	r1, #30
 212 0080 0548     		ldr	r0, .L20+4
 213              	.LVL20:
 214 0082 FFF7FEFF 		bl	_ASSERT
 215              	.LVL21:
  34:../../source/src/kernel/OS_CORE/schedule/os_suspend.c **** 		return -ERROR_NULL_INPUT_PTR;
 216              		.loc 1 34 0 discriminator 1
 217 0086 0548     		ldr	r0, .L20+8
 218 0088 FFF7FEFF 		bl	ka_printf
 219              	.LVL22:
  35:../../source/src/kernel/OS_CORE/schedule/os_suspend.c **** 	}
 220              		.loc 1 35 0 discriminator 1
 221 008c 6FF0FE00 		mvn	r0, #254
 222              		.loc 1 49 0 discriminator 1
 223 0090 08BD     		pop	{r3, pc}
 224              	.L21:
ARM GAS  G:\Users\Jaxb\AppData\Local\Temp\ccJlKYXE.s 			page 7


 225 0092 00BF     		.align	2
 226              	.L20:
 227 0094 00000000 		.word	.LANCHOR0
 228 0098 00000000 		.word	.LC0
 229 009c 78000000 		.word	.LC2
 230              		.cfi_endproc
 231              	.LFE12:
 232              		.size	remove_from_suspend_list, .-remove_from_suspend_list
 233              		.bss
 234              		.align	2
 235              		.set	.LANCHOR0,. + 0
 236              		.type	suspend_list_head, %object
 237              		.size	suspend_list_head, 8
 238              	suspend_list_head:
 239 0000 00000000 		.space	8
 239      00000000 
 240              		.section	.rodata.str1.4,"aMS",%progbits,1
 241              		.align	2
 242              	.LC0:
 243 0000 2E2E2F2E 		.ascii	"../../source/src/kernel/OS_CORE/schedule/os_suspend"
 243      2E2F736F 
 243      75726365 
 243      2F737263 
 243      2F6B6572 
 244 0033 2E6300   		.ascii	".c\000"
 245 0036 0000     		.space	2
 246              	.LC1:
 247 0038 6572726F 		.ascii	"error fun name : insert_into_suspend_list\012error "
 247      72206675 
 247      6E206E61 
 247      6D65203A 
 247      20696E73 
 248 0068 70617261 		.ascii	"para : TCB_ptr\012\000"
 248      203A2054 
 248      43425F70 
 248      74720A00 
 249              	.LC2:
 250 0078 6572726F 		.ascii	"error fun name : remove_from_suspend_list\012error "
 250      72206675 
 250      6E206E61 
 250      6D65203A 
 250      2072656D 
 251 00a8 70617261 		.ascii	"para : TCB_ptr\012\000"
 251      203A2054 
 251      43425F70 
 251      74720A00 
 252              		.text
 253              	.Letext0:
 254              		.file 3 "../../source/include/os_cpu/kakaosstdint.h"
 255              		.file 4 "../../source/include/os_core/task_state.h"
 256              		.file 5 "../../source/include/os_core/TCB.h"
 257              		.file 6 "../../source/include/os_core/schedule/os_ready.h"
 258              		.file 7 "../../source/include/os_lib/myassert.h"
 259              		.file 8 "../../source/include/os_lib/myMicroLIB.h"