ARM GAS  G:\Users\Jaxb\AppData\Local\Temp\cc9mxqkM.s 			page 1


   1              		.cpu cortex-m3
   2              		.eabi_attribute 20, 1
   3              		.eabi_attribute 21, 1
   4              		.eabi_attribute 23, 3
   5              		.eabi_attribute 24, 1
   6              		.eabi_attribute 25, 1
   7              		.eabi_attribute 26, 1
   8              		.eabi_attribute 30, 2
   9              		.eabi_attribute 34, 1
  10              		.eabi_attribute 18, 4
  11              		.file	"os_schedule.c"
  12              		.text
  13              	.Ltext0:
  14              		.cfi_sections	.debug_frame
  15              		.align	1
  16              		.p2align 2,,3
  17              		.syntax unified
  18              		.thumb
  19              		.thumb_func
  20              		.fpu softvfp
  21              		.type	schedule.part.0, %function
  22              	schedule.part.0:
  23              	.LFB20:
  24              		.file 1 "../../source/src/user/OS_CORE/schedule/os_schedule.c"
   1:../../source/src/user/OS_CORE/schedule/os_schedule.c **** #include <os_schedule.h>
   2:../../source/src/user/OS_CORE/schedule/os_schedule.c **** #include <os_cpu.h>
   3:../../source/src/user/OS_CORE/schedule/os_schedule.c **** #include <os_delay.h>
   4:../../source/src/user/OS_CORE/schedule/os_schedule.c **** #include <TCB.h>
   5:../../source/src/user/OS_CORE/schedule/os_schedule.c **** #include <myassert.h>
   6:../../source/src/user/OS_CORE/schedule/os_schedule.c **** #include <os_ready.h>
   7:../../source/src/user/OS_CORE/schedule/os_schedule.c **** #include <os_suspend.h>
   8:../../source/src/user/OS_CORE/schedule/os_schedule.c **** #include <os_TCB_list.h>
   9:../../source/src/user/OS_CORE/schedule/os_schedule.c **** #include <osinit.h>
  10:../../source/src/user/OS_CORE/schedule/os_schedule.c **** #include <myMicroLIB.h>
  11:../../source/src/user/OS_CORE/schedule/os_schedule.c **** #include <os_time.h>
  12:../../source/src/user/OS_CORE/schedule/os_schedule.c **** 
  13:../../source/src/user/OS_CORE/schedule/os_schedule.c **** extern volatile TCB *OSTCBCurPtr;
  14:../../source/src/user/OS_CORE/schedule/os_schedule.c **** extern volatile TCB *OSTCBHighRdyPtr;
  15:../../source/src/user/OS_CORE/schedule/os_schedule.c **** extern volatile int g_interrupt_count;
  16:../../source/src/user/OS_CORE/schedule/os_schedule.c **** extern UINT64 g_time_tick_count;
  17:../../source/src/user/OS_CORE/schedule/os_schedule.c **** 
  18:../../source/src/user/OS_CORE/schedule/os_schedule.c **** #if PRECISE_TIME_DELAY
  19:../../source/src/user/OS_CORE/schedule/os_schedule.c **** 	extern UINT64 num_pre_tick;
  20:../../source/src/user/OS_CORE/schedule/os_schedule.c **** #endif
  21:../../source/src/user/OS_CORE/schedule/os_schedule.c **** 
  22:../../source/src/user/OS_CORE/schedule/os_schedule.c **** volatile int g_schedule_lock = 0;// 0:do not lock;  !0: lock
  23:../../source/src/user/OS_CORE/schedule/os_schedule.c **** 
  24:../../source/src/user/OS_CORE/schedule/os_schedule.c **** void schedule(void)
  25              		.loc 1 24 0
  26              		.cfi_startproc
  27              		@ args = 0, pretend = 0, frame = 0
  28              		@ frame_needed = 0, uses_anonymous_args = 0
  29              	.LVL0:
  30 0000 10B5     		push	{r4, lr}
  31              	.LCFI0:
  32              		.cfi_def_cfa_offset 8
  33              		.cfi_offset 4, -8
ARM GAS  G:\Users\Jaxb\AppData\Local\Temp\cc9mxqkM.s 			page 2


  34              		.cfi_offset 14, -4
  25:../../source/src/user/OS_CORE/schedule/os_schedule.c **** {
  26:../../source/src/user/OS_CORE/schedule/os_schedule.c **** 	if(g_schedule_lock)
  27:../../source/src/user/OS_CORE/schedule/os_schedule.c **** 		return ;
  28:../../source/src/user/OS_CORE/schedule/os_schedule.c **** 	CPU_SR_ALLOC();
  29:../../source/src/user/OS_CORE/schedule/os_schedule.c **** 	CPU_CRITICAL_ENTER();
  35              		.loc 1 29 0
  36 0002 FFF7FEFF 		bl	CPU_SR_Save
  37              	.LVL1:
  38 0006 0446     		mov	r4, r0
  39              	.LVL2:
  30:../../source/src/user/OS_CORE/schedule/os_schedule.c **** 	OSTCBHighRdyPtr = get_highest_prio_ready_TCB();
  40              		.loc 1 30 0
  41 0008 FFF7FEFF 		bl	get_highest_prio_ready_TCB
  42              	.LVL3:
  31:../../source/src/user/OS_CORE/schedule/os_schedule.c **** 	if(OSTCBHighRdyPtr != OSTCBCurPtr)
  43              		.loc 1 31 0
  44 000c 094B     		ldr	r3, .L4
  30:../../source/src/user/OS_CORE/schedule/os_schedule.c **** 	OSTCBHighRdyPtr = get_highest_prio_ready_TCB();
  45              		.loc 1 30 0
  46 000e 0A4A     		ldr	r2, .L4+4
  47              		.loc 1 31 0
  48 0010 1B68     		ldr	r3, [r3]
  30:../../source/src/user/OS_CORE/schedule/os_schedule.c **** 	OSTCBHighRdyPtr = get_highest_prio_ready_TCB();
  49              		.loc 1 30 0
  50 0012 1060     		str	r0, [r2]
  51              		.loc 1 31 0
  52 0014 9842     		cmp	r0, r3
  53 0016 08D0     		beq	.L2
  32:../../source/src/user/OS_CORE/schedule/os_schedule.c **** 	{
  33:../../source/src/user/OS_CORE/schedule/os_schedule.c **** 		OSIntCtxSw();
  54              		.loc 1 33 0
  55 0018 4FF08052 		mov	r2, #268435456
  56 001c 074B     		ldr	r3, .L4+8
  34:../../source/src/user/OS_CORE/schedule/os_schedule.c **** 		CPU_CRITICAL_EXIT();
  57              		.loc 1 34 0
  58 001e 2046     		mov	r0, r4
  35:../../source/src/user/OS_CORE/schedule/os_schedule.c **** 		return ;
  36:../../source/src/user/OS_CORE/schedule/os_schedule.c **** 	}
  37:../../source/src/user/OS_CORE/schedule/os_schedule.c **** 	CPU_CRITICAL_EXIT();
  38:../../source/src/user/OS_CORE/schedule/os_schedule.c **** 	return ;
  39:../../source/src/user/OS_CORE/schedule/os_schedule.c **** }
  59              		.loc 1 39 0
  60 0020 BDE81040 		pop	{r4, lr}
  61              	.LCFI1:
  62              		.cfi_remember_state
  63              		.cfi_restore 14
  64              		.cfi_restore 4
  65              		.cfi_def_cfa_offset 0
  66              	.LVL4:
  33:../../source/src/user/OS_CORE/schedule/os_schedule.c **** 		CPU_CRITICAL_EXIT();
  67              		.loc 1 33 0
  68 0024 1A60     		str	r2, [r3]
  34:../../source/src/user/OS_CORE/schedule/os_schedule.c **** 		CPU_CRITICAL_EXIT();
  69              		.loc 1 34 0
  70 0026 FFF7FEBF 		b	CPU_SR_Restore
  71              	.LVL5:
ARM GAS  G:\Users\Jaxb\AppData\Local\Temp\cc9mxqkM.s 			page 3


  72              	.L2:
  73              	.LCFI2:
  74              		.cfi_restore_state
  37:../../source/src/user/OS_CORE/schedule/os_schedule.c **** 	return ;
  75              		.loc 1 37 0
  76 002a 2046     		mov	r0, r4
  77              		.loc 1 39 0
  78 002c BDE81040 		pop	{r4, lr}
  79              	.LCFI3:
  80              		.cfi_restore 14
  81              		.cfi_restore 4
  82              		.cfi_def_cfa_offset 0
  83              	.LVL6:
  37:../../source/src/user/OS_CORE/schedule/os_schedule.c **** 	return ;
  84              		.loc 1 37 0
  85 0030 FFF7FEBF 		b	CPU_SR_Restore
  86              	.LVL7:
  87              	.L5:
  88              		.align	2
  89              	.L4:
  90 0034 00000000 		.word	OSTCBCurPtr
  91 0038 00000000 		.word	OSTCBHighRdyPtr
  92 003c 04ED00E0 		.word	-536810236
  93              		.cfi_endproc
  94              	.LFE20:
  95              		.size	schedule.part.0, .-schedule.part.0
  96              		.align	1
  97              		.p2align 2,,3
  98              		.global	schedule
  99              		.syntax unified
 100              		.thumb
 101              		.thumb_func
 102              		.fpu softvfp
 103              		.type	schedule, %function
 104              	schedule:
 105              	.LFB12:
  25:../../source/src/user/OS_CORE/schedule/os_schedule.c **** 	if(g_schedule_lock)
 106              		.loc 1 25 0
 107              		.cfi_startproc
 108              		@ args = 0, pretend = 0, frame = 0
 109              		@ frame_needed = 0, uses_anonymous_args = 0
 110              		@ link register save eliminated.
  26:../../source/src/user/OS_CORE/schedule/os_schedule.c **** 		return ;
 111              		.loc 1 26 0
 112 0040 024B     		ldr	r3, .L9
 113 0042 1B68     		ldr	r3, [r3]
 114 0044 03B1     		cbz	r3, .L8
 115              		.loc 1 39 0
 116 0046 7047     		bx	lr
 117              	.L8:
 118 0048 DAE7     		b	schedule.part.0
 119              	.LVL8:
 120              	.L10:
 121 004a 00BF     		.align	2
 122              	.L9:
 123 004c 00000000 		.word	.LANCHOR0
 124              		.cfi_endproc
ARM GAS  G:\Users\Jaxb\AppData\Local\Temp\cc9mxqkM.s 			page 4


 125              	.LFE12:
 126              		.size	schedule, .-schedule
 127              		.align	1
 128              		.p2align 2,,3
 129              		.global	sys_delay
 130              		.syntax unified
 131              		.thumb
 132              		.thumb_func
 133              		.fpu softvfp
 134              		.type	sys_delay, %function
 135              	sys_delay:
 136              	.LFB13:
  40:../../source/src/user/OS_CORE/schedule/os_schedule.c **** 
  41:../../source/src/user/OS_CORE/schedule/os_schedule.c **** #if PRECISE_TIME_DELAY
  42:../../source/src/user/OS_CORE/schedule/os_schedule.c **** void delay_ms(unsigned int ms)
  43:../../source/src/user/OS_CORE/schedule/os_schedule.c **** {
  44:../../source/src/user/OS_CORE/schedule/os_schedule.c **** #define MS_PER_TICK (1000u/TICK_PER_SEC)
  45:../../source/src/user/OS_CORE/schedule/os_schedule.c **** 	UINT64 num = 0.2 * (ms * num_pre_tick / MS_PER_TICK);
  46:../../source/src/user/OS_CORE/schedule/os_schedule.c **** 	while(--num);
  47:../../source/src/user/OS_CORE/schedule/os_schedule.c **** }
  48:../../source/src/user/OS_CORE/schedule/os_schedule.c **** 
  49:../../source/src/user/OS_CORE/schedule/os_schedule.c **** void delay_us(unsigned int us)
  50:../../source/src/user/OS_CORE/schedule/os_schedule.c **** {
  51:../../source/src/user/OS_CORE/schedule/os_schedule.c **** #define US_PER_TICK (1000000u/TICK_PER_SEC)
  52:../../source/src/user/OS_CORE/schedule/os_schedule.c **** 	UINT64 num = 0.2 * (us * num_pre_tick / US_PER_TICK);
  53:../../source/src/user/OS_CORE/schedule/os_schedule.c **** 	while(--num);
  54:../../source/src/user/OS_CORE/schedule/os_schedule.c **** }
  55:../../source/src/user/OS_CORE/schedule/os_schedule.c **** #endif
  56:../../source/src/user/OS_CORE/schedule/os_schedule.c **** 
  57:../../source/src/user/OS_CORE/schedule/os_schedule.c **** int sys_delay(unsigned int delay_ticks_num,TASK_STATE state)
  58:../../source/src/user/OS_CORE/schedule/os_schedule.c **** {
 137              		.loc 1 58 0
 138              		.cfi_startproc
 139              		@ args = 0, pretend = 0, frame = 0
 140              		@ frame_needed = 0, uses_anonymous_args = 0
 141              	.LVL9:
  59:../../source/src/user/OS_CORE/schedule/os_schedule.c **** 	ASSERT((STATE_DELAY == state) 						|| 
 142              		.loc 1 59 0
 143 0050 0929     		cmp	r1, #9
  58:../../source/src/user/OS_CORE/schedule/os_schedule.c **** 	ASSERT((STATE_DELAY == state) 						|| 
 144              		.loc 1 58 0
 145 0052 2DE9F048 		push	{r4, r5, r6, r7, fp, lr}
 146              	.LCFI4:
 147              		.cfi_def_cfa_offset 24
 148              		.cfi_offset 4, -24
 149              		.cfi_offset 5, -20
 150              		.cfi_offset 6, -16
 151              		.cfi_offset 7, -12
 152              		.cfi_offset 11, -8
 153              		.cfi_offset 14, -4
  58:../../source/src/user/OS_CORE/schedule/os_schedule.c **** 	ASSERT((STATE_DELAY == state) 						|| 
 154              		.loc 1 58 0
 155 0056 0C46     		mov	r4, r1
 156 0058 0646     		mov	r6, r0
 157              		.loc 1 59 0
 158 005a 2ED9     		bls	.L36
 159              	.L12:
ARM GAS  G:\Users\Jaxb\AppData\Local\Temp\cc9mxqkM.s 			page 5


 160              		.loc 1 59 0 is_stmt 0 discriminator 1
 161 005c 3E21     		movs	r1, #62
 162              	.LVL10:
 163 005e 2E48     		ldr	r0, .L41
 164              	.LVL11:
 165 0060 FFF7FEFF 		bl	_ASSERT
 166              	.LVL12:
  60:../../source/src/user/OS_CORE/schedule/os_schedule.c **** 		   (STATE_WAIT_MCB_TIMEOUT == state) 			|| 
  61:../../source/src/user/OS_CORE/schedule/os_schedule.c **** 		   (STATE_WAIT_MESSAGE_QUEUE_TIMEOUT == state) 	|| 
  62:../../source/src/user/OS_CORE/schedule/os_schedule.c **** 		   (STATE_PUT_MESSAGE_QUEUE_TIMEOUT == state));
  63:../../source/src/user/OS_CORE/schedule/os_schedule.c **** 	ASSERT(0 != delay_ticks_num);
 167              		.loc 1 63 0 is_stmt 1 discriminator 1
 168 0064 002E     		cmp	r6, #0
 169 0066 2FD0     		beq	.L37
 170              	.L14:
  64:../../source/src/user/OS_CORE/schedule/os_schedule.c **** #if CONFIG_PARA_CHECK
  65:../../source/src/user/OS_CORE/schedule/os_schedule.c **** 	if(!((STATE_DELAY == state) || (STATE_WAIT_MCB_TIMEOUT == state) || 
 171              		.loc 1 65 0
 172 0068 022C     		cmp	r4, #2
 173 006a 3FD1     		bne	.L38
 174              	.L21:
 175              	.LVL13:
  66:../../source/src/user/OS_CORE/schedule/os_schedule.c **** 		(STATE_WAIT_MESSAGE_QUEUE_TIMEOUT == state) || (STATE_PUT_MESSAGE_QUEUE_TIMEOUT == state)))
  67:../../source/src/user/OS_CORE/schedule/os_schedule.c **** 	{
  68:../../source/src/user/OS_CORE/schedule/os_schedule.c **** 		OS_ERROR_PARA_MESSAGE_DISPLAY(sys_delay,state);
  69:../../source/src/user/OS_CORE/schedule/os_schedule.c **** 		return -ERROR_VALUELESS_INPUT;
  70:../../source/src/user/OS_CORE/schedule/os_schedule.c **** 	}
  71:../../source/src/user/OS_CORE/schedule/os_schedule.c **** 	if(0 == delay_ticks_num)
  72:../../source/src/user/OS_CORE/schedule/os_schedule.c **** 	{
  73:../../source/src/user/OS_CORE/schedule/os_schedule.c **** 		OS_ERROR_PARA_MESSAGE_DISPLAY(sys_delay,delay_ticks_num);
  74:../../source/src/user/OS_CORE/schedule/os_schedule.c **** 		return -ERROR_VALUELESS_INPUT;
  75:../../source/src/user/OS_CORE/schedule/os_schedule.c **** 	}
  76:../../source/src/user/OS_CORE/schedule/os_schedule.c **** #endif	
  77:../../source/src/user/OS_CORE/schedule/os_schedule.c **** 	CPU_SR_ALLOC();
  78:../../source/src/user/OS_CORE/schedule/os_schedule.c **** 	CPU_CRITICAL_ENTER();
 176              		.loc 1 78 0
 177 006c FFF7FEFF 		bl	CPU_SR_Save
 178              	.LVL14:
  79:../../source/src/user/OS_CORE/schedule/os_schedule.c **** 	if (g_interrupt_count > 0)
 179              		.loc 1 79 0
 180 0070 2A4B     		ldr	r3, .L41+4
  78:../../source/src/user/OS_CORE/schedule/os_schedule.c **** 	if (g_interrupt_count > 0)
 181              		.loc 1 78 0
 182 0072 0746     		mov	r7, r0
 183              	.LVL15:
 184              		.loc 1 79 0
 185 0074 1B68     		ldr	r3, [r3]
 186 0076 002B     		cmp	r3, #0
 187 0078 42DC     		bgt	.L39
  80:../../source/src/user/OS_CORE/schedule/os_schedule.c **** 	{
  81:../../source/src/user/OS_CORE/schedule/os_schedule.c **** 		CPU_CRITICAL_EXIT();
  82:../../source/src/user/OS_CORE/schedule/os_schedule.c **** 		return -ERROR_FUN_USE_IN_INTER;
  83:../../source/src/user/OS_CORE/schedule/os_schedule.c **** 	}
  84:../../source/src/user/OS_CORE/schedule/os_schedule.c **** 	OSTCBCurPtr->delay_reach_time = delay_ticks_num + g_time_tick_count;
 188              		.loc 1 84 0
 189 007a 294B     		ldr	r3, .L41+8
 190 007c 294D     		ldr	r5, .L41+12
ARM GAS  G:\Users\Jaxb\AppData\Local\Temp\cc9mxqkM.s 			page 6


 191 007e D3E90001 		ldrd	r0, [r3]
 192              	.LVL16:
 193 0082 2B68     		ldr	r3, [r5]
 194 0084 10EB060B 		adds	fp, r0, r6
 195 0088 41F1000C 		adc	ip, r1, #0
 196 008c C3E910BC 		strd	fp, [r3, #64]
  85:../../source/src/user/OS_CORE/schedule/os_schedule.c **** 	OSTCBCurPtr->task_state = state;
  86:../../source/src/user/OS_CORE/schedule/os_schedule.c **** 	delete_TCB_from_ready((TCB *)OSTCBCurPtr);
 197              		.loc 1 86 0
 198 0090 1846     		mov	r0, r3
  85:../../source/src/user/OS_CORE/schedule/os_schedule.c **** 	OSTCBCurPtr->task_state = state;
 199              		.loc 1 85 0
 200 0092 1C75     		strb	r4, [r3, #20]
 201              		.loc 1 86 0
 202 0094 FFF7FEFF 		bl	delete_TCB_from_ready
 203              	.LVL17:
  87:../../source/src/user/OS_CORE/schedule/os_schedule.c **** 	insert_into_delay_heap((TCB *)OSTCBCurPtr);
 204              		.loc 1 87 0
 205 0098 2868     		ldr	r0, [r5]
 206 009a FFF7FEFF 		bl	insert_into_delay_heap
 207              	.LVL18:
 208              	.LBB10:
 209              	.LBB11:
  26:../../source/src/user/OS_CORE/schedule/os_schedule.c **** 		return ;
 210              		.loc 1 26 0
 211 009e 224B     		ldr	r3, .L41+16
 212 00a0 1B68     		ldr	r3, [r3]
 213 00a2 53B3     		cbz	r3, .L40
 214              	.L20:
 215              	.LBE11:
 216              	.LBE10:
  88:../../source/src/user/OS_CORE/schedule/os_schedule.c **** 	schedule();
  89:../../source/src/user/OS_CORE/schedule/os_schedule.c **** 	CPU_CRITICAL_EXIT();
 217              		.loc 1 89 0
 218 00a4 3846     		mov	r0, r7
 219 00a6 FFF7FEFF 		bl	CPU_SR_Restore
 220              	.LVL19:
  90:../../source/src/user/OS_CORE/schedule/os_schedule.c **** 	return (unsigned int)(OSTCBCurPtr->delay_reach_time - get_tick());
 221              		.loc 1 90 0
 222 00aa 2B68     		ldr	r3, [r5]
 223 00ac D3E91045 		ldrd	r4, [r3, #64]
 224 00b0 FFF7FEFF 		bl	get_tick
 225              	.LVL20:
 226 00b4 201A     		subs	r0, r4, r0
 227              	.LVL21:
 228              	.L11:
  91:../../source/src/user/OS_CORE/schedule/os_schedule.c **** }
 229              		.loc 1 91 0
 230 00b6 BDE8F088 		pop	{r4, r5, r6, r7, fp, pc}
 231              	.LVL22:
 232              	.L36:
  59:../../source/src/user/OS_CORE/schedule/os_schedule.c **** 		   (STATE_WAIT_MCB_TIMEOUT == state) 			|| 
 233              		.loc 1 59 0
 234 00ba 4FF42973 		mov	r3, #676
 235 00be CB40     		lsrs	r3, r3, r1
 236 00c0 DB07     		lsls	r3, r3, #31
 237 00c2 CBD5     		bpl	.L12
ARM GAS  G:\Users\Jaxb\AppData\Local\Temp\cc9mxqkM.s 			page 7


  63:../../source/src/user/OS_CORE/schedule/os_schedule.c **** #if CONFIG_PARA_CHECK
 238              		.loc 1 63 0
 239 00c4 002E     		cmp	r6, #0
 240 00c6 CFD1     		bne	.L14
 241              	.LVL23:
 242              	.L37:
  63:../../source/src/user/OS_CORE/schedule/os_schedule.c **** #if CONFIG_PARA_CHECK
 243              		.loc 1 63 0 is_stmt 0 discriminator 1
 244 00c8 3F21     		movs	r1, #63
 245 00ca 1348     		ldr	r0, .L41
 246 00cc FFF7FEFF 		bl	_ASSERT
 247              	.LVL24:
  65:../../source/src/user/OS_CORE/schedule/os_schedule.c **** 		(STATE_WAIT_MESSAGE_QUEUE_TIMEOUT == state) || (STATE_PUT_MESSAGE_QUEUE_TIMEOUT == state)))
 248              		.loc 1 65 0 is_stmt 1 discriminator 1
 249 00d0 022C     		cmp	r4, #2
 250 00d2 1AD0     		beq	.L18
  65:../../source/src/user/OS_CORE/schedule/os_schedule.c **** 		(STATE_WAIT_MESSAGE_QUEUE_TIMEOUT == state) || (STATE_PUT_MESSAGE_QUEUE_TIMEOUT == state)))
 251              		.loc 1 65 0 is_stmt 0
 252 00d4 04F0FD03 		and	r3, r4, #253
 253 00d8 052B     		cmp	r3, #5
 254 00da 16D0     		beq	.L18
 255 00dc 092C     		cmp	r4, #9
 256 00de 14D0     		beq	.L18
 257              	.L23:
  68:../../source/src/user/OS_CORE/schedule/os_schedule.c **** 		return -ERROR_VALUELESS_INPUT;
 258              		.loc 1 68 0 is_stmt 1
 259 00e0 1248     		ldr	r0, .L41+20
 260 00e2 FFF7FEFF 		bl	ka_printf
 261              	.LVL25:
  69:../../source/src/user/OS_CORE/schedule/os_schedule.c **** 	}
 262              		.loc 1 69 0
 263 00e6 6FF0FD00 		mvn	r0, #253
 264 00ea E4E7     		b	.L11
 265              	.L38:
  65:../../source/src/user/OS_CORE/schedule/os_schedule.c **** 		(STATE_WAIT_MESSAGE_QUEUE_TIMEOUT == state) || (STATE_PUT_MESSAGE_QUEUE_TIMEOUT == state)))
 266              		.loc 1 65 0
 267 00ec 04F0FD03 		and	r3, r4, #253
 268 00f0 052B     		cmp	r3, #5
 269 00f2 BBD0     		beq	.L21
  65:../../source/src/user/OS_CORE/schedule/os_schedule.c **** 		(STATE_WAIT_MESSAGE_QUEUE_TIMEOUT == state) || (STATE_PUT_MESSAGE_QUEUE_TIMEOUT == state)))
 270              		.loc 1 65 0 is_stmt 0 discriminator 3
 271 00f4 092C     		cmp	r4, #9
 272 00f6 B9D0     		beq	.L21
 273 00f8 F2E7     		b	.L23
 274              	.LVL26:
 275              	.L40:
 276              	.LBB13:
 277              	.LBB12:
 278 00fa FFF781FF 		bl	schedule.part.0
 279              	.LVL27:
 280 00fe D1E7     		b	.L20
 281              	.LVL28:
 282              	.L39:
 283              	.LBE12:
 284              	.LBE13:
  81:../../source/src/user/OS_CORE/schedule/os_schedule.c **** 		return -ERROR_FUN_USE_IN_INTER;
 285              		.loc 1 81 0 is_stmt 1
ARM GAS  G:\Users\Jaxb\AppData\Local\Temp\cc9mxqkM.s 			page 8


 286 0100 FFF7FEFF 		bl	CPU_SR_Restore
 287              	.LVL29:
  82:../../source/src/user/OS_CORE/schedule/os_schedule.c **** 	}
 288              		.loc 1 82 0
 289 0104 6FF0FC00 		mvn	r0, #252
 290 0108 D5E7     		b	.L11
 291              	.LVL30:
 292              	.L18:
  73:../../source/src/user/OS_CORE/schedule/os_schedule.c **** 		return -ERROR_VALUELESS_INPUT;
 293              		.loc 1 73 0
 294 010a 0948     		ldr	r0, .L41+24
 295 010c FFF7FEFF 		bl	ka_printf
 296              	.LVL31:
  74:../../source/src/user/OS_CORE/schedule/os_schedule.c **** 	}
 297              		.loc 1 74 0
 298 0110 6FF0FD00 		mvn	r0, #253
 299 0114 CFE7     		b	.L11
 300              	.L42:
 301 0116 00BF     		.align	2
 302              	.L41:
 303 0118 00000000 		.word	.LC0
 304 011c 00000000 		.word	g_interrupt_count
 305 0120 00000000 		.word	g_time_tick_count
 306 0124 00000000 		.word	OSTCBCurPtr
 307 0128 00000000 		.word	.LANCHOR0
 308 012c 74000000 		.word	.LC2
 309 0130 38000000 		.word	.LC1
 310              		.cfi_endproc
 311              	.LFE13:
 312              		.size	sys_delay, .-sys_delay
 313              		.align	1
 314              		.p2align 2,,3
 315              		.global	sys_suspend
 316              		.syntax unified
 317              		.thumb
 318              		.thumb_func
 319              		.fpu softvfp
 320              		.type	sys_suspend, %function
 321              	sys_suspend:
 322              	.LFB14:
  92:../../source/src/user/OS_CORE/schedule/os_schedule.c **** 
  93:../../source/src/user/OS_CORE/schedule/os_schedule.c **** int sys_suspend(TASK_STATE state)
  94:../../source/src/user/OS_CORE/schedule/os_schedule.c **** {
 323              		.loc 1 94 0
 324              		.cfi_startproc
 325              		@ args = 0, pretend = 0, frame = 0
 326              		@ frame_needed = 0, uses_anonymous_args = 0
 327              	.LVL32:
  95:../../source/src/user/OS_CORE/schedule/os_schedule.c **** 	ASSERT((STATE_SUSPEND_NORMAL == state) 				||
 328              		.loc 1 95 0
 329 0134 0A28     		cmp	r0, #10
  94:../../source/src/user/OS_CORE/schedule/os_schedule.c **** 	ASSERT((STATE_SUSPEND_NORMAL == state) 				||
 330              		.loc 1 94 0
 331 0136 70B5     		push	{r4, r5, r6, lr}
 332              	.LCFI5:
 333              		.cfi_def_cfa_offset 16
 334              		.cfi_offset 4, -16
ARM GAS  G:\Users\Jaxb\AppData\Local\Temp\cc9mxqkM.s 			page 9


 335              		.cfi_offset 5, -12
 336              		.cfi_offset 6, -8
 337              		.cfi_offset 14, -4
  94:../../source/src/user/OS_CORE/schedule/os_schedule.c **** 	ASSERT((STATE_SUSPEND_NORMAL == state) 				||
 338              		.loc 1 94 0
 339 0138 0446     		mov	r4, r0
 340              		.loc 1 95 0
 341 013a 09D9     		bls	.L49
 342              	.L44:
 343              		.loc 1 95 0 is_stmt 0 discriminator 2
 344 013c 6321     		movs	r1, #99
 345 013e 1648     		ldr	r0, .L52
 346              	.LVL33:
 347 0140 FFF7FEFF 		bl	_ASSERT
 348              	.LVL34:
  96:../../source/src/user/OS_CORE/schedule/os_schedule.c **** 		   (STATE_WAIT_MCB_FOREVER == state) 			||
  97:../../source/src/user/OS_CORE/schedule/os_schedule.c **** 		   (STATE_WAIT_MESSAGE_QUEUE_FOREVER == state) 	||
  98:../../source/src/user/OS_CORE/schedule/os_schedule.c **** 		   (STATE_PUT_MESSAGE_QUEUE_FOREVER == state)	||
  99:../../source/src/user/OS_CORE/schedule/os_schedule.c **** 		   (STATE_WAIT_MUTEX_FOREVER == state));
 100:../../source/src/user/OS_CORE/schedule/os_schedule.c **** #if CONFIG_PARA_CHECK
 101:../../source/src/user/OS_CORE/schedule/os_schedule.c **** 	if(!((STATE_SUSPEND_NORMAL == state) 				||
 102:../../source/src/user/OS_CORE/schedule/os_schedule.c **** 		   (STATE_WAIT_MCB_FOREVER == state) 			||
 103:../../source/src/user/OS_CORE/schedule/os_schedule.c **** 		   (STATE_WAIT_MESSAGE_QUEUE_FOREVER == state) 	||
 104:../../source/src/user/OS_CORE/schedule/os_schedule.c **** 		   (STATE_PUT_MESSAGE_QUEUE_FOREVER == state)	||
 105:../../source/src/user/OS_CORE/schedule/os_schedule.c **** 		   (STATE_WAIT_MUTEX_FOREVER == state)))
 106:../../source/src/user/OS_CORE/schedule/os_schedule.c **** 	{
 107:../../source/src/user/OS_CORE/schedule/os_schedule.c **** 		OS_ERROR_PARA_MESSAGE_DISPLAY(sys_delay,state);
 349              		.loc 1 107 0 is_stmt 1 discriminator 2
 350 0144 1548     		ldr	r0, .L52+4
 351 0146 FFF7FEFF 		bl	ka_printf
 352              	.LVL35:
 108:../../source/src/user/OS_CORE/schedule/os_schedule.c **** 		return -ERROR_VALUELESS_INPUT;
 353              		.loc 1 108 0 discriminator 2
 354 014a 6FF0FD00 		mvn	r0, #253
 109:../../source/src/user/OS_CORE/schedule/os_schedule.c **** 	} 
 110:../../source/src/user/OS_CORE/schedule/os_schedule.c **** #endif
 111:../../source/src/user/OS_CORE/schedule/os_schedule.c **** 	CPU_SR_ALLOC();
 112:../../source/src/user/OS_CORE/schedule/os_schedule.c **** 	CPU_CRITICAL_ENTER();
 113:../../source/src/user/OS_CORE/schedule/os_schedule.c **** 	if (g_interrupt_count > 0)
 114:../../source/src/user/OS_CORE/schedule/os_schedule.c **** 	{
 115:../../source/src/user/OS_CORE/schedule/os_schedule.c **** 		CPU_CRITICAL_EXIT();
 116:../../source/src/user/OS_CORE/schedule/os_schedule.c **** 		return -ERROR_FUN_USE_IN_INTER;
 117:../../source/src/user/OS_CORE/schedule/os_schedule.c **** 	}
 118:../../source/src/user/OS_CORE/schedule/os_schedule.c **** 	OSTCBCurPtr->task_state = state;
 119:../../source/src/user/OS_CORE/schedule/os_schedule.c **** 	delete_TCB_from_ready((TCB *)OSTCBCurPtr);
 120:../../source/src/user/OS_CORE/schedule/os_schedule.c **** 	insert_into_suspend_list((TCB *)OSTCBCurPtr);
 121:../../source/src/user/OS_CORE/schedule/os_schedule.c **** 	schedule();
 122:../../source/src/user/OS_CORE/schedule/os_schedule.c **** 	CPU_CRITICAL_EXIT();
 123:../../source/src/user/OS_CORE/schedule/os_schedule.c **** 	return FUN_EXECUTE_SUCCESSFULLY;
 124:../../source/src/user/OS_CORE/schedule/os_schedule.c **** }
 355              		.loc 1 124 0 discriminator 2
 356 014e 70BD     		pop	{r4, r5, r6, pc}
 357              	.LVL36:
 358              	.L49:
  95:../../source/src/user/OS_CORE/schedule/os_schedule.c **** 		   (STATE_WAIT_MCB_FOREVER == state) 			||
 359              		.loc 1 95 0
 360 0150 4FF4AB63 		mov	r3, #1368
ARM GAS  G:\Users\Jaxb\AppData\Local\Temp\cc9mxqkM.s 			page 10


 361 0154 C340     		lsrs	r3, r3, r0
 362 0156 DB07     		lsls	r3, r3, #31
 363 0158 F0D5     		bpl	.L44
 364              	.LVL37:
 112:../../source/src/user/OS_CORE/schedule/os_schedule.c **** 	if (g_interrupt_count > 0)
 365              		.loc 1 112 0
 366 015a FFF7FEFF 		bl	CPU_SR_Save
 367              	.LVL38:
 113:../../source/src/user/OS_CORE/schedule/os_schedule.c **** 	{
 368              		.loc 1 113 0
 369 015e 104B     		ldr	r3, .L52+8
 112:../../source/src/user/OS_CORE/schedule/os_schedule.c **** 	if (g_interrupt_count > 0)
 370              		.loc 1 112 0
 371 0160 0646     		mov	r6, r0
 372              	.LVL39:
 113:../../source/src/user/OS_CORE/schedule/os_schedule.c **** 	{
 373              		.loc 1 113 0
 374 0162 1B68     		ldr	r3, [r3]
 375 0164 002B     		cmp	r3, #0
 376 0166 12DC     		bgt	.L50
 118:../../source/src/user/OS_CORE/schedule/os_schedule.c **** 	delete_TCB_from_ready((TCB *)OSTCBCurPtr);
 377              		.loc 1 118 0
 378 0168 0E4D     		ldr	r5, .L52+12
 379 016a 2868     		ldr	r0, [r5]
 380              	.LVL40:
 381 016c 0475     		strb	r4, [r0, #20]
 119:../../source/src/user/OS_CORE/schedule/os_schedule.c **** 	insert_into_suspend_list((TCB *)OSTCBCurPtr);
 382              		.loc 1 119 0
 383 016e FFF7FEFF 		bl	delete_TCB_from_ready
 384              	.LVL41:
 120:../../source/src/user/OS_CORE/schedule/os_schedule.c **** 	schedule();
 385              		.loc 1 120 0
 386 0172 2868     		ldr	r0, [r5]
 387 0174 FFF7FEFF 		bl	insert_into_suspend_list
 388              	.LVL42:
 389              	.LBB14:
 390              	.LBB15:
  26:../../source/src/user/OS_CORE/schedule/os_schedule.c **** 		return ;
 391              		.loc 1 26 0
 392 0178 0B4B     		ldr	r3, .L52+16
 393 017a 1B68     		ldr	r3, [r3]
 394 017c 23B1     		cbz	r3, .L51
 395              	.L48:
 396              	.LBE15:
 397              	.LBE14:
 122:../../source/src/user/OS_CORE/schedule/os_schedule.c **** 	return FUN_EXECUTE_SUCCESSFULLY;
 398              		.loc 1 122 0
 399 017e 3046     		mov	r0, r6
 400 0180 FFF7FEFF 		bl	CPU_SR_Restore
 401              	.LVL43:
 123:../../source/src/user/OS_CORE/schedule/os_schedule.c **** }
 402              		.loc 1 123 0
 403 0184 0020     		movs	r0, #0
 404              		.loc 1 124 0
 405 0186 70BD     		pop	{r4, r5, r6, pc}
 406              	.LVL44:
 407              	.L51:
ARM GAS  G:\Users\Jaxb\AppData\Local\Temp\cc9mxqkM.s 			page 11


 408              	.LBB17:
 409              	.LBB16:
 410 0188 FFF73AFF 		bl	schedule.part.0
 411              	.LVL45:
 412 018c F7E7     		b	.L48
 413              	.LVL46:
 414              	.L50:
 415              	.LBE16:
 416              	.LBE17:
 115:../../source/src/user/OS_CORE/schedule/os_schedule.c **** 		return -ERROR_FUN_USE_IN_INTER;
 417              		.loc 1 115 0
 418 018e FFF7FEFF 		bl	CPU_SR_Restore
 419              	.LVL47:
 116:../../source/src/user/OS_CORE/schedule/os_schedule.c **** 	}
 420              		.loc 1 116 0
 421 0192 6FF0FC00 		mvn	r0, #252
 422              		.loc 1 124 0
 423 0196 70BD     		pop	{r4, r5, r6, pc}
 424              	.LVL48:
 425              	.L53:
 426              		.align	2
 427              	.L52:
 428 0198 00000000 		.word	.LC0
 429 019c 74000000 		.word	.LC2
 430 01a0 00000000 		.word	g_interrupt_count
 431 01a4 00000000 		.word	OSTCBCurPtr
 432 01a8 00000000 		.word	.LANCHOR0
 433              		.cfi_endproc
 434              	.LFE14:
 435              		.size	sys_suspend, .-sys_suspend
 436              		.align	1
 437              		.p2align 2,,3
 438              		.global	task_creat_ready
 439              		.syntax unified
 440              		.thumb
 441              		.thumb_func
 442              		.fpu softvfp
 443              		.type	task_creat_ready, %function
 444              	task_creat_ready:
 445              	.LFB15:
 125:../../source/src/user/OS_CORE/schedule/os_schedule.c **** 
 126:../../source/src/user/OS_CORE/schedule/os_schedule.c **** int _must_check task_creat_ready(
 127:../../source/src/user/OS_CORE/schedule/os_schedule.c **** 	unsigned int stack_size,
 128:../../source/src/user/OS_CORE/schedule/os_schedule.c **** 	TASK_PRIO_TYPE prio,
 129:../../source/src/user/OS_CORE/schedule/os_schedule.c **** 	unsigned int timeslice_hope_time,
 130:../../source/src/user/OS_CORE/schedule/os_schedule.c **** 	const char *name,
 131:../../source/src/user/OS_CORE/schedule/os_schedule.c **** 	functionptr function,
 132:../../source/src/user/OS_CORE/schedule/os_schedule.c **** 	void *para,
 133:../../source/src/user/OS_CORE/schedule/os_schedule.c **** 	TCB **ptr)
 134:../../source/src/user/OS_CORE/schedule/os_schedule.c **** {
 446              		.loc 1 134 0
 447              		.cfi_startproc
 448              		@ args = 12, pretend = 0, frame = 0
 449              		@ frame_needed = 0, uses_anonymous_args = 0
 450              	.LVL49:
 451 01ac 2DE9F047 		push	{r4, r5, r6, r7, r8, r9, r10, lr}
 452              	.LCFI6:
ARM GAS  G:\Users\Jaxb\AppData\Local\Temp\cc9mxqkM.s 			page 12


 453              		.cfi_def_cfa_offset 32
 454              		.cfi_offset 4, -32
 455              		.cfi_offset 5, -28
 456              		.cfi_offset 6, -24
 457              		.cfi_offset 7, -20
 458              		.cfi_offset 8, -16
 459              		.cfi_offset 9, -12
 460              		.cfi_offset 10, -8
 461              		.cfi_offset 14, -4
 462 01b0 84B0     		sub	sp, sp, #16
 463              	.LCFI7:
 464              		.cfi_def_cfa_offset 48
 465              		.loc 1 134 0
 466 01b2 0646     		mov	r6, r0
 467 01b4 0F46     		mov	r7, r1
 468 01b6 9146     		mov	r9, r2
 469 01b8 9A46     		mov	r10, r3
 470 01ba 0E9C     		ldr	r4, [sp, #56]
 135:../../source/src/user/OS_CORE/schedule/os_schedule.c **** 	int ret;
 136:../../source/src/user/OS_CORE/schedule/os_schedule.c **** 	CPU_SR_ALLOC();
 137:../../source/src/user/OS_CORE/schedule/os_schedule.c **** 	CPU_CRITICAL_ENTER();
 471              		.loc 1 137 0
 472 01bc FFF7FEFF 		bl	CPU_SR_Save
 473              	.LVL50:
 138:../../source/src/user/OS_CORE/schedule/os_schedule.c **** 	if (g_interrupt_count > 0)
 474              		.loc 1 138 0
 475 01c0 164D     		ldr	r5, .L65
 137:../../source/src/user/OS_CORE/schedule/os_schedule.c **** 	if (g_interrupt_count > 0)
 476              		.loc 1 137 0
 477 01c2 8046     		mov	r8, r0
 478              	.LVL51:
 479              		.loc 1 138 0
 480 01c4 2D68     		ldr	r5, [r5]
 481 01c6 002D     		cmp	r5, #0
 482 01c8 1FDC     		bgt	.L63
 139:../../source/src/user/OS_CORE/schedule/os_schedule.c **** 	{
 140:../../source/src/user/OS_CORE/schedule/os_schedule.c **** 		CPU_CRITICAL_EXIT();
 141:../../source/src/user/OS_CORE/schedule/os_schedule.c **** 		return -ERROR_FUN_USE_IN_INTER;
 142:../../source/src/user/OS_CORE/schedule/os_schedule.c **** 	}
 143:../../source/src/user/OS_CORE/schedule/os_schedule.c **** 	TCB *TCB_ptr = task_creat(stack_size,prio,timeslice_hope_time,name,function,para,STATE_READY);
 483              		.loc 1 143 0
 484 01ca 0125     		movs	r5, #1
 485 01cc 0D9B     		ldr	r3, [sp, #52]
 486 01ce 4A46     		mov	r2, r9
 487 01d0 0193     		str	r3, [sp, #4]
 488 01d2 0C9B     		ldr	r3, [sp, #48]
 489 01d4 3946     		mov	r1, r7
 490 01d6 0093     		str	r3, [sp]
 491 01d8 3046     		mov	r0, r6
 492              	.LVL52:
 493 01da 5346     		mov	r3, r10
 494 01dc 0295     		str	r5, [sp, #8]
 495 01de FFF7FEFF 		bl	task_creat
 496              	.LVL53:
 144:../../source/src/user/OS_CORE/schedule/os_schedule.c **** 	if(NULL == TCB_ptr)
 497              		.loc 1 144 0
 498 01e2 B8B1     		cbz	r0, .L59
ARM GAS  G:\Users\Jaxb\AppData\Local\Temp\cc9mxqkM.s 			page 13


 145:../../source/src/user/OS_CORE/schedule/os_schedule.c **** 	{
 146:../../source/src/user/OS_CORE/schedule/os_schedule.c **** 		return -ERROR_CREATE_TASK;
 147:../../source/src/user/OS_CORE/schedule/os_schedule.c **** 	}
 148:../../source/src/user/OS_CORE/schedule/os_schedule.c **** 	if(NULL != ptr)
 499              		.loc 1 148 0
 500 01e4 04B1     		cbz	r4, .L57
 149:../../source/src/user/OS_CORE/schedule/os_schedule.c **** 	{
 150:../../source/src/user/OS_CORE/schedule/os_schedule.c **** 		*ptr = TCB_ptr;
 501              		.loc 1 150 0
 502 01e6 2060     		str	r0, [r4]
 503              	.L57:
 151:../../source/src/user/OS_CORE/schedule/os_schedule.c **** 	}
 152:../../source/src/user/OS_CORE/schedule/os_schedule.c **** 	ret = insert_ready_TCB(TCB_ptr);
 504              		.loc 1 152 0
 505 01e8 FFF7FEFF 		bl	insert_ready_TCB
 506              	.LVL54:
 153:../../source/src/user/OS_CORE/schedule/os_schedule.c **** 	if(0 != ret)
 507              		.loc 1 153 0
 508 01ec 0446     		mov	r4, r0
 509 01ee 28B9     		cbnz	r0, .L54
 510              	.LBB18:
 511              	.LBB19:
  26:../../source/src/user/OS_CORE/schedule/os_schedule.c **** 		return ;
 512              		.loc 1 26 0
 513 01f0 0B4B     		ldr	r3, .L65+4
 514 01f2 1B68     		ldr	r3, [r3]
 515 01f4 33B1     		cbz	r3, .L64
 516              	.LVL55:
 517              	.L58:
 518              	.LBE19:
 519              	.LBE18:
 154:../../source/src/user/OS_CORE/schedule/os_schedule.c **** 	{
 155:../../source/src/user/OS_CORE/schedule/os_schedule.c **** 		return ret;
 156:../../source/src/user/OS_CORE/schedule/os_schedule.c **** 	}
 157:../../source/src/user/OS_CORE/schedule/os_schedule.c **** 	schedule();
 158:../../source/src/user/OS_CORE/schedule/os_schedule.c **** 	CPU_CRITICAL_EXIT();
 520              		.loc 1 158 0
 521 01f6 4046     		mov	r0, r8
 522 01f8 FFF7FEFF 		bl	CPU_SR_Restore
 523              	.LVL56:
 524              	.L54:
 159:../../source/src/user/OS_CORE/schedule/os_schedule.c **** 	return FUN_EXECUTE_SUCCESSFULLY;
 160:../../source/src/user/OS_CORE/schedule/os_schedule.c **** }
 525              		.loc 1 160 0
 526 01fc 2046     		mov	r0, r4
 527 01fe 04B0     		add	sp, sp, #16
 528              	.LCFI8:
 529              		.cfi_remember_state
 530              		.cfi_def_cfa_offset 32
 531              		@ sp needed
 532 0200 BDE8F087 		pop	{r4, r5, r6, r7, r8, r9, r10, pc}
 533              	.LVL57:
 534              	.L64:
 535              	.LCFI9:
 536              		.cfi_restore_state
 537              	.LBB21:
 538              	.LBB20:
ARM GAS  G:\Users\Jaxb\AppData\Local\Temp\cc9mxqkM.s 			page 14


 539 0204 FFF7FCFE 		bl	schedule.part.0
 540              	.LVL58:
 541 0208 F5E7     		b	.L58
 542              	.LVL59:
 543              	.L63:
 544              	.LBE20:
 545              	.LBE21:
 140:../../source/src/user/OS_CORE/schedule/os_schedule.c **** 		return -ERROR_FUN_USE_IN_INTER;
 546              		.loc 1 140 0
 547 020a FFF7FEFF 		bl	CPU_SR_Restore
 548              	.LVL60:
 141:../../source/src/user/OS_CORE/schedule/os_schedule.c **** 	}
 549              		.loc 1 141 0
 550 020e 6FF0FC04 		mvn	r4, #252
 551 0212 F3E7     		b	.L54
 552              	.LVL61:
 553              	.L59:
 146:../../source/src/user/OS_CORE/schedule/os_schedule.c **** 	}
 554              		.loc 1 146 0
 555 0214 4FF0FF34 		mov	r4, #-1
 556 0218 F0E7     		b	.L54
 557              	.L66:
 558 021a 00BF     		.align	2
 559              	.L65:
 560 021c 00000000 		.word	g_interrupt_count
 561 0220 00000000 		.word	.LANCHOR0
 562              		.cfi_endproc
 563              	.LFE15:
 564              		.size	task_creat_ready, .-task_creat_ready
 565              		.align	1
 566              		.p2align 2,,3
 567              		.global	task_init_ready
 568              		.syntax unified
 569              		.thumb
 570              		.thumb_func
 571              		.fpu softvfp
 572              		.type	task_init_ready, %function
 573              	task_init_ready:
 574              	.LFB16:
 161:../../source/src/user/OS_CORE/schedule/os_schedule.c **** 
 162:../../source/src/user/OS_CORE/schedule/os_schedule.c **** int _must_check task_init_ready(
 163:../../source/src/user/OS_CORE/schedule/os_schedule.c **** 	TCB *TCB_ptr,
 164:../../source/src/user/OS_CORE/schedule/os_schedule.c **** 	unsigned int stack_size,
 165:../../source/src/user/OS_CORE/schedule/os_schedule.c **** 	TASK_PRIO_TYPE prio,
 166:../../source/src/user/OS_CORE/schedule/os_schedule.c **** 	unsigned int timeslice_hope_time,
 167:../../source/src/user/OS_CORE/schedule/os_schedule.c **** 	char *name,
 168:../../source/src/user/OS_CORE/schedule/os_schedule.c **** 	functionptr function,
 169:../../source/src/user/OS_CORE/schedule/os_schedule.c **** 	void *para)
 170:../../source/src/user/OS_CORE/schedule/os_schedule.c **** {	
 575              		.loc 1 170 0
 576              		.cfi_startproc
 577              		@ args = 12, pretend = 0, frame = 0
 578              		@ frame_needed = 0, uses_anonymous_args = 0
 579              	.LVL62:
 580 0224 2DE9F043 		push	{r4, r5, r6, r7, r8, r9, lr}
 581              	.LCFI10:
 582              		.cfi_def_cfa_offset 28
ARM GAS  G:\Users\Jaxb\AppData\Local\Temp\cc9mxqkM.s 			page 15


 583              		.cfi_offset 4, -28
 584              		.cfi_offset 5, -24
 585              		.cfi_offset 6, -20
 586              		.cfi_offset 7, -16
 587              		.cfi_offset 8, -12
 588              		.cfi_offset 9, -8
 589              		.cfi_offset 14, -4
 590 0228 85B0     		sub	sp, sp, #20
 591              	.LCFI11:
 592              		.cfi_def_cfa_offset 48
 593              		.loc 1 170 0
 594 022a 0446     		mov	r4, r0
 595 022c 0E46     		mov	r6, r1
 596 022e 1746     		mov	r7, r2
 597 0230 9846     		mov	r8, r3
 171:../../source/src/user/OS_CORE/schedule/os_schedule.c **** 	CPU_SR_ALLOC();
 172:../../source/src/user/OS_CORE/schedule/os_schedule.c **** 	CPU_CRITICAL_ENTER();
 598              		.loc 1 172 0
 599 0232 FFF7FEFF 		bl	CPU_SR_Save
 600              	.LVL63:
 173:../../source/src/user/OS_CORE/schedule/os_schedule.c **** 	if (g_interrupt_count > 0)
 601              		.loc 1 173 0
 602 0236 184D     		ldr	r5, .L76
 172:../../source/src/user/OS_CORE/schedule/os_schedule.c **** 	if (g_interrupt_count > 0)
 603              		.loc 1 172 0
 604 0238 8146     		mov	r9, r0
 605              	.LVL64:
 606              		.loc 1 173 0
 607 023a 2D68     		ldr	r5, [r5]
 608 023c 002D     		cmp	r5, #0
 609 023e 20DC     		bgt	.L73
 174:../../source/src/user/OS_CORE/schedule/os_schedule.c **** 	{
 175:../../source/src/user/OS_CORE/schedule/os_schedule.c **** 		CPU_CRITICAL_EXIT();
 176:../../source/src/user/OS_CORE/schedule/os_schedule.c **** 		return -ERROR_FUN_USE_IN_INTER;
 177:../../source/src/user/OS_CORE/schedule/os_schedule.c **** 	}
 178:../../source/src/user/OS_CORE/schedule/os_schedule.c **** 	int ret;
 179:../../source/src/user/OS_CORE/schedule/os_schedule.c **** 	if(0 != task_init(TCB_ptr,stack_size,prio,timeslice_hope_time,name,function,para,STATE_READY))
 610              		.loc 1 179 0
 611 0240 0120     		movs	r0, #1
 612              	.LVL65:
 613 0242 0E9B     		ldr	r3, [sp, #56]
 614 0244 0390     		str	r0, [sp, #12]
 615 0246 0293     		str	r3, [sp, #8]
 616 0248 0D9B     		ldr	r3, [sp, #52]
 617 024a 3A46     		mov	r2, r7
 618 024c 0193     		str	r3, [sp, #4]
 619 024e 0C9B     		ldr	r3, [sp, #48]
 620 0250 3146     		mov	r1, r6
 621 0252 0093     		str	r3, [sp]
 622 0254 2046     		mov	r0, r4
 623 0256 4346     		mov	r3, r8
 624 0258 FFF7FEFF 		bl	task_init
 625              	.LVL66:
 626 025c B0B9     		cbnz	r0, .L74
 180:../../source/src/user/OS_CORE/schedule/os_schedule.c **** 	{
 181:../../source/src/user/OS_CORE/schedule/os_schedule.c **** 		CPU_CRITICAL_EXIT();
 182:../../source/src/user/OS_CORE/schedule/os_schedule.c **** 		return -ERROR_TASK_CREATE;
ARM GAS  G:\Users\Jaxb\AppData\Local\Temp\cc9mxqkM.s 			page 16


 183:../../source/src/user/OS_CORE/schedule/os_schedule.c **** 	}
 184:../../source/src/user/OS_CORE/schedule/os_schedule.c **** 	ret = insert_ready_TCB(TCB_ptr);
 627              		.loc 1 184 0
 628 025e 2046     		mov	r0, r4
 629 0260 FFF7FEFF 		bl	insert_ready_TCB
 630              	.LVL67:
 185:../../source/src/user/OS_CORE/schedule/os_schedule.c **** 	if(0 != ret)
 631              		.loc 1 185 0
 632 0264 0446     		mov	r4, r0
 633              	.LVL68:
 634 0266 10B9     		cbnz	r0, .L72
 635              	.LBB22:
 636              	.LBB23:
  26:../../source/src/user/OS_CORE/schedule/os_schedule.c **** 		return ;
 637              		.loc 1 26 0
 638 0268 0C4B     		ldr	r3, .L76+4
 639 026a 1B68     		ldr	r3, [r3]
 640 026c 33B1     		cbz	r3, .L75
 641              	.LVL69:
 642              	.L72:
 643              	.LBE23:
 644              	.LBE22:
 186:../../source/src/user/OS_CORE/schedule/os_schedule.c **** 	{
 187:../../source/src/user/OS_CORE/schedule/os_schedule.c **** 		CPU_CRITICAL_EXIT();
 188:../../source/src/user/OS_CORE/schedule/os_schedule.c **** 		return ret;
 189:../../source/src/user/OS_CORE/schedule/os_schedule.c **** 	}
 190:../../source/src/user/OS_CORE/schedule/os_schedule.c **** 	schedule();
 191:../../source/src/user/OS_CORE/schedule/os_schedule.c **** 	CPU_CRITICAL_EXIT();
 645              		.loc 1 191 0
 646 026e 4846     		mov	r0, r9
 647 0270 FFF7FEFF 		bl	CPU_SR_Restore
 648              	.LVL70:
 649              	.L67:
 192:../../source/src/user/OS_CORE/schedule/os_schedule.c **** 	return FUN_EXECUTE_SUCCESSFULLY;
 193:../../source/src/user/OS_CORE/schedule/os_schedule.c **** }
 650              		.loc 1 193 0
 651 0274 2046     		mov	r0, r4
 652 0276 05B0     		add	sp, sp, #20
 653              	.LCFI12:
 654              		.cfi_remember_state
 655              		.cfi_def_cfa_offset 28
 656              		@ sp needed
 657 0278 BDE8F083 		pop	{r4, r5, r6, r7, r8, r9, pc}
 658              	.LVL71:
 659              	.L75:
 660              	.LCFI13:
 661              		.cfi_restore_state
 662              	.LBB25:
 663              	.LBB24:
 664 027c FFF7C0FE 		bl	schedule.part.0
 665              	.LVL72:
 666 0280 F5E7     		b	.L72
 667              	.LVL73:
 668              	.L73:
 669              	.LBE24:
 670              	.LBE25:
 175:../../source/src/user/OS_CORE/schedule/os_schedule.c **** 		return -ERROR_FUN_USE_IN_INTER;
ARM GAS  G:\Users\Jaxb\AppData\Local\Temp\cc9mxqkM.s 			page 17


 671              		.loc 1 175 0
 672 0282 FFF7FEFF 		bl	CPU_SR_Restore
 673              	.LVL74:
 176:../../source/src/user/OS_CORE/schedule/os_schedule.c **** 	}
 674              		.loc 1 176 0
 675 0286 6FF0FC04 		mvn	r4, #252
 676              	.LVL75:
 677 028a F3E7     		b	.L67
 678              	.LVL76:
 679              	.L74:
 181:../../source/src/user/OS_CORE/schedule/os_schedule.c **** 		return -ERROR_TASK_CREATE;
 680              		.loc 1 181 0
 681 028c 4846     		mov	r0, r9
 682 028e FFF7FEFF 		bl	CPU_SR_Restore
 683              	.LVL77:
 182:../../source/src/user/OS_CORE/schedule/os_schedule.c **** 	}
 684              		.loc 1 182 0
 685 0292 4FF0FF34 		mov	r4, #-1
 686              	.LVL78:
 687 0296 EDE7     		b	.L67
 688              	.L77:
 689              		.align	2
 690              	.L76:
 691 0298 00000000 		.word	g_interrupt_count
 692 029c 00000000 		.word	.LANCHOR0
 693              		.cfi_endproc
 694              	.LFE16:
 695              		.size	task_init_ready, .-task_init_ready
 696              		.align	1
 697              		.p2align 2,,3
 698              		.global	sys_schedule_lock
 699              		.syntax unified
 700              		.thumb
 701              		.thumb_func
 702              		.fpu softvfp
 703              		.type	sys_schedule_lock, %function
 704              	sys_schedule_lock:
 705              	.LFB17:
 194:../../source/src/user/OS_CORE/schedule/os_schedule.c **** 
 195:../../source/src/user/OS_CORE/schedule/os_schedule.c **** inline void sys_schedule_lock(void)
 196:../../source/src/user/OS_CORE/schedule/os_schedule.c **** {
 706              		.loc 1 196 0
 707              		.cfi_startproc
 708              		@ args = 0, pretend = 0, frame = 0
 709              		@ frame_needed = 0, uses_anonymous_args = 0
 710              		@ link register save eliminated.
 197:../../source/src/user/OS_CORE/schedule/os_schedule.c **** 	++g_schedule_lock;
 711              		.loc 1 197 0
 712 02a0 024A     		ldr	r2, .L79
 713 02a2 1368     		ldr	r3, [r2]
 714 02a4 0133     		adds	r3, r3, #1
 715 02a6 1360     		str	r3, [r2]
 198:../../source/src/user/OS_CORE/schedule/os_schedule.c **** }
 716              		.loc 1 198 0
 717 02a8 7047     		bx	lr
 718              	.L80:
 719 02aa 00BF     		.align	2
ARM GAS  G:\Users\Jaxb\AppData\Local\Temp\cc9mxqkM.s 			page 18


 720              	.L79:
 721 02ac 00000000 		.word	.LANCHOR0
 722              		.cfi_endproc
 723              	.LFE17:
 724              		.size	sys_schedule_lock, .-sys_schedule_lock
 725              		.align	1
 726              		.p2align 2,,3
 727              		.global	sys_schedule_unlock
 728              		.syntax unified
 729              		.thumb
 730              		.thumb_func
 731              		.fpu softvfp
 732              		.type	sys_schedule_unlock, %function
 733              	sys_schedule_unlock:
 734              	.LFB18:
 199:../../source/src/user/OS_CORE/schedule/os_schedule.c **** 
 200:../../source/src/user/OS_CORE/schedule/os_schedule.c **** inline void sys_schedule_unlock(void)
 201:../../source/src/user/OS_CORE/schedule/os_schedule.c **** {
 735              		.loc 1 201 0
 736              		.cfi_startproc
 737              		@ args = 0, pretend = 0, frame = 0
 738              		@ frame_needed = 0, uses_anonymous_args = 0
 739              		@ link register save eliminated.
 202:../../source/src/user/OS_CORE/schedule/os_schedule.c **** 	--g_schedule_lock;
 740              		.loc 1 202 0
 741 02b0 024A     		ldr	r2, .L82
 742 02b2 1368     		ldr	r3, [r2]
 743 02b4 013B     		subs	r3, r3, #1
 744 02b6 1360     		str	r3, [r2]
 203:../../source/src/user/OS_CORE/schedule/os_schedule.c **** }
 745              		.loc 1 203 0
 746 02b8 7047     		bx	lr
 747              	.L83:
 748 02ba 00BF     		.align	2
 749              	.L82:
 750 02bc 00000000 		.word	.LANCHOR0
 751              		.cfi_endproc
 752              	.LFE18:
 753              		.size	sys_schedule_unlock, .-sys_schedule_unlock
 754              		.align	1
 755              		.p2align 2,,3
 756              		.global	sys_schedule_islock
 757              		.syntax unified
 758              		.thumb
 759              		.thumb_func
 760              		.fpu softvfp
 761              		.type	sys_schedule_islock, %function
 762              	sys_schedule_islock:
 763              	.LFB19:
 204:../../source/src/user/OS_CORE/schedule/os_schedule.c **** 
 205:../../source/src/user/OS_CORE/schedule/os_schedule.c **** inline int sys_schedule_islock(void)
 206:../../source/src/user/OS_CORE/schedule/os_schedule.c **** {
 764              		.loc 1 206 0
 765              		.cfi_startproc
 766              		@ args = 0, pretend = 0, frame = 0
 767              		@ frame_needed = 0, uses_anonymous_args = 0
 768              		@ link register save eliminated.
ARM GAS  G:\Users\Jaxb\AppData\Local\Temp\cc9mxqkM.s 			page 19


 207:../../source/src/user/OS_CORE/schedule/os_schedule.c **** 	return (0 != g_schedule_lock);
 769              		.loc 1 207 0
 770 02c0 024B     		ldr	r3, .L85
 771 02c2 1868     		ldr	r0, [r3]
 208:../../source/src/user/OS_CORE/schedule/os_schedule.c **** }
 772              		.loc 1 208 0
 773 02c4 0030     		adds	r0, r0, #0
 774 02c6 18BF     		it	ne
 775 02c8 0120     		movne	r0, #1
 776 02ca 7047     		bx	lr
 777              	.L86:
 778              		.align	2
 779              	.L85:
 780 02cc 00000000 		.word	.LANCHOR0
 781              		.cfi_endproc
 782              	.LFE19:
 783              		.size	sys_schedule_islock, .-sys_schedule_islock
 784              		.global	g_schedule_lock
 785              		.bss
 786              		.align	2
 787              		.set	.LANCHOR0,. + 0
 788              		.type	g_schedule_lock, %object
 789              		.size	g_schedule_lock, 4
 790              	g_schedule_lock:
 791 0000 00000000 		.space	4
 792              		.section	.rodata.str1.4,"aMS",%progbits,1
 793              		.align	2
 794              	.LC0:
 795 0000 2E2E2F2E 		.ascii	"../../source/src/user/OS_CORE/schedule/os_schedule."
 795      2E2F736F 
 795      75726365 
 795      2F737263 
 795      2F757365 
 796 0033 6300     		.ascii	"c\000"
 797 0035 000000   		.space	3
 798              	.LC1:
 799 0038 6572726F 		.ascii	"error fun name : sys_delay\012error para : delay_ti"
 799      72206675 
 799      6E206E61 
 799      6D65203A 
 799      20737973 
 800 0068 636B735F 		.ascii	"cks_num\012\000"
 800      6E756D0A 
 800      00
 801 0071 000000   		.space	3
 802              	.LC2:
 803 0074 6572726F 		.ascii	"error fun name : sys_delay\012error para : state\012"
 803      72206675 
 803      6E206E61 
 803      6D65203A 
 803      20737973 
 804 00a2 00       		.ascii	"\000"
 805              		.text
 806              	.Letext0:
 807              		.file 2 "../../source/include/os_core/task_state.h"
 808              		.file 3 "../../source/include/os_cpu/kakaosstdint.h"
 809              		.file 4 "../../source/include/os_lib/double_linked_list.h"
ARM GAS  G:\Users\Jaxb\AppData\Local\Temp\cc9mxqkM.s 			page 20


 810              		.file 5 "../../source/include/os_core/TCB.h"
 811              		.file 6 "../../source/include/os_cpu/os_cpu_stm32.h"
 812              		.file 7 "../../source/include/os_core/schedule/os_ready.h"
 813              		.file 8 "../../source/include/os_lib/myassert.h"
 814              		.file 9 "../../source/include/os_lib/myMicroLIB.h"
 815              		.file 10 "../../source/include/os_core/schedule/os_suspend.h"
 816              		.file 11 "../../source/include/os_core/schedule/os_delay.h"
 817              		.file 12 "../../source/include/os_core/os_time.h"