ARM GAS  G:\Users\Jaxb\AppData\Local\Temp\ccEqowR1.s 			page 1


   1              		.cpu cortex-m3
   2              		.eabi_attribute 20, 1
   3              		.eabi_attribute 21, 1
   4              		.eabi_attribute 23, 3
   5              		.eabi_attribute 24, 1
   6              		.eabi_attribute 25, 1
   7              		.eabi_attribute 26, 1
   8              		.eabi_attribute 30, 2
   9              		.eabi_attribute 34, 1
  10              		.eabi_attribute 18, 4
  11              		.file	"os_tick.c"
  12              		.text
  13              	.Ltext0:
  14              		.cfi_sections	.debug_frame
  15              		.align	1
  16              		.p2align 2,,3
  17              		.global	timer_task_check
  18              		.syntax unified
  19              		.thumb
  20              		.thumb_func
  21              		.fpu softvfp
  22              		.type	timer_task_check, %function
  23              	timer_task_check:
  24              	.LFB14:
  25              		.file 1 "../../source/src/user/OS_CORE/schedule/os_tick.c"
   1:../../source/src/user/OS_CORE/schedule/os_tick.c **** #include <osinit.h>
   2:../../source/src/user/OS_CORE/schedule/os_tick.c **** #include <ka_configuration.h>
   3:../../source/src/user/OS_CORE/schedule/os_tick.c **** #include <kakaosstdint.h>
   4:../../source/src/user/OS_CORE/schedule/os_tick.c **** #include <TCB.h>
   5:../../source/src/user/OS_CORE/schedule/os_tick.c **** #include <os_delay.h>
   6:../../source/src/user/OS_CORE/schedule/os_tick.c **** #include <os_ready.h>
   7:../../source/src/user/OS_CORE/schedule/os_tick.c **** #include <os_TCB_list.h>
   8:../../source/src/user/OS_CORE/schedule/os_tick.c **** #include <myassert.h>
   9:../../source/src/user/OS_CORE/schedule/os_tick.c **** #include <double_linked_list.h>
  10:../../source/src/user/OS_CORE/schedule/os_tick.c **** #include <os_time.h>
  11:../../source/src/user/OS_CORE/schedule/os_tick.c **** #include <os_schedule.h>
  12:../../source/src/user/OS_CORE/schedule/os_tick.c **** #include <os_timer.h>
  13:../../source/src/user/OS_CORE/schedule/os_tick.c **** #include <os_suspend.h>
  14:../../source/src/user/OS_CORE/schedule/os_tick.c **** 
  15:../../source/src/user/OS_CORE/schedule/os_tick.c **** #if CONFIG_CPU_USE_RATE_CALCULATION
  16:../../source/src/user/OS_CORE/schedule/os_tick.c **** 	static unsigned int use_rate = 0;
  17:../../source/src/user/OS_CORE/schedule/os_tick.c **** 	extern UINT64 idle_num;
  18:../../source/src/user/OS_CORE/schedule/os_tick.c **** 	extern UINT64 count_max_num;
  19:../../source/src/user/OS_CORE/schedule/os_tick.c **** #endif
  20:../../source/src/user/OS_CORE/schedule/os_tick.c **** 
  21:../../source/src/user/OS_CORE/schedule/os_tick.c **** extern volatile TCB *OSTCBCurPtr;
  22:../../source/src/user/OS_CORE/schedule/os_tick.c **** extern volatile TCB *OSTCBHighRdyPtr;
  23:../../source/src/user/OS_CORE/schedule/os_tick.c **** 
  24:../../source/src/user/OS_CORE/schedule/os_tick.c **** #if CONFIG_TIMER_EN
  25:../../source/src/user/OS_CORE/schedule/os_tick.c **** 	extern TCB TCB_timer_task;
  26:../../source/src/user/OS_CORE/schedule/os_tick.c **** #endif
  27:../../source/src/user/OS_CORE/schedule/os_tick.c **** 
  28:../../source/src/user/OS_CORE/schedule/os_tick.c **** 
  29:../../source/src/user/OS_CORE/schedule/os_tick.c **** extern volatile UINT64 g_time_tick_count;	
  30:../../source/src/user/OS_CORE/schedule/os_tick.c **** 
  31:../../source/src/user/OS_CORE/schedule/os_tick.c **** /**
  32:../../source/src/user/OS_CORE/schedule/os_tick.c ****  * This is a system function
ARM GAS  G:\Users\Jaxb\AppData\Local\Temp\ccEqowR1.s 			page 2


  33:../../source/src/user/OS_CORE/schedule/os_tick.c ****  * @Author   kaka
  34:../../source/src/user/OS_CORE/schedule/os_tick.c ****  * @param    none
  35:../../source/src/user/OS_CORE/schedule/os_tick.c ****  * @DateTime 2018-09-24
  36:../../source/src/user/OS_CORE/schedule/os_tick.c ****  * @description : change the infomation about time
  37:../../source/src/user/OS_CORE/schedule/os_tick.c ****  */
  38:../../source/src/user/OS_CORE/schedule/os_tick.c **** inline static void tick_time_handler(void)
  39:../../source/src/user/OS_CORE/schedule/os_tick.c **** {
  40:../../source/src/user/OS_CORE/schedule/os_tick.c **** #if CONFIG_TIME_EN
  41:../../source/src/user/OS_CORE/schedule/os_tick.c **** 	static volatile int time_flag = 0;
  42:../../source/src/user/OS_CORE/schedule/os_tick.c **** 	time_flag++;
  43:../../source/src/user/OS_CORE/schedule/os_tick.c **** #endif
  44:../../source/src/user/OS_CORE/schedule/os_tick.c **** 	++g_time_tick_count;
  45:../../source/src/user/OS_CORE/schedule/os_tick.c **** #if CONFIG_TIME_EN
  46:../../source/src/user/OS_CORE/schedule/os_tick.c **** 	if(TICK_PER_SEC == time_flag)
  47:../../source/src/user/OS_CORE/schedule/os_tick.c **** 	{
  48:../../source/src/user/OS_CORE/schedule/os_tick.c **** 		time_flag = 0;
  49:../../source/src/user/OS_CORE/schedule/os_tick.c **** 		system_time_increase();
  50:../../source/src/user/OS_CORE/schedule/os_tick.c **** #if CONFIG_CPU_USE_RATE_CALCULATION
  51:../../source/src/user/OS_CORE/schedule/os_tick.c **** 		use_rate = idle_num / (count_max_num/100);
  52:../../source/src/user/OS_CORE/schedule/os_tick.c **** 		idle_num = 0;
  53:../../source/src/user/OS_CORE/schedule/os_tick.c **** #endif		
  54:../../source/src/user/OS_CORE/schedule/os_tick.c **** 	}
  55:../../source/src/user/OS_CORE/schedule/os_tick.c **** #endif
  56:../../source/src/user/OS_CORE/schedule/os_tick.c **** }
  57:../../source/src/user/OS_CORE/schedule/os_tick.c **** 
  58:../../source/src/user/OS_CORE/schedule/os_tick.c **** #if CONFIG_CPU_USE_RATE_CALCULATION
  59:../../source/src/user/OS_CORE/schedule/os_tick.c **** unsigned int get_cpu_use_rate(void)
  60:../../source/src/user/OS_CORE/schedule/os_tick.c **** {
  61:../../source/src/user/OS_CORE/schedule/os_tick.c **** 	return use_rate;
  62:../../source/src/user/OS_CORE/schedule/os_tick.c **** }
  63:../../source/src/user/OS_CORE/schedule/os_tick.c **** #endif	
  64:../../source/src/user/OS_CORE/schedule/os_tick.c **** 
  65:../../source/src/user/OS_CORE/schedule/os_tick.c **** /**
  66:../../source/src/user/OS_CORE/schedule/os_tick.c ****  * This is a system function
  67:../../source/src/user/OS_CORE/schedule/os_tick.c ****  * @Author   kaka
  68:../../source/src/user/OS_CORE/schedule/os_tick.c ****  * @param    miaosu
  69:../../source/src/user/OS_CORE/schedule/os_tick.c ****  * @DateTime 2018-09-24
  70:../../source/src/user/OS_CORE/schedule/os_tick.c ****  * @description : check if there is a task reach the delay time
  71:../../source/src/user/OS_CORE/schedule/os_tick.c ****  */
  72:../../source/src/user/OS_CORE/schedule/os_tick.c **** static void delay_task_check(void)
  73:../../source/src/user/OS_CORE/schedule/os_tick.c **** {
  74:../../source/src/user/OS_CORE/schedule/os_tick.c **** 	TCB *TCB_ptr = delay_heap_get_top_TCB();
  75:../../source/src/user/OS_CORE/schedule/os_tick.c **** 	while(NULL != TCB_ptr)
  76:../../source/src/user/OS_CORE/schedule/os_tick.c **** 	{
  77:../../source/src/user/OS_CORE/schedule/os_tick.c **** 		if(TCB_ptr->delay_reach_time == g_time_tick_count)
  78:../../source/src/user/OS_CORE/schedule/os_tick.c **** 		{
  79:../../source/src/user/OS_CORE/schedule/os_tick.c **** 			delay_heap_remove_top_TCB();
  80:../../source/src/user/OS_CORE/schedule/os_tick.c **** 			insert_ready_TCB(TCB_ptr);
  81:../../source/src/user/OS_CORE/schedule/os_tick.c **** 			TCB_ptr = delay_heap_get_top_TCB();
  82:../../source/src/user/OS_CORE/schedule/os_tick.c **** 			set_rescheduled_flag();
  83:../../source/src/user/OS_CORE/schedule/os_tick.c **** 			continue ;
  84:../../source/src/user/OS_CORE/schedule/os_tick.c **** 		}
  85:../../source/src/user/OS_CORE/schedule/os_tick.c **** 		else
  86:../../source/src/user/OS_CORE/schedule/os_tick.c **** 		{
  87:../../source/src/user/OS_CORE/schedule/os_tick.c **** 			break ;
  88:../../source/src/user/OS_CORE/schedule/os_tick.c **** 		}
  89:../../source/src/user/OS_CORE/schedule/os_tick.c **** 	}
ARM GAS  G:\Users\Jaxb\AppData\Local\Temp\ccEqowR1.s 			page 3


  90:../../source/src/user/OS_CORE/schedule/os_tick.c **** }
  91:../../source/src/user/OS_CORE/schedule/os_tick.c **** 
  92:../../source/src/user/OS_CORE/schedule/os_tick.c **** #if CONFIG_TIMER_EN
  93:../../source/src/user/OS_CORE/schedule/os_tick.c **** void timer_task_check(void)
  94:../../source/src/user/OS_CORE/schedule/os_tick.c **** {
  26              		.loc 1 94 0
  27              		.cfi_startproc
  28              		@ args = 0, pretend = 0, frame = 8
  29              		@ frame_needed = 0, uses_anonymous_args = 0
  30 0000 2DE90048 		push	{fp, lr}
  31              	.LCFI0:
  32              		.cfi_def_cfa_offset 8
  33              		.cfi_offset 11, -8
  34              		.cfi_offset 14, -4
  35 0004 82B0     		sub	sp, sp, #8
  36              	.LCFI1:
  37              		.cfi_def_cfa_offset 16
  95:../../source/src/user/OS_CORE/schedule/os_tick.c **** 	struct timer *timer_ptr;
  96:../../source/src/user/OS_CORE/schedule/os_tick.c **** 	if(get_timer_heap_top(&timer_ptr) < 0)
  38              		.loc 1 96 0
  39 0006 01A8     		add	r0, sp, #4
  40 0008 FFF7FEFF 		bl	get_timer_heap_top
  41              	.LVL0:
  42 000c 0028     		cmp	r0, #0
  43 000e 02DA     		bge	.L5
  44              	.L1:
  97:../../source/src/user/OS_CORE/schedule/os_tick.c **** 	{
  98:../../source/src/user/OS_CORE/schedule/os_tick.c **** 		return ;
  99:../../source/src/user/OS_CORE/schedule/os_tick.c **** 	}
 100:../../source/src/user/OS_CORE/schedule/os_tick.c **** 	if(TIME_FIRST_SMALLER_THAN_SECOND(get_tick(),timer_ptr->wake_time))
 101:../../source/src/user/OS_CORE/schedule/os_tick.c **** 	{
 102:../../source/src/user/OS_CORE/schedule/os_tick.c **** 		return;
 103:../../source/src/user/OS_CORE/schedule/os_tick.c **** 	}
 104:../../source/src/user/OS_CORE/schedule/os_tick.c **** 	else
 105:../../source/src/user/OS_CORE/schedule/os_tick.c **** 	{
 106:../../source/src/user/OS_CORE/schedule/os_tick.c **** 		remove_from_suspend_list(&TCB_timer_task);
 107:../../source/src/user/OS_CORE/schedule/os_tick.c **** 		set_rescheduled_flag();
 108:../../source/src/user/OS_CORE/schedule/os_tick.c **** 	}
 109:../../source/src/user/OS_CORE/schedule/os_tick.c **** }
  45              		.loc 1 109 0
  46 0010 02B0     		add	sp, sp, #8
  47              	.LCFI2:
  48              		.cfi_remember_state
  49              		.cfi_def_cfa_offset 8
  50              		@ sp needed
  51 0012 BDE80088 		pop	{fp, pc}
  52              	.L5:
  53              	.LCFI3:
  54              		.cfi_restore_state
 100:../../source/src/user/OS_CORE/schedule/os_tick.c **** 	{
  55              		.loc 1 100 0
  56 0016 FFF7FEFF 		bl	get_tick
  57              	.LVL1:
  58 001a 019B     		ldr	r3, [sp, #4]
  59 001c D3E90823 		ldrd	r2, [r3, #32]
  60 0020 821A     		subs	r2, r0, r2
  61 0022 61EB0303 		sbc	r3, r1, r3
ARM GAS  G:\Users\Jaxb\AppData\Local\Temp\ccEqowR1.s 			page 4


  62 0026 9C46     		mov	ip, r3
  63 0028 002A     		cmp	r2, #0
  64 002a 7CF10003 		sbcs	r3, ip, #0
  65 002e EFDB     		blt	.L1
  66              	.LBB17:
  67              	.LBB18:
 106:../../source/src/user/OS_CORE/schedule/os_tick.c **** 		set_rescheduled_flag();
  68              		.loc 1 106 0
  69 0030 0548     		ldr	r0, .L6
  70 0032 FFF7FEFF 		bl	remove_from_suspend_list
  71              	.LVL2:
 107:../../source/src/user/OS_CORE/schedule/os_tick.c **** 	}
  72              		.loc 1 107 0
  73 0036 054B     		ldr	r3, .L6+4
  74 0038 1A68     		ldr	r2, [r3]
  75 003a 936B     		ldr	r3, [r2, #56]
  76 003c 43F00403 		orr	r3, r3, #4
  77 0040 9363     		str	r3, [r2, #56]
  78              	.LVL3:
  79              	.LBE18:
  80              	.LBE17:
  81              		.loc 1 109 0
  82 0042 02B0     		add	sp, sp, #8
  83              	.LCFI4:
  84              		.cfi_def_cfa_offset 8
  85              		@ sp needed
  86 0044 BDE80088 		pop	{fp, pc}
  87              	.L7:
  88              		.align	2
  89              	.L6:
  90 0048 00000000 		.word	TCB_timer_task
  91 004c 00000000 		.word	OSTCBCurPtr
  92              		.cfi_endproc
  93              	.LFE14:
  94              		.size	timer_task_check, .-timer_task_check
  95              		.align	1
  96              		.p2align 2,,3
  97              		.global	OS_CPU_SysTickHandler
  98              		.syntax unified
  99              		.thumb
 100              		.thumb_func
 101              		.fpu softvfp
 102              		.type	OS_CPU_SysTickHandler, %function
 103              	OS_CPU_SysTickHandler:
 104              	.LFB16:
 110:../../source/src/user/OS_CORE/schedule/os_tick.c **** #endif
 111:../../source/src/user/OS_CORE/schedule/os_tick.c **** 
 112:../../source/src/user/OS_CORE/schedule/os_tick.c **** /**
 113:../../source/src/user/OS_CORE/schedule/os_tick.c ****  * This is a system function
 114:../../source/src/user/OS_CORE/schedule/os_tick.c ****  * @Author      kaka
 115:../../source/src/user/OS_CORE/schedule/os_tick.c ****  * @param       void
 116:../../source/src/user/OS_CORE/schedule/os_tick.c ****  * @DateTime    2018-09-24
 117:../../source/src/user/OS_CORE/schedule/os_tick.c ****  * @description : used for counting time slice
 118:../../source/src/user/OS_CORE/schedule/os_tick.c ****  */
 119:../../source/src/user/OS_CORE/schedule/os_tick.c **** static void run_task_handler(void)
 120:../../source/src/user/OS_CORE/schedule/os_tick.c **** {
 121:../../source/src/user/OS_CORE/schedule/os_tick.c **** 	TCB *TCB_ptr = (TCB *)OSTCBCurPtr;
ARM GAS  G:\Users\Jaxb\AppData\Local\Temp\ccEqowR1.s 			page 5


 122:../../source/src/user/OS_CORE/schedule/os_tick.c **** 	if(--(TCB_ptr->timeslice_rest_time))
 123:../../source/src/user/OS_CORE/schedule/os_tick.c **** 	{
 124:../../source/src/user/OS_CORE/schedule/os_tick.c **** 		return ;
 125:../../source/src/user/OS_CORE/schedule/os_tick.c **** 	}
 126:../../source/src/user/OS_CORE/schedule/os_tick.c **** 	TCB_ptr->timeslice_rest_time = TCB_ptr->timeslice_hope_time;
 127:../../source/src/user/OS_CORE/schedule/os_tick.c **** 	if(1 == get_ready_num_from_TCB_list(TCB_ptr->prio))
 128:../../source/src/user/OS_CORE/schedule/os_tick.c **** 	{
 129:../../source/src/user/OS_CORE/schedule/os_tick.c **** 		return ;
 130:../../source/src/user/OS_CORE/schedule/os_tick.c **** 	}
 131:../../source/src/user/OS_CORE/schedule/os_tick.c **** 	else
 132:../../source/src/user/OS_CORE/schedule/os_tick.c **** 	{
 133:../../source/src/user/OS_CORE/schedule/os_tick.c **** 		struct list_head *head;
 134:../../source/src/user/OS_CORE/schedule/os_tick.c **** 		head = get_from_TCB_list(TCB_ptr->prio);
 135:../../source/src/user/OS_CORE/schedule/os_tick.c **** 		list_del(&TCB_ptr->same_prio_list);
 136:../../source/src/user/OS_CORE/schedule/os_tick.c **** 		list_add_tail(&TCB_ptr->same_prio_list,head);
 137:../../source/src/user/OS_CORE/schedule/os_tick.c **** 		set_rescheduled_flag();
 138:../../source/src/user/OS_CORE/schedule/os_tick.c **** 	}
 139:../../source/src/user/OS_CORE/schedule/os_tick.c **** }
 140:../../source/src/user/OS_CORE/schedule/os_tick.c **** 
 141:../../source/src/user/OS_CORE/schedule/os_tick.c **** /**
 142:../../source/src/user/OS_CORE/schedule/os_tick.c ****  * This is a system function
 143:../../source/src/user/OS_CORE/schedule/os_tick.c ****  * @Author   kaka
 144:../../source/src/user/OS_CORE/schedule/os_tick.c ****  * @param    none
 145:../../source/src/user/OS_CORE/schedule/os_tick.c ****  * @DateTime 2018-09-23
 146:../../source/src/user/OS_CORE/schedule/os_tick.c ****  * @return   [none]
 147:../../source/src/user/OS_CORE/schedule/os_tick.c ****  */
 148:../../source/src/user/OS_CORE/schedule/os_tick.c **** void  OS_CPU_SysTickHandler(void)
 149:../../source/src/user/OS_CORE/schedule/os_tick.c **** {
 105              		.loc 1 149 0
 106              		.cfi_startproc
 107              		@ args = 0, pretend = 0, frame = 0
 108              		@ frame_needed = 0, uses_anonymous_args = 0
 109 0050 F8B5     		push	{r3, r4, r5, r6, r7, lr}
 110              	.LCFI5:
 111              		.cfi_def_cfa_offset 24
 112              		.cfi_offset 3, -24
 113              		.cfi_offset 4, -20
 114              		.cfi_offset 5, -16
 115              		.cfi_offset 6, -12
 116              		.cfi_offset 7, -8
 117              		.cfi_offset 14, -4
 150:../../source/src/user/OS_CORE/schedule/os_tick.c **** 	SYS_ENTER_INTERRUPT();
 118              		.loc 1 150 0
 119 0052 3D4D     		ldr	r5, .L27
 120              	.LBB34:
 121              	.LBB35:
  42:../../source/src/user/OS_CORE/schedule/os_tick.c **** #endif
 122              		.loc 1 42 0
 123 0054 3D4B     		ldr	r3, .L27+4
 124              	.LBE35:
 125              	.LBE34:
 126              		.loc 1 150 0
 127 0056 2A68     		ldr	r2, [r5]
 128              	.LBB39:
 129              	.LBB36:
  44:../../source/src/user/OS_CORE/schedule/os_tick.c **** #if CONFIG_TIME_EN
 130              		.loc 1 44 0
ARM GAS  G:\Users\Jaxb\AppData\Local\Temp\ccEqowR1.s 			page 6


 131 0058 3D4C     		ldr	r4, .L27+8
 132              	.LBE36:
 133              	.LBE39:
 134              		.loc 1 150 0
 135 005a 0132     		adds	r2, r2, #1
 136 005c 2A60     		str	r2, [r5]
 137              	.LBB40:
 138              	.LBB37:
  42:../../source/src/user/OS_CORE/schedule/os_tick.c **** #endif
 139              		.loc 1 42 0
 140 005e 1A68     		ldr	r2, [r3]
 141 0060 0132     		adds	r2, r2, #1
 142 0062 1A60     		str	r2, [r3]
  44:../../source/src/user/OS_CORE/schedule/os_tick.c **** #if CONFIG_TIME_EN
 143              		.loc 1 44 0
 144 0064 D4E90067 		ldrd	r6, [r4]
 145 0068 701C     		adds	r0, r6, #1
 146 006a 47F10001 		adc	r1, r7, #0
 147 006e C4E90001 		strd	r0, [r4]
  46:../../source/src/user/OS_CORE/schedule/os_tick.c **** 	{
 148              		.loc 1 46 0
 149 0072 1A68     		ldr	r2, [r3]
 150 0074 642A     		cmp	r2, #100
 151 0076 46D0     		beq	.L23
 152              	.L9:
 153              	.LBE37:
 154              	.LBE40:
 155              	.LBB41:
 156              	.LBB42:
  74:../../source/src/user/OS_CORE/schedule/os_tick.c **** 	while(NULL != TCB_ptr)
 157              		.loc 1 74 0
 158 0078 FFF7FEFF 		bl	delay_heap_get_top_TCB
 159              	.LVL4:
  75:../../source/src/user/OS_CORE/schedule/os_tick.c **** 	{
 160              		.loc 1 75 0
 161 007c 0646     		mov	r6, r0
 162 007e 38B1     		cbz	r0, .L22
  77:../../source/src/user/OS_CORE/schedule/os_tick.c **** 		{
 163              		.loc 1 77 0
 164 0080 D4E90001 		ldrd	r0, [r4]
 165              	.LVL5:
 166 0084 D6E91023 		ldrd	r2, [r6, #64]
 167 0088 8B42     		cmp	r3, r1
 168 008a 08BF     		it	eq
 169 008c 8242     		cmpeq	r2, r0
 170 008e 41D0     		beq	.L20
 171              	.L22:
 172 0090 304F     		ldr	r7, .L27+12
 173              	.L14:
 174              	.LVL6:
 175              	.LBE42:
 176              	.LBE41:
 151:../../source/src/user/OS_CORE/schedule/os_tick.c **** 	tick_time_handler();
 152:../../source/src/user/OS_CORE/schedule/os_tick.c **** 	delay_task_check();
 153:../../source/src/user/OS_CORE/schedule/os_tick.c **** #if CONFIG_TIMER_EN
 154:../../source/src/user/OS_CORE/schedule/os_tick.c **** 	timer_task_check();
 177              		.loc 1 154 0
ARM GAS  G:\Users\Jaxb\AppData\Local\Temp\ccEqowR1.s 			page 7


 178 0092 FFF7FEFF 		bl	timer_task_check
 179              	.LVL7:
 180              	.LBB44:
 181              	.LBB45:
 121:../../source/src/user/OS_CORE/schedule/os_tick.c **** 	if(--(TCB_ptr->timeslice_rest_time))
 182              		.loc 1 121 0
 183 0096 3C68     		ldr	r4, [r7]
 184              	.LVL8:
 122:../../source/src/user/OS_CORE/schedule/os_tick.c **** 	{
 185              		.loc 1 122 0
 186 0098 636B     		ldr	r3, [r4, #52]
 187 009a 013B     		subs	r3, r3, #1
 188 009c 6363     		str	r3, [r4, #52]
 189 009e 33B1     		cbz	r3, .L24
 190              	.LVL9:
 191              	.L11:
 192              	.LBE45:
 193              	.LBE44:
 155:../../source/src/user/OS_CORE/schedule/os_tick.c **** #endif
 156:../../source/src/user/OS_CORE/schedule/os_tick.c **** 	run_task_handler();
 157:../../source/src/user/OS_CORE/schedule/os_tick.c **** 	if(need_rescheduled() && !sys_schedule_islock())
 194              		.loc 1 157 0
 195 00a0 A36B     		ldr	r3, [r4, #56]
 196 00a2 5B07     		lsls	r3, r3, #29
 197 00a4 20D4     		bmi	.L25
 198              	.L18:
 158:../../source/src/user/OS_CORE/schedule/os_tick.c **** 	{
 159:../../source/src/user/OS_CORE/schedule/os_tick.c **** 		clear_rescheduled_flag();
 160:../../source/src/user/OS_CORE/schedule/os_tick.c **** 		schedule();
 161:../../source/src/user/OS_CORE/schedule/os_tick.c **** 	}
 162:../../source/src/user/OS_CORE/schedule/os_tick.c **** 	SYS_EXIT_INTERRUPT();
 199              		.loc 1 162 0
 200 00a6 2B68     		ldr	r3, [r5]
 201 00a8 013B     		subs	r3, r3, #1
 202 00aa 2B60     		str	r3, [r5]
 163:../../source/src/user/OS_CORE/schedule/os_tick.c **** }
 203              		.loc 1 163 0
 204 00ac F8BD     		pop	{r3, r4, r5, r6, r7, pc}
 205              	.LVL10:
 206              	.L24:
 207              	.LBB66:
 208              	.LBB65:
 126:../../source/src/user/OS_CORE/schedule/os_tick.c **** 	if(1 == get_ready_num_from_TCB_list(TCB_ptr->prio))
 209              		.loc 1 126 0
 210 00ae 236B     		ldr	r3, [r4, #48]
 127:../../source/src/user/OS_CORE/schedule/os_tick.c **** 	{
 211              		.loc 1 127 0
 212 00b0 E068     		ldr	r0, [r4, #12]
 126:../../source/src/user/OS_CORE/schedule/os_tick.c **** 	if(1 == get_ready_num_from_TCB_list(TCB_ptr->prio))
 213              		.loc 1 126 0
 214 00b2 6363     		str	r3, [r4, #52]
 127:../../source/src/user/OS_CORE/schedule/os_tick.c **** 	{
 215              		.loc 1 127 0
 216 00b4 FFF7FEFF 		bl	get_ready_num_from_TCB_list
 217              	.LVL11:
 218 00b8 0128     		cmp	r0, #1
 219 00ba 29D0     		beq	.L26
ARM GAS  G:\Users\Jaxb\AppData\Local\Temp\ccEqowR1.s 			page 8


 220              	.LBB46:
 134:../../source/src/user/OS_CORE/schedule/os_tick.c **** 		list_del(&TCB_ptr->same_prio_list);
 221              		.loc 1 134 0
 222 00bc E068     		ldr	r0, [r4, #12]
 223 00be FFF7FEFF 		bl	get_from_TCB_list
 224              	.LVL12:
 225              	.LBB47:
 226              	.LBB48:
 227              		.file 2 "../../source/include/os_lib/double_linked_list.h"
   1:../../source/include/os_lib/double_linked_list.h **** #ifndef _DOUBLE_LINKED_LIST_H
   2:../../source/include/os_lib/double_linked_list.h **** #define _DOUBLE_LINKED_LIST_H
   3:../../source/include/os_lib/double_linked_list.h **** 
   4:../../source/include/os_lib/double_linked_list.h **** struct list_head {
   5:../../source/include/os_lib/double_linked_list.h ****     struct list_head *next, *prev;
   6:../../source/include/os_lib/double_linked_list.h **** };
   7:../../source/include/os_lib/double_linked_list.h **** 
   8:../../source/include/os_lib/double_linked_list.h **** 
   9:../../source/include/os_lib/double_linked_list.h **** #define LIST_HEAD_INIT(name) { &(name), &(name) }
  10:../../source/include/os_lib/double_linked_list.h **** 
  11:../../source/include/os_lib/double_linked_list.h **** 
  12:../../source/include/os_lib/double_linked_list.h **** #define LIST_HEAD(name) \
  13:../../source/include/os_lib/double_linked_list.h ****     struct list_head name = LIST_HEAD_INIT(name)
  14:../../source/include/os_lib/double_linked_list.h **** 
  15:../../source/include/os_lib/double_linked_list.h **** 
  16:../../source/include/os_lib/double_linked_list.h **** static inline void INIT_LIST_HEAD(struct list_head *list)
  17:../../source/include/os_lib/double_linked_list.h **** {
  18:../../source/include/os_lib/double_linked_list.h ****     list->next = list;
  19:../../source/include/os_lib/double_linked_list.h ****     list->prev = list;
  20:../../source/include/os_lib/double_linked_list.h **** }
  21:../../source/include/os_lib/double_linked_list.h **** 
  22:../../source/include/os_lib/double_linked_list.h **** 
  23:../../source/include/os_lib/double_linked_list.h **** static inline void __list_add(struct list_head *new,
  24:../../source/include/os_lib/double_linked_list.h ****                   struct list_head *prev,
  25:../../source/include/os_lib/double_linked_list.h ****                   struct list_head *next)
  26:../../source/include/os_lib/double_linked_list.h **** {
  27:../../source/include/os_lib/double_linked_list.h ****     next->prev = new;
  28:../../source/include/os_lib/double_linked_list.h ****     new->next = next;
  29:../../source/include/os_lib/double_linked_list.h ****     new->prev = prev;
  30:../../source/include/os_lib/double_linked_list.h ****     prev->next = new;
  31:../../source/include/os_lib/double_linked_list.h **** }
  32:../../source/include/os_lib/double_linked_list.h **** 
  33:../../source/include/os_lib/double_linked_list.h **** 
  34:../../source/include/os_lib/double_linked_list.h **** static inline void list_add(struct list_head *new, struct list_head *head)
  35:../../source/include/os_lib/double_linked_list.h **** {
  36:../../source/include/os_lib/double_linked_list.h ****     __list_add(new, head, head->next);
  37:../../source/include/os_lib/double_linked_list.h **** }
  38:../../source/include/os_lib/double_linked_list.h **** 
  39:../../source/include/os_lib/double_linked_list.h **** 
  40:../../source/include/os_lib/double_linked_list.h **** static inline void list_add_tail(struct list_head *new, struct list_head *head)
  41:../../source/include/os_lib/double_linked_list.h **** {
  42:../../source/include/os_lib/double_linked_list.h ****     __list_add(new, head->prev, head);
  43:../../source/include/os_lib/double_linked_list.h **** }
  44:../../source/include/os_lib/double_linked_list.h **** 
  45:../../source/include/os_lib/double_linked_list.h **** 
  46:../../source/include/os_lib/double_linked_list.h **** static inline void __list_del(struct list_head * prev, struct list_head * next)
  47:../../source/include/os_lib/double_linked_list.h **** {
  48:../../source/include/os_lib/double_linked_list.h ****     next->prev = prev;
ARM GAS  G:\Users\Jaxb\AppData\Local\Temp\ccEqowR1.s 			page 9


  49:../../source/include/os_lib/double_linked_list.h ****     prev->next = next;
  50:../../source/include/os_lib/double_linked_list.h **** }
  51:../../source/include/os_lib/double_linked_list.h **** 
  52:../../source/include/os_lib/double_linked_list.h **** 
  53:../../source/include/os_lib/double_linked_list.h **** static inline void list_del(struct list_head *entry)
  54:../../source/include/os_lib/double_linked_list.h **** {
  55:../../source/include/os_lib/double_linked_list.h ****     __list_del(entry->prev, entry->next);
 228              		.loc 2 55 0
 229 00c2 2346     		mov	r3, r4
 230 00c4 216A     		ldr	r1, [r4, #32]
 231 00c6 53F81C6F 		ldr	r6, [r3, #28]!
 232              	.LVL13:
 233              	.LBB49:
 234              	.LBB50:
  48:../../source/include/os_lib/double_linked_list.h ****     prev->next = next;
 235              		.loc 2 48 0
 236 00ca 7160     		str	r1, [r6, #4]
 237              	.LBE50:
 238              	.LBE49:
 239              	.LBE48:
 240              	.LBE47:
 241              	.LBB54:
 242              	.LBB55:
  42:../../source/include/os_lib/double_linked_list.h **** }
 243              		.loc 2 42 0
 244 00cc 4268     		ldr	r2, [r0, #4]
 245              	.LBE55:
 246              	.LBE54:
 247              	.LBB62:
 248              	.LBB53:
 249              	.LBB52:
 250              	.LBB51:
  49:../../source/include/os_lib/double_linked_list.h **** }
 251              		.loc 2 49 0
 252 00ce 0E60     		str	r6, [r1]
 253              	.LVL14:
 254              	.LBE51:
 255              	.LBE52:
 256              	.LBE53:
 257              	.LBE62:
 258              	.LBB63:
 259              	.LBB60:
 260              	.LBB56:
 261              	.LBB57:
  27:../../source/include/os_lib/double_linked_list.h ****     new->next = next;
 262              		.loc 2 27 0
 263 00d0 4360     		str	r3, [r0, #4]
  28:../../source/include/os_lib/double_linked_list.h ****     new->prev = prev;
 264              		.loc 2 28 0
 265 00d2 C4E90702 		strd	r0, r2, [r4, #28]
 266              	.LBE57:
 267              	.LBE56:
 268              	.LBE60:
 269              	.LBE63:
 137:../../source/src/user/OS_CORE/schedule/os_tick.c **** 	}
 270              		.loc 1 137 0
 271 00d6 3C68     		ldr	r4, [r7]
ARM GAS  G:\Users\Jaxb\AppData\Local\Temp\ccEqowR1.s 			page 10


 272              	.LVL15:
 273              	.LBB64:
 274              	.LBB61:
 275              	.LBB59:
 276              	.LBB58:
  30:../../source/include/os_lib/double_linked_list.h **** }
 277              		.loc 2 30 0
 278 00d8 1360     		str	r3, [r2]
 279              	.LVL16:
 280              	.LBE58:
 281              	.LBE59:
 282              	.LBE61:
 283              	.LBE64:
 137:../../source/src/user/OS_CORE/schedule/os_tick.c **** 	}
 284              		.loc 1 137 0
 285 00da A36B     		ldr	r3, [r4, #56]
 286              	.LVL17:
 287 00dc 43F00403 		orr	r3, r3, #4
 288 00e0 A363     		str	r3, [r4, #56]
 289              	.LVL18:
 290              	.LBE46:
 291              	.LBE65:
 292              	.LBE66:
 157:../../source/src/user/OS_CORE/schedule/os_tick.c **** 	{
 293              		.loc 1 157 0
 294 00e2 A36B     		ldr	r3, [r4, #56]
 295 00e4 5B07     		lsls	r3, r3, #29
 296 00e6 DED5     		bpl	.L18
 297              	.L25:
 157:../../source/src/user/OS_CORE/schedule/os_tick.c **** 	{
 298              		.loc 1 157 0 is_stmt 0 discriminator 1
 299 00e8 FFF7FEFF 		bl	sys_schedule_islock
 300              	.LVL19:
 301 00ec 0028     		cmp	r0, #0
 302 00ee DAD1     		bne	.L18
 159:../../source/src/user/OS_CORE/schedule/os_tick.c **** 		schedule();
 303              		.loc 1 159 0 is_stmt 1
 304 00f0 3A68     		ldr	r2, [r7]
 305 00f2 936B     		ldr	r3, [r2, #56]
 306 00f4 23F00403 		bic	r3, r3, #4
 307 00f8 9363     		str	r3, [r2, #56]
 160:../../source/src/user/OS_CORE/schedule/os_tick.c **** 	}
 308              		.loc 1 160 0
 309 00fa FFF7FEFF 		bl	schedule
 310              	.LVL20:
 162:../../source/src/user/OS_CORE/schedule/os_tick.c **** }
 311              		.loc 1 162 0
 312 00fe 2B68     		ldr	r3, [r5]
 313 0100 013B     		subs	r3, r3, #1
 314 0102 2B60     		str	r3, [r5]
 315              		.loc 1 163 0
 316 0104 F8BD     		pop	{r3, r4, r5, r6, r7, pc}
 317              	.L23:
 318              	.LBB67:
 319              	.LBB38:
  48:../../source/src/user/OS_CORE/schedule/os_tick.c **** 		system_time_increase();
 320              		.loc 1 48 0
ARM GAS  G:\Users\Jaxb\AppData\Local\Temp\ccEqowR1.s 			page 11


 321 0106 0022     		movs	r2, #0
 322 0108 1A60     		str	r2, [r3]
  49:../../source/src/user/OS_CORE/schedule/os_tick.c **** #if CONFIG_CPU_USE_RATE_CALCULATION
 323              		.loc 1 49 0
 324 010a FFF7FEFF 		bl	system_time_increase
 325              	.LVL21:
 326 010e B3E7     		b	.L9
 327              	.LVL22:
 328              	.L26:
 329 0110 3C68     		ldr	r4, [r7]
 330              	.LVL23:
 331 0112 C5E7     		b	.L11
 332              	.LVL24:
 333              	.L20:
 334 0114 0F4F     		ldr	r7, .L27+12
 335              	.L13:
 336              	.LBE38:
 337              	.LBE67:
 338              	.LBB68:
 339              	.LBB43:
  79:../../source/src/user/OS_CORE/schedule/os_tick.c **** 			insert_ready_TCB(TCB_ptr);
 340              		.loc 1 79 0
 341 0116 FFF7FEFF 		bl	delay_heap_remove_top_TCB
 342              	.LVL25:
  80:../../source/src/user/OS_CORE/schedule/os_tick.c **** 			TCB_ptr = delay_heap_get_top_TCB();
 343              		.loc 1 80 0
 344 011a 3046     		mov	r0, r6
 345 011c FFF7FEFF 		bl	insert_ready_TCB
 346              	.LVL26:
  81:../../source/src/user/OS_CORE/schedule/os_tick.c **** 			set_rescheduled_flag();
 347              		.loc 1 81 0
 348 0120 FFF7FEFF 		bl	delay_heap_get_top_TCB
 349              	.LVL27:
  82:../../source/src/user/OS_CORE/schedule/os_tick.c **** 			continue ;
 350              		.loc 1 82 0
 351 0124 3A68     		ldr	r2, [r7]
  75:../../source/src/user/OS_CORE/schedule/os_tick.c **** 	{
 352              		.loc 1 75 0
 353 0126 0646     		mov	r6, r0
  82:../../source/src/user/OS_CORE/schedule/os_tick.c **** 			continue ;
 354              		.loc 1 82 0
 355 0128 936B     		ldr	r3, [r2, #56]
 356 012a 43F00403 		orr	r3, r3, #4
 357 012e 9363     		str	r3, [r2, #56]
  75:../../source/src/user/OS_CORE/schedule/os_tick.c **** 	{
 358              		.loc 1 75 0
 359 0130 0028     		cmp	r0, #0
 360 0132 AED0     		beq	.L14
  77:../../source/src/user/OS_CORE/schedule/os_tick.c **** 		{
 361              		.loc 1 77 0
 362 0134 D4E90001 		ldrd	r0, [r4]
 363              	.LVL28:
 364 0138 D6E91023 		ldrd	r2, [r6, #64]
 365 013c 8B42     		cmp	r3, r1
 366 013e 08BF     		it	eq
 367 0140 8242     		cmpeq	r2, r0
 368 0142 A6D1     		bne	.L14
ARM GAS  G:\Users\Jaxb\AppData\Local\Temp\ccEqowR1.s 			page 12


 369 0144 E7E7     		b	.L13
 370              	.L28:
 371 0146 00BF     		.align	2
 372              	.L27:
 373 0148 00000000 		.word	g_interrupt_count
 374 014c 00000000 		.word	.LANCHOR0
 375 0150 00000000 		.word	g_time_tick_count
 376 0154 00000000 		.word	OSTCBCurPtr
 377              	.LBE43:
 378              	.LBE68:
 379              		.cfi_endproc
 380              	.LFE16:
 381              		.size	OS_CPU_SysTickHandler, .-OS_CPU_SysTickHandler
 382              		.bss
 383              		.align	2
 384              		.set	.LANCHOR0,. + 0
 385              		.type	time_flag.4508, %object
 386              		.size	time_flag.4508, 4
 387              	time_flag.4508:
 388 0000 00000000 		.space	4
 389              		.text
 390              	.Letext0:
 391              		.file 3 "../../source/include/os_cpu/kakaosstdint.h"
 392              		.file 4 "../../source/include/os_core/task_state.h"
 393              		.file 5 "../../source/include/os_core/TCB.h"
 394              		.file 6 "../../source/include/os_core/os_timer.h"
 395              		.file 7 "../../source/include/os_core/os_time.h"
 396              		.file 8 "../../source/include/os_core/schedule/os_delay.h"
 397              		.file 9 "../../source/include/os_core/schedule/os_ready.h"
 398              		.file 10 "../../source/include/os_core/schedule/os_TCB_list.h"
 399              		.file 11 "../../source/include/os_core/schedule/os_schedule.h"
 400              		.file 12 "../../source/include/os_core/schedule/os_suspend.h"