ARM GAS  G:\Users\Jaxb\AppData\Local\Temp\ccvDTtlW.s 			page 1


   1              		.cpu cortex-m3
   2              		.eabi_attribute 20, 1
   3              		.eabi_attribute 21, 1
   4              		.eabi_attribute 23, 3
   5              		.eabi_attribute 24, 1
   6              		.eabi_attribute 25, 1
   7              		.eabi_attribute 26, 1
   8              		.eabi_attribute 30, 6
   9              		.eabi_attribute 34, 1
  10              		.eabi_attribute 18, 4
  11              		.file	"os_timer.c"
  12              		.text
  13              	.Ltext0:
  14              		.cfi_sections	.debug_frame
  15              		.bss
  16              		.align	2
  17              	timer_heap:
  18 0000 00000000 		.space	28
  18      00000000 
  18      00000000 
  18      00000000 
  18      00000000 
  19              		.size	timer_heap, 28
  20              		.text
  21              		.align	1
  22              		.syntax unified
  23              		.thumb
  24              		.thumb_func
  25              		.fpu softvfp
  26              		.type	cmp, %function
  27              	cmp:
  28              	.LFB13:
  29              		.file 1 "../../source/src/kernel/OS_CORE/os_timer.c"
   1:../../source/src/kernel/OS_CORE/os_timer.c **** #include <os_timer.h>
   2:../../source/src/kernel/OS_CORE/os_timer.c **** #include <os_error.h>
   3:../../source/src/kernel/OS_CORE/os_timer.c **** #include <myassert.h>
   4:../../source/src/kernel/OS_CORE/os_timer.c **** #include <myMicroLIB.h>
   5:../../source/src/kernel/OS_CORE/os_timer.c **** #include <heap_oo.h>
   6:../../source/src/kernel/OS_CORE/os_timer.c **** #include <os_schedule.h>
   7:../../source/src/kernel/OS_CORE/os_timer.c **** #include <os_time.h>
   8:../../source/src/kernel/OS_CORE/os_timer.c **** #include <os_cpu.h>
   9:../../source/src/kernel/OS_CORE/os_timer.c **** #include <export.h>
  10:../../source/src/kernel/OS_CORE/os_timer.c **** 
  11:../../source/src/kernel/OS_CORE/os_timer.c **** #if CONFIG_TIMER_EN
  12:../../source/src/kernel/OS_CORE/os_timer.c **** 
  13:../../source/src/kernel/OS_CORE/os_timer.c **** static struct little_heap timer_heap;
  14:../../source/src/kernel/OS_CORE/os_timer.c **** 
  15:../../source/src/kernel/OS_CORE/os_timer.c **** static int cmp(Vector *Vector_ptr,unsigned int index1,unsigned int index2)
  16:../../source/src/kernel/OS_CORE/os_timer.c **** {
  30              		.loc 1 16 0
  31              		.cfi_startproc
  32              		@ args = 0, pretend = 0, frame = 24
  33              		@ frame_needed = 1, uses_anonymous_args = 0
  34 0000 2DE99048 		push	{r4, r7, fp, lr}
  35              	.LCFI0:
  36              		.cfi_def_cfa_offset 16
  37              		.cfi_offset 4, -16
ARM GAS  G:\Users\Jaxb\AppData\Local\Temp\ccvDTtlW.s 			page 2


  38              		.cfi_offset 7, -12
  39              		.cfi_offset 11, -8
  40              		.cfi_offset 14, -4
  41 0004 86B0     		sub	sp, sp, #24
  42              	.LCFI1:
  43              		.cfi_def_cfa_offset 40
  44 0006 00AF     		add	r7, sp, #0
  45              	.LCFI2:
  46              		.cfi_def_cfa_register 7
  47 0008 F860     		str	r0, [r7, #12]
  48 000a B960     		str	r1, [r7, #8]
  49 000c 7A60     		str	r2, [r7, #4]
  17:../../source/src/kernel/OS_CORE/os_timer.c **** 	const struct timer **a, **b;
  18:../../source/src/kernel/OS_CORE/os_timer.c **** 	Vector_get_index_address (Vector_ptr, index1, (void **)&a);
  50              		.loc 1 18 0
  51 000e 07F11403 		add	r3, r7, #20
  52 0012 1A46     		mov	r2, r3
  53 0014 B968     		ldr	r1, [r7, #8]
  54 0016 F868     		ldr	r0, [r7, #12]
  55 0018 FFF7FEFF 		bl	Vector_get_index_address
  19:../../source/src/kernel/OS_CORE/os_timer.c **** 	Vector_get_index_address (Vector_ptr, index2, (void **)&b);
  56              		.loc 1 19 0
  57 001c 07F11003 		add	r3, r7, #16
  58 0020 1A46     		mov	r2, r3
  59 0022 7968     		ldr	r1, [r7, #4]
  60 0024 F868     		ldr	r0, [r7, #12]
  61 0026 FFF7FEFF 		bl	Vector_get_index_address
  20:../../source/src/kernel/OS_CORE/os_timer.c **** 	if (TIME_FIRST_SMALLER_THAN_SECOND((*a)->wake_time,(*b)->wake_time))
  62              		.loc 1 20 0
  63 002a 7B69     		ldr	r3, [r7, #20]
  64 002c 1B68     		ldr	r3, [r3]
  65 002e 03F12004 		add	r4, r3, #32
  66 0032 D4E90034 		ldrd	r3, [r4]
  67 0036 1946     		mov	r1, r3
  68 0038 2246     		mov	r2, r4
  69 003a 3B69     		ldr	r3, [r7, #16]
  70 003c 1B68     		ldr	r3, [r3]
  71 003e 03F12004 		add	r4, r3, #32
  72 0042 D4E90034 		ldrd	r3, [r4]
  73 0046 9B46     		mov	fp, r3
  74 0048 A446     		mov	ip, r4
  75 004a 0B46     		mov	r3, r1
  76 004c 1446     		mov	r4, r2
  77 004e B3EB0B03 		subs	r3, r3, fp
  78 0052 64EB0C04 		sbc	r4, r4, ip
  79 0056 002B     		cmp	r3, #0
  80 0058 74F10003 		sbcs	r3, r4, #0
  81 005c 02DA     		bge	.L2
  21:../../source/src/kernel/OS_CORE/os_timer.c **** 	{
  22:../../source/src/kernel/OS_CORE/os_timer.c **** 	  return -1;
  82              		.loc 1 22 0
  83 005e 4FF0FF33 		mov	r3, #-1
  84 0062 1CE0     		b	.L5
  85              	.L2:
  23:../../source/src/kernel/OS_CORE/os_timer.c **** 	}
  24:../../source/src/kernel/OS_CORE/os_timer.c **** 	else if (TIME_FIRST_BIGGER_THAN_SECOND((*a)->wake_time,(*b)->wake_time))
  86              		.loc 1 24 0
ARM GAS  G:\Users\Jaxb\AppData\Local\Temp\ccvDTtlW.s 			page 3


  87 0064 7B69     		ldr	r3, [r7, #20]
  88 0066 1B68     		ldr	r3, [r3]
  89 0068 03F12004 		add	r4, r3, #32
  90 006c D4E90034 		ldrd	r3, [r4]
  91 0070 1946     		mov	r1, r3
  92 0072 2246     		mov	r2, r4
  93 0074 3B69     		ldr	r3, [r7, #16]
  94 0076 1B68     		ldr	r3, [r3]
  95 0078 03F12004 		add	r4, r3, #32
  96 007c D4E90034 		ldrd	r3, [r4]
  97 0080 9B46     		mov	fp, r3
  98 0082 A446     		mov	ip, r4
  99 0084 0B46     		mov	r3, r1
 100 0086 1446     		mov	r4, r2
 101 0088 B3EB0B03 		subs	r3, r3, fp
 102 008c 64EB0C04 		sbc	r4, r4, ip
 103 0090 012B     		cmp	r3, #1
 104 0092 74F10003 		sbcs	r3, r4, #0
 105 0096 01DB     		blt	.L4
  25:../../source/src/kernel/OS_CORE/os_timer.c **** 	{
  26:../../source/src/kernel/OS_CORE/os_timer.c **** 	  return 1;
 106              		.loc 1 26 0
 107 0098 0123     		movs	r3, #1
 108 009a 00E0     		b	.L5
 109              	.L4:
  27:../../source/src/kernel/OS_CORE/os_timer.c **** 	}
  28:../../source/src/kernel/OS_CORE/os_timer.c **** 	else
  29:../../source/src/kernel/OS_CORE/os_timer.c **** 	{
  30:../../source/src/kernel/OS_CORE/os_timer.c **** 	  return 0;
 110              		.loc 1 30 0
 111 009c 0023     		movs	r3, #0
 112              	.L5:
  31:../../source/src/kernel/OS_CORE/os_timer.c **** 	}
  32:../../source/src/kernel/OS_CORE/os_timer.c **** }
 113              		.loc 1 32 0 discriminator 1
 114 009e 1846     		mov	r0, r3
 115 00a0 1837     		adds	r7, r7, #24
 116              	.LCFI3:
 117              		.cfi_def_cfa_offset 16
 118 00a2 BD46     		mov	sp, r7
 119              	.LCFI4:
 120              		.cfi_def_cfa_register 13
 121              		@ sp needed
 122 00a4 BDE89088 		pop	{r4, r7, fp, pc}
 123              		.cfi_endproc
 124              	.LFE13:
 125              		.size	cmp, .-cmp
 126              		.align	1
 127              		.syntax unified
 128              		.thumb
 129              		.thumb_func
 130              		.fpu softvfp
 131              		.type	index_change_record, %function
 132              	index_change_record:
 133              	.LFB14:
  33:../../source/src/kernel/OS_CORE/os_timer.c **** 
  34:../../source/src/kernel/OS_CORE/os_timer.c **** static inline void index_change_record(Vector *Vector_ptr,int index)
ARM GAS  G:\Users\Jaxb\AppData\Local\Temp\ccvDTtlW.s 			page 4


  35:../../source/src/kernel/OS_CORE/os_timer.c **** {
 134              		.loc 1 35 0
 135              		.cfi_startproc
 136              		@ args = 0, pretend = 0, frame = 16
 137              		@ frame_needed = 1, uses_anonymous_args = 0
 138 00a8 80B5     		push	{r7, lr}
 139              	.LCFI5:
 140              		.cfi_def_cfa_offset 8
 141              		.cfi_offset 7, -8
 142              		.cfi_offset 14, -4
 143 00aa 84B0     		sub	sp, sp, #16
 144              	.LCFI6:
 145              		.cfi_def_cfa_offset 24
 146 00ac 00AF     		add	r7, sp, #0
 147              	.LCFI7:
 148              		.cfi_def_cfa_register 7
 149 00ae 7860     		str	r0, [r7, #4]
 150 00b0 3960     		str	r1, [r7]
  36:../../source/src/kernel/OS_CORE/os_timer.c **** 	struct timer *timer_ptr;
  37:../../source/src/kernel/OS_CORE/os_timer.c **** 	Vector_get_index_data(Vector_ptr,index,&timer_ptr);
 151              		.loc 1 37 0
 152 00b2 3B68     		ldr	r3, [r7]
 153 00b4 07F10C02 		add	r2, r7, #12
 154 00b8 1946     		mov	r1, r3
 155 00ba 7868     		ldr	r0, [r7, #4]
 156 00bc FFF7FEFF 		bl	Vector_get_index_data
  38:../../source/src/kernel/OS_CORE/os_timer.c **** 	timer_ptr->heap_position_index = index;
 157              		.loc 1 38 0
 158 00c0 FB68     		ldr	r3, [r7, #12]
 159 00c2 3A68     		ldr	r2, [r7]
 160 00c4 9A61     		str	r2, [r3, #24]
  39:../../source/src/kernel/OS_CORE/os_timer.c **** }
 161              		.loc 1 39 0
 162 00c6 00BF     		nop
 163 00c8 1037     		adds	r7, r7, #16
 164              	.LCFI8:
 165              		.cfi_def_cfa_offset 8
 166 00ca BD46     		mov	sp, r7
 167              	.LCFI9:
 168              		.cfi_def_cfa_register 13
 169              		@ sp needed
 170 00cc 80BD     		pop	{r7, pc}
 171              		.cfi_endproc
 172              	.LFE14:
 173              		.size	index_change_record, .-index_change_record
 174              		.section	.rodata
 175              		.align	2
 176              	.LC0:
 177 0000 696E6974 		.ascii	"init_delay_heap error!\012stop booting.....\012\000"
 177      5F64656C 
 177      61795F68 
 177      65617020 
 177      6572726F 
 178              		.text
 179              		.align	1
 180              		.global	__init_timer
 181              		.syntax unified
ARM GAS  G:\Users\Jaxb\AppData\Local\Temp\ccvDTtlW.s 			page 5


 182              		.thumb
 183              		.thumb_func
 184              		.fpu softvfp
 185              		.type	__init_timer, %function
 186              	__init_timer:
 187              	.LFB15:
  40:../../source/src/kernel/OS_CORE/os_timer.c **** 
  41:../../source/src/kernel/OS_CORE/os_timer.c **** /**
  42:../../source/src/kernel/OS_CORE/os_timer.c ****  * This is a system function
  43:../../source/src/kernel/OS_CORE/os_timer.c ****  * @Author      kaka
  44:../../source/src/kernel/OS_CORE/os_timer.c ****  * @DateTime    2018-10-03
  45:../../source/src/kernel/OS_CORE/os_timer.c ****  * @description : used while os's initialization
  46:../../source/src/kernel/OS_CORE/os_timer.c ****  */
  47:../../source/src/kernel/OS_CORE/os_timer.c **** void __init_timer(void)
  48:../../source/src/kernel/OS_CORE/os_timer.c **** {
 188              		.loc 1 48 0
 189              		.cfi_startproc
 190              		@ args = 0, pretend = 0, frame = 0
 191              		@ frame_needed = 1, uses_anonymous_args = 0
 192 00ce 80B5     		push	{r7, lr}
 193              	.LCFI10:
 194              		.cfi_def_cfa_offset 8
 195              		.cfi_offset 7, -8
 196              		.cfi_offset 14, -4
 197 00d0 82B0     		sub	sp, sp, #8
 198              	.LCFI11:
 199              		.cfi_def_cfa_offset 16
 200 00d2 02AF     		add	r7, sp, #8
 201              	.LCFI12:
 202              		.cfi_def_cfa 7, 8
  49:../../source/src/kernel/OS_CORE/os_timer.c **** 	if(0 != heap_init(&timer_heap,16,sizeof(struct timer *),cmp,index_change_record))
 203              		.loc 1 49 0
 204 00d4 084B     		ldr	r3, .L11
 205 00d6 0093     		str	r3, [sp]
 206 00d8 084B     		ldr	r3, .L11+4
 207 00da 0422     		movs	r2, #4
 208 00dc 1021     		movs	r1, #16
 209 00de 0848     		ldr	r0, .L11+8
 210 00e0 FFF7FEFF 		bl	heap_init
 211 00e4 0346     		mov	r3, r0
 212 00e6 002B     		cmp	r3, #0
 213 00e8 03D0     		beq	.L10
  50:../../source/src/kernel/OS_CORE/os_timer.c **** 	{
  51:../../source/src/kernel/OS_CORE/os_timer.c **** 		ka_printf("init_delay_heap error!\nstop booting.....\n");
 214              		.loc 1 51 0
 215 00ea 0648     		ldr	r0, .L11+12
 216 00ec FFF7FEFF 		bl	ka_printf
 217              	.L9:
  52:../../source/src/kernel/OS_CORE/os_timer.c **** 		while(1);
 218              		.loc 1 52 0 discriminator 1
 219 00f0 FEE7     		b	.L9
 220              	.L10:
  53:../../source/src/kernel/OS_CORE/os_timer.c **** 		//os stop here
  54:../../source/src/kernel/OS_CORE/os_timer.c **** 	}
  55:../../source/src/kernel/OS_CORE/os_timer.c **** }
 221              		.loc 1 55 0
 222 00f2 00BF     		nop
ARM GAS  G:\Users\Jaxb\AppData\Local\Temp\ccvDTtlW.s 			page 6


 223 00f4 BD46     		mov	sp, r7
 224              	.LCFI13:
 225              		.cfi_def_cfa_register 13
 226              		@ sp needed
 227 00f6 80BD     		pop	{r7, pc}
 228              	.L12:
 229              		.align	2
 230              	.L11:
 231 00f8 00000000 		.word	index_change_record
 232 00fc 00000000 		.word	cmp
 233 0100 00000000 		.word	timer_heap
 234 0104 00000000 		.word	.LC0
 235              		.cfi_endproc
 236              	.LFE15:
 237              		.size	__init_timer, .-__init_timer
 238              		.section	.rodata
 239 002a 0000     		.align	2
 240              	.LC1:
 241 002c 2E2E2F2E 		.ascii	"../../source/src/kernel/OS_CORE/os_timer.c\000"
 241      2E2F736F 
 241      75726365 
 241      2F737263 
 241      2F6B6572 
 242 0057 00       		.align	2
 243              	.LC2:
 244 0058 6572726F 		.ascii	"error fun name : timer_init\012error para : timer_p"
 244      72206675 
 244      6E206E61 
 244      6D65203A 
 244      2074696D 
 245 0088 74720A00 		.ascii	"tr\012\000"
 246              		.align	2
 247              	.LC3:
 248 008c 6572726F 		.ascii	"error fun name : timer_init\012error para : name\012"
 248      72206675 
 248      6E206E61 
 248      6D65203A 
 248      2074696D 
 249 00ba 00       		.ascii	"\000"
 250 00bb 00       		.align	2
 251              	.LC4:
 252 00bc 6572726F 		.ascii	"error fun name : timer_init\012error para : fun\012"
 252      72206675 
 252      6E206E61 
 252      6D65203A 
 252      2074696D 
 253 00e9 00       		.ascii	"\000"
 254              		.text
 255              		.align	1
 256              		.global	timer_init
 257              		.syntax unified
 258              		.thumb
 259              		.thumb_func
 260              		.fpu softvfp
 261              		.type	timer_init, %function
 262              	timer_init:
 263              	.LFB16:
ARM GAS  G:\Users\Jaxb\AppData\Local\Temp\ccvDTtlW.s 			page 7


  56:../../source/src/kernel/OS_CORE/os_timer.c **** 
  57:../../source/src/kernel/OS_CORE/os_timer.c **** /**
  58:../../source/src/kernel/OS_CORE/os_timer.c ****  * This is a system function
  59:../../source/src/kernel/OS_CORE/os_timer.c ****  * @Author      kaka
  60:../../source/src/kernel/OS_CORE/os_timer.c ****  * @DateTime    2018-10-03
  61:../../source/src/kernel/OS_CORE/os_timer.c ****  * @description : initialize the timer
  62:../../source/src/kernel/OS_CORE/os_timer.c ****  */
  63:../../source/src/kernel/OS_CORE/os_timer.c **** int timer_init(
  64:../../source/src/kernel/OS_CORE/os_timer.c **** 	struct timer *timer_ptr,
  65:../../source/src/kernel/OS_CORE/os_timer.c **** 	TIMER_TYPE type,
  66:../../source/src/kernel/OS_CORE/os_timer.c **** 	char *name,
  67:../../source/src/kernel/OS_CORE/os_timer.c **** 	void (*fun)(void *para),
  68:../../source/src/kernel/OS_CORE/os_timer.c **** 	void *para,
  69:../../source/src/kernel/OS_CORE/os_timer.c **** 	unsigned int period,
  70:../../source/src/kernel/OS_CORE/os_timer.c **** 	unsigned int num)
  71:../../source/src/kernel/OS_CORE/os_timer.c **** {
 264              		.loc 1 71 0
 265              		.cfi_startproc
 266              		@ args = 12, pretend = 0, frame = 24
 267              		@ frame_needed = 1, uses_anonymous_args = 0
 268 0108 80B5     		push	{r7, lr}
 269              	.LCFI14:
 270              		.cfi_def_cfa_offset 8
 271              		.cfi_offset 7, -8
 272              		.cfi_offset 14, -4
 273 010a 86B0     		sub	sp, sp, #24
 274              	.LCFI15:
 275              		.cfi_def_cfa_offset 32
 276 010c 00AF     		add	r7, sp, #0
 277              	.LCFI16:
 278              		.cfi_def_cfa_register 7
 279 010e F860     		str	r0, [r7, #12]
 280 0110 7A60     		str	r2, [r7, #4]
 281 0112 3B60     		str	r3, [r7]
 282 0114 0B46     		mov	r3, r1
 283 0116 FB72     		strb	r3, [r7, #11]
  72:../../source/src/kernel/OS_CORE/os_timer.c **** 	ASSERT((NULL != timer_ptr) && (NULL != name) && (NULL != fun));
 284              		.loc 1 72 0
 285 0118 FB68     		ldr	r3, [r7, #12]
 286 011a 002B     		cmp	r3, #0
 287 011c 05D0     		beq	.L14
 288              		.loc 1 72 0 is_stmt 0 discriminator 1
 289 011e 7B68     		ldr	r3, [r7, #4]
 290 0120 002B     		cmp	r3, #0
 291 0122 02D0     		beq	.L14
 292              		.loc 1 72 0 discriminator 3
 293 0124 3B68     		ldr	r3, [r7]
 294 0126 002B     		cmp	r3, #0
 295 0128 03D1     		bne	.L15
 296              	.L14:
 297              		.loc 1 72 0 discriminator 5
 298 012a 4821     		movs	r1, #72
 299 012c 2148     		ldr	r0, .L20
 300 012e FFF7FEFF 		bl	_ASSERT
 301              	.L15:
  73:../../source/src/kernel/OS_CORE/os_timer.c **** #if CONFIG_PARA_CHECK
  74:../../source/src/kernel/OS_CORE/os_timer.c **** 	if((NULL == timer_ptr) || (NULL == name) || (NULL == fun))
ARM GAS  G:\Users\Jaxb\AppData\Local\Temp\ccvDTtlW.s 			page 8


 302              		.loc 1 74 0 is_stmt 1
 303 0132 FB68     		ldr	r3, [r7, #12]
 304 0134 002B     		cmp	r3, #0
 305 0136 05D0     		beq	.L16
 306              		.loc 1 74 0 is_stmt 0 discriminator 1
 307 0138 7B68     		ldr	r3, [r7, #4]
 308 013a 002B     		cmp	r3, #0
 309 013c 02D0     		beq	.L16
 310              		.loc 1 74 0 discriminator 2
 311 013e 3B68     		ldr	r3, [r7]
 312 0140 002B     		cmp	r3, #0
 313 0142 0BD1     		bne	.L17
 314              	.L16:
  75:../../source/src/kernel/OS_CORE/os_timer.c **** 	{
  76:../../source/src/kernel/OS_CORE/os_timer.c **** 		OS_ERROR_PARA_MESSAGE_DISPLAY(timer_init,timer_ptr);
 315              		.loc 1 76 0 is_stmt 1
 316 0144 1C48     		ldr	r0, .L20+4
 317 0146 FFF7FEFF 		bl	ka_printf
  77:../../source/src/kernel/OS_CORE/os_timer.c **** 		OS_ERROR_PARA_MESSAGE_DISPLAY(timer_init,name);
 318              		.loc 1 77 0
 319 014a 1C48     		ldr	r0, .L20+8
 320 014c FFF7FEFF 		bl	ka_printf
  78:../../source/src/kernel/OS_CORE/os_timer.c **** 		OS_ERROR_PARA_MESSAGE_DISPLAY(timer_init,fun);
 321              		.loc 1 78 0
 322 0150 1B48     		ldr	r0, .L20+12
 323 0152 FFF7FEFF 		bl	ka_printf
  79:../../source/src/kernel/OS_CORE/os_timer.c **** 		return -ERROR_NULL_INPUT_PTR;
 324              		.loc 1 79 0
 325 0156 6FF0FE03 		mvn	r3, #254
 326 015a 27E0     		b	.L18
 327              	.L17:
  80:../../source/src/kernel/OS_CORE/os_timer.c **** 	}
  81:../../source/src/kernel/OS_CORE/os_timer.c **** #endif
  82:../../source/src/kernel/OS_CORE/os_timer.c **** 	CPU_SR_ALLOC();
 328              		.loc 1 82 0
 329 015c 0023     		movs	r3, #0
 330 015e 7B61     		str	r3, [r7, #20]
  83:../../source/src/kernel/OS_CORE/os_timer.c **** 	CPU_CRITICAL_ENTER();
 331              		.loc 1 83 0
 332 0160 FFF7FEFF 		bl	CPU_SR_Save
 333 0164 7861     		str	r0, [r7, #20]
  84:../../source/src/kernel/OS_CORE/os_timer.c **** 	if (g_interrupt_count > 0)
 334              		.loc 1 84 0
 335 0166 174B     		ldr	r3, .L20+16
 336 0168 1B68     		ldr	r3, [r3]
 337 016a 002B     		cmp	r3, #0
 338 016c 05DD     		ble	.L19
  85:../../source/src/kernel/OS_CORE/os_timer.c **** 	{
  86:../../source/src/kernel/OS_CORE/os_timer.c **** 		CPU_CRITICAL_EXIT();
 339              		.loc 1 86 0
 340 016e 7869     		ldr	r0, [r7, #20]
 341 0170 FFF7FEFF 		bl	CPU_SR_Restore
  87:../../source/src/kernel/OS_CORE/os_timer.c **** 		return -ERROR_FUN_USE_IN_INTER;
 342              		.loc 1 87 0
 343 0174 6FF0FC03 		mvn	r3, #252
 344 0178 18E0     		b	.L18
 345              	.L19:
ARM GAS  G:\Users\Jaxb\AppData\Local\Temp\ccvDTtlW.s 			page 9


  88:../../source/src/kernel/OS_CORE/os_timer.c **** 	}
  89:../../source/src/kernel/OS_CORE/os_timer.c **** 	timer_ptr->type  			= type;
 346              		.loc 1 89 0
 347 017a FB68     		ldr	r3, [r7, #12]
 348 017c FA7A     		ldrb	r2, [r7, #11]
 349 017e 1A70     		strb	r2, [r3]
  90:../../source/src/kernel/OS_CORE/os_timer.c **** 	timer_ptr->state 			= DISABLE;
 350              		.loc 1 90 0
 351 0180 FB68     		ldr	r3, [r7, #12]
 352 0182 0022     		movs	r2, #0
 353 0184 5A70     		strb	r2, [r3, #1]
  91:../../source/src/kernel/OS_CORE/os_timer.c **** 	timer_ptr->timer_name 		= name;
 354              		.loc 1 91 0
 355 0186 FB68     		ldr	r3, [r7, #12]
 356 0188 7A68     		ldr	r2, [r7, #4]
 357 018a 9A60     		str	r2, [r3, #8]
  92:../../source/src/kernel/OS_CORE/os_timer.c **** 	timer_ptr->fun 				= fun;
 358              		.loc 1 92 0
 359 018c FB68     		ldr	r3, [r7, #12]
 360 018e 3A68     		ldr	r2, [r7]
 361 0190 DA60     		str	r2, [r3, #12]
  93:../../source/src/kernel/OS_CORE/os_timer.c **** 	timer_ptr->para 			= para;
 362              		.loc 1 93 0
 363 0192 FB68     		ldr	r3, [r7, #12]
 364 0194 3A6A     		ldr	r2, [r7, #32]
 365 0196 1A61     		str	r2, [r3, #16]
  94:../../source/src/kernel/OS_CORE/os_timer.c **** 	timer_ptr->period 			= period;
 366              		.loc 1 94 0
 367 0198 FB68     		ldr	r3, [r7, #12]
 368 019a 7A6A     		ldr	r2, [r7, #36]
 369 019c 5A61     		str	r2, [r3, #20]
  95:../../source/src/kernel/OS_CORE/os_timer.c **** 	timer_ptr->rest_num 		= INIT_REST_NUM(num);
 370              		.loc 1 95 0
 371 019e FB68     		ldr	r3, [r7, #12]
 372 01a0 BA6A     		ldr	r2, [r7, #40]
 373 01a2 5A60     		str	r2, [r3, #4]
  96:../../source/src/kernel/OS_CORE/os_timer.c **** 	CPU_CRITICAL_EXIT();
 374              		.loc 1 96 0
 375 01a4 7869     		ldr	r0, [r7, #20]
 376 01a6 FFF7FEFF 		bl	CPU_SR_Restore
  97:../../source/src/kernel/OS_CORE/os_timer.c **** 	return FUN_EXECUTE_SUCCESSFULLY;
 377              		.loc 1 97 0
 378 01aa 0023     		movs	r3, #0
 379              	.L18:
  98:../../source/src/kernel/OS_CORE/os_timer.c **** }
 380              		.loc 1 98 0
 381 01ac 1846     		mov	r0, r3
 382 01ae 1837     		adds	r7, r7, #24
 383              	.LCFI17:
 384              		.cfi_def_cfa_offset 8
 385 01b0 BD46     		mov	sp, r7
 386              	.LCFI18:
 387              		.cfi_def_cfa_register 13
 388              		@ sp needed
 389 01b2 80BD     		pop	{r7, pc}
 390              	.L21:
 391              		.align	2
ARM GAS  G:\Users\Jaxb\AppData\Local\Temp\ccvDTtlW.s 			page 10


 392              	.L20:
 393 01b4 2C000000 		.word	.LC1
 394 01b8 58000000 		.word	.LC2
 395 01bc 8C000000 		.word	.LC3
 396 01c0 BC000000 		.word	.LC4
 397 01c4 00000000 		.word	g_interrupt_count
 398              		.cfi_endproc
 399              	.LFE16:
 400              		.size	timer_init, .-timer_init
 401              		.global	__rtmsym_timer_init_name
 402              		.section	.rodata.name,"a",%progbits
 403              		.align	2
 404              		.type	__rtmsym_timer_init_name, %object
 405              		.size	__rtmsym_timer_init_name, 11
 406              	__rtmsym_timer_init_name:
 407 0000 74696D65 		.ascii	"timer_init\000"
 407      725F696E 
 407      697400
 408              		.global	__rtmsym_timer_init
 409              		.section	.RTMSymTab,"a",%progbits
 410              		.align	2
 411              		.type	__rtmsym_timer_init, %object
 412              		.size	__rtmsym_timer_init, 8
 413              	__rtmsym_timer_init:
 414 0000 00000000 		.word	timer_init
 415 0004 00000000 		.word	__rtmsym_timer_init_name
 416              		.text
 417              		.align	1
 418              		.global	timer_create
 419              		.syntax unified
 420              		.thumb
 421              		.thumb_func
 422              		.fpu softvfp
 423              		.type	timer_create, %function
 424              	timer_create:
 425              	.LFB17:
  99:../../source/src/kernel/OS_CORE/os_timer.c **** EXPORT_SYMBOL(timer_init);
 100:../../source/src/kernel/OS_CORE/os_timer.c **** 
 101:../../source/src/kernel/OS_CORE/os_timer.c **** /**
 102:../../source/src/kernel/OS_CORE/os_timer.c ****  * This is a system function
 103:../../source/src/kernel/OS_CORE/os_timer.c ****  * @Author      kaka
 104:../../source/src/kernel/OS_CORE/os_timer.c ****  * @DateTime    2018-10-03
 105:../../source/src/kernel/OS_CORE/os_timer.c ****  * @description : create and initialize the timer
 106:../../source/src/kernel/OS_CORE/os_timer.c ****  */
 107:../../source/src/kernel/OS_CORE/os_timer.c **** int timer_create(
 108:../../source/src/kernel/OS_CORE/os_timer.c **** 	struct timer **timer_ptr,
 109:../../source/src/kernel/OS_CORE/os_timer.c **** 	TIMER_TYPE type,
 110:../../source/src/kernel/OS_CORE/os_timer.c **** 	char *name,
 111:../../source/src/kernel/OS_CORE/os_timer.c **** 	void (*fun)(void *para),
 112:../../source/src/kernel/OS_CORE/os_timer.c **** 	void *para,
 113:../../source/src/kernel/OS_CORE/os_timer.c **** 	unsigned int period,
 114:../../source/src/kernel/OS_CORE/os_timer.c **** 	unsigned int num)
 115:../../source/src/kernel/OS_CORE/os_timer.c **** {
 426              		.loc 1 115 0
 427              		.cfi_startproc
 428              		@ args = 12, pretend = 0, frame = 24
 429              		@ frame_needed = 1, uses_anonymous_args = 0
ARM GAS  G:\Users\Jaxb\AppData\Local\Temp\ccvDTtlW.s 			page 11


 430 01c8 80B5     		push	{r7, lr}
 431              	.LCFI19:
 432              		.cfi_def_cfa_offset 8
 433              		.cfi_offset 7, -8
 434              		.cfi_offset 14, -4
 435 01ca 8AB0     		sub	sp, sp, #40
 436              	.LCFI20:
 437              		.cfi_def_cfa_offset 48
 438 01cc 04AF     		add	r7, sp, #16
 439              	.LCFI21:
 440              		.cfi_def_cfa 7, 32
 441 01ce F860     		str	r0, [r7, #12]
 442 01d0 7A60     		str	r2, [r7, #4]
 443 01d2 3B60     		str	r3, [r7]
 444 01d4 0B46     		mov	r3, r1
 445 01d6 FB72     		strb	r3, [r7, #11]
 116:../../source/src/kernel/OS_CORE/os_timer.c **** 	struct timer *ptr;
 117:../../source/src/kernel/OS_CORE/os_timer.c **** 	ptr = ka_malloc(sizeof(struct timer));
 446              		.loc 1 117 0
 447 01d8 2820     		movs	r0, #40
 448 01da FFF7FEFF 		bl	ka_malloc
 449 01de 7861     		str	r0, [r7, #20]
 118:../../source/src/kernel/OS_CORE/os_timer.c **** 	if(NULL == ptr)
 450              		.loc 1 118 0
 451 01e0 7B69     		ldr	r3, [r7, #20]
 452 01e2 002B     		cmp	r3, #0
 453 01e4 02D1     		bne	.L23
 119:../../source/src/kernel/OS_CORE/os_timer.c **** 	{
 120:../../source/src/kernel/OS_CORE/os_timer.c **** 		return -ERROR_NO_MEM;
 454              		.loc 1 120 0
 455 01e6 6FF0FA03 		mvn	r3, #250
 456 01ea 1FE0     		b	.L24
 457              	.L23:
 121:../../source/src/kernel/OS_CORE/os_timer.c **** 	}
 122:../../source/src/kernel/OS_CORE/os_timer.c **** 	if(NULL != timer_ptr)
 458              		.loc 1 122 0
 459 01ec FB68     		ldr	r3, [r7, #12]
 460 01ee 002B     		cmp	r3, #0
 461 01f0 02D0     		beq	.L25
 123:../../source/src/kernel/OS_CORE/os_timer.c **** 	{
 124:../../source/src/kernel/OS_CORE/os_timer.c **** 		*timer_ptr = ptr;
 462              		.loc 1 124 0
 463 01f2 FB68     		ldr	r3, [r7, #12]
 464 01f4 7A69     		ldr	r2, [r7, #20]
 465 01f6 1A60     		str	r2, [r3]
 466              	.L25:
 125:../../source/src/kernel/OS_CORE/os_timer.c **** 	}
 126:../../source/src/kernel/OS_CORE/os_timer.c **** 	CPU_SR_ALLOC();
 467              		.loc 1 126 0
 468 01f8 0023     		movs	r3, #0
 469 01fa 3B61     		str	r3, [r7, #16]
 127:../../source/src/kernel/OS_CORE/os_timer.c **** 	CPU_CRITICAL_ENTER();
 470              		.loc 1 127 0
 471 01fc FFF7FEFF 		bl	CPU_SR_Save
 472 0200 3861     		str	r0, [r7, #16]
 128:../../source/src/kernel/OS_CORE/os_timer.c **** 	timer_init(ptr,type,name,fun,para,period,num);
 473              		.loc 1 128 0
ARM GAS  G:\Users\Jaxb\AppData\Local\Temp\ccvDTtlW.s 			page 12


 474 0202 F97A     		ldrb	r1, [r7, #11]	@ zero_extendqisi2
 475 0204 BB6A     		ldr	r3, [r7, #40]
 476 0206 0293     		str	r3, [sp, #8]
 477 0208 7B6A     		ldr	r3, [r7, #36]
 478 020a 0193     		str	r3, [sp, #4]
 479 020c 3B6A     		ldr	r3, [r7, #32]
 480 020e 0093     		str	r3, [sp]
 481 0210 3B68     		ldr	r3, [r7]
 482 0212 7A68     		ldr	r2, [r7, #4]
 483 0214 7869     		ldr	r0, [r7, #20]
 484 0216 FFF7FEFF 		bl	timer_init
 129:../../source/src/kernel/OS_CORE/os_timer.c **** 	ptr->rest_num = CREAT_REST_NUM(num);
 485              		.loc 1 129 0
 486 021a BB6A     		ldr	r3, [r7, #40]
 487 021c 43F00042 		orr	r2, r3, #-2147483648
 488 0220 7B69     		ldr	r3, [r7, #20]
 489 0222 5A60     		str	r2, [r3, #4]
 130:../../source/src/kernel/OS_CORE/os_timer.c **** 	CPU_CRITICAL_EXIT();
 490              		.loc 1 130 0
 491 0224 3869     		ldr	r0, [r7, #16]
 492 0226 FFF7FEFF 		bl	CPU_SR_Restore
 131:../../source/src/kernel/OS_CORE/os_timer.c **** 	return FUN_EXECUTE_SUCCESSFULLY;
 493              		.loc 1 131 0
 494 022a 0023     		movs	r3, #0
 495              	.L24:
 132:../../source/src/kernel/OS_CORE/os_timer.c **** }
 496              		.loc 1 132 0
 497 022c 1846     		mov	r0, r3
 498 022e 1837     		adds	r7, r7, #24
 499              	.LCFI22:
 500              		.cfi_def_cfa_offset 8
 501 0230 BD46     		mov	sp, r7
 502              	.LCFI23:
 503              		.cfi_def_cfa_register 13
 504              		@ sp needed
 505 0232 80BD     		pop	{r7, pc}
 506              		.cfi_endproc
 507              	.LFE17:
 508              		.size	timer_create, .-timer_create
 509              		.global	__rtmsym_timer_create_name
 510              		.section	.rodata.name
 511 000b 00       		.align	2
 512              		.type	__rtmsym_timer_create_name, %object
 513              		.size	__rtmsym_timer_create_name, 13
 514              	__rtmsym_timer_create_name:
 515 000c 74696D65 		.ascii	"timer_create\000"
 515      725F6372 
 515      65617465 
 515      00
 516              		.global	__rtmsym_timer_create
 517              		.section	.RTMSymTab
 518              		.align	2
 519              		.type	__rtmsym_timer_create, %object
 520              		.size	__rtmsym_timer_create, 8
 521              	__rtmsym_timer_create:
 522 0008 00000000 		.word	timer_create
 523 000c 00000000 		.word	__rtmsym_timer_create_name
ARM GAS  G:\Users\Jaxb\AppData\Local\Temp\ccvDTtlW.s 			page 13


 524              		.section	.rodata
 525 00ea 0000     		.align	2
 526              	.LC5:
 527 00ec 6572726F 		.ascii	"error fun name : timer_enable\012error para : timer"
 527      72206675 
 527      6E206E61 
 527      6D65203A 
 527      2074696D 
 528 011c 5F707472 		.ascii	"_ptr\012\000"
 528      0A00
 529              		.text
 530              		.align	1
 531              		.global	timer_enable
 532              		.syntax unified
 533              		.thumb
 534              		.thumb_func
 535              		.fpu softvfp
 536              		.type	timer_enable, %function
 537              	timer_enable:
 538              	.LFB18:
 133:../../source/src/kernel/OS_CORE/os_timer.c **** EXPORT_SYMBOL(timer_create);
 134:../../source/src/kernel/OS_CORE/os_timer.c **** 
 135:../../source/src/kernel/OS_CORE/os_timer.c **** /**
 136:../../source/src/kernel/OS_CORE/os_timer.c ****  * This is a system function
 137:../../source/src/kernel/OS_CORE/os_timer.c ****  * @Author      kaka
 138:../../source/src/kernel/OS_CORE/os_timer.c ****  * @DateTime    2018-10-03
 139:../../source/src/kernel/OS_CORE/os_timer.c ****  * @description : after using timer_create(), use this function to 
 140:../../source/src/kernel/OS_CORE/os_timer.c ****  * activate the timer
 141:../../source/src/kernel/OS_CORE/os_timer.c ****  * @param       timer_ptr  
 142:../../source/src/kernel/OS_CORE/os_timer.c ****  * @return      0 means success
 143:../../source/src/kernel/OS_CORE/os_timer.c ****  */
 144:../../source/src/kernel/OS_CORE/os_timer.c **** int timer_enable(struct timer *timer_ptr)
 145:../../source/src/kernel/OS_CORE/os_timer.c **** {
 539              		.loc 1 145 0
 540              		.cfi_startproc
 541              		@ args = 0, pretend = 0, frame = 16
 542              		@ frame_needed = 1, uses_anonymous_args = 0
 543 0234 2DE9B048 		push	{r4, r5, r7, fp, lr}
 544              	.LCFI24:
 545              		.cfi_def_cfa_offset 20
 546              		.cfi_offset 4, -20
 547              		.cfi_offset 5, -16
 548              		.cfi_offset 7, -12
 549              		.cfi_offset 11, -8
 550              		.cfi_offset 14, -4
 551 0238 85B0     		sub	sp, sp, #20
 552              	.LCFI25:
 553              		.cfi_def_cfa_offset 40
 554 023a 00AF     		add	r7, sp, #0
 555              	.LCFI26:
 556              		.cfi_def_cfa_register 7
 557 023c 7860     		str	r0, [r7, #4]
 146:../../source/src/kernel/OS_CORE/os_timer.c **** 	ASSERT(NULL != timer_ptr);
 558              		.loc 1 146 0
 559 023e 7B68     		ldr	r3, [r7, #4]
 560 0240 002B     		cmp	r3, #0
 561 0242 03D1     		bne	.L27
ARM GAS  G:\Users\Jaxb\AppData\Local\Temp\ccvDTtlW.s 			page 14


 562              		.loc 1 146 0 is_stmt 0 discriminator 1
 563 0244 9221     		movs	r1, #146
 564 0246 1A48     		ldr	r0, .L30
 565 0248 FFF7FEFF 		bl	_ASSERT
 566              	.L27:
 147:../../source/src/kernel/OS_CORE/os_timer.c **** #if CONFIG_PARA_CHECK
 148:../../source/src/kernel/OS_CORE/os_timer.c **** 	if(NULL == timer_ptr)
 567              		.loc 1 148 0 is_stmt 1
 568 024c 7B68     		ldr	r3, [r7, #4]
 569 024e 002B     		cmp	r3, #0
 570 0250 05D1     		bne	.L28
 149:../../source/src/kernel/OS_CORE/os_timer.c **** 	{
 150:../../source/src/kernel/OS_CORE/os_timer.c **** 		OS_ERROR_PARA_MESSAGE_DISPLAY(timer_enable,timer_ptr);
 571              		.loc 1 150 0
 572 0252 1848     		ldr	r0, .L30+4
 573 0254 FFF7FEFF 		bl	ka_printf
 151:../../source/src/kernel/OS_CORE/os_timer.c **** 		return -ERROR_NULL_INPUT_PTR;
 574              		.loc 1 151 0
 575 0258 6FF0FE03 		mvn	r3, #254
 576 025c 23E0     		b	.L29
 577              	.L28:
 152:../../source/src/kernel/OS_CORE/os_timer.c **** 	}
 153:../../source/src/kernel/OS_CORE/os_timer.c **** #endif	
 154:../../source/src/kernel/OS_CORE/os_timer.c **** 	CPU_SR_ALLOC();
 578              		.loc 1 154 0
 579 025e 0023     		movs	r3, #0
 580 0260 FB60     		str	r3, [r7, #12]
 155:../../source/src/kernel/OS_CORE/os_timer.c **** 	CPU_CRITICAL_ENTER();
 581              		.loc 1 155 0
 582 0262 FFF7FEFF 		bl	CPU_SR_Save
 583 0266 F860     		str	r0, [r7, #12]
 156:../../source/src/kernel/OS_CORE/os_timer.c **** 	timer_ptr->state = ENABLE;
 584              		.loc 1 156 0
 585 0268 7B68     		ldr	r3, [r7, #4]
 586 026a 0122     		movs	r2, #1
 587 026c 5A70     		strb	r2, [r3, #1]
 157:../../source/src/kernel/OS_CORE/os_timer.c **** 	timer_ptr->wake_time = timer_ptr->period + get_tick();
 588              		.loc 1 157 0
 589 026e 7B68     		ldr	r3, [r7, #4]
 590 0270 5B69     		ldr	r3, [r3, #20]
 591 0272 1C46     		mov	r4, r3
 592 0274 4FF00005 		mov	r5, #0
 593 0278 FFF7FEFF 		bl	get_tick
 594 027c 0246     		mov	r2, r0
 595 027e 0B46     		mov	r3, r1
 596 0280 7968     		ldr	r1, [r7, #4]
 597 0282 14EB020B 		adds	fp, r4, r2
 598 0286 45EB030C 		adc	ip, r5, r3
 599 028a 5B46     		mov	r3, fp
 600 028c 6446     		mov	r4, ip
 601 028e C1E90834 		strd	r3, [r1, #32]
 158:../../source/src/kernel/OS_CORE/os_timer.c **** 	int ret = heap_push(&timer_heap,&timer_ptr);
 602              		.loc 1 158 0
 603 0292 3B1D     		adds	r3, r7, #4
 604 0294 1946     		mov	r1, r3
 605 0296 0848     		ldr	r0, .L30+8
 606 0298 FFF7FEFF 		bl	heap_push
ARM GAS  G:\Users\Jaxb\AppData\Local\Temp\ccvDTtlW.s 			page 15


 607 029c B860     		str	r0, [r7, #8]
 159:../../source/src/kernel/OS_CORE/os_timer.c **** 	CPU_CRITICAL_EXIT();
 608              		.loc 1 159 0
 609 029e F868     		ldr	r0, [r7, #12]
 610 02a0 FFF7FEFF 		bl	CPU_SR_Restore
 160:../../source/src/kernel/OS_CORE/os_timer.c **** 	return ret;
 611              		.loc 1 160 0
 612 02a4 BB68     		ldr	r3, [r7, #8]
 613              	.L29:
 161:../../source/src/kernel/OS_CORE/os_timer.c **** }
 614              		.loc 1 161 0
 615 02a6 1846     		mov	r0, r3
 616 02a8 1437     		adds	r7, r7, #20
 617              	.LCFI27:
 618              		.cfi_def_cfa_offset 20
 619 02aa BD46     		mov	sp, r7
 620              	.LCFI28:
 621              		.cfi_def_cfa_register 13
 622              		@ sp needed
 623 02ac BDE8B088 		pop	{r4, r5, r7, fp, pc}
 624              	.L31:
 625              		.align	2
 626              	.L30:
 627 02b0 2C000000 		.word	.LC1
 628 02b4 EC000000 		.word	.LC5
 629 02b8 00000000 		.word	timer_heap
 630              		.cfi_endproc
 631              	.LFE18:
 632              		.size	timer_enable, .-timer_enable
 633              		.global	__rtmsym_timer_enable_name
 634              		.section	.rodata.name
 635 0019 000000   		.align	2
 636              		.type	__rtmsym_timer_enable_name, %object
 637              		.size	__rtmsym_timer_enable_name, 13
 638              	__rtmsym_timer_enable_name:
 639 001c 74696D65 		.ascii	"timer_enable\000"
 639      725F656E 
 639      61626C65 
 639      00
 640              		.global	__rtmsym_timer_enable
 641              		.section	.RTMSymTab
 642              		.align	2
 643              		.type	__rtmsym_timer_enable, %object
 644              		.size	__rtmsym_timer_enable, 8
 645              	__rtmsym_timer_enable:
 646 0010 00000000 		.word	timer_enable
 647 0014 00000000 		.word	__rtmsym_timer_enable_name
 648              		.section	.rodata
 649 0122 0000     		.align	2
 650              	.LC6:
 651 0124 6572726F 		.ascii	"error fun name : timer_disable\012error para : time"
 651      72206675 
 651      6E206E61 
 651      6D65203A 
 651      2074696D 
 652 0154 725F7074 		.ascii	"r_ptr\012\000"
 652      720A00
ARM GAS  G:\Users\Jaxb\AppData\Local\Temp\ccvDTtlW.s 			page 16


 653              		.text
 654              		.align	1
 655              		.global	timer_disable
 656              		.syntax unified
 657              		.thumb
 658              		.thumb_func
 659              		.fpu softvfp
 660              		.type	timer_disable, %function
 661              	timer_disable:
 662              	.LFB19:
 162:../../source/src/kernel/OS_CORE/os_timer.c **** EXPORT_SYMBOL(timer_enable);
 163:../../source/src/kernel/OS_CORE/os_timer.c **** 
 164:../../source/src/kernel/OS_CORE/os_timer.c **** /**
 165:../../source/src/kernel/OS_CORE/os_timer.c ****  * This is a system function
 166:../../source/src/kernel/OS_CORE/os_timer.c ****  * @Author      kaka
 167:../../source/src/kernel/OS_CORE/os_timer.c ****  * @DateTime    2018-10-03
 168:../../source/src/kernel/OS_CORE/os_timer.c ****  * @description :	use this function to inactivate the timer
 169:../../source/src/kernel/OS_CORE/os_timer.c ****  * @param       timer_ptr  
 170:../../source/src/kernel/OS_CORE/os_timer.c ****  * @return      0 means success
 171:../../source/src/kernel/OS_CORE/os_timer.c ****  */
 172:../../source/src/kernel/OS_CORE/os_timer.c **** int timer_disable(struct timer *timer_ptr)
 173:../../source/src/kernel/OS_CORE/os_timer.c **** {
 663              		.loc 1 173 0
 664              		.cfi_startproc
 665              		@ args = 0, pretend = 0, frame = 16
 666              		@ frame_needed = 1, uses_anonymous_args = 0
 667 02bc 80B5     		push	{r7, lr}
 668              	.LCFI29:
 669              		.cfi_def_cfa_offset 8
 670              		.cfi_offset 7, -8
 671              		.cfi_offset 14, -4
 672 02be 84B0     		sub	sp, sp, #16
 673              	.LCFI30:
 674              		.cfi_def_cfa_offset 24
 675 02c0 00AF     		add	r7, sp, #0
 676              	.LCFI31:
 677              		.cfi_def_cfa_register 7
 678 02c2 7860     		str	r0, [r7, #4]
 174:../../source/src/kernel/OS_CORE/os_timer.c **** 	ASSERT(NULL != timer_ptr);
 679              		.loc 1 174 0
 680 02c4 7B68     		ldr	r3, [r7, #4]
 681 02c6 002B     		cmp	r3, #0
 682 02c8 03D1     		bne	.L33
 683              		.loc 1 174 0 is_stmt 0 discriminator 1
 684 02ca AE21     		movs	r1, #174
 685 02cc 1548     		ldr	r0, .L37
 686 02ce FFF7FEFF 		bl	_ASSERT
 687              	.L33:
 175:../../source/src/kernel/OS_CORE/os_timer.c **** #if CONFIG_PARA_CHECK
 176:../../source/src/kernel/OS_CORE/os_timer.c **** 	if(NULL == timer_ptr)
 688              		.loc 1 176 0 is_stmt 1
 689 02d2 7B68     		ldr	r3, [r7, #4]
 690 02d4 002B     		cmp	r3, #0
 691 02d6 05D1     		bne	.L34
 177:../../source/src/kernel/OS_CORE/os_timer.c **** 	{
 178:../../source/src/kernel/OS_CORE/os_timer.c **** 		OS_ERROR_PARA_MESSAGE_DISPLAY(timer_disable,timer_ptr);
 692              		.loc 1 178 0
ARM GAS  G:\Users\Jaxb\AppData\Local\Temp\ccvDTtlW.s 			page 17


 693 02d8 1348     		ldr	r0, .L37+4
 694 02da FFF7FEFF 		bl	ka_printf
 179:../../source/src/kernel/OS_CORE/os_timer.c **** 		return -ERROR_NULL_INPUT_PTR;
 695              		.loc 1 179 0
 696 02de 6FF0FE03 		mvn	r3, #254
 697 02e2 1BE0     		b	.L35
 698              	.L34:
 180:../../source/src/kernel/OS_CORE/os_timer.c **** 	}
 181:../../source/src/kernel/OS_CORE/os_timer.c **** #endif
 182:../../source/src/kernel/OS_CORE/os_timer.c **** 	CPU_SR_ALLOC();
 699              		.loc 1 182 0
 700 02e4 0023     		movs	r3, #0
 701 02e6 FB60     		str	r3, [r7, #12]
 183:../../source/src/kernel/OS_CORE/os_timer.c **** 	CPU_CRITICAL_ENTER();
 702              		.loc 1 183 0
 703 02e8 FFF7FEFF 		bl	CPU_SR_Save
 704 02ec F860     		str	r0, [r7, #12]
 184:../../source/src/kernel/OS_CORE/os_timer.c **** 	int ret = heap_remove_index_data(&timer_heap,timer_ptr->heap_position_index,NULL);
 705              		.loc 1 184 0
 706 02ee 7B68     		ldr	r3, [r7, #4]
 707 02f0 9B69     		ldr	r3, [r3, #24]
 708 02f2 0022     		movs	r2, #0
 709 02f4 1946     		mov	r1, r3
 710 02f6 0D48     		ldr	r0, .L37+8
 711 02f8 FFF7FEFF 		bl	heap_remove_index_data
 712 02fc B860     		str	r0, [r7, #8]
 185:../../source/src/kernel/OS_CORE/os_timer.c **** 	if(ret < 0)
 713              		.loc 1 185 0
 714 02fe BB68     		ldr	r3, [r7, #8]
 715 0300 002B     		cmp	r3, #0
 716 0302 04DA     		bge	.L36
 186:../../source/src/kernel/OS_CORE/os_timer.c **** 	{
 187:../../source/src/kernel/OS_CORE/os_timer.c **** 		CPU_CRITICAL_EXIT();
 717              		.loc 1 187 0
 718 0304 F868     		ldr	r0, [r7, #12]
 719 0306 FFF7FEFF 		bl	CPU_SR_Restore
 188:../../source/src/kernel/OS_CORE/os_timer.c **** 		return ret;
 720              		.loc 1 188 0
 721 030a BB68     		ldr	r3, [r7, #8]
 722 030c 06E0     		b	.L35
 723              	.L36:
 189:../../source/src/kernel/OS_CORE/os_timer.c **** 	}
 190:../../source/src/kernel/OS_CORE/os_timer.c **** 	timer_ptr->state = DISABLE;
 724              		.loc 1 190 0
 725 030e 7B68     		ldr	r3, [r7, #4]
 726 0310 0022     		movs	r2, #0
 727 0312 5A70     		strb	r2, [r3, #1]
 191:../../source/src/kernel/OS_CORE/os_timer.c **** 	CPU_CRITICAL_EXIT();
 728              		.loc 1 191 0
 729 0314 F868     		ldr	r0, [r7, #12]
 730 0316 FFF7FEFF 		bl	CPU_SR_Restore
 192:../../source/src/kernel/OS_CORE/os_timer.c **** 	return FUN_EXECUTE_SUCCESSFULLY;
 731              		.loc 1 192 0
 732 031a 0023     		movs	r3, #0
 733              	.L35:
 193:../../source/src/kernel/OS_CORE/os_timer.c **** }
 734              		.loc 1 193 0
ARM GAS  G:\Users\Jaxb\AppData\Local\Temp\ccvDTtlW.s 			page 18


 735 031c 1846     		mov	r0, r3
 736 031e 1037     		adds	r7, r7, #16
 737              	.LCFI32:
 738              		.cfi_def_cfa_offset 8
 739 0320 BD46     		mov	sp, r7
 740              	.LCFI33:
 741              		.cfi_def_cfa_register 13
 742              		@ sp needed
 743 0322 80BD     		pop	{r7, pc}
 744              	.L38:
 745              		.align	2
 746              	.L37:
 747 0324 2C000000 		.word	.LC1
 748 0328 24010000 		.word	.LC6
 749 032c 00000000 		.word	timer_heap
 750              		.cfi_endproc
 751              	.LFE19:
 752              		.size	timer_disable, .-timer_disable
 753              		.global	__rtmsym_timer_disable_name
 754              		.section	.rodata.name
 755 0029 000000   		.align	2
 756              		.type	__rtmsym_timer_disable_name, %object
 757              		.size	__rtmsym_timer_disable_name, 14
 758              	__rtmsym_timer_disable_name:
 759 002c 74696D65 		.ascii	"timer_disable\000"
 759      725F6469 
 759      7361626C 
 759      6500
 760              		.global	__rtmsym_timer_disable
 761              		.section	.RTMSymTab
 762              		.align	2
 763              		.type	__rtmsym_timer_disable, %object
 764              		.size	__rtmsym_timer_disable, 8
 765              	__rtmsym_timer_disable:
 766 0018 00000000 		.word	timer_disable
 767 001c 00000000 		.word	__rtmsym_timer_disable_name
 768              		.section	.rodata
 769 015b 00       		.align	2
 770              	.LC7:
 771 015c 6572726F 		.ascii	"error fun name : timer_delete\012error para : timer"
 771      72206675 
 771      6E206E61 
 771      6D65203A 
 771      2074696D 
 772 018c 5F707472 		.ascii	"_ptr\012\000"
 772      0A00
 773              		.text
 774              		.align	1
 775              		.global	timer_delete
 776              		.syntax unified
 777              		.thumb
 778              		.thumb_func
 779              		.fpu softvfp
 780              		.type	timer_delete, %function
 781              	timer_delete:
 782              	.LFB20:
 194:../../source/src/kernel/OS_CORE/os_timer.c **** EXPORT_SYMBOL(timer_disable);
ARM GAS  G:\Users\Jaxb\AppData\Local\Temp\ccvDTtlW.s 			page 19


 195:../../source/src/kernel/OS_CORE/os_timer.c **** 
 196:../../source/src/kernel/OS_CORE/os_timer.c **** /**
 197:../../source/src/kernel/OS_CORE/os_timer.c ****  * This is a system function
 198:../../source/src/kernel/OS_CORE/os_timer.c ****  * @Author      kaka
 199:../../source/src/kernel/OS_CORE/os_timer.c ****  * @DateTime    2018-10-03
 200:../../source/src/kernel/OS_CORE/os_timer.c ****  * @description :	use this function to inactivate the timer and free
 201:../../source/src/kernel/OS_CORE/os_timer.c ****  * the memory if necessary
 202:../../source/src/kernel/OS_CORE/os_timer.c ****  * @param       timer_ptr  
 203:../../source/src/kernel/OS_CORE/os_timer.c ****  * @return                 
 204:../../source/src/kernel/OS_CORE/os_timer.c ****  */
 205:../../source/src/kernel/OS_CORE/os_timer.c **** int timer_delete(struct timer *timer_ptr)
 206:../../source/src/kernel/OS_CORE/os_timer.c **** {
 783              		.loc 1 206 0
 784              		.cfi_startproc
 785              		@ args = 0, pretend = 0, frame = 16
 786              		@ frame_needed = 1, uses_anonymous_args = 0
 787 0330 80B5     		push	{r7, lr}
 788              	.LCFI34:
 789              		.cfi_def_cfa_offset 8
 790              		.cfi_offset 7, -8
 791              		.cfi_offset 14, -4
 792 0332 84B0     		sub	sp, sp, #16
 793              	.LCFI35:
 794              		.cfi_def_cfa_offset 24
 795 0334 00AF     		add	r7, sp, #0
 796              	.LCFI36:
 797              		.cfi_def_cfa_register 7
 798 0336 7860     		str	r0, [r7, #4]
 207:../../source/src/kernel/OS_CORE/os_timer.c **** 	ASSERT(NULL != timer_ptr);
 799              		.loc 1 207 0
 800 0338 7B68     		ldr	r3, [r7, #4]
 801 033a 002B     		cmp	r3, #0
 802 033c 03D1     		bne	.L40
 803              		.loc 1 207 0 is_stmt 0 discriminator 1
 804 033e CF21     		movs	r1, #207
 805 0340 1348     		ldr	r0, .L45
 806 0342 FFF7FEFF 		bl	_ASSERT
 807              	.L40:
 208:../../source/src/kernel/OS_CORE/os_timer.c **** #if CONFIG_PARA_CHECK
 209:../../source/src/kernel/OS_CORE/os_timer.c **** 	if(NULL == timer_ptr)
 808              		.loc 1 209 0 is_stmt 1
 809 0346 7B68     		ldr	r3, [r7, #4]
 810 0348 002B     		cmp	r3, #0
 811 034a 05D1     		bne	.L41
 210:../../source/src/kernel/OS_CORE/os_timer.c **** 	{
 211:../../source/src/kernel/OS_CORE/os_timer.c **** 		OS_ERROR_PARA_MESSAGE_DISPLAY(timer_delete,timer_ptr);
 812              		.loc 1 211 0
 813 034c 1148     		ldr	r0, .L45+4
 814 034e FFF7FEFF 		bl	ka_printf
 212:../../source/src/kernel/OS_CORE/os_timer.c **** 		return -ERROR_NULL_INPUT_PTR;
 815              		.loc 1 212 0
 816 0352 6FF0FE03 		mvn	r3, #254
 817 0356 16E0     		b	.L42
 818              	.L41:
 213:../../source/src/kernel/OS_CORE/os_timer.c **** 	}
 214:../../source/src/kernel/OS_CORE/os_timer.c **** #endif
 215:../../source/src/kernel/OS_CORE/os_timer.c **** 	CPU_SR_ALLOC();
ARM GAS  G:\Users\Jaxb\AppData\Local\Temp\ccvDTtlW.s 			page 20


 819              		.loc 1 215 0
 820 0358 0023     		movs	r3, #0
 821 035a FB60     		str	r3, [r7, #12]
 216:../../source/src/kernel/OS_CORE/os_timer.c **** 	CPU_CRITICAL_ENTER();
 822              		.loc 1 216 0
 823 035c FFF7FEFF 		bl	CPU_SR_Save
 824 0360 F860     		str	r0, [r7, #12]
 217:../../source/src/kernel/OS_CORE/os_timer.c **** 	if(ENABLE == timer_ptr->state)
 825              		.loc 1 217 0
 826 0362 7B68     		ldr	r3, [r7, #4]
 827 0364 5B78     		ldrb	r3, [r3, #1]	@ zero_extendqisi2
 828 0366 012B     		cmp	r3, #1
 829 0368 02D1     		bne	.L43
 218:../../source/src/kernel/OS_CORE/os_timer.c **** 	{
 219:../../source/src/kernel/OS_CORE/os_timer.c **** 		timer_disable(timer_ptr);
 830              		.loc 1 219 0
 831 036a 7868     		ldr	r0, [r7, #4]
 832 036c FFF7FEFF 		bl	timer_disable
 833              	.L43:
 220:../../source/src/kernel/OS_CORE/os_timer.c **** 	}
 221:../../source/src/kernel/OS_CORE/os_timer.c **** 	if(TIMER_IS_CREAT(timer_ptr))
 834              		.loc 1 221 0
 835 0370 7B68     		ldr	r3, [r7, #4]
 836 0372 5B68     		ldr	r3, [r3, #4]
 837 0374 002B     		cmp	r3, #0
 838 0376 02DA     		bge	.L44
 222:../../source/src/kernel/OS_CORE/os_timer.c **** 	{
 223:../../source/src/kernel/OS_CORE/os_timer.c **** 		ka_free(timer_ptr);
 839              		.loc 1 223 0
 840 0378 7868     		ldr	r0, [r7, #4]
 841 037a FFF7FEFF 		bl	ka_free
 842              	.L44:
 224:../../source/src/kernel/OS_CORE/os_timer.c **** 	}
 225:../../source/src/kernel/OS_CORE/os_timer.c **** 	CPU_CRITICAL_EXIT();
 843              		.loc 1 225 0
 844 037e F868     		ldr	r0, [r7, #12]
 845 0380 FFF7FEFF 		bl	CPU_SR_Restore
 226:../../source/src/kernel/OS_CORE/os_timer.c **** 	return FUN_EXECUTE_SUCCESSFULLY;
 846              		.loc 1 226 0
 847 0384 0023     		movs	r3, #0
 848              	.L42:
 227:../../source/src/kernel/OS_CORE/os_timer.c **** }
 849              		.loc 1 227 0
 850 0386 1846     		mov	r0, r3
 851 0388 1037     		adds	r7, r7, #16
 852              	.LCFI37:
 853              		.cfi_def_cfa_offset 8
 854 038a BD46     		mov	sp, r7
 855              	.LCFI38:
 856              		.cfi_def_cfa_register 13
 857              		@ sp needed
 858 038c 80BD     		pop	{r7, pc}
 859              	.L46:
 860 038e 00BF     		.align	2
 861              	.L45:
 862 0390 2C000000 		.word	.LC1
 863 0394 5C010000 		.word	.LC7
ARM GAS  G:\Users\Jaxb\AppData\Local\Temp\ccvDTtlW.s 			page 21


 864              		.cfi_endproc
 865              	.LFE20:
 866              		.size	timer_delete, .-timer_delete
 867              		.global	__rtmsym_timer_delete_name
 868              		.section	.rodata.name
 869 003a 0000     		.align	2
 870              		.type	__rtmsym_timer_delete_name, %object
 871              		.size	__rtmsym_timer_delete_name, 13
 872              	__rtmsym_timer_delete_name:
 873 003c 74696D65 		.ascii	"timer_delete\000"
 873      725F6465 
 873      6C657465 
 873      00
 874              		.global	__rtmsym_timer_delete
 875              		.section	.RTMSymTab
 876              		.align	2
 877              		.type	__rtmsym_timer_delete, %object
 878              		.size	__rtmsym_timer_delete, 8
 879              	__rtmsym_timer_delete:
 880 0020 00000000 		.word	timer_delete
 881 0024 00000000 		.word	__rtmsym_timer_delete_name
 882              		.section	.rodata
 883 0192 0000     		.align	2
 884              	.LC8:
 885 0194 6572726F 		.ascii	"error fun name : get_timer_heap_top\012error para :"
 885      72206675 
 885      6E206E61 
 885      6D65203A 
 885      20676574 
 886 01c4 2074696D 		.ascii	" timer_ptr\012\000"
 886      65725F70 
 886      74720A00 
 887              		.text
 888              		.align	1
 889              		.global	get_timer_heap_top
 890              		.syntax unified
 891              		.thumb
 892              		.thumb_func
 893              		.fpu softvfp
 894              		.type	get_timer_heap_top, %function
 895              	get_timer_heap_top:
 896              	.LFB21:
 228:../../source/src/kernel/OS_CORE/os_timer.c **** EXPORT_SYMBOL(timer_delete);
 229:../../source/src/kernel/OS_CORE/os_timer.c **** 
 230:../../source/src/kernel/OS_CORE/os_timer.c **** /**
 231:../../source/src/kernel/OS_CORE/os_timer.c ****  * This is a system function
 232:../../source/src/kernel/OS_CORE/os_timer.c ****  * @Author      kaka
 233:../../source/src/kernel/OS_CORE/os_timer.c ****  * @DateTime    2018-10-03
 234:../../source/src/kernel/OS_CORE/os_timer.c ****  * @description :	this function is used by system tick function
 235:../../source/src/kernel/OS_CORE/os_timer.c ****  * to check if waking up the timer task is needed or not
 236:../../source/src/kernel/OS_CORE/os_timer.c ****  * @param       timer_ptr  [description]
 237:../../source/src/kernel/OS_CORE/os_timer.c ****  * @return                 [description]
 238:../../source/src/kernel/OS_CORE/os_timer.c ****  */
 239:../../source/src/kernel/OS_CORE/os_timer.c **** int get_timer_heap_top(struct timer **timer_ptr)
 240:../../source/src/kernel/OS_CORE/os_timer.c **** {
 897              		.loc 1 240 0
 898              		.cfi_startproc
ARM GAS  G:\Users\Jaxb\AppData\Local\Temp\ccvDTtlW.s 			page 22


 899              		@ args = 0, pretend = 0, frame = 16
 900              		@ frame_needed = 1, uses_anonymous_args = 0
 901 0398 80B5     		push	{r7, lr}
 902              	.LCFI39:
 903              		.cfi_def_cfa_offset 8
 904              		.cfi_offset 7, -8
 905              		.cfi_offset 14, -4
 906 039a 84B0     		sub	sp, sp, #16
 907              	.LCFI40:
 908              		.cfi_def_cfa_offset 24
 909 039c 00AF     		add	r7, sp, #0
 910              	.LCFI41:
 911              		.cfi_def_cfa_register 7
 912 039e 7860     		str	r0, [r7, #4]
 241:../../source/src/kernel/OS_CORE/os_timer.c **** 	ASSERT(NULL != timer_ptr);
 913              		.loc 1 241 0
 914 03a0 7B68     		ldr	r3, [r7, #4]
 915 03a2 002B     		cmp	r3, #0
 916 03a4 03D1     		bne	.L48
 917              		.loc 1 241 0 is_stmt 0 discriminator 1
 918 03a6 F121     		movs	r1, #241
 919 03a8 0F48     		ldr	r0, .L51
 920 03aa FFF7FEFF 		bl	_ASSERT
 921              	.L48:
 242:../../source/src/kernel/OS_CORE/os_timer.c **** #if CONFIG_PARA_CHECK
 243:../../source/src/kernel/OS_CORE/os_timer.c **** 	if(NULL == timer_ptr)
 922              		.loc 1 243 0 is_stmt 1
 923 03ae 7B68     		ldr	r3, [r7, #4]
 924 03b0 002B     		cmp	r3, #0
 925 03b2 05D1     		bne	.L49
 244:../../source/src/kernel/OS_CORE/os_timer.c **** 	{
 245:../../source/src/kernel/OS_CORE/os_timer.c **** 		OS_ERROR_PARA_MESSAGE_DISPLAY(get_timer_heap_top,timer_ptr);
 926              		.loc 1 245 0
 927 03b4 0D48     		ldr	r0, .L51+4
 928 03b6 FFF7FEFF 		bl	ka_printf
 246:../../source/src/kernel/OS_CORE/os_timer.c **** 		return -ERROR_NULL_INPUT_PTR;
 929              		.loc 1 246 0
 930 03ba 6FF0FE03 		mvn	r3, #254
 931 03be 0EE0     		b	.L50
 932              	.L49:
 247:../../source/src/kernel/OS_CORE/os_timer.c **** 	}
 248:../../source/src/kernel/OS_CORE/os_timer.c **** #endif
 249:../../source/src/kernel/OS_CORE/os_timer.c **** 	CPU_SR_ALLOC();
 933              		.loc 1 249 0
 934 03c0 0023     		movs	r3, #0
 935 03c2 FB60     		str	r3, [r7, #12]
 250:../../source/src/kernel/OS_CORE/os_timer.c **** 	CPU_CRITICAL_ENTER();
 936              		.loc 1 250 0
 937 03c4 FFF7FEFF 		bl	CPU_SR_Save
 938 03c8 F860     		str	r0, [r7, #12]
 251:../../source/src/kernel/OS_CORE/os_timer.c **** 	int ret = heap_get_top_safe(&timer_heap,(void *)timer_ptr);
 939              		.loc 1 251 0
 940 03ca 0122     		movs	r2, #1
 941 03cc 7968     		ldr	r1, [r7, #4]
 942 03ce 0848     		ldr	r0, .L51+8
 943 03d0 FFF7FEFF 		bl	heap_get_index_data_safe
 944 03d4 B860     		str	r0, [r7, #8]
ARM GAS  G:\Users\Jaxb\AppData\Local\Temp\ccvDTtlW.s 			page 23


 252:../../source/src/kernel/OS_CORE/os_timer.c **** 	CPU_CRITICAL_EXIT();
 945              		.loc 1 252 0
 946 03d6 F868     		ldr	r0, [r7, #12]
 947 03d8 FFF7FEFF 		bl	CPU_SR_Restore
 253:../../source/src/kernel/OS_CORE/os_timer.c **** 	return ret;
 948              		.loc 1 253 0
 949 03dc BB68     		ldr	r3, [r7, #8]
 950              	.L50:
 254:../../source/src/kernel/OS_CORE/os_timer.c **** }
 951              		.loc 1 254 0
 952 03de 1846     		mov	r0, r3
 953 03e0 1037     		adds	r7, r7, #16
 954              	.LCFI42:
 955              		.cfi_def_cfa_offset 8
 956 03e2 BD46     		mov	sp, r7
 957              	.LCFI43:
 958              		.cfi_def_cfa_register 13
 959              		@ sp needed
 960 03e4 80BD     		pop	{r7, pc}
 961              	.L52:
 962 03e6 00BF     		.align	2
 963              	.L51:
 964 03e8 2C000000 		.word	.LC1
 965 03ec 94010000 		.word	.LC8
 966 03f0 00000000 		.word	timer_heap
 967              		.cfi_endproc
 968              	.LFE21:
 969              		.size	get_timer_heap_top, .-get_timer_heap_top
 970              		.align	1
 971              		.global	timer_task
 972              		.syntax unified
 973              		.thumb
 974              		.thumb_func
 975              		.fpu softvfp
 976              		.type	timer_task, %function
 977              	timer_task:
 978              	.LFB22:
 255:../../source/src/kernel/OS_CORE/os_timer.c **** 
 256:../../source/src/kernel/OS_CORE/os_timer.c **** /**
 257:../../source/src/kernel/OS_CORE/os_timer.c ****  * This is a system function
 258:../../source/src/kernel/OS_CORE/os_timer.c ****  * @Author      kaka
 259:../../source/src/kernel/OS_CORE/os_timer.c ****  * @DateTime    2018-10-03
 260:../../source/src/kernel/OS_CORE/os_timer.c ****  * @description : timer task, all the works are being done in
 261:../../source/src/kernel/OS_CORE/os_timer.c ****  * this task, whose priority is 0(the max priority)
 262:../../source/src/kernel/OS_CORE/os_timer.c ****  * @param       para       [description]
 263:../../source/src/kernel/OS_CORE/os_timer.c ****  */
 264:../../source/src/kernel/OS_CORE/os_timer.c **** void timer_task(void *para)
 265:../../source/src/kernel/OS_CORE/os_timer.c **** {
 979              		.loc 1 265 0
 980              		.cfi_startproc
 981              		@ args = 0, pretend = 0, frame = 32
 982              		@ frame_needed = 1, uses_anonymous_args = 0
 983 03f4 2DE99048 		push	{r4, r7, fp, lr}
 984              	.LCFI44:
 985              		.cfi_def_cfa_offset 16
 986              		.cfi_offset 4, -16
 987              		.cfi_offset 7, -12
ARM GAS  G:\Users\Jaxb\AppData\Local\Temp\ccvDTtlW.s 			page 24


 988              		.cfi_offset 11, -8
 989              		.cfi_offset 14, -4
 990 03f8 88B0     		sub	sp, sp, #32
 991              	.LCFI45:
 992              		.cfi_def_cfa_offset 48
 993 03fa 00AF     		add	r7, sp, #0
 994              	.LCFI46:
 995              		.cfi_def_cfa_register 7
 996 03fc 7860     		str	r0, [r7, #4]
 266:../../source/src/kernel/OS_CORE/os_timer.c **** 	(void)para;
 267:../../source/src/kernel/OS_CORE/os_timer.c **** 	UINT64 tick;
 268:../../source/src/kernel/OS_CORE/os_timer.c **** 	struct timer *timer_ptr;
 269:../../source/src/kernel/OS_CORE/os_timer.c **** 	int ret = heap_get_top_safe(&timer_heap,&timer_ptr);
 997              		.loc 1 269 0
 998 03fe 07F10C03 		add	r3, r7, #12
 999 0402 0122     		movs	r2, #1
 1000 0404 1946     		mov	r1, r3
 1001 0406 3D48     		ldr	r0, .L68
 1002 0408 FFF7FEFF 		bl	heap_get_index_data_safe
 1003 040c F861     		str	r0, [r7, #28]
 1004              	.L63:
 270:../../source/src/kernel/OS_CORE/os_timer.c **** 	while(1)
 271:../../source/src/kernel/OS_CORE/os_timer.c **** 	{
 272:../../source/src/kernel/OS_CORE/os_timer.c **** 		if(ret < 0)
 1005              		.loc 1 272 0
 1006 040e FB69     		ldr	r3, [r7, #28]
 1007 0410 002B     		cmp	r3, #0
 1008 0412 03DA     		bge	.L54
 273:../../source/src/kernel/OS_CORE/os_timer.c **** 		{
 274:../../source/src/kernel/OS_CORE/os_timer.c **** 			suspend();
 1009              		.loc 1 274 0
 1010 0414 0320     		movs	r0, #3
 1011 0416 FFF7FEFF 		bl	sys_suspend
 1012 041a 65E0     		b	.L55
 1013              	.L54:
 275:../../source/src/kernel/OS_CORE/os_timer.c **** 		}
 276:../../source/src/kernel/OS_CORE/os_timer.c **** 		else
 277:../../source/src/kernel/OS_CORE/os_timer.c **** 		{
 278:../../source/src/kernel/OS_CORE/os_timer.c **** 			tick = get_tick();
 1014              		.loc 1 278 0
 1015 041c FFF7FEFF 		bl	get_tick
 1016 0420 C7E90401 		strd	r0, [r7, #16]
 279:../../source/src/kernel/OS_CORE/os_timer.c **** 			if(TIME_FIRST_SMALLER_THAN_SECOND(tick,timer_ptr->wake_time))
 1017              		.loc 1 279 0
 1018 0424 D7E904BC 		ldrd	fp, [r7, #16]
 1019 0428 FA68     		ldr	r2, [r7, #12]
 1020 042a D2E90812 		ldrd	r1, [r2, #32]
 1021 042e 5B46     		mov	r3, fp
 1022 0430 6446     		mov	r4, ip
 1023 0432 5B1A     		subs	r3, r3, r1
 1024 0434 64EB0204 		sbc	r4, r4, r2
 1025 0438 002B     		cmp	r3, #0
 1026 043a 74F10003 		sbcs	r3, r4, #0
 1027 043e 03DA     		bge	.L56
 280:../../source/src/kernel/OS_CORE/os_timer.c **** 			{
 281:../../source/src/kernel/OS_CORE/os_timer.c **** 				suspend();
 1028              		.loc 1 281 0
ARM GAS  G:\Users\Jaxb\AppData\Local\Temp\ccvDTtlW.s 			page 25


 1029 0440 0320     		movs	r0, #3
 1030 0442 FFF7FEFF 		bl	sys_suspend
 1031 0446 4FE0     		b	.L55
 1032              	.L56:
 282:../../source/src/kernel/OS_CORE/os_timer.c **** 			}
 283:../../source/src/kernel/OS_CORE/os_timer.c **** 			else
 284:../../source/src/kernel/OS_CORE/os_timer.c **** 			{
 285:../../source/src/kernel/OS_CORE/os_timer.c **** 				heap_remove_top(&timer_heap,&timer_ptr);
 1033              		.loc 1 285 0
 1034 0448 07F10C03 		add	r3, r7, #12
 1035 044c 1A46     		mov	r2, r3
 1036 044e 0121     		movs	r1, #1
 1037 0450 2A48     		ldr	r0, .L68
 1038 0452 FFF7FEFF 		bl	heap_remove_index_data
 286:../../source/src/kernel/OS_CORE/os_timer.c **** 				(timer_ptr->fun)(timer_ptr->para);
 1039              		.loc 1 286 0
 1040 0456 FB68     		ldr	r3, [r7, #12]
 1041 0458 DB68     		ldr	r3, [r3, #12]
 1042 045a FA68     		ldr	r2, [r7, #12]
 1043 045c 1269     		ldr	r2, [r2, #16]
 1044 045e 1046     		mov	r0, r2
 1045 0460 9847     		blx	r3
 1046              	.LVL0:
 287:../../source/src/kernel/OS_CORE/os_timer.c **** 				switch(timer_ptr->type)
 1047              		.loc 1 287 0
 1048 0462 FB68     		ldr	r3, [r7, #12]
 1049 0464 1B78     		ldrb	r3, [r3]	@ zero_extendqisi2
 1050 0466 012B     		cmp	r3, #1
 1051 0468 1FD0     		beq	.L58
 1052 046a 022B     		cmp	r3, #2
 1053 046c 0AD0     		beq	.L59
 1054 046e 002B     		cmp	r3, #0
 1055 0470 31D1     		bne	.L65
 288:../../source/src/kernel/OS_CORE/os_timer.c **** 				{
 289:../../source/src/kernel/OS_CORE/os_timer.c **** 					case TIMER_ONE_TIME:
 290:../../source/src/kernel/OS_CORE/os_timer.c **** 						if(TIMER_IS_CREAT(timer_ptr))
 1056              		.loc 1 290 0
 1057 0472 FB68     		ldr	r3, [r7, #12]
 1058 0474 5B68     		ldr	r3, [r3, #4]
 1059 0476 002B     		cmp	r3, #0
 1060 0478 33DA     		bge	.L66
 291:../../source/src/kernel/OS_CORE/os_timer.c **** 						{
 292:../../source/src/kernel/OS_CORE/os_timer.c **** 							ka_free(timer_ptr);
 1061              		.loc 1 292 0
 1062 047a FB68     		ldr	r3, [r7, #12]
 1063 047c 1846     		mov	r0, r3
 1064 047e FFF7FEFF 		bl	ka_free
 293:../../source/src/kernel/OS_CORE/os_timer.c **** 						}
 294:../../source/src/kernel/OS_CORE/os_timer.c **** 						break;
 1065              		.loc 1 294 0
 1066 0482 2EE0     		b	.L66
 1067              	.L59:
 295:../../source/src/kernel/OS_CORE/os_timer.c **** 					case TIMER_TIME:
 296:../../source/src/kernel/OS_CORE/os_timer.c **** 						--(timer_ptr->rest_num);
 1068              		.loc 1 296 0
 1069 0484 FB68     		ldr	r3, [r7, #12]
 1070 0486 5A68     		ldr	r2, [r3, #4]
ARM GAS  G:\Users\Jaxb\AppData\Local\Temp\ccvDTtlW.s 			page 26


 1071 0488 013A     		subs	r2, r2, #1
 1072 048a 5A60     		str	r2, [r3, #4]
 297:../../source/src/kernel/OS_CORE/os_timer.c **** 						if(0 == GET_REST_NUM(timer_ptr->rest_num))
 1073              		.loc 1 297 0
 1074 048c FB68     		ldr	r3, [r7, #12]
 1075 048e 5B68     		ldr	r3, [r3, #4]
 1076 0490 03F07F03 		and	r3, r3, #127
 1077 0494 002B     		cmp	r3, #0
 1078 0496 08D1     		bne	.L58
 298:../../source/src/kernel/OS_CORE/os_timer.c **** 						{
 299:../../source/src/kernel/OS_CORE/os_timer.c **** 							if(TIMER_IS_CREAT(timer_ptr))
 1079              		.loc 1 299 0
 1080 0498 FB68     		ldr	r3, [r7, #12]
 1081 049a 5B68     		ldr	r3, [r3, #4]
 1082 049c 002B     		cmp	r3, #0
 1083 049e 22DA     		bge	.L67
 300:../../source/src/kernel/OS_CORE/os_timer.c **** 							{
 301:../../source/src/kernel/OS_CORE/os_timer.c **** 								ka_free(timer_ptr);
 1084              		.loc 1 301 0
 1085 04a0 FB68     		ldr	r3, [r7, #12]
 1086 04a2 1846     		mov	r0, r3
 1087 04a4 FFF7FEFF 		bl	ka_free
 302:../../source/src/kernel/OS_CORE/os_timer.c **** 							}
 303:../../source/src/kernel/OS_CORE/os_timer.c **** 							break;
 1088              		.loc 1 303 0
 1089 04a8 1DE0     		b	.L67
 1090              	.L58:
 304:../../source/src/kernel/OS_CORE/os_timer.c **** 						}
 305:../../source/src/kernel/OS_CORE/os_timer.c **** 					case TIMER_PERIODIC:
 306:../../source/src/kernel/OS_CORE/os_timer.c **** 						timer_ptr->wake_time += timer_ptr->period;
 1091              		.loc 1 306 0
 1092 04aa FB68     		ldr	r3, [r7, #12]
 1093 04ac D3E90812 		ldrd	r1, [r3, #32]
 1094 04b0 FB68     		ldr	r3, [r7, #12]
 1095 04b2 5B69     		ldr	r3, [r3, #20]
 1096 04b4 9B46     		mov	fp, r3
 1097 04b6 4FF0000C 		mov	ip, #0
 1098 04ba F868     		ldr	r0, [r7, #12]
 1099 04bc 1BEB0103 		adds	r3, fp, r1
 1100 04c0 4CEB0204 		adc	r4, ip, r2
 1101 04c4 C0E90834 		strd	r3, [r0, #32]
 307:../../source/src/kernel/OS_CORE/os_timer.c **** 						heap_push(&timer_heap,&timer_ptr);
 1102              		.loc 1 307 0
 1103 04c8 07F10C03 		add	r3, r7, #12
 1104 04cc 1946     		mov	r1, r3
 1105 04ce 0B48     		ldr	r0, .L68
 1106 04d0 FFF7FEFF 		bl	heap_push
 308:../../source/src/kernel/OS_CORE/os_timer.c **** 						break;
 1107              		.loc 1 308 0
 1108 04d4 08E0     		b	.L55
 1109              	.L65:
 309:../../source/src/kernel/OS_CORE/os_timer.c **** 					default:
 310:../../source/src/kernel/OS_CORE/os_timer.c **** 						ASSERT(0);
 1110              		.loc 1 310 0 discriminator 1
 1111 04d6 4FF49B71 		mov	r1, #310
 1112 04da 0948     		ldr	r0, .L68+4
 1113 04dc FFF7FEFF 		bl	_ASSERT
ARM GAS  G:\Users\Jaxb\AppData\Local\Temp\ccvDTtlW.s 			page 27


 311:../../source/src/kernel/OS_CORE/os_timer.c **** 						break;
 1114              		.loc 1 311 0 discriminator 1
 1115 04e0 02E0     		b	.L55
 1116              	.L66:
 294:../../source/src/kernel/OS_CORE/os_timer.c **** 					case TIMER_TIME:
 1117              		.loc 1 294 0
 1118 04e2 00BF     		nop
 1119 04e4 00E0     		b	.L55
 1120              	.L67:
 303:../../source/src/kernel/OS_CORE/os_timer.c **** 						}
 1121              		.loc 1 303 0
 1122 04e6 00BF     		nop
 1123              	.L55:
 312:../../source/src/kernel/OS_CORE/os_timer.c **** 				}
 313:../../source/src/kernel/OS_CORE/os_timer.c **** 			}
 314:../../source/src/kernel/OS_CORE/os_timer.c **** 		}
 315:../../source/src/kernel/OS_CORE/os_timer.c **** 		ret = heap_get_top_safe(&timer_heap,&timer_ptr);
 1124              		.loc 1 315 0
 1125 04e8 07F10C03 		add	r3, r7, #12
 1126 04ec 0122     		movs	r2, #1
 1127 04ee 1946     		mov	r1, r3
 1128 04f0 0248     		ldr	r0, .L68
 1129 04f2 FFF7FEFF 		bl	heap_get_index_data_safe
 1130 04f6 F861     		str	r0, [r7, #28]
 272:../../source/src/kernel/OS_CORE/os_timer.c **** 		{
 1131              		.loc 1 272 0
 1132 04f8 89E7     		b	.L63
 1133              	.L69:
 1134 04fa 00BF     		.align	2
 1135              	.L68:
 1136 04fc 00000000 		.word	timer_heap
 1137 0500 2C000000 		.word	.LC1
 1138              		.cfi_endproc
 1139              	.LFE22:
 1140              		.size	timer_task, .-timer_task
 1141              	.Letext0:
 1142              		.file 2 "../../source/include/os_cpu/kakaosstdint.h"
 1143              		.file 3 "../../source/include/os_core/os_timer.h"
 1144              		.file 4 "../../source/include/os_lib/vector.h"
 1145              		.file 5 "../../source/include/os_lib/heap_oo.h"
 1146              		.file 6 "../../source/include/os_core/task_state.h"
 1147              		.file 7 "../../source/include/os_cpu/os_cpu_stm32.h"
 1148              		.file 8 "../../source/include/os_core/export.h"
 1149              		.file 9 "../../source/include/os_core/TCB.h"
 1150              		.section	.debug_info,"",%progbits
 1151              	.Ldebug_info0:
 1152 0000 6A070000 		.4byte	0x76a
 1153 0004 0200     		.2byte	0x2
 1154 0006 00000000 		.4byte	.Ldebug_abbrev0
 1155 000a 04       		.byte	0x4
 1156 000b 01       		.uleb128 0x1
 1157 000c 7A040000 		.4byte	.LASF79
 1158 0010 0C       		.byte	0xc
 1159 0011 EE030000 		.4byte	.LASF80
 1160 0015 BB010000 		.4byte	.LASF81
 1161 0019 00000000 		.4byte	.Ltext0
 1162 001d 04050000 		.4byte	.Letext0
ARM GAS  G:\Users\Jaxb\AppData\Local\Temp\ccvDTtlW.s 			page 28


 1163 0021 00000000 		.4byte	.Ldebug_line0
 1164 0025 02       		.uleb128 0x2
 1165 0026 01       		.byte	0x1
 1166 0027 06       		.byte	0x6
 1167 0028 84020000 		.4byte	.LASF0
 1168 002c 02       		.uleb128 0x2
 1169 002d 02       		.byte	0x2
 1170 002e 05       		.byte	0x5
 1171 002f 89000000 		.4byte	.LASF1
 1172 0033 03       		.uleb128 0x3
 1173 0034 04       		.byte	0x4
 1174 0035 05       		.byte	0x5
 1175 0036 696E7400 		.ascii	"int\000"
 1176 003a 04       		.uleb128 0x4
 1177 003b 33000000 		.4byte	0x33
 1178 003f 05       		.uleb128 0x5
 1179 0040 91030000 		.4byte	.LASF6
 1180 0044 02       		.byte	0x2
 1181 0045 08       		.byte	0x8
 1182 0046 4A000000 		.4byte	0x4a
 1183 004a 02       		.uleb128 0x2
 1184 004b 08       		.byte	0x8
 1185 004c 05       		.byte	0x5
 1186 004d E9010000 		.4byte	.LASF2
 1187 0051 02       		.uleb128 0x2
 1188 0052 01       		.byte	0x1
 1189 0053 08       		.byte	0x8
 1190 0054 6A020000 		.4byte	.LASF3
 1191 0058 02       		.uleb128 0x2
 1192 0059 02       		.byte	0x2
 1193 005a 07       		.byte	0x7
 1194 005b 13030000 		.4byte	.LASF4
 1195 005f 02       		.uleb128 0x2
 1196 0060 04       		.byte	0x4
 1197 0061 07       		.byte	0x7
 1198 0062 AC020000 		.4byte	.LASF5
 1199 0066 05       		.uleb128 0x5
 1200 0067 4C050000 		.4byte	.LASF7
 1201 006b 02       		.byte	0x2
 1202 006c 0D       		.byte	0xd
 1203 006d 71000000 		.4byte	0x71
 1204 0071 02       		.uleb128 0x2
 1205 0072 08       		.byte	0x8
 1206 0073 07       		.byte	0x7
 1207 0074 90020000 		.4byte	.LASF8
 1208 0078 06       		.uleb128 0x6
 1209 0079 AA000000 		.4byte	.LASF13
 1210 007d 07       		.byte	0x7
 1211 007e 01       		.byte	0x1
 1212 007f 51000000 		.4byte	0x51
 1213 0083 03       		.byte	0x3
 1214 0084 11       		.byte	0x11
 1215 0085 9C000000 		.4byte	0x9c
 1216 0089 07       		.uleb128 0x7
 1217 008a B9020000 		.4byte	.LASF9
 1218 008e 00       		.byte	0
 1219 008f 07       		.uleb128 0x7
ARM GAS  G:\Users\Jaxb\AppData\Local\Temp\ccvDTtlW.s 			page 29


 1220 0090 65050000 		.4byte	.LASF10
 1221 0094 01       		.byte	0x1
 1222 0095 07       		.uleb128 0x7
 1223 0096 6F040000 		.4byte	.LASF11
 1224 009a 02       		.byte	0x2
 1225 009b 00       		.byte	0
 1226 009c 05       		.uleb128 0x5
 1227 009d 52040000 		.4byte	.LASF12
 1228 00a1 03       		.byte	0x3
 1229 00a2 15       		.byte	0x15
 1230 00a3 78000000 		.4byte	0x78
 1231 00a7 06       		.uleb128 0x6
 1232 00a8 46040000 		.4byte	.LASF14
 1233 00ac 07       		.byte	0x7
 1234 00ad 01       		.byte	0x1
 1235 00ae 51000000 		.4byte	0x51
 1236 00b2 03       		.byte	0x3
 1237 00b3 17       		.byte	0x17
 1238 00b4 C5000000 		.4byte	0xc5
 1239 00b8 07       		.uleb128 0x7
 1240 00b9 6D010000 		.4byte	.LASF15
 1241 00bd 00       		.byte	0
 1242 00be 07       		.uleb128 0x7
 1243 00bf 53050000 		.4byte	.LASF16
 1244 00c3 01       		.byte	0x1
 1245 00c4 00       		.byte	0
 1246 00c5 05       		.uleb128 0x5
 1247 00c6 A7030000 		.4byte	.LASF17
 1248 00ca 03       		.byte	0x3
 1249 00cb 1A       		.byte	0x1a
 1250 00cc A7000000 		.4byte	0xa7
 1251 00d0 08       		.uleb128 0x8
 1252 00d1 52010000 		.4byte	.LASF27
 1253 00d5 28       		.byte	0x28
 1254 00d6 03       		.byte	0x3
 1255 00d7 1C       		.byte	0x1c
 1256 00d8 5B010000 		.4byte	0x15b
 1257 00dc 09       		.uleb128 0x9
 1258 00dd A7020000 		.4byte	.LASF18
 1259 00e1 03       		.byte	0x3
 1260 00e2 1E       		.byte	0x1e
 1261 00e3 9C000000 		.4byte	0x9c
 1262 00e7 02       		.byte	0x2
 1263 00e8 23       		.byte	0x23
 1264 00e9 00       		.uleb128 0
 1265 00ea 09       		.uleb128 0x9
 1266 00eb 7B000000 		.4byte	.LASF19
 1267 00ef 03       		.byte	0x3
 1268 00f0 1F       		.byte	0x1f
 1269 00f1 C5000000 		.4byte	0xc5
 1270 00f5 02       		.byte	0x2
 1271 00f6 23       		.byte	0x23
 1272 00f7 01       		.uleb128 0x1
 1273 00f8 09       		.uleb128 0x9
 1274 00f9 B3030000 		.4byte	.LASF20
 1275 00fd 03       		.byte	0x3
 1276 00fe 20       		.byte	0x20
ARM GAS  G:\Users\Jaxb\AppData\Local\Temp\ccvDTtlW.s 			page 30


 1277 00ff 5F000000 		.4byte	0x5f
 1278 0103 02       		.byte	0x2
 1279 0104 23       		.byte	0x23
 1280 0105 04       		.uleb128 0x4
 1281 0106 09       		.uleb128 0x9
 1282 0107 F1000000 		.4byte	.LASF21
 1283 010b 03       		.byte	0x3
 1284 010c 21       		.byte	0x21
 1285 010d 60010000 		.4byte	0x160
 1286 0111 02       		.byte	0x2
 1287 0112 23       		.byte	0x23
 1288 0113 08       		.uleb128 0x8
 1289 0114 0A       		.uleb128 0xa
 1290 0115 66756E00 		.ascii	"fun\000"
 1291 0119 03       		.byte	0x3
 1292 011a 22       		.byte	0x22
 1293 011b 80010000 		.4byte	0x180
 1294 011f 02       		.byte	0x2
 1295 0120 23       		.byte	0x23
 1296 0121 0C       		.uleb128 0xc
 1297 0122 09       		.uleb128 0x9
 1298 0123 68010000 		.4byte	.LASF22
 1299 0127 03       		.byte	0x3
 1300 0128 23       		.byte	0x23
 1301 0129 7E010000 		.4byte	0x17e
 1302 012d 02       		.byte	0x2
 1303 012e 23       		.byte	0x23
 1304 012f 10       		.uleb128 0x10
 1305 0130 09       		.uleb128 0x9
 1306 0131 3C020000 		.4byte	.LASF23
 1307 0135 03       		.byte	0x3
 1308 0136 24       		.byte	0x24
 1309 0137 5F000000 		.4byte	0x5f
 1310 013b 02       		.byte	0x2
 1311 013c 23       		.byte	0x23
 1312 013d 14       		.uleb128 0x14
 1313 013e 09       		.uleb128 0x9
 1314 013f 32030000 		.4byte	.LASF24
 1315 0143 03       		.byte	0x3
 1316 0144 25       		.byte	0x25
 1317 0145 5F000000 		.4byte	0x5f
 1318 0149 02       		.byte	0x2
 1319 014a 23       		.byte	0x23
 1320 014b 18       		.uleb128 0x18
 1321 014c 09       		.uleb128 0x9
 1322 014d 90010000 		.4byte	.LASF25
 1323 0151 03       		.byte	0x3
 1324 0152 26       		.byte	0x26
 1325 0153 66000000 		.4byte	0x66
 1326 0157 02       		.byte	0x2
 1327 0158 23       		.byte	0x23
 1328 0159 20       		.uleb128 0x20
 1329 015a 00       		.byte	0
 1330 015b 0B       		.uleb128 0xb
 1331 015c D0000000 		.4byte	0xd0
 1332 0160 0C       		.uleb128 0xc
 1333 0161 04       		.byte	0x4
ARM GAS  G:\Users\Jaxb\AppData\Local\Temp\ccvDTtlW.s 			page 31


 1334 0162 66010000 		.4byte	0x166
 1335 0166 02       		.uleb128 0x2
 1336 0167 01       		.byte	0x1
 1337 0168 08       		.byte	0x8
 1338 0169 1D020000 		.4byte	.LASF26
 1339 016d 0B       		.uleb128 0xb
 1340 016e 66010000 		.4byte	0x166
 1341 0172 0D       		.uleb128 0xd
 1342 0173 01       		.byte	0x1
 1343 0174 7E010000 		.4byte	0x17e
 1344 0178 0E       		.uleb128 0xe
 1345 0179 7E010000 		.4byte	0x17e
 1346 017d 00       		.byte	0
 1347 017e 0F       		.uleb128 0xf
 1348 017f 04       		.byte	0x4
 1349 0180 0C       		.uleb128 0xc
 1350 0181 04       		.byte	0x4
 1351 0182 72010000 		.4byte	0x172
 1352 0186 08       		.uleb128 0x8
 1353 0187 58010000 		.4byte	.LASF28
 1354 018b 14       		.byte	0x14
 1355 018c 04       		.byte	0x4
 1356 018d 08       		.byte	0x8
 1357 018e D9010000 		.4byte	0x1d9
 1358 0192 09       		.uleb128 0x9
 1359 0193 5F010000 		.4byte	.LASF29
 1360 0197 04       		.byte	0x4
 1361 0198 0A       		.byte	0xa
 1362 0199 7E010000 		.4byte	0x17e
 1363 019d 02       		.byte	0x2
 1364 019e 23       		.byte	0x23
 1365 019f 00       		.uleb128 0
 1366 01a0 09       		.uleb128 0x9
 1367 01a1 81000000 		.4byte	.LASF30
 1368 01a5 04       		.byte	0x4
 1369 01a6 0B       		.byte	0xb
 1370 01a7 5F000000 		.4byte	0x5f
 1371 01ab 02       		.byte	0x2
 1372 01ac 23       		.byte	0x23
 1373 01ad 04       		.uleb128 0x4
 1374 01ae 09       		.uleb128 0x9
 1375 01af 43020000 		.4byte	.LASF31
 1376 01b3 04       		.byte	0x4
 1377 01b4 0C       		.byte	0xc
 1378 01b5 5F000000 		.4byte	0x5f
 1379 01b9 02       		.byte	0x2
 1380 01ba 23       		.byte	0x23
 1381 01bb 08       		.uleb128 0x8
 1382 01bc 09       		.uleb128 0x9
 1383 01bd E4030000 		.4byte	.LASF32
 1384 01c1 04       		.byte	0x4
 1385 01c2 0D       		.byte	0xd
 1386 01c3 5F000000 		.4byte	0x5f
 1387 01c7 02       		.byte	0x2
 1388 01c8 23       		.byte	0x23
 1389 01c9 0C       		.uleb128 0xc
 1390 01ca 09       		.uleb128 0x9
ARM GAS  G:\Users\Jaxb\AppData\Local\Temp\ccvDTtlW.s 			page 32


 1391 01cb 60030000 		.4byte	.LASF33
 1392 01cf 04       		.byte	0x4
 1393 01d0 13       		.byte	0x13
 1394 01d1 5F000000 		.4byte	0x5f
 1395 01d5 02       		.byte	0x2
 1396 01d6 23       		.byte	0x23
 1397 01d7 10       		.uleb128 0x10
 1398 01d8 00       		.byte	0
 1399 01d9 05       		.uleb128 0x5
 1400 01da 63020000 		.4byte	.LASF34
 1401 01de 04       		.byte	0x4
 1402 01df 14       		.byte	0x14
 1403 01e0 86010000 		.4byte	0x186
 1404 01e4 08       		.uleb128 0x8
 1405 01e5 D8030000 		.4byte	.LASF35
 1406 01e9 1C       		.byte	0x1c
 1407 01ea 05       		.byte	0x5
 1408 01eb 0A       		.byte	0xa
 1409 01ec 1B020000 		.4byte	0x21b
 1410 01f0 09       		.uleb128 0x9
 1411 01f1 A2030000 		.4byte	.LASF36
 1412 01f5 05       		.byte	0x5
 1413 01f6 0D       		.byte	0xd
 1414 01f7 D9010000 		.4byte	0x1d9
 1415 01fb 02       		.byte	0x2
 1416 01fc 23       		.byte	0x23
 1417 01fd 00       		.uleb128 0
 1418 01fe 0A       		.uleb128 0xa
 1419 01ff 636D7000 		.ascii	"cmp\000"
 1420 0203 05       		.byte	0x5
 1421 0204 10       		.byte	0x10
 1422 0205 3B020000 		.4byte	0x23b
 1423 0209 02       		.byte	0x2
 1424 020a 23       		.byte	0x23
 1425 020b 14       		.uleb128 0x14
 1426 020c 09       		.uleb128 0x9
 1427 020d FC000000 		.4byte	.LASF37
 1428 0211 05       		.byte	0x5
 1429 0212 12       		.byte	0x12
 1430 0213 52020000 		.4byte	0x252
 1431 0217 02       		.byte	0x2
 1432 0218 23       		.byte	0x23
 1433 0219 18       		.uleb128 0x18
 1434 021a 00       		.byte	0
 1435 021b 10       		.uleb128 0x10
 1436 021c 01       		.byte	0x1
 1437 021d 33000000 		.4byte	0x33
 1438 0221 35020000 		.4byte	0x235
 1439 0225 0E       		.uleb128 0xe
 1440 0226 35020000 		.4byte	0x235
 1441 022a 0E       		.uleb128 0xe
 1442 022b 5F000000 		.4byte	0x5f
 1443 022f 0E       		.uleb128 0xe
 1444 0230 5F000000 		.4byte	0x5f
 1445 0234 00       		.byte	0
 1446 0235 0C       		.uleb128 0xc
 1447 0236 04       		.byte	0x4
ARM GAS  G:\Users\Jaxb\AppData\Local\Temp\ccvDTtlW.s 			page 33


 1448 0237 D9010000 		.4byte	0x1d9
 1449 023b 0C       		.uleb128 0xc
 1450 023c 04       		.byte	0x4
 1451 023d 1B020000 		.4byte	0x21b
 1452 0241 0D       		.uleb128 0xd
 1453 0242 01       		.byte	0x1
 1454 0243 52020000 		.4byte	0x252
 1455 0247 0E       		.uleb128 0xe
 1456 0248 35020000 		.4byte	0x235
 1457 024c 0E       		.uleb128 0xe
 1458 024d 33000000 		.4byte	0x33
 1459 0251 00       		.byte	0
 1460 0252 0C       		.uleb128 0xc
 1461 0253 04       		.byte	0x4
 1462 0254 41020000 		.4byte	0x241
 1463 0258 06       		.uleb128 0x6
 1464 0259 10010000 		.4byte	.LASF38
 1465 025d 07       		.byte	0x7
 1466 025e 01       		.byte	0x1
 1467 025f 51000000 		.4byte	0x51
 1468 0263 06       		.byte	0x6
 1469 0264 04       		.byte	0x4
 1470 0265 A6020000 		.4byte	0x2a6
 1471 0269 07       		.uleb128 0x7
 1472 026a 26030000 		.4byte	.LASF39
 1473 026e 01       		.byte	0x1
 1474 026f 07       		.uleb128 0x7
 1475 0270 78020000 		.4byte	.LASF40
 1476 0274 02       		.byte	0x2
 1477 0275 07       		.uleb128 0x7
 1478 0276 14000000 		.4byte	.LASF41
 1479 027a 03       		.byte	0x3
 1480 027b 07       		.uleb128 0x7
 1481 027c 2F040000 		.4byte	.LASF42
 1482 0280 04       		.byte	0x4
 1483 0281 07       		.uleb128 0x7
 1484 0282 93000000 		.4byte	.LASF43
 1485 0286 05       		.byte	0x5
 1486 0287 07       		.uleb128 0x7
 1487 0288 D0000000 		.4byte	.LASF44
 1488 028c 06       		.byte	0x6
 1489 028d 07       		.uleb128 0x7
 1490 028e 9A010000 		.4byte	.LASF45
 1491 0292 07       		.byte	0x7
 1492 0293 07       		.uleb128 0x7
 1493 0294 1B010000 		.4byte	.LASF46
 1494 0298 08       		.byte	0x8
 1495 0299 07       		.uleb128 0x7
 1496 029a 71030000 		.4byte	.LASF47
 1497 029e 09       		.byte	0x9
 1498 029f 07       		.uleb128 0x7
 1499 02a0 27050000 		.4byte	.LASF48
 1500 02a4 0A       		.byte	0xa
 1501 02a5 00       		.byte	0
 1502 02a6 11       		.uleb128 0x11
 1503 02a7 5D040000 		.4byte	.LASF54
 1504 02ab 09       		.byte	0x9
ARM GAS  G:\Users\Jaxb\AppData\Local\Temp\ccvDTtlW.s 			page 34


 1505 02ac 14       		.byte	0x14
 1506 02ad 3A000000 		.4byte	0x3a
 1507 02b1 01       		.byte	0x1
 1508 02b2 01       		.byte	0x1
 1509 02b3 05       		.uleb128 0x5
 1510 02b4 97030000 		.4byte	.LASF49
 1511 02b8 07       		.byte	0x7
 1512 02b9 06       		.byte	0x6
 1513 02ba 5F000000 		.4byte	0x5f
 1514 02be 05       		.uleb128 0x5
 1515 02bf 40050000 		.4byte	.LASF50
 1516 02c3 07       		.byte	0x7
 1517 02c4 08       		.byte	0x8
 1518 02c5 B3020000 		.4byte	0x2b3
 1519 02c9 08       		.uleb128 0x8
 1520 02ca 3B010000 		.4byte	.LASF51
 1521 02ce 08       		.byte	0x8
 1522 02cf 08       		.byte	0x8
 1523 02d0 08       		.byte	0x8
 1524 02d1 F2020000 		.4byte	0x2f2
 1525 02d5 09       		.uleb128 0x9
 1526 02d6 37020000 		.4byte	.LASF52
 1527 02da 08       		.byte	0x8
 1528 02db 0A       		.byte	0xa
 1529 02dc 7E010000 		.4byte	0x17e
 1530 02e0 02       		.byte	0x2
 1531 02e1 23       		.byte	0x23
 1532 02e2 00       		.uleb128 0
 1533 02e3 09       		.uleb128 0x9
 1534 02e4 5E020000 		.4byte	.LASF53
 1535 02e8 08       		.byte	0x8
 1536 02e9 0B       		.byte	0xb
 1537 02ea F7020000 		.4byte	0x2f7
 1538 02ee 02       		.byte	0x2
 1539 02ef 23       		.byte	0x23
 1540 02f0 04       		.uleb128 0x4
 1541 02f1 00       		.byte	0
 1542 02f2 0B       		.uleb128 0xb
 1543 02f3 C9020000 		.4byte	0x2c9
 1544 02f7 0C       		.uleb128 0xc
 1545 02f8 04       		.byte	0x4
 1546 02f9 6D010000 		.4byte	0x16d
 1547 02fd 12       		.uleb128 0x12
 1548 02fe 5A050000 		.4byte	.LASF65
 1549 0302 01       		.byte	0x1
 1550 0303 0D       		.byte	0xd
 1551 0304 E4010000 		.4byte	0x1e4
 1552 0308 05       		.byte	0x5
 1553 0309 03       		.byte	0x3
 1554 030a 00000000 		.4byte	timer_heap
 1555 030e 13       		.uleb128 0x13
 1556 030f 6D010000 		.4byte	0x16d
 1557 0313 1E030000 		.4byte	0x31e
 1558 0317 14       		.uleb128 0x14
 1559 0318 5F000000 		.4byte	0x5f
 1560 031c 0A       		.byte	0xa
 1561 031d 00       		.byte	0
ARM GAS  G:\Users\Jaxb\AppData\Local\Temp\ccvDTtlW.s 			page 35


 1562 031e 0B       		.uleb128 0xb
 1563 031f 0E030000 		.4byte	0x30e
 1564 0323 15       		.uleb128 0x15
 1565 0324 4C000000 		.4byte	.LASF55
 1566 0328 01       		.byte	0x1
 1567 0329 63       		.byte	0x63
 1568 032a 1E030000 		.4byte	0x31e
 1569 032e 01       		.byte	0x1
 1570 032f 05       		.byte	0x5
 1571 0330 03       		.byte	0x3
 1572 0331 00000000 		.4byte	__rtmsym_timer_init_name
 1573 0335 15       		.uleb128 0x15
 1574 0336 00000000 		.4byte	.LASF56
 1575 033a 01       		.byte	0x1
 1576 033b 63       		.byte	0x63
 1577 033c F2020000 		.4byte	0x2f2
 1578 0340 01       		.byte	0x1
 1579 0341 05       		.byte	0x5
 1580 0342 03       		.byte	0x3
 1581 0343 00000000 		.4byte	__rtmsym_timer_init
 1582 0347 13       		.uleb128 0x13
 1583 0348 6D010000 		.4byte	0x16d
 1584 034c 57030000 		.4byte	0x357
 1585 0350 14       		.uleb128 0x14
 1586 0351 5F000000 		.4byte	0x5f
 1587 0355 0C       		.byte	0xc
 1588 0356 00       		.byte	0
 1589 0357 0B       		.uleb128 0xb
 1590 0358 47030000 		.4byte	0x347
 1591 035c 15       		.uleb128 0x15
 1592 035d 75010000 		.4byte	.LASF57
 1593 0361 01       		.byte	0x1
 1594 0362 85       		.byte	0x85
 1595 0363 57030000 		.4byte	0x357
 1596 0367 01       		.byte	0x1
 1597 0368 05       		.byte	0x5
 1598 0369 03       		.byte	0x3
 1599 036a 00000000 		.4byte	__rtmsym_timer_create_name
 1600 036e 15       		.uleb128 0x15
 1601 036f 19040000 		.4byte	.LASF58
 1602 0373 01       		.byte	0x1
 1603 0374 85       		.byte	0x85
 1604 0375 F2020000 		.4byte	0x2f2
 1605 0379 01       		.byte	0x1
 1606 037a 05       		.byte	0x5
 1607 037b 03       		.byte	0x3
 1608 037c 00000000 		.4byte	__rtmsym_timer_create
 1609 0380 15       		.uleb128 0x15
 1610 0381 F8020000 		.4byte	.LASF59
 1611 0385 01       		.byte	0x1
 1612 0386 A2       		.byte	0xa2
 1613 0387 57030000 		.4byte	0x357
 1614 038b 01       		.byte	0x1
 1615 038c 05       		.byte	0x5
 1616 038d 03       		.byte	0x3
 1617 038e 00000000 		.4byte	__rtmsym_timer_enable_name
 1618 0392 15       		.uleb128 0x15
ARM GAS  G:\Users\Jaxb\AppData\Local\Temp\ccvDTtlW.s 			page 36


 1619 0393 65000000 		.4byte	.LASF60
 1620 0397 01       		.byte	0x1
 1621 0398 A2       		.byte	0xa2
 1622 0399 F2020000 		.4byte	0x2f2
 1623 039d 01       		.byte	0x1
 1624 039e 05       		.byte	0x5
 1625 039f 03       		.byte	0x3
 1626 03a0 00000000 		.4byte	__rtmsym_timer_enable
 1627 03a4 13       		.uleb128 0x13
 1628 03a5 6D010000 		.4byte	0x16d
 1629 03a9 B4030000 		.4byte	0x3b4
 1630 03ad 14       		.uleb128 0x14
 1631 03ae 5F000000 		.4byte	0x5f
 1632 03b2 0D       		.byte	0xd
 1633 03b3 00       		.byte	0
 1634 03b4 0B       		.uleb128 0xb
 1635 03b5 A4030000 		.4byte	0x3a4
 1636 03b9 15       		.uleb128 0x15
 1637 03ba BC030000 		.4byte	.LASF61
 1638 03be 01       		.byte	0x1
 1639 03bf C2       		.byte	0xc2
 1640 03c0 B4030000 		.4byte	0x3b4
 1641 03c4 01       		.byte	0x1
 1642 03c5 05       		.byte	0x5
 1643 03c6 03       		.byte	0x3
 1644 03c7 00000000 		.4byte	__rtmsym_timer_disable_name
 1645 03cb 15       		.uleb128 0x15
 1646 03cc C8020000 		.4byte	.LASF62
 1647 03d0 01       		.byte	0x1
 1648 03d1 C2       		.byte	0xc2
 1649 03d2 F2020000 		.4byte	0x2f2
 1650 03d6 01       		.byte	0x1
 1651 03d7 05       		.byte	0x5
 1652 03d8 03       		.byte	0x3
 1653 03d9 00000000 		.4byte	__rtmsym_timer_disable
 1654 03dd 15       		.uleb128 0x15
 1655 03de 02020000 		.4byte	.LASF63
 1656 03e2 01       		.byte	0x1
 1657 03e3 E4       		.byte	0xe4
 1658 03e4 57030000 		.4byte	0x357
 1659 03e8 01       		.byte	0x1
 1660 03e9 05       		.byte	0x5
 1661 03ea 03       		.byte	0x3
 1662 03eb 00000000 		.4byte	__rtmsym_timer_delete_name
 1663 03ef 15       		.uleb128 0x15
 1664 03f0 36000000 		.4byte	.LASF64
 1665 03f4 01       		.byte	0x1
 1666 03f5 E4       		.byte	0xe4
 1667 03f6 F2020000 		.4byte	0x2f2
 1668 03fa 01       		.byte	0x1
 1669 03fb 05       		.byte	0x5
 1670 03fc 03       		.byte	0x3
 1671 03fd 00000000 		.4byte	__rtmsym_timer_delete
 1672 0401 16       		.uleb128 0x16
 1673 0402 01       		.byte	0x1
 1674 0403 F7010000 		.4byte	.LASF82
 1675 0407 01       		.byte	0x1
ARM GAS  G:\Users\Jaxb\AppData\Local\Temp\ccvDTtlW.s 			page 37


 1676 0408 0801     		.2byte	0x108
 1677 040a 01       		.byte	0x1
 1678 040b F4030000 		.4byte	.LFB22
 1679 040f 04050000 		.4byte	.LFE22
 1680 0413 00000000 		.4byte	.LLST9
 1681 0417 01       		.byte	0x1
 1682 0418 59040000 		.4byte	0x459
 1683 041c 17       		.uleb128 0x17
 1684 041d 68010000 		.4byte	.LASF22
 1685 0421 01       		.byte	0x1
 1686 0422 0801     		.2byte	0x108
 1687 0424 7E010000 		.4byte	0x17e
 1688 0428 02       		.byte	0x2
 1689 0429 91       		.byte	0x91
 1690 042a 54       		.sleb128 -44
 1691 042b 18       		.uleb128 0x18
 1692 042c 47050000 		.4byte	.LASF66
 1693 0430 01       		.byte	0x1
 1694 0431 0B01     		.2byte	0x10b
 1695 0433 66000000 		.4byte	0x66
 1696 0437 02       		.byte	0x2
 1697 0438 91       		.byte	0x91
 1698 0439 60       		.sleb128 -32
 1699 043a 18       		.uleb128 0x18
 1700 043b 2D020000 		.4byte	.LASF67
 1701 043f 01       		.byte	0x1
 1702 0440 0C01     		.2byte	0x10c
 1703 0442 59040000 		.4byte	0x459
 1704 0446 02       		.byte	0x2
 1705 0447 91       		.byte	0x91
 1706 0448 5C       		.sleb128 -36
 1707 0449 19       		.uleb128 0x19
 1708 044a 72657400 		.ascii	"ret\000"
 1709 044e 01       		.byte	0x1
 1710 044f 0D01     		.2byte	0x10d
 1711 0451 33000000 		.4byte	0x33
 1712 0455 02       		.byte	0x2
 1713 0456 91       		.byte	0x91
 1714 0457 6C       		.sleb128 -20
 1715 0458 00       		.byte	0
 1716 0459 0C       		.uleb128 0xc
 1717 045a 04       		.byte	0x4
 1718 045b D0000000 		.4byte	0xd0
 1719 045f 1A       		.uleb128 0x1a
 1720 0460 01       		.byte	0x1
 1721 0461 4B020000 		.4byte	.LASF69
 1722 0465 01       		.byte	0x1
 1723 0466 EF       		.byte	0xef
 1724 0467 01       		.byte	0x1
 1725 0468 33000000 		.4byte	0x33
 1726 046c 98030000 		.4byte	.LFB21
 1727 0470 F4030000 		.4byte	.LFE21
 1728 0474 38000000 		.4byte	.LLST8
 1729 0478 01       		.byte	0x1
 1730 0479 A8040000 		.4byte	0x4a8
 1731 047d 1B       		.uleb128 0x1b
 1732 047e 2D020000 		.4byte	.LASF67
ARM GAS  G:\Users\Jaxb\AppData\Local\Temp\ccvDTtlW.s 			page 38


 1733 0482 01       		.byte	0x1
 1734 0483 EF       		.byte	0xef
 1735 0484 A8040000 		.4byte	0x4a8
 1736 0488 02       		.byte	0x2
 1737 0489 91       		.byte	0x91
 1738 048a 6C       		.sleb128 -20
 1739 048b 12       		.uleb128 0x12
 1740 048c 20050000 		.4byte	.LASF68
 1741 0490 01       		.byte	0x1
 1742 0491 F9       		.byte	0xf9
 1743 0492 BE020000 		.4byte	0x2be
 1744 0496 02       		.byte	0x2
 1745 0497 91       		.byte	0x91
 1746 0498 74       		.sleb128 -12
 1747 0499 1C       		.uleb128 0x1c
 1748 049a 72657400 		.ascii	"ret\000"
 1749 049e 01       		.byte	0x1
 1750 049f FB       		.byte	0xfb
 1751 04a0 33000000 		.4byte	0x33
 1752 04a4 02       		.byte	0x2
 1753 04a5 91       		.byte	0x91
 1754 04a6 70       		.sleb128 -16
 1755 04a7 00       		.byte	0
 1756 04a8 0C       		.uleb128 0xc
 1757 04a9 04       		.byte	0x4
 1758 04aa 59040000 		.4byte	0x459
 1759 04ae 1A       		.uleb128 0x1a
 1760 04af 01       		.byte	0x1
 1761 04b0 46030000 		.4byte	.LASF70
 1762 04b4 01       		.byte	0x1
 1763 04b5 CD       		.byte	0xcd
 1764 04b6 01       		.byte	0x1
 1765 04b7 33000000 		.4byte	0x33
 1766 04bb 30030000 		.4byte	.LFB20
 1767 04bf 98030000 		.4byte	.LFE20
 1768 04c3 88000000 		.4byte	.LLST7
 1769 04c7 01       		.byte	0x1
 1770 04c8 E9040000 		.4byte	0x4e9
 1771 04cc 1B       		.uleb128 0x1b
 1772 04cd 2D020000 		.4byte	.LASF67
 1773 04d1 01       		.byte	0x1
 1774 04d2 CD       		.byte	0xcd
 1775 04d3 59040000 		.4byte	0x459
 1776 04d7 02       		.byte	0x2
 1777 04d8 91       		.byte	0x91
 1778 04d9 6C       		.sleb128 -20
 1779 04da 12       		.uleb128 0x12
 1780 04db 20050000 		.4byte	.LASF68
 1781 04df 01       		.byte	0x1
 1782 04e0 D7       		.byte	0xd7
 1783 04e1 BE020000 		.4byte	0x2be
 1784 04e5 02       		.byte	0x2
 1785 04e6 91       		.byte	0x91
 1786 04e7 74       		.sleb128 -12
 1787 04e8 00       		.byte	0
 1788 04e9 1A       		.uleb128 0x1a
 1789 04ea 01       		.byte	0x1
ARM GAS  G:\Users\Jaxb\AppData\Local\Temp\ccvDTtlW.s 			page 39


 1790 04eb EA020000 		.4byte	.LASF71
 1791 04ef 01       		.byte	0x1
 1792 04f0 AC       		.byte	0xac
 1793 04f1 01       		.byte	0x1
 1794 04f2 33000000 		.4byte	0x33
 1795 04f6 BC020000 		.4byte	.LFB19
 1796 04fa 30030000 		.4byte	.LFE19
 1797 04fe D8000000 		.4byte	.LLST6
 1798 0502 01       		.byte	0x1
 1799 0503 32050000 		.4byte	0x532
 1800 0507 1B       		.uleb128 0x1b
 1801 0508 2D020000 		.4byte	.LASF67
 1802 050c 01       		.byte	0x1
 1803 050d AC       		.byte	0xac
 1804 050e 59040000 		.4byte	0x459
 1805 0512 02       		.byte	0x2
 1806 0513 91       		.byte	0x91
 1807 0514 6C       		.sleb128 -20
 1808 0515 12       		.uleb128 0x12
 1809 0516 20050000 		.4byte	.LASF68
 1810 051a 01       		.byte	0x1
 1811 051b B6       		.byte	0xb6
 1812 051c BE020000 		.4byte	0x2be
 1813 0520 02       		.byte	0x2
 1814 0521 91       		.byte	0x91
 1815 0522 74       		.sleb128 -12
 1816 0523 1C       		.uleb128 0x1c
 1817 0524 72657400 		.ascii	"ret\000"
 1818 0528 01       		.byte	0x1
 1819 0529 B8       		.byte	0xb8
 1820 052a 33000000 		.4byte	0x33
 1821 052e 02       		.byte	0x2
 1822 052f 91       		.byte	0x91
 1823 0530 70       		.sleb128 -16
 1824 0531 00       		.byte	0
 1825 0532 1A       		.uleb128 0x1a
 1826 0533 01       		.byte	0x1
 1827 0534 53030000 		.4byte	.LASF72
 1828 0538 01       		.byte	0x1
 1829 0539 90       		.byte	0x90
 1830 053a 01       		.byte	0x1
 1831 053b 33000000 		.4byte	0x33
 1832 053f 34020000 		.4byte	.LFB18
 1833 0543 BC020000 		.4byte	.LFE18
 1834 0547 28010000 		.4byte	.LLST5
 1835 054b 01       		.byte	0x1
 1836 054c 7B050000 		.4byte	0x57b
 1837 0550 1B       		.uleb128 0x1b
 1838 0551 2D020000 		.4byte	.LASF67
 1839 0555 01       		.byte	0x1
 1840 0556 90       		.byte	0x90
 1841 0557 59040000 		.4byte	0x459
 1842 055b 02       		.byte	0x2
 1843 055c 91       		.byte	0x91
 1844 055d 5C       		.sleb128 -36
 1845 055e 12       		.uleb128 0x12
 1846 055f 20050000 		.4byte	.LASF68
ARM GAS  G:\Users\Jaxb\AppData\Local\Temp\ccvDTtlW.s 			page 40


 1847 0563 01       		.byte	0x1
 1848 0564 9A       		.byte	0x9a
 1849 0565 BE020000 		.4byte	0x2be
 1850 0569 02       		.byte	0x2
 1851 056a 91       		.byte	0x91
 1852 056b 64       		.sleb128 -28
 1853 056c 1C       		.uleb128 0x1c
 1854 056d 72657400 		.ascii	"ret\000"
 1855 0571 01       		.byte	0x1
 1856 0572 9E       		.byte	0x9e
 1857 0573 33000000 		.4byte	0x33
 1858 0577 02       		.byte	0x2
 1859 0578 91       		.byte	0x91
 1860 0579 60       		.sleb128 -32
 1861 057a 00       		.byte	0
 1862 057b 1A       		.uleb128 0x1a
 1863 057c 01       		.byte	0x1
 1864 057d B5000000 		.4byte	.LASF73
 1865 0581 01       		.byte	0x1
 1866 0582 6B       		.byte	0x6b
 1867 0583 01       		.byte	0x1
 1868 0584 33000000 		.4byte	0x33
 1869 0588 C8010000 		.4byte	.LFB17
 1870 058c 34020000 		.4byte	.LFE17
 1871 0590 78010000 		.4byte	.LLST4
 1872 0594 01       		.byte	0x1
 1873 0595 18060000 		.4byte	0x618
 1874 0599 1B       		.uleb128 0x1b
 1875 059a 2D020000 		.4byte	.LASF67
 1876 059e 01       		.byte	0x1
 1877 059f 6C       		.byte	0x6c
 1878 05a0 A8040000 		.4byte	0x4a8
 1879 05a4 02       		.byte	0x2
 1880 05a5 91       		.byte	0x91
 1881 05a6 6C       		.sleb128 -20
 1882 05a7 1B       		.uleb128 0x1b
 1883 05a8 A7020000 		.4byte	.LASF18
 1884 05ac 01       		.byte	0x1
 1885 05ad 6D       		.byte	0x6d
 1886 05ae 9C000000 		.4byte	0x9c
 1887 05b2 02       		.byte	0x2
 1888 05b3 91       		.byte	0x91
 1889 05b4 6B       		.sleb128 -21
 1890 05b5 1B       		.uleb128 0x1b
 1891 05b6 5E020000 		.4byte	.LASF53
 1892 05ba 01       		.byte	0x1
 1893 05bb 6E       		.byte	0x6e
 1894 05bc 60010000 		.4byte	0x160
 1895 05c0 02       		.byte	0x2
 1896 05c1 91       		.byte	0x91
 1897 05c2 64       		.sleb128 -28
 1898 05c3 1D       		.uleb128 0x1d
 1899 05c4 66756E00 		.ascii	"fun\000"
 1900 05c8 01       		.byte	0x1
 1901 05c9 6F       		.byte	0x6f
 1902 05ca 80010000 		.4byte	0x180
 1903 05ce 02       		.byte	0x2
ARM GAS  G:\Users\Jaxb\AppData\Local\Temp\ccvDTtlW.s 			page 41


 1904 05cf 91       		.byte	0x91
 1905 05d0 60       		.sleb128 -32
 1906 05d1 1B       		.uleb128 0x1b
 1907 05d2 68010000 		.4byte	.LASF22
 1908 05d6 01       		.byte	0x1
 1909 05d7 70       		.byte	0x70
 1910 05d8 7E010000 		.4byte	0x17e
 1911 05dc 02       		.byte	0x2
 1912 05dd 91       		.byte	0x91
 1913 05de 00       		.sleb128 0
 1914 05df 1B       		.uleb128 0x1b
 1915 05e0 3C020000 		.4byte	.LASF23
 1916 05e4 01       		.byte	0x1
 1917 05e5 71       		.byte	0x71
 1918 05e6 5F000000 		.4byte	0x5f
 1919 05ea 02       		.byte	0x2
 1920 05eb 91       		.byte	0x91
 1921 05ec 04       		.sleb128 4
 1922 05ed 1D       		.uleb128 0x1d
 1923 05ee 6E756D00 		.ascii	"num\000"
 1924 05f2 01       		.byte	0x1
 1925 05f3 72       		.byte	0x72
 1926 05f4 5F000000 		.4byte	0x5f
 1927 05f8 02       		.byte	0x2
 1928 05f9 91       		.byte	0x91
 1929 05fa 08       		.sleb128 8
 1930 05fb 1C       		.uleb128 0x1c
 1931 05fc 70747200 		.ascii	"ptr\000"
 1932 0600 01       		.byte	0x1
 1933 0601 74       		.byte	0x74
 1934 0602 59040000 		.4byte	0x459
 1935 0606 02       		.byte	0x2
 1936 0607 91       		.byte	0x91
 1937 0608 74       		.sleb128 -12
 1938 0609 12       		.uleb128 0x12
 1939 060a 20050000 		.4byte	.LASF68
 1940 060e 01       		.byte	0x1
 1941 060f 7E       		.byte	0x7e
 1942 0610 BE020000 		.4byte	0x2be
 1943 0614 02       		.byte	0x2
 1944 0615 91       		.byte	0x91
 1945 0616 70       		.sleb128 -16
 1946 0617 00       		.byte	0
 1947 0618 1A       		.uleb128 0x1a
 1948 0619 01       		.byte	0x1
 1949 061a 22020000 		.4byte	.LASF74
 1950 061e 01       		.byte	0x1
 1951 061f 3F       		.byte	0x3f
 1952 0620 01       		.byte	0x1
 1953 0621 33000000 		.4byte	0x33
 1954 0625 08010000 		.4byte	.LFB16
 1955 0629 C8010000 		.4byte	.LFE16
 1956 062d C8010000 		.4byte	.LLST3
 1957 0631 01       		.byte	0x1
 1958 0632 A7060000 		.4byte	0x6a7
 1959 0636 1B       		.uleb128 0x1b
 1960 0637 2D020000 		.4byte	.LASF67
ARM GAS  G:\Users\Jaxb\AppData\Local\Temp\ccvDTtlW.s 			page 42


 1961 063b 01       		.byte	0x1
 1962 063c 40       		.byte	0x40
 1963 063d 59040000 		.4byte	0x459
 1964 0641 02       		.byte	0x2
 1965 0642 91       		.byte	0x91
 1966 0643 6C       		.sleb128 -20
 1967 0644 1B       		.uleb128 0x1b
 1968 0645 A7020000 		.4byte	.LASF18
 1969 0649 01       		.byte	0x1
 1970 064a 41       		.byte	0x41
 1971 064b 9C000000 		.4byte	0x9c
 1972 064f 02       		.byte	0x2
 1973 0650 91       		.byte	0x91
 1974 0651 6B       		.sleb128 -21
 1975 0652 1B       		.uleb128 0x1b
 1976 0653 5E020000 		.4byte	.LASF53
 1977 0657 01       		.byte	0x1
 1978 0658 42       		.byte	0x42
 1979 0659 60010000 		.4byte	0x160
 1980 065d 02       		.byte	0x2
 1981 065e 91       		.byte	0x91
 1982 065f 64       		.sleb128 -28
 1983 0660 1D       		.uleb128 0x1d
 1984 0661 66756E00 		.ascii	"fun\000"
 1985 0665 01       		.byte	0x1
 1986 0666 43       		.byte	0x43
 1987 0667 80010000 		.4byte	0x180
 1988 066b 02       		.byte	0x2
 1989 066c 91       		.byte	0x91
 1990 066d 60       		.sleb128 -32
 1991 066e 1B       		.uleb128 0x1b
 1992 066f 68010000 		.4byte	.LASF22
 1993 0673 01       		.byte	0x1
 1994 0674 44       		.byte	0x44
 1995 0675 7E010000 		.4byte	0x17e
 1996 0679 02       		.byte	0x2
 1997 067a 91       		.byte	0x91
 1998 067b 00       		.sleb128 0
 1999 067c 1B       		.uleb128 0x1b
 2000 067d 3C020000 		.4byte	.LASF23
 2001 0681 01       		.byte	0x1
 2002 0682 45       		.byte	0x45
 2003 0683 5F000000 		.4byte	0x5f
 2004 0687 02       		.byte	0x2
 2005 0688 91       		.byte	0x91
 2006 0689 04       		.sleb128 4
 2007 068a 1D       		.uleb128 0x1d
 2008 068b 6E756D00 		.ascii	"num\000"
 2009 068f 01       		.byte	0x1
 2010 0690 46       		.byte	0x46
 2011 0691 5F000000 		.4byte	0x5f
 2012 0695 02       		.byte	0x2
 2013 0696 91       		.byte	0x91
 2014 0697 08       		.sleb128 8
 2015 0698 12       		.uleb128 0x12
 2016 0699 20050000 		.4byte	.LASF68
 2017 069d 01       		.byte	0x1
ARM GAS  G:\Users\Jaxb\AppData\Local\Temp\ccvDTtlW.s 			page 43


 2018 069e 52       		.byte	0x52
 2019 069f BE020000 		.4byte	0x2be
 2020 06a3 02       		.byte	0x2
 2021 06a4 91       		.byte	0x91
 2022 06a5 74       		.sleb128 -12
 2023 06a6 00       		.byte	0
 2024 06a7 1E       		.uleb128 0x1e
 2025 06a8 01       		.byte	0x1
 2026 06a9 29000000 		.4byte	.LASF83
 2027 06ad 01       		.byte	0x1
 2028 06ae 2F       		.byte	0x2f
 2029 06af 01       		.byte	0x1
 2030 06b0 CE000000 		.4byte	.LFB15
 2031 06b4 08010000 		.4byte	.LFE15
 2032 06b8 18020000 		.4byte	.LLST2
 2033 06bc 01       		.byte	0x1
 2034 06bd 1F       		.uleb128 0x1f
 2035 06be FC000000 		.4byte	.LASF37
 2036 06c2 01       		.byte	0x1
 2037 06c3 22       		.byte	0x22
 2038 06c4 01       		.byte	0x1
 2039 06c5 A8000000 		.4byte	.LFB14
 2040 06c9 CE000000 		.4byte	.LFE14
 2041 06cd 5C020000 		.4byte	.LLST1
 2042 06d1 01       		.byte	0x1
 2043 06d2 01070000 		.4byte	0x701
 2044 06d6 1B       		.uleb128 0x1b
 2045 06d7 DF020000 		.4byte	.LASF75
 2046 06db 01       		.byte	0x1
 2047 06dc 22       		.byte	0x22
 2048 06dd 35020000 		.4byte	0x235
 2049 06e1 02       		.byte	0x2
 2050 06e2 91       		.byte	0x91
 2051 06e3 6C       		.sleb128 -20
 2052 06e4 1B       		.uleb128 0x1b
 2053 06e5 4C010000 		.4byte	.LASF76
 2054 06e9 01       		.byte	0x1
 2055 06ea 22       		.byte	0x22
 2056 06eb 33000000 		.4byte	0x33
 2057 06ef 02       		.byte	0x2
 2058 06f0 91       		.byte	0x91
 2059 06f1 68       		.sleb128 -24
 2060 06f2 12       		.uleb128 0x12
 2061 06f3 2D020000 		.4byte	.LASF67
 2062 06f7 01       		.byte	0x1
 2063 06f8 24       		.byte	0x24
 2064 06f9 59040000 		.4byte	0x459
 2065 06fd 02       		.byte	0x2
 2066 06fe 91       		.byte	0x91
 2067 06ff 74       		.sleb128 -12
 2068 0700 00       		.byte	0
 2069 0701 20       		.uleb128 0x20
 2070 0702 636D7000 		.ascii	"cmp\000"
 2071 0706 01       		.byte	0x1
 2072 0707 0F       		.byte	0xf
 2073 0708 01       		.byte	0x1
 2074 0709 33000000 		.4byte	0x33
ARM GAS  G:\Users\Jaxb\AppData\Local\Temp\ccvDTtlW.s 			page 44


 2075 070d 00000000 		.4byte	.LFB13
 2076 0711 A8000000 		.4byte	.LFE13
 2077 0715 AC020000 		.4byte	.LLST0
 2078 0719 01       		.byte	0x1
 2079 071a 61070000 		.4byte	0x761
 2080 071e 1B       		.uleb128 0x1b
 2081 071f DF020000 		.4byte	.LASF75
 2082 0723 01       		.byte	0x1
 2083 0724 0F       		.byte	0xf
 2084 0725 35020000 		.4byte	0x235
 2085 0729 02       		.byte	0x2
 2086 072a 91       		.byte	0x91
 2087 072b 64       		.sleb128 -28
 2088 072c 1B       		.uleb128 0x1b
 2089 072d C2000000 		.4byte	.LASF77
 2090 0731 01       		.byte	0x1
 2091 0732 0F       		.byte	0xf
 2092 0733 5F000000 		.4byte	0x5f
 2093 0737 02       		.byte	0x2
 2094 0738 91       		.byte	0x91
 2095 0739 60       		.sleb128 -32
 2096 073a 1B       		.uleb128 0x1b
 2097 073b C9000000 		.4byte	.LASF78
 2098 073f 01       		.byte	0x1
 2099 0740 0F       		.byte	0xf
 2100 0741 5F000000 		.4byte	0x5f
 2101 0745 02       		.byte	0x2
 2102 0746 91       		.byte	0x91
 2103 0747 5C       		.sleb128 -36
 2104 0748 1C       		.uleb128 0x1c
 2105 0749 6100     		.ascii	"a\000"
 2106 074b 01       		.byte	0x1
 2107 074c 11       		.byte	0x11
 2108 074d 61070000 		.4byte	0x761
 2109 0751 02       		.byte	0x2
 2110 0752 91       		.byte	0x91
 2111 0753 6C       		.sleb128 -20
 2112 0754 1C       		.uleb128 0x1c
 2113 0755 6200     		.ascii	"b\000"
 2114 0757 01       		.byte	0x1
 2115 0758 11       		.byte	0x11
 2116 0759 61070000 		.4byte	0x761
 2117 075d 02       		.byte	0x2
 2118 075e 91       		.byte	0x91
 2119 075f 68       		.sleb128 -24
 2120 0760 00       		.byte	0
 2121 0761 0C       		.uleb128 0xc
 2122 0762 04       		.byte	0x4
 2123 0763 67070000 		.4byte	0x767
 2124 0767 0C       		.uleb128 0xc
 2125 0768 04       		.byte	0x4
 2126 0769 5B010000 		.4byte	0x15b
 2127 076d 00       		.byte	0
 2128              		.section	.debug_abbrev,"",%progbits
 2129              	.Ldebug_abbrev0:
 2130 0000 01       		.uleb128 0x1
 2131 0001 11       		.uleb128 0x11
ARM GAS  G:\Users\Jaxb\AppData\Local\Temp\ccvDTtlW.s 			page 45


 2132 0002 01       		.byte	0x1
 2133 0003 25       		.uleb128 0x25
 2134 0004 0E       		.uleb128 0xe
 2135 0005 13       		.uleb128 0x13
 2136 0006 0B       		.uleb128 0xb
 2137 0007 03       		.uleb128 0x3
 2138 0008 0E       		.uleb128 0xe
 2139 0009 1B       		.uleb128 0x1b
 2140 000a 0E       		.uleb128 0xe
 2141 000b 11       		.uleb128 0x11
 2142 000c 01       		.uleb128 0x1
 2143 000d 12       		.uleb128 0x12
 2144 000e 01       		.uleb128 0x1
 2145 000f 10       		.uleb128 0x10
 2146 0010 06       		.uleb128 0x6
 2147 0011 00       		.byte	0
 2148 0012 00       		.byte	0
 2149 0013 02       		.uleb128 0x2
 2150 0014 24       		.uleb128 0x24
 2151 0015 00       		.byte	0
 2152 0016 0B       		.uleb128 0xb
 2153 0017 0B       		.uleb128 0xb
 2154 0018 3E       		.uleb128 0x3e
 2155 0019 0B       		.uleb128 0xb
 2156 001a 03       		.uleb128 0x3
 2157 001b 0E       		.uleb128 0xe
 2158 001c 00       		.byte	0
 2159 001d 00       		.byte	0
 2160 001e 03       		.uleb128 0x3
 2161 001f 24       		.uleb128 0x24
 2162 0020 00       		.byte	0
 2163 0021 0B       		.uleb128 0xb
 2164 0022 0B       		.uleb128 0xb
 2165 0023 3E       		.uleb128 0x3e
 2166 0024 0B       		.uleb128 0xb
 2167 0025 03       		.uleb128 0x3
 2168 0026 08       		.uleb128 0x8
 2169 0027 00       		.byte	0
 2170 0028 00       		.byte	0
 2171 0029 04       		.uleb128 0x4
 2172 002a 35       		.uleb128 0x35
 2173 002b 00       		.byte	0
 2174 002c 49       		.uleb128 0x49
 2175 002d 13       		.uleb128 0x13
 2176 002e 00       		.byte	0
 2177 002f 00       		.byte	0
 2178 0030 05       		.uleb128 0x5
 2179 0031 16       		.uleb128 0x16
 2180 0032 00       		.byte	0
 2181 0033 03       		.uleb128 0x3
 2182 0034 0E       		.uleb128 0xe
 2183 0035 3A       		.uleb128 0x3a
 2184 0036 0B       		.uleb128 0xb
 2185 0037 3B       		.uleb128 0x3b
 2186 0038 0B       		.uleb128 0xb
 2187 0039 49       		.uleb128 0x49
 2188 003a 13       		.uleb128 0x13
ARM GAS  G:\Users\Jaxb\AppData\Local\Temp\ccvDTtlW.s 			page 46


 2189 003b 00       		.byte	0
 2190 003c 00       		.byte	0
 2191 003d 06       		.uleb128 0x6
 2192 003e 04       		.uleb128 0x4
 2193 003f 01       		.byte	0x1
 2194 0040 03       		.uleb128 0x3
 2195 0041 0E       		.uleb128 0xe
 2196 0042 3E       		.uleb128 0x3e
 2197 0043 0B       		.uleb128 0xb
 2198 0044 0B       		.uleb128 0xb
 2199 0045 0B       		.uleb128 0xb
 2200 0046 49       		.uleb128 0x49
 2201 0047 13       		.uleb128 0x13
 2202 0048 3A       		.uleb128 0x3a
 2203 0049 0B       		.uleb128 0xb
 2204 004a 3B       		.uleb128 0x3b
 2205 004b 0B       		.uleb128 0xb
 2206 004c 01       		.uleb128 0x1
 2207 004d 13       		.uleb128 0x13
 2208 004e 00       		.byte	0
 2209 004f 00       		.byte	0
 2210 0050 07       		.uleb128 0x7
 2211 0051 28       		.uleb128 0x28
 2212 0052 00       		.byte	0
 2213 0053 03       		.uleb128 0x3
 2214 0054 0E       		.uleb128 0xe
 2215 0055 1C       		.uleb128 0x1c
 2216 0056 0B       		.uleb128 0xb
 2217 0057 00       		.byte	0
 2218 0058 00       		.byte	0
 2219 0059 08       		.uleb128 0x8
 2220 005a 13       		.uleb128 0x13
 2221 005b 01       		.byte	0x1
 2222 005c 03       		.uleb128 0x3
 2223 005d 0E       		.uleb128 0xe
 2224 005e 0B       		.uleb128 0xb
 2225 005f 0B       		.uleb128 0xb
 2226 0060 3A       		.uleb128 0x3a
 2227 0061 0B       		.uleb128 0xb
 2228 0062 3B       		.uleb128 0x3b
 2229 0063 0B       		.uleb128 0xb
 2230 0064 01       		.uleb128 0x1
 2231 0065 13       		.uleb128 0x13
 2232 0066 00       		.byte	0
 2233 0067 00       		.byte	0
 2234 0068 09       		.uleb128 0x9
 2235 0069 0D       		.uleb128 0xd
 2236 006a 00       		.byte	0
 2237 006b 03       		.uleb128 0x3
 2238 006c 0E       		.uleb128 0xe
 2239 006d 3A       		.uleb128 0x3a
 2240 006e 0B       		.uleb128 0xb
 2241 006f 3B       		.uleb128 0x3b
 2242 0070 0B       		.uleb128 0xb
 2243 0071 49       		.uleb128 0x49
 2244 0072 13       		.uleb128 0x13
 2245 0073 38       		.uleb128 0x38
ARM GAS  G:\Users\Jaxb\AppData\Local\Temp\ccvDTtlW.s 			page 47


 2246 0074 0A       		.uleb128 0xa
 2247 0075 00       		.byte	0
 2248 0076 00       		.byte	0
 2249 0077 0A       		.uleb128 0xa
 2250 0078 0D       		.uleb128 0xd
 2251 0079 00       		.byte	0
 2252 007a 03       		.uleb128 0x3
 2253 007b 08       		.uleb128 0x8
 2254 007c 3A       		.uleb128 0x3a
 2255 007d 0B       		.uleb128 0xb
 2256 007e 3B       		.uleb128 0x3b
 2257 007f 0B       		.uleb128 0xb
 2258 0080 49       		.uleb128 0x49
 2259 0081 13       		.uleb128 0x13
 2260 0082 38       		.uleb128 0x38
 2261 0083 0A       		.uleb128 0xa
 2262 0084 00       		.byte	0
 2263 0085 00       		.byte	0
 2264 0086 0B       		.uleb128 0xb
 2265 0087 26       		.uleb128 0x26
 2266 0088 00       		.byte	0
 2267 0089 49       		.uleb128 0x49
 2268 008a 13       		.uleb128 0x13
 2269 008b 00       		.byte	0
 2270 008c 00       		.byte	0
 2271 008d 0C       		.uleb128 0xc
 2272 008e 0F       		.uleb128 0xf
 2273 008f 00       		.byte	0
 2274 0090 0B       		.uleb128 0xb
 2275 0091 0B       		.uleb128 0xb
 2276 0092 49       		.uleb128 0x49
 2277 0093 13       		.uleb128 0x13
 2278 0094 00       		.byte	0
 2279 0095 00       		.byte	0
 2280 0096 0D       		.uleb128 0xd
 2281 0097 15       		.uleb128 0x15
 2282 0098 01       		.byte	0x1
 2283 0099 27       		.uleb128 0x27
 2284 009a 0C       		.uleb128 0xc
 2285 009b 01       		.uleb128 0x1
 2286 009c 13       		.uleb128 0x13
 2287 009d 00       		.byte	0
 2288 009e 00       		.byte	0
 2289 009f 0E       		.uleb128 0xe
 2290 00a0 05       		.uleb128 0x5
 2291 00a1 00       		.byte	0
 2292 00a2 49       		.uleb128 0x49
 2293 00a3 13       		.uleb128 0x13
 2294 00a4 00       		.byte	0
 2295 00a5 00       		.byte	0
 2296 00a6 0F       		.uleb128 0xf
 2297 00a7 0F       		.uleb128 0xf
 2298 00a8 00       		.byte	0
 2299 00a9 0B       		.uleb128 0xb
 2300 00aa 0B       		.uleb128 0xb
 2301 00ab 00       		.byte	0
 2302 00ac 00       		.byte	0
ARM GAS  G:\Users\Jaxb\AppData\Local\Temp\ccvDTtlW.s 			page 48


 2303 00ad 10       		.uleb128 0x10
 2304 00ae 15       		.uleb128 0x15
 2305 00af 01       		.byte	0x1
 2306 00b0 27       		.uleb128 0x27
 2307 00b1 0C       		.uleb128 0xc
 2308 00b2 49       		.uleb128 0x49
 2309 00b3 13       		.uleb128 0x13
 2310 00b4 01       		.uleb128 0x1
 2311 00b5 13       		.uleb128 0x13
 2312 00b6 00       		.byte	0
 2313 00b7 00       		.byte	0
 2314 00b8 11       		.uleb128 0x11
 2315 00b9 34       		.uleb128 0x34
 2316 00ba 00       		.byte	0
 2317 00bb 03       		.uleb128 0x3
 2318 00bc 0E       		.uleb128 0xe
 2319 00bd 3A       		.uleb128 0x3a
 2320 00be 0B       		.uleb128 0xb
 2321 00bf 3B       		.uleb128 0x3b
 2322 00c0 0B       		.uleb128 0xb
 2323 00c1 49       		.uleb128 0x49
 2324 00c2 13       		.uleb128 0x13
 2325 00c3 3F       		.uleb128 0x3f
 2326 00c4 0C       		.uleb128 0xc
 2327 00c5 3C       		.uleb128 0x3c
 2328 00c6 0C       		.uleb128 0xc
 2329 00c7 00       		.byte	0
 2330 00c8 00       		.byte	0
 2331 00c9 12       		.uleb128 0x12
 2332 00ca 34       		.uleb128 0x34
 2333 00cb 00       		.byte	0
 2334 00cc 03       		.uleb128 0x3
 2335 00cd 0E       		.uleb128 0xe
 2336 00ce 3A       		.uleb128 0x3a
 2337 00cf 0B       		.uleb128 0xb
 2338 00d0 3B       		.uleb128 0x3b
 2339 00d1 0B       		.uleb128 0xb
 2340 00d2 49       		.uleb128 0x49
 2341 00d3 13       		.uleb128 0x13
 2342 00d4 02       		.uleb128 0x2
 2343 00d5 0A       		.uleb128 0xa
 2344 00d6 00       		.byte	0
 2345 00d7 00       		.byte	0
 2346 00d8 13       		.uleb128 0x13
 2347 00d9 01       		.uleb128 0x1
 2348 00da 01       		.byte	0x1
 2349 00db 49       		.uleb128 0x49
 2350 00dc 13       		.uleb128 0x13
 2351 00dd 01       		.uleb128 0x1
 2352 00de 13       		.uleb128 0x13
 2353 00df 00       		.byte	0
 2354 00e0 00       		.byte	0
 2355 00e1 14       		.uleb128 0x14
 2356 00e2 21       		.uleb128 0x21
 2357 00e3 00       		.byte	0
 2358 00e4 49       		.uleb128 0x49
 2359 00e5 13       		.uleb128 0x13
ARM GAS  G:\Users\Jaxb\AppData\Local\Temp\ccvDTtlW.s 			page 49


 2360 00e6 2F       		.uleb128 0x2f
 2361 00e7 0B       		.uleb128 0xb
 2362 00e8 00       		.byte	0
 2363 00e9 00       		.byte	0
 2364 00ea 15       		.uleb128 0x15
 2365 00eb 34       		.uleb128 0x34
 2366 00ec 00       		.byte	0
 2367 00ed 03       		.uleb128 0x3
 2368 00ee 0E       		.uleb128 0xe
 2369 00ef 3A       		.uleb128 0x3a
 2370 00f0 0B       		.uleb128 0xb
 2371 00f1 3B       		.uleb128 0x3b
 2372 00f2 0B       		.uleb128 0xb
 2373 00f3 49       		.uleb128 0x49
 2374 00f4 13       		.uleb128 0x13
 2375 00f5 3F       		.uleb128 0x3f
 2376 00f6 0C       		.uleb128 0xc
 2377 00f7 02       		.uleb128 0x2
 2378 00f8 0A       		.uleb128 0xa
 2379 00f9 00       		.byte	0
 2380 00fa 00       		.byte	0
 2381 00fb 16       		.uleb128 0x16
 2382 00fc 2E       		.uleb128 0x2e
 2383 00fd 01       		.byte	0x1
 2384 00fe 3F       		.uleb128 0x3f
 2385 00ff 0C       		.uleb128 0xc
 2386 0100 03       		.uleb128 0x3
 2387 0101 0E       		.uleb128 0xe
 2388 0102 3A       		.uleb128 0x3a
 2389 0103 0B       		.uleb128 0xb
 2390 0104 3B       		.uleb128 0x3b
 2391 0105 05       		.uleb128 0x5
 2392 0106 27       		.uleb128 0x27
 2393 0107 0C       		.uleb128 0xc
 2394 0108 11       		.uleb128 0x11
 2395 0109 01       		.uleb128 0x1
 2396 010a 12       		.uleb128 0x12
 2397 010b 01       		.uleb128 0x1
 2398 010c 40       		.uleb128 0x40
 2399 010d 06       		.uleb128 0x6
 2400 010e 9642     		.uleb128 0x2116
 2401 0110 0C       		.uleb128 0xc
 2402 0111 01       		.uleb128 0x1
 2403 0112 13       		.uleb128 0x13
 2404 0113 00       		.byte	0
 2405 0114 00       		.byte	0
 2406 0115 17       		.uleb128 0x17
 2407 0116 05       		.uleb128 0x5
 2408 0117 00       		.byte	0
 2409 0118 03       		.uleb128 0x3
 2410 0119 0E       		.uleb128 0xe
 2411 011a 3A       		.uleb128 0x3a
 2412 011b 0B       		.uleb128 0xb
 2413 011c 3B       		.uleb128 0x3b
 2414 011d 05       		.uleb128 0x5
 2415 011e 49       		.uleb128 0x49
 2416 011f 13       		.uleb128 0x13
ARM GAS  G:\Users\Jaxb\AppData\Local\Temp\ccvDTtlW.s 			page 50


 2417 0120 02       		.uleb128 0x2
 2418 0121 0A       		.uleb128 0xa
 2419 0122 00       		.byte	0
 2420 0123 00       		.byte	0
 2421 0124 18       		.uleb128 0x18
 2422 0125 34       		.uleb128 0x34
 2423 0126 00       		.byte	0
 2424 0127 03       		.uleb128 0x3
 2425 0128 0E       		.uleb128 0xe
 2426 0129 3A       		.uleb128 0x3a
 2427 012a 0B       		.uleb128 0xb
 2428 012b 3B       		.uleb128 0x3b
 2429 012c 05       		.uleb128 0x5
 2430 012d 49       		.uleb128 0x49
 2431 012e 13       		.uleb128 0x13
 2432 012f 02       		.uleb128 0x2
 2433 0130 0A       		.uleb128 0xa
 2434 0131 00       		.byte	0
 2435 0132 00       		.byte	0
 2436 0133 19       		.uleb128 0x19
 2437 0134 34       		.uleb128 0x34
 2438 0135 00       		.byte	0
 2439 0136 03       		.uleb128 0x3
 2440 0137 08       		.uleb128 0x8
 2441 0138 3A       		.uleb128 0x3a
 2442 0139 0B       		.uleb128 0xb
 2443 013a 3B       		.uleb128 0x3b
 2444 013b 05       		.uleb128 0x5
 2445 013c 49       		.uleb128 0x49
 2446 013d 13       		.uleb128 0x13
 2447 013e 02       		.uleb128 0x2
 2448 013f 0A       		.uleb128 0xa
 2449 0140 00       		.byte	0
 2450 0141 00       		.byte	0
 2451 0142 1A       		.uleb128 0x1a
 2452 0143 2E       		.uleb128 0x2e
 2453 0144 01       		.byte	0x1
 2454 0145 3F       		.uleb128 0x3f
 2455 0146 0C       		.uleb128 0xc
 2456 0147 03       		.uleb128 0x3
 2457 0148 0E       		.uleb128 0xe
 2458 0149 3A       		.uleb128 0x3a
 2459 014a 0B       		.uleb128 0xb
 2460 014b 3B       		.uleb128 0x3b
 2461 014c 0B       		.uleb128 0xb
 2462 014d 27       		.uleb128 0x27
 2463 014e 0C       		.uleb128 0xc
 2464 014f 49       		.uleb128 0x49
 2465 0150 13       		.uleb128 0x13
 2466 0151 11       		.uleb128 0x11
 2467 0152 01       		.uleb128 0x1
 2468 0153 12       		.uleb128 0x12
 2469 0154 01       		.uleb128 0x1
 2470 0155 40       		.uleb128 0x40
 2471 0156 06       		.uleb128 0x6
 2472 0157 9642     		.uleb128 0x2116
 2473 0159 0C       		.uleb128 0xc
ARM GAS  G:\Users\Jaxb\AppData\Local\Temp\ccvDTtlW.s 			page 51


 2474 015a 01       		.uleb128 0x1
 2475 015b 13       		.uleb128 0x13
 2476 015c 00       		.byte	0
 2477 015d 00       		.byte	0
 2478 015e 1B       		.uleb128 0x1b
 2479 015f 05       		.uleb128 0x5
 2480 0160 00       		.byte	0
 2481 0161 03       		.uleb128 0x3
 2482 0162 0E       		.uleb128 0xe
 2483 0163 3A       		.uleb128 0x3a
 2484 0164 0B       		.uleb128 0xb
 2485 0165 3B       		.uleb128 0x3b
 2486 0166 0B       		.uleb128 0xb
 2487 0167 49       		.uleb128 0x49
 2488 0168 13       		.uleb128 0x13
 2489 0169 02       		.uleb128 0x2
 2490 016a 0A       		.uleb128 0xa
 2491 016b 00       		.byte	0
 2492 016c 00       		.byte	0
 2493 016d 1C       		.uleb128 0x1c
 2494 016e 34       		.uleb128 0x34
 2495 016f 00       		.byte	0
 2496 0170 03       		.uleb128 0x3
 2497 0171 08       		.uleb128 0x8
 2498 0172 3A       		.uleb128 0x3a
 2499 0173 0B       		.uleb128 0xb
 2500 0174 3B       		.uleb128 0x3b
 2501 0175 0B       		.uleb128 0xb
 2502 0176 49       		.uleb128 0x49
 2503 0177 13       		.uleb128 0x13
 2504 0178 02       		.uleb128 0x2
 2505 0179 0A       		.uleb128 0xa
 2506 017a 00       		.byte	0
 2507 017b 00       		.byte	0
 2508 017c 1D       		.uleb128 0x1d
 2509 017d 05       		.uleb128 0x5
 2510 017e 00       		.byte	0
 2511 017f 03       		.uleb128 0x3
 2512 0180 08       		.uleb128 0x8
 2513 0181 3A       		.uleb128 0x3a
 2514 0182 0B       		.uleb128 0xb
 2515 0183 3B       		.uleb128 0x3b
 2516 0184 0B       		.uleb128 0xb
 2517 0185 49       		.uleb128 0x49
 2518 0186 13       		.uleb128 0x13
 2519 0187 02       		.uleb128 0x2
 2520 0188 0A       		.uleb128 0xa
 2521 0189 00       		.byte	0
 2522 018a 00       		.byte	0
 2523 018b 1E       		.uleb128 0x1e
 2524 018c 2E       		.uleb128 0x2e
 2525 018d 00       		.byte	0
 2526 018e 3F       		.uleb128 0x3f
 2527 018f 0C       		.uleb128 0xc
 2528 0190 03       		.uleb128 0x3
 2529 0191 0E       		.uleb128 0xe
 2530 0192 3A       		.uleb128 0x3a
ARM GAS  G:\Users\Jaxb\AppData\Local\Temp\ccvDTtlW.s 			page 52


 2531 0193 0B       		.uleb128 0xb
 2532 0194 3B       		.uleb128 0x3b
 2533 0195 0B       		.uleb128 0xb
 2534 0196 27       		.uleb128 0x27
 2535 0197 0C       		.uleb128 0xc
 2536 0198 11       		.uleb128 0x11
 2537 0199 01       		.uleb128 0x1
 2538 019a 12       		.uleb128 0x12
 2539 019b 01       		.uleb128 0x1
 2540 019c 40       		.uleb128 0x40
 2541 019d 06       		.uleb128 0x6
 2542 019e 9642     		.uleb128 0x2116
 2543 01a0 0C       		.uleb128 0xc
 2544 01a1 00       		.byte	0
 2545 01a2 00       		.byte	0
 2546 01a3 1F       		.uleb128 0x1f
 2547 01a4 2E       		.uleb128 0x2e
 2548 01a5 01       		.byte	0x1
 2549 01a6 03       		.uleb128 0x3
 2550 01a7 0E       		.uleb128 0xe
 2551 01a8 3A       		.uleb128 0x3a
 2552 01a9 0B       		.uleb128 0xb
 2553 01aa 3B       		.uleb128 0x3b
 2554 01ab 0B       		.uleb128 0xb
 2555 01ac 27       		.uleb128 0x27
 2556 01ad 0C       		.uleb128 0xc
 2557 01ae 11       		.uleb128 0x11
 2558 01af 01       		.uleb128 0x1
 2559 01b0 12       		.uleb128 0x12
 2560 01b1 01       		.uleb128 0x1
 2561 01b2 40       		.uleb128 0x40
 2562 01b3 06       		.uleb128 0x6
 2563 01b4 9642     		.uleb128 0x2116
 2564 01b6 0C       		.uleb128 0xc
 2565 01b7 01       		.uleb128 0x1
 2566 01b8 13       		.uleb128 0x13
 2567 01b9 00       		.byte	0
 2568 01ba 00       		.byte	0
 2569 01bb 20       		.uleb128 0x20
 2570 01bc 2E       		.uleb128 0x2e
 2571 01bd 01       		.byte	0x1
 2572 01be 03       		.uleb128 0x3
 2573 01bf 08       		.uleb128 0x8
 2574 01c0 3A       		.uleb128 0x3a
 2575 01c1 0B       		.uleb128 0xb
 2576 01c2 3B       		.uleb128 0x3b
 2577 01c3 0B       		.uleb128 0xb
 2578 01c4 27       		.uleb128 0x27
 2579 01c5 0C       		.uleb128 0xc
 2580 01c6 49       		.uleb128 0x49
 2581 01c7 13       		.uleb128 0x13
 2582 01c8 11       		.uleb128 0x11
 2583 01c9 01       		.uleb128 0x1
 2584 01ca 12       		.uleb128 0x12
 2585 01cb 01       		.uleb128 0x1
 2586 01cc 40       		.uleb128 0x40
 2587 01cd 06       		.uleb128 0x6
ARM GAS  G:\Users\Jaxb\AppData\Local\Temp\ccvDTtlW.s 			page 53


 2588 01ce 9642     		.uleb128 0x2116
 2589 01d0 0C       		.uleb128 0xc
 2590 01d1 01       		.uleb128 0x1
 2591 01d2 13       		.uleb128 0x13
 2592 01d3 00       		.byte	0
 2593 01d4 00       		.byte	0
 2594 01d5 00       		.byte	0
 2595              		.section	.debug_loc,"",%progbits
 2596              	.Ldebug_loc0:
 2597              	.LLST9:
 2598 0000 F4030000 		.4byte	.LFB22-.Ltext0
 2599 0004 F8030000 		.4byte	.LCFI44-.Ltext0
 2600 0008 0200     		.2byte	0x2
 2601 000a 7D       		.byte	0x7d
 2602 000b 00       		.sleb128 0
 2603 000c F8030000 		.4byte	.LCFI44-.Ltext0
 2604 0010 FA030000 		.4byte	.LCFI45-.Ltext0
 2605 0014 0200     		.2byte	0x2
 2606 0016 7D       		.byte	0x7d
 2607 0017 10       		.sleb128 16
 2608 0018 FA030000 		.4byte	.LCFI45-.Ltext0
 2609 001c FC030000 		.4byte	.LCFI46-.Ltext0
 2610 0020 0200     		.2byte	0x2
 2611 0022 7D       		.byte	0x7d
 2612 0023 30       		.sleb128 48
 2613 0024 FC030000 		.4byte	.LCFI46-.Ltext0
 2614 0028 04050000 		.4byte	.LFE22-.Ltext0
 2615 002c 0200     		.2byte	0x2
 2616 002e 77       		.byte	0x77
 2617 002f 30       		.sleb128 48
 2618 0030 00000000 		.4byte	0
 2619 0034 00000000 		.4byte	0
 2620              	.LLST8:
 2621 0038 98030000 		.4byte	.LFB21-.Ltext0
 2622 003c 9A030000 		.4byte	.LCFI39-.Ltext0
 2623 0040 0200     		.2byte	0x2
 2624 0042 7D       		.byte	0x7d
 2625 0043 00       		.sleb128 0
 2626 0044 9A030000 		.4byte	.LCFI39-.Ltext0
 2627 0048 9C030000 		.4byte	.LCFI40-.Ltext0
 2628 004c 0200     		.2byte	0x2
 2629 004e 7D       		.byte	0x7d
 2630 004f 08       		.sleb128 8
 2631 0050 9C030000 		.4byte	.LCFI40-.Ltext0
 2632 0054 9E030000 		.4byte	.LCFI41-.Ltext0
 2633 0058 0200     		.2byte	0x2
 2634 005a 7D       		.byte	0x7d
 2635 005b 18       		.sleb128 24
 2636 005c 9E030000 		.4byte	.LCFI41-.Ltext0
 2637 0060 E2030000 		.4byte	.LCFI42-.Ltext0
 2638 0064 0200     		.2byte	0x2
 2639 0066 77       		.byte	0x77
 2640 0067 18       		.sleb128 24
 2641 0068 E2030000 		.4byte	.LCFI42-.Ltext0
 2642 006c E4030000 		.4byte	.LCFI43-.Ltext0
 2643 0070 0200     		.2byte	0x2
 2644 0072 77       		.byte	0x77
ARM GAS  G:\Users\Jaxb\AppData\Local\Temp\ccvDTtlW.s 			page 54


 2645 0073 08       		.sleb128 8
 2646 0074 E4030000 		.4byte	.LCFI43-.Ltext0
 2647 0078 F4030000 		.4byte	.LFE21-.Ltext0
 2648 007c 0200     		.2byte	0x2
 2649 007e 7D       		.byte	0x7d
 2650 007f 08       		.sleb128 8
 2651 0080 00000000 		.4byte	0
 2652 0084 00000000 		.4byte	0
 2653              	.LLST7:
 2654 0088 30030000 		.4byte	.LFB20-.Ltext0
 2655 008c 32030000 		.4byte	.LCFI34-.Ltext0
 2656 0090 0200     		.2byte	0x2
 2657 0092 7D       		.byte	0x7d
 2658 0093 00       		.sleb128 0
 2659 0094 32030000 		.4byte	.LCFI34-.Ltext0
 2660 0098 34030000 		.4byte	.LCFI35-.Ltext0
 2661 009c 0200     		.2byte	0x2
 2662 009e 7D       		.byte	0x7d
 2663 009f 08       		.sleb128 8
 2664 00a0 34030000 		.4byte	.LCFI35-.Ltext0
 2665 00a4 36030000 		.4byte	.LCFI36-.Ltext0
 2666 00a8 0200     		.2byte	0x2
 2667 00aa 7D       		.byte	0x7d
 2668 00ab 18       		.sleb128 24
 2669 00ac 36030000 		.4byte	.LCFI36-.Ltext0
 2670 00b0 8A030000 		.4byte	.LCFI37-.Ltext0
 2671 00b4 0200     		.2byte	0x2
 2672 00b6 77       		.byte	0x77
 2673 00b7 18       		.sleb128 24
 2674 00b8 8A030000 		.4byte	.LCFI37-.Ltext0
 2675 00bc 8C030000 		.4byte	.LCFI38-.Ltext0
 2676 00c0 0200     		.2byte	0x2
 2677 00c2 77       		.byte	0x77
 2678 00c3 08       		.sleb128 8
 2679 00c4 8C030000 		.4byte	.LCFI38-.Ltext0
 2680 00c8 98030000 		.4byte	.LFE20-.Ltext0
 2681 00cc 0200     		.2byte	0x2
 2682 00ce 7D       		.byte	0x7d
 2683 00cf 08       		.sleb128 8
 2684 00d0 00000000 		.4byte	0
 2685 00d4 00000000 		.4byte	0
 2686              	.LLST6:
 2687 00d8 BC020000 		.4byte	.LFB19-.Ltext0
 2688 00dc BE020000 		.4byte	.LCFI29-.Ltext0
 2689 00e0 0200     		.2byte	0x2
 2690 00e2 7D       		.byte	0x7d
 2691 00e3 00       		.sleb128 0
 2692 00e4 BE020000 		.4byte	.LCFI29-.Ltext0
 2693 00e8 C0020000 		.4byte	.LCFI30-.Ltext0
 2694 00ec 0200     		.2byte	0x2
 2695 00ee 7D       		.byte	0x7d
 2696 00ef 08       		.sleb128 8
 2697 00f0 C0020000 		.4byte	.LCFI30-.Ltext0
 2698 00f4 C2020000 		.4byte	.LCFI31-.Ltext0
 2699 00f8 0200     		.2byte	0x2
 2700 00fa 7D       		.byte	0x7d
 2701 00fb 18       		.sleb128 24
ARM GAS  G:\Users\Jaxb\AppData\Local\Temp\ccvDTtlW.s 			page 55


 2702 00fc C2020000 		.4byte	.LCFI31-.Ltext0
 2703 0100 20030000 		.4byte	.LCFI32-.Ltext0
 2704 0104 0200     		.2byte	0x2
 2705 0106 77       		.byte	0x77
 2706 0107 18       		.sleb128 24
 2707 0108 20030000 		.4byte	.LCFI32-.Ltext0
 2708 010c 22030000 		.4byte	.LCFI33-.Ltext0
 2709 0110 0200     		.2byte	0x2
 2710 0112 77       		.byte	0x77
 2711 0113 08       		.sleb128 8
 2712 0114 22030000 		.4byte	.LCFI33-.Ltext0
 2713 0118 30030000 		.4byte	.LFE19-.Ltext0
 2714 011c 0200     		.2byte	0x2
 2715 011e 7D       		.byte	0x7d
 2716 011f 08       		.sleb128 8
 2717 0120 00000000 		.4byte	0
 2718 0124 00000000 		.4byte	0
 2719              	.LLST5:
 2720 0128 34020000 		.4byte	.LFB18-.Ltext0
 2721 012c 38020000 		.4byte	.LCFI24-.Ltext0
 2722 0130 0200     		.2byte	0x2
 2723 0132 7D       		.byte	0x7d
 2724 0133 00       		.sleb128 0
 2725 0134 38020000 		.4byte	.LCFI24-.Ltext0
 2726 0138 3A020000 		.4byte	.LCFI25-.Ltext0
 2727 013c 0200     		.2byte	0x2
 2728 013e 7D       		.byte	0x7d
 2729 013f 14       		.sleb128 20
 2730 0140 3A020000 		.4byte	.LCFI25-.Ltext0
 2731 0144 3C020000 		.4byte	.LCFI26-.Ltext0
 2732 0148 0200     		.2byte	0x2
 2733 014a 7D       		.byte	0x7d
 2734 014b 28       		.sleb128 40
 2735 014c 3C020000 		.4byte	.LCFI26-.Ltext0
 2736 0150 AA020000 		.4byte	.LCFI27-.Ltext0
 2737 0154 0200     		.2byte	0x2
 2738 0156 77       		.byte	0x77
 2739 0157 28       		.sleb128 40
 2740 0158 AA020000 		.4byte	.LCFI27-.Ltext0
 2741 015c AC020000 		.4byte	.LCFI28-.Ltext0
 2742 0160 0200     		.2byte	0x2
 2743 0162 77       		.byte	0x77
 2744 0163 14       		.sleb128 20
 2745 0164 AC020000 		.4byte	.LCFI28-.Ltext0
 2746 0168 BC020000 		.4byte	.LFE18-.Ltext0
 2747 016c 0200     		.2byte	0x2
 2748 016e 7D       		.byte	0x7d
 2749 016f 14       		.sleb128 20
 2750 0170 00000000 		.4byte	0
 2751 0174 00000000 		.4byte	0
 2752              	.LLST4:
 2753 0178 C8010000 		.4byte	.LFB17-.Ltext0
 2754 017c CA010000 		.4byte	.LCFI19-.Ltext0
 2755 0180 0200     		.2byte	0x2
 2756 0182 7D       		.byte	0x7d
 2757 0183 00       		.sleb128 0
 2758 0184 CA010000 		.4byte	.LCFI19-.Ltext0
ARM GAS  G:\Users\Jaxb\AppData\Local\Temp\ccvDTtlW.s 			page 56


 2759 0188 CC010000 		.4byte	.LCFI20-.Ltext0
 2760 018c 0200     		.2byte	0x2
 2761 018e 7D       		.byte	0x7d
 2762 018f 08       		.sleb128 8
 2763 0190 CC010000 		.4byte	.LCFI20-.Ltext0
 2764 0194 CE010000 		.4byte	.LCFI21-.Ltext0
 2765 0198 0200     		.2byte	0x2
 2766 019a 7D       		.byte	0x7d
 2767 019b 30       		.sleb128 48
 2768 019c CE010000 		.4byte	.LCFI21-.Ltext0
 2769 01a0 30020000 		.4byte	.LCFI22-.Ltext0
 2770 01a4 0200     		.2byte	0x2
 2771 01a6 77       		.byte	0x77
 2772 01a7 20       		.sleb128 32
 2773 01a8 30020000 		.4byte	.LCFI22-.Ltext0
 2774 01ac 32020000 		.4byte	.LCFI23-.Ltext0
 2775 01b0 0200     		.2byte	0x2
 2776 01b2 77       		.byte	0x77
 2777 01b3 08       		.sleb128 8
 2778 01b4 32020000 		.4byte	.LCFI23-.Ltext0
 2779 01b8 34020000 		.4byte	.LFE17-.Ltext0
 2780 01bc 0200     		.2byte	0x2
 2781 01be 7D       		.byte	0x7d
 2782 01bf 08       		.sleb128 8
 2783 01c0 00000000 		.4byte	0
 2784 01c4 00000000 		.4byte	0
 2785              	.LLST3:
 2786 01c8 08010000 		.4byte	.LFB16-.Ltext0
 2787 01cc 0A010000 		.4byte	.LCFI14-.Ltext0
 2788 01d0 0200     		.2byte	0x2
 2789 01d2 7D       		.byte	0x7d
 2790 01d3 00       		.sleb128 0
 2791 01d4 0A010000 		.4byte	.LCFI14-.Ltext0
 2792 01d8 0C010000 		.4byte	.LCFI15-.Ltext0
 2793 01dc 0200     		.2byte	0x2
 2794 01de 7D       		.byte	0x7d
 2795 01df 08       		.sleb128 8
 2796 01e0 0C010000 		.4byte	.LCFI15-.Ltext0
 2797 01e4 0E010000 		.4byte	.LCFI16-.Ltext0
 2798 01e8 0200     		.2byte	0x2
 2799 01ea 7D       		.byte	0x7d
 2800 01eb 20       		.sleb128 32
 2801 01ec 0E010000 		.4byte	.LCFI16-.Ltext0
 2802 01f0 B0010000 		.4byte	.LCFI17-.Ltext0
 2803 01f4 0200     		.2byte	0x2
 2804 01f6 77       		.byte	0x77
 2805 01f7 20       		.sleb128 32
 2806 01f8 B0010000 		.4byte	.LCFI17-.Ltext0
 2807 01fc B2010000 		.4byte	.LCFI18-.Ltext0
 2808 0200 0200     		.2byte	0x2
 2809 0202 77       		.byte	0x77
 2810 0203 08       		.sleb128 8
 2811 0204 B2010000 		.4byte	.LCFI18-.Ltext0
 2812 0208 C8010000 		.4byte	.LFE16-.Ltext0
 2813 020c 0200     		.2byte	0x2
 2814 020e 7D       		.byte	0x7d
 2815 020f 08       		.sleb128 8
ARM GAS  G:\Users\Jaxb\AppData\Local\Temp\ccvDTtlW.s 			page 57


 2816 0210 00000000 		.4byte	0
 2817 0214 00000000 		.4byte	0
 2818              	.LLST2:
 2819 0218 CE000000 		.4byte	.LFB15-.Ltext0
 2820 021c D0000000 		.4byte	.LCFI10-.Ltext0
 2821 0220 0200     		.2byte	0x2
 2822 0222 7D       		.byte	0x7d
 2823 0223 00       		.sleb128 0
 2824 0224 D0000000 		.4byte	.LCFI10-.Ltext0
 2825 0228 D2000000 		.4byte	.LCFI11-.Ltext0
 2826 022c 0200     		.2byte	0x2
 2827 022e 7D       		.byte	0x7d
 2828 022f 08       		.sleb128 8
 2829 0230 D2000000 		.4byte	.LCFI11-.Ltext0
 2830 0234 D4000000 		.4byte	.LCFI12-.Ltext0
 2831 0238 0200     		.2byte	0x2
 2832 023a 7D       		.byte	0x7d
 2833 023b 10       		.sleb128 16
 2834 023c D4000000 		.4byte	.LCFI12-.Ltext0
 2835 0240 F6000000 		.4byte	.LCFI13-.Ltext0
 2836 0244 0200     		.2byte	0x2
 2837 0246 77       		.byte	0x77
 2838 0247 08       		.sleb128 8
 2839 0248 F6000000 		.4byte	.LCFI13-.Ltext0
 2840 024c 08010000 		.4byte	.LFE15-.Ltext0
 2841 0250 0200     		.2byte	0x2
 2842 0252 7D       		.byte	0x7d
 2843 0253 08       		.sleb128 8
 2844 0254 00000000 		.4byte	0
 2845 0258 00000000 		.4byte	0
 2846              	.LLST1:
 2847 025c A8000000 		.4byte	.LFB14-.Ltext0
 2848 0260 AA000000 		.4byte	.LCFI5-.Ltext0
 2849 0264 0200     		.2byte	0x2
 2850 0266 7D       		.byte	0x7d
 2851 0267 00       		.sleb128 0
 2852 0268 AA000000 		.4byte	.LCFI5-.Ltext0
 2853 026c AC000000 		.4byte	.LCFI6-.Ltext0
 2854 0270 0200     		.2byte	0x2
 2855 0272 7D       		.byte	0x7d
 2856 0273 08       		.sleb128 8
 2857 0274 AC000000 		.4byte	.LCFI6-.Ltext0
 2858 0278 AE000000 		.4byte	.LCFI7-.Ltext0
 2859 027c 0200     		.2byte	0x2
 2860 027e 7D       		.byte	0x7d
 2861 027f 18       		.sleb128 24
 2862 0280 AE000000 		.4byte	.LCFI7-.Ltext0
 2863 0284 CA000000 		.4byte	.LCFI8-.Ltext0
 2864 0288 0200     		.2byte	0x2
 2865 028a 77       		.byte	0x77
 2866 028b 18       		.sleb128 24
 2867 028c CA000000 		.4byte	.LCFI8-.Ltext0
 2868 0290 CC000000 		.4byte	.LCFI9-.Ltext0
 2869 0294 0200     		.2byte	0x2
 2870 0296 77       		.byte	0x77
 2871 0297 08       		.sleb128 8
 2872 0298 CC000000 		.4byte	.LCFI9-.Ltext0
ARM GAS  G:\Users\Jaxb\AppData\Local\Temp\ccvDTtlW.s 			page 58


 2873 029c CE000000 		.4byte	.LFE14-.Ltext0
 2874 02a0 0200     		.2byte	0x2
 2875 02a2 7D       		.byte	0x7d
 2876 02a3 08       		.sleb128 8
 2877 02a4 00000000 		.4byte	0
 2878 02a8 00000000 		.4byte	0
 2879              	.LLST0:
 2880 02ac 00000000 		.4byte	.LFB13-.Ltext0
 2881 02b0 04000000 		.4byte	.LCFI0-.Ltext0
 2882 02b4 0200     		.2byte	0x2
 2883 02b6 7D       		.byte	0x7d
 2884 02b7 00       		.sleb128 0
 2885 02b8 04000000 		.4byte	.LCFI0-.Ltext0
 2886 02bc 06000000 		.4byte	.LCFI1-.Ltext0
 2887 02c0 0200     		.2byte	0x2
 2888 02c2 7D       		.byte	0x7d
 2889 02c3 10       		.sleb128 16
 2890 02c4 06000000 		.4byte	.LCFI1-.Ltext0
 2891 02c8 08000000 		.4byte	.LCFI2-.Ltext0
 2892 02cc 0200     		.2byte	0x2
 2893 02ce 7D       		.byte	0x7d
 2894 02cf 28       		.sleb128 40
 2895 02d0 08000000 		.4byte	.LCFI2-.Ltext0
 2896 02d4 A2000000 		.4byte	.LCFI3-.Ltext0
 2897 02d8 0200     		.2byte	0x2
 2898 02da 77       		.byte	0x77
 2899 02db 28       		.sleb128 40
 2900 02dc A2000000 		.4byte	.LCFI3-.Ltext0
 2901 02e0 A4000000 		.4byte	.LCFI4-.Ltext0
 2902 02e4 0200     		.2byte	0x2
 2903 02e6 77       		.byte	0x77
 2904 02e7 10       		.sleb128 16
 2905 02e8 A4000000 		.4byte	.LCFI4-.Ltext0
 2906 02ec A8000000 		.4byte	.LFE13-.Ltext0
 2907 02f0 0200     		.2byte	0x2
 2908 02f2 7D       		.byte	0x7d
 2909 02f3 10       		.sleb128 16
 2910 02f4 00000000 		.4byte	0
 2911 02f8 00000000 		.4byte	0
 2912              		.section	.debug_aranges,"",%progbits
 2913 0000 1C000000 		.4byte	0x1c
 2914 0004 0200     		.2byte	0x2
 2915 0006 00000000 		.4byte	.Ldebug_info0
 2916 000a 04       		.byte	0x4
 2917 000b 00       		.byte	0
 2918 000c 0000     		.2byte	0
 2919 000e 0000     		.2byte	0
 2920 0010 00000000 		.4byte	.Ltext0
 2921 0014 04050000 		.4byte	.Letext0-.Ltext0
 2922 0018 00000000 		.4byte	0
 2923 001c 00000000 		.4byte	0
 2924              		.section	.debug_line,"",%progbits
 2925              	.Ldebug_line0:
 2926 0000 03020000 		.section	.debug_str,"MS",%progbits,1
 2926      02000601 
 2926      00000201 
 2926      FB0E0D00 
ARM GAS  G:\Users\Jaxb\AppData\Local\Temp\ccvDTtlW.s 			page 59


 2926      01010101 
 2927              	.LASF56:
 2928 0000 5F5F7274 		.ascii	"__rtmsym_timer_init\000"
 2928      6D73796D 
 2928      5F74696D 
 2928      65725F69 
 2928      6E697400 
 2929              	.LASF41:
 2930 0014 53544154 		.ascii	"STATE_SUSPEND_NORMAL\000"
 2930      455F5355 
 2930      5350454E 
 2930      445F4E4F 
 2930      524D414C 
 2931              	.LASF83:
 2932 0029 5F5F696E 		.ascii	"__init_timer\000"
 2932      69745F74 
 2932      696D6572 
 2932      00
 2933              	.LASF64:
 2934 0036 5F5F7274 		.ascii	"__rtmsym_timer_delete\000"
 2934      6D73796D 
 2934      5F74696D 
 2934      65725F64 
 2934      656C6574 
 2935              	.LASF55:
 2936 004c 5F5F7274 		.ascii	"__rtmsym_timer_init_name\000"
 2936      6D73796D 
 2936      5F74696D 
 2936      65725F69 
 2936      6E69745F 
 2937              	.LASF60:
 2938 0065 5F5F7274 		.ascii	"__rtmsym_timer_enable\000"
 2938      6D73796D 
 2938      5F74696D 
 2938      65725F65 
 2938      6E61626C 
 2939              	.LASF19:
 2940 007b 73746174 		.ascii	"state\000"
 2940      6500
 2941              	.LASF30:
 2942 0081 6D61785F 		.ascii	"max_len\000"
 2942      6C656E00 
 2943              	.LASF1:
 2944 0089 73686F72 		.ascii	"short int\000"
 2944      7420696E 
 2944      7400
 2945              	.LASF43:
 2946 0093 53544154 		.ascii	"STATE_WAIT_MCB_TIMEOUT\000"
 2946      455F5741 
 2946      49545F4D 
 2946      43425F54 
 2946      494D454F 
 2947              	.LASF13:
 2948 00aa 54696D65 		.ascii	"Timer_Type\000"
 2948      725F5479 
 2948      706500
 2949              	.LASF73:
ARM GAS  G:\Users\Jaxb\AppData\Local\Temp\ccvDTtlW.s 			page 60


 2950 00b5 74696D65 		.ascii	"timer_create\000"
 2950      725F6372 
 2950      65617465 
 2950      00
 2951              	.LASF77:
 2952 00c2 696E6465 		.ascii	"index1\000"
 2952      783100
 2953              	.LASF78:
 2954 00c9 696E6465 		.ascii	"index2\000"
 2954      783200
 2955              	.LASF44:
 2956 00d0 53544154 		.ascii	"STATE_WAIT_MESSAGE_QUEUE_FOREVER\000"
 2956      455F5741 
 2956      49545F4D 
 2956      45535341 
 2956      47455F51 
 2957              	.LASF21:
 2958 00f1 74696D65 		.ascii	"timer_name\000"
 2958      725F6E61 
 2958      6D6500
 2959              	.LASF37:
 2960 00fc 696E6465 		.ascii	"index_change_record\000"
 2960      785F6368 
 2960      616E6765 
 2960      5F726563 
 2960      6F726400 
 2961              	.LASF38:
 2962 0110 5461736B 		.ascii	"Task_State\000"
 2962      5F537461 
 2962      746500
 2963              	.LASF46:
 2964 011b 53544154 		.ascii	"STATE_PUT_MESSAGE_QUEUE_FOREVER\000"
 2964      455F5055 
 2964      545F4D45 
 2964      53534147 
 2964      455F5155 
 2965              	.LASF51:
 2966 013b 6B615F6D 		.ascii	"ka_module_symtab\000"
 2966      6F64756C 
 2966      655F7379 
 2966      6D746162 
 2966      00
 2967              	.LASF76:
 2968 014c 696E6465 		.ascii	"index\000"
 2968      7800
 2969              	.LASF27:
 2970 0152 74696D65 		.ascii	"timer\000"
 2970      7200
 2971              	.LASF28:
 2972 0158 76656374 		.ascii	"vector\000"
 2972      6F7200
 2973              	.LASF29:
 2974 015f 64617461 		.ascii	"data_ptr\000"
 2974      5F707472 
 2974      00
 2975              	.LASF22:
 2976 0168 70617261 		.ascii	"para\000"
ARM GAS  G:\Users\Jaxb\AppData\Local\Temp\ccvDTtlW.s 			page 61


 2976      00
 2977              	.LASF15:
 2978 016d 44495341 		.ascii	"DISABLE\000"
 2978      424C4500 
 2979              	.LASF57:
 2980 0175 5F5F7274 		.ascii	"__rtmsym_timer_create_name\000"
 2980      6D73796D 
 2980      5F74696D 
 2980      65725F63 
 2980      72656174 
 2981              	.LASF25:
 2982 0190 77616B65 		.ascii	"wake_time\000"
 2982      5F74696D 
 2982      6500
 2983              	.LASF45:
 2984 019a 53544154 		.ascii	"STATE_WAIT_MESSAGE_QUEUE_TIMEOUT\000"
 2984      455F5741 
 2984      49545F4D 
 2984      45535341 
 2984      47455F51 
 2985              	.LASF81:
 2986 01bb 463A5C6B 		.ascii	"F:\\kaka\\KAKAOS\\C\\windows\\Project\\RVMDK\243\250"
 2986      616B615C 
 2986      4B414B41 
 2986      4F535C43 
 2986      5C77696E 
 2987 01e3 757635A3 		.ascii	"uv5\243\251\000"
 2987      A900
 2988              	.LASF2:
 2989 01e9 6C6F6E67 		.ascii	"long long int\000"
 2989      206C6F6E 
 2989      6720696E 
 2989      7400
 2990              	.LASF82:
 2991 01f7 74696D65 		.ascii	"timer_task\000"
 2991      725F7461 
 2991      736B00
 2992              	.LASF63:
 2993 0202 5F5F7274 		.ascii	"__rtmsym_timer_delete_name\000"
 2993      6D73796D 
 2993      5F74696D 
 2993      65725F64 
 2993      656C6574 
 2994              	.LASF26:
 2995 021d 63686172 		.ascii	"char\000"
 2995      00
 2996              	.LASF74:
 2997 0222 74696D65 		.ascii	"timer_init\000"
 2997      725F696E 
 2997      697400
 2998              	.LASF67:
 2999 022d 74696D65 		.ascii	"timer_ptr\000"
 2999      725F7074 
 2999      7200
 3000              	.LASF52:
 3001 0237 61646472 		.ascii	"addr\000"
 3001      00
ARM GAS  G:\Users\Jaxb\AppData\Local\Temp\ccvDTtlW.s 			page 62


 3002              	.LASF23:
 3003 023c 70657269 		.ascii	"period\000"
 3003      6F6400
 3004              	.LASF31:
 3005 0243 6375725F 		.ascii	"cur_len\000"
 3005      6C656E00 
 3006              	.LASF69:
 3007 024b 6765745F 		.ascii	"get_timer_heap_top\000"
 3007      74696D65 
 3007      725F6865 
 3007      61705F74 
 3007      6F7000
 3008              	.LASF53:
 3009 025e 6E616D65 		.ascii	"name\000"
 3009      00
 3010              	.LASF34:
 3011 0263 56656374 		.ascii	"Vector\000"
 3011      6F7200
 3012              	.LASF3:
 3013 026a 756E7369 		.ascii	"unsigned char\000"
 3013      676E6564 
 3013      20636861 
 3013      7200
 3014              	.LASF40:
 3015 0278 53544154 		.ascii	"STATE_DELAY\000"
 3015      455F4445 
 3015      4C415900 
 3016              	.LASF0:
 3017 0284 7369676E 		.ascii	"signed char\000"
 3017      65642063 
 3017      68617200 
 3018              	.LASF8:
 3019 0290 6C6F6E67 		.ascii	"long long unsigned int\000"
 3019      206C6F6E 
 3019      6720756E 
 3019      7369676E 
 3019      65642069 
 3020              	.LASF18:
 3021 02a7 74797065 		.ascii	"type\000"
 3021      00
 3022              	.LASF5:
 3023 02ac 756E7369 		.ascii	"unsigned int\000"
 3023      676E6564 
 3023      20696E74 
 3023      00
 3024              	.LASF9:
 3025 02b9 54494D45 		.ascii	"TIMER_ONE_TIME\000"
 3025      525F4F4E 
 3025      455F5449 
 3025      4D4500
 3026              	.LASF62:
 3027 02c8 5F5F7274 		.ascii	"__rtmsym_timer_disable\000"
 3027      6D73796D 
 3027      5F74696D 
 3027      65725F64 
 3027      69736162 
 3028              	.LASF75:
ARM GAS  G:\Users\Jaxb\AppData\Local\Temp\ccvDTtlW.s 			page 63


 3029 02df 56656374 		.ascii	"Vector_ptr\000"
 3029      6F725F70 
 3029      747200
 3030              	.LASF71:
 3031 02ea 74696D65 		.ascii	"timer_disable\000"
 3031      725F6469 
 3031      7361626C 
 3031      6500
 3032              	.LASF59:
 3033 02f8 5F5F7274 		.ascii	"__rtmsym_timer_enable_name\000"
 3033      6D73796D 
 3033      5F74696D 
 3033      65725F65 
 3033      6E61626C 
 3034              	.LASF4:
 3035 0313 73686F72 		.ascii	"short unsigned int\000"
 3035      7420756E 
 3035      7369676E 
 3035      65642069 
 3035      6E7400
 3036              	.LASF39:
 3037 0326 53544154 		.ascii	"STATE_READY\000"
 3037      455F5245 
 3037      41445900 
 3038              	.LASF24:
 3039 0332 68656170 		.ascii	"heap_position_index\000"
 3039      5F706F73 
 3039      6974696F 
 3039      6E5F696E 
 3039      64657800 
 3040              	.LASF70:
 3041 0346 74696D65 		.ascii	"timer_delete\000"
 3041      725F6465 
 3041      6C657465 
 3041      00
 3042              	.LASF72:
 3043 0353 74696D65 		.ascii	"timer_enable\000"
 3043      725F656E 
 3043      61626C65 
 3043      00
 3044              	.LASF33:
 3045 0360 65787465 		.ascii	"extension_factor\000"
 3045      6E73696F 
 3045      6E5F6661 
 3045      63746F72 
 3045      00
 3046              	.LASF47:
 3047 0371 53544154 		.ascii	"STATE_PUT_MESSAGE_QUEUE_TIMEOUT\000"
 3047      455F5055 
 3047      545F4D45 
 3047      53534147 
 3047      455F5155 
 3048              	.LASF6:
 3049 0391 494E5436 		.ascii	"INT64\000"
 3049      3400
 3050              	.LASF49:
 3051 0397 4350555F 		.ascii	"CPU_INT32U\000"
ARM GAS  G:\Users\Jaxb\AppData\Local\Temp\ccvDTtlW.s 			page 64


 3051      494E5433 
 3051      325500
 3052              	.LASF36:
 3053 03a2 64617461 		.ascii	"data\000"
 3053      00
 3054              	.LASF17:
 3055 03a7 54494D45 		.ascii	"TIMER_STATE\000"
 3055      525F5354 
 3055      41544500 
 3056              	.LASF20:
 3057 03b3 72657374 		.ascii	"rest_num\000"
 3057      5F6E756D 
 3057      00
 3058              	.LASF61:
 3059 03bc 5F5F7274 		.ascii	"__rtmsym_timer_disable_name\000"
 3059      6D73796D 
 3059      5F74696D 
 3059      65725F64 
 3059      69736162 
 3060              	.LASF35:
 3061 03d8 6C697474 		.ascii	"little_heap\000"
 3061      6C655F68 
 3061      65617000 
 3062              	.LASF32:
 3063 03e4 64617461 		.ascii	"data_size\000"
 3063      5F73697A 
 3063      6500
 3064              	.LASF80:
 3065 03ee 2E2E2F2E 		.ascii	"../../source/src/kernel/OS_CORE/os_timer.c\000"
 3065      2E2F736F 
 3065      75726365 
 3065      2F737263 
 3065      2F6B6572 
 3066              	.LASF58:
 3067 0419 5F5F7274 		.ascii	"__rtmsym_timer_create\000"
 3067      6D73796D 
 3067      5F74696D 
 3067      65725F63 
 3067      72656174 
 3068              	.LASF42:
 3069 042f 53544154 		.ascii	"STATE_WAIT_MCB_FOREVER\000"
 3069      455F5741 
 3069      49545F4D 
 3069      43425F46 
 3069      4F524556 
 3070              	.LASF14:
 3071 0446 54696D65 		.ascii	"Timer_State\000"
 3071      725F5374 
 3071      61746500 
 3072              	.LASF12:
 3073 0452 54494D45 		.ascii	"TIMER_TYPE\000"
 3073      525F5459 
 3073      504500
 3074              	.LASF54:
 3075 045d 675F696E 		.ascii	"g_interrupt_count\000"
 3075      74657272 
 3075      7570745F 
ARM GAS  G:\Users\Jaxb\AppData\Local\Temp\ccvDTtlW.s 			page 65


 3075      636F756E 
 3075      7400
 3076              	.LASF11:
 3077 046f 54494D45 		.ascii	"TIMER_TIME\000"
 3077      525F5449 
 3077      4D4500
 3078              	.LASF79:
 3079 047a 474E5520 		.ascii	"GNU C11 7.3.1 20180622 (release) [ARM/embedded-7-br"
 3079      43313120 
 3079      372E332E 
 3079      31203230 
 3079      31383036 
 3080 04ad 616E6368 		.ascii	"anch revision 261907] -mcpu=cortex-m3 -mthumb -mapc"
 3080      20726576 
 3080      6973696F 
 3080      6E203236 
 3080      31393037 
 3081 04e0 732D6672 		.ascii	"s-frame -mthumb-interwork -mcpu=cortex-m3 -mthumb -"
 3081      616D6520 
 3081      2D6D7468 
 3081      756D622D 
 3081      696E7465 
 3082 0513 67647761 		.ascii	"gdwarf-2 -O0\000"
 3082      72662D32 
 3082      202D4F30 
 3082      00
 3083              	.LASF68:
 3084 0520 6370755F 		.ascii	"cpu_sr\000"
 3084      737200
 3085              	.LASF48:
 3086 0527 53544154 		.ascii	"STATE_WAIT_MUTEX_FOREVER\000"
 3086      455F5741 
 3086      49545F4D 
 3086      55544558 
 3086      5F464F52 
 3087              	.LASF50:
 3088 0540 4350555F 		.ascii	"CPU_SR\000"
 3088      535200
 3089              	.LASF66:
 3090 0547 7469636B 		.ascii	"tick\000"
 3090      00
 3091              	.LASF7:
 3092 054c 55494E54 		.ascii	"UINT64\000"
 3092      363400
 3093              	.LASF16:
 3094 0553 454E4142 		.ascii	"ENABLE\000"
 3094      4C4500
 3095              	.LASF65:
 3096 055a 74696D65 		.ascii	"timer_heap\000"
 3096      725F6865 
 3096      617000
 3097              	.LASF10:
 3098 0565 54494D45 		.ascii	"TIMER_PERIODIC\000"
 3098      525F5045 
 3098      52494F44 
 3098      494300
 3099              		.ident	"GCC: (GNU Tools for Arm Embedded Processors 7-2018-q2-update) 7.3.1 20180622 (release) [AR
ARM GAS  G:\Users\Jaxb\AppData\Local\Temp\ccvDTtlW.s 			page 66


ARM GAS  G:\Users\Jaxb\AppData\Local\Temp\ccvDTtlW.s 			page 67


DEFINED SYMBOLS
                            *ABS*:00000000 os_timer.c
G:\Users\Jaxb\AppData\Local\Temp\ccvDTtlW.s:16     .bss:00000000 $d
G:\Users\Jaxb\AppData\Local\Temp\ccvDTtlW.s:17     .bss:00000000 timer_heap
G:\Users\Jaxb\AppData\Local\Temp\ccvDTtlW.s:21     .text:00000000 $t
G:\Users\Jaxb\AppData\Local\Temp\ccvDTtlW.s:27     .text:00000000 cmp
G:\Users\Jaxb\AppData\Local\Temp\ccvDTtlW.s:132    .text:000000a8 index_change_record
G:\Users\Jaxb\AppData\Local\Temp\ccvDTtlW.s:175    .rodata:00000000 $d
G:\Users\Jaxb\AppData\Local\Temp\ccvDTtlW.s:186    .text:000000ce __init_timer
G:\Users\Jaxb\AppData\Local\Temp\ccvDTtlW.s:231    .text:000000f8 $d
G:\Users\Jaxb\AppData\Local\Temp\ccvDTtlW.s:255    .text:00000108 $t
G:\Users\Jaxb\AppData\Local\Temp\ccvDTtlW.s:262    .text:00000108 timer_init
G:\Users\Jaxb\AppData\Local\Temp\ccvDTtlW.s:393    .text:000001b4 $d
G:\Users\Jaxb\AppData\Local\Temp\ccvDTtlW.s:406    .rodata.name:00000000 __rtmsym_timer_init_name
G:\Users\Jaxb\AppData\Local\Temp\ccvDTtlW.s:403    .rodata.name:00000000 $d
G:\Users\Jaxb\AppData\Local\Temp\ccvDTtlW.s:413    .RTMSymTab:00000000 __rtmsym_timer_init
G:\Users\Jaxb\AppData\Local\Temp\ccvDTtlW.s:410    .RTMSymTab:00000000 $d
G:\Users\Jaxb\AppData\Local\Temp\ccvDTtlW.s:417    .text:000001c8 $t
G:\Users\Jaxb\AppData\Local\Temp\ccvDTtlW.s:424    .text:000001c8 timer_create
G:\Users\Jaxb\AppData\Local\Temp\ccvDTtlW.s:514    .rodata.name:0000000c __rtmsym_timer_create_name
G:\Users\Jaxb\AppData\Local\Temp\ccvDTtlW.s:521    .RTMSymTab:00000008 __rtmsym_timer_create
G:\Users\Jaxb\AppData\Local\Temp\ccvDTtlW.s:537    .text:00000234 timer_enable
G:\Users\Jaxb\AppData\Local\Temp\ccvDTtlW.s:627    .text:000002b0 $d
G:\Users\Jaxb\AppData\Local\Temp\ccvDTtlW.s:638    .rodata.name:0000001c __rtmsym_timer_enable_name
G:\Users\Jaxb\AppData\Local\Temp\ccvDTtlW.s:645    .RTMSymTab:00000010 __rtmsym_timer_enable
G:\Users\Jaxb\AppData\Local\Temp\ccvDTtlW.s:654    .text:000002bc $t
G:\Users\Jaxb\AppData\Local\Temp\ccvDTtlW.s:661    .text:000002bc timer_disable
G:\Users\Jaxb\AppData\Local\Temp\ccvDTtlW.s:747    .text:00000324 $d
G:\Users\Jaxb\AppData\Local\Temp\ccvDTtlW.s:758    .rodata.name:0000002c __rtmsym_timer_disable_name
G:\Users\Jaxb\AppData\Local\Temp\ccvDTtlW.s:765    .RTMSymTab:00000018 __rtmsym_timer_disable
G:\Users\Jaxb\AppData\Local\Temp\ccvDTtlW.s:774    .text:00000330 $t
G:\Users\Jaxb\AppData\Local\Temp\ccvDTtlW.s:781    .text:00000330 timer_delete
G:\Users\Jaxb\AppData\Local\Temp\ccvDTtlW.s:862    .text:00000390 $d
G:\Users\Jaxb\AppData\Local\Temp\ccvDTtlW.s:872    .rodata.name:0000003c __rtmsym_timer_delete_name
G:\Users\Jaxb\AppData\Local\Temp\ccvDTtlW.s:879    .RTMSymTab:00000020 __rtmsym_timer_delete
G:\Users\Jaxb\AppData\Local\Temp\ccvDTtlW.s:888    .text:00000398 $t
G:\Users\Jaxb\AppData\Local\Temp\ccvDTtlW.s:895    .text:00000398 get_timer_heap_top
G:\Users\Jaxb\AppData\Local\Temp\ccvDTtlW.s:964    .text:000003e8 $d
G:\Users\Jaxb\AppData\Local\Temp\ccvDTtlW.s:970    .text:000003f4 $t
G:\Users\Jaxb\AppData\Local\Temp\ccvDTtlW.s:977    .text:000003f4 timer_task
G:\Users\Jaxb\AppData\Local\Temp\ccvDTtlW.s:1136   .text:000004fc $d

UNDEFINED SYMBOLS
Vector_get_index_address
Vector_get_index_data
heap_init
ka_printf
_ASSERT
CPU_SR_Save
CPU_SR_Restore
g_interrupt_count
ka_malloc
get_tick
heap_push
heap_remove_index_data
ka_free
heap_get_index_data_safe
ARM GAS  G:\Users\Jaxb\AppData\Local\Temp\ccvDTtlW.s 			page 68


sys_suspend
