ARM GAS  G:\Users\Jaxb\AppData\Local\Temp\cctJaDbb.s 			page 1


   1              		.cpu cortex-m3
   2              		.eabi_attribute 20, 1
   3              		.eabi_attribute 21, 1
   4              		.eabi_attribute 23, 3
   5              		.eabi_attribute 24, 1
   6              		.eabi_attribute 25, 1
   7              		.eabi_attribute 26, 1
   8              		.eabi_attribute 30, 6
   9              		.eabi_attribute 34, 1
  10              		.eabi_attribute 18, 4
  11              		.file	"os_TCB_list.c"
  12              		.text
  13              	.Ltext0:
  14              		.cfi_sections	.debug_frame
  15              		.align	1
  16              		.syntax unified
  17              		.thumb
  18              		.thumb_func
  19              		.fpu softvfp
  20              		.type	INIT_LIST_HEAD, %function
  21              	INIT_LIST_HEAD:
  22              	.LFB0:
  23              		.file 1 "../../source/include/os_lib/double_linked_list.h"
   1:../../source/include/os_lib/double_linked_list.h **** #ifndef _DOUBLE_LINKED_LIST_H
   2:../../source/include/os_lib/double_linked_list.h **** #define _DOUBLE_LINKED_LIST_H
   3:../../source/include/os_lib/double_linked_list.h **** 
   4:../../source/include/os_lib/double_linked_list.h **** struct list_head {
   5:../../source/include/os_lib/double_linked_list.h ****     struct list_head *next, *prev;
   6:../../source/include/os_lib/double_linked_list.h **** };
   7:../../source/include/os_lib/double_linked_list.h **** 
   8:../../source/include/os_lib/double_linked_list.h **** 
   9:../../source/include/os_lib/double_linked_list.h **** #define LIST_HEAD_INIT(name) { &(name), &(name) }
  10:../../source/include/os_lib/double_linked_list.h **** 
  11:../../source/include/os_lib/double_linked_list.h **** 
  12:../../source/include/os_lib/double_linked_list.h **** #define LIST_HEAD(name) \
  13:../../source/include/os_lib/double_linked_list.h ****     struct list_head name = LIST_HEAD_INIT(name)
  14:../../source/include/os_lib/double_linked_list.h **** 
  15:../../source/include/os_lib/double_linked_list.h **** 
  16:../../source/include/os_lib/double_linked_list.h **** static inline void INIT_LIST_HEAD(struct list_head *list)
  17:../../source/include/os_lib/double_linked_list.h **** {
  24              		.loc 1 17 0
  25              		.cfi_startproc
  26              		@ args = 0, pretend = 0, frame = 8
  27              		@ frame_needed = 1, uses_anonymous_args = 0
  28              		@ link register save eliminated.
  29 0000 80B4     		push	{r7}
  30              	.LCFI0:
  31              		.cfi_def_cfa_offset 4
  32              		.cfi_offset 7, -4
  33 0002 83B0     		sub	sp, sp, #12
  34              	.LCFI1:
  35              		.cfi_def_cfa_offset 16
  36 0004 00AF     		add	r7, sp, #0
  37              	.LCFI2:
  38              		.cfi_def_cfa_register 7
  39 0006 7860     		str	r0, [r7, #4]
  18:../../source/include/os_lib/double_linked_list.h ****     list->next = list;
ARM GAS  G:\Users\Jaxb\AppData\Local\Temp\cctJaDbb.s 			page 2


  40              		.loc 1 18 0
  41 0008 7B68     		ldr	r3, [r7, #4]
  42 000a 7A68     		ldr	r2, [r7, #4]
  43 000c 1A60     		str	r2, [r3]
  19:../../source/include/os_lib/double_linked_list.h ****     list->prev = list;
  44              		.loc 1 19 0
  45 000e 7B68     		ldr	r3, [r7, #4]
  46 0010 7A68     		ldr	r2, [r7, #4]
  47 0012 5A60     		str	r2, [r3, #4]
  20:../../source/include/os_lib/double_linked_list.h **** }
  48              		.loc 1 20 0
  49 0014 00BF     		nop
  50 0016 0C37     		adds	r7, r7, #12
  51              	.LCFI3:
  52              		.cfi_def_cfa_offset 4
  53 0018 BD46     		mov	sp, r7
  54              	.LCFI4:
  55              		.cfi_def_cfa_register 13
  56              		@ sp needed
  57 001a 80BC     		pop	{r7}
  58              	.LCFI5:
  59              		.cfi_restore 7
  60              		.cfi_def_cfa_offset 0
  61 001c 7047     		bx	lr
  62              		.cfi_endproc
  63              	.LFE0:
  64              		.size	INIT_LIST_HEAD, .-INIT_LIST_HEAD
  65              		.align	1
  66              		.syntax unified
  67              		.thumb
  68              		.thumb_func
  69              		.fpu softvfp
  70              		.type	__list_add, %function
  71              	__list_add:
  72              	.LFB1:
  21:../../source/include/os_lib/double_linked_list.h **** 
  22:../../source/include/os_lib/double_linked_list.h **** 
  23:../../source/include/os_lib/double_linked_list.h **** static inline void __list_add(struct list_head *new,
  24:../../source/include/os_lib/double_linked_list.h ****                   struct list_head *prev,
  25:../../source/include/os_lib/double_linked_list.h ****                   struct list_head *next)
  26:../../source/include/os_lib/double_linked_list.h **** {
  73              		.loc 1 26 0
  74              		.cfi_startproc
  75              		@ args = 0, pretend = 0, frame = 16
  76              		@ frame_needed = 1, uses_anonymous_args = 0
  77              		@ link register save eliminated.
  78 001e 80B4     		push	{r7}
  79              	.LCFI6:
  80              		.cfi_def_cfa_offset 4
  81              		.cfi_offset 7, -4
  82 0020 85B0     		sub	sp, sp, #20
  83              	.LCFI7:
  84              		.cfi_def_cfa_offset 24
  85 0022 00AF     		add	r7, sp, #0
  86              	.LCFI8:
  87              		.cfi_def_cfa_register 7
  88 0024 F860     		str	r0, [r7, #12]
ARM GAS  G:\Users\Jaxb\AppData\Local\Temp\cctJaDbb.s 			page 3


  89 0026 B960     		str	r1, [r7, #8]
  90 0028 7A60     		str	r2, [r7, #4]
  27:../../source/include/os_lib/double_linked_list.h ****     next->prev = new;
  91              		.loc 1 27 0
  92 002a 7B68     		ldr	r3, [r7, #4]
  93 002c FA68     		ldr	r2, [r7, #12]
  94 002e 5A60     		str	r2, [r3, #4]
  28:../../source/include/os_lib/double_linked_list.h ****     new->next = next;
  95              		.loc 1 28 0
  96 0030 FB68     		ldr	r3, [r7, #12]
  97 0032 7A68     		ldr	r2, [r7, #4]
  98 0034 1A60     		str	r2, [r3]
  29:../../source/include/os_lib/double_linked_list.h ****     new->prev = prev;
  99              		.loc 1 29 0
 100 0036 FB68     		ldr	r3, [r7, #12]
 101 0038 BA68     		ldr	r2, [r7, #8]
 102 003a 5A60     		str	r2, [r3, #4]
  30:../../source/include/os_lib/double_linked_list.h ****     prev->next = new;
 103              		.loc 1 30 0
 104 003c BB68     		ldr	r3, [r7, #8]
 105 003e FA68     		ldr	r2, [r7, #12]
 106 0040 1A60     		str	r2, [r3]
  31:../../source/include/os_lib/double_linked_list.h **** }
 107              		.loc 1 31 0
 108 0042 00BF     		nop
 109 0044 1437     		adds	r7, r7, #20
 110              	.LCFI9:
 111              		.cfi_def_cfa_offset 4
 112 0046 BD46     		mov	sp, r7
 113              	.LCFI10:
 114              		.cfi_def_cfa_register 13
 115              		@ sp needed
 116 0048 80BC     		pop	{r7}
 117              	.LCFI11:
 118              		.cfi_restore 7
 119              		.cfi_def_cfa_offset 0
 120 004a 7047     		bx	lr
 121              		.cfi_endproc
 122              	.LFE1:
 123              		.size	__list_add, .-__list_add
 124              		.align	1
 125              		.syntax unified
 126              		.thumb
 127              		.thumb_func
 128              		.fpu softvfp
 129              		.type	list_add, %function
 130              	list_add:
 131              	.LFB2:
  32:../../source/include/os_lib/double_linked_list.h **** 
  33:../../source/include/os_lib/double_linked_list.h **** 
  34:../../source/include/os_lib/double_linked_list.h **** static inline void list_add(struct list_head *new, struct list_head *head)
  35:../../source/include/os_lib/double_linked_list.h **** {
 132              		.loc 1 35 0
 133              		.cfi_startproc
 134              		@ args = 0, pretend = 0, frame = 8
 135              		@ frame_needed = 1, uses_anonymous_args = 0
 136 004c 80B5     		push	{r7, lr}
ARM GAS  G:\Users\Jaxb\AppData\Local\Temp\cctJaDbb.s 			page 4


 137              	.LCFI12:
 138              		.cfi_def_cfa_offset 8
 139              		.cfi_offset 7, -8
 140              		.cfi_offset 14, -4
 141 004e 82B0     		sub	sp, sp, #8
 142              	.LCFI13:
 143              		.cfi_def_cfa_offset 16
 144 0050 00AF     		add	r7, sp, #0
 145              	.LCFI14:
 146              		.cfi_def_cfa_register 7
 147 0052 7860     		str	r0, [r7, #4]
 148 0054 3960     		str	r1, [r7]
  36:../../source/include/os_lib/double_linked_list.h ****     __list_add(new, head, head->next);
 149              		.loc 1 36 0
 150 0056 3B68     		ldr	r3, [r7]
 151 0058 1B68     		ldr	r3, [r3]
 152 005a 1A46     		mov	r2, r3
 153 005c 3968     		ldr	r1, [r7]
 154 005e 7868     		ldr	r0, [r7, #4]
 155 0060 FFF7DDFF 		bl	__list_add
  37:../../source/include/os_lib/double_linked_list.h **** }
 156              		.loc 1 37 0
 157 0064 00BF     		nop
 158 0066 0837     		adds	r7, r7, #8
 159              	.LCFI15:
 160              		.cfi_def_cfa_offset 8
 161 0068 BD46     		mov	sp, r7
 162              	.LCFI16:
 163              		.cfi_def_cfa_register 13
 164              		@ sp needed
 165 006a 80BD     		pop	{r7, pc}
 166              		.cfi_endproc
 167              	.LFE2:
 168              		.size	list_add, .-list_add
 169              		.align	1
 170              		.syntax unified
 171              		.thumb
 172              		.thumb_func
 173              		.fpu softvfp
 174              		.type	__list_del, %function
 175              	__list_del:
 176              	.LFB4:
  38:../../source/include/os_lib/double_linked_list.h **** 
  39:../../source/include/os_lib/double_linked_list.h **** 
  40:../../source/include/os_lib/double_linked_list.h **** static inline void list_add_tail(struct list_head *new, struct list_head *head)
  41:../../source/include/os_lib/double_linked_list.h **** {
  42:../../source/include/os_lib/double_linked_list.h ****     __list_add(new, head->prev, head);
  43:../../source/include/os_lib/double_linked_list.h **** }
  44:../../source/include/os_lib/double_linked_list.h **** 
  45:../../source/include/os_lib/double_linked_list.h **** 
  46:../../source/include/os_lib/double_linked_list.h **** static inline void __list_del(struct list_head * prev, struct list_head * next)
  47:../../source/include/os_lib/double_linked_list.h **** {
 177              		.loc 1 47 0
 178              		.cfi_startproc
 179              		@ args = 0, pretend = 0, frame = 8
 180              		@ frame_needed = 1, uses_anonymous_args = 0
 181              		@ link register save eliminated.
ARM GAS  G:\Users\Jaxb\AppData\Local\Temp\cctJaDbb.s 			page 5


 182 006c 80B4     		push	{r7}
 183              	.LCFI17:
 184              		.cfi_def_cfa_offset 4
 185              		.cfi_offset 7, -4
 186 006e 83B0     		sub	sp, sp, #12
 187              	.LCFI18:
 188              		.cfi_def_cfa_offset 16
 189 0070 00AF     		add	r7, sp, #0
 190              	.LCFI19:
 191              		.cfi_def_cfa_register 7
 192 0072 7860     		str	r0, [r7, #4]
 193 0074 3960     		str	r1, [r7]
  48:../../source/include/os_lib/double_linked_list.h ****     next->prev = prev;
 194              		.loc 1 48 0
 195 0076 3B68     		ldr	r3, [r7]
 196 0078 7A68     		ldr	r2, [r7, #4]
 197 007a 5A60     		str	r2, [r3, #4]
  49:../../source/include/os_lib/double_linked_list.h ****     prev->next = next;
 198              		.loc 1 49 0
 199 007c 7B68     		ldr	r3, [r7, #4]
 200 007e 3A68     		ldr	r2, [r7]
 201 0080 1A60     		str	r2, [r3]
  50:../../source/include/os_lib/double_linked_list.h **** }
 202              		.loc 1 50 0
 203 0082 00BF     		nop
 204 0084 0C37     		adds	r7, r7, #12
 205              	.LCFI20:
 206              		.cfi_def_cfa_offset 4
 207 0086 BD46     		mov	sp, r7
 208              	.LCFI21:
 209              		.cfi_def_cfa_register 13
 210              		@ sp needed
 211 0088 80BC     		pop	{r7}
 212              	.LCFI22:
 213              		.cfi_restore 7
 214              		.cfi_def_cfa_offset 0
 215 008a 7047     		bx	lr
 216              		.cfi_endproc
 217              	.LFE4:
 218              		.size	__list_del, .-__list_del
 219              		.align	1
 220              		.syntax unified
 221              		.thumb
 222              		.thumb_func
 223              		.fpu softvfp
 224              		.type	list_del, %function
 225              	list_del:
 226              	.LFB5:
  51:../../source/include/os_lib/double_linked_list.h **** 
  52:../../source/include/os_lib/double_linked_list.h **** 
  53:../../source/include/os_lib/double_linked_list.h **** static inline void list_del(struct list_head *entry)
  54:../../source/include/os_lib/double_linked_list.h **** {
 227              		.loc 1 54 0
 228              		.cfi_startproc
 229              		@ args = 0, pretend = 0, frame = 8
 230              		@ frame_needed = 1, uses_anonymous_args = 0
 231 008c 80B5     		push	{r7, lr}
ARM GAS  G:\Users\Jaxb\AppData\Local\Temp\cctJaDbb.s 			page 6


 232              	.LCFI23:
 233              		.cfi_def_cfa_offset 8
 234              		.cfi_offset 7, -8
 235              		.cfi_offset 14, -4
 236 008e 82B0     		sub	sp, sp, #8
 237              	.LCFI24:
 238              		.cfi_def_cfa_offset 16
 239 0090 00AF     		add	r7, sp, #0
 240              	.LCFI25:
 241              		.cfi_def_cfa_register 7
 242 0092 7860     		str	r0, [r7, #4]
  55:../../source/include/os_lib/double_linked_list.h ****     __list_del(entry->prev, entry->next);
 243              		.loc 1 55 0
 244 0094 7B68     		ldr	r3, [r7, #4]
 245 0096 5A68     		ldr	r2, [r3, #4]
 246 0098 7B68     		ldr	r3, [r7, #4]
 247 009a 1B68     		ldr	r3, [r3]
 248 009c 1946     		mov	r1, r3
 249 009e 1046     		mov	r0, r2
 250 00a0 FFF7E4FF 		bl	__list_del
  56:../../source/include/os_lib/double_linked_list.h **** }
 251              		.loc 1 56 0
 252 00a4 00BF     		nop
 253 00a6 0837     		adds	r7, r7, #8
 254              	.LCFI26:
 255              		.cfi_def_cfa_offset 8
 256 00a8 BD46     		mov	sp, r7
 257              	.LCFI27:
 258              		.cfi_def_cfa_register 13
 259              		@ sp needed
 260 00aa 80BD     		pop	{r7, pc}
 261              		.cfi_endproc
 262              	.LFE5:
 263              		.size	list_del, .-list_del
 264              		.align	1
 265              		.syntax unified
 266              		.thumb
 267              		.thumb_func
 268              		.fpu softvfp
 269              		.type	list_empty, %function
 270              	list_empty:
 271              	.LFB9:
  57:../../source/include/os_lib/double_linked_list.h **** 
  58:../../source/include/os_lib/double_linked_list.h **** 
  59:../../source/include/os_lib/double_linked_list.h **** static inline void __list_del_entry(struct list_head *entry)
  60:../../source/include/os_lib/double_linked_list.h **** {
  61:../../source/include/os_lib/double_linked_list.h ****     __list_del(entry->prev, entry->next);
  62:../../source/include/os_lib/double_linked_list.h **** }
  63:../../source/include/os_lib/double_linked_list.h **** 
  64:../../source/include/os_lib/double_linked_list.h **** 
  65:../../source/include/os_lib/double_linked_list.h **** static inline void list_del_init(struct list_head *entry)
  66:../../source/include/os_lib/double_linked_list.h **** {
  67:../../source/include/os_lib/double_linked_list.h ****     __list_del_entry(entry);
  68:../../source/include/os_lib/double_linked_list.h ****     INIT_LIST_HEAD(entry);
  69:../../source/include/os_lib/double_linked_list.h **** }
  70:../../source/include/os_lib/double_linked_list.h **** 
  71:../../source/include/os_lib/double_linked_list.h **** 
ARM GAS  G:\Users\Jaxb\AppData\Local\Temp\cctJaDbb.s 			page 7


  72:../../source/include/os_lib/double_linked_list.h **** static inline void list_replace(struct list_head *old,
  73:../../source/include/os_lib/double_linked_list.h ****                 struct list_head *new)
  74:../../source/include/os_lib/double_linked_list.h **** {
  75:../../source/include/os_lib/double_linked_list.h ****     new->next = old->next;
  76:../../source/include/os_lib/double_linked_list.h ****     new->next->prev = new;
  77:../../source/include/os_lib/double_linked_list.h ****     new->prev = old->prev;
  78:../../source/include/os_lib/double_linked_list.h ****     new->prev->next = new;
  79:../../source/include/os_lib/double_linked_list.h **** }
  80:../../source/include/os_lib/double_linked_list.h **** 
  81:../../source/include/os_lib/double_linked_list.h **** 
  82:../../source/include/os_lib/double_linked_list.h **** static inline int list_empty(const struct list_head *head)
  83:../../source/include/os_lib/double_linked_list.h **** {
 272              		.loc 1 83 0
 273              		.cfi_startproc
 274              		@ args = 0, pretend = 0, frame = 8
 275              		@ frame_needed = 1, uses_anonymous_args = 0
 276              		@ link register save eliminated.
 277 00ac 80B4     		push	{r7}
 278              	.LCFI28:
 279              		.cfi_def_cfa_offset 4
 280              		.cfi_offset 7, -4
 281 00ae 83B0     		sub	sp, sp, #12
 282              	.LCFI29:
 283              		.cfi_def_cfa_offset 16
 284 00b0 00AF     		add	r7, sp, #0
 285              	.LCFI30:
 286              		.cfi_def_cfa_register 7
 287 00b2 7860     		str	r0, [r7, #4]
  84:../../source/include/os_lib/double_linked_list.h ****     return head->next == head;
 288              		.loc 1 84 0
 289 00b4 7B68     		ldr	r3, [r7, #4]
 290 00b6 1B68     		ldr	r3, [r3]
 291 00b8 7A68     		ldr	r2, [r7, #4]
 292 00ba 9A42     		cmp	r2, r3
 293 00bc 0CBF     		ite	eq
 294 00be 0123     		moveq	r3, #1
 295 00c0 0023     		movne	r3, #0
 296 00c2 DBB2     		uxtb	r3, r3
  85:../../source/include/os_lib/double_linked_list.h **** }
 297              		.loc 1 85 0
 298 00c4 1846     		mov	r0, r3
 299 00c6 0C37     		adds	r7, r7, #12
 300              	.LCFI31:
 301              		.cfi_def_cfa_offset 4
 302 00c8 BD46     		mov	sp, r7
 303              	.LCFI32:
 304              		.cfi_def_cfa_register 13
 305              		@ sp needed
 306 00ca 80BC     		pop	{r7}
 307              	.LCFI33:
 308              		.cfi_restore 7
 309              		.cfi_def_cfa_offset 0
 310 00cc 7047     		bx	lr
 311              		.cfi_endproc
 312              	.LFE9:
 313              		.size	list_empty, .-list_empty
 314              		.bss
ARM GAS  G:\Users\Jaxb\AppData\Local\Temp\cctJaDbb.s 			page 8


 315              		.align	2
 316              	TCB_list:
 317 0000 00000000 		.space	768
 317      00000000 
 317      00000000 
 317      00000000 
 317      00000000 
 318              		.size	TCB_list, 768
 319              		.text
 320              		.align	1
 321              		.global	__init_TCB_list
 322              		.syntax unified
 323              		.thumb
 324              		.thumb_func
 325              		.fpu softvfp
 326              		.type	__init_TCB_list, %function
 327              	__init_TCB_list:
 328              	.LFB11:
 329              		.file 2 "../../source/src/kernel/OS_CORE/schedule/os_TCB_list.c"
   1:../../source/src/kernel/OS_CORE/schedule/os_TCB_list.c **** #include <os_TCB_list.h>
   2:../../source/src/kernel/OS_CORE/schedule/os_TCB_list.c **** #include <TCB.h>
   3:../../source/src/kernel/OS_CORE/schedule/os_TCB_list.c **** #include <kakaosstdint.h>
   4:../../source/src/kernel/OS_CORE/schedule/os_TCB_list.c **** #include <myassert.h>
   5:../../source/src/kernel/OS_CORE/schedule/os_TCB_list.c **** #include <myMicroLIB.h>
   6:../../source/src/kernel/OS_CORE/schedule/os_TCB_list.c **** 
   7:../../source/src/kernel/OS_CORE/schedule/os_TCB_list.c **** static struct TCB_list TCB_list[PRIO_MAX];
   8:../../source/src/kernel/OS_CORE/schedule/os_TCB_list.c **** 
   9:../../source/src/kernel/OS_CORE/schedule/os_TCB_list.c **** void __init_TCB_list(void)
  10:../../source/src/kernel/OS_CORE/schedule/os_TCB_list.c **** {
 330              		.loc 2 10 0
 331              		.cfi_startproc
 332              		@ args = 0, pretend = 0, frame = 8
 333              		@ frame_needed = 1, uses_anonymous_args = 0
 334 00ce 80B5     		push	{r7, lr}
 335              	.LCFI34:
 336              		.cfi_def_cfa_offset 8
 337              		.cfi_offset 7, -8
 338              		.cfi_offset 14, -4
 339 00d0 82B0     		sub	sp, sp, #8
 340              	.LCFI35:
 341              		.cfi_def_cfa_offset 16
 342 00d2 00AF     		add	r7, sp, #0
 343              	.LCFI36:
 344              		.cfi_def_cfa_register 7
  11:../../source/src/kernel/OS_CORE/schedule/os_TCB_list.c **** 	int i;
  12:../../source/src/kernel/OS_CORE/schedule/os_TCB_list.c **** 	for(i=0;i<PRIO_MAX;++i)
 345              		.loc 2 12 0
 346 00d4 0023     		movs	r3, #0
 347 00d6 7B60     		str	r3, [r7, #4]
 348 00d8 20E0     		b	.L9
 349              	.L10:
  13:../../source/src/kernel/OS_CORE/schedule/os_TCB_list.c **** 	{
  14:../../source/src/kernel/OS_CORE/schedule/os_TCB_list.c **** 		INIT_LIST_HEAD(&TCB_list[i].head);
 350              		.loc 2 14 0 discriminator 3
 351 00da 7A68     		ldr	r2, [r7, #4]
 352 00dc 1346     		mov	r3, r2
 353 00de 5B00     		lsls	r3, r3, #1
ARM GAS  G:\Users\Jaxb\AppData\Local\Temp\cctJaDbb.s 			page 9


 354 00e0 1344     		add	r3, r3, r2
 355 00e2 9B00     		lsls	r3, r3, #2
 356 00e4 114A     		ldr	r2, .L11
 357 00e6 1344     		add	r3, r3, r2
 358 00e8 1846     		mov	r0, r3
 359 00ea FFF789FF 		bl	INIT_LIST_HEAD
  15:../../source/src/kernel/OS_CORE/schedule/os_TCB_list.c **** 		TCB_list[i].ready_num = 0;
 360              		.loc 2 15 0 discriminator 3
 361 00ee 0F49     		ldr	r1, .L11
 362 00f0 7A68     		ldr	r2, [r7, #4]
 363 00f2 1346     		mov	r3, r2
 364 00f4 5B00     		lsls	r3, r3, #1
 365 00f6 1344     		add	r3, r3, r2
 366 00f8 9B00     		lsls	r3, r3, #2
 367 00fa 0B44     		add	r3, r3, r1
 368 00fc 0833     		adds	r3, r3, #8
 369 00fe 0022     		movs	r2, #0
 370 0100 1A70     		strb	r2, [r3]
  16:../../source/src/kernel/OS_CORE/schedule/os_TCB_list.c **** 		TCB_list[i].TCB_num = 0;
 371              		.loc 2 16 0 discriminator 3
 372 0102 0A49     		ldr	r1, .L11
 373 0104 7A68     		ldr	r2, [r7, #4]
 374 0106 1346     		mov	r3, r2
 375 0108 5B00     		lsls	r3, r3, #1
 376 010a 1344     		add	r3, r3, r2
 377 010c 9B00     		lsls	r3, r3, #2
 378 010e 0B44     		add	r3, r3, r1
 379 0110 0933     		adds	r3, r3, #9
 380 0112 0022     		movs	r2, #0
 381 0114 1A70     		strb	r2, [r3]
  12:../../source/src/kernel/OS_CORE/schedule/os_TCB_list.c **** 	{
 382              		.loc 2 12 0 discriminator 3
 383 0116 7B68     		ldr	r3, [r7, #4]
 384 0118 0133     		adds	r3, r3, #1
 385 011a 7B60     		str	r3, [r7, #4]
 386              	.L9:
  12:../../source/src/kernel/OS_CORE/schedule/os_TCB_list.c **** 	{
 387              		.loc 2 12 0 is_stmt 0 discriminator 1
 388 011c 7B68     		ldr	r3, [r7, #4]
 389 011e 3F2B     		cmp	r3, #63
 390 0120 DBDD     		ble	.L10
  17:../../source/src/kernel/OS_CORE/schedule/os_TCB_list.c **** 	}
  18:../../source/src/kernel/OS_CORE/schedule/os_TCB_list.c **** }
 391              		.loc 2 18 0 is_stmt 1
 392 0122 00BF     		nop
 393 0124 0837     		adds	r7, r7, #8
 394              	.LCFI37:
 395              		.cfi_def_cfa_offset 8
 396 0126 BD46     		mov	sp, r7
 397              	.LCFI38:
 398              		.cfi_def_cfa_register 13
 399              		@ sp needed
 400 0128 80BD     		pop	{r7, pc}
 401              	.L12:
 402 012a 00BF     		.align	2
 403              	.L11:
 404 012c 00000000 		.word	TCB_list
ARM GAS  G:\Users\Jaxb\AppData\Local\Temp\cctJaDbb.s 			page 10


 405              		.cfi_endproc
 406              	.LFE11:
 407              		.size	__init_TCB_list, .-__init_TCB_list
 408              		.section	.rodata
 409              		.align	2
 410              	.LC0:
 411 0000 2E2E2F2E 		.ascii	"../../source/src/kernel/OS_CORE/schedule/os_TCB_lis"
 411      2E2F736F 
 411      75726365 
 411      2F737263 
 411      2F6B6572 
 412 0033 742E6300 		.ascii	"t.c\000"
 413              		.text
 414              		.align	1
 415              		.global	_register_in_TCB_list
 416              		.syntax unified
 417              		.thumb
 418              		.thumb_func
 419              		.fpu softvfp
 420              		.type	_register_in_TCB_list, %function
 421              	_register_in_TCB_list:
 422              	.LFB12:
  19:../../source/src/kernel/OS_CORE/schedule/os_TCB_list.c **** 
  20:../../source/src/kernel/OS_CORE/schedule/os_TCB_list.c **** /*os must set the task_state before using this function*/
  21:../../source/src/kernel/OS_CORE/schedule/os_TCB_list.c **** void _register_in_TCB_list(TCB *TCB_ptr)
  22:../../source/src/kernel/OS_CORE/schedule/os_TCB_list.c **** {
 423              		.loc 2 22 0
 424              		.cfi_startproc
 425              		@ args = 0, pretend = 0, frame = 8
 426              		@ frame_needed = 1, uses_anonymous_args = 0
 427 0130 80B5     		push	{r7, lr}
 428              	.LCFI39:
 429              		.cfi_def_cfa_offset 8
 430              		.cfi_offset 7, -8
 431              		.cfi_offset 14, -4
 432 0132 82B0     		sub	sp, sp, #8
 433              	.LCFI40:
 434              		.cfi_def_cfa_offset 16
 435 0134 00AF     		add	r7, sp, #0
 436              	.LCFI41:
 437              		.cfi_def_cfa_register 7
 438 0136 7860     		str	r0, [r7, #4]
  23:../../source/src/kernel/OS_CORE/schedule/os_TCB_list.c **** 	ASSERT(NULL != TCB_ptr);
 439              		.loc 2 23 0
 440 0138 7B68     		ldr	r3, [r7, #4]
 441 013a 002B     		cmp	r3, #0
 442 013c 03D1     		bne	.L14
 443              		.loc 2 23 0 is_stmt 0 discriminator 1
 444 013e 1721     		movs	r1, #23
 445 0140 1448     		ldr	r0, .L15
 446 0142 FFF7FEFF 		bl	_ASSERT
 447              	.L14:
  24:../../source/src/kernel/OS_CORE/schedule/os_TCB_list.c **** 	list_add(&TCB_ptr->same_prio_list,&TCB_list[TCB_ptr->prio].head);
 448              		.loc 2 24 0 is_stmt 1
 449 0146 7B68     		ldr	r3, [r7, #4]
 450 0148 03F11C00 		add	r0, r3, #28
 451 014c 7B68     		ldr	r3, [r7, #4]
ARM GAS  G:\Users\Jaxb\AppData\Local\Temp\cctJaDbb.s 			page 11


 452 014e 5A69     		ldr	r2, [r3, #20]
 453 0150 1346     		mov	r3, r2
 454 0152 5B00     		lsls	r3, r3, #1
 455 0154 1344     		add	r3, r3, r2
 456 0156 9B00     		lsls	r3, r3, #2
 457 0158 0F4A     		ldr	r2, .L15+4
 458 015a 1344     		add	r3, r3, r2
 459 015c 1946     		mov	r1, r3
 460 015e FFF775FF 		bl	list_add
  25:../../source/src/kernel/OS_CORE/schedule/os_TCB_list.c **** 	++(TCB_list[TCB_ptr->prio].TCB_num);
 461              		.loc 2 25 0
 462 0162 7B68     		ldr	r3, [r7, #4]
 463 0164 5A69     		ldr	r2, [r3, #20]
 464 0166 0C49     		ldr	r1, .L15+4
 465 0168 1346     		mov	r3, r2
 466 016a 5B00     		lsls	r3, r3, #1
 467 016c 1344     		add	r3, r3, r2
 468 016e 9B00     		lsls	r3, r3, #2
 469 0170 0B44     		add	r3, r3, r1
 470 0172 0933     		adds	r3, r3, #9
 471 0174 1B78     		ldrb	r3, [r3]	@ zero_extendqisi2
 472 0176 0133     		adds	r3, r3, #1
 473 0178 D8B2     		uxtb	r0, r3
 474 017a 0749     		ldr	r1, .L15+4
 475 017c 1346     		mov	r3, r2
 476 017e 5B00     		lsls	r3, r3, #1
 477 0180 1344     		add	r3, r3, r2
 478 0182 9B00     		lsls	r3, r3, #2
 479 0184 0B44     		add	r3, r3, r1
 480 0186 0933     		adds	r3, r3, #9
 481 0188 0246     		mov	r2, r0
 482 018a 1A70     		strb	r2, [r3]
  26:../../source/src/kernel/OS_CORE/schedule/os_TCB_list.c **** }
 483              		.loc 2 26 0
 484 018c 00BF     		nop
 485 018e 0837     		adds	r7, r7, #8
 486              	.LCFI42:
 487              		.cfi_def_cfa_offset 8
 488 0190 BD46     		mov	sp, r7
 489              	.LCFI43:
 490              		.cfi_def_cfa_register 13
 491              		@ sp needed
 492 0192 80BD     		pop	{r7, pc}
 493              	.L16:
 494              		.align	2
 495              	.L15:
 496 0194 00000000 		.word	.LC0
 497 0198 00000000 		.word	TCB_list
 498              		.cfi_endproc
 499              	.LFE12:
 500              		.size	_register_in_TCB_list, .-_register_in_TCB_list
 501              		.align	1
 502              		.global	_delete_from_TCB_list
 503              		.syntax unified
 504              		.thumb
 505              		.thumb_func
 506              		.fpu softvfp
ARM GAS  G:\Users\Jaxb\AppData\Local\Temp\cctJaDbb.s 			page 12


 507              		.type	_delete_from_TCB_list, %function
 508              	_delete_from_TCB_list:
 509              	.LFB13:
  27:../../source/src/kernel/OS_CORE/schedule/os_TCB_list.c **** 
  28:../../source/src/kernel/OS_CORE/schedule/os_TCB_list.c **** /**
  29:../../source/src/kernel/OS_CORE/schedule/os_TCB_list.c ****  * This is a system function,if the TCB_ptr state is ready,os should decrease
  30:../../source/src/kernel/OS_CORE/schedule/os_TCB_list.c ****  * the ready num with function _decrease_ready_num() in another place
  31:../../source/src/kernel/OS_CORE/schedule/os_TCB_list.c ****  * which means, this functin do not decrease the ready num
  32:../../source/src/kernel/OS_CORE/schedule/os_TCB_list.c ****  * @Author      kaka
  33:../../source/src/kernel/OS_CORE/schedule/os_TCB_list.c ****  * @DateTime    2018-10-01
  34:../../source/src/kernel/OS_CORE/schedule/os_TCB_list.c ****  * @description :
  35:../../source/src/kernel/OS_CORE/schedule/os_TCB_list.c ****  * @param       TCB_ptr    [description]
  36:../../source/src/kernel/OS_CORE/schedule/os_TCB_list.c ****  * @return                 [description]
  37:../../source/src/kernel/OS_CORE/schedule/os_TCB_list.c ****  */
  38:../../source/src/kernel/OS_CORE/schedule/os_TCB_list.c **** int _delete_from_TCB_list(TCB *TCB_ptr)
  39:../../source/src/kernel/OS_CORE/schedule/os_TCB_list.c **** {
 510              		.loc 2 39 0
 511              		.cfi_startproc
 512              		@ args = 0, pretend = 0, frame = 16
 513              		@ frame_needed = 1, uses_anonymous_args = 0
 514 019c 80B5     		push	{r7, lr}
 515              	.LCFI44:
 516              		.cfi_def_cfa_offset 8
 517              		.cfi_offset 7, -8
 518              		.cfi_offset 14, -4
 519 019e 84B0     		sub	sp, sp, #16
 520              	.LCFI45:
 521              		.cfi_def_cfa_offset 24
 522 01a0 00AF     		add	r7, sp, #0
 523              	.LCFI46:
 524              		.cfi_def_cfa_register 7
 525 01a2 7860     		str	r0, [r7, #4]
  40:../../source/src/kernel/OS_CORE/schedule/os_TCB_list.c **** 	ASSERT(NULL != TCB_ptr);
 526              		.loc 2 40 0
 527 01a4 7B68     		ldr	r3, [r7, #4]
 528 01a6 002B     		cmp	r3, #0
 529 01a8 03D1     		bne	.L18
 530              		.loc 2 40 0 is_stmt 0 discriminator 1
 531 01aa 2821     		movs	r1, #40
 532 01ac 2948     		ldr	r0, .L24
 533 01ae FFF7FEFF 		bl	_ASSERT
 534              	.L18:
  41:../../source/src/kernel/OS_CORE/schedule/os_TCB_list.c **** 	struct list_head *pos;
  42:../../source/src/kernel/OS_CORE/schedule/os_TCB_list.c **** 	list_for_each(pos,&TCB_list[TCB_ptr->prio].head)
 535              		.loc 2 42 0 is_stmt 1
 536 01b2 7B68     		ldr	r3, [r7, #4]
 537 01b4 5A69     		ldr	r2, [r3, #20]
 538 01b6 2849     		ldr	r1, .L24+4
 539 01b8 1346     		mov	r3, r2
 540 01ba 5B00     		lsls	r3, r3, #1
 541 01bc 1344     		add	r3, r3, r2
 542 01be 9B00     		lsls	r3, r3, #2
 543 01c0 0B44     		add	r3, r3, r1
 544 01c2 1B68     		ldr	r3, [r3]
 545 01c4 FB60     		str	r3, [r7, #12]
 546 01c6 31E0     		b	.L19
 547              	.L23:
ARM GAS  G:\Users\Jaxb\AppData\Local\Temp\cctJaDbb.s 			page 13


  43:../../source/src/kernel/OS_CORE/schedule/os_TCB_list.c **** 	{
  44:../../source/src/kernel/OS_CORE/schedule/os_TCB_list.c **** 		if(&TCB_ptr->same_prio_list == pos)
 548              		.loc 2 44 0
 549 01c8 7B68     		ldr	r3, [r7, #4]
 550 01ca 1C33     		adds	r3, r3, #28
 551 01cc FA68     		ldr	r2, [r7, #12]
 552 01ce 9A42     		cmp	r2, r3
 553 01d0 29D1     		bne	.L20
  45:../../source/src/kernel/OS_CORE/schedule/os_TCB_list.c **** 		{
  46:../../source/src/kernel/OS_CORE/schedule/os_TCB_list.c **** 			list_del(pos);
 554              		.loc 2 46 0
 555 01d2 F868     		ldr	r0, [r7, #12]
 556 01d4 FFF75AFF 		bl	list_del
  47:../../source/src/kernel/OS_CORE/schedule/os_TCB_list.c **** 			ASSERT(0 != TCB_list[TCB_ptr->prio].TCB_num);
 557              		.loc 2 47 0
 558 01d8 7B68     		ldr	r3, [r7, #4]
 559 01da 5A69     		ldr	r2, [r3, #20]
 560 01dc 1E49     		ldr	r1, .L24+4
 561 01de 1346     		mov	r3, r2
 562 01e0 5B00     		lsls	r3, r3, #1
 563 01e2 1344     		add	r3, r3, r2
 564 01e4 9B00     		lsls	r3, r3, #2
 565 01e6 0B44     		add	r3, r3, r1
 566 01e8 0933     		adds	r3, r3, #9
 567 01ea 1B78     		ldrb	r3, [r3]	@ zero_extendqisi2
 568 01ec 002B     		cmp	r3, #0
 569 01ee 03D1     		bne	.L21
 570              		.loc 2 47 0 is_stmt 0 discriminator 1
 571 01f0 2F21     		movs	r1, #47
 572 01f2 1848     		ldr	r0, .L24
 573 01f4 FFF7FEFF 		bl	_ASSERT
 574              	.L21:
  48:../../source/src/kernel/OS_CORE/schedule/os_TCB_list.c **** 			--(TCB_list[TCB_ptr->prio].TCB_num);
 575              		.loc 2 48 0 is_stmt 1
 576 01f8 7B68     		ldr	r3, [r7, #4]
 577 01fa 5A69     		ldr	r2, [r3, #20]
 578 01fc 1649     		ldr	r1, .L24+4
 579 01fe 1346     		mov	r3, r2
 580 0200 5B00     		lsls	r3, r3, #1
 581 0202 1344     		add	r3, r3, r2
 582 0204 9B00     		lsls	r3, r3, #2
 583 0206 0B44     		add	r3, r3, r1
 584 0208 0933     		adds	r3, r3, #9
 585 020a 1B78     		ldrb	r3, [r3]	@ zero_extendqisi2
 586 020c 013B     		subs	r3, r3, #1
 587 020e D8B2     		uxtb	r0, r3
 588 0210 1149     		ldr	r1, .L24+4
 589 0212 1346     		mov	r3, r2
 590 0214 5B00     		lsls	r3, r3, #1
 591 0216 1344     		add	r3, r3, r2
 592 0218 9B00     		lsls	r3, r3, #2
 593 021a 0B44     		add	r3, r3, r1
 594 021c 0933     		adds	r3, r3, #9
 595 021e 0246     		mov	r2, r0
 596 0220 1A70     		strb	r2, [r3]
  49:../../source/src/kernel/OS_CORE/schedule/os_TCB_list.c **** 			return FUN_EXECUTE_SUCCESSFULLY;
 597              		.loc 2 49 0
ARM GAS  G:\Users\Jaxb\AppData\Local\Temp\cctJaDbb.s 			page 14


 598 0222 0023     		movs	r3, #0
 599 0224 12E0     		b	.L22
 600              	.L20:
  42:../../source/src/kernel/OS_CORE/schedule/os_TCB_list.c **** 	{
 601              		.loc 2 42 0 discriminator 2
 602 0226 FB68     		ldr	r3, [r7, #12]
 603 0228 1B68     		ldr	r3, [r3]
 604 022a FB60     		str	r3, [r7, #12]
 605              	.L19:
  42:../../source/src/kernel/OS_CORE/schedule/os_TCB_list.c **** 	{
 606              		.loc 2 42 0 is_stmt 0 discriminator 1
 607 022c 7B68     		ldr	r3, [r7, #4]
 608 022e 5A69     		ldr	r2, [r3, #20]
 609 0230 1346     		mov	r3, r2
 610 0232 5B00     		lsls	r3, r3, #1
 611 0234 1344     		add	r3, r3, r2
 612 0236 9B00     		lsls	r3, r3, #2
 613 0238 074A     		ldr	r2, .L24+4
 614 023a 1344     		add	r3, r3, r2
 615 023c FA68     		ldr	r2, [r7, #12]
 616 023e 9A42     		cmp	r2, r3
 617 0240 C2D1     		bne	.L23
  50:../../source/src/kernel/OS_CORE/schedule/os_TCB_list.c **** 		}
  51:../../source/src/kernel/OS_CORE/schedule/os_TCB_list.c **** 	}
  52:../../source/src/kernel/OS_CORE/schedule/os_TCB_list.c **** 	/*should not go here*/
  53:../../source/src/kernel/OS_CORE/schedule/os_TCB_list.c **** 	ASSERT(0);
 618              		.loc 2 53 0 is_stmt 1 discriminator 1
 619 0242 3521     		movs	r1, #53
 620 0244 0348     		ldr	r0, .L24
 621 0246 FFF7FEFF 		bl	_ASSERT
  54:../../source/src/kernel/OS_CORE/schedule/os_TCB_list.c **** 	return ERROR_VALUELESS_INPUT;
 622              		.loc 2 54 0 discriminator 1
 623 024a FE23     		movs	r3, #254
 624              	.L22:
  55:../../source/src/kernel/OS_CORE/schedule/os_TCB_list.c **** }
 625              		.loc 2 55 0
 626 024c 1846     		mov	r0, r3
 627 024e 1037     		adds	r7, r7, #16
 628              	.LCFI47:
 629              		.cfi_def_cfa_offset 8
 630 0250 BD46     		mov	sp, r7
 631              	.LCFI48:
 632              		.cfi_def_cfa_register 13
 633              		@ sp needed
 634 0252 80BD     		pop	{r7, pc}
 635              	.L25:
 636              		.align	2
 637              	.L24:
 638 0254 00000000 		.word	.LC0
 639 0258 00000000 		.word	TCB_list
 640              		.cfi_endproc
 641              	.LFE13:
 642              		.size	_delete_from_TCB_list, .-_delete_from_TCB_list
 643              		.align	1
 644              		.global	_get_from_TCB_list
 645              		.syntax unified
 646              		.thumb
ARM GAS  G:\Users\Jaxb\AppData\Local\Temp\cctJaDbb.s 			page 15


 647              		.thumb_func
 648              		.fpu softvfp
 649              		.type	_get_from_TCB_list, %function
 650              	_get_from_TCB_list:
 651              	.LFB14:
  56:../../source/src/kernel/OS_CORE/schedule/os_TCB_list.c **** 
  57:../../source/src/kernel/OS_CORE/schedule/os_TCB_list.c **** struct list_head *_get_from_TCB_list(unsigned int index)
  58:../../source/src/kernel/OS_CORE/schedule/os_TCB_list.c **** {
 652              		.loc 2 58 0
 653              		.cfi_startproc
 654              		@ args = 0, pretend = 0, frame = 8
 655              		@ frame_needed = 1, uses_anonymous_args = 0
 656 025c 80B5     		push	{r7, lr}
 657              	.LCFI49:
 658              		.cfi_def_cfa_offset 8
 659              		.cfi_offset 7, -8
 660              		.cfi_offset 14, -4
 661 025e 82B0     		sub	sp, sp, #8
 662              	.LCFI50:
 663              		.cfi_def_cfa_offset 16
 664 0260 00AF     		add	r7, sp, #0
 665              	.LCFI51:
 666              		.cfi_def_cfa_register 7
 667 0262 7860     		str	r0, [r7, #4]
  59:../../source/src/kernel/OS_CORE/schedule/os_TCB_list.c **** 	ASSERT(index < PRIO_MAX);
 668              		.loc 2 59 0
 669 0264 7B68     		ldr	r3, [r7, #4]
 670 0266 3F2B     		cmp	r3, #63
 671 0268 03D9     		bls	.L27
 672              		.loc 2 59 0 is_stmt 0 discriminator 1
 673 026a 3B21     		movs	r1, #59
 674 026c 0648     		ldr	r0, .L29
 675 026e FFF7FEFF 		bl	_ASSERT
 676              	.L27:
  60:../../source/src/kernel/OS_CORE/schedule/os_TCB_list.c **** 	return &TCB_list[index].head;
 677              		.loc 2 60 0 is_stmt 1
 678 0272 7A68     		ldr	r2, [r7, #4]
 679 0274 1346     		mov	r3, r2
 680 0276 5B00     		lsls	r3, r3, #1
 681 0278 1344     		add	r3, r3, r2
 682 027a 9B00     		lsls	r3, r3, #2
 683 027c 034A     		ldr	r2, .L29+4
 684 027e 1344     		add	r3, r3, r2
  61:../../source/src/kernel/OS_CORE/schedule/os_TCB_list.c **** }
 685              		.loc 2 61 0
 686 0280 1846     		mov	r0, r3
 687 0282 0837     		adds	r7, r7, #8
 688              	.LCFI52:
 689              		.cfi_def_cfa_offset 8
 690 0284 BD46     		mov	sp, r7
 691              	.LCFI53:
 692              		.cfi_def_cfa_register 13
 693              		@ sp needed
 694 0286 80BD     		pop	{r7, pc}
 695              	.L30:
 696              		.align	2
 697              	.L29:
ARM GAS  G:\Users\Jaxb\AppData\Local\Temp\cctJaDbb.s 			page 16


 698 0288 00000000 		.word	.LC0
 699 028c 00000000 		.word	TCB_list
 700              		.cfi_endproc
 701              	.LFE14:
 702              		.size	_get_from_TCB_list, .-_get_from_TCB_list
 703              		.align	1
 704              		.global	_get_ready_num_from_TCB_list
 705              		.syntax unified
 706              		.thumb
 707              		.thumb_func
 708              		.fpu softvfp
 709              		.type	_get_ready_num_from_TCB_list, %function
 710              	_get_ready_num_from_TCB_list:
 711              	.LFB15:
  62:../../source/src/kernel/OS_CORE/schedule/os_TCB_list.c **** 
  63:../../source/src/kernel/OS_CORE/schedule/os_TCB_list.c **** unsigned char _get_ready_num_from_TCB_list(unsigned int index)
  64:../../source/src/kernel/OS_CORE/schedule/os_TCB_list.c **** {
 712              		.loc 2 64 0
 713              		.cfi_startproc
 714              		@ args = 0, pretend = 0, frame = 8
 715              		@ frame_needed = 1, uses_anonymous_args = 0
 716 0290 80B5     		push	{r7, lr}
 717              	.LCFI54:
 718              		.cfi_def_cfa_offset 8
 719              		.cfi_offset 7, -8
 720              		.cfi_offset 14, -4
 721 0292 82B0     		sub	sp, sp, #8
 722              	.LCFI55:
 723              		.cfi_def_cfa_offset 16
 724 0294 00AF     		add	r7, sp, #0
 725              	.LCFI56:
 726              		.cfi_def_cfa_register 7
 727 0296 7860     		str	r0, [r7, #4]
  65:../../source/src/kernel/OS_CORE/schedule/os_TCB_list.c **** 	ASSERT(index < PRIO_MAX);
 728              		.loc 2 65 0
 729 0298 7B68     		ldr	r3, [r7, #4]
 730 029a 3F2B     		cmp	r3, #63
 731 029c 03D9     		bls	.L32
 732              		.loc 2 65 0 is_stmt 0 discriminator 1
 733 029e 4121     		movs	r1, #65
 734 02a0 0748     		ldr	r0, .L34
 735 02a2 FFF7FEFF 		bl	_ASSERT
 736              	.L32:
  66:../../source/src/kernel/OS_CORE/schedule/os_TCB_list.c **** 	return TCB_list[index].ready_num;
 737              		.loc 2 66 0 is_stmt 1
 738 02a6 0749     		ldr	r1, .L34+4
 739 02a8 7A68     		ldr	r2, [r7, #4]
 740 02aa 1346     		mov	r3, r2
 741 02ac 5B00     		lsls	r3, r3, #1
 742 02ae 1344     		add	r3, r3, r2
 743 02b0 9B00     		lsls	r3, r3, #2
 744 02b2 0B44     		add	r3, r3, r1
 745 02b4 0833     		adds	r3, r3, #8
 746 02b6 1B78     		ldrb	r3, [r3]	@ zero_extendqisi2
  67:../../source/src/kernel/OS_CORE/schedule/os_TCB_list.c **** }
 747              		.loc 2 67 0
 748 02b8 1846     		mov	r0, r3
ARM GAS  G:\Users\Jaxb\AppData\Local\Temp\cctJaDbb.s 			page 17


 749 02ba 0837     		adds	r7, r7, #8
 750              	.LCFI57:
 751              		.cfi_def_cfa_offset 8
 752 02bc BD46     		mov	sp, r7
 753              	.LCFI58:
 754              		.cfi_def_cfa_register 13
 755              		@ sp needed
 756 02be 80BD     		pop	{r7, pc}
 757              	.L35:
 758              		.align	2
 759              	.L34:
 760 02c0 00000000 		.word	.LC0
 761 02c4 00000000 		.word	TCB_list
 762              		.cfi_endproc
 763              	.LFE15:
 764              		.size	_get_ready_num_from_TCB_list, .-_get_ready_num_from_TCB_list
 765              		.align	1
 766              		.global	_decrease_ready_num
 767              		.syntax unified
 768              		.thumb
 769              		.thumb_func
 770              		.fpu softvfp
 771              		.type	_decrease_ready_num, %function
 772              	_decrease_ready_num:
 773              	.LFB16:
  68:../../source/src/kernel/OS_CORE/schedule/os_TCB_list.c **** 
  69:../../source/src/kernel/OS_CORE/schedule/os_TCB_list.c **** void _decrease_ready_num(unsigned int index)
  70:../../source/src/kernel/OS_CORE/schedule/os_TCB_list.c **** {
 774              		.loc 2 70 0
 775              		.cfi_startproc
 776              		@ args = 0, pretend = 0, frame = 8
 777              		@ frame_needed = 1, uses_anonymous_args = 0
 778 02c8 80B5     		push	{r7, lr}
 779              	.LCFI59:
 780              		.cfi_def_cfa_offset 8
 781              		.cfi_offset 7, -8
 782              		.cfi_offset 14, -4
 783 02ca 82B0     		sub	sp, sp, #8
 784              	.LCFI60:
 785              		.cfi_def_cfa_offset 16
 786 02cc 00AF     		add	r7, sp, #0
 787              	.LCFI61:
 788              		.cfi_def_cfa_register 7
 789 02ce 7860     		str	r0, [r7, #4]
  71:../../source/src/kernel/OS_CORE/schedule/os_TCB_list.c **** 	ASSERT(index < PRIO_MAX);
 790              		.loc 2 71 0
 791 02d0 7B68     		ldr	r3, [r7, #4]
 792 02d2 3F2B     		cmp	r3, #63
 793 02d4 03D9     		bls	.L37
 794              		.loc 2 71 0 is_stmt 0 discriminator 1
 795 02d6 4721     		movs	r1, #71
 796 02d8 1548     		ldr	r0, .L39
 797 02da FFF7FEFF 		bl	_ASSERT
 798              	.L37:
  72:../../source/src/kernel/OS_CORE/schedule/os_TCB_list.c **** 	ASSERT(0 != TCB_list[index].ready_num);
 799              		.loc 2 72 0 is_stmt 1
 800 02de 1549     		ldr	r1, .L39+4
ARM GAS  G:\Users\Jaxb\AppData\Local\Temp\cctJaDbb.s 			page 18


 801 02e0 7A68     		ldr	r2, [r7, #4]
 802 02e2 1346     		mov	r3, r2
 803 02e4 5B00     		lsls	r3, r3, #1
 804 02e6 1344     		add	r3, r3, r2
 805 02e8 9B00     		lsls	r3, r3, #2
 806 02ea 0B44     		add	r3, r3, r1
 807 02ec 0833     		adds	r3, r3, #8
 808 02ee 1B78     		ldrb	r3, [r3]	@ zero_extendqisi2
 809 02f0 002B     		cmp	r3, #0
 810 02f2 03D1     		bne	.L38
 811              		.loc 2 72 0 is_stmt 0 discriminator 1
 812 02f4 4821     		movs	r1, #72
 813 02f6 0E48     		ldr	r0, .L39
 814 02f8 FFF7FEFF 		bl	_ASSERT
 815              	.L38:
  73:../../source/src/kernel/OS_CORE/schedule/os_TCB_list.c **** 	--(TCB_list[index].ready_num);
 816              		.loc 2 73 0 is_stmt 1
 817 02fc 0D49     		ldr	r1, .L39+4
 818 02fe 7A68     		ldr	r2, [r7, #4]
 819 0300 1346     		mov	r3, r2
 820 0302 5B00     		lsls	r3, r3, #1
 821 0304 1344     		add	r3, r3, r2
 822 0306 9B00     		lsls	r3, r3, #2
 823 0308 0B44     		add	r3, r3, r1
 824 030a 0833     		adds	r3, r3, #8
 825 030c 1B78     		ldrb	r3, [r3]	@ zero_extendqisi2
 826 030e 013B     		subs	r3, r3, #1
 827 0310 D8B2     		uxtb	r0, r3
 828 0312 0849     		ldr	r1, .L39+4
 829 0314 7A68     		ldr	r2, [r7, #4]
 830 0316 1346     		mov	r3, r2
 831 0318 5B00     		lsls	r3, r3, #1
 832 031a 1344     		add	r3, r3, r2
 833 031c 9B00     		lsls	r3, r3, #2
 834 031e 0B44     		add	r3, r3, r1
 835 0320 0833     		adds	r3, r3, #8
 836 0322 0246     		mov	r2, r0
 837 0324 1A70     		strb	r2, [r3]
  74:../../source/src/kernel/OS_CORE/schedule/os_TCB_list.c **** }
 838              		.loc 2 74 0
 839 0326 00BF     		nop
 840 0328 0837     		adds	r7, r7, #8
 841              	.LCFI62:
 842              		.cfi_def_cfa_offset 8
 843 032a BD46     		mov	sp, r7
 844              	.LCFI63:
 845              		.cfi_def_cfa_register 13
 846              		@ sp needed
 847 032c 80BD     		pop	{r7, pc}
 848              	.L40:
 849 032e 00BF     		.align	2
 850              	.L39:
 851 0330 00000000 		.word	.LC0
 852 0334 00000000 		.word	TCB_list
 853              		.cfi_endproc
 854              	.LFE16:
 855              		.size	_decrease_ready_num, .-_decrease_ready_num
ARM GAS  G:\Users\Jaxb\AppData\Local\Temp\cctJaDbb.s 			page 19


 856              		.align	1
 857              		.global	_increase_ready_num
 858              		.syntax unified
 859              		.thumb
 860              		.thumb_func
 861              		.fpu softvfp
 862              		.type	_increase_ready_num, %function
 863              	_increase_ready_num:
 864              	.LFB17:
  75:../../source/src/kernel/OS_CORE/schedule/os_TCB_list.c **** 
  76:../../source/src/kernel/OS_CORE/schedule/os_TCB_list.c **** void _increase_ready_num(unsigned int index)
  77:../../source/src/kernel/OS_CORE/schedule/os_TCB_list.c **** {
 865              		.loc 2 77 0
 866              		.cfi_startproc
 867              		@ args = 0, pretend = 0, frame = 8
 868              		@ frame_needed = 1, uses_anonymous_args = 0
 869 0338 80B5     		push	{r7, lr}
 870              	.LCFI64:
 871              		.cfi_def_cfa_offset 8
 872              		.cfi_offset 7, -8
 873              		.cfi_offset 14, -4
 874 033a 82B0     		sub	sp, sp, #8
 875              	.LCFI65:
 876              		.cfi_def_cfa_offset 16
 877 033c 00AF     		add	r7, sp, #0
 878              	.LCFI66:
 879              		.cfi_def_cfa_register 7
 880 033e 7860     		str	r0, [r7, #4]
  78:../../source/src/kernel/OS_CORE/schedule/os_TCB_list.c **** 	ASSERT(index < PRIO_MAX);
 881              		.loc 2 78 0
 882 0340 7B68     		ldr	r3, [r7, #4]
 883 0342 3F2B     		cmp	r3, #63
 884 0344 03D9     		bls	.L42
 885              		.loc 2 78 0 is_stmt 0 discriminator 1
 886 0346 4E21     		movs	r1, #78
 887 0348 0D48     		ldr	r0, .L43
 888 034a FFF7FEFF 		bl	_ASSERT
 889              	.L42:
  79:../../source/src/kernel/OS_CORE/schedule/os_TCB_list.c **** 	++(TCB_list[index].ready_num);
 890              		.loc 2 79 0 is_stmt 1
 891 034e 0D49     		ldr	r1, .L43+4
 892 0350 7A68     		ldr	r2, [r7, #4]
 893 0352 1346     		mov	r3, r2
 894 0354 5B00     		lsls	r3, r3, #1
 895 0356 1344     		add	r3, r3, r2
 896 0358 9B00     		lsls	r3, r3, #2
 897 035a 0B44     		add	r3, r3, r1
 898 035c 0833     		adds	r3, r3, #8
 899 035e 1B78     		ldrb	r3, [r3]	@ zero_extendqisi2
 900 0360 0133     		adds	r3, r3, #1
 901 0362 D8B2     		uxtb	r0, r3
 902 0364 0749     		ldr	r1, .L43+4
 903 0366 7A68     		ldr	r2, [r7, #4]
 904 0368 1346     		mov	r3, r2
 905 036a 5B00     		lsls	r3, r3, #1
 906 036c 1344     		add	r3, r3, r2
 907 036e 9B00     		lsls	r3, r3, #2
ARM GAS  G:\Users\Jaxb\AppData\Local\Temp\cctJaDbb.s 			page 20


 908 0370 0B44     		add	r3, r3, r1
 909 0372 0833     		adds	r3, r3, #8
 910 0374 0246     		mov	r2, r0
 911 0376 1A70     		strb	r2, [r3]
  80:../../source/src/kernel/OS_CORE/schedule/os_TCB_list.c **** }
 912              		.loc 2 80 0
 913 0378 00BF     		nop
 914 037a 0837     		adds	r7, r7, #8
 915              	.LCFI67:
 916              		.cfi_def_cfa_offset 8
 917 037c BD46     		mov	sp, r7
 918              	.LCFI68:
 919              		.cfi_def_cfa_register 13
 920              		@ sp needed
 921 037e 80BD     		pop	{r7, pc}
 922              	.L44:
 923              		.align	2
 924              	.L43:
 925 0380 00000000 		.word	.LC0
 926 0384 00000000 		.word	TCB_list
 927              		.cfi_endproc
 928              	.LFE17:
 929              		.size	_increase_ready_num, .-_increase_ready_num
 930              		.align	1
 931              		.global	_decrease_TCB_num
 932              		.syntax unified
 933              		.thumb
 934              		.thumb_func
 935              		.fpu softvfp
 936              		.type	_decrease_TCB_num, %function
 937              	_decrease_TCB_num:
 938              	.LFB18:
  81:../../source/src/kernel/OS_CORE/schedule/os_TCB_list.c **** 
  82:../../source/src/kernel/OS_CORE/schedule/os_TCB_list.c **** void _decrease_TCB_num(unsigned int index)
  83:../../source/src/kernel/OS_CORE/schedule/os_TCB_list.c **** {
 939              		.loc 2 83 0
 940              		.cfi_startproc
 941              		@ args = 0, pretend = 0, frame = 8
 942              		@ frame_needed = 1, uses_anonymous_args = 0
 943 0388 80B5     		push	{r7, lr}
 944              	.LCFI69:
 945              		.cfi_def_cfa_offset 8
 946              		.cfi_offset 7, -8
 947              		.cfi_offset 14, -4
 948 038a 82B0     		sub	sp, sp, #8
 949              	.LCFI70:
 950              		.cfi_def_cfa_offset 16
 951 038c 00AF     		add	r7, sp, #0
 952              	.LCFI71:
 953              		.cfi_def_cfa_register 7
 954 038e 7860     		str	r0, [r7, #4]
  84:../../source/src/kernel/OS_CORE/schedule/os_TCB_list.c **** 	ASSERT(index < PRIO_MAX);
 955              		.loc 2 84 0
 956 0390 7B68     		ldr	r3, [r7, #4]
 957 0392 3F2B     		cmp	r3, #63
 958 0394 03D9     		bls	.L46
 959              		.loc 2 84 0 is_stmt 0 discriminator 1
ARM GAS  G:\Users\Jaxb\AppData\Local\Temp\cctJaDbb.s 			page 21


 960 0396 5421     		movs	r1, #84
 961 0398 1548     		ldr	r0, .L48
 962 039a FFF7FEFF 		bl	_ASSERT
 963              	.L46:
  85:../../source/src/kernel/OS_CORE/schedule/os_TCB_list.c **** 	ASSERT(0 != TCB_list[index].TCB_num);
 964              		.loc 2 85 0 is_stmt 1
 965 039e 1549     		ldr	r1, .L48+4
 966 03a0 7A68     		ldr	r2, [r7, #4]
 967 03a2 1346     		mov	r3, r2
 968 03a4 5B00     		lsls	r3, r3, #1
 969 03a6 1344     		add	r3, r3, r2
 970 03a8 9B00     		lsls	r3, r3, #2
 971 03aa 0B44     		add	r3, r3, r1
 972 03ac 0933     		adds	r3, r3, #9
 973 03ae 1B78     		ldrb	r3, [r3]	@ zero_extendqisi2
 974 03b0 002B     		cmp	r3, #0
 975 03b2 03D1     		bne	.L47
 976              		.loc 2 85 0 is_stmt 0 discriminator 1
 977 03b4 5521     		movs	r1, #85
 978 03b6 0E48     		ldr	r0, .L48
 979 03b8 FFF7FEFF 		bl	_ASSERT
 980              	.L47:
  86:../../source/src/kernel/OS_CORE/schedule/os_TCB_list.c **** 	--(TCB_list[index].TCB_num);
 981              		.loc 2 86 0 is_stmt 1
 982 03bc 0D49     		ldr	r1, .L48+4
 983 03be 7A68     		ldr	r2, [r7, #4]
 984 03c0 1346     		mov	r3, r2
 985 03c2 5B00     		lsls	r3, r3, #1
 986 03c4 1344     		add	r3, r3, r2
 987 03c6 9B00     		lsls	r3, r3, #2
 988 03c8 0B44     		add	r3, r3, r1
 989 03ca 0933     		adds	r3, r3, #9
 990 03cc 1B78     		ldrb	r3, [r3]	@ zero_extendqisi2
 991 03ce 013B     		subs	r3, r3, #1
 992 03d0 D8B2     		uxtb	r0, r3
 993 03d2 0849     		ldr	r1, .L48+4
 994 03d4 7A68     		ldr	r2, [r7, #4]
 995 03d6 1346     		mov	r3, r2
 996 03d8 5B00     		lsls	r3, r3, #1
 997 03da 1344     		add	r3, r3, r2
 998 03dc 9B00     		lsls	r3, r3, #2
 999 03de 0B44     		add	r3, r3, r1
 1000 03e0 0933     		adds	r3, r3, #9
 1001 03e2 0246     		mov	r2, r0
 1002 03e4 1A70     		strb	r2, [r3]
  87:../../source/src/kernel/OS_CORE/schedule/os_TCB_list.c **** }
 1003              		.loc 2 87 0
 1004 03e6 00BF     		nop
 1005 03e8 0837     		adds	r7, r7, #8
 1006              	.LCFI72:
 1007              		.cfi_def_cfa_offset 8
 1008 03ea BD46     		mov	sp, r7
 1009              	.LCFI73:
 1010              		.cfi_def_cfa_register 13
 1011              		@ sp needed
 1012 03ec 80BD     		pop	{r7, pc}
 1013              	.L49:
ARM GAS  G:\Users\Jaxb\AppData\Local\Temp\cctJaDbb.s 			page 22


 1014 03ee 00BF     		.align	2
 1015              	.L48:
 1016 03f0 00000000 		.word	.LC0
 1017 03f4 00000000 		.word	TCB_list
 1018              		.cfi_endproc
 1019              	.LFE18:
 1020              		.size	_decrease_TCB_num, .-_decrease_TCB_num
 1021              		.align	1
 1022              		.global	_increase_TCB_num
 1023              		.syntax unified
 1024              		.thumb
 1025              		.thumb_func
 1026              		.fpu softvfp
 1027              		.type	_increase_TCB_num, %function
 1028              	_increase_TCB_num:
 1029              	.LFB19:
  88:../../source/src/kernel/OS_CORE/schedule/os_TCB_list.c **** 
  89:../../source/src/kernel/OS_CORE/schedule/os_TCB_list.c **** void _increase_TCB_num(unsigned int index)
  90:../../source/src/kernel/OS_CORE/schedule/os_TCB_list.c **** {
 1030              		.loc 2 90 0
 1031              		.cfi_startproc
 1032              		@ args = 0, pretend = 0, frame = 8
 1033              		@ frame_needed = 1, uses_anonymous_args = 0
 1034 03f8 80B5     		push	{r7, lr}
 1035              	.LCFI74:
 1036              		.cfi_def_cfa_offset 8
 1037              		.cfi_offset 7, -8
 1038              		.cfi_offset 14, -4
 1039 03fa 82B0     		sub	sp, sp, #8
 1040              	.LCFI75:
 1041              		.cfi_def_cfa_offset 16
 1042 03fc 00AF     		add	r7, sp, #0
 1043              	.LCFI76:
 1044              		.cfi_def_cfa_register 7
 1045 03fe 7860     		str	r0, [r7, #4]
  91:../../source/src/kernel/OS_CORE/schedule/os_TCB_list.c **** 	ASSERT(index < PRIO_MAX);
 1046              		.loc 2 91 0
 1047 0400 7B68     		ldr	r3, [r7, #4]
 1048 0402 3F2B     		cmp	r3, #63
 1049 0404 03D9     		bls	.L51
 1050              		.loc 2 91 0 is_stmt 0 discriminator 1
 1051 0406 5B21     		movs	r1, #91
 1052 0408 0D48     		ldr	r0, .L52
 1053 040a FFF7FEFF 		bl	_ASSERT
 1054              	.L51:
  92:../../source/src/kernel/OS_CORE/schedule/os_TCB_list.c **** 	++(TCB_list[index].TCB_num);
 1055              		.loc 2 92 0 is_stmt 1
 1056 040e 0D49     		ldr	r1, .L52+4
 1057 0410 7A68     		ldr	r2, [r7, #4]
 1058 0412 1346     		mov	r3, r2
 1059 0414 5B00     		lsls	r3, r3, #1
 1060 0416 1344     		add	r3, r3, r2
 1061 0418 9B00     		lsls	r3, r3, #2
 1062 041a 0B44     		add	r3, r3, r1
 1063 041c 0933     		adds	r3, r3, #9
 1064 041e 1B78     		ldrb	r3, [r3]	@ zero_extendqisi2
 1065 0420 0133     		adds	r3, r3, #1
ARM GAS  G:\Users\Jaxb\AppData\Local\Temp\cctJaDbb.s 			page 23


 1066 0422 D8B2     		uxtb	r0, r3
 1067 0424 0749     		ldr	r1, .L52+4
 1068 0426 7A68     		ldr	r2, [r7, #4]
 1069 0428 1346     		mov	r3, r2
 1070 042a 5B00     		lsls	r3, r3, #1
 1071 042c 1344     		add	r3, r3, r2
 1072 042e 9B00     		lsls	r3, r3, #2
 1073 0430 0B44     		add	r3, r3, r1
 1074 0432 0933     		adds	r3, r3, #9
 1075 0434 0246     		mov	r2, r0
 1076 0436 1A70     		strb	r2, [r3]
  93:../../source/src/kernel/OS_CORE/schedule/os_TCB_list.c **** }
 1077              		.loc 2 93 0
 1078 0438 00BF     		nop
 1079 043a 0837     		adds	r7, r7, #8
 1080              	.LCFI77:
 1081              		.cfi_def_cfa_offset 8
 1082 043c BD46     		mov	sp, r7
 1083              	.LCFI78:
 1084              		.cfi_def_cfa_register 13
 1085              		@ sp needed
 1086 043e 80BD     		pop	{r7, pc}
 1087              	.L53:
 1088              		.align	2
 1089              	.L52:
 1090 0440 00000000 		.word	.LC0
 1091 0444 00000000 		.word	TCB_list
 1092              		.cfi_endproc
 1093              	.LFE19:
 1094              		.size	_increase_TCB_num, .-_increase_TCB_num
 1095              		.section	.rodata
 1096 0037 00       		.align	2
 1097              	.LC1:
 1098 0038 7072696F 		.ascii	"prio %u has task:\012\000"
 1098      20257520 
 1098      68617320 
 1098      7461736B 
 1098      3A0A00
 1099 004b 00       		.align	2
 1100              	.LC2:
 1101 004c 6E616D65 		.ascii	"name: %s\012\000"
 1101      3A202573 
 1101      0A00
 1102 0056 0000     		.align	2
 1103              	.LC3:
 1104 0058 74696D65 		.ascii	"timeslice_hope_time: %d\012\000"
 1104      736C6963 
 1104      655F686F 
 1104      70655F74 
 1104      696D653A 
 1105 0071 000000   		.align	2
 1106              	.LC4:
 1107 0074 73746163 		.ascii	"stack: %p\012\000"
 1107      6B3A2025 
 1107      700A00
 1108 007f 00       		.align	2
 1109              	.LC5:
ARM GAS  G:\Users\Jaxb\AppData\Local\Temp\cctJaDbb.s 			page 24


 1110 0080 73746163 		.ascii	"stack_size: %d\012\000"
 1110      6B5F7369 
 1110      7A653A20 
 1110      25640A00 
 1111              		.align	2
 1112              	.LC6:
 1113 0090 7461736B 		.ascii	"task_state: \000"
 1113      5F737461 
 1113      74653A20 
 1113      00
 1114 009d 000000   		.align	2
 1115              	.LC7:
 1116 00a0 53544154 		.ascii	"STATE_READY\012\000"
 1116      455F5245 
 1116      4144590A 
 1116      00
 1117 00ad 000000   		.align	2
 1118              	.LC8:
 1119 00b0 53544154 		.ascii	"STATE_DELAY\012\000"
 1119      455F4445 
 1119      4C41590A 
 1119      00
 1120 00bd 000000   		.align	2
 1121              	.LC9:
 1122 00c0 53544154 		.ascii	"STATE_SUSPEND\012\000"
 1122      455F5355 
 1122      5350454E 
 1122      440A00
 1123 00cf 00       		.align	2
 1124              	.LC10:
 1125 00d0 2F2A2A2A 		.ascii	"/**************************************************"
 1125      2A2A2A2A 
 1125      2A2A2A2A 
 1125      2A2A2A2A 
 1125      2A2A2A2A 
 1126 0103 2A2A2A2F 		.ascii	"***/\012\000"
 1126      0A00
 1127 0109 000000   		.align	2
 1128              	.LC11:
 1129 010c 7072696F 		.ascii	"prio %u TCB_num error!\012\000"
 1129      20257520 
 1129      5443425F 
 1129      6E756D20 
 1129      6572726F 
 1130              		.align	2
 1131              	.LC12:
 1132 0124 7072696F 		.ascii	"prio %u ready_num error!\012\000"
 1132      20257520 
 1132      72656164 
 1132      795F6E75 
 1132      6D206572 
 1133              		.text
 1134              		.align	1
 1135              		.global	shell_check_TCB_list
 1136              		.syntax unified
 1137              		.thumb
 1138              		.thumb_func
ARM GAS  G:\Users\Jaxb\AppData\Local\Temp\cctJaDbb.s 			page 25


 1139              		.fpu softvfp
 1140              		.type	shell_check_TCB_list, %function
 1141              	shell_check_TCB_list:
 1142              	.LFB20:
  94:../../source/src/kernel/OS_CORE/schedule/os_TCB_list.c **** 
  95:../../source/src/kernel/OS_CORE/schedule/os_TCB_list.c **** #if CONFIG_SHELL_EN
  96:../../source/src/kernel/OS_CORE/schedule/os_TCB_list.c **** void shell_check_TCB_list(void)
  97:../../source/src/kernel/OS_CORE/schedule/os_TCB_list.c **** {
 1143              		.loc 2 97 0
 1144              		.cfi_startproc
 1145              		@ args = 0, pretend = 0, frame = 24
 1146              		@ frame_needed = 1, uses_anonymous_args = 0
 1147 0448 80B5     		push	{r7, lr}
 1148              	.LCFI79:
 1149              		.cfi_def_cfa_offset 8
 1150              		.cfi_offset 7, -8
 1151              		.cfi_offset 14, -4
 1152 044a 86B0     		sub	sp, sp, #24
 1153              	.LCFI80:
 1154              		.cfi_def_cfa_offset 32
 1155 044c 00AF     		add	r7, sp, #0
 1156              	.LCFI81:
 1157              		.cfi_def_cfa_register 7
  98:../../source/src/kernel/OS_CORE/schedule/os_TCB_list.c **** 	unsigned int i;
  99:../../source/src/kernel/OS_CORE/schedule/os_TCB_list.c **** 	unsigned int ready_num = 0,TCB_num = 0;
 1158              		.loc 2 99 0
 1159 044e 0023     		movs	r3, #0
 1160 0450 3B61     		str	r3, [r7, #16]
 1161 0452 0023     		movs	r3, #0
 1162 0454 FB60     		str	r3, [r7, #12]
 100:../../source/src/kernel/OS_CORE/schedule/os_TCB_list.c **** 	struct list_head *pos;
 101:../../source/src/kernel/OS_CORE/schedule/os_TCB_list.c **** 	TCB *TCB_ptr;
 102:../../source/src/kernel/OS_CORE/schedule/os_TCB_list.c **** 	for(i=0;i<PRIO_MAX;++i)
 1163              		.loc 2 102 0
 1164 0456 0023     		movs	r3, #0
 1165 0458 7B61     		str	r3, [r7, #20]
 1166 045a A6E0     		b	.L55
 1167              	.L67:
 103:../../source/src/kernel/OS_CORE/schedule/os_TCB_list.c **** 	{
 104:../../source/src/kernel/OS_CORE/schedule/os_TCB_list.c **** 		if(!list_empty(&TCB_list[i].head))
 1168              		.loc 2 104 0
 1169 045c 7A69     		ldr	r2, [r7, #20]
 1170 045e 1346     		mov	r3, r2
 1171 0460 5B00     		lsls	r3, r3, #1
 1172 0462 1344     		add	r3, r3, r2
 1173 0464 9B00     		lsls	r3, r3, #2
 1174 0466 554A     		ldr	r2, .L68
 1175 0468 1344     		add	r3, r3, r2
 1176 046a 1846     		mov	r0, r3
 1177 046c FFF71EFE 		bl	list_empty
 1178 0470 0346     		mov	r3, r0
 1179 0472 002B     		cmp	r3, #0
 1180 0474 40F09680 		bne	.L56
 105:../../source/src/kernel/OS_CORE/schedule/os_TCB_list.c **** 		{
 106:../../source/src/kernel/OS_CORE/schedule/os_TCB_list.c **** 			ka_printf("prio %u has task:\n",i);
 1181              		.loc 2 106 0
 1182 0478 7969     		ldr	r1, [r7, #20]
ARM GAS  G:\Users\Jaxb\AppData\Local\Temp\cctJaDbb.s 			page 26


 1183 047a 5148     		ldr	r0, .L68+4
 1184 047c FFF7FEFF 		bl	ka_printf
 107:../../source/src/kernel/OS_CORE/schedule/os_TCB_list.c **** 			list_for_each(pos,&TCB_list[i].head)
 1185              		.loc 2 107 0
 1186 0480 4E49     		ldr	r1, .L68
 1187 0482 7A69     		ldr	r2, [r7, #20]
 1188 0484 1346     		mov	r3, r2
 1189 0486 5B00     		lsls	r3, r3, #1
 1190 0488 1344     		add	r3, r3, r2
 1191 048a 9B00     		lsls	r3, r3, #2
 1192 048c 0B44     		add	r3, r3, r1
 1193 048e 1B68     		ldr	r3, [r3]
 1194 0490 BB60     		str	r3, [r7, #8]
 1195 0492 57E0     		b	.L57
 1196              	.L64:
 1197              	.LBB2:
 108:../../source/src/kernel/OS_CORE/schedule/os_TCB_list.c **** 			{
 109:../../source/src/kernel/OS_CORE/schedule/os_TCB_list.c **** 				TCB_ptr = list_entry(pos,TCB,same_prio_list);
 1198              		.loc 2 109 0
 1199 0494 BB68     		ldr	r3, [r7, #8]
 1200 0496 7B60     		str	r3, [r7, #4]
 1201 0498 7B68     		ldr	r3, [r7, #4]
 1202 049a 1C3B     		subs	r3, r3, #28
 1203              	.LBE2:
 1204 049c 3B60     		str	r3, [r7]
 110:../../source/src/kernel/OS_CORE/schedule/os_TCB_list.c **** 				++TCB_num;
 1205              		.loc 2 110 0
 1206 049e FB68     		ldr	r3, [r7, #12]
 1207 04a0 0133     		adds	r3, r3, #1
 1208 04a2 FB60     		str	r3, [r7, #12]
 111:../../source/src/kernel/OS_CORE/schedule/os_TCB_list.c **** 				if(STATE_READY == TCB_ptr->task_state)
 1209              		.loc 2 111 0
 1210 04a4 3B68     		ldr	r3, [r7]
 1211 04a6 1B7C     		ldrb	r3, [r3, #16]	@ zero_extendqisi2
 1212 04a8 012B     		cmp	r3, #1
 1213 04aa 02D1     		bne	.L58
 112:../../source/src/kernel/OS_CORE/schedule/os_TCB_list.c **** 				{
 113:../../source/src/kernel/OS_CORE/schedule/os_TCB_list.c **** 					++ready_num;
 1214              		.loc 2 113 0
 1215 04ac 3B69     		ldr	r3, [r7, #16]
 1216 04ae 0133     		adds	r3, r3, #1
 1217 04b0 3B61     		str	r3, [r7, #16]
 1218              	.L58:
 114:../../source/src/kernel/OS_CORE/schedule/os_TCB_list.c **** 				}
 115:../../source/src/kernel/OS_CORE/schedule/os_TCB_list.c **** 				ka_printf("name: %s\n",TCB_ptr->name);
 1219              		.loc 2 115 0
 1220 04b2 3B68     		ldr	r3, [r7]
 1221 04b4 DB6A     		ldr	r3, [r3, #44]
 1222 04b6 1946     		mov	r1, r3
 1223 04b8 4248     		ldr	r0, .L68+8
 1224 04ba FFF7FEFF 		bl	ka_printf
 116:../../source/src/kernel/OS_CORE/schedule/os_TCB_list.c **** 				ka_printf("timeslice_hope_time: %d\n",TCB_ptr->timeslice_hope_time);
 1225              		.loc 2 116 0
 1226 04be 3B68     		ldr	r3, [r7]
 1227 04c0 1B6B     		ldr	r3, [r3, #48]
 1228 04c2 1946     		mov	r1, r3
 1229 04c4 4048     		ldr	r0, .L68+12
ARM GAS  G:\Users\Jaxb\AppData\Local\Temp\cctJaDbb.s 			page 27


 1230 04c6 FFF7FEFF 		bl	ka_printf
 117:../../source/src/kernel/OS_CORE/schedule/os_TCB_list.c **** 				ka_printf("stack: %p\n",(void *)TCB_ptr->stack);
 1231              		.loc 2 117 0
 1232 04ca 3B68     		ldr	r3, [r7]
 1233 04cc 1B68     		ldr	r3, [r3]
 1234 04ce 1946     		mov	r1, r3
 1235 04d0 3E48     		ldr	r0, .L68+16
 1236 04d2 FFF7FEFF 		bl	ka_printf
 118:../../source/src/kernel/OS_CORE/schedule/os_TCB_list.c **** 				ka_printf("stack_size: %d\n",TCB_ptr->stack_size);
 1237              		.loc 2 118 0
 1238 04d6 3B68     		ldr	r3, [r7]
 1239 04d8 5B68     		ldr	r3, [r3, #4]
 1240 04da 1946     		mov	r1, r3
 1241 04dc 3C48     		ldr	r0, .L68+20
 1242 04de FFF7FEFF 		bl	ka_printf
 119:../../source/src/kernel/OS_CORE/schedule/os_TCB_list.c **** 				ka_printf("task_state: ");
 1243              		.loc 2 119 0
 1244 04e2 3C48     		ldr	r0, .L68+24
 1245 04e4 FFF7FEFF 		bl	ka_printf
 120:../../source/src/kernel/OS_CORE/schedule/os_TCB_list.c **** 				switch(TCB_ptr->task_state)
 1246              		.loc 2 120 0
 1247 04e8 3B68     		ldr	r3, [r7]
 1248 04ea 1B7C     		ldrb	r3, [r3, #16]	@ zero_extendqisi2
 1249 04ec 013B     		subs	r3, r3, #1
 1250 04ee 092B     		cmp	r3, #9
 1251 04f0 22D8     		bhi	.L59
 1252 04f2 01A2     		adr	r2, .L61
 1253 04f4 52F823F0 		ldr	pc, [r2, r3, lsl #2]
 1254              		.p2align 2
 1255              	.L61:
 1256 04f8 21050000 		.word	.L60+1
 1257 04fc 29050000 		.word	.L62+1
 1258 0500 31050000 		.word	.L63+1
 1259 0504 31050000 		.word	.L63+1
 1260 0508 29050000 		.word	.L62+1
 1261 050c 31050000 		.word	.L63+1
 1262 0510 29050000 		.word	.L62+1
 1263 0514 31050000 		.word	.L63+1
 1264 0518 29050000 		.word	.L62+1
 1265 051c 31050000 		.word	.L63+1
 1266              		.p2align 1
 1267              	.L60:
 121:../../source/src/kernel/OS_CORE/schedule/os_TCB_list.c **** 				{
 122:../../source/src/kernel/OS_CORE/schedule/os_TCB_list.c **** 					case STATE_READY:
 123:../../source/src/kernel/OS_CORE/schedule/os_TCB_list.c **** 						ka_printf("STATE_READY\n");break;
 1268              		.loc 2 123 0
 1269 0520 2D48     		ldr	r0, .L68+28
 1270 0522 FFF7FEFF 		bl	ka_printf
 1271 0526 07E0     		b	.L59
 1272              	.L62:
 124:../../source/src/kernel/OS_CORE/schedule/os_TCB_list.c **** 					case STATE_DELAY:
 125:../../source/src/kernel/OS_CORE/schedule/os_TCB_list.c **** 					case STATE_WAIT_MCB_TIMEOUT:
 126:../../source/src/kernel/OS_CORE/schedule/os_TCB_list.c **** 					case STATE_WAIT_MESSAGE_QUEUE_TIMEOUT:
 127:../../source/src/kernel/OS_CORE/schedule/os_TCB_list.c **** 					case STATE_PUT_MESSAGE_QUEUE_TIMEOUT:
 128:../../source/src/kernel/OS_CORE/schedule/os_TCB_list.c **** 						ka_printf("STATE_DELAY\n");break;
 1273              		.loc 2 128 0
 1274 0528 2C48     		ldr	r0, .L68+32
ARM GAS  G:\Users\Jaxb\AppData\Local\Temp\cctJaDbb.s 			page 28


 1275 052a FFF7FEFF 		bl	ka_printf
 1276 052e 03E0     		b	.L59
 1277              	.L63:
 129:../../source/src/kernel/OS_CORE/schedule/os_TCB_list.c **** 					case STATE_SUSPEND_NORMAL:
 130:../../source/src/kernel/OS_CORE/schedule/os_TCB_list.c **** 					case STATE_WAIT_MCB_FOREVER:
 131:../../source/src/kernel/OS_CORE/schedule/os_TCB_list.c **** 					case STATE_WAIT_MESSAGE_QUEUE_FOREVER:
 132:../../source/src/kernel/OS_CORE/schedule/os_TCB_list.c **** 					case STATE_PUT_MESSAGE_QUEUE_FOREVER:
 133:../../source/src/kernel/OS_CORE/schedule/os_TCB_list.c **** 					case STATE_WAIT_MUTEX_FOREVER:
 134:../../source/src/kernel/OS_CORE/schedule/os_TCB_list.c **** 						ka_printf("STATE_SUSPEND\n");break;
 1278              		.loc 2 134 0
 1279 0530 2B48     		ldr	r0, .L68+36
 1280 0532 FFF7FEFF 		bl	ka_printf
 1281 0536 00BF     		nop
 1282              	.L59:
 135:../../source/src/kernel/OS_CORE/schedule/os_TCB_list.c **** 				}
 136:../../source/src/kernel/OS_CORE/schedule/os_TCB_list.c **** 				ka_printf("/*****************************************************/\n");
 1283              		.loc 2 136 0 discriminator 2
 1284 0538 2A48     		ldr	r0, .L68+40
 1285 053a FFF7FEFF 		bl	ka_printf
 107:../../source/src/kernel/OS_CORE/schedule/os_TCB_list.c **** 			{
 1286              		.loc 2 107 0 discriminator 2
 1287 053e BB68     		ldr	r3, [r7, #8]
 1288 0540 1B68     		ldr	r3, [r3]
 1289 0542 BB60     		str	r3, [r7, #8]
 1290              	.L57:
 107:../../source/src/kernel/OS_CORE/schedule/os_TCB_list.c **** 			{
 1291              		.loc 2 107 0 is_stmt 0 discriminator 1
 1292 0544 7A69     		ldr	r2, [r7, #20]
 1293 0546 1346     		mov	r3, r2
 1294 0548 5B00     		lsls	r3, r3, #1
 1295 054a 1344     		add	r3, r3, r2
 1296 054c 9B00     		lsls	r3, r3, #2
 1297 054e 1B4A     		ldr	r2, .L68
 1298 0550 1344     		add	r3, r3, r2
 1299 0552 BA68     		ldr	r2, [r7, #8]
 1300 0554 9A42     		cmp	r2, r3
 1301 0556 9DD1     		bne	.L64
 137:../../source/src/kernel/OS_CORE/schedule/os_TCB_list.c **** 			}
 138:../../source/src/kernel/OS_CORE/schedule/os_TCB_list.c **** 			if(TCB_num != TCB_list[i].TCB_num)
 1302              		.loc 2 138 0 is_stmt 1
 1303 0558 1849     		ldr	r1, .L68
 1304 055a 7A69     		ldr	r2, [r7, #20]
 1305 055c 1346     		mov	r3, r2
 1306 055e 5B00     		lsls	r3, r3, #1
 1307 0560 1344     		add	r3, r3, r2
 1308 0562 9B00     		lsls	r3, r3, #2
 1309 0564 0B44     		add	r3, r3, r1
 1310 0566 0933     		adds	r3, r3, #9
 1311 0568 1B78     		ldrb	r3, [r3]	@ zero_extendqisi2
 1312 056a 1A46     		mov	r2, r3
 1313 056c FB68     		ldr	r3, [r7, #12]
 1314 056e 9342     		cmp	r3, r2
 1315 0570 03D0     		beq	.L65
 139:../../source/src/kernel/OS_CORE/schedule/os_TCB_list.c **** 			{
 140:../../source/src/kernel/OS_CORE/schedule/os_TCB_list.c **** 				ka_printf("prio %u TCB_num error!\n",i);
 1316              		.loc 2 140 0
 1317 0572 7969     		ldr	r1, [r7, #20]
ARM GAS  G:\Users\Jaxb\AppData\Local\Temp\cctJaDbb.s 			page 29


 1318 0574 1C48     		ldr	r0, .L68+44
 1319 0576 FFF7FEFF 		bl	ka_printf
 1320              	.L65:
 141:../../source/src/kernel/OS_CORE/schedule/os_TCB_list.c **** 			}
 142:../../source/src/kernel/OS_CORE/schedule/os_TCB_list.c **** 			if(ready_num != TCB_list[i].ready_num)
 1321              		.loc 2 142 0
 1322 057a 1049     		ldr	r1, .L68
 1323 057c 7A69     		ldr	r2, [r7, #20]
 1324 057e 1346     		mov	r3, r2
 1325 0580 5B00     		lsls	r3, r3, #1
 1326 0582 1344     		add	r3, r3, r2
 1327 0584 9B00     		lsls	r3, r3, #2
 1328 0586 0B44     		add	r3, r3, r1
 1329 0588 0833     		adds	r3, r3, #8
 1330 058a 1B78     		ldrb	r3, [r3]	@ zero_extendqisi2
 1331 058c 1A46     		mov	r2, r3
 1332 058e 3B69     		ldr	r3, [r7, #16]
 1333 0590 9342     		cmp	r3, r2
 1334 0592 03D0     		beq	.L66
 143:../../source/src/kernel/OS_CORE/schedule/os_TCB_list.c **** 			{
 144:../../source/src/kernel/OS_CORE/schedule/os_TCB_list.c **** 				ka_printf("prio %u ready_num error!\n",i);
 1335              		.loc 2 144 0
 1336 0594 7969     		ldr	r1, [r7, #20]
 1337 0596 1548     		ldr	r0, .L68+48
 1338 0598 FFF7FEFF 		bl	ka_printf
 1339              	.L66:
 145:../../source/src/kernel/OS_CORE/schedule/os_TCB_list.c **** 			}
 146:../../source/src/kernel/OS_CORE/schedule/os_TCB_list.c **** 			ready_num = 0;
 1340              		.loc 2 146 0
 1341 059c 0023     		movs	r3, #0
 1342 059e 3B61     		str	r3, [r7, #16]
 147:../../source/src/kernel/OS_CORE/schedule/os_TCB_list.c **** 			TCB_num = 0;
 1343              		.loc 2 147 0
 1344 05a0 0023     		movs	r3, #0
 1345 05a2 FB60     		str	r3, [r7, #12]
 1346              	.L56:
 102:../../source/src/kernel/OS_CORE/schedule/os_TCB_list.c **** 	{
 1347              		.loc 2 102 0 discriminator 2
 1348 05a4 7B69     		ldr	r3, [r7, #20]
 1349 05a6 0133     		adds	r3, r3, #1
 1350 05a8 7B61     		str	r3, [r7, #20]
 1351              	.L55:
 102:../../source/src/kernel/OS_CORE/schedule/os_TCB_list.c **** 	{
 1352              		.loc 2 102 0 is_stmt 0 discriminator 1
 1353 05aa 7B69     		ldr	r3, [r7, #20]
 1354 05ac 3F2B     		cmp	r3, #63
 1355 05ae 7FF655AF 		bls	.L67
 148:../../source/src/kernel/OS_CORE/schedule/os_TCB_list.c **** 		}
 149:../../source/src/kernel/OS_CORE/schedule/os_TCB_list.c **** 	}
 150:../../source/src/kernel/OS_CORE/schedule/os_TCB_list.c **** }
 1356              		.loc 2 150 0 is_stmt 1
 1357 05b2 00BF     		nop
 1358 05b4 1837     		adds	r7, r7, #24
 1359              	.LCFI82:
 1360              		.cfi_def_cfa_offset 8
 1361 05b6 BD46     		mov	sp, r7
 1362              	.LCFI83:
ARM GAS  G:\Users\Jaxb\AppData\Local\Temp\cctJaDbb.s 			page 30


 1363              		.cfi_def_cfa_register 13
 1364              		@ sp needed
 1365 05b8 80BD     		pop	{r7, pc}
 1366              	.L69:
 1367 05ba 00BF     		.align	2
 1368              	.L68:
 1369 05bc 00000000 		.word	TCB_list
 1370 05c0 38000000 		.word	.LC1
 1371 05c4 4C000000 		.word	.LC2
 1372 05c8 58000000 		.word	.LC3
 1373 05cc 74000000 		.word	.LC4
 1374 05d0 80000000 		.word	.LC5
 1375 05d4 90000000 		.word	.LC6
 1376 05d8 A0000000 		.word	.LC7
 1377 05dc B0000000 		.word	.LC8
 1378 05e0 C0000000 		.word	.LC9
 1379 05e4 D0000000 		.word	.LC10
 1380 05e8 0C010000 		.word	.LC11
 1381 05ec 24010000 		.word	.LC12
 1382              		.cfi_endproc
 1383              	.LFE20:
 1384              		.size	shell_check_TCB_list, .-shell_check_TCB_list
 1385              		.section	.rodata
 1386 013e 0000     		.align	2
 1387              	.LC13:
 1388 0140 3D3D3D3D 		.ascii	"==================================================="
 1388      3D3D3D3D 
 1388      3D3D3D3D 
 1388      3D3D3D3D 
 1388      3D3D3D3D 
 1389 0173 3D3D0A00 		.ascii	"==\012\000"
 1390 0177 00       		.align	2
 1391              	.LC14:
 1392 0178 7461736B 		.ascii	"task name : %s\012\000"
 1392      206E616D 
 1392      65203A20 
 1392      25730A00 
 1393              		.align	2
 1394              	.LC15:
 1395 0188 54686520 		.ascii	"The stack space is from %p to %p\012\000"
 1395      73746163 
 1395      6B207370 
 1395      61636520 
 1395      69732066 
 1396 01aa 0000     		.align	2
 1397              	.LC16:
 1398 01ac 73746163 		.ascii	"stack full!!!!\012\000"
 1398      6B206675 
 1398      6C6C2121 
 1398      21210A00 
 1399              		.align	2
 1400              	.LC17:
 1401 01bc 73746163 		.ascii	"stack empty!!!!\012\000"
 1401      6B20656D 
 1401      70747921 
 1401      2121210A 
 1401      00
ARM GAS  G:\Users\Jaxb\AppData\Local\Temp\cctJaDbb.s 			page 31


 1402 01cd 000000   		.align	2
 1403              	.LC18:
 1404 01d0 49742773 		.ascii	"It's stack used rate is %d%%\012\000"
 1404      20737461 
 1404      636B2075 
 1404      73656420 
 1404      72617465 
 1405              		.text
 1406              		.align	1
 1407              		.global	shell_stack_check
 1408              		.syntax unified
 1409              		.thumb
 1410              		.thumb_func
 1411              		.fpu softvfp
 1412              		.type	shell_stack_check, %function
 1413              	shell_stack_check:
 1414              	.LFB21:
 151:../../source/src/kernel/OS_CORE/schedule/os_TCB_list.c **** #endif
 152:../../source/src/kernel/OS_CORE/schedule/os_TCB_list.c **** 
 153:../../source/src/kernel/OS_CORE/schedule/os_TCB_list.c **** #if CONFIG_SHELL_EN
 154:../../source/src/kernel/OS_CORE/schedule/os_TCB_list.c **** void shell_stack_check(int argc, char const *argv[])
 155:../../source/src/kernel/OS_CORE/schedule/os_TCB_list.c **** {
 1415              		.loc 2 155 0
 1416              		.cfi_startproc
 1417              		@ args = 0, pretend = 0, frame = 32
 1418              		@ frame_needed = 1, uses_anonymous_args = 0
 1419 05f0 80B5     		push	{r7, lr}
 1420              	.LCFI84:
 1421              		.cfi_def_cfa_offset 8
 1422              		.cfi_offset 7, -8
 1423              		.cfi_offset 14, -4
 1424 05f2 88B0     		sub	sp, sp, #32
 1425              	.LCFI85:
 1426              		.cfi_def_cfa_offset 40
 1427 05f4 00AF     		add	r7, sp, #0
 1428              	.LCFI86:
 1429              		.cfi_def_cfa_register 7
 1430 05f6 7860     		str	r0, [r7, #4]
 1431 05f8 3960     		str	r1, [r7]
 156:../../source/src/kernel/OS_CORE/schedule/os_TCB_list.c **** 	(void)argc;
 157:../../source/src/kernel/OS_CORE/schedule/os_TCB_list.c **** 	(void)argv;
 158:../../source/src/kernel/OS_CORE/schedule/os_TCB_list.c **** 	unsigned int i;
 159:../../source/src/kernel/OS_CORE/schedule/os_TCB_list.c **** 	struct list_head *pos;
 160:../../source/src/kernel/OS_CORE/schedule/os_TCB_list.c **** 	TCB *TCB_ptr;
 161:../../source/src/kernel/OS_CORE/schedule/os_TCB_list.c **** 	for(i=0;i<PRIO_MAX;++i)
 1432              		.loc 2 161 0
 1433 05fa 0023     		movs	r3, #0
 1434 05fc FB61     		str	r3, [r7, #28]
 1435 05fe 78E0     		b	.L71
 1436              	.L79:
 162:../../source/src/kernel/OS_CORE/schedule/os_TCB_list.c **** 	{
 163:../../source/src/kernel/OS_CORE/schedule/os_TCB_list.c **** 		if(!list_empty(&TCB_list[i].head))
 1437              		.loc 2 163 0
 1438 0600 FA69     		ldr	r2, [r7, #28]
 1439 0602 1346     		mov	r3, r2
 1440 0604 5B00     		lsls	r3, r3, #1
 1441 0606 1344     		add	r3, r3, r2
ARM GAS  G:\Users\Jaxb\AppData\Local\Temp\cctJaDbb.s 			page 32


 1442 0608 9B00     		lsls	r3, r3, #2
 1443 060a 3D4A     		ldr	r2, .L80
 1444 060c 1344     		add	r3, r3, r2
 1445 060e 1846     		mov	r0, r3
 1446 0610 FFF74CFD 		bl	list_empty
 1447 0614 0346     		mov	r3, r0
 1448 0616 002B     		cmp	r3, #0
 1449 0618 68D1     		bne	.L72
 164:../../source/src/kernel/OS_CORE/schedule/os_TCB_list.c **** 		{
 165:../../source/src/kernel/OS_CORE/schedule/os_TCB_list.c **** 			list_for_each(pos,&TCB_list[i].head)
 1450              		.loc 2 165 0
 1451 061a 3949     		ldr	r1, .L80
 1452 061c FA69     		ldr	r2, [r7, #28]
 1453 061e 1346     		mov	r3, r2
 1454 0620 5B00     		lsls	r3, r3, #1
 1455 0622 1344     		add	r3, r3, r2
 1456 0624 9B00     		lsls	r3, r3, #2
 1457 0626 0B44     		add	r3, r3, r1
 1458 0628 1B68     		ldr	r3, [r3]
 1459 062a BB61     		str	r3, [r7, #24]
 1460 062c 54E0     		b	.L73
 1461              	.L78:
 1462              	.LBB3:
 166:../../source/src/kernel/OS_CORE/schedule/os_TCB_list.c **** 			{
 167:../../source/src/kernel/OS_CORE/schedule/os_TCB_list.c **** 				unsigned int num = 0;
 1463              		.loc 2 167 0
 1464 062e 0023     		movs	r3, #0
 1465 0630 7B61     		str	r3, [r7, #20]
 1466              	.LBB4:
 168:../../source/src/kernel/OS_CORE/schedule/os_TCB_list.c **** 				TCB_ptr = list_entry(pos,TCB,same_prio_list);
 1467              		.loc 2 168 0
 1468 0632 BB69     		ldr	r3, [r7, #24]
 1469 0634 FB60     		str	r3, [r7, #12]
 1470 0636 FB68     		ldr	r3, [r7, #12]
 1471 0638 1C3B     		subs	r3, r3, #28
 1472              	.LBE4:
 1473 063a BB60     		str	r3, [r7, #8]
 169:../../source/src/kernel/OS_CORE/schedule/os_TCB_list.c **** 				unsigned int *ptr = (unsigned int *)(TCB_ptr->stack_end);
 1474              		.loc 2 169 0
 1475 063c BB68     		ldr	r3, [r7, #8]
 1476 063e 9B68     		ldr	r3, [r3, #8]
 1477 0640 3B61     		str	r3, [r7, #16]
 170:../../source/src/kernel/OS_CORE/schedule/os_TCB_list.c **** 				ka_printf("=====================================================\n");
 1478              		.loc 2 170 0
 1479 0642 3048     		ldr	r0, .L80+4
 1480 0644 FFF7FEFF 		bl	ka_printf
 171:../../source/src/kernel/OS_CORE/schedule/os_TCB_list.c **** 				ka_printf("task name : %s\n",TCB_ptr->name);
 1481              		.loc 2 171 0
 1482 0648 BB68     		ldr	r3, [r7, #8]
 1483 064a DB6A     		ldr	r3, [r3, #44]
 1484 064c 1946     		mov	r1, r3
 1485 064e 2E48     		ldr	r0, .L80+8
 1486 0650 FFF7FEFF 		bl	ka_printf
 172:../../source/src/kernel/OS_CORE/schedule/os_TCB_list.c **** 				ka_printf("The stack space is from %p to %p\n",TCB_ptr->stack_end,(STACK_TYPE *)TCB_ptr->stack_
 1487              		.loc 2 172 0
 1488 0654 BB68     		ldr	r3, [r7, #8]
 1489 0656 9968     		ldr	r1, [r3, #8]
ARM GAS  G:\Users\Jaxb\AppData\Local\Temp\cctJaDbb.s 			page 33


 1490 0658 BB68     		ldr	r3, [r7, #8]
 1491 065a 9A68     		ldr	r2, [r3, #8]
 1492 065c BB68     		ldr	r3, [r7, #8]
 1493 065e 5B68     		ldr	r3, [r3, #4]
 1494 0660 23F00303 		bic	r3, r3, #3
 1495 0664 1344     		add	r3, r3, r2
 1496 0666 1A46     		mov	r2, r3
 1497 0668 2848     		ldr	r0, .L80+12
 1498 066a FFF7FEFF 		bl	ka_printf
 173:../../source/src/kernel/OS_CORE/schedule/os_TCB_list.c **** 				if(0 != *(unsigned int *)(TCB_ptr->stack_end))
 1499              		.loc 2 173 0
 1500 066e BB68     		ldr	r3, [r7, #8]
 1501 0670 9B68     		ldr	r3, [r3, #8]
 1502 0672 1B68     		ldr	r3, [r3]
 1503 0674 002B     		cmp	r3, #0
 1504 0676 19D0     		beq	.L75
 174:../../source/src/kernel/OS_CORE/schedule/os_TCB_list.c **** 				{
 175:../../source/src/kernel/OS_CORE/schedule/os_TCB_list.c **** 					ka_printf("stack full!!!!\n");
 1505              		.loc 2 175 0
 1506 0678 2548     		ldr	r0, .L80+16
 1507 067a FFF7FEFF 		bl	ka_printf
 176:../../source/src/kernel/OS_CORE/schedule/os_TCB_list.c **** 					ASSERT(0);
 1508              		.loc 2 176 0
 1509 067e B021     		movs	r1, #176
 1510 0680 2448     		ldr	r0, .L80+20
 1511 0682 FFF7FEFF 		bl	_ASSERT
 177:../../source/src/kernel/OS_CORE/schedule/os_TCB_list.c **** 				}
 178:../../source/src/kernel/OS_CORE/schedule/os_TCB_list.c **** 				while(0 == *ptr)
 1512              		.loc 2 178 0
 1513 0686 11E0     		b	.L75
 1514              	.L77:
 179:../../source/src/kernel/OS_CORE/schedule/os_TCB_list.c **** 				{
 180:../../source/src/kernel/OS_CORE/schedule/os_TCB_list.c **** 					++num;
 1515              		.loc 2 180 0
 1516 0688 7B69     		ldr	r3, [r7, #20]
 1517 068a 0133     		adds	r3, r3, #1
 1518 068c 7B61     		str	r3, [r7, #20]
 181:../../source/src/kernel/OS_CORE/schedule/os_TCB_list.c **** 					++ptr;
 1519              		.loc 2 181 0
 1520 068e 3B69     		ldr	r3, [r7, #16]
 1521 0690 0433     		adds	r3, r3, #4
 1522 0692 3B61     		str	r3, [r7, #16]
 182:../../source/src/kernel/OS_CORE/schedule/os_TCB_list.c **** 					if((char *)ptr == (char *)(TCB_ptr->stack_end) + TCB_ptr->stack_size)
 1523              		.loc 2 182 0
 1524 0694 BB68     		ldr	r3, [r7, #8]
 1525 0696 9A68     		ldr	r2, [r3, #8]
 1526 0698 BB68     		ldr	r3, [r7, #8]
 1527 069a 5B68     		ldr	r3, [r3, #4]
 1528 069c 1344     		add	r3, r3, r2
 1529 069e 3A69     		ldr	r2, [r7, #16]
 1530 06a0 9A42     		cmp	r2, r3
 1531 06a2 03D1     		bne	.L75
 183:../../source/src/kernel/OS_CORE/schedule/os_TCB_list.c **** 					{
 184:../../source/src/kernel/OS_CORE/schedule/os_TCB_list.c **** 						ka_printf("stack empty!!!!\n");
 1532              		.loc 2 184 0
 1533 06a4 1C48     		ldr	r0, .L80+24
 1534 06a6 FFF7FEFF 		bl	ka_printf
ARM GAS  G:\Users\Jaxb\AppData\Local\Temp\cctJaDbb.s 			page 34


 185:../../source/src/kernel/OS_CORE/schedule/os_TCB_list.c **** 						break;
 1535              		.loc 2 185 0
 1536 06aa 03E0     		b	.L76
 1537              	.L75:
 178:../../source/src/kernel/OS_CORE/schedule/os_TCB_list.c **** 				{
 1538              		.loc 2 178 0
 1539 06ac 3B69     		ldr	r3, [r7, #16]
 1540 06ae 1B68     		ldr	r3, [r3]
 1541 06b0 002B     		cmp	r3, #0
 1542 06b2 E9D0     		beq	.L77
 1543              	.L76:
 186:../../source/src/kernel/OS_CORE/schedule/os_TCB_list.c **** 					}
 187:../../source/src/kernel/OS_CORE/schedule/os_TCB_list.c **** 				}
 188:../../source/src/kernel/OS_CORE/schedule/os_TCB_list.c **** 				ka_printf("It's stack used rate is %d%%\n",100-400*num / TCB_ptr->stack_size);
 1544              		.loc 2 188 0 discriminator 2
 1545 06b4 7B69     		ldr	r3, [r7, #20]
 1546 06b6 4FF4C872 		mov	r2, #400
 1547 06ba 02FB03F2 		mul	r2, r2, r3
 1548 06be BB68     		ldr	r3, [r7, #8]
 1549 06c0 5B68     		ldr	r3, [r3, #4]
 1550 06c2 B2FBF3F3 		udiv	r3, r2, r3
 1551 06c6 C3F16403 		rsb	r3, r3, #100
 1552 06ca 1946     		mov	r1, r3
 1553 06cc 1348     		ldr	r0, .L80+28
 1554 06ce FFF7FEFF 		bl	ka_printf
 1555              	.LBE3:
 165:../../source/src/kernel/OS_CORE/schedule/os_TCB_list.c **** 			{
 1556              		.loc 2 165 0 discriminator 2
 1557 06d2 BB69     		ldr	r3, [r7, #24]
 1558 06d4 1B68     		ldr	r3, [r3]
 1559 06d6 BB61     		str	r3, [r7, #24]
 1560              	.L73:
 165:../../source/src/kernel/OS_CORE/schedule/os_TCB_list.c **** 			{
 1561              		.loc 2 165 0 is_stmt 0 discriminator 1
 1562 06d8 FA69     		ldr	r2, [r7, #28]
 1563 06da 1346     		mov	r3, r2
 1564 06dc 5B00     		lsls	r3, r3, #1
 1565 06de 1344     		add	r3, r3, r2
 1566 06e0 9B00     		lsls	r3, r3, #2
 1567 06e2 074A     		ldr	r2, .L80
 1568 06e4 1344     		add	r3, r3, r2
 1569 06e6 BA69     		ldr	r2, [r7, #24]
 1570 06e8 9A42     		cmp	r2, r3
 1571 06ea A0D1     		bne	.L78
 1572              	.L72:
 161:../../source/src/kernel/OS_CORE/schedule/os_TCB_list.c **** 	{
 1573              		.loc 2 161 0 is_stmt 1 discriminator 2
 1574 06ec FB69     		ldr	r3, [r7, #28]
 1575 06ee 0133     		adds	r3, r3, #1
 1576 06f0 FB61     		str	r3, [r7, #28]
 1577              	.L71:
 161:../../source/src/kernel/OS_CORE/schedule/os_TCB_list.c **** 	{
 1578              		.loc 2 161 0 is_stmt 0 discriminator 1
 1579 06f2 FB69     		ldr	r3, [r7, #28]
 1580 06f4 3F2B     		cmp	r3, #63
 1581 06f6 83D9     		bls	.L79
 189:../../source/src/kernel/OS_CORE/schedule/os_TCB_list.c **** 			}
ARM GAS  G:\Users\Jaxb\AppData\Local\Temp\cctJaDbb.s 			page 35


 190:../../source/src/kernel/OS_CORE/schedule/os_TCB_list.c **** 		}
 191:../../source/src/kernel/OS_CORE/schedule/os_TCB_list.c **** 	}
 192:../../source/src/kernel/OS_CORE/schedule/os_TCB_list.c **** }
 1582              		.loc 2 192 0 is_stmt 1
 1583 06f8 00BF     		nop
 1584 06fa 2037     		adds	r7, r7, #32
 1585              	.LCFI87:
 1586              		.cfi_def_cfa_offset 8
 1587 06fc BD46     		mov	sp, r7
 1588              	.LCFI88:
 1589              		.cfi_def_cfa_register 13
 1590              		@ sp needed
 1591 06fe 80BD     		pop	{r7, pc}
 1592              	.L81:
 1593              		.align	2
 1594              	.L80:
 1595 0700 00000000 		.word	TCB_list
 1596 0704 40010000 		.word	.LC13
 1597 0708 78010000 		.word	.LC14
 1598 070c 88010000 		.word	.LC15
 1599 0710 AC010000 		.word	.LC16
 1600 0714 00000000 		.word	.LC0
 1601 0718 BC010000 		.word	.LC17
 1602 071c D0010000 		.word	.LC18
 1603              		.cfi_endproc
 1604              	.LFE21:
 1605              		.size	shell_stack_check, .-shell_stack_check
 1606              		.section	.rodata
 1607 01ee 0000     		.align	2
 1608              	.LC19:
 1609 01f0 7368656C 		.ascii	"shell\000"
 1609      6C00
 1610 01f6 0000     		.align	2
 1611              	.LC20:
 1612 01f8 6E6F7720 		.ascii	"now show task shell's register is volatile\012\000"
 1612      73686F77 
 1612      20746173 
 1612      6B207368 
 1612      656C6C27 
 1613              		.align	2
 1614              	.LC21:
 1615 0224 52342009 		.ascii	"R4 \011= \0110x%x\012\000"
 1615      3D200930 
 1615      7825780A 
 1615      00
 1616 0231 000000   		.align	2
 1617              	.LC22:
 1618 0234 52352009 		.ascii	"R5 \011= \0110x%x\012\000"
 1618      3D200930 
 1618      7825780A 
 1618      00
 1619 0241 000000   		.align	2
 1620              	.LC23:
 1621 0244 52362009 		.ascii	"R6 \011= \0110x%x\012\000"
 1621      3D200930 
 1621      7825780A 
 1621      00
ARM GAS  G:\Users\Jaxb\AppData\Local\Temp\cctJaDbb.s 			page 36


 1622 0251 000000   		.align	2
 1623              	.LC24:
 1624 0254 52372009 		.ascii	"R7 \011= \0110x%x\012\000"
 1624      3D200930 
 1624      7825780A 
 1624      00
 1625 0261 000000   		.align	2
 1626              	.LC25:
 1627 0264 52382009 		.ascii	"R8 \011= \0110x%x\012\000"
 1627      3D200930 
 1627      7825780A 
 1627      00
 1628 0271 000000   		.align	2
 1629              	.LC26:
 1630 0274 52392009 		.ascii	"R9 \011= \0110x%x\012\000"
 1630      3D200930 
 1630      7825780A 
 1630      00
 1631 0281 000000   		.align	2
 1632              	.LC27:
 1633 0284 52313020 		.ascii	"R10 \011= \0110x%x\012\000"
 1633      093D2009 
 1633      30782578 
 1633      0A00
 1634 0292 0000     		.align	2
 1635              	.LC28:
 1636 0294 52313120 		.ascii	"R11 \011= \0110x%x\012\000"
 1636      093D2009 
 1636      30782578 
 1636      0A00
 1637 02a2 0000     		.align	2
 1638              	.LC29:
 1639 02a4 78505352 		.ascii	"xPSR\011=\0110x%x\012\000"
 1639      093D0930 
 1639      7825780A 
 1639      00
 1640 02b1 000000   		.align	2
 1641              	.LC30:
 1642 02b4 50432009 		.ascii	"PC \011= \0110x%x\012\000"
 1642      3D200930 
 1642      7825780A 
 1642      00
 1643 02c1 000000   		.align	2
 1644              	.LC31:
 1645 02c4 52313220 		.ascii	"R12 \011= \0110x%x\012\000"
 1645      093D2009 
 1645      30782578 
 1645      0A00
 1646 02d2 0000     		.align	2
 1647              	.LC32:
 1648 02d4 52332009 		.ascii	"R3 \011= \0110x%x\012\000"
 1648      3D200930 
 1648      7825780A 
 1648      00
 1649 02e1 000000   		.align	2
 1650              	.LC33:
 1651 02e4 52322009 		.ascii	"R2 \011= \0110x%x\012\000"
ARM GAS  G:\Users\Jaxb\AppData\Local\Temp\cctJaDbb.s 			page 37


 1651      3D200930 
 1651      7825780A 
 1651      00
 1652 02f1 000000   		.align	2
 1653              	.LC34:
 1654 02f4 52312009 		.ascii	"R1 \011= \0110x%x\012\000"
 1654      3D200930 
 1654      7825780A 
 1654      00
 1655 0301 000000   		.align	2
 1656              	.LC35:
 1657 0304 52302009 		.ascii	"R0 \011= \0110x%x\012\000"
 1657      3D200930 
 1657      7825780A 
 1657      00
 1658              		.text
 1659              		.align	1
 1660              		.global	shell_show_tasks_registers
 1661              		.syntax unified
 1662              		.thumb
 1663              		.thumb_func
 1664              		.fpu softvfp
 1665              		.type	shell_show_tasks_registers, %function
 1666              	shell_show_tasks_registers:
 1667              	.LFB22:
 193:../../source/src/kernel/OS_CORE/schedule/os_TCB_list.c **** #endif
 194:../../source/src/kernel/OS_CORE/schedule/os_TCB_list.c **** 
 195:../../source/src/kernel/OS_CORE/schedule/os_TCB_list.c **** #if CONFIG_SHELL_EN
 196:../../source/src/kernel/OS_CORE/schedule/os_TCB_list.c **** 
 197:../../source/src/kernel/OS_CORE/schedule/os_TCB_list.c **** void shell_show_tasks_registers(int argc, char const *argv[])
 198:../../source/src/kernel/OS_CORE/schedule/os_TCB_list.c **** {
 1668              		.loc 2 198 0
 1669              		.cfi_startproc
 1670              		@ args = 0, pretend = 0, frame = 32
 1671              		@ frame_needed = 1, uses_anonymous_args = 0
 1672 0720 80B5     		push	{r7, lr}
 1673              	.LCFI89:
 1674              		.cfi_def_cfa_offset 8
 1675              		.cfi_offset 7, -8
 1676              		.cfi_offset 14, -4
 1677 0722 88B0     		sub	sp, sp, #32
 1678              	.LCFI90:
 1679              		.cfi_def_cfa_offset 40
 1680 0724 00AF     		add	r7, sp, #0
 1681              	.LCFI91:
 1682              		.cfi_def_cfa_register 7
 1683 0726 7860     		str	r0, [r7, #4]
 1684 0728 3960     		str	r1, [r7]
 199:../../source/src/kernel/OS_CORE/schedule/os_TCB_list.c **** 	(void)argc;
 200:../../source/src/kernel/OS_CORE/schedule/os_TCB_list.c **** 	(void)argv;
 201:../../source/src/kernel/OS_CORE/schedule/os_TCB_list.c **** 	unsigned int i;
 202:../../source/src/kernel/OS_CORE/schedule/os_TCB_list.c **** 	//struct list_head *pos;
 203:../../source/src/kernel/OS_CORE/schedule/os_TCB_list.c **** 	TCB *TCB_ptr;
 204:../../source/src/kernel/OS_CORE/schedule/os_TCB_list.c **** 	for(i=0;i<PRIO_MAX;++i)
 1685              		.loc 2 204 0
 1686 072a 0023     		movs	r3, #0
 1687 072c FB61     		str	r3, [r7, #28]
ARM GAS  G:\Users\Jaxb\AppData\Local\Temp\cctJaDbb.s 			page 38


 1688 072e C2E0     		b	.L83
 1689              	.L89:
 205:../../source/src/kernel/OS_CORE/schedule/os_TCB_list.c **** 	{
 206:../../source/src/kernel/OS_CORE/schedule/os_TCB_list.c **** 		if(!list_empty(&TCB_list[i].head))
 1690              		.loc 2 206 0
 1691 0730 FA69     		ldr	r2, [r7, #28]
 1692 0732 1346     		mov	r3, r2
 1693 0734 5B00     		lsls	r3, r3, #1
 1694 0736 1344     		add	r3, r3, r2
 1695 0738 9B00     		lsls	r3, r3, #2
 1696 073a 634A     		ldr	r2, .L90
 1697 073c 1344     		add	r3, r3, r2
 1698 073e 1846     		mov	r0, r3
 1699 0740 FFF7B4FC 		bl	list_empty
 1700 0744 0346     		mov	r3, r0
 1701 0746 002B     		cmp	r3, #0
 1702 0748 40F0B280 		bne	.L84
 1703              	.LBB5:
 207:../../source/src/kernel/OS_CORE/schedule/os_TCB_list.c **** 		{
 208:../../source/src/kernel/OS_CORE/schedule/os_TCB_list.c **** 			list_for_each_entry(TCB_ptr,&TCB_list[i].head,same_prio_list)
 1704              		.loc 2 208 0
 1705 074c 5E49     		ldr	r1, .L90
 1706 074e FA69     		ldr	r2, [r7, #28]
 1707 0750 1346     		mov	r3, r2
 1708 0752 5B00     		lsls	r3, r3, #1
 1709 0754 1344     		add	r3, r3, r2
 1710 0756 9B00     		lsls	r3, r3, #2
 1711 0758 0B44     		add	r3, r3, r1
 1712 075a 1B68     		ldr	r3, [r3]
 1713 075c 7B61     		str	r3, [r7, #20]
 1714 075e 7B69     		ldr	r3, [r7, #20]
 1715 0760 1C3B     		subs	r3, r3, #28
 1716              	.LBE5:
 1717 0762 BB61     		str	r3, [r7, #24]
 1718 0764 97E0     		b	.L85
 1719              	.L88:
 1720              	.LBB6:
 209:../../source/src/kernel/OS_CORE/schedule/os_TCB_list.c **** 			{
 210:../../source/src/kernel/OS_CORE/schedule/os_TCB_list.c **** 				const UINT32 *reg = (unsigned int *)(TCB_ptr->stack);
 1721              		.loc 2 210 0
 1722 0766 BB69     		ldr	r3, [r7, #24]
 1723 0768 1B68     		ldr	r3, [r3]
 1724 076a 3B61     		str	r3, [r7, #16]
 211:../../source/src/kernel/OS_CORE/schedule/os_TCB_list.c **** 				ka_printf("=====================================================\n");
 1725              		.loc 2 211 0
 1726 076c 5748     		ldr	r0, .L90+4
 1727 076e FFF7FEFF 		bl	ka_printf
 212:../../source/src/kernel/OS_CORE/schedule/os_TCB_list.c **** 				ka_printf("task name : %s\n",TCB_ptr->name);
 1728              		.loc 2 212 0
 1729 0772 BB69     		ldr	r3, [r7, #24]
 1730 0774 DB6A     		ldr	r3, [r3, #44]
 1731 0776 1946     		mov	r1, r3
 1732 0778 5548     		ldr	r0, .L90+8
 1733 077a FFF7FEFF 		bl	ka_printf
 213:../../source/src/kernel/OS_CORE/schedule/os_TCB_list.c **** 				if(0 == ka_strcmp(TCB_ptr->name,"shell"))
 1734              		.loc 2 213 0
 1735 077e BB69     		ldr	r3, [r7, #24]
ARM GAS  G:\Users\Jaxb\AppData\Local\Temp\cctJaDbb.s 			page 39


 1736 0780 DB6A     		ldr	r3, [r3, #44]
 1737 0782 5449     		ldr	r1, .L90+12
 1738 0784 1846     		mov	r0, r3
 1739 0786 FFF7FEFF 		bl	ka_strcmp
 1740 078a 0346     		mov	r3, r0
 1741 078c 002B     		cmp	r3, #0
 1742 078e 03D1     		bne	.L86
 214:../../source/src/kernel/OS_CORE/schedule/os_TCB_list.c **** 				{
 215:../../source/src/kernel/OS_CORE/schedule/os_TCB_list.c **** 					ka_printf("now show task shell's register is volatile\n");
 1743              		.loc 2 215 0
 1744 0790 5148     		ldr	r0, .L90+16
 1745 0792 FFF7FEFF 		bl	ka_printf
 216:../../source/src/kernel/OS_CORE/schedule/os_TCB_list.c **** 					continue;
 1746              		.loc 2 216 0
 1747 0796 78E0     		b	.L87
 1748              	.L86:
 217:../../source/src/kernel/OS_CORE/schedule/os_TCB_list.c **** 				}
 218:../../source/src/kernel/OS_CORE/schedule/os_TCB_list.c **** 				ka_printf("R4 	= 	0x%x\n",*reg++);
 1749              		.loc 2 218 0
 1750 0798 3B69     		ldr	r3, [r7, #16]
 1751 079a 1A1D     		adds	r2, r3, #4
 1752 079c 3A61     		str	r2, [r7, #16]
 1753 079e 1B68     		ldr	r3, [r3]
 1754 07a0 1946     		mov	r1, r3
 1755 07a2 4E48     		ldr	r0, .L90+20
 1756 07a4 FFF7FEFF 		bl	ka_printf
 219:../../source/src/kernel/OS_CORE/schedule/os_TCB_list.c **** 				ka_printf("R5 	= 	0x%x\n",*reg++);
 1757              		.loc 2 219 0
 1758 07a8 3B69     		ldr	r3, [r7, #16]
 1759 07aa 1A1D     		adds	r2, r3, #4
 1760 07ac 3A61     		str	r2, [r7, #16]
 1761 07ae 1B68     		ldr	r3, [r3]
 1762 07b0 1946     		mov	r1, r3
 1763 07b2 4B48     		ldr	r0, .L90+24
 1764 07b4 FFF7FEFF 		bl	ka_printf
 220:../../source/src/kernel/OS_CORE/schedule/os_TCB_list.c **** 				ka_printf("R6 	= 	0x%x\n",*reg++);
 1765              		.loc 2 220 0
 1766 07b8 3B69     		ldr	r3, [r7, #16]
 1767 07ba 1A1D     		adds	r2, r3, #4
 1768 07bc 3A61     		str	r2, [r7, #16]
 1769 07be 1B68     		ldr	r3, [r3]
 1770 07c0 1946     		mov	r1, r3
 1771 07c2 4848     		ldr	r0, .L90+28
 1772 07c4 FFF7FEFF 		bl	ka_printf
 221:../../source/src/kernel/OS_CORE/schedule/os_TCB_list.c **** 				ka_printf("R7 	= 	0x%x\n",*reg++);
 1773              		.loc 2 221 0
 1774 07c8 3B69     		ldr	r3, [r7, #16]
 1775 07ca 1A1D     		adds	r2, r3, #4
 1776 07cc 3A61     		str	r2, [r7, #16]
 1777 07ce 1B68     		ldr	r3, [r3]
 1778 07d0 1946     		mov	r1, r3
 1779 07d2 4548     		ldr	r0, .L90+32
 1780 07d4 FFF7FEFF 		bl	ka_printf
 222:../../source/src/kernel/OS_CORE/schedule/os_TCB_list.c **** 				ka_printf("R8 	= 	0x%x\n",*reg++);
 1781              		.loc 2 222 0
 1782 07d8 3B69     		ldr	r3, [r7, #16]
 1783 07da 1A1D     		adds	r2, r3, #4
ARM GAS  G:\Users\Jaxb\AppData\Local\Temp\cctJaDbb.s 			page 40


 1784 07dc 3A61     		str	r2, [r7, #16]
 1785 07de 1B68     		ldr	r3, [r3]
 1786 07e0 1946     		mov	r1, r3
 1787 07e2 4248     		ldr	r0, .L90+36
 1788 07e4 FFF7FEFF 		bl	ka_printf
 223:../../source/src/kernel/OS_CORE/schedule/os_TCB_list.c **** 				ka_printf("R9 	= 	0x%x\n",*reg++);
 1789              		.loc 2 223 0
 1790 07e8 3B69     		ldr	r3, [r7, #16]
 1791 07ea 1A1D     		adds	r2, r3, #4
 1792 07ec 3A61     		str	r2, [r7, #16]
 1793 07ee 1B68     		ldr	r3, [r3]
 1794 07f0 1946     		mov	r1, r3
 1795 07f2 3F48     		ldr	r0, .L90+40
 1796 07f4 FFF7FEFF 		bl	ka_printf
 224:../../source/src/kernel/OS_CORE/schedule/os_TCB_list.c **** 				ka_printf("R10 	= 	0x%x\n",*reg++);
 1797              		.loc 2 224 0
 1798 07f8 3B69     		ldr	r3, [r7, #16]
 1799 07fa 1A1D     		adds	r2, r3, #4
 1800 07fc 3A61     		str	r2, [r7, #16]
 1801 07fe 1B68     		ldr	r3, [r3]
 1802 0800 1946     		mov	r1, r3
 1803 0802 3C48     		ldr	r0, .L90+44
 1804 0804 FFF7FEFF 		bl	ka_printf
 225:../../source/src/kernel/OS_CORE/schedule/os_TCB_list.c **** 				ka_printf("R11 	= 	0x%x\n",*reg++);
 1805              		.loc 2 225 0
 1806 0808 3B69     		ldr	r3, [r7, #16]
 1807 080a 1A1D     		adds	r2, r3, #4
 1808 080c 3A61     		str	r2, [r7, #16]
 1809 080e 1B68     		ldr	r3, [r3]
 1810 0810 1946     		mov	r1, r3
 1811 0812 3948     		ldr	r0, .L90+48
 1812 0814 FFF7FEFF 		bl	ka_printf
 226:../../source/src/kernel/OS_CORE/schedule/os_TCB_list.c **** 				ka_printf("xPSR	=	0x%x\n",*reg++);
 1813              		.loc 2 226 0
 1814 0818 3B69     		ldr	r3, [r7, #16]
 1815 081a 1A1D     		adds	r2, r3, #4
 1816 081c 3A61     		str	r2, [r7, #16]
 1817 081e 1B68     		ldr	r3, [r3]
 1818 0820 1946     		mov	r1, r3
 1819 0822 3648     		ldr	r0, .L90+52
 1820 0824 FFF7FEFF 		bl	ka_printf
 227:../../source/src/kernel/OS_CORE/schedule/os_TCB_list.c **** 				ka_printf("PC 	= 	0x%x\n",*reg++);
 1821              		.loc 2 227 0
 1822 0828 3B69     		ldr	r3, [r7, #16]
 1823 082a 1A1D     		adds	r2, r3, #4
 1824 082c 3A61     		str	r2, [r7, #16]
 1825 082e 1B68     		ldr	r3, [r3]
 1826 0830 1946     		mov	r1, r3
 1827 0832 3348     		ldr	r0, .L90+56
 1828 0834 FFF7FEFF 		bl	ka_printf
 228:../../source/src/kernel/OS_CORE/schedule/os_TCB_list.c **** 				ka_printf("R12 	= 	0x%x\n",*reg++);
 1829              		.loc 2 228 0
 1830 0838 3B69     		ldr	r3, [r7, #16]
 1831 083a 1A1D     		adds	r2, r3, #4
 1832 083c 3A61     		str	r2, [r7, #16]
 1833 083e 1B68     		ldr	r3, [r3]
 1834 0840 1946     		mov	r1, r3
ARM GAS  G:\Users\Jaxb\AppData\Local\Temp\cctJaDbb.s 			page 41


 1835 0842 3048     		ldr	r0, .L90+60
 1836 0844 FFF7FEFF 		bl	ka_printf
 229:../../source/src/kernel/OS_CORE/schedule/os_TCB_list.c **** 				ka_printf("R3 	= 	0x%x\n",*reg++);
 1837              		.loc 2 229 0
 1838 0848 3B69     		ldr	r3, [r7, #16]
 1839 084a 1A1D     		adds	r2, r3, #4
 1840 084c 3A61     		str	r2, [r7, #16]
 1841 084e 1B68     		ldr	r3, [r3]
 1842 0850 1946     		mov	r1, r3
 1843 0852 2D48     		ldr	r0, .L90+64
 1844 0854 FFF7FEFF 		bl	ka_printf
 230:../../source/src/kernel/OS_CORE/schedule/os_TCB_list.c **** 				ka_printf("R2 	= 	0x%x\n",*reg++);
 1845              		.loc 2 230 0
 1846 0858 3B69     		ldr	r3, [r7, #16]
 1847 085a 1A1D     		adds	r2, r3, #4
 1848 085c 3A61     		str	r2, [r7, #16]
 1849 085e 1B68     		ldr	r3, [r3]
 1850 0860 1946     		mov	r1, r3
 1851 0862 2A48     		ldr	r0, .L90+68
 1852 0864 FFF7FEFF 		bl	ka_printf
 231:../../source/src/kernel/OS_CORE/schedule/os_TCB_list.c **** 				ka_printf("R1 	= 	0x%x\n",*reg++);
 1853              		.loc 2 231 0
 1854 0868 3B69     		ldr	r3, [r7, #16]
 1855 086a 1A1D     		adds	r2, r3, #4
 1856 086c 3A61     		str	r2, [r7, #16]
 1857 086e 1B68     		ldr	r3, [r3]
 1858 0870 1946     		mov	r1, r3
 1859 0872 2748     		ldr	r0, .L90+72
 1860 0874 FFF7FEFF 		bl	ka_printf
 232:../../source/src/kernel/OS_CORE/schedule/os_TCB_list.c **** 				ka_printf("R0 	= 	0x%x\n",*reg);
 1861              		.loc 2 232 0
 1862 0878 3B69     		ldr	r3, [r7, #16]
 1863 087a 1B68     		ldr	r3, [r3]
 1864 087c 1946     		mov	r1, r3
 1865 087e 2548     		ldr	r0, .L90+76
 1866 0880 FFF7FEFF 		bl	ka_printf
 233:../../source/src/kernel/OS_CORE/schedule/os_TCB_list.c **** 				ka_printf("=====================================================\n");
 1867              		.loc 2 233 0
 1868 0884 1148     		ldr	r0, .L90+4
 1869 0886 FFF7FEFF 		bl	ka_printf
 1870              	.L87:
 1871              	.LBE6:
 1872              	.LBB7:
 208:../../source/src/kernel/OS_CORE/schedule/os_TCB_list.c **** 			{
 1873              		.loc 2 208 0 discriminator 2
 1874 088a BB69     		ldr	r3, [r7, #24]
 1875 088c DB69     		ldr	r3, [r3, #28]
 1876 088e FB60     		str	r3, [r7, #12]
 1877 0890 FB68     		ldr	r3, [r7, #12]
 1878 0892 1C3B     		subs	r3, r3, #28
 1879              	.LBE7:
 1880 0894 BB61     		str	r3, [r7, #24]
 1881              	.L85:
 208:../../source/src/kernel/OS_CORE/schedule/os_TCB_list.c **** 			{
 1882              		.loc 2 208 0 is_stmt 0 discriminator 1
 1883 0896 BB69     		ldr	r3, [r7, #24]
 1884 0898 03F11C01 		add	r1, r3, #28
ARM GAS  G:\Users\Jaxb\AppData\Local\Temp\cctJaDbb.s 			page 42


 1885 089c FA69     		ldr	r2, [r7, #28]
 1886 089e 1346     		mov	r3, r2
 1887 08a0 5B00     		lsls	r3, r3, #1
 1888 08a2 1344     		add	r3, r3, r2
 1889 08a4 9B00     		lsls	r3, r3, #2
 1890 08a6 084A     		ldr	r2, .L90
 1891 08a8 1344     		add	r3, r3, r2
 1892 08aa 9942     		cmp	r1, r3
 1893 08ac 7FF45BAF 		bne	.L88
 1894              	.L84:
 204:../../source/src/kernel/OS_CORE/schedule/os_TCB_list.c **** 	{
 1895              		.loc 2 204 0 is_stmt 1 discriminator 2
 1896 08b0 FB69     		ldr	r3, [r7, #28]
 1897 08b2 0133     		adds	r3, r3, #1
 1898 08b4 FB61     		str	r3, [r7, #28]
 1899              	.L83:
 204:../../source/src/kernel/OS_CORE/schedule/os_TCB_list.c **** 	{
 1900              		.loc 2 204 0 is_stmt 0 discriminator 1
 1901 08b6 FB69     		ldr	r3, [r7, #28]
 1902 08b8 3F2B     		cmp	r3, #63
 1903 08ba 7FF639AF 		bls	.L89
 234:../../source/src/kernel/OS_CORE/schedule/os_TCB_list.c **** 			}
 235:../../source/src/kernel/OS_CORE/schedule/os_TCB_list.c **** 		}
 236:../../source/src/kernel/OS_CORE/schedule/os_TCB_list.c **** 	}
 237:../../source/src/kernel/OS_CORE/schedule/os_TCB_list.c **** }
 1904              		.loc 2 237 0 is_stmt 1
 1905 08be 00BF     		nop
 1906 08c0 2037     		adds	r7, r7, #32
 1907              	.LCFI92:
 1908              		.cfi_def_cfa_offset 8
 1909 08c2 BD46     		mov	sp, r7
 1910              	.LCFI93:
 1911              		.cfi_def_cfa_register 13
 1912              		@ sp needed
 1913 08c4 80BD     		pop	{r7, pc}
 1914              	.L91:
 1915 08c6 00BF     		.align	2
 1916              	.L90:
 1917 08c8 00000000 		.word	TCB_list
 1918 08cc 40010000 		.word	.LC13
 1919 08d0 78010000 		.word	.LC14
 1920 08d4 F0010000 		.word	.LC19
 1921 08d8 F8010000 		.word	.LC20
 1922 08dc 24020000 		.word	.LC21
 1923 08e0 34020000 		.word	.LC22
 1924 08e4 44020000 		.word	.LC23
 1925 08e8 54020000 		.word	.LC24
 1926 08ec 64020000 		.word	.LC25
 1927 08f0 74020000 		.word	.LC26
 1928 08f4 84020000 		.word	.LC27
 1929 08f8 94020000 		.word	.LC28
 1930 08fc A4020000 		.word	.LC29
 1931 0900 B4020000 		.word	.LC30
 1932 0904 C4020000 		.word	.LC31
 1933 0908 D4020000 		.word	.LC32
 1934 090c E4020000 		.word	.LC33
 1935 0910 F4020000 		.word	.LC34
ARM GAS  G:\Users\Jaxb\AppData\Local\Temp\cctJaDbb.s 			page 43


 1936 0914 04030000 		.word	.LC35
 1937              		.cfi_endproc
 1938              	.LFE22:
 1939              		.size	shell_show_tasks_registers, .-shell_show_tasks_registers
 1940              	.Letext0:
 1941              		.file 3 "../../source/include/os_cpu/kakaosstdint.h"
 1942              		.file 4 "../../source/include/os_core/task_state.h"
 1943              		.file 5 "../../source/include/os_core/TCB.h"
 1944              		.file 6 "../../source/include/os_core/schedule/os_TCB_list.h"