ARM GAS  G:\Users\Jaxb\AppData\Local\Temp\ccEqowR1.s 			page 1


   1              		.cpu cortex-m3
   2              		.eabi_attribute 20, 1
   3              		.eabi_attribute 21, 1
   4              		.eabi_attribute 23, 3
   5              		.eabi_attribute 24, 1
   6              		.eabi_attribute 25, 1
   7              		.eabi_attribute 26, 1
   8              		.eabi_attribute 30, 2
   9              		.eabi_attribute 34, 1
  10              		.eabi_attribute 18, 4
  11              		.file	"os_tick.c"
  12              		.text
  13              	.Ltext0:
  14              		.cfi_sections	.debug_frame
  15              		.align	1
  16              		.p2align 2,,3
  17              		.global	timer_task_check
  18              		.syntax unified
  19              		.thumb
  20              		.thumb_func
  21              		.fpu softvfp
  22              		.type	timer_task_check, %function
  23              	timer_task_check:
  24              	.LFB14:
  25              		.file 1 "../../source/src/user/OS_CORE/schedule/os_tick.c"
   1:../../source/src/user/OS_CORE/schedule/os_tick.c **** #include <osinit.h>
   2:../../source/src/user/OS_CORE/schedule/os_tick.c **** #include <ka_configuration.h>
   3:../../source/src/user/OS_CORE/schedule/os_tick.c **** #include <kakaosstdint.h>
   4:../../source/src/user/OS_CORE/schedule/os_tick.c **** #include <TCB.h>
   5:../../source/src/user/OS_CORE/schedule/os_tick.c **** #include <os_delay.h>
   6:../../source/src/user/OS_CORE/schedule/os_tick.c **** #include <os_ready.h>
   7:../../source/src/user/OS_CORE/schedule/os_tick.c **** #include <os_TCB_list.h>
   8:../../source/src/user/OS_CORE/schedule/os_tick.c **** #include <myassert.h>
   9:../../source/src/user/OS_CORE/schedule/os_tick.c **** #include <double_linked_list.h>
  10:../../source/src/user/OS_CORE/schedule/os_tick.c **** #include <os_time.h>
  11:../../source/src/user/OS_CORE/schedule/os_tick.c **** #include <os_schedule.h>
  12:../../source/src/user/OS_CORE/schedule/os_tick.c **** #include <os_timer.h>
  13:../../source/src/user/OS_CORE/schedule/os_tick.c **** #include <os_suspend.h>
  14:../../source/src/user/OS_CORE/schedule/os_tick.c **** 
  15:../../source/src/user/OS_CORE/schedule/os_tick.c **** #if CONFIG_CPU_USE_RATE_CALCULATION
  16:../../source/src/user/OS_CORE/schedule/os_tick.c **** 	static unsigned int use_rate = 0;
  17:../../source/src/user/OS_CORE/schedule/os_tick.c **** 	extern UINT64 idle_num;
  18:../../source/src/user/OS_CORE/schedule/os_tick.c **** 	extern UINT64 count_max_num;
  19:../../source/src/user/OS_CORE/schedule/os_tick.c **** #endif
  20:../../source/src/user/OS_CORE/schedule/os_tick.c **** 
  21:../../source/src/user/OS_CORE/schedule/os_tick.c **** extern volatile TCB *OSTCBCurPtr;
  22:../../source/src/user/OS_CORE/schedule/os_tick.c **** extern volatile TCB *OSTCBHighRdyPtr;
  23:../../source/src/user/OS_CORE/schedule/os_tick.c **** 
  24:../../source/src/user/OS_CORE/schedule/os_tick.c **** #if CONFIG_TIMER_EN
  25:../../source/src/user/OS_CORE/schedule/os_tick.c **** 	extern TCB TCB_timer_task;
  26:../../source/src/user/OS_CORE/schedule/os_tick.c **** #endif
  27:../../source/src/user/OS_CORE/schedule/os_tick.c **** 
  28:../../source/src/user/OS_CORE/schedule/os_tick.c **** 
  29:../../source/src/user/OS_CORE/schedule/os_tick.c **** extern volatile UINT64 g_time_tick_count;	
  30:../../source/src/user/OS_CORE/schedule/os_tick.c **** 
  31:../../source/src/user/OS_CORE/schedule/os_tick.c **** /**
  32:../../source/src/user/OS_CORE/schedule/os_tick.c ****  * This is a system function
ARM GAS  G:\Users\Jaxb\AppData\Local\Temp\ccEqowR1.s 			page 2


  33:../../source/src/user/OS_CORE/schedule/os_tick.c ****  * @Author   kaka
  34:../../source/src/user/OS_CORE/schedule/os_tick.c ****  * @param    none
  35:../../source/src/user/OS_CORE/schedule/os_tick.c ****  * @DateTime 2018-09-24
  36:../../source/src/user/OS_CORE/schedule/os_tick.c ****  * @description : change the infomation about time
  37:../../source/src/user/OS_CORE/schedule/os_tick.c ****  */
  38:../../source/src/user/OS_CORE/schedule/os_tick.c **** inline static void tick_time_handler(void)
  39:../../source/src/user/OS_CORE/schedule/os_tick.c **** {
  40:../../source/src/user/OS_CORE/schedule/os_tick.c **** #if CONFIG_TIME_EN
  41:../../source/src/user/OS_CORE/schedule/os_tick.c **** 	static volatile int time_flag = 0;
  42:../../source/src/user/OS_CORE/schedule/os_tick.c **** 	time_flag++;
  43:../../source/src/user/OS_CORE/schedule/os_tick.c **** #endif
  44:../../source/src/user/OS_CORE/schedule/os_tick.c **** 	++g_time_tick_count;
  45:../../source/src/user/OS_CORE/schedule/os_tick.c **** #if CONFIG_TIME_EN
  46:../../source/src/user/OS_CORE/schedule/os_tick.c **** 	if(TICK_PER_SEC == time_flag)
  47:../../source/src/user/OS_CORE/schedule/os_tick.c **** 	{
  48:../../source/src/user/OS_CORE/schedule/os_tick.c **** 		time_flag = 0;
  49:../../source/src/user/OS_CORE/schedule/os_tick.c **** 		system_time_increase();
  50:../../source/src/user/OS_CORE/schedule/os_tick.c **** #if CONFIG_CPU_USE_RATE_CALCULATION
  51:../../source/src/user/OS_CORE/schedule/os_tick.c **** 		use_rate = idle_num / (count_max_num/100);
  52:../../source/src/user/OS_CORE/schedule/os_tick.c **** 		idle_num = 0;
  53:../../source/src/user/OS_CORE/schedule/os_tick.c **** #endif		
  54:../../source/src/user/OS_CORE/schedule/os_tick.c **** 	}
  55:../../source/src/user/OS_CORE/schedule/os_tick.c **** #endif
  56:../../source/src/user/OS_CORE/schedule/os_tick.c **** }
  57:../../source/src/user/OS_CORE/schedule/os_tick.c **** 
  58:../../source/src/user/OS_CORE/schedule/os_tick.c **** #if CONFIG_CPU_USE_RATE_CALCULATION
  59:../../source/src/user/OS_CORE/schedule/os_tick.c **** unsigned int get_cpu_use_rate(void)
  60:../../source/src/user/OS_CORE/schedule/os_tick.c **** {
  61:../../source/src/user/OS_CORE/schedule/os_tick.c **** 	return use_rate;
  62:../../source/src/user/OS_CORE/schedule/os_tick.c **** }
  63:../../source/src/user/OS_CORE/schedule/os_tick.c **** #endif	
  64:../../source/src/user/OS_CORE/schedule/os_tick.c **** 
  65:../../source/src/user/OS_CORE/schedule/os_tick.c **** /**
  66:../../source/src/user/OS_CORE/schedule/os_tick.c ****  * This is a system function
  67:../../source/src/user/OS_CORE/schedule/os_tick.c ****  * @Author   kaka
  68:../../source/src/user/OS_CORE/schedule/os_tick.c ****  * @param    miaosu
  69:../../source/src/user/OS_CORE/schedule/os_tick.c ****  * @DateTime 2018-09-24
  70:../../source/src/user/OS_CORE/schedule/os_tick.c ****  * @description : check if there is a task reach the delay time
  71:../../source/src/user/OS_CORE/schedule/os_tick.c ****  */
  72:../../source/src/user/OS_CORE/schedule/os_tick.c **** static void delay_task_check(void)
  73:../../source/src/user/OS_CORE/schedule/os_tick.c **** {
  74:../../source/src/user/OS_CORE/schedule/os_tick.c **** 	TCB *TCB_ptr = delay_heap_get_top_TCB();
  75:../../source/src/user/OS_CORE/schedule/os_tick.c **** 	while(NULL != TCB_ptr)
  76:../../source/src/user/OS_CORE/schedule/os_tick.c **** 	{
  77:../../source/src/user/OS_CORE/schedule/os_tick.c **** 		if(TCB_ptr->delay_reach_time == g_time_tick_count)
  78:../../source/src/user/OS_CORE/schedule/os_tick.c **** 		{
  79:../../source/src/user/OS_CORE/schedule/os_tick.c **** 			delay_heap_remove_top_TCB();
  80:../../source/src/user/OS_CORE/schedule/os_tick.c **** 			insert_ready_TCB(TCB_ptr);
  81:../../source/src/user/OS_CORE/schedule/os_tick.c **** 			TCB_ptr = delay_heap_get_top_TCB();
  82:../../source/src/user/OS_CORE/schedule/os_tick.c **** 			set_rescheduled_flag();
  83:../../source/src/user/OS_CORE/schedule/os_tick.c **** 			continue ;
  84:../../source/src/user/OS_CORE/schedule/os_tick.c **** 		}
  85:../../source/src/user/OS_CORE/schedule/os_tick.c **** 		else
  86:../../source/src/user/OS_CORE/schedule/os_tick.c **** 		{
  87:../../source/src/user/OS_CORE/schedule/os_tick.c **** 			break ;
  88:../../source/src/user/OS_CORE/schedule/os_tick.c **** 		}
  89:../../source/src/user/OS_CORE/schedule/os_tick.c **** 	}
ARM GAS  G:\Users\Jaxb\AppData\Local\Temp\ccEqowR1.s 			page 3


  90:../../source/src/user/OS_CORE/schedule/os_tick.c **** }
  91:../../source/src/user/OS_CORE/schedule/os_tick.c **** 
  92:../../source/src/user/OS_CORE/schedule/os_tick.c **** #if CONFIG_TIMER_EN
  93:../../source/src/user/OS_CORE/schedule/os_tick.c **** void timer_task_check(void)
  94:../../source/src/user/OS_CORE/schedule/os_tick.c **** {
  26              		.loc 1 94 0
  27              		.cfi_startproc
  28              		@ args = 0, pretend = 0, frame = 8
  29              		@ frame_needed = 0, uses_anonymous_args = 0
  30 0000 2DE90048 		push	{fp, lr}
  31              	.LCFI0:
  32              		.cfi_def_cfa_offset 8
  33              		.cfi_offset 11, -8
  34              		.cfi_offset 14, -4
  35 0004 82B0     		sub	sp, sp, #8
  36              	.LCFI1:
  37              		.cfi_def_cfa_offset 16
  95:../../source/src/user/OS_CORE/schedule/os_tick.c **** 	struct timer *timer_ptr;
  96:../../source/src/user/OS_CORE/schedule/os_tick.c **** 	if(get_timer_heap_top(&timer_ptr) < 0)
  38              		.loc 1 96 0
  39 0006 01A8     		add	r0, sp, #4
  40 0008 FFF7FEFF 		bl	get_timer_heap_top
  41              	.LVL0:
  42 000c 0028     		cmp	r0, #0
  43 000e 02DA     		bge	.L5
  44              	.L1:
  97:../../source/src/user/OS_CORE/schedule/os_tick.c **** 	{
  98:../../source/src/user/OS_CORE/schedule/os_tick.c **** 		return ;
  99:../../source/src/user/OS_CORE/schedule/os_tick.c **** 	}
 100:../../source/src/user/OS_CORE/schedule/os_tick.c **** 	if(TIME_FIRST_SMALLER_THAN_SECOND(get_tick(),timer_ptr->wake_time))
 101:../../source/src/user/OS_CORE/schedule/os_tick.c **** 	{
 102:../../source/src/user/OS_CORE/schedule/os_tick.c **** 		return;
 103:../../source/src/user/OS_CORE/schedule/os_tick.c **** 	}
 104:../../source/src/user/OS_CORE/schedule/os_tick.c **** 	else
 105:../../source/src/user/OS_CORE/schedule/os_tick.c **** 	{
 106:../../source/src/user/OS_CORE/schedule/os_tick.c **** 		remove_from_suspend_list(&TCB_timer_task);
 107:../../source/src/user/OS_CORE/schedule/os_tick.c **** 		set_rescheduled_flag();
 108:../../source/src/user/OS_CORE/schedule/os_tick.c **** 	}
 109:../../source/src/user/OS_CORE/schedule/os_tick.c **** }
  45              		.loc 1 109 0
  46 0010 02B0     		add	sp, sp, #8
  47              	.LCFI2:
  48              		.cfi_remember_state
  49              		.cfi_def_cfa_offset 8
  50              		@ sp needed
  51 0012 BDE80088 		pop	{fp, pc}
  52              	.L5:
  53              	.LCFI3:
  54              		.cfi_restore_state
 100:../../source/src/user/OS_CORE/schedule/os_tick.c **** 	{
  55              		.loc 1 100 0
  56 0016 FFF7FEFF 		bl	get_tick
  57              	.LVL1:
  58 001a 019B     		ldr	r3, [sp, #4]
  59 001c D3E90823 		ldrd	r2, [r3, #32]
  60 0020 821A     		subs	r2, r0, r2
  61 0022 61EB0303 		sbc	r3, r1, r3
ARM GAS  G:\Users\Jaxb\AppData\Local\Temp\ccEqowR1.s 			page 4


  62 0026 9C46     		mov	ip, r3
  63 0028 002A     		cmp	r2, #0
  64 002a 7CF10003 		sbcs	r3, ip, #0
  65 002e EFDB     		blt	.L1
  66              	.LBB17:
  67              	.LBB18:
 106:../../source/src/user/OS_CORE/schedule/os_tick.c **** 		set_rescheduled_flag();
  68              		.loc 1 106 0
  69 0030 0548     		ldr	r0, .L6
  70 0032 FFF7FEFF 		bl	remove_from_suspend_list
  71              	.LVL2:
 107:../../source/src/user/OS_CORE/schedule/os_tick.c **** 	}
  72              		.loc 1 107 0
  73 0036 054B     		ldr	r3, .L6+4
  74 0038 1A68     		ldr	r2, [r3]
  75 003a 936B     		ldr	r3, [r2, #56]
  76 003c 43F00403 		orr	r3, r3, #4
  77 0040 9363     		str	r3, [r2, #56]
  78              	.LVL3:
  79              	.LBE18:
  80              	.LBE17:
  81              		.loc 1 109 0
  82 0042 02B0     		add	sp, sp, #8
  83              	.LCFI4:
  84              		.cfi_def_cfa_offset 8
  85              		@ sp needed
  86 0044 BDE80088 		pop	{fp, pc}
  87              	.L7:
  88              		.align	2
  89              	.L6:
  90 0048 00000000 		.word	TCB_timer_task
  91 004c 00000000 		.word	OSTCBCurPtr
  92              		.cfi_endproc
  93              	.LFE14:
  94              		.size	timer_task_check, .-timer_task_check
  95              		.align	1
  96              		.p2align 2,,3
  97              		.global	OS_CPU_SysTickHandler
  98              		.syntax unified
  99              		.thumb
 100              		.thumb_func
 101              		.fpu softvfp
 102              		.type	OS_CPU_SysTickHandler, %function
 103              	OS_CPU_SysTickHandler:
 104              	.LFB16:
 110:../../source/src/user/OS_CORE/schedule/os_tick.c **** #endif
 111:../../source/src/user/OS_CORE/schedule/os_tick.c **** 
 112:../../source/src/user/OS_CORE/schedule/os_tick.c **** /**
 113:../../source/src/user/OS_CORE/schedule/os_tick.c ****  * This is a system function
 114:../../source/src/user/OS_CORE/schedule/os_tick.c ****  * @Author      kaka
 115:../../source/src/user/OS_CORE/schedule/os_tick.c ****  * @param       void
 116:../../source/src/user/OS_CORE/schedule/os_tick.c ****  * @DateTime    2018-09-24
 117:../../source/src/user/OS_CORE/schedule/os_tick.c ****  * @description : used for counting time slice
 118:../../source/src/user/OS_CORE/schedule/os_tick.c ****  */
 119:../../source/src/user/OS_CORE/schedule/os_tick.c **** static void run_task_handler(void)
 120:../../source/src/user/OS_CORE/schedule/os_tick.c **** {
 121:../../source/src/user/OS_CORE/schedule/os_tick.c **** 	TCB *TCB_ptr = (TCB *)OSTCBCurPtr;
ARM GAS  G:\Users\Jaxb\AppData\Local\Temp\ccEqowR1.s 			page 5


 122:../../source/src/user/OS_CORE/schedule/os_tick.c **** 	if(--(TCB_ptr->timeslice_rest_time))
 123:../../source/src/user/OS_CORE/schedule/os_tick.c **** 	{
 124:../../source/src/user/OS_CORE/schedule/os_tick.c **** 		return ;
 125:../../source/src/user/OS_CORE/schedule/os_tick.c **** 	}
 126:../../source/src/user/OS_CORE/schedule/os_tick.c **** 	TCB_ptr->timeslice_rest_time = TCB_ptr->timeslice_hope_time;
 127:../../source/src/user/OS_CORE/schedule/os_tick.c **** 	if(1 == get_ready_num_from_TCB_list(TCB_ptr->prio))
 128:../../source/src/user/OS_CORE/schedule/os_tick.c **** 	{
 129:../../source/src/user/OS_CORE/schedule/os_tick.c **** 		return ;
 130:../../source/src/user/OS_CORE/schedule/os_tick.c **** 	}
 131:../../source/src/user/OS_CORE/schedule/os_tick.c **** 	else
 132:../../source/src/user/OS_CORE/schedule/os_tick.c **** 	{
 133:../../source/src/user/OS_CORE/schedule/os_tick.c **** 		struct list_head *head;
 134:../../source/src/user/OS_CORE/schedule/os_tick.c **** 		head = get_from_TCB_list(TCB_ptr->prio);
 135:../../source/src/user/OS_CORE/schedule/os_tick.c **** 		list_del(&TCB_ptr->same_prio_list);
 136:../../source/src/user/OS_CORE/schedule/os_tick.c **** 		list_add_tail(&TCB_ptr->same_prio_list,head);
 137:../../source/src/user/OS_CORE/schedule/os_tick.c **** 		set_rescheduled_flag();
 138:../../source/src/user/OS_CORE/schedule/os_tick.c **** 	}
 139:../../source/src/user/OS_CORE/schedule/os_tick.c **** }
 140:../../source/src/user/OS_CORE/schedule/os_tick.c **** 
 141:../../source/src/user/OS_CORE/schedule/os_tick.c **** /**
 142:../../source/src/user/OS_CORE/schedule/os_tick.c ****  * This is a system function
 143:../../source/src/user/OS_CORE/schedule/os_tick.c ****  * @Author   kaka
 144:../../source/src/user/OS_CORE/schedule/os_tick.c ****  * @param    none
 145:../../source/src/user/OS_CORE/schedule/os_tick.c ****  * @DateTime 2018-09-23
 146:../../source/src/user/OS_CORE/schedule/os_tick.c ****  * @return   [none]
 147:../../source/src/user/OS_CORE/schedule/os_tick.c ****  */
 148:../../source/src/user/OS_CORE/schedule/os_tick.c **** void  OS_CPU_SysTickHandler(void)
 149:../../source/src/user/OS_CORE/schedule/os_tick.c **** {
 105              		.loc 1 149 0
 106              		.cfi_startproc
 107              		@ args = 0, pretend = 0, frame = 0
 108              		@ frame_needed = 0, uses_anonymous_args = 0
 109 0050 F8B5     		push	{r3, r4, r5, r6, r7, lr}
 110              	.LCFI5:
 111              		.cfi_def_cfa_offset 24
 112              		.cfi_offset 3, -24
 113              		.cfi_offset 4, -20
 114              		.cfi_offset 5, -16
 115              		.cfi_offset 6, -12
 116              		.cfi_offset 7, -8
 117              		.cfi_offset 14, -4
 150:../../source/src/user/OS_CORE/schedule/os_tick.c **** 	SYS_ENTER_INTERRUPT();
 118              		.loc 1 150 0
 119 0052 3D4D     		ldr	r5, .L27
 120              	.LBB34:
 121              	.LBB35:
  42:../../source/src/user/OS_CORE/schedule/os_tick.c **** #endif
 122              		.loc 1 42 0
 123 0054 3D4B     		ldr	r3, .L27+4
 124              	.LBE35:
 125              	.LBE34:
 126              		.loc 1 150 0
 127 0056 2A68     		ldr	r2, [r5]
 128              	.LBB39:
 129              	.LBB36:
  44:../../source/src/user/OS_CORE/schedule/os_tick.c **** #if CONFIG_TIME_EN
 130              		.loc 1 44 0
ARM GAS  G:\Users\Jaxb\AppData\Local\Temp\ccEqowR1.s 			page 6


 131 0058 3D4C     		ldr	r4, .L27+8
 132              	.LBE36:
 133              	.LBE39:
 134              		.loc 1 150 0
 135 005a 0132     		adds	r2, r2, #1
 136 005c 2A60     		str	r2, [r5]
 137              	.LBB40:
 138              	.LBB37:
  42:../../source/src/user/OS_CORE/schedule/os_tick.c **** #endif
 139              		.loc 1 42 0
 140 005e 1A68     		ldr	r2, [r3]
 141 0060 0132     		adds	r2, r2, #1
 142 0062 1A60     		str	r2, [r3]
  44:../../source/src/user/OS_CORE/schedule/os_tick.c **** #if CONFIG_TIME_EN
 143              		.loc 1 44 0
 144 0064 D4E90067 		ldrd	r6, [r4]
 145 0068 701C     		adds	r0, r6, #1
 146 006a 47F10001 		adc	r1, r7, #0
 147 006e C4E90001 		strd	r0, [r4]
  46:../../source/src/user/OS_CORE/schedule/os_tick.c **** 	{
 148              		.loc 1 46 0
 149 0072 1A68     		ldr	r2, [r3]
 150 0074 642A     		cmp	r2, #100
 151 0076 46D0     		beq	.L23
 152              	.L9:
 153              	.LBE37:
 154              	.LBE40:
 155              	.LBB41:
 156              	.LBB42:
  74:../../source/src/user/OS_CORE/schedule/os_tick.c **** 	while(NULL != TCB_ptr)
 157              		.loc 1 74 0
 158 0078 FFF7FEFF 		bl	delay_heap_get_top_TCB
 159              	.LVL4:
  75:../../source/src/user/OS_CORE/schedule/os_tick.c **** 	{
 160              		.loc 1 75 0
 161 007c 0646     		mov	r6, r0
 162 007e 38B1     		cbz	r0, .L22
  77:../../source/src/user/OS_CORE/schedule/os_tick.c **** 		{
 163              		.loc 1 77 0
 164 0080 D4E90001 		ldrd	r0, [r4]
 165              	.LVL5:
 166 0084 D6E91023 		ldrd	r2, [r6, #64]
 167 0088 8B42     		cmp	r3, r1
 168 008a 08BF     		it	eq
 169 008c 8242     		cmpeq	r2, r0
 170 008e 41D0     		beq	.L20
 171              	.L22:
 172 0090 304F     		ldr	r7, .L27+12
 173              	.L14:
 174              	.LVL6:
 175              	.LBE42:
 176              	.LBE41:
 151:../../source/src/user/OS_CORE/schedule/os_tick.c **** 	tick_time_handler();
 152:../../source/src/user/OS_CORE/schedule/os_tick.c **** 	delay_task_check();
 153:../../source/src/user/OS_CORE/schedule/os_tick.c **** #if CONFIG_TIMER_EN
 154:../../source/src/user/OS_CORE/schedule/os_tick.c **** 	timer_task_check();
 177              		.loc 1 154 0
ARM GAS  G:\Users\Jaxb\AppData\Local\Temp\ccEqowR1.s 			page 7


 178 0092 FFF7FEFF 		bl	timer_task_check
 179              	.LVL7:
 180              	.LBB44:
 181              	.LBB45:
 121:../../source/src/user/OS_CORE/schedule/os_tick.c **** 	if(--(TCB_ptr->timeslice_rest_time))
 182              		.loc 1 121 0
 183 0096 3C68     		ldr	r4, [r7]
 184              	.LVL8:
 122:../../source/src/user/OS_CORE/schedule/os_tick.c **** 	{
 185              		.loc 1 122 0
 186 0098 636B     		ldr	r3, [r4, #52]
 187 009a 013B     		subs	r3, r3, #1
 188 009c 6363     		str	r3, [r4, #52]
 189 009e 33B1     		cbz	r3, .L24
 190              	.LVL9:
 191              	.L11:
 192              	.LBE45:
 193              	.LBE44:
 155:../../source/src/user/OS_CORE/schedule/os_tick.c **** #endif
 156:../../source/src/user/OS_CORE/schedule/os_tick.c **** 	run_task_handler();
 157:../../source/src/user/OS_CORE/schedule/os_tick.c **** 	if(need_rescheduled() && !sys_schedule_islock())
 194              		.loc 1 157 0
 195 00a0 A36B     		ldr	r3, [r4, #56]
 196 00a2 5B07     		lsls	r3, r3, #29
 197 00a4 20D4     		bmi	.L25
 198              	.L18:
 158:../../source/src/user/OS_CORE/schedule/os_tick.c **** 	{
 159:../../source/src/user/OS_CORE/schedule/os_tick.c **** 		clear_rescheduled_flag();
 160:../../source/src/user/OS_CORE/schedule/os_tick.c **** 		schedule();
 161:../../source/src/user/OS_CORE/schedule/os_tick.c **** 	}
 162:../../source/src/user/OS_CORE/schedule/os_tick.c **** 	SYS_EXIT_INTERRUPT();
 199              		.loc 1 162 0
 200 00a6 2B68     		ldr	r3, [r5]
 201 00a8 013B     		subs	r3, r3, #1
 202 00aa 2B60     		str	r3, [r5]
 163:../../source/src/user/OS_CORE/schedule/os_tick.c **** }
 203              		.loc 1 163 0
 204 00ac F8BD     		pop	{r3, r4, r5, r6, r7, pc}
 205              	.LVL10:
 206              	.L24:
 207              	.LBB66:
 208              	.LBB65:
 126:../../source/src/user/OS_CORE/schedule/os_tick.c **** 	if(1 == get_ready_num_from_TCB_list(TCB_ptr->prio))
 209              		.loc 1 126 0
 210 00ae 236B     		ldr	r3, [r4, #48]
 127:../../source/src/user/OS_CORE/schedule/os_tick.c **** 	{
 211              		.loc 1 127 0
 212 00b0 E068     		ldr	r0, [r4, #12]
 126:../../source/src/user/OS_CORE/schedule/os_tick.c **** 	if(1 == get_ready_num_from_TCB_list(TCB_ptr->prio))
 213              		.loc 1 126 0
 214 00b2 6363     		str	r3, [r4, #52]
 127:../../source/src/user/OS_CORE/schedule/os_tick.c **** 	{
 215              		.loc 1 127 0
 216 00b4 FFF7FEFF 		bl	get_ready_num_from_TCB_list
 217              	.LVL11:
 218 00b8 0128     		cmp	r0, #1
 219 00ba 29D0     		beq	.L26
ARM GAS  G:\Users\Jaxb\AppData\Local\Temp\ccEqowR1.s 			page 8


 220              	.LBB46:
 134:../../source/src/user/OS_CORE/schedule/os_tick.c **** 		list_del(&TCB_ptr->same_prio_list);
 221              		.loc 1 134 0
 222 00bc E068     		ldr	r0, [r4, #12]
 223 00be FFF7FEFF 		bl	get_from_TCB_list
 224              	.LVL12:
 225              	.LBB47:
 226              	.LBB48:
 227              		.file 2 "../../source/include/os_lib/double_linked_list.h"
   1:../../source/include/os_lib/double_linked_list.h **** #ifndef _DOUBLE_LINKED_LIST_H
   2:../../source/include/os_lib/double_linked_list.h **** #define _DOUBLE_LINKED_LIST_H
   3:../../source/include/os_lib/double_linked_list.h **** 
   4:../../source/include/os_lib/double_linked_list.h **** struct list_head {
   5:../../source/include/os_lib/double_linked_list.h ****     struct list_head *next, *prev;
   6:../../source/include/os_lib/double_linked_list.h **** };
   7:../../source/include/os_lib/double_linked_list.h **** 
   8:../../source/include/os_lib/double_linked_list.h **** 
   9:../../source/include/os_lib/double_linked_list.h **** #define LIST_HEAD_INIT(name) { &(name), &(name) }
  10:../../source/include/os_lib/double_linked_list.h **** 
  11:../../source/include/os_lib/double_linked_list.h **** 
  12:../../source/include/os_lib/double_linked_list.h **** #define LIST_HEAD(name) \
  13:../../source/include/os_lib/double_linked_list.h ****     struct list_head name = LIST_HEAD_INIT(name)
  14:../../source/include/os_lib/double_linked_list.h **** 
  15:../../source/include/os_lib/double_linked_list.h **** 
  16:../../source/include/os_lib/double_linked_list.h **** static inline void INIT_LIST_HEAD(struct list_head *list)
  17:../../source/include/os_lib/double_linked_list.h **** {
  18:../../source/include/os_lib/double_linked_list.h ****     list->next = list;
  19:../../source/include/os_lib/double_linked_list.h ****     list->prev = list;
  20:../../source/include/os_lib/double_linked_list.h **** }
  21:../../source/include/os_lib/double_linked_list.h **** 
  22:../../source/include/os_lib/double_linked_list.h **** 
  23:../../source/include/os_lib/double_linked_list.h **** static inline void __list_add(struct list_head *new,
  24:../../source/include/os_lib/double_linked_list.h ****                   struct list_head *prev,
  25:../../source/include/os_lib/double_linked_list.h ****                   struct list_head *next)
  26:../../source/include/os_lib/double_linked_list.h **** {
  27:../../source/include/os_lib/double_linked_list.h ****     next->prev = new;
  28:../../source/include/os_lib/double_linked_list.h ****     new->next = next;
  29:../../source/include/os_lib/double_linked_list.h ****     new->prev = prev;
  30:../../source/include/os_lib/double_linked_list.h ****     prev->next = new;
  31:../../source/include/os_lib/double_linked_list.h **** }
  32:../../source/include/os_lib/double_linked_list.h **** 
  33:../../source/include/os_lib/double_linked_list.h **** 
  34:../../source/include/os_lib/double_linked_list.h **** static inline void list_add(struct list_head *new, struct list_head *head)
  35:../../source/include/os_lib/double_linked_list.h **** {
  36:../../source/include/os_lib/double_linked_list.h ****     __list_add(new, head, head->next);
  37:../../source/include/os_lib/double_linked_list.h **** }
  38:../../source/include/os_lib/double_linked_list.h **** 
  39:../../source/include/os_lib/double_linked_list.h **** 
  40:../../source/include/os_lib/double_linked_list.h **** static inline void list_add_tail(struct list_head *new, struct list_head *head)
  41:../../source/include/os_lib/double_linked_list.h **** {
  42:../../source/include/os_lib/double_linked_list.h ****     __list_add(new, head->prev, head);
  43:../../source/include/os_lib/double_linked_list.h **** }
  44:../../source/include/os_lib/double_linked_list.h **** 
  45:../../source/include/os_lib/double_linked_list.h **** 
  46:../../source/include/os_lib/double_linked_list.h **** static inline void __list_del(struct list_head * prev, struct list_head * next)
  47:../../source/include/os_lib/double_linked_list.h **** {
  48:../../source/include/os_lib/double_linked_list.h ****     next->prev = prev;
ARM GAS  G:\Users\Jaxb\AppData\Local\Temp\ccEqowR1.s 			page 9


  49:../../source/include/os_lib/double_linked_list.h ****     prev->next = next;
  50:../../source/include/os_lib/double_linked_list.h **** }
  51:../../source/include/os_lib/double_linked_list.h **** 
  52:../../source/include/os_lib/double_linked_list.h **** 
  53:../../source/include/os_lib/double_linked_list.h **** static inline void list_del(struct list_head *entry)
  54:../../source/include/os_lib/double_linked_list.h **** {
  55:../../source/include/os_lib/double_linked_list.h ****     __list_del(entry->prev, entry->next);
 228              		.loc 2 55 0
 229 00c2 2346     		mov	r3, r4
 230 00c4 216A     		ldr	r1, [r4, #32]
 231 00c6 53F81C6F 		ldr	r6, [r3, #28]!
 232              	.LVL13:
 233              	.LBB49:
 234              	.LBB50:
  48:../../source/include/os_lib/double_linked_list.h ****     prev->next = next;
 235              		.loc 2 48 0
 236 00ca 7160     		str	r1, [r6, #4]
 237              	.LBE50:
 238              	.LBE49:
 239              	.LBE48:
 240              	.LBE47:
 241              	.LBB54:
 242              	.LBB55:
  42:../../source/include/os_lib/double_linked_list.h **** }
 243              		.loc 2 42 0
 244 00cc 4268     		ldr	r2, [r0, #4]
 245              	.LBE55:
 246              	.LBE54:
 247              	.LBB62:
 248              	.LBB53:
 249              	.LBB52:
 250              	.LBB51:
  49:../../source/include/os_lib/double_linked_list.h **** }
 251              		.loc 2 49 0
 252 00ce 0E60     		str	r6, [r1]
 253              	.LVL14:
 254              	.LBE51:
 255              	.LBE52:
 256              	.LBE53:
 257              	.LBE62:
 258              	.LBB63:
 259              	.LBB60:
 260              	.LBB56:
 261              	.LBB57:
  27:../../source/include/os_lib/double_linked_list.h ****     new->next = next;
 262              		.loc 2 27 0
 263 00d0 4360     		str	r3, [r0, #4]
  28:../../source/include/os_lib/double_linked_list.h ****     new->prev = prev;
 264              		.loc 2 28 0
 265 00d2 C4E90702 		strd	r0, r2, [r4, #28]
 266              	.LBE57:
 267              	.LBE56:
 268              	.LBE60:
 269              	.LBE63:
 137:../../source/src/user/OS_CORE/schedule/os_tick.c **** 	}
 270              		.loc 1 137 0
 271 00d6 3C68     		ldr	r4, [r7]
ARM GAS  G:\Users\Jaxb\AppData\Local\Temp\ccEqowR1.s 			page 10


 272              	.LVL15:
 273              	.LBB64:
 274              	.LBB61:
 275              	.LBB59:
 276              	.LBB58:
  30:../../source/include/os_lib/double_linked_list.h **** }
 277              		.loc 2 30 0
 278 00d8 1360     		str	r3, [r2]
 279              	.LVL16:
 280              	.LBE58:
 281              	.LBE59:
 282              	.LBE61:
 283              	.LBE64:
 137:../../source/src/user/OS_CORE/schedule/os_tick.c **** 	}
 284              		.loc 1 137 0
 285 00da A36B     		ldr	r3, [r4, #56]
 286              	.LVL17:
 287 00dc 43F00403 		orr	r3, r3, #4
 288 00e0 A363     		str	r3, [r4, #56]
 289              	.LVL18:
 290              	.LBE46:
 291              	.LBE65:
 292              	.LBE66:
 157:../../source/src/user/OS_CORE/schedule/os_tick.c **** 	{
 293              		.loc 1 157 0
 294 00e2 A36B     		ldr	r3, [r4, #56]
 295 00e4 5B07     		lsls	r3, r3, #29
 296 00e6 DED5     		bpl	.L18
 297              	.L25:
 157:../../source/src/user/OS_CORE/schedule/os_tick.c **** 	{
 298              		.loc 1 157 0 is_stmt 0 discriminator 1
 299 00e8 FFF7FEFF 		bl	sys_schedule_islock
 300              	.LVL19:
 301 00ec 0028     		cmp	r0, #0
 302 00ee DAD1     		bne	.L18
 159:../../source/src/user/OS_CORE/schedule/os_tick.c **** 		schedule();
 303              		.loc 1 159 0 is_stmt 1
 304 00f0 3A68     		ldr	r2, [r7]
 305 00f2 936B     		ldr	r3, [r2, #56]
 306 00f4 23F00403 		bic	r3, r3, #4
 307 00f8 9363     		str	r3, [r2, #56]
 160:../../source/src/user/OS_CORE/schedule/os_tick.c **** 	}
 308              		.loc 1 160 0
 309 00fa FFF7FEFF 		bl	schedule
 310              	.LVL20:
 162:../../source/src/user/OS_CORE/schedule/os_tick.c **** }
 311              		.loc 1 162 0
 312 00fe 2B68     		ldr	r3, [r5]
 313 0100 013B     		subs	r3, r3, #1
 314 0102 2B60     		str	r3, [r5]
 315              		.loc 1 163 0
 316 0104 F8BD     		pop	{r3, r4, r5, r6, r7, pc}
 317              	.L23:
 318              	.LBB67:
 319              	.LBB38:
  48:../../source/src/user/OS_CORE/schedule/os_tick.c **** 		system_time_increase();
 320              		.loc 1 48 0
ARM GAS  G:\Users\Jaxb\AppData\Local\Temp\ccEqowR1.s 			page 11


 321 0106 0022     		movs	r2, #0
 322 0108 1A60     		str	r2, [r3]
  49:../../source/src/user/OS_CORE/schedule/os_tick.c **** #if CONFIG_CPU_USE_RATE_CALCULATION
 323              		.loc 1 49 0
 324 010a FFF7FEFF 		bl	system_time_increase
 325              	.LVL21:
 326 010e B3E7     		b	.L9
 327              	.LVL22:
 328              	.L26:
 329 0110 3C68     		ldr	r4, [r7]
 330              	.LVL23:
 331 0112 C5E7     		b	.L11
 332              	.LVL24:
 333              	.L20:
 334 0114 0F4F     		ldr	r7, .L27+12
 335              	.L13:
 336              	.LBE38:
 337              	.LBE67:
 338              	.LBB68:
 339              	.LBB43:
  79:../../source/src/user/OS_CORE/schedule/os_tick.c **** 			insert_ready_TCB(TCB_ptr);
 340              		.loc 1 79 0
 341 0116 FFF7FEFF 		bl	delay_heap_remove_top_TCB
 342              	.LVL25:
  80:../../source/src/user/OS_CORE/schedule/os_tick.c **** 			TCB_ptr = delay_heap_get_top_TCB();
 343              		.loc 1 80 0
 344 011a 3046     		mov	r0, r6
 345 011c FFF7FEFF 		bl	insert_ready_TCB
 346              	.LVL26:
  81:../../source/src/user/OS_CORE/schedule/os_tick.c **** 			set_rescheduled_flag();
 347              		.loc 1 81 0
 348 0120 FFF7FEFF 		bl	delay_heap_get_top_TCB
 349              	.LVL27:
  82:../../source/src/user/OS_CORE/schedule/os_tick.c **** 			continue ;
 350              		.loc 1 82 0
 351 0124 3A68     		ldr	r2, [r7]
  75:../../source/src/user/OS_CORE/schedule/os_tick.c **** 	{
 352              		.loc 1 75 0
 353 0126 0646     		mov	r6, r0
  82:../../source/src/user/OS_CORE/schedule/os_tick.c **** 			continue ;
 354              		.loc 1 82 0
 355 0128 936B     		ldr	r3, [r2, #56]
 356 012a 43F00403 		orr	r3, r3, #4
 357 012e 9363     		str	r3, [r2, #56]
  75:../../source/src/user/OS_CORE/schedule/os_tick.c **** 	{
 358              		.loc 1 75 0
 359 0130 0028     		cmp	r0, #0
 360 0132 AED0     		beq	.L14
  77:../../source/src/user/OS_CORE/schedule/os_tick.c **** 		{
 361              		.loc 1 77 0
 362 0134 D4E90001 		ldrd	r0, [r4]
 363              	.LVL28:
 364 0138 D6E91023 		ldrd	r2, [r6, #64]
 365 013c 8B42     		cmp	r3, r1
 366 013e 08BF     		it	eq
 367 0140 8242     		cmpeq	r2, r0
 368 0142 A6D1     		bne	.L14
ARM GAS  G:\Users\Jaxb\AppData\Local\Temp\ccEqowR1.s 			page 12


 369 0144 E7E7     		b	.L13
 370              	.L28:
 371 0146 00BF     		.align	2
 372              	.L27:
 373 0148 00000000 		.word	g_interrupt_count
 374 014c 00000000 		.word	.LANCHOR0
 375 0150 00000000 		.word	g_time_tick_count
 376 0154 00000000 		.word	OSTCBCurPtr
 377              	.LBE43:
 378              	.LBE68:
 379              		.cfi_endproc
 380              	.LFE16:
 381              		.size	OS_CPU_SysTickHandler, .-OS_CPU_SysTickHandler
 382              		.bss
 383              		.align	2
 384              		.set	.LANCHOR0,. + 0
 385              		.type	time_flag.4508, %object
 386              		.size	time_flag.4508, 4
 387              	time_flag.4508:
 388 0000 00000000 		.space	4
 389              		.text
 390              	.Letext0:
 391              		.file 3 "../../source/include/os_cpu/kakaosstdint.h"
 392              		.file 4 "../../source/include/os_core/task_state.h"
 393              		.file 5 "../../source/include/os_core/TCB.h"
 394              		.file 6 "../../source/include/os_core/os_timer.h"
 395              		.file 7 "../../source/include/os_core/os_time.h"
 396              		.file 8 "../../source/include/os_core/schedule/os_delay.h"
 397              		.file 9 "../../source/include/os_core/schedule/os_ready.h"
 398              		.file 10 "../../source/include/os_core/schedule/os_TCB_list.h"
 399              		.file 11 "../../source/include/os_core/schedule/os_schedule.h"
 400              		.file 12 "../../source/include/os_core/schedule/os_suspend.h"
 401              		.section	.debug_info,"",%progbits
 402              	.Ldebug_info0:
 403 0000 DB060000 		.4byte	0x6db
 404 0004 0200     		.2byte	0x2
 405 0006 00000000 		.4byte	.Ldebug_abbrev0
 406 000a 04       		.byte	0x4
 407 000b 01       		.uleb128 0x1
 408 000c 2A050000 		.4byte	.LASF88
 409 0010 0C       		.byte	0xc
 410 0011 06020000 		.4byte	.LASF89
 411 0015 2F040000 		.4byte	.LASF90
 412 0019 00000000 		.4byte	.Ltext0
 413 001d 58010000 		.4byte	.Letext0
 414 0021 00000000 		.4byte	.Ldebug_line0
 415 0025 02       		.uleb128 0x2
 416 0026 01       		.byte	0x1
 417 0027 06       		.byte	0x6
 418 0028 D7020000 		.4byte	.LASF0
 419 002c 02       		.uleb128 0x2
 420 002d 02       		.byte	0x2
 421 002e 05       		.byte	0x5
 422 002f 52000000 		.4byte	.LASF1
 423 0033 03       		.uleb128 0x3
 424 0034 04       		.byte	0x4
 425 0035 05       		.byte	0x5
ARM GAS  G:\Users\Jaxb\AppData\Local\Temp\ccEqowR1.s 			page 13


 426 0036 696E7400 		.ascii	"int\000"
 427 003a 04       		.uleb128 0x4
 428 003b 33000000 		.4byte	0x33
 429 003f 05       		.uleb128 0x5
 430 0040 18040000 		.4byte	.LASF5
 431 0044 03       		.byte	0x3
 432 0045 08       		.byte	0x8
 433 0046 4A000000 		.4byte	0x4a
 434 004a 02       		.uleb128 0x2
 435 004b 08       		.byte	0x8
 436 004c 05       		.byte	0x5
 437 004d A2010000 		.4byte	.LASF2
 438 0051 02       		.uleb128 0x2
 439 0052 01       		.byte	0x1
 440 0053 08       		.byte	0x8
 441 0054 8C020000 		.4byte	.LASF3
 442 0058 02       		.uleb128 0x2
 443 0059 02       		.byte	0x2
 444 005a 07       		.byte	0x7
 445 005b 42030000 		.4byte	.LASF4
 446 005f 05       		.uleb128 0x5
 447 0060 9C000000 		.4byte	.LASF6
 448 0064 03       		.byte	0x3
 449 0065 0C       		.byte	0xc
 450 0066 6A000000 		.4byte	0x6a
 451 006a 02       		.uleb128 0x2
 452 006b 04       		.byte	0x4
 453 006c 07       		.byte	0x7
 454 006d FF020000 		.4byte	.LASF7
 455 0071 05       		.uleb128 0x5
 456 0072 0D060000 		.4byte	.LASF8
 457 0076 03       		.byte	0x3
 458 0077 0D       		.byte	0xd
 459 0078 81000000 		.4byte	0x81
 460 007c 04       		.uleb128 0x4
 461 007d 71000000 		.4byte	0x71
 462 0081 02       		.uleb128 0x2
 463 0082 08       		.byte	0x8
 464 0083 07       		.byte	0x7
 465 0084 E3020000 		.4byte	.LASF9
 466 0088 06       		.uleb128 0x6
 467 0089 39000000 		.4byte	.LASF25
 468 008d 08       		.byte	0x8
 469 008e 02       		.byte	0x2
 470 008f 04       		.byte	0x4
 471 0090 B1000000 		.4byte	0xb1
 472 0094 07       		.uleb128 0x7
 473 0095 20060000 		.4byte	.LASF10
 474 0099 02       		.byte	0x2
 475 009a 05       		.byte	0x5
 476 009b B1000000 		.4byte	0xb1
 477 009f 02       		.byte	0x2
 478 00a0 23       		.byte	0x23
 479 00a1 00       		.uleb128 0
 480 00a2 07       		.uleb128 0x7
 481 00a3 E9050000 		.4byte	.LASF11
 482 00a7 02       		.byte	0x2
ARM GAS  G:\Users\Jaxb\AppData\Local\Temp\ccEqowR1.s 			page 14


 483 00a8 05       		.byte	0x5
 484 00a9 B1000000 		.4byte	0xb1
 485 00ad 02       		.byte	0x2
 486 00ae 23       		.byte	0x23
 487 00af 04       		.uleb128 0x4
 488 00b0 00       		.byte	0
 489 00b1 08       		.uleb128 0x8
 490 00b2 04       		.byte	0x4
 491 00b3 88000000 		.4byte	0x88
 492 00b7 09       		.uleb128 0x9
 493 00b8 CB000000 		.4byte	.LASF42
 494 00bc 07       		.byte	0x7
 495 00bd 01       		.byte	0x1
 496 00be 51000000 		.4byte	0x51
 497 00c2 04       		.byte	0x4
 498 00c3 04       		.byte	0x4
 499 00c4 05010000 		.4byte	0x105
 500 00c8 0A       		.uleb128 0xa
 501 00c9 55030000 		.4byte	.LASF12
 502 00cd 01       		.byte	0x1
 503 00ce 0A       		.uleb128 0xa
 504 00cf B4020000 		.4byte	.LASF13
 505 00d3 02       		.byte	0x2
 506 00d4 0A       		.uleb128 0xa
 507 00d5 24000000 		.4byte	.LASF14
 508 00d9 03       		.byte	0x3
 509 00da 0A       		.uleb128 0xa
 510 00db A4040000 		.4byte	.LASF15
 511 00df 04       		.byte	0x4
 512 00e0 0A       		.uleb128 0xa
 513 00e1 3F010000 		.4byte	.LASF16
 514 00e5 05       		.byte	0x5
 515 00e6 0A       		.uleb128 0xa
 516 00e7 7B000000 		.4byte	.LASF17
 517 00eb 06       		.byte	0x6
 518 00ec 0A       		.uleb128 0xa
 519 00ed 81010000 		.4byte	.LASF18
 520 00f1 07       		.byte	0x7
 521 00f2 0A       		.uleb128 0xa
 522 00f3 D6000000 		.4byte	.LASF19
 523 00f7 08       		.byte	0x8
 524 00f8 0A       		.uleb128 0xa
 525 00f9 78030000 		.4byte	.LASF20
 526 00fd 09       		.byte	0x9
 527 00fe 0A       		.uleb128 0xa
 528 00ff D0050000 		.4byte	.LASF21
 529 0103 0A       		.byte	0xa
 530 0104 00       		.byte	0
 531 0105 05       		.uleb128 0x5
 532 0106 37020000 		.4byte	.LASF22
 533 010a 04       		.byte	0x4
 534 010b 0F       		.byte	0xf
 535 010c B7000000 		.4byte	0xb7
 536 0110 05       		.uleb128 0x5
 537 0111 C0000000 		.4byte	.LASF23
 538 0115 05       		.byte	0x5
 539 0116 09       		.byte	0x9
ARM GAS  G:\Users\Jaxb\AppData\Local\Temp\ccEqowR1.s 			page 15


 540 0117 6A000000 		.4byte	0x6a
 541 011b 05       		.uleb128 0x5
 542 011c 00000000 		.4byte	.LASF24
 543 0120 05       		.byte	0x5
 544 0121 0B       		.byte	0xb
 545 0122 6A000000 		.4byte	0x6a
 546 0126 08       		.uleb128 0x8
 547 0127 04       		.byte	0x4
 548 0128 2C010000 		.4byte	0x12c
 549 012c 0B       		.uleb128 0xb
 550 012d 01       		.byte	0x1
 551 012e 38010000 		.4byte	0x138
 552 0132 0C       		.uleb128 0xc
 553 0133 38010000 		.4byte	0x138
 554 0137 00       		.byte	0
 555 0138 0D       		.uleb128 0xd
 556 0139 04       		.byte	0x4
 557 013a 0E       		.uleb128 0xe
 558 013b 0D050000 		.4byte	.LASF61
 559 013f 05       		.byte	0x5
 560 0140 12       		.byte	0x12
 561 0141 3A000000 		.4byte	0x3a
 562 0145 01       		.byte	0x1
 563 0146 01       		.byte	0x1
 564 0147 06       		.uleb128 0x6
 565 0148 BB040000 		.4byte	.LASF26
 566 014c 48       		.byte	0x48
 567 014d 05       		.byte	0x5
 568 014e 2F       		.byte	0x2f
 569 014f 18020000 		.4byte	0x218
 570 0153 07       		.uleb128 0x7
 571 0154 2D030000 		.4byte	.LASF27
 572 0158 05       		.byte	0x5
 573 0159 30       		.byte	0x30
 574 015a 18020000 		.4byte	0x218
 575 015e 02       		.byte	0x2
 576 015f 23       		.byte	0x23
 577 0160 00       		.uleb128 0
 578 0161 07       		.uleb128 0x7
 579 0162 D5040000 		.4byte	.LASF28
 580 0166 05       		.byte	0x5
 581 0167 31       		.byte	0x31
 582 0168 6A000000 		.4byte	0x6a
 583 016c 02       		.byte	0x2
 584 016d 23       		.byte	0x23
 585 016e 04       		.uleb128 0x4
 586 016f 07       		.uleb128 0x7
 587 0170 35010000 		.4byte	.LASF29
 588 0174 05       		.byte	0x5
 589 0175 32       		.byte	0x32
 590 0176 18020000 		.4byte	0x218
 591 017a 02       		.byte	0x2
 592 017b 23       		.byte	0x23
 593 017c 08       		.uleb128 0x8
 594 017d 07       		.uleb128 0x7
 595 017e 14060000 		.4byte	.LASF30
 596 0182 05       		.byte	0x5
ARM GAS  G:\Users\Jaxb\AppData\Local\Temp\ccEqowR1.s 			page 16


 597 0183 33       		.byte	0x33
 598 0184 1B010000 		.4byte	0x11b
 599 0188 02       		.byte	0x2
 600 0189 23       		.byte	0x23
 601 018a 0C       		.uleb128 0xc
 602 018b 07       		.uleb128 0x7
 603 018c F3040000 		.4byte	.LASF31
 604 0190 05       		.byte	0x5
 605 0191 34       		.byte	0x34
 606 0192 1B010000 		.4byte	0x11b
 607 0196 02       		.byte	0x2
 608 0197 23       		.byte	0x23
 609 0198 10       		.uleb128 0x10
 610 0199 07       		.uleb128 0x7
 611 019a 0D040000 		.4byte	.LASF32
 612 019e 05       		.byte	0x5
 613 019f 35       		.byte	0x35
 614 01a0 05010000 		.4byte	0x105
 615 01a4 02       		.byte	0x2
 616 01a5 23       		.byte	0x23
 617 01a6 14       		.uleb128 0x14
 618 01a7 07       		.uleb128 0x7
 619 01a8 F9030000 		.4byte	.LASF33
 620 01ac 05       		.byte	0x5
 621 01ad 36       		.byte	0x36
 622 01ae 33000000 		.4byte	0x33
 623 01b2 02       		.byte	0x2
 624 01b3 23       		.byte	0x23
 625 01b4 18       		.uleb128 0x18
 626 01b5 07       		.uleb128 0x7
 627 01b6 33030000 		.4byte	.LASF34
 628 01ba 05       		.byte	0x5
 629 01bb 37       		.byte	0x37
 630 01bc 88000000 		.4byte	0x88
 631 01c0 02       		.byte	0x2
 632 01c1 23       		.byte	0x23
 633 01c2 1C       		.uleb128 0x1c
 634 01c3 07       		.uleb128 0x7
 635 01c4 00050000 		.4byte	.LASF35
 636 01c8 05       		.byte	0x5
 637 01c9 38       		.byte	0x38
 638 01ca 88000000 		.4byte	0x88
 639 01ce 02       		.byte	0x2
 640 01cf 23       		.byte	0x23
 641 01d0 24       		.uleb128 0x24
 642 01d1 07       		.uleb128 0x7
 643 01d2 55020000 		.4byte	.LASF36
 644 01d6 05       		.byte	0x5
 645 01d7 39       		.byte	0x39
 646 01d8 1E020000 		.4byte	0x21e
 647 01dc 02       		.byte	0x2
 648 01dd 23       		.byte	0x23
 649 01de 2C       		.uleb128 0x2c
 650 01df 07       		.uleb128 0x7
 651 01e0 B0010000 		.4byte	.LASF37
 652 01e4 05       		.byte	0x5
 653 01e5 3A       		.byte	0x3a
ARM GAS  G:\Users\Jaxb\AppData\Local\Temp\ccEqowR1.s 			page 17


 654 01e6 6A000000 		.4byte	0x6a
 655 01ea 02       		.byte	0x2
 656 01eb 23       		.byte	0x23
 657 01ec 30       		.uleb128 0x30
 658 01ed 07       		.uleb128 0x7
 659 01ee 7A040000 		.4byte	.LASF38
 660 01f2 05       		.byte	0x5
 661 01f3 3B       		.byte	0x3b
 662 01f4 6A000000 		.4byte	0x6a
 663 01f8 02       		.byte	0x2
 664 01f9 23       		.byte	0x23
 665 01fa 34       		.uleb128 0x34
 666 01fb 07       		.uleb128 0x7
 667 01fc CB020000 		.4byte	.LASF39
 668 0200 05       		.byte	0x5
 669 0201 3C       		.byte	0x3c
 670 0202 5F000000 		.4byte	0x5f
 671 0206 02       		.byte	0x2
 672 0207 23       		.byte	0x23
 673 0208 38       		.uleb128 0x38
 674 0209 07       		.uleb128 0x7
 675 020a EE050000 		.4byte	.LASF40
 676 020e 05       		.byte	0x5
 677 020f 3D       		.byte	0x3d
 678 0210 71000000 		.4byte	0x71
 679 0214 02       		.byte	0x2
 680 0215 23       		.byte	0x23
 681 0216 40       		.uleb128 0x40
 682 0217 00       		.byte	0
 683 0218 08       		.uleb128 0x8
 684 0219 04       		.byte	0x4
 685 021a 10010000 		.4byte	0x110
 686 021e 08       		.uleb128 0x8
 687 021f 04       		.byte	0x4
 688 0220 24020000 		.4byte	0x224
 689 0224 02       		.uleb128 0x2
 690 0225 01       		.byte	0x1
 691 0226 08       		.byte	0x8
 692 0227 61030000 		.4byte	.LASF41
 693 022b 0F       		.uleb128 0xf
 694 022c 54434200 		.ascii	"TCB\000"
 695 0230 05       		.byte	0x5
 696 0231 3E       		.byte	0x3e
 697 0232 47010000 		.4byte	0x147
 698 0236 04       		.uleb128 0x4
 699 0237 2B020000 		.4byte	0x22b
 700 023b 09       		.uleb128 0x9
 701 023c 5C000000 		.4byte	.LASF43
 702 0240 07       		.byte	0x7
 703 0241 01       		.byte	0x1
 704 0242 51000000 		.4byte	0x51
 705 0246 06       		.byte	0x6
 706 0247 11       		.byte	0x11
 707 0248 5F020000 		.4byte	0x25f
 708 024c 0A       		.uleb128 0xa
 709 024d 1E030000 		.4byte	.LASF44
 710 0251 00       		.byte	0
ARM GAS  G:\Users\Jaxb\AppData\Local\Temp\ccEqowR1.s 			page 18


 711 0252 0A       		.uleb128 0xa
 712 0253 25060000 		.4byte	.LASF45
 713 0257 01       		.byte	0x1
 714 0258 0A       		.uleb128 0xa
 715 0259 1F050000 		.4byte	.LASF46
 716 025d 02       		.byte	0x2
 717 025e 00       		.byte	0
 718 025f 05       		.uleb128 0x5
 719 0260 E0040000 		.4byte	.LASF47
 720 0264 06       		.byte	0x6
 721 0265 15       		.byte	0x15
 722 0266 3B020000 		.4byte	0x23b
 723 026a 09       		.uleb128 0x9
 724 026b ED030000 		.4byte	.LASF48
 725 026f 07       		.byte	0x7
 726 0270 01       		.byte	0x1
 727 0271 51000000 		.4byte	0x51
 728 0275 06       		.byte	0x6
 729 0276 17       		.byte	0x17
 730 0277 88020000 		.4byte	0x288
 731 027b 0A       		.uleb128 0xa
 732 027c 56010000 		.4byte	.LASF49
 733 0280 00       		.byte	0
 734 0281 0A       		.uleb128 0xa
 735 0282 19060000 		.4byte	.LASF50
 736 0286 01       		.byte	0x1
 737 0287 00       		.byte	0
 738 0288 05       		.uleb128 0x5
 739 0289 CD030000 		.4byte	.LASF51
 740 028d 06       		.byte	0x6
 741 028e 1A       		.byte	0x1a
 742 028f 6A020000 		.4byte	0x26a
 743 0293 06       		.uleb128 0x6
 744 0294 24010000 		.4byte	.LASF52
 745 0298 28       		.byte	0x28
 746 0299 06       		.byte	0x6
 747 029a 1C       		.byte	0x1c
 748 029b 1E030000 		.4byte	0x31e
 749 029f 07       		.uleb128 0x7
 750 02a0 FA020000 		.4byte	.LASF53
 751 02a4 06       		.byte	0x6
 752 02a5 1E       		.byte	0x1e
 753 02a6 5F020000 		.4byte	0x25f
 754 02aa 02       		.byte	0x2
 755 02ab 23       		.byte	0x23
 756 02ac 00       		.uleb128 0
 757 02ad 07       		.uleb128 0x7
 758 02ae 43000000 		.4byte	.LASF54
 759 02b2 06       		.byte	0x6
 760 02b3 1F       		.byte	0x1f
 761 02b4 88020000 		.4byte	0x288
 762 02b8 02       		.byte	0x2
 763 02b9 23       		.byte	0x23
 764 02ba 01       		.uleb128 0x1
 765 02bb 07       		.uleb128 0x7
 766 02bc 98030000 		.4byte	.LASF55
 767 02c0 06       		.byte	0x6
ARM GAS  G:\Users\Jaxb\AppData\Local\Temp\ccEqowR1.s 			page 19


 768 02c1 20       		.byte	0x20
 769 02c2 6A000000 		.4byte	0x6a
 770 02c6 02       		.byte	0x2
 771 02c7 23       		.byte	0x23
 772 02c8 04       		.uleb128 0x4
 773 02c9 07       		.uleb128 0x7
 774 02ca B5000000 		.4byte	.LASF56
 775 02ce 06       		.byte	0x6
 776 02cf 21       		.byte	0x21
 777 02d0 1E020000 		.4byte	0x21e
 778 02d4 02       		.byte	0x2
 779 02d5 23       		.byte	0x23
 780 02d6 08       		.uleb128 0x8
 781 02d7 10       		.uleb128 0x10
 782 02d8 66756E00 		.ascii	"fun\000"
 783 02dc 06       		.byte	0x6
 784 02dd 22       		.byte	0x22
 785 02de 26010000 		.4byte	0x126
 786 02e2 02       		.byte	0x2
 787 02e3 23       		.byte	0x23
 788 02e4 0C       		.uleb128 0xc
 789 02e5 07       		.uleb128 0x7
 790 02e6 8E040000 		.4byte	.LASF57
 791 02ea 06       		.byte	0x6
 792 02eb 23       		.byte	0x23
 793 02ec 38010000 		.4byte	0x138
 794 02f0 02       		.byte	0x2
 795 02f1 23       		.byte	0x23
 796 02f2 10       		.uleb128 0x10
 797 02f3 07       		.uleb128 0x7
 798 02f4 E9010000 		.4byte	.LASF58
 799 02f8 06       		.byte	0x6
 800 02f9 24       		.byte	0x24
 801 02fa 6A000000 		.4byte	0x6a
 802 02fe 02       		.byte	0x2
 803 02ff 23       		.byte	0x23
 804 0300 14       		.uleb128 0x14
 805 0301 07       		.uleb128 0x7
 806 0302 67000000 		.4byte	.LASF59
 807 0306 06       		.byte	0x6
 808 0307 25       		.byte	0x25
 809 0308 6A000000 		.4byte	0x6a
 810 030c 02       		.byte	0x2
 811 030d 23       		.byte	0x23
 812 030e 18       		.uleb128 0x18
 813 030f 07       		.uleb128 0x7
 814 0310 77010000 		.4byte	.LASF60
 815 0314 06       		.byte	0x6
 816 0315 26       		.byte	0x26
 817 0316 71000000 		.4byte	0x71
 818 031a 02       		.byte	0x2
 819 031b 23       		.byte	0x23
 820 031c 20       		.uleb128 0x20
 821 031d 00       		.byte	0
 822 031e 0E       		.uleb128 0xe
 823 031f 5A020000 		.4byte	.LASF62
 824 0323 01       		.byte	0x1
ARM GAS  G:\Users\Jaxb\AppData\Local\Temp\ccEqowR1.s 			page 20


 825 0324 15       		.byte	0x15
 826 0325 2B030000 		.4byte	0x32b
 827 0329 01       		.byte	0x1
 828 032a 01       		.byte	0x1
 829 032b 08       		.uleb128 0x8
 830 032c 04       		.byte	0x4
 831 032d 36020000 		.4byte	0x236
 832 0331 0E       		.uleb128 0xe
 833 0332 BD030000 		.4byte	.LASF63
 834 0336 01       		.byte	0x1
 835 0337 16       		.byte	0x16
 836 0338 2B030000 		.4byte	0x32b
 837 033c 01       		.byte	0x1
 838 033d 01       		.byte	0x1
 839 033e 0E       		.uleb128 0xe
 840 033f 66020000 		.4byte	.LASF64
 841 0343 01       		.byte	0x1
 842 0344 19       		.byte	0x19
 843 0345 2B020000 		.4byte	0x22b
 844 0349 01       		.byte	0x1
 845 034a 01       		.byte	0x1
 846 034b 0E       		.uleb128 0xe
 847 034c 0C030000 		.4byte	.LASF65
 848 0350 01       		.byte	0x1
 849 0351 1D       		.byte	0x1d
 850 0352 7C000000 		.4byte	0x7c
 851 0356 01       		.byte	0x1
 852 0357 01       		.byte	0x1
 853 0358 11       		.uleb128 0x11
 854 0359 01       		.byte	0x1
 855 035a F0010000 		.4byte	.LASF91
 856 035e 01       		.byte	0x1
 857 035f 94       		.byte	0x94
 858 0360 01       		.byte	0x1
 859 0361 50000000 		.4byte	.LFB16
 860 0365 58010000 		.4byte	.LFE16
 861 0369 00000000 		.4byte	.LLST1
 862 036d 01       		.byte	0x1
 863 036e E3040000 		.4byte	0x4e3
 864 0372 12       		.uleb128 0x12
 865 0373 48050000 		.4byte	0x548
 866 0377 54000000 		.4byte	.LBB34
 867 037b 00000000 		.4byte	.Ldebug_ranges0+0
 868 037f 01       		.byte	0x1
 869 0380 97       		.byte	0x97
 870 0381 95030000 		.4byte	0x395
 871 0385 13       		.uleb128 0x13
 872 0386 00000000 		.4byte	.Ldebug_ranges0+0
 873 038a 14       		.uleb128 0x14
 874 038b 0E010000 		.4byte	.LVL21
 875 038f 4F060000 		.4byte	0x64f
 876 0393 00       		.byte	0
 877 0394 00       		.byte	0
 878 0395 12       		.uleb128 0x12
 879 0396 2F050000 		.4byte	0x52f
 880 039a 78000000 		.4byte	.LBB41
 881 039e 28000000 		.4byte	.Ldebug_ranges0+0x28
ARM GAS  G:\Users\Jaxb\AppData\Local\Temp\ccEqowR1.s 			page 21


 882 03a2 01       		.byte	0x1
 883 03a3 98       		.byte	0x98
 884 03a4 E7030000 		.4byte	0x3e7
 885 03a8 13       		.uleb128 0x13
 886 03a9 28000000 		.4byte	.Ldebug_ranges0+0x28
 887 03ad 15       		.uleb128 0x15
 888 03ae 3C050000 		.4byte	0x53c
 889 03b2 20000000 		.4byte	.LLST2
 890 03b6 14       		.uleb128 0x14
 891 03b7 7C000000 		.4byte	.LVL4
 892 03bb 5C060000 		.4byte	0x65c
 893 03bf 14       		.uleb128 0x14
 894 03c0 1A010000 		.4byte	.LVL25
 895 03c4 69060000 		.4byte	0x669
 896 03c8 16       		.uleb128 0x16
 897 03c9 20010000 		.4byte	.LVL26
 898 03cd 76060000 		.4byte	0x676
 899 03d1 DC030000 		.4byte	0x3dc
 900 03d5 17       		.uleb128 0x17
 901 03d6 01       		.byte	0x1
 902 03d7 50       		.byte	0x50
 903 03d8 02       		.byte	0x2
 904 03d9 76       		.byte	0x76
 905 03da 00       		.sleb128 0
 906 03db 00       		.byte	0
 907 03dc 14       		.uleb128 0x14
 908 03dd 24010000 		.4byte	.LVL27
 909 03e1 5C060000 		.4byte	0x65c
 910 03e5 00       		.byte	0
 911 03e6 00       		.byte	0
 912 03e7 12       		.uleb128 0x12
 913 03e8 E3040000 		.4byte	0x4e3
 914 03ec 96000000 		.4byte	.LBB44
 915 03f0 40000000 		.4byte	.Ldebug_ranges0+0x40
 916 03f4 01       		.byte	0x1
 917 03f5 9C       		.byte	0x9c
 918 03f6 C7040000 		.4byte	0x4c7
 919 03fa 13       		.uleb128 0x13
 920 03fb 40000000 		.4byte	.Ldebug_ranges0+0x40
 921 03ff 15       		.uleb128 0x15
 922 0400 F0040000 		.4byte	0x4f0
 923 0404 5F000000 		.4byte	.LLST3
 924 0408 18       		.uleb128 0x18
 925 0409 FB040000 		.4byte	0x4fb
 926 040d BC000000 		.4byte	.LBB46
 927 0411 E2000000 		.4byte	.LBE46
 928 0415 BC040000 		.4byte	0x4bc
 929 0419 15       		.uleb128 0x15
 930 041a FC040000 		.4byte	0x4fc
 931 041e A5000000 		.4byte	.LLST4
 932 0422 12       		.uleb128 0x12
 933 0423 67050000 		.4byte	0x567
 934 0427 C2000000 		.4byte	.LBB47
 935 042b 58000000 		.4byte	.Ldebug_ranges0+0x58
 936 042f 01       		.byte	0x1
 937 0430 87       		.byte	0x87
 938 0431 61040000 		.4byte	0x461
ARM GAS  G:\Users\Jaxb\AppData\Local\Temp\ccEqowR1.s 			page 22


 939 0435 19       		.uleb128 0x19
 940 0436 74050000 		.4byte	0x574
 941 043a B8000000 		.4byte	.LLST5
 942 043e 1A       		.uleb128 0x1a
 943 043f 80050000 		.4byte	0x580
 944 0443 CA000000 		.4byte	.LBB49
 945 0447 70000000 		.4byte	.Ldebug_ranges0+0x70
 946 044b 02       		.byte	0x2
 947 044c 37       		.byte	0x37
 948 044d 19       		.uleb128 0x19
 949 044e 98050000 		.4byte	0x598
 950 0452 D8000000 		.4byte	.LLST6
 951 0456 19       		.uleb128 0x19
 952 0457 8D050000 		.4byte	0x58d
 953 045b EB000000 		.4byte	.LLST7
 954 045f 00       		.byte	0
 955 0460 00       		.byte	0
 956 0461 12       		.uleb128 0x12
 957 0462 A4050000 		.4byte	0x5a4
 958 0466 CC000000 		.4byte	.LBB54
 959 046a 88000000 		.4byte	.Ldebug_ranges0+0x88
 960 046e 01       		.byte	0x1
 961 046f 88       		.byte	0x88
 962 0470 B2040000 		.4byte	0x4b2
 963 0474 19       		.uleb128 0x19
 964 0475 BC050000 		.4byte	0x5bc
 965 0479 FE000000 		.4byte	.LLST8
 966 047d 19       		.uleb128 0x19
 967 047e B1050000 		.4byte	0x5b1
 968 0482 11010000 		.4byte	.LLST9
 969 0486 1A       		.uleb128 0x1a
 970 0487 C8050000 		.4byte	0x5c8
 971 048b D0000000 		.4byte	.LBB56
 972 048f A8000000 		.4byte	.Ldebug_ranges0+0xa8
 973 0493 02       		.byte	0x2
 974 0494 2A       		.byte	0x2a
 975 0495 19       		.uleb128 0x19
 976 0496 EB050000 		.4byte	0x5eb
 977 049a FE000000 		.4byte	.LLST8
 978 049e 19       		.uleb128 0x19
 979 049f E0050000 		.4byte	0x5e0
 980 04a3 24010000 		.4byte	.LLST11
 981 04a7 19       		.uleb128 0x19
 982 04a8 D5050000 		.4byte	0x5d5
 983 04ac 11010000 		.4byte	.LLST9
 984 04b0 00       		.byte	0
 985 04b1 00       		.byte	0
 986 04b2 14       		.uleb128 0x14
 987 04b3 C2000000 		.4byte	.LVL12
 988 04b7 83060000 		.4byte	0x683
 989 04bb 00       		.byte	0
 990 04bc 14       		.uleb128 0x14
 991 04bd B8000000 		.4byte	.LVL11
 992 04c1 90060000 		.4byte	0x690
 993 04c5 00       		.byte	0
 994 04c6 00       		.byte	0
 995 04c7 14       		.uleb128 0x14
ARM GAS  G:\Users\Jaxb\AppData\Local\Temp\ccEqowR1.s 			page 23


 996 04c8 96000000 		.4byte	.LVL7
 997 04cc 0F050000 		.4byte	0x50f
 998 04d0 14       		.uleb128 0x14
 999 04d1 EC000000 		.4byte	.LVL19
 1000 04d5 9D060000 		.4byte	0x69d
 1001 04d9 14       		.uleb128 0x14
 1002 04da FE000000 		.4byte	.LVL20
 1003 04de AA060000 		.4byte	0x6aa
 1004 04e2 00       		.byte	0
 1005 04e3 1B       		.uleb128 0x1b
 1006 04e4 7B020000 		.4byte	.LASF69
 1007 04e8 01       		.byte	0x1
 1008 04e9 77       		.byte	0x77
 1009 04ea 01       		.byte	0x1
 1010 04eb 01       		.byte	0x1
 1011 04ec 09050000 		.4byte	0x509
 1012 04f0 1C       		.uleb128 0x1c
 1013 04f1 EB040000 		.4byte	.LASF66
 1014 04f5 01       		.byte	0x1
 1015 04f6 79       		.byte	0x79
 1016 04f7 09050000 		.4byte	0x509
 1017 04fb 1D       		.uleb128 0x1d
 1018 04fc 1C       		.uleb128 0x1c
 1019 04fd 16010000 		.4byte	.LASF67
 1020 0501 01       		.byte	0x1
 1021 0502 85       		.byte	0x85
 1022 0503 B1000000 		.4byte	0xb1
 1023 0507 00       		.byte	0
 1024 0508 00       		.byte	0
 1025 0509 08       		.uleb128 0x8
 1026 050a 04       		.byte	0x4
 1027 050b 2B020000 		.4byte	0x22b
 1028 050f 1E       		.uleb128 0x1e
 1029 0510 01       		.byte	0x1
 1030 0511 1E040000 		.4byte	.LASF92
 1031 0515 01       		.byte	0x1
 1032 0516 5D       		.byte	0x5d
 1033 0517 01       		.byte	0x1
 1034 0518 01       		.byte	0x1
 1035 0519 29050000 		.4byte	0x529
 1036 051d 1C       		.uleb128 0x1c
 1037 051e CE010000 		.4byte	.LASF68
 1038 0522 01       		.byte	0x1
 1039 0523 5F       		.byte	0x5f
 1040 0524 29050000 		.4byte	0x529
 1041 0528 00       		.byte	0
 1042 0529 08       		.uleb128 0x8
 1043 052a 04       		.byte	0x4
 1044 052b 93020000 		.4byte	0x293
 1045 052f 1B       		.uleb128 0x1b
 1046 0530 93040000 		.4byte	.LASF70
 1047 0534 01       		.byte	0x1
 1048 0535 48       		.byte	0x48
 1049 0536 01       		.byte	0x1
 1050 0537 01       		.byte	0x1
 1051 0538 48050000 		.4byte	0x548
 1052 053c 1C       		.uleb128 0x1c
ARM GAS  G:\Users\Jaxb\AppData\Local\Temp\ccEqowR1.s 			page 24


 1053 053d EB040000 		.4byte	.LASF66
 1054 0541 01       		.byte	0x1
 1055 0542 4A       		.byte	0x4a
 1056 0543 09050000 		.4byte	0x509
 1057 0547 00       		.byte	0
 1058 0548 1B       		.uleb128 0x1b
 1059 0549 66030000 		.4byte	.LASF71
 1060 054d 01       		.byte	0x1
 1061 054e 26       		.byte	0x26
 1062 054f 01       		.byte	0x1
 1063 0550 03       		.byte	0x3
 1064 0551 67050000 		.4byte	0x567
 1065 0555 1F       		.uleb128 0x1f
 1066 0556 C4010000 		.4byte	.LASF93
 1067 055a 01       		.byte	0x1
 1068 055b 29       		.byte	0x29
 1069 055c 3A000000 		.4byte	0x3a
 1070 0560 05       		.byte	0x5
 1071 0561 03       		.byte	0x3
 1072 0562 00000000 		.4byte	time_flag.4508
 1073 0566 00       		.byte	0
 1074 0567 1B       		.uleb128 0x1b
 1075 0568 49000000 		.4byte	.LASF72
 1076 056c 02       		.byte	0x2
 1077 056d 35       		.byte	0x35
 1078 056e 01       		.byte	0x1
 1079 056f 03       		.byte	0x3
 1080 0570 80050000 		.4byte	0x580
 1081 0574 20       		.uleb128 0x20
 1082 0575 75020000 		.4byte	.LASF74
 1083 0579 02       		.byte	0x2
 1084 057a 35       		.byte	0x35
 1085 057b B1000000 		.4byte	0xb1
 1086 057f 00       		.byte	0
 1087 0580 1B       		.uleb128 0x1b
 1088 0581 C0020000 		.4byte	.LASF73
 1089 0585 02       		.byte	0x2
 1090 0586 2E       		.byte	0x2e
 1091 0587 01       		.byte	0x1
 1092 0588 03       		.byte	0x3
 1093 0589 A4050000 		.4byte	0x5a4
 1094 058d 20       		.uleb128 0x20
 1095 058e E9050000 		.4byte	.LASF11
 1096 0592 02       		.byte	0x2
 1097 0593 2E       		.byte	0x2e
 1098 0594 B1000000 		.4byte	0xb1
 1099 0598 20       		.uleb128 0x20
 1100 0599 20060000 		.4byte	.LASF10
 1101 059d 02       		.byte	0x2
 1102 059e 2E       		.byte	0x2e
 1103 059f B1000000 		.4byte	0xb1
 1104 05a3 00       		.byte	0
 1105 05a4 1B       		.uleb128 0x1b
 1106 05a5 FF050000 		.4byte	.LASF75
 1107 05a9 02       		.byte	0x2
 1108 05aa 28       		.byte	0x28
 1109 05ab 01       		.byte	0x1
ARM GAS  G:\Users\Jaxb\AppData\Local\Temp\ccEqowR1.s 			page 25


 1110 05ac 03       		.byte	0x3
 1111 05ad C8050000 		.4byte	0x5c8
 1112 05b1 21       		.uleb128 0x21
 1113 05b2 6E657700 		.ascii	"new\000"
 1114 05b6 02       		.byte	0x2
 1115 05b7 28       		.byte	0x28
 1116 05b8 B1000000 		.4byte	0xb1
 1117 05bc 20       		.uleb128 0x20
 1118 05bd 16010000 		.4byte	.LASF67
 1119 05c1 02       		.byte	0x2
 1120 05c2 28       		.byte	0x28
 1121 05c3 B1000000 		.4byte	0xb1
 1122 05c7 00       		.byte	0
 1123 05c8 1B       		.uleb128 0x1b
 1124 05c9 2A010000 		.4byte	.LASF76
 1125 05cd 02       		.byte	0x2
 1126 05ce 17       		.byte	0x17
 1127 05cf 01       		.byte	0x1
 1128 05d0 03       		.byte	0x3
 1129 05d1 F7050000 		.4byte	0x5f7
 1130 05d5 21       		.uleb128 0x21
 1131 05d6 6E657700 		.ascii	"new\000"
 1132 05da 02       		.byte	0x2
 1133 05db 17       		.byte	0x17
 1134 05dc B1000000 		.4byte	0xb1
 1135 05e0 20       		.uleb128 0x20
 1136 05e1 E9050000 		.4byte	.LASF11
 1137 05e5 02       		.byte	0x2
 1138 05e6 18       		.byte	0x18
 1139 05e7 B1000000 		.4byte	0xb1
 1140 05eb 20       		.uleb128 0x20
 1141 05ec 20060000 		.4byte	.LASF10
 1142 05f0 02       		.byte	0x2
 1143 05f1 19       		.byte	0x19
 1144 05f2 B1000000 		.4byte	0xb1
 1145 05f6 00       		.byte	0
 1146 05f7 22       		.uleb128 0x22
 1147 05f8 0F050000 		.4byte	0x50f
 1148 05fc 00000000 		.4byte	.LFB14
 1149 0600 50000000 		.4byte	.LFE14
 1150 0604 37010000 		.4byte	.LLST0
 1151 0608 01       		.byte	0x1
 1152 0609 4F060000 		.4byte	0x64f
 1153 060d 23       		.uleb128 0x23
 1154 060e 1D050000 		.4byte	0x51d
 1155 0612 02       		.byte	0x2
 1156 0613 91       		.byte	0x91
 1157 0614 74       		.sleb128 -12
 1158 0615 24       		.uleb128 0x24
 1159 0616 30000000 		.4byte	.LBB18
 1160 061a 42000000 		.4byte	.LBE18
 1161 061e 31060000 		.4byte	0x631
 1162 0622 25       		.uleb128 0x25
 1163 0623 0D060000 		.4byte	0x60d
 1164 0627 14       		.uleb128 0x14
 1165 0628 36000000 		.4byte	.LVL2
 1166 062c B7060000 		.4byte	0x6b7
ARM GAS  G:\Users\Jaxb\AppData\Local\Temp\ccEqowR1.s 			page 26


 1167 0630 00       		.byte	0
 1168 0631 16       		.uleb128 0x16
 1169 0632 0C000000 		.4byte	.LVL0
 1170 0636 C4060000 		.4byte	0x6c4
 1171 063a 45060000 		.4byte	0x645
 1172 063e 17       		.uleb128 0x17
 1173 063f 01       		.byte	0x1
 1174 0640 50       		.byte	0x50
 1175 0641 02       		.byte	0x2
 1176 0642 91       		.byte	0x91
 1177 0643 74       		.sleb128 -12
 1178 0644 00       		.byte	0
 1179 0645 14       		.uleb128 0x14
 1180 0646 1A000000 		.4byte	.LVL1
 1181 064a D1060000 		.4byte	0x6d1
 1182 064e 00       		.byte	0
 1183 064f 26       		.uleb128 0x26
 1184 0650 01       		.byte	0x1
 1185 0651 01       		.byte	0x1
 1186 0652 0F000000 		.4byte	.LASF77
 1187 0656 0F000000 		.4byte	.LASF77
 1188 065a 07       		.byte	0x7
 1189 065b 1E       		.byte	0x1e
 1190 065c 26       		.uleb128 0x26
 1191 065d 01       		.byte	0x1
 1192 065e 01       		.byte	0x1
 1193 065f F6000000 		.4byte	.LASF78
 1194 0663 F6000000 		.4byte	.LASF78
 1195 0667 08       		.byte	0x8
 1196 0668 0A       		.byte	0xa
 1197 0669 26       		.uleb128 0x26
 1198 066a 01       		.byte	0x1
 1199 066b 01       		.byte	0x1
 1200 066c 9A020000 		.4byte	.LASF79
 1201 0670 9A020000 		.4byte	.LASF79
 1202 0674 08       		.byte	0x8
 1203 0675 0B       		.byte	0xb
 1204 0676 26       		.uleb128 0x26
 1205 0677 01       		.byte	0x1
 1206 0678 01       		.byte	0x1
 1207 0679 D8010000 		.4byte	.LASF80
 1208 067d D8010000 		.4byte	.LASF80
 1209 0681 09       		.byte	0x9
 1210 0682 06       		.byte	0x6
 1211 0683 26       		.uleb128 0x26
 1212 0684 01       		.byte	0x1
 1213 0685 01       		.byte	0x1
 1214 0686 A3000000 		.4byte	.LASF81
 1215 068a A3000000 		.4byte	.LASF81
 1216 068e 0A       		.byte	0xa
 1217 068f 10       		.byte	0x10
 1218 0690 26       		.uleb128 0x26
 1219 0691 01       		.byte	0x1
 1220 0692 01       		.byte	0x1
 1221 0693 A1030000 		.4byte	.LASF82
 1222 0697 A1030000 		.4byte	.LASF82
 1223 069b 0A       		.byte	0xa
ARM GAS  G:\Users\Jaxb\AppData\Local\Temp\ccEqowR1.s 			page 27


 1224 069c 11       		.byte	0x11
 1225 069d 26       		.uleb128 0x26
 1226 069e 01       		.byte	0x1
 1227 069f 01       		.byte	0x1
 1228 06a0 D9030000 		.4byte	.LASF83
 1229 06a4 D9030000 		.4byte	.LASF83
 1230 06a8 0B       		.byte	0xb
 1231 06a9 2E       		.byte	0x2e
 1232 06aa 26       		.uleb128 0x26
 1233 06ab 01       		.byte	0x1
 1234 06ac 01       		.byte	0x1
 1235 06ad 1B010000 		.4byte	.LASF84
 1236 06b1 1B010000 		.4byte	.LASF84
 1237 06b5 0B       		.byte	0xb
 1238 06b6 18       		.byte	0x18
 1239 06b7 26       		.uleb128 0x26
 1240 06b8 01       		.byte	0x1
 1241 06b9 01       		.byte	0x1
 1242 06ba 5E010000 		.4byte	.LASF85
 1243 06be 5E010000 		.4byte	.LASF85
 1244 06c2 0C       		.byte	0xc
 1245 06c3 08       		.byte	0x8
 1246 06c4 26       		.uleb128 0x26
 1247 06c5 01       		.byte	0x1
 1248 06c6 01       		.byte	0x1
 1249 06c7 42020000 		.4byte	.LASF86
 1250 06cb 42020000 		.4byte	.LASF86
 1251 06cf 06       		.byte	0x6
 1252 06d0 3F       		.byte	0x3f
 1253 06d1 26       		.uleb128 0x26
 1254 06d2 01       		.byte	0x1
 1255 06d3 01       		.byte	0x1
 1256 06d4 0D010000 		.4byte	.LASF87
 1257 06d8 0D010000 		.4byte	.LASF87
 1258 06dc 07       		.byte	0x7
 1259 06dd 07       		.byte	0x7
 1260 06de 00       		.byte	0
 1261              		.section	.debug_abbrev,"",%progbits
 1262              	.Ldebug_abbrev0:
 1263 0000 01       		.uleb128 0x1
 1264 0001 11       		.uleb128 0x11
 1265 0002 01       		.byte	0x1
 1266 0003 25       		.uleb128 0x25
 1267 0004 0E       		.uleb128 0xe
 1268 0005 13       		.uleb128 0x13
 1269 0006 0B       		.uleb128 0xb
 1270 0007 03       		.uleb128 0x3
 1271 0008 0E       		.uleb128 0xe
 1272 0009 1B       		.uleb128 0x1b
 1273 000a 0E       		.uleb128 0xe
 1274 000b 11       		.uleb128 0x11
 1275 000c 01       		.uleb128 0x1
 1276 000d 12       		.uleb128 0x12
 1277 000e 01       		.uleb128 0x1
 1278 000f 10       		.uleb128 0x10
 1279 0010 06       		.uleb128 0x6
 1280 0011 00       		.byte	0
ARM GAS  G:\Users\Jaxb\AppData\Local\Temp\ccEqowR1.s 			page 28


 1281 0012 00       		.byte	0
 1282 0013 02       		.uleb128 0x2
 1283 0014 24       		.uleb128 0x24
 1284 0015 00       		.byte	0
 1285 0016 0B       		.uleb128 0xb
 1286 0017 0B       		.uleb128 0xb
 1287 0018 3E       		.uleb128 0x3e
 1288 0019 0B       		.uleb128 0xb
 1289 001a 03       		.uleb128 0x3
 1290 001b 0E       		.uleb128 0xe
 1291 001c 00       		.byte	0
 1292 001d 00       		.byte	0
 1293 001e 03       		.uleb128 0x3
 1294 001f 24       		.uleb128 0x24
 1295 0020 00       		.byte	0
 1296 0021 0B       		.uleb128 0xb
 1297 0022 0B       		.uleb128 0xb
 1298 0023 3E       		.uleb128 0x3e
 1299 0024 0B       		.uleb128 0xb
 1300 0025 03       		.uleb128 0x3
 1301 0026 08       		.uleb128 0x8
 1302 0027 00       		.byte	0
 1303 0028 00       		.byte	0
 1304 0029 04       		.uleb128 0x4
 1305 002a 35       		.uleb128 0x35
 1306 002b 00       		.byte	0
 1307 002c 49       		.uleb128 0x49
 1308 002d 13       		.uleb128 0x13
 1309 002e 00       		.byte	0
 1310 002f 00       		.byte	0
 1311 0030 05       		.uleb128 0x5
 1312 0031 16       		.uleb128 0x16
 1313 0032 00       		.byte	0
 1314 0033 03       		.uleb128 0x3
 1315 0034 0E       		.uleb128 0xe
 1316 0035 3A       		.uleb128 0x3a
 1317 0036 0B       		.uleb128 0xb
 1318 0037 3B       		.uleb128 0x3b
 1319 0038 0B       		.uleb128 0xb
 1320 0039 49       		.uleb128 0x49
 1321 003a 13       		.uleb128 0x13
 1322 003b 00       		.byte	0
 1323 003c 00       		.byte	0
 1324 003d 06       		.uleb128 0x6
 1325 003e 13       		.uleb128 0x13
 1326 003f 01       		.byte	0x1
 1327 0040 03       		.uleb128 0x3
 1328 0041 0E       		.uleb128 0xe
 1329 0042 0B       		.uleb128 0xb
 1330 0043 0B       		.uleb128 0xb
 1331 0044 3A       		.uleb128 0x3a
 1332 0045 0B       		.uleb128 0xb
 1333 0046 3B       		.uleb128 0x3b
 1334 0047 0B       		.uleb128 0xb
 1335 0048 01       		.uleb128 0x1
 1336 0049 13       		.uleb128 0x13
 1337 004a 00       		.byte	0
ARM GAS  G:\Users\Jaxb\AppData\Local\Temp\ccEqowR1.s 			page 29


 1338 004b 00       		.byte	0
 1339 004c 07       		.uleb128 0x7
 1340 004d 0D       		.uleb128 0xd
 1341 004e 00       		.byte	0
 1342 004f 03       		.uleb128 0x3
 1343 0050 0E       		.uleb128 0xe
 1344 0051 3A       		.uleb128 0x3a
 1345 0052 0B       		.uleb128 0xb
 1346 0053 3B       		.uleb128 0x3b
 1347 0054 0B       		.uleb128 0xb
 1348 0055 49       		.uleb128 0x49
 1349 0056 13       		.uleb128 0x13
 1350 0057 38       		.uleb128 0x38
 1351 0058 0A       		.uleb128 0xa
 1352 0059 00       		.byte	0
 1353 005a 00       		.byte	0
 1354 005b 08       		.uleb128 0x8
 1355 005c 0F       		.uleb128 0xf
 1356 005d 00       		.byte	0
 1357 005e 0B       		.uleb128 0xb
 1358 005f 0B       		.uleb128 0xb
 1359 0060 49       		.uleb128 0x49
 1360 0061 13       		.uleb128 0x13
 1361 0062 00       		.byte	0
 1362 0063 00       		.byte	0
 1363 0064 09       		.uleb128 0x9
 1364 0065 04       		.uleb128 0x4
 1365 0066 01       		.byte	0x1
 1366 0067 03       		.uleb128 0x3
 1367 0068 0E       		.uleb128 0xe
 1368 0069 3E       		.uleb128 0x3e
 1369 006a 0B       		.uleb128 0xb
 1370 006b 0B       		.uleb128 0xb
 1371 006c 0B       		.uleb128 0xb
 1372 006d 49       		.uleb128 0x49
 1373 006e 13       		.uleb128 0x13
 1374 006f 3A       		.uleb128 0x3a
 1375 0070 0B       		.uleb128 0xb
 1376 0071 3B       		.uleb128 0x3b
 1377 0072 0B       		.uleb128 0xb
 1378 0073 01       		.uleb128 0x1
 1379 0074 13       		.uleb128 0x13
 1380 0075 00       		.byte	0
 1381 0076 00       		.byte	0
 1382 0077 0A       		.uleb128 0xa
 1383 0078 28       		.uleb128 0x28
 1384 0079 00       		.byte	0
 1385 007a 03       		.uleb128 0x3
 1386 007b 0E       		.uleb128 0xe
 1387 007c 1C       		.uleb128 0x1c
 1388 007d 0B       		.uleb128 0xb
 1389 007e 00       		.byte	0
 1390 007f 00       		.byte	0
 1391 0080 0B       		.uleb128 0xb
 1392 0081 15       		.uleb128 0x15
 1393 0082 01       		.byte	0x1
 1394 0083 27       		.uleb128 0x27
ARM GAS  G:\Users\Jaxb\AppData\Local\Temp\ccEqowR1.s 			page 30


 1395 0084 0C       		.uleb128 0xc
 1396 0085 01       		.uleb128 0x1
 1397 0086 13       		.uleb128 0x13
 1398 0087 00       		.byte	0
 1399 0088 00       		.byte	0
 1400 0089 0C       		.uleb128 0xc
 1401 008a 05       		.uleb128 0x5
 1402 008b 00       		.byte	0
 1403 008c 49       		.uleb128 0x49
 1404 008d 13       		.uleb128 0x13
 1405 008e 00       		.byte	0
 1406 008f 00       		.byte	0
 1407 0090 0D       		.uleb128 0xd
 1408 0091 0F       		.uleb128 0xf
 1409 0092 00       		.byte	0
 1410 0093 0B       		.uleb128 0xb
 1411 0094 0B       		.uleb128 0xb
 1412 0095 00       		.byte	0
 1413 0096 00       		.byte	0
 1414 0097 0E       		.uleb128 0xe
 1415 0098 34       		.uleb128 0x34
 1416 0099 00       		.byte	0
 1417 009a 03       		.uleb128 0x3
 1418 009b 0E       		.uleb128 0xe
 1419 009c 3A       		.uleb128 0x3a
 1420 009d 0B       		.uleb128 0xb
 1421 009e 3B       		.uleb128 0x3b
 1422 009f 0B       		.uleb128 0xb
 1423 00a0 49       		.uleb128 0x49
 1424 00a1 13       		.uleb128 0x13
 1425 00a2 3F       		.uleb128 0x3f
 1426 00a3 0C       		.uleb128 0xc
 1427 00a4 3C       		.uleb128 0x3c
 1428 00a5 0C       		.uleb128 0xc
 1429 00a6 00       		.byte	0
 1430 00a7 00       		.byte	0
 1431 00a8 0F       		.uleb128 0xf
 1432 00a9 16       		.uleb128 0x16
 1433 00aa 00       		.byte	0
 1434 00ab 03       		.uleb128 0x3
 1435 00ac 08       		.uleb128 0x8
 1436 00ad 3A       		.uleb128 0x3a
 1437 00ae 0B       		.uleb128 0xb
 1438 00af 3B       		.uleb128 0x3b
 1439 00b0 0B       		.uleb128 0xb
 1440 00b1 49       		.uleb128 0x49
 1441 00b2 13       		.uleb128 0x13
 1442 00b3 00       		.byte	0
 1443 00b4 00       		.byte	0
 1444 00b5 10       		.uleb128 0x10
 1445 00b6 0D       		.uleb128 0xd
 1446 00b7 00       		.byte	0
 1447 00b8 03       		.uleb128 0x3
 1448 00b9 08       		.uleb128 0x8
 1449 00ba 3A       		.uleb128 0x3a
 1450 00bb 0B       		.uleb128 0xb
 1451 00bc 3B       		.uleb128 0x3b
ARM GAS  G:\Users\Jaxb\AppData\Local\Temp\ccEqowR1.s 			page 31


 1452 00bd 0B       		.uleb128 0xb
 1453 00be 49       		.uleb128 0x49
 1454 00bf 13       		.uleb128 0x13
 1455 00c0 38       		.uleb128 0x38
 1456 00c1 0A       		.uleb128 0xa
 1457 00c2 00       		.byte	0
 1458 00c3 00       		.byte	0
 1459 00c4 11       		.uleb128 0x11
 1460 00c5 2E       		.uleb128 0x2e
 1461 00c6 01       		.byte	0x1
 1462 00c7 3F       		.uleb128 0x3f
 1463 00c8 0C       		.uleb128 0xc
 1464 00c9 03       		.uleb128 0x3
 1465 00ca 0E       		.uleb128 0xe
 1466 00cb 3A       		.uleb128 0x3a
 1467 00cc 0B       		.uleb128 0xb
 1468 00cd 3B       		.uleb128 0x3b
 1469 00ce 0B       		.uleb128 0xb
 1470 00cf 27       		.uleb128 0x27
 1471 00d0 0C       		.uleb128 0xc
 1472 00d1 11       		.uleb128 0x11
 1473 00d2 01       		.uleb128 0x1
 1474 00d3 12       		.uleb128 0x12
 1475 00d4 01       		.uleb128 0x1
 1476 00d5 40       		.uleb128 0x40
 1477 00d6 06       		.uleb128 0x6
 1478 00d7 9742     		.uleb128 0x2117
 1479 00d9 0C       		.uleb128 0xc
 1480 00da 01       		.uleb128 0x1
 1481 00db 13       		.uleb128 0x13
 1482 00dc 00       		.byte	0
 1483 00dd 00       		.byte	0
 1484 00de 12       		.uleb128 0x12
 1485 00df 1D       		.uleb128 0x1d
 1486 00e0 01       		.byte	0x1
 1487 00e1 31       		.uleb128 0x31
 1488 00e2 13       		.uleb128 0x13
 1489 00e3 52       		.uleb128 0x52
 1490 00e4 01       		.uleb128 0x1
 1491 00e5 55       		.uleb128 0x55
 1492 00e6 06       		.uleb128 0x6
 1493 00e7 58       		.uleb128 0x58
 1494 00e8 0B       		.uleb128 0xb
 1495 00e9 59       		.uleb128 0x59
 1496 00ea 0B       		.uleb128 0xb
 1497 00eb 01       		.uleb128 0x1
 1498 00ec 13       		.uleb128 0x13
 1499 00ed 00       		.byte	0
 1500 00ee 00       		.byte	0
 1501 00ef 13       		.uleb128 0x13
 1502 00f0 0B       		.uleb128 0xb
 1503 00f1 01       		.byte	0x1
 1504 00f2 55       		.uleb128 0x55
 1505 00f3 06       		.uleb128 0x6
 1506 00f4 00       		.byte	0
 1507 00f5 00       		.byte	0
 1508 00f6 14       		.uleb128 0x14
ARM GAS  G:\Users\Jaxb\AppData\Local\Temp\ccEqowR1.s 			page 32


 1509 00f7 898201   		.uleb128 0x4109
 1510 00fa 00       		.byte	0
 1511 00fb 11       		.uleb128 0x11
 1512 00fc 01       		.uleb128 0x1
 1513 00fd 31       		.uleb128 0x31
 1514 00fe 13       		.uleb128 0x13
 1515 00ff 00       		.byte	0
 1516 0100 00       		.byte	0
 1517 0101 15       		.uleb128 0x15
 1518 0102 34       		.uleb128 0x34
 1519 0103 00       		.byte	0
 1520 0104 31       		.uleb128 0x31
 1521 0105 13       		.uleb128 0x13
 1522 0106 02       		.uleb128 0x2
 1523 0107 06       		.uleb128 0x6
 1524 0108 00       		.byte	0
 1525 0109 00       		.byte	0
 1526 010a 16       		.uleb128 0x16
 1527 010b 898201   		.uleb128 0x4109
 1528 010e 01       		.byte	0x1
 1529 010f 11       		.uleb128 0x11
 1530 0110 01       		.uleb128 0x1
 1531 0111 31       		.uleb128 0x31
 1532 0112 13       		.uleb128 0x13
 1533 0113 01       		.uleb128 0x1
 1534 0114 13       		.uleb128 0x13
 1535 0115 00       		.byte	0
 1536 0116 00       		.byte	0
 1537 0117 17       		.uleb128 0x17
 1538 0118 8A8201   		.uleb128 0x410a
 1539 011b 00       		.byte	0
 1540 011c 02       		.uleb128 0x2
 1541 011d 0A       		.uleb128 0xa
 1542 011e 9142     		.uleb128 0x2111
 1543 0120 0A       		.uleb128 0xa
 1544 0121 00       		.byte	0
 1545 0122 00       		.byte	0
 1546 0123 18       		.uleb128 0x18
 1547 0124 0B       		.uleb128 0xb
 1548 0125 01       		.byte	0x1
 1549 0126 31       		.uleb128 0x31
 1550 0127 13       		.uleb128 0x13
 1551 0128 11       		.uleb128 0x11
 1552 0129 01       		.uleb128 0x1
 1553 012a 12       		.uleb128 0x12
 1554 012b 01       		.uleb128 0x1
 1555 012c 01       		.uleb128 0x1
 1556 012d 13       		.uleb128 0x13
 1557 012e 00       		.byte	0
 1558 012f 00       		.byte	0
 1559 0130 19       		.uleb128 0x19
 1560 0131 05       		.uleb128 0x5
 1561 0132 00       		.byte	0
 1562 0133 31       		.uleb128 0x31
 1563 0134 13       		.uleb128 0x13
 1564 0135 02       		.uleb128 0x2
 1565 0136 06       		.uleb128 0x6
ARM GAS  G:\Users\Jaxb\AppData\Local\Temp\ccEqowR1.s 			page 33


 1566 0137 00       		.byte	0
 1567 0138 00       		.byte	0
 1568 0139 1A       		.uleb128 0x1a
 1569 013a 1D       		.uleb128 0x1d
 1570 013b 01       		.byte	0x1
 1571 013c 31       		.uleb128 0x31
 1572 013d 13       		.uleb128 0x13
 1573 013e 52       		.uleb128 0x52
 1574 013f 01       		.uleb128 0x1
 1575 0140 55       		.uleb128 0x55
 1576 0141 06       		.uleb128 0x6
 1577 0142 58       		.uleb128 0x58
 1578 0143 0B       		.uleb128 0xb
 1579 0144 59       		.uleb128 0x59
 1580 0145 0B       		.uleb128 0xb
 1581 0146 00       		.byte	0
 1582 0147 00       		.byte	0
 1583 0148 1B       		.uleb128 0x1b
 1584 0149 2E       		.uleb128 0x2e
 1585 014a 01       		.byte	0x1
 1586 014b 03       		.uleb128 0x3
 1587 014c 0E       		.uleb128 0xe
 1588 014d 3A       		.uleb128 0x3a
 1589 014e 0B       		.uleb128 0xb
 1590 014f 3B       		.uleb128 0x3b
 1591 0150 0B       		.uleb128 0xb
 1592 0151 27       		.uleb128 0x27
 1593 0152 0C       		.uleb128 0xc
 1594 0153 20       		.uleb128 0x20
 1595 0154 0B       		.uleb128 0xb
 1596 0155 01       		.uleb128 0x1
 1597 0156 13       		.uleb128 0x13
 1598 0157 00       		.byte	0
 1599 0158 00       		.byte	0
 1600 0159 1C       		.uleb128 0x1c
 1601 015a 34       		.uleb128 0x34
 1602 015b 00       		.byte	0
 1603 015c 03       		.uleb128 0x3
 1604 015d 0E       		.uleb128 0xe
 1605 015e 3A       		.uleb128 0x3a
 1606 015f 0B       		.uleb128 0xb
 1607 0160 3B       		.uleb128 0x3b
 1608 0161 0B       		.uleb128 0xb
 1609 0162 49       		.uleb128 0x49
 1610 0163 13       		.uleb128 0x13
 1611 0164 00       		.byte	0
 1612 0165 00       		.byte	0
 1613 0166 1D       		.uleb128 0x1d
 1614 0167 0B       		.uleb128 0xb
 1615 0168 01       		.byte	0x1
 1616 0169 00       		.byte	0
 1617 016a 00       		.byte	0
 1618 016b 1E       		.uleb128 0x1e
 1619 016c 2E       		.uleb128 0x2e
 1620 016d 01       		.byte	0x1
 1621 016e 3F       		.uleb128 0x3f
 1622 016f 0C       		.uleb128 0xc
ARM GAS  G:\Users\Jaxb\AppData\Local\Temp\ccEqowR1.s 			page 34


 1623 0170 03       		.uleb128 0x3
 1624 0171 0E       		.uleb128 0xe
 1625 0172 3A       		.uleb128 0x3a
 1626 0173 0B       		.uleb128 0xb
 1627 0174 3B       		.uleb128 0x3b
 1628 0175 0B       		.uleb128 0xb
 1629 0176 27       		.uleb128 0x27
 1630 0177 0C       		.uleb128 0xc
 1631 0178 20       		.uleb128 0x20
 1632 0179 0B       		.uleb128 0xb
 1633 017a 01       		.uleb128 0x1
 1634 017b 13       		.uleb128 0x13
 1635 017c 00       		.byte	0
 1636 017d 00       		.byte	0
 1637 017e 1F       		.uleb128 0x1f
 1638 017f 34       		.uleb128 0x34
 1639 0180 00       		.byte	0
 1640 0181 03       		.uleb128 0x3
 1641 0182 0E       		.uleb128 0xe
 1642 0183 3A       		.uleb128 0x3a
 1643 0184 0B       		.uleb128 0xb
 1644 0185 3B       		.uleb128 0x3b
 1645 0186 0B       		.uleb128 0xb
 1646 0187 49       		.uleb128 0x49
 1647 0188 13       		.uleb128 0x13
 1648 0189 02       		.uleb128 0x2
 1649 018a 0A       		.uleb128 0xa
 1650 018b 00       		.byte	0
 1651 018c 00       		.byte	0
 1652 018d 20       		.uleb128 0x20
 1653 018e 05       		.uleb128 0x5
 1654 018f 00       		.byte	0
 1655 0190 03       		.uleb128 0x3
 1656 0191 0E       		.uleb128 0xe
 1657 0192 3A       		.uleb128 0x3a
 1658 0193 0B       		.uleb128 0xb
 1659 0194 3B       		.uleb128 0x3b
 1660 0195 0B       		.uleb128 0xb
 1661 0196 49       		.uleb128 0x49
 1662 0197 13       		.uleb128 0x13
 1663 0198 00       		.byte	0
 1664 0199 00       		.byte	0
 1665 019a 21       		.uleb128 0x21
 1666 019b 05       		.uleb128 0x5
 1667 019c 00       		.byte	0
 1668 019d 03       		.uleb128 0x3
 1669 019e 08       		.uleb128 0x8
 1670 019f 3A       		.uleb128 0x3a
 1671 01a0 0B       		.uleb128 0xb
 1672 01a1 3B       		.uleb128 0x3b
 1673 01a2 0B       		.uleb128 0xb
 1674 01a3 49       		.uleb128 0x49
 1675 01a4 13       		.uleb128 0x13
 1676 01a5 00       		.byte	0
 1677 01a6 00       		.byte	0
 1678 01a7 22       		.uleb128 0x22
 1679 01a8 2E       		.uleb128 0x2e
ARM GAS  G:\Users\Jaxb\AppData\Local\Temp\ccEqowR1.s 			page 35


 1680 01a9 01       		.byte	0x1
 1681 01aa 31       		.uleb128 0x31
 1682 01ab 13       		.uleb128 0x13
 1683 01ac 11       		.uleb128 0x11
 1684 01ad 01       		.uleb128 0x1
 1685 01ae 12       		.uleb128 0x12
 1686 01af 01       		.uleb128 0x1
 1687 01b0 40       		.uleb128 0x40
 1688 01b1 06       		.uleb128 0x6
 1689 01b2 9742     		.uleb128 0x2117
 1690 01b4 0C       		.uleb128 0xc
 1691 01b5 01       		.uleb128 0x1
 1692 01b6 13       		.uleb128 0x13
 1693 01b7 00       		.byte	0
 1694 01b8 00       		.byte	0
 1695 01b9 23       		.uleb128 0x23
 1696 01ba 34       		.uleb128 0x34
 1697 01bb 00       		.byte	0
 1698 01bc 31       		.uleb128 0x31
 1699 01bd 13       		.uleb128 0x13
 1700 01be 02       		.uleb128 0x2
 1701 01bf 0A       		.uleb128 0xa
 1702 01c0 00       		.byte	0
 1703 01c1 00       		.byte	0
 1704 01c2 24       		.uleb128 0x24
 1705 01c3 0B       		.uleb128 0xb
 1706 01c4 01       		.byte	0x1
 1707 01c5 11       		.uleb128 0x11
 1708 01c6 01       		.uleb128 0x1
 1709 01c7 12       		.uleb128 0x12
 1710 01c8 01       		.uleb128 0x1
 1711 01c9 01       		.uleb128 0x1
 1712 01ca 13       		.uleb128 0x13
 1713 01cb 00       		.byte	0
 1714 01cc 00       		.byte	0
 1715 01cd 25       		.uleb128 0x25
 1716 01ce 34       		.uleb128 0x34
 1717 01cf 00       		.byte	0
 1718 01d0 31       		.uleb128 0x31
 1719 01d1 13       		.uleb128 0x13
 1720 01d2 00       		.byte	0
 1721 01d3 00       		.byte	0
 1722 01d4 26       		.uleb128 0x26
 1723 01d5 2E       		.uleb128 0x2e
 1724 01d6 00       		.byte	0
 1725 01d7 3F       		.uleb128 0x3f
 1726 01d8 0C       		.uleb128 0xc
 1727 01d9 3C       		.uleb128 0x3c
 1728 01da 0C       		.uleb128 0xc
 1729 01db 8740     		.uleb128 0x2007
 1730 01dd 0E       		.uleb128 0xe
 1731 01de 03       		.uleb128 0x3
 1732 01df 0E       		.uleb128 0xe
 1733 01e0 3A       		.uleb128 0x3a
 1734 01e1 0B       		.uleb128 0xb
 1735 01e2 3B       		.uleb128 0x3b
 1736 01e3 0B       		.uleb128 0xb
ARM GAS  G:\Users\Jaxb\AppData\Local\Temp\ccEqowR1.s 			page 36


 1737 01e4 00       		.byte	0
 1738 01e5 00       		.byte	0
 1739 01e6 00       		.byte	0
 1740              		.section	.debug_loc,"",%progbits
 1741              	.Ldebug_loc0:
 1742              	.LLST1:
 1743 0000 50000000 		.4byte	.LFB16-.Ltext0
 1744 0004 52000000 		.4byte	.LCFI5-.Ltext0
 1745 0008 0200     		.2byte	0x2
 1746 000a 7D       		.byte	0x7d
 1747 000b 00       		.sleb128 0
 1748 000c 52000000 		.4byte	.LCFI5-.Ltext0
 1749 0010 58010000 		.4byte	.LFE16-.Ltext0
 1750 0014 0200     		.2byte	0x2
 1751 0016 7D       		.byte	0x7d
 1752 0017 18       		.sleb128 24
 1753 0018 00000000 		.4byte	0
 1754 001c 00000000 		.4byte	0
 1755              	.LLST2:
 1756 0020 7C000000 		.4byte	.LVL4-.Ltext0
 1757 0024 84000000 		.4byte	.LVL5-.Ltext0
 1758 0028 0100     		.2byte	0x1
 1759 002a 50       		.byte	0x50
 1760 002b 84000000 		.4byte	.LVL5-.Ltext0
 1761 002f 92000000 		.4byte	.LVL6-.Ltext0
 1762 0033 0100     		.2byte	0x1
 1763 0035 56       		.byte	0x56
 1764 0036 14010000 		.4byte	.LVL24-.Ltext0
 1765 003a 24010000 		.4byte	.LVL27-.Ltext0
 1766 003e 0100     		.2byte	0x1
 1767 0040 56       		.byte	0x56
 1768 0041 24010000 		.4byte	.LVL27-.Ltext0
 1769 0045 38010000 		.4byte	.LVL28-.Ltext0
 1770 0049 0100     		.2byte	0x1
 1771 004b 50       		.byte	0x50
 1772 004c 38010000 		.4byte	.LVL28-.Ltext0
 1773 0050 58010000 		.4byte	.LFE16-.Ltext0
 1774 0054 0100     		.2byte	0x1
 1775 0056 56       		.byte	0x56
 1776 0057 00000000 		.4byte	0
 1777 005b 00000000 		.4byte	0
 1778              	.LLST3:
 1779 005f 98000000 		.4byte	.LVL8-.Ltext0
 1780 0063 A0000000 		.4byte	.LVL9-.Ltext0
 1781 0067 0100     		.2byte	0x1
 1782 0069 54       		.byte	0x54
 1783 006a AE000000 		.4byte	.LVL10-.Ltext0
 1784 006e D8000000 		.4byte	.LVL15-.Ltext0
 1785 0072 0100     		.2byte	0x1
 1786 0074 54       		.byte	0x54
 1787 0075 D8000000 		.4byte	.LVL15-.Ltext0
 1788 0079 DC000000 		.4byte	.LVL17-.Ltext0
 1789 007d 0300     		.2byte	0x3
 1790 007f 73       		.byte	0x73
 1791 0080 64       		.sleb128 -28
 1792 0081 9F       		.byte	0x9f
 1793 0082 DC000000 		.4byte	.LVL17-.Ltext0
ARM GAS  G:\Users\Jaxb\AppData\Local\Temp\ccEqowR1.s 			page 37


 1794 0086 E2000000 		.4byte	.LVL18-.Ltext0
 1795 008a 0600     		.2byte	0x6
 1796 008c 72       		.byte	0x72
 1797 008d 00       		.sleb128 0
 1798 008e 06       		.byte	0x6
 1799 008f 4C       		.byte	0x4c
 1800 0090 1C       		.byte	0x1c
 1801 0091 9F       		.byte	0x9f
 1802 0092 10010000 		.4byte	.LVL22-.Ltext0
 1803 0096 12010000 		.4byte	.LVL23-.Ltext0
 1804 009a 0100     		.2byte	0x1
 1805 009c 54       		.byte	0x54
 1806 009d 00000000 		.4byte	0
 1807 00a1 00000000 		.4byte	0
 1808              	.LLST4:
 1809 00a5 C2000000 		.4byte	.LVL12-.Ltext0
 1810 00a9 E2000000 		.4byte	.LVL18-.Ltext0
 1811 00ad 0100     		.2byte	0x1
 1812 00af 50       		.byte	0x50
 1813 00b0 00000000 		.4byte	0
 1814 00b4 00000000 		.4byte	0
 1815              	.LLST5:
 1816 00b8 C2000000 		.4byte	.LVL12-.Ltext0
 1817 00bc CA000000 		.4byte	.LVL13-.Ltext0
 1818 00c0 0300     		.2byte	0x3
 1819 00c2 74       		.byte	0x74
 1820 00c3 1C       		.sleb128 28
 1821 00c4 9F       		.byte	0x9f
 1822 00c5 CA000000 		.4byte	.LVL13-.Ltext0
 1823 00c9 D0000000 		.4byte	.LVL14-.Ltext0
 1824 00cd 0100     		.2byte	0x1
 1825 00cf 53       		.byte	0x53
 1826 00d0 00000000 		.4byte	0
 1827 00d4 00000000 		.4byte	0
 1828              	.LLST6:
 1829 00d8 CA000000 		.4byte	.LVL13-.Ltext0
 1830 00dc D0000000 		.4byte	.LVL14-.Ltext0
 1831 00e0 0100     		.2byte	0x1
 1832 00e2 56       		.byte	0x56
 1833 00e3 00000000 		.4byte	0
 1834 00e7 00000000 		.4byte	0
 1835              	.LLST7:
 1836 00eb CA000000 		.4byte	.LVL13-.Ltext0
 1837 00ef D0000000 		.4byte	.LVL14-.Ltext0
 1838 00f3 0100     		.2byte	0x1
 1839 00f5 51       		.byte	0x51
 1840 00f6 00000000 		.4byte	0
 1841 00fa 00000000 		.4byte	0
 1842              	.LLST8:
 1843 00fe D0000000 		.4byte	.LVL14-.Ltext0
 1844 0102 DA000000 		.4byte	.LVL16-.Ltext0
 1845 0106 0100     		.2byte	0x1
 1846 0108 50       		.byte	0x50
 1847 0109 00000000 		.4byte	0
 1848 010d 00000000 		.4byte	0
 1849              	.LLST9:
 1850 0111 D0000000 		.4byte	.LVL14-.Ltext0
ARM GAS  G:\Users\Jaxb\AppData\Local\Temp\ccEqowR1.s 			page 38


 1851 0115 DA000000 		.4byte	.LVL16-.Ltext0
 1852 0119 0100     		.2byte	0x1
 1853 011b 53       		.byte	0x53
 1854 011c 00000000 		.4byte	0
 1855 0120 00000000 		.4byte	0
 1856              	.LLST11:
 1857 0124 D0000000 		.4byte	.LVL14-.Ltext0
 1858 0128 DA000000 		.4byte	.LVL16-.Ltext0
 1859 012c 0100     		.2byte	0x1
 1860 012e 52       		.byte	0x52
 1861 012f 00000000 		.4byte	0
 1862 0133 00000000 		.4byte	0
 1863              	.LLST0:
 1864 0137 00000000 		.4byte	.LFB14-.Ltext0
 1865 013b 04000000 		.4byte	.LCFI0-.Ltext0
 1866 013f 0200     		.2byte	0x2
 1867 0141 7D       		.byte	0x7d
 1868 0142 00       		.sleb128 0
 1869 0143 04000000 		.4byte	.LCFI0-.Ltext0
 1870 0147 06000000 		.4byte	.LCFI1-.Ltext0
 1871 014b 0200     		.2byte	0x2
 1872 014d 7D       		.byte	0x7d
 1873 014e 08       		.sleb128 8
 1874 014f 06000000 		.4byte	.LCFI1-.Ltext0
 1875 0153 12000000 		.4byte	.LCFI2-.Ltext0
 1876 0157 0200     		.2byte	0x2
 1877 0159 7D       		.byte	0x7d
 1878 015a 10       		.sleb128 16
 1879 015b 12000000 		.4byte	.LCFI2-.Ltext0
 1880 015f 16000000 		.4byte	.LCFI3-.Ltext0
 1881 0163 0200     		.2byte	0x2
 1882 0165 7D       		.byte	0x7d
 1883 0166 08       		.sleb128 8
 1884 0167 16000000 		.4byte	.LCFI3-.Ltext0
 1885 016b 44000000 		.4byte	.LCFI4-.Ltext0
 1886 016f 0200     		.2byte	0x2
 1887 0171 7D       		.byte	0x7d
 1888 0172 10       		.sleb128 16
 1889 0173 44000000 		.4byte	.LCFI4-.Ltext0
 1890 0177 50000000 		.4byte	.LFE14-.Ltext0
 1891 017b 0200     		.2byte	0x2
 1892 017d 7D       		.byte	0x7d
 1893 017e 08       		.sleb128 8
 1894 017f 00000000 		.4byte	0
 1895 0183 00000000 		.4byte	0
 1896              		.section	.debug_aranges,"",%progbits
 1897 0000 1C000000 		.4byte	0x1c
 1898 0004 0200     		.2byte	0x2
 1899 0006 00000000 		.4byte	.Ldebug_info0
 1900 000a 04       		.byte	0x4
 1901 000b 00       		.byte	0
 1902 000c 0000     		.2byte	0
 1903 000e 0000     		.2byte	0
 1904 0010 00000000 		.4byte	.Ltext0
 1905 0014 58010000 		.4byte	.Letext0-.Ltext0
 1906 0018 00000000 		.4byte	0
 1907 001c 00000000 		.4byte	0
ARM GAS  G:\Users\Jaxb\AppData\Local\Temp\ccEqowR1.s 			page 39


 1908              		.section	.debug_ranges,"",%progbits
 1909              	.Ldebug_ranges0:
 1910 0000 54000000 		.4byte	.LBB34-.Ltext0
 1911 0004 56000000 		.4byte	.LBE34-.Ltext0
 1912 0008 58000000 		.4byte	.LBB39-.Ltext0
 1913 000c 5A000000 		.4byte	.LBE39-.Ltext0
 1914 0010 5E000000 		.4byte	.LBB40-.Ltext0
 1915 0014 78000000 		.4byte	.LBE40-.Ltext0
 1916 0018 06010000 		.4byte	.LBB67-.Ltext0
 1917 001c 16010000 		.4byte	.LBE67-.Ltext0
 1918 0020 00000000 		.4byte	0
 1919 0024 00000000 		.4byte	0
 1920 0028 78000000 		.4byte	.LBB41-.Ltext0
 1921 002c 92000000 		.4byte	.LBE41-.Ltext0
 1922 0030 16010000 		.4byte	.LBB68-.Ltext0
 1923 0034 58010000 		.4byte	.LBE68-.Ltext0
 1924 0038 00000000 		.4byte	0
 1925 003c 00000000 		.4byte	0
 1926 0040 96000000 		.4byte	.LBB44-.Ltext0
 1927 0044 A0000000 		.4byte	.LBE44-.Ltext0
 1928 0048 AE000000 		.4byte	.LBB66-.Ltext0
 1929 004c E2000000 		.4byte	.LBE66-.Ltext0
 1930 0050 00000000 		.4byte	0
 1931 0054 00000000 		.4byte	0
 1932 0058 C2000000 		.4byte	.LBB47-.Ltext0
 1933 005c CC000000 		.4byte	.LBE47-.Ltext0
 1934 0060 CE000000 		.4byte	.LBB62-.Ltext0
 1935 0064 D0000000 		.4byte	.LBE62-.Ltext0
 1936 0068 00000000 		.4byte	0
 1937 006c 00000000 		.4byte	0
 1938 0070 CA000000 		.4byte	.LBB49-.Ltext0
 1939 0074 CC000000 		.4byte	.LBE49-.Ltext0
 1940 0078 CE000000 		.4byte	.LBB52-.Ltext0
 1941 007c D0000000 		.4byte	.LBE52-.Ltext0
 1942 0080 00000000 		.4byte	0
 1943 0084 00000000 		.4byte	0
 1944 0088 CC000000 		.4byte	.LBB54-.Ltext0
 1945 008c CE000000 		.4byte	.LBE54-.Ltext0
 1946 0090 D0000000 		.4byte	.LBB63-.Ltext0
 1947 0094 D6000000 		.4byte	.LBE63-.Ltext0
 1948 0098 D8000000 		.4byte	.LBB64-.Ltext0
 1949 009c DA000000 		.4byte	.LBE64-.Ltext0
 1950 00a0 00000000 		.4byte	0
 1951 00a4 00000000 		.4byte	0
 1952 00a8 D0000000 		.4byte	.LBB56-.Ltext0
 1953 00ac D6000000 		.4byte	.LBE56-.Ltext0
 1954 00b0 D8000000 		.4byte	.LBB59-.Ltext0
 1955 00b4 DA000000 		.4byte	.LBE59-.Ltext0
 1956 00b8 00000000 		.4byte	0
 1957 00bc 00000000 		.4byte	0
 1958              		.section	.debug_line,"",%progbits
 1959              	.Ldebug_line0:
 1960 0000 05020000 		.section	.debug_str,"MS",%progbits,1
 1960      02006E01 
 1960      00000201 
 1960      FB0E0D00 
 1960      01010101 
ARM GAS  G:\Users\Jaxb\AppData\Local\Temp\ccEqowR1.s 			page 40


 1961              	.LASF24:
 1962 0000 5441534B 		.ascii	"TASK_PRIO_TYPE\000"
 1962      5F505249 
 1962      4F5F5459 
 1962      504500
 1963              	.LASF77:
 1964 000f 73797374 		.ascii	"system_time_increase\000"
 1964      656D5F74 
 1964      696D655F 
 1964      696E6372 
 1964      65617365 
 1965              	.LASF14:
 1966 0024 53544154 		.ascii	"STATE_SUSPEND_NORMAL\000"
 1966      455F5355 
 1966      5350454E 
 1966      445F4E4F 
 1966      524D414C 
 1967              	.LASF25:
 1968 0039 6C697374 		.ascii	"list_head\000"
 1968      5F686561 
 1968      6400
 1969              	.LASF54:
 1970 0043 73746174 		.ascii	"state\000"
 1970      6500
 1971              	.LASF72:
 1972 0049 6C697374 		.ascii	"list_del\000"
 1972      5F64656C 
 1972      00
 1973              	.LASF1:
 1974 0052 73686F72 		.ascii	"short int\000"
 1974      7420696E 
 1974      7400
 1975              	.LASF43:
 1976 005c 54696D65 		.ascii	"Timer_Type\000"
 1976      725F5479 
 1976      706500
 1977              	.LASF59:
 1978 0067 68656170 		.ascii	"heap_position_index\000"
 1978      5F706F73 
 1978      6974696F 
 1978      6E5F696E 
 1978      64657800 
 1979              	.LASF17:
 1980 007b 53544154 		.ascii	"STATE_WAIT_MESSAGE_QUEUE_FOREVER\000"
 1980      455F5741 
 1980      49545F4D 
 1980      45535341 
 1980      47455F51 
 1981              	.LASF6:
 1982 009c 55494E54 		.ascii	"UINT32\000"
 1982      333200
 1983              	.LASF81:
 1984 00a3 6765745F 		.ascii	"get_from_TCB_list\000"
 1984      66726F6D 
 1984      5F544342 
 1984      5F6C6973 
 1984      7400
ARM GAS  G:\Users\Jaxb\AppData\Local\Temp\ccEqowR1.s 			page 41


 1985              	.LASF56:
 1986 00b5 74696D65 		.ascii	"timer_name\000"
 1986      725F6E61 
 1986      6D6500
 1987              	.LASF23:
 1988 00c0 53544143 		.ascii	"STACK_TYPE\000"
 1988      4B5F5459 
 1988      504500
 1989              	.LASF42:
 1990 00cb 5461736B 		.ascii	"Task_State\000"
 1990      5F537461 
 1990      746500
 1991              	.LASF19:
 1992 00d6 53544154 		.ascii	"STATE_PUT_MESSAGE_QUEUE_FOREVER\000"
 1992      455F5055 
 1992      545F4D45 
 1992      53534147 
 1992      455F5155 
 1993              	.LASF78:
 1994 00f6 64656C61 		.ascii	"delay_heap_get_top_TCB\000"
 1994      795F6865 
 1994      61705F67 
 1994      65745F74 
 1994      6F705F54 
 1995              	.LASF87:
 1996 010d 6765745F 		.ascii	"get_tick\000"
 1996      7469636B 
 1996      00
 1997              	.LASF67:
 1998 0116 68656164 		.ascii	"head\000"
 1998      00
 1999              	.LASF84:
 2000 011b 73636865 		.ascii	"schedule\000"
 2000      64756C65 
 2000      00
 2001              	.LASF52:
 2002 0124 74696D65 		.ascii	"timer\000"
 2002      7200
 2003              	.LASF76:
 2004 012a 5F5F6C69 		.ascii	"__list_add\000"
 2004      73745F61 
 2004      646400
 2005              	.LASF29:
 2006 0135 73746163 		.ascii	"stack_end\000"
 2006      6B5F656E 
 2006      6400
 2007              	.LASF16:
 2008 013f 53544154 		.ascii	"STATE_WAIT_MCB_TIMEOUT\000"
 2008      455F5741 
 2008      49545F4D 
 2008      43425F54 
 2008      494D454F 
 2009              	.LASF49:
 2010 0156 44495341 		.ascii	"DISABLE\000"
 2010      424C4500 
 2011              	.LASF85:
 2012 015e 72656D6F 		.ascii	"remove_from_suspend_list\000"
ARM GAS  G:\Users\Jaxb\AppData\Local\Temp\ccEqowR1.s 			page 42


 2012      76655F66 
 2012      726F6D5F 
 2012      73757370 
 2012      656E645F 
 2013              	.LASF60:
 2014 0177 77616B65 		.ascii	"wake_time\000"
 2014      5F74696D 
 2014      6500
 2015              	.LASF18:
 2016 0181 53544154 		.ascii	"STATE_WAIT_MESSAGE_QUEUE_TIMEOUT\000"
 2016      455F5741 
 2016      49545F4D 
 2016      45535341 
 2016      47455F51 
 2017              	.LASF2:
 2018 01a2 6C6F6E67 		.ascii	"long long int\000"
 2018      206C6F6E 
 2018      6720696E 
 2018      7400
 2019              	.LASF37:
 2020 01b0 74696D65 		.ascii	"timeslice_hope_time\000"
 2020      736C6963 
 2020      655F686F 
 2020      70655F74 
 2020      696D6500 
 2021              	.LASF93:
 2022 01c4 74696D65 		.ascii	"time_flag\000"
 2022      5F666C61 
 2022      6700
 2023              	.LASF68:
 2024 01ce 74696D65 		.ascii	"timer_ptr\000"
 2024      725F7074 
 2024      7200
 2025              	.LASF80:
 2026 01d8 696E7365 		.ascii	"insert_ready_TCB\000"
 2026      72745F72 
 2026      65616479 
 2026      5F544342 
 2026      00
 2027              	.LASF58:
 2028 01e9 70657269 		.ascii	"period\000"
 2028      6F6400
 2029              	.LASF91:
 2030 01f0 4F535F43 		.ascii	"OS_CPU_SysTickHandler\000"
 2030      50555F53 
 2030      79735469 
 2030      636B4861 
 2030      6E646C65 
 2031              	.LASF89:
 2032 0206 2E2E2F2E 		.ascii	"../../source/src/user/OS_CORE/schedule/os_tick.c\000"
 2032      2E2F736F 
 2032      75726365 
 2032      2F737263 
 2032      2F757365 
 2033              	.LASF22:
 2034 0237 5441534B 		.ascii	"TASK_STATE\000"
 2034      5F535441 
ARM GAS  G:\Users\Jaxb\AppData\Local\Temp\ccEqowR1.s 			page 43


 2034      544500
 2035              	.LASF86:
 2036 0242 6765745F 		.ascii	"get_timer_heap_top\000"
 2036      74696D65 
 2036      725F6865 
 2036      61705F74 
 2036      6F7000
 2037              	.LASF36:
 2038 0255 6E616D65 		.ascii	"name\000"
 2038      00
 2039              	.LASF62:
 2040 025a 4F535443 		.ascii	"OSTCBCurPtr\000"
 2040      42437572 
 2040      50747200 
 2041              	.LASF64:
 2042 0266 5443425F 		.ascii	"TCB_timer_task\000"
 2042      74696D65 
 2042      725F7461 
 2042      736B00
 2043              	.LASF74:
 2044 0275 656E7472 		.ascii	"entry\000"
 2044      7900
 2045              	.LASF69:
 2046 027b 72756E5F 		.ascii	"run_task_handler\000"
 2046      7461736B 
 2046      5F68616E 
 2046      646C6572 
 2046      00
 2047              	.LASF3:
 2048 028c 756E7369 		.ascii	"unsigned char\000"
 2048      676E6564 
 2048      20636861 
 2048      7200
 2049              	.LASF79:
 2050 029a 64656C61 		.ascii	"delay_heap_remove_top_TCB\000"
 2050      795F6865 
 2050      61705F72 
 2050      656D6F76 
 2050      655F746F 
 2051              	.LASF13:
 2052 02b4 53544154 		.ascii	"STATE_DELAY\000"
 2052      455F4445 
 2052      4C415900 
 2053              	.LASF73:
 2054 02c0 5F5F6C69 		.ascii	"__list_del\000"
 2054      73745F64 
 2054      656C00
 2055              	.LASF39:
 2056 02cb 61747472 		.ascii	"attribution\000"
 2056      69627574 
 2056      696F6E00 
 2057              	.LASF0:
 2058 02d7 7369676E 		.ascii	"signed char\000"
 2058      65642063 
 2058      68617200 
 2059              	.LASF9:
 2060 02e3 6C6F6E67 		.ascii	"long long unsigned int\000"
ARM GAS  G:\Users\Jaxb\AppData\Local\Temp\ccEqowR1.s 			page 44


 2060      206C6F6E 
 2060      6720756E 
 2060      7369676E 
 2060      65642069 
 2061              	.LASF53:
 2062 02fa 74797065 		.ascii	"type\000"
 2062      00
 2063              	.LASF7:
 2064 02ff 756E7369 		.ascii	"unsigned int\000"
 2064      676E6564 
 2064      20696E74 
 2064      00
 2065              	.LASF65:
 2066 030c 675F7469 		.ascii	"g_time_tick_count\000"
 2066      6D655F74 
 2066      69636B5F 
 2066      636F756E 
 2066      7400
 2067              	.LASF44:
 2068 031e 54494D45 		.ascii	"TIMER_ONE_TIME\000"
 2068      525F4F4E 
 2068      455F5449 
 2068      4D4500
 2069              	.LASF27:
 2070 032d 73746163 		.ascii	"stack\000"
 2070      6B00
 2071              	.LASF34:
 2072 0333 73616D65 		.ascii	"same_prio_list\000"
 2072      5F707269 
 2072      6F5F6C69 
 2072      737400
 2073              	.LASF4:
 2074 0342 73686F72 		.ascii	"short unsigned int\000"
 2074      7420756E 
 2074      7369676E 
 2074      65642069 
 2074      6E7400
 2075              	.LASF12:
 2076 0355 53544154 		.ascii	"STATE_READY\000"
 2076      455F5245 
 2076      41445900 
 2077              	.LASF41:
 2078 0361 63686172 		.ascii	"char\000"
 2078      00
 2079              	.LASF71:
 2080 0366 7469636B 		.ascii	"tick_time_handler\000"
 2080      5F74696D 
 2080      655F6861 
 2080      6E646C65 
 2080      7200
 2081              	.LASF20:
 2082 0378 53544154 		.ascii	"STATE_PUT_MESSAGE_QUEUE_TIMEOUT\000"
 2082      455F5055 
 2082      545F4D45 
 2082      53534147 
 2082      455F5155 
 2083              	.LASF55:
ARM GAS  G:\Users\Jaxb\AppData\Local\Temp\ccEqowR1.s 			page 45


 2084 0398 72657374 		.ascii	"rest_num\000"
 2084      5F6E756D 
 2084      00
 2085              	.LASF82:
 2086 03a1 6765745F 		.ascii	"get_ready_num_from_TCB_list\000"
 2086      72656164 
 2086      795F6E75 
 2086      6D5F6672 
 2086      6F6D5F54 
 2087              	.LASF63:
 2088 03bd 4F535443 		.ascii	"OSTCBHighRdyPtr\000"
 2088      42486967 
 2088      68526479 
 2088      50747200 
 2089              	.LASF51:
 2090 03cd 54494D45 		.ascii	"TIMER_STATE\000"
 2090      525F5354 
 2090      41544500 
 2091              	.LASF83:
 2092 03d9 7379735F 		.ascii	"sys_schedule_islock\000"
 2092      73636865 
 2092      64756C65 
 2092      5F69736C 
 2092      6F636B00 
 2093              	.LASF48:
 2094 03ed 54696D65 		.ascii	"Timer_State\000"
 2094      725F5374 
 2094      61746500 
 2095              	.LASF33:
 2096 03f9 64656C61 		.ascii	"delay_heap_position\000"
 2096      795F6865 
 2096      61705F70 
 2096      6F736974 
 2096      696F6E00 
 2097              	.LASF32:
 2098 040d 7461736B 		.ascii	"task_state\000"
 2098      5F737461 
 2098      746500
 2099              	.LASF5:
 2100 0418 494E5436 		.ascii	"INT64\000"
 2100      3400
 2101              	.LASF92:
 2102 041e 74696D65 		.ascii	"timer_task_check\000"
 2102      725F7461 
 2102      736B5F63 
 2102      6865636B 
 2102      00
 2103              	.LASF90:
 2104 042f 473A5C55 		.ascii	"G:\\Users\\Jaxb\\Desktop\\KAKAOS-0.07  2019.2.21  f"
 2104      73657273 
 2104      5C4A6178 
 2104      625C4465 
 2104      736B746F 
 2105 045e 6F722067 		.ascii	"or gcc\\Project\\RVMDK\243\250uv5\243\251\000"
 2105      63635C50 
 2105      726F6A65 
 2105      63745C52 
ARM GAS  G:\Users\Jaxb\AppData\Local\Temp\ccEqowR1.s 			page 46


 2105      564D444B 
 2106              	.LASF38:
 2107 047a 74696D65 		.ascii	"timeslice_rest_time\000"
 2107      736C6963 
 2107      655F7265 
 2107      73745F74 
 2107      696D6500 
 2108              	.LASF57:
 2109 048e 70617261 		.ascii	"para\000"
 2109      00
 2110              	.LASF70:
 2111 0493 64656C61 		.ascii	"delay_task_check\000"
 2111      795F7461 
 2111      736B5F63 
 2111      6865636B 
 2111      00
 2112              	.LASF15:
 2113 04a4 53544154 		.ascii	"STATE_WAIT_MCB_FOREVER\000"
 2113      455F5741 
 2113      49545F4D 
 2113      43425F46 
 2113      4F524556 
 2114              	.LASF26:
 2115 04bb 7461736B 		.ascii	"task_control_block_struct\000"
 2115      5F636F6E 
 2115      74726F6C 
 2115      5F626C6F 
 2115      636B5F73 
 2116              	.LASF28:
 2117 04d5 73746163 		.ascii	"stack_size\000"
 2117      6B5F7369 
 2117      7A6500
 2118              	.LASF47:
 2119 04e0 54494D45 		.ascii	"TIMER_TYPE\000"
 2119      525F5459 
 2119      504500
 2120              	.LASF66:
 2121 04eb 5443425F 		.ascii	"TCB_ptr\000"
 2121      70747200 
 2122              	.LASF31:
 2123 04f3 72657365 		.ascii	"reserve_prio\000"
 2123      7276655F 
 2123      7072696F 
 2123      00
 2124              	.LASF35:
 2125 0500 73757370 		.ascii	"suspend_list\000"
 2125      656E645F 
 2125      6C697374 
 2125      00
 2126              	.LASF61:
 2127 050d 675F696E 		.ascii	"g_interrupt_count\000"
 2127      74657272 
 2127      7570745F 
 2127      636F756E 
 2127      7400
 2128              	.LASF46:
 2129 051f 54494D45 		.ascii	"TIMER_TIME\000"
ARM GAS  G:\Users\Jaxb\AppData\Local\Temp\ccEqowR1.s 			page 47


 2129      525F5449 
 2129      4D4500
 2130              	.LASF88:
 2131 052a 474E5520 		.ascii	"GNU C11 7.3.1 20180622 (release) [ARM/embedded-7-br"
 2131      43313120 
 2131      372E332E 
 2131      31203230 
 2131      31383036 
 2132 055d 616E6368 		.ascii	"anch revision 261907] -mcpu=cortex-m3 -mthumb -mapc"
 2132      20726576 
 2132      6973696F 
 2132      6E203236 
 2132      31393037 
 2133 0590 732D6672 		.ascii	"s-frame -mthumb-interwork -mcpu=cortex-m3 -mthumb -"
 2133      616D6520 
 2133      2D6D7468 
 2133      756D622D 
 2133      696E7465 
 2134 05c3 67647761 		.ascii	"gdwarf-2 -O2\000"
 2134      72662D32 
 2134      202D4F32 
 2134      00
 2135              	.LASF21:
 2136 05d0 53544154 		.ascii	"STATE_WAIT_MUTEX_FOREVER\000"
 2136      455F5741 
 2136      49545F4D 
 2136      55544558 
 2136      5F464F52 
 2137              	.LASF11:
 2138 05e9 70726576 		.ascii	"prev\000"
 2138      00
 2139              	.LASF40:
 2140 05ee 64656C61 		.ascii	"delay_reach_time\000"
 2140      795F7265 
 2140      6163685F 
 2140      74696D65 
 2140      00
 2141              	.LASF75:
 2142 05ff 6C697374 		.ascii	"list_add_tail\000"
 2142      5F616464 
 2142      5F746169 
 2142      6C00
 2143              	.LASF8:
 2144 060d 55494E54 		.ascii	"UINT64\000"
 2144      363400
 2145              	.LASF30:
 2146 0614 7072696F 		.ascii	"prio\000"
 2146      00
 2147              	.LASF50:
 2148 0619 454E4142 		.ascii	"ENABLE\000"
 2148      4C4500
 2149              	.LASF10:
 2150 0620 6E657874 		.ascii	"next\000"
 2150      00
 2151              	.LASF45:
 2152 0625 54494D45 		.ascii	"TIMER_PERIODIC\000"
 2152      525F5045 
ARM GAS  G:\Users\Jaxb\AppData\Local\Temp\ccEqowR1.s 			page 48


 2152      52494F44 
 2152      494300
 2153              		.ident	"GCC: (GNU Tools for Arm Embedded Processors 7-2018-q2-update) 7.3.1 20180622 (release) [AR
ARM GAS  G:\Users\Jaxb\AppData\Local\Temp\ccEqowR1.s 			page 49


DEFINED SYMBOLS
                            *ABS*:00000000 os_tick.c
G:\Users\Jaxb\AppData\Local\Temp\ccEqowR1.s:15     .text:00000000 $t
G:\Users\Jaxb\AppData\Local\Temp\ccEqowR1.s:23     .text:00000000 timer_task_check
G:\Users\Jaxb\AppData\Local\Temp\ccEqowR1.s:90     .text:00000048 $d
G:\Users\Jaxb\AppData\Local\Temp\ccEqowR1.s:95     .text:00000050 $t
G:\Users\Jaxb\AppData\Local\Temp\ccEqowR1.s:103    .text:00000050 OS_CPU_SysTickHandler
G:\Users\Jaxb\AppData\Local\Temp\ccEqowR1.s:373    .text:00000148 $d
G:\Users\Jaxb\AppData\Local\Temp\ccEqowR1.s:383    .bss:00000000 $d
G:\Users\Jaxb\AppData\Local\Temp\ccEqowR1.s:387    .bss:00000000 time_flag.4508

UNDEFINED SYMBOLS
get_timer_heap_top
get_tick
remove_from_suspend_list
TCB_timer_task
OSTCBCurPtr
delay_heap_get_top_TCB
get_ready_num_from_TCB_list
get_from_TCB_list
sys_schedule_islock
schedule
system_time_increase
delay_heap_remove_top_TCB
insert_ready_TCB
g_interrupt_count
g_time_tick_count
