ARM GAS  G:\Users\Jaxb\AppData\Local\Temp\ccO1lhAa.s 			page 1


   1              		.cpu cortex-m3
   2              		.eabi_attribute 20, 1
   3              		.eabi_attribute 21, 1
   4              		.eabi_attribute 23, 3
   5              		.eabi_attribute 24, 1
   6              		.eabi_attribute 25, 1
   7              		.eabi_attribute 26, 1
   8              		.eabi_attribute 30, 6
   9              		.eabi_attribute 34, 1
  10              		.eabi_attribute 18, 4
  11              		.file	"os_time.c"
  12              		.text
  13              	.Ltext0:
  14              		.cfi_sections	.debug_frame
  15              		.global	g_time_tick_count
  16              		.bss
  17              		.align	3
  18              		.type	g_time_tick_count, %object
  19              		.size	g_time_tick_count, 8
  20              	g_time_tick_count:
  21 0000 00000000 		.space	8
  21      00000000 
  22              		.text
  23              		.align	1
  24              		.global	get_tick
  25              		.syntax unified
  26              		.thumb
  27              		.thumb_func
  28              		.fpu softvfp
  29              		.type	get_tick, %function
  30              	get_tick:
  31              	.LFB0:
  32              		.file 1 "../../source/src/kernel/OS_CORE/os_time.c"
   1:../../source/src/kernel/OS_CORE/os_time.c **** #include <os_time.h>
   2:../../source/src/kernel/OS_CORE/os_time.c **** #include <os_cpu.h>
   3:../../source/src/kernel/OS_CORE/os_time.c **** #include <myMicroLIB.h>
   4:../../source/src/kernel/OS_CORE/os_time.c **** #include <myassert.h>
   5:../../source/src/kernel/OS_CORE/os_time.c **** #include <os_error.h>
   6:../../source/src/kernel/OS_CORE/os_time.c **** #include <export.h>
   7:../../source/src/kernel/OS_CORE/os_time.c **** 
   8:../../source/src/kernel/OS_CORE/os_time.c **** volatile UINT64 g_time_tick_count = 0;
   9:../../source/src/kernel/OS_CORE/os_time.c **** 
  10:../../source/src/kernel/OS_CORE/os_time.c **** UINT64 
  11:../../source/src/kernel/OS_CORE/os_time.c **** get_tick(void)
  12:../../source/src/kernel/OS_CORE/os_time.c **** {
  33              		.loc 1 12 0
  34              		.cfi_startproc
  35              		@ args = 0, pretend = 0, frame = 16
  36              		@ frame_needed = 1, uses_anonymous_args = 0
  37 0000 90B5     		push	{r4, r7, lr}
  38              	.LCFI0:
  39              		.cfi_def_cfa_offset 12
  40              		.cfi_offset 4, -12
  41              		.cfi_offset 7, -8
  42              		.cfi_offset 14, -4
  43 0002 85B0     		sub	sp, sp, #20
  44              	.LCFI1:
ARM GAS  G:\Users\Jaxb\AppData\Local\Temp\ccO1lhAa.s 			page 2


  45              		.cfi_def_cfa_offset 32
  46 0004 00AF     		add	r7, sp, #0
  47              	.LCFI2:
  48              		.cfi_def_cfa_register 7
  13:../../source/src/kernel/OS_CORE/os_time.c **** 	UINT64 num;
  14:../../source/src/kernel/OS_CORE/os_time.c **** 	CPU_SR_ALLOC();
  49              		.loc 1 14 0
  50 0006 0023     		movs	r3, #0
  51 0008 FB60     		str	r3, [r7, #12]
  15:../../source/src/kernel/OS_CORE/os_time.c **** 	CPU_CRITICAL_ENTER();
  52              		.loc 1 15 0
  53 000a FFF7FEFF 		bl	CPU_SR_Save
  54 000e F860     		str	r0, [r7, #12]
  16:../../source/src/kernel/OS_CORE/os_time.c **** 	num = g_time_tick_count;
  55              		.loc 1 16 0
  56 0010 064B     		ldr	r3, .L3
  57 0012 18CB     		ldmia	r3, {r3-r4}
  58 0014 C7E90034 		strd	r3, [r7]
  17:../../source/src/kernel/OS_CORE/os_time.c **** 	CPU_CRITICAL_EXIT();
  59              		.loc 1 17 0
  60 0018 F868     		ldr	r0, [r7, #12]
  61 001a FFF7FEFF 		bl	CPU_SR_Restore
  18:../../source/src/kernel/OS_CORE/os_time.c **** 	return num;
  62              		.loc 1 18 0
  63 001e D7E90034 		ldrd	r3, [r7]
  19:../../source/src/kernel/OS_CORE/os_time.c **** }
  64              		.loc 1 19 0
  65 0022 1846     		mov	r0, r3
  66 0024 2146     		mov	r1, r4
  67 0026 1437     		adds	r7, r7, #20
  68              	.LCFI3:
  69              		.cfi_def_cfa_offset 12
  70 0028 BD46     		mov	sp, r7
  71              	.LCFI4:
  72              		.cfi_def_cfa_register 13
  73              		@ sp needed
  74 002a 90BD     		pop	{r4, r7, pc}
  75              	.L4:
  76              		.align	2
  77              	.L3:
  78 002c 00000000 		.word	g_time_tick_count
  79              		.cfi_endproc
  80              	.LFE0:
  81              		.size	get_tick, .-get_tick
  82              		.global	__rtmsym_get_tick_name
  83              		.section	.rodata.name,"a",%progbits
  84              		.align	2
  85              		.type	__rtmsym_get_tick_name, %object
  86              		.size	__rtmsym_get_tick_name, 9
  87              	__rtmsym_get_tick_name:
  88 0000 6765745F 		.ascii	"get_tick\000"
  88      7469636B 
  88      00
  89              		.global	__rtmsym_get_tick
  90              		.section	.RTMSymTab,"a",%progbits
  91              		.align	2
  92              		.type	__rtmsym_get_tick, %object
ARM GAS  G:\Users\Jaxb\AppData\Local\Temp\ccO1lhAa.s 			page 3


  93              		.size	__rtmsym_get_tick, 8
  94              	__rtmsym_get_tick:
  95 0000 00000000 		.word	get_tick
  96 0004 00000000 		.word	__rtmsym_get_tick_name
  97              		.bss
  98              		.align	2
  99              	sys_time:
 100 0008 00000000 		.space	8
 100      00000000 
 101              		.size	sys_time, 8
 102              		.section	.rodata
 103              		.align	2
 104              		.type	month_date_table, %object
 105              		.size	month_date_table, 12
 106              	month_date_table:
 107 0000 1F       		.byte	31
 108 0001 1C       		.byte	28
 109 0002 1F       		.byte	31
 110 0003 1E       		.byte	30
 111 0004 1F       		.byte	31
 112 0005 1E       		.byte	30
 113 0006 1F       		.byte	31
 114 0007 1F       		.byte	31
 115 0008 1E       		.byte	30
 116 0009 1F       		.byte	31
 117 000a 1E       		.byte	30
 118 000b 1F       		.byte	31
 119              		.text
 120              		.align	1
 121              		.global	__init_system_time
 122              		.syntax unified
 123              		.thumb
 124              		.thumb_func
 125              		.fpu softvfp
 126              		.type	__init_system_time, %function
 127              	__init_system_time:
 128              	.LFB1:
  20:../../source/src/kernel/OS_CORE/os_time.c **** EXPORT_SYMBOL(get_tick);
  21:../../source/src/kernel/OS_CORE/os_time.c **** 
  22:../../source/src/kernel/OS_CORE/os_time.c **** #if CONFIG_TIME_EN
  23:../../source/src/kernel/OS_CORE/os_time.c **** 
  24:../../source/src/kernel/OS_CORE/os_time.c **** static struct time sys_time;
  25:../../source/src/kernel/OS_CORE/os_time.c **** 
  26:../../source/src/kernel/OS_CORE/os_time.c **** static const UINT8 month_date_table[] = {
  27:../../source/src/kernel/OS_CORE/os_time.c **** 	31, //January
  28:../../source/src/kernel/OS_CORE/os_time.c **** 	28, //Feburary
  29:../../source/src/kernel/OS_CORE/os_time.c **** 	31, //March
  30:../../source/src/kernel/OS_CORE/os_time.c **** 	30, //April
  31:../../source/src/kernel/OS_CORE/os_time.c **** 	31, //May
  32:../../source/src/kernel/OS_CORE/os_time.c **** 	30, //June
  33:../../source/src/kernel/OS_CORE/os_time.c **** 	31, //July
  34:../../source/src/kernel/OS_CORE/os_time.c **** 	31, //August
  35:../../source/src/kernel/OS_CORE/os_time.c **** 	30, //September
  36:../../source/src/kernel/OS_CORE/os_time.c **** 	31, //October
  37:../../source/src/kernel/OS_CORE/os_time.c **** 	30, //November
  38:../../source/src/kernel/OS_CORE/os_time.c **** 	31  //December
  39:../../source/src/kernel/OS_CORE/os_time.c **** };
ARM GAS  G:\Users\Jaxb\AppData\Local\Temp\ccO1lhAa.s 			page 4


  40:../../source/src/kernel/OS_CORE/os_time.c **** 
  41:../../source/src/kernel/OS_CORE/os_time.c **** void 
  42:../../source/src/kernel/OS_CORE/os_time.c **** __init_system_time(void)
  43:../../source/src/kernel/OS_CORE/os_time.c **** {
 129              		.loc 1 43 0
 130              		.cfi_startproc
 131              		@ args = 0, pretend = 0, frame = 0
 132              		@ frame_needed = 1, uses_anonymous_args = 0
 133              		@ link register save eliminated.
 134 0030 80B4     		push	{r7}
 135              	.LCFI5:
 136              		.cfi_def_cfa_offset 4
 137              		.cfi_offset 7, -4
 138 0032 00AF     		add	r7, sp, #0
 139              	.LCFI6:
 140              		.cfi_def_cfa_register 7
  44:../../source/src/kernel/OS_CORE/os_time.c **** 	sys_time.date    =  OS_DATE;
 141              		.loc 1 44 0
 142 0034 0C4B     		ldr	r3, .L6
 143 0036 0522     		movs	r2, #5
 144 0038 DA70     		strb	r2, [r3, #3]
  45:../../source/src/kernel/OS_CORE/os_time.c **** 	sys_time.hour    =  OS_HOUR;
 145              		.loc 1 45 0
 146 003a 0B4B     		ldr	r3, .L6
 147 003c 0B22     		movs	r2, #11
 148 003e 9A70     		strb	r2, [r3, #2]
  46:../../source/src/kernel/OS_CORE/os_time.c **** 	sys_time.minute  = 	OS_MINUTE;
 149              		.loc 1 46 0
 150 0040 094B     		ldr	r3, .L6
 151 0042 1622     		movs	r2, #22
 152 0044 5A70     		strb	r2, [r3, #1]
  47:../../source/src/kernel/OS_CORE/os_time.c **** 	sys_time.month   =  OS_MONTH;
 153              		.loc 1 47 0
 154 0046 084B     		ldr	r3, .L6
 155 0048 0A22     		movs	r2, #10
 156 004a 1A71     		strb	r2, [r3, #4]
  48:../../source/src/kernel/OS_CORE/os_time.c **** 	sys_time.second  = 	OS_SECOND;
 157              		.loc 1 48 0
 158 004c 064B     		ldr	r3, .L6
 159 004e 0022     		movs	r2, #0
 160 0050 1A70     		strb	r2, [r3]
  49:../../source/src/kernel/OS_CORE/os_time.c **** 	sys_time.year    =  OS_YEAR;
 161              		.loc 1 49 0
 162 0052 054B     		ldr	r3, .L6
 163 0054 40F2E272 		movw	r2, #2018
 164 0058 DA80     		strh	r2, [r3, #6]	@ movhi
  50:../../source/src/kernel/OS_CORE/os_time.c **** 	sys_time.day     =  OS_DAY;
 165              		.loc 1 50 0
 166 005a 034B     		ldr	r3, .L6
 167 005c 0522     		movs	r2, #5
 168 005e 5A71     		strb	r2, [r3, #5]
  51:../../source/src/kernel/OS_CORE/os_time.c **** }
 169              		.loc 1 51 0
 170 0060 00BF     		nop
 171 0062 BD46     		mov	sp, r7
 172              	.LCFI7:
 173              		.cfi_def_cfa_register 13
ARM GAS  G:\Users\Jaxb\AppData\Local\Temp\ccO1lhAa.s 			page 5


 174              		@ sp needed
 175 0064 80BC     		pop	{r7}
 176              	.LCFI8:
 177              		.cfi_restore 7
 178              		.cfi_def_cfa_offset 0
 179 0066 7047     		bx	lr
 180              	.L7:
 181              		.align	2
 182              	.L6:
 183 0068 08000000 		.word	sys_time
 184              		.cfi_endproc
 185              	.LFE1:
 186              		.size	__init_system_time, .-__init_system_time
 187              		.global	__rtmsym___init_system_time_name
 188              		.section	.rodata.name
 189 0009 000000   		.align	2
 190              		.type	__rtmsym___init_system_time_name, %object
 191              		.size	__rtmsym___init_system_time_name, 19
 192              	__rtmsym___init_system_time_name:
 193 000c 5F5F696E 		.ascii	"__init_system_time\000"
 193      69745F73 
 193      79737465 
 193      6D5F7469 
 193      6D6500
 194              		.global	__rtmsym___init_system_time
 195              		.section	.RTMSymTab
 196              		.align	2
 197              		.type	__rtmsym___init_system_time, %object
 198              		.size	__rtmsym___init_system_time, 8
 199              	__rtmsym___init_system_time:
 200 0008 00000000 		.word	__init_system_time
 201 000c 00000000 		.word	__rtmsym___init_system_time_name
 202              		.text
 203              		.align	1
 204              		.global	system_time_increase
 205              		.syntax unified
 206              		.thumb
 207              		.thumb_func
 208              		.fpu softvfp
 209              		.type	system_time_increase, %function
 210              	system_time_increase:
 211              	.LFB2:
  52:../../source/src/kernel/OS_CORE/os_time.c **** EXPORT_SYMBOL(__init_system_time);
  53:../../source/src/kernel/OS_CORE/os_time.c **** 
  54:../../source/src/kernel/OS_CORE/os_time.c **** 
  55:../../source/src/kernel/OS_CORE/os_time.c **** /**
  56:../../source/src/kernel/OS_CORE/os_time.c ****  * This is a system function
  57:../../source/src/kernel/OS_CORE/os_time.c ****  * @Author      kaka
  58:../../source/src/kernel/OS_CORE/os_time.c ****  * @DateTime    2018-10-12
  59:../../source/src/kernel/OS_CORE/os_time.c ****  * @description : this function can only be used by os
  60:../../source/src/kernel/OS_CORE/os_time.c ****  */
  61:../../source/src/kernel/OS_CORE/os_time.c **** void 
  62:../../source/src/kernel/OS_CORE/os_time.c **** system_time_increase(void)
  63:../../source/src/kernel/OS_CORE/os_time.c **** {
 212              		.loc 1 63 0
 213              		.cfi_startproc
 214              		@ args = 0, pretend = 0, frame = 0
ARM GAS  G:\Users\Jaxb\AppData\Local\Temp\ccO1lhAa.s 			page 6


 215              		@ frame_needed = 1, uses_anonymous_args = 0
 216              		@ link register save eliminated.
 217 006c 80B4     		push	{r7}
 218              	.LCFI9:
 219              		.cfi_def_cfa_offset 4
 220              		.cfi_offset 7, -4
 221 006e 00AF     		add	r7, sp, #0
 222              	.LCFI10:
 223              		.cfi_def_cfa_register 7
  64:../../source/src/kernel/OS_CORE/os_time.c **** 	++sys_time.second;
 224              		.loc 1 64 0
 225 0070 2E4B     		ldr	r3, .L12
 226 0072 1B78     		ldrb	r3, [r3]	@ zero_extendqisi2
 227 0074 0133     		adds	r3, r3, #1
 228 0076 DAB2     		uxtb	r2, r3
 229 0078 2C4B     		ldr	r3, .L12
 230 007a 1A70     		strb	r2, [r3]
  65:../../source/src/kernel/OS_CORE/os_time.c **** 	if(60 == sys_time.second)
 231              		.loc 1 65 0
 232 007c 2B4B     		ldr	r3, .L12
 233 007e 1B78     		ldrb	r3, [r3]	@ zero_extendqisi2
 234 0080 3C2B     		cmp	r3, #60
 235 0082 4ED1     		bne	.L11
  66:../../source/src/kernel/OS_CORE/os_time.c **** 	{
  67:../../source/src/kernel/OS_CORE/os_time.c **** 		sys_time.second = 0;
 236              		.loc 1 67 0
 237 0084 294B     		ldr	r3, .L12
 238 0086 0022     		movs	r2, #0
 239 0088 1A70     		strb	r2, [r3]
  68:../../source/src/kernel/OS_CORE/os_time.c **** 		++sys_time.minute;
 240              		.loc 1 68 0
 241 008a 284B     		ldr	r3, .L12
 242 008c 5B78     		ldrb	r3, [r3, #1]	@ zero_extendqisi2
 243 008e 0133     		adds	r3, r3, #1
 244 0090 DAB2     		uxtb	r2, r3
 245 0092 264B     		ldr	r3, .L12
 246 0094 5A70     		strb	r2, [r3, #1]
  69:../../source/src/kernel/OS_CORE/os_time.c **** 		if(60 == sys_time.minute)
 247              		.loc 1 69 0
 248 0096 254B     		ldr	r3, .L12
 249 0098 5B78     		ldrb	r3, [r3, #1]	@ zero_extendqisi2
 250 009a 3C2B     		cmp	r3, #60
 251 009c 41D1     		bne	.L11
  70:../../source/src/kernel/OS_CORE/os_time.c **** 		{
  71:../../source/src/kernel/OS_CORE/os_time.c **** 			sys_time.minute = 0;
 252              		.loc 1 71 0
 253 009e 234B     		ldr	r3, .L12
 254 00a0 0022     		movs	r2, #0
 255 00a2 5A70     		strb	r2, [r3, #1]
  72:../../source/src/kernel/OS_CORE/os_time.c **** 		  	++sys_time.hour;
 256              		.loc 1 72 0
 257 00a4 214B     		ldr	r3, .L12
 258 00a6 9B78     		ldrb	r3, [r3, #2]	@ zero_extendqisi2
 259 00a8 0133     		adds	r3, r3, #1
 260 00aa DAB2     		uxtb	r2, r3
 261 00ac 1F4B     		ldr	r3, .L12
 262 00ae 9A70     		strb	r2, [r3, #2]
ARM GAS  G:\Users\Jaxb\AppData\Local\Temp\ccO1lhAa.s 			page 7


  73:../../source/src/kernel/OS_CORE/os_time.c **** 			if(24 == sys_time.hour)
 263              		.loc 1 73 0
 264 00b0 1E4B     		ldr	r3, .L12
 265 00b2 9B78     		ldrb	r3, [r3, #2]	@ zero_extendqisi2
 266 00b4 182B     		cmp	r3, #24
 267 00b6 34D1     		bne	.L11
  74:../../source/src/kernel/OS_CORE/os_time.c **** 			{
  75:../../source/src/kernel/OS_CORE/os_time.c **** 				sys_time.hour = 0;
 268              		.loc 1 75 0
 269 00b8 1C4B     		ldr	r3, .L12
 270 00ba 0022     		movs	r2, #0
 271 00bc 9A70     		strb	r2, [r3, #2]
  76:../../source/src/kernel/OS_CORE/os_time.c **** 				++sys_time.date;
 272              		.loc 1 76 0
 273 00be 1B4B     		ldr	r3, .L12
 274 00c0 DB78     		ldrb	r3, [r3, #3]	@ zero_extendqisi2
 275 00c2 0133     		adds	r3, r3, #1
 276 00c4 DAB2     		uxtb	r2, r3
 277 00c6 194B     		ldr	r3, .L12
 278 00c8 DA70     		strb	r2, [r3, #3]
  77:../../source/src/kernel/OS_CORE/os_time.c **** 				++sys_time.day;
 279              		.loc 1 77 0
 280 00ca 184B     		ldr	r3, .L12
 281 00cc 5B79     		ldrb	r3, [r3, #5]	@ zero_extendqisi2
 282 00ce 0133     		adds	r3, r3, #1
 283 00d0 DAB2     		uxtb	r2, r3
 284 00d2 164B     		ldr	r3, .L12
 285 00d4 5A71     		strb	r2, [r3, #5]
  78:../../source/src/kernel/OS_CORE/os_time.c **** 				if(month_date_table[sys_time.month-1] < sys_time.date)
 286              		.loc 1 78 0
 287 00d6 154B     		ldr	r3, .L12
 288 00d8 1B79     		ldrb	r3, [r3, #4]	@ zero_extendqisi2
 289 00da 013B     		subs	r3, r3, #1
 290 00dc 144A     		ldr	r2, .L12+4
 291 00de D25C     		ldrb	r2, [r2, r3]	@ zero_extendqisi2
 292 00e0 124B     		ldr	r3, .L12
 293 00e2 DB78     		ldrb	r3, [r3, #3]	@ zero_extendqisi2
 294 00e4 9A42     		cmp	r2, r3
 295 00e6 15D2     		bcs	.L10
  79:../../source/src/kernel/OS_CORE/os_time.c **** 				{
  80:../../source/src/kernel/OS_CORE/os_time.c **** 					sys_time.date = 1;
 296              		.loc 1 80 0
 297 00e8 104B     		ldr	r3, .L12
 298 00ea 0122     		movs	r2, #1
 299 00ec DA70     		strb	r2, [r3, #3]
  81:../../source/src/kernel/OS_CORE/os_time.c **** 					++sys_time.month;
 300              		.loc 1 81 0
 301 00ee 0F4B     		ldr	r3, .L12
 302 00f0 1B79     		ldrb	r3, [r3, #4]	@ zero_extendqisi2
 303 00f2 0133     		adds	r3, r3, #1
 304 00f4 DAB2     		uxtb	r2, r3
 305 00f6 0D4B     		ldr	r3, .L12
 306 00f8 1A71     		strb	r2, [r3, #4]
  82:../../source/src/kernel/OS_CORE/os_time.c **** 					if(sys_time.month == 13)
 307              		.loc 1 82 0
 308 00fa 0C4B     		ldr	r3, .L12
 309 00fc 1B79     		ldrb	r3, [r3, #4]	@ zero_extendqisi2
ARM GAS  G:\Users\Jaxb\AppData\Local\Temp\ccO1lhAa.s 			page 8


 310 00fe 0D2B     		cmp	r3, #13
 311 0100 08D1     		bne	.L10
  83:../../source/src/kernel/OS_CORE/os_time.c **** 					{
  84:../../source/src/kernel/OS_CORE/os_time.c **** 						sys_time.month = 1;
 312              		.loc 1 84 0
 313 0102 0A4B     		ldr	r3, .L12
 314 0104 0122     		movs	r2, #1
 315 0106 1A71     		strb	r2, [r3, #4]
  85:../../source/src/kernel/OS_CORE/os_time.c **** 						++sys_time.year;
 316              		.loc 1 85 0
 317 0108 084B     		ldr	r3, .L12
 318 010a DB88     		ldrh	r3, [r3, #6]
 319 010c 0133     		adds	r3, r3, #1
 320 010e 9AB2     		uxth	r2, r3
 321 0110 064B     		ldr	r3, .L12
 322 0112 DA80     		strh	r2, [r3, #6]	@ movhi
 323              	.L10:
  86:../../source/src/kernel/OS_CORE/os_time.c **** 					}
  87:../../source/src/kernel/OS_CORE/os_time.c **** 				}
  88:../../source/src/kernel/OS_CORE/os_time.c **** 				if(8 == sys_time.day)
 324              		.loc 1 88 0
 325 0114 054B     		ldr	r3, .L12
 326 0116 5B79     		ldrb	r3, [r3, #5]	@ zero_extendqisi2
 327 0118 082B     		cmp	r3, #8
 328 011a 02D1     		bne	.L11
  89:../../source/src/kernel/OS_CORE/os_time.c **** 				{
  90:../../source/src/kernel/OS_CORE/os_time.c **** 					sys_time.day = 1;
 329              		.loc 1 90 0
 330 011c 034B     		ldr	r3, .L12
 331 011e 0122     		movs	r2, #1
 332 0120 5A71     		strb	r2, [r3, #5]
 333              	.L11:
  91:../../source/src/kernel/OS_CORE/os_time.c **** 				}
  92:../../source/src/kernel/OS_CORE/os_time.c **** 			}
  93:../../source/src/kernel/OS_CORE/os_time.c **** 		}
  94:../../source/src/kernel/OS_CORE/os_time.c **** 	}
  95:../../source/src/kernel/OS_CORE/os_time.c **** }
 334              		.loc 1 95 0
 335 0122 00BF     		nop
 336 0124 BD46     		mov	sp, r7
 337              	.LCFI11:
 338              		.cfi_def_cfa_register 13
 339              		@ sp needed
 340 0126 80BC     		pop	{r7}
 341              	.LCFI12:
 342              		.cfi_restore 7
 343              		.cfi_def_cfa_offset 0
 344 0128 7047     		bx	lr
 345              	.L13:
 346 012a 00BF     		.align	2
 347              	.L12:
 348 012c 08000000 		.word	sys_time
 349 0130 00000000 		.word	month_date_table
 350              		.cfi_endproc
 351              	.LFE2:
 352              		.size	system_time_increase, .-system_time_increase
 353              		.section	.rodata
ARM GAS  G:\Users\Jaxb\AppData\Local\Temp\ccO1lhAa.s 			page 9


 354              		.align	2
 355              	.LC0:
 356 000c 2564E5B9 		.ascii	"%d\345\271\264%d\346\234\210%d\346\227\245--%d\346\227"
 356      B42564E6 
 356      9C882564 
 356      E697A52D 
 356      2D2564E6 
 357 0021 B62564E5 		.ascii	"\266%d\345\210\206%d\347\247\222--\346\230\237\346\234"
 357      88862564 
 357      E7A7922D 
 357      2DE6989F 
 357      E69C
 358 0033 9F25640D 		.ascii	"\237%d\015\012\000"
 358      0A00
 359              		.text
 360              		.align	1
 361              		.global	system_time_display
 362              		.syntax unified
 363              		.thumb
 364              		.thumb_func
 365              		.fpu softvfp
 366              		.type	system_time_display, %function
 367              	system_time_display:
 368              	.LFB3:
  96:../../source/src/kernel/OS_CORE/os_time.c **** 
  97:../../source/src/kernel/OS_CORE/os_time.c **** void 
  98:../../source/src/kernel/OS_CORE/os_time.c **** system_time_display(void)
  99:../../source/src/kernel/OS_CORE/os_time.c **** {
 369              		.loc 1 99 0
 370              		.cfi_startproc
 371              		@ args = 0, pretend = 0, frame = 8
 372              		@ frame_needed = 1, uses_anonymous_args = 0
 373 0134 F0B5     		push	{r4, r5, r6, r7, lr}
 374              	.LCFI13:
 375              		.cfi_def_cfa_offset 20
 376              		.cfi_offset 4, -20
 377              		.cfi_offset 5, -16
 378              		.cfi_offset 6, -12
 379              		.cfi_offset 7, -8
 380              		.cfi_offset 14, -4
 381 0136 87B0     		sub	sp, sp, #28
 382              	.LCFI14:
 383              		.cfi_def_cfa_offset 48
 384 0138 04AF     		add	r7, sp, #16
 385              	.LCFI15:
 386              		.cfi_def_cfa 7, 32
 100:../../source/src/kernel/OS_CORE/os_time.c **** 	CPU_SR_ALLOC();
 387              		.loc 1 100 0
 388 013a 0023     		movs	r3, #0
 389 013c 7B60     		str	r3, [r7, #4]
 101:../../source/src/kernel/OS_CORE/os_time.c **** 	CPU_CRITICAL_ENTER();
 390              		.loc 1 101 0
 391 013e FFF7FEFF 		bl	CPU_SR_Save
 392 0142 7860     		str	r0, [r7, #4]
 102:../../source/src/kernel/OS_CORE/os_time.c **** 	ka_printf("%d年%d月%d日--%d时%d分%d秒--星期%d\r\n",sys_time.year,
 393              		.loc 1 102 0
 394 0144 124B     		ldr	r3, .L15
ARM GAS  G:\Users\Jaxb\AppData\Local\Temp\ccO1lhAa.s 			page 10


 395 0146 DB88     		ldrh	r3, [r3, #6]
 396 0148 1C46     		mov	r4, r3
 103:../../source/src/kernel/OS_CORE/os_time.c **** 	sys_time.month,sys_time.date,sys_time.hour,sys_time.minute,sys_time.second,sys_time.day);
 397              		.loc 1 103 0
 398 014a 114B     		ldr	r3, .L15
 399 014c 1B79     		ldrb	r3, [r3, #4]	@ zero_extendqisi2
 102:../../source/src/kernel/OS_CORE/os_time.c **** 	ka_printf("%d年%d月%d日--%d时%d分%d秒--星期%d\r\n",sys_time.year,
 400              		.loc 1 102 0
 401 014e 1D46     		mov	r5, r3
 402              		.loc 1 103 0
 403 0150 0F4B     		ldr	r3, .L15
 404 0152 DB78     		ldrb	r3, [r3, #3]	@ zero_extendqisi2
 102:../../source/src/kernel/OS_CORE/os_time.c **** 	ka_printf("%d年%d月%d日--%d时%d分%d秒--星期%d\r\n",sys_time.year,
 405              		.loc 1 102 0
 406 0154 1E46     		mov	r6, r3
 407              		.loc 1 103 0
 408 0156 0E4B     		ldr	r3, .L15
 409 0158 9B78     		ldrb	r3, [r3, #2]	@ zero_extendqisi2
 102:../../source/src/kernel/OS_CORE/os_time.c **** 	ka_printf("%d年%d月%d日--%d时%d分%d秒--星期%d\r\n",sys_time.year,
 410              		.loc 1 102 0
 411 015a 1A46     		mov	r2, r3
 412              		.loc 1 103 0
 413 015c 0C4B     		ldr	r3, .L15
 414 015e 5B78     		ldrb	r3, [r3, #1]	@ zero_extendqisi2
 102:../../source/src/kernel/OS_CORE/os_time.c **** 	ka_printf("%d年%d月%d日--%d时%d分%d秒--星期%d\r\n",sys_time.year,
 415              		.loc 1 102 0
 416 0160 1946     		mov	r1, r3
 417              		.loc 1 103 0
 418 0162 0B4B     		ldr	r3, .L15
 419 0164 1B78     		ldrb	r3, [r3]	@ zero_extendqisi2
 102:../../source/src/kernel/OS_CORE/os_time.c **** 	ka_printf("%d年%d月%d日--%d时%d分%d秒--星期%d\r\n",sys_time.year,
 420              		.loc 1 102 0
 421 0166 1846     		mov	r0, r3
 422              		.loc 1 103 0
 423 0168 094B     		ldr	r3, .L15
 424 016a 5B79     		ldrb	r3, [r3, #5]	@ zero_extendqisi2
 102:../../source/src/kernel/OS_CORE/os_time.c **** 	ka_printf("%d年%d月%d日--%d时%d分%d秒--星期%d\r\n",sys_time.year,
 425              		.loc 1 102 0
 426 016c 0393     		str	r3, [sp, #12]
 427 016e 0290     		str	r0, [sp, #8]
 428 0170 0191     		str	r1, [sp, #4]
 429 0172 0092     		str	r2, [sp]
 430 0174 3346     		mov	r3, r6
 431 0176 2A46     		mov	r2, r5
 432 0178 2146     		mov	r1, r4
 433 017a 0648     		ldr	r0, .L15+4
 434 017c FFF7FEFF 		bl	ka_printf
 104:../../source/src/kernel/OS_CORE/os_time.c **** 	CPU_CRITICAL_EXIT();
 435              		.loc 1 104 0
 436 0180 7868     		ldr	r0, [r7, #4]
 437 0182 FFF7FEFF 		bl	CPU_SR_Restore
 105:../../source/src/kernel/OS_CORE/os_time.c **** }
 438              		.loc 1 105 0
 439 0186 00BF     		nop
 440 0188 0C37     		adds	r7, r7, #12
 441              	.LCFI16:
 442              		.cfi_def_cfa_offset 20
ARM GAS  G:\Users\Jaxb\AppData\Local\Temp\ccO1lhAa.s 			page 11


 443 018a BD46     		mov	sp, r7
 444              	.LCFI17:
 445              		.cfi_def_cfa_register 13
 446              		@ sp needed
 447 018c F0BD     		pop	{r4, r5, r6, r7, pc}
 448              	.L16:
 449 018e 00BF     		.align	2
 450              	.L15:
 451 0190 08000000 		.word	sys_time
 452 0194 0C000000 		.word	.LC0
 453              		.cfi_endproc
 454              	.LFE3:
 455              		.size	system_time_display, .-system_time_display
 456              		.global	__rtmsym_system_time_display_name
 457              		.section	.rodata.name
 458 001f 00       		.align	2
 459              		.type	__rtmsym_system_time_display_name, %object
 460              		.size	__rtmsym_system_time_display_name, 20
 461              	__rtmsym_system_time_display_name:
 462 0020 73797374 		.ascii	"system_time_display\000"
 462      656D5F74 
 462      696D655F 
 462      64697370 
 462      6C617900 
 463              		.global	__rtmsym_system_time_display
 464              		.section	.RTMSymTab
 465              		.align	2
 466              		.type	__rtmsym_system_time_display, %object
 467              		.size	__rtmsym_system_time_display, 8
 468              	__rtmsym_system_time_display:
 469 0010 00000000 		.word	system_time_display
 470 0014 00000000 		.word	__rtmsym_system_time_display_name
 471              		.section	.rodata
 472 0039 000000   		.align	2
 473              	.LC1:
 474 003c 2E2E2F2E 		.ascii	"../../source/src/kernel/OS_CORE/os_time.c\000"
 474      2E2F736F 
 474      75726365 
 474      2F737263 
 474      2F6B6572 
 475 0066 0000     		.align	2
 476              	.LC2:
 477 0068 6572726F 		.ascii	"error fun name : set_time\012error para : time_ptr\012"
 477      72206675 
 477      6E206E61 
 477      6D65203A 
 477      20736574 
 478 0098 00       		.ascii	"\000"
 479              		.text
 480              		.align	1
 481              		.global	set_time
 482              		.syntax unified
 483              		.thumb
 484              		.thumb_func
 485              		.fpu softvfp
 486              		.type	set_time, %function
 487              	set_time:
ARM GAS  G:\Users\Jaxb\AppData\Local\Temp\ccO1lhAa.s 			page 12


 488              	.LFB4:
 106:../../source/src/kernel/OS_CORE/os_time.c **** EXPORT_SYMBOL(system_time_display);
 107:../../source/src/kernel/OS_CORE/os_time.c **** 
 108:../../source/src/kernel/OS_CORE/os_time.c **** int set_time(struct time *time_ptr)
 109:../../source/src/kernel/OS_CORE/os_time.c **** {
 489              		.loc 1 109 0
 490              		.cfi_startproc
 491              		@ args = 0, pretend = 0, frame = 16
 492              		@ frame_needed = 1, uses_anonymous_args = 0
 493 0198 80B5     		push	{r7, lr}
 494              	.LCFI18:
 495              		.cfi_def_cfa_offset 8
 496              		.cfi_offset 7, -8
 497              		.cfi_offset 14, -4
 498 019a 84B0     		sub	sp, sp, #16
 499              	.LCFI19:
 500              		.cfi_def_cfa_offset 24
 501 019c 00AF     		add	r7, sp, #0
 502              	.LCFI20:
 503              		.cfi_def_cfa_register 7
 504 019e 7860     		str	r0, [r7, #4]
 110:../../source/src/kernel/OS_CORE/os_time.c **** 	ASSERT(NULL != time_ptr);
 505              		.loc 1 110 0
 506 01a0 7B68     		ldr	r3, [r7, #4]
 507 01a2 002B     		cmp	r3, #0
 508 01a4 03D1     		bne	.L18
 509              		.loc 1 110 0 is_stmt 0 discriminator 1
 510 01a6 6E21     		movs	r1, #110
 511 01a8 1A48     		ldr	r0, .L21
 512 01aa FFF7FEFF 		bl	_ASSERT
 513              	.L18:
 111:../../source/src/kernel/OS_CORE/os_time.c **** #if CONFIG_PARA_CHECK
 112:../../source/src/kernel/OS_CORE/os_time.c **** 	if(NULL == time_ptr)
 514              		.loc 1 112 0 is_stmt 1
 515 01ae 7B68     		ldr	r3, [r7, #4]
 516 01b0 002B     		cmp	r3, #0
 517 01b2 05D1     		bne	.L19
 113:../../source/src/kernel/OS_CORE/os_time.c **** 	{
 114:../../source/src/kernel/OS_CORE/os_time.c **** 		OS_ERROR_PARA_MESSAGE_DISPLAY(set_time,time_ptr);
 518              		.loc 1 114 0
 519 01b4 1848     		ldr	r0, .L21+4
 520 01b6 FFF7FEFF 		bl	ka_printf
 115:../../source/src/kernel/OS_CORE/os_time.c **** 		return -ERROR_NULL_INPUT_PTR;
 521              		.loc 1 115 0
 522 01ba 6FF0FE03 		mvn	r3, #254
 523 01be 24E0     		b	.L20
 524              	.L19:
 116:../../source/src/kernel/OS_CORE/os_time.c **** 	}
 117:../../source/src/kernel/OS_CORE/os_time.c **** #endif
 118:../../source/src/kernel/OS_CORE/os_time.c **** 	CPU_SR_ALLOC();
 525              		.loc 1 118 0
 526 01c0 0023     		movs	r3, #0
 527 01c2 FB60     		str	r3, [r7, #12]
 119:../../source/src/kernel/OS_CORE/os_time.c **** 	CPU_CRITICAL_ENTER();
 528              		.loc 1 119 0
 529 01c4 FFF7FEFF 		bl	CPU_SR_Save
 530 01c8 F860     		str	r0, [r7, #12]
ARM GAS  G:\Users\Jaxb\AppData\Local\Temp\ccO1lhAa.s 			page 13


 120:../../source/src/kernel/OS_CORE/os_time.c **** 	sys_time.date    =   time_ptr->date;
 531              		.loc 1 120 0
 532 01ca 7B68     		ldr	r3, [r7, #4]
 533 01cc DA78     		ldrb	r2, [r3, #3]	@ zero_extendqisi2
 534 01ce 134B     		ldr	r3, .L21+8
 535 01d0 DA70     		strb	r2, [r3, #3]
 121:../../source/src/kernel/OS_CORE/os_time.c **** 	sys_time.hour    =   time_ptr->hour;
 536              		.loc 1 121 0
 537 01d2 7B68     		ldr	r3, [r7, #4]
 538 01d4 9A78     		ldrb	r2, [r3, #2]	@ zero_extendqisi2
 539 01d6 114B     		ldr	r3, .L21+8
 540 01d8 9A70     		strb	r2, [r3, #2]
 122:../../source/src/kernel/OS_CORE/os_time.c **** 	sys_time.minute  = 	 time_ptr->minute;
 541              		.loc 1 122 0
 542 01da 7B68     		ldr	r3, [r7, #4]
 543 01dc 5A78     		ldrb	r2, [r3, #1]	@ zero_extendqisi2
 544 01de 0F4B     		ldr	r3, .L21+8
 545 01e0 5A70     		strb	r2, [r3, #1]
 123:../../source/src/kernel/OS_CORE/os_time.c **** 	sys_time.month   =   time_ptr->month;
 546              		.loc 1 123 0
 547 01e2 7B68     		ldr	r3, [r7, #4]
 548 01e4 1A79     		ldrb	r2, [r3, #4]	@ zero_extendqisi2
 549 01e6 0D4B     		ldr	r3, .L21+8
 550 01e8 1A71     		strb	r2, [r3, #4]
 124:../../source/src/kernel/OS_CORE/os_time.c **** 	sys_time.second  =   time_ptr->second;
 551              		.loc 1 124 0
 552 01ea 7B68     		ldr	r3, [r7, #4]
 553 01ec 1A78     		ldrb	r2, [r3]	@ zero_extendqisi2
 554 01ee 0B4B     		ldr	r3, .L21+8
 555 01f0 1A70     		strb	r2, [r3]
 125:../../source/src/kernel/OS_CORE/os_time.c **** 	sys_time.year    =   time_ptr->year;
 556              		.loc 1 125 0
 557 01f2 7B68     		ldr	r3, [r7, #4]
 558 01f4 DA88     		ldrh	r2, [r3, #6]
 559 01f6 094B     		ldr	r3, .L21+8
 560 01f8 DA80     		strh	r2, [r3, #6]	@ movhi
 126:../../source/src/kernel/OS_CORE/os_time.c **** 	sys_time.day     =   time_ptr->day;
 561              		.loc 1 126 0
 562 01fa 7B68     		ldr	r3, [r7, #4]
 563 01fc 5A79     		ldrb	r2, [r3, #5]	@ zero_extendqisi2
 564 01fe 074B     		ldr	r3, .L21+8
 565 0200 5A71     		strb	r2, [r3, #5]
 127:../../source/src/kernel/OS_CORE/os_time.c **** 	CPU_CRITICAL_EXIT();
 566              		.loc 1 127 0
 567 0202 F868     		ldr	r0, [r7, #12]
 568 0204 FFF7FEFF 		bl	CPU_SR_Restore
 128:../../source/src/kernel/OS_CORE/os_time.c **** 	return FUN_EXECUTE_SUCCESSFULLY;
 569              		.loc 1 128 0
 570 0208 0023     		movs	r3, #0
 571              	.L20:
 129:../../source/src/kernel/OS_CORE/os_time.c **** }
 572              		.loc 1 129 0
 573 020a 1846     		mov	r0, r3
 574 020c 1037     		adds	r7, r7, #16
 575              	.LCFI21:
 576              		.cfi_def_cfa_offset 8
 577 020e BD46     		mov	sp, r7
ARM GAS  G:\Users\Jaxb\AppData\Local\Temp\ccO1lhAa.s 			page 14


 578              	.LCFI22:
 579              		.cfi_def_cfa_register 13
 580              		@ sp needed
 581 0210 80BD     		pop	{r7, pc}
 582              	.L22:
 583 0212 00BF     		.align	2
 584              	.L21:
 585 0214 3C000000 		.word	.LC1
 586 0218 68000000 		.word	.LC2
 587 021c 08000000 		.word	sys_time
 588              		.cfi_endproc
 589              	.LFE4:
 590              		.size	set_time, .-set_time
 591              		.global	__rtmsym_set_time_name
 592              		.section	.rodata.name
 593              		.align	2
 594              		.type	__rtmsym_set_time_name, %object
 595              		.size	__rtmsym_set_time_name, 9
 596              	__rtmsym_set_time_name:
 597 0034 7365745F 		.ascii	"set_time\000"
 597      74696D65 
 597      00
 598              		.global	__rtmsym_set_time
 599              		.section	.RTMSymTab
 600              		.align	2
 601              		.type	__rtmsym_set_time, %object
 602              		.size	__rtmsym_set_time, 8
 603              	__rtmsym_set_time:
 604 0018 00000000 		.word	set_time
 605 001c 00000000 		.word	__rtmsym_set_time_name
 606              		.text
 607              	.Letext0:
 608              		.file 2 "../../source/include/os_cpu/kakaosstdint.h"
 609              		.file 3 "../../source/include/os_core/os_time.h"
 610              		.file 4 "../../source/include/os_cpu/os_cpu_stm32.h"
 611              		.file 5 "../../source/include/os_core/export.h"
 612              		.section	.debug_info,"",%progbits
 613              	.Ldebug_info0:
 614 0000 31030000 		.4byte	0x331
 615 0004 0200     		.2byte	0x2
 616 0006 00000000 		.4byte	.Ldebug_abbrev0
 617 000a 04       		.byte	0x4
 618 000b 01       		.uleb128 0x1
 619 000c 1A020000 		.4byte	.LASF39
 620 0010 0C       		.byte	0xc
 621 0011 C1000000 		.4byte	.LASF40
 622 0015 E3020000 		.4byte	.LASF41
 623 0019 00000000 		.4byte	.Ltext0
 624 001d 20020000 		.4byte	.Letext0
 625 0021 00000000 		.4byte	.Ldebug_line0
 626 0025 02       		.uleb128 0x2
 627 0026 01       		.byte	0x1
 628 0027 06       		.byte	0x6
 629 0028 C5020000 		.4byte	.LASF0
 630 002c 02       		.uleb128 0x2
 631 002d 02       		.byte	0x2
 632 002e 05       		.byte	0x5
ARM GAS  G:\Users\Jaxb\AppData\Local\Temp\ccO1lhAa.s 			page 15


 633 002f DA010000 		.4byte	.LASF1
 634 0033 03       		.uleb128 0x3
 635 0034 04       		.byte	0x4
 636 0035 05       		.byte	0x5
 637 0036 696E7400 		.ascii	"int\000"
 638 003a 02       		.uleb128 0x2
 639 003b 08       		.byte	0x8
 640 003c 05       		.byte	0x5
 641 003d 93010000 		.4byte	.LASF2
 642 0041 04       		.uleb128 0x4
 643 0042 3E000000 		.4byte	.LASF4
 644 0046 02       		.byte	0x2
 645 0047 0A       		.byte	0xa
 646 0048 51000000 		.4byte	0x51
 647 004c 05       		.uleb128 0x5
 648 004d 41000000 		.4byte	0x41
 649 0051 02       		.uleb128 0x2
 650 0052 01       		.byte	0x1
 651 0053 08       		.byte	0x8
 652 0054 85000000 		.4byte	.LASF3
 653 0058 04       		.uleb128 0x4
 654 0059 A1010000 		.4byte	.LASF5
 655 005d 02       		.byte	0x2
 656 005e 0B       		.byte	0xb
 657 005f 63000000 		.4byte	0x63
 658 0063 02       		.uleb128 0x2
 659 0064 02       		.byte	0x2
 660 0065 07       		.byte	0x7
 661 0066 9A000000 		.4byte	.LASF6
 662 006a 02       		.uleb128 0x2
 663 006b 04       		.byte	0x4
 664 006c 07       		.byte	0x7
 665 006d 25010000 		.4byte	.LASF7
 666 0071 04       		.uleb128 0x4
 667 0072 93000000 		.4byte	.LASF8
 668 0076 02       		.byte	0x2
 669 0077 0D       		.byte	0xd
 670 0078 81000000 		.4byte	0x81
 671 007c 06       		.uleb128 0x6
 672 007d 71000000 		.4byte	0x71
 673 0081 02       		.uleb128 0x2
 674 0082 08       		.byte	0x8
 675 0083 07       		.byte	0x7
 676 0084 32010000 		.4byte	.LASF9
 677 0088 07       		.uleb128 0x7
 678 0089 6B010000 		.4byte	.LASF18
 679 008d 08       		.byte	0x8
 680 008e 03       		.byte	0x3
 681 008f 13       		.byte	0x13
 682 0090 F7000000 		.4byte	0xf7
 683 0094 08       		.uleb128 0x8
 684 0095 EB000000 		.4byte	.LASF10
 685 0099 03       		.byte	0x3
 686 009a 14       		.byte	0x14
 687 009b 41000000 		.4byte	0x41
 688 009f 02       		.byte	0x2
 689 00a0 23       		.byte	0x23
ARM GAS  G:\Users\Jaxb\AppData\Local\Temp\ccO1lhAa.s 			page 16


 690 00a1 00       		.uleb128 0
 691 00a2 08       		.uleb128 0x8
 692 00a3 49000000 		.4byte	.LASF11
 693 00a7 03       		.byte	0x3
 694 00a8 15       		.byte	0x15
 695 00a9 41000000 		.4byte	0x41
 696 00ad 02       		.byte	0x2
 697 00ae 23       		.byte	0x23
 698 00af 01       		.uleb128 0x1
 699 00b0 08       		.uleb128 0x8
 700 00b1 66010000 		.4byte	.LASF12
 701 00b5 03       		.byte	0x3
 702 00b6 16       		.byte	0x16
 703 00b7 41000000 		.4byte	0x41
 704 00bb 02       		.byte	0x2
 705 00bc 23       		.byte	0x23
 706 00bd 02       		.uleb128 0x2
 707 00be 08       		.uleb128 0x8
 708 00bf 6B000000 		.4byte	.LASF13
 709 00c3 03       		.byte	0x3
 710 00c4 17       		.byte	0x17
 711 00c5 41000000 		.4byte	0x41
 712 00c9 02       		.byte	0x2
 713 00ca 23       		.byte	0x23
 714 00cb 03       		.uleb128 0x3
 715 00cc 08       		.uleb128 0x8
 716 00cd 50000000 		.4byte	.LASF14
 717 00d1 03       		.byte	0x3
 718 00d2 18       		.byte	0x18
 719 00d3 41000000 		.4byte	0x41
 720 00d7 02       		.byte	0x2
 721 00d8 23       		.byte	0x23
 722 00d9 04       		.uleb128 0x4
 723 00da 09       		.uleb128 0x9
 724 00db 64617900 		.ascii	"day\000"
 725 00df 03       		.byte	0x3
 726 00e0 19       		.byte	0x19
 727 00e1 41000000 		.4byte	0x41
 728 00e5 02       		.byte	0x2
 729 00e6 23       		.byte	0x23
 730 00e7 05       		.uleb128 0x5
 731 00e8 08       		.uleb128 0x8
 732 00e9 44000000 		.4byte	.LASF15
 733 00ed 03       		.byte	0x3
 734 00ee 1A       		.byte	0x1a
 735 00ef 58000000 		.4byte	0x58
 736 00f3 02       		.byte	0x2
 737 00f4 23       		.byte	0x23
 738 00f5 06       		.uleb128 0x6
 739 00f6 00       		.byte	0
 740 00f7 04       		.uleb128 0x4
 741 00f8 CF010000 		.4byte	.LASF16
 742 00fc 04       		.byte	0x4
 743 00fd 06       		.byte	0x6
 744 00fe 6A000000 		.4byte	0x6a
 745 0102 04       		.uleb128 0x4
 746 0103 7E000000 		.4byte	.LASF17
ARM GAS  G:\Users\Jaxb\AppData\Local\Temp\ccO1lhAa.s 			page 17


 747 0107 04       		.byte	0x4
 748 0108 08       		.byte	0x8
 749 0109 F7000000 		.4byte	0xf7
 750 010d 07       		.uleb128 0x7
 751 010e 70010000 		.4byte	.LASF19
 752 0112 08       		.byte	0x8
 753 0113 05       		.byte	0x5
 754 0114 08       		.byte	0x8
 755 0115 36010000 		.4byte	0x136
 756 0119 08       		.uleb128 0x8
 757 011a 70000000 		.4byte	.LASF20
 758 011e 05       		.byte	0x5
 759 011f 0A       		.byte	0xa
 760 0120 3B010000 		.4byte	0x13b
 761 0124 02       		.byte	0x2
 762 0125 23       		.byte	0x23
 763 0126 00       		.uleb128 0
 764 0127 08       		.uleb128 0x8
 765 0128 A8010000 		.4byte	.LASF21
 766 012c 05       		.byte	0x5
 767 012d 0B       		.byte	0xb
 768 012e 3D010000 		.4byte	0x13d
 769 0132 02       		.byte	0x2
 770 0133 23       		.byte	0x23
 771 0134 04       		.uleb128 0x4
 772 0135 00       		.byte	0
 773 0136 05       		.uleb128 0x5
 774 0137 0D010000 		.4byte	0x10d
 775 013b 0A       		.uleb128 0xa
 776 013c 04       		.byte	0x4
 777 013d 0B       		.uleb128 0xb
 778 013e 04       		.byte	0x4
 779 013f 4A010000 		.4byte	0x14a
 780 0143 02       		.uleb128 0x2
 781 0144 01       		.byte	0x1
 782 0145 08       		.byte	0x8
 783 0146 C0020000 		.4byte	.LASF22
 784 014a 05       		.uleb128 0x5
 785 014b 43010000 		.4byte	0x143
 786 014f 0C       		.uleb128 0xc
 787 0150 13010000 		.4byte	.LASF23
 788 0154 01       		.byte	0x1
 789 0155 08       		.byte	0x8
 790 0156 7C000000 		.4byte	0x7c
 791 015a 01       		.byte	0x1
 792 015b 05       		.byte	0x5
 793 015c 03       		.byte	0x3
 794 015d 00000000 		.4byte	g_time_tick_count
 795 0161 0D       		.uleb128 0xd
 796 0162 4A010000 		.4byte	0x14a
 797 0166 71010000 		.4byte	0x171
 798 016a 0E       		.uleb128 0xe
 799 016b 6A000000 		.4byte	0x6a
 800 016f 08       		.byte	0x8
 801 0170 00       		.byte	0
 802 0171 05       		.uleb128 0x5
 803 0172 61010000 		.4byte	0x161
ARM GAS  G:\Users\Jaxb\AppData\Local\Temp\ccO1lhAa.s 			page 18


 804 0176 0C       		.uleb128 0xc
 805 0177 17000000 		.4byte	.LASF24
 806 017b 01       		.byte	0x1
 807 017c 14       		.byte	0x14
 808 017d 71010000 		.4byte	0x171
 809 0181 01       		.byte	0x1
 810 0182 05       		.byte	0x5
 811 0183 03       		.byte	0x3
 812 0184 00000000 		.4byte	__rtmsym_get_tick_name
 813 0188 0C       		.uleb128 0xc
 814 0189 81010000 		.4byte	.LASF25
 815 018d 01       		.byte	0x1
 816 018e 14       		.byte	0x14
 817 018f 36010000 		.4byte	0x136
 818 0193 01       		.byte	0x1
 819 0194 05       		.byte	0x5
 820 0195 03       		.byte	0x3
 821 0196 00000000 		.4byte	__rtmsym_get_tick
 822 019a 0F       		.uleb128 0xf
 823 019b 75000000 		.4byte	.LASF26
 824 019f 01       		.byte	0x1
 825 01a0 18       		.byte	0x18
 826 01a1 88000000 		.4byte	0x88
 827 01a5 05       		.byte	0x5
 828 01a6 03       		.byte	0x3
 829 01a7 08000000 		.4byte	sys_time
 830 01ab 0D       		.uleb128 0xd
 831 01ac 4C000000 		.4byte	0x4c
 832 01b0 BB010000 		.4byte	0x1bb
 833 01b4 0E       		.uleb128 0xe
 834 01b5 6A000000 		.4byte	0x6a
 835 01b9 0B       		.byte	0xb
 836 01ba 00       		.byte	0
 837 01bb 05       		.uleb128 0x5
 838 01bc AB010000 		.4byte	0x1ab
 839 01c0 0F       		.uleb128 0xf
 840 01c1 E4010000 		.4byte	.LASF27
 841 01c5 01       		.byte	0x1
 842 01c6 1A       		.byte	0x1a
 843 01c7 BB010000 		.4byte	0x1bb
 844 01cb 05       		.byte	0x5
 845 01cc 03       		.byte	0x3
 846 01cd 00000000 		.4byte	month_date_table
 847 01d1 0D       		.uleb128 0xd
 848 01d2 4A010000 		.4byte	0x14a
 849 01d6 E1010000 		.4byte	0x1e1
 850 01da 0E       		.uleb128 0xe
 851 01db 6A000000 		.4byte	0x6a
 852 01df 12       		.byte	0x12
 853 01e0 00       		.byte	0
 854 01e1 05       		.uleb128 0x5
 855 01e2 D1010000 		.4byte	0x1d1
 856 01e6 0C       		.uleb128 0xc
 857 01e7 F2000000 		.4byte	.LASF28
 858 01eb 01       		.byte	0x1
 859 01ec 34       		.byte	0x34
 860 01ed E1010000 		.4byte	0x1e1
ARM GAS  G:\Users\Jaxb\AppData\Local\Temp\ccO1lhAa.s 			page 19


 861 01f1 01       		.byte	0x1
 862 01f2 05       		.byte	0x5
 863 01f3 03       		.byte	0x3
 864 01f4 00000000 		.4byte	__rtmsym___init_system_time_name
 865 01f8 0C       		.uleb128 0xc
 866 01f9 11030000 		.4byte	.LASF29
 867 01fd 01       		.byte	0x1
 868 01fe 34       		.byte	0x34
 869 01ff 36010000 		.4byte	0x136
 870 0203 01       		.byte	0x1
 871 0204 05       		.byte	0x5
 872 0205 03       		.byte	0x3
 873 0206 00000000 		.4byte	__rtmsym___init_system_time
 874 020a 0D       		.uleb128 0xd
 875 020b 4A010000 		.4byte	0x14a
 876 020f 1A020000 		.4byte	0x21a
 877 0213 0E       		.uleb128 0xe
 878 0214 6A000000 		.4byte	0x6a
 879 0218 13       		.byte	0x13
 880 0219 00       		.byte	0
 881 021a 05       		.uleb128 0x5
 882 021b 0A020000 		.4byte	0x20a
 883 021f 0C       		.uleb128 0xc
 884 0220 AD010000 		.4byte	.LASF30
 885 0224 01       		.byte	0x1
 886 0225 6A       		.byte	0x6a
 887 0226 1A020000 		.4byte	0x21a
 888 022a 01       		.byte	0x1
 889 022b 05       		.byte	0x5
 890 022c 03       		.byte	0x3
 891 022d 00000000 		.4byte	__rtmsym_system_time_display_name
 892 0231 0C       		.uleb128 0xc
 893 0232 49010000 		.4byte	.LASF31
 894 0236 01       		.byte	0x1
 895 0237 6A       		.byte	0x6a
 896 0238 36010000 		.4byte	0x136
 897 023c 01       		.byte	0x1
 898 023d 05       		.byte	0x5
 899 023e 03       		.byte	0x3
 900 023f 00000000 		.4byte	__rtmsym_system_time_display
 901 0243 0C       		.uleb128 0xc
 902 0244 00000000 		.4byte	.LASF32
 903 0248 01       		.byte	0x1
 904 0249 82       		.byte	0x82
 905 024a 71010000 		.4byte	0x171
 906 024e 01       		.byte	0x1
 907 024f 05       		.byte	0x5
 908 0250 03       		.byte	0x3
 909 0251 00000000 		.4byte	__rtmsym_set_time_name
 910 0255 0C       		.uleb128 0xc
 911 0256 08020000 		.4byte	.LASF33
 912 025a 01       		.byte	0x1
 913 025b 82       		.byte	0x82
 914 025c 36010000 		.4byte	0x136
 915 0260 01       		.byte	0x1
 916 0261 05       		.byte	0x5
 917 0262 03       		.byte	0x3
ARM GAS  G:\Users\Jaxb\AppData\Local\Temp\ccO1lhAa.s 			page 20


 918 0263 00000000 		.4byte	__rtmsym_set_time
 919 0267 10       		.uleb128 0x10
 920 0268 01       		.byte	0x1
 921 0269 DA020000 		.4byte	.LASF42
 922 026d 01       		.byte	0x1
 923 026e 6C       		.byte	0x6c
 924 026f 01       		.byte	0x1
 925 0270 33000000 		.4byte	0x33
 926 0274 98010000 		.4byte	.LFB4
 927 0278 20020000 		.4byte	.LFE4
 928 027c 00000000 		.4byte	.LLST4
 929 0280 01       		.byte	0x1
 930 0281 A2020000 		.4byte	0x2a2
 931 0285 11       		.uleb128 0x11
 932 0286 2E000000 		.4byte	.LASF43
 933 028a 01       		.byte	0x1
 934 028b 6C       		.byte	0x6c
 935 028c A2020000 		.4byte	0x2a2
 936 0290 02       		.byte	0x2
 937 0291 91       		.byte	0x91
 938 0292 6C       		.sleb128 -20
 939 0293 0F       		.uleb128 0xf
 940 0294 37000000 		.4byte	.LASF34
 941 0298 01       		.byte	0x1
 942 0299 76       		.byte	0x76
 943 029a 02010000 		.4byte	0x102
 944 029e 02       		.byte	0x2
 945 029f 91       		.byte	0x91
 946 02a0 74       		.sleb128 -12
 947 02a1 00       		.byte	0
 948 02a2 0B       		.uleb128 0xb
 949 02a3 04       		.byte	0x4
 950 02a4 88000000 		.4byte	0x88
 951 02a8 12       		.uleb128 0x12
 952 02a9 01       		.byte	0x1
 953 02aa AD000000 		.4byte	.LASF37
 954 02ae 01       		.byte	0x1
 955 02af 62       		.byte	0x62
 956 02b0 01       		.byte	0x1
 957 02b1 34010000 		.4byte	.LFB3
 958 02b5 98010000 		.4byte	.LFE3
 959 02b9 50000000 		.4byte	.LLST3
 960 02bd 01       		.byte	0x1
 961 02be D1020000 		.4byte	0x2d1
 962 02c2 0F       		.uleb128 0xf
 963 02c3 37000000 		.4byte	.LASF34
 964 02c7 01       		.byte	0x1
 965 02c8 64       		.byte	0x64
 966 02c9 02010000 		.4byte	0x102
 967 02cd 02       		.byte	0x2
 968 02ce 91       		.byte	0x91
 969 02cf 64       		.sleb128 -28
 970 02d0 00       		.byte	0
 971 02d1 13       		.uleb128 0x13
 972 02d2 01       		.byte	0x1
 973 02d3 56000000 		.4byte	.LASF35
 974 02d7 01       		.byte	0x1
ARM GAS  G:\Users\Jaxb\AppData\Local\Temp\ccO1lhAa.s 			page 21


 975 02d8 3E       		.byte	0x3e
 976 02d9 01       		.byte	0x1
 977 02da 6C000000 		.4byte	.LFB2
 978 02de 34010000 		.4byte	.LFE2
 979 02e2 A0000000 		.4byte	.LLST2
 980 02e6 01       		.byte	0x1
 981 02e7 13       		.uleb128 0x13
 982 02e8 01       		.byte	0x1
 983 02e9 F5010000 		.4byte	.LASF36
 984 02ed 01       		.byte	0x1
 985 02ee 2A       		.byte	0x2a
 986 02ef 01       		.byte	0x1
 987 02f0 30000000 		.4byte	.LFB1
 988 02f4 6C000000 		.4byte	.LFE1
 989 02f8 E4000000 		.4byte	.LLST1
 990 02fc 01       		.byte	0x1
 991 02fd 14       		.uleb128 0x14
 992 02fe 01       		.byte	0x1
 993 02ff D1020000 		.4byte	.LASF38
 994 0303 01       		.byte	0x1
 995 0304 0B       		.byte	0xb
 996 0305 01       		.byte	0x1
 997 0306 71000000 		.4byte	0x71
 998 030a 00000000 		.4byte	.LFB0
 999 030e 30000000 		.4byte	.LFE0
 1000 0312 28010000 		.4byte	.LLST0
 1001 0316 01       		.byte	0x1
 1002 0317 15       		.uleb128 0x15
 1003 0318 6E756D00 		.ascii	"num\000"
 1004 031c 01       		.byte	0x1
 1005 031d 0D       		.byte	0xd
 1006 031e 71000000 		.4byte	0x71
 1007 0322 02       		.byte	0x2
 1008 0323 91       		.byte	0x91
 1009 0324 60       		.sleb128 -32
 1010 0325 0F       		.uleb128 0xf
 1011 0326 37000000 		.4byte	.LASF34
 1012 032a 01       		.byte	0x1
 1013 032b 0E       		.byte	0xe
 1014 032c 02010000 		.4byte	0x102
 1015 0330 02       		.byte	0x2
 1016 0331 91       		.byte	0x91
 1017 0332 6C       		.sleb128 -20
 1018 0333 00       		.byte	0
 1019 0334 00       		.byte	0
 1020              		.section	.debug_abbrev,"",%progbits
 1021              	.Ldebug_abbrev0:
 1022 0000 01       		.uleb128 0x1
 1023 0001 11       		.uleb128 0x11
 1024 0002 01       		.byte	0x1
 1025 0003 25       		.uleb128 0x25
 1026 0004 0E       		.uleb128 0xe
 1027 0005 13       		.uleb128 0x13
 1028 0006 0B       		.uleb128 0xb
 1029 0007 03       		.uleb128 0x3
 1030 0008 0E       		.uleb128 0xe
 1031 0009 1B       		.uleb128 0x1b
ARM GAS  G:\Users\Jaxb\AppData\Local\Temp\ccO1lhAa.s 			page 22


 1032 000a 0E       		.uleb128 0xe
 1033 000b 11       		.uleb128 0x11
 1034 000c 01       		.uleb128 0x1
 1035 000d 12       		.uleb128 0x12
 1036 000e 01       		.uleb128 0x1
 1037 000f 10       		.uleb128 0x10
 1038 0010 06       		.uleb128 0x6
 1039 0011 00       		.byte	0
 1040 0012 00       		.byte	0
 1041 0013 02       		.uleb128 0x2
 1042 0014 24       		.uleb128 0x24
 1043 0015 00       		.byte	0
 1044 0016 0B       		.uleb128 0xb
 1045 0017 0B       		.uleb128 0xb
 1046 0018 3E       		.uleb128 0x3e
 1047 0019 0B       		.uleb128 0xb
 1048 001a 03       		.uleb128 0x3
 1049 001b 0E       		.uleb128 0xe
 1050 001c 00       		.byte	0
 1051 001d 00       		.byte	0
 1052 001e 03       		.uleb128 0x3
 1053 001f 24       		.uleb128 0x24
 1054 0020 00       		.byte	0
 1055 0021 0B       		.uleb128 0xb
 1056 0022 0B       		.uleb128 0xb
 1057 0023 3E       		.uleb128 0x3e
 1058 0024 0B       		.uleb128 0xb
 1059 0025 03       		.uleb128 0x3
 1060 0026 08       		.uleb128 0x8
 1061 0027 00       		.byte	0
 1062 0028 00       		.byte	0
 1063 0029 04       		.uleb128 0x4
 1064 002a 16       		.uleb128 0x16
 1065 002b 00       		.byte	0
 1066 002c 03       		.uleb128 0x3
 1067 002d 0E       		.uleb128 0xe
 1068 002e 3A       		.uleb128 0x3a
 1069 002f 0B       		.uleb128 0xb
 1070 0030 3B       		.uleb128 0x3b
 1071 0031 0B       		.uleb128 0xb
 1072 0032 49       		.uleb128 0x49
 1073 0033 13       		.uleb128 0x13
 1074 0034 00       		.byte	0
 1075 0035 00       		.byte	0
 1076 0036 05       		.uleb128 0x5
 1077 0037 26       		.uleb128 0x26
 1078 0038 00       		.byte	0
 1079 0039 49       		.uleb128 0x49
 1080 003a 13       		.uleb128 0x13
 1081 003b 00       		.byte	0
 1082 003c 00       		.byte	0
 1083 003d 06       		.uleb128 0x6
 1084 003e 35       		.uleb128 0x35
 1085 003f 00       		.byte	0
 1086 0040 49       		.uleb128 0x49
 1087 0041 13       		.uleb128 0x13
 1088 0042 00       		.byte	0
ARM GAS  G:\Users\Jaxb\AppData\Local\Temp\ccO1lhAa.s 			page 23


 1089 0043 00       		.byte	0
 1090 0044 07       		.uleb128 0x7
 1091 0045 13       		.uleb128 0x13
 1092 0046 01       		.byte	0x1
 1093 0047 03       		.uleb128 0x3
 1094 0048 0E       		.uleb128 0xe
 1095 0049 0B       		.uleb128 0xb
 1096 004a 0B       		.uleb128 0xb
 1097 004b 3A       		.uleb128 0x3a
 1098 004c 0B       		.uleb128 0xb
 1099 004d 3B       		.uleb128 0x3b
 1100 004e 0B       		.uleb128 0xb
 1101 004f 01       		.uleb128 0x1
 1102 0050 13       		.uleb128 0x13
 1103 0051 00       		.byte	0
 1104 0052 00       		.byte	0
 1105 0053 08       		.uleb128 0x8
 1106 0054 0D       		.uleb128 0xd
 1107 0055 00       		.byte	0
 1108 0056 03       		.uleb128 0x3
 1109 0057 0E       		.uleb128 0xe
 1110 0058 3A       		.uleb128 0x3a
 1111 0059 0B       		.uleb128 0xb
 1112 005a 3B       		.uleb128 0x3b
 1113 005b 0B       		.uleb128 0xb
 1114 005c 49       		.uleb128 0x49
 1115 005d 13       		.uleb128 0x13
 1116 005e 38       		.uleb128 0x38
 1117 005f 0A       		.uleb128 0xa
 1118 0060 00       		.byte	0
 1119 0061 00       		.byte	0
 1120 0062 09       		.uleb128 0x9
 1121 0063 0D       		.uleb128 0xd
 1122 0064 00       		.byte	0
 1123 0065 03       		.uleb128 0x3
 1124 0066 08       		.uleb128 0x8
 1125 0067 3A       		.uleb128 0x3a
 1126 0068 0B       		.uleb128 0xb
 1127 0069 3B       		.uleb128 0x3b
 1128 006a 0B       		.uleb128 0xb
 1129 006b 49       		.uleb128 0x49
 1130 006c 13       		.uleb128 0x13
 1131 006d 38       		.uleb128 0x38
 1132 006e 0A       		.uleb128 0xa
 1133 006f 00       		.byte	0
 1134 0070 00       		.byte	0
 1135 0071 0A       		.uleb128 0xa
 1136 0072 0F       		.uleb128 0xf
 1137 0073 00       		.byte	0
 1138 0074 0B       		.uleb128 0xb
 1139 0075 0B       		.uleb128 0xb
 1140 0076 00       		.byte	0
 1141 0077 00       		.byte	0
 1142 0078 0B       		.uleb128 0xb
 1143 0079 0F       		.uleb128 0xf
 1144 007a 00       		.byte	0
 1145 007b 0B       		.uleb128 0xb
ARM GAS  G:\Users\Jaxb\AppData\Local\Temp\ccO1lhAa.s 			page 24


 1146 007c 0B       		.uleb128 0xb
 1147 007d 49       		.uleb128 0x49
 1148 007e 13       		.uleb128 0x13
 1149 007f 00       		.byte	0
 1150 0080 00       		.byte	0
 1151 0081 0C       		.uleb128 0xc
 1152 0082 34       		.uleb128 0x34
 1153 0083 00       		.byte	0
 1154 0084 03       		.uleb128 0x3
 1155 0085 0E       		.uleb128 0xe
 1156 0086 3A       		.uleb128 0x3a
 1157 0087 0B       		.uleb128 0xb
 1158 0088 3B       		.uleb128 0x3b
 1159 0089 0B       		.uleb128 0xb
 1160 008a 49       		.uleb128 0x49
 1161 008b 13       		.uleb128 0x13
 1162 008c 3F       		.uleb128 0x3f
 1163 008d 0C       		.uleb128 0xc
 1164 008e 02       		.uleb128 0x2
 1165 008f 0A       		.uleb128 0xa
 1166 0090 00       		.byte	0
 1167 0091 00       		.byte	0
 1168 0092 0D       		.uleb128 0xd
 1169 0093 01       		.uleb128 0x1
 1170 0094 01       		.byte	0x1
 1171 0095 49       		.uleb128 0x49
 1172 0096 13       		.uleb128 0x13
 1173 0097 01       		.uleb128 0x1
 1174 0098 13       		.uleb128 0x13
 1175 0099 00       		.byte	0
 1176 009a 00       		.byte	0
 1177 009b 0E       		.uleb128 0xe
 1178 009c 21       		.uleb128 0x21
 1179 009d 00       		.byte	0
 1180 009e 49       		.uleb128 0x49
 1181 009f 13       		.uleb128 0x13
 1182 00a0 2F       		.uleb128 0x2f
 1183 00a1 0B       		.uleb128 0xb
 1184 00a2 00       		.byte	0
 1185 00a3 00       		.byte	0
 1186 00a4 0F       		.uleb128 0xf
 1187 00a5 34       		.uleb128 0x34
 1188 00a6 00       		.byte	0
 1189 00a7 03       		.uleb128 0x3
 1190 00a8 0E       		.uleb128 0xe
 1191 00a9 3A       		.uleb128 0x3a
 1192 00aa 0B       		.uleb128 0xb
 1193 00ab 3B       		.uleb128 0x3b
 1194 00ac 0B       		.uleb128 0xb
 1195 00ad 49       		.uleb128 0x49
 1196 00ae 13       		.uleb128 0x13
 1197 00af 02       		.uleb128 0x2
 1198 00b0 0A       		.uleb128 0xa
 1199 00b1 00       		.byte	0
 1200 00b2 00       		.byte	0
 1201 00b3 10       		.uleb128 0x10
 1202 00b4 2E       		.uleb128 0x2e
ARM GAS  G:\Users\Jaxb\AppData\Local\Temp\ccO1lhAa.s 			page 25


 1203 00b5 01       		.byte	0x1
 1204 00b6 3F       		.uleb128 0x3f
 1205 00b7 0C       		.uleb128 0xc
 1206 00b8 03       		.uleb128 0x3
 1207 00b9 0E       		.uleb128 0xe
 1208 00ba 3A       		.uleb128 0x3a
 1209 00bb 0B       		.uleb128 0xb
 1210 00bc 3B       		.uleb128 0x3b
 1211 00bd 0B       		.uleb128 0xb
 1212 00be 27       		.uleb128 0x27
 1213 00bf 0C       		.uleb128 0xc
 1214 00c0 49       		.uleb128 0x49
 1215 00c1 13       		.uleb128 0x13
 1216 00c2 11       		.uleb128 0x11
 1217 00c3 01       		.uleb128 0x1
 1218 00c4 12       		.uleb128 0x12
 1219 00c5 01       		.uleb128 0x1
 1220 00c6 40       		.uleb128 0x40
 1221 00c7 06       		.uleb128 0x6
 1222 00c8 9642     		.uleb128 0x2116
 1223 00ca 0C       		.uleb128 0xc
 1224 00cb 01       		.uleb128 0x1
 1225 00cc 13       		.uleb128 0x13
 1226 00cd 00       		.byte	0
 1227 00ce 00       		.byte	0
 1228 00cf 11       		.uleb128 0x11
 1229 00d0 05       		.uleb128 0x5
 1230 00d1 00       		.byte	0
 1231 00d2 03       		.uleb128 0x3
 1232 00d3 0E       		.uleb128 0xe
 1233 00d4 3A       		.uleb128 0x3a
 1234 00d5 0B       		.uleb128 0xb
 1235 00d6 3B       		.uleb128 0x3b
 1236 00d7 0B       		.uleb128 0xb
 1237 00d8 49       		.uleb128 0x49
 1238 00d9 13       		.uleb128 0x13
 1239 00da 02       		.uleb128 0x2
 1240 00db 0A       		.uleb128 0xa
 1241 00dc 00       		.byte	0
 1242 00dd 00       		.byte	0
 1243 00de 12       		.uleb128 0x12
 1244 00df 2E       		.uleb128 0x2e
 1245 00e0 01       		.byte	0x1
 1246 00e1 3F       		.uleb128 0x3f
 1247 00e2 0C       		.uleb128 0xc
 1248 00e3 03       		.uleb128 0x3
 1249 00e4 0E       		.uleb128 0xe
 1250 00e5 3A       		.uleb128 0x3a
 1251 00e6 0B       		.uleb128 0xb
 1252 00e7 3B       		.uleb128 0x3b
 1253 00e8 0B       		.uleb128 0xb
 1254 00e9 27       		.uleb128 0x27
 1255 00ea 0C       		.uleb128 0xc
 1256 00eb 11       		.uleb128 0x11
 1257 00ec 01       		.uleb128 0x1
 1258 00ed 12       		.uleb128 0x12
 1259 00ee 01       		.uleb128 0x1
ARM GAS  G:\Users\Jaxb\AppData\Local\Temp\ccO1lhAa.s 			page 26


 1260 00ef 40       		.uleb128 0x40
 1261 00f0 06       		.uleb128 0x6
 1262 00f1 9642     		.uleb128 0x2116
 1263 00f3 0C       		.uleb128 0xc
 1264 00f4 01       		.uleb128 0x1
 1265 00f5 13       		.uleb128 0x13
 1266 00f6 00       		.byte	0
 1267 00f7 00       		.byte	0
 1268 00f8 13       		.uleb128 0x13
 1269 00f9 2E       		.uleb128 0x2e
 1270 00fa 00       		.byte	0
 1271 00fb 3F       		.uleb128 0x3f
 1272 00fc 0C       		.uleb128 0xc
 1273 00fd 03       		.uleb128 0x3
 1274 00fe 0E       		.uleb128 0xe
 1275 00ff 3A       		.uleb128 0x3a
 1276 0100 0B       		.uleb128 0xb
 1277 0101 3B       		.uleb128 0x3b
 1278 0102 0B       		.uleb128 0xb
 1279 0103 27       		.uleb128 0x27
 1280 0104 0C       		.uleb128 0xc
 1281 0105 11       		.uleb128 0x11
 1282 0106 01       		.uleb128 0x1
 1283 0107 12       		.uleb128 0x12
 1284 0108 01       		.uleb128 0x1
 1285 0109 40       		.uleb128 0x40
 1286 010a 06       		.uleb128 0x6
 1287 010b 9742     		.uleb128 0x2117
 1288 010d 0C       		.uleb128 0xc
 1289 010e 00       		.byte	0
 1290 010f 00       		.byte	0
 1291 0110 14       		.uleb128 0x14
 1292 0111 2E       		.uleb128 0x2e
 1293 0112 01       		.byte	0x1
 1294 0113 3F       		.uleb128 0x3f
 1295 0114 0C       		.uleb128 0xc
 1296 0115 03       		.uleb128 0x3
 1297 0116 0E       		.uleb128 0xe
 1298 0117 3A       		.uleb128 0x3a
 1299 0118 0B       		.uleb128 0xb
 1300 0119 3B       		.uleb128 0x3b
 1301 011a 0B       		.uleb128 0xb
 1302 011b 27       		.uleb128 0x27
 1303 011c 0C       		.uleb128 0xc
 1304 011d 49       		.uleb128 0x49
 1305 011e 13       		.uleb128 0x13
 1306 011f 11       		.uleb128 0x11
 1307 0120 01       		.uleb128 0x1
 1308 0121 12       		.uleb128 0x12
 1309 0122 01       		.uleb128 0x1
 1310 0123 40       		.uleb128 0x40
 1311 0124 06       		.uleb128 0x6
 1312 0125 9642     		.uleb128 0x2116
 1313 0127 0C       		.uleb128 0xc
 1314 0128 00       		.byte	0
 1315 0129 00       		.byte	0
 1316 012a 15       		.uleb128 0x15
ARM GAS  G:\Users\Jaxb\AppData\Local\Temp\ccO1lhAa.s 			page 27


 1317 012b 34       		.uleb128 0x34
 1318 012c 00       		.byte	0
 1319 012d 03       		.uleb128 0x3
 1320 012e 08       		.uleb128 0x8
 1321 012f 3A       		.uleb128 0x3a
 1322 0130 0B       		.uleb128 0xb
 1323 0131 3B       		.uleb128 0x3b
 1324 0132 0B       		.uleb128 0xb
 1325 0133 49       		.uleb128 0x49
 1326 0134 13       		.uleb128 0x13
 1327 0135 02       		.uleb128 0x2
 1328 0136 0A       		.uleb128 0xa
 1329 0137 00       		.byte	0
 1330 0138 00       		.byte	0
 1331 0139 00       		.byte	0
 1332              		.section	.debug_loc,"",%progbits
 1333              	.Ldebug_loc0:
 1334              	.LLST4:
 1335 0000 98010000 		.4byte	.LFB4-.Ltext0
 1336 0004 9A010000 		.4byte	.LCFI18-.Ltext0
 1337 0008 0200     		.2byte	0x2
 1338 000a 7D       		.byte	0x7d
 1339 000b 00       		.sleb128 0
 1340 000c 9A010000 		.4byte	.LCFI18-.Ltext0
 1341 0010 9C010000 		.4byte	.LCFI19-.Ltext0
 1342 0014 0200     		.2byte	0x2
 1343 0016 7D       		.byte	0x7d
 1344 0017 08       		.sleb128 8
 1345 0018 9C010000 		.4byte	.LCFI19-.Ltext0
 1346 001c 9E010000 		.4byte	.LCFI20-.Ltext0
 1347 0020 0200     		.2byte	0x2
 1348 0022 7D       		.byte	0x7d
 1349 0023 18       		.sleb128 24
 1350 0024 9E010000 		.4byte	.LCFI20-.Ltext0
 1351 0028 0E020000 		.4byte	.LCFI21-.Ltext0
 1352 002c 0200     		.2byte	0x2
 1353 002e 77       		.byte	0x77
 1354 002f 18       		.sleb128 24
 1355 0030 0E020000 		.4byte	.LCFI21-.Ltext0
 1356 0034 10020000 		.4byte	.LCFI22-.Ltext0
 1357 0038 0200     		.2byte	0x2
 1358 003a 77       		.byte	0x77
 1359 003b 08       		.sleb128 8
 1360 003c 10020000 		.4byte	.LCFI22-.Ltext0
 1361 0040 20020000 		.4byte	.LFE4-.Ltext0
 1362 0044 0200     		.2byte	0x2
 1363 0046 7D       		.byte	0x7d
 1364 0047 08       		.sleb128 8
 1365 0048 00000000 		.4byte	0
 1366 004c 00000000 		.4byte	0
 1367              	.LLST3:
 1368 0050 34010000 		.4byte	.LFB3-.Ltext0
 1369 0054 36010000 		.4byte	.LCFI13-.Ltext0
 1370 0058 0200     		.2byte	0x2
 1371 005a 7D       		.byte	0x7d
 1372 005b 00       		.sleb128 0
 1373 005c 36010000 		.4byte	.LCFI13-.Ltext0
ARM GAS  G:\Users\Jaxb\AppData\Local\Temp\ccO1lhAa.s 			page 28


 1374 0060 38010000 		.4byte	.LCFI14-.Ltext0
 1375 0064 0200     		.2byte	0x2
 1376 0066 7D       		.byte	0x7d
 1377 0067 14       		.sleb128 20
 1378 0068 38010000 		.4byte	.LCFI14-.Ltext0
 1379 006c 3A010000 		.4byte	.LCFI15-.Ltext0
 1380 0070 0200     		.2byte	0x2
 1381 0072 7D       		.byte	0x7d
 1382 0073 30       		.sleb128 48
 1383 0074 3A010000 		.4byte	.LCFI15-.Ltext0
 1384 0078 8A010000 		.4byte	.LCFI16-.Ltext0
 1385 007c 0200     		.2byte	0x2
 1386 007e 77       		.byte	0x77
 1387 007f 20       		.sleb128 32
 1388 0080 8A010000 		.4byte	.LCFI16-.Ltext0
 1389 0084 8C010000 		.4byte	.LCFI17-.Ltext0
 1390 0088 0200     		.2byte	0x2
 1391 008a 77       		.byte	0x77
 1392 008b 14       		.sleb128 20
 1393 008c 8C010000 		.4byte	.LCFI17-.Ltext0
 1394 0090 98010000 		.4byte	.LFE3-.Ltext0
 1395 0094 0200     		.2byte	0x2
 1396 0096 7D       		.byte	0x7d
 1397 0097 14       		.sleb128 20
 1398 0098 00000000 		.4byte	0
 1399 009c 00000000 		.4byte	0
 1400              	.LLST2:
 1401 00a0 6C000000 		.4byte	.LFB2-.Ltext0
 1402 00a4 6E000000 		.4byte	.LCFI9-.Ltext0
 1403 00a8 0200     		.2byte	0x2
 1404 00aa 7D       		.byte	0x7d
 1405 00ab 00       		.sleb128 0
 1406 00ac 6E000000 		.4byte	.LCFI9-.Ltext0
 1407 00b0 70000000 		.4byte	.LCFI10-.Ltext0
 1408 00b4 0200     		.2byte	0x2
 1409 00b6 7D       		.byte	0x7d
 1410 00b7 04       		.sleb128 4
 1411 00b8 70000000 		.4byte	.LCFI10-.Ltext0
 1412 00bc 26010000 		.4byte	.LCFI11-.Ltext0
 1413 00c0 0200     		.2byte	0x2
 1414 00c2 77       		.byte	0x77
 1415 00c3 04       		.sleb128 4
 1416 00c4 26010000 		.4byte	.LCFI11-.Ltext0
 1417 00c8 28010000 		.4byte	.LCFI12-.Ltext0
 1418 00cc 0200     		.2byte	0x2
 1419 00ce 7D       		.byte	0x7d
 1420 00cf 04       		.sleb128 4
 1421 00d0 28010000 		.4byte	.LCFI12-.Ltext0
 1422 00d4 34010000 		.4byte	.LFE2-.Ltext0
 1423 00d8 0200     		.2byte	0x2
 1424 00da 7D       		.byte	0x7d
 1425 00db 00       		.sleb128 0
 1426 00dc 00000000 		.4byte	0
 1427 00e0 00000000 		.4byte	0
 1428              	.LLST1:
 1429 00e4 30000000 		.4byte	.LFB1-.Ltext0
 1430 00e8 32000000 		.4byte	.LCFI5-.Ltext0
ARM GAS  G:\Users\Jaxb\AppData\Local\Temp\ccO1lhAa.s 			page 29


 1431 00ec 0200     		.2byte	0x2
 1432 00ee 7D       		.byte	0x7d
 1433 00ef 00       		.sleb128 0
 1434 00f0 32000000 		.4byte	.LCFI5-.Ltext0
 1435 00f4 34000000 		.4byte	.LCFI6-.Ltext0
 1436 00f8 0200     		.2byte	0x2
 1437 00fa 7D       		.byte	0x7d
 1438 00fb 04       		.sleb128 4
 1439 00fc 34000000 		.4byte	.LCFI6-.Ltext0
 1440 0100 64000000 		.4byte	.LCFI7-.Ltext0
 1441 0104 0200     		.2byte	0x2
 1442 0106 77       		.byte	0x77
 1443 0107 04       		.sleb128 4
 1444 0108 64000000 		.4byte	.LCFI7-.Ltext0
 1445 010c 66000000 		.4byte	.LCFI8-.Ltext0
 1446 0110 0200     		.2byte	0x2
 1447 0112 7D       		.byte	0x7d
 1448 0113 04       		.sleb128 4
 1449 0114 66000000 		.4byte	.LCFI8-.Ltext0
 1450 0118 6C000000 		.4byte	.LFE1-.Ltext0
 1451 011c 0200     		.2byte	0x2
 1452 011e 7D       		.byte	0x7d
 1453 011f 00       		.sleb128 0
 1454 0120 00000000 		.4byte	0
 1455 0124 00000000 		.4byte	0
 1456              	.LLST0:
 1457 0128 00000000 		.4byte	.LFB0-.Ltext0
 1458 012c 02000000 		.4byte	.LCFI0-.Ltext0
 1459 0130 0200     		.2byte	0x2
 1460 0132 7D       		.byte	0x7d
 1461 0133 00       		.sleb128 0
 1462 0134 02000000 		.4byte	.LCFI0-.Ltext0
 1463 0138 04000000 		.4byte	.LCFI1-.Ltext0
 1464 013c 0200     		.2byte	0x2
 1465 013e 7D       		.byte	0x7d
 1466 013f 0C       		.sleb128 12
 1467 0140 04000000 		.4byte	.LCFI1-.Ltext0
 1468 0144 06000000 		.4byte	.LCFI2-.Ltext0
 1469 0148 0200     		.2byte	0x2
 1470 014a 7D       		.byte	0x7d
 1471 014b 20       		.sleb128 32
 1472 014c 06000000 		.4byte	.LCFI2-.Ltext0
 1473 0150 28000000 		.4byte	.LCFI3-.Ltext0
 1474 0154 0200     		.2byte	0x2
 1475 0156 77       		.byte	0x77
 1476 0157 20       		.sleb128 32
 1477 0158 28000000 		.4byte	.LCFI3-.Ltext0
 1478 015c 2A000000 		.4byte	.LCFI4-.Ltext0
 1479 0160 0200     		.2byte	0x2
 1480 0162 77       		.byte	0x77
 1481 0163 0C       		.sleb128 12
 1482 0164 2A000000 		.4byte	.LCFI4-.Ltext0
 1483 0168 30000000 		.4byte	.LFE0-.Ltext0
 1484 016c 0200     		.2byte	0x2
 1485 016e 7D       		.byte	0x7d
 1486 016f 0C       		.sleb128 12
 1487 0170 00000000 		.4byte	0
ARM GAS  G:\Users\Jaxb\AppData\Local\Temp\ccO1lhAa.s 			page 30


 1488 0174 00000000 		.4byte	0
 1489              		.section	.debug_aranges,"",%progbits
 1490 0000 1C000000 		.4byte	0x1c
 1491 0004 0200     		.2byte	0x2
 1492 0006 00000000 		.4byte	.Ldebug_info0
 1493 000a 04       		.byte	0x4
 1494 000b 00       		.byte	0
 1495 000c 0000     		.2byte	0
 1496 000e 0000     		.2byte	0
 1497 0010 00000000 		.4byte	.Ltext0
 1498 0014 20020000 		.4byte	.Letext0-.Ltext0
 1499 0018 00000000 		.4byte	0
 1500 001c 00000000 		.4byte	0
 1501              		.section	.debug_line,"",%progbits
 1502              	.Ldebug_line0:
 1503 0000 1D010000 		.section	.debug_str,"MS",%progbits,1
 1503      0200B600 
 1503      00000201 
 1503      FB0E0D00 
 1503      01010101 
 1504              	.LASF32:
 1505 0000 5F5F7274 		.ascii	"__rtmsym_set_time_name\000"
 1505      6D73796D 
 1505      5F736574 
 1505      5F74696D 
 1505      655F6E61 
 1506              	.LASF24:
 1507 0017 5F5F7274 		.ascii	"__rtmsym_get_tick_name\000"
 1507      6D73796D 
 1507      5F676574 
 1507      5F746963 
 1507      6B5F6E61 
 1508              	.LASF43:
 1509 002e 74696D65 		.ascii	"time_ptr\000"
 1509      5F707472 
 1509      00
 1510              	.LASF34:
 1511 0037 6370755F 		.ascii	"cpu_sr\000"
 1511      737200
 1512              	.LASF4:
 1513 003e 55494E54 		.ascii	"UINT8\000"
 1513      3800
 1514              	.LASF15:
 1515 0044 79656172 		.ascii	"year\000"
 1515      00
 1516              	.LASF11:
 1517 0049 6D696E75 		.ascii	"minute\000"
 1517      746500
 1518              	.LASF14:
 1519 0050 6D6F6E74 		.ascii	"month\000"
 1519      6800
 1520              	.LASF35:
 1521 0056 73797374 		.ascii	"system_time_increase\000"
 1521      656D5F74 
 1521      696D655F 
 1521      696E6372 
 1521      65617365 
ARM GAS  G:\Users\Jaxb\AppData\Local\Temp\ccO1lhAa.s 			page 31


 1522              	.LASF13:
 1523 006b 64617465 		.ascii	"date\000"
 1523      00
 1524              	.LASF20:
 1525 0070 61646472 		.ascii	"addr\000"
 1525      00
 1526              	.LASF26:
 1527 0075 7379735F 		.ascii	"sys_time\000"
 1527      74696D65 
 1527      00
 1528              	.LASF17:
 1529 007e 4350555F 		.ascii	"CPU_SR\000"
 1529      535200
 1530              	.LASF3:
 1531 0085 756E7369 		.ascii	"unsigned char\000"
 1531      676E6564 
 1531      20636861 
 1531      7200
 1532              	.LASF8:
 1533 0093 55494E54 		.ascii	"UINT64\000"
 1533      363400
 1534              	.LASF6:
 1535 009a 73686F72 		.ascii	"short unsigned int\000"
 1535      7420756E 
 1535      7369676E 
 1535      65642069 
 1535      6E7400
 1536              	.LASF37:
 1537 00ad 73797374 		.ascii	"system_time_display\000"
 1537      656D5F74 
 1537      696D655F 
 1537      64697370 
 1537      6C617900 
 1538              	.LASF40:
 1539 00c1 2E2E2F2E 		.ascii	"../../source/src/kernel/OS_CORE/os_time.c\000"
 1539      2E2F736F 
 1539      75726365 
 1539      2F737263 
 1539      2F6B6572 
 1540              	.LASF10:
 1541 00eb 7365636F 		.ascii	"second\000"
 1541      6E6400
 1542              	.LASF28:
 1543 00f2 5F5F7274 		.ascii	"__rtmsym___init_system_time_name\000"
 1543      6D73796D 
 1543      5F5F5F69 
 1543      6E69745F 
 1543      73797374 
 1544              	.LASF23:
 1545 0113 675F7469 		.ascii	"g_time_tick_count\000"
 1545      6D655F74 
 1545      69636B5F 
 1545      636F756E 
 1545      7400
 1546              	.LASF7:
 1547 0125 756E7369 		.ascii	"unsigned int\000"
 1547      676E6564 
ARM GAS  G:\Users\Jaxb\AppData\Local\Temp\ccO1lhAa.s 			page 32


 1547      20696E74 
 1547      00
 1548              	.LASF9:
 1549 0132 6C6F6E67 		.ascii	"long long unsigned int\000"
 1549      206C6F6E 
 1549      6720756E 
 1549      7369676E 
 1549      65642069 
 1550              	.LASF31:
 1551 0149 5F5F7274 		.ascii	"__rtmsym_system_time_display\000"
 1551      6D73796D 
 1551      5F737973 
 1551      74656D5F 
 1551      74696D65 
 1552              	.LASF12:
 1553 0166 686F7572 		.ascii	"hour\000"
 1553      00
 1554              	.LASF18:
 1555 016b 74696D65 		.ascii	"time\000"
 1555      00
 1556              	.LASF19:
 1557 0170 6B615F6D 		.ascii	"ka_module_symtab\000"
 1557      6F64756C 
 1557      655F7379 
 1557      6D746162 
 1557      00
 1558              	.LASF25:
 1559 0181 5F5F7274 		.ascii	"__rtmsym_get_tick\000"
 1559      6D73796D 
 1559      5F676574 
 1559      5F746963 
 1559      6B00
 1560              	.LASF2:
 1561 0193 6C6F6E67 		.ascii	"long long int\000"
 1561      206C6F6E 
 1561      6720696E 
 1561      7400
 1562              	.LASF5:
 1563 01a1 55494E54 		.ascii	"UINT16\000"
 1563      313600
 1564              	.LASF21:
 1565 01a8 6E616D65 		.ascii	"name\000"
 1565      00
 1566              	.LASF30:
 1567 01ad 5F5F7274 		.ascii	"__rtmsym_system_time_display_name\000"
 1567      6D73796D 
 1567      5F737973 
 1567      74656D5F 
 1567      74696D65 
 1568              	.LASF16:
 1569 01cf 4350555F 		.ascii	"CPU_INT32U\000"
 1569      494E5433 
 1569      325500
 1570              	.LASF1:
 1571 01da 73686F72 		.ascii	"short int\000"
 1571      7420696E 
 1571      7400
ARM GAS  G:\Users\Jaxb\AppData\Local\Temp\ccO1lhAa.s 			page 33


 1572              	.LASF27:
 1573 01e4 6D6F6E74 		.ascii	"month_date_table\000"
 1573      685F6461 
 1573      74655F74 
 1573      61626C65 
 1573      00
 1574              	.LASF36:
 1575 01f5 5F5F696E 		.ascii	"__init_system_time\000"
 1575      69745F73 
 1575      79737465 
 1575      6D5F7469 
 1575      6D6500
 1576              	.LASF33:
 1577 0208 5F5F7274 		.ascii	"__rtmsym_set_time\000"
 1577      6D73796D 
 1577      5F736574 
 1577      5F74696D 
 1577      6500
 1578              	.LASF39:
 1579 021a 474E5520 		.ascii	"GNU C11 7.3.1 20180622 (release) [ARM/embedded-7-br"
 1579      43313120 
 1579      372E332E 
 1579      31203230 
 1579      31383036 
 1580 024d 616E6368 		.ascii	"anch revision 261907] -mcpu=cortex-m3 -mthumb -mapc"
 1580      20726576 
 1580      6973696F 
 1580      6E203236 
 1580      31393037 
 1581 0280 732D6672 		.ascii	"s-frame -mthumb-interwork -mcpu=cortex-m3 -mthumb -"
 1581      616D6520 
 1581      2D6D7468 
 1581      756D622D 
 1581      696E7465 
 1582 02b3 67647761 		.ascii	"gdwarf-2 -O0\000"
 1582      72662D32 
 1582      202D4F30 
 1582      00
 1583              	.LASF22:
 1584 02c0 63686172 		.ascii	"char\000"
 1584      00
 1585              	.LASF0:
 1586 02c5 7369676E 		.ascii	"signed char\000"
 1586      65642063 
 1586      68617200 
 1587              	.LASF38:
 1588 02d1 6765745F 		.ascii	"get_tick\000"
 1588      7469636B 
 1588      00
 1589              	.LASF42:
 1590 02da 7365745F 		.ascii	"set_time\000"
 1590      74696D65 
 1590      00
 1591              	.LASF41:
 1592 02e3 463A5C6B 		.ascii	"F:\\kaka\\KAKAOS\\C\\windows\\Project\\RVMDK\243\250"
 1592      616B615C 
 1592      4B414B41 
ARM GAS  G:\Users\Jaxb\AppData\Local\Temp\ccO1lhAa.s 			page 34


 1592      4F535C43 
 1592      5C77696E 
 1593 030b 757635A3 		.ascii	"uv5\243\251\000"
 1593      A900
 1594              	.LASF29:
 1595 0311 5F5F7274 		.ascii	"__rtmsym___init_system_time\000"
 1595      6D73796D 
 1595      5F5F5F69 
 1595      6E69745F 
 1595      73797374 
 1596              		.ident	"GCC: (GNU Tools for Arm Embedded Processors 7-2018-q2-update) 7.3.1 20180622 (release) [AR
ARM GAS  G:\Users\Jaxb\AppData\Local\Temp\ccO1lhAa.s 			page 35


DEFINED SYMBOLS
                            *ABS*:00000000 os_time.c
G:\Users\Jaxb\AppData\Local\Temp\ccO1lhAa.s:20     .bss:00000000 g_time_tick_count
G:\Users\Jaxb\AppData\Local\Temp\ccO1lhAa.s:17     .bss:00000000 $d
G:\Users\Jaxb\AppData\Local\Temp\ccO1lhAa.s:23     .text:00000000 $t
G:\Users\Jaxb\AppData\Local\Temp\ccO1lhAa.s:30     .text:00000000 get_tick
G:\Users\Jaxb\AppData\Local\Temp\ccO1lhAa.s:78     .text:0000002c $d
G:\Users\Jaxb\AppData\Local\Temp\ccO1lhAa.s:87     .rodata.name:00000000 __rtmsym_get_tick_name
G:\Users\Jaxb\AppData\Local\Temp\ccO1lhAa.s:84     .rodata.name:00000000 $d
G:\Users\Jaxb\AppData\Local\Temp\ccO1lhAa.s:94     .RTMSymTab:00000000 __rtmsym_get_tick
G:\Users\Jaxb\AppData\Local\Temp\ccO1lhAa.s:91     .RTMSymTab:00000000 $d
G:\Users\Jaxb\AppData\Local\Temp\ccO1lhAa.s:99     .bss:00000008 sys_time
G:\Users\Jaxb\AppData\Local\Temp\ccO1lhAa.s:103    .rodata:00000000 $d
G:\Users\Jaxb\AppData\Local\Temp\ccO1lhAa.s:106    .rodata:00000000 month_date_table
G:\Users\Jaxb\AppData\Local\Temp\ccO1lhAa.s:120    .text:00000030 $t
G:\Users\Jaxb\AppData\Local\Temp\ccO1lhAa.s:127    .text:00000030 __init_system_time
G:\Users\Jaxb\AppData\Local\Temp\ccO1lhAa.s:183    .text:00000068 $d
G:\Users\Jaxb\AppData\Local\Temp\ccO1lhAa.s:192    .rodata.name:0000000c __rtmsym___init_system_time_name
G:\Users\Jaxb\AppData\Local\Temp\ccO1lhAa.s:199    .RTMSymTab:00000008 __rtmsym___init_system_time
G:\Users\Jaxb\AppData\Local\Temp\ccO1lhAa.s:203    .text:0000006c $t
G:\Users\Jaxb\AppData\Local\Temp\ccO1lhAa.s:210    .text:0000006c system_time_increase
G:\Users\Jaxb\AppData\Local\Temp\ccO1lhAa.s:348    .text:0000012c $d
G:\Users\Jaxb\AppData\Local\Temp\ccO1lhAa.s:360    .text:00000134 $t
G:\Users\Jaxb\AppData\Local\Temp\ccO1lhAa.s:367    .text:00000134 system_time_display
G:\Users\Jaxb\AppData\Local\Temp\ccO1lhAa.s:451    .text:00000190 $d
G:\Users\Jaxb\AppData\Local\Temp\ccO1lhAa.s:461    .rodata.name:00000020 __rtmsym_system_time_display_name
G:\Users\Jaxb\AppData\Local\Temp\ccO1lhAa.s:468    .RTMSymTab:00000010 __rtmsym_system_time_display
G:\Users\Jaxb\AppData\Local\Temp\ccO1lhAa.s:480    .text:00000198 $t
G:\Users\Jaxb\AppData\Local\Temp\ccO1lhAa.s:487    .text:00000198 set_time
G:\Users\Jaxb\AppData\Local\Temp\ccO1lhAa.s:585    .text:00000214 $d
G:\Users\Jaxb\AppData\Local\Temp\ccO1lhAa.s:596    .rodata.name:00000034 __rtmsym_set_time_name
G:\Users\Jaxb\AppData\Local\Temp\ccO1lhAa.s:603    .RTMSymTab:00000018 __rtmsym_set_time

UNDEFINED SYMBOLS
CPU_SR_Save
CPU_SR_Restore
ka_printf
_ASSERT
