ARM GAS  G:\Users\Jaxb\AppData\Local\Temp\cc45sPGH.s 			page 1


   1              		.cpu cortex-m3
   2              		.eabi_attribute 20, 1
   3              		.eabi_attribute 21, 1
   4              		.eabi_attribute 23, 3
   5              		.eabi_attribute 24, 1
   6              		.eabi_attribute 25, 1
   7              		.eabi_attribute 26, 1
   8              		.eabi_attribute 30, 6
   9              		.eabi_attribute 34, 1
  10              		.eabi_attribute 18, 4
  11              		.file	"os_timer.c"
  12              		.text
  13              	.Ltext0:
  14              		.cfi_sections	.debug_frame
  15              		.bss
  16              		.align	2
  17              	timer_heap:
  18 0000 00000000 		.space	28
  18      00000000 
  18      00000000 
  18      00000000 
  18      00000000 
  19              		.size	timer_heap, 28
  20              		.text
  21              		.align	1
  22              		.syntax unified
  23              		.thumb
  24              		.thumb_func
  25              		.fpu softvfp
  26              		.type	cmp, %function
  27              	cmp:
  28              	.LFB13:
  29              		.file 1 "../../source/src/kernel/OS_CORE/os_timer.c"
   1:../../source/src/kernel/OS_CORE/os_timer.c **** #include <os_timer.h>
   2:../../source/src/kernel/OS_CORE/os_timer.c **** #include <os_error.h>
   3:../../source/src/kernel/OS_CORE/os_timer.c **** #include <myassert.h>
   4:../../source/src/kernel/OS_CORE/os_timer.c **** #include <myMicroLIB.h>
   5:../../source/src/kernel/OS_CORE/os_timer.c **** #include <heap_oo.h>
   6:../../source/src/kernel/OS_CORE/os_timer.c **** #include <os_schedule.h>
   7:../../source/src/kernel/OS_CORE/os_timer.c **** #include <os_time.h>
   8:../../source/src/kernel/OS_CORE/os_timer.c **** #include <os_cpu.h>
   9:../../source/src/kernel/OS_CORE/os_timer.c **** #include <export.h>
  10:../../source/src/kernel/OS_CORE/os_timer.c **** 
  11:../../source/src/kernel/OS_CORE/os_timer.c **** #if CONFIG_TIMER_EN
  12:../../source/src/kernel/OS_CORE/os_timer.c **** 
  13:../../source/src/kernel/OS_CORE/os_timer.c **** static struct little_heap timer_heap;
  14:../../source/src/kernel/OS_CORE/os_timer.c **** 
  15:../../source/src/kernel/OS_CORE/os_timer.c **** static int cmp(Vector *Vector_ptr,unsigned int index1,unsigned int index2)
  16:../../source/src/kernel/OS_CORE/os_timer.c **** {
  30              		.loc 1 16 0
  31              		.cfi_startproc
  32              		@ args = 0, pretend = 0, frame = 24
  33              		@ frame_needed = 1, uses_anonymous_args = 0
  34 0000 2DE99048 		push	{r4, r7, fp, lr}
  35              	.LCFI0:
  36              		.cfi_def_cfa_offset 16
  37              		.cfi_offset 4, -16
ARM GAS  G:\Users\Jaxb\AppData\Local\Temp\cc45sPGH.s 			page 2


  38              		.cfi_offset 7, -12
  39              		.cfi_offset 11, -8
  40              		.cfi_offset 14, -4
  41 0004 86B0     		sub	sp, sp, #24
  42              	.LCFI1:
  43              		.cfi_def_cfa_offset 40
  44 0006 00AF     		add	r7, sp, #0
  45              	.LCFI2:
  46              		.cfi_def_cfa_register 7
  47 0008 F860     		str	r0, [r7, #12]
  48 000a B960     		str	r1, [r7, #8]
  49 000c 7A60     		str	r2, [r7, #4]
  17:../../source/src/kernel/OS_CORE/os_timer.c **** 	const struct timer **a, **b;
  18:../../source/src/kernel/OS_CORE/os_timer.c **** 	Vector_get_index_address (Vector_ptr, index1, (void **)&a);
  50              		.loc 1 18 0
  51 000e 07F11403 		add	r3, r7, #20
  52 0012 1A46     		mov	r2, r3
  53 0014 B968     		ldr	r1, [r7, #8]
  54 0016 F868     		ldr	r0, [r7, #12]
  55 0018 FFF7FEFF 		bl	Vector_get_index_address
  19:../../source/src/kernel/OS_CORE/os_timer.c **** 	Vector_get_index_address (Vector_ptr, index2, (void **)&b);
  56              		.loc 1 19 0
  57 001c 07F11003 		add	r3, r7, #16
  58 0020 1A46     		mov	r2, r3
  59 0022 7968     		ldr	r1, [r7, #4]
  60 0024 F868     		ldr	r0, [r7, #12]
  61 0026 FFF7FEFF 		bl	Vector_get_index_address
  20:../../source/src/kernel/OS_CORE/os_timer.c **** 	if (TIME_FIRST_SMALLER_THAN_SECOND((*a)->wake_time,(*b)->wake_time))
  62              		.loc 1 20 0
  63 002a 7B69     		ldr	r3, [r7, #20]
  64 002c 1B68     		ldr	r3, [r3]
  65 002e 03F12004 		add	r4, r3, #32
  66 0032 D4E90034 		ldrd	r3, [r4]
  67 0036 1946     		mov	r1, r3
  68 0038 2246     		mov	r2, r4
  69 003a 3B69     		ldr	r3, [r7, #16]
  70 003c 1B68     		ldr	r3, [r3]
  71 003e 03F12004 		add	r4, r3, #32
  72 0042 D4E90034 		ldrd	r3, [r4]
  73 0046 9B46     		mov	fp, r3
  74 0048 A446     		mov	ip, r4
  75 004a 0B46     		mov	r3, r1
  76 004c 1446     		mov	r4, r2
  77 004e B3EB0B03 		subs	r3, r3, fp
  78 0052 64EB0C04 		sbc	r4, r4, ip
  79 0056 002B     		cmp	r3, #0
  80 0058 74F10003 		sbcs	r3, r4, #0
  81 005c 02DA     		bge	.L2
  21:../../source/src/kernel/OS_CORE/os_timer.c **** 	{
  22:../../source/src/kernel/OS_CORE/os_timer.c **** 	  return -1;
  82              		.loc 1 22 0
  83 005e 4FF0FF33 		mov	r3, #-1
  84 0062 1CE0     		b	.L5
  85              	.L2:
  23:../../source/src/kernel/OS_CORE/os_timer.c **** 	}
  24:../../source/src/kernel/OS_CORE/os_timer.c **** 	else if (TIME_FIRST_BIGGER_THAN_SECOND((*a)->wake_time,(*b)->wake_time))
  86              		.loc 1 24 0
ARM GAS  G:\Users\Jaxb\AppData\Local\Temp\cc45sPGH.s 			page 3


  87 0064 7B69     		ldr	r3, [r7, #20]
  88 0066 1B68     		ldr	r3, [r3]
  89 0068 03F12004 		add	r4, r3, #32
  90 006c D4E90034 		ldrd	r3, [r4]
  91 0070 1946     		mov	r1, r3
  92 0072 2246     		mov	r2, r4
  93 0074 3B69     		ldr	r3, [r7, #16]
  94 0076 1B68     		ldr	r3, [r3]
  95 0078 03F12004 		add	r4, r3, #32
  96 007c D4E90034 		ldrd	r3, [r4]
  97 0080 9B46     		mov	fp, r3
  98 0082 A446     		mov	ip, r4
  99 0084 0B46     		mov	r3, r1
 100 0086 1446     		mov	r4, r2
 101 0088 B3EB0B03 		subs	r3, r3, fp
 102 008c 64EB0C04 		sbc	r4, r4, ip
 103 0090 012B     		cmp	r3, #1
 104 0092 74F10003 		sbcs	r3, r4, #0
 105 0096 01DB     		blt	.L4
  25:../../source/src/kernel/OS_CORE/os_timer.c **** 	{
  26:../../source/src/kernel/OS_CORE/os_timer.c **** 	  return 1;
 106              		.loc 1 26 0
 107 0098 0123     		movs	r3, #1
 108 009a 00E0     		b	.L5
 109              	.L4:
  27:../../source/src/kernel/OS_CORE/os_timer.c **** 	}
  28:../../source/src/kernel/OS_CORE/os_timer.c **** 	else
  29:../../source/src/kernel/OS_CORE/os_timer.c **** 	{
  30:../../source/src/kernel/OS_CORE/os_timer.c **** 	  return 0;
 110              		.loc 1 30 0
 111 009c 0023     		movs	r3, #0
 112              	.L5:
  31:../../source/src/kernel/OS_CORE/os_timer.c **** 	}
  32:../../source/src/kernel/OS_CORE/os_timer.c **** }
 113              		.loc 1 32 0 discriminator 1
 114 009e 1846     		mov	r0, r3
 115 00a0 1837     		adds	r7, r7, #24
 116              	.LCFI3:
 117              		.cfi_def_cfa_offset 16
 118 00a2 BD46     		mov	sp, r7
 119              	.LCFI4:
 120              		.cfi_def_cfa_register 13
 121              		@ sp needed
 122 00a4 BDE89088 		pop	{r4, r7, fp, pc}
 123              		.cfi_endproc
 124              	.LFE13:
 125              		.size	cmp, .-cmp
 126              		.align	1
 127              		.syntax unified
 128              		.thumb
 129              		.thumb_func
 130              		.fpu softvfp
 131              		.type	index_change_record, %function
 132              	index_change_record:
 133              	.LFB14:
  33:../../source/src/kernel/OS_CORE/os_timer.c **** 
  34:../../source/src/kernel/OS_CORE/os_timer.c **** static inline void index_change_record(Vector *Vector_ptr,int index)
ARM GAS  G:\Users\Jaxb\AppData\Local\Temp\cc45sPGH.s 			page 4


  35:../../source/src/kernel/OS_CORE/os_timer.c **** {
 134              		.loc 1 35 0
 135              		.cfi_startproc
 136              		@ args = 0, pretend = 0, frame = 16
 137              		@ frame_needed = 1, uses_anonymous_args = 0
 138 00a8 80B5     		push	{r7, lr}
 139              	.LCFI5:
 140              		.cfi_def_cfa_offset 8
 141              		.cfi_offset 7, -8
 142              		.cfi_offset 14, -4
 143 00aa 84B0     		sub	sp, sp, #16
 144              	.LCFI6:
 145              		.cfi_def_cfa_offset 24
 146 00ac 00AF     		add	r7, sp, #0
 147              	.LCFI7:
 148              		.cfi_def_cfa_register 7
 149 00ae 7860     		str	r0, [r7, #4]
 150 00b0 3960     		str	r1, [r7]
  36:../../source/src/kernel/OS_CORE/os_timer.c **** 	struct timer *timer_ptr;
  37:../../source/src/kernel/OS_CORE/os_timer.c **** 	Vector_get_index_data(Vector_ptr,index,&timer_ptr);
 151              		.loc 1 37 0
 152 00b2 3B68     		ldr	r3, [r7]
 153 00b4 07F10C02 		add	r2, r7, #12
 154 00b8 1946     		mov	r1, r3
 155 00ba 7868     		ldr	r0, [r7, #4]
 156 00bc FFF7FEFF 		bl	Vector_get_index_data
  38:../../source/src/kernel/OS_CORE/os_timer.c **** 	timer_ptr->heap_position_index = index;
 157              		.loc 1 38 0
 158 00c0 FB68     		ldr	r3, [r7, #12]
 159 00c2 3A68     		ldr	r2, [r7]
 160 00c4 9A61     		str	r2, [r3, #24]
  39:../../source/src/kernel/OS_CORE/os_timer.c **** }
 161              		.loc 1 39 0
 162 00c6 00BF     		nop
 163 00c8 1037     		adds	r7, r7, #16
 164              	.LCFI8:
 165              		.cfi_def_cfa_offset 8
 166 00ca BD46     		mov	sp, r7
 167              	.LCFI9:
 168              		.cfi_def_cfa_register 13
 169              		@ sp needed
 170 00cc 80BD     		pop	{r7, pc}
 171              		.cfi_endproc
 172              	.LFE14:
 173              		.size	index_change_record, .-index_change_record
 174              		.section	.rodata
 175              		.align	2
 176              	.LC0:
 177 0000 696E6974 		.ascii	"init_delay_heap error!\012stop booting.....\012\000"
 177      5F64656C 
 177      61795F68 
 177      65617020 
 177      6572726F 
 178              		.text
 179              		.align	1
 180              		.global	__init_timer
 181              		.syntax unified
ARM GAS  G:\Users\Jaxb\AppData\Local\Temp\cc45sPGH.s 			page 5


 182              		.thumb
 183              		.thumb_func
 184              		.fpu softvfp
 185              		.type	__init_timer, %function
 186              	__init_timer:
 187              	.LFB15:
  40:../../source/src/kernel/OS_CORE/os_timer.c **** 
  41:../../source/src/kernel/OS_CORE/os_timer.c **** /**
  42:../../source/src/kernel/OS_CORE/os_timer.c ****  * This is a system function
  43:../../source/src/kernel/OS_CORE/os_timer.c ****  * @Author      kaka
  44:../../source/src/kernel/OS_CORE/os_timer.c ****  * @DateTime    2018-10-03
  45:../../source/src/kernel/OS_CORE/os_timer.c ****  * @description : used while os's initialization
  46:../../source/src/kernel/OS_CORE/os_timer.c ****  */
  47:../../source/src/kernel/OS_CORE/os_timer.c **** void __init_timer(void)
  48:../../source/src/kernel/OS_CORE/os_timer.c **** {
 188              		.loc 1 48 0
 189              		.cfi_startproc
 190              		@ args = 0, pretend = 0, frame = 0
 191              		@ frame_needed = 1, uses_anonymous_args = 0
 192 00ce 80B5     		push	{r7, lr}
 193              	.LCFI10:
 194              		.cfi_def_cfa_offset 8
 195              		.cfi_offset 7, -8
 196              		.cfi_offset 14, -4
 197 00d0 82B0     		sub	sp, sp, #8
 198              	.LCFI11:
 199              		.cfi_def_cfa_offset 16
 200 00d2 02AF     		add	r7, sp, #8
 201              	.LCFI12:
 202              		.cfi_def_cfa 7, 8
  49:../../source/src/kernel/OS_CORE/os_timer.c **** 	if(0 != heap_init(&timer_heap,16,sizeof(struct timer *),cmp,index_change_record))
 203              		.loc 1 49 0
 204 00d4 084B     		ldr	r3, .L11
 205 00d6 0093     		str	r3, [sp]
 206 00d8 084B     		ldr	r3, .L11+4
 207 00da 0422     		movs	r2, #4
 208 00dc 1021     		movs	r1, #16
 209 00de 0848     		ldr	r0, .L11+8
 210 00e0 FFF7FEFF 		bl	heap_init
 211 00e4 0346     		mov	r3, r0
 212 00e6 002B     		cmp	r3, #0
 213 00e8 03D0     		beq	.L10
  50:../../source/src/kernel/OS_CORE/os_timer.c **** 	{
  51:../../source/src/kernel/OS_CORE/os_timer.c **** 		ka_printf("init_delay_heap error!\nstop booting.....\n");
 214              		.loc 1 51 0
 215 00ea 0648     		ldr	r0, .L11+12
 216 00ec FFF7FEFF 		bl	ka_printf
 217              	.L9:
  52:../../source/src/kernel/OS_CORE/os_timer.c **** 		while(1);
 218              		.loc 1 52 0 discriminator 1
 219 00f0 FEE7     		b	.L9
 220              	.L10:
  53:../../source/src/kernel/OS_CORE/os_timer.c **** 		//os stop here
  54:../../source/src/kernel/OS_CORE/os_timer.c **** 	}
  55:../../source/src/kernel/OS_CORE/os_timer.c **** }
 221              		.loc 1 55 0
 222 00f2 00BF     		nop
ARM GAS  G:\Users\Jaxb\AppData\Local\Temp\cc45sPGH.s 			page 6


 223 00f4 BD46     		mov	sp, r7
 224              	.LCFI13:
 225              		.cfi_def_cfa_register 13
 226              		@ sp needed
 227 00f6 80BD     		pop	{r7, pc}
 228              	.L12:
 229              		.align	2
 230              	.L11:
 231 00f8 00000000 		.word	index_change_record
 232 00fc 00000000 		.word	cmp
 233 0100 00000000 		.word	timer_heap
 234 0104 00000000 		.word	.LC0
 235              		.cfi_endproc
 236              	.LFE15:
 237              		.size	__init_timer, .-__init_timer
 238              		.section	.rodata
 239 002a 0000     		.align	2
 240              	.LC1:
 241 002c 2E2E2F2E 		.ascii	"../../source/src/kernel/OS_CORE/os_timer.c\000"
 241      2E2F736F 
 241      75726365 
 241      2F737263 
 241      2F6B6572 
 242 0057 00       		.align	2
 243              	.LC2:
 244 0058 6572726F 		.ascii	"error fun name : timer_init\012error para : timer_p"
 244      72206675 
 244      6E206E61 
 244      6D65203A 
 244      2074696D 
 245 0088 74720A00 		.ascii	"tr\012\000"
 246              		.align	2
 247              	.LC3:
 248 008c 6572726F 		.ascii	"error fun name : timer_init\012error para : name\012"
 248      72206675 
 248      6E206E61 
 248      6D65203A 
 248      2074696D 
 249 00ba 00       		.ascii	"\000"
 250 00bb 00       		.align	2
 251              	.LC4:
 252 00bc 6572726F 		.ascii	"error fun name : timer_init\012error para : fun\012"
 252      72206675 
 252      6E206E61 
 252      6D65203A 
 252      2074696D 
 253 00e9 00       		.ascii	"\000"
 254              		.text
 255              		.align	1
 256              		.global	timer_init
 257              		.syntax unified
 258              		.thumb
 259              		.thumb_func
 260              		.fpu softvfp
 261              		.type	timer_init, %function
 262              	timer_init:
 263              	.LFB16:
ARM GAS  G:\Users\Jaxb\AppData\Local\Temp\cc45sPGH.s 			page 7


  56:../../source/src/kernel/OS_CORE/os_timer.c **** 
  57:../../source/src/kernel/OS_CORE/os_timer.c **** /**
  58:../../source/src/kernel/OS_CORE/os_timer.c ****  * This is a system function
  59:../../source/src/kernel/OS_CORE/os_timer.c ****  * @Author      kaka
  60:../../source/src/kernel/OS_CORE/os_timer.c ****  * @DateTime    2018-10-03
  61:../../source/src/kernel/OS_CORE/os_timer.c ****  * @description : initialize the timer
  62:../../source/src/kernel/OS_CORE/os_timer.c ****  */
  63:../../source/src/kernel/OS_CORE/os_timer.c **** int timer_init(
  64:../../source/src/kernel/OS_CORE/os_timer.c **** 	struct timer *timer_ptr,
  65:../../source/src/kernel/OS_CORE/os_timer.c **** 	TIMER_TYPE type,
  66:../../source/src/kernel/OS_CORE/os_timer.c **** 	char *name,
  67:../../source/src/kernel/OS_CORE/os_timer.c **** 	void (*fun)(void *para),
  68:../../source/src/kernel/OS_CORE/os_timer.c **** 	void *para,
  69:../../source/src/kernel/OS_CORE/os_timer.c **** 	unsigned int period,
  70:../../source/src/kernel/OS_CORE/os_timer.c **** 	unsigned int num)
  71:../../source/src/kernel/OS_CORE/os_timer.c **** {
 264              		.loc 1 71 0
 265              		.cfi_startproc
 266              		@ args = 12, pretend = 0, frame = 16
 267              		@ frame_needed = 1, uses_anonymous_args = 0
 268 0108 80B5     		push	{r7, lr}
 269              	.LCFI14:
 270              		.cfi_def_cfa_offset 8
 271              		.cfi_offset 7, -8
 272              		.cfi_offset 14, -4
 273 010a 84B0     		sub	sp, sp, #16
 274              	.LCFI15:
 275              		.cfi_def_cfa_offset 24
 276 010c 00AF     		add	r7, sp, #0
 277              	.LCFI16:
 278              		.cfi_def_cfa_register 7
 279 010e F860     		str	r0, [r7, #12]
 280 0110 7A60     		str	r2, [r7, #4]
 281 0112 3B60     		str	r3, [r7]
 282 0114 0B46     		mov	r3, r1
 283 0116 FB72     		strb	r3, [r7, #11]
  72:../../source/src/kernel/OS_CORE/os_timer.c **** 	ASSERT((NULL != timer_ptr) && (NULL != name) && (NULL != fun));
 284              		.loc 1 72 0
 285 0118 FB68     		ldr	r3, [r7, #12]
 286 011a 002B     		cmp	r3, #0
 287 011c 05D0     		beq	.L14
 288              		.loc 1 72 0 is_stmt 0 discriminator 1
 289 011e 7B68     		ldr	r3, [r7, #4]
 290 0120 002B     		cmp	r3, #0
 291 0122 02D0     		beq	.L14
 292              		.loc 1 72 0 discriminator 3
 293 0124 3B68     		ldr	r3, [r7]
 294 0126 002B     		cmp	r3, #0
 295 0128 03D1     		bne	.L15
 296              	.L14:
 297              		.loc 1 72 0 discriminator 5
 298 012a 4821     		movs	r1, #72
 299 012c 1C48     		ldr	r0, .L20
 300 012e FFF7FEFF 		bl	_ASSERT
 301              	.L15:
  73:../../source/src/kernel/OS_CORE/os_timer.c **** 	if((NULL == timer_ptr) || (NULL == name) || (NULL == fun))
 302              		.loc 1 73 0 is_stmt 1
ARM GAS  G:\Users\Jaxb\AppData\Local\Temp\cc45sPGH.s 			page 8


 303 0132 FB68     		ldr	r3, [r7, #12]
 304 0134 002B     		cmp	r3, #0
 305 0136 05D0     		beq	.L16
 306              		.loc 1 73 0 is_stmt 0 discriminator 1
 307 0138 7B68     		ldr	r3, [r7, #4]
 308 013a 002B     		cmp	r3, #0
 309 013c 02D0     		beq	.L16
 310              		.loc 1 73 0 discriminator 2
 311 013e 3B68     		ldr	r3, [r7]
 312 0140 002B     		cmp	r3, #0
 313 0142 0BD1     		bne	.L17
 314              	.L16:
  74:../../source/src/kernel/OS_CORE/os_timer.c **** 	{
  75:../../source/src/kernel/OS_CORE/os_timer.c **** 		OS_ERROR_PARA_MESSAGE_DISPLAY(timer_init,timer_ptr);
 315              		.loc 1 75 0 is_stmt 1
 316 0144 1748     		ldr	r0, .L20+4
 317 0146 FFF7FEFF 		bl	ka_printf
  76:../../source/src/kernel/OS_CORE/os_timer.c **** 		OS_ERROR_PARA_MESSAGE_DISPLAY(timer_init,name);
 318              		.loc 1 76 0
 319 014a 1748     		ldr	r0, .L20+8
 320 014c FFF7FEFF 		bl	ka_printf
  77:../../source/src/kernel/OS_CORE/os_timer.c **** 		OS_ERROR_PARA_MESSAGE_DISPLAY(timer_init,fun);
 321              		.loc 1 77 0
 322 0150 1648     		ldr	r0, .L20+12
 323 0152 FFF7FEFF 		bl	ka_printf
  78:../../source/src/kernel/OS_CORE/os_timer.c **** 		return -ERROR_NULL_INPUT_PTR;
 324              		.loc 1 78 0
 325 0156 6FF0FE03 		mvn	r3, #254
 326 015a 1CE0     		b	.L18
 327              	.L17:
  79:../../source/src/kernel/OS_CORE/os_timer.c **** 	}
  80:../../source/src/kernel/OS_CORE/os_timer.c **** 	if (g_interrupt_count > 0)
 328              		.loc 1 80 0
 329 015c 144B     		ldr	r3, .L20+16
 330 015e 1B68     		ldr	r3, [r3]
 331 0160 002B     		cmp	r3, #0
 332 0162 02DD     		ble	.L19
  81:../../source/src/kernel/OS_CORE/os_timer.c **** 	{
  82:../../source/src/kernel/OS_CORE/os_timer.c **** 		return -ERROR_FUN_USE_IN_INTER;
 333              		.loc 1 82 0
 334 0164 6FF0FC03 		mvn	r3, #252
 335 0168 15E0     		b	.L18
 336              	.L19:
  83:../../source/src/kernel/OS_CORE/os_timer.c **** 	}
  84:../../source/src/kernel/OS_CORE/os_timer.c **** 	timer_ptr->type  			= type;
 337              		.loc 1 84 0
 338 016a FB68     		ldr	r3, [r7, #12]
 339 016c FA7A     		ldrb	r2, [r7, #11]
 340 016e 1A70     		strb	r2, [r3]
  85:../../source/src/kernel/OS_CORE/os_timer.c **** 	timer_ptr->state 			= DISABLE;
 341              		.loc 1 85 0
 342 0170 FB68     		ldr	r3, [r7, #12]
 343 0172 0022     		movs	r2, #0
 344 0174 5A70     		strb	r2, [r3, #1]
  86:../../source/src/kernel/OS_CORE/os_timer.c **** 	timer_ptr->timer_name 		= name;
 345              		.loc 1 86 0
 346 0176 FB68     		ldr	r3, [r7, #12]
ARM GAS  G:\Users\Jaxb\AppData\Local\Temp\cc45sPGH.s 			page 9


 347 0178 7A68     		ldr	r2, [r7, #4]
 348 017a 9A60     		str	r2, [r3, #8]
  87:../../source/src/kernel/OS_CORE/os_timer.c **** 	timer_ptr->fun 				= fun;
 349              		.loc 1 87 0
 350 017c FB68     		ldr	r3, [r7, #12]
 351 017e 3A68     		ldr	r2, [r7]
 352 0180 DA60     		str	r2, [r3, #12]
  88:../../source/src/kernel/OS_CORE/os_timer.c **** 	timer_ptr->para 			= para;
 353              		.loc 1 88 0
 354 0182 FB68     		ldr	r3, [r7, #12]
 355 0184 BA69     		ldr	r2, [r7, #24]
 356 0186 1A61     		str	r2, [r3, #16]
  89:../../source/src/kernel/OS_CORE/os_timer.c **** 	timer_ptr->period 			= period;
 357              		.loc 1 89 0
 358 0188 FB68     		ldr	r3, [r7, #12]
 359 018a FA69     		ldr	r2, [r7, #28]
 360 018c 5A61     		str	r2, [r3, #20]
  90:../../source/src/kernel/OS_CORE/os_timer.c **** 	timer_ptr->rest_num 		= INIT_REST_NUM(num);
 361              		.loc 1 90 0
 362 018e FB68     		ldr	r3, [r7, #12]
 363 0190 3A6A     		ldr	r2, [r7, #32]
 364 0192 5A60     		str	r2, [r3, #4]
  91:../../source/src/kernel/OS_CORE/os_timer.c **** 	return FUN_EXECUTE_SUCCESSFULLY;
 365              		.loc 1 91 0
 366 0194 0023     		movs	r3, #0
 367              	.L18:
  92:../../source/src/kernel/OS_CORE/os_timer.c **** }
 368              		.loc 1 92 0
 369 0196 1846     		mov	r0, r3
 370 0198 1037     		adds	r7, r7, #16
 371              	.LCFI17:
 372              		.cfi_def_cfa_offset 8
 373 019a BD46     		mov	sp, r7
 374              	.LCFI18:
 375              		.cfi_def_cfa_register 13
 376              		@ sp needed
 377 019c 80BD     		pop	{r7, pc}
 378              	.L21:
 379 019e 00BF     		.align	2
 380              	.L20:
 381 01a0 2C000000 		.word	.LC1
 382 01a4 58000000 		.word	.LC2
 383 01a8 8C000000 		.word	.LC3
 384 01ac BC000000 		.word	.LC4
 385 01b0 00000000 		.word	g_interrupt_count
 386              		.cfi_endproc
 387              	.LFE16:
 388              		.size	timer_init, .-timer_init
 389              		.global	__rtmsym_timer_init_name
 390              		.section	.rodata.name,"a",%progbits
 391              		.align	2
 392              		.type	__rtmsym_timer_init_name, %object
 393              		.size	__rtmsym_timer_init_name, 11
 394              	__rtmsym_timer_init_name:
 395 0000 74696D65 		.ascii	"timer_init\000"
 395      725F696E 
 395      697400
ARM GAS  G:\Users\Jaxb\AppData\Local\Temp\cc45sPGH.s 			page 10


 396              		.global	__rtmsym_timer_init
 397              		.section	.RTMSymTab,"a",%progbits
 398              		.align	2
 399              		.type	__rtmsym_timer_init, %object
 400              		.size	__rtmsym_timer_init, 8
 401              	__rtmsym_timer_init:
 402 0000 00000000 		.word	timer_init
 403 0004 00000000 		.word	__rtmsym_timer_init_name
 404              		.text
 405              		.align	1
 406              		.global	timer_create
 407              		.syntax unified
 408              		.thumb
 409              		.thumb_func
 410              		.fpu softvfp
 411              		.type	timer_create, %function
 412              	timer_create:
 413              	.LFB17:
  93:../../source/src/kernel/OS_CORE/os_timer.c **** EXPORT_SYMBOL(timer_init);
  94:../../source/src/kernel/OS_CORE/os_timer.c **** 
  95:../../source/src/kernel/OS_CORE/os_timer.c **** /**
  96:../../source/src/kernel/OS_CORE/os_timer.c ****  * This is a system function
  97:../../source/src/kernel/OS_CORE/os_timer.c ****  * @Author      kaka
  98:../../source/src/kernel/OS_CORE/os_timer.c ****  * @DateTime    2018-10-03
  99:../../source/src/kernel/OS_CORE/os_timer.c ****  * @description : create and initialize the timer
 100:../../source/src/kernel/OS_CORE/os_timer.c ****  */
 101:../../source/src/kernel/OS_CORE/os_timer.c **** int timer_create(
 102:../../source/src/kernel/OS_CORE/os_timer.c **** 	struct timer **timer_ptr,
 103:../../source/src/kernel/OS_CORE/os_timer.c **** 	TIMER_TYPE type,
 104:../../source/src/kernel/OS_CORE/os_timer.c **** 	char *name,
 105:../../source/src/kernel/OS_CORE/os_timer.c **** 	void (*fun)(void *para),
 106:../../source/src/kernel/OS_CORE/os_timer.c **** 	void *para,
 107:../../source/src/kernel/OS_CORE/os_timer.c **** 	unsigned int period,
 108:../../source/src/kernel/OS_CORE/os_timer.c **** 	unsigned int num)
 109:../../source/src/kernel/OS_CORE/os_timer.c **** {
 414              		.loc 1 109 0
 415              		.cfi_startproc
 416              		@ args = 12, pretend = 0, frame = 24
 417              		@ frame_needed = 1, uses_anonymous_args = 0
 418 01b4 80B5     		push	{r7, lr}
 419              	.LCFI19:
 420              		.cfi_def_cfa_offset 8
 421              		.cfi_offset 7, -8
 422              		.cfi_offset 14, -4
 423 01b6 8AB0     		sub	sp, sp, #40
 424              	.LCFI20:
 425              		.cfi_def_cfa_offset 48
 426 01b8 04AF     		add	r7, sp, #16
 427              	.LCFI21:
 428              		.cfi_def_cfa 7, 32
 429 01ba F860     		str	r0, [r7, #12]
 430 01bc 7A60     		str	r2, [r7, #4]
 431 01be 3B60     		str	r3, [r7]
 432 01c0 0B46     		mov	r3, r1
 433 01c2 FB72     		strb	r3, [r7, #11]
 110:../../source/src/kernel/OS_CORE/os_timer.c **** 	struct timer *ptr;
 111:../../source/src/kernel/OS_CORE/os_timer.c **** 	ptr = ka_malloc(sizeof(struct timer));
ARM GAS  G:\Users\Jaxb\AppData\Local\Temp\cc45sPGH.s 			page 11


 434              		.loc 1 111 0
 435 01c4 2820     		movs	r0, #40
 436 01c6 FFF7FEFF 		bl	ka_malloc
 437 01ca 7861     		str	r0, [r7, #20]
 112:../../source/src/kernel/OS_CORE/os_timer.c **** 	if(NULL == ptr)
 438              		.loc 1 112 0
 439 01cc 7B69     		ldr	r3, [r7, #20]
 440 01ce 002B     		cmp	r3, #0
 441 01d0 02D1     		bne	.L23
 113:../../source/src/kernel/OS_CORE/os_timer.c **** 	{
 114:../../source/src/kernel/OS_CORE/os_timer.c **** 		return -ERROR_NO_MEM;
 442              		.loc 1 114 0
 443 01d2 6FF0FA03 		mvn	r3, #250
 444 01d6 17E0     		b	.L24
 445              	.L23:
 115:../../source/src/kernel/OS_CORE/os_timer.c **** 	}
 116:../../source/src/kernel/OS_CORE/os_timer.c **** 	if(NULL != timer_ptr)
 446              		.loc 1 116 0
 447 01d8 FB68     		ldr	r3, [r7, #12]
 448 01da 002B     		cmp	r3, #0
 449 01dc 02D0     		beq	.L25
 117:../../source/src/kernel/OS_CORE/os_timer.c **** 	{
 118:../../source/src/kernel/OS_CORE/os_timer.c **** 		*timer_ptr = ptr;
 450              		.loc 1 118 0
 451 01de FB68     		ldr	r3, [r7, #12]
 452 01e0 7A69     		ldr	r2, [r7, #20]
 453 01e2 1A60     		str	r2, [r3]
 454              	.L25:
 119:../../source/src/kernel/OS_CORE/os_timer.c **** 	}
 120:../../source/src/kernel/OS_CORE/os_timer.c **** 	timer_init(ptr,type,name,fun,para,period,num);
 455              		.loc 1 120 0
 456 01e4 F97A     		ldrb	r1, [r7, #11]	@ zero_extendqisi2
 457 01e6 BB6A     		ldr	r3, [r7, #40]
 458 01e8 0293     		str	r3, [sp, #8]
 459 01ea 7B6A     		ldr	r3, [r7, #36]
 460 01ec 0193     		str	r3, [sp, #4]
 461 01ee 3B6A     		ldr	r3, [r7, #32]
 462 01f0 0093     		str	r3, [sp]
 463 01f2 3B68     		ldr	r3, [r7]
 464 01f4 7A68     		ldr	r2, [r7, #4]
 465 01f6 7869     		ldr	r0, [r7, #20]
 466 01f8 FFF7FEFF 		bl	timer_init
 121:../../source/src/kernel/OS_CORE/os_timer.c **** 	ptr->rest_num = CREAT_REST_NUM(num);
 467              		.loc 1 121 0
 468 01fc BB6A     		ldr	r3, [r7, #40]
 469 01fe 43F00042 		orr	r2, r3, #-2147483648
 470 0202 7B69     		ldr	r3, [r7, #20]
 471 0204 5A60     		str	r2, [r3, #4]
 122:../../source/src/kernel/OS_CORE/os_timer.c **** 	return FUN_EXECUTE_SUCCESSFULLY;
 472              		.loc 1 122 0
 473 0206 0023     		movs	r3, #0
 474              	.L24:
 123:../../source/src/kernel/OS_CORE/os_timer.c **** }
 475              		.loc 1 123 0
 476 0208 1846     		mov	r0, r3
 477 020a 1837     		adds	r7, r7, #24
 478              	.LCFI22:
ARM GAS  G:\Users\Jaxb\AppData\Local\Temp\cc45sPGH.s 			page 12


 479              		.cfi_def_cfa_offset 8
 480 020c BD46     		mov	sp, r7
 481              	.LCFI23:
 482              		.cfi_def_cfa_register 13
 483              		@ sp needed
 484 020e 80BD     		pop	{r7, pc}
 485              		.cfi_endproc
 486              	.LFE17:
 487              		.size	timer_create, .-timer_create
 488              		.global	__rtmsym_timer_create_name
 489              		.section	.rodata.name
 490 000b 00       		.align	2
 491              		.type	__rtmsym_timer_create_name, %object
 492              		.size	__rtmsym_timer_create_name, 13
 493              	__rtmsym_timer_create_name:
 494 000c 74696D65 		.ascii	"timer_create\000"
 494      725F6372 
 494      65617465 
 494      00
 495              		.global	__rtmsym_timer_create
 496              		.section	.RTMSymTab
 497              		.align	2
 498              		.type	__rtmsym_timer_create, %object
 499              		.size	__rtmsym_timer_create, 8
 500              	__rtmsym_timer_create:
 501 0008 00000000 		.word	timer_create
 502 000c 00000000 		.word	__rtmsym_timer_create_name
 503              		.text
 504              		.align	1
 505              		.global	_timer_enable
 506              		.syntax unified
 507              		.thumb
 508              		.thumb_func
 509              		.fpu softvfp
 510              		.type	_timer_enable, %function
 511              	_timer_enable:
 512              	.LFB18:
 124:../../source/src/kernel/OS_CORE/os_timer.c **** EXPORT_SYMBOL(timer_create);
 125:../../source/src/kernel/OS_CORE/os_timer.c **** 
 126:../../source/src/kernel/OS_CORE/os_timer.c **** /**
 127:../../source/src/kernel/OS_CORE/os_timer.c ****  * This is a system function
 128:../../source/src/kernel/OS_CORE/os_timer.c ****  * @Author      kaka
 129:../../source/src/kernel/OS_CORE/os_timer.c ****  * @DateTime    2018-10-03
 130:../../source/src/kernel/OS_CORE/os_timer.c ****  * @description : after using timer_create(), use this function to 
 131:../../source/src/kernel/OS_CORE/os_timer.c ****  * activate the timer
 132:../../source/src/kernel/OS_CORE/os_timer.c ****  * @param       timer_ptr  
 133:../../source/src/kernel/OS_CORE/os_timer.c ****  * @return      0 means success
 134:../../source/src/kernel/OS_CORE/os_timer.c ****  */
 135:../../source/src/kernel/OS_CORE/os_timer.c **** int _timer_enable(struct timer *timer_ptr)
 136:../../source/src/kernel/OS_CORE/os_timer.c **** {
 513              		.loc 1 136 0
 514              		.cfi_startproc
 515              		@ args = 0, pretend = 0, frame = 16
 516              		@ frame_needed = 1, uses_anonymous_args = 0
 517 0210 2DE9B048 		push	{r4, r5, r7, fp, lr}
 518              	.LCFI24:
 519              		.cfi_def_cfa_offset 20
ARM GAS  G:\Users\Jaxb\AppData\Local\Temp\cc45sPGH.s 			page 13


 520              		.cfi_offset 4, -20
 521              		.cfi_offset 5, -16
 522              		.cfi_offset 7, -12
 523              		.cfi_offset 11, -8
 524              		.cfi_offset 14, -4
 525 0214 85B0     		sub	sp, sp, #20
 526              	.LCFI25:
 527              		.cfi_def_cfa_offset 40
 528 0216 00AF     		add	r7, sp, #0
 529              	.LCFI26:
 530              		.cfi_def_cfa_register 7
 531 0218 7860     		str	r0, [r7, #4]
 137:../../source/src/kernel/OS_CORE/os_timer.c **** 	ASSERT(NULL != timer_ptr);
 532              		.loc 1 137 0
 533 021a 7B68     		ldr	r3, [r7, #4]
 534 021c 002B     		cmp	r3, #0
 535 021e 03D1     		bne	.L27
 536              		.loc 1 137 0 is_stmt 0 discriminator 1
 537 0220 8921     		movs	r1, #137
 538 0222 1648     		ldr	r0, .L29
 539 0224 FFF7FEFF 		bl	_ASSERT
 540              	.L27:
 138:../../source/src/kernel/OS_CORE/os_timer.c **** 	CPU_SR_ALLOC();
 541              		.loc 1 138 0 is_stmt 1
 542 0228 0023     		movs	r3, #0
 543 022a FB60     		str	r3, [r7, #12]
 139:../../source/src/kernel/OS_CORE/os_timer.c **** 	CPU_CRITICAL_ENTER();
 544              		.loc 1 139 0
 545 022c FFF7FEFF 		bl	CPU_SR_Save
 546 0230 F860     		str	r0, [r7, #12]
 140:../../source/src/kernel/OS_CORE/os_timer.c **** 	timer_ptr->state = ENABLE;
 547              		.loc 1 140 0
 548 0232 7B68     		ldr	r3, [r7, #4]
 549 0234 0122     		movs	r2, #1
 550 0236 5A70     		strb	r2, [r3, #1]
 141:../../source/src/kernel/OS_CORE/os_timer.c **** 	timer_ptr->wake_time = timer_ptr->period + _get_tick();
 551              		.loc 1 141 0
 552 0238 7B68     		ldr	r3, [r7, #4]
 553 023a 5B69     		ldr	r3, [r3, #20]
 554 023c 1C46     		mov	r4, r3
 555 023e 4FF00005 		mov	r5, #0
 556 0242 FFF7FEFF 		bl	_get_tick
 557 0246 0246     		mov	r2, r0
 558 0248 0B46     		mov	r3, r1
 559 024a 7968     		ldr	r1, [r7, #4]
 560 024c 14EB020B 		adds	fp, r4, r2
 561 0250 45EB030C 		adc	ip, r5, r3
 562 0254 5B46     		mov	r3, fp
 563 0256 6446     		mov	r4, ip
 564 0258 C1E90834 		strd	r3, [r1, #32]
 142:../../source/src/kernel/OS_CORE/os_timer.c **** 	int ret = heap_push(&timer_heap,&timer_ptr);
 565              		.loc 1 142 0
 566 025c 3B1D     		adds	r3, r7, #4
 567 025e 1946     		mov	r1, r3
 568 0260 0748     		ldr	r0, .L29+4
 569 0262 FFF7FEFF 		bl	heap_push
 570 0266 B860     		str	r0, [r7, #8]
ARM GAS  G:\Users\Jaxb\AppData\Local\Temp\cc45sPGH.s 			page 14


 143:../../source/src/kernel/OS_CORE/os_timer.c **** 	CPU_CRITICAL_EXIT();
 571              		.loc 1 143 0
 572 0268 F868     		ldr	r0, [r7, #12]
 573 026a FFF7FEFF 		bl	CPU_SR_Restore
 144:../../source/src/kernel/OS_CORE/os_timer.c **** 	return ret;
 574              		.loc 1 144 0
 575 026e BB68     		ldr	r3, [r7, #8]
 145:../../source/src/kernel/OS_CORE/os_timer.c **** }
 576              		.loc 1 145 0
 577 0270 1846     		mov	r0, r3
 578 0272 1437     		adds	r7, r7, #20
 579              	.LCFI27:
 580              		.cfi_def_cfa_offset 20
 581 0274 BD46     		mov	sp, r7
 582              	.LCFI28:
 583              		.cfi_def_cfa_register 13
 584              		@ sp needed
 585 0276 BDE8B088 		pop	{r4, r5, r7, fp, pc}
 586              	.L30:
 587 027a 00BF     		.align	2
 588              	.L29:
 589 027c 2C000000 		.word	.LC1
 590 0280 00000000 		.word	timer_heap
 591              		.cfi_endproc
 592              	.LFE18:
 593              		.size	_timer_enable, .-_timer_enable
 594              		.section	.rodata
 595 00ea 0000     		.align	2
 596              	.LC5:
 597 00ec 6572726F 		.ascii	"error fun name : timer_enable\012error para : timer"
 597      72206675 
 597      6E206E61 
 597      6D65203A 
 597      2074696D 
 598 011c 5F707472 		.ascii	"_ptr\012\000"
 598      0A00
 599              		.text
 600              		.align	1
 601              		.global	timer_enable
 602              		.syntax unified
 603              		.thumb
 604              		.thumb_func
 605              		.fpu softvfp
 606              		.type	timer_enable, %function
 607              	timer_enable:
 608              	.LFB19:
 146:../../source/src/kernel/OS_CORE/os_timer.c **** 
 147:../../source/src/kernel/OS_CORE/os_timer.c **** int timer_enable(struct timer *timer_ptr)
 148:../../source/src/kernel/OS_CORE/os_timer.c **** {
 609              		.loc 1 148 0
 610              		.cfi_startproc
 611              		@ args = 0, pretend = 0, frame = 8
 612              		@ frame_needed = 1, uses_anonymous_args = 0
 613 0284 80B5     		push	{r7, lr}
 614              	.LCFI29:
 615              		.cfi_def_cfa_offset 8
 616              		.cfi_offset 7, -8
ARM GAS  G:\Users\Jaxb\AppData\Local\Temp\cc45sPGH.s 			page 15


 617              		.cfi_offset 14, -4
 618 0286 82B0     		sub	sp, sp, #8
 619              	.LCFI30:
 620              		.cfi_def_cfa_offset 16
 621 0288 00AF     		add	r7, sp, #0
 622              	.LCFI31:
 623              		.cfi_def_cfa_register 7
 624 028a 7860     		str	r0, [r7, #4]
 149:../../source/src/kernel/OS_CORE/os_timer.c **** 	if(NULL == timer_ptr)
 625              		.loc 1 149 0
 626 028c 7B68     		ldr	r3, [r7, #4]
 627 028e 002B     		cmp	r3, #0
 628 0290 05D1     		bne	.L32
 150:../../source/src/kernel/OS_CORE/os_timer.c **** 	{
 151:../../source/src/kernel/OS_CORE/os_timer.c **** 		OS_ERROR_PARA_MESSAGE_DISPLAY(timer_enable,timer_ptr);
 629              		.loc 1 151 0
 630 0292 0748     		ldr	r0, .L34
 631 0294 FFF7FEFF 		bl	ka_printf
 152:../../source/src/kernel/OS_CORE/os_timer.c **** 		return -ERROR_NULL_INPUT_PTR;
 632              		.loc 1 152 0
 633 0298 6FF0FE03 		mvn	r3, #254
 634 029c 03E0     		b	.L33
 635              	.L32:
 153:../../source/src/kernel/OS_CORE/os_timer.c **** 	}
 154:../../source/src/kernel/OS_CORE/os_timer.c **** 	return _timer_enable(timer_ptr);
 636              		.loc 1 154 0
 637 029e 7868     		ldr	r0, [r7, #4]
 638 02a0 FFF7FEFF 		bl	_timer_enable
 639 02a4 0346     		mov	r3, r0
 640              	.L33:
 155:../../source/src/kernel/OS_CORE/os_timer.c **** }
 641              		.loc 1 155 0
 642 02a6 1846     		mov	r0, r3
 643 02a8 0837     		adds	r7, r7, #8
 644              	.LCFI32:
 645              		.cfi_def_cfa_offset 8
 646 02aa BD46     		mov	sp, r7
 647              	.LCFI33:
 648              		.cfi_def_cfa_register 13
 649              		@ sp needed
 650 02ac 80BD     		pop	{r7, pc}
 651              	.L35:
 652 02ae 00BF     		.align	2
 653              	.L34:
 654 02b0 EC000000 		.word	.LC5
 655              		.cfi_endproc
 656              	.LFE19:
 657              		.size	timer_enable, .-timer_enable
 658              		.global	__rtmsym_timer_enable_name
 659              		.section	.rodata.name
 660 0019 000000   		.align	2
 661              		.type	__rtmsym_timer_enable_name, %object
 662              		.size	__rtmsym_timer_enable_name, 13
 663              	__rtmsym_timer_enable_name:
 664 001c 74696D65 		.ascii	"timer_enable\000"
 664      725F656E 
 664      61626C65 
ARM GAS  G:\Users\Jaxb\AppData\Local\Temp\cc45sPGH.s 			page 16


 664      00
 665              		.global	__rtmsym_timer_enable
 666              		.section	.RTMSymTab
 667              		.align	2
 668              		.type	__rtmsym_timer_enable, %object
 669              		.size	__rtmsym_timer_enable, 8
 670              	__rtmsym_timer_enable:
 671 0010 00000000 		.word	timer_enable
 672 0014 00000000 		.word	__rtmsym_timer_enable_name
 673              		.text
 674              		.align	1
 675              		.global	_timer_disable
 676              		.syntax unified
 677              		.thumb
 678              		.thumb_func
 679              		.fpu softvfp
 680              		.type	_timer_disable, %function
 681              	_timer_disable:
 682              	.LFB20:
 156:../../source/src/kernel/OS_CORE/os_timer.c **** EXPORT_SYMBOL(timer_enable);
 157:../../source/src/kernel/OS_CORE/os_timer.c **** 
 158:../../source/src/kernel/OS_CORE/os_timer.c **** /**
 159:../../source/src/kernel/OS_CORE/os_timer.c ****  * This is a system function
 160:../../source/src/kernel/OS_CORE/os_timer.c ****  * @Author      kaka
 161:../../source/src/kernel/OS_CORE/os_timer.c ****  * @DateTime    2018-10-03
 162:../../source/src/kernel/OS_CORE/os_timer.c ****  * @description :	use this function to inactivate the timer
 163:../../source/src/kernel/OS_CORE/os_timer.c ****  * @param       timer_ptr  
 164:../../source/src/kernel/OS_CORE/os_timer.c ****  * @return      0 means success
 165:../../source/src/kernel/OS_CORE/os_timer.c ****  */
 166:../../source/src/kernel/OS_CORE/os_timer.c **** int _timer_disable(struct timer *timer_ptr)
 167:../../source/src/kernel/OS_CORE/os_timer.c **** {
 683              		.loc 1 167 0
 684              		.cfi_startproc
 685              		@ args = 0, pretend = 0, frame = 16
 686              		@ frame_needed = 1, uses_anonymous_args = 0
 687 02b4 80B5     		push	{r7, lr}
 688              	.LCFI34:
 689              		.cfi_def_cfa_offset 8
 690              		.cfi_offset 7, -8
 691              		.cfi_offset 14, -4
 692 02b6 84B0     		sub	sp, sp, #16
 693              	.LCFI35:
 694              		.cfi_def_cfa_offset 24
 695 02b8 00AF     		add	r7, sp, #0
 696              	.LCFI36:
 697              		.cfi_def_cfa_register 7
 698 02ba 7860     		str	r0, [r7, #4]
 168:../../source/src/kernel/OS_CORE/os_timer.c **** 	ASSERT(NULL != timer_ptr);
 699              		.loc 1 168 0
 700 02bc 7B68     		ldr	r3, [r7, #4]
 701 02be 002B     		cmp	r3, #0
 702 02c0 03D1     		bne	.L37
 703              		.loc 1 168 0 is_stmt 0 discriminator 1
 704 02c2 A821     		movs	r1, #168
 705 02c4 1148     		ldr	r0, .L40
 706 02c6 FFF7FEFF 		bl	_ASSERT
 707              	.L37:
ARM GAS  G:\Users\Jaxb\AppData\Local\Temp\cc45sPGH.s 			page 17


 169:../../source/src/kernel/OS_CORE/os_timer.c **** 	CPU_SR_ALLOC();
 708              		.loc 1 169 0 is_stmt 1
 709 02ca 0023     		movs	r3, #0
 710 02cc FB60     		str	r3, [r7, #12]
 170:../../source/src/kernel/OS_CORE/os_timer.c **** 	CPU_CRITICAL_ENTER();
 711              		.loc 1 170 0
 712 02ce FFF7FEFF 		bl	CPU_SR_Save
 713 02d2 F860     		str	r0, [r7, #12]
 171:../../source/src/kernel/OS_CORE/os_timer.c **** 	int ret = heap_remove_index_data(&timer_heap,timer_ptr->heap_position_index,NULL);
 714              		.loc 1 171 0
 715 02d4 7B68     		ldr	r3, [r7, #4]
 716 02d6 9B69     		ldr	r3, [r3, #24]
 717 02d8 0022     		movs	r2, #0
 718 02da 1946     		mov	r1, r3
 719 02dc 0C48     		ldr	r0, .L40+4
 720 02de FFF7FEFF 		bl	heap_remove_index_data
 721 02e2 B860     		str	r0, [r7, #8]
 172:../../source/src/kernel/OS_CORE/os_timer.c **** 	if(ret < 0)
 722              		.loc 1 172 0
 723 02e4 BB68     		ldr	r3, [r7, #8]
 724 02e6 002B     		cmp	r3, #0
 725 02e8 04DA     		bge	.L38
 173:../../source/src/kernel/OS_CORE/os_timer.c **** 	{
 174:../../source/src/kernel/OS_CORE/os_timer.c **** 		CPU_CRITICAL_EXIT();
 726              		.loc 1 174 0
 727 02ea F868     		ldr	r0, [r7, #12]
 728 02ec FFF7FEFF 		bl	CPU_SR_Restore
 175:../../source/src/kernel/OS_CORE/os_timer.c **** 		return ret;
 729              		.loc 1 175 0
 730 02f0 BB68     		ldr	r3, [r7, #8]
 731 02f2 06E0     		b	.L39
 732              	.L38:
 176:../../source/src/kernel/OS_CORE/os_timer.c **** 	}
 177:../../source/src/kernel/OS_CORE/os_timer.c **** 	timer_ptr->state = DISABLE;
 733              		.loc 1 177 0
 734 02f4 7B68     		ldr	r3, [r7, #4]
 735 02f6 0022     		movs	r2, #0
 736 02f8 5A70     		strb	r2, [r3, #1]
 178:../../source/src/kernel/OS_CORE/os_timer.c **** 	CPU_CRITICAL_EXIT();
 737              		.loc 1 178 0
 738 02fa F868     		ldr	r0, [r7, #12]
 739 02fc FFF7FEFF 		bl	CPU_SR_Restore
 179:../../source/src/kernel/OS_CORE/os_timer.c **** 	return FUN_EXECUTE_SUCCESSFULLY;
 740              		.loc 1 179 0
 741 0300 0023     		movs	r3, #0
 742              	.L39:
 180:../../source/src/kernel/OS_CORE/os_timer.c **** }
 743              		.loc 1 180 0
 744 0302 1846     		mov	r0, r3
 745 0304 1037     		adds	r7, r7, #16
 746              	.LCFI37:
 747              		.cfi_def_cfa_offset 8
 748 0306 BD46     		mov	sp, r7
 749              	.LCFI38:
 750              		.cfi_def_cfa_register 13
 751              		@ sp needed
 752 0308 80BD     		pop	{r7, pc}
ARM GAS  G:\Users\Jaxb\AppData\Local\Temp\cc45sPGH.s 			page 18


 753              	.L41:
 754 030a 00BF     		.align	2
 755              	.L40:
 756 030c 2C000000 		.word	.LC1
 757 0310 00000000 		.word	timer_heap
 758              		.cfi_endproc
 759              	.LFE20:
 760              		.size	_timer_disable, .-_timer_disable
 761              		.section	.rodata
 762 0122 0000     		.align	2
 763              	.LC6:
 764 0124 6572726F 		.ascii	"error fun name : timer_disable\012error para : time"
 764      72206675 
 764      6E206E61 
 764      6D65203A 
 764      2074696D 
 765 0154 725F7074 		.ascii	"r_ptr\012\000"
 765      720A00
 766              		.text
 767              		.align	1
 768              		.global	timer_disable
 769              		.syntax unified
 770              		.thumb
 771              		.thumb_func
 772              		.fpu softvfp
 773              		.type	timer_disable, %function
 774              	timer_disable:
 775              	.LFB21:
 181:../../source/src/kernel/OS_CORE/os_timer.c **** 
 182:../../source/src/kernel/OS_CORE/os_timer.c **** int timer_disable(struct timer *timer_ptr)
 183:../../source/src/kernel/OS_CORE/os_timer.c **** {
 776              		.loc 1 183 0
 777              		.cfi_startproc
 778              		@ args = 0, pretend = 0, frame = 8
 779              		@ frame_needed = 1, uses_anonymous_args = 0
 780 0314 80B5     		push	{r7, lr}
 781              	.LCFI39:
 782              		.cfi_def_cfa_offset 8
 783              		.cfi_offset 7, -8
 784              		.cfi_offset 14, -4
 785 0316 82B0     		sub	sp, sp, #8
 786              	.LCFI40:
 787              		.cfi_def_cfa_offset 16
 788 0318 00AF     		add	r7, sp, #0
 789              	.LCFI41:
 790              		.cfi_def_cfa_register 7
 791 031a 7860     		str	r0, [r7, #4]
 184:../../source/src/kernel/OS_CORE/os_timer.c **** 	if(NULL == timer_ptr)
 792              		.loc 1 184 0
 793 031c 7B68     		ldr	r3, [r7, #4]
 794 031e 002B     		cmp	r3, #0
 795 0320 05D1     		bne	.L43
 185:../../source/src/kernel/OS_CORE/os_timer.c **** 	{
 186:../../source/src/kernel/OS_CORE/os_timer.c **** 		OS_ERROR_PARA_MESSAGE_DISPLAY(timer_disable,timer_ptr);
 796              		.loc 1 186 0
 797 0322 0748     		ldr	r0, .L45
 798 0324 FFF7FEFF 		bl	ka_printf
ARM GAS  G:\Users\Jaxb\AppData\Local\Temp\cc45sPGH.s 			page 19


 187:../../source/src/kernel/OS_CORE/os_timer.c **** 		return -ERROR_NULL_INPUT_PTR;
 799              		.loc 1 187 0
 800 0328 6FF0FE03 		mvn	r3, #254
 801 032c 03E0     		b	.L44
 802              	.L43:
 188:../../source/src/kernel/OS_CORE/os_timer.c **** 	}
 189:../../source/src/kernel/OS_CORE/os_timer.c **** 	return _timer_disable(timer_ptr);
 803              		.loc 1 189 0
 804 032e 7868     		ldr	r0, [r7, #4]
 805 0330 FFF7FEFF 		bl	_timer_disable
 806 0334 0346     		mov	r3, r0
 807              	.L44:
 190:../../source/src/kernel/OS_CORE/os_timer.c **** }
 808              		.loc 1 190 0
 809 0336 1846     		mov	r0, r3
 810 0338 0837     		adds	r7, r7, #8
 811              	.LCFI42:
 812              		.cfi_def_cfa_offset 8
 813 033a BD46     		mov	sp, r7
 814              	.LCFI43:
 815              		.cfi_def_cfa_register 13
 816              		@ sp needed
 817 033c 80BD     		pop	{r7, pc}
 818              	.L46:
 819 033e 00BF     		.align	2
 820              	.L45:
 821 0340 24010000 		.word	.LC6
 822              		.cfi_endproc
 823              	.LFE21:
 824              		.size	timer_disable, .-timer_disable
 825              		.global	__rtmsym_timer_disable_name
 826              		.section	.rodata.name
 827 0029 000000   		.align	2
 828              		.type	__rtmsym_timer_disable_name, %object
 829              		.size	__rtmsym_timer_disable_name, 14
 830              	__rtmsym_timer_disable_name:
 831 002c 74696D65 		.ascii	"timer_disable\000"
 831      725F6469 
 831      7361626C 
 831      6500
 832              		.global	__rtmsym_timer_disable
 833              		.section	.RTMSymTab
 834              		.align	2
 835              		.type	__rtmsym_timer_disable, %object
 836              		.size	__rtmsym_timer_disable, 8
 837              	__rtmsym_timer_disable:
 838 0018 00000000 		.word	timer_disable
 839 001c 00000000 		.word	__rtmsym_timer_disable_name
 840              		.text
 841              		.align	1
 842              		.global	_timer_delete
 843              		.syntax unified
 844              		.thumb
 845              		.thumb_func
 846              		.fpu softvfp
 847              		.type	_timer_delete, %function
 848              	_timer_delete:
ARM GAS  G:\Users\Jaxb\AppData\Local\Temp\cc45sPGH.s 			page 20


 849              	.LFB22:
 191:../../source/src/kernel/OS_CORE/os_timer.c **** EXPORT_SYMBOL(timer_disable);
 192:../../source/src/kernel/OS_CORE/os_timer.c **** 
 193:../../source/src/kernel/OS_CORE/os_timer.c **** /**
 194:../../source/src/kernel/OS_CORE/os_timer.c ****  * This is a system function
 195:../../source/src/kernel/OS_CORE/os_timer.c ****  * @Author      kaka
 196:../../source/src/kernel/OS_CORE/os_timer.c ****  * @DateTime    2018-10-03
 197:../../source/src/kernel/OS_CORE/os_timer.c ****  * @description :	use this function to inactivate the timer and free
 198:../../source/src/kernel/OS_CORE/os_timer.c ****  * the memory if necessary
 199:../../source/src/kernel/OS_CORE/os_timer.c ****  * @param       timer_ptr  
 200:../../source/src/kernel/OS_CORE/os_timer.c ****  * @return                 
 201:../../source/src/kernel/OS_CORE/os_timer.c ****  */
 202:../../source/src/kernel/OS_CORE/os_timer.c **** int _timer_delete(struct timer *timer_ptr)
 203:../../source/src/kernel/OS_CORE/os_timer.c **** {
 850              		.loc 1 203 0
 851              		.cfi_startproc
 852              		@ args = 0, pretend = 0, frame = 16
 853              		@ frame_needed = 1, uses_anonymous_args = 0
 854 0344 80B5     		push	{r7, lr}
 855              	.LCFI44:
 856              		.cfi_def_cfa_offset 8
 857              		.cfi_offset 7, -8
 858              		.cfi_offset 14, -4
 859 0346 84B0     		sub	sp, sp, #16
 860              	.LCFI45:
 861              		.cfi_def_cfa_offset 24
 862 0348 00AF     		add	r7, sp, #0
 863              	.LCFI46:
 864              		.cfi_def_cfa_register 7
 865 034a 7860     		str	r0, [r7, #4]
 204:../../source/src/kernel/OS_CORE/os_timer.c **** 	ASSERT(NULL != timer_ptr);
 866              		.loc 1 204 0
 867 034c 7B68     		ldr	r3, [r7, #4]
 868 034e 002B     		cmp	r3, #0
 869 0350 03D1     		bne	.L48
 870              		.loc 1 204 0 is_stmt 0 discriminator 1
 871 0352 CC21     		movs	r1, #204
 872 0354 0E48     		ldr	r0, .L52
 873 0356 FFF7FEFF 		bl	_ASSERT
 874              	.L48:
 205:../../source/src/kernel/OS_CORE/os_timer.c **** 	CPU_SR_ALLOC();
 875              		.loc 1 205 0 is_stmt 1
 876 035a 0023     		movs	r3, #0
 877 035c FB60     		str	r3, [r7, #12]
 206:../../source/src/kernel/OS_CORE/os_timer.c **** 	CPU_CRITICAL_ENTER();
 878              		.loc 1 206 0
 879 035e FFF7FEFF 		bl	CPU_SR_Save
 880 0362 F860     		str	r0, [r7, #12]
 207:../../source/src/kernel/OS_CORE/os_timer.c **** 	if(ENABLE == timer_ptr->state)
 881              		.loc 1 207 0
 882 0364 7B68     		ldr	r3, [r7, #4]
 883 0366 5B78     		ldrb	r3, [r3, #1]	@ zero_extendqisi2
 884 0368 012B     		cmp	r3, #1
 885 036a 02D1     		bne	.L49
 208:../../source/src/kernel/OS_CORE/os_timer.c **** 	{
 209:../../source/src/kernel/OS_CORE/os_timer.c **** 		_timer_disable(timer_ptr);
 886              		.loc 1 209 0
ARM GAS  G:\Users\Jaxb\AppData\Local\Temp\cc45sPGH.s 			page 21


 887 036c 7868     		ldr	r0, [r7, #4]
 888 036e FFF7FEFF 		bl	_timer_disable
 889              	.L49:
 210:../../source/src/kernel/OS_CORE/os_timer.c **** 	}
 211:../../source/src/kernel/OS_CORE/os_timer.c **** 	if(TIMER_IS_CREAT(timer_ptr))
 890              		.loc 1 211 0
 891 0372 7B68     		ldr	r3, [r7, #4]
 892 0374 5B68     		ldr	r3, [r3, #4]
 893 0376 002B     		cmp	r3, #0
 894 0378 02DA     		bge	.L50
 212:../../source/src/kernel/OS_CORE/os_timer.c **** 	{
 213:../../source/src/kernel/OS_CORE/os_timer.c **** 		ka_free(timer_ptr);
 895              		.loc 1 213 0
 896 037a 7868     		ldr	r0, [r7, #4]
 897 037c FFF7FEFF 		bl	ka_free
 898              	.L50:
 214:../../source/src/kernel/OS_CORE/os_timer.c **** 	}
 215:../../source/src/kernel/OS_CORE/os_timer.c **** 	CPU_CRITICAL_EXIT();
 899              		.loc 1 215 0
 900 0380 F868     		ldr	r0, [r7, #12]
 901 0382 FFF7FEFF 		bl	CPU_SR_Restore
 216:../../source/src/kernel/OS_CORE/os_timer.c **** 	return FUN_EXECUTE_SUCCESSFULLY;
 902              		.loc 1 216 0
 903 0386 0023     		movs	r3, #0
 217:../../source/src/kernel/OS_CORE/os_timer.c **** }
 904              		.loc 1 217 0
 905 0388 1846     		mov	r0, r3
 906 038a 1037     		adds	r7, r7, #16
 907              	.LCFI47:
 908              		.cfi_def_cfa_offset 8
 909 038c BD46     		mov	sp, r7
 910              	.LCFI48:
 911              		.cfi_def_cfa_register 13
 912              		@ sp needed
 913 038e 80BD     		pop	{r7, pc}
 914              	.L53:
 915              		.align	2
 916              	.L52:
 917 0390 2C000000 		.word	.LC1
 918              		.cfi_endproc
 919              	.LFE22:
 920              		.size	_timer_delete, .-_timer_delete
 921              		.section	.rodata
 922 015b 00       		.align	2
 923              	.LC7:
 924 015c 6572726F 		.ascii	"error fun name : timer_delete\012error para : timer"
 924      72206675 
 924      6E206E61 
 924      6D65203A 
 924      2074696D 
 925 018c 5F707472 		.ascii	"_ptr\012\000"
 925      0A00
 926              		.text
 927              		.align	1
 928              		.global	timer_delete
 929              		.syntax unified
 930              		.thumb
ARM GAS  G:\Users\Jaxb\AppData\Local\Temp\cc45sPGH.s 			page 22


 931              		.thumb_func
 932              		.fpu softvfp
 933              		.type	timer_delete, %function
 934              	timer_delete:
 935              	.LFB23:
 218:../../source/src/kernel/OS_CORE/os_timer.c **** 
 219:../../source/src/kernel/OS_CORE/os_timer.c **** int timer_delete(struct timer *timer_ptr)
 220:../../source/src/kernel/OS_CORE/os_timer.c **** {
 936              		.loc 1 220 0
 937              		.cfi_startproc
 938              		@ args = 0, pretend = 0, frame = 8
 939              		@ frame_needed = 1, uses_anonymous_args = 0
 940 0394 80B5     		push	{r7, lr}
 941              	.LCFI49:
 942              		.cfi_def_cfa_offset 8
 943              		.cfi_offset 7, -8
 944              		.cfi_offset 14, -4
 945 0396 82B0     		sub	sp, sp, #8
 946              	.LCFI50:
 947              		.cfi_def_cfa_offset 16
 948 0398 00AF     		add	r7, sp, #0
 949              	.LCFI51:
 950              		.cfi_def_cfa_register 7
 951 039a 7860     		str	r0, [r7, #4]
 221:../../source/src/kernel/OS_CORE/os_timer.c **** 	if(NULL == timer_ptr)
 952              		.loc 1 221 0
 953 039c 7B68     		ldr	r3, [r7, #4]
 954 039e 002B     		cmp	r3, #0
 955 03a0 05D1     		bne	.L55
 222:../../source/src/kernel/OS_CORE/os_timer.c **** 	{
 223:../../source/src/kernel/OS_CORE/os_timer.c **** 		OS_ERROR_PARA_MESSAGE_DISPLAY(timer_delete,timer_ptr);
 956              		.loc 1 223 0
 957 03a2 0748     		ldr	r0, .L57
 958 03a4 FFF7FEFF 		bl	ka_printf
 224:../../source/src/kernel/OS_CORE/os_timer.c **** 		return -ERROR_NULL_INPUT_PTR;
 959              		.loc 1 224 0
 960 03a8 6FF0FE03 		mvn	r3, #254
 961 03ac 03E0     		b	.L56
 962              	.L55:
 225:../../source/src/kernel/OS_CORE/os_timer.c **** 	}
 226:../../source/src/kernel/OS_CORE/os_timer.c **** 	return _timer_delete(timer_ptr);
 963              		.loc 1 226 0
 964 03ae 7868     		ldr	r0, [r7, #4]
 965 03b0 FFF7FEFF 		bl	_timer_delete
 966 03b4 0346     		mov	r3, r0
 967              	.L56:
 227:../../source/src/kernel/OS_CORE/os_timer.c **** }
 968              		.loc 1 227 0
 969 03b6 1846     		mov	r0, r3
 970 03b8 0837     		adds	r7, r7, #8
 971              	.LCFI52:
 972              		.cfi_def_cfa_offset 8
 973 03ba BD46     		mov	sp, r7
 974              	.LCFI53:
 975              		.cfi_def_cfa_register 13
 976              		@ sp needed
 977 03bc 80BD     		pop	{r7, pc}
ARM GAS  G:\Users\Jaxb\AppData\Local\Temp\cc45sPGH.s 			page 23


 978              	.L58:
 979 03be 00BF     		.align	2
 980              	.L57:
 981 03c0 5C010000 		.word	.LC7
 982              		.cfi_endproc
 983              	.LFE23:
 984              		.size	timer_delete, .-timer_delete
 985              		.global	__rtmsym_timer_delete_name
 986              		.section	.rodata.name
 987 003a 0000     		.align	2
 988              		.type	__rtmsym_timer_delete_name, %object
 989              		.size	__rtmsym_timer_delete_name, 13
 990              	__rtmsym_timer_delete_name:
 991 003c 74696D65 		.ascii	"timer_delete\000"
 991      725F6465 
 991      6C657465 
 991      00
 992              		.global	__rtmsym_timer_delete
 993              		.section	.RTMSymTab
 994              		.align	2
 995              		.type	__rtmsym_timer_delete, %object
 996              		.size	__rtmsym_timer_delete, 8
 997              	__rtmsym_timer_delete:
 998 0020 00000000 		.word	timer_delete
 999 0024 00000000 		.word	__rtmsym_timer_delete_name
 1000              		.section	.rodata
 1001 0192 0000     		.align	2
 1002              	.LC8:
 1003 0194 6572726F 		.ascii	"error fun name : _get_timer_heap_top\012error para "
 1003      72206675 
 1003      6E206E61 
 1003      6D65203A 
 1003      205F6765 
 1004 01c4 3A207469 		.ascii	": timer_ptr\012\000"
 1004      6D65725F 
 1004      7074720A 
 1004      00
 1005              		.text
 1006              		.align	1
 1007              		.global	_get_timer_heap_top
 1008              		.syntax unified
 1009              		.thumb
 1010              		.thumb_func
 1011              		.fpu softvfp
 1012              		.type	_get_timer_heap_top, %function
 1013              	_get_timer_heap_top:
 1014              	.LFB24:
 228:../../source/src/kernel/OS_CORE/os_timer.c **** EXPORT_SYMBOL(timer_delete);
 229:../../source/src/kernel/OS_CORE/os_timer.c **** 
 230:../../source/src/kernel/OS_CORE/os_timer.c **** /**
 231:../../source/src/kernel/OS_CORE/os_timer.c ****  * This is a system function
 232:../../source/src/kernel/OS_CORE/os_timer.c ****  * @Author      kaka
 233:../../source/src/kernel/OS_CORE/os_timer.c ****  * @DateTime    2018-10-03
 234:../../source/src/kernel/OS_CORE/os_timer.c ****  * @description :	this function is used by system tick function
 235:../../source/src/kernel/OS_CORE/os_timer.c ****  * to check if waking up the timer task is needed or not
 236:../../source/src/kernel/OS_CORE/os_timer.c ****  * @param       timer_ptr  [description]
 237:../../source/src/kernel/OS_CORE/os_timer.c ****  * @return                 [description]
ARM GAS  G:\Users\Jaxb\AppData\Local\Temp\cc45sPGH.s 			page 24


 238:../../source/src/kernel/OS_CORE/os_timer.c ****  */
 239:../../source/src/kernel/OS_CORE/os_timer.c **** int _get_timer_heap_top(struct timer **timer_ptr)
 240:../../source/src/kernel/OS_CORE/os_timer.c **** {
 1015              		.loc 1 240 0
 1016              		.cfi_startproc
 1017              		@ args = 0, pretend = 0, frame = 16
 1018              		@ frame_needed = 1, uses_anonymous_args = 0
 1019 03c4 80B5     		push	{r7, lr}
 1020              	.LCFI54:
 1021              		.cfi_def_cfa_offset 8
 1022              		.cfi_offset 7, -8
 1023              		.cfi_offset 14, -4
 1024 03c6 84B0     		sub	sp, sp, #16
 1025              	.LCFI55:
 1026              		.cfi_def_cfa_offset 24
 1027 03c8 00AF     		add	r7, sp, #0
 1028              	.LCFI56:
 1029              		.cfi_def_cfa_register 7
 1030 03ca 7860     		str	r0, [r7, #4]
 241:../../source/src/kernel/OS_CORE/os_timer.c **** 	ASSERT(NULL != timer_ptr);
 1031              		.loc 1 241 0
 1032 03cc 7B68     		ldr	r3, [r7, #4]
 1033 03ce 002B     		cmp	r3, #0
 1034 03d0 03D1     		bne	.L60
 1035              		.loc 1 241 0 is_stmt 0 discriminator 1
 1036 03d2 F121     		movs	r1, #241
 1037 03d4 0F48     		ldr	r0, .L63
 1038 03d6 FFF7FEFF 		bl	_ASSERT
 1039              	.L60:
 242:../../source/src/kernel/OS_CORE/os_timer.c **** #if CONFIG_PARA_CHECK
 243:../../source/src/kernel/OS_CORE/os_timer.c **** 	if(NULL == timer_ptr)
 1040              		.loc 1 243 0 is_stmt 1
 1041 03da 7B68     		ldr	r3, [r7, #4]
 1042 03dc 002B     		cmp	r3, #0
 1043 03de 05D1     		bne	.L61
 244:../../source/src/kernel/OS_CORE/os_timer.c **** 	{
 245:../../source/src/kernel/OS_CORE/os_timer.c **** 		OS_ERROR_PARA_MESSAGE_DISPLAY(_get_timer_heap_top,timer_ptr);
 1044              		.loc 1 245 0
 1045 03e0 0D48     		ldr	r0, .L63+4
 1046 03e2 FFF7FEFF 		bl	ka_printf
 246:../../source/src/kernel/OS_CORE/os_timer.c **** 		return -ERROR_NULL_INPUT_PTR;
 1047              		.loc 1 246 0
 1048 03e6 6FF0FE03 		mvn	r3, #254
 1049 03ea 0EE0     		b	.L62
 1050              	.L61:
 247:../../source/src/kernel/OS_CORE/os_timer.c **** 	}
 248:../../source/src/kernel/OS_CORE/os_timer.c **** #endif
 249:../../source/src/kernel/OS_CORE/os_timer.c **** 	CPU_SR_ALLOC();
 1051              		.loc 1 249 0
 1052 03ec 0023     		movs	r3, #0
 1053 03ee FB60     		str	r3, [r7, #12]
 250:../../source/src/kernel/OS_CORE/os_timer.c **** 	CPU_CRITICAL_ENTER();
 1054              		.loc 1 250 0
 1055 03f0 FFF7FEFF 		bl	CPU_SR_Save
 1056 03f4 F860     		str	r0, [r7, #12]
 251:../../source/src/kernel/OS_CORE/os_timer.c **** 	int ret = heap_get_top_safe(&timer_heap,(void *)timer_ptr);
 1057              		.loc 1 251 0
ARM GAS  G:\Users\Jaxb\AppData\Local\Temp\cc45sPGH.s 			page 25


 1058 03f6 0122     		movs	r2, #1
 1059 03f8 7968     		ldr	r1, [r7, #4]
 1060 03fa 0848     		ldr	r0, .L63+8
 1061 03fc FFF7FEFF 		bl	heap_get_index_data_safe
 1062 0400 B860     		str	r0, [r7, #8]
 252:../../source/src/kernel/OS_CORE/os_timer.c **** 	CPU_CRITICAL_EXIT();
 1063              		.loc 1 252 0
 1064 0402 F868     		ldr	r0, [r7, #12]
 1065 0404 FFF7FEFF 		bl	CPU_SR_Restore
 253:../../source/src/kernel/OS_CORE/os_timer.c **** 	return ret;
 1066              		.loc 1 253 0
 1067 0408 BB68     		ldr	r3, [r7, #8]
 1068              	.L62:
 254:../../source/src/kernel/OS_CORE/os_timer.c **** }
 1069              		.loc 1 254 0
 1070 040a 1846     		mov	r0, r3
 1071 040c 1037     		adds	r7, r7, #16
 1072              	.LCFI57:
 1073              		.cfi_def_cfa_offset 8
 1074 040e BD46     		mov	sp, r7
 1075              	.LCFI58:
 1076              		.cfi_def_cfa_register 13
 1077              		@ sp needed
 1078 0410 80BD     		pop	{r7, pc}
 1079              	.L64:
 1080 0412 00BF     		.align	2
 1081              	.L63:
 1082 0414 2C000000 		.word	.LC1
 1083 0418 94010000 		.word	.LC8
 1084 041c 00000000 		.word	timer_heap
 1085              		.cfi_endproc
 1086              	.LFE24:
 1087              		.size	_get_timer_heap_top, .-_get_timer_heap_top
 1088              		.align	1
 1089              		.global	timer_task
 1090              		.syntax unified
 1091              		.thumb
 1092              		.thumb_func
 1093              		.fpu softvfp
 1094              		.type	timer_task, %function
 1095              	timer_task:
 1096              	.LFB25:
 255:../../source/src/kernel/OS_CORE/os_timer.c **** 
 256:../../source/src/kernel/OS_CORE/os_timer.c **** /**
 257:../../source/src/kernel/OS_CORE/os_timer.c ****  * This is a system function
 258:../../source/src/kernel/OS_CORE/os_timer.c ****  * @Author      kaka
 259:../../source/src/kernel/OS_CORE/os_timer.c ****  * @DateTime    2018-10-03
 260:../../source/src/kernel/OS_CORE/os_timer.c ****  * @description : timer task, all the works are being done in
 261:../../source/src/kernel/OS_CORE/os_timer.c ****  * this task, whose priority is 0(the max priority)
 262:../../source/src/kernel/OS_CORE/os_timer.c ****  * @param       para       [description]
 263:../../source/src/kernel/OS_CORE/os_timer.c ****  */
 264:../../source/src/kernel/OS_CORE/os_timer.c **** void timer_task(void *para)
 265:../../source/src/kernel/OS_CORE/os_timer.c **** {
 1097              		.loc 1 265 0
 1098              		.cfi_startproc
 1099              		@ args = 0, pretend = 0, frame = 32
 1100              		@ frame_needed = 1, uses_anonymous_args = 0
ARM GAS  G:\Users\Jaxb\AppData\Local\Temp\cc45sPGH.s 			page 26


 1101 0420 2DE99048 		push	{r4, r7, fp, lr}
 1102              	.LCFI59:
 1103              		.cfi_def_cfa_offset 16
 1104              		.cfi_offset 4, -16
 1105              		.cfi_offset 7, -12
 1106              		.cfi_offset 11, -8
 1107              		.cfi_offset 14, -4
 1108 0424 88B0     		sub	sp, sp, #32
 1109              	.LCFI60:
 1110              		.cfi_def_cfa_offset 48
 1111 0426 00AF     		add	r7, sp, #0
 1112              	.LCFI61:
 1113              		.cfi_def_cfa_register 7
 1114 0428 7860     		str	r0, [r7, #4]
 266:../../source/src/kernel/OS_CORE/os_timer.c **** 	(void)para;
 267:../../source/src/kernel/OS_CORE/os_timer.c **** 	UINT64 tick;
 268:../../source/src/kernel/OS_CORE/os_timer.c **** 	struct timer *timer_ptr;
 269:../../source/src/kernel/OS_CORE/os_timer.c **** 	int ret = heap_get_top_safe(&timer_heap,&timer_ptr);
 1115              		.loc 1 269 0
 1116 042a 07F10C03 		add	r3, r7, #12
 1117 042e 0122     		movs	r2, #1
 1118 0430 1946     		mov	r1, r3
 1119 0432 3D48     		ldr	r0, .L80
 1120 0434 FFF7FEFF 		bl	heap_get_index_data_safe
 1121 0438 F861     		str	r0, [r7, #28]
 1122              	.L75:
 270:../../source/src/kernel/OS_CORE/os_timer.c **** 	while(1)
 271:../../source/src/kernel/OS_CORE/os_timer.c **** 	{
 272:../../source/src/kernel/OS_CORE/os_timer.c **** 		if(ret < 0)
 1123              		.loc 1 272 0
 1124 043a FB69     		ldr	r3, [r7, #28]
 1125 043c 002B     		cmp	r3, #0
 1126 043e 03DA     		bge	.L66
 273:../../source/src/kernel/OS_CORE/os_timer.c **** 		{
 274:../../source/src/kernel/OS_CORE/os_timer.c **** 			suspend();
 1127              		.loc 1 274 0
 1128 0440 0320     		movs	r0, #3
 1129 0442 FFF7FEFF 		bl	sys_suspend
 1130 0446 65E0     		b	.L67
 1131              	.L66:
 275:../../source/src/kernel/OS_CORE/os_timer.c **** 		}
 276:../../source/src/kernel/OS_CORE/os_timer.c **** 		else
 277:../../source/src/kernel/OS_CORE/os_timer.c **** 		{
 278:../../source/src/kernel/OS_CORE/os_timer.c **** 			tick = get_tick();
 1132              		.loc 1 278 0
 1133 0448 FFF7FEFF 		bl	get_tick
 1134 044c C7E90401 		strd	r0, [r7, #16]
 279:../../source/src/kernel/OS_CORE/os_timer.c **** 			if(TIME_FIRST_SMALLER_THAN_SECOND(tick,timer_ptr->wake_time))
 1135              		.loc 1 279 0
 1136 0450 D7E904BC 		ldrd	fp, [r7, #16]
 1137 0454 FA68     		ldr	r2, [r7, #12]
 1138 0456 D2E90812 		ldrd	r1, [r2, #32]
 1139 045a 5B46     		mov	r3, fp
 1140 045c 6446     		mov	r4, ip
 1141 045e 5B1A     		subs	r3, r3, r1
 1142 0460 64EB0204 		sbc	r4, r4, r2
 1143 0464 002B     		cmp	r3, #0
ARM GAS  G:\Users\Jaxb\AppData\Local\Temp\cc45sPGH.s 			page 27


 1144 0466 74F10003 		sbcs	r3, r4, #0
 1145 046a 03DA     		bge	.L68
 280:../../source/src/kernel/OS_CORE/os_timer.c **** 			{
 281:../../source/src/kernel/OS_CORE/os_timer.c **** 				suspend();
 1146              		.loc 1 281 0
 1147 046c 0320     		movs	r0, #3
 1148 046e FFF7FEFF 		bl	sys_suspend
 1149 0472 4FE0     		b	.L67
 1150              	.L68:
 282:../../source/src/kernel/OS_CORE/os_timer.c **** 			}
 283:../../source/src/kernel/OS_CORE/os_timer.c **** 			else
 284:../../source/src/kernel/OS_CORE/os_timer.c **** 			{
 285:../../source/src/kernel/OS_CORE/os_timer.c **** 				heap_remove_top(&timer_heap,&timer_ptr);
 1151              		.loc 1 285 0
 1152 0474 07F10C03 		add	r3, r7, #12
 1153 0478 1A46     		mov	r2, r3
 1154 047a 0121     		movs	r1, #1
 1155 047c 2A48     		ldr	r0, .L80
 1156 047e FFF7FEFF 		bl	heap_remove_index_data
 286:../../source/src/kernel/OS_CORE/os_timer.c **** 				(timer_ptr->fun)(timer_ptr->para);
 1157              		.loc 1 286 0
 1158 0482 FB68     		ldr	r3, [r7, #12]
 1159 0484 DB68     		ldr	r3, [r3, #12]
 1160 0486 FA68     		ldr	r2, [r7, #12]
 1161 0488 1269     		ldr	r2, [r2, #16]
 1162 048a 1046     		mov	r0, r2
 1163 048c 9847     		blx	r3
 1164              	.LVL0:
 287:../../source/src/kernel/OS_CORE/os_timer.c **** 				switch(timer_ptr->type)
 1165              		.loc 1 287 0
 1166 048e FB68     		ldr	r3, [r7, #12]
 1167 0490 1B78     		ldrb	r3, [r3]	@ zero_extendqisi2
 1168 0492 012B     		cmp	r3, #1
 1169 0494 1FD0     		beq	.L70
 1170 0496 022B     		cmp	r3, #2
 1171 0498 0AD0     		beq	.L71
 1172 049a 002B     		cmp	r3, #0
 1173 049c 31D1     		bne	.L77
 288:../../source/src/kernel/OS_CORE/os_timer.c **** 				{
 289:../../source/src/kernel/OS_CORE/os_timer.c **** 					case TIMER_ONE_TIME:
 290:../../source/src/kernel/OS_CORE/os_timer.c **** 						if(TIMER_IS_CREAT(timer_ptr))
 1174              		.loc 1 290 0
 1175 049e FB68     		ldr	r3, [r7, #12]
 1176 04a0 5B68     		ldr	r3, [r3, #4]
 1177 04a2 002B     		cmp	r3, #0
 1178 04a4 33DA     		bge	.L78
 291:../../source/src/kernel/OS_CORE/os_timer.c **** 						{
 292:../../source/src/kernel/OS_CORE/os_timer.c **** 							ka_free(timer_ptr);
 1179              		.loc 1 292 0
 1180 04a6 FB68     		ldr	r3, [r7, #12]
 1181 04a8 1846     		mov	r0, r3
 1182 04aa FFF7FEFF 		bl	ka_free
 293:../../source/src/kernel/OS_CORE/os_timer.c **** 						}
 294:../../source/src/kernel/OS_CORE/os_timer.c **** 						break;
 1183              		.loc 1 294 0
 1184 04ae 2EE0     		b	.L78
 1185              	.L71:
ARM GAS  G:\Users\Jaxb\AppData\Local\Temp\cc45sPGH.s 			page 28


 295:../../source/src/kernel/OS_CORE/os_timer.c **** 					case TIMER_TIME:
 296:../../source/src/kernel/OS_CORE/os_timer.c **** 						--(timer_ptr->rest_num);
 1186              		.loc 1 296 0
 1187 04b0 FB68     		ldr	r3, [r7, #12]
 1188 04b2 5A68     		ldr	r2, [r3, #4]
 1189 04b4 013A     		subs	r2, r2, #1
 1190 04b6 5A60     		str	r2, [r3, #4]
 297:../../source/src/kernel/OS_CORE/os_timer.c **** 						if(0 == GET_REST_NUM(timer_ptr->rest_num))
 1191              		.loc 1 297 0
 1192 04b8 FB68     		ldr	r3, [r7, #12]
 1193 04ba 5B68     		ldr	r3, [r3, #4]
 1194 04bc 03F07F03 		and	r3, r3, #127
 1195 04c0 002B     		cmp	r3, #0
 1196 04c2 08D1     		bne	.L70
 298:../../source/src/kernel/OS_CORE/os_timer.c **** 						{
 299:../../source/src/kernel/OS_CORE/os_timer.c **** 							if(TIMER_IS_CREAT(timer_ptr))
 1197              		.loc 1 299 0
 1198 04c4 FB68     		ldr	r3, [r7, #12]
 1199 04c6 5B68     		ldr	r3, [r3, #4]
 1200 04c8 002B     		cmp	r3, #0
 1201 04ca 22DA     		bge	.L79
 300:../../source/src/kernel/OS_CORE/os_timer.c **** 							{
 301:../../source/src/kernel/OS_CORE/os_timer.c **** 								ka_free(timer_ptr);
 1202              		.loc 1 301 0
 1203 04cc FB68     		ldr	r3, [r7, #12]
 1204 04ce 1846     		mov	r0, r3
 1205 04d0 FFF7FEFF 		bl	ka_free
 302:../../source/src/kernel/OS_CORE/os_timer.c **** 							}
 303:../../source/src/kernel/OS_CORE/os_timer.c **** 							break;
 1206              		.loc 1 303 0
 1207 04d4 1DE0     		b	.L79
 1208              	.L70:
 304:../../source/src/kernel/OS_CORE/os_timer.c **** 						}
 305:../../source/src/kernel/OS_CORE/os_timer.c **** 					case TIMER_PERIODIC:
 306:../../source/src/kernel/OS_CORE/os_timer.c **** 						timer_ptr->wake_time += timer_ptr->period;
 1209              		.loc 1 306 0
 1210 04d6 FB68     		ldr	r3, [r7, #12]
 1211 04d8 D3E90812 		ldrd	r1, [r3, #32]
 1212 04dc FB68     		ldr	r3, [r7, #12]
 1213 04de 5B69     		ldr	r3, [r3, #20]
 1214 04e0 9B46     		mov	fp, r3
 1215 04e2 4FF0000C 		mov	ip, #0
 1216 04e6 F868     		ldr	r0, [r7, #12]
 1217 04e8 1BEB0103 		adds	r3, fp, r1
 1218 04ec 4CEB0204 		adc	r4, ip, r2
 1219 04f0 C0E90834 		strd	r3, [r0, #32]
 307:../../source/src/kernel/OS_CORE/os_timer.c **** 						heap_push(&timer_heap,&timer_ptr);
 1220              		.loc 1 307 0
 1221 04f4 07F10C03 		add	r3, r7, #12
 1222 04f8 1946     		mov	r1, r3
 1223 04fa 0B48     		ldr	r0, .L80
 1224 04fc FFF7FEFF 		bl	heap_push
 308:../../source/src/kernel/OS_CORE/os_timer.c **** 						break;
 1225              		.loc 1 308 0
 1226 0500 08E0     		b	.L67
 1227              	.L77:
 309:../../source/src/kernel/OS_CORE/os_timer.c **** 					default:
ARM GAS  G:\Users\Jaxb\AppData\Local\Temp\cc45sPGH.s 			page 29


 310:../../source/src/kernel/OS_CORE/os_timer.c **** 						ASSERT(0);
 1228              		.loc 1 310 0 discriminator 1
 1229 0502 4FF49B71 		mov	r1, #310
 1230 0506 0948     		ldr	r0, .L80+4
 1231 0508 FFF7FEFF 		bl	_ASSERT
 311:../../source/src/kernel/OS_CORE/os_timer.c **** 						break;
 1232              		.loc 1 311 0 discriminator 1
 1233 050c 02E0     		b	.L67
 1234              	.L78:
 294:../../source/src/kernel/OS_CORE/os_timer.c **** 					case TIMER_TIME:
 1235              		.loc 1 294 0
 1236 050e 00BF     		nop
 1237 0510 00E0     		b	.L67
 1238              	.L79:
 303:../../source/src/kernel/OS_CORE/os_timer.c **** 						}
 1239              		.loc 1 303 0
 1240 0512 00BF     		nop
 1241              	.L67:
 312:../../source/src/kernel/OS_CORE/os_timer.c **** 				}
 313:../../source/src/kernel/OS_CORE/os_timer.c **** 			}
 314:../../source/src/kernel/OS_CORE/os_timer.c **** 		}
 315:../../source/src/kernel/OS_CORE/os_timer.c **** 		ret = heap_get_top_safe(&timer_heap,&timer_ptr);
 1242              		.loc 1 315 0
 1243 0514 07F10C03 		add	r3, r7, #12
 1244 0518 0122     		movs	r2, #1
 1245 051a 1946     		mov	r1, r3
 1246 051c 0248     		ldr	r0, .L80
 1247 051e FFF7FEFF 		bl	heap_get_index_data_safe
 1248 0522 F861     		str	r0, [r7, #28]
 272:../../source/src/kernel/OS_CORE/os_timer.c **** 		{
 1249              		.loc 1 272 0
 1250 0524 89E7     		b	.L75
 1251              	.L81:
 1252 0526 00BF     		.align	2
 1253              	.L80:
 1254 0528 00000000 		.word	timer_heap
 1255 052c 2C000000 		.word	.LC1
 1256              		.cfi_endproc
 1257              	.LFE25:
 1258              		.size	timer_task, .-timer_task
 1259              	.Letext0:
 1260              		.file 2 "../../source/include/os_cpu/kakaosstdint.h"
 1261              		.file 3 "../../source/include/os_core/os_timer.h"
 1262              		.file 4 "../../source/include/os_lib/vector.h"
 1263              		.file 5 "../../source/include/os_lib/heap_oo.h"
 1264              		.file 6 "../../source/include/os_core/task_state.h"
 1265              		.file 7 "../../source/include/os_cpu/os_cpu_stm32.h"
 1266              		.file 8 "../../source/include/os_core/export.h"
 1267              		.file 9 "../../source/include/os_core/TCB.h"
 1268              		.section	.debug_info,"",%progbits
 1269              	.Ldebug_info0:
 1270 0000 D5070000 		.4byte	0x7d5
 1271 0004 0200     		.2byte	0x2
 1272 0006 00000000 		.4byte	.Ldebug_abbrev0
 1273 000a 04       		.byte	0x4
 1274 000b 01       		.uleb128 0x1
 1275 000c A6040000 		.4byte	.LASF82
ARM GAS  G:\Users\Jaxb\AppData\Local\Temp\cc45sPGH.s 			page 30


 1276 0010 0C       		.byte	0xc
 1277 0011 0C040000 		.4byte	.LASF83
 1278 0015 BB010000 		.4byte	.LASF84
 1279 0019 00000000 		.4byte	.Ltext0
 1280 001d 30050000 		.4byte	.Letext0
 1281 0021 00000000 		.4byte	.Ldebug_line0
 1282 0025 02       		.uleb128 0x2
 1283 0026 01       		.byte	0x1
 1284 0027 06       		.byte	0x6
 1285 0028 A2020000 		.4byte	.LASF0
 1286 002c 02       		.uleb128 0x2
 1287 002d 02       		.byte	0x2
 1288 002e 05       		.byte	0x5
 1289 002f 89000000 		.4byte	.LASF1
 1290 0033 03       		.uleb128 0x3
 1291 0034 04       		.byte	0x4
 1292 0035 05       		.byte	0x5
 1293 0036 696E7400 		.ascii	"int\000"
 1294 003a 04       		.uleb128 0x4
 1295 003b 33000000 		.4byte	0x33
 1296 003f 05       		.uleb128 0x5
 1297 0040 AF030000 		.4byte	.LASF6
 1298 0044 02       		.byte	0x2
 1299 0045 08       		.byte	0x8
 1300 0046 4A000000 		.4byte	0x4a
 1301 004a 02       		.uleb128 0x2
 1302 004b 08       		.byte	0x8
 1303 004c 05       		.byte	0x5
 1304 004d E9010000 		.4byte	.LASF2
 1305 0051 02       		.uleb128 0x2
 1306 0052 01       		.byte	0x1
 1307 0053 08       		.byte	0x8
 1308 0054 88020000 		.4byte	.LASF3
 1309 0058 02       		.uleb128 0x2
 1310 0059 02       		.byte	0x2
 1311 005a 07       		.byte	0x7
 1312 005b 31030000 		.4byte	.LASF4
 1313 005f 02       		.uleb128 0x2
 1314 0060 04       		.byte	0x4
 1315 0061 07       		.byte	0x7
 1316 0062 CA020000 		.4byte	.LASF5
 1317 0066 05       		.uleb128 0x5
 1318 0067 78050000 		.4byte	.LASF7
 1319 006b 02       		.byte	0x2
 1320 006c 0D       		.byte	0xd
 1321 006d 71000000 		.4byte	0x71
 1322 0071 02       		.uleb128 0x2
 1323 0072 08       		.byte	0x8
 1324 0073 07       		.byte	0x7
 1325 0074 AE020000 		.4byte	.LASF8
 1326 0078 06       		.uleb128 0x6
 1327 0079 AA000000 		.4byte	.LASF13
 1328 007d 07       		.byte	0x7
 1329 007e 01       		.byte	0x1
 1330 007f 51000000 		.4byte	0x51
 1331 0083 03       		.byte	0x3
 1332 0084 11       		.byte	0x11
ARM GAS  G:\Users\Jaxb\AppData\Local\Temp\cc45sPGH.s 			page 31


 1333 0085 9C000000 		.4byte	0x9c
 1334 0089 07       		.uleb128 0x7
 1335 008a D7020000 		.4byte	.LASF9
 1336 008e 00       		.byte	0
 1337 008f 07       		.uleb128 0x7
 1338 0090 91050000 		.4byte	.LASF10
 1339 0094 01       		.byte	0x1
 1340 0095 07       		.uleb128 0x7
 1341 0096 9B040000 		.4byte	.LASF11
 1342 009a 02       		.byte	0x2
 1343 009b 00       		.byte	0
 1344 009c 05       		.uleb128 0x5
 1345 009d 70040000 		.4byte	.LASF12
 1346 00a1 03       		.byte	0x3
 1347 00a2 15       		.byte	0x15
 1348 00a3 78000000 		.4byte	0x78
 1349 00a7 06       		.uleb128 0x6
 1350 00a8 64040000 		.4byte	.LASF14
 1351 00ac 07       		.byte	0x7
 1352 00ad 01       		.byte	0x1
 1353 00ae 51000000 		.4byte	0x51
 1354 00b2 03       		.byte	0x3
 1355 00b3 17       		.byte	0x17
 1356 00b4 C5000000 		.4byte	0xc5
 1357 00b8 07       		.uleb128 0x7
 1358 00b9 6D010000 		.4byte	.LASF15
 1359 00bd 00       		.byte	0
 1360 00be 07       		.uleb128 0x7
 1361 00bf 7F050000 		.4byte	.LASF16
 1362 00c3 01       		.byte	0x1
 1363 00c4 00       		.byte	0
 1364 00c5 05       		.uleb128 0x5
 1365 00c6 C5030000 		.4byte	.LASF17
 1366 00ca 03       		.byte	0x3
 1367 00cb 1A       		.byte	0x1a
 1368 00cc A7000000 		.4byte	0xa7
 1369 00d0 08       		.uleb128 0x8
 1370 00d1 52010000 		.4byte	.LASF27
 1371 00d5 28       		.byte	0x28
 1372 00d6 03       		.byte	0x3
 1373 00d7 1C       		.byte	0x1c
 1374 00d8 5B010000 		.4byte	0x15b
 1375 00dc 09       		.uleb128 0x9
 1376 00dd C5020000 		.4byte	.LASF18
 1377 00e1 03       		.byte	0x3
 1378 00e2 1E       		.byte	0x1e
 1379 00e3 9C000000 		.4byte	0x9c
 1380 00e7 02       		.byte	0x2
 1381 00e8 23       		.byte	0x23
 1382 00e9 00       		.uleb128 0
 1383 00ea 09       		.uleb128 0x9
 1384 00eb 7B000000 		.4byte	.LASF19
 1385 00ef 03       		.byte	0x3
 1386 00f0 1F       		.byte	0x1f
 1387 00f1 C5000000 		.4byte	0xc5
 1388 00f5 02       		.byte	0x2
 1389 00f6 23       		.byte	0x23
ARM GAS  G:\Users\Jaxb\AppData\Local\Temp\cc45sPGH.s 			page 32


 1390 00f7 01       		.uleb128 0x1
 1391 00f8 09       		.uleb128 0x9
 1392 00f9 D1030000 		.4byte	.LASF20
 1393 00fd 03       		.byte	0x3
 1394 00fe 20       		.byte	0x20
 1395 00ff 5F000000 		.4byte	0x5f
 1396 0103 02       		.byte	0x2
 1397 0104 23       		.byte	0x23
 1398 0105 04       		.uleb128 0x4
 1399 0106 09       		.uleb128 0x9
 1400 0107 F1000000 		.4byte	.LASF21
 1401 010b 03       		.byte	0x3
 1402 010c 21       		.byte	0x21
 1403 010d 60010000 		.4byte	0x160
 1404 0111 02       		.byte	0x2
 1405 0112 23       		.byte	0x23
 1406 0113 08       		.uleb128 0x8
 1407 0114 0A       		.uleb128 0xa
 1408 0115 66756E00 		.ascii	"fun\000"
 1409 0119 03       		.byte	0x3
 1410 011a 22       		.byte	0x22
 1411 011b 80010000 		.4byte	0x180
 1412 011f 02       		.byte	0x2
 1413 0120 23       		.byte	0x23
 1414 0121 0C       		.uleb128 0xc
 1415 0122 09       		.uleb128 0x9
 1416 0123 68010000 		.4byte	.LASF22
 1417 0127 03       		.byte	0x3
 1418 0128 23       		.byte	0x23
 1419 0129 7E010000 		.4byte	0x17e
 1420 012d 02       		.byte	0x2
 1421 012e 23       		.byte	0x23
 1422 012f 10       		.uleb128 0x10
 1423 0130 09       		.uleb128 0x9
 1424 0131 4A020000 		.4byte	.LASF23
 1425 0135 03       		.byte	0x3
 1426 0136 24       		.byte	0x24
 1427 0137 5F000000 		.4byte	0x5f
 1428 013b 02       		.byte	0x2
 1429 013c 23       		.byte	0x23
 1430 013d 14       		.uleb128 0x14
 1431 013e 09       		.uleb128 0x9
 1432 013f 50030000 		.4byte	.LASF24
 1433 0143 03       		.byte	0x3
 1434 0144 25       		.byte	0x25
 1435 0145 5F000000 		.4byte	0x5f
 1436 0149 02       		.byte	0x2
 1437 014a 23       		.byte	0x23
 1438 014b 18       		.uleb128 0x18
 1439 014c 09       		.uleb128 0x9
 1440 014d 90010000 		.4byte	.LASF25
 1441 0151 03       		.byte	0x3
 1442 0152 26       		.byte	0x26
 1443 0153 66000000 		.4byte	0x66
 1444 0157 02       		.byte	0x2
 1445 0158 23       		.byte	0x23
 1446 0159 20       		.uleb128 0x20
ARM GAS  G:\Users\Jaxb\AppData\Local\Temp\cc45sPGH.s 			page 33


 1447 015a 00       		.byte	0
 1448 015b 0B       		.uleb128 0xb
 1449 015c D0000000 		.4byte	0xd0
 1450 0160 0C       		.uleb128 0xc
 1451 0161 04       		.byte	0x4
 1452 0162 66010000 		.4byte	0x166
 1453 0166 02       		.uleb128 0x2
 1454 0167 01       		.byte	0x1
 1455 0168 08       		.byte	0x8
 1456 0169 2B020000 		.4byte	.LASF26
 1457 016d 0B       		.uleb128 0xb
 1458 016e 66010000 		.4byte	0x166
 1459 0172 0D       		.uleb128 0xd
 1460 0173 01       		.byte	0x1
 1461 0174 7E010000 		.4byte	0x17e
 1462 0178 0E       		.uleb128 0xe
 1463 0179 7E010000 		.4byte	0x17e
 1464 017d 00       		.byte	0
 1465 017e 0F       		.uleb128 0xf
 1466 017f 04       		.byte	0x4
 1467 0180 0C       		.uleb128 0xc
 1468 0181 04       		.byte	0x4
 1469 0182 72010000 		.4byte	0x172
 1470 0186 08       		.uleb128 0x8
 1471 0187 58010000 		.4byte	.LASF28
 1472 018b 14       		.byte	0x14
 1473 018c 04       		.byte	0x4
 1474 018d 08       		.byte	0x8
 1475 018e D9010000 		.4byte	0x1d9
 1476 0192 09       		.uleb128 0x9
 1477 0193 5F010000 		.4byte	.LASF29
 1478 0197 04       		.byte	0x4
 1479 0198 0A       		.byte	0xa
 1480 0199 7E010000 		.4byte	0x17e
 1481 019d 02       		.byte	0x2
 1482 019e 23       		.byte	0x23
 1483 019f 00       		.uleb128 0
 1484 01a0 09       		.uleb128 0x9
 1485 01a1 81000000 		.4byte	.LASF30
 1486 01a5 04       		.byte	0x4
 1487 01a6 0B       		.byte	0xb
 1488 01a7 5F000000 		.4byte	0x5f
 1489 01ab 02       		.byte	0x2
 1490 01ac 23       		.byte	0x23
 1491 01ad 04       		.uleb128 0x4
 1492 01ae 09       		.uleb128 0x9
 1493 01af 51020000 		.4byte	.LASF31
 1494 01b3 04       		.byte	0x4
 1495 01b4 0C       		.byte	0xc
 1496 01b5 5F000000 		.4byte	0x5f
 1497 01b9 02       		.byte	0x2
 1498 01ba 23       		.byte	0x23
 1499 01bb 08       		.uleb128 0x8
 1500 01bc 09       		.uleb128 0x9
 1501 01bd 02040000 		.4byte	.LASF32
 1502 01c1 04       		.byte	0x4
 1503 01c2 0D       		.byte	0xd
ARM GAS  G:\Users\Jaxb\AppData\Local\Temp\cc45sPGH.s 			page 34


 1504 01c3 5F000000 		.4byte	0x5f
 1505 01c7 02       		.byte	0x2
 1506 01c8 23       		.byte	0x23
 1507 01c9 0C       		.uleb128 0xc
 1508 01ca 09       		.uleb128 0x9
 1509 01cb 7E030000 		.4byte	.LASF33
 1510 01cf 04       		.byte	0x4
 1511 01d0 13       		.byte	0x13
 1512 01d1 5F000000 		.4byte	0x5f
 1513 01d5 02       		.byte	0x2
 1514 01d6 23       		.byte	0x23
 1515 01d7 10       		.uleb128 0x10
 1516 01d8 00       		.byte	0
 1517 01d9 05       		.uleb128 0x5
 1518 01da 6D020000 		.4byte	.LASF34
 1519 01de 04       		.byte	0x4
 1520 01df 14       		.byte	0x14
 1521 01e0 86010000 		.4byte	0x186
 1522 01e4 08       		.uleb128 0x8
 1523 01e5 F6030000 		.4byte	.LASF35
 1524 01e9 1C       		.byte	0x1c
 1525 01ea 05       		.byte	0x5
 1526 01eb 0A       		.byte	0xa
 1527 01ec 1B020000 		.4byte	0x21b
 1528 01f0 09       		.uleb128 0x9
 1529 01f1 C0030000 		.4byte	.LASF36
 1530 01f5 05       		.byte	0x5
 1531 01f6 0D       		.byte	0xd
 1532 01f7 D9010000 		.4byte	0x1d9
 1533 01fb 02       		.byte	0x2
 1534 01fc 23       		.byte	0x23
 1535 01fd 00       		.uleb128 0
 1536 01fe 0A       		.uleb128 0xa
 1537 01ff 636D7000 		.ascii	"cmp\000"
 1538 0203 05       		.byte	0x5
 1539 0204 0F       		.byte	0xf
 1540 0205 3B020000 		.4byte	0x23b
 1541 0209 02       		.byte	0x2
 1542 020a 23       		.byte	0x23
 1543 020b 14       		.uleb128 0x14
 1544 020c 09       		.uleb128 0x9
 1545 020d FC000000 		.4byte	.LASF37
 1546 0211 05       		.byte	0x5
 1547 0212 11       		.byte	0x11
 1548 0213 52020000 		.4byte	0x252
 1549 0217 02       		.byte	0x2
 1550 0218 23       		.byte	0x23
 1551 0219 18       		.uleb128 0x18
 1552 021a 00       		.byte	0
 1553 021b 10       		.uleb128 0x10
 1554 021c 01       		.byte	0x1
 1555 021d 33000000 		.4byte	0x33
 1556 0221 35020000 		.4byte	0x235
 1557 0225 0E       		.uleb128 0xe
 1558 0226 35020000 		.4byte	0x235
 1559 022a 0E       		.uleb128 0xe
 1560 022b 5F000000 		.4byte	0x5f
ARM GAS  G:\Users\Jaxb\AppData\Local\Temp\cc45sPGH.s 			page 35


 1561 022f 0E       		.uleb128 0xe
 1562 0230 5F000000 		.4byte	0x5f
 1563 0234 00       		.byte	0
 1564 0235 0C       		.uleb128 0xc
 1565 0236 04       		.byte	0x4
 1566 0237 D9010000 		.4byte	0x1d9
 1567 023b 0C       		.uleb128 0xc
 1568 023c 04       		.byte	0x4
 1569 023d 1B020000 		.4byte	0x21b
 1570 0241 0D       		.uleb128 0xd
 1571 0242 01       		.byte	0x1
 1572 0243 52020000 		.4byte	0x252
 1573 0247 0E       		.uleb128 0xe
 1574 0248 35020000 		.4byte	0x235
 1575 024c 0E       		.uleb128 0xe
 1576 024d 33000000 		.4byte	0x33
 1577 0251 00       		.byte	0
 1578 0252 0C       		.uleb128 0xc
 1579 0253 04       		.byte	0x4
 1580 0254 41020000 		.4byte	0x241
 1581 0258 06       		.uleb128 0x6
 1582 0259 10010000 		.4byte	.LASF38
 1583 025d 07       		.byte	0x7
 1584 025e 01       		.byte	0x1
 1585 025f 51000000 		.4byte	0x51
 1586 0263 06       		.byte	0x6
 1587 0264 04       		.byte	0x4
 1588 0265 A6020000 		.4byte	0x2a6
 1589 0269 07       		.uleb128 0x7
 1590 026a 44030000 		.4byte	.LASF39
 1591 026e 01       		.byte	0x1
 1592 026f 07       		.uleb128 0x7
 1593 0270 96020000 		.4byte	.LASF40
 1594 0274 02       		.byte	0x2
 1595 0275 07       		.uleb128 0x7
 1596 0276 14000000 		.4byte	.LASF41
 1597 027a 03       		.byte	0x3
 1598 027b 07       		.uleb128 0x7
 1599 027c 4D040000 		.4byte	.LASF42
 1600 0280 04       		.byte	0x4
 1601 0281 07       		.uleb128 0x7
 1602 0282 93000000 		.4byte	.LASF43
 1603 0286 05       		.byte	0x5
 1604 0287 07       		.uleb128 0x7
 1605 0288 D0000000 		.4byte	.LASF44
 1606 028c 06       		.byte	0x6
 1607 028d 07       		.uleb128 0x7
 1608 028e 9A010000 		.4byte	.LASF45
 1609 0292 07       		.byte	0x7
 1610 0293 07       		.uleb128 0x7
 1611 0294 1B010000 		.4byte	.LASF46
 1612 0298 08       		.byte	0x8
 1613 0299 07       		.uleb128 0x7
 1614 029a 8F030000 		.4byte	.LASF47
 1615 029e 09       		.byte	0x9
 1616 029f 07       		.uleb128 0x7
 1617 02a0 53050000 		.4byte	.LASF48
ARM GAS  G:\Users\Jaxb\AppData\Local\Temp\cc45sPGH.s 			page 36


 1618 02a4 0A       		.byte	0xa
 1619 02a5 00       		.byte	0
 1620 02a6 05       		.uleb128 0x5
 1621 02a7 B5030000 		.4byte	.LASF49
 1622 02ab 07       		.byte	0x7
 1623 02ac 06       		.byte	0x6
 1624 02ad 5F000000 		.4byte	0x5f
 1625 02b1 05       		.uleb128 0x5
 1626 02b2 6C050000 		.4byte	.LASF50
 1627 02b6 07       		.byte	0x7
 1628 02b7 08       		.byte	0x8
 1629 02b8 A6020000 		.4byte	0x2a6
 1630 02bc 11       		.uleb128 0x11
 1631 02bd 89040000 		.4byte	.LASF54
 1632 02c1 09       		.byte	0x9
 1633 02c2 13       		.byte	0x13
 1634 02c3 3A000000 		.4byte	0x3a
 1635 02c7 01       		.byte	0x1
 1636 02c8 01       		.byte	0x1
 1637 02c9 08       		.uleb128 0x8
 1638 02ca 3B010000 		.4byte	.LASF51
 1639 02ce 08       		.byte	0x8
 1640 02cf 08       		.byte	0x8
 1641 02d0 08       		.byte	0x8
 1642 02d1 F2020000 		.4byte	0x2f2
 1643 02d5 09       		.uleb128 0x9
 1644 02d6 45020000 		.4byte	.LASF52
 1645 02da 08       		.byte	0x8
 1646 02db 0A       		.byte	0xa
 1647 02dc 7E010000 		.4byte	0x17e
 1648 02e0 02       		.byte	0x2
 1649 02e1 23       		.byte	0x23
 1650 02e2 00       		.uleb128 0
 1651 02e3 09       		.uleb128 0x9
 1652 02e4 59020000 		.4byte	.LASF53
 1653 02e8 08       		.byte	0x8
 1654 02e9 0B       		.byte	0xb
 1655 02ea F7020000 		.4byte	0x2f7
 1656 02ee 02       		.byte	0x2
 1657 02ef 23       		.byte	0x23
 1658 02f0 04       		.uleb128 0x4
 1659 02f1 00       		.byte	0
 1660 02f2 0B       		.uleb128 0xb
 1661 02f3 C9020000 		.4byte	0x2c9
 1662 02f7 0C       		.uleb128 0xc
 1663 02f8 04       		.byte	0x4
 1664 02f9 6D010000 		.4byte	0x16d
 1665 02fd 12       		.uleb128 0x12
 1666 02fe 86050000 		.4byte	.LASF65
 1667 0302 01       		.byte	0x1
 1668 0303 0D       		.byte	0xd
 1669 0304 E4010000 		.4byte	0x1e4
 1670 0308 05       		.byte	0x5
 1671 0309 03       		.byte	0x3
 1672 030a 00000000 		.4byte	timer_heap
 1673 030e 13       		.uleb128 0x13
 1674 030f 6D010000 		.4byte	0x16d
ARM GAS  G:\Users\Jaxb\AppData\Local\Temp\cc45sPGH.s 			page 37


 1675 0313 1E030000 		.4byte	0x31e
 1676 0317 14       		.uleb128 0x14
 1677 0318 5F000000 		.4byte	0x5f
 1678 031c 0A       		.byte	0xa
 1679 031d 00       		.byte	0
 1680 031e 0B       		.uleb128 0xb
 1681 031f 0E030000 		.4byte	0x30e
 1682 0323 15       		.uleb128 0x15
 1683 0324 4C000000 		.4byte	.LASF55
 1684 0328 01       		.byte	0x1
 1685 0329 5D       		.byte	0x5d
 1686 032a 1E030000 		.4byte	0x31e
 1687 032e 01       		.byte	0x1
 1688 032f 05       		.byte	0x5
 1689 0330 03       		.byte	0x3
 1690 0331 00000000 		.4byte	__rtmsym_timer_init_name
 1691 0335 15       		.uleb128 0x15
 1692 0336 00000000 		.4byte	.LASF56
 1693 033a 01       		.byte	0x1
 1694 033b 5D       		.byte	0x5d
 1695 033c F2020000 		.4byte	0x2f2
 1696 0340 01       		.byte	0x1
 1697 0341 05       		.byte	0x5
 1698 0342 03       		.byte	0x3
 1699 0343 00000000 		.4byte	__rtmsym_timer_init
 1700 0347 13       		.uleb128 0x13
 1701 0348 6D010000 		.4byte	0x16d
 1702 034c 57030000 		.4byte	0x357
 1703 0350 14       		.uleb128 0x14
 1704 0351 5F000000 		.4byte	0x5f
 1705 0355 0C       		.byte	0xc
 1706 0356 00       		.byte	0
 1707 0357 0B       		.uleb128 0xb
 1708 0358 47030000 		.4byte	0x347
 1709 035c 15       		.uleb128 0x15
 1710 035d 75010000 		.4byte	.LASF57
 1711 0361 01       		.byte	0x1
 1712 0362 7C       		.byte	0x7c
 1713 0363 57030000 		.4byte	0x357
 1714 0367 01       		.byte	0x1
 1715 0368 05       		.byte	0x5
 1716 0369 03       		.byte	0x3
 1717 036a 00000000 		.4byte	__rtmsym_timer_create_name
 1718 036e 15       		.uleb128 0x15
 1719 036f 37040000 		.4byte	.LASF58
 1720 0373 01       		.byte	0x1
 1721 0374 7C       		.byte	0x7c
 1722 0375 F2020000 		.4byte	0x2f2
 1723 0379 01       		.byte	0x1
 1724 037a 05       		.byte	0x5
 1725 037b 03       		.byte	0x3
 1726 037c 00000000 		.4byte	__rtmsym_timer_create
 1727 0380 15       		.uleb128 0x15
 1728 0381 16030000 		.4byte	.LASF59
 1729 0385 01       		.byte	0x1
 1730 0386 9C       		.byte	0x9c
 1731 0387 57030000 		.4byte	0x357
ARM GAS  G:\Users\Jaxb\AppData\Local\Temp\cc45sPGH.s 			page 38


 1732 038b 01       		.byte	0x1
 1733 038c 05       		.byte	0x5
 1734 038d 03       		.byte	0x3
 1735 038e 00000000 		.4byte	__rtmsym_timer_enable_name
 1736 0392 15       		.uleb128 0x15
 1737 0393 65000000 		.4byte	.LASF60
 1738 0397 01       		.byte	0x1
 1739 0398 9C       		.byte	0x9c
 1740 0399 F2020000 		.4byte	0x2f2
 1741 039d 01       		.byte	0x1
 1742 039e 05       		.byte	0x5
 1743 039f 03       		.byte	0x3
 1744 03a0 00000000 		.4byte	__rtmsym_timer_enable
 1745 03a4 13       		.uleb128 0x13
 1746 03a5 6D010000 		.4byte	0x16d
 1747 03a9 B4030000 		.4byte	0x3b4
 1748 03ad 14       		.uleb128 0x14
 1749 03ae 5F000000 		.4byte	0x5f
 1750 03b2 0D       		.byte	0xd
 1751 03b3 00       		.byte	0
 1752 03b4 0B       		.uleb128 0xb
 1753 03b5 A4030000 		.4byte	0x3a4
 1754 03b9 15       		.uleb128 0x15
 1755 03ba DA030000 		.4byte	.LASF61
 1756 03be 01       		.byte	0x1
 1757 03bf BF       		.byte	0xbf
 1758 03c0 B4030000 		.4byte	0x3b4
 1759 03c4 01       		.byte	0x1
 1760 03c5 05       		.byte	0x5
 1761 03c6 03       		.byte	0x3
 1762 03c7 00000000 		.4byte	__rtmsym_timer_disable_name
 1763 03cb 15       		.uleb128 0x15
 1764 03cc E6020000 		.4byte	.LASF62
 1765 03d0 01       		.byte	0x1
 1766 03d1 BF       		.byte	0xbf
 1767 03d2 F2020000 		.4byte	0x2f2
 1768 03d6 01       		.byte	0x1
 1769 03d7 05       		.byte	0x5
 1770 03d8 03       		.byte	0x3
 1771 03d9 00000000 		.4byte	__rtmsym_timer_disable
 1772 03dd 15       		.uleb128 0x15
 1773 03de 10020000 		.4byte	.LASF63
 1774 03e2 01       		.byte	0x1
 1775 03e3 E4       		.byte	0xe4
 1776 03e4 57030000 		.4byte	0x357
 1777 03e8 01       		.byte	0x1
 1778 03e9 05       		.byte	0x5
 1779 03ea 03       		.byte	0x3
 1780 03eb 00000000 		.4byte	__rtmsym_timer_delete_name
 1781 03ef 15       		.uleb128 0x15
 1782 03f0 36000000 		.4byte	.LASF64
 1783 03f4 01       		.byte	0x1
 1784 03f5 E4       		.byte	0xe4
 1785 03f6 F2020000 		.4byte	0x2f2
 1786 03fa 01       		.byte	0x1
 1787 03fb 05       		.byte	0x5
 1788 03fc 03       		.byte	0x3
ARM GAS  G:\Users\Jaxb\AppData\Local\Temp\cc45sPGH.s 			page 39


 1789 03fd 00000000 		.4byte	__rtmsym_timer_delete
 1790 0401 16       		.uleb128 0x16
 1791 0402 01       		.byte	0x1
 1792 0403 05020000 		.4byte	.LASF85
 1793 0407 01       		.byte	0x1
 1794 0408 0801     		.2byte	0x108
 1795 040a 01       		.byte	0x1
 1796 040b 20040000 		.4byte	.LFB25
 1797 040f 30050000 		.4byte	.LFE25
 1798 0413 00000000 		.4byte	.LLST12
 1799 0417 01       		.byte	0x1
 1800 0418 59040000 		.4byte	0x459
 1801 041c 17       		.uleb128 0x17
 1802 041d 68010000 		.4byte	.LASF22
 1803 0421 01       		.byte	0x1
 1804 0422 0801     		.2byte	0x108
 1805 0424 7E010000 		.4byte	0x17e
 1806 0428 02       		.byte	0x2
 1807 0429 91       		.byte	0x91
 1808 042a 54       		.sleb128 -44
 1809 042b 18       		.uleb128 0x18
 1810 042c 73050000 		.4byte	.LASF66
 1811 0430 01       		.byte	0x1
 1812 0431 0B01     		.2byte	0x10b
 1813 0433 66000000 		.4byte	0x66
 1814 0437 02       		.byte	0x2
 1815 0438 91       		.byte	0x91
 1816 0439 60       		.sleb128 -32
 1817 043a 18       		.uleb128 0x18
 1818 043b 3B020000 		.4byte	.LASF67
 1819 043f 01       		.byte	0x1
 1820 0440 0C01     		.2byte	0x10c
 1821 0442 59040000 		.4byte	0x459
 1822 0446 02       		.byte	0x2
 1823 0447 91       		.byte	0x91
 1824 0448 5C       		.sleb128 -36
 1825 0449 19       		.uleb128 0x19
 1826 044a 72657400 		.ascii	"ret\000"
 1827 044e 01       		.byte	0x1
 1828 044f 0D01     		.2byte	0x10d
 1829 0451 33000000 		.4byte	0x33
 1830 0455 02       		.byte	0x2
 1831 0456 91       		.byte	0x91
 1832 0457 6C       		.sleb128 -20
 1833 0458 00       		.byte	0
 1834 0459 0C       		.uleb128 0xc
 1835 045a 04       		.byte	0x4
 1836 045b D0000000 		.4byte	0xd0
 1837 045f 1A       		.uleb128 0x1a
 1838 0460 01       		.byte	0x1
 1839 0461 74020000 		.4byte	.LASF69
 1840 0465 01       		.byte	0x1
 1841 0466 EF       		.byte	0xef
 1842 0467 01       		.byte	0x1
 1843 0468 33000000 		.4byte	0x33
 1844 046c C4030000 		.4byte	.LFB24
 1845 0470 20040000 		.4byte	.LFE24
ARM GAS  G:\Users\Jaxb\AppData\Local\Temp\cc45sPGH.s 			page 40


 1846 0474 38000000 		.4byte	.LLST11
 1847 0478 01       		.byte	0x1
 1848 0479 A8040000 		.4byte	0x4a8
 1849 047d 1B       		.uleb128 0x1b
 1850 047e 3B020000 		.4byte	.LASF67
 1851 0482 01       		.byte	0x1
 1852 0483 EF       		.byte	0xef
 1853 0484 A8040000 		.4byte	0x4a8
 1854 0488 02       		.byte	0x2
 1855 0489 91       		.byte	0x91
 1856 048a 6C       		.sleb128 -20
 1857 048b 12       		.uleb128 0x12
 1858 048c 4C050000 		.4byte	.LASF68
 1859 0490 01       		.byte	0x1
 1860 0491 F9       		.byte	0xf9
 1861 0492 B1020000 		.4byte	0x2b1
 1862 0496 02       		.byte	0x2
 1863 0497 91       		.byte	0x91
 1864 0498 74       		.sleb128 -12
 1865 0499 1C       		.uleb128 0x1c
 1866 049a 72657400 		.ascii	"ret\000"
 1867 049e 01       		.byte	0x1
 1868 049f FB       		.byte	0xfb
 1869 04a0 33000000 		.4byte	0x33
 1870 04a4 02       		.byte	0x2
 1871 04a5 91       		.byte	0x91
 1872 04a6 70       		.sleb128 -16
 1873 04a7 00       		.byte	0
 1874 04a8 0C       		.uleb128 0xc
 1875 04a9 04       		.byte	0x4
 1876 04aa 59040000 		.4byte	0x459
 1877 04ae 1A       		.uleb128 0x1a
 1878 04af 01       		.byte	0x1
 1879 04b0 64030000 		.4byte	.LASF70
 1880 04b4 01       		.byte	0x1
 1881 04b5 DB       		.byte	0xdb
 1882 04b6 01       		.byte	0x1
 1883 04b7 33000000 		.4byte	0x33
 1884 04bb 94030000 		.4byte	.LFB23
 1885 04bf C4030000 		.4byte	.LFE23
 1886 04c3 88000000 		.4byte	.LLST10
 1887 04c7 01       		.byte	0x1
 1888 04c8 DB040000 		.4byte	0x4db
 1889 04cc 1B       		.uleb128 0x1b
 1890 04cd 3B020000 		.4byte	.LASF67
 1891 04d1 01       		.byte	0x1
 1892 04d2 DB       		.byte	0xdb
 1893 04d3 59040000 		.4byte	0x459
 1894 04d7 02       		.byte	0x2
 1895 04d8 91       		.byte	0x91
 1896 04d9 74       		.sleb128 -12
 1897 04da 00       		.byte	0
 1898 04db 1A       		.uleb128 0x1a
 1899 04dc 01       		.byte	0x1
 1900 04dd F7010000 		.4byte	.LASF71
 1901 04e1 01       		.byte	0x1
 1902 04e2 CA       		.byte	0xca
ARM GAS  G:\Users\Jaxb\AppData\Local\Temp\cc45sPGH.s 			page 41


 1903 04e3 01       		.byte	0x1
 1904 04e4 33000000 		.4byte	0x33
 1905 04e8 44030000 		.4byte	.LFB22
 1906 04ec 94030000 		.4byte	.LFE22
 1907 04f0 D8000000 		.4byte	.LLST9
 1908 04f4 01       		.byte	0x1
 1909 04f5 16050000 		.4byte	0x516
 1910 04f9 1B       		.uleb128 0x1b
 1911 04fa 3B020000 		.4byte	.LASF67
 1912 04fe 01       		.byte	0x1
 1913 04ff CA       		.byte	0xca
 1914 0500 59040000 		.4byte	0x459
 1915 0504 02       		.byte	0x2
 1916 0505 91       		.byte	0x91
 1917 0506 6C       		.sleb128 -20
 1918 0507 12       		.uleb128 0x12
 1919 0508 4C050000 		.4byte	.LASF68
 1920 050c 01       		.byte	0x1
 1921 050d CD       		.byte	0xcd
 1922 050e B1020000 		.4byte	0x2b1
 1923 0512 02       		.byte	0x2
 1924 0513 91       		.byte	0x91
 1925 0514 74       		.sleb128 -12
 1926 0515 00       		.byte	0
 1927 0516 1A       		.uleb128 0x1a
 1928 0517 01       		.byte	0x1
 1929 0518 08030000 		.4byte	.LASF72
 1930 051c 01       		.byte	0x1
 1931 051d B6       		.byte	0xb6
 1932 051e 01       		.byte	0x1
 1933 051f 33000000 		.4byte	0x33
 1934 0523 14030000 		.4byte	.LFB21
 1935 0527 44030000 		.4byte	.LFE21
 1936 052b 28010000 		.4byte	.LLST8
 1937 052f 01       		.byte	0x1
 1938 0530 43050000 		.4byte	0x543
 1939 0534 1B       		.uleb128 0x1b
 1940 0535 3B020000 		.4byte	.LASF67
 1941 0539 01       		.byte	0x1
 1942 053a B6       		.byte	0xb6
 1943 053b 59040000 		.4byte	0x459
 1944 053f 02       		.byte	0x2
 1945 0540 91       		.byte	0x91
 1946 0541 74       		.sleb128 -12
 1947 0542 00       		.byte	0
 1948 0543 1A       		.uleb128 0x1a
 1949 0544 01       		.byte	0x1
 1950 0545 5E020000 		.4byte	.LASF73
 1951 0549 01       		.byte	0x1
 1952 054a A6       		.byte	0xa6
 1953 054b 01       		.byte	0x1
 1954 054c 33000000 		.4byte	0x33
 1955 0550 B4020000 		.4byte	.LFB20
 1956 0554 14030000 		.4byte	.LFE20
 1957 0558 78010000 		.4byte	.LLST7
 1958 055c 01       		.byte	0x1
 1959 055d 8C050000 		.4byte	0x58c
ARM GAS  G:\Users\Jaxb\AppData\Local\Temp\cc45sPGH.s 			page 42


 1960 0561 1B       		.uleb128 0x1b
 1961 0562 3B020000 		.4byte	.LASF67
 1962 0566 01       		.byte	0x1
 1963 0567 A6       		.byte	0xa6
 1964 0568 59040000 		.4byte	0x459
 1965 056c 02       		.byte	0x2
 1966 056d 91       		.byte	0x91
 1967 056e 6C       		.sleb128 -20
 1968 056f 12       		.uleb128 0x12
 1969 0570 4C050000 		.4byte	.LASF68
 1970 0574 01       		.byte	0x1
 1971 0575 A9       		.byte	0xa9
 1972 0576 B1020000 		.4byte	0x2b1
 1973 057a 02       		.byte	0x2
 1974 057b 91       		.byte	0x91
 1975 057c 74       		.sleb128 -12
 1976 057d 1C       		.uleb128 0x1c
 1977 057e 72657400 		.ascii	"ret\000"
 1978 0582 01       		.byte	0x1
 1979 0583 AB       		.byte	0xab
 1980 0584 33000000 		.4byte	0x33
 1981 0588 02       		.byte	0x2
 1982 0589 91       		.byte	0x91
 1983 058a 70       		.sleb128 -16
 1984 058b 00       		.byte	0
 1985 058c 1A       		.uleb128 0x1a
 1986 058d 01       		.byte	0x1
 1987 058e 71030000 		.4byte	.LASF74
 1988 0592 01       		.byte	0x1
 1989 0593 93       		.byte	0x93
 1990 0594 01       		.byte	0x1
 1991 0595 33000000 		.4byte	0x33
 1992 0599 84020000 		.4byte	.LFB19
 1993 059d B4020000 		.4byte	.LFE19
 1994 05a1 C8010000 		.4byte	.LLST6
 1995 05a5 01       		.byte	0x1
 1996 05a6 B9050000 		.4byte	0x5b9
 1997 05aa 1B       		.uleb128 0x1b
 1998 05ab 3B020000 		.4byte	.LASF67
 1999 05af 01       		.byte	0x1
 2000 05b0 93       		.byte	0x93
 2001 05b1 59040000 		.4byte	0x459
 2002 05b5 02       		.byte	0x2
 2003 05b6 91       		.byte	0x91
 2004 05b7 74       		.sleb128 -12
 2005 05b8 00       		.byte	0
 2006 05b9 1A       		.uleb128 0x1a
 2007 05ba 01       		.byte	0x1
 2008 05bb 7B040000 		.4byte	.LASF75
 2009 05bf 01       		.byte	0x1
 2010 05c0 87       		.byte	0x87
 2011 05c1 01       		.byte	0x1
 2012 05c2 33000000 		.4byte	0x33
 2013 05c6 10020000 		.4byte	.LFB18
 2014 05ca 84020000 		.4byte	.LFE18
 2015 05ce 18020000 		.4byte	.LLST5
 2016 05d2 01       		.byte	0x1
ARM GAS  G:\Users\Jaxb\AppData\Local\Temp\cc45sPGH.s 			page 43


 2017 05d3 02060000 		.4byte	0x602
 2018 05d7 1B       		.uleb128 0x1b
 2019 05d8 3B020000 		.4byte	.LASF67
 2020 05dc 01       		.byte	0x1
 2021 05dd 87       		.byte	0x87
 2022 05de 59040000 		.4byte	0x459
 2023 05e2 02       		.byte	0x2
 2024 05e3 91       		.byte	0x91
 2025 05e4 5C       		.sleb128 -36
 2026 05e5 12       		.uleb128 0x12
 2027 05e6 4C050000 		.4byte	.LASF68
 2028 05ea 01       		.byte	0x1
 2029 05eb 8A       		.byte	0x8a
 2030 05ec B1020000 		.4byte	0x2b1
 2031 05f0 02       		.byte	0x2
 2032 05f1 91       		.byte	0x91
 2033 05f2 64       		.sleb128 -28
 2034 05f3 1C       		.uleb128 0x1c
 2035 05f4 72657400 		.ascii	"ret\000"
 2036 05f8 01       		.byte	0x1
 2037 05f9 8E       		.byte	0x8e
 2038 05fa 33000000 		.4byte	0x33
 2039 05fe 02       		.byte	0x2
 2040 05ff 91       		.byte	0x91
 2041 0600 60       		.sleb128 -32
 2042 0601 00       		.byte	0
 2043 0602 1A       		.uleb128 0x1a
 2044 0603 01       		.byte	0x1
 2045 0604 B5000000 		.4byte	.LASF76
 2046 0608 01       		.byte	0x1
 2047 0609 65       		.byte	0x65
 2048 060a 01       		.byte	0x1
 2049 060b 33000000 		.4byte	0x33
 2050 060f B4010000 		.4byte	.LFB17
 2051 0613 10020000 		.4byte	.LFE17
 2052 0617 68020000 		.4byte	.LLST4
 2053 061b 01       		.byte	0x1
 2054 061c 91060000 		.4byte	0x691
 2055 0620 1B       		.uleb128 0x1b
 2056 0621 3B020000 		.4byte	.LASF67
 2057 0625 01       		.byte	0x1
 2058 0626 66       		.byte	0x66
 2059 0627 A8040000 		.4byte	0x4a8
 2060 062b 02       		.byte	0x2
 2061 062c 91       		.byte	0x91
 2062 062d 6C       		.sleb128 -20
 2063 062e 1B       		.uleb128 0x1b
 2064 062f C5020000 		.4byte	.LASF18
 2065 0633 01       		.byte	0x1
 2066 0634 67       		.byte	0x67
 2067 0635 9C000000 		.4byte	0x9c
 2068 0639 02       		.byte	0x2
 2069 063a 91       		.byte	0x91
 2070 063b 6B       		.sleb128 -21
 2071 063c 1B       		.uleb128 0x1b
 2072 063d 59020000 		.4byte	.LASF53
 2073 0641 01       		.byte	0x1
ARM GAS  G:\Users\Jaxb\AppData\Local\Temp\cc45sPGH.s 			page 44


 2074 0642 68       		.byte	0x68
 2075 0643 60010000 		.4byte	0x160
 2076 0647 02       		.byte	0x2
 2077 0648 91       		.byte	0x91
 2078 0649 64       		.sleb128 -28
 2079 064a 1D       		.uleb128 0x1d
 2080 064b 66756E00 		.ascii	"fun\000"
 2081 064f 01       		.byte	0x1
 2082 0650 69       		.byte	0x69
 2083 0651 80010000 		.4byte	0x180
 2084 0655 02       		.byte	0x2
 2085 0656 91       		.byte	0x91
 2086 0657 60       		.sleb128 -32
 2087 0658 1B       		.uleb128 0x1b
 2088 0659 68010000 		.4byte	.LASF22
 2089 065d 01       		.byte	0x1
 2090 065e 6A       		.byte	0x6a
 2091 065f 7E010000 		.4byte	0x17e
 2092 0663 02       		.byte	0x2
 2093 0664 91       		.byte	0x91
 2094 0665 00       		.sleb128 0
 2095 0666 1B       		.uleb128 0x1b
 2096 0667 4A020000 		.4byte	.LASF23
 2097 066b 01       		.byte	0x1
 2098 066c 6B       		.byte	0x6b
 2099 066d 5F000000 		.4byte	0x5f
 2100 0671 02       		.byte	0x2
 2101 0672 91       		.byte	0x91
 2102 0673 04       		.sleb128 4
 2103 0674 1D       		.uleb128 0x1d
 2104 0675 6E756D00 		.ascii	"num\000"
 2105 0679 01       		.byte	0x1
 2106 067a 6C       		.byte	0x6c
 2107 067b 5F000000 		.4byte	0x5f
 2108 067f 02       		.byte	0x2
 2109 0680 91       		.byte	0x91
 2110 0681 08       		.sleb128 8
 2111 0682 1C       		.uleb128 0x1c
 2112 0683 70747200 		.ascii	"ptr\000"
 2113 0687 01       		.byte	0x1
 2114 0688 6E       		.byte	0x6e
 2115 0689 59040000 		.4byte	0x459
 2116 068d 02       		.byte	0x2
 2117 068e 91       		.byte	0x91
 2118 068f 74       		.sleb128 -12
 2119 0690 00       		.byte	0
 2120 0691 1A       		.uleb128 0x1a
 2121 0692 01       		.byte	0x1
 2122 0693 30020000 		.4byte	.LASF77
 2123 0697 01       		.byte	0x1
 2124 0698 3F       		.byte	0x3f
 2125 0699 01       		.byte	0x1
 2126 069a 33000000 		.4byte	0x33
 2127 069e 08010000 		.4byte	.LFB16
 2128 06a2 B4010000 		.4byte	.LFE16
 2129 06a6 B8020000 		.4byte	.LLST3
 2130 06aa 01       		.byte	0x1
ARM GAS  G:\Users\Jaxb\AppData\Local\Temp\cc45sPGH.s 			page 45


 2131 06ab 12070000 		.4byte	0x712
 2132 06af 1B       		.uleb128 0x1b
 2133 06b0 3B020000 		.4byte	.LASF67
 2134 06b4 01       		.byte	0x1
 2135 06b5 40       		.byte	0x40
 2136 06b6 59040000 		.4byte	0x459
 2137 06ba 02       		.byte	0x2
 2138 06bb 91       		.byte	0x91
 2139 06bc 74       		.sleb128 -12
 2140 06bd 1B       		.uleb128 0x1b
 2141 06be C5020000 		.4byte	.LASF18
 2142 06c2 01       		.byte	0x1
 2143 06c3 41       		.byte	0x41
 2144 06c4 9C000000 		.4byte	0x9c
 2145 06c8 02       		.byte	0x2
 2146 06c9 91       		.byte	0x91
 2147 06ca 73       		.sleb128 -13
 2148 06cb 1B       		.uleb128 0x1b
 2149 06cc 59020000 		.4byte	.LASF53
 2150 06d0 01       		.byte	0x1
 2151 06d1 42       		.byte	0x42
 2152 06d2 60010000 		.4byte	0x160
 2153 06d6 02       		.byte	0x2
 2154 06d7 91       		.byte	0x91
 2155 06d8 6C       		.sleb128 -20
 2156 06d9 1D       		.uleb128 0x1d
 2157 06da 66756E00 		.ascii	"fun\000"
 2158 06de 01       		.byte	0x1
 2159 06df 43       		.byte	0x43
 2160 06e0 80010000 		.4byte	0x180
 2161 06e4 02       		.byte	0x2
 2162 06e5 91       		.byte	0x91
 2163 06e6 68       		.sleb128 -24
 2164 06e7 1B       		.uleb128 0x1b
 2165 06e8 68010000 		.4byte	.LASF22
 2166 06ec 01       		.byte	0x1
 2167 06ed 44       		.byte	0x44
 2168 06ee 7E010000 		.4byte	0x17e
 2169 06f2 02       		.byte	0x2
 2170 06f3 91       		.byte	0x91
 2171 06f4 00       		.sleb128 0
 2172 06f5 1B       		.uleb128 0x1b
 2173 06f6 4A020000 		.4byte	.LASF23
 2174 06fa 01       		.byte	0x1
 2175 06fb 45       		.byte	0x45
 2176 06fc 5F000000 		.4byte	0x5f
 2177 0700 02       		.byte	0x2
 2178 0701 91       		.byte	0x91
 2179 0702 04       		.sleb128 4
 2180 0703 1D       		.uleb128 0x1d
 2181 0704 6E756D00 		.ascii	"num\000"
 2182 0708 01       		.byte	0x1
 2183 0709 46       		.byte	0x46
 2184 070a 5F000000 		.4byte	0x5f
 2185 070e 02       		.byte	0x2
 2186 070f 91       		.byte	0x91
 2187 0710 08       		.sleb128 8
ARM GAS  G:\Users\Jaxb\AppData\Local\Temp\cc45sPGH.s 			page 46


 2188 0711 00       		.byte	0
 2189 0712 1E       		.uleb128 0x1e
 2190 0713 01       		.byte	0x1
 2191 0714 29000000 		.4byte	.LASF86
 2192 0718 01       		.byte	0x1
 2193 0719 2F       		.byte	0x2f
 2194 071a 01       		.byte	0x1
 2195 071b CE000000 		.4byte	.LFB15
 2196 071f 08010000 		.4byte	.LFE15
 2197 0723 08030000 		.4byte	.LLST2
 2198 0727 01       		.byte	0x1
 2199 0728 1F       		.uleb128 0x1f
 2200 0729 FC000000 		.4byte	.LASF37
 2201 072d 01       		.byte	0x1
 2202 072e 22       		.byte	0x22
 2203 072f 01       		.byte	0x1
 2204 0730 A8000000 		.4byte	.LFB14
 2205 0734 CE000000 		.4byte	.LFE14
 2206 0738 4C030000 		.4byte	.LLST1
 2207 073c 01       		.byte	0x1
 2208 073d 6C070000 		.4byte	0x76c
 2209 0741 1B       		.uleb128 0x1b
 2210 0742 FD020000 		.4byte	.LASF78
 2211 0746 01       		.byte	0x1
 2212 0747 22       		.byte	0x22
 2213 0748 35020000 		.4byte	0x235
 2214 074c 02       		.byte	0x2
 2215 074d 91       		.byte	0x91
 2216 074e 6C       		.sleb128 -20
 2217 074f 1B       		.uleb128 0x1b
 2218 0750 4C010000 		.4byte	.LASF79
 2219 0754 01       		.byte	0x1
 2220 0755 22       		.byte	0x22
 2221 0756 33000000 		.4byte	0x33
 2222 075a 02       		.byte	0x2
 2223 075b 91       		.byte	0x91
 2224 075c 68       		.sleb128 -24
 2225 075d 12       		.uleb128 0x12
 2226 075e 3B020000 		.4byte	.LASF67
 2227 0762 01       		.byte	0x1
 2228 0763 24       		.byte	0x24
 2229 0764 59040000 		.4byte	0x459
 2230 0768 02       		.byte	0x2
 2231 0769 91       		.byte	0x91
 2232 076a 74       		.sleb128 -12
 2233 076b 00       		.byte	0
 2234 076c 20       		.uleb128 0x20
 2235 076d 636D7000 		.ascii	"cmp\000"
 2236 0771 01       		.byte	0x1
 2237 0772 0F       		.byte	0xf
 2238 0773 01       		.byte	0x1
 2239 0774 33000000 		.4byte	0x33
 2240 0778 00000000 		.4byte	.LFB13
 2241 077c A8000000 		.4byte	.LFE13
 2242 0780 9C030000 		.4byte	.LLST0
 2243 0784 01       		.byte	0x1
 2244 0785 CC070000 		.4byte	0x7cc
ARM GAS  G:\Users\Jaxb\AppData\Local\Temp\cc45sPGH.s 			page 47


 2245 0789 1B       		.uleb128 0x1b
 2246 078a FD020000 		.4byte	.LASF78
 2247 078e 01       		.byte	0x1
 2248 078f 0F       		.byte	0xf
 2249 0790 35020000 		.4byte	0x235
 2250 0794 02       		.byte	0x2
 2251 0795 91       		.byte	0x91
 2252 0796 64       		.sleb128 -28
 2253 0797 1B       		.uleb128 0x1b
 2254 0798 C2000000 		.4byte	.LASF80
 2255 079c 01       		.byte	0x1
 2256 079d 0F       		.byte	0xf
 2257 079e 5F000000 		.4byte	0x5f
 2258 07a2 02       		.byte	0x2
 2259 07a3 91       		.byte	0x91
 2260 07a4 60       		.sleb128 -32
 2261 07a5 1B       		.uleb128 0x1b
 2262 07a6 C9000000 		.4byte	.LASF81
 2263 07aa 01       		.byte	0x1
 2264 07ab 0F       		.byte	0xf
 2265 07ac 5F000000 		.4byte	0x5f
 2266 07b0 02       		.byte	0x2
 2267 07b1 91       		.byte	0x91
 2268 07b2 5C       		.sleb128 -36
 2269 07b3 1C       		.uleb128 0x1c
 2270 07b4 6100     		.ascii	"a\000"
 2271 07b6 01       		.byte	0x1
 2272 07b7 11       		.byte	0x11
 2273 07b8 CC070000 		.4byte	0x7cc
 2274 07bc 02       		.byte	0x2
 2275 07bd 91       		.byte	0x91
 2276 07be 6C       		.sleb128 -20
 2277 07bf 1C       		.uleb128 0x1c
 2278 07c0 6200     		.ascii	"b\000"
 2279 07c2 01       		.byte	0x1
 2280 07c3 11       		.byte	0x11
 2281 07c4 CC070000 		.4byte	0x7cc
 2282 07c8 02       		.byte	0x2
 2283 07c9 91       		.byte	0x91
 2284 07ca 68       		.sleb128 -24
 2285 07cb 00       		.byte	0
 2286 07cc 0C       		.uleb128 0xc
 2287 07cd 04       		.byte	0x4
 2288 07ce D2070000 		.4byte	0x7d2
 2289 07d2 0C       		.uleb128 0xc
 2290 07d3 04       		.byte	0x4
 2291 07d4 5B010000 		.4byte	0x15b
 2292 07d8 00       		.byte	0
 2293              		.section	.debug_abbrev,"",%progbits
 2294              	.Ldebug_abbrev0:
 2295 0000 01       		.uleb128 0x1
 2296 0001 11       		.uleb128 0x11
 2297 0002 01       		.byte	0x1
 2298 0003 25       		.uleb128 0x25
 2299 0004 0E       		.uleb128 0xe
 2300 0005 13       		.uleb128 0x13
 2301 0006 0B       		.uleb128 0xb
ARM GAS  G:\Users\Jaxb\AppData\Local\Temp\cc45sPGH.s 			page 48


 2302 0007 03       		.uleb128 0x3
 2303 0008 0E       		.uleb128 0xe
 2304 0009 1B       		.uleb128 0x1b
 2305 000a 0E       		.uleb128 0xe
 2306 000b 11       		.uleb128 0x11
 2307 000c 01       		.uleb128 0x1
 2308 000d 12       		.uleb128 0x12
 2309 000e 01       		.uleb128 0x1
 2310 000f 10       		.uleb128 0x10
 2311 0010 06       		.uleb128 0x6
 2312 0011 00       		.byte	0
 2313 0012 00       		.byte	0
 2314 0013 02       		.uleb128 0x2
 2315 0014 24       		.uleb128 0x24
 2316 0015 00       		.byte	0
 2317 0016 0B       		.uleb128 0xb
 2318 0017 0B       		.uleb128 0xb
 2319 0018 3E       		.uleb128 0x3e
 2320 0019 0B       		.uleb128 0xb
 2321 001a 03       		.uleb128 0x3
 2322 001b 0E       		.uleb128 0xe
 2323 001c 00       		.byte	0
 2324 001d 00       		.byte	0
 2325 001e 03       		.uleb128 0x3
 2326 001f 24       		.uleb128 0x24
 2327 0020 00       		.byte	0
 2328 0021 0B       		.uleb128 0xb
 2329 0022 0B       		.uleb128 0xb
 2330 0023 3E       		.uleb128 0x3e
 2331 0024 0B       		.uleb128 0xb
 2332 0025 03       		.uleb128 0x3
 2333 0026 08       		.uleb128 0x8
 2334 0027 00       		.byte	0
 2335 0028 00       		.byte	0
 2336 0029 04       		.uleb128 0x4
 2337 002a 35       		.uleb128 0x35
 2338 002b 00       		.byte	0
 2339 002c 49       		.uleb128 0x49
 2340 002d 13       		.uleb128 0x13
 2341 002e 00       		.byte	0
 2342 002f 00       		.byte	0
 2343 0030 05       		.uleb128 0x5
 2344 0031 16       		.uleb128 0x16
 2345 0032 00       		.byte	0
 2346 0033 03       		.uleb128 0x3
 2347 0034 0E       		.uleb128 0xe
 2348 0035 3A       		.uleb128 0x3a
 2349 0036 0B       		.uleb128 0xb
 2350 0037 3B       		.uleb128 0x3b
 2351 0038 0B       		.uleb128 0xb
 2352 0039 49       		.uleb128 0x49
 2353 003a 13       		.uleb128 0x13
 2354 003b 00       		.byte	0
 2355 003c 00       		.byte	0
 2356 003d 06       		.uleb128 0x6
 2357 003e 04       		.uleb128 0x4
 2358 003f 01       		.byte	0x1
ARM GAS  G:\Users\Jaxb\AppData\Local\Temp\cc45sPGH.s 			page 49


 2359 0040 03       		.uleb128 0x3
 2360 0041 0E       		.uleb128 0xe
 2361 0042 3E       		.uleb128 0x3e
 2362 0043 0B       		.uleb128 0xb
 2363 0044 0B       		.uleb128 0xb
 2364 0045 0B       		.uleb128 0xb
 2365 0046 49       		.uleb128 0x49
 2366 0047 13       		.uleb128 0x13
 2367 0048 3A       		.uleb128 0x3a
 2368 0049 0B       		.uleb128 0xb
 2369 004a 3B       		.uleb128 0x3b
 2370 004b 0B       		.uleb128 0xb
 2371 004c 01       		.uleb128 0x1
 2372 004d 13       		.uleb128 0x13
 2373 004e 00       		.byte	0
 2374 004f 00       		.byte	0
 2375 0050 07       		.uleb128 0x7
 2376 0051 28       		.uleb128 0x28
 2377 0052 00       		.byte	0
 2378 0053 03       		.uleb128 0x3
 2379 0054 0E       		.uleb128 0xe
 2380 0055 1C       		.uleb128 0x1c
 2381 0056 0B       		.uleb128 0xb
 2382 0057 00       		.byte	0
 2383 0058 00       		.byte	0
 2384 0059 08       		.uleb128 0x8
 2385 005a 13       		.uleb128 0x13
 2386 005b 01       		.byte	0x1
 2387 005c 03       		.uleb128 0x3
 2388 005d 0E       		.uleb128 0xe
 2389 005e 0B       		.uleb128 0xb
 2390 005f 0B       		.uleb128 0xb
 2391 0060 3A       		.uleb128 0x3a
 2392 0061 0B       		.uleb128 0xb
 2393 0062 3B       		.uleb128 0x3b
 2394 0063 0B       		.uleb128 0xb
 2395 0064 01       		.uleb128 0x1
 2396 0065 13       		.uleb128 0x13
 2397 0066 00       		.byte	0
 2398 0067 00       		.byte	0
 2399 0068 09       		.uleb128 0x9
 2400 0069 0D       		.uleb128 0xd
 2401 006a 00       		.byte	0
 2402 006b 03       		.uleb128 0x3
 2403 006c 0E       		.uleb128 0xe
 2404 006d 3A       		.uleb128 0x3a
 2405 006e 0B       		.uleb128 0xb
 2406 006f 3B       		.uleb128 0x3b
 2407 0070 0B       		.uleb128 0xb
 2408 0071 49       		.uleb128 0x49
 2409 0072 13       		.uleb128 0x13
 2410 0073 38       		.uleb128 0x38
 2411 0074 0A       		.uleb128 0xa
 2412 0075 00       		.byte	0
 2413 0076 00       		.byte	0
 2414 0077 0A       		.uleb128 0xa
 2415 0078 0D       		.uleb128 0xd
ARM GAS  G:\Users\Jaxb\AppData\Local\Temp\cc45sPGH.s 			page 50


 2416 0079 00       		.byte	0
 2417 007a 03       		.uleb128 0x3
 2418 007b 08       		.uleb128 0x8
 2419 007c 3A       		.uleb128 0x3a
 2420 007d 0B       		.uleb128 0xb
 2421 007e 3B       		.uleb128 0x3b
 2422 007f 0B       		.uleb128 0xb
 2423 0080 49       		.uleb128 0x49
 2424 0081 13       		.uleb128 0x13
 2425 0082 38       		.uleb128 0x38
 2426 0083 0A       		.uleb128 0xa
 2427 0084 00       		.byte	0
 2428 0085 00       		.byte	0
 2429 0086 0B       		.uleb128 0xb
 2430 0087 26       		.uleb128 0x26
 2431 0088 00       		.byte	0
 2432 0089 49       		.uleb128 0x49
 2433 008a 13       		.uleb128 0x13
 2434 008b 00       		.byte	0
 2435 008c 00       		.byte	0
 2436 008d 0C       		.uleb128 0xc
 2437 008e 0F       		.uleb128 0xf
 2438 008f 00       		.byte	0
 2439 0090 0B       		.uleb128 0xb
 2440 0091 0B       		.uleb128 0xb
 2441 0092 49       		.uleb128 0x49
 2442 0093 13       		.uleb128 0x13
 2443 0094 00       		.byte	0
 2444 0095 00       		.byte	0
 2445 0096 0D       		.uleb128 0xd
 2446 0097 15       		.uleb128 0x15
 2447 0098 01       		.byte	0x1
 2448 0099 27       		.uleb128 0x27
 2449 009a 0C       		.uleb128 0xc
 2450 009b 01       		.uleb128 0x1
 2451 009c 13       		.uleb128 0x13
 2452 009d 00       		.byte	0
 2453 009e 00       		.byte	0
 2454 009f 0E       		.uleb128 0xe
 2455 00a0 05       		.uleb128 0x5
 2456 00a1 00       		.byte	0
 2457 00a2 49       		.uleb128 0x49
 2458 00a3 13       		.uleb128 0x13
 2459 00a4 00       		.byte	0
 2460 00a5 00       		.byte	0
 2461 00a6 0F       		.uleb128 0xf
 2462 00a7 0F       		.uleb128 0xf
 2463 00a8 00       		.byte	0
 2464 00a9 0B       		.uleb128 0xb
 2465 00aa 0B       		.uleb128 0xb
 2466 00ab 00       		.byte	0
 2467 00ac 00       		.byte	0
 2468 00ad 10       		.uleb128 0x10
 2469 00ae 15       		.uleb128 0x15
 2470 00af 01       		.byte	0x1
 2471 00b0 27       		.uleb128 0x27
 2472 00b1 0C       		.uleb128 0xc
ARM GAS  G:\Users\Jaxb\AppData\Local\Temp\cc45sPGH.s 			page 51


 2473 00b2 49       		.uleb128 0x49
 2474 00b3 13       		.uleb128 0x13
 2475 00b4 01       		.uleb128 0x1
 2476 00b5 13       		.uleb128 0x13
 2477 00b6 00       		.byte	0
 2478 00b7 00       		.byte	0
 2479 00b8 11       		.uleb128 0x11
 2480 00b9 34       		.uleb128 0x34
 2481 00ba 00       		.byte	0
 2482 00bb 03       		.uleb128 0x3
 2483 00bc 0E       		.uleb128 0xe
 2484 00bd 3A       		.uleb128 0x3a
 2485 00be 0B       		.uleb128 0xb
 2486 00bf 3B       		.uleb128 0x3b
 2487 00c0 0B       		.uleb128 0xb
 2488 00c1 49       		.uleb128 0x49
 2489 00c2 13       		.uleb128 0x13
 2490 00c3 3F       		.uleb128 0x3f
 2491 00c4 0C       		.uleb128 0xc
 2492 00c5 3C       		.uleb128 0x3c
 2493 00c6 0C       		.uleb128 0xc
 2494 00c7 00       		.byte	0
 2495 00c8 00       		.byte	0
 2496 00c9 12       		.uleb128 0x12
 2497 00ca 34       		.uleb128 0x34
 2498 00cb 00       		.byte	0
 2499 00cc 03       		.uleb128 0x3
 2500 00cd 0E       		.uleb128 0xe
 2501 00ce 3A       		.uleb128 0x3a
 2502 00cf 0B       		.uleb128 0xb
 2503 00d0 3B       		.uleb128 0x3b
 2504 00d1 0B       		.uleb128 0xb
 2505 00d2 49       		.uleb128 0x49
 2506 00d3 13       		.uleb128 0x13
 2507 00d4 02       		.uleb128 0x2
 2508 00d5 0A       		.uleb128 0xa
 2509 00d6 00       		.byte	0
 2510 00d7 00       		.byte	0
 2511 00d8 13       		.uleb128 0x13
 2512 00d9 01       		.uleb128 0x1
 2513 00da 01       		.byte	0x1
 2514 00db 49       		.uleb128 0x49
 2515 00dc 13       		.uleb128 0x13
 2516 00dd 01       		.uleb128 0x1
 2517 00de 13       		.uleb128 0x13
 2518 00df 00       		.byte	0
 2519 00e0 00       		.byte	0
 2520 00e1 14       		.uleb128 0x14
 2521 00e2 21       		.uleb128 0x21
 2522 00e3 00       		.byte	0
 2523 00e4 49       		.uleb128 0x49
 2524 00e5 13       		.uleb128 0x13
 2525 00e6 2F       		.uleb128 0x2f
 2526 00e7 0B       		.uleb128 0xb
 2527 00e8 00       		.byte	0
 2528 00e9 00       		.byte	0
 2529 00ea 15       		.uleb128 0x15
ARM GAS  G:\Users\Jaxb\AppData\Local\Temp\cc45sPGH.s 			page 52


 2530 00eb 34       		.uleb128 0x34
 2531 00ec 00       		.byte	0
 2532 00ed 03       		.uleb128 0x3
 2533 00ee 0E       		.uleb128 0xe
 2534 00ef 3A       		.uleb128 0x3a
 2535 00f0 0B       		.uleb128 0xb
 2536 00f1 3B       		.uleb128 0x3b
 2537 00f2 0B       		.uleb128 0xb
 2538 00f3 49       		.uleb128 0x49
 2539 00f4 13       		.uleb128 0x13
 2540 00f5 3F       		.uleb128 0x3f
 2541 00f6 0C       		.uleb128 0xc
 2542 00f7 02       		.uleb128 0x2
 2543 00f8 0A       		.uleb128 0xa
 2544 00f9 00       		.byte	0
 2545 00fa 00       		.byte	0
 2546 00fb 16       		.uleb128 0x16
 2547 00fc 2E       		.uleb128 0x2e
 2548 00fd 01       		.byte	0x1
 2549 00fe 3F       		.uleb128 0x3f
 2550 00ff 0C       		.uleb128 0xc
 2551 0100 03       		.uleb128 0x3
 2552 0101 0E       		.uleb128 0xe
 2553 0102 3A       		.uleb128 0x3a
 2554 0103 0B       		.uleb128 0xb
 2555 0104 3B       		.uleb128 0x3b
 2556 0105 05       		.uleb128 0x5
 2557 0106 27       		.uleb128 0x27
 2558 0107 0C       		.uleb128 0xc
 2559 0108 11       		.uleb128 0x11
 2560 0109 01       		.uleb128 0x1
 2561 010a 12       		.uleb128 0x12
 2562 010b 01       		.uleb128 0x1
 2563 010c 40       		.uleb128 0x40
 2564 010d 06       		.uleb128 0x6
 2565 010e 9642     		.uleb128 0x2116
 2566 0110 0C       		.uleb128 0xc
 2567 0111 01       		.uleb128 0x1
 2568 0112 13       		.uleb128 0x13
 2569 0113 00       		.byte	0
 2570 0114 00       		.byte	0
 2571 0115 17       		.uleb128 0x17
 2572 0116 05       		.uleb128 0x5
 2573 0117 00       		.byte	0
 2574 0118 03       		.uleb128 0x3
 2575 0119 0E       		.uleb128 0xe
 2576 011a 3A       		.uleb128 0x3a
 2577 011b 0B       		.uleb128 0xb
 2578 011c 3B       		.uleb128 0x3b
 2579 011d 05       		.uleb128 0x5
 2580 011e 49       		.uleb128 0x49
 2581 011f 13       		.uleb128 0x13
 2582 0120 02       		.uleb128 0x2
 2583 0121 0A       		.uleb128 0xa
 2584 0122 00       		.byte	0
 2585 0123 00       		.byte	0
 2586 0124 18       		.uleb128 0x18
ARM GAS  G:\Users\Jaxb\AppData\Local\Temp\cc45sPGH.s 			page 53


 2587 0125 34       		.uleb128 0x34
 2588 0126 00       		.byte	0
 2589 0127 03       		.uleb128 0x3
 2590 0128 0E       		.uleb128 0xe
 2591 0129 3A       		.uleb128 0x3a
 2592 012a 0B       		.uleb128 0xb
 2593 012b 3B       		.uleb128 0x3b
 2594 012c 05       		.uleb128 0x5
 2595 012d 49       		.uleb128 0x49
 2596 012e 13       		.uleb128 0x13
 2597 012f 02       		.uleb128 0x2
 2598 0130 0A       		.uleb128 0xa
 2599 0131 00       		.byte	0
 2600 0132 00       		.byte	0
 2601 0133 19       		.uleb128 0x19
 2602 0134 34       		.uleb128 0x34
 2603 0135 00       		.byte	0
 2604 0136 03       		.uleb128 0x3
 2605 0137 08       		.uleb128 0x8
 2606 0138 3A       		.uleb128 0x3a
 2607 0139 0B       		.uleb128 0xb
 2608 013a 3B       		.uleb128 0x3b
 2609 013b 05       		.uleb128 0x5
 2610 013c 49       		.uleb128 0x49
 2611 013d 13       		.uleb128 0x13
 2612 013e 02       		.uleb128 0x2
 2613 013f 0A       		.uleb128 0xa
 2614 0140 00       		.byte	0
 2615 0141 00       		.byte	0
 2616 0142 1A       		.uleb128 0x1a
 2617 0143 2E       		.uleb128 0x2e
 2618 0144 01       		.byte	0x1
 2619 0145 3F       		.uleb128 0x3f
 2620 0146 0C       		.uleb128 0xc
 2621 0147 03       		.uleb128 0x3
 2622 0148 0E       		.uleb128 0xe
 2623 0149 3A       		.uleb128 0x3a
 2624 014a 0B       		.uleb128 0xb
 2625 014b 3B       		.uleb128 0x3b
 2626 014c 0B       		.uleb128 0xb
 2627 014d 27       		.uleb128 0x27
 2628 014e 0C       		.uleb128 0xc
 2629 014f 49       		.uleb128 0x49
 2630 0150 13       		.uleb128 0x13
 2631 0151 11       		.uleb128 0x11
 2632 0152 01       		.uleb128 0x1
 2633 0153 12       		.uleb128 0x12
 2634 0154 01       		.uleb128 0x1
 2635 0155 40       		.uleb128 0x40
 2636 0156 06       		.uleb128 0x6
 2637 0157 9642     		.uleb128 0x2116
 2638 0159 0C       		.uleb128 0xc
 2639 015a 01       		.uleb128 0x1
 2640 015b 13       		.uleb128 0x13
 2641 015c 00       		.byte	0
 2642 015d 00       		.byte	0
 2643 015e 1B       		.uleb128 0x1b
ARM GAS  G:\Users\Jaxb\AppData\Local\Temp\cc45sPGH.s 			page 54


 2644 015f 05       		.uleb128 0x5
 2645 0160 00       		.byte	0
 2646 0161 03       		.uleb128 0x3
 2647 0162 0E       		.uleb128 0xe
 2648 0163 3A       		.uleb128 0x3a
 2649 0164 0B       		.uleb128 0xb
 2650 0165 3B       		.uleb128 0x3b
 2651 0166 0B       		.uleb128 0xb
 2652 0167 49       		.uleb128 0x49
 2653 0168 13       		.uleb128 0x13
 2654 0169 02       		.uleb128 0x2
 2655 016a 0A       		.uleb128 0xa
 2656 016b 00       		.byte	0
 2657 016c 00       		.byte	0
 2658 016d 1C       		.uleb128 0x1c
 2659 016e 34       		.uleb128 0x34
 2660 016f 00       		.byte	0
 2661 0170 03       		.uleb128 0x3
 2662 0171 08       		.uleb128 0x8
 2663 0172 3A       		.uleb128 0x3a
 2664 0173 0B       		.uleb128 0xb
 2665 0174 3B       		.uleb128 0x3b
 2666 0175 0B       		.uleb128 0xb
 2667 0176 49       		.uleb128 0x49
 2668 0177 13       		.uleb128 0x13
 2669 0178 02       		.uleb128 0x2
 2670 0179 0A       		.uleb128 0xa
 2671 017a 00       		.byte	0
 2672 017b 00       		.byte	0
 2673 017c 1D       		.uleb128 0x1d
 2674 017d 05       		.uleb128 0x5
 2675 017e 00       		.byte	0
 2676 017f 03       		.uleb128 0x3
 2677 0180 08       		.uleb128 0x8
 2678 0181 3A       		.uleb128 0x3a
 2679 0182 0B       		.uleb128 0xb
 2680 0183 3B       		.uleb128 0x3b
 2681 0184 0B       		.uleb128 0xb
 2682 0185 49       		.uleb128 0x49
 2683 0186 13       		.uleb128 0x13
 2684 0187 02       		.uleb128 0x2
 2685 0188 0A       		.uleb128 0xa
 2686 0189 00       		.byte	0
 2687 018a 00       		.byte	0
 2688 018b 1E       		.uleb128 0x1e
 2689 018c 2E       		.uleb128 0x2e
 2690 018d 00       		.byte	0
 2691 018e 3F       		.uleb128 0x3f
 2692 018f 0C       		.uleb128 0xc
 2693 0190 03       		.uleb128 0x3
 2694 0191 0E       		.uleb128 0xe
 2695 0192 3A       		.uleb128 0x3a
 2696 0193 0B       		.uleb128 0xb
 2697 0194 3B       		.uleb128 0x3b
 2698 0195 0B       		.uleb128 0xb
 2699 0196 27       		.uleb128 0x27
 2700 0197 0C       		.uleb128 0xc
ARM GAS  G:\Users\Jaxb\AppData\Local\Temp\cc45sPGH.s 			page 55


 2701 0198 11       		.uleb128 0x11
 2702 0199 01       		.uleb128 0x1
 2703 019a 12       		.uleb128 0x12
 2704 019b 01       		.uleb128 0x1
 2705 019c 40       		.uleb128 0x40
 2706 019d 06       		.uleb128 0x6
 2707 019e 9642     		.uleb128 0x2116
 2708 01a0 0C       		.uleb128 0xc
 2709 01a1 00       		.byte	0
 2710 01a2 00       		.byte	0
 2711 01a3 1F       		.uleb128 0x1f
 2712 01a4 2E       		.uleb128 0x2e
 2713 01a5 01       		.byte	0x1
 2714 01a6 03       		.uleb128 0x3
 2715 01a7 0E       		.uleb128 0xe
 2716 01a8 3A       		.uleb128 0x3a
 2717 01a9 0B       		.uleb128 0xb
 2718 01aa 3B       		.uleb128 0x3b
 2719 01ab 0B       		.uleb128 0xb
 2720 01ac 27       		.uleb128 0x27
 2721 01ad 0C       		.uleb128 0xc
 2722 01ae 11       		.uleb128 0x11
 2723 01af 01       		.uleb128 0x1
 2724 01b0 12       		.uleb128 0x12
 2725 01b1 01       		.uleb128 0x1
 2726 01b2 40       		.uleb128 0x40
 2727 01b3 06       		.uleb128 0x6
 2728 01b4 9642     		.uleb128 0x2116
 2729 01b6 0C       		.uleb128 0xc
 2730 01b7 01       		.uleb128 0x1
 2731 01b8 13       		.uleb128 0x13
 2732 01b9 00       		.byte	0
 2733 01ba 00       		.byte	0
 2734 01bb 20       		.uleb128 0x20
 2735 01bc 2E       		.uleb128 0x2e
 2736 01bd 01       		.byte	0x1
 2737 01be 03       		.uleb128 0x3
 2738 01bf 08       		.uleb128 0x8
 2739 01c0 3A       		.uleb128 0x3a
 2740 01c1 0B       		.uleb128 0xb
 2741 01c2 3B       		.uleb128 0x3b
 2742 01c3 0B       		.uleb128 0xb
 2743 01c4 27       		.uleb128 0x27
 2744 01c5 0C       		.uleb128 0xc
 2745 01c6 49       		.uleb128 0x49
 2746 01c7 13       		.uleb128 0x13
 2747 01c8 11       		.uleb128 0x11
 2748 01c9 01       		.uleb128 0x1
 2749 01ca 12       		.uleb128 0x12
 2750 01cb 01       		.uleb128 0x1
 2751 01cc 40       		.uleb128 0x40
 2752 01cd 06       		.uleb128 0x6
 2753 01ce 9642     		.uleb128 0x2116
 2754 01d0 0C       		.uleb128 0xc
 2755 01d1 01       		.uleb128 0x1
 2756 01d2 13       		.uleb128 0x13
 2757 01d3 00       		.byte	0
ARM GAS  G:\Users\Jaxb\AppData\Local\Temp\cc45sPGH.s 			page 56


 2758 01d4 00       		.byte	0
 2759 01d5 00       		.byte	0
 2760              		.section	.debug_loc,"",%progbits
 2761              	.Ldebug_loc0:
 2762              	.LLST12:
 2763 0000 20040000 		.4byte	.LFB25-.Ltext0
 2764 0004 24040000 		.4byte	.LCFI59-.Ltext0
 2765 0008 0200     		.2byte	0x2
 2766 000a 7D       		.byte	0x7d
 2767 000b 00       		.sleb128 0
 2768 000c 24040000 		.4byte	.LCFI59-.Ltext0
 2769 0010 26040000 		.4byte	.LCFI60-.Ltext0
 2770 0014 0200     		.2byte	0x2
 2771 0016 7D       		.byte	0x7d
 2772 0017 10       		.sleb128 16
 2773 0018 26040000 		.4byte	.LCFI60-.Ltext0
 2774 001c 28040000 		.4byte	.LCFI61-.Ltext0
 2775 0020 0200     		.2byte	0x2
 2776 0022 7D       		.byte	0x7d
 2777 0023 30       		.sleb128 48
 2778 0024 28040000 		.4byte	.LCFI61-.Ltext0
 2779 0028 30050000 		.4byte	.LFE25-.Ltext0
 2780 002c 0200     		.2byte	0x2
 2781 002e 77       		.byte	0x77
 2782 002f 30       		.sleb128 48
 2783 0030 00000000 		.4byte	0
 2784 0034 00000000 		.4byte	0
 2785              	.LLST11:
 2786 0038 C4030000 		.4byte	.LFB24-.Ltext0
 2787 003c C6030000 		.4byte	.LCFI54-.Ltext0
 2788 0040 0200     		.2byte	0x2
 2789 0042 7D       		.byte	0x7d
 2790 0043 00       		.sleb128 0
 2791 0044 C6030000 		.4byte	.LCFI54-.Ltext0
 2792 0048 C8030000 		.4byte	.LCFI55-.Ltext0
 2793 004c 0200     		.2byte	0x2
 2794 004e 7D       		.byte	0x7d
 2795 004f 08       		.sleb128 8
 2796 0050 C8030000 		.4byte	.LCFI55-.Ltext0
 2797 0054 CA030000 		.4byte	.LCFI56-.Ltext0
 2798 0058 0200     		.2byte	0x2
 2799 005a 7D       		.byte	0x7d
 2800 005b 18       		.sleb128 24
 2801 005c CA030000 		.4byte	.LCFI56-.Ltext0
 2802 0060 0E040000 		.4byte	.LCFI57-.Ltext0
 2803 0064 0200     		.2byte	0x2
 2804 0066 77       		.byte	0x77
 2805 0067 18       		.sleb128 24
 2806 0068 0E040000 		.4byte	.LCFI57-.Ltext0
 2807 006c 10040000 		.4byte	.LCFI58-.Ltext0
 2808 0070 0200     		.2byte	0x2
 2809 0072 77       		.byte	0x77
 2810 0073 08       		.sleb128 8
 2811 0074 10040000 		.4byte	.LCFI58-.Ltext0
 2812 0078 20040000 		.4byte	.LFE24-.Ltext0
 2813 007c 0200     		.2byte	0x2
 2814 007e 7D       		.byte	0x7d
ARM GAS  G:\Users\Jaxb\AppData\Local\Temp\cc45sPGH.s 			page 57


 2815 007f 08       		.sleb128 8
 2816 0080 00000000 		.4byte	0
 2817 0084 00000000 		.4byte	0
 2818              	.LLST10:
 2819 0088 94030000 		.4byte	.LFB23-.Ltext0
 2820 008c 96030000 		.4byte	.LCFI49-.Ltext0
 2821 0090 0200     		.2byte	0x2
 2822 0092 7D       		.byte	0x7d
 2823 0093 00       		.sleb128 0
 2824 0094 96030000 		.4byte	.LCFI49-.Ltext0
 2825 0098 98030000 		.4byte	.LCFI50-.Ltext0
 2826 009c 0200     		.2byte	0x2
 2827 009e 7D       		.byte	0x7d
 2828 009f 08       		.sleb128 8
 2829 00a0 98030000 		.4byte	.LCFI50-.Ltext0
 2830 00a4 9A030000 		.4byte	.LCFI51-.Ltext0
 2831 00a8 0200     		.2byte	0x2
 2832 00aa 7D       		.byte	0x7d
 2833 00ab 10       		.sleb128 16
 2834 00ac 9A030000 		.4byte	.LCFI51-.Ltext0
 2835 00b0 BA030000 		.4byte	.LCFI52-.Ltext0
 2836 00b4 0200     		.2byte	0x2
 2837 00b6 77       		.byte	0x77
 2838 00b7 10       		.sleb128 16
 2839 00b8 BA030000 		.4byte	.LCFI52-.Ltext0
 2840 00bc BC030000 		.4byte	.LCFI53-.Ltext0
 2841 00c0 0200     		.2byte	0x2
 2842 00c2 77       		.byte	0x77
 2843 00c3 08       		.sleb128 8
 2844 00c4 BC030000 		.4byte	.LCFI53-.Ltext0
 2845 00c8 C4030000 		.4byte	.LFE23-.Ltext0
 2846 00cc 0200     		.2byte	0x2
 2847 00ce 7D       		.byte	0x7d
 2848 00cf 08       		.sleb128 8
 2849 00d0 00000000 		.4byte	0
 2850 00d4 00000000 		.4byte	0
 2851              	.LLST9:
 2852 00d8 44030000 		.4byte	.LFB22-.Ltext0
 2853 00dc 46030000 		.4byte	.LCFI44-.Ltext0
 2854 00e0 0200     		.2byte	0x2
 2855 00e2 7D       		.byte	0x7d
 2856 00e3 00       		.sleb128 0
 2857 00e4 46030000 		.4byte	.LCFI44-.Ltext0
 2858 00e8 48030000 		.4byte	.LCFI45-.Ltext0
 2859 00ec 0200     		.2byte	0x2
 2860 00ee 7D       		.byte	0x7d
 2861 00ef 08       		.sleb128 8
 2862 00f0 48030000 		.4byte	.LCFI45-.Ltext0
 2863 00f4 4A030000 		.4byte	.LCFI46-.Ltext0
 2864 00f8 0200     		.2byte	0x2
 2865 00fa 7D       		.byte	0x7d
 2866 00fb 18       		.sleb128 24
 2867 00fc 4A030000 		.4byte	.LCFI46-.Ltext0
 2868 0100 8C030000 		.4byte	.LCFI47-.Ltext0
 2869 0104 0200     		.2byte	0x2
 2870 0106 77       		.byte	0x77
 2871 0107 18       		.sleb128 24
ARM GAS  G:\Users\Jaxb\AppData\Local\Temp\cc45sPGH.s 			page 58


 2872 0108 8C030000 		.4byte	.LCFI47-.Ltext0
 2873 010c 8E030000 		.4byte	.LCFI48-.Ltext0
 2874 0110 0200     		.2byte	0x2
 2875 0112 77       		.byte	0x77
 2876 0113 08       		.sleb128 8
 2877 0114 8E030000 		.4byte	.LCFI48-.Ltext0
 2878 0118 94030000 		.4byte	.LFE22-.Ltext0
 2879 011c 0200     		.2byte	0x2
 2880 011e 7D       		.byte	0x7d
 2881 011f 08       		.sleb128 8
 2882 0120 00000000 		.4byte	0
 2883 0124 00000000 		.4byte	0
 2884              	.LLST8:
 2885 0128 14030000 		.4byte	.LFB21-.Ltext0
 2886 012c 16030000 		.4byte	.LCFI39-.Ltext0
 2887 0130 0200     		.2byte	0x2
 2888 0132 7D       		.byte	0x7d
 2889 0133 00       		.sleb128 0
 2890 0134 16030000 		.4byte	.LCFI39-.Ltext0
 2891 0138 18030000 		.4byte	.LCFI40-.Ltext0
 2892 013c 0200     		.2byte	0x2
 2893 013e 7D       		.byte	0x7d
 2894 013f 08       		.sleb128 8
 2895 0140 18030000 		.4byte	.LCFI40-.Ltext0
 2896 0144 1A030000 		.4byte	.LCFI41-.Ltext0
 2897 0148 0200     		.2byte	0x2
 2898 014a 7D       		.byte	0x7d
 2899 014b 10       		.sleb128 16
 2900 014c 1A030000 		.4byte	.LCFI41-.Ltext0
 2901 0150 3A030000 		.4byte	.LCFI42-.Ltext0
 2902 0154 0200     		.2byte	0x2
 2903 0156 77       		.byte	0x77
 2904 0157 10       		.sleb128 16
 2905 0158 3A030000 		.4byte	.LCFI42-.Ltext0
 2906 015c 3C030000 		.4byte	.LCFI43-.Ltext0
 2907 0160 0200     		.2byte	0x2
 2908 0162 77       		.byte	0x77
 2909 0163 08       		.sleb128 8
 2910 0164 3C030000 		.4byte	.LCFI43-.Ltext0
 2911 0168 44030000 		.4byte	.LFE21-.Ltext0
 2912 016c 0200     		.2byte	0x2
 2913 016e 7D       		.byte	0x7d
 2914 016f 08       		.sleb128 8
 2915 0170 00000000 		.4byte	0
 2916 0174 00000000 		.4byte	0
 2917              	.LLST7:
 2918 0178 B4020000 		.4byte	.LFB20-.Ltext0
 2919 017c B6020000 		.4byte	.LCFI34-.Ltext0
 2920 0180 0200     		.2byte	0x2
 2921 0182 7D       		.byte	0x7d
 2922 0183 00       		.sleb128 0
 2923 0184 B6020000 		.4byte	.LCFI34-.Ltext0
 2924 0188 B8020000 		.4byte	.LCFI35-.Ltext0
 2925 018c 0200     		.2byte	0x2
 2926 018e 7D       		.byte	0x7d
 2927 018f 08       		.sleb128 8
 2928 0190 B8020000 		.4byte	.LCFI35-.Ltext0
ARM GAS  G:\Users\Jaxb\AppData\Local\Temp\cc45sPGH.s 			page 59


 2929 0194 BA020000 		.4byte	.LCFI36-.Ltext0
 2930 0198 0200     		.2byte	0x2
 2931 019a 7D       		.byte	0x7d
 2932 019b 18       		.sleb128 24
 2933 019c BA020000 		.4byte	.LCFI36-.Ltext0
 2934 01a0 06030000 		.4byte	.LCFI37-.Ltext0
 2935 01a4 0200     		.2byte	0x2
 2936 01a6 77       		.byte	0x77
 2937 01a7 18       		.sleb128 24
 2938 01a8 06030000 		.4byte	.LCFI37-.Ltext0
 2939 01ac 08030000 		.4byte	.LCFI38-.Ltext0
 2940 01b0 0200     		.2byte	0x2
 2941 01b2 77       		.byte	0x77
 2942 01b3 08       		.sleb128 8
 2943 01b4 08030000 		.4byte	.LCFI38-.Ltext0
 2944 01b8 14030000 		.4byte	.LFE20-.Ltext0
 2945 01bc 0200     		.2byte	0x2
 2946 01be 7D       		.byte	0x7d
 2947 01bf 08       		.sleb128 8
 2948 01c0 00000000 		.4byte	0
 2949 01c4 00000000 		.4byte	0
 2950              	.LLST6:
 2951 01c8 84020000 		.4byte	.LFB19-.Ltext0
 2952 01cc 86020000 		.4byte	.LCFI29-.Ltext0
 2953 01d0 0200     		.2byte	0x2
 2954 01d2 7D       		.byte	0x7d
 2955 01d3 00       		.sleb128 0
 2956 01d4 86020000 		.4byte	.LCFI29-.Ltext0
 2957 01d8 88020000 		.4byte	.LCFI30-.Ltext0
 2958 01dc 0200     		.2byte	0x2
 2959 01de 7D       		.byte	0x7d
 2960 01df 08       		.sleb128 8
 2961 01e0 88020000 		.4byte	.LCFI30-.Ltext0
 2962 01e4 8A020000 		.4byte	.LCFI31-.Ltext0
 2963 01e8 0200     		.2byte	0x2
 2964 01ea 7D       		.byte	0x7d
 2965 01eb 10       		.sleb128 16
 2966 01ec 8A020000 		.4byte	.LCFI31-.Ltext0
 2967 01f0 AA020000 		.4byte	.LCFI32-.Ltext0
 2968 01f4 0200     		.2byte	0x2
 2969 01f6 77       		.byte	0x77
 2970 01f7 10       		.sleb128 16
 2971 01f8 AA020000 		.4byte	.LCFI32-.Ltext0
 2972 01fc AC020000 		.4byte	.LCFI33-.Ltext0
 2973 0200 0200     		.2byte	0x2
 2974 0202 77       		.byte	0x77
 2975 0203 08       		.sleb128 8
 2976 0204 AC020000 		.4byte	.LCFI33-.Ltext0
 2977 0208 B4020000 		.4byte	.LFE19-.Ltext0
 2978 020c 0200     		.2byte	0x2
 2979 020e 7D       		.byte	0x7d
 2980 020f 08       		.sleb128 8
 2981 0210 00000000 		.4byte	0
 2982 0214 00000000 		.4byte	0
 2983              	.LLST5:
 2984 0218 10020000 		.4byte	.LFB18-.Ltext0
 2985 021c 14020000 		.4byte	.LCFI24-.Ltext0
ARM GAS  G:\Users\Jaxb\AppData\Local\Temp\cc45sPGH.s 			page 60


 2986 0220 0200     		.2byte	0x2
 2987 0222 7D       		.byte	0x7d
 2988 0223 00       		.sleb128 0
 2989 0224 14020000 		.4byte	.LCFI24-.Ltext0
 2990 0228 16020000 		.4byte	.LCFI25-.Ltext0
 2991 022c 0200     		.2byte	0x2
 2992 022e 7D       		.byte	0x7d
 2993 022f 14       		.sleb128 20
 2994 0230 16020000 		.4byte	.LCFI25-.Ltext0
 2995 0234 18020000 		.4byte	.LCFI26-.Ltext0
 2996 0238 0200     		.2byte	0x2
 2997 023a 7D       		.byte	0x7d
 2998 023b 28       		.sleb128 40
 2999 023c 18020000 		.4byte	.LCFI26-.Ltext0
 3000 0240 74020000 		.4byte	.LCFI27-.Ltext0
 3001 0244 0200     		.2byte	0x2
 3002 0246 77       		.byte	0x77
 3003 0247 28       		.sleb128 40
 3004 0248 74020000 		.4byte	.LCFI27-.Ltext0
 3005 024c 76020000 		.4byte	.LCFI28-.Ltext0
 3006 0250 0200     		.2byte	0x2
 3007 0252 77       		.byte	0x77
 3008 0253 14       		.sleb128 20
 3009 0254 76020000 		.4byte	.LCFI28-.Ltext0
 3010 0258 84020000 		.4byte	.LFE18-.Ltext0
 3011 025c 0200     		.2byte	0x2
 3012 025e 7D       		.byte	0x7d
 3013 025f 14       		.sleb128 20
 3014 0260 00000000 		.4byte	0
 3015 0264 00000000 		.4byte	0
 3016              	.LLST4:
 3017 0268 B4010000 		.4byte	.LFB17-.Ltext0
 3018 026c B6010000 		.4byte	.LCFI19-.Ltext0
 3019 0270 0200     		.2byte	0x2
 3020 0272 7D       		.byte	0x7d
 3021 0273 00       		.sleb128 0
 3022 0274 B6010000 		.4byte	.LCFI19-.Ltext0
 3023 0278 B8010000 		.4byte	.LCFI20-.Ltext0
 3024 027c 0200     		.2byte	0x2
 3025 027e 7D       		.byte	0x7d
 3026 027f 08       		.sleb128 8
 3027 0280 B8010000 		.4byte	.LCFI20-.Ltext0
 3028 0284 BA010000 		.4byte	.LCFI21-.Ltext0
 3029 0288 0200     		.2byte	0x2
 3030 028a 7D       		.byte	0x7d
 3031 028b 30       		.sleb128 48
 3032 028c BA010000 		.4byte	.LCFI21-.Ltext0
 3033 0290 0C020000 		.4byte	.LCFI22-.Ltext0
 3034 0294 0200     		.2byte	0x2
 3035 0296 77       		.byte	0x77
 3036 0297 20       		.sleb128 32
 3037 0298 0C020000 		.4byte	.LCFI22-.Ltext0
 3038 029c 0E020000 		.4byte	.LCFI23-.Ltext0
 3039 02a0 0200     		.2byte	0x2
 3040 02a2 77       		.byte	0x77
 3041 02a3 08       		.sleb128 8
 3042 02a4 0E020000 		.4byte	.LCFI23-.Ltext0
ARM GAS  G:\Users\Jaxb\AppData\Local\Temp\cc45sPGH.s 			page 61


 3043 02a8 10020000 		.4byte	.LFE17-.Ltext0
 3044 02ac 0200     		.2byte	0x2
 3045 02ae 7D       		.byte	0x7d
 3046 02af 08       		.sleb128 8
 3047 02b0 00000000 		.4byte	0
 3048 02b4 00000000 		.4byte	0
 3049              	.LLST3:
 3050 02b8 08010000 		.4byte	.LFB16-.Ltext0
 3051 02bc 0A010000 		.4byte	.LCFI14-.Ltext0
 3052 02c0 0200     		.2byte	0x2
 3053 02c2 7D       		.byte	0x7d
 3054 02c3 00       		.sleb128 0
 3055 02c4 0A010000 		.4byte	.LCFI14-.Ltext0
 3056 02c8 0C010000 		.4byte	.LCFI15-.Ltext0
 3057 02cc 0200     		.2byte	0x2
 3058 02ce 7D       		.byte	0x7d
 3059 02cf 08       		.sleb128 8
 3060 02d0 0C010000 		.4byte	.LCFI15-.Ltext0
 3061 02d4 0E010000 		.4byte	.LCFI16-.Ltext0
 3062 02d8 0200     		.2byte	0x2
 3063 02da 7D       		.byte	0x7d
 3064 02db 18       		.sleb128 24
 3065 02dc 0E010000 		.4byte	.LCFI16-.Ltext0
 3066 02e0 9A010000 		.4byte	.LCFI17-.Ltext0
 3067 02e4 0200     		.2byte	0x2
 3068 02e6 77       		.byte	0x77
 3069 02e7 18       		.sleb128 24
 3070 02e8 9A010000 		.4byte	.LCFI17-.Ltext0
 3071 02ec 9C010000 		.4byte	.LCFI18-.Ltext0
 3072 02f0 0200     		.2byte	0x2
 3073 02f2 77       		.byte	0x77
 3074 02f3 08       		.sleb128 8
 3075 02f4 9C010000 		.4byte	.LCFI18-.Ltext0
 3076 02f8 B4010000 		.4byte	.LFE16-.Ltext0
 3077 02fc 0200     		.2byte	0x2
 3078 02fe 7D       		.byte	0x7d
 3079 02ff 08       		.sleb128 8
 3080 0300 00000000 		.4byte	0
 3081 0304 00000000 		.4byte	0
 3082              	.LLST2:
 3083 0308 CE000000 		.4byte	.LFB15-.Ltext0
 3084 030c D0000000 		.4byte	.LCFI10-.Ltext0
 3085 0310 0200     		.2byte	0x2
 3086 0312 7D       		.byte	0x7d
 3087 0313 00       		.sleb128 0
 3088 0314 D0000000 		.4byte	.LCFI10-.Ltext0
 3089 0318 D2000000 		.4byte	.LCFI11-.Ltext0
 3090 031c 0200     		.2byte	0x2
 3091 031e 7D       		.byte	0x7d
 3092 031f 08       		.sleb128 8
 3093 0320 D2000000 		.4byte	.LCFI11-.Ltext0
 3094 0324 D4000000 		.4byte	.LCFI12-.Ltext0
 3095 0328 0200     		.2byte	0x2
 3096 032a 7D       		.byte	0x7d
 3097 032b 10       		.sleb128 16
 3098 032c D4000000 		.4byte	.LCFI12-.Ltext0
 3099 0330 F6000000 		.4byte	.LCFI13-.Ltext0
ARM GAS  G:\Users\Jaxb\AppData\Local\Temp\cc45sPGH.s 			page 62


 3100 0334 0200     		.2byte	0x2
 3101 0336 77       		.byte	0x77
 3102 0337 08       		.sleb128 8
 3103 0338 F6000000 		.4byte	.LCFI13-.Ltext0
 3104 033c 08010000 		.4byte	.LFE15-.Ltext0
 3105 0340 0200     		.2byte	0x2
 3106 0342 7D       		.byte	0x7d
 3107 0343 08       		.sleb128 8
 3108 0344 00000000 		.4byte	0
 3109 0348 00000000 		.4byte	0
 3110              	.LLST1:
 3111 034c A8000000 		.4byte	.LFB14-.Ltext0
 3112 0350 AA000000 		.4byte	.LCFI5-.Ltext0
 3113 0354 0200     		.2byte	0x2
 3114 0356 7D       		.byte	0x7d
 3115 0357 00       		.sleb128 0
 3116 0358 AA000000 		.4byte	.LCFI5-.Ltext0
 3117 035c AC000000 		.4byte	.LCFI6-.Ltext0
 3118 0360 0200     		.2byte	0x2
 3119 0362 7D       		.byte	0x7d
 3120 0363 08       		.sleb128 8
 3121 0364 AC000000 		.4byte	.LCFI6-.Ltext0
 3122 0368 AE000000 		.4byte	.LCFI7-.Ltext0
 3123 036c 0200     		.2byte	0x2
 3124 036e 7D       		.byte	0x7d
 3125 036f 18       		.sleb128 24
 3126 0370 AE000000 		.4byte	.LCFI7-.Ltext0
 3127 0374 CA000000 		.4byte	.LCFI8-.Ltext0
 3128 0378 0200     		.2byte	0x2
 3129 037a 77       		.byte	0x77
 3130 037b 18       		.sleb128 24
 3131 037c CA000000 		.4byte	.LCFI8-.Ltext0
 3132 0380 CC000000 		.4byte	.LCFI9-.Ltext0
 3133 0384 0200     		.2byte	0x2
 3134 0386 77       		.byte	0x77
 3135 0387 08       		.sleb128 8
 3136 0388 CC000000 		.4byte	.LCFI9-.Ltext0
 3137 038c CE000000 		.4byte	.LFE14-.Ltext0
 3138 0390 0200     		.2byte	0x2
 3139 0392 7D       		.byte	0x7d
 3140 0393 08       		.sleb128 8
 3141 0394 00000000 		.4byte	0
 3142 0398 00000000 		.4byte	0
 3143              	.LLST0:
 3144 039c 00000000 		.4byte	.LFB13-.Ltext0
 3145 03a0 04000000 		.4byte	.LCFI0-.Ltext0
 3146 03a4 0200     		.2byte	0x2
 3147 03a6 7D       		.byte	0x7d
 3148 03a7 00       		.sleb128 0
 3149 03a8 04000000 		.4byte	.LCFI0-.Ltext0
 3150 03ac 06000000 		.4byte	.LCFI1-.Ltext0
 3151 03b0 0200     		.2byte	0x2
 3152 03b2 7D       		.byte	0x7d
 3153 03b3 10       		.sleb128 16
 3154 03b4 06000000 		.4byte	.LCFI1-.Ltext0
 3155 03b8 08000000 		.4byte	.LCFI2-.Ltext0
 3156 03bc 0200     		.2byte	0x2
ARM GAS  G:\Users\Jaxb\AppData\Local\Temp\cc45sPGH.s 			page 63


 3157 03be 7D       		.byte	0x7d
 3158 03bf 28       		.sleb128 40
 3159 03c0 08000000 		.4byte	.LCFI2-.Ltext0
 3160 03c4 A2000000 		.4byte	.LCFI3-.Ltext0
 3161 03c8 0200     		.2byte	0x2
 3162 03ca 77       		.byte	0x77
 3163 03cb 28       		.sleb128 40
 3164 03cc A2000000 		.4byte	.LCFI3-.Ltext0
 3165 03d0 A4000000 		.4byte	.LCFI4-.Ltext0
 3166 03d4 0200     		.2byte	0x2
 3167 03d6 77       		.byte	0x77
 3168 03d7 10       		.sleb128 16
 3169 03d8 A4000000 		.4byte	.LCFI4-.Ltext0
 3170 03dc A8000000 		.4byte	.LFE13-.Ltext0
 3171 03e0 0200     		.2byte	0x2
 3172 03e2 7D       		.byte	0x7d
 3173 03e3 10       		.sleb128 16
 3174 03e4 00000000 		.4byte	0
 3175 03e8 00000000 		.4byte	0
 3176              		.section	.debug_aranges,"",%progbits
 3177 0000 1C000000 		.4byte	0x1c
 3178 0004 0200     		.2byte	0x2
 3179 0006 00000000 		.4byte	.Ldebug_info0
 3180 000a 04       		.byte	0x4
 3181 000b 00       		.byte	0
 3182 000c 0000     		.2byte	0
 3183 000e 0000     		.2byte	0
 3184 0010 00000000 		.4byte	.Ltext0
 3185 0014 30050000 		.4byte	.Letext0-.Ltext0
 3186 0018 00000000 		.4byte	0
 3187 001c 00000000 		.4byte	0
 3188              		.section	.debug_line,"",%progbits
 3189              	.Ldebug_line0:
 3190 0000 05020000 		.section	.debug_str,"MS",%progbits,1
 3190      02000601 
 3190      00000201 
 3190      FB0E0D00 
 3190      01010101 
 3191              	.LASF56:
 3192 0000 5F5F7274 		.ascii	"__rtmsym_timer_init\000"
 3192      6D73796D 
 3192      5F74696D 
 3192      65725F69 
 3192      6E697400 
 3193              	.LASF41:
 3194 0014 53544154 		.ascii	"STATE_SUSPEND_NORMAL\000"
 3194      455F5355 
 3194      5350454E 
 3194      445F4E4F 
 3194      524D414C 
 3195              	.LASF86:
 3196 0029 5F5F696E 		.ascii	"__init_timer\000"
 3196      69745F74 
 3196      696D6572 
 3196      00
 3197              	.LASF64:
 3198 0036 5F5F7274 		.ascii	"__rtmsym_timer_delete\000"
ARM GAS  G:\Users\Jaxb\AppData\Local\Temp\cc45sPGH.s 			page 64


 3198      6D73796D 
 3198      5F74696D 
 3198      65725F64 
 3198      656C6574 
 3199              	.LASF55:
 3200 004c 5F5F7274 		.ascii	"__rtmsym_timer_init_name\000"
 3200      6D73796D 
 3200      5F74696D 
 3200      65725F69 
 3200      6E69745F 
 3201              	.LASF60:
 3202 0065 5F5F7274 		.ascii	"__rtmsym_timer_enable\000"
 3202      6D73796D 
 3202      5F74696D 
 3202      65725F65 
 3202      6E61626C 
 3203              	.LASF19:
 3204 007b 73746174 		.ascii	"state\000"
 3204      6500
 3205              	.LASF30:
 3206 0081 6D61785F 		.ascii	"max_len\000"
 3206      6C656E00 
 3207              	.LASF1:
 3208 0089 73686F72 		.ascii	"short int\000"
 3208      7420696E 
 3208      7400
 3209              	.LASF43:
 3210 0093 53544154 		.ascii	"STATE_WAIT_MCB_TIMEOUT\000"
 3210      455F5741 
 3210      49545F4D 
 3210      43425F54 
 3210      494D454F 
 3211              	.LASF13:
 3212 00aa 54696D65 		.ascii	"Timer_Type\000"
 3212      725F5479 
 3212      706500
 3213              	.LASF76:
 3214 00b5 74696D65 		.ascii	"timer_create\000"
 3214      725F6372 
 3214      65617465 
 3214      00
 3215              	.LASF80:
 3216 00c2 696E6465 		.ascii	"index1\000"
 3216      783100
 3217              	.LASF81:
 3218 00c9 696E6465 		.ascii	"index2\000"
 3218      783200
 3219              	.LASF44:
 3220 00d0 53544154 		.ascii	"STATE_WAIT_MESSAGE_QUEUE_FOREVER\000"
 3220      455F5741 
 3220      49545F4D 
 3220      45535341 
 3220      47455F51 
 3221              	.LASF21:
 3222 00f1 74696D65 		.ascii	"timer_name\000"
 3222      725F6E61 
 3222      6D6500
ARM GAS  G:\Users\Jaxb\AppData\Local\Temp\cc45sPGH.s 			page 65


 3223              	.LASF37:
 3224 00fc 696E6465 		.ascii	"index_change_record\000"
 3224      785F6368 
 3224      616E6765 
 3224      5F726563 
 3224      6F726400 
 3225              	.LASF38:
 3226 0110 5461736B 		.ascii	"Task_State\000"
 3226      5F537461 
 3226      746500
 3227              	.LASF46:
 3228 011b 53544154 		.ascii	"STATE_PUT_MESSAGE_QUEUE_FOREVER\000"
 3228      455F5055 
 3228      545F4D45 
 3228      53534147 
 3228      455F5155 
 3229              	.LASF51:
 3230 013b 6B615F6D 		.ascii	"ka_module_symtab\000"
 3230      6F64756C 
 3230      655F7379 
 3230      6D746162 
 3230      00
 3231              	.LASF79:
 3232 014c 696E6465 		.ascii	"index\000"
 3232      7800
 3233              	.LASF27:
 3234 0152 74696D65 		.ascii	"timer\000"
 3234      7200
 3235              	.LASF28:
 3236 0158 76656374 		.ascii	"vector\000"
 3236      6F7200
 3237              	.LASF29:
 3238 015f 64617461 		.ascii	"data_ptr\000"
 3238      5F707472 
 3238      00
 3239              	.LASF22:
 3240 0168 70617261 		.ascii	"para\000"
 3240      00
 3241              	.LASF15:
 3242 016d 44495341 		.ascii	"DISABLE\000"
 3242      424C4500 
 3243              	.LASF57:
 3244 0175 5F5F7274 		.ascii	"__rtmsym_timer_create_name\000"
 3244      6D73796D 
 3244      5F74696D 
 3244      65725F63 
 3244      72656174 
 3245              	.LASF25:
 3246 0190 77616B65 		.ascii	"wake_time\000"
 3246      5F74696D 
 3246      6500
 3247              	.LASF45:
 3248 019a 53544154 		.ascii	"STATE_WAIT_MESSAGE_QUEUE_TIMEOUT\000"
 3248      455F5741 
 3248      49545F4D 
 3248      45535341 
 3248      47455F51 
ARM GAS  G:\Users\Jaxb\AppData\Local\Temp\cc45sPGH.s 			page 66


 3249              	.LASF84:
 3250 01bb 463A5C6B 		.ascii	"F:\\kaka\\KAKAOS\\C\\windows\\Project\\RVMDK\243\250"
 3250      616B615C 
 3250      4B414B41 
 3250      4F535C43 
 3250      5C77696E 
 3251 01e3 757635A3 		.ascii	"uv5\243\251\000"
 3251      A900
 3252              	.LASF2:
 3253 01e9 6C6F6E67 		.ascii	"long long int\000"
 3253      206C6F6E 
 3253      6720696E 
 3253      7400
 3254              	.LASF71:
 3255 01f7 5F74696D 		.ascii	"_timer_delete\000"
 3255      65725F64 
 3255      656C6574 
 3255      6500
 3256              	.LASF85:
 3257 0205 74696D65 		.ascii	"timer_task\000"
 3257      725F7461 
 3257      736B00
 3258              	.LASF63:
 3259 0210 5F5F7274 		.ascii	"__rtmsym_timer_delete_name\000"
 3259      6D73796D 
 3259      5F74696D 
 3259      65725F64 
 3259      656C6574 
 3260              	.LASF26:
 3261 022b 63686172 		.ascii	"char\000"
 3261      00
 3262              	.LASF77:
 3263 0230 74696D65 		.ascii	"timer_init\000"
 3263      725F696E 
 3263      697400
 3264              	.LASF67:
 3265 023b 74696D65 		.ascii	"timer_ptr\000"
 3265      725F7074 
 3265      7200
 3266              	.LASF52:
 3267 0245 61646472 		.ascii	"addr\000"
 3267      00
 3268              	.LASF23:
 3269 024a 70657269 		.ascii	"period\000"
 3269      6F6400
 3270              	.LASF31:
 3271 0251 6375725F 		.ascii	"cur_len\000"
 3271      6C656E00 
 3272              	.LASF53:
 3273 0259 6E616D65 		.ascii	"name\000"
 3273      00
 3274              	.LASF73:
 3275 025e 5F74696D 		.ascii	"_timer_disable\000"
 3275      65725F64 
 3275      69736162 
 3275      6C6500
 3276              	.LASF34:
ARM GAS  G:\Users\Jaxb\AppData\Local\Temp\cc45sPGH.s 			page 67


 3277 026d 56656374 		.ascii	"Vector\000"
 3277      6F7200
 3278              	.LASF69:
 3279 0274 5F676574 		.ascii	"_get_timer_heap_top\000"
 3279      5F74696D 
 3279      65725F68 
 3279      6561705F 
 3279      746F7000 
 3280              	.LASF3:
 3281 0288 756E7369 		.ascii	"unsigned char\000"
 3281      676E6564 
 3281      20636861 
 3281      7200
 3282              	.LASF40:
 3283 0296 53544154 		.ascii	"STATE_DELAY\000"
 3283      455F4445 
 3283      4C415900 
 3284              	.LASF0:
 3285 02a2 7369676E 		.ascii	"signed char\000"
 3285      65642063 
 3285      68617200 
 3286              	.LASF8:
 3287 02ae 6C6F6E67 		.ascii	"long long unsigned int\000"
 3287      206C6F6E 
 3287      6720756E 
 3287      7369676E 
 3287      65642069 
 3288              	.LASF18:
 3289 02c5 74797065 		.ascii	"type\000"
 3289      00
 3290              	.LASF5:
 3291 02ca 756E7369 		.ascii	"unsigned int\000"
 3291      676E6564 
 3291      20696E74 
 3291      00
 3292              	.LASF9:
 3293 02d7 54494D45 		.ascii	"TIMER_ONE_TIME\000"
 3293      525F4F4E 
 3293      455F5449 
 3293      4D4500
 3294              	.LASF62:
 3295 02e6 5F5F7274 		.ascii	"__rtmsym_timer_disable\000"
 3295      6D73796D 
 3295      5F74696D 
 3295      65725F64 
 3295      69736162 
 3296              	.LASF78:
 3297 02fd 56656374 		.ascii	"Vector_ptr\000"
 3297      6F725F70 
 3297      747200
 3298              	.LASF72:
 3299 0308 74696D65 		.ascii	"timer_disable\000"
 3299      725F6469 
 3299      7361626C 
 3299      6500
 3300              	.LASF59:
 3301 0316 5F5F7274 		.ascii	"__rtmsym_timer_enable_name\000"
ARM GAS  G:\Users\Jaxb\AppData\Local\Temp\cc45sPGH.s 			page 68


 3301      6D73796D 
 3301      5F74696D 
 3301      65725F65 
 3301      6E61626C 
 3302              	.LASF4:
 3303 0331 73686F72 		.ascii	"short unsigned int\000"
 3303      7420756E 
 3303      7369676E 
 3303      65642069 
 3303      6E7400
 3304              	.LASF39:
 3305 0344 53544154 		.ascii	"STATE_READY\000"
 3305      455F5245 
 3305      41445900 
 3306              	.LASF24:
 3307 0350 68656170 		.ascii	"heap_position_index\000"
 3307      5F706F73 
 3307      6974696F 
 3307      6E5F696E 
 3307      64657800 
 3308              	.LASF70:
 3309 0364 74696D65 		.ascii	"timer_delete\000"
 3309      725F6465 
 3309      6C657465 
 3309      00
 3310              	.LASF74:
 3311 0371 74696D65 		.ascii	"timer_enable\000"
 3311      725F656E 
 3311      61626C65 
 3311      00
 3312              	.LASF33:
 3313 037e 65787465 		.ascii	"extension_factor\000"
 3313      6E73696F 
 3313      6E5F6661 
 3313      63746F72 
 3313      00
 3314              	.LASF47:
 3315 038f 53544154 		.ascii	"STATE_PUT_MESSAGE_QUEUE_TIMEOUT\000"
 3315      455F5055 
 3315      545F4D45 
 3315      53534147 
 3315      455F5155 
 3316              	.LASF6:
 3317 03af 494E5436 		.ascii	"INT64\000"
 3317      3400
 3318              	.LASF49:
 3319 03b5 4350555F 		.ascii	"CPU_INT32U\000"
 3319      494E5433 
 3319      325500
 3320              	.LASF36:
 3321 03c0 64617461 		.ascii	"data\000"
 3321      00
 3322              	.LASF17:
 3323 03c5 54494D45 		.ascii	"TIMER_STATE\000"
 3323      525F5354 
 3323      41544500 
 3324              	.LASF20:
ARM GAS  G:\Users\Jaxb\AppData\Local\Temp\cc45sPGH.s 			page 69


 3325 03d1 72657374 		.ascii	"rest_num\000"
 3325      5F6E756D 
 3325      00
 3326              	.LASF61:
 3327 03da 5F5F7274 		.ascii	"__rtmsym_timer_disable_name\000"
 3327      6D73796D 
 3327      5F74696D 
 3327      65725F64 
 3327      69736162 
 3328              	.LASF35:
 3329 03f6 6C697474 		.ascii	"little_heap\000"
 3329      6C655F68 
 3329      65617000 
 3330              	.LASF32:
 3331 0402 64617461 		.ascii	"data_size\000"
 3331      5F73697A 
 3331      6500
 3332              	.LASF83:
 3333 040c 2E2E2F2E 		.ascii	"../../source/src/kernel/OS_CORE/os_timer.c\000"
 3333      2E2F736F 
 3333      75726365 
 3333      2F737263 
 3333      2F6B6572 
 3334              	.LASF58:
 3335 0437 5F5F7274 		.ascii	"__rtmsym_timer_create\000"
 3335      6D73796D 
 3335      5F74696D 
 3335      65725F63 
 3335      72656174 
 3336              	.LASF42:
 3337 044d 53544154 		.ascii	"STATE_WAIT_MCB_FOREVER\000"
 3337      455F5741 
 3337      49545F4D 
 3337      43425F46 
 3337      4F524556 
 3338              	.LASF14:
 3339 0464 54696D65 		.ascii	"Timer_State\000"
 3339      725F5374 
 3339      61746500 
 3340              	.LASF12:
 3341 0470 54494D45 		.ascii	"TIMER_TYPE\000"
 3341      525F5459 
 3341      504500
 3342              	.LASF75:
 3343 047b 5F74696D 		.ascii	"_timer_enable\000"
 3343      65725F65 
 3343      6E61626C 
 3343      6500
 3344              	.LASF54:
 3345 0489 675F696E 		.ascii	"g_interrupt_count\000"
 3345      74657272 
 3345      7570745F 
 3345      636F756E 
 3345      7400
 3346              	.LASF11:
 3347 049b 54494D45 		.ascii	"TIMER_TIME\000"
 3347      525F5449 
ARM GAS  G:\Users\Jaxb\AppData\Local\Temp\cc45sPGH.s 			page 70


 3347      4D4500
 3348              	.LASF82:
 3349 04a6 474E5520 		.ascii	"GNU C11 7.3.1 20180622 (release) [ARM/embedded-7-br"
 3349      43313120 
 3349      372E332E 
 3349      31203230 
 3349      31383036 
 3350 04d9 616E6368 		.ascii	"anch revision 261907] -mcpu=cortex-m3 -mthumb -mapc"
 3350      20726576 
 3350      6973696F 
 3350      6E203236 
 3350      31393037 
 3351 050c 732D6672 		.ascii	"s-frame -mthumb-interwork -mcpu=cortex-m3 -mthumb -"
 3351      616D6520 
 3351      2D6D7468 
 3351      756D622D 
 3351      696E7465 
 3352 053f 67647761 		.ascii	"gdwarf-2 -O0\000"
 3352      72662D32 
 3352      202D4F30 
 3352      00
 3353              	.LASF68:
 3354 054c 6370755F 		.ascii	"cpu_sr\000"
 3354      737200
 3355              	.LASF48:
 3356 0553 53544154 		.ascii	"STATE_WAIT_MUTEX_FOREVER\000"
 3356      455F5741 
 3356      49545F4D 
 3356      55544558 
 3356      5F464F52 
 3357              	.LASF50:
 3358 056c 4350555F 		.ascii	"CPU_SR\000"
 3358      535200
 3359              	.LASF66:
 3360 0573 7469636B 		.ascii	"tick\000"
 3360      00
 3361              	.LASF7:
 3362 0578 55494E54 		.ascii	"UINT64\000"
 3362      363400
 3363              	.LASF16:
 3364 057f 454E4142 		.ascii	"ENABLE\000"
 3364      4C4500
 3365              	.LASF65:
 3366 0586 74696D65 		.ascii	"timer_heap\000"
 3366      725F6865 
 3366      617000
 3367              	.LASF10:
 3368 0591 54494D45 		.ascii	"TIMER_PERIODIC\000"
 3368      525F5045 
 3368      52494F44 
 3368      494300
 3369              		.ident	"GCC: (GNU Tools for Arm Embedded Processors 7-2018-q2-update) 7.3.1 20180622 (release) [AR
ARM GAS  G:\Users\Jaxb\AppData\Local\Temp\cc45sPGH.s 			page 71


DEFINED SYMBOLS
                            *ABS*:00000000 os_timer.c
G:\Users\Jaxb\AppData\Local\Temp\cc45sPGH.s:16     .bss:00000000 $d
G:\Users\Jaxb\AppData\Local\Temp\cc45sPGH.s:17     .bss:00000000 timer_heap
G:\Users\Jaxb\AppData\Local\Temp\cc45sPGH.s:21     .text:00000000 $t
G:\Users\Jaxb\AppData\Local\Temp\cc45sPGH.s:27     .text:00000000 cmp
G:\Users\Jaxb\AppData\Local\Temp\cc45sPGH.s:132    .text:000000a8 index_change_record
G:\Users\Jaxb\AppData\Local\Temp\cc45sPGH.s:175    .rodata:00000000 $d
G:\Users\Jaxb\AppData\Local\Temp\cc45sPGH.s:186    .text:000000ce __init_timer
G:\Users\Jaxb\AppData\Local\Temp\cc45sPGH.s:231    .text:000000f8 $d
G:\Users\Jaxb\AppData\Local\Temp\cc45sPGH.s:255    .text:00000108 $t
G:\Users\Jaxb\AppData\Local\Temp\cc45sPGH.s:262    .text:00000108 timer_init
G:\Users\Jaxb\AppData\Local\Temp\cc45sPGH.s:381    .text:000001a0 $d
G:\Users\Jaxb\AppData\Local\Temp\cc45sPGH.s:394    .rodata.name:00000000 __rtmsym_timer_init_name
G:\Users\Jaxb\AppData\Local\Temp\cc45sPGH.s:391    .rodata.name:00000000 $d
G:\Users\Jaxb\AppData\Local\Temp\cc45sPGH.s:401    .RTMSymTab:00000000 __rtmsym_timer_init
G:\Users\Jaxb\AppData\Local\Temp\cc45sPGH.s:398    .RTMSymTab:00000000 $d
G:\Users\Jaxb\AppData\Local\Temp\cc45sPGH.s:405    .text:000001b4 $t
G:\Users\Jaxb\AppData\Local\Temp\cc45sPGH.s:412    .text:000001b4 timer_create
G:\Users\Jaxb\AppData\Local\Temp\cc45sPGH.s:493    .rodata.name:0000000c __rtmsym_timer_create_name
G:\Users\Jaxb\AppData\Local\Temp\cc45sPGH.s:500    .RTMSymTab:00000008 __rtmsym_timer_create
G:\Users\Jaxb\AppData\Local\Temp\cc45sPGH.s:511    .text:00000210 _timer_enable
G:\Users\Jaxb\AppData\Local\Temp\cc45sPGH.s:589    .text:0000027c $d
G:\Users\Jaxb\AppData\Local\Temp\cc45sPGH.s:600    .text:00000284 $t
G:\Users\Jaxb\AppData\Local\Temp\cc45sPGH.s:607    .text:00000284 timer_enable
G:\Users\Jaxb\AppData\Local\Temp\cc45sPGH.s:654    .text:000002b0 $d
G:\Users\Jaxb\AppData\Local\Temp\cc45sPGH.s:663    .rodata.name:0000001c __rtmsym_timer_enable_name
G:\Users\Jaxb\AppData\Local\Temp\cc45sPGH.s:670    .RTMSymTab:00000010 __rtmsym_timer_enable
G:\Users\Jaxb\AppData\Local\Temp\cc45sPGH.s:674    .text:000002b4 $t
G:\Users\Jaxb\AppData\Local\Temp\cc45sPGH.s:681    .text:000002b4 _timer_disable
G:\Users\Jaxb\AppData\Local\Temp\cc45sPGH.s:756    .text:0000030c $d
G:\Users\Jaxb\AppData\Local\Temp\cc45sPGH.s:767    .text:00000314 $t
G:\Users\Jaxb\AppData\Local\Temp\cc45sPGH.s:774    .text:00000314 timer_disable
G:\Users\Jaxb\AppData\Local\Temp\cc45sPGH.s:821    .text:00000340 $d
G:\Users\Jaxb\AppData\Local\Temp\cc45sPGH.s:830    .rodata.name:0000002c __rtmsym_timer_disable_name
G:\Users\Jaxb\AppData\Local\Temp\cc45sPGH.s:837    .RTMSymTab:00000018 __rtmsym_timer_disable
G:\Users\Jaxb\AppData\Local\Temp\cc45sPGH.s:841    .text:00000344 $t
G:\Users\Jaxb\AppData\Local\Temp\cc45sPGH.s:848    .text:00000344 _timer_delete
G:\Users\Jaxb\AppData\Local\Temp\cc45sPGH.s:917    .text:00000390 $d
G:\Users\Jaxb\AppData\Local\Temp\cc45sPGH.s:927    .text:00000394 $t
G:\Users\Jaxb\AppData\Local\Temp\cc45sPGH.s:934    .text:00000394 timer_delete
G:\Users\Jaxb\AppData\Local\Temp\cc45sPGH.s:981    .text:000003c0 $d
G:\Users\Jaxb\AppData\Local\Temp\cc45sPGH.s:990    .rodata.name:0000003c __rtmsym_timer_delete_name
G:\Users\Jaxb\AppData\Local\Temp\cc45sPGH.s:997    .RTMSymTab:00000020 __rtmsym_timer_delete
G:\Users\Jaxb\AppData\Local\Temp\cc45sPGH.s:1006   .text:000003c4 $t
G:\Users\Jaxb\AppData\Local\Temp\cc45sPGH.s:1013   .text:000003c4 _get_timer_heap_top
G:\Users\Jaxb\AppData\Local\Temp\cc45sPGH.s:1082   .text:00000414 $d
G:\Users\Jaxb\AppData\Local\Temp\cc45sPGH.s:1088   .text:00000420 $t
G:\Users\Jaxb\AppData\Local\Temp\cc45sPGH.s:1095   .text:00000420 timer_task
G:\Users\Jaxb\AppData\Local\Temp\cc45sPGH.s:1254   .text:00000528 $d

UNDEFINED SYMBOLS
Vector_get_index_address
Vector_get_index_data
heap_init
ka_printf
_ASSERT
ARM GAS  G:\Users\Jaxb\AppData\Local\Temp\cc45sPGH.s 			page 72


g_interrupt_count
ka_malloc
CPU_SR_Save
_get_tick
heap_push
CPU_SR_Restore
heap_remove_index_data
ka_free
heap_get_index_data_safe
sys_suspend
get_tick
