ARM GAS  G:\Users\Jaxb\AppData\Local\Temp\ccR8gxz3.s 			page 1


   1              		.cpu cortex-m3
   2              		.eabi_attribute 20, 1
   3              		.eabi_attribute 21, 1
   4              		.eabi_attribute 23, 3
   5              		.eabi_attribute 24, 1
   6              		.eabi_attribute 25, 1
   7              		.eabi_attribute 26, 1
   8              		.eabi_attribute 30, 6
   9              		.eabi_attribute 34, 1
  10              		.eabi_attribute 18, 4
  11              		.file	"os_timer.c"
  12              		.text
  13              	.Ltext0:
  14              		.cfi_sections	.debug_frame
  15              		.align	1
  16              		.syntax unified
  17              		.thumb
  18              		.thumb_func
  19              		.fpu softvfp
  20              		.type	Vector_get_index_data, %function
  21              	Vector_get_index_data:
  22              	.LFB0:
  23              		.file 1 "../../source/include/os_lib/vector.h"
   1:../../source/include/os_lib/vector.h **** #ifndef _VECTOR_H
   2:../../source/include/os_lib/vector.h **** #define _VECTOR_H
   3:../../source/include/os_lib/vector.h **** 
   4:../../source/include/os_lib/vector.h **** #include <myMicroLIB.h>
   5:../../source/include/os_lib/vector.h **** 
   6:../../source/include/os_lib/vector.h **** #define f_free(ptr)				ka_free(ptr)
   7:../../source/include/os_lib/vector.h **** #define f_memcpy(des,src,size)	ka_memcpy(des,src,size)
   8:../../source/include/os_lib/vector.h **** #define f_malloc(size)			ka_malloc(size)
   9:../../source/include/os_lib/vector.h **** 
  10:../../source/include/os_lib/vector.h **** typedef struct vector
  11:../../source/include/os_lib/vector.h **** {
  12:../../source/include/os_lib/vector.h ****     void *data_ptr;
  13:../../source/include/os_lib/vector.h ****     unsigned int max_len;
  14:../../source/include/os_lib/vector.h ****     unsigned int cur_len;
  15:../../source/include/os_lib/vector.h ****     unsigned int data_size;
  16:../../source/include/os_lib/vector.h **** /*
  17:../../source/include/os_lib/vector.h **** 	if the highest bit is 1, multiply
  18:../../source/include/os_lib/vector.h **** 	if the highest bit is 0, add
  19:../../source/include/os_lib/vector.h **** 	use the following macro to produce this member:MKVFMUL  MKVFADD
  20:../../source/include/os_lib/vector.h ****  */
  21:../../source/include/os_lib/vector.h ****     unsigned int extension_factor;
  22:../../source/include/os_lib/vector.h **** }Vector;
  23:../../source/include/os_lib/vector.h **** 
  24:../../source/include/os_lib/vector.h **** #define ERROR_ALLOCATE_ROOM 1
  25:../../source/include/os_lib/vector.h **** #define ERROR_DATA_EMPTY    2
  26:../../source/include/os_lib/vector.h **** 
  27:../../source/include/os_lib/vector.h **** /*
  28:../../source/include/os_lib/vector.h **** get vector[index] data into *data_store_ptr
  29:../../source/include/os_lib/vector.h ****  */
  30:../../source/include/os_lib/vector.h **** static inline void Vector_get_index_data(Vector *vector_ptr,unsigned int index,void *data_store_ptr
  31:../../source/include/os_lib/vector.h **** {
  24              		.loc 1 31 0
  25              		.cfi_startproc
  26              		@ args = 0, pretend = 0, frame = 16
ARM GAS  G:\Users\Jaxb\AppData\Local\Temp\ccR8gxz3.s 			page 2


  27              		@ frame_needed = 1, uses_anonymous_args = 0
  28 0000 80B5     		push	{r7, lr}
  29              	.LCFI0:
  30              		.cfi_def_cfa_offset 8
  31              		.cfi_offset 7, -8
  32              		.cfi_offset 14, -4
  33 0002 84B0     		sub	sp, sp, #16
  34              	.LCFI1:
  35              		.cfi_def_cfa_offset 24
  36 0004 00AF     		add	r7, sp, #0
  37              	.LCFI2:
  38              		.cfi_def_cfa_register 7
  39 0006 F860     		str	r0, [r7, #12]
  40 0008 B960     		str	r1, [r7, #8]
  41 000a 7A60     		str	r2, [r7, #4]
  32:../../source/include/os_lib/vector.h **** 	f_memcpy(data_store_ptr,(char*)(vector_ptr->data_ptr) + index * vector_ptr->data_size,vector_ptr->
  42              		.loc 1 32 0
  43 000c FB68     		ldr	r3, [r7, #12]
  44 000e 1A68     		ldr	r2, [r3]
  45 0010 FB68     		ldr	r3, [r7, #12]
  46 0012 DB68     		ldr	r3, [r3, #12]
  47 0014 B968     		ldr	r1, [r7, #8]
  48 0016 01FB03F3 		mul	r3, r1, r3
  49 001a D118     		adds	r1, r2, r3
  50 001c FB68     		ldr	r3, [r7, #12]
  51 001e DB68     		ldr	r3, [r3, #12]
  52 0020 1A46     		mov	r2, r3
  53 0022 7868     		ldr	r0, [r7, #4]
  54 0024 FFF7FEFF 		bl	ka_memcpy
  33:../../source/include/os_lib/vector.h **** }
  55              		.loc 1 33 0
  56 0028 00BF     		nop
  57 002a 1037     		adds	r7, r7, #16
  58              	.LCFI3:
  59              		.cfi_def_cfa_offset 8
  60 002c BD46     		mov	sp, r7
  61              	.LCFI4:
  62              		.cfi_def_cfa_register 13
  63              		@ sp needed
  64 002e 80BD     		pop	{r7, pc}
  65              		.cfi_endproc
  66              	.LFE0:
  67              		.size	Vector_get_index_data, .-Vector_get_index_data
  68              		.align	1
  69              		.syntax unified
  70              		.thumb
  71              		.thumb_func
  72              		.fpu softvfp
  73              		.type	Vector_get_index_address, %function
  74              	Vector_get_index_address:
  75              	.LFB3:
  34:../../source/include/os_lib/vector.h **** 
  35:../../source/include/os_lib/vector.h **** /*
  36:../../source/include/os_lib/vector.h **** set vector[index] data with *data_store_ptr
  37:../../source/include/os_lib/vector.h ****  */
  38:../../source/include/os_lib/vector.h **** static inline void Vector_set_index_data(Vector *vector_ptr,unsigned int index,void *data_store_ptr
  39:../../source/include/os_lib/vector.h **** {
ARM GAS  G:\Users\Jaxb\AppData\Local\Temp\ccR8gxz3.s 			page 3


  40:../../source/include/os_lib/vector.h **** 	f_memcpy((char*)(vector_ptr->data_ptr) + index * vector_ptr->data_size,data_store_ptr,vector_ptr->
  41:../../source/include/os_lib/vector.h **** }
  42:../../source/include/os_lib/vector.h **** 
  43:../../source/include/os_lib/vector.h **** /*
  44:../../source/include/os_lib/vector.h **** delete vector
  45:../../source/include/os_lib/vector.h ****  */
  46:../../source/include/os_lib/vector.h **** static inline void Vector_delete(Vector *vector_ptr)
  47:../../source/include/os_lib/vector.h **** {
  48:../../source/include/os_lib/vector.h **** 	f_free(vector_ptr->data_ptr);
  49:../../source/include/os_lib/vector.h **** }
  50:../../source/include/os_lib/vector.h **** 
  51:../../source/include/os_lib/vector.h **** static inline void Vector_get_index_address(Vector *vector_ptr,unsigned int index,void **data_add_p
  52:../../source/include/os_lib/vector.h **** {
  76              		.loc 1 52 0
  77              		.cfi_startproc
  78              		@ args = 0, pretend = 0, frame = 16
  79              		@ frame_needed = 1, uses_anonymous_args = 0
  80              		@ link register save eliminated.
  81 0030 80B4     		push	{r7}
  82              	.LCFI5:
  83              		.cfi_def_cfa_offset 4
  84              		.cfi_offset 7, -4
  85 0032 85B0     		sub	sp, sp, #20
  86              	.LCFI6:
  87              		.cfi_def_cfa_offset 24
  88 0034 00AF     		add	r7, sp, #0
  89              	.LCFI7:
  90              		.cfi_def_cfa_register 7
  91 0036 F860     		str	r0, [r7, #12]
  92 0038 B960     		str	r1, [r7, #8]
  93 003a 7A60     		str	r2, [r7, #4]
  53:../../source/include/os_lib/vector.h **** 	*data_add_ptr = (void *)((char*)(vector_ptr->data_ptr) + index * vector_ptr->data_size);
  94              		.loc 1 53 0
  95 003c FB68     		ldr	r3, [r7, #12]
  96 003e 1A68     		ldr	r2, [r3]
  97 0040 FB68     		ldr	r3, [r7, #12]
  98 0042 DB68     		ldr	r3, [r3, #12]
  99 0044 B968     		ldr	r1, [r7, #8]
 100 0046 01FB03F3 		mul	r3, r1, r3
 101 004a 1A44     		add	r2, r2, r3
 102 004c 7B68     		ldr	r3, [r7, #4]
 103 004e 1A60     		str	r2, [r3]
  54:../../source/include/os_lib/vector.h **** }
 104              		.loc 1 54 0
 105 0050 00BF     		nop
 106 0052 1437     		adds	r7, r7, #20
 107              	.LCFI8:
 108              		.cfi_def_cfa_offset 4
 109 0054 BD46     		mov	sp, r7
 110              	.LCFI9:
 111              		.cfi_def_cfa_register 13
 112              		@ sp needed
 113 0056 80BC     		pop	{r7}
 114              	.LCFI10:
 115              		.cfi_restore 7
 116              		.cfi_def_cfa_offset 0
 117 0058 7047     		bx	lr
ARM GAS  G:\Users\Jaxb\AppData\Local\Temp\ccR8gxz3.s 			page 4


 118              		.cfi_endproc
 119              	.LFE3:
 120              		.size	Vector_get_index_address, .-Vector_get_index_address
 121              		.bss
 122              		.align	2
 123              	timer_heap:
 124 0000 00000000 		.space	28
 124      00000000 
 124      00000000 
 124      00000000 
 124      00000000 
 125              		.size	timer_heap, 28
 126              		.text
 127              		.align	1
 128              		.syntax unified
 129              		.thumb
 130              		.thumb_func
 131              		.fpu softvfp
 132              		.type	cmp, %function
 133              	cmp:
 134              	.LFB20:
 135              		.file 2 "../../source/src/kernel/OS_CORE/time/os_timer.c"
   1:../../source/src/kernel/OS_CORE/time/os_timer.c **** #include <os_timer.h>
   2:../../source/src/kernel/OS_CORE/time/os_timer.c **** #include <os_error.h>
   3:../../source/src/kernel/OS_CORE/time/os_timer.c **** #include <myassert.h>
   4:../../source/src/kernel/OS_CORE/time/os_timer.c **** #include <myMicroLIB.h>
   5:../../source/src/kernel/OS_CORE/time/os_timer.c **** #include <heap_oo.h>
   6:../../source/src/kernel/OS_CORE/time/os_timer.c **** #include <os_schedule.h>
   7:../../source/src/kernel/OS_CORE/time/os_timer.c **** #include <os_time.h>
   8:../../source/src/kernel/OS_CORE/time/os_timer.c **** #include <os_cpu.h>
   9:../../source/src/kernel/OS_CORE/time/os_timer.c **** #include <export.h>
  10:../../source/src/kernel/OS_CORE/time/os_timer.c **** 
  11:../../source/src/kernel/OS_CORE/time/os_timer.c **** #if CONFIG_TIMER_EN
  12:../../source/src/kernel/OS_CORE/time/os_timer.c **** 
  13:../../source/src/kernel/OS_CORE/time/os_timer.c **** static struct little_heap timer_heap;
  14:../../source/src/kernel/OS_CORE/time/os_timer.c **** 
  15:../../source/src/kernel/OS_CORE/time/os_timer.c **** static int cmp(Vector *Vector_ptr,unsigned int index1,unsigned int index2)
  16:../../source/src/kernel/OS_CORE/time/os_timer.c **** {
 136              		.loc 2 16 0
 137              		.cfi_startproc
 138              		@ args = 0, pretend = 0, frame = 24
 139              		@ frame_needed = 1, uses_anonymous_args = 0
 140 005a 2DE99048 		push	{r4, r7, fp, lr}
 141              	.LCFI11:
 142              		.cfi_def_cfa_offset 16
 143              		.cfi_offset 4, -16
 144              		.cfi_offset 7, -12
 145              		.cfi_offset 11, -8
 146              		.cfi_offset 14, -4
 147 005e 86B0     		sub	sp, sp, #24
 148              	.LCFI12:
 149              		.cfi_def_cfa_offset 40
 150 0060 00AF     		add	r7, sp, #0
 151              	.LCFI13:
 152              		.cfi_def_cfa_register 7
 153 0062 F860     		str	r0, [r7, #12]
 154 0064 B960     		str	r1, [r7, #8]
ARM GAS  G:\Users\Jaxb\AppData\Local\Temp\ccR8gxz3.s 			page 5


 155 0066 7A60     		str	r2, [r7, #4]
  17:../../source/src/kernel/OS_CORE/time/os_timer.c **** 	const struct timer **a, **b;
  18:../../source/src/kernel/OS_CORE/time/os_timer.c **** 	Vector_get_index_address (Vector_ptr, index1, (void **)&a);
 156              		.loc 2 18 0
 157 0068 07F11403 		add	r3, r7, #20
 158 006c 1A46     		mov	r2, r3
 159 006e B968     		ldr	r1, [r7, #8]
 160 0070 F868     		ldr	r0, [r7, #12]
 161 0072 FFF7DDFF 		bl	Vector_get_index_address
  19:../../source/src/kernel/OS_CORE/time/os_timer.c **** 	Vector_get_index_address (Vector_ptr, index2, (void **)&b);
 162              		.loc 2 19 0
 163 0076 07F11003 		add	r3, r7, #16
 164 007a 1A46     		mov	r2, r3
 165 007c 7968     		ldr	r1, [r7, #4]
 166 007e F868     		ldr	r0, [r7, #12]
 167 0080 FFF7D6FF 		bl	Vector_get_index_address
  20:../../source/src/kernel/OS_CORE/time/os_timer.c **** 	if (TIME_FIRST_SMALLER_THAN_SECOND((*a)->wake_time,(*b)->wake_time))
 168              		.loc 2 20 0
 169 0084 7B69     		ldr	r3, [r7, #20]
 170 0086 1B68     		ldr	r3, [r3]
 171 0088 03F12004 		add	r4, r3, #32
 172 008c D4E90034 		ldrd	r3, [r4]
 173 0090 1946     		mov	r1, r3
 174 0092 2246     		mov	r2, r4
 175 0094 3B69     		ldr	r3, [r7, #16]
 176 0096 1B68     		ldr	r3, [r3]
 177 0098 03F12004 		add	r4, r3, #32
 178 009c D4E90034 		ldrd	r3, [r4]
 179 00a0 9B46     		mov	fp, r3
 180 00a2 A446     		mov	ip, r4
 181 00a4 0B46     		mov	r3, r1
 182 00a6 1446     		mov	r4, r2
 183 00a8 B3EB0B03 		subs	r3, r3, fp
 184 00ac 64EB0C04 		sbc	r4, r4, ip
 185 00b0 002B     		cmp	r3, #0
 186 00b2 74F10003 		sbcs	r3, r4, #0
 187 00b6 02DA     		bge	.L4
  21:../../source/src/kernel/OS_CORE/time/os_timer.c **** 	{
  22:../../source/src/kernel/OS_CORE/time/os_timer.c **** 	  return -1;
 188              		.loc 2 22 0
 189 00b8 4FF0FF33 		mov	r3, #-1
 190 00bc 1CE0     		b	.L7
 191              	.L4:
  23:../../source/src/kernel/OS_CORE/time/os_timer.c **** 	}
  24:../../source/src/kernel/OS_CORE/time/os_timer.c **** 	else if (TIME_FIRST_BIGGER_THAN_SECOND((*a)->wake_time,(*b)->wake_time))
 192              		.loc 2 24 0
 193 00be 7B69     		ldr	r3, [r7, #20]
 194 00c0 1B68     		ldr	r3, [r3]
 195 00c2 03F12004 		add	r4, r3, #32
 196 00c6 D4E90034 		ldrd	r3, [r4]
 197 00ca 1946     		mov	r1, r3
 198 00cc 2246     		mov	r2, r4
 199 00ce 3B69     		ldr	r3, [r7, #16]
 200 00d0 1B68     		ldr	r3, [r3]
 201 00d2 03F12004 		add	r4, r3, #32
 202 00d6 D4E90034 		ldrd	r3, [r4]
 203 00da 9B46     		mov	fp, r3
ARM GAS  G:\Users\Jaxb\AppData\Local\Temp\ccR8gxz3.s 			page 6


 204 00dc A446     		mov	ip, r4
 205 00de 0B46     		mov	r3, r1
 206 00e0 1446     		mov	r4, r2
 207 00e2 B3EB0B03 		subs	r3, r3, fp
 208 00e6 64EB0C04 		sbc	r4, r4, ip
 209 00ea 012B     		cmp	r3, #1
 210 00ec 74F10003 		sbcs	r3, r4, #0
 211 00f0 01DB     		blt	.L6
  25:../../source/src/kernel/OS_CORE/time/os_timer.c **** 	{
  26:../../source/src/kernel/OS_CORE/time/os_timer.c **** 	  return 1;
 212              		.loc 2 26 0
 213 00f2 0123     		movs	r3, #1
 214 00f4 00E0     		b	.L7
 215              	.L6:
  27:../../source/src/kernel/OS_CORE/time/os_timer.c **** 	}
  28:../../source/src/kernel/OS_CORE/time/os_timer.c **** 	else
  29:../../source/src/kernel/OS_CORE/time/os_timer.c **** 	{
  30:../../source/src/kernel/OS_CORE/time/os_timer.c **** 	  return 0;
 216              		.loc 2 30 0
 217 00f6 0023     		movs	r3, #0
 218              	.L7:
  31:../../source/src/kernel/OS_CORE/time/os_timer.c **** 	}
  32:../../source/src/kernel/OS_CORE/time/os_timer.c **** }
 219              		.loc 2 32 0 discriminator 1
 220 00f8 1846     		mov	r0, r3
 221 00fa 1837     		adds	r7, r7, #24
 222              	.LCFI14:
 223              		.cfi_def_cfa_offset 16
 224 00fc BD46     		mov	sp, r7
 225              	.LCFI15:
 226              		.cfi_def_cfa_register 13
 227              		@ sp needed
 228 00fe BDE89088 		pop	{r4, r7, fp, pc}
 229              		.cfi_endproc
 230              	.LFE20:
 231              		.size	cmp, .-cmp
 232              		.align	1
 233              		.syntax unified
 234              		.thumb
 235              		.thumb_func
 236              		.fpu softvfp
 237              		.type	index_change_record, %function
 238              	index_change_record:
 239              	.LFB21:
  33:../../source/src/kernel/OS_CORE/time/os_timer.c **** 
  34:../../source/src/kernel/OS_CORE/time/os_timer.c **** static inline void index_change_record(Vector *Vector_ptr,int index)
  35:../../source/src/kernel/OS_CORE/time/os_timer.c **** {
 240              		.loc 2 35 0
 241              		.cfi_startproc
 242              		@ args = 0, pretend = 0, frame = 16
 243              		@ frame_needed = 1, uses_anonymous_args = 0
 244 0102 80B5     		push	{r7, lr}
 245              	.LCFI16:
 246              		.cfi_def_cfa_offset 8
 247              		.cfi_offset 7, -8
 248              		.cfi_offset 14, -4
 249 0104 84B0     		sub	sp, sp, #16
ARM GAS  G:\Users\Jaxb\AppData\Local\Temp\ccR8gxz3.s 			page 7


 250              	.LCFI17:
 251              		.cfi_def_cfa_offset 24
 252 0106 00AF     		add	r7, sp, #0
 253              	.LCFI18:
 254              		.cfi_def_cfa_register 7
 255 0108 7860     		str	r0, [r7, #4]
 256 010a 3960     		str	r1, [r7]
  36:../../source/src/kernel/OS_CORE/time/os_timer.c **** 	struct timer *timer_ptr;
  37:../../source/src/kernel/OS_CORE/time/os_timer.c **** 	Vector_get_index_data(Vector_ptr,index,&timer_ptr);
 257              		.loc 2 37 0
 258 010c 3B68     		ldr	r3, [r7]
 259 010e 07F10C02 		add	r2, r7, #12
 260 0112 1946     		mov	r1, r3
 261 0114 7868     		ldr	r0, [r7, #4]
 262 0116 FFF773FF 		bl	Vector_get_index_data
  38:../../source/src/kernel/OS_CORE/time/os_timer.c **** 	timer_ptr->heap_position_index = index;
 263              		.loc 2 38 0
 264 011a FB68     		ldr	r3, [r7, #12]
 265 011c 3A68     		ldr	r2, [r7]
 266 011e 9A61     		str	r2, [r3, #24]
  39:../../source/src/kernel/OS_CORE/time/os_timer.c **** }
 267              		.loc 2 39 0
 268 0120 00BF     		nop
 269 0122 1037     		adds	r7, r7, #16
 270              	.LCFI19:
 271              		.cfi_def_cfa_offset 8
 272 0124 BD46     		mov	sp, r7
 273              	.LCFI20:
 274              		.cfi_def_cfa_register 13
 275              		@ sp needed
 276 0126 80BD     		pop	{r7, pc}
 277              		.cfi_endproc
 278              	.LFE21:
 279              		.size	index_change_record, .-index_change_record
 280              		.section	.rodata
 281              		.align	2
 282              	.LC0:
 283 0000 696E6974 		.ascii	"init_delay_heap error!\012stop booting.....\012\000"
 283      5F64656C 
 283      61795F68 
 283      65617020 
 283      6572726F 
 284              		.text
 285              		.align	1
 286              		.global	__init_timer
 287              		.syntax unified
 288              		.thumb
 289              		.thumb_func
 290              		.fpu softvfp
 291              		.type	__init_timer, %function
 292              	__init_timer:
 293              	.LFB22:
  40:../../source/src/kernel/OS_CORE/time/os_timer.c **** 
  41:../../source/src/kernel/OS_CORE/time/os_timer.c **** /**
  42:../../source/src/kernel/OS_CORE/time/os_timer.c ****  * This is a system function
  43:../../source/src/kernel/OS_CORE/time/os_timer.c ****  * @Author      kaka
  44:../../source/src/kernel/OS_CORE/time/os_timer.c ****  * @DateTime    2018-10-03
ARM GAS  G:\Users\Jaxb\AppData\Local\Temp\ccR8gxz3.s 			page 8


  45:../../source/src/kernel/OS_CORE/time/os_timer.c ****  * @description : used while os's initialization
  46:../../source/src/kernel/OS_CORE/time/os_timer.c ****  */
  47:../../source/src/kernel/OS_CORE/time/os_timer.c **** void __init_timer(void)
  48:../../source/src/kernel/OS_CORE/time/os_timer.c **** {
 294              		.loc 2 48 0
 295              		.cfi_startproc
 296              		@ args = 0, pretend = 0, frame = 0
 297              		@ frame_needed = 1, uses_anonymous_args = 0
 298 0128 80B5     		push	{r7, lr}
 299              	.LCFI21:
 300              		.cfi_def_cfa_offset 8
 301              		.cfi_offset 7, -8
 302              		.cfi_offset 14, -4
 303 012a 82B0     		sub	sp, sp, #8
 304              	.LCFI22:
 305              		.cfi_def_cfa_offset 16
 306 012c 02AF     		add	r7, sp, #8
 307              	.LCFI23:
 308              		.cfi_def_cfa 7, 8
  49:../../source/src/kernel/OS_CORE/time/os_timer.c **** 	if(0 != heap_init(&timer_heap,16,sizeof(struct timer *),cmp,index_change_record))
 309              		.loc 2 49 0
 310 012e 094B     		ldr	r3, .L13
 311 0130 0093     		str	r3, [sp]
 312 0132 094B     		ldr	r3, .L13+4
 313 0134 0422     		movs	r2, #4
 314 0136 1021     		movs	r1, #16
 315 0138 0848     		ldr	r0, .L13+8
 316 013a FFF7FEFF 		bl	heap_init
 317 013e 0346     		mov	r3, r0
 318 0140 002B     		cmp	r3, #0
 319 0142 03D0     		beq	.L12
  50:../../source/src/kernel/OS_CORE/time/os_timer.c **** 	{
  51:../../source/src/kernel/OS_CORE/time/os_timer.c **** 		ka_printf("init_delay_heap error!\nstop booting.....\n");
 320              		.loc 2 51 0
 321 0144 0648     		ldr	r0, .L13+12
 322 0146 FFF7FEFF 		bl	ka_printf
 323              	.L11:
  52:../../source/src/kernel/OS_CORE/time/os_timer.c **** 		while(1);
 324              		.loc 2 52 0 discriminator 1
 325 014a FEE7     		b	.L11
 326              	.L12:
  53:../../source/src/kernel/OS_CORE/time/os_timer.c **** 		//os stop here
  54:../../source/src/kernel/OS_CORE/time/os_timer.c **** 	}
  55:../../source/src/kernel/OS_CORE/time/os_timer.c **** }
 327              		.loc 2 55 0
 328 014c 00BF     		nop
 329 014e BD46     		mov	sp, r7
 330              	.LCFI24:
 331              		.cfi_def_cfa_register 13
 332              		@ sp needed
 333 0150 80BD     		pop	{r7, pc}
 334              	.L14:
 335 0152 00BF     		.align	2
 336              	.L13:
 337 0154 00000000 		.word	index_change_record
 338 0158 00000000 		.word	cmp
 339 015c 00000000 		.word	timer_heap
ARM GAS  G:\Users\Jaxb\AppData\Local\Temp\ccR8gxz3.s 			page 9


 340 0160 00000000 		.word	.LC0
 341              		.cfi_endproc
 342              	.LFE22:
 343              		.size	__init_timer, .-__init_timer
 344              		.section	.rodata
 345 002a 0000     		.align	2
 346              	.LC1:
 347 002c 2E2E2F2E 		.ascii	"../../source/src/kernel/OS_CORE/time/os_timer.c\000"
 347      2E2F736F 
 347      75726365 
 347      2F737263 
 347      2F6B6572 
 348              		.align	2
 349              	.LC2:
 350 005c 6572726F 		.ascii	"error fun name : timer_init\012error para : timer_p"
 350      72206675 
 350      6E206E61 
 350      6D65203A 
 350      2074696D 
 351 008c 74720A00 		.ascii	"tr\012\000"
 352              		.align	2
 353              	.LC3:
 354 0090 6572726F 		.ascii	"error fun name : timer_init\012error para : name\012"
 354      72206675 
 354      6E206E61 
 354      6D65203A 
 354      2074696D 
 355 00be 00       		.ascii	"\000"
 356 00bf 00       		.align	2
 357              	.LC4:
 358 00c0 6572726F 		.ascii	"error fun name : timer_init\012error para : fun\012"
 358      72206675 
 358      6E206E61 
 358      6D65203A 
 358      2074696D 
 359 00ed 00       		.ascii	"\000"
 360              		.text
 361              		.align	1
 362              		.global	timer_init
 363              		.syntax unified
 364              		.thumb
 365              		.thumb_func
 366              		.fpu softvfp
 367              		.type	timer_init, %function
 368              	timer_init:
 369              	.LFB23:
  56:../../source/src/kernel/OS_CORE/time/os_timer.c **** 
  57:../../source/src/kernel/OS_CORE/time/os_timer.c **** /**
  58:../../source/src/kernel/OS_CORE/time/os_timer.c ****  * This is a system function
  59:../../source/src/kernel/OS_CORE/time/os_timer.c ****  * @Author      kaka
  60:../../source/src/kernel/OS_CORE/time/os_timer.c ****  * @DateTime    2018-10-03
  61:../../source/src/kernel/OS_CORE/time/os_timer.c ****  * @description : initialize the timer
  62:../../source/src/kernel/OS_CORE/time/os_timer.c ****  */
  63:../../source/src/kernel/OS_CORE/time/os_timer.c **** int timer_init(
  64:../../source/src/kernel/OS_CORE/time/os_timer.c **** 	struct timer *timer_ptr,
  65:../../source/src/kernel/OS_CORE/time/os_timer.c **** 	TIMER_TYPE type,
  66:../../source/src/kernel/OS_CORE/time/os_timer.c **** 	char *name,
ARM GAS  G:\Users\Jaxb\AppData\Local\Temp\ccR8gxz3.s 			page 10


  67:../../source/src/kernel/OS_CORE/time/os_timer.c **** 	void (*fun)(void *para),
  68:../../source/src/kernel/OS_CORE/time/os_timer.c **** 	void *para,
  69:../../source/src/kernel/OS_CORE/time/os_timer.c **** 	unsigned int period,
  70:../../source/src/kernel/OS_CORE/time/os_timer.c **** 	unsigned int num)
  71:../../source/src/kernel/OS_CORE/time/os_timer.c **** {
 370              		.loc 2 71 0
 371              		.cfi_startproc
 372              		@ args = 12, pretend = 0, frame = 16
 373              		@ frame_needed = 1, uses_anonymous_args = 0
 374 0164 80B5     		push	{r7, lr}
 375              	.LCFI25:
 376              		.cfi_def_cfa_offset 8
 377              		.cfi_offset 7, -8
 378              		.cfi_offset 14, -4
 379 0166 84B0     		sub	sp, sp, #16
 380              	.LCFI26:
 381              		.cfi_def_cfa_offset 24
 382 0168 00AF     		add	r7, sp, #0
 383              	.LCFI27:
 384              		.cfi_def_cfa_register 7
 385 016a F860     		str	r0, [r7, #12]
 386 016c 7A60     		str	r2, [r7, #4]
 387 016e 3B60     		str	r3, [r7]
 388 0170 0B46     		mov	r3, r1
 389 0172 FB72     		strb	r3, [r7, #11]
  72:../../source/src/kernel/OS_CORE/time/os_timer.c **** 	ASSERT((NULL != timer_ptr) && (NULL != name) && (NULL != fun));
 390              		.loc 2 72 0
 391 0174 FB68     		ldr	r3, [r7, #12]
 392 0176 002B     		cmp	r3, #0
 393 0178 05D0     		beq	.L16
 394              		.loc 2 72 0 is_stmt 0 discriminator 1
 395 017a 7B68     		ldr	r3, [r7, #4]
 396 017c 002B     		cmp	r3, #0
 397 017e 02D0     		beq	.L16
 398              		.loc 2 72 0 discriminator 3
 399 0180 3B68     		ldr	r3, [r7]
 400 0182 002B     		cmp	r3, #0
 401 0184 03D1     		bne	.L17
 402              	.L16:
 403              		.loc 2 72 0 discriminator 5
 404 0186 4821     		movs	r1, #72
 405 0188 1C48     		ldr	r0, .L22
 406 018a FFF7FEFF 		bl	_ASSERT
 407              	.L17:
  73:../../source/src/kernel/OS_CORE/time/os_timer.c **** 	if((NULL == timer_ptr) || (NULL == name) || (NULL == fun))
 408              		.loc 2 73 0 is_stmt 1
 409 018e FB68     		ldr	r3, [r7, #12]
 410 0190 002B     		cmp	r3, #0
 411 0192 05D0     		beq	.L18
 412              		.loc 2 73 0 is_stmt 0 discriminator 1
 413 0194 7B68     		ldr	r3, [r7, #4]
 414 0196 002B     		cmp	r3, #0
 415 0198 02D0     		beq	.L18
 416              		.loc 2 73 0 discriminator 2
 417 019a 3B68     		ldr	r3, [r7]
 418 019c 002B     		cmp	r3, #0
 419 019e 0BD1     		bne	.L19
ARM GAS  G:\Users\Jaxb\AppData\Local\Temp\ccR8gxz3.s 			page 11


 420              	.L18:
  74:../../source/src/kernel/OS_CORE/time/os_timer.c **** 	{
  75:../../source/src/kernel/OS_CORE/time/os_timer.c **** 		OS_ERROR_PARA_MESSAGE_DISPLAY(timer_init,timer_ptr);
 421              		.loc 2 75 0 is_stmt 1
 422 01a0 1748     		ldr	r0, .L22+4
 423 01a2 FFF7FEFF 		bl	ka_printf
  76:../../source/src/kernel/OS_CORE/time/os_timer.c **** 		OS_ERROR_PARA_MESSAGE_DISPLAY(timer_init,name);
 424              		.loc 2 76 0
 425 01a6 1748     		ldr	r0, .L22+8
 426 01a8 FFF7FEFF 		bl	ka_printf
  77:../../source/src/kernel/OS_CORE/time/os_timer.c **** 		OS_ERROR_PARA_MESSAGE_DISPLAY(timer_init,fun);
 427              		.loc 2 77 0
 428 01ac 1648     		ldr	r0, .L22+12
 429 01ae FFF7FEFF 		bl	ka_printf
  78:../../source/src/kernel/OS_CORE/time/os_timer.c **** 		return -ERROR_NULL_INPUT_PTR;
 430              		.loc 2 78 0
 431 01b2 6FF0FE03 		mvn	r3, #254
 432 01b6 1CE0     		b	.L20
 433              	.L19:
  79:../../source/src/kernel/OS_CORE/time/os_timer.c **** 	}
  80:../../source/src/kernel/OS_CORE/time/os_timer.c **** 	if (g_interrupt_count > 0)
 434              		.loc 2 80 0
 435 01b8 144B     		ldr	r3, .L22+16
 436 01ba 1B68     		ldr	r3, [r3]
 437 01bc 002B     		cmp	r3, #0
 438 01be 02DD     		ble	.L21
  81:../../source/src/kernel/OS_CORE/time/os_timer.c **** 	{
  82:../../source/src/kernel/OS_CORE/time/os_timer.c **** 		return -ERROR_FUN_USE_IN_INTER;
 439              		.loc 2 82 0
 440 01c0 6FF0FC03 		mvn	r3, #252
 441 01c4 15E0     		b	.L20
 442              	.L21:
  83:../../source/src/kernel/OS_CORE/time/os_timer.c **** 	}
  84:../../source/src/kernel/OS_CORE/time/os_timer.c **** 	timer_ptr->type  			= type;
 443              		.loc 2 84 0
 444 01c6 FB68     		ldr	r3, [r7, #12]
 445 01c8 FA7A     		ldrb	r2, [r7, #11]
 446 01ca 1A70     		strb	r2, [r3]
  85:../../source/src/kernel/OS_CORE/time/os_timer.c **** 	timer_ptr->state 			= DISABLE;
 447              		.loc 2 85 0
 448 01cc FB68     		ldr	r3, [r7, #12]
 449 01ce 0022     		movs	r2, #0
 450 01d0 5A70     		strb	r2, [r3, #1]
  86:../../source/src/kernel/OS_CORE/time/os_timer.c **** 	timer_ptr->timer_name 		= name;
 451              		.loc 2 86 0
 452 01d2 FB68     		ldr	r3, [r7, #12]
 453 01d4 7A68     		ldr	r2, [r7, #4]
 454 01d6 9A60     		str	r2, [r3, #8]
  87:../../source/src/kernel/OS_CORE/time/os_timer.c **** 	timer_ptr->fun 				= fun;
 455              		.loc 2 87 0
 456 01d8 FB68     		ldr	r3, [r7, #12]
 457 01da 3A68     		ldr	r2, [r7]
 458 01dc DA60     		str	r2, [r3, #12]
  88:../../source/src/kernel/OS_CORE/time/os_timer.c **** 	timer_ptr->para 			= para;
 459              		.loc 2 88 0
 460 01de FB68     		ldr	r3, [r7, #12]
 461 01e0 BA69     		ldr	r2, [r7, #24]
ARM GAS  G:\Users\Jaxb\AppData\Local\Temp\ccR8gxz3.s 			page 12


 462 01e2 1A61     		str	r2, [r3, #16]
  89:../../source/src/kernel/OS_CORE/time/os_timer.c **** 	timer_ptr->period 			= period;
 463              		.loc 2 89 0
 464 01e4 FB68     		ldr	r3, [r7, #12]
 465 01e6 FA69     		ldr	r2, [r7, #28]
 466 01e8 5A61     		str	r2, [r3, #20]
  90:../../source/src/kernel/OS_CORE/time/os_timer.c **** 	timer_ptr->rest_num 		= INIT_REST_NUM(num);
 467              		.loc 2 90 0
 468 01ea FB68     		ldr	r3, [r7, #12]
 469 01ec 3A6A     		ldr	r2, [r7, #32]
 470 01ee 5A60     		str	r2, [r3, #4]
  91:../../source/src/kernel/OS_CORE/time/os_timer.c **** 	return FUN_EXECUTE_SUCCESSFULLY;
 471              		.loc 2 91 0
 472 01f0 0023     		movs	r3, #0
 473              	.L20:
  92:../../source/src/kernel/OS_CORE/time/os_timer.c **** }
 474              		.loc 2 92 0
 475 01f2 1846     		mov	r0, r3
 476 01f4 1037     		adds	r7, r7, #16
 477              	.LCFI28:
 478              		.cfi_def_cfa_offset 8
 479 01f6 BD46     		mov	sp, r7
 480              	.LCFI29:
 481              		.cfi_def_cfa_register 13
 482              		@ sp needed
 483 01f8 80BD     		pop	{r7, pc}
 484              	.L23:
 485 01fa 00BF     		.align	2
 486              	.L22:
 487 01fc 2C000000 		.word	.LC1
 488 0200 5C000000 		.word	.LC2
 489 0204 90000000 		.word	.LC3
 490 0208 C0000000 		.word	.LC4
 491 020c 00000000 		.word	g_interrupt_count
 492              		.cfi_endproc
 493              	.LFE23:
 494              		.size	timer_init, .-timer_init
 495              		.global	__rtmsym_timer_init_name
 496              		.section	.rodata.name,"a",%progbits
 497              		.align	2
 498              		.type	__rtmsym_timer_init_name, %object
 499              		.size	__rtmsym_timer_init_name, 11
 500              	__rtmsym_timer_init_name:
 501 0000 74696D65 		.ascii	"timer_init\000"
 501      725F696E 
 501      697400
 502              		.global	__rtmsym_timer_init
 503              		.section	.RTMSymTab,"a",%progbits
 504              		.align	2
 505              		.type	__rtmsym_timer_init, %object
 506              		.size	__rtmsym_timer_init, 8
 507              	__rtmsym_timer_init:
 508 0000 00000000 		.word	timer_init
 509 0004 00000000 		.word	__rtmsym_timer_init_name
 510              		.text
 511              		.align	1
 512              		.global	timer_create
ARM GAS  G:\Users\Jaxb\AppData\Local\Temp\ccR8gxz3.s 			page 13


 513              		.syntax unified
 514              		.thumb
 515              		.thumb_func
 516              		.fpu softvfp
 517              		.type	timer_create, %function
 518              	timer_create:
 519              	.LFB24:
  93:../../source/src/kernel/OS_CORE/time/os_timer.c **** EXPORT_SYMBOL(timer_init);
  94:../../source/src/kernel/OS_CORE/time/os_timer.c **** 
  95:../../source/src/kernel/OS_CORE/time/os_timer.c **** /**
  96:../../source/src/kernel/OS_CORE/time/os_timer.c ****  * This is a system function
  97:../../source/src/kernel/OS_CORE/time/os_timer.c ****  * @Author      kaka
  98:../../source/src/kernel/OS_CORE/time/os_timer.c ****  * @DateTime    2018-10-03
  99:../../source/src/kernel/OS_CORE/time/os_timer.c ****  * @description : create and initialize the timer
 100:../../source/src/kernel/OS_CORE/time/os_timer.c ****  */
 101:../../source/src/kernel/OS_CORE/time/os_timer.c **** int timer_create(
 102:../../source/src/kernel/OS_CORE/time/os_timer.c **** 	struct timer **timer_ptr,
 103:../../source/src/kernel/OS_CORE/time/os_timer.c **** 	TIMER_TYPE type,
 104:../../source/src/kernel/OS_CORE/time/os_timer.c **** 	char *name,
 105:../../source/src/kernel/OS_CORE/time/os_timer.c **** 	void (*fun)(void *para),
 106:../../source/src/kernel/OS_CORE/time/os_timer.c **** 	void *para,
 107:../../source/src/kernel/OS_CORE/time/os_timer.c **** 	unsigned int period,
 108:../../source/src/kernel/OS_CORE/time/os_timer.c **** 	unsigned int num)
 109:../../source/src/kernel/OS_CORE/time/os_timer.c **** {
 520              		.loc 2 109 0
 521              		.cfi_startproc
 522              		@ args = 12, pretend = 0, frame = 24
 523              		@ frame_needed = 1, uses_anonymous_args = 0
 524 0210 80B5     		push	{r7, lr}
 525              	.LCFI30:
 526              		.cfi_def_cfa_offset 8
 527              		.cfi_offset 7, -8
 528              		.cfi_offset 14, -4
 529 0212 8AB0     		sub	sp, sp, #40
 530              	.LCFI31:
 531              		.cfi_def_cfa_offset 48
 532 0214 04AF     		add	r7, sp, #16
 533              	.LCFI32:
 534              		.cfi_def_cfa 7, 32
 535 0216 F860     		str	r0, [r7, #12]
 536 0218 7A60     		str	r2, [r7, #4]
 537 021a 3B60     		str	r3, [r7]
 538 021c 0B46     		mov	r3, r1
 539 021e FB72     		strb	r3, [r7, #11]
 110:../../source/src/kernel/OS_CORE/time/os_timer.c **** 	struct timer *ptr;
 111:../../source/src/kernel/OS_CORE/time/os_timer.c **** 	ptr = ka_malloc(sizeof(struct timer));
 540              		.loc 2 111 0
 541 0220 2820     		movs	r0, #40
 542 0222 FFF7FEFF 		bl	ka_malloc
 543 0226 7861     		str	r0, [r7, #20]
 112:../../source/src/kernel/OS_CORE/time/os_timer.c **** 	if(NULL == ptr)
 544              		.loc 2 112 0
 545 0228 7B69     		ldr	r3, [r7, #20]
 546 022a 002B     		cmp	r3, #0
 547 022c 02D1     		bne	.L25
 113:../../source/src/kernel/OS_CORE/time/os_timer.c **** 	{
 114:../../source/src/kernel/OS_CORE/time/os_timer.c **** 		return -ERROR_NO_MEM;
ARM GAS  G:\Users\Jaxb\AppData\Local\Temp\ccR8gxz3.s 			page 14


 548              		.loc 2 114 0
 549 022e 6FF0FA03 		mvn	r3, #250
 550 0232 17E0     		b	.L26
 551              	.L25:
 115:../../source/src/kernel/OS_CORE/time/os_timer.c **** 	}
 116:../../source/src/kernel/OS_CORE/time/os_timer.c **** 	if(NULL != timer_ptr)
 552              		.loc 2 116 0
 553 0234 FB68     		ldr	r3, [r7, #12]
 554 0236 002B     		cmp	r3, #0
 555 0238 02D0     		beq	.L27
 117:../../source/src/kernel/OS_CORE/time/os_timer.c **** 	{
 118:../../source/src/kernel/OS_CORE/time/os_timer.c **** 		*timer_ptr = ptr;
 556              		.loc 2 118 0
 557 023a FB68     		ldr	r3, [r7, #12]
 558 023c 7A69     		ldr	r2, [r7, #20]
 559 023e 1A60     		str	r2, [r3]
 560              	.L27:
 119:../../source/src/kernel/OS_CORE/time/os_timer.c **** 	}
 120:../../source/src/kernel/OS_CORE/time/os_timer.c **** 	timer_init(ptr,type,name,fun,para,period,num);
 561              		.loc 2 120 0
 562 0240 F97A     		ldrb	r1, [r7, #11]	@ zero_extendqisi2
 563 0242 BB6A     		ldr	r3, [r7, #40]
 564 0244 0293     		str	r3, [sp, #8]
 565 0246 7B6A     		ldr	r3, [r7, #36]
 566 0248 0193     		str	r3, [sp, #4]
 567 024a 3B6A     		ldr	r3, [r7, #32]
 568 024c 0093     		str	r3, [sp]
 569 024e 3B68     		ldr	r3, [r7]
 570 0250 7A68     		ldr	r2, [r7, #4]
 571 0252 7869     		ldr	r0, [r7, #20]
 572 0254 FFF7FEFF 		bl	timer_init
 121:../../source/src/kernel/OS_CORE/time/os_timer.c **** 	ptr->rest_num = CREAT_REST_NUM(num);
 573              		.loc 2 121 0
 574 0258 BB6A     		ldr	r3, [r7, #40]
 575 025a 43F00042 		orr	r2, r3, #-2147483648
 576 025e 7B69     		ldr	r3, [r7, #20]
 577 0260 5A60     		str	r2, [r3, #4]
 122:../../source/src/kernel/OS_CORE/time/os_timer.c **** 	return FUN_EXECUTE_SUCCESSFULLY;
 578              		.loc 2 122 0
 579 0262 0023     		movs	r3, #0
 580              	.L26:
 123:../../source/src/kernel/OS_CORE/time/os_timer.c **** }
 581              		.loc 2 123 0
 582 0264 1846     		mov	r0, r3
 583 0266 1837     		adds	r7, r7, #24
 584              	.LCFI33:
 585              		.cfi_def_cfa_offset 8
 586 0268 BD46     		mov	sp, r7
 587              	.LCFI34:
 588              		.cfi_def_cfa_register 13
 589              		@ sp needed
 590 026a 80BD     		pop	{r7, pc}
 591              		.cfi_endproc
 592              	.LFE24:
 593              		.size	timer_create, .-timer_create
 594              		.global	__rtmsym_timer_create_name
 595              		.section	.rodata.name
ARM GAS  G:\Users\Jaxb\AppData\Local\Temp\ccR8gxz3.s 			page 15


 596 000b 00       		.align	2
 597              		.type	__rtmsym_timer_create_name, %object
 598              		.size	__rtmsym_timer_create_name, 13
 599              	__rtmsym_timer_create_name:
 600 000c 74696D65 		.ascii	"timer_create\000"
 600      725F6372 
 600      65617465 
 600      00
 601              		.global	__rtmsym_timer_create
 602              		.section	.RTMSymTab
 603              		.align	2
 604              		.type	__rtmsym_timer_create, %object
 605              		.size	__rtmsym_timer_create, 8
 606              	__rtmsym_timer_create:
 607 0008 00000000 		.word	timer_create
 608 000c 00000000 		.word	__rtmsym_timer_create_name
 609              		.text
 610              		.align	1
 611              		.global	_timer_enable
 612              		.syntax unified
 613              		.thumb
 614              		.thumb_func
 615              		.fpu softvfp
 616              		.type	_timer_enable, %function
 617              	_timer_enable:
 618              	.LFB25:
 124:../../source/src/kernel/OS_CORE/time/os_timer.c **** EXPORT_SYMBOL(timer_create);
 125:../../source/src/kernel/OS_CORE/time/os_timer.c **** 
 126:../../source/src/kernel/OS_CORE/time/os_timer.c **** /**
 127:../../source/src/kernel/OS_CORE/time/os_timer.c ****  * This is a system function
 128:../../source/src/kernel/OS_CORE/time/os_timer.c ****  * @Author      kaka
 129:../../source/src/kernel/OS_CORE/time/os_timer.c ****  * @DateTime    2018-10-03
 130:../../source/src/kernel/OS_CORE/time/os_timer.c ****  * @description : after using timer_create(), use this function to 
 131:../../source/src/kernel/OS_CORE/time/os_timer.c ****  * activate the timer
 132:../../source/src/kernel/OS_CORE/time/os_timer.c ****  * @param       timer_ptr  
 133:../../source/src/kernel/OS_CORE/time/os_timer.c ****  * @return      0 means success
 134:../../source/src/kernel/OS_CORE/time/os_timer.c ****  */
 135:../../source/src/kernel/OS_CORE/time/os_timer.c **** int _timer_enable(struct timer *timer_ptr)
 136:../../source/src/kernel/OS_CORE/time/os_timer.c **** {
 619              		.loc 2 136 0
 620              		.cfi_startproc
 621              		@ args = 0, pretend = 0, frame = 16
 622              		@ frame_needed = 1, uses_anonymous_args = 0
 623 026c 2DE9B048 		push	{r4, r5, r7, fp, lr}
 624              	.LCFI35:
 625              		.cfi_def_cfa_offset 20
 626              		.cfi_offset 4, -20
 627              		.cfi_offset 5, -16
 628              		.cfi_offset 7, -12
 629              		.cfi_offset 11, -8
 630              		.cfi_offset 14, -4
 631 0270 85B0     		sub	sp, sp, #20
 632              	.LCFI36:
 633              		.cfi_def_cfa_offset 40
 634 0272 00AF     		add	r7, sp, #0
 635              	.LCFI37:
 636              		.cfi_def_cfa_register 7
ARM GAS  G:\Users\Jaxb\AppData\Local\Temp\ccR8gxz3.s 			page 16


 637 0274 7860     		str	r0, [r7, #4]
 137:../../source/src/kernel/OS_CORE/time/os_timer.c **** 	ASSERT(NULL != timer_ptr);
 638              		.loc 2 137 0
 639 0276 7B68     		ldr	r3, [r7, #4]
 640 0278 002B     		cmp	r3, #0
 641 027a 03D1     		bne	.L29
 642              		.loc 2 137 0 is_stmt 0 discriminator 1
 643 027c 8921     		movs	r1, #137
 644 027e 1648     		ldr	r0, .L31
 645 0280 FFF7FEFF 		bl	_ASSERT
 646              	.L29:
 138:../../source/src/kernel/OS_CORE/time/os_timer.c **** 	CPU_SR_ALLOC();
 647              		.loc 2 138 0 is_stmt 1
 648 0284 0023     		movs	r3, #0
 649 0286 FB60     		str	r3, [r7, #12]
 139:../../source/src/kernel/OS_CORE/time/os_timer.c **** 	CPU_CRITICAL_ENTER();
 650              		.loc 2 139 0
 651 0288 FFF7FEFF 		bl	CPU_SR_Save
 652 028c F860     		str	r0, [r7, #12]
 140:../../source/src/kernel/OS_CORE/time/os_timer.c **** 	timer_ptr->state = ENABLE;
 653              		.loc 2 140 0
 654 028e 7B68     		ldr	r3, [r7, #4]
 655 0290 0122     		movs	r2, #1
 656 0292 5A70     		strb	r2, [r3, #1]
 141:../../source/src/kernel/OS_CORE/time/os_timer.c **** 	timer_ptr->wake_time = timer_ptr->period + _get_tick();
 657              		.loc 2 141 0
 658 0294 7B68     		ldr	r3, [r7, #4]
 659 0296 5B69     		ldr	r3, [r3, #20]
 660 0298 1C46     		mov	r4, r3
 661 029a 4FF00005 		mov	r5, #0
 662 029e FFF7FEFF 		bl	_get_tick
 663 02a2 0246     		mov	r2, r0
 664 02a4 0B46     		mov	r3, r1
 665 02a6 7968     		ldr	r1, [r7, #4]
 666 02a8 14EB020B 		adds	fp, r4, r2
 667 02ac 45EB030C 		adc	ip, r5, r3
 668 02b0 5B46     		mov	r3, fp
 669 02b2 6446     		mov	r4, ip
 670 02b4 C1E90834 		strd	r3, [r1, #32]
 142:../../source/src/kernel/OS_CORE/time/os_timer.c **** 	int ret = heap_push(&timer_heap,&timer_ptr);
 671              		.loc 2 142 0
 672 02b8 3B1D     		adds	r3, r7, #4
 673 02ba 1946     		mov	r1, r3
 674 02bc 0748     		ldr	r0, .L31+4
 675 02be FFF7FEFF 		bl	heap_push
 676 02c2 B860     		str	r0, [r7, #8]
 143:../../source/src/kernel/OS_CORE/time/os_timer.c **** 	CPU_CRITICAL_EXIT();
 677              		.loc 2 143 0
 678 02c4 F868     		ldr	r0, [r7, #12]
 679 02c6 FFF7FEFF 		bl	CPU_SR_Restore
 144:../../source/src/kernel/OS_CORE/time/os_timer.c **** 	return ret;
 680              		.loc 2 144 0
 681 02ca BB68     		ldr	r3, [r7, #8]
 145:../../source/src/kernel/OS_CORE/time/os_timer.c **** }
 682              		.loc 2 145 0
 683 02cc 1846     		mov	r0, r3
 684 02ce 1437     		adds	r7, r7, #20
ARM GAS  G:\Users\Jaxb\AppData\Local\Temp\ccR8gxz3.s 			page 17


 685              	.LCFI38:
 686              		.cfi_def_cfa_offset 20
 687 02d0 BD46     		mov	sp, r7
 688              	.LCFI39:
 689              		.cfi_def_cfa_register 13
 690              		@ sp needed
 691 02d2 BDE8B088 		pop	{r4, r5, r7, fp, pc}
 692              	.L32:
 693 02d6 00BF     		.align	2
 694              	.L31:
 695 02d8 2C000000 		.word	.LC1
 696 02dc 00000000 		.word	timer_heap
 697              		.cfi_endproc
 698              	.LFE25:
 699              		.size	_timer_enable, .-_timer_enable
 700              		.section	.rodata
 701 00ee 0000     		.align	2
 702              	.LC5:
 703 00f0 6572726F 		.ascii	"error fun name : timer_enable\012error para : timer"
 703      72206675 
 703      6E206E61 
 703      6D65203A 
 703      2074696D 
 704 0120 5F707472 		.ascii	"_ptr\012\000"
 704      0A00
 705              		.text
 706              		.align	1
 707              		.global	timer_enable
 708              		.syntax unified
 709              		.thumb
 710              		.thumb_func
 711              		.fpu softvfp
 712              		.type	timer_enable, %function
 713              	timer_enable:
 714              	.LFB26:
 146:../../source/src/kernel/OS_CORE/time/os_timer.c **** 
 147:../../source/src/kernel/OS_CORE/time/os_timer.c **** int timer_enable(struct timer *timer_ptr)
 148:../../source/src/kernel/OS_CORE/time/os_timer.c **** {
 715              		.loc 2 148 0
 716              		.cfi_startproc
 717              		@ args = 0, pretend = 0, frame = 8
 718              		@ frame_needed = 1, uses_anonymous_args = 0
 719 02e0 80B5     		push	{r7, lr}
 720              	.LCFI40:
 721              		.cfi_def_cfa_offset 8
 722              		.cfi_offset 7, -8
 723              		.cfi_offset 14, -4
 724 02e2 82B0     		sub	sp, sp, #8
 725              	.LCFI41:
 726              		.cfi_def_cfa_offset 16
 727 02e4 00AF     		add	r7, sp, #0
 728              	.LCFI42:
 729              		.cfi_def_cfa_register 7
 730 02e6 7860     		str	r0, [r7, #4]
 149:../../source/src/kernel/OS_CORE/time/os_timer.c **** 	if(NULL == timer_ptr)
 731              		.loc 2 149 0
 732 02e8 7B68     		ldr	r3, [r7, #4]
ARM GAS  G:\Users\Jaxb\AppData\Local\Temp\ccR8gxz3.s 			page 18


 733 02ea 002B     		cmp	r3, #0
 734 02ec 05D1     		bne	.L34
 150:../../source/src/kernel/OS_CORE/time/os_timer.c **** 	{
 151:../../source/src/kernel/OS_CORE/time/os_timer.c **** 		OS_ERROR_PARA_MESSAGE_DISPLAY(timer_enable,timer_ptr);
 735              		.loc 2 151 0
 736 02ee 0748     		ldr	r0, .L36
 737 02f0 FFF7FEFF 		bl	ka_printf
 152:../../source/src/kernel/OS_CORE/time/os_timer.c **** 		return -ERROR_NULL_INPUT_PTR;
 738              		.loc 2 152 0
 739 02f4 6FF0FE03 		mvn	r3, #254
 740 02f8 03E0     		b	.L35
 741              	.L34:
 153:../../source/src/kernel/OS_CORE/time/os_timer.c **** 	}
 154:../../source/src/kernel/OS_CORE/time/os_timer.c **** 	return _timer_enable(timer_ptr);
 742              		.loc 2 154 0
 743 02fa 7868     		ldr	r0, [r7, #4]
 744 02fc FFF7FEFF 		bl	_timer_enable
 745 0300 0346     		mov	r3, r0
 746              	.L35:
 155:../../source/src/kernel/OS_CORE/time/os_timer.c **** }
 747              		.loc 2 155 0
 748 0302 1846     		mov	r0, r3
 749 0304 0837     		adds	r7, r7, #8
 750              	.LCFI43:
 751              		.cfi_def_cfa_offset 8
 752 0306 BD46     		mov	sp, r7
 753              	.LCFI44:
 754              		.cfi_def_cfa_register 13
 755              		@ sp needed
 756 0308 80BD     		pop	{r7, pc}
 757              	.L37:
 758 030a 00BF     		.align	2
 759              	.L36:
 760 030c F0000000 		.word	.LC5
 761              		.cfi_endproc
 762              	.LFE26:
 763              		.size	timer_enable, .-timer_enable
 764              		.global	__rtmsym_timer_enable_name
 765              		.section	.rodata.name
 766 0019 000000   		.align	2
 767              		.type	__rtmsym_timer_enable_name, %object
 768              		.size	__rtmsym_timer_enable_name, 13
 769              	__rtmsym_timer_enable_name:
 770 001c 74696D65 		.ascii	"timer_enable\000"
 770      725F656E 
 770      61626C65 
 770      00
 771              		.global	__rtmsym_timer_enable
 772              		.section	.RTMSymTab
 773              		.align	2
 774              		.type	__rtmsym_timer_enable, %object
 775              		.size	__rtmsym_timer_enable, 8
 776              	__rtmsym_timer_enable:
 777 0010 00000000 		.word	timer_enable
 778 0014 00000000 		.word	__rtmsym_timer_enable_name
 779              		.text
 780              		.align	1
ARM GAS  G:\Users\Jaxb\AppData\Local\Temp\ccR8gxz3.s 			page 19


 781              		.global	_timer_disable
 782              		.syntax unified
 783              		.thumb
 784              		.thumb_func
 785              		.fpu softvfp
 786              		.type	_timer_disable, %function
 787              	_timer_disable:
 788              	.LFB27:
 156:../../source/src/kernel/OS_CORE/time/os_timer.c **** EXPORT_SYMBOL(timer_enable);
 157:../../source/src/kernel/OS_CORE/time/os_timer.c **** 
 158:../../source/src/kernel/OS_CORE/time/os_timer.c **** /**
 159:../../source/src/kernel/OS_CORE/time/os_timer.c ****  * This is a system function
 160:../../source/src/kernel/OS_CORE/time/os_timer.c ****  * @Author      kaka
 161:../../source/src/kernel/OS_CORE/time/os_timer.c ****  * @DateTime    2018-10-03
 162:../../source/src/kernel/OS_CORE/time/os_timer.c ****  * @description :	use this function to inactivate the timer
 163:../../source/src/kernel/OS_CORE/time/os_timer.c ****  * @param       timer_ptr  
 164:../../source/src/kernel/OS_CORE/time/os_timer.c ****  * @return      0 means success
 165:../../source/src/kernel/OS_CORE/time/os_timer.c ****  */
 166:../../source/src/kernel/OS_CORE/time/os_timer.c **** int _timer_disable(struct timer *timer_ptr)
 167:../../source/src/kernel/OS_CORE/time/os_timer.c **** {
 789              		.loc 2 167 0
 790              		.cfi_startproc
 791              		@ args = 0, pretend = 0, frame = 16
 792              		@ frame_needed = 1, uses_anonymous_args = 0
 793 0310 80B5     		push	{r7, lr}
 794              	.LCFI45:
 795              		.cfi_def_cfa_offset 8
 796              		.cfi_offset 7, -8
 797              		.cfi_offset 14, -4
 798 0312 84B0     		sub	sp, sp, #16
 799              	.LCFI46:
 800              		.cfi_def_cfa_offset 24
 801 0314 00AF     		add	r7, sp, #0
 802              	.LCFI47:
 803              		.cfi_def_cfa_register 7
 804 0316 7860     		str	r0, [r7, #4]
 168:../../source/src/kernel/OS_CORE/time/os_timer.c **** 	ASSERT(NULL != timer_ptr);
 805              		.loc 2 168 0
 806 0318 7B68     		ldr	r3, [r7, #4]
 807 031a 002B     		cmp	r3, #0
 808 031c 03D1     		bne	.L39
 809              		.loc 2 168 0 is_stmt 0 discriminator 1
 810 031e A821     		movs	r1, #168
 811 0320 1148     		ldr	r0, .L42
 812 0322 FFF7FEFF 		bl	_ASSERT
 813              	.L39:
 169:../../source/src/kernel/OS_CORE/time/os_timer.c **** 	CPU_SR_ALLOC();
 814              		.loc 2 169 0 is_stmt 1
 815 0326 0023     		movs	r3, #0
 816 0328 FB60     		str	r3, [r7, #12]
 170:../../source/src/kernel/OS_CORE/time/os_timer.c **** 	CPU_CRITICAL_ENTER();
 817              		.loc 2 170 0
 818 032a FFF7FEFF 		bl	CPU_SR_Save
 819 032e F860     		str	r0, [r7, #12]
 171:../../source/src/kernel/OS_CORE/time/os_timer.c **** 	int ret = heap_remove_index_data(&timer_heap,timer_ptr->heap_position_index,NULL);
 820              		.loc 2 171 0
 821 0330 7B68     		ldr	r3, [r7, #4]
ARM GAS  G:\Users\Jaxb\AppData\Local\Temp\ccR8gxz3.s 			page 20


 822 0332 9B69     		ldr	r3, [r3, #24]
 823 0334 0022     		movs	r2, #0
 824 0336 1946     		mov	r1, r3
 825 0338 0C48     		ldr	r0, .L42+4
 826 033a FFF7FEFF 		bl	heap_remove_index_data
 827 033e B860     		str	r0, [r7, #8]
 172:../../source/src/kernel/OS_CORE/time/os_timer.c **** 	if(ret < 0)
 828              		.loc 2 172 0
 829 0340 BB68     		ldr	r3, [r7, #8]
 830 0342 002B     		cmp	r3, #0
 831 0344 04DA     		bge	.L40
 173:../../source/src/kernel/OS_CORE/time/os_timer.c **** 	{
 174:../../source/src/kernel/OS_CORE/time/os_timer.c **** 		CPU_CRITICAL_EXIT();
 832              		.loc 2 174 0
 833 0346 F868     		ldr	r0, [r7, #12]
 834 0348 FFF7FEFF 		bl	CPU_SR_Restore
 175:../../source/src/kernel/OS_CORE/time/os_timer.c **** 		return ret;
 835              		.loc 2 175 0
 836 034c BB68     		ldr	r3, [r7, #8]
 837 034e 06E0     		b	.L41
 838              	.L40:
 176:../../source/src/kernel/OS_CORE/time/os_timer.c **** 	}
 177:../../source/src/kernel/OS_CORE/time/os_timer.c **** 	timer_ptr->state = DISABLE;
 839              		.loc 2 177 0
 840 0350 7B68     		ldr	r3, [r7, #4]
 841 0352 0022     		movs	r2, #0
 842 0354 5A70     		strb	r2, [r3, #1]
 178:../../source/src/kernel/OS_CORE/time/os_timer.c **** 	CPU_CRITICAL_EXIT();
 843              		.loc 2 178 0
 844 0356 F868     		ldr	r0, [r7, #12]
 845 0358 FFF7FEFF 		bl	CPU_SR_Restore
 179:../../source/src/kernel/OS_CORE/time/os_timer.c **** 	return FUN_EXECUTE_SUCCESSFULLY;
 846              		.loc 2 179 0
 847 035c 0023     		movs	r3, #0
 848              	.L41:
 180:../../source/src/kernel/OS_CORE/time/os_timer.c **** }
 849              		.loc 2 180 0
 850 035e 1846     		mov	r0, r3
 851 0360 1037     		adds	r7, r7, #16
 852              	.LCFI48:
 853              		.cfi_def_cfa_offset 8
 854 0362 BD46     		mov	sp, r7
 855              	.LCFI49:
 856              		.cfi_def_cfa_register 13
 857              		@ sp needed
 858 0364 80BD     		pop	{r7, pc}
 859              	.L43:
 860 0366 00BF     		.align	2
 861              	.L42:
 862 0368 2C000000 		.word	.LC1
 863 036c 00000000 		.word	timer_heap
 864              		.cfi_endproc
 865              	.LFE27:
 866              		.size	_timer_disable, .-_timer_disable
 867              		.section	.rodata
 868 0126 0000     		.align	2
 869              	.LC6:
ARM GAS  G:\Users\Jaxb\AppData\Local\Temp\ccR8gxz3.s 			page 21


 870 0128 6572726F 		.ascii	"error fun name : timer_disable\012error para : time"
 870      72206675 
 870      6E206E61 
 870      6D65203A 
 870      2074696D 
 871 0158 725F7074 		.ascii	"r_ptr\012\000"
 871      720A00
 872              		.text
 873              		.align	1
 874              		.global	timer_disable
 875              		.syntax unified
 876              		.thumb
 877              		.thumb_func
 878              		.fpu softvfp
 879              		.type	timer_disable, %function
 880              	timer_disable:
 881              	.LFB28:
 181:../../source/src/kernel/OS_CORE/time/os_timer.c **** 
 182:../../source/src/kernel/OS_CORE/time/os_timer.c **** int timer_disable(struct timer *timer_ptr)
 183:../../source/src/kernel/OS_CORE/time/os_timer.c **** {
 882              		.loc 2 183 0
 883              		.cfi_startproc
 884              		@ args = 0, pretend = 0, frame = 8
 885              		@ frame_needed = 1, uses_anonymous_args = 0
 886 0370 80B5     		push	{r7, lr}
 887              	.LCFI50:
 888              		.cfi_def_cfa_offset 8
 889              		.cfi_offset 7, -8
 890              		.cfi_offset 14, -4
 891 0372 82B0     		sub	sp, sp, #8
 892              	.LCFI51:
 893              		.cfi_def_cfa_offset 16
 894 0374 00AF     		add	r7, sp, #0
 895              	.LCFI52:
 896              		.cfi_def_cfa_register 7
 897 0376 7860     		str	r0, [r7, #4]
 184:../../source/src/kernel/OS_CORE/time/os_timer.c **** 	if(NULL == timer_ptr)
 898              		.loc 2 184 0
 899 0378 7B68     		ldr	r3, [r7, #4]
 900 037a 002B     		cmp	r3, #0
 901 037c 05D1     		bne	.L45
 185:../../source/src/kernel/OS_CORE/time/os_timer.c **** 	{
 186:../../source/src/kernel/OS_CORE/time/os_timer.c **** 		OS_ERROR_PARA_MESSAGE_DISPLAY(timer_disable,timer_ptr);
 902              		.loc 2 186 0
 903 037e 0748     		ldr	r0, .L47
 904 0380 FFF7FEFF 		bl	ka_printf
 187:../../source/src/kernel/OS_CORE/time/os_timer.c **** 		return -ERROR_NULL_INPUT_PTR;
 905              		.loc 2 187 0
 906 0384 6FF0FE03 		mvn	r3, #254
 907 0388 03E0     		b	.L46
 908              	.L45:
 188:../../source/src/kernel/OS_CORE/time/os_timer.c **** 	}
 189:../../source/src/kernel/OS_CORE/time/os_timer.c **** 	return _timer_disable(timer_ptr);
 909              		.loc 2 189 0
 910 038a 7868     		ldr	r0, [r7, #4]
 911 038c FFF7FEFF 		bl	_timer_disable
 912 0390 0346     		mov	r3, r0
ARM GAS  G:\Users\Jaxb\AppData\Local\Temp\ccR8gxz3.s 			page 22


 913              	.L46:
 190:../../source/src/kernel/OS_CORE/time/os_timer.c **** }
 914              		.loc 2 190 0
 915 0392 1846     		mov	r0, r3
 916 0394 0837     		adds	r7, r7, #8
 917              	.LCFI53:
 918              		.cfi_def_cfa_offset 8
 919 0396 BD46     		mov	sp, r7
 920              	.LCFI54:
 921              		.cfi_def_cfa_register 13
 922              		@ sp needed
 923 0398 80BD     		pop	{r7, pc}
 924              	.L48:
 925 039a 00BF     		.align	2
 926              	.L47:
 927 039c 28010000 		.word	.LC6
 928              		.cfi_endproc
 929              	.LFE28:
 930              		.size	timer_disable, .-timer_disable
 931              		.global	__rtmsym_timer_disable_name
 932              		.section	.rodata.name
 933 0029 000000   		.align	2
 934              		.type	__rtmsym_timer_disable_name, %object
 935              		.size	__rtmsym_timer_disable_name, 14
 936              	__rtmsym_timer_disable_name:
 937 002c 74696D65 		.ascii	"timer_disable\000"
 937      725F6469 
 937      7361626C 
 937      6500
 938              		.global	__rtmsym_timer_disable
 939              		.section	.RTMSymTab
 940              		.align	2
 941              		.type	__rtmsym_timer_disable, %object
 942              		.size	__rtmsym_timer_disable, 8
 943              	__rtmsym_timer_disable:
 944 0018 00000000 		.word	timer_disable
 945 001c 00000000 		.word	__rtmsym_timer_disable_name
 946              		.text
 947              		.align	1
 948              		.global	_timer_delete
 949              		.syntax unified
 950              		.thumb
 951              		.thumb_func
 952              		.fpu softvfp
 953              		.type	_timer_delete, %function
 954              	_timer_delete:
 955              	.LFB29:
 191:../../source/src/kernel/OS_CORE/time/os_timer.c **** EXPORT_SYMBOL(timer_disable);
 192:../../source/src/kernel/OS_CORE/time/os_timer.c **** 
 193:../../source/src/kernel/OS_CORE/time/os_timer.c **** /**
 194:../../source/src/kernel/OS_CORE/time/os_timer.c ****  * This is a system function
 195:../../source/src/kernel/OS_CORE/time/os_timer.c ****  * @Author      kaka
 196:../../source/src/kernel/OS_CORE/time/os_timer.c ****  * @DateTime    2018-10-03
 197:../../source/src/kernel/OS_CORE/time/os_timer.c ****  * @description :	use this function to inactivate the timer and free
 198:../../source/src/kernel/OS_CORE/time/os_timer.c ****  * the memory if necessary
 199:../../source/src/kernel/OS_CORE/time/os_timer.c ****  * @param       timer_ptr  
 200:../../source/src/kernel/OS_CORE/time/os_timer.c ****  * @return                 
ARM GAS  G:\Users\Jaxb\AppData\Local\Temp\ccR8gxz3.s 			page 23


 201:../../source/src/kernel/OS_CORE/time/os_timer.c ****  */
 202:../../source/src/kernel/OS_CORE/time/os_timer.c **** int _timer_delete(struct timer *timer_ptr)
 203:../../source/src/kernel/OS_CORE/time/os_timer.c **** {
 956              		.loc 2 203 0
 957              		.cfi_startproc
 958              		@ args = 0, pretend = 0, frame = 16
 959              		@ frame_needed = 1, uses_anonymous_args = 0
 960 03a0 80B5     		push	{r7, lr}
 961              	.LCFI55:
 962              		.cfi_def_cfa_offset 8
 963              		.cfi_offset 7, -8
 964              		.cfi_offset 14, -4
 965 03a2 84B0     		sub	sp, sp, #16
 966              	.LCFI56:
 967              		.cfi_def_cfa_offset 24
 968 03a4 00AF     		add	r7, sp, #0
 969              	.LCFI57:
 970              		.cfi_def_cfa_register 7
 971 03a6 7860     		str	r0, [r7, #4]
 204:../../source/src/kernel/OS_CORE/time/os_timer.c **** 	ASSERT(NULL != timer_ptr);
 972              		.loc 2 204 0
 973 03a8 7B68     		ldr	r3, [r7, #4]
 974 03aa 002B     		cmp	r3, #0
 975 03ac 03D1     		bne	.L50
 976              		.loc 2 204 0 is_stmt 0 discriminator 1
 977 03ae CC21     		movs	r1, #204
 978 03b0 0E48     		ldr	r0, .L54
 979 03b2 FFF7FEFF 		bl	_ASSERT
 980              	.L50:
 205:../../source/src/kernel/OS_CORE/time/os_timer.c **** 	CPU_SR_ALLOC();
 981              		.loc 2 205 0 is_stmt 1
 982 03b6 0023     		movs	r3, #0
 983 03b8 FB60     		str	r3, [r7, #12]
 206:../../source/src/kernel/OS_CORE/time/os_timer.c **** 	CPU_CRITICAL_ENTER();
 984              		.loc 2 206 0
 985 03ba FFF7FEFF 		bl	CPU_SR_Save
 986 03be F860     		str	r0, [r7, #12]
 207:../../source/src/kernel/OS_CORE/time/os_timer.c **** 	if(ENABLE == timer_ptr->state)
 987              		.loc 2 207 0
 988 03c0 7B68     		ldr	r3, [r7, #4]
 989 03c2 5B78     		ldrb	r3, [r3, #1]	@ zero_extendqisi2
 990 03c4 012B     		cmp	r3, #1
 991 03c6 02D1     		bne	.L51
 208:../../source/src/kernel/OS_CORE/time/os_timer.c **** 	{
 209:../../source/src/kernel/OS_CORE/time/os_timer.c **** 		_timer_disable(timer_ptr);
 992              		.loc 2 209 0
 993 03c8 7868     		ldr	r0, [r7, #4]
 994 03ca FFF7FEFF 		bl	_timer_disable
 995              	.L51:
 210:../../source/src/kernel/OS_CORE/time/os_timer.c **** 	}
 211:../../source/src/kernel/OS_CORE/time/os_timer.c **** 	if(TIMER_IS_CREAT(timer_ptr))
 996              		.loc 2 211 0
 997 03ce 7B68     		ldr	r3, [r7, #4]
 998 03d0 5B68     		ldr	r3, [r3, #4]
 999 03d2 002B     		cmp	r3, #0
 1000 03d4 02DA     		bge	.L52
 212:../../source/src/kernel/OS_CORE/time/os_timer.c **** 	{
ARM GAS  G:\Users\Jaxb\AppData\Local\Temp\ccR8gxz3.s 			page 24


 213:../../source/src/kernel/OS_CORE/time/os_timer.c **** 		ka_free(timer_ptr);
 1001              		.loc 2 213 0
 1002 03d6 7868     		ldr	r0, [r7, #4]
 1003 03d8 FFF7FEFF 		bl	ka_free
 1004              	.L52:
 214:../../source/src/kernel/OS_CORE/time/os_timer.c **** 	}
 215:../../source/src/kernel/OS_CORE/time/os_timer.c **** 	CPU_CRITICAL_EXIT();
 1005              		.loc 2 215 0
 1006 03dc F868     		ldr	r0, [r7, #12]
 1007 03de FFF7FEFF 		bl	CPU_SR_Restore
 216:../../source/src/kernel/OS_CORE/time/os_timer.c **** 	return FUN_EXECUTE_SUCCESSFULLY;
 1008              		.loc 2 216 0
 1009 03e2 0023     		movs	r3, #0
 217:../../source/src/kernel/OS_CORE/time/os_timer.c **** }
 1010              		.loc 2 217 0
 1011 03e4 1846     		mov	r0, r3
 1012 03e6 1037     		adds	r7, r7, #16
 1013              	.LCFI58:
 1014              		.cfi_def_cfa_offset 8
 1015 03e8 BD46     		mov	sp, r7
 1016              	.LCFI59:
 1017              		.cfi_def_cfa_register 13
 1018              		@ sp needed
 1019 03ea 80BD     		pop	{r7, pc}
 1020              	.L55:
 1021              		.align	2
 1022              	.L54:
 1023 03ec 2C000000 		.word	.LC1
 1024              		.cfi_endproc
 1025              	.LFE29:
 1026              		.size	_timer_delete, .-_timer_delete
 1027              		.section	.rodata
 1028 015f 00       		.align	2
 1029              	.LC7:
 1030 0160 6572726F 		.ascii	"error fun name : timer_delete\012error para : timer"
 1030      72206675 
 1030      6E206E61 
 1030      6D65203A 
 1030      2074696D 
 1031 0190 5F707472 		.ascii	"_ptr\012\000"
 1031      0A00
 1032              		.text
 1033              		.align	1
 1034              		.global	timer_delete
 1035              		.syntax unified
 1036              		.thumb
 1037              		.thumb_func
 1038              		.fpu softvfp
 1039              		.type	timer_delete, %function
 1040              	timer_delete:
 1041              	.LFB30:
 218:../../source/src/kernel/OS_CORE/time/os_timer.c **** 
 219:../../source/src/kernel/OS_CORE/time/os_timer.c **** int timer_delete(struct timer *timer_ptr)
 220:../../source/src/kernel/OS_CORE/time/os_timer.c **** {
 1042              		.loc 2 220 0
 1043              		.cfi_startproc
 1044              		@ args = 0, pretend = 0, frame = 8
ARM GAS  G:\Users\Jaxb\AppData\Local\Temp\ccR8gxz3.s 			page 25


 1045              		@ frame_needed = 1, uses_anonymous_args = 0
 1046 03f0 80B5     		push	{r7, lr}
 1047              	.LCFI60:
 1048              		.cfi_def_cfa_offset 8
 1049              		.cfi_offset 7, -8
 1050              		.cfi_offset 14, -4
 1051 03f2 82B0     		sub	sp, sp, #8
 1052              	.LCFI61:
 1053              		.cfi_def_cfa_offset 16
 1054 03f4 00AF     		add	r7, sp, #0
 1055              	.LCFI62:
 1056              		.cfi_def_cfa_register 7
 1057 03f6 7860     		str	r0, [r7, #4]
 221:../../source/src/kernel/OS_CORE/time/os_timer.c **** 	if(NULL == timer_ptr)
 1058              		.loc 2 221 0
 1059 03f8 7B68     		ldr	r3, [r7, #4]
 1060 03fa 002B     		cmp	r3, #0
 1061 03fc 05D1     		bne	.L57
 222:../../source/src/kernel/OS_CORE/time/os_timer.c **** 	{
 223:../../source/src/kernel/OS_CORE/time/os_timer.c **** 		OS_ERROR_PARA_MESSAGE_DISPLAY(timer_delete,timer_ptr);
 1062              		.loc 2 223 0
 1063 03fe 0748     		ldr	r0, .L59
 1064 0400 FFF7FEFF 		bl	ka_printf
 224:../../source/src/kernel/OS_CORE/time/os_timer.c **** 		return -ERROR_NULL_INPUT_PTR;
 1065              		.loc 2 224 0
 1066 0404 6FF0FE03 		mvn	r3, #254
 1067 0408 03E0     		b	.L58
 1068              	.L57:
 225:../../source/src/kernel/OS_CORE/time/os_timer.c **** 	}
 226:../../source/src/kernel/OS_CORE/time/os_timer.c **** 	return _timer_delete(timer_ptr);
 1069              		.loc 2 226 0
 1070 040a 7868     		ldr	r0, [r7, #4]
 1071 040c FFF7FEFF 		bl	_timer_delete
 1072 0410 0346     		mov	r3, r0
 1073              	.L58:
 227:../../source/src/kernel/OS_CORE/time/os_timer.c **** }
 1074              		.loc 2 227 0
 1075 0412 1846     		mov	r0, r3
 1076 0414 0837     		adds	r7, r7, #8
 1077              	.LCFI63:
 1078              		.cfi_def_cfa_offset 8
 1079 0416 BD46     		mov	sp, r7
 1080              	.LCFI64:
 1081              		.cfi_def_cfa_register 13
 1082              		@ sp needed
 1083 0418 80BD     		pop	{r7, pc}
 1084              	.L60:
 1085 041a 00BF     		.align	2
 1086              	.L59:
 1087 041c 60010000 		.word	.LC7
 1088              		.cfi_endproc
 1089              	.LFE30:
 1090              		.size	timer_delete, .-timer_delete
 1091              		.global	__rtmsym_timer_delete_name
 1092              		.section	.rodata.name
 1093 003a 0000     		.align	2
 1094              		.type	__rtmsym_timer_delete_name, %object
ARM GAS  G:\Users\Jaxb\AppData\Local\Temp\ccR8gxz3.s 			page 26


 1095              		.size	__rtmsym_timer_delete_name, 13
 1096              	__rtmsym_timer_delete_name:
 1097 003c 74696D65 		.ascii	"timer_delete\000"
 1097      725F6465 
 1097      6C657465 
 1097      00
 1098              		.global	__rtmsym_timer_delete
 1099              		.section	.RTMSymTab
 1100              		.align	2
 1101              		.type	__rtmsym_timer_delete, %object
 1102              		.size	__rtmsym_timer_delete, 8
 1103              	__rtmsym_timer_delete:
 1104 0020 00000000 		.word	timer_delete
 1105 0024 00000000 		.word	__rtmsym_timer_delete_name
 1106              		.text
 1107              		.align	1
 1108              		.global	_get_timer_heap_top
 1109              		.syntax unified
 1110              		.thumb
 1111              		.thumb_func
 1112              		.fpu softvfp
 1113              		.type	_get_timer_heap_top, %function
 1114              	_get_timer_heap_top:
 1115              	.LFB31:
 228:../../source/src/kernel/OS_CORE/time/os_timer.c **** EXPORT_SYMBOL(timer_delete);
 229:../../source/src/kernel/OS_CORE/time/os_timer.c **** 
 230:../../source/src/kernel/OS_CORE/time/os_timer.c **** /**
 231:../../source/src/kernel/OS_CORE/time/os_timer.c ****  * This is a system function
 232:../../source/src/kernel/OS_CORE/time/os_timer.c ****  * @Author      kaka
 233:../../source/src/kernel/OS_CORE/time/os_timer.c ****  * @DateTime    2018-10-03
 234:../../source/src/kernel/OS_CORE/time/os_timer.c ****  * @description :	this function is used by system tick function
 235:../../source/src/kernel/OS_CORE/time/os_timer.c ****  * to check if waking up the timer task is needed or not
 236:../../source/src/kernel/OS_CORE/time/os_timer.c ****  * @param       timer_ptr  [description]
 237:../../source/src/kernel/OS_CORE/time/os_timer.c ****  * @return                 [description]
 238:../../source/src/kernel/OS_CORE/time/os_timer.c ****  */
 239:../../source/src/kernel/OS_CORE/time/os_timer.c **** int _get_timer_heap_top(struct timer **timer_ptr)
 240:../../source/src/kernel/OS_CORE/time/os_timer.c **** {
 1116              		.loc 2 240 0
 1117              		.cfi_startproc
 1118              		@ args = 0, pretend = 0, frame = 16
 1119              		@ frame_needed = 1, uses_anonymous_args = 0
 1120 0420 80B5     		push	{r7, lr}
 1121              	.LCFI65:
 1122              		.cfi_def_cfa_offset 8
 1123              		.cfi_offset 7, -8
 1124              		.cfi_offset 14, -4
 1125 0422 84B0     		sub	sp, sp, #16
 1126              	.LCFI66:
 1127              		.cfi_def_cfa_offset 24
 1128 0424 00AF     		add	r7, sp, #0
 1129              	.LCFI67:
 1130              		.cfi_def_cfa_register 7
 1131 0426 7860     		str	r0, [r7, #4]
 241:../../source/src/kernel/OS_CORE/time/os_timer.c **** 	ASSERT(NULL != timer_ptr);
 1132              		.loc 2 241 0
 1133 0428 7B68     		ldr	r3, [r7, #4]
 1134 042a 002B     		cmp	r3, #0
ARM GAS  G:\Users\Jaxb\AppData\Local\Temp\ccR8gxz3.s 			page 27


 1135 042c 03D1     		bne	.L62
 1136              		.loc 2 241 0 is_stmt 0 discriminator 1
 1137 042e F121     		movs	r1, #241
 1138 0430 0A48     		ldr	r0, .L64
 1139 0432 FFF7FEFF 		bl	_ASSERT
 1140              	.L62:
 242:../../source/src/kernel/OS_CORE/time/os_timer.c **** 	CPU_SR_ALLOC();
 1141              		.loc 2 242 0 is_stmt 1
 1142 0436 0023     		movs	r3, #0
 1143 0438 FB60     		str	r3, [r7, #12]
 243:../../source/src/kernel/OS_CORE/time/os_timer.c **** 	CPU_CRITICAL_ENTER();
 1144              		.loc 2 243 0
 1145 043a FFF7FEFF 		bl	CPU_SR_Save
 1146 043e F860     		str	r0, [r7, #12]
 244:../../source/src/kernel/OS_CORE/time/os_timer.c **** 	int ret = heap_get_top_safe(&timer_heap,(void *)timer_ptr);
 1147              		.loc 2 244 0
 1148 0440 0122     		movs	r2, #1
 1149 0442 7968     		ldr	r1, [r7, #4]
 1150 0444 0648     		ldr	r0, .L64+4
 1151 0446 FFF7FEFF 		bl	heap_get_index_data_safe
 1152 044a B860     		str	r0, [r7, #8]
 245:../../source/src/kernel/OS_CORE/time/os_timer.c **** 	CPU_CRITICAL_EXIT();
 1153              		.loc 2 245 0
 1154 044c F868     		ldr	r0, [r7, #12]
 1155 044e FFF7FEFF 		bl	CPU_SR_Restore
 246:../../source/src/kernel/OS_CORE/time/os_timer.c **** 	return ret;
 1156              		.loc 2 246 0
 1157 0452 BB68     		ldr	r3, [r7, #8]
 247:../../source/src/kernel/OS_CORE/time/os_timer.c **** }
 1158              		.loc 2 247 0
 1159 0454 1846     		mov	r0, r3
 1160 0456 1037     		adds	r7, r7, #16
 1161              	.LCFI68:
 1162              		.cfi_def_cfa_offset 8
 1163 0458 BD46     		mov	sp, r7
 1164              	.LCFI69:
 1165              		.cfi_def_cfa_register 13
 1166              		@ sp needed
 1167 045a 80BD     		pop	{r7, pc}
 1168              	.L65:
 1169              		.align	2
 1170              	.L64:
 1171 045c 2C000000 		.word	.LC1
 1172 0460 00000000 		.word	timer_heap
 1173              		.cfi_endproc
 1174              	.LFE31:
 1175              		.size	_get_timer_heap_top, .-_get_timer_heap_top
 1176              		.align	1
 1177              		.global	timer_task
 1178              		.syntax unified
 1179              		.thumb
 1180              		.thumb_func
 1181              		.fpu softvfp
 1182              		.type	timer_task, %function
 1183              	timer_task:
 1184              	.LFB32:
 248:../../source/src/kernel/OS_CORE/time/os_timer.c **** 
ARM GAS  G:\Users\Jaxb\AppData\Local\Temp\ccR8gxz3.s 			page 28


 249:../../source/src/kernel/OS_CORE/time/os_timer.c **** /**
 250:../../source/src/kernel/OS_CORE/time/os_timer.c ****  * This is a system function
 251:../../source/src/kernel/OS_CORE/time/os_timer.c ****  * @Author      kaka
 252:../../source/src/kernel/OS_CORE/time/os_timer.c ****  * @DateTime    2018-10-03
 253:../../source/src/kernel/OS_CORE/time/os_timer.c ****  * @description : timer task, all the works are being done in
 254:../../source/src/kernel/OS_CORE/time/os_timer.c ****  * this task, whose priority is 0(the max priority)
 255:../../source/src/kernel/OS_CORE/time/os_timer.c ****  * @param       para       [description]
 256:../../source/src/kernel/OS_CORE/time/os_timer.c ****  */
 257:../../source/src/kernel/OS_CORE/time/os_timer.c **** void timer_task(void *para)
 258:../../source/src/kernel/OS_CORE/time/os_timer.c **** {
 1185              		.loc 2 258 0
 1186              		.cfi_startproc
 1187              		@ args = 0, pretend = 0, frame = 32
 1188              		@ frame_needed = 1, uses_anonymous_args = 0
 1189 0464 2DE99048 		push	{r4, r7, fp, lr}
 1190              	.LCFI70:
 1191              		.cfi_def_cfa_offset 16
 1192              		.cfi_offset 4, -16
 1193              		.cfi_offset 7, -12
 1194              		.cfi_offset 11, -8
 1195              		.cfi_offset 14, -4
 1196 0468 88B0     		sub	sp, sp, #32
 1197              	.LCFI71:
 1198              		.cfi_def_cfa_offset 48
 1199 046a 00AF     		add	r7, sp, #0
 1200              	.LCFI72:
 1201              		.cfi_def_cfa_register 7
 1202 046c 7860     		str	r0, [r7, #4]
 259:../../source/src/kernel/OS_CORE/time/os_timer.c **** 	(void)para;
 260:../../source/src/kernel/OS_CORE/time/os_timer.c **** 	UINT64 tick;
 261:../../source/src/kernel/OS_CORE/time/os_timer.c **** 	struct timer *timer_ptr;
 262:../../source/src/kernel/OS_CORE/time/os_timer.c **** 	int ret = heap_get_top_safe(&timer_heap,&timer_ptr);
 1203              		.loc 2 262 0
 1204 046e 07F10C03 		add	r3, r7, #12
 1205 0472 0122     		movs	r2, #1
 1206 0474 1946     		mov	r1, r3
 1207 0476 3D48     		ldr	r0, .L81
 1208 0478 FFF7FEFF 		bl	heap_get_index_data_safe
 1209 047c F861     		str	r0, [r7, #28]
 1210              	.L76:
 263:../../source/src/kernel/OS_CORE/time/os_timer.c **** 	while(1)
 264:../../source/src/kernel/OS_CORE/time/os_timer.c **** 	{
 265:../../source/src/kernel/OS_CORE/time/os_timer.c **** 		if(ret < 0)
 1211              		.loc 2 265 0
 1212 047e FB69     		ldr	r3, [r7, #28]
 1213 0480 002B     		cmp	r3, #0
 1214 0482 03DA     		bge	.L67
 266:../../source/src/kernel/OS_CORE/time/os_timer.c **** 		{
 267:../../source/src/kernel/OS_CORE/time/os_timer.c **** 			suspend();
 1215              		.loc 2 267 0
 1216 0484 0320     		movs	r0, #3
 1217 0486 FFF7FEFF 		bl	sys_suspend
 1218 048a 65E0     		b	.L68
 1219              	.L67:
 268:../../source/src/kernel/OS_CORE/time/os_timer.c **** 		}
 269:../../source/src/kernel/OS_CORE/time/os_timer.c **** 		else
 270:../../source/src/kernel/OS_CORE/time/os_timer.c **** 		{
ARM GAS  G:\Users\Jaxb\AppData\Local\Temp\ccR8gxz3.s 			page 29


 271:../../source/src/kernel/OS_CORE/time/os_timer.c **** 			tick = get_tick();
 1220              		.loc 2 271 0
 1221 048c FFF7FEFF 		bl	get_tick
 1222 0490 C7E90401 		strd	r0, [r7, #16]
 272:../../source/src/kernel/OS_CORE/time/os_timer.c **** 			if(TIME_FIRST_SMALLER_THAN_SECOND(tick,timer_ptr->wake_time))
 1223              		.loc 2 272 0
 1224 0494 D7E904BC 		ldrd	fp, [r7, #16]
 1225 0498 FA68     		ldr	r2, [r7, #12]
 1226 049a D2E90812 		ldrd	r1, [r2, #32]
 1227 049e 5B46     		mov	r3, fp
 1228 04a0 6446     		mov	r4, ip
 1229 04a2 5B1A     		subs	r3, r3, r1
 1230 04a4 64EB0204 		sbc	r4, r4, r2
 1231 04a8 002B     		cmp	r3, #0
 1232 04aa 74F10003 		sbcs	r3, r4, #0
 1233 04ae 03DA     		bge	.L69
 273:../../source/src/kernel/OS_CORE/time/os_timer.c **** 			{
 274:../../source/src/kernel/OS_CORE/time/os_timer.c **** 				suspend();
 1234              		.loc 2 274 0
 1235 04b0 0320     		movs	r0, #3
 1236 04b2 FFF7FEFF 		bl	sys_suspend
 1237 04b6 4FE0     		b	.L68
 1238              	.L69:
 275:../../source/src/kernel/OS_CORE/time/os_timer.c **** 			}
 276:../../source/src/kernel/OS_CORE/time/os_timer.c **** 			else
 277:../../source/src/kernel/OS_CORE/time/os_timer.c **** 			{
 278:../../source/src/kernel/OS_CORE/time/os_timer.c **** 				heap_remove_top(&timer_heap,&timer_ptr);
 1239              		.loc 2 278 0
 1240 04b8 07F10C03 		add	r3, r7, #12
 1241 04bc 1A46     		mov	r2, r3
 1242 04be 0121     		movs	r1, #1
 1243 04c0 2A48     		ldr	r0, .L81
 1244 04c2 FFF7FEFF 		bl	heap_remove_index_data
 279:../../source/src/kernel/OS_CORE/time/os_timer.c **** 				(timer_ptr->fun)(timer_ptr->para);
 1245              		.loc 2 279 0
 1246 04c6 FB68     		ldr	r3, [r7, #12]
 1247 04c8 DB68     		ldr	r3, [r3, #12]
 1248 04ca FA68     		ldr	r2, [r7, #12]
 1249 04cc 1269     		ldr	r2, [r2, #16]
 1250 04ce 1046     		mov	r0, r2
 1251 04d0 9847     		blx	r3
 1252              	.LVL0:
 280:../../source/src/kernel/OS_CORE/time/os_timer.c **** 				switch(timer_ptr->type)
 1253              		.loc 2 280 0
 1254 04d2 FB68     		ldr	r3, [r7, #12]
 1255 04d4 1B78     		ldrb	r3, [r3]	@ zero_extendqisi2
 1256 04d6 012B     		cmp	r3, #1
 1257 04d8 1FD0     		beq	.L71
 1258 04da 022B     		cmp	r3, #2
 1259 04dc 0AD0     		beq	.L72
 1260 04de 002B     		cmp	r3, #0
 1261 04e0 31D1     		bne	.L78
 281:../../source/src/kernel/OS_CORE/time/os_timer.c **** 				{
 282:../../source/src/kernel/OS_CORE/time/os_timer.c **** 					case TIMER_ONE_TIME:
 283:../../source/src/kernel/OS_CORE/time/os_timer.c **** 						if(TIMER_IS_CREAT(timer_ptr))
 1262              		.loc 2 283 0
 1263 04e2 FB68     		ldr	r3, [r7, #12]
ARM GAS  G:\Users\Jaxb\AppData\Local\Temp\ccR8gxz3.s 			page 30


 1264 04e4 5B68     		ldr	r3, [r3, #4]
 1265 04e6 002B     		cmp	r3, #0
 1266 04e8 33DA     		bge	.L79
 284:../../source/src/kernel/OS_CORE/time/os_timer.c **** 						{
 285:../../source/src/kernel/OS_CORE/time/os_timer.c **** 							ka_free(timer_ptr);
 1267              		.loc 2 285 0
 1268 04ea FB68     		ldr	r3, [r7, #12]
 1269 04ec 1846     		mov	r0, r3
 1270 04ee FFF7FEFF 		bl	ka_free
 286:../../source/src/kernel/OS_CORE/time/os_timer.c **** 						}
 287:../../source/src/kernel/OS_CORE/time/os_timer.c **** 						break;
 1271              		.loc 2 287 0
 1272 04f2 2EE0     		b	.L79
 1273              	.L72:
 288:../../source/src/kernel/OS_CORE/time/os_timer.c **** 					case TIMER_TIME:
 289:../../source/src/kernel/OS_CORE/time/os_timer.c **** 						--(timer_ptr->rest_num);
 1274              		.loc 2 289 0
 1275 04f4 FB68     		ldr	r3, [r7, #12]
 1276 04f6 5A68     		ldr	r2, [r3, #4]
 1277 04f8 013A     		subs	r2, r2, #1
 1278 04fa 5A60     		str	r2, [r3, #4]
 290:../../source/src/kernel/OS_CORE/time/os_timer.c **** 						if(0 == GET_REST_NUM(timer_ptr->rest_num))
 1279              		.loc 2 290 0
 1280 04fc FB68     		ldr	r3, [r7, #12]
 1281 04fe 5B68     		ldr	r3, [r3, #4]
 1282 0500 03F07F03 		and	r3, r3, #127
 1283 0504 002B     		cmp	r3, #0
 1284 0506 08D1     		bne	.L71
 291:../../source/src/kernel/OS_CORE/time/os_timer.c **** 						{
 292:../../source/src/kernel/OS_CORE/time/os_timer.c **** 							if(TIMER_IS_CREAT(timer_ptr))
 1285              		.loc 2 292 0
 1286 0508 FB68     		ldr	r3, [r7, #12]
 1287 050a 5B68     		ldr	r3, [r3, #4]
 1288 050c 002B     		cmp	r3, #0
 1289 050e 22DA     		bge	.L80
 293:../../source/src/kernel/OS_CORE/time/os_timer.c **** 							{
 294:../../source/src/kernel/OS_CORE/time/os_timer.c **** 								ka_free(timer_ptr);
 1290              		.loc 2 294 0
 1291 0510 FB68     		ldr	r3, [r7, #12]
 1292 0512 1846     		mov	r0, r3
 1293 0514 FFF7FEFF 		bl	ka_free
 295:../../source/src/kernel/OS_CORE/time/os_timer.c **** 							}
 296:../../source/src/kernel/OS_CORE/time/os_timer.c **** 							break;
 1294              		.loc 2 296 0
 1295 0518 1DE0     		b	.L80
 1296              	.L71:
 297:../../source/src/kernel/OS_CORE/time/os_timer.c **** 						}
 298:../../source/src/kernel/OS_CORE/time/os_timer.c **** 					case TIMER_PERIODIC:
 299:../../source/src/kernel/OS_CORE/time/os_timer.c **** 						timer_ptr->wake_time += timer_ptr->period;
 1297              		.loc 2 299 0
 1298 051a FB68     		ldr	r3, [r7, #12]
 1299 051c D3E90812 		ldrd	r1, [r3, #32]
 1300 0520 FB68     		ldr	r3, [r7, #12]
 1301 0522 5B69     		ldr	r3, [r3, #20]
 1302 0524 9B46     		mov	fp, r3
 1303 0526 4FF0000C 		mov	ip, #0
 1304 052a F868     		ldr	r0, [r7, #12]
ARM GAS  G:\Users\Jaxb\AppData\Local\Temp\ccR8gxz3.s 			page 31


 1305 052c 1BEB0103 		adds	r3, fp, r1
 1306 0530 4CEB0204 		adc	r4, ip, r2
 1307 0534 C0E90834 		strd	r3, [r0, #32]
 300:../../source/src/kernel/OS_CORE/time/os_timer.c **** 						heap_push(&timer_heap,&timer_ptr);
 1308              		.loc 2 300 0
 1309 0538 07F10C03 		add	r3, r7, #12
 1310 053c 1946     		mov	r1, r3
 1311 053e 0B48     		ldr	r0, .L81
 1312 0540 FFF7FEFF 		bl	heap_push
 301:../../source/src/kernel/OS_CORE/time/os_timer.c **** 						break;
 1313              		.loc 2 301 0
 1314 0544 08E0     		b	.L68
 1315              	.L78:
 302:../../source/src/kernel/OS_CORE/time/os_timer.c **** 					default:
 303:../../source/src/kernel/OS_CORE/time/os_timer.c **** 						ASSERT(0);
 1316              		.loc 2 303 0 discriminator 1
 1317 0546 40F22F11 		movw	r1, #303
 1318 054a 0948     		ldr	r0, .L81+4
 1319 054c FFF7FEFF 		bl	_ASSERT
 304:../../source/src/kernel/OS_CORE/time/os_timer.c **** 						break;
 1320              		.loc 2 304 0 discriminator 1
 1321 0550 02E0     		b	.L68
 1322              	.L79:
 287:../../source/src/kernel/OS_CORE/time/os_timer.c **** 					case TIMER_TIME:
 1323              		.loc 2 287 0
 1324 0552 00BF     		nop
 1325 0554 00E0     		b	.L68
 1326              	.L80:
 296:../../source/src/kernel/OS_CORE/time/os_timer.c **** 						}
 1327              		.loc 2 296 0
 1328 0556 00BF     		nop
 1329              	.L68:
 305:../../source/src/kernel/OS_CORE/time/os_timer.c **** 				}
 306:../../source/src/kernel/OS_CORE/time/os_timer.c **** 			}
 307:../../source/src/kernel/OS_CORE/time/os_timer.c **** 		}
 308:../../source/src/kernel/OS_CORE/time/os_timer.c **** 		ret = heap_get_top_safe(&timer_heap,&timer_ptr);
 1330              		.loc 2 308 0
 1331 0558 07F10C03 		add	r3, r7, #12
 1332 055c 0122     		movs	r2, #1
 1333 055e 1946     		mov	r1, r3
 1334 0560 0248     		ldr	r0, .L81
 1335 0562 FFF7FEFF 		bl	heap_get_index_data_safe
 1336 0566 F861     		str	r0, [r7, #28]
 265:../../source/src/kernel/OS_CORE/time/os_timer.c **** 		{
 1337              		.loc 2 265 0
 1338 0568 89E7     		b	.L76
 1339              	.L82:
 1340 056a 00BF     		.align	2
 1341              	.L81:
 1342 056c 00000000 		.word	timer_heap
 1343 0570 2C000000 		.word	.LC1
 1344              		.cfi_endproc
 1345              	.LFE32:
 1346              		.size	timer_task, .-timer_task
 1347              	.Letext0:
 1348              		.file 3 "../../source/include/os_cpu/kakaosstdint.h"
 1349              		.file 4 "../../source/include/os_core/time/os_timer.h"
ARM GAS  G:\Users\Jaxb\AppData\Local\Temp\ccR8gxz3.s 			page 32


 1350              		.file 5 "../../source/include/os_lib/heap_oo.h"
 1351              		.file 6 "../../source/include/os_core/schedule/task_state.h"
 1352              		.file 7 "../../source/include/os_cpu/os_cpu_stm32.h"
 1353              		.file 8 "../../source/include/os_core/dmodule/export.h"
 1354              		.file 9 "../../source/include/os_core/schedule/TCB.h"
 1355              		.section	.debug_info,"",%progbits
 1356              	.Ldebug_info0:
 1357 0000 5F080000 		.4byte	0x85f
 1358 0004 0200     		.2byte	0x2
 1359 0006 00000000 		.4byte	.Ldebug_abbrev0
 1360 000a 04       		.byte	0x4
 1361 000b 01       		.uleb128 0x1
 1362 000c D1040000 		.4byte	.LASF86
 1363 0010 0C       		.byte	0xc
 1364 0011 AA050000 		.4byte	.LASF87
 1365 0015 D7010000 		.4byte	.LASF88
 1366 0019 00000000 		.4byte	.Ltext0
 1367 001d 74050000 		.4byte	.Letext0
 1368 0021 00000000 		.4byte	.Ldebug_line0
 1369 0025 02       		.uleb128 0x2
 1370 0026 01       		.byte	0x1
 1371 0027 06       		.byte	0x6
 1372 0028 F8020000 		.4byte	.LASF0
 1373 002c 02       		.uleb128 0x2
 1374 002d 02       		.byte	0x2
 1375 002e 05       		.byte	0x5
 1376 002f 89000000 		.4byte	.LASF1
 1377 0033 03       		.uleb128 0x3
 1378 0034 04       		.byte	0x4
 1379 0035 05       		.byte	0x5
 1380 0036 696E7400 		.ascii	"int\000"
 1381 003a 04       		.uleb128 0x4
 1382 003b 33000000 		.4byte	0x33
 1383 003f 05       		.uleb128 0x5
 1384 0040 5C040000 		.4byte	.LASF6
 1385 0044 03       		.byte	0x3
 1386 0045 08       		.byte	0x8
 1387 0046 4A000000 		.4byte	0x4a
 1388 004a 02       		.uleb128 0x2
 1389 004b 08       		.byte	0x8
 1390 004c 05       		.byte	0x5
 1391 004d 05020000 		.4byte	.LASF2
 1392 0051 02       		.uleb128 0x2
 1393 0052 01       		.byte	0x1
 1394 0053 08       		.byte	0x8
 1395 0054 D3020000 		.4byte	.LASF3
 1396 0058 02       		.uleb128 0x2
 1397 0059 02       		.byte	0x2
 1398 005a 07       		.byte	0x7
 1399 005b 87030000 		.4byte	.LASF4
 1400 005f 02       		.uleb128 0x2
 1401 0060 04       		.byte	0x4
 1402 0061 07       		.byte	0x7
 1403 0062 20030000 		.4byte	.LASF5
 1404 0066 05       		.uleb128 0x5
 1405 0067 A3050000 		.4byte	.LASF7
 1406 006b 03       		.byte	0x3
ARM GAS  G:\Users\Jaxb\AppData\Local\Temp\ccR8gxz3.s 			page 33


 1407 006c 0D       		.byte	0xd
 1408 006d 71000000 		.4byte	0x71
 1409 0071 02       		.uleb128 0x2
 1410 0072 08       		.byte	0x8
 1411 0073 07       		.byte	0x7
 1412 0074 04030000 		.4byte	.LASF8
 1413 0078 06       		.uleb128 0x6
 1414 0079 B9000000 		.4byte	.LASF13
 1415 007d 07       		.byte	0x7
 1416 007e 01       		.byte	0x1
 1417 007f 51000000 		.4byte	0x51
 1418 0083 04       		.byte	0x4
 1419 0084 11       		.byte	0x11
 1420 0085 9C000000 		.4byte	0x9c
 1421 0089 07       		.uleb128 0x7
 1422 008a 2D030000 		.4byte	.LASF9
 1423 008e 00       		.byte	0
 1424 008f 07       		.uleb128 0x7
 1425 0090 EC050000 		.4byte	.LASF10
 1426 0094 01       		.byte	0x1
 1427 0095 07       		.uleb128 0x7
 1428 0096 C6040000 		.4byte	.LASF11
 1429 009a 02       		.byte	0x2
 1430 009b 00       		.byte	0
 1431 009c 05       		.uleb128 0x5
 1432 009d 9B040000 		.4byte	.LASF12
 1433 00a1 04       		.byte	0x4
 1434 00a2 15       		.byte	0x15
 1435 00a3 78000000 		.4byte	0x78
 1436 00a7 06       		.uleb128 0x6
 1437 00a8 8F040000 		.4byte	.LASF14
 1438 00ac 07       		.byte	0x7
 1439 00ad 01       		.byte	0x1
 1440 00ae 51000000 		.4byte	0x51
 1441 00b2 04       		.byte	0x4
 1442 00b3 17       		.byte	0x17
 1443 00b4 C5000000 		.4byte	0xc5
 1444 00b8 07       		.uleb128 0x7
 1445 00b9 89010000 		.4byte	.LASF15
 1446 00bd 00       		.byte	0
 1447 00be 07       		.uleb128 0x7
 1448 00bf DA050000 		.4byte	.LASF16
 1449 00c3 01       		.byte	0x1
 1450 00c4 00       		.byte	0
 1451 00c5 05       		.uleb128 0x5
 1452 00c6 1E040000 		.4byte	.LASF17
 1453 00ca 04       		.byte	0x4
 1454 00cb 1A       		.byte	0x1a
 1455 00cc A7000000 		.4byte	0xa7
 1456 00d0 08       		.uleb128 0x8
 1457 00d1 6E010000 		.4byte	.LASF27
 1458 00d5 28       		.byte	0x28
 1459 00d6 04       		.byte	0x4
 1460 00d7 1C       		.byte	0x1c
 1461 00d8 5B010000 		.4byte	0x15b
 1462 00dc 09       		.uleb128 0x9
 1463 00dd 1B030000 		.4byte	.LASF18
ARM GAS  G:\Users\Jaxb\AppData\Local\Temp\ccR8gxz3.s 			page 34


 1464 00e1 04       		.byte	0x4
 1465 00e2 1E       		.byte	0x1e
 1466 00e3 9C000000 		.4byte	0x9c
 1467 00e7 02       		.byte	0x2
 1468 00e8 23       		.byte	0x23
 1469 00e9 00       		.uleb128 0
 1470 00ea 09       		.uleb128 0x9
 1471 00eb 7B000000 		.4byte	.LASF19
 1472 00ef 04       		.byte	0x4
 1473 00f0 1F       		.byte	0x1f
 1474 00f1 C5000000 		.4byte	0xc5
 1475 00f5 02       		.byte	0x2
 1476 00f6 23       		.byte	0x23
 1477 00f7 01       		.uleb128 0x1
 1478 00f8 09       		.uleb128 0x9
 1479 00f9 05040000 		.4byte	.LASF20
 1480 00fd 04       		.byte	0x4
 1481 00fe 20       		.byte	0x20
 1482 00ff 5F000000 		.4byte	0x5f
 1483 0103 02       		.byte	0x2
 1484 0104 23       		.byte	0x23
 1485 0105 04       		.uleb128 0x4
 1486 0106 09       		.uleb128 0x9
 1487 0107 0D010000 		.4byte	.LASF21
 1488 010b 04       		.byte	0x4
 1489 010c 21       		.byte	0x21
 1490 010d 60010000 		.4byte	0x160
 1491 0111 02       		.byte	0x2
 1492 0112 23       		.byte	0x23
 1493 0113 08       		.uleb128 0x8
 1494 0114 0A       		.uleb128 0xa
 1495 0115 66756E00 		.ascii	"fun\000"
 1496 0119 04       		.byte	0x4
 1497 011a 22       		.byte	0x22
 1498 011b 80010000 		.4byte	0x180
 1499 011f 02       		.byte	0x2
 1500 0120 23       		.byte	0x23
 1501 0121 0C       		.uleb128 0xc
 1502 0122 09       		.uleb128 0x9
 1503 0123 84010000 		.4byte	.LASF22
 1504 0127 04       		.byte	0x4
 1505 0128 23       		.byte	0x23
 1506 0129 7E010000 		.4byte	0x17e
 1507 012d 02       		.byte	0x2
 1508 012e 23       		.byte	0x23
 1509 012f 10       		.uleb128 0x10
 1510 0130 09       		.uleb128 0x9
 1511 0131 66020000 		.4byte	.LASF23
 1512 0135 04       		.byte	0x4
 1513 0136 24       		.byte	0x24
 1514 0137 5F000000 		.4byte	0x5f
 1515 013b 02       		.byte	0x2
 1516 013c 23       		.byte	0x23
 1517 013d 14       		.uleb128 0x14
 1518 013e 09       		.uleb128 0x9
 1519 013f A6030000 		.4byte	.LASF24
 1520 0143 04       		.byte	0x4
ARM GAS  G:\Users\Jaxb\AppData\Local\Temp\ccR8gxz3.s 			page 35


 1521 0144 25       		.byte	0x25
 1522 0145 5F000000 		.4byte	0x5f
 1523 0149 02       		.byte	0x2
 1524 014a 23       		.byte	0x23
 1525 014b 18       		.uleb128 0x18
 1526 014c 09       		.uleb128 0x9
 1527 014d AC010000 		.4byte	.LASF25
 1528 0151 04       		.byte	0x4
 1529 0152 26       		.byte	0x26
 1530 0153 66000000 		.4byte	0x66
 1531 0157 02       		.byte	0x2
 1532 0158 23       		.byte	0x23
 1533 0159 20       		.uleb128 0x20
 1534 015a 00       		.byte	0
 1535 015b 0B       		.uleb128 0xb
 1536 015c D0000000 		.4byte	0xd0
 1537 0160 0C       		.uleb128 0xc
 1538 0161 04       		.byte	0x4
 1539 0162 66010000 		.4byte	0x166
 1540 0166 02       		.uleb128 0x2
 1541 0167 01       		.byte	0x1
 1542 0168 08       		.byte	0x8
 1543 0169 47020000 		.4byte	.LASF26
 1544 016d 0B       		.uleb128 0xb
 1545 016e 66010000 		.4byte	0x166
 1546 0172 0D       		.uleb128 0xd
 1547 0173 01       		.byte	0x1
 1548 0174 7E010000 		.4byte	0x17e
 1549 0178 0E       		.uleb128 0xe
 1550 0179 7E010000 		.4byte	0x17e
 1551 017d 00       		.byte	0
 1552 017e 0F       		.uleb128 0xf
 1553 017f 04       		.byte	0x4
 1554 0180 0C       		.uleb128 0xc
 1555 0181 04       		.byte	0x4
 1556 0182 72010000 		.4byte	0x172
 1557 0186 08       		.uleb128 0x8
 1558 0187 74010000 		.4byte	.LASF28
 1559 018b 14       		.byte	0x14
 1560 018c 01       		.byte	0x1
 1561 018d 0A       		.byte	0xa
 1562 018e D9010000 		.4byte	0x1d9
 1563 0192 09       		.uleb128 0x9
 1564 0193 7B010000 		.4byte	.LASF29
 1565 0197 01       		.byte	0x1
 1566 0198 0C       		.byte	0xc
 1567 0199 7E010000 		.4byte	0x17e
 1568 019d 02       		.byte	0x2
 1569 019e 23       		.byte	0x23
 1570 019f 00       		.uleb128 0
 1571 01a0 09       		.uleb128 0x9
 1572 01a1 81000000 		.4byte	.LASF30
 1573 01a5 01       		.byte	0x1
 1574 01a6 0D       		.byte	0xd
 1575 01a7 5F000000 		.4byte	0x5f
 1576 01ab 02       		.byte	0x2
 1577 01ac 23       		.byte	0x23
ARM GAS  G:\Users\Jaxb\AppData\Local\Temp\ccR8gxz3.s 			page 36


 1578 01ad 04       		.uleb128 0x4
 1579 01ae 09       		.uleb128 0x9
 1580 01af 6D020000 		.4byte	.LASF31
 1581 01b3 01       		.byte	0x1
 1582 01b4 0E       		.byte	0xe
 1583 01b5 5F000000 		.4byte	0x5f
 1584 01b9 02       		.byte	0x2
 1585 01ba 23       		.byte	0x23
 1586 01bb 08       		.uleb128 0x8
 1587 01bc 09       		.uleb128 0x9
 1588 01bd 52040000 		.4byte	.LASF32
 1589 01c1 01       		.byte	0x1
 1590 01c2 0F       		.byte	0xf
 1591 01c3 5F000000 		.4byte	0x5f
 1592 01c7 02       		.byte	0x2
 1593 01c8 23       		.byte	0x23
 1594 01c9 0C       		.uleb128 0xc
 1595 01ca 09       		.uleb128 0x9
 1596 01cb D4030000 		.4byte	.LASF33
 1597 01cf 01       		.byte	0x1
 1598 01d0 15       		.byte	0x15
 1599 01d1 5F000000 		.4byte	0x5f
 1600 01d5 02       		.byte	0x2
 1601 01d6 23       		.byte	0x23
 1602 01d7 10       		.uleb128 0x10
 1603 01d8 00       		.byte	0
 1604 01d9 05       		.uleb128 0x5
 1605 01da B8020000 		.4byte	.LASF34
 1606 01de 01       		.byte	0x1
 1607 01df 16       		.byte	0x16
 1608 01e0 86010000 		.4byte	0x186
 1609 01e4 08       		.uleb128 0x8
 1610 01e5 46040000 		.4byte	.LASF35
 1611 01e9 1C       		.byte	0x1c
 1612 01ea 05       		.byte	0x5
 1613 01eb 0A       		.byte	0xa
 1614 01ec 1B020000 		.4byte	0x21b
 1615 01f0 09       		.uleb128 0x9
 1616 01f1 19040000 		.4byte	.LASF36
 1617 01f5 05       		.byte	0x5
 1618 01f6 0D       		.byte	0xd
 1619 01f7 D9010000 		.4byte	0x1d9
 1620 01fb 02       		.byte	0x2
 1621 01fc 23       		.byte	0x23
 1622 01fd 00       		.uleb128 0
 1623 01fe 0A       		.uleb128 0xa
 1624 01ff 636D7000 		.ascii	"cmp\000"
 1625 0203 05       		.byte	0x5
 1626 0204 0F       		.byte	0xf
 1627 0205 3B020000 		.4byte	0x23b
 1628 0209 02       		.byte	0x2
 1629 020a 23       		.byte	0x23
 1630 020b 14       		.uleb128 0x14
 1631 020c 09       		.uleb128 0x9
 1632 020d 18010000 		.4byte	.LASF37
 1633 0211 05       		.byte	0x5
 1634 0212 11       		.byte	0x11
ARM GAS  G:\Users\Jaxb\AppData\Local\Temp\ccR8gxz3.s 			page 37


 1635 0213 52020000 		.4byte	0x252
 1636 0217 02       		.byte	0x2
 1637 0218 23       		.byte	0x23
 1638 0219 18       		.uleb128 0x18
 1639 021a 00       		.byte	0
 1640 021b 10       		.uleb128 0x10
 1641 021c 01       		.byte	0x1
 1642 021d 33000000 		.4byte	0x33
 1643 0221 35020000 		.4byte	0x235
 1644 0225 0E       		.uleb128 0xe
 1645 0226 35020000 		.4byte	0x235
 1646 022a 0E       		.uleb128 0xe
 1647 022b 5F000000 		.4byte	0x5f
 1648 022f 0E       		.uleb128 0xe
 1649 0230 5F000000 		.4byte	0x5f
 1650 0234 00       		.byte	0
 1651 0235 0C       		.uleb128 0xc
 1652 0236 04       		.byte	0x4
 1653 0237 D9010000 		.4byte	0x1d9
 1654 023b 0C       		.uleb128 0xc
 1655 023c 04       		.byte	0x4
 1656 023d 1B020000 		.4byte	0x21b
 1657 0241 0D       		.uleb128 0xd
 1658 0242 01       		.byte	0x1
 1659 0243 52020000 		.4byte	0x252
 1660 0247 0E       		.uleb128 0xe
 1661 0248 35020000 		.4byte	0x235
 1662 024c 0E       		.uleb128 0xe
 1663 024d 33000000 		.4byte	0x33
 1664 0251 00       		.byte	0
 1665 0252 0C       		.uleb128 0xc
 1666 0253 04       		.byte	0x4
 1667 0254 41020000 		.4byte	0x241
 1668 0258 06       		.uleb128 0x6
 1669 0259 2C010000 		.4byte	.LASF38
 1670 025d 07       		.byte	0x7
 1671 025e 01       		.byte	0x1
 1672 025f 51000000 		.4byte	0x51
 1673 0263 06       		.byte	0x6
 1674 0264 04       		.byte	0x4
 1675 0265 A6020000 		.4byte	0x2a6
 1676 0269 07       		.uleb128 0x7
 1677 026a 9A030000 		.4byte	.LASF39
 1678 026e 01       		.byte	0x1
 1679 026f 07       		.uleb128 0x7
 1680 0270 E1020000 		.4byte	.LASF40
 1681 0274 02       		.byte	0x2
 1682 0275 07       		.uleb128 0x7
 1683 0276 14000000 		.4byte	.LASF41
 1684 027a 03       		.byte	0x3
 1685 027b 07       		.uleb128 0x7
 1686 027c 78040000 		.4byte	.LASF42
 1687 0280 04       		.byte	0x4
 1688 0281 07       		.uleb128 0x7
 1689 0282 93000000 		.4byte	.LASF43
 1690 0286 05       		.byte	0x5
 1691 0287 07       		.uleb128 0x7
ARM GAS  G:\Users\Jaxb\AppData\Local\Temp\ccR8gxz3.s 			page 38


 1692 0288 DF000000 		.4byte	.LASF44
 1693 028c 06       		.byte	0x6
 1694 028d 07       		.uleb128 0x7
 1695 028e B6010000 		.4byte	.LASF45
 1696 0292 07       		.byte	0x7
 1697 0293 07       		.uleb128 0x7
 1698 0294 37010000 		.4byte	.LASF46
 1699 0298 08       		.byte	0x8
 1700 0299 07       		.uleb128 0x7
 1701 029a E5030000 		.4byte	.LASF47
 1702 029e 09       		.byte	0x9
 1703 029f 07       		.uleb128 0x7
 1704 02a0 7E050000 		.4byte	.LASF48
 1705 02a4 0A       		.byte	0xa
 1706 02a5 00       		.byte	0
 1707 02a6 05       		.uleb128 0x5
 1708 02a7 0E040000 		.4byte	.LASF49
 1709 02ab 07       		.byte	0x7
 1710 02ac 06       		.byte	0x6
 1711 02ad 5F000000 		.4byte	0x5f
 1712 02b1 05       		.uleb128 0x5
 1713 02b2 97050000 		.4byte	.LASF50
 1714 02b6 07       		.byte	0x7
 1715 02b7 08       		.byte	0x8
 1716 02b8 A6020000 		.4byte	0x2a6
 1717 02bc 11       		.uleb128 0x11
 1718 02bd B4040000 		.4byte	.LASF54
 1719 02c1 09       		.byte	0x9
 1720 02c2 13       		.byte	0x13
 1721 02c3 3A000000 		.4byte	0x3a
 1722 02c7 01       		.byte	0x1
 1723 02c8 01       		.byte	0x1
 1724 02c9 08       		.uleb128 0x8
 1725 02ca 57010000 		.4byte	.LASF51
 1726 02ce 08       		.byte	0x8
 1727 02cf 08       		.byte	0x8
 1728 02d0 08       		.byte	0x8
 1729 02d1 F2020000 		.4byte	0x2f2
 1730 02d5 09       		.uleb128 0x9
 1731 02d6 61020000 		.4byte	.LASF52
 1732 02da 08       		.byte	0x8
 1733 02db 0A       		.byte	0xa
 1734 02dc 7E010000 		.4byte	0x17e
 1735 02e0 02       		.byte	0x2
 1736 02e1 23       		.byte	0x23
 1737 02e2 00       		.uleb128 0
 1738 02e3 09       		.uleb128 0x9
 1739 02e4 8B020000 		.4byte	.LASF53
 1740 02e8 08       		.byte	0x8
 1741 02e9 0B       		.byte	0xb
 1742 02ea F7020000 		.4byte	0x2f7
 1743 02ee 02       		.byte	0x2
 1744 02ef 23       		.byte	0x23
 1745 02f0 04       		.uleb128 0x4
 1746 02f1 00       		.byte	0
 1747 02f2 0B       		.uleb128 0xb
 1748 02f3 C9020000 		.4byte	0x2c9
ARM GAS  G:\Users\Jaxb\AppData\Local\Temp\ccR8gxz3.s 			page 39


 1749 02f7 0C       		.uleb128 0xc
 1750 02f8 04       		.byte	0x4
 1751 02f9 6D010000 		.4byte	0x16d
 1752 02fd 12       		.uleb128 0x12
 1753 02fe E1050000 		.4byte	.LASF65
 1754 0302 02       		.byte	0x2
 1755 0303 0D       		.byte	0xd
 1756 0304 E4010000 		.4byte	0x1e4
 1757 0308 05       		.byte	0x5
 1758 0309 03       		.byte	0x3
 1759 030a 00000000 		.4byte	timer_heap
 1760 030e 13       		.uleb128 0x13
 1761 030f 6D010000 		.4byte	0x16d
 1762 0313 1E030000 		.4byte	0x31e
 1763 0317 14       		.uleb128 0x14
 1764 0318 5F000000 		.4byte	0x5f
 1765 031c 0A       		.byte	0xa
 1766 031d 00       		.byte	0
 1767 031e 0B       		.uleb128 0xb
 1768 031f 0E030000 		.4byte	0x30e
 1769 0323 15       		.uleb128 0x15
 1770 0324 4C000000 		.4byte	.LASF55
 1771 0328 02       		.byte	0x2
 1772 0329 5D       		.byte	0x5d
 1773 032a 1E030000 		.4byte	0x31e
 1774 032e 01       		.byte	0x1
 1775 032f 05       		.byte	0x5
 1776 0330 03       		.byte	0x3
 1777 0331 00000000 		.4byte	__rtmsym_timer_init_name
 1778 0335 15       		.uleb128 0x15
 1779 0336 00000000 		.4byte	.LASF56
 1780 033a 02       		.byte	0x2
 1781 033b 5D       		.byte	0x5d
 1782 033c F2020000 		.4byte	0x2f2
 1783 0340 01       		.byte	0x1
 1784 0341 05       		.byte	0x5
 1785 0342 03       		.byte	0x3
 1786 0343 00000000 		.4byte	__rtmsym_timer_init
 1787 0347 13       		.uleb128 0x13
 1788 0348 6D010000 		.4byte	0x16d
 1789 034c 57030000 		.4byte	0x357
 1790 0350 14       		.uleb128 0x14
 1791 0351 5F000000 		.4byte	0x5f
 1792 0355 0C       		.byte	0xc
 1793 0356 00       		.byte	0
 1794 0357 0B       		.uleb128 0xb
 1795 0358 47030000 		.4byte	0x347
 1796 035c 15       		.uleb128 0x15
 1797 035d 91010000 		.4byte	.LASF57
 1798 0361 02       		.byte	0x2
 1799 0362 7C       		.byte	0x7c
 1800 0363 57030000 		.4byte	0x357
 1801 0367 01       		.byte	0x1
 1802 0368 05       		.byte	0x5
 1803 0369 03       		.byte	0x3
 1804 036a 00000000 		.4byte	__rtmsym_timer_create_name
 1805 036e 15       		.uleb128 0x15
ARM GAS  G:\Users\Jaxb\AppData\Local\Temp\ccR8gxz3.s 			page 40


 1806 036f 62040000 		.4byte	.LASF58
 1807 0373 02       		.byte	0x2
 1808 0374 7C       		.byte	0x7c
 1809 0375 F2020000 		.4byte	0x2f2
 1810 0379 01       		.byte	0x1
 1811 037a 05       		.byte	0x5
 1812 037b 03       		.byte	0x3
 1813 037c 00000000 		.4byte	__rtmsym_timer_create
 1814 0380 15       		.uleb128 0x15
 1815 0381 6C030000 		.4byte	.LASF59
 1816 0385 02       		.byte	0x2
 1817 0386 9C       		.byte	0x9c
 1818 0387 57030000 		.4byte	0x357
 1819 038b 01       		.byte	0x1
 1820 038c 05       		.byte	0x5
 1821 038d 03       		.byte	0x3
 1822 038e 00000000 		.4byte	__rtmsym_timer_enable_name
 1823 0392 15       		.uleb128 0x15
 1824 0393 65000000 		.4byte	.LASF60
 1825 0397 02       		.byte	0x2
 1826 0398 9C       		.byte	0x9c
 1827 0399 F2020000 		.4byte	0x2f2
 1828 039d 01       		.byte	0x1
 1829 039e 05       		.byte	0x5
 1830 039f 03       		.byte	0x3
 1831 03a0 00000000 		.4byte	__rtmsym_timer_enable
 1832 03a4 13       		.uleb128 0x13
 1833 03a5 6D010000 		.4byte	0x16d
 1834 03a9 B4030000 		.4byte	0x3b4
 1835 03ad 14       		.uleb128 0x14
 1836 03ae 5F000000 		.4byte	0x5f
 1837 03b2 0D       		.byte	0xd
 1838 03b3 00       		.byte	0
 1839 03b4 0B       		.uleb128 0xb
 1840 03b5 A4030000 		.4byte	0x3a4
 1841 03b9 15       		.uleb128 0x15
 1842 03ba 2A040000 		.4byte	.LASF61
 1843 03be 02       		.byte	0x2
 1844 03bf BF       		.byte	0xbf
 1845 03c0 B4030000 		.4byte	0x3b4
 1846 03c4 01       		.byte	0x1
 1847 03c5 05       		.byte	0x5
 1848 03c6 03       		.byte	0x3
 1849 03c7 00000000 		.4byte	__rtmsym_timer_disable_name
 1850 03cb 15       		.uleb128 0x15
 1851 03cc 3C030000 		.4byte	.LASF62
 1852 03d0 02       		.byte	0x2
 1853 03d1 BF       		.byte	0xbf
 1854 03d2 F2020000 		.4byte	0x2f2
 1855 03d6 01       		.byte	0x1
 1856 03d7 05       		.byte	0x5
 1857 03d8 03       		.byte	0x3
 1858 03d9 00000000 		.4byte	__rtmsym_timer_disable
 1859 03dd 15       		.uleb128 0x15
 1860 03de 2C020000 		.4byte	.LASF63
 1861 03e2 02       		.byte	0x2
 1862 03e3 E4       		.byte	0xe4
ARM GAS  G:\Users\Jaxb\AppData\Local\Temp\ccR8gxz3.s 			page 41


 1863 03e4 57030000 		.4byte	0x357
 1864 03e8 01       		.byte	0x1
 1865 03e9 05       		.byte	0x5
 1866 03ea 03       		.byte	0x3
 1867 03eb 00000000 		.4byte	__rtmsym_timer_delete_name
 1868 03ef 15       		.uleb128 0x15
 1869 03f0 36000000 		.4byte	.LASF64
 1870 03f4 02       		.byte	0x2
 1871 03f5 E4       		.byte	0xe4
 1872 03f6 F2020000 		.4byte	0x2f2
 1873 03fa 01       		.byte	0x1
 1874 03fb 05       		.byte	0x5
 1875 03fc 03       		.byte	0x3
 1876 03fd 00000000 		.4byte	__rtmsym_timer_delete
 1877 0401 16       		.uleb128 0x16
 1878 0402 01       		.byte	0x1
 1879 0403 21020000 		.4byte	.LASF89
 1880 0407 02       		.byte	0x2
 1881 0408 0101     		.2byte	0x101
 1882 040a 01       		.byte	0x1
 1883 040b 64040000 		.4byte	.LFB32
 1884 040f 74050000 		.4byte	.LFE32
 1885 0413 00000000 		.4byte	.LLST14
 1886 0417 01       		.byte	0x1
 1887 0418 59040000 		.4byte	0x459
 1888 041c 17       		.uleb128 0x17
 1889 041d 84010000 		.4byte	.LASF22
 1890 0421 02       		.byte	0x2
 1891 0422 0101     		.2byte	0x101
 1892 0424 7E010000 		.4byte	0x17e
 1893 0428 02       		.byte	0x2
 1894 0429 91       		.byte	0x91
 1895 042a 54       		.sleb128 -44
 1896 042b 18       		.uleb128 0x18
 1897 042c 9E050000 		.4byte	.LASF66
 1898 0430 02       		.byte	0x2
 1899 0431 0401     		.2byte	0x104
 1900 0433 66000000 		.4byte	0x66
 1901 0437 02       		.byte	0x2
 1902 0438 91       		.byte	0x91
 1903 0439 60       		.sleb128 -32
 1904 043a 18       		.uleb128 0x18
 1905 043b 57020000 		.4byte	.LASF67
 1906 043f 02       		.byte	0x2
 1907 0440 0501     		.2byte	0x105
 1908 0442 59040000 		.4byte	0x459
 1909 0446 02       		.byte	0x2
 1910 0447 91       		.byte	0x91
 1911 0448 5C       		.sleb128 -36
 1912 0449 19       		.uleb128 0x19
 1913 044a 72657400 		.ascii	"ret\000"
 1914 044e 02       		.byte	0x2
 1915 044f 0601     		.2byte	0x106
 1916 0451 33000000 		.4byte	0x33
 1917 0455 02       		.byte	0x2
 1918 0456 91       		.byte	0x91
 1919 0457 6C       		.sleb128 -20
ARM GAS  G:\Users\Jaxb\AppData\Local\Temp\ccR8gxz3.s 			page 42


 1920 0458 00       		.byte	0
 1921 0459 0C       		.uleb128 0xc
 1922 045a 04       		.byte	0x4
 1923 045b D0000000 		.4byte	0xd0
 1924 045f 1A       		.uleb128 0x1a
 1925 0460 01       		.byte	0x1
 1926 0461 BF020000 		.4byte	.LASF69
 1927 0465 02       		.byte	0x2
 1928 0466 EF       		.byte	0xef
 1929 0467 01       		.byte	0x1
 1930 0468 33000000 		.4byte	0x33
 1931 046c 20040000 		.4byte	.LFB31
 1932 0470 64040000 		.4byte	.LFE31
 1933 0474 38000000 		.4byte	.LLST13
 1934 0478 01       		.byte	0x1
 1935 0479 A8040000 		.4byte	0x4a8
 1936 047d 1B       		.uleb128 0x1b
 1937 047e 57020000 		.4byte	.LASF67
 1938 0482 02       		.byte	0x2
 1939 0483 EF       		.byte	0xef
 1940 0484 A8040000 		.4byte	0x4a8
 1941 0488 02       		.byte	0x2
 1942 0489 91       		.byte	0x91
 1943 048a 6C       		.sleb128 -20
 1944 048b 12       		.uleb128 0x12
 1945 048c 77050000 		.4byte	.LASF68
 1946 0490 02       		.byte	0x2
 1947 0491 F2       		.byte	0xf2
 1948 0492 B1020000 		.4byte	0x2b1
 1949 0496 02       		.byte	0x2
 1950 0497 91       		.byte	0x91
 1951 0498 74       		.sleb128 -12
 1952 0499 1C       		.uleb128 0x1c
 1953 049a 72657400 		.ascii	"ret\000"
 1954 049e 02       		.byte	0x2
 1955 049f F4       		.byte	0xf4
 1956 04a0 33000000 		.4byte	0x33
 1957 04a4 02       		.byte	0x2
 1958 04a5 91       		.byte	0x91
 1959 04a6 70       		.sleb128 -16
 1960 04a7 00       		.byte	0
 1961 04a8 0C       		.uleb128 0xc
 1962 04a9 04       		.byte	0x4
 1963 04aa 59040000 		.4byte	0x459
 1964 04ae 1A       		.uleb128 0x1a
 1965 04af 01       		.byte	0x1
 1966 04b0 BA030000 		.4byte	.LASF70
 1967 04b4 02       		.byte	0x2
 1968 04b5 DB       		.byte	0xdb
 1969 04b6 01       		.byte	0x1
 1970 04b7 33000000 		.4byte	0x33
 1971 04bb F0030000 		.4byte	.LFB30
 1972 04bf 20040000 		.4byte	.LFE30
 1973 04c3 88000000 		.4byte	.LLST12
 1974 04c7 01       		.byte	0x1
 1975 04c8 DB040000 		.4byte	0x4db
 1976 04cc 1B       		.uleb128 0x1b
ARM GAS  G:\Users\Jaxb\AppData\Local\Temp\ccR8gxz3.s 			page 43


 1977 04cd 57020000 		.4byte	.LASF67
 1978 04d1 02       		.byte	0x2
 1979 04d2 DB       		.byte	0xdb
 1980 04d3 59040000 		.4byte	0x459
 1981 04d7 02       		.byte	0x2
 1982 04d8 91       		.byte	0x91
 1983 04d9 74       		.sleb128 -12
 1984 04da 00       		.byte	0
 1985 04db 1A       		.uleb128 0x1a
 1986 04dc 01       		.byte	0x1
 1987 04dd 13020000 		.4byte	.LASF71
 1988 04e1 02       		.byte	0x2
 1989 04e2 CA       		.byte	0xca
 1990 04e3 01       		.byte	0x1
 1991 04e4 33000000 		.4byte	0x33
 1992 04e8 A0030000 		.4byte	.LFB29
 1993 04ec F0030000 		.4byte	.LFE29
 1994 04f0 D8000000 		.4byte	.LLST11
 1995 04f4 01       		.byte	0x1
 1996 04f5 16050000 		.4byte	0x516
 1997 04f9 1B       		.uleb128 0x1b
 1998 04fa 57020000 		.4byte	.LASF67
 1999 04fe 02       		.byte	0x2
 2000 04ff CA       		.byte	0xca
 2001 0500 59040000 		.4byte	0x459
 2002 0504 02       		.byte	0x2
 2003 0505 91       		.byte	0x91
 2004 0506 6C       		.sleb128 -20
 2005 0507 12       		.uleb128 0x12
 2006 0508 77050000 		.4byte	.LASF68
 2007 050c 02       		.byte	0x2
 2008 050d CD       		.byte	0xcd
 2009 050e B1020000 		.4byte	0x2b1
 2010 0512 02       		.byte	0x2
 2011 0513 91       		.byte	0x91
 2012 0514 74       		.sleb128 -12
 2013 0515 00       		.byte	0
 2014 0516 1A       		.uleb128 0x1a
 2015 0517 01       		.byte	0x1
 2016 0518 5E030000 		.4byte	.LASF72
 2017 051c 02       		.byte	0x2
 2018 051d B6       		.byte	0xb6
 2019 051e 01       		.byte	0x1
 2020 051f 33000000 		.4byte	0x33
 2021 0523 70030000 		.4byte	.LFB28
 2022 0527 A0030000 		.4byte	.LFE28
 2023 052b 28010000 		.4byte	.LLST10
 2024 052f 01       		.byte	0x1
 2025 0530 43050000 		.4byte	0x543
 2026 0534 1B       		.uleb128 0x1b
 2027 0535 57020000 		.4byte	.LASF67
 2028 0539 02       		.byte	0x2
 2029 053a B6       		.byte	0xb6
 2030 053b 59040000 		.4byte	0x459
 2031 053f 02       		.byte	0x2
 2032 0540 91       		.byte	0x91
 2033 0541 74       		.sleb128 -12
ARM GAS  G:\Users\Jaxb\AppData\Local\Temp\ccR8gxz3.s 			page 44


 2034 0542 00       		.byte	0
 2035 0543 1A       		.uleb128 0x1a
 2036 0544 01       		.byte	0x1
 2037 0545 A9020000 		.4byte	.LASF73
 2038 0549 02       		.byte	0x2
 2039 054a A6       		.byte	0xa6
 2040 054b 01       		.byte	0x1
 2041 054c 33000000 		.4byte	0x33
 2042 0550 10030000 		.4byte	.LFB27
 2043 0554 70030000 		.4byte	.LFE27
 2044 0558 78010000 		.4byte	.LLST9
 2045 055c 01       		.byte	0x1
 2046 055d 8C050000 		.4byte	0x58c
 2047 0561 1B       		.uleb128 0x1b
 2048 0562 57020000 		.4byte	.LASF67
 2049 0566 02       		.byte	0x2
 2050 0567 A6       		.byte	0xa6
 2051 0568 59040000 		.4byte	0x459
 2052 056c 02       		.byte	0x2
 2053 056d 91       		.byte	0x91
 2054 056e 6C       		.sleb128 -20
 2055 056f 12       		.uleb128 0x12
 2056 0570 77050000 		.4byte	.LASF68
 2057 0574 02       		.byte	0x2
 2058 0575 A9       		.byte	0xa9
 2059 0576 B1020000 		.4byte	0x2b1
 2060 057a 02       		.byte	0x2
 2061 057b 91       		.byte	0x91
 2062 057c 74       		.sleb128 -12
 2063 057d 1C       		.uleb128 0x1c
 2064 057e 72657400 		.ascii	"ret\000"
 2065 0582 02       		.byte	0x2
 2066 0583 AB       		.byte	0xab
 2067 0584 33000000 		.4byte	0x33
 2068 0588 02       		.byte	0x2
 2069 0589 91       		.byte	0x91
 2070 058a 70       		.sleb128 -16
 2071 058b 00       		.byte	0
 2072 058c 1A       		.uleb128 0x1a
 2073 058d 01       		.byte	0x1
 2074 058e C7030000 		.4byte	.LASF74
 2075 0592 02       		.byte	0x2
 2076 0593 93       		.byte	0x93
 2077 0594 01       		.byte	0x1
 2078 0595 33000000 		.4byte	0x33
 2079 0599 E0020000 		.4byte	.LFB26
 2080 059d 10030000 		.4byte	.LFE26
 2081 05a1 C8010000 		.4byte	.LLST8
 2082 05a5 01       		.byte	0x1
 2083 05a6 B9050000 		.4byte	0x5b9
 2084 05aa 1B       		.uleb128 0x1b
 2085 05ab 57020000 		.4byte	.LASF67
 2086 05af 02       		.byte	0x2
 2087 05b0 93       		.byte	0x93
 2088 05b1 59040000 		.4byte	0x459
 2089 05b5 02       		.byte	0x2
 2090 05b6 91       		.byte	0x91
ARM GAS  G:\Users\Jaxb\AppData\Local\Temp\ccR8gxz3.s 			page 45


 2091 05b7 74       		.sleb128 -12
 2092 05b8 00       		.byte	0
 2093 05b9 1A       		.uleb128 0x1a
 2094 05ba 01       		.byte	0x1
 2095 05bb A6040000 		.4byte	.LASF75
 2096 05bf 02       		.byte	0x2
 2097 05c0 87       		.byte	0x87
 2098 05c1 01       		.byte	0x1
 2099 05c2 33000000 		.4byte	0x33
 2100 05c6 6C020000 		.4byte	.LFB25
 2101 05ca E0020000 		.4byte	.LFE25
 2102 05ce 18020000 		.4byte	.LLST7
 2103 05d2 01       		.byte	0x1
 2104 05d3 02060000 		.4byte	0x602
 2105 05d7 1B       		.uleb128 0x1b
 2106 05d8 57020000 		.4byte	.LASF67
 2107 05dc 02       		.byte	0x2
 2108 05dd 87       		.byte	0x87
 2109 05de 59040000 		.4byte	0x459
 2110 05e2 02       		.byte	0x2
 2111 05e3 91       		.byte	0x91
 2112 05e4 5C       		.sleb128 -36
 2113 05e5 12       		.uleb128 0x12
 2114 05e6 77050000 		.4byte	.LASF68
 2115 05ea 02       		.byte	0x2
 2116 05eb 8A       		.byte	0x8a
 2117 05ec B1020000 		.4byte	0x2b1
 2118 05f0 02       		.byte	0x2
 2119 05f1 91       		.byte	0x91
 2120 05f2 64       		.sleb128 -28
 2121 05f3 1C       		.uleb128 0x1c
 2122 05f4 72657400 		.ascii	"ret\000"
 2123 05f8 02       		.byte	0x2
 2124 05f9 8E       		.byte	0x8e
 2125 05fa 33000000 		.4byte	0x33
 2126 05fe 02       		.byte	0x2
 2127 05ff 91       		.byte	0x91
 2128 0600 60       		.sleb128 -32
 2129 0601 00       		.byte	0
 2130 0602 1A       		.uleb128 0x1a
 2131 0603 01       		.byte	0x1
 2132 0604 C4000000 		.4byte	.LASF76
 2133 0608 02       		.byte	0x2
 2134 0609 65       		.byte	0x65
 2135 060a 01       		.byte	0x1
 2136 060b 33000000 		.4byte	0x33
 2137 060f 10020000 		.4byte	.LFB24
 2138 0613 6C020000 		.4byte	.LFE24
 2139 0617 68020000 		.4byte	.LLST6
 2140 061b 01       		.byte	0x1
 2141 061c 91060000 		.4byte	0x691
 2142 0620 1B       		.uleb128 0x1b
 2143 0621 57020000 		.4byte	.LASF67
 2144 0625 02       		.byte	0x2
 2145 0626 66       		.byte	0x66
 2146 0627 A8040000 		.4byte	0x4a8
 2147 062b 02       		.byte	0x2
ARM GAS  G:\Users\Jaxb\AppData\Local\Temp\ccR8gxz3.s 			page 46


 2148 062c 91       		.byte	0x91
 2149 062d 6C       		.sleb128 -20
 2150 062e 1B       		.uleb128 0x1b
 2151 062f 1B030000 		.4byte	.LASF18
 2152 0633 02       		.byte	0x2
 2153 0634 67       		.byte	0x67
 2154 0635 9C000000 		.4byte	0x9c
 2155 0639 02       		.byte	0x2
 2156 063a 91       		.byte	0x91
 2157 063b 6B       		.sleb128 -21
 2158 063c 1B       		.uleb128 0x1b
 2159 063d 8B020000 		.4byte	.LASF53
 2160 0641 02       		.byte	0x2
 2161 0642 68       		.byte	0x68
 2162 0643 60010000 		.4byte	0x160
 2163 0647 02       		.byte	0x2
 2164 0648 91       		.byte	0x91
 2165 0649 64       		.sleb128 -28
 2166 064a 1D       		.uleb128 0x1d
 2167 064b 66756E00 		.ascii	"fun\000"
 2168 064f 02       		.byte	0x2
 2169 0650 69       		.byte	0x69
 2170 0651 80010000 		.4byte	0x180
 2171 0655 02       		.byte	0x2
 2172 0656 91       		.byte	0x91
 2173 0657 60       		.sleb128 -32
 2174 0658 1B       		.uleb128 0x1b
 2175 0659 84010000 		.4byte	.LASF22
 2176 065d 02       		.byte	0x2
 2177 065e 6A       		.byte	0x6a
 2178 065f 7E010000 		.4byte	0x17e
 2179 0663 02       		.byte	0x2
 2180 0664 91       		.byte	0x91
 2181 0665 00       		.sleb128 0
 2182 0666 1B       		.uleb128 0x1b
 2183 0667 66020000 		.4byte	.LASF23
 2184 066b 02       		.byte	0x2
 2185 066c 6B       		.byte	0x6b
 2186 066d 5F000000 		.4byte	0x5f
 2187 0671 02       		.byte	0x2
 2188 0672 91       		.byte	0x91
 2189 0673 04       		.sleb128 4
 2190 0674 1D       		.uleb128 0x1d
 2191 0675 6E756D00 		.ascii	"num\000"
 2192 0679 02       		.byte	0x2
 2193 067a 6C       		.byte	0x6c
 2194 067b 5F000000 		.4byte	0x5f
 2195 067f 02       		.byte	0x2
 2196 0680 91       		.byte	0x91
 2197 0681 08       		.sleb128 8
 2198 0682 1C       		.uleb128 0x1c
 2199 0683 70747200 		.ascii	"ptr\000"
 2200 0687 02       		.byte	0x2
 2201 0688 6E       		.byte	0x6e
 2202 0689 59040000 		.4byte	0x459
 2203 068d 02       		.byte	0x2
 2204 068e 91       		.byte	0x91
ARM GAS  G:\Users\Jaxb\AppData\Local\Temp\ccR8gxz3.s 			page 47


 2205 068f 74       		.sleb128 -12
 2206 0690 00       		.byte	0
 2207 0691 1A       		.uleb128 0x1a
 2208 0692 01       		.byte	0x1
 2209 0693 4C020000 		.4byte	.LASF77
 2210 0697 02       		.byte	0x2
 2211 0698 3F       		.byte	0x3f
 2212 0699 01       		.byte	0x1
 2213 069a 33000000 		.4byte	0x33
 2214 069e 64010000 		.4byte	.LFB23
 2215 06a2 10020000 		.4byte	.LFE23
 2216 06a6 B8020000 		.4byte	.LLST5
 2217 06aa 01       		.byte	0x1
 2218 06ab 12070000 		.4byte	0x712
 2219 06af 1B       		.uleb128 0x1b
 2220 06b0 57020000 		.4byte	.LASF67
 2221 06b4 02       		.byte	0x2
 2222 06b5 40       		.byte	0x40
 2223 06b6 59040000 		.4byte	0x459
 2224 06ba 02       		.byte	0x2
 2225 06bb 91       		.byte	0x91
 2226 06bc 74       		.sleb128 -12
 2227 06bd 1B       		.uleb128 0x1b
 2228 06be 1B030000 		.4byte	.LASF18
 2229 06c2 02       		.byte	0x2
 2230 06c3 41       		.byte	0x41
 2231 06c4 9C000000 		.4byte	0x9c
 2232 06c8 02       		.byte	0x2
 2233 06c9 91       		.byte	0x91
 2234 06ca 73       		.sleb128 -13
 2235 06cb 1B       		.uleb128 0x1b
 2236 06cc 8B020000 		.4byte	.LASF53
 2237 06d0 02       		.byte	0x2
 2238 06d1 42       		.byte	0x42
 2239 06d2 60010000 		.4byte	0x160
 2240 06d6 02       		.byte	0x2
 2241 06d7 91       		.byte	0x91
 2242 06d8 6C       		.sleb128 -20
 2243 06d9 1D       		.uleb128 0x1d
 2244 06da 66756E00 		.ascii	"fun\000"
 2245 06de 02       		.byte	0x2
 2246 06df 43       		.byte	0x43
 2247 06e0 80010000 		.4byte	0x180
 2248 06e4 02       		.byte	0x2
 2249 06e5 91       		.byte	0x91
 2250 06e6 68       		.sleb128 -24
 2251 06e7 1B       		.uleb128 0x1b
 2252 06e8 84010000 		.4byte	.LASF22
 2253 06ec 02       		.byte	0x2
 2254 06ed 44       		.byte	0x44
 2255 06ee 7E010000 		.4byte	0x17e
 2256 06f2 02       		.byte	0x2
 2257 06f3 91       		.byte	0x91
 2258 06f4 00       		.sleb128 0
 2259 06f5 1B       		.uleb128 0x1b
 2260 06f6 66020000 		.4byte	.LASF23
 2261 06fa 02       		.byte	0x2
ARM GAS  G:\Users\Jaxb\AppData\Local\Temp\ccR8gxz3.s 			page 48


 2262 06fb 45       		.byte	0x45
 2263 06fc 5F000000 		.4byte	0x5f
 2264 0700 02       		.byte	0x2
 2265 0701 91       		.byte	0x91
 2266 0702 04       		.sleb128 4
 2267 0703 1D       		.uleb128 0x1d
 2268 0704 6E756D00 		.ascii	"num\000"
 2269 0708 02       		.byte	0x2
 2270 0709 46       		.byte	0x46
 2271 070a 5F000000 		.4byte	0x5f
 2272 070e 02       		.byte	0x2
 2273 070f 91       		.byte	0x91
 2274 0710 08       		.sleb128 8
 2275 0711 00       		.byte	0
 2276 0712 1E       		.uleb128 0x1e
 2277 0713 01       		.byte	0x1
 2278 0714 29000000 		.4byte	.LASF90
 2279 0718 02       		.byte	0x2
 2280 0719 2F       		.byte	0x2f
 2281 071a 01       		.byte	0x1
 2282 071b 28010000 		.4byte	.LFB22
 2283 071f 64010000 		.4byte	.LFE22
 2284 0723 08030000 		.4byte	.LLST4
 2285 0727 01       		.byte	0x1
 2286 0728 1F       		.uleb128 0x1f
 2287 0729 18010000 		.4byte	.LASF37
 2288 072d 02       		.byte	0x2
 2289 072e 22       		.byte	0x22
 2290 072f 01       		.byte	0x1
 2291 0730 02010000 		.4byte	.LFB21
 2292 0734 28010000 		.4byte	.LFE21
 2293 0738 4C030000 		.4byte	.LLST3
 2294 073c 01       		.byte	0x1
 2295 073d 6C070000 		.4byte	0x76c
 2296 0741 1B       		.uleb128 0x1b
 2297 0742 53030000 		.4byte	.LASF78
 2298 0746 02       		.byte	0x2
 2299 0747 22       		.byte	0x22
 2300 0748 35020000 		.4byte	0x235
 2301 074c 02       		.byte	0x2
 2302 074d 91       		.byte	0x91
 2303 074e 6C       		.sleb128 -20
 2304 074f 1B       		.uleb128 0x1b
 2305 0750 68010000 		.4byte	.LASF79
 2306 0754 02       		.byte	0x2
 2307 0755 22       		.byte	0x22
 2308 0756 33000000 		.4byte	0x33
 2309 075a 02       		.byte	0x2
 2310 075b 91       		.byte	0x91
 2311 075c 68       		.sleb128 -24
 2312 075d 12       		.uleb128 0x12
 2313 075e 57020000 		.4byte	.LASF67
 2314 0762 02       		.byte	0x2
 2315 0763 24       		.byte	0x24
 2316 0764 59040000 		.4byte	0x459
 2317 0768 02       		.byte	0x2
 2318 0769 91       		.byte	0x91
ARM GAS  G:\Users\Jaxb\AppData\Local\Temp\ccR8gxz3.s 			page 49


 2319 076a 74       		.sleb128 -12
 2320 076b 00       		.byte	0
 2321 076c 20       		.uleb128 0x20
 2322 076d 636D7000 		.ascii	"cmp\000"
 2323 0771 02       		.byte	0x2
 2324 0772 0F       		.byte	0xf
 2325 0773 01       		.byte	0x1
 2326 0774 33000000 		.4byte	0x33
 2327 0778 5A000000 		.4byte	.LFB20
 2328 077c 02010000 		.4byte	.LFE20
 2329 0780 9C030000 		.4byte	.LLST2
 2330 0784 01       		.byte	0x1
 2331 0785 CC070000 		.4byte	0x7cc
 2332 0789 1B       		.uleb128 0x1b
 2333 078a 53030000 		.4byte	.LASF78
 2334 078e 02       		.byte	0x2
 2335 078f 0F       		.byte	0xf
 2336 0790 35020000 		.4byte	0x235
 2337 0794 02       		.byte	0x2
 2338 0795 91       		.byte	0x91
 2339 0796 64       		.sleb128 -28
 2340 0797 1B       		.uleb128 0x1b
 2341 0798 D1000000 		.4byte	.LASF80
 2342 079c 02       		.byte	0x2
 2343 079d 0F       		.byte	0xf
 2344 079e 5F000000 		.4byte	0x5f
 2345 07a2 02       		.byte	0x2
 2346 07a3 91       		.byte	0x91
 2347 07a4 60       		.sleb128 -32
 2348 07a5 1B       		.uleb128 0x1b
 2349 07a6 D8000000 		.4byte	.LASF81
 2350 07aa 02       		.byte	0x2
 2351 07ab 0F       		.byte	0xf
 2352 07ac 5F000000 		.4byte	0x5f
 2353 07b0 02       		.byte	0x2
 2354 07b1 91       		.byte	0x91
 2355 07b2 5C       		.sleb128 -36
 2356 07b3 1C       		.uleb128 0x1c
 2357 07b4 6100     		.ascii	"a\000"
 2358 07b6 02       		.byte	0x2
 2359 07b7 11       		.byte	0x11
 2360 07b8 CC070000 		.4byte	0x7cc
 2361 07bc 02       		.byte	0x2
 2362 07bd 91       		.byte	0x91
 2363 07be 6C       		.sleb128 -20
 2364 07bf 1C       		.uleb128 0x1c
 2365 07c0 6200     		.ascii	"b\000"
 2366 07c2 02       		.byte	0x2
 2367 07c3 11       		.byte	0x11
 2368 07c4 CC070000 		.4byte	0x7cc
 2369 07c8 02       		.byte	0x2
 2370 07c9 91       		.byte	0x91
 2371 07ca 68       		.sleb128 -24
 2372 07cb 00       		.byte	0
 2373 07cc 0C       		.uleb128 0xc
 2374 07cd 04       		.byte	0x4
 2375 07ce D2070000 		.4byte	0x7d2
ARM GAS  G:\Users\Jaxb\AppData\Local\Temp\ccR8gxz3.s 			page 50


 2376 07d2 0C       		.uleb128 0xc
 2377 07d3 04       		.byte	0x4
 2378 07d4 5B010000 		.4byte	0x15b
 2379 07d8 21       		.uleb128 0x21
 2380 07d9 90020000 		.4byte	.LASF82
 2381 07dd 01       		.byte	0x1
 2382 07de 33       		.byte	0x33
 2383 07df 01       		.byte	0x1
 2384 07e0 30000000 		.4byte	.LFB3
 2385 07e4 5A000000 		.4byte	.LFE3
 2386 07e8 EC030000 		.4byte	.LLST1
 2387 07ec 01       		.byte	0x1
 2388 07ed 1C080000 		.4byte	0x81c
 2389 07f1 1B       		.uleb128 0x1b
 2390 07f2 ED020000 		.4byte	.LASF83
 2391 07f6 01       		.byte	0x1
 2392 07f7 33       		.byte	0x33
 2393 07f8 35020000 		.4byte	0x235
 2394 07fc 02       		.byte	0x2
 2395 07fd 91       		.byte	0x91
 2396 07fe 74       		.sleb128 -12
 2397 07ff 1B       		.uleb128 0x1b
 2398 0800 68010000 		.4byte	.LASF79
 2399 0804 01       		.byte	0x1
 2400 0805 33       		.byte	0x33
 2401 0806 5F000000 		.4byte	0x5f
 2402 080a 02       		.byte	0x2
 2403 080b 91       		.byte	0x91
 2404 080c 70       		.sleb128 -16
 2405 080d 1B       		.uleb128 0x1b
 2406 080e 00010000 		.4byte	.LASF84
 2407 0812 01       		.byte	0x1
 2408 0813 33       		.byte	0x33
 2409 0814 1C080000 		.4byte	0x81c
 2410 0818 02       		.byte	0x2
 2411 0819 91       		.byte	0x91
 2412 081a 6C       		.sleb128 -20
 2413 081b 00       		.byte	0
 2414 081c 0C       		.uleb128 0xc
 2415 081d 04       		.byte	0x4
 2416 081e 7E010000 		.4byte	0x17e
 2417 0822 22       		.uleb128 0x22
 2418 0823 75020000 		.4byte	.LASF91
 2419 0827 01       		.byte	0x1
 2420 0828 1E       		.byte	0x1e
 2421 0829 01       		.byte	0x1
 2422 082a 00000000 		.4byte	.LFB0
 2423 082e 30000000 		.4byte	.LFE0
 2424 0832 48040000 		.4byte	.LLST0
 2425 0836 01       		.byte	0x1
 2426 0837 1B       		.uleb128 0x1b
 2427 0838 ED020000 		.4byte	.LASF83
 2428 083c 01       		.byte	0x1
 2429 083d 1E       		.byte	0x1e
 2430 083e 35020000 		.4byte	0x235
 2431 0842 02       		.byte	0x2
 2432 0843 91       		.byte	0x91
ARM GAS  G:\Users\Jaxb\AppData\Local\Temp\ccR8gxz3.s 			page 51


 2433 0844 74       		.sleb128 -12
 2434 0845 1B       		.uleb128 0x1b
 2435 0846 68010000 		.4byte	.LASF79
 2436 084a 01       		.byte	0x1
 2437 084b 1E       		.byte	0x1e
 2438 084c 5F000000 		.4byte	0x5f
 2439 0850 02       		.byte	0x2
 2440 0851 91       		.byte	0x91
 2441 0852 70       		.sleb128 -16
 2442 0853 1B       		.uleb128 0x1b
 2443 0854 AA000000 		.4byte	.LASF85
 2444 0858 01       		.byte	0x1
 2445 0859 1E       		.byte	0x1e
 2446 085a 7E010000 		.4byte	0x17e
 2447 085e 02       		.byte	0x2
 2448 085f 91       		.byte	0x91
 2449 0860 6C       		.sleb128 -20
 2450 0861 00       		.byte	0
 2451 0862 00       		.byte	0
 2452              		.section	.debug_abbrev,"",%progbits
 2453              	.Ldebug_abbrev0:
 2454 0000 01       		.uleb128 0x1
 2455 0001 11       		.uleb128 0x11
 2456 0002 01       		.byte	0x1
 2457 0003 25       		.uleb128 0x25
 2458 0004 0E       		.uleb128 0xe
 2459 0005 13       		.uleb128 0x13
 2460 0006 0B       		.uleb128 0xb
 2461 0007 03       		.uleb128 0x3
 2462 0008 0E       		.uleb128 0xe
 2463 0009 1B       		.uleb128 0x1b
 2464 000a 0E       		.uleb128 0xe
 2465 000b 11       		.uleb128 0x11
 2466 000c 01       		.uleb128 0x1
 2467 000d 12       		.uleb128 0x12
 2468 000e 01       		.uleb128 0x1
 2469 000f 10       		.uleb128 0x10
 2470 0010 06       		.uleb128 0x6
 2471 0011 00       		.byte	0
 2472 0012 00       		.byte	0
 2473 0013 02       		.uleb128 0x2
 2474 0014 24       		.uleb128 0x24
 2475 0015 00       		.byte	0
 2476 0016 0B       		.uleb128 0xb
 2477 0017 0B       		.uleb128 0xb
 2478 0018 3E       		.uleb128 0x3e
 2479 0019 0B       		.uleb128 0xb
 2480 001a 03       		.uleb128 0x3
 2481 001b 0E       		.uleb128 0xe
 2482 001c 00       		.byte	0
 2483 001d 00       		.byte	0
 2484 001e 03       		.uleb128 0x3
 2485 001f 24       		.uleb128 0x24
 2486 0020 00       		.byte	0
 2487 0021 0B       		.uleb128 0xb
 2488 0022 0B       		.uleb128 0xb
 2489 0023 3E       		.uleb128 0x3e
ARM GAS  G:\Users\Jaxb\AppData\Local\Temp\ccR8gxz3.s 			page 52


 2490 0024 0B       		.uleb128 0xb
 2491 0025 03       		.uleb128 0x3
 2492 0026 08       		.uleb128 0x8
 2493 0027 00       		.byte	0
 2494 0028 00       		.byte	0
 2495 0029 04       		.uleb128 0x4
 2496 002a 35       		.uleb128 0x35
 2497 002b 00       		.byte	0
 2498 002c 49       		.uleb128 0x49
 2499 002d 13       		.uleb128 0x13
 2500 002e 00       		.byte	0
 2501 002f 00       		.byte	0
 2502 0030 05       		.uleb128 0x5
 2503 0031 16       		.uleb128 0x16
 2504 0032 00       		.byte	0
 2505 0033 03       		.uleb128 0x3
 2506 0034 0E       		.uleb128 0xe
 2507 0035 3A       		.uleb128 0x3a
 2508 0036 0B       		.uleb128 0xb
 2509 0037 3B       		.uleb128 0x3b
 2510 0038 0B       		.uleb128 0xb
 2511 0039 49       		.uleb128 0x49
 2512 003a 13       		.uleb128 0x13
 2513 003b 00       		.byte	0
 2514 003c 00       		.byte	0
 2515 003d 06       		.uleb128 0x6
 2516 003e 04       		.uleb128 0x4
 2517 003f 01       		.byte	0x1
 2518 0040 03       		.uleb128 0x3
 2519 0041 0E       		.uleb128 0xe
 2520 0042 3E       		.uleb128 0x3e
 2521 0043 0B       		.uleb128 0xb
 2522 0044 0B       		.uleb128 0xb
 2523 0045 0B       		.uleb128 0xb
 2524 0046 49       		.uleb128 0x49
 2525 0047 13       		.uleb128 0x13
 2526 0048 3A       		.uleb128 0x3a
 2527 0049 0B       		.uleb128 0xb
 2528 004a 3B       		.uleb128 0x3b
 2529 004b 0B       		.uleb128 0xb
 2530 004c 01       		.uleb128 0x1
 2531 004d 13       		.uleb128 0x13
 2532 004e 00       		.byte	0
 2533 004f 00       		.byte	0
 2534 0050 07       		.uleb128 0x7
 2535 0051 28       		.uleb128 0x28
 2536 0052 00       		.byte	0
 2537 0053 03       		.uleb128 0x3
 2538 0054 0E       		.uleb128 0xe
 2539 0055 1C       		.uleb128 0x1c
 2540 0056 0B       		.uleb128 0xb
 2541 0057 00       		.byte	0
 2542 0058 00       		.byte	0
 2543 0059 08       		.uleb128 0x8
 2544 005a 13       		.uleb128 0x13
 2545 005b 01       		.byte	0x1
 2546 005c 03       		.uleb128 0x3
ARM GAS  G:\Users\Jaxb\AppData\Local\Temp\ccR8gxz3.s 			page 53


 2547 005d 0E       		.uleb128 0xe
 2548 005e 0B       		.uleb128 0xb
 2549 005f 0B       		.uleb128 0xb
 2550 0060 3A       		.uleb128 0x3a
 2551 0061 0B       		.uleb128 0xb
 2552 0062 3B       		.uleb128 0x3b
 2553 0063 0B       		.uleb128 0xb
 2554 0064 01       		.uleb128 0x1
 2555 0065 13       		.uleb128 0x13
 2556 0066 00       		.byte	0
 2557 0067 00       		.byte	0
 2558 0068 09       		.uleb128 0x9
 2559 0069 0D       		.uleb128 0xd
 2560 006a 00       		.byte	0
 2561 006b 03       		.uleb128 0x3
 2562 006c 0E       		.uleb128 0xe
 2563 006d 3A       		.uleb128 0x3a
 2564 006e 0B       		.uleb128 0xb
 2565 006f 3B       		.uleb128 0x3b
 2566 0070 0B       		.uleb128 0xb
 2567 0071 49       		.uleb128 0x49
 2568 0072 13       		.uleb128 0x13
 2569 0073 38       		.uleb128 0x38
 2570 0074 0A       		.uleb128 0xa
 2571 0075 00       		.byte	0
 2572 0076 00       		.byte	0
 2573 0077 0A       		.uleb128 0xa
 2574 0078 0D       		.uleb128 0xd
 2575 0079 00       		.byte	0
 2576 007a 03       		.uleb128 0x3
 2577 007b 08       		.uleb128 0x8
 2578 007c 3A       		.uleb128 0x3a
 2579 007d 0B       		.uleb128 0xb
 2580 007e 3B       		.uleb128 0x3b
 2581 007f 0B       		.uleb128 0xb
 2582 0080 49       		.uleb128 0x49
 2583 0081 13       		.uleb128 0x13
 2584 0082 38       		.uleb128 0x38
 2585 0083 0A       		.uleb128 0xa
 2586 0084 00       		.byte	0
 2587 0085 00       		.byte	0
 2588 0086 0B       		.uleb128 0xb
 2589 0087 26       		.uleb128 0x26
 2590 0088 00       		.byte	0
 2591 0089 49       		.uleb128 0x49
 2592 008a 13       		.uleb128 0x13
 2593 008b 00       		.byte	0
 2594 008c 00       		.byte	0
 2595 008d 0C       		.uleb128 0xc
 2596 008e 0F       		.uleb128 0xf
 2597 008f 00       		.byte	0
 2598 0090 0B       		.uleb128 0xb
 2599 0091 0B       		.uleb128 0xb
 2600 0092 49       		.uleb128 0x49
 2601 0093 13       		.uleb128 0x13
 2602 0094 00       		.byte	0
 2603 0095 00       		.byte	0
ARM GAS  G:\Users\Jaxb\AppData\Local\Temp\ccR8gxz3.s 			page 54


 2604 0096 0D       		.uleb128 0xd
 2605 0097 15       		.uleb128 0x15
 2606 0098 01       		.byte	0x1
 2607 0099 27       		.uleb128 0x27
 2608 009a 0C       		.uleb128 0xc
 2609 009b 01       		.uleb128 0x1
 2610 009c 13       		.uleb128 0x13
 2611 009d 00       		.byte	0
 2612 009e 00       		.byte	0
 2613 009f 0E       		.uleb128 0xe
 2614 00a0 05       		.uleb128 0x5
 2615 00a1 00       		.byte	0
 2616 00a2 49       		.uleb128 0x49
 2617 00a3 13       		.uleb128 0x13
 2618 00a4 00       		.byte	0
 2619 00a5 00       		.byte	0
 2620 00a6 0F       		.uleb128 0xf
 2621 00a7 0F       		.uleb128 0xf
 2622 00a8 00       		.byte	0
 2623 00a9 0B       		.uleb128 0xb
 2624 00aa 0B       		.uleb128 0xb
 2625 00ab 00       		.byte	0
 2626 00ac 00       		.byte	0
 2627 00ad 10       		.uleb128 0x10
 2628 00ae 15       		.uleb128 0x15
 2629 00af 01       		.byte	0x1
 2630 00b0 27       		.uleb128 0x27
 2631 00b1 0C       		.uleb128 0xc
 2632 00b2 49       		.uleb128 0x49
 2633 00b3 13       		.uleb128 0x13
 2634 00b4 01       		.uleb128 0x1
 2635 00b5 13       		.uleb128 0x13
 2636 00b6 00       		.byte	0
 2637 00b7 00       		.byte	0
 2638 00b8 11       		.uleb128 0x11
 2639 00b9 34       		.uleb128 0x34
 2640 00ba 00       		.byte	0
 2641 00bb 03       		.uleb128 0x3
 2642 00bc 0E       		.uleb128 0xe
 2643 00bd 3A       		.uleb128 0x3a
 2644 00be 0B       		.uleb128 0xb
 2645 00bf 3B       		.uleb128 0x3b
 2646 00c0 0B       		.uleb128 0xb
 2647 00c1 49       		.uleb128 0x49
 2648 00c2 13       		.uleb128 0x13
 2649 00c3 3F       		.uleb128 0x3f
 2650 00c4 0C       		.uleb128 0xc
 2651 00c5 3C       		.uleb128 0x3c
 2652 00c6 0C       		.uleb128 0xc
 2653 00c7 00       		.byte	0
 2654 00c8 00       		.byte	0
 2655 00c9 12       		.uleb128 0x12
 2656 00ca 34       		.uleb128 0x34
 2657 00cb 00       		.byte	0
 2658 00cc 03       		.uleb128 0x3
 2659 00cd 0E       		.uleb128 0xe
 2660 00ce 3A       		.uleb128 0x3a
ARM GAS  G:\Users\Jaxb\AppData\Local\Temp\ccR8gxz3.s 			page 55


 2661 00cf 0B       		.uleb128 0xb
 2662 00d0 3B       		.uleb128 0x3b
 2663 00d1 0B       		.uleb128 0xb
 2664 00d2 49       		.uleb128 0x49
 2665 00d3 13       		.uleb128 0x13
 2666 00d4 02       		.uleb128 0x2
 2667 00d5 0A       		.uleb128 0xa
 2668 00d6 00       		.byte	0
 2669 00d7 00       		.byte	0
 2670 00d8 13       		.uleb128 0x13
 2671 00d9 01       		.uleb128 0x1
 2672 00da 01       		.byte	0x1
 2673 00db 49       		.uleb128 0x49
 2674 00dc 13       		.uleb128 0x13
 2675 00dd 01       		.uleb128 0x1
 2676 00de 13       		.uleb128 0x13
 2677 00df 00       		.byte	0
 2678 00e0 00       		.byte	0
 2679 00e1 14       		.uleb128 0x14
 2680 00e2 21       		.uleb128 0x21
 2681 00e3 00       		.byte	0
 2682 00e4 49       		.uleb128 0x49
 2683 00e5 13       		.uleb128 0x13
 2684 00e6 2F       		.uleb128 0x2f
 2685 00e7 0B       		.uleb128 0xb
 2686 00e8 00       		.byte	0
 2687 00e9 00       		.byte	0
 2688 00ea 15       		.uleb128 0x15
 2689 00eb 34       		.uleb128 0x34
 2690 00ec 00       		.byte	0
 2691 00ed 03       		.uleb128 0x3
 2692 00ee 0E       		.uleb128 0xe
 2693 00ef 3A       		.uleb128 0x3a
 2694 00f0 0B       		.uleb128 0xb
 2695 00f1 3B       		.uleb128 0x3b
 2696 00f2 0B       		.uleb128 0xb
 2697 00f3 49       		.uleb128 0x49
 2698 00f4 13       		.uleb128 0x13
 2699 00f5 3F       		.uleb128 0x3f
 2700 00f6 0C       		.uleb128 0xc
 2701 00f7 02       		.uleb128 0x2
 2702 00f8 0A       		.uleb128 0xa
 2703 00f9 00       		.byte	0
 2704 00fa 00       		.byte	0
 2705 00fb 16       		.uleb128 0x16
 2706 00fc 2E       		.uleb128 0x2e
 2707 00fd 01       		.byte	0x1
 2708 00fe 3F       		.uleb128 0x3f
 2709 00ff 0C       		.uleb128 0xc
 2710 0100 03       		.uleb128 0x3
 2711 0101 0E       		.uleb128 0xe
 2712 0102 3A       		.uleb128 0x3a
 2713 0103 0B       		.uleb128 0xb
 2714 0104 3B       		.uleb128 0x3b
 2715 0105 05       		.uleb128 0x5
 2716 0106 27       		.uleb128 0x27
 2717 0107 0C       		.uleb128 0xc
ARM GAS  G:\Users\Jaxb\AppData\Local\Temp\ccR8gxz3.s 			page 56


 2718 0108 11       		.uleb128 0x11
 2719 0109 01       		.uleb128 0x1
 2720 010a 12       		.uleb128 0x12
 2721 010b 01       		.uleb128 0x1
 2722 010c 40       		.uleb128 0x40
 2723 010d 06       		.uleb128 0x6
 2724 010e 9642     		.uleb128 0x2116
 2725 0110 0C       		.uleb128 0xc
 2726 0111 01       		.uleb128 0x1
 2727 0112 13       		.uleb128 0x13
 2728 0113 00       		.byte	0
 2729 0114 00       		.byte	0
 2730 0115 17       		.uleb128 0x17
 2731 0116 05       		.uleb128 0x5
 2732 0117 00       		.byte	0
 2733 0118 03       		.uleb128 0x3
 2734 0119 0E       		.uleb128 0xe
 2735 011a 3A       		.uleb128 0x3a
 2736 011b 0B       		.uleb128 0xb
 2737 011c 3B       		.uleb128 0x3b
 2738 011d 05       		.uleb128 0x5
 2739 011e 49       		.uleb128 0x49
 2740 011f 13       		.uleb128 0x13
 2741 0120 02       		.uleb128 0x2
 2742 0121 0A       		.uleb128 0xa
 2743 0122 00       		.byte	0
 2744 0123 00       		.byte	0
 2745 0124 18       		.uleb128 0x18
 2746 0125 34       		.uleb128 0x34
 2747 0126 00       		.byte	0
 2748 0127 03       		.uleb128 0x3
 2749 0128 0E       		.uleb128 0xe
 2750 0129 3A       		.uleb128 0x3a
 2751 012a 0B       		.uleb128 0xb
 2752 012b 3B       		.uleb128 0x3b
 2753 012c 05       		.uleb128 0x5
 2754 012d 49       		.uleb128 0x49
 2755 012e 13       		.uleb128 0x13
 2756 012f 02       		.uleb128 0x2
 2757 0130 0A       		.uleb128 0xa
 2758 0131 00       		.byte	0
 2759 0132 00       		.byte	0
 2760 0133 19       		.uleb128 0x19
 2761 0134 34       		.uleb128 0x34
 2762 0135 00       		.byte	0
 2763 0136 03       		.uleb128 0x3
 2764 0137 08       		.uleb128 0x8
 2765 0138 3A       		.uleb128 0x3a
 2766 0139 0B       		.uleb128 0xb
 2767 013a 3B       		.uleb128 0x3b
 2768 013b 05       		.uleb128 0x5
 2769 013c 49       		.uleb128 0x49
 2770 013d 13       		.uleb128 0x13
 2771 013e 02       		.uleb128 0x2
 2772 013f 0A       		.uleb128 0xa
 2773 0140 00       		.byte	0
 2774 0141 00       		.byte	0
ARM GAS  G:\Users\Jaxb\AppData\Local\Temp\ccR8gxz3.s 			page 57


 2775 0142 1A       		.uleb128 0x1a
 2776 0143 2E       		.uleb128 0x2e
 2777 0144 01       		.byte	0x1
 2778 0145 3F       		.uleb128 0x3f
 2779 0146 0C       		.uleb128 0xc
 2780 0147 03       		.uleb128 0x3
 2781 0148 0E       		.uleb128 0xe
 2782 0149 3A       		.uleb128 0x3a
 2783 014a 0B       		.uleb128 0xb
 2784 014b 3B       		.uleb128 0x3b
 2785 014c 0B       		.uleb128 0xb
 2786 014d 27       		.uleb128 0x27
 2787 014e 0C       		.uleb128 0xc
 2788 014f 49       		.uleb128 0x49
 2789 0150 13       		.uleb128 0x13
 2790 0151 11       		.uleb128 0x11
 2791 0152 01       		.uleb128 0x1
 2792 0153 12       		.uleb128 0x12
 2793 0154 01       		.uleb128 0x1
 2794 0155 40       		.uleb128 0x40
 2795 0156 06       		.uleb128 0x6
 2796 0157 9642     		.uleb128 0x2116
 2797 0159 0C       		.uleb128 0xc
 2798 015a 01       		.uleb128 0x1
 2799 015b 13       		.uleb128 0x13
 2800 015c 00       		.byte	0
 2801 015d 00       		.byte	0
 2802 015e 1B       		.uleb128 0x1b
 2803 015f 05       		.uleb128 0x5
 2804 0160 00       		.byte	0
 2805 0161 03       		.uleb128 0x3
 2806 0162 0E       		.uleb128 0xe
 2807 0163 3A       		.uleb128 0x3a
 2808 0164 0B       		.uleb128 0xb
 2809 0165 3B       		.uleb128 0x3b
 2810 0166 0B       		.uleb128 0xb
 2811 0167 49       		.uleb128 0x49
 2812 0168 13       		.uleb128 0x13
 2813 0169 02       		.uleb128 0x2
 2814 016a 0A       		.uleb128 0xa
 2815 016b 00       		.byte	0
 2816 016c 00       		.byte	0
 2817 016d 1C       		.uleb128 0x1c
 2818 016e 34       		.uleb128 0x34
 2819 016f 00       		.byte	0
 2820 0170 03       		.uleb128 0x3
 2821 0171 08       		.uleb128 0x8
 2822 0172 3A       		.uleb128 0x3a
 2823 0173 0B       		.uleb128 0xb
 2824 0174 3B       		.uleb128 0x3b
 2825 0175 0B       		.uleb128 0xb
 2826 0176 49       		.uleb128 0x49
 2827 0177 13       		.uleb128 0x13
 2828 0178 02       		.uleb128 0x2
 2829 0179 0A       		.uleb128 0xa
 2830 017a 00       		.byte	0
 2831 017b 00       		.byte	0
ARM GAS  G:\Users\Jaxb\AppData\Local\Temp\ccR8gxz3.s 			page 58


 2832 017c 1D       		.uleb128 0x1d
 2833 017d 05       		.uleb128 0x5
 2834 017e 00       		.byte	0
 2835 017f 03       		.uleb128 0x3
 2836 0180 08       		.uleb128 0x8
 2837 0181 3A       		.uleb128 0x3a
 2838 0182 0B       		.uleb128 0xb
 2839 0183 3B       		.uleb128 0x3b
 2840 0184 0B       		.uleb128 0xb
 2841 0185 49       		.uleb128 0x49
 2842 0186 13       		.uleb128 0x13
 2843 0187 02       		.uleb128 0x2
 2844 0188 0A       		.uleb128 0xa
 2845 0189 00       		.byte	0
 2846 018a 00       		.byte	0
 2847 018b 1E       		.uleb128 0x1e
 2848 018c 2E       		.uleb128 0x2e
 2849 018d 00       		.byte	0
 2850 018e 3F       		.uleb128 0x3f
 2851 018f 0C       		.uleb128 0xc
 2852 0190 03       		.uleb128 0x3
 2853 0191 0E       		.uleb128 0xe
 2854 0192 3A       		.uleb128 0x3a
 2855 0193 0B       		.uleb128 0xb
 2856 0194 3B       		.uleb128 0x3b
 2857 0195 0B       		.uleb128 0xb
 2858 0196 27       		.uleb128 0x27
 2859 0197 0C       		.uleb128 0xc
 2860 0198 11       		.uleb128 0x11
 2861 0199 01       		.uleb128 0x1
 2862 019a 12       		.uleb128 0x12
 2863 019b 01       		.uleb128 0x1
 2864 019c 40       		.uleb128 0x40
 2865 019d 06       		.uleb128 0x6
 2866 019e 9642     		.uleb128 0x2116
 2867 01a0 0C       		.uleb128 0xc
 2868 01a1 00       		.byte	0
 2869 01a2 00       		.byte	0
 2870 01a3 1F       		.uleb128 0x1f
 2871 01a4 2E       		.uleb128 0x2e
 2872 01a5 01       		.byte	0x1
 2873 01a6 03       		.uleb128 0x3
 2874 01a7 0E       		.uleb128 0xe
 2875 01a8 3A       		.uleb128 0x3a
 2876 01a9 0B       		.uleb128 0xb
 2877 01aa 3B       		.uleb128 0x3b
 2878 01ab 0B       		.uleb128 0xb
 2879 01ac 27       		.uleb128 0x27
 2880 01ad 0C       		.uleb128 0xc
 2881 01ae 11       		.uleb128 0x11
 2882 01af 01       		.uleb128 0x1
 2883 01b0 12       		.uleb128 0x12
 2884 01b1 01       		.uleb128 0x1
 2885 01b2 40       		.uleb128 0x40
 2886 01b3 06       		.uleb128 0x6
 2887 01b4 9642     		.uleb128 0x2116
 2888 01b6 0C       		.uleb128 0xc
ARM GAS  G:\Users\Jaxb\AppData\Local\Temp\ccR8gxz3.s 			page 59


 2889 01b7 01       		.uleb128 0x1
 2890 01b8 13       		.uleb128 0x13
 2891 01b9 00       		.byte	0
 2892 01ba 00       		.byte	0
 2893 01bb 20       		.uleb128 0x20
 2894 01bc 2E       		.uleb128 0x2e
 2895 01bd 01       		.byte	0x1
 2896 01be 03       		.uleb128 0x3
 2897 01bf 08       		.uleb128 0x8
 2898 01c0 3A       		.uleb128 0x3a
 2899 01c1 0B       		.uleb128 0xb
 2900 01c2 3B       		.uleb128 0x3b
 2901 01c3 0B       		.uleb128 0xb
 2902 01c4 27       		.uleb128 0x27
 2903 01c5 0C       		.uleb128 0xc
 2904 01c6 49       		.uleb128 0x49
 2905 01c7 13       		.uleb128 0x13
 2906 01c8 11       		.uleb128 0x11
 2907 01c9 01       		.uleb128 0x1
 2908 01ca 12       		.uleb128 0x12
 2909 01cb 01       		.uleb128 0x1
 2910 01cc 40       		.uleb128 0x40
 2911 01cd 06       		.uleb128 0x6
 2912 01ce 9642     		.uleb128 0x2116
 2913 01d0 0C       		.uleb128 0xc
 2914 01d1 01       		.uleb128 0x1
 2915 01d2 13       		.uleb128 0x13
 2916 01d3 00       		.byte	0
 2917 01d4 00       		.byte	0
 2918 01d5 21       		.uleb128 0x21
 2919 01d6 2E       		.uleb128 0x2e
 2920 01d7 01       		.byte	0x1
 2921 01d8 03       		.uleb128 0x3
 2922 01d9 0E       		.uleb128 0xe
 2923 01da 3A       		.uleb128 0x3a
 2924 01db 0B       		.uleb128 0xb
 2925 01dc 3B       		.uleb128 0x3b
 2926 01dd 0B       		.uleb128 0xb
 2927 01de 27       		.uleb128 0x27
 2928 01df 0C       		.uleb128 0xc
 2929 01e0 11       		.uleb128 0x11
 2930 01e1 01       		.uleb128 0x1
 2931 01e2 12       		.uleb128 0x12
 2932 01e3 01       		.uleb128 0x1
 2933 01e4 40       		.uleb128 0x40
 2934 01e5 06       		.uleb128 0x6
 2935 01e6 9742     		.uleb128 0x2117
 2936 01e8 0C       		.uleb128 0xc
 2937 01e9 01       		.uleb128 0x1
 2938 01ea 13       		.uleb128 0x13
 2939 01eb 00       		.byte	0
 2940 01ec 00       		.byte	0
 2941 01ed 22       		.uleb128 0x22
 2942 01ee 2E       		.uleb128 0x2e
 2943 01ef 01       		.byte	0x1
 2944 01f0 03       		.uleb128 0x3
 2945 01f1 0E       		.uleb128 0xe
ARM GAS  G:\Users\Jaxb\AppData\Local\Temp\ccR8gxz3.s 			page 60


 2946 01f2 3A       		.uleb128 0x3a
 2947 01f3 0B       		.uleb128 0xb
 2948 01f4 3B       		.uleb128 0x3b
 2949 01f5 0B       		.uleb128 0xb
 2950 01f6 27       		.uleb128 0x27
 2951 01f7 0C       		.uleb128 0xc
 2952 01f8 11       		.uleb128 0x11
 2953 01f9 01       		.uleb128 0x1
 2954 01fa 12       		.uleb128 0x12
 2955 01fb 01       		.uleb128 0x1
 2956 01fc 40       		.uleb128 0x40
 2957 01fd 06       		.uleb128 0x6
 2958 01fe 9642     		.uleb128 0x2116
 2959 0200 0C       		.uleb128 0xc
 2960 0201 00       		.byte	0
 2961 0202 00       		.byte	0
 2962 0203 00       		.byte	0
 2963              		.section	.debug_loc,"",%progbits
 2964              	.Ldebug_loc0:
 2965              	.LLST14:
 2966 0000 64040000 		.4byte	.LFB32-.Ltext0
 2967 0004 68040000 		.4byte	.LCFI70-.Ltext0
 2968 0008 0200     		.2byte	0x2
 2969 000a 7D       		.byte	0x7d
 2970 000b 00       		.sleb128 0
 2971 000c 68040000 		.4byte	.LCFI70-.Ltext0
 2972 0010 6A040000 		.4byte	.LCFI71-.Ltext0
 2973 0014 0200     		.2byte	0x2
 2974 0016 7D       		.byte	0x7d
 2975 0017 10       		.sleb128 16
 2976 0018 6A040000 		.4byte	.LCFI71-.Ltext0
 2977 001c 6C040000 		.4byte	.LCFI72-.Ltext0
 2978 0020 0200     		.2byte	0x2
 2979 0022 7D       		.byte	0x7d
 2980 0023 30       		.sleb128 48
 2981 0024 6C040000 		.4byte	.LCFI72-.Ltext0
 2982 0028 74050000 		.4byte	.LFE32-.Ltext0
 2983 002c 0200     		.2byte	0x2
 2984 002e 77       		.byte	0x77
 2985 002f 30       		.sleb128 48
 2986 0030 00000000 		.4byte	0
 2987 0034 00000000 		.4byte	0
 2988              	.LLST13:
 2989 0038 20040000 		.4byte	.LFB31-.Ltext0
 2990 003c 22040000 		.4byte	.LCFI65-.Ltext0
 2991 0040 0200     		.2byte	0x2
 2992 0042 7D       		.byte	0x7d
 2993 0043 00       		.sleb128 0
 2994 0044 22040000 		.4byte	.LCFI65-.Ltext0
 2995 0048 24040000 		.4byte	.LCFI66-.Ltext0
 2996 004c 0200     		.2byte	0x2
 2997 004e 7D       		.byte	0x7d
 2998 004f 08       		.sleb128 8
 2999 0050 24040000 		.4byte	.LCFI66-.Ltext0
 3000 0054 26040000 		.4byte	.LCFI67-.Ltext0
 3001 0058 0200     		.2byte	0x2
 3002 005a 7D       		.byte	0x7d
ARM GAS  G:\Users\Jaxb\AppData\Local\Temp\ccR8gxz3.s 			page 61


 3003 005b 18       		.sleb128 24
 3004 005c 26040000 		.4byte	.LCFI67-.Ltext0
 3005 0060 58040000 		.4byte	.LCFI68-.Ltext0
 3006 0064 0200     		.2byte	0x2
 3007 0066 77       		.byte	0x77
 3008 0067 18       		.sleb128 24
 3009 0068 58040000 		.4byte	.LCFI68-.Ltext0
 3010 006c 5A040000 		.4byte	.LCFI69-.Ltext0
 3011 0070 0200     		.2byte	0x2
 3012 0072 77       		.byte	0x77
 3013 0073 08       		.sleb128 8
 3014 0074 5A040000 		.4byte	.LCFI69-.Ltext0
 3015 0078 64040000 		.4byte	.LFE31-.Ltext0
 3016 007c 0200     		.2byte	0x2
 3017 007e 7D       		.byte	0x7d
 3018 007f 08       		.sleb128 8
 3019 0080 00000000 		.4byte	0
 3020 0084 00000000 		.4byte	0
 3021              	.LLST12:
 3022 0088 F0030000 		.4byte	.LFB30-.Ltext0
 3023 008c F2030000 		.4byte	.LCFI60-.Ltext0
 3024 0090 0200     		.2byte	0x2
 3025 0092 7D       		.byte	0x7d
 3026 0093 00       		.sleb128 0
 3027 0094 F2030000 		.4byte	.LCFI60-.Ltext0
 3028 0098 F4030000 		.4byte	.LCFI61-.Ltext0
 3029 009c 0200     		.2byte	0x2
 3030 009e 7D       		.byte	0x7d
 3031 009f 08       		.sleb128 8
 3032 00a0 F4030000 		.4byte	.LCFI61-.Ltext0
 3033 00a4 F6030000 		.4byte	.LCFI62-.Ltext0
 3034 00a8 0200     		.2byte	0x2
 3035 00aa 7D       		.byte	0x7d
 3036 00ab 10       		.sleb128 16
 3037 00ac F6030000 		.4byte	.LCFI62-.Ltext0
 3038 00b0 16040000 		.4byte	.LCFI63-.Ltext0
 3039 00b4 0200     		.2byte	0x2
 3040 00b6 77       		.byte	0x77
 3041 00b7 10       		.sleb128 16
 3042 00b8 16040000 		.4byte	.LCFI63-.Ltext0
 3043 00bc 18040000 		.4byte	.LCFI64-.Ltext0
 3044 00c0 0200     		.2byte	0x2
 3045 00c2 77       		.byte	0x77
 3046 00c3 08       		.sleb128 8
 3047 00c4 18040000 		.4byte	.LCFI64-.Ltext0
 3048 00c8 20040000 		.4byte	.LFE30-.Ltext0
 3049 00cc 0200     		.2byte	0x2
 3050 00ce 7D       		.byte	0x7d
 3051 00cf 08       		.sleb128 8
 3052 00d0 00000000 		.4byte	0
 3053 00d4 00000000 		.4byte	0
 3054              	.LLST11:
 3055 00d8 A0030000 		.4byte	.LFB29-.Ltext0
 3056 00dc A2030000 		.4byte	.LCFI55-.Ltext0
 3057 00e0 0200     		.2byte	0x2
 3058 00e2 7D       		.byte	0x7d
 3059 00e3 00       		.sleb128 0
ARM GAS  G:\Users\Jaxb\AppData\Local\Temp\ccR8gxz3.s 			page 62


 3060 00e4 A2030000 		.4byte	.LCFI55-.Ltext0
 3061 00e8 A4030000 		.4byte	.LCFI56-.Ltext0
 3062 00ec 0200     		.2byte	0x2
 3063 00ee 7D       		.byte	0x7d
 3064 00ef 08       		.sleb128 8
 3065 00f0 A4030000 		.4byte	.LCFI56-.Ltext0
 3066 00f4 A6030000 		.4byte	.LCFI57-.Ltext0
 3067 00f8 0200     		.2byte	0x2
 3068 00fa 7D       		.byte	0x7d
 3069 00fb 18       		.sleb128 24
 3070 00fc A6030000 		.4byte	.LCFI57-.Ltext0
 3071 0100 E8030000 		.4byte	.LCFI58-.Ltext0
 3072 0104 0200     		.2byte	0x2
 3073 0106 77       		.byte	0x77
 3074 0107 18       		.sleb128 24
 3075 0108 E8030000 		.4byte	.LCFI58-.Ltext0
 3076 010c EA030000 		.4byte	.LCFI59-.Ltext0
 3077 0110 0200     		.2byte	0x2
 3078 0112 77       		.byte	0x77
 3079 0113 08       		.sleb128 8
 3080 0114 EA030000 		.4byte	.LCFI59-.Ltext0
 3081 0118 F0030000 		.4byte	.LFE29-.Ltext0
 3082 011c 0200     		.2byte	0x2
 3083 011e 7D       		.byte	0x7d
 3084 011f 08       		.sleb128 8
 3085 0120 00000000 		.4byte	0
 3086 0124 00000000 		.4byte	0
 3087              	.LLST10:
 3088 0128 70030000 		.4byte	.LFB28-.Ltext0
 3089 012c 72030000 		.4byte	.LCFI50-.Ltext0
 3090 0130 0200     		.2byte	0x2
 3091 0132 7D       		.byte	0x7d
 3092 0133 00       		.sleb128 0
 3093 0134 72030000 		.4byte	.LCFI50-.Ltext0
 3094 0138 74030000 		.4byte	.LCFI51-.Ltext0
 3095 013c 0200     		.2byte	0x2
 3096 013e 7D       		.byte	0x7d
 3097 013f 08       		.sleb128 8
 3098 0140 74030000 		.4byte	.LCFI51-.Ltext0
 3099 0144 76030000 		.4byte	.LCFI52-.Ltext0
 3100 0148 0200     		.2byte	0x2
 3101 014a 7D       		.byte	0x7d
 3102 014b 10       		.sleb128 16
 3103 014c 76030000 		.4byte	.LCFI52-.Ltext0
 3104 0150 96030000 		.4byte	.LCFI53-.Ltext0
 3105 0154 0200     		.2byte	0x2
 3106 0156 77       		.byte	0x77
 3107 0157 10       		.sleb128 16
 3108 0158 96030000 		.4byte	.LCFI53-.Ltext0
 3109 015c 98030000 		.4byte	.LCFI54-.Ltext0
 3110 0160 0200     		.2byte	0x2
 3111 0162 77       		.byte	0x77
 3112 0163 08       		.sleb128 8
 3113 0164 98030000 		.4byte	.LCFI54-.Ltext0
 3114 0168 A0030000 		.4byte	.LFE28-.Ltext0
 3115 016c 0200     		.2byte	0x2
 3116 016e 7D       		.byte	0x7d
ARM GAS  G:\Users\Jaxb\AppData\Local\Temp\ccR8gxz3.s 			page 63


 3117 016f 08       		.sleb128 8
 3118 0170 00000000 		.4byte	0
 3119 0174 00000000 		.4byte	0
 3120              	.LLST9:
 3121 0178 10030000 		.4byte	.LFB27-.Ltext0
 3122 017c 12030000 		.4byte	.LCFI45-.Ltext0
 3123 0180 0200     		.2byte	0x2
 3124 0182 7D       		.byte	0x7d
 3125 0183 00       		.sleb128 0
 3126 0184 12030000 		.4byte	.LCFI45-.Ltext0
 3127 0188 14030000 		.4byte	.LCFI46-.Ltext0
 3128 018c 0200     		.2byte	0x2
 3129 018e 7D       		.byte	0x7d
 3130 018f 08       		.sleb128 8
 3131 0190 14030000 		.4byte	.LCFI46-.Ltext0
 3132 0194 16030000 		.4byte	.LCFI47-.Ltext0
 3133 0198 0200     		.2byte	0x2
 3134 019a 7D       		.byte	0x7d
 3135 019b 18       		.sleb128 24
 3136 019c 16030000 		.4byte	.LCFI47-.Ltext0
 3137 01a0 62030000 		.4byte	.LCFI48-.Ltext0
 3138 01a4 0200     		.2byte	0x2
 3139 01a6 77       		.byte	0x77
 3140 01a7 18       		.sleb128 24
 3141 01a8 62030000 		.4byte	.LCFI48-.Ltext0
 3142 01ac 64030000 		.4byte	.LCFI49-.Ltext0
 3143 01b0 0200     		.2byte	0x2
 3144 01b2 77       		.byte	0x77
 3145 01b3 08       		.sleb128 8
 3146 01b4 64030000 		.4byte	.LCFI49-.Ltext0
 3147 01b8 70030000 		.4byte	.LFE27-.Ltext0
 3148 01bc 0200     		.2byte	0x2
 3149 01be 7D       		.byte	0x7d
 3150 01bf 08       		.sleb128 8
 3151 01c0 00000000 		.4byte	0
 3152 01c4 00000000 		.4byte	0
 3153              	.LLST8:
 3154 01c8 E0020000 		.4byte	.LFB26-.Ltext0
 3155 01cc E2020000 		.4byte	.LCFI40-.Ltext0
 3156 01d0 0200     		.2byte	0x2
 3157 01d2 7D       		.byte	0x7d
 3158 01d3 00       		.sleb128 0
 3159 01d4 E2020000 		.4byte	.LCFI40-.Ltext0
 3160 01d8 E4020000 		.4byte	.LCFI41-.Ltext0
 3161 01dc 0200     		.2byte	0x2
 3162 01de 7D       		.byte	0x7d
 3163 01df 08       		.sleb128 8
 3164 01e0 E4020000 		.4byte	.LCFI41-.Ltext0
 3165 01e4 E6020000 		.4byte	.LCFI42-.Ltext0
 3166 01e8 0200     		.2byte	0x2
 3167 01ea 7D       		.byte	0x7d
 3168 01eb 10       		.sleb128 16
 3169 01ec E6020000 		.4byte	.LCFI42-.Ltext0
 3170 01f0 06030000 		.4byte	.LCFI43-.Ltext0
 3171 01f4 0200     		.2byte	0x2
 3172 01f6 77       		.byte	0x77
 3173 01f7 10       		.sleb128 16
ARM GAS  G:\Users\Jaxb\AppData\Local\Temp\ccR8gxz3.s 			page 64


 3174 01f8 06030000 		.4byte	.LCFI43-.Ltext0
 3175 01fc 08030000 		.4byte	.LCFI44-.Ltext0
 3176 0200 0200     		.2byte	0x2
 3177 0202 77       		.byte	0x77
 3178 0203 08       		.sleb128 8
 3179 0204 08030000 		.4byte	.LCFI44-.Ltext0
 3180 0208 10030000 		.4byte	.LFE26-.Ltext0
 3181 020c 0200     		.2byte	0x2
 3182 020e 7D       		.byte	0x7d
 3183 020f 08       		.sleb128 8
 3184 0210 00000000 		.4byte	0
 3185 0214 00000000 		.4byte	0
 3186              	.LLST7:
 3187 0218 6C020000 		.4byte	.LFB25-.Ltext0
 3188 021c 70020000 		.4byte	.LCFI35-.Ltext0
 3189 0220 0200     		.2byte	0x2
 3190 0222 7D       		.byte	0x7d
 3191 0223 00       		.sleb128 0
 3192 0224 70020000 		.4byte	.LCFI35-.Ltext0
 3193 0228 72020000 		.4byte	.LCFI36-.Ltext0
 3194 022c 0200     		.2byte	0x2
 3195 022e 7D       		.byte	0x7d
 3196 022f 14       		.sleb128 20
 3197 0230 72020000 		.4byte	.LCFI36-.Ltext0
 3198 0234 74020000 		.4byte	.LCFI37-.Ltext0
 3199 0238 0200     		.2byte	0x2
 3200 023a 7D       		.byte	0x7d
 3201 023b 28       		.sleb128 40
 3202 023c 74020000 		.4byte	.LCFI37-.Ltext0
 3203 0240 D0020000 		.4byte	.LCFI38-.Ltext0
 3204 0244 0200     		.2byte	0x2
 3205 0246 77       		.byte	0x77
 3206 0247 28       		.sleb128 40
 3207 0248 D0020000 		.4byte	.LCFI38-.Ltext0
 3208 024c D2020000 		.4byte	.LCFI39-.Ltext0
 3209 0250 0200     		.2byte	0x2
 3210 0252 77       		.byte	0x77
 3211 0253 14       		.sleb128 20
 3212 0254 D2020000 		.4byte	.LCFI39-.Ltext0
 3213 0258 E0020000 		.4byte	.LFE25-.Ltext0
 3214 025c 0200     		.2byte	0x2
 3215 025e 7D       		.byte	0x7d
 3216 025f 14       		.sleb128 20
 3217 0260 00000000 		.4byte	0
 3218 0264 00000000 		.4byte	0
 3219              	.LLST6:
 3220 0268 10020000 		.4byte	.LFB24-.Ltext0
 3221 026c 12020000 		.4byte	.LCFI30-.Ltext0
 3222 0270 0200     		.2byte	0x2
 3223 0272 7D       		.byte	0x7d
 3224 0273 00       		.sleb128 0
 3225 0274 12020000 		.4byte	.LCFI30-.Ltext0
 3226 0278 14020000 		.4byte	.LCFI31-.Ltext0
 3227 027c 0200     		.2byte	0x2
 3228 027e 7D       		.byte	0x7d
 3229 027f 08       		.sleb128 8
 3230 0280 14020000 		.4byte	.LCFI31-.Ltext0
ARM GAS  G:\Users\Jaxb\AppData\Local\Temp\ccR8gxz3.s 			page 65


 3231 0284 16020000 		.4byte	.LCFI32-.Ltext0
 3232 0288 0200     		.2byte	0x2
 3233 028a 7D       		.byte	0x7d
 3234 028b 30       		.sleb128 48
 3235 028c 16020000 		.4byte	.LCFI32-.Ltext0
 3236 0290 68020000 		.4byte	.LCFI33-.Ltext0
 3237 0294 0200     		.2byte	0x2
 3238 0296 77       		.byte	0x77
 3239 0297 20       		.sleb128 32
 3240 0298 68020000 		.4byte	.LCFI33-.Ltext0
 3241 029c 6A020000 		.4byte	.LCFI34-.Ltext0
 3242 02a0 0200     		.2byte	0x2
 3243 02a2 77       		.byte	0x77
 3244 02a3 08       		.sleb128 8
 3245 02a4 6A020000 		.4byte	.LCFI34-.Ltext0
 3246 02a8 6C020000 		.4byte	.LFE24-.Ltext0
 3247 02ac 0200     		.2byte	0x2
 3248 02ae 7D       		.byte	0x7d
 3249 02af 08       		.sleb128 8
 3250 02b0 00000000 		.4byte	0
 3251 02b4 00000000 		.4byte	0
 3252              	.LLST5:
 3253 02b8 64010000 		.4byte	.LFB23-.Ltext0
 3254 02bc 66010000 		.4byte	.LCFI25-.Ltext0
 3255 02c0 0200     		.2byte	0x2
 3256 02c2 7D       		.byte	0x7d
 3257 02c3 00       		.sleb128 0
 3258 02c4 66010000 		.4byte	.LCFI25-.Ltext0
 3259 02c8 68010000 		.4byte	.LCFI26-.Ltext0
 3260 02cc 0200     		.2byte	0x2
 3261 02ce 7D       		.byte	0x7d
 3262 02cf 08       		.sleb128 8
 3263 02d0 68010000 		.4byte	.LCFI26-.Ltext0
 3264 02d4 6A010000 		.4byte	.LCFI27-.Ltext0
 3265 02d8 0200     		.2byte	0x2
 3266 02da 7D       		.byte	0x7d
 3267 02db 18       		.sleb128 24
 3268 02dc 6A010000 		.4byte	.LCFI27-.Ltext0
 3269 02e0 F6010000 		.4byte	.LCFI28-.Ltext0
 3270 02e4 0200     		.2byte	0x2
 3271 02e6 77       		.byte	0x77
 3272 02e7 18       		.sleb128 24
 3273 02e8 F6010000 		.4byte	.LCFI28-.Ltext0
 3274 02ec F8010000 		.4byte	.LCFI29-.Ltext0
 3275 02f0 0200     		.2byte	0x2
 3276 02f2 77       		.byte	0x77
 3277 02f3 08       		.sleb128 8
 3278 02f4 F8010000 		.4byte	.LCFI29-.Ltext0
 3279 02f8 10020000 		.4byte	.LFE23-.Ltext0
 3280 02fc 0200     		.2byte	0x2
 3281 02fe 7D       		.byte	0x7d
 3282 02ff 08       		.sleb128 8
 3283 0300 00000000 		.4byte	0
 3284 0304 00000000 		.4byte	0
 3285              	.LLST4:
 3286 0308 28010000 		.4byte	.LFB22-.Ltext0
 3287 030c 2A010000 		.4byte	.LCFI21-.Ltext0
ARM GAS  G:\Users\Jaxb\AppData\Local\Temp\ccR8gxz3.s 			page 66


 3288 0310 0200     		.2byte	0x2
 3289 0312 7D       		.byte	0x7d
 3290 0313 00       		.sleb128 0
 3291 0314 2A010000 		.4byte	.LCFI21-.Ltext0
 3292 0318 2C010000 		.4byte	.LCFI22-.Ltext0
 3293 031c 0200     		.2byte	0x2
 3294 031e 7D       		.byte	0x7d
 3295 031f 08       		.sleb128 8
 3296 0320 2C010000 		.4byte	.LCFI22-.Ltext0
 3297 0324 2E010000 		.4byte	.LCFI23-.Ltext0
 3298 0328 0200     		.2byte	0x2
 3299 032a 7D       		.byte	0x7d
 3300 032b 10       		.sleb128 16
 3301 032c 2E010000 		.4byte	.LCFI23-.Ltext0
 3302 0330 50010000 		.4byte	.LCFI24-.Ltext0
 3303 0334 0200     		.2byte	0x2
 3304 0336 77       		.byte	0x77
 3305 0337 08       		.sleb128 8
 3306 0338 50010000 		.4byte	.LCFI24-.Ltext0
 3307 033c 64010000 		.4byte	.LFE22-.Ltext0
 3308 0340 0200     		.2byte	0x2
 3309 0342 7D       		.byte	0x7d
 3310 0343 08       		.sleb128 8
 3311 0344 00000000 		.4byte	0
 3312 0348 00000000 		.4byte	0
 3313              	.LLST3:
 3314 034c 02010000 		.4byte	.LFB21-.Ltext0
 3315 0350 04010000 		.4byte	.LCFI16-.Ltext0
 3316 0354 0200     		.2byte	0x2
 3317 0356 7D       		.byte	0x7d
 3318 0357 00       		.sleb128 0
 3319 0358 04010000 		.4byte	.LCFI16-.Ltext0
 3320 035c 06010000 		.4byte	.LCFI17-.Ltext0
 3321 0360 0200     		.2byte	0x2
 3322 0362 7D       		.byte	0x7d
 3323 0363 08       		.sleb128 8
 3324 0364 06010000 		.4byte	.LCFI17-.Ltext0
 3325 0368 08010000 		.4byte	.LCFI18-.Ltext0
 3326 036c 0200     		.2byte	0x2
 3327 036e 7D       		.byte	0x7d
 3328 036f 18       		.sleb128 24
 3329 0370 08010000 		.4byte	.LCFI18-.Ltext0
 3330 0374 24010000 		.4byte	.LCFI19-.Ltext0
 3331 0378 0200     		.2byte	0x2
 3332 037a 77       		.byte	0x77
 3333 037b 18       		.sleb128 24
 3334 037c 24010000 		.4byte	.LCFI19-.Ltext0
 3335 0380 26010000 		.4byte	.LCFI20-.Ltext0
 3336 0384 0200     		.2byte	0x2
 3337 0386 77       		.byte	0x77
 3338 0387 08       		.sleb128 8
 3339 0388 26010000 		.4byte	.LCFI20-.Ltext0
 3340 038c 28010000 		.4byte	.LFE21-.Ltext0
 3341 0390 0200     		.2byte	0x2
 3342 0392 7D       		.byte	0x7d
 3343 0393 08       		.sleb128 8
 3344 0394 00000000 		.4byte	0
ARM GAS  G:\Users\Jaxb\AppData\Local\Temp\ccR8gxz3.s 			page 67


 3345 0398 00000000 		.4byte	0
 3346              	.LLST2:
 3347 039c 5A000000 		.4byte	.LFB20-.Ltext0
 3348 03a0 5E000000 		.4byte	.LCFI11-.Ltext0
 3349 03a4 0200     		.2byte	0x2
 3350 03a6 7D       		.byte	0x7d
 3351 03a7 00       		.sleb128 0
 3352 03a8 5E000000 		.4byte	.LCFI11-.Ltext0
 3353 03ac 60000000 		.4byte	.LCFI12-.Ltext0
 3354 03b0 0200     		.2byte	0x2
 3355 03b2 7D       		.byte	0x7d
 3356 03b3 10       		.sleb128 16
 3357 03b4 60000000 		.4byte	.LCFI12-.Ltext0
 3358 03b8 62000000 		.4byte	.LCFI13-.Ltext0
 3359 03bc 0200     		.2byte	0x2
 3360 03be 7D       		.byte	0x7d
 3361 03bf 28       		.sleb128 40
 3362 03c0 62000000 		.4byte	.LCFI13-.Ltext0
 3363 03c4 FC000000 		.4byte	.LCFI14-.Ltext0
 3364 03c8 0200     		.2byte	0x2
 3365 03ca 77       		.byte	0x77
 3366 03cb 28       		.sleb128 40
 3367 03cc FC000000 		.4byte	.LCFI14-.Ltext0
 3368 03d0 FE000000 		.4byte	.LCFI15-.Ltext0
 3369 03d4 0200     		.2byte	0x2
 3370 03d6 77       		.byte	0x77
 3371 03d7 10       		.sleb128 16
 3372 03d8 FE000000 		.4byte	.LCFI15-.Ltext0
 3373 03dc 02010000 		.4byte	.LFE20-.Ltext0
 3374 03e0 0200     		.2byte	0x2
 3375 03e2 7D       		.byte	0x7d
 3376 03e3 10       		.sleb128 16
 3377 03e4 00000000 		.4byte	0
 3378 03e8 00000000 		.4byte	0
 3379              	.LLST1:
 3380 03ec 30000000 		.4byte	.LFB3-.Ltext0
 3381 03f0 32000000 		.4byte	.LCFI5-.Ltext0
 3382 03f4 0200     		.2byte	0x2
 3383 03f6 7D       		.byte	0x7d
 3384 03f7 00       		.sleb128 0
 3385 03f8 32000000 		.4byte	.LCFI5-.Ltext0
 3386 03fc 34000000 		.4byte	.LCFI6-.Ltext0
 3387 0400 0200     		.2byte	0x2
 3388 0402 7D       		.byte	0x7d
 3389 0403 04       		.sleb128 4
 3390 0404 34000000 		.4byte	.LCFI6-.Ltext0
 3391 0408 36000000 		.4byte	.LCFI7-.Ltext0
 3392 040c 0200     		.2byte	0x2
 3393 040e 7D       		.byte	0x7d
 3394 040f 18       		.sleb128 24
 3395 0410 36000000 		.4byte	.LCFI7-.Ltext0
 3396 0414 54000000 		.4byte	.LCFI8-.Ltext0
 3397 0418 0200     		.2byte	0x2
 3398 041a 77       		.byte	0x77
 3399 041b 18       		.sleb128 24
 3400 041c 54000000 		.4byte	.LCFI8-.Ltext0
 3401 0420 56000000 		.4byte	.LCFI9-.Ltext0
ARM GAS  G:\Users\Jaxb\AppData\Local\Temp\ccR8gxz3.s 			page 68


 3402 0424 0200     		.2byte	0x2
 3403 0426 77       		.byte	0x77
 3404 0427 04       		.sleb128 4
 3405 0428 56000000 		.4byte	.LCFI9-.Ltext0
 3406 042c 58000000 		.4byte	.LCFI10-.Ltext0
 3407 0430 0200     		.2byte	0x2
 3408 0432 7D       		.byte	0x7d
 3409 0433 04       		.sleb128 4
 3410 0434 58000000 		.4byte	.LCFI10-.Ltext0
 3411 0438 5A000000 		.4byte	.LFE3-.Ltext0
 3412 043c 0200     		.2byte	0x2
 3413 043e 7D       		.byte	0x7d
 3414 043f 00       		.sleb128 0
 3415 0440 00000000 		.4byte	0
 3416 0444 00000000 		.4byte	0
 3417              	.LLST0:
 3418 0448 00000000 		.4byte	.LFB0-.Ltext0
 3419 044c 02000000 		.4byte	.LCFI0-.Ltext0
 3420 0450 0200     		.2byte	0x2
 3421 0452 7D       		.byte	0x7d
 3422 0453 00       		.sleb128 0
 3423 0454 02000000 		.4byte	.LCFI0-.Ltext0
 3424 0458 04000000 		.4byte	.LCFI1-.Ltext0
 3425 045c 0200     		.2byte	0x2
 3426 045e 7D       		.byte	0x7d
 3427 045f 08       		.sleb128 8
 3428 0460 04000000 		.4byte	.LCFI1-.Ltext0
 3429 0464 06000000 		.4byte	.LCFI2-.Ltext0
 3430 0468 0200     		.2byte	0x2
 3431 046a 7D       		.byte	0x7d
 3432 046b 18       		.sleb128 24
 3433 046c 06000000 		.4byte	.LCFI2-.Ltext0
 3434 0470 2C000000 		.4byte	.LCFI3-.Ltext0
 3435 0474 0200     		.2byte	0x2
 3436 0476 77       		.byte	0x77
 3437 0477 18       		.sleb128 24
 3438 0478 2C000000 		.4byte	.LCFI3-.Ltext0
 3439 047c 2E000000 		.4byte	.LCFI4-.Ltext0
 3440 0480 0200     		.2byte	0x2
 3441 0482 77       		.byte	0x77
 3442 0483 08       		.sleb128 8
 3443 0484 2E000000 		.4byte	.LCFI4-.Ltext0
 3444 0488 30000000 		.4byte	.LFE0-.Ltext0
 3445 048c 0200     		.2byte	0x2
 3446 048e 7D       		.byte	0x7d
 3447 048f 08       		.sleb128 8
 3448 0490 00000000 		.4byte	0
 3449 0494 00000000 		.4byte	0
 3450              		.section	.debug_aranges,"",%progbits
 3451 0000 1C000000 		.4byte	0x1c
 3452 0004 0200     		.2byte	0x2
 3453 0006 00000000 		.4byte	.Ldebug_info0
 3454 000a 04       		.byte	0x4
 3455 000b 00       		.byte	0
 3456 000c 0000     		.2byte	0
 3457 000e 0000     		.2byte	0
 3458 0010 00000000 		.4byte	.Ltext0
ARM GAS  G:\Users\Jaxb\AppData\Local\Temp\ccR8gxz3.s 			page 69


 3459 0014 74050000 		.4byte	.Letext0-.Ltext0
 3460 0018 00000000 		.4byte	0
 3461 001c 00000000 		.4byte	0
 3462              		.section	.debug_line,"",%progbits
 3463              	.Ldebug_line0:
 3464 0000 63020000 		.section	.debug_str,"MS",%progbits,1
 3464      02005B01 
 3464      00000201 
 3464      FB0E0D00 
 3464      01010101 
 3465              	.LASF56:
 3466 0000 5F5F7274 		.ascii	"__rtmsym_timer_init\000"
 3466      6D73796D 
 3466      5F74696D 
 3466      65725F69 
 3466      6E697400 
 3467              	.LASF41:
 3468 0014 53544154 		.ascii	"STATE_SUSPEND_NORMAL\000"
 3468      455F5355 
 3468      5350454E 
 3468      445F4E4F 
 3468      524D414C 
 3469              	.LASF90:
 3470 0029 5F5F696E 		.ascii	"__init_timer\000"
 3470      69745F74 
 3470      696D6572 
 3470      00
 3471              	.LASF64:
 3472 0036 5F5F7274 		.ascii	"__rtmsym_timer_delete\000"
 3472      6D73796D 
 3472      5F74696D 
 3472      65725F64 
 3472      656C6574 
 3473              	.LASF55:
 3474 004c 5F5F7274 		.ascii	"__rtmsym_timer_init_name\000"
 3474      6D73796D 
 3474      5F74696D 
 3474      65725F69 
 3474      6E69745F 
 3475              	.LASF60:
 3476 0065 5F5F7274 		.ascii	"__rtmsym_timer_enable\000"
 3476      6D73796D 
 3476      5F74696D 
 3476      65725F65 
 3476      6E61626C 
 3477              	.LASF19:
 3478 007b 73746174 		.ascii	"state\000"
 3478      6500
 3479              	.LASF30:
 3480 0081 6D61785F 		.ascii	"max_len\000"
 3480      6C656E00 
 3481              	.LASF1:
 3482 0089 73686F72 		.ascii	"short int\000"
 3482      7420696E 
 3482      7400
 3483              	.LASF43:
 3484 0093 53544154 		.ascii	"STATE_WAIT_MCB_TIMEOUT\000"
ARM GAS  G:\Users\Jaxb\AppData\Local\Temp\ccR8gxz3.s 			page 70


 3484      455F5741 
 3484      49545F4D 
 3484      43425F54 
 3484      494D454F 
 3485              	.LASF85:
 3486 00aa 64617461 		.ascii	"data_store_ptr\000"
 3486      5F73746F 
 3486      72655F70 
 3486      747200
 3487              	.LASF13:
 3488 00b9 54696D65 		.ascii	"Timer_Type\000"
 3488      725F5479 
 3488      706500
 3489              	.LASF76:
 3490 00c4 74696D65 		.ascii	"timer_create\000"
 3490      725F6372 
 3490      65617465 
 3490      00
 3491              	.LASF80:
 3492 00d1 696E6465 		.ascii	"index1\000"
 3492      783100
 3493              	.LASF81:
 3494 00d8 696E6465 		.ascii	"index2\000"
 3494      783200
 3495              	.LASF44:
 3496 00df 53544154 		.ascii	"STATE_WAIT_MESSAGE_QUEUE_FOREVER\000"
 3496      455F5741 
 3496      49545F4D 
 3496      45535341 
 3496      47455F51 
 3497              	.LASF84:
 3498 0100 64617461 		.ascii	"data_add_ptr\000"
 3498      5F616464 
 3498      5F707472 
 3498      00
 3499              	.LASF21:
 3500 010d 74696D65 		.ascii	"timer_name\000"
 3500      725F6E61 
 3500      6D6500
 3501              	.LASF37:
 3502 0118 696E6465 		.ascii	"index_change_record\000"
 3502      785F6368 
 3502      616E6765 
 3502      5F726563 
 3502      6F726400 
 3503              	.LASF38:
 3504 012c 5461736B 		.ascii	"Task_State\000"
 3504      5F537461 
 3504      746500
 3505              	.LASF46:
 3506 0137 53544154 		.ascii	"STATE_PUT_MESSAGE_QUEUE_FOREVER\000"
 3506      455F5055 
 3506      545F4D45 
 3506      53534147 
 3506      455F5155 
 3507              	.LASF51:
 3508 0157 6B615F6D 		.ascii	"ka_module_symtab\000"
ARM GAS  G:\Users\Jaxb\AppData\Local\Temp\ccR8gxz3.s 			page 71


 3508      6F64756C 
 3508      655F7379 
 3508      6D746162 
 3508      00
 3509              	.LASF79:
 3510 0168 696E6465 		.ascii	"index\000"
 3510      7800
 3511              	.LASF27:
 3512 016e 74696D65 		.ascii	"timer\000"
 3512      7200
 3513              	.LASF28:
 3514 0174 76656374 		.ascii	"vector\000"
 3514      6F7200
 3515              	.LASF29:
 3516 017b 64617461 		.ascii	"data_ptr\000"
 3516      5F707472 
 3516      00
 3517              	.LASF22:
 3518 0184 70617261 		.ascii	"para\000"
 3518      00
 3519              	.LASF15:
 3520 0189 44495341 		.ascii	"DISABLE\000"
 3520      424C4500 
 3521              	.LASF57:
 3522 0191 5F5F7274 		.ascii	"__rtmsym_timer_create_name\000"
 3522      6D73796D 
 3522      5F74696D 
 3522      65725F63 
 3522      72656174 
 3523              	.LASF25:
 3524 01ac 77616B65 		.ascii	"wake_time\000"
 3524      5F74696D 
 3524      6500
 3525              	.LASF45:
 3526 01b6 53544154 		.ascii	"STATE_WAIT_MESSAGE_QUEUE_TIMEOUT\000"
 3526      455F5741 
 3526      49545F4D 
 3526      45535341 
 3526      47455F51 
 3527              	.LASF88:
 3528 01d7 463A5C6B 		.ascii	"F:\\kaka\\KAKAOS\\C\\windows\\Project\\RVMDK\243\250"
 3528      616B615C 
 3528      4B414B41 
 3528      4F535C43 
 3528      5C77696E 
 3529 01ff 757635A3 		.ascii	"uv5\243\251\000"
 3529      A900
 3530              	.LASF2:
 3531 0205 6C6F6E67 		.ascii	"long long int\000"
 3531      206C6F6E 
 3531      6720696E 
 3531      7400
 3532              	.LASF71:
 3533 0213 5F74696D 		.ascii	"_timer_delete\000"
 3533      65725F64 
 3533      656C6574 
 3533      6500
ARM GAS  G:\Users\Jaxb\AppData\Local\Temp\ccR8gxz3.s 			page 72


 3534              	.LASF89:
 3535 0221 74696D65 		.ascii	"timer_task\000"
 3535      725F7461 
 3535      736B00
 3536              	.LASF63:
 3537 022c 5F5F7274 		.ascii	"__rtmsym_timer_delete_name\000"
 3537      6D73796D 
 3537      5F74696D 
 3537      65725F64 
 3537      656C6574 
 3538              	.LASF26:
 3539 0247 63686172 		.ascii	"char\000"
 3539      00
 3540              	.LASF77:
 3541 024c 74696D65 		.ascii	"timer_init\000"
 3541      725F696E 
 3541      697400
 3542              	.LASF67:
 3543 0257 74696D65 		.ascii	"timer_ptr\000"
 3543      725F7074 
 3543      7200
 3544              	.LASF52:
 3545 0261 61646472 		.ascii	"addr\000"
 3545      00
 3546              	.LASF23:
 3547 0266 70657269 		.ascii	"period\000"
 3547      6F6400
 3548              	.LASF31:
 3549 026d 6375725F 		.ascii	"cur_len\000"
 3549      6C656E00 
 3550              	.LASF91:
 3551 0275 56656374 		.ascii	"Vector_get_index_data\000"
 3551      6F725F67 
 3551      65745F69 
 3551      6E646578 
 3551      5F646174 
 3552              	.LASF53:
 3553 028b 6E616D65 		.ascii	"name\000"
 3553      00
 3554              	.LASF82:
 3555 0290 56656374 		.ascii	"Vector_get_index_address\000"
 3555      6F725F67 
 3555      65745F69 
 3555      6E646578 
 3555      5F616464 
 3556              	.LASF73:
 3557 02a9 5F74696D 		.ascii	"_timer_disable\000"
 3557      65725F64 
 3557      69736162 
 3557      6C6500
 3558              	.LASF34:
 3559 02b8 56656374 		.ascii	"Vector\000"
 3559      6F7200
 3560              	.LASF69:
 3561 02bf 5F676574 		.ascii	"_get_timer_heap_top\000"
 3561      5F74696D 
 3561      65725F68 
ARM GAS  G:\Users\Jaxb\AppData\Local\Temp\ccR8gxz3.s 			page 73


 3561      6561705F 
 3561      746F7000 
 3562              	.LASF3:
 3563 02d3 756E7369 		.ascii	"unsigned char\000"
 3563      676E6564 
 3563      20636861 
 3563      7200
 3564              	.LASF40:
 3565 02e1 53544154 		.ascii	"STATE_DELAY\000"
 3565      455F4445 
 3565      4C415900 
 3566              	.LASF83:
 3567 02ed 76656374 		.ascii	"vector_ptr\000"
 3567      6F725F70 
 3567      747200
 3568              	.LASF0:
 3569 02f8 7369676E 		.ascii	"signed char\000"
 3569      65642063 
 3569      68617200 
 3570              	.LASF8:
 3571 0304 6C6F6E67 		.ascii	"long long unsigned int\000"
 3571      206C6F6E 
 3571      6720756E 
 3571      7369676E 
 3571      65642069 
 3572              	.LASF18:
 3573 031b 74797065 		.ascii	"type\000"
 3573      00
 3574              	.LASF5:
 3575 0320 756E7369 		.ascii	"unsigned int\000"
 3575      676E6564 
 3575      20696E74 
 3575      00
 3576              	.LASF9:
 3577 032d 54494D45 		.ascii	"TIMER_ONE_TIME\000"
 3577      525F4F4E 
 3577      455F5449 
 3577      4D4500
 3578              	.LASF62:
 3579 033c 5F5F7274 		.ascii	"__rtmsym_timer_disable\000"
 3579      6D73796D 
 3579      5F74696D 
 3579      65725F64 
 3579      69736162 
 3580              	.LASF78:
 3581 0353 56656374 		.ascii	"Vector_ptr\000"
 3581      6F725F70 
 3581      747200
 3582              	.LASF72:
 3583 035e 74696D65 		.ascii	"timer_disable\000"
 3583      725F6469 
 3583      7361626C 
 3583      6500
 3584              	.LASF59:
 3585 036c 5F5F7274 		.ascii	"__rtmsym_timer_enable_name\000"
 3585      6D73796D 
 3585      5F74696D 
ARM GAS  G:\Users\Jaxb\AppData\Local\Temp\ccR8gxz3.s 			page 74


 3585      65725F65 
 3585      6E61626C 
 3586              	.LASF4:
 3587 0387 73686F72 		.ascii	"short unsigned int\000"
 3587      7420756E 
 3587      7369676E 
 3587      65642069 
 3587      6E7400
 3588              	.LASF39:
 3589 039a 53544154 		.ascii	"STATE_READY\000"
 3589      455F5245 
 3589      41445900 
 3590              	.LASF24:
 3591 03a6 68656170 		.ascii	"heap_position_index\000"
 3591      5F706F73 
 3591      6974696F 
 3591      6E5F696E 
 3591      64657800 
 3592              	.LASF70:
 3593 03ba 74696D65 		.ascii	"timer_delete\000"
 3593      725F6465 
 3593      6C657465 
 3593      00
 3594              	.LASF74:
 3595 03c7 74696D65 		.ascii	"timer_enable\000"
 3595      725F656E 
 3595      61626C65 
 3595      00
 3596              	.LASF33:
 3597 03d4 65787465 		.ascii	"extension_factor\000"
 3597      6E73696F 
 3597      6E5F6661 
 3597      63746F72 
 3597      00
 3598              	.LASF47:
 3599 03e5 53544154 		.ascii	"STATE_PUT_MESSAGE_QUEUE_TIMEOUT\000"
 3599      455F5055 
 3599      545F4D45 
 3599      53534147 
 3599      455F5155 
 3600              	.LASF20:
 3601 0405 72657374 		.ascii	"rest_num\000"
 3601      5F6E756D 
 3601      00
 3602              	.LASF49:
 3603 040e 4350555F 		.ascii	"CPU_INT32U\000"
 3603      494E5433 
 3603      325500
 3604              	.LASF36:
 3605 0419 64617461 		.ascii	"data\000"
 3605      00
 3606              	.LASF17:
 3607 041e 54494D45 		.ascii	"TIMER_STATE\000"
 3607      525F5354 
 3607      41544500 
 3608              	.LASF61:
 3609 042a 5F5F7274 		.ascii	"__rtmsym_timer_disable_name\000"
ARM GAS  G:\Users\Jaxb\AppData\Local\Temp\ccR8gxz3.s 			page 75


 3609      6D73796D 
 3609      5F74696D 
 3609      65725F64 
 3609      69736162 
 3610              	.LASF35:
 3611 0446 6C697474 		.ascii	"little_heap\000"
 3611      6C655F68 
 3611      65617000 
 3612              	.LASF32:
 3613 0452 64617461 		.ascii	"data_size\000"
 3613      5F73697A 
 3613      6500
 3614              	.LASF6:
 3615 045c 494E5436 		.ascii	"INT64\000"
 3615      3400
 3616              	.LASF58:
 3617 0462 5F5F7274 		.ascii	"__rtmsym_timer_create\000"
 3617      6D73796D 
 3617      5F74696D 
 3617      65725F63 
 3617      72656174 
 3618              	.LASF42:
 3619 0478 53544154 		.ascii	"STATE_WAIT_MCB_FOREVER\000"
 3619      455F5741 
 3619      49545F4D 
 3619      43425F46 
 3619      4F524556 
 3620              	.LASF14:
 3621 048f 54696D65 		.ascii	"Timer_State\000"
 3621      725F5374 
 3621      61746500 
 3622              	.LASF12:
 3623 049b 54494D45 		.ascii	"TIMER_TYPE\000"
 3623      525F5459 
 3623      504500
 3624              	.LASF75:
 3625 04a6 5F74696D 		.ascii	"_timer_enable\000"
 3625      65725F65 
 3625      6E61626C 
 3625      6500
 3626              	.LASF54:
 3627 04b4 675F696E 		.ascii	"g_interrupt_count\000"
 3627      74657272 
 3627      7570745F 
 3627      636F756E 
 3627      7400
 3628              	.LASF11:
 3629 04c6 54494D45 		.ascii	"TIMER_TIME\000"
 3629      525F5449 
 3629      4D4500
 3630              	.LASF86:
 3631 04d1 474E5520 		.ascii	"GNU C11 7.3.1 20180622 (release) [ARM/embedded-7-br"
 3631      43313120 
 3631      372E332E 
 3631      31203230 
 3631      31383036 
 3632 0504 616E6368 		.ascii	"anch revision 261907] -mcpu=cortex-m3 -mthumb -mapc"
ARM GAS  G:\Users\Jaxb\AppData\Local\Temp\ccR8gxz3.s 			page 76


 3632      20726576 
 3632      6973696F 
 3632      6E203236 
 3632      31393037 
 3633 0537 732D6672 		.ascii	"s-frame -mthumb-interwork -mcpu=cortex-m3 -mthumb -"
 3633      616D6520 
 3633      2D6D7468 
 3633      756D622D 
 3633      696E7465 
 3634 056a 67647761 		.ascii	"gdwarf-2 -O0\000"
 3634      72662D32 
 3634      202D4F30 
 3634      00
 3635              	.LASF68:
 3636 0577 6370755F 		.ascii	"cpu_sr\000"
 3636      737200
 3637              	.LASF48:
 3638 057e 53544154 		.ascii	"STATE_WAIT_MUTEX_FOREVER\000"
 3638      455F5741 
 3638      49545F4D 
 3638      55544558 
 3638      5F464F52 
 3639              	.LASF50:
 3640 0597 4350555F 		.ascii	"CPU_SR\000"
 3640      535200
 3641              	.LASF66:
 3642 059e 7469636B 		.ascii	"tick\000"
 3642      00
 3643              	.LASF7:
 3644 05a3 55494E54 		.ascii	"UINT64\000"
 3644      363400
 3645              	.LASF87:
 3646 05aa 2E2E2F2E 		.ascii	"../../source/src/kernel/OS_CORE/time/os_timer.c\000"
 3646      2E2F736F 
 3646      75726365 
 3646      2F737263 
 3646      2F6B6572 
 3647              	.LASF16:
 3648 05da 454E4142 		.ascii	"ENABLE\000"
 3648      4C4500
 3649              	.LASF65:
 3650 05e1 74696D65 		.ascii	"timer_heap\000"
 3650      725F6865 
 3650      617000
 3651              	.LASF10:
 3652 05ec 54494D45 		.ascii	"TIMER_PERIODIC\000"
 3652      525F5045 
 3652      52494F44 
 3652      494300
 3653              		.ident	"GCC: (GNU Tools for Arm Embedded Processors 7-2018-q2-update) 7.3.1 20180622 (release) [AR
ARM GAS  G:\Users\Jaxb\AppData\Local\Temp\ccR8gxz3.s 			page 77


DEFINED SYMBOLS
                            *ABS*:00000000 os_timer.c
G:\Users\Jaxb\AppData\Local\Temp\ccR8gxz3.s:15     .text:00000000 $t
G:\Users\Jaxb\AppData\Local\Temp\ccR8gxz3.s:21     .text:00000000 Vector_get_index_data
G:\Users\Jaxb\AppData\Local\Temp\ccR8gxz3.s:74     .text:00000030 Vector_get_index_address
G:\Users\Jaxb\AppData\Local\Temp\ccR8gxz3.s:122    .bss:00000000 $d
G:\Users\Jaxb\AppData\Local\Temp\ccR8gxz3.s:123    .bss:00000000 timer_heap
G:\Users\Jaxb\AppData\Local\Temp\ccR8gxz3.s:133    .text:0000005a cmp
G:\Users\Jaxb\AppData\Local\Temp\ccR8gxz3.s:238    .text:00000102 index_change_record
G:\Users\Jaxb\AppData\Local\Temp\ccR8gxz3.s:281    .rodata:00000000 $d
G:\Users\Jaxb\AppData\Local\Temp\ccR8gxz3.s:292    .text:00000128 __init_timer
G:\Users\Jaxb\AppData\Local\Temp\ccR8gxz3.s:337    .text:00000154 $d
G:\Users\Jaxb\AppData\Local\Temp\ccR8gxz3.s:361    .text:00000164 $t
G:\Users\Jaxb\AppData\Local\Temp\ccR8gxz3.s:368    .text:00000164 timer_init
G:\Users\Jaxb\AppData\Local\Temp\ccR8gxz3.s:487    .text:000001fc $d
G:\Users\Jaxb\AppData\Local\Temp\ccR8gxz3.s:500    .rodata.name:00000000 __rtmsym_timer_init_name
G:\Users\Jaxb\AppData\Local\Temp\ccR8gxz3.s:497    .rodata.name:00000000 $d
G:\Users\Jaxb\AppData\Local\Temp\ccR8gxz3.s:507    .RTMSymTab:00000000 __rtmsym_timer_init
G:\Users\Jaxb\AppData\Local\Temp\ccR8gxz3.s:504    .RTMSymTab:00000000 $d
G:\Users\Jaxb\AppData\Local\Temp\ccR8gxz3.s:511    .text:00000210 $t
G:\Users\Jaxb\AppData\Local\Temp\ccR8gxz3.s:518    .text:00000210 timer_create
G:\Users\Jaxb\AppData\Local\Temp\ccR8gxz3.s:599    .rodata.name:0000000c __rtmsym_timer_create_name
G:\Users\Jaxb\AppData\Local\Temp\ccR8gxz3.s:606    .RTMSymTab:00000008 __rtmsym_timer_create
G:\Users\Jaxb\AppData\Local\Temp\ccR8gxz3.s:617    .text:0000026c _timer_enable
G:\Users\Jaxb\AppData\Local\Temp\ccR8gxz3.s:695    .text:000002d8 $d
G:\Users\Jaxb\AppData\Local\Temp\ccR8gxz3.s:706    .text:000002e0 $t
G:\Users\Jaxb\AppData\Local\Temp\ccR8gxz3.s:713    .text:000002e0 timer_enable
G:\Users\Jaxb\AppData\Local\Temp\ccR8gxz3.s:760    .text:0000030c $d
G:\Users\Jaxb\AppData\Local\Temp\ccR8gxz3.s:769    .rodata.name:0000001c __rtmsym_timer_enable_name
G:\Users\Jaxb\AppData\Local\Temp\ccR8gxz3.s:776    .RTMSymTab:00000010 __rtmsym_timer_enable
G:\Users\Jaxb\AppData\Local\Temp\ccR8gxz3.s:780    .text:00000310 $t
G:\Users\Jaxb\AppData\Local\Temp\ccR8gxz3.s:787    .text:00000310 _timer_disable
G:\Users\Jaxb\AppData\Local\Temp\ccR8gxz3.s:862    .text:00000368 $d
G:\Users\Jaxb\AppData\Local\Temp\ccR8gxz3.s:873    .text:00000370 $t
G:\Users\Jaxb\AppData\Local\Temp\ccR8gxz3.s:880    .text:00000370 timer_disable
G:\Users\Jaxb\AppData\Local\Temp\ccR8gxz3.s:927    .text:0000039c $d
G:\Users\Jaxb\AppData\Local\Temp\ccR8gxz3.s:936    .rodata.name:0000002c __rtmsym_timer_disable_name
G:\Users\Jaxb\AppData\Local\Temp\ccR8gxz3.s:943    .RTMSymTab:00000018 __rtmsym_timer_disable
G:\Users\Jaxb\AppData\Local\Temp\ccR8gxz3.s:947    .text:000003a0 $t
G:\Users\Jaxb\AppData\Local\Temp\ccR8gxz3.s:954    .text:000003a0 _timer_delete
G:\Users\Jaxb\AppData\Local\Temp\ccR8gxz3.s:1023   .text:000003ec $d
G:\Users\Jaxb\AppData\Local\Temp\ccR8gxz3.s:1033   .text:000003f0 $t
G:\Users\Jaxb\AppData\Local\Temp\ccR8gxz3.s:1040   .text:000003f0 timer_delete
G:\Users\Jaxb\AppData\Local\Temp\ccR8gxz3.s:1087   .text:0000041c $d
G:\Users\Jaxb\AppData\Local\Temp\ccR8gxz3.s:1096   .rodata.name:0000003c __rtmsym_timer_delete_name
G:\Users\Jaxb\AppData\Local\Temp\ccR8gxz3.s:1103   .RTMSymTab:00000020 __rtmsym_timer_delete
G:\Users\Jaxb\AppData\Local\Temp\ccR8gxz3.s:1107   .text:00000420 $t
G:\Users\Jaxb\AppData\Local\Temp\ccR8gxz3.s:1114   .text:00000420 _get_timer_heap_top
G:\Users\Jaxb\AppData\Local\Temp\ccR8gxz3.s:1171   .text:0000045c $d
G:\Users\Jaxb\AppData\Local\Temp\ccR8gxz3.s:1176   .text:00000464 $t
G:\Users\Jaxb\AppData\Local\Temp\ccR8gxz3.s:1183   .text:00000464 timer_task
G:\Users\Jaxb\AppData\Local\Temp\ccR8gxz3.s:1342   .text:0000056c $d

UNDEFINED SYMBOLS
ka_memcpy
heap_init
ka_printf
ARM GAS  G:\Users\Jaxb\AppData\Local\Temp\ccR8gxz3.s 			page 78


_ASSERT
g_interrupt_count
ka_malloc
CPU_SR_Save
_get_tick
heap_push
CPU_SR_Restore
heap_remove_index_data
ka_free
heap_get_index_data_safe
sys_suspend
get_tick
