ARM GAS  G:\Users\Jaxb\AppData\Local\Temp\ccKoN8kJ.s 			page 1


   1              		.cpu cortex-m3
   2              		.eabi_attribute 20, 1
   3              		.eabi_attribute 21, 1
   4              		.eabi_attribute 23, 3
   5              		.eabi_attribute 24, 1
   6              		.eabi_attribute 25, 1
   7              		.eabi_attribute 26, 1
   8              		.eabi_attribute 30, 6
   9              		.eabi_attribute 34, 1
  10              		.eabi_attribute 18, 4
  11              		.file	"os_TCB_list.c"
  12              		.text
  13              	.Ltext0:
  14              		.cfi_sections	.debug_frame
  15              		.align	1
  16              		.syntax unified
  17              		.thumb
  18              		.thumb_func
  19              		.fpu softvfp
  20              		.type	INIT_LIST_HEAD, %function
  21              	INIT_LIST_HEAD:
  22              	.LFB0:
  23              		.file 1 "../../source/include/os_lib/double_linked_list.h"
   1:../../source/include/os_lib/double_linked_list.h **** #ifndef _DOUBLE_LINKED_LIST_H
   2:../../source/include/os_lib/double_linked_list.h **** #define _DOUBLE_LINKED_LIST_H
   3:../../source/include/os_lib/double_linked_list.h **** 
   4:../../source/include/os_lib/double_linked_list.h **** struct list_head {
   5:../../source/include/os_lib/double_linked_list.h ****     struct list_head *next, *prev;
   6:../../source/include/os_lib/double_linked_list.h **** };
   7:../../source/include/os_lib/double_linked_list.h **** 
   8:../../source/include/os_lib/double_linked_list.h **** 
   9:../../source/include/os_lib/double_linked_list.h **** #define LIST_HEAD_INIT(name) { &(name), &(name) }
  10:../../source/include/os_lib/double_linked_list.h **** 
  11:../../source/include/os_lib/double_linked_list.h **** 
  12:../../source/include/os_lib/double_linked_list.h **** #define LIST_HEAD(name) \
  13:../../source/include/os_lib/double_linked_list.h ****     struct list_head name = LIST_HEAD_INIT(name)
  14:../../source/include/os_lib/double_linked_list.h **** 
  15:../../source/include/os_lib/double_linked_list.h **** 
  16:../../source/include/os_lib/double_linked_list.h **** static inline void INIT_LIST_HEAD(struct list_head *list)
  17:../../source/include/os_lib/double_linked_list.h **** {
  24              		.loc 1 17 0
  25              		.cfi_startproc
  26              		@ args = 0, pretend = 0, frame = 8
  27              		@ frame_needed = 1, uses_anonymous_args = 0
  28              		@ link register save eliminated.
  29 0000 80B4     		push	{r7}
  30              	.LCFI0:
  31              		.cfi_def_cfa_offset 4
  32              		.cfi_offset 7, -4
  33 0002 83B0     		sub	sp, sp, #12
  34              	.LCFI1:
  35              		.cfi_def_cfa_offset 16
  36 0004 00AF     		add	r7, sp, #0
  37              	.LCFI2:
  38              		.cfi_def_cfa_register 7
  39 0006 7860     		str	r0, [r7, #4]
  18:../../source/include/os_lib/double_linked_list.h ****     list->next = list;
ARM GAS  G:\Users\Jaxb\AppData\Local\Temp\ccKoN8kJ.s 			page 2


  40              		.loc 1 18 0
  41 0008 7B68     		ldr	r3, [r7, #4]
  42 000a 7A68     		ldr	r2, [r7, #4]
  43 000c 1A60     		str	r2, [r3]
  19:../../source/include/os_lib/double_linked_list.h ****     list->prev = list;
  44              		.loc 1 19 0
  45 000e 7B68     		ldr	r3, [r7, #4]
  46 0010 7A68     		ldr	r2, [r7, #4]
  47 0012 5A60     		str	r2, [r3, #4]
  20:../../source/include/os_lib/double_linked_list.h **** }
  48              		.loc 1 20 0
  49 0014 00BF     		nop
  50 0016 0C37     		adds	r7, r7, #12
  51              	.LCFI3:
  52              		.cfi_def_cfa_offset 4
  53 0018 BD46     		mov	sp, r7
  54              	.LCFI4:
  55              		.cfi_def_cfa_register 13
  56              		@ sp needed
  57 001a 80BC     		pop	{r7}
  58              	.LCFI5:
  59              		.cfi_restore 7
  60              		.cfi_def_cfa_offset 0
  61 001c 7047     		bx	lr
  62              		.cfi_endproc
  63              	.LFE0:
  64              		.size	INIT_LIST_HEAD, .-INIT_LIST_HEAD
  65              		.align	1
  66              		.syntax unified
  67              		.thumb
  68              		.thumb_func
  69              		.fpu softvfp
  70              		.type	__list_add, %function
  71              	__list_add:
  72              	.LFB1:
  21:../../source/include/os_lib/double_linked_list.h **** 
  22:../../source/include/os_lib/double_linked_list.h **** 
  23:../../source/include/os_lib/double_linked_list.h **** static inline void __list_add(struct list_head *new,
  24:../../source/include/os_lib/double_linked_list.h ****                   struct list_head *prev,
  25:../../source/include/os_lib/double_linked_list.h ****                   struct list_head *next)
  26:../../source/include/os_lib/double_linked_list.h **** {
  73              		.loc 1 26 0
  74              		.cfi_startproc
  75              		@ args = 0, pretend = 0, frame = 16
  76              		@ frame_needed = 1, uses_anonymous_args = 0
  77              		@ link register save eliminated.
  78 001e 80B4     		push	{r7}
  79              	.LCFI6:
  80              		.cfi_def_cfa_offset 4
  81              		.cfi_offset 7, -4
  82 0020 85B0     		sub	sp, sp, #20
  83              	.LCFI7:
  84              		.cfi_def_cfa_offset 24
  85 0022 00AF     		add	r7, sp, #0
  86              	.LCFI8:
  87              		.cfi_def_cfa_register 7
  88 0024 F860     		str	r0, [r7, #12]
ARM GAS  G:\Users\Jaxb\AppData\Local\Temp\ccKoN8kJ.s 			page 3


  89 0026 B960     		str	r1, [r7, #8]
  90 0028 7A60     		str	r2, [r7, #4]
  27:../../source/include/os_lib/double_linked_list.h ****     next->prev = new;
  91              		.loc 1 27 0
  92 002a 7B68     		ldr	r3, [r7, #4]
  93 002c FA68     		ldr	r2, [r7, #12]
  94 002e 5A60     		str	r2, [r3, #4]
  28:../../source/include/os_lib/double_linked_list.h ****     new->next = next;
  95              		.loc 1 28 0
  96 0030 FB68     		ldr	r3, [r7, #12]
  97 0032 7A68     		ldr	r2, [r7, #4]
  98 0034 1A60     		str	r2, [r3]
  29:../../source/include/os_lib/double_linked_list.h ****     new->prev = prev;
  99              		.loc 1 29 0
 100 0036 FB68     		ldr	r3, [r7, #12]
 101 0038 BA68     		ldr	r2, [r7, #8]
 102 003a 5A60     		str	r2, [r3, #4]
  30:../../source/include/os_lib/double_linked_list.h ****     prev->next = new;
 103              		.loc 1 30 0
 104 003c BB68     		ldr	r3, [r7, #8]
 105 003e FA68     		ldr	r2, [r7, #12]
 106 0040 1A60     		str	r2, [r3]
  31:../../source/include/os_lib/double_linked_list.h **** }
 107              		.loc 1 31 0
 108 0042 00BF     		nop
 109 0044 1437     		adds	r7, r7, #20
 110              	.LCFI9:
 111              		.cfi_def_cfa_offset 4
 112 0046 BD46     		mov	sp, r7
 113              	.LCFI10:
 114              		.cfi_def_cfa_register 13
 115              		@ sp needed
 116 0048 80BC     		pop	{r7}
 117              	.LCFI11:
 118              		.cfi_restore 7
 119              		.cfi_def_cfa_offset 0
 120 004a 7047     		bx	lr
 121              		.cfi_endproc
 122              	.LFE1:
 123              		.size	__list_add, .-__list_add
 124              		.align	1
 125              		.syntax unified
 126              		.thumb
 127              		.thumb_func
 128              		.fpu softvfp
 129              		.type	list_add, %function
 130              	list_add:
 131              	.LFB2:
  32:../../source/include/os_lib/double_linked_list.h **** 
  33:../../source/include/os_lib/double_linked_list.h **** 
  34:../../source/include/os_lib/double_linked_list.h **** static inline void list_add(struct list_head *new, struct list_head *head)
  35:../../source/include/os_lib/double_linked_list.h **** {
 132              		.loc 1 35 0
 133              		.cfi_startproc
 134              		@ args = 0, pretend = 0, frame = 8
 135              		@ frame_needed = 1, uses_anonymous_args = 0
 136 004c 80B5     		push	{r7, lr}
ARM GAS  G:\Users\Jaxb\AppData\Local\Temp\ccKoN8kJ.s 			page 4


 137              	.LCFI12:
 138              		.cfi_def_cfa_offset 8
 139              		.cfi_offset 7, -8
 140              		.cfi_offset 14, -4
 141 004e 82B0     		sub	sp, sp, #8
 142              	.LCFI13:
 143              		.cfi_def_cfa_offset 16
 144 0050 00AF     		add	r7, sp, #0
 145              	.LCFI14:
 146              		.cfi_def_cfa_register 7
 147 0052 7860     		str	r0, [r7, #4]
 148 0054 3960     		str	r1, [r7]
  36:../../source/include/os_lib/double_linked_list.h ****     __list_add(new, head, head->next);
 149              		.loc 1 36 0
 150 0056 3B68     		ldr	r3, [r7]
 151 0058 1B68     		ldr	r3, [r3]
 152 005a 1A46     		mov	r2, r3
 153 005c 3968     		ldr	r1, [r7]
 154 005e 7868     		ldr	r0, [r7, #4]
 155 0060 FFF7DDFF 		bl	__list_add
  37:../../source/include/os_lib/double_linked_list.h **** }
 156              		.loc 1 37 0
 157 0064 00BF     		nop
 158 0066 0837     		adds	r7, r7, #8
 159              	.LCFI15:
 160              		.cfi_def_cfa_offset 8
 161 0068 BD46     		mov	sp, r7
 162              	.LCFI16:
 163              		.cfi_def_cfa_register 13
 164              		@ sp needed
 165 006a 80BD     		pop	{r7, pc}
 166              		.cfi_endproc
 167              	.LFE2:
 168              		.size	list_add, .-list_add
 169              		.align	1
 170              		.syntax unified
 171              		.thumb
 172              		.thumb_func
 173              		.fpu softvfp
 174              		.type	__list_del, %function
 175              	__list_del:
 176              	.LFB4:
  38:../../source/include/os_lib/double_linked_list.h **** 
  39:../../source/include/os_lib/double_linked_list.h **** 
  40:../../source/include/os_lib/double_linked_list.h **** static inline void list_add_tail(struct list_head *new, struct list_head *head)
  41:../../source/include/os_lib/double_linked_list.h **** {
  42:../../source/include/os_lib/double_linked_list.h ****     __list_add(new, head->prev, head);
  43:../../source/include/os_lib/double_linked_list.h **** }
  44:../../source/include/os_lib/double_linked_list.h **** 
  45:../../source/include/os_lib/double_linked_list.h **** 
  46:../../source/include/os_lib/double_linked_list.h **** static inline void __list_del(struct list_head * prev, struct list_head * next)
  47:../../source/include/os_lib/double_linked_list.h **** {
 177              		.loc 1 47 0
 178              		.cfi_startproc
 179              		@ args = 0, pretend = 0, frame = 8
 180              		@ frame_needed = 1, uses_anonymous_args = 0
 181              		@ link register save eliminated.
ARM GAS  G:\Users\Jaxb\AppData\Local\Temp\ccKoN8kJ.s 			page 5


 182 006c 80B4     		push	{r7}
 183              	.LCFI17:
 184              		.cfi_def_cfa_offset 4
 185              		.cfi_offset 7, -4
 186 006e 83B0     		sub	sp, sp, #12
 187              	.LCFI18:
 188              		.cfi_def_cfa_offset 16
 189 0070 00AF     		add	r7, sp, #0
 190              	.LCFI19:
 191              		.cfi_def_cfa_register 7
 192 0072 7860     		str	r0, [r7, #4]
 193 0074 3960     		str	r1, [r7]
  48:../../source/include/os_lib/double_linked_list.h ****     next->prev = prev;
 194              		.loc 1 48 0
 195 0076 3B68     		ldr	r3, [r7]
 196 0078 7A68     		ldr	r2, [r7, #4]
 197 007a 5A60     		str	r2, [r3, #4]
  49:../../source/include/os_lib/double_linked_list.h ****     prev->next = next;
 198              		.loc 1 49 0
 199 007c 7B68     		ldr	r3, [r7, #4]
 200 007e 3A68     		ldr	r2, [r7]
 201 0080 1A60     		str	r2, [r3]
  50:../../source/include/os_lib/double_linked_list.h **** }
 202              		.loc 1 50 0
 203 0082 00BF     		nop
 204 0084 0C37     		adds	r7, r7, #12
 205              	.LCFI20:
 206              		.cfi_def_cfa_offset 4
 207 0086 BD46     		mov	sp, r7
 208              	.LCFI21:
 209              		.cfi_def_cfa_register 13
 210              		@ sp needed
 211 0088 80BC     		pop	{r7}
 212              	.LCFI22:
 213              		.cfi_restore 7
 214              		.cfi_def_cfa_offset 0
 215 008a 7047     		bx	lr
 216              		.cfi_endproc
 217              	.LFE4:
 218              		.size	__list_del, .-__list_del
 219              		.align	1
 220              		.syntax unified
 221              		.thumb
 222              		.thumb_func
 223              		.fpu softvfp
 224              		.type	list_del, %function
 225              	list_del:
 226              	.LFB5:
  51:../../source/include/os_lib/double_linked_list.h **** 
  52:../../source/include/os_lib/double_linked_list.h **** 
  53:../../source/include/os_lib/double_linked_list.h **** static inline void list_del(struct list_head *entry)
  54:../../source/include/os_lib/double_linked_list.h **** {
 227              		.loc 1 54 0
 228              		.cfi_startproc
 229              		@ args = 0, pretend = 0, frame = 8
 230              		@ frame_needed = 1, uses_anonymous_args = 0
 231 008c 80B5     		push	{r7, lr}
ARM GAS  G:\Users\Jaxb\AppData\Local\Temp\ccKoN8kJ.s 			page 6


 232              	.LCFI23:
 233              		.cfi_def_cfa_offset 8
 234              		.cfi_offset 7, -8
 235              		.cfi_offset 14, -4
 236 008e 82B0     		sub	sp, sp, #8
 237              	.LCFI24:
 238              		.cfi_def_cfa_offset 16
 239 0090 00AF     		add	r7, sp, #0
 240              	.LCFI25:
 241              		.cfi_def_cfa_register 7
 242 0092 7860     		str	r0, [r7, #4]
  55:../../source/include/os_lib/double_linked_list.h ****     __list_del(entry->prev, entry->next);
 243              		.loc 1 55 0
 244 0094 7B68     		ldr	r3, [r7, #4]
 245 0096 5A68     		ldr	r2, [r3, #4]
 246 0098 7B68     		ldr	r3, [r7, #4]
 247 009a 1B68     		ldr	r3, [r3]
 248 009c 1946     		mov	r1, r3
 249 009e 1046     		mov	r0, r2
 250 00a0 FFF7E4FF 		bl	__list_del
  56:../../source/include/os_lib/double_linked_list.h **** }
 251              		.loc 1 56 0
 252 00a4 00BF     		nop
 253 00a6 0837     		adds	r7, r7, #8
 254              	.LCFI26:
 255              		.cfi_def_cfa_offset 8
 256 00a8 BD46     		mov	sp, r7
 257              	.LCFI27:
 258              		.cfi_def_cfa_register 13
 259              		@ sp needed
 260 00aa 80BD     		pop	{r7, pc}
 261              		.cfi_endproc
 262              	.LFE5:
 263              		.size	list_del, .-list_del
 264              		.align	1
 265              		.syntax unified
 266              		.thumb
 267              		.thumb_func
 268              		.fpu softvfp
 269              		.type	list_empty, %function
 270              	list_empty:
 271              	.LFB9:
  57:../../source/include/os_lib/double_linked_list.h **** 
  58:../../source/include/os_lib/double_linked_list.h **** 
  59:../../source/include/os_lib/double_linked_list.h **** static inline void __list_del_entry(struct list_head *entry)
  60:../../source/include/os_lib/double_linked_list.h **** {
  61:../../source/include/os_lib/double_linked_list.h ****     __list_del(entry->prev, entry->next);
  62:../../source/include/os_lib/double_linked_list.h **** }
  63:../../source/include/os_lib/double_linked_list.h **** 
  64:../../source/include/os_lib/double_linked_list.h **** 
  65:../../source/include/os_lib/double_linked_list.h **** static inline void list_del_init(struct list_head *entry)
  66:../../source/include/os_lib/double_linked_list.h **** {
  67:../../source/include/os_lib/double_linked_list.h ****     __list_del_entry(entry);
  68:../../source/include/os_lib/double_linked_list.h ****     INIT_LIST_HEAD(entry);
  69:../../source/include/os_lib/double_linked_list.h **** }
  70:../../source/include/os_lib/double_linked_list.h **** 
  71:../../source/include/os_lib/double_linked_list.h **** 
ARM GAS  G:\Users\Jaxb\AppData\Local\Temp\ccKoN8kJ.s 			page 7


  72:../../source/include/os_lib/double_linked_list.h **** static inline void list_replace(struct list_head *old,
  73:../../source/include/os_lib/double_linked_list.h ****                 struct list_head *new)
  74:../../source/include/os_lib/double_linked_list.h **** {
  75:../../source/include/os_lib/double_linked_list.h ****     new->next = old->next;
  76:../../source/include/os_lib/double_linked_list.h ****     new->next->prev = new;
  77:../../source/include/os_lib/double_linked_list.h ****     new->prev = old->prev;
  78:../../source/include/os_lib/double_linked_list.h ****     new->prev->next = new;
  79:../../source/include/os_lib/double_linked_list.h **** }
  80:../../source/include/os_lib/double_linked_list.h **** 
  81:../../source/include/os_lib/double_linked_list.h **** 
  82:../../source/include/os_lib/double_linked_list.h **** static inline int list_empty(const struct list_head *head)
  83:../../source/include/os_lib/double_linked_list.h **** {
 272              		.loc 1 83 0
 273              		.cfi_startproc
 274              		@ args = 0, pretend = 0, frame = 8
 275              		@ frame_needed = 1, uses_anonymous_args = 0
 276              		@ link register save eliminated.
 277 00ac 80B4     		push	{r7}
 278              	.LCFI28:
 279              		.cfi_def_cfa_offset 4
 280              		.cfi_offset 7, -4
 281 00ae 83B0     		sub	sp, sp, #12
 282              	.LCFI29:
 283              		.cfi_def_cfa_offset 16
 284 00b0 00AF     		add	r7, sp, #0
 285              	.LCFI30:
 286              		.cfi_def_cfa_register 7
 287 00b2 7860     		str	r0, [r7, #4]
  84:../../source/include/os_lib/double_linked_list.h ****     return head->next == head;
 288              		.loc 1 84 0
 289 00b4 7B68     		ldr	r3, [r7, #4]
 290 00b6 1B68     		ldr	r3, [r3]
 291 00b8 7A68     		ldr	r2, [r7, #4]
 292 00ba 9A42     		cmp	r2, r3
 293 00bc 0CBF     		ite	eq
 294 00be 0123     		moveq	r3, #1
 295 00c0 0023     		movne	r3, #0
 296 00c2 DBB2     		uxtb	r3, r3
  85:../../source/include/os_lib/double_linked_list.h **** }
 297              		.loc 1 85 0
 298 00c4 1846     		mov	r0, r3
 299 00c6 0C37     		adds	r7, r7, #12
 300              	.LCFI31:
 301              		.cfi_def_cfa_offset 4
 302 00c8 BD46     		mov	sp, r7
 303              	.LCFI32:
 304              		.cfi_def_cfa_register 13
 305              		@ sp needed
 306 00ca 80BC     		pop	{r7}
 307              	.LCFI33:
 308              		.cfi_restore 7
 309              		.cfi_def_cfa_offset 0
 310 00cc 7047     		bx	lr
 311              		.cfi_endproc
 312              	.LFE9:
 313              		.size	list_empty, .-list_empty
 314              		.bss
ARM GAS  G:\Users\Jaxb\AppData\Local\Temp\ccKoN8kJ.s 			page 8


 315              		.align	2
 316              	TCB_list:
 317 0000 00000000 		.space	768
 317      00000000 
 317      00000000 
 317      00000000 
 317      00000000 
 318              		.size	TCB_list, 768
 319              		.text
 320              		.align	1
 321              		.global	__init_TCB_list
 322              		.syntax unified
 323              		.thumb
 324              		.thumb_func
 325              		.fpu softvfp
 326              		.type	__init_TCB_list, %function
 327              	__init_TCB_list:
 328              	.LFB11:
 329              		.file 2 "../../source/src/kernel/OS_CORE/schedule/os_TCB_list.c"
   1:../../source/src/kernel/OS_CORE/schedule/os_TCB_list.c **** #include <os_TCB_list.h>
   2:../../source/src/kernel/OS_CORE/schedule/os_TCB_list.c **** #include <TCB.h>
   3:../../source/src/kernel/OS_CORE/schedule/os_TCB_list.c **** #include <kakaosstdint.h>
   4:../../source/src/kernel/OS_CORE/schedule/os_TCB_list.c **** #include <myassert.h>
   5:../../source/src/kernel/OS_CORE/schedule/os_TCB_list.c **** #include <myMicroLIB.h>
   6:../../source/src/kernel/OS_CORE/schedule/os_TCB_list.c **** 
   7:../../source/src/kernel/OS_CORE/schedule/os_TCB_list.c **** static struct TCB_list TCB_list[PRIO_MAX];
   8:../../source/src/kernel/OS_CORE/schedule/os_TCB_list.c **** 
   9:../../source/src/kernel/OS_CORE/schedule/os_TCB_list.c **** void __init_TCB_list(void)
  10:../../source/src/kernel/OS_CORE/schedule/os_TCB_list.c **** {
 330              		.loc 2 10 0
 331              		.cfi_startproc
 332              		@ args = 0, pretend = 0, frame = 8
 333              		@ frame_needed = 1, uses_anonymous_args = 0
 334 00ce 80B5     		push	{r7, lr}
 335              	.LCFI34:
 336              		.cfi_def_cfa_offset 8
 337              		.cfi_offset 7, -8
 338              		.cfi_offset 14, -4
 339 00d0 82B0     		sub	sp, sp, #8
 340              	.LCFI35:
 341              		.cfi_def_cfa_offset 16
 342 00d2 00AF     		add	r7, sp, #0
 343              	.LCFI36:
 344              		.cfi_def_cfa_register 7
  11:../../source/src/kernel/OS_CORE/schedule/os_TCB_list.c **** 	int i;
  12:../../source/src/kernel/OS_CORE/schedule/os_TCB_list.c **** 	for(i=0;i<PRIO_MAX;++i)
 345              		.loc 2 12 0
 346 00d4 0023     		movs	r3, #0
 347 00d6 7B60     		str	r3, [r7, #4]
 348 00d8 20E0     		b	.L9
 349              	.L10:
  13:../../source/src/kernel/OS_CORE/schedule/os_TCB_list.c **** 	{
  14:../../source/src/kernel/OS_CORE/schedule/os_TCB_list.c **** 		INIT_LIST_HEAD(&TCB_list[i].head);
 350              		.loc 2 14 0 discriminator 3
 351 00da 7A68     		ldr	r2, [r7, #4]
 352 00dc 1346     		mov	r3, r2
 353 00de 5B00     		lsls	r3, r3, #1
ARM GAS  G:\Users\Jaxb\AppData\Local\Temp\ccKoN8kJ.s 			page 9


 354 00e0 1344     		add	r3, r3, r2
 355 00e2 9B00     		lsls	r3, r3, #2
 356 00e4 114A     		ldr	r2, .L11
 357 00e6 1344     		add	r3, r3, r2
 358 00e8 1846     		mov	r0, r3
 359 00ea FFF789FF 		bl	INIT_LIST_HEAD
  15:../../source/src/kernel/OS_CORE/schedule/os_TCB_list.c **** 		TCB_list[i].ready_num = 0;
 360              		.loc 2 15 0 discriminator 3
 361 00ee 0F49     		ldr	r1, .L11
 362 00f0 7A68     		ldr	r2, [r7, #4]
 363 00f2 1346     		mov	r3, r2
 364 00f4 5B00     		lsls	r3, r3, #1
 365 00f6 1344     		add	r3, r3, r2
 366 00f8 9B00     		lsls	r3, r3, #2
 367 00fa 0B44     		add	r3, r3, r1
 368 00fc 0833     		adds	r3, r3, #8
 369 00fe 0022     		movs	r2, #0
 370 0100 1A70     		strb	r2, [r3]
  16:../../source/src/kernel/OS_CORE/schedule/os_TCB_list.c **** 		TCB_list[i].TCB_num = 0;
 371              		.loc 2 16 0 discriminator 3
 372 0102 0A49     		ldr	r1, .L11
 373 0104 7A68     		ldr	r2, [r7, #4]
 374 0106 1346     		mov	r3, r2
 375 0108 5B00     		lsls	r3, r3, #1
 376 010a 1344     		add	r3, r3, r2
 377 010c 9B00     		lsls	r3, r3, #2
 378 010e 0B44     		add	r3, r3, r1
 379 0110 0933     		adds	r3, r3, #9
 380 0112 0022     		movs	r2, #0
 381 0114 1A70     		strb	r2, [r3]
  12:../../source/src/kernel/OS_CORE/schedule/os_TCB_list.c **** 	{
 382              		.loc 2 12 0 discriminator 3
 383 0116 7B68     		ldr	r3, [r7, #4]
 384 0118 0133     		adds	r3, r3, #1
 385 011a 7B60     		str	r3, [r7, #4]
 386              	.L9:
  12:../../source/src/kernel/OS_CORE/schedule/os_TCB_list.c **** 	{
 387              		.loc 2 12 0 is_stmt 0 discriminator 1
 388 011c 7B68     		ldr	r3, [r7, #4]
 389 011e 3F2B     		cmp	r3, #63
 390 0120 DBDD     		ble	.L10
  17:../../source/src/kernel/OS_CORE/schedule/os_TCB_list.c **** 	}
  18:../../source/src/kernel/OS_CORE/schedule/os_TCB_list.c **** }
 391              		.loc 2 18 0 is_stmt 1
 392 0122 00BF     		nop
 393 0124 0837     		adds	r7, r7, #8
 394              	.LCFI37:
 395              		.cfi_def_cfa_offset 8
 396 0126 BD46     		mov	sp, r7
 397              	.LCFI38:
 398              		.cfi_def_cfa_register 13
 399              		@ sp needed
 400 0128 80BD     		pop	{r7, pc}
 401              	.L12:
 402 012a 00BF     		.align	2
 403              	.L11:
 404 012c 00000000 		.word	TCB_list
ARM GAS  G:\Users\Jaxb\AppData\Local\Temp\ccKoN8kJ.s 			page 10


 405              		.cfi_endproc
 406              	.LFE11:
 407              		.size	__init_TCB_list, .-__init_TCB_list
 408              		.section	.rodata
 409              		.align	2
 410              	.LC0:
 411 0000 2E2E2F2E 		.ascii	"../../source/src/kernel/OS_CORE/schedule/os_TCB_lis"
 411      2E2F736F 
 411      75726365 
 411      2F737263 
 411      2F6B6572 
 412 0033 742E6300 		.ascii	"t.c\000"
 413              		.text
 414              		.align	1
 415              		.global	_register_in_TCB_list
 416              		.syntax unified
 417              		.thumb
 418              		.thumb_func
 419              		.fpu softvfp
 420              		.type	_register_in_TCB_list, %function
 421              	_register_in_TCB_list:
 422              	.LFB12:
  19:../../source/src/kernel/OS_CORE/schedule/os_TCB_list.c **** 
  20:../../source/src/kernel/OS_CORE/schedule/os_TCB_list.c **** /*os must set the task_state before using this function*/
  21:../../source/src/kernel/OS_CORE/schedule/os_TCB_list.c **** void _register_in_TCB_list(TCB *TCB_ptr)
  22:../../source/src/kernel/OS_CORE/schedule/os_TCB_list.c **** {
 423              		.loc 2 22 0
 424              		.cfi_startproc
 425              		@ args = 0, pretend = 0, frame = 8
 426              		@ frame_needed = 1, uses_anonymous_args = 0
 427 0130 80B5     		push	{r7, lr}
 428              	.LCFI39:
 429              		.cfi_def_cfa_offset 8
 430              		.cfi_offset 7, -8
 431              		.cfi_offset 14, -4
 432 0132 82B0     		sub	sp, sp, #8
 433              	.LCFI40:
 434              		.cfi_def_cfa_offset 16
 435 0134 00AF     		add	r7, sp, #0
 436              	.LCFI41:
 437              		.cfi_def_cfa_register 7
 438 0136 7860     		str	r0, [r7, #4]
  23:../../source/src/kernel/OS_CORE/schedule/os_TCB_list.c **** 	ASSERT(NULL != TCB_ptr);
 439              		.loc 2 23 0
 440 0138 7B68     		ldr	r3, [r7, #4]
 441 013a 002B     		cmp	r3, #0
 442 013c 03D1     		bne	.L14
 443              		.loc 2 23 0 is_stmt 0 discriminator 1
 444 013e 1721     		movs	r1, #23
 445 0140 1448     		ldr	r0, .L15
 446 0142 FFF7FEFF 		bl	_ASSERT
 447              	.L14:
  24:../../source/src/kernel/OS_CORE/schedule/os_TCB_list.c **** 	list_add(&TCB_ptr->same_prio_list,&TCB_list[TCB_ptr->prio].head);
 448              		.loc 2 24 0 is_stmt 1
 449 0146 7B68     		ldr	r3, [r7, #4]
 450 0148 03F11C00 		add	r0, r3, #28
 451 014c 7B68     		ldr	r3, [r7, #4]
ARM GAS  G:\Users\Jaxb\AppData\Local\Temp\ccKoN8kJ.s 			page 11


 452 014e 5A69     		ldr	r2, [r3, #20]
 453 0150 1346     		mov	r3, r2
 454 0152 5B00     		lsls	r3, r3, #1
 455 0154 1344     		add	r3, r3, r2
 456 0156 9B00     		lsls	r3, r3, #2
 457 0158 0F4A     		ldr	r2, .L15+4
 458 015a 1344     		add	r3, r3, r2
 459 015c 1946     		mov	r1, r3
 460 015e FFF775FF 		bl	list_add
  25:../../source/src/kernel/OS_CORE/schedule/os_TCB_list.c **** 	++(TCB_list[TCB_ptr->prio].TCB_num);
 461              		.loc 2 25 0
 462 0162 7B68     		ldr	r3, [r7, #4]
 463 0164 5A69     		ldr	r2, [r3, #20]
 464 0166 0C49     		ldr	r1, .L15+4
 465 0168 1346     		mov	r3, r2
 466 016a 5B00     		lsls	r3, r3, #1
 467 016c 1344     		add	r3, r3, r2
 468 016e 9B00     		lsls	r3, r3, #2
 469 0170 0B44     		add	r3, r3, r1
 470 0172 0933     		adds	r3, r3, #9
 471 0174 1B78     		ldrb	r3, [r3]	@ zero_extendqisi2
 472 0176 0133     		adds	r3, r3, #1
 473 0178 D8B2     		uxtb	r0, r3
 474 017a 0749     		ldr	r1, .L15+4
 475 017c 1346     		mov	r3, r2
 476 017e 5B00     		lsls	r3, r3, #1
 477 0180 1344     		add	r3, r3, r2
 478 0182 9B00     		lsls	r3, r3, #2
 479 0184 0B44     		add	r3, r3, r1
 480 0186 0933     		adds	r3, r3, #9
 481 0188 0246     		mov	r2, r0
 482 018a 1A70     		strb	r2, [r3]
  26:../../source/src/kernel/OS_CORE/schedule/os_TCB_list.c **** }
 483              		.loc 2 26 0
 484 018c 00BF     		nop
 485 018e 0837     		adds	r7, r7, #8
 486              	.LCFI42:
 487              		.cfi_def_cfa_offset 8
 488 0190 BD46     		mov	sp, r7
 489              	.LCFI43:
 490              		.cfi_def_cfa_register 13
 491              		@ sp needed
 492 0192 80BD     		pop	{r7, pc}
 493              	.L16:
 494              		.align	2
 495              	.L15:
 496 0194 00000000 		.word	.LC0
 497 0198 00000000 		.word	TCB_list
 498              		.cfi_endproc
 499              	.LFE12:
 500              		.size	_register_in_TCB_list, .-_register_in_TCB_list
 501              		.section	.rodata
 502 0037 00       		.align	2
 503              	.LC1:
 504 0038 6572726F 		.ascii	"error fun name : _delete_from_TCB_list\012error par"
 504      72206675 
 504      6E206E61 
ARM GAS  G:\Users\Jaxb\AppData\Local\Temp\ccKoN8kJ.s 			page 12


 504      6D65203A 
 504      205F6465 
 505 0068 61203A20 		.ascii	"a : TCB_ptr\012\000"
 505      5443425F 
 505      7074720A 
 505      00
 506              		.text
 507              		.align	1
 508              		.global	_delete_from_TCB_list
 509              		.syntax unified
 510              		.thumb
 511              		.thumb_func
 512              		.fpu softvfp
 513              		.type	_delete_from_TCB_list, %function
 514              	_delete_from_TCB_list:
 515              	.LFB13:
  27:../../source/src/kernel/OS_CORE/schedule/os_TCB_list.c **** 
  28:../../source/src/kernel/OS_CORE/schedule/os_TCB_list.c **** /**
  29:../../source/src/kernel/OS_CORE/schedule/os_TCB_list.c ****  * This is a system function,if the TCB_ptr state is ready,os should decrease
  30:../../source/src/kernel/OS_CORE/schedule/os_TCB_list.c ****  * the ready num with function _decrease_ready_num() in another place
  31:../../source/src/kernel/OS_CORE/schedule/os_TCB_list.c ****  * which means, this functin do not decrease the ready num
  32:../../source/src/kernel/OS_CORE/schedule/os_TCB_list.c ****  * @Author      kaka
  33:../../source/src/kernel/OS_CORE/schedule/os_TCB_list.c ****  * @DateTime    2018-10-01
  34:../../source/src/kernel/OS_CORE/schedule/os_TCB_list.c ****  * @description :
  35:../../source/src/kernel/OS_CORE/schedule/os_TCB_list.c ****  * @param       TCB_ptr    [description]
  36:../../source/src/kernel/OS_CORE/schedule/os_TCB_list.c ****  * @return                 [description]
  37:../../source/src/kernel/OS_CORE/schedule/os_TCB_list.c ****  */
  38:../../source/src/kernel/OS_CORE/schedule/os_TCB_list.c **** int _delete_from_TCB_list(TCB *TCB_ptr)
  39:../../source/src/kernel/OS_CORE/schedule/os_TCB_list.c **** {
 516              		.loc 2 39 0
 517              		.cfi_startproc
 518              		@ args = 0, pretend = 0, frame = 16
 519              		@ frame_needed = 1, uses_anonymous_args = 0
 520 019c 80B5     		push	{r7, lr}
 521              	.LCFI44:
 522              		.cfi_def_cfa_offset 8
 523              		.cfi_offset 7, -8
 524              		.cfi_offset 14, -4
 525 019e 84B0     		sub	sp, sp, #16
 526              	.LCFI45:
 527              		.cfi_def_cfa_offset 24
 528 01a0 00AF     		add	r7, sp, #0
 529              	.LCFI46:
 530              		.cfi_def_cfa_register 7
 531 01a2 7860     		str	r0, [r7, #4]
  40:../../source/src/kernel/OS_CORE/schedule/os_TCB_list.c **** 	ASSERT(NULL != TCB_ptr);
 532              		.loc 2 40 0
 533 01a4 7B68     		ldr	r3, [r7, #4]
 534 01a6 002B     		cmp	r3, #0
 535 01a8 03D1     		bne	.L18
 536              		.loc 2 40 0 is_stmt 0 discriminator 1
 537 01aa 2821     		movs	r1, #40
 538 01ac 2E48     		ldr	r0, .L25
 539 01ae FFF7FEFF 		bl	_ASSERT
 540              	.L18:
  41:../../source/src/kernel/OS_CORE/schedule/os_TCB_list.c **** #if CONFIG_PARA_CHECK
  42:../../source/src/kernel/OS_CORE/schedule/os_TCB_list.c **** 	if(NULL == TCB_ptr)
ARM GAS  G:\Users\Jaxb\AppData\Local\Temp\ccKoN8kJ.s 			page 13


 541              		.loc 2 42 0 is_stmt 1
 542 01b2 7B68     		ldr	r3, [r7, #4]
 543 01b4 002B     		cmp	r3, #0
 544 01b6 05D1     		bne	.L19
  43:../../source/src/kernel/OS_CORE/schedule/os_TCB_list.c **** 	{
  44:../../source/src/kernel/OS_CORE/schedule/os_TCB_list.c **** 		OS_ERROR_PARA_MESSAGE_DISPLAY(_delete_from_TCB_list,TCB_ptr);
 545              		.loc 2 44 0
 546 01b8 2C48     		ldr	r0, .L25+4
 547 01ba FFF7FEFF 		bl	ka_printf
  45:../../source/src/kernel/OS_CORE/schedule/os_TCB_list.c **** 		return -ERROR_NULL_INPUT_PTR;
 548              		.loc 2 45 0
 549 01be 6FF0FE03 		mvn	r3, #254
 550 01c2 4CE0     		b	.L20
 551              	.L19:
  46:../../source/src/kernel/OS_CORE/schedule/os_TCB_list.c **** 	}
  47:../../source/src/kernel/OS_CORE/schedule/os_TCB_list.c **** #endif
  48:../../source/src/kernel/OS_CORE/schedule/os_TCB_list.c **** 	struct list_head *pos;
  49:../../source/src/kernel/OS_CORE/schedule/os_TCB_list.c **** 	list_for_each(pos,&TCB_list[TCB_ptr->prio].head)
 552              		.loc 2 49 0
 553 01c4 7B68     		ldr	r3, [r7, #4]
 554 01c6 5A69     		ldr	r2, [r3, #20]
 555 01c8 2949     		ldr	r1, .L25+8
 556 01ca 1346     		mov	r3, r2
 557 01cc 5B00     		lsls	r3, r3, #1
 558 01ce 1344     		add	r3, r3, r2
 559 01d0 9B00     		lsls	r3, r3, #2
 560 01d2 0B44     		add	r3, r3, r1
 561 01d4 1B68     		ldr	r3, [r3]
 562 01d6 FB60     		str	r3, [r7, #12]
 563 01d8 31E0     		b	.L21
 564              	.L24:
  50:../../source/src/kernel/OS_CORE/schedule/os_TCB_list.c **** 	{
  51:../../source/src/kernel/OS_CORE/schedule/os_TCB_list.c **** 		if(&TCB_ptr->same_prio_list == pos)
 565              		.loc 2 51 0
 566 01da 7B68     		ldr	r3, [r7, #4]
 567 01dc 1C33     		adds	r3, r3, #28
 568 01de FA68     		ldr	r2, [r7, #12]
 569 01e0 9A42     		cmp	r2, r3
 570 01e2 29D1     		bne	.L22
  52:../../source/src/kernel/OS_CORE/schedule/os_TCB_list.c **** 		{
  53:../../source/src/kernel/OS_CORE/schedule/os_TCB_list.c **** 			list_del(pos);
 571              		.loc 2 53 0
 572 01e4 F868     		ldr	r0, [r7, #12]
 573 01e6 FFF751FF 		bl	list_del
  54:../../source/src/kernel/OS_CORE/schedule/os_TCB_list.c **** 			ASSERT(0 != TCB_list[TCB_ptr->prio].TCB_num);
 574              		.loc 2 54 0
 575 01ea 7B68     		ldr	r3, [r7, #4]
 576 01ec 5A69     		ldr	r2, [r3, #20]
 577 01ee 2049     		ldr	r1, .L25+8
 578 01f0 1346     		mov	r3, r2
 579 01f2 5B00     		lsls	r3, r3, #1
 580 01f4 1344     		add	r3, r3, r2
 581 01f6 9B00     		lsls	r3, r3, #2
 582 01f8 0B44     		add	r3, r3, r1
 583 01fa 0933     		adds	r3, r3, #9
 584 01fc 1B78     		ldrb	r3, [r3]	@ zero_extendqisi2
 585 01fe 002B     		cmp	r3, #0
ARM GAS  G:\Users\Jaxb\AppData\Local\Temp\ccKoN8kJ.s 			page 14


 586 0200 03D1     		bne	.L23
 587              		.loc 2 54 0 is_stmt 0 discriminator 1
 588 0202 3621     		movs	r1, #54
 589 0204 1848     		ldr	r0, .L25
 590 0206 FFF7FEFF 		bl	_ASSERT
 591              	.L23:
  55:../../source/src/kernel/OS_CORE/schedule/os_TCB_list.c **** 			--(TCB_list[TCB_ptr->prio].TCB_num);
 592              		.loc 2 55 0 is_stmt 1
 593 020a 7B68     		ldr	r3, [r7, #4]
 594 020c 5A69     		ldr	r2, [r3, #20]
 595 020e 1849     		ldr	r1, .L25+8
 596 0210 1346     		mov	r3, r2
 597 0212 5B00     		lsls	r3, r3, #1
 598 0214 1344     		add	r3, r3, r2
 599 0216 9B00     		lsls	r3, r3, #2
 600 0218 0B44     		add	r3, r3, r1
 601 021a 0933     		adds	r3, r3, #9
 602 021c 1B78     		ldrb	r3, [r3]	@ zero_extendqisi2
 603 021e 013B     		subs	r3, r3, #1
 604 0220 D8B2     		uxtb	r0, r3
 605 0222 1349     		ldr	r1, .L25+8
 606 0224 1346     		mov	r3, r2
 607 0226 5B00     		lsls	r3, r3, #1
 608 0228 1344     		add	r3, r3, r2
 609 022a 9B00     		lsls	r3, r3, #2
 610 022c 0B44     		add	r3, r3, r1
 611 022e 0933     		adds	r3, r3, #9
 612 0230 0246     		mov	r2, r0
 613 0232 1A70     		strb	r2, [r3]
  56:../../source/src/kernel/OS_CORE/schedule/os_TCB_list.c **** 			return FUN_EXECUTE_SUCCESSFULLY;
 614              		.loc 2 56 0
 615 0234 0023     		movs	r3, #0
 616 0236 12E0     		b	.L20
 617              	.L22:
  49:../../source/src/kernel/OS_CORE/schedule/os_TCB_list.c **** 	{
 618              		.loc 2 49 0 discriminator 2
 619 0238 FB68     		ldr	r3, [r7, #12]
 620 023a 1B68     		ldr	r3, [r3]
 621 023c FB60     		str	r3, [r7, #12]
 622              	.L21:
  49:../../source/src/kernel/OS_CORE/schedule/os_TCB_list.c **** 	{
 623              		.loc 2 49 0 is_stmt 0 discriminator 1
 624 023e 7B68     		ldr	r3, [r7, #4]
 625 0240 5A69     		ldr	r2, [r3, #20]
 626 0242 1346     		mov	r3, r2
 627 0244 5B00     		lsls	r3, r3, #1
 628 0246 1344     		add	r3, r3, r2
 629 0248 9B00     		lsls	r3, r3, #2
 630 024a 094A     		ldr	r2, .L25+8
 631 024c 1344     		add	r3, r3, r2
 632 024e FA68     		ldr	r2, [r7, #12]
 633 0250 9A42     		cmp	r2, r3
 634 0252 C2D1     		bne	.L24
  57:../../source/src/kernel/OS_CORE/schedule/os_TCB_list.c **** 		}
  58:../../source/src/kernel/OS_CORE/schedule/os_TCB_list.c **** 	}
  59:../../source/src/kernel/OS_CORE/schedule/os_TCB_list.c **** 	/*should not go here*/
  60:../../source/src/kernel/OS_CORE/schedule/os_TCB_list.c **** 	ASSERT(0);
ARM GAS  G:\Users\Jaxb\AppData\Local\Temp\ccKoN8kJ.s 			page 15


 635              		.loc 2 60 0 is_stmt 1 discriminator 1
 636 0254 3C21     		movs	r1, #60
 637 0256 0448     		ldr	r0, .L25
 638 0258 FFF7FEFF 		bl	_ASSERT
  61:../../source/src/kernel/OS_CORE/schedule/os_TCB_list.c **** 	return ERROR_VALUELESS_INPUT;
 639              		.loc 2 61 0 discriminator 1
 640 025c FE23     		movs	r3, #254
 641              	.L20:
  62:../../source/src/kernel/OS_CORE/schedule/os_TCB_list.c **** }
 642              		.loc 2 62 0
 643 025e 1846     		mov	r0, r3
 644 0260 1037     		adds	r7, r7, #16
 645              	.LCFI47:
 646              		.cfi_def_cfa_offset 8
 647 0262 BD46     		mov	sp, r7
 648              	.LCFI48:
 649              		.cfi_def_cfa_register 13
 650              		@ sp needed
 651 0264 80BD     		pop	{r7, pc}
 652              	.L26:
 653 0266 00BF     		.align	2
 654              	.L25:
 655 0268 00000000 		.word	.LC0
 656 026c 38000000 		.word	.LC1
 657 0270 00000000 		.word	TCB_list
 658              		.cfi_endproc
 659              	.LFE13:
 660              		.size	_delete_from_TCB_list, .-_delete_from_TCB_list
 661              		.align	1
 662              		.global	_get_from_TCB_list
 663              		.syntax unified
 664              		.thumb
 665              		.thumb_func
 666              		.fpu softvfp
 667              		.type	_get_from_TCB_list, %function
 668              	_get_from_TCB_list:
 669              	.LFB14:
  63:../../source/src/kernel/OS_CORE/schedule/os_TCB_list.c **** 
  64:../../source/src/kernel/OS_CORE/schedule/os_TCB_list.c **** struct list_head *_get_from_TCB_list(unsigned int index)
  65:../../source/src/kernel/OS_CORE/schedule/os_TCB_list.c **** {
 670              		.loc 2 65 0
 671              		.cfi_startproc
 672              		@ args = 0, pretend = 0, frame = 8
 673              		@ frame_needed = 1, uses_anonymous_args = 0
 674 0274 80B5     		push	{r7, lr}
 675              	.LCFI49:
 676              		.cfi_def_cfa_offset 8
 677              		.cfi_offset 7, -8
 678              		.cfi_offset 14, -4
 679 0276 82B0     		sub	sp, sp, #8
 680              	.LCFI50:
 681              		.cfi_def_cfa_offset 16
 682 0278 00AF     		add	r7, sp, #0
 683              	.LCFI51:
 684              		.cfi_def_cfa_register 7
 685 027a 7860     		str	r0, [r7, #4]
  66:../../source/src/kernel/OS_CORE/schedule/os_TCB_list.c **** 	ASSERT(index < PRIO_MAX);
ARM GAS  G:\Users\Jaxb\AppData\Local\Temp\ccKoN8kJ.s 			page 16


 686              		.loc 2 66 0
 687 027c 7B68     		ldr	r3, [r7, #4]
 688 027e 3F2B     		cmp	r3, #63
 689 0280 03D9     		bls	.L28
 690              		.loc 2 66 0 is_stmt 0 discriminator 1
 691 0282 4221     		movs	r1, #66
 692 0284 0648     		ldr	r0, .L30
 693 0286 FFF7FEFF 		bl	_ASSERT
 694              	.L28:
  67:../../source/src/kernel/OS_CORE/schedule/os_TCB_list.c **** 	return &TCB_list[index].head;
 695              		.loc 2 67 0 is_stmt 1
 696 028a 7A68     		ldr	r2, [r7, #4]
 697 028c 1346     		mov	r3, r2
 698 028e 5B00     		lsls	r3, r3, #1
 699 0290 1344     		add	r3, r3, r2
 700 0292 9B00     		lsls	r3, r3, #2
 701 0294 034A     		ldr	r2, .L30+4
 702 0296 1344     		add	r3, r3, r2
  68:../../source/src/kernel/OS_CORE/schedule/os_TCB_list.c **** }
 703              		.loc 2 68 0
 704 0298 1846     		mov	r0, r3
 705 029a 0837     		adds	r7, r7, #8
 706              	.LCFI52:
 707              		.cfi_def_cfa_offset 8
 708 029c BD46     		mov	sp, r7
 709              	.LCFI53:
 710              		.cfi_def_cfa_register 13
 711              		@ sp needed
 712 029e 80BD     		pop	{r7, pc}
 713              	.L31:
 714              		.align	2
 715              	.L30:
 716 02a0 00000000 		.word	.LC0
 717 02a4 00000000 		.word	TCB_list
 718              		.cfi_endproc
 719              	.LFE14:
 720              		.size	_get_from_TCB_list, .-_get_from_TCB_list
 721              		.align	1
 722              		.global	_get_ready_num_from_TCB_list
 723              		.syntax unified
 724              		.thumb
 725              		.thumb_func
 726              		.fpu softvfp
 727              		.type	_get_ready_num_from_TCB_list, %function
 728              	_get_ready_num_from_TCB_list:
 729              	.LFB15:
  69:../../source/src/kernel/OS_CORE/schedule/os_TCB_list.c **** 
  70:../../source/src/kernel/OS_CORE/schedule/os_TCB_list.c **** unsigned char _get_ready_num_from_TCB_list(unsigned int index)
  71:../../source/src/kernel/OS_CORE/schedule/os_TCB_list.c **** {
 730              		.loc 2 71 0
 731              		.cfi_startproc
 732              		@ args = 0, pretend = 0, frame = 8
 733              		@ frame_needed = 1, uses_anonymous_args = 0
 734 02a8 80B5     		push	{r7, lr}
 735              	.LCFI54:
 736              		.cfi_def_cfa_offset 8
 737              		.cfi_offset 7, -8
ARM GAS  G:\Users\Jaxb\AppData\Local\Temp\ccKoN8kJ.s 			page 17


 738              		.cfi_offset 14, -4
 739 02aa 82B0     		sub	sp, sp, #8
 740              	.LCFI55:
 741              		.cfi_def_cfa_offset 16
 742 02ac 00AF     		add	r7, sp, #0
 743              	.LCFI56:
 744              		.cfi_def_cfa_register 7
 745 02ae 7860     		str	r0, [r7, #4]
  72:../../source/src/kernel/OS_CORE/schedule/os_TCB_list.c **** 	ASSERT(index < PRIO_MAX);
 746              		.loc 2 72 0
 747 02b0 7B68     		ldr	r3, [r7, #4]
 748 02b2 3F2B     		cmp	r3, #63
 749 02b4 03D9     		bls	.L33
 750              		.loc 2 72 0 is_stmt 0 discriminator 1
 751 02b6 4821     		movs	r1, #72
 752 02b8 0748     		ldr	r0, .L35
 753 02ba FFF7FEFF 		bl	_ASSERT
 754              	.L33:
  73:../../source/src/kernel/OS_CORE/schedule/os_TCB_list.c **** 	return TCB_list[index].ready_num;
 755              		.loc 2 73 0 is_stmt 1
 756 02be 0749     		ldr	r1, .L35+4
 757 02c0 7A68     		ldr	r2, [r7, #4]
 758 02c2 1346     		mov	r3, r2
 759 02c4 5B00     		lsls	r3, r3, #1
 760 02c6 1344     		add	r3, r3, r2
 761 02c8 9B00     		lsls	r3, r3, #2
 762 02ca 0B44     		add	r3, r3, r1
 763 02cc 0833     		adds	r3, r3, #8
 764 02ce 1B78     		ldrb	r3, [r3]	@ zero_extendqisi2
  74:../../source/src/kernel/OS_CORE/schedule/os_TCB_list.c **** }
 765              		.loc 2 74 0
 766 02d0 1846     		mov	r0, r3
 767 02d2 0837     		adds	r7, r7, #8
 768              	.LCFI57:
 769              		.cfi_def_cfa_offset 8
 770 02d4 BD46     		mov	sp, r7
 771              	.LCFI58:
 772              		.cfi_def_cfa_register 13
 773              		@ sp needed
 774 02d6 80BD     		pop	{r7, pc}
 775              	.L36:
 776              		.align	2
 777              	.L35:
 778 02d8 00000000 		.word	.LC0
 779 02dc 00000000 		.word	TCB_list
 780              		.cfi_endproc
 781              	.LFE15:
 782              		.size	_get_ready_num_from_TCB_list, .-_get_ready_num_from_TCB_list
 783              		.align	1
 784              		.global	_decrease_ready_num
 785              		.syntax unified
 786              		.thumb
 787              		.thumb_func
 788              		.fpu softvfp
 789              		.type	_decrease_ready_num, %function
 790              	_decrease_ready_num:
 791              	.LFB16:
ARM GAS  G:\Users\Jaxb\AppData\Local\Temp\ccKoN8kJ.s 			page 18


  75:../../source/src/kernel/OS_CORE/schedule/os_TCB_list.c **** 
  76:../../source/src/kernel/OS_CORE/schedule/os_TCB_list.c **** void _decrease_ready_num(unsigned int index)
  77:../../source/src/kernel/OS_CORE/schedule/os_TCB_list.c **** {
 792              		.loc 2 77 0
 793              		.cfi_startproc
 794              		@ args = 0, pretend = 0, frame = 8
 795              		@ frame_needed = 1, uses_anonymous_args = 0
 796 02e0 80B5     		push	{r7, lr}
 797              	.LCFI59:
 798              		.cfi_def_cfa_offset 8
 799              		.cfi_offset 7, -8
 800              		.cfi_offset 14, -4
 801 02e2 82B0     		sub	sp, sp, #8
 802              	.LCFI60:
 803              		.cfi_def_cfa_offset 16
 804 02e4 00AF     		add	r7, sp, #0
 805              	.LCFI61:
 806              		.cfi_def_cfa_register 7
 807 02e6 7860     		str	r0, [r7, #4]
  78:../../source/src/kernel/OS_CORE/schedule/os_TCB_list.c **** 	ASSERT(index < PRIO_MAX);
 808              		.loc 2 78 0
 809 02e8 7B68     		ldr	r3, [r7, #4]
 810 02ea 3F2B     		cmp	r3, #63
 811 02ec 03D9     		bls	.L38
 812              		.loc 2 78 0 is_stmt 0 discriminator 1
 813 02ee 4E21     		movs	r1, #78
 814 02f0 1548     		ldr	r0, .L40
 815 02f2 FFF7FEFF 		bl	_ASSERT
 816              	.L38:
  79:../../source/src/kernel/OS_CORE/schedule/os_TCB_list.c **** 	ASSERT(0 != TCB_list[index].ready_num);
 817              		.loc 2 79 0 is_stmt 1
 818 02f6 1549     		ldr	r1, .L40+4
 819 02f8 7A68     		ldr	r2, [r7, #4]
 820 02fa 1346     		mov	r3, r2
 821 02fc 5B00     		lsls	r3, r3, #1
 822 02fe 1344     		add	r3, r3, r2
 823 0300 9B00     		lsls	r3, r3, #2
 824 0302 0B44     		add	r3, r3, r1
 825 0304 0833     		adds	r3, r3, #8
 826 0306 1B78     		ldrb	r3, [r3]	@ zero_extendqisi2
 827 0308 002B     		cmp	r3, #0
 828 030a 03D1     		bne	.L39
 829              		.loc 2 79 0 is_stmt 0 discriminator 1
 830 030c 4F21     		movs	r1, #79
 831 030e 0E48     		ldr	r0, .L40
 832 0310 FFF7FEFF 		bl	_ASSERT
 833              	.L39:
  80:../../source/src/kernel/OS_CORE/schedule/os_TCB_list.c **** 	--(TCB_list[index].ready_num);
 834              		.loc 2 80 0 is_stmt 1
 835 0314 0D49     		ldr	r1, .L40+4
 836 0316 7A68     		ldr	r2, [r7, #4]
 837 0318 1346     		mov	r3, r2
 838 031a 5B00     		lsls	r3, r3, #1
 839 031c 1344     		add	r3, r3, r2
 840 031e 9B00     		lsls	r3, r3, #2
 841 0320 0B44     		add	r3, r3, r1
 842 0322 0833     		adds	r3, r3, #8
ARM GAS  G:\Users\Jaxb\AppData\Local\Temp\ccKoN8kJ.s 			page 19


 843 0324 1B78     		ldrb	r3, [r3]	@ zero_extendqisi2
 844 0326 013B     		subs	r3, r3, #1
 845 0328 D8B2     		uxtb	r0, r3
 846 032a 0849     		ldr	r1, .L40+4
 847 032c 7A68     		ldr	r2, [r7, #4]
 848 032e 1346     		mov	r3, r2
 849 0330 5B00     		lsls	r3, r3, #1
 850 0332 1344     		add	r3, r3, r2
 851 0334 9B00     		lsls	r3, r3, #2
 852 0336 0B44     		add	r3, r3, r1
 853 0338 0833     		adds	r3, r3, #8
 854 033a 0246     		mov	r2, r0
 855 033c 1A70     		strb	r2, [r3]
  81:../../source/src/kernel/OS_CORE/schedule/os_TCB_list.c **** }
 856              		.loc 2 81 0
 857 033e 00BF     		nop
 858 0340 0837     		adds	r7, r7, #8
 859              	.LCFI62:
 860              		.cfi_def_cfa_offset 8
 861 0342 BD46     		mov	sp, r7
 862              	.LCFI63:
 863              		.cfi_def_cfa_register 13
 864              		@ sp needed
 865 0344 80BD     		pop	{r7, pc}
 866              	.L41:
 867 0346 00BF     		.align	2
 868              	.L40:
 869 0348 00000000 		.word	.LC0
 870 034c 00000000 		.word	TCB_list
 871              		.cfi_endproc
 872              	.LFE16:
 873              		.size	_decrease_ready_num, .-_decrease_ready_num
 874              		.align	1
 875              		.global	_increase_ready_num
 876              		.syntax unified
 877              		.thumb
 878              		.thumb_func
 879              		.fpu softvfp
 880              		.type	_increase_ready_num, %function
 881              	_increase_ready_num:
 882              	.LFB17:
  82:../../source/src/kernel/OS_CORE/schedule/os_TCB_list.c **** 
  83:../../source/src/kernel/OS_CORE/schedule/os_TCB_list.c **** void _increase_ready_num(unsigned int index)
  84:../../source/src/kernel/OS_CORE/schedule/os_TCB_list.c **** {
 883              		.loc 2 84 0
 884              		.cfi_startproc
 885              		@ args = 0, pretend = 0, frame = 8
 886              		@ frame_needed = 1, uses_anonymous_args = 0
 887 0350 80B5     		push	{r7, lr}
 888              	.LCFI64:
 889              		.cfi_def_cfa_offset 8
 890              		.cfi_offset 7, -8
 891              		.cfi_offset 14, -4
 892 0352 82B0     		sub	sp, sp, #8
 893              	.LCFI65:
 894              		.cfi_def_cfa_offset 16
 895 0354 00AF     		add	r7, sp, #0
ARM GAS  G:\Users\Jaxb\AppData\Local\Temp\ccKoN8kJ.s 			page 20


 896              	.LCFI66:
 897              		.cfi_def_cfa_register 7
 898 0356 7860     		str	r0, [r7, #4]
  85:../../source/src/kernel/OS_CORE/schedule/os_TCB_list.c **** 	ASSERT(index < PRIO_MAX);
 899              		.loc 2 85 0
 900 0358 7B68     		ldr	r3, [r7, #4]
 901 035a 3F2B     		cmp	r3, #63
 902 035c 03D9     		bls	.L43
 903              		.loc 2 85 0 is_stmt 0 discriminator 1
 904 035e 5521     		movs	r1, #85
 905 0360 0D48     		ldr	r0, .L44
 906 0362 FFF7FEFF 		bl	_ASSERT
 907              	.L43:
  86:../../source/src/kernel/OS_CORE/schedule/os_TCB_list.c **** 	++(TCB_list[index].ready_num);
 908              		.loc 2 86 0 is_stmt 1
 909 0366 0D49     		ldr	r1, .L44+4
 910 0368 7A68     		ldr	r2, [r7, #4]
 911 036a 1346     		mov	r3, r2
 912 036c 5B00     		lsls	r3, r3, #1
 913 036e 1344     		add	r3, r3, r2
 914 0370 9B00     		lsls	r3, r3, #2
 915 0372 0B44     		add	r3, r3, r1
 916 0374 0833     		adds	r3, r3, #8
 917 0376 1B78     		ldrb	r3, [r3]	@ zero_extendqisi2
 918 0378 0133     		adds	r3, r3, #1
 919 037a D8B2     		uxtb	r0, r3
 920 037c 0749     		ldr	r1, .L44+4
 921 037e 7A68     		ldr	r2, [r7, #4]
 922 0380 1346     		mov	r3, r2
 923 0382 5B00     		lsls	r3, r3, #1
 924 0384 1344     		add	r3, r3, r2
 925 0386 9B00     		lsls	r3, r3, #2
 926 0388 0B44     		add	r3, r3, r1
 927 038a 0833     		adds	r3, r3, #8
 928 038c 0246     		mov	r2, r0
 929 038e 1A70     		strb	r2, [r3]
  87:../../source/src/kernel/OS_CORE/schedule/os_TCB_list.c **** }
 930              		.loc 2 87 0
 931 0390 00BF     		nop
 932 0392 0837     		adds	r7, r7, #8
 933              	.LCFI67:
 934              		.cfi_def_cfa_offset 8
 935 0394 BD46     		mov	sp, r7
 936              	.LCFI68:
 937              		.cfi_def_cfa_register 13
 938              		@ sp needed
 939 0396 80BD     		pop	{r7, pc}
 940              	.L45:
 941              		.align	2
 942              	.L44:
 943 0398 00000000 		.word	.LC0
 944 039c 00000000 		.word	TCB_list
 945              		.cfi_endproc
 946              	.LFE17:
 947              		.size	_increase_ready_num, .-_increase_ready_num
 948              		.align	1
 949              		.global	_decrease_TCB_num
ARM GAS  G:\Users\Jaxb\AppData\Local\Temp\ccKoN8kJ.s 			page 21


 950              		.syntax unified
 951              		.thumb
 952              		.thumb_func
 953              		.fpu softvfp
 954              		.type	_decrease_TCB_num, %function
 955              	_decrease_TCB_num:
 956              	.LFB18:
  88:../../source/src/kernel/OS_CORE/schedule/os_TCB_list.c **** 
  89:../../source/src/kernel/OS_CORE/schedule/os_TCB_list.c **** void _decrease_TCB_num(unsigned int index)
  90:../../source/src/kernel/OS_CORE/schedule/os_TCB_list.c **** {
 957              		.loc 2 90 0
 958              		.cfi_startproc
 959              		@ args = 0, pretend = 0, frame = 8
 960              		@ frame_needed = 1, uses_anonymous_args = 0
 961 03a0 80B5     		push	{r7, lr}
 962              	.LCFI69:
 963              		.cfi_def_cfa_offset 8
 964              		.cfi_offset 7, -8
 965              		.cfi_offset 14, -4
 966 03a2 82B0     		sub	sp, sp, #8
 967              	.LCFI70:
 968              		.cfi_def_cfa_offset 16
 969 03a4 00AF     		add	r7, sp, #0
 970              	.LCFI71:
 971              		.cfi_def_cfa_register 7
 972 03a6 7860     		str	r0, [r7, #4]
  91:../../source/src/kernel/OS_CORE/schedule/os_TCB_list.c **** 	ASSERT(index < PRIO_MAX);
 973              		.loc 2 91 0
 974 03a8 7B68     		ldr	r3, [r7, #4]
 975 03aa 3F2B     		cmp	r3, #63
 976 03ac 03D9     		bls	.L47
 977              		.loc 2 91 0 is_stmt 0 discriminator 1
 978 03ae 5B21     		movs	r1, #91
 979 03b0 1548     		ldr	r0, .L49
 980 03b2 FFF7FEFF 		bl	_ASSERT
 981              	.L47:
  92:../../source/src/kernel/OS_CORE/schedule/os_TCB_list.c **** 	ASSERT(0 != TCB_list[index].TCB_num);
 982              		.loc 2 92 0 is_stmt 1
 983 03b6 1549     		ldr	r1, .L49+4
 984 03b8 7A68     		ldr	r2, [r7, #4]
 985 03ba 1346     		mov	r3, r2
 986 03bc 5B00     		lsls	r3, r3, #1
 987 03be 1344     		add	r3, r3, r2
 988 03c0 9B00     		lsls	r3, r3, #2
 989 03c2 0B44     		add	r3, r3, r1
 990 03c4 0933     		adds	r3, r3, #9
 991 03c6 1B78     		ldrb	r3, [r3]	@ zero_extendqisi2
 992 03c8 002B     		cmp	r3, #0
 993 03ca 03D1     		bne	.L48
 994              		.loc 2 92 0 is_stmt 0 discriminator 1
 995 03cc 5C21     		movs	r1, #92
 996 03ce 0E48     		ldr	r0, .L49
 997 03d0 FFF7FEFF 		bl	_ASSERT
 998              	.L48:
  93:../../source/src/kernel/OS_CORE/schedule/os_TCB_list.c **** 	--(TCB_list[index].TCB_num);
 999              		.loc 2 93 0 is_stmt 1
 1000 03d4 0D49     		ldr	r1, .L49+4
ARM GAS  G:\Users\Jaxb\AppData\Local\Temp\ccKoN8kJ.s 			page 22


 1001 03d6 7A68     		ldr	r2, [r7, #4]
 1002 03d8 1346     		mov	r3, r2
 1003 03da 5B00     		lsls	r3, r3, #1
 1004 03dc 1344     		add	r3, r3, r2
 1005 03de 9B00     		lsls	r3, r3, #2
 1006 03e0 0B44     		add	r3, r3, r1
 1007 03e2 0933     		adds	r3, r3, #9
 1008 03e4 1B78     		ldrb	r3, [r3]	@ zero_extendqisi2
 1009 03e6 013B     		subs	r3, r3, #1
 1010 03e8 D8B2     		uxtb	r0, r3
 1011 03ea 0849     		ldr	r1, .L49+4
 1012 03ec 7A68     		ldr	r2, [r7, #4]
 1013 03ee 1346     		mov	r3, r2
 1014 03f0 5B00     		lsls	r3, r3, #1
 1015 03f2 1344     		add	r3, r3, r2
 1016 03f4 9B00     		lsls	r3, r3, #2
 1017 03f6 0B44     		add	r3, r3, r1
 1018 03f8 0933     		adds	r3, r3, #9
 1019 03fa 0246     		mov	r2, r0
 1020 03fc 1A70     		strb	r2, [r3]
  94:../../source/src/kernel/OS_CORE/schedule/os_TCB_list.c **** }
 1021              		.loc 2 94 0
 1022 03fe 00BF     		nop
 1023 0400 0837     		adds	r7, r7, #8
 1024              	.LCFI72:
 1025              		.cfi_def_cfa_offset 8
 1026 0402 BD46     		mov	sp, r7
 1027              	.LCFI73:
 1028              		.cfi_def_cfa_register 13
 1029              		@ sp needed
 1030 0404 80BD     		pop	{r7, pc}
 1031              	.L50:
 1032 0406 00BF     		.align	2
 1033              	.L49:
 1034 0408 00000000 		.word	.LC0
 1035 040c 00000000 		.word	TCB_list
 1036              		.cfi_endproc
 1037              	.LFE18:
 1038              		.size	_decrease_TCB_num, .-_decrease_TCB_num
 1039              		.align	1
 1040              		.global	_increase_TCB_num
 1041              		.syntax unified
 1042              		.thumb
 1043              		.thumb_func
 1044              		.fpu softvfp
 1045              		.type	_increase_TCB_num, %function
 1046              	_increase_TCB_num:
 1047              	.LFB19:
  95:../../source/src/kernel/OS_CORE/schedule/os_TCB_list.c **** 
  96:../../source/src/kernel/OS_CORE/schedule/os_TCB_list.c **** void _increase_TCB_num(unsigned int index)
  97:../../source/src/kernel/OS_CORE/schedule/os_TCB_list.c **** {
 1048              		.loc 2 97 0
 1049              		.cfi_startproc
 1050              		@ args = 0, pretend = 0, frame = 8
 1051              		@ frame_needed = 1, uses_anonymous_args = 0
 1052 0410 80B5     		push	{r7, lr}
 1053              	.LCFI74:
ARM GAS  G:\Users\Jaxb\AppData\Local\Temp\ccKoN8kJ.s 			page 23


 1054              		.cfi_def_cfa_offset 8
 1055              		.cfi_offset 7, -8
 1056              		.cfi_offset 14, -4
 1057 0412 82B0     		sub	sp, sp, #8
 1058              	.LCFI75:
 1059              		.cfi_def_cfa_offset 16
 1060 0414 00AF     		add	r7, sp, #0
 1061              	.LCFI76:
 1062              		.cfi_def_cfa_register 7
 1063 0416 7860     		str	r0, [r7, #4]
  98:../../source/src/kernel/OS_CORE/schedule/os_TCB_list.c **** 	ASSERT(index < PRIO_MAX);
 1064              		.loc 2 98 0
 1065 0418 7B68     		ldr	r3, [r7, #4]
 1066 041a 3F2B     		cmp	r3, #63
 1067 041c 03D9     		bls	.L52
 1068              		.loc 2 98 0 is_stmt 0 discriminator 1
 1069 041e 6221     		movs	r1, #98
 1070 0420 0D48     		ldr	r0, .L53
 1071 0422 FFF7FEFF 		bl	_ASSERT
 1072              	.L52:
  99:../../source/src/kernel/OS_CORE/schedule/os_TCB_list.c **** 	++(TCB_list[index].TCB_num);
 1073              		.loc 2 99 0 is_stmt 1
 1074 0426 0D49     		ldr	r1, .L53+4
 1075 0428 7A68     		ldr	r2, [r7, #4]
 1076 042a 1346     		mov	r3, r2
 1077 042c 5B00     		lsls	r3, r3, #1
 1078 042e 1344     		add	r3, r3, r2
 1079 0430 9B00     		lsls	r3, r3, #2
 1080 0432 0B44     		add	r3, r3, r1
 1081 0434 0933     		adds	r3, r3, #9
 1082 0436 1B78     		ldrb	r3, [r3]	@ zero_extendqisi2
 1083 0438 0133     		adds	r3, r3, #1
 1084 043a D8B2     		uxtb	r0, r3
 1085 043c 0749     		ldr	r1, .L53+4
 1086 043e 7A68     		ldr	r2, [r7, #4]
 1087 0440 1346     		mov	r3, r2
 1088 0442 5B00     		lsls	r3, r3, #1
 1089 0444 1344     		add	r3, r3, r2
 1090 0446 9B00     		lsls	r3, r3, #2
 1091 0448 0B44     		add	r3, r3, r1
 1092 044a 0933     		adds	r3, r3, #9
 1093 044c 0246     		mov	r2, r0
 1094 044e 1A70     		strb	r2, [r3]
 100:../../source/src/kernel/OS_CORE/schedule/os_TCB_list.c **** }
 1095              		.loc 2 100 0
 1096 0450 00BF     		nop
 1097 0452 0837     		adds	r7, r7, #8
 1098              	.LCFI77:
 1099              		.cfi_def_cfa_offset 8
 1100 0454 BD46     		mov	sp, r7
 1101              	.LCFI78:
 1102              		.cfi_def_cfa_register 13
 1103              		@ sp needed
 1104 0456 80BD     		pop	{r7, pc}
 1105              	.L54:
 1106              		.align	2
 1107              	.L53:
ARM GAS  G:\Users\Jaxb\AppData\Local\Temp\ccKoN8kJ.s 			page 24


 1108 0458 00000000 		.word	.LC0
 1109 045c 00000000 		.word	TCB_list
 1110              		.cfi_endproc
 1111              	.LFE19:
 1112              		.size	_increase_TCB_num, .-_increase_TCB_num
 1113              		.section	.rodata
 1114 0075 000000   		.align	2
 1115              	.LC2:
 1116 0078 7072696F 		.ascii	"prio %u has task:\012\000"
 1116      20257520 
 1116      68617320 
 1116      7461736B 
 1116      3A0A00
 1117 008b 00       		.align	2
 1118              	.LC3:
 1119 008c 6E616D65 		.ascii	"name: %s\012\000"
 1119      3A202573 
 1119      0A00
 1120 0096 0000     		.align	2
 1121              	.LC4:
 1122 0098 74696D65 		.ascii	"timeslice_hope_time: %d\012\000"
 1122      736C6963 
 1122      655F686F 
 1122      70655F74 
 1122      696D653A 
 1123 00b1 000000   		.align	2
 1124              	.LC5:
 1125 00b4 73746163 		.ascii	"stack: %p\012\000"
 1125      6B3A2025 
 1125      700A00
 1126 00bf 00       		.align	2
 1127              	.LC6:
 1128 00c0 73746163 		.ascii	"stack_size: %d\012\000"
 1128      6B5F7369 
 1128      7A653A20 
 1128      25640A00 
 1129              		.align	2
 1130              	.LC7:
 1131 00d0 7461736B 		.ascii	"task_state: \000"
 1131      5F737461 
 1131      74653A20 
 1131      00
 1132 00dd 000000   		.align	2
 1133              	.LC8:
 1134 00e0 53544154 		.ascii	"STATE_READY\012\000"
 1134      455F5245 
 1134      4144590A 
 1134      00
 1135 00ed 000000   		.align	2
 1136              	.LC9:
 1137 00f0 53544154 		.ascii	"STATE_DELAY\012\000"
 1137      455F4445 
 1137      4C41590A 
 1137      00
 1138 00fd 000000   		.align	2
 1139              	.LC10:
 1140 0100 53544154 		.ascii	"STATE_SUSPEND\012\000"
ARM GAS  G:\Users\Jaxb\AppData\Local\Temp\ccKoN8kJ.s 			page 25


 1140      455F5355 
 1140      5350454E 
 1140      440A00
 1141 010f 00       		.align	2
 1142              	.LC11:
 1143 0110 2F2A2A2A 		.ascii	"/**************************************************"
 1143      2A2A2A2A 
 1143      2A2A2A2A 
 1143      2A2A2A2A 
 1143      2A2A2A2A 
 1144 0143 2A2A2A2F 		.ascii	"***/\012\000"
 1144      0A00
 1145 0149 000000   		.align	2
 1146              	.LC12:
 1147 014c 7072696F 		.ascii	"prio %d TCB_num error!\012\000"
 1147      20256420 
 1147      5443425F 
 1147      6E756D20 
 1147      6572726F 
 1148              		.align	2
 1149              	.LC13:
 1150 0164 7072696F 		.ascii	"prio %d ready_num error!\012\000"
 1150      20256420 
 1150      72656164 
 1150      795F6E75 
 1150      6D206572 
 1151              		.text
 1152              		.align	1
 1153              		.global	shell_check_TCB_list
 1154              		.syntax unified
 1155              		.thumb
 1156              		.thumb_func
 1157              		.fpu softvfp
 1158              		.type	shell_check_TCB_list, %function
 1159              	shell_check_TCB_list:
 1160              	.LFB20:
 101:../../source/src/kernel/OS_CORE/schedule/os_TCB_list.c **** 
 102:../../source/src/kernel/OS_CORE/schedule/os_TCB_list.c **** #if CONFIG_SHELL_EN
 103:../../source/src/kernel/OS_CORE/schedule/os_TCB_list.c **** void shell_check_TCB_list(void)
 104:../../source/src/kernel/OS_CORE/schedule/os_TCB_list.c **** {
 1161              		.loc 2 104 0
 1162              		.cfi_startproc
 1163              		@ args = 0, pretend = 0, frame = 24
 1164              		@ frame_needed = 1, uses_anonymous_args = 0
 1165 0460 80B5     		push	{r7, lr}
 1166              	.LCFI79:
 1167              		.cfi_def_cfa_offset 8
 1168              		.cfi_offset 7, -8
 1169              		.cfi_offset 14, -4
 1170 0462 86B0     		sub	sp, sp, #24
 1171              	.LCFI80:
 1172              		.cfi_def_cfa_offset 32
 1173 0464 00AF     		add	r7, sp, #0
 1174              	.LCFI81:
 1175              		.cfi_def_cfa_register 7
 105:../../source/src/kernel/OS_CORE/schedule/os_TCB_list.c **** 	unsigned int i;
 106:../../source/src/kernel/OS_CORE/schedule/os_TCB_list.c **** 	unsigned int ready_num = 0,TCB_num = 0;
ARM GAS  G:\Users\Jaxb\AppData\Local\Temp\ccKoN8kJ.s 			page 26


 1176              		.loc 2 106 0
 1177 0466 0023     		movs	r3, #0
 1178 0468 3B61     		str	r3, [r7, #16]
 1179 046a 0023     		movs	r3, #0
 1180 046c FB60     		str	r3, [r7, #12]
 107:../../source/src/kernel/OS_CORE/schedule/os_TCB_list.c **** 	struct list_head *pos;
 108:../../source/src/kernel/OS_CORE/schedule/os_TCB_list.c **** 	TCB *TCB_ptr;
 109:../../source/src/kernel/OS_CORE/schedule/os_TCB_list.c **** 	for(i=0;i<PRIO_MAX;++i)
 1181              		.loc 2 109 0
 1182 046e 0023     		movs	r3, #0
 1183 0470 7B61     		str	r3, [r7, #20]
 1184 0472 A6E0     		b	.L56
 1185              	.L68:
 110:../../source/src/kernel/OS_CORE/schedule/os_TCB_list.c **** 	{
 111:../../source/src/kernel/OS_CORE/schedule/os_TCB_list.c **** 		if(!list_empty(&TCB_list[i].head))
 1186              		.loc 2 111 0
 1187 0474 7A69     		ldr	r2, [r7, #20]
 1188 0476 1346     		mov	r3, r2
 1189 0478 5B00     		lsls	r3, r3, #1
 1190 047a 1344     		add	r3, r3, r2
 1191 047c 9B00     		lsls	r3, r3, #2
 1192 047e 554A     		ldr	r2, .L69
 1193 0480 1344     		add	r3, r3, r2
 1194 0482 1846     		mov	r0, r3
 1195 0484 FFF712FE 		bl	list_empty
 1196 0488 0346     		mov	r3, r0
 1197 048a 002B     		cmp	r3, #0
 1198 048c 40F09680 		bne	.L57
 112:../../source/src/kernel/OS_CORE/schedule/os_TCB_list.c **** 		{
 113:../../source/src/kernel/OS_CORE/schedule/os_TCB_list.c **** 			ka_printf("prio %u has task:\n",i);
 1199              		.loc 2 113 0
 1200 0490 7969     		ldr	r1, [r7, #20]
 1201 0492 5148     		ldr	r0, .L69+4
 1202 0494 FFF7FEFF 		bl	ka_printf
 114:../../source/src/kernel/OS_CORE/schedule/os_TCB_list.c **** 			list_for_each(pos,&TCB_list[i].head)
 1203              		.loc 2 114 0
 1204 0498 4E49     		ldr	r1, .L69
 1205 049a 7A69     		ldr	r2, [r7, #20]
 1206 049c 1346     		mov	r3, r2
 1207 049e 5B00     		lsls	r3, r3, #1
 1208 04a0 1344     		add	r3, r3, r2
 1209 04a2 9B00     		lsls	r3, r3, #2
 1210 04a4 0B44     		add	r3, r3, r1
 1211 04a6 1B68     		ldr	r3, [r3]
 1212 04a8 BB60     		str	r3, [r7, #8]
 1213 04aa 57E0     		b	.L58
 1214              	.L65:
 1215              	.LBB2:
 115:../../source/src/kernel/OS_CORE/schedule/os_TCB_list.c **** 			{
 116:../../source/src/kernel/OS_CORE/schedule/os_TCB_list.c **** 				TCB_ptr = list_entry(pos,TCB,same_prio_list);
 1216              		.loc 2 116 0
 1217 04ac BB68     		ldr	r3, [r7, #8]
 1218 04ae 7B60     		str	r3, [r7, #4]
 1219 04b0 7B68     		ldr	r3, [r7, #4]
 1220 04b2 1C3B     		subs	r3, r3, #28
 1221              	.LBE2:
 1222 04b4 3B60     		str	r3, [r7]
ARM GAS  G:\Users\Jaxb\AppData\Local\Temp\ccKoN8kJ.s 			page 27


 117:../../source/src/kernel/OS_CORE/schedule/os_TCB_list.c **** 				++TCB_num;
 1223              		.loc 2 117 0
 1224 04b6 FB68     		ldr	r3, [r7, #12]
 1225 04b8 0133     		adds	r3, r3, #1
 1226 04ba FB60     		str	r3, [r7, #12]
 118:../../source/src/kernel/OS_CORE/schedule/os_TCB_list.c **** 				if(STATE_READY == TCB_ptr->task_state)
 1227              		.loc 2 118 0
 1228 04bc 3B68     		ldr	r3, [r7]
 1229 04be 1B7C     		ldrb	r3, [r3, #16]	@ zero_extendqisi2
 1230 04c0 012B     		cmp	r3, #1
 1231 04c2 02D1     		bne	.L59
 119:../../source/src/kernel/OS_CORE/schedule/os_TCB_list.c **** 				{
 120:../../source/src/kernel/OS_CORE/schedule/os_TCB_list.c **** 					++ready_num;
 1232              		.loc 2 120 0
 1233 04c4 3B69     		ldr	r3, [r7, #16]
 1234 04c6 0133     		adds	r3, r3, #1
 1235 04c8 3B61     		str	r3, [r7, #16]
 1236              	.L59:
 121:../../source/src/kernel/OS_CORE/schedule/os_TCB_list.c **** 				}
 122:../../source/src/kernel/OS_CORE/schedule/os_TCB_list.c **** 				ka_printf("name: %s\n",TCB_ptr->name);
 1237              		.loc 2 122 0
 1238 04ca 3B68     		ldr	r3, [r7]
 1239 04cc DB6A     		ldr	r3, [r3, #44]
 1240 04ce 1946     		mov	r1, r3
 1241 04d0 4248     		ldr	r0, .L69+8
 1242 04d2 FFF7FEFF 		bl	ka_printf
 123:../../source/src/kernel/OS_CORE/schedule/os_TCB_list.c **** 				ka_printf("timeslice_hope_time: %d\n",TCB_ptr->timeslice_hope_time);
 1243              		.loc 2 123 0
 1244 04d6 3B68     		ldr	r3, [r7]
 1245 04d8 1B6B     		ldr	r3, [r3, #48]
 1246 04da 1946     		mov	r1, r3
 1247 04dc 4048     		ldr	r0, .L69+12
 1248 04de FFF7FEFF 		bl	ka_printf
 124:../../source/src/kernel/OS_CORE/schedule/os_TCB_list.c **** 				ka_printf("stack: %p\n",(void *)TCB_ptr->stack);
 1249              		.loc 2 124 0
 1250 04e2 3B68     		ldr	r3, [r7]
 1251 04e4 1B68     		ldr	r3, [r3]
 1252 04e6 1946     		mov	r1, r3
 1253 04e8 3E48     		ldr	r0, .L69+16
 1254 04ea FFF7FEFF 		bl	ka_printf
 125:../../source/src/kernel/OS_CORE/schedule/os_TCB_list.c **** 				ka_printf("stack_size: %d\n",TCB_ptr->stack_size);
 1255              		.loc 2 125 0
 1256 04ee 3B68     		ldr	r3, [r7]
 1257 04f0 5B68     		ldr	r3, [r3, #4]
 1258 04f2 1946     		mov	r1, r3
 1259 04f4 3C48     		ldr	r0, .L69+20
 1260 04f6 FFF7FEFF 		bl	ka_printf
 126:../../source/src/kernel/OS_CORE/schedule/os_TCB_list.c **** 				ka_printf("task_state: ");
 1261              		.loc 2 126 0
 1262 04fa 3C48     		ldr	r0, .L69+24
 1263 04fc FFF7FEFF 		bl	ka_printf
 127:../../source/src/kernel/OS_CORE/schedule/os_TCB_list.c **** 				switch(TCB_ptr->task_state)
 1264              		.loc 2 127 0
 1265 0500 3B68     		ldr	r3, [r7]
 1266 0502 1B7C     		ldrb	r3, [r3, #16]	@ zero_extendqisi2
 1267 0504 013B     		subs	r3, r3, #1
 1268 0506 092B     		cmp	r3, #9
ARM GAS  G:\Users\Jaxb\AppData\Local\Temp\ccKoN8kJ.s 			page 28


 1269 0508 22D8     		bhi	.L60
 1270 050a 01A2     		adr	r2, .L62
 1271 050c 52F823F0 		ldr	pc, [r2, r3, lsl #2]
 1272              		.p2align 2
 1273              	.L62:
 1274 0510 39050000 		.word	.L61+1
 1275 0514 41050000 		.word	.L63+1
 1276 0518 49050000 		.word	.L64+1
 1277 051c 49050000 		.word	.L64+1
 1278 0520 41050000 		.word	.L63+1
 1279 0524 49050000 		.word	.L64+1
 1280 0528 41050000 		.word	.L63+1
 1281 052c 49050000 		.word	.L64+1
 1282 0530 41050000 		.word	.L63+1
 1283 0534 49050000 		.word	.L64+1
 1284              		.p2align 1
 1285              	.L61:
 128:../../source/src/kernel/OS_CORE/schedule/os_TCB_list.c **** 				{
 129:../../source/src/kernel/OS_CORE/schedule/os_TCB_list.c **** 					case STATE_READY:
 130:../../source/src/kernel/OS_CORE/schedule/os_TCB_list.c **** 						ka_printf("STATE_READY\n");break;
 1286              		.loc 2 130 0
 1287 0538 2D48     		ldr	r0, .L69+28
 1288 053a FFF7FEFF 		bl	ka_printf
 1289 053e 07E0     		b	.L60
 1290              	.L63:
 131:../../source/src/kernel/OS_CORE/schedule/os_TCB_list.c **** 					case STATE_DELAY:
 132:../../source/src/kernel/OS_CORE/schedule/os_TCB_list.c **** 					case STATE_WAIT_MCB_TIMEOUT:
 133:../../source/src/kernel/OS_CORE/schedule/os_TCB_list.c **** 					case STATE_WAIT_MESSAGE_QUEUE_TIMEOUT:
 134:../../source/src/kernel/OS_CORE/schedule/os_TCB_list.c **** 					case STATE_PUT_MESSAGE_QUEUE_TIMEOUT:
 135:../../source/src/kernel/OS_CORE/schedule/os_TCB_list.c **** 						ka_printf("STATE_DELAY\n");break;
 1291              		.loc 2 135 0
 1292 0540 2C48     		ldr	r0, .L69+32
 1293 0542 FFF7FEFF 		bl	ka_printf
 1294 0546 03E0     		b	.L60
 1295              	.L64:
 136:../../source/src/kernel/OS_CORE/schedule/os_TCB_list.c **** 					case STATE_SUSPEND_NORMAL:
 137:../../source/src/kernel/OS_CORE/schedule/os_TCB_list.c **** 					case STATE_WAIT_MCB_FOREVER:
 138:../../source/src/kernel/OS_CORE/schedule/os_TCB_list.c **** 					case STATE_WAIT_MESSAGE_QUEUE_FOREVER:
 139:../../source/src/kernel/OS_CORE/schedule/os_TCB_list.c **** 					case STATE_PUT_MESSAGE_QUEUE_FOREVER:
 140:../../source/src/kernel/OS_CORE/schedule/os_TCB_list.c **** 					case STATE_WAIT_MUTEX_FOREVER:
 141:../../source/src/kernel/OS_CORE/schedule/os_TCB_list.c **** 						ka_printf("STATE_SUSPEND\n");break;
 1296              		.loc 2 141 0
 1297 0548 2B48     		ldr	r0, .L69+36
 1298 054a FFF7FEFF 		bl	ka_printf
 1299 054e 00BF     		nop
 1300              	.L60:
 142:../../source/src/kernel/OS_CORE/schedule/os_TCB_list.c **** 				}
 143:../../source/src/kernel/OS_CORE/schedule/os_TCB_list.c **** 				ka_printf("/*****************************************************/\n");
 1301              		.loc 2 143 0 discriminator 2
 1302 0550 2A48     		ldr	r0, .L69+40
 1303 0552 FFF7FEFF 		bl	ka_printf
 114:../../source/src/kernel/OS_CORE/schedule/os_TCB_list.c **** 			{
 1304              		.loc 2 114 0 discriminator 2
 1305 0556 BB68     		ldr	r3, [r7, #8]
 1306 0558 1B68     		ldr	r3, [r3]
 1307 055a BB60     		str	r3, [r7, #8]
 1308              	.L58:
ARM GAS  G:\Users\Jaxb\AppData\Local\Temp\ccKoN8kJ.s 			page 29


 114:../../source/src/kernel/OS_CORE/schedule/os_TCB_list.c **** 			{
 1309              		.loc 2 114 0 is_stmt 0 discriminator 1
 1310 055c 7A69     		ldr	r2, [r7, #20]
 1311 055e 1346     		mov	r3, r2
 1312 0560 5B00     		lsls	r3, r3, #1
 1313 0562 1344     		add	r3, r3, r2
 1314 0564 9B00     		lsls	r3, r3, #2
 1315 0566 1B4A     		ldr	r2, .L69
 1316 0568 1344     		add	r3, r3, r2
 1317 056a BA68     		ldr	r2, [r7, #8]
 1318 056c 9A42     		cmp	r2, r3
 1319 056e 9DD1     		bne	.L65
 144:../../source/src/kernel/OS_CORE/schedule/os_TCB_list.c **** 			}
 145:../../source/src/kernel/OS_CORE/schedule/os_TCB_list.c **** 			if(TCB_num != TCB_list[i].TCB_num)
 1320              		.loc 2 145 0 is_stmt 1
 1321 0570 1849     		ldr	r1, .L69
 1322 0572 7A69     		ldr	r2, [r7, #20]
 1323 0574 1346     		mov	r3, r2
 1324 0576 5B00     		lsls	r3, r3, #1
 1325 0578 1344     		add	r3, r3, r2
 1326 057a 9B00     		lsls	r3, r3, #2
 1327 057c 0B44     		add	r3, r3, r1
 1328 057e 0933     		adds	r3, r3, #9
 1329 0580 1B78     		ldrb	r3, [r3]	@ zero_extendqisi2
 1330 0582 1A46     		mov	r2, r3
 1331 0584 FB68     		ldr	r3, [r7, #12]
 1332 0586 9342     		cmp	r3, r2
 1333 0588 03D0     		beq	.L66
 146:../../source/src/kernel/OS_CORE/schedule/os_TCB_list.c **** 			{
 147:../../source/src/kernel/OS_CORE/schedule/os_TCB_list.c **** 				ka_printf("prio %d TCB_num error!\n",i);
 1334              		.loc 2 147 0
 1335 058a 7969     		ldr	r1, [r7, #20]
 1336 058c 1C48     		ldr	r0, .L69+44
 1337 058e FFF7FEFF 		bl	ka_printf
 1338              	.L66:
 148:../../source/src/kernel/OS_CORE/schedule/os_TCB_list.c **** 			}
 149:../../source/src/kernel/OS_CORE/schedule/os_TCB_list.c **** 			if(ready_num != TCB_list[i].ready_num)
 1339              		.loc 2 149 0
 1340 0592 1049     		ldr	r1, .L69
 1341 0594 7A69     		ldr	r2, [r7, #20]
 1342 0596 1346     		mov	r3, r2
 1343 0598 5B00     		lsls	r3, r3, #1
 1344 059a 1344     		add	r3, r3, r2
 1345 059c 9B00     		lsls	r3, r3, #2
 1346 059e 0B44     		add	r3, r3, r1
 1347 05a0 0833     		adds	r3, r3, #8
 1348 05a2 1B78     		ldrb	r3, [r3]	@ zero_extendqisi2
 1349 05a4 1A46     		mov	r2, r3
 1350 05a6 3B69     		ldr	r3, [r7, #16]
 1351 05a8 9342     		cmp	r3, r2
 1352 05aa 03D0     		beq	.L67
 150:../../source/src/kernel/OS_CORE/schedule/os_TCB_list.c **** 			{
 151:../../source/src/kernel/OS_CORE/schedule/os_TCB_list.c **** 				ka_printf("prio %d ready_num error!\n",i);
 1353              		.loc 2 151 0
 1354 05ac 7969     		ldr	r1, [r7, #20]
 1355 05ae 1548     		ldr	r0, .L69+48
 1356 05b0 FFF7FEFF 		bl	ka_printf
ARM GAS  G:\Users\Jaxb\AppData\Local\Temp\ccKoN8kJ.s 			page 30


 1357              	.L67:
 152:../../source/src/kernel/OS_CORE/schedule/os_TCB_list.c **** 			}
 153:../../source/src/kernel/OS_CORE/schedule/os_TCB_list.c **** 			ready_num = 0;
 1358              		.loc 2 153 0
 1359 05b4 0023     		movs	r3, #0
 1360 05b6 3B61     		str	r3, [r7, #16]
 154:../../source/src/kernel/OS_CORE/schedule/os_TCB_list.c **** 			TCB_num = 0;
 1361              		.loc 2 154 0
 1362 05b8 0023     		movs	r3, #0
 1363 05ba FB60     		str	r3, [r7, #12]
 1364              	.L57:
 109:../../source/src/kernel/OS_CORE/schedule/os_TCB_list.c **** 	{
 1365              		.loc 2 109 0 discriminator 2
 1366 05bc 7B69     		ldr	r3, [r7, #20]
 1367 05be 0133     		adds	r3, r3, #1
 1368 05c0 7B61     		str	r3, [r7, #20]
 1369              	.L56:
 109:../../source/src/kernel/OS_CORE/schedule/os_TCB_list.c **** 	{
 1370              		.loc 2 109 0 is_stmt 0 discriminator 1
 1371 05c2 7B69     		ldr	r3, [r7, #20]
 1372 05c4 3F2B     		cmp	r3, #63
 1373 05c6 7FF655AF 		bls	.L68
 155:../../source/src/kernel/OS_CORE/schedule/os_TCB_list.c **** 		}
 156:../../source/src/kernel/OS_CORE/schedule/os_TCB_list.c **** 	}
 157:../../source/src/kernel/OS_CORE/schedule/os_TCB_list.c **** }
 1374              		.loc 2 157 0 is_stmt 1
 1375 05ca 00BF     		nop
 1376 05cc 1837     		adds	r7, r7, #24
 1377              	.LCFI82:
 1378              		.cfi_def_cfa_offset 8
 1379 05ce BD46     		mov	sp, r7
 1380              	.LCFI83:
 1381              		.cfi_def_cfa_register 13
 1382              		@ sp needed
 1383 05d0 80BD     		pop	{r7, pc}
 1384              	.L70:
 1385 05d2 00BF     		.align	2
 1386              	.L69:
 1387 05d4 00000000 		.word	TCB_list
 1388 05d8 78000000 		.word	.LC2
 1389 05dc 8C000000 		.word	.LC3
 1390 05e0 98000000 		.word	.LC4
 1391 05e4 B4000000 		.word	.LC5
 1392 05e8 C0000000 		.word	.LC6
 1393 05ec D0000000 		.word	.LC7
 1394 05f0 E0000000 		.word	.LC8
 1395 05f4 F0000000 		.word	.LC9
 1396 05f8 00010000 		.word	.LC10
 1397 05fc 10010000 		.word	.LC11
 1398 0600 4C010000 		.word	.LC12
 1399 0604 64010000 		.word	.LC13
 1400              		.cfi_endproc
 1401              	.LFE20:
 1402              		.size	shell_check_TCB_list, .-shell_check_TCB_list
 1403              		.section	.rodata
 1404 017e 0000     		.align	2
 1405              	.LC14:
ARM GAS  G:\Users\Jaxb\AppData\Local\Temp\ccKoN8kJ.s 			page 31


 1406 0180 3D3D3D3D 		.ascii	"==================================================="
 1406      3D3D3D3D 
 1406      3D3D3D3D 
 1406      3D3D3D3D 
 1406      3D3D3D3D 
 1407 01b3 3D3D0A00 		.ascii	"==\012\000"
 1408 01b7 00       		.align	2
 1409              	.LC15:
 1410 01b8 7461736B 		.ascii	"task name : %s\012\000"
 1410      206E616D 
 1410      65203A20 
 1410      25730A00 
 1411              		.align	2
 1412              	.LC16:
 1413 01c8 54686520 		.ascii	"The stack space is from %p to %p\012\000"
 1413      73746163 
 1413      6B207370 
 1413      61636520 
 1413      69732066 
 1414 01ea 0000     		.align	2
 1415              	.LC17:
 1416 01ec 73746163 		.ascii	"stack full!!!!\012\000"
 1416      6B206675 
 1416      6C6C2121 
 1416      21210A00 
 1417              		.align	2
 1418              	.LC18:
 1419 01fc 73746163 		.ascii	"stack empty!!!!\012\000"
 1419      6B20656D 
 1419      70747921 
 1419      2121210A 
 1419      00
 1420 020d 000000   		.align	2
 1421              	.LC19:
 1422 0210 49742773 		.ascii	"It's stack used rate is %d%%\012\000"
 1422      20737461 
 1422      636B2075 
 1422      73656420 
 1422      72617465 
 1423              		.text
 1424              		.align	1
 1425              		.global	shell_stack_check
 1426              		.syntax unified
 1427              		.thumb
 1428              		.thumb_func
 1429              		.fpu softvfp
 1430              		.type	shell_stack_check, %function
 1431              	shell_stack_check:
 1432              	.LFB21:
 158:../../source/src/kernel/OS_CORE/schedule/os_TCB_list.c **** #endif
 159:../../source/src/kernel/OS_CORE/schedule/os_TCB_list.c **** 
 160:../../source/src/kernel/OS_CORE/schedule/os_TCB_list.c **** #if CONFIG_SHELL_EN
 161:../../source/src/kernel/OS_CORE/schedule/os_TCB_list.c **** void shell_stack_check(int argc, char const *argv[])
 162:../../source/src/kernel/OS_CORE/schedule/os_TCB_list.c **** {
 1433              		.loc 2 162 0
 1434              		.cfi_startproc
 1435              		@ args = 0, pretend = 0, frame = 32
ARM GAS  G:\Users\Jaxb\AppData\Local\Temp\ccKoN8kJ.s 			page 32


 1436              		@ frame_needed = 1, uses_anonymous_args = 0
 1437 0608 80B5     		push	{r7, lr}
 1438              	.LCFI84:
 1439              		.cfi_def_cfa_offset 8
 1440              		.cfi_offset 7, -8
 1441              		.cfi_offset 14, -4
 1442 060a 88B0     		sub	sp, sp, #32
 1443              	.LCFI85:
 1444              		.cfi_def_cfa_offset 40
 1445 060c 00AF     		add	r7, sp, #0
 1446              	.LCFI86:
 1447              		.cfi_def_cfa_register 7
 1448 060e 7860     		str	r0, [r7, #4]
 1449 0610 3960     		str	r1, [r7]
 163:../../source/src/kernel/OS_CORE/schedule/os_TCB_list.c **** 	(void)argc;
 164:../../source/src/kernel/OS_CORE/schedule/os_TCB_list.c **** 	(void)argv;
 165:../../source/src/kernel/OS_CORE/schedule/os_TCB_list.c **** 	unsigned int i;
 166:../../source/src/kernel/OS_CORE/schedule/os_TCB_list.c **** 	struct list_head *pos;
 167:../../source/src/kernel/OS_CORE/schedule/os_TCB_list.c **** 	TCB *TCB_ptr;
 168:../../source/src/kernel/OS_CORE/schedule/os_TCB_list.c **** 	for(i=0;i<PRIO_MAX;++i)
 1450              		.loc 2 168 0
 1451 0612 0023     		movs	r3, #0
 1452 0614 FB61     		str	r3, [r7, #28]
 1453 0616 78E0     		b	.L72
 1454              	.L80:
 169:../../source/src/kernel/OS_CORE/schedule/os_TCB_list.c **** 	{
 170:../../source/src/kernel/OS_CORE/schedule/os_TCB_list.c **** 		if(!list_empty(&TCB_list[i].head))
 1455              		.loc 2 170 0
 1456 0618 FA69     		ldr	r2, [r7, #28]
 1457 061a 1346     		mov	r3, r2
 1458 061c 5B00     		lsls	r3, r3, #1
 1459 061e 1344     		add	r3, r3, r2
 1460 0620 9B00     		lsls	r3, r3, #2
 1461 0622 3D4A     		ldr	r2, .L81
 1462 0624 1344     		add	r3, r3, r2
 1463 0626 1846     		mov	r0, r3
 1464 0628 FFF740FD 		bl	list_empty
 1465 062c 0346     		mov	r3, r0
 1466 062e 002B     		cmp	r3, #0
 1467 0630 68D1     		bne	.L73
 171:../../source/src/kernel/OS_CORE/schedule/os_TCB_list.c **** 		{
 172:../../source/src/kernel/OS_CORE/schedule/os_TCB_list.c **** 			list_for_each(pos,&TCB_list[i].head)
 1468              		.loc 2 172 0
 1469 0632 3949     		ldr	r1, .L81
 1470 0634 FA69     		ldr	r2, [r7, #28]
 1471 0636 1346     		mov	r3, r2
 1472 0638 5B00     		lsls	r3, r3, #1
 1473 063a 1344     		add	r3, r3, r2
 1474 063c 9B00     		lsls	r3, r3, #2
 1475 063e 0B44     		add	r3, r3, r1
 1476 0640 1B68     		ldr	r3, [r3]
 1477 0642 BB61     		str	r3, [r7, #24]
 1478 0644 54E0     		b	.L74
 1479              	.L79:
 1480              	.LBB3:
 173:../../source/src/kernel/OS_CORE/schedule/os_TCB_list.c **** 			{
 174:../../source/src/kernel/OS_CORE/schedule/os_TCB_list.c **** 				unsigned int num = 0;
ARM GAS  G:\Users\Jaxb\AppData\Local\Temp\ccKoN8kJ.s 			page 33


 1481              		.loc 2 174 0
 1482 0646 0023     		movs	r3, #0
 1483 0648 7B61     		str	r3, [r7, #20]
 1484              	.LBB4:
 175:../../source/src/kernel/OS_CORE/schedule/os_TCB_list.c **** 				TCB_ptr = list_entry(pos,TCB,same_prio_list);
 1485              		.loc 2 175 0
 1486 064a BB69     		ldr	r3, [r7, #24]
 1487 064c FB60     		str	r3, [r7, #12]
 1488 064e FB68     		ldr	r3, [r7, #12]
 1489 0650 1C3B     		subs	r3, r3, #28
 1490              	.LBE4:
 1491 0652 BB60     		str	r3, [r7, #8]
 176:../../source/src/kernel/OS_CORE/schedule/os_TCB_list.c **** 				unsigned int *ptr = (unsigned int *)(TCB_ptr->stack_end);
 1492              		.loc 2 176 0
 1493 0654 BB68     		ldr	r3, [r7, #8]
 1494 0656 9B68     		ldr	r3, [r3, #8]
 1495 0658 3B61     		str	r3, [r7, #16]
 177:../../source/src/kernel/OS_CORE/schedule/os_TCB_list.c **** 				ka_printf("=====================================================\n");
 1496              		.loc 2 177 0
 1497 065a 3048     		ldr	r0, .L81+4
 1498 065c FFF7FEFF 		bl	ka_printf
 178:../../source/src/kernel/OS_CORE/schedule/os_TCB_list.c **** 				ka_printf("task name : %s\n",TCB_ptr->name);
 1499              		.loc 2 178 0
 1500 0660 BB68     		ldr	r3, [r7, #8]
 1501 0662 DB6A     		ldr	r3, [r3, #44]
 1502 0664 1946     		mov	r1, r3
 1503 0666 2E48     		ldr	r0, .L81+8
 1504 0668 FFF7FEFF 		bl	ka_printf
 179:../../source/src/kernel/OS_CORE/schedule/os_TCB_list.c **** 				ka_printf("The stack space is from %p to %p\n",TCB_ptr->stack_end,(STACK_TYPE *)TCB_ptr->stack_
 1505              		.loc 2 179 0
 1506 066c BB68     		ldr	r3, [r7, #8]
 1507 066e 9968     		ldr	r1, [r3, #8]
 1508 0670 BB68     		ldr	r3, [r7, #8]
 1509 0672 9A68     		ldr	r2, [r3, #8]
 1510 0674 BB68     		ldr	r3, [r7, #8]
 1511 0676 5B68     		ldr	r3, [r3, #4]
 1512 0678 23F00303 		bic	r3, r3, #3
 1513 067c 1344     		add	r3, r3, r2
 1514 067e 1A46     		mov	r2, r3
 1515 0680 2848     		ldr	r0, .L81+12
 1516 0682 FFF7FEFF 		bl	ka_printf
 180:../../source/src/kernel/OS_CORE/schedule/os_TCB_list.c **** 				if(0 != *(unsigned int *)(TCB_ptr->stack_end))
 1517              		.loc 2 180 0
 1518 0686 BB68     		ldr	r3, [r7, #8]
 1519 0688 9B68     		ldr	r3, [r3, #8]
 1520 068a 1B68     		ldr	r3, [r3]
 1521 068c 002B     		cmp	r3, #0
 1522 068e 19D0     		beq	.L76
 181:../../source/src/kernel/OS_CORE/schedule/os_TCB_list.c **** 				{
 182:../../source/src/kernel/OS_CORE/schedule/os_TCB_list.c **** 					ka_printf("stack full!!!!\n");
 1523              		.loc 2 182 0
 1524 0690 2548     		ldr	r0, .L81+16
 1525 0692 FFF7FEFF 		bl	ka_printf
 183:../../source/src/kernel/OS_CORE/schedule/os_TCB_list.c **** 					ASSERT(0);
 1526              		.loc 2 183 0
 1527 0696 B721     		movs	r1, #183
 1528 0698 2448     		ldr	r0, .L81+20
ARM GAS  G:\Users\Jaxb\AppData\Local\Temp\ccKoN8kJ.s 			page 34


 1529 069a FFF7FEFF 		bl	_ASSERT
 184:../../source/src/kernel/OS_CORE/schedule/os_TCB_list.c **** 				}
 185:../../source/src/kernel/OS_CORE/schedule/os_TCB_list.c **** 				while(0 == *ptr)
 1530              		.loc 2 185 0
 1531 069e 11E0     		b	.L76
 1532              	.L78:
 186:../../source/src/kernel/OS_CORE/schedule/os_TCB_list.c **** 				{
 187:../../source/src/kernel/OS_CORE/schedule/os_TCB_list.c **** 					++num;
 1533              		.loc 2 187 0
 1534 06a0 7B69     		ldr	r3, [r7, #20]
 1535 06a2 0133     		adds	r3, r3, #1
 1536 06a4 7B61     		str	r3, [r7, #20]
 188:../../source/src/kernel/OS_CORE/schedule/os_TCB_list.c **** 					++ptr;
 1537              		.loc 2 188 0
 1538 06a6 3B69     		ldr	r3, [r7, #16]
 1539 06a8 0433     		adds	r3, r3, #4
 1540 06aa 3B61     		str	r3, [r7, #16]
 189:../../source/src/kernel/OS_CORE/schedule/os_TCB_list.c **** 					if((char *)ptr == (char *)(TCB_ptr->stack_end) + TCB_ptr->stack_size)
 1541              		.loc 2 189 0
 1542 06ac BB68     		ldr	r3, [r7, #8]
 1543 06ae 9A68     		ldr	r2, [r3, #8]
 1544 06b0 BB68     		ldr	r3, [r7, #8]
 1545 06b2 5B68     		ldr	r3, [r3, #4]
 1546 06b4 1344     		add	r3, r3, r2
 1547 06b6 3A69     		ldr	r2, [r7, #16]
 1548 06b8 9A42     		cmp	r2, r3
 1549 06ba 03D1     		bne	.L76
 190:../../source/src/kernel/OS_CORE/schedule/os_TCB_list.c **** 					{
 191:../../source/src/kernel/OS_CORE/schedule/os_TCB_list.c **** 						ka_printf("stack empty!!!!\n");
 1550              		.loc 2 191 0
 1551 06bc 1C48     		ldr	r0, .L81+24
 1552 06be FFF7FEFF 		bl	ka_printf
 192:../../source/src/kernel/OS_CORE/schedule/os_TCB_list.c **** 						break;
 1553              		.loc 2 192 0
 1554 06c2 03E0     		b	.L77
 1555              	.L76:
 185:../../source/src/kernel/OS_CORE/schedule/os_TCB_list.c **** 				{
 1556              		.loc 2 185 0
 1557 06c4 3B69     		ldr	r3, [r7, #16]
 1558 06c6 1B68     		ldr	r3, [r3]
 1559 06c8 002B     		cmp	r3, #0
 1560 06ca E9D0     		beq	.L78
 1561              	.L77:
 193:../../source/src/kernel/OS_CORE/schedule/os_TCB_list.c **** 					}
 194:../../source/src/kernel/OS_CORE/schedule/os_TCB_list.c **** 				}
 195:../../source/src/kernel/OS_CORE/schedule/os_TCB_list.c **** 				ka_printf("It's stack used rate is %d%%\n",100-400*num / TCB_ptr->stack_size);
 1562              		.loc 2 195 0 discriminator 2
 1563 06cc 7B69     		ldr	r3, [r7, #20]
 1564 06ce 4FF4C872 		mov	r2, #400
 1565 06d2 02FB03F2 		mul	r2, r2, r3
 1566 06d6 BB68     		ldr	r3, [r7, #8]
 1567 06d8 5B68     		ldr	r3, [r3, #4]
 1568 06da B2FBF3F3 		udiv	r3, r2, r3
 1569 06de C3F16403 		rsb	r3, r3, #100
 1570 06e2 1946     		mov	r1, r3
 1571 06e4 1348     		ldr	r0, .L81+28
 1572 06e6 FFF7FEFF 		bl	ka_printf
ARM GAS  G:\Users\Jaxb\AppData\Local\Temp\ccKoN8kJ.s 			page 35


 1573              	.LBE3:
 172:../../source/src/kernel/OS_CORE/schedule/os_TCB_list.c **** 			{
 1574              		.loc 2 172 0 discriminator 2
 1575 06ea BB69     		ldr	r3, [r7, #24]
 1576 06ec 1B68     		ldr	r3, [r3]
 1577 06ee BB61     		str	r3, [r7, #24]
 1578              	.L74:
 172:../../source/src/kernel/OS_CORE/schedule/os_TCB_list.c **** 			{
 1579              		.loc 2 172 0 is_stmt 0 discriminator 1
 1580 06f0 FA69     		ldr	r2, [r7, #28]
 1581 06f2 1346     		mov	r3, r2
 1582 06f4 5B00     		lsls	r3, r3, #1
 1583 06f6 1344     		add	r3, r3, r2
 1584 06f8 9B00     		lsls	r3, r3, #2
 1585 06fa 074A     		ldr	r2, .L81
 1586 06fc 1344     		add	r3, r3, r2
 1587 06fe BA69     		ldr	r2, [r7, #24]
 1588 0700 9A42     		cmp	r2, r3
 1589 0702 A0D1     		bne	.L79
 1590              	.L73:
 168:../../source/src/kernel/OS_CORE/schedule/os_TCB_list.c **** 	{
 1591              		.loc 2 168 0 is_stmt 1 discriminator 2
 1592 0704 FB69     		ldr	r3, [r7, #28]
 1593 0706 0133     		adds	r3, r3, #1
 1594 0708 FB61     		str	r3, [r7, #28]
 1595              	.L72:
 168:../../source/src/kernel/OS_CORE/schedule/os_TCB_list.c **** 	{
 1596              		.loc 2 168 0 is_stmt 0 discriminator 1
 1597 070a FB69     		ldr	r3, [r7, #28]
 1598 070c 3F2B     		cmp	r3, #63
 1599 070e 83D9     		bls	.L80
 196:../../source/src/kernel/OS_CORE/schedule/os_TCB_list.c **** 			}
 197:../../source/src/kernel/OS_CORE/schedule/os_TCB_list.c **** 		}
 198:../../source/src/kernel/OS_CORE/schedule/os_TCB_list.c **** 	}
 199:../../source/src/kernel/OS_CORE/schedule/os_TCB_list.c **** }
 1600              		.loc 2 199 0 is_stmt 1
 1601 0710 00BF     		nop
 1602 0712 2037     		adds	r7, r7, #32
 1603              	.LCFI87:
 1604              		.cfi_def_cfa_offset 8
 1605 0714 BD46     		mov	sp, r7
 1606              	.LCFI88:
 1607              		.cfi_def_cfa_register 13
 1608              		@ sp needed
 1609 0716 80BD     		pop	{r7, pc}
 1610              	.L82:
 1611              		.align	2
 1612              	.L81:
 1613 0718 00000000 		.word	TCB_list
 1614 071c 80010000 		.word	.LC14
 1615 0720 B8010000 		.word	.LC15
 1616 0724 C8010000 		.word	.LC16
 1617 0728 EC010000 		.word	.LC17
 1618 072c 00000000 		.word	.LC0
 1619 0730 FC010000 		.word	.LC18
 1620 0734 10020000 		.word	.LC19
 1621              		.cfi_endproc
ARM GAS  G:\Users\Jaxb\AppData\Local\Temp\ccKoN8kJ.s 			page 36


 1622              	.LFE21:
 1623              		.size	shell_stack_check, .-shell_stack_check
 1624              		.section	.rodata
 1625 022e 0000     		.align	2
 1626              	.LC20:
 1627 0230 7368656C 		.ascii	"shell\000"
 1627      6C00
 1628 0236 0000     		.align	2
 1629              	.LC21:
 1630 0238 6E6F7720 		.ascii	"now show task shell's register is volatile\012\000"
 1630      73686F77 
 1630      20746173 
 1630      6B207368 
 1630      656C6C27 
 1631              		.align	2
 1632              	.LC22:
 1633 0264 52342009 		.ascii	"R4 \011= \011%x\012\000"
 1633      3D200925 
 1633      780A00
 1634 026f 00       		.align	2
 1635              	.LC23:
 1636 0270 52352009 		.ascii	"R5 \011= \011%x\012\000"
 1636      3D200925 
 1636      780A00
 1637 027b 00       		.align	2
 1638              	.LC24:
 1639 027c 52362009 		.ascii	"R6 \011= \011%x\012\000"
 1639      3D200925 
 1639      780A00
 1640 0287 00       		.align	2
 1641              	.LC25:
 1642 0288 52372009 		.ascii	"R7 \011= \011%x\012\000"
 1642      3D200925 
 1642      780A00
 1643 0293 00       		.align	2
 1644              	.LC26:
 1645 0294 52382009 		.ascii	"R8 \011= \011%x\012\000"
 1645      3D200925 
 1645      780A00
 1646 029f 00       		.align	2
 1647              	.LC27:
 1648 02a0 52392009 		.ascii	"R9 \011= \011%x\012\000"
 1648      3D200925 
 1648      780A00
 1649 02ab 00       		.align	2
 1650              	.LC28:
 1651 02ac 52313020 		.ascii	"R10 \011= \011%x\012\000"
 1651      093D2009 
 1651      25780A00 
 1652              		.align	2
 1653              	.LC29:
 1654 02b8 52313120 		.ascii	"R11 \011= \011%x\012\000"
 1654      093D2009 
 1654      25780A00 
 1655              		.align	2
 1656              	.LC30:
 1657 02c4 78505352 		.ascii	"xPSR\011=\011%x\012\000"
ARM GAS  G:\Users\Jaxb\AppData\Local\Temp\ccKoN8kJ.s 			page 37


 1657      093D0925 
 1657      780A00
 1658 02cf 00       		.align	2
 1659              	.LC31:
 1660 02d0 50432009 		.ascii	"PC \011= \011%x\012\000"
 1660      3D200925 
 1660      780A00
 1661 02db 00       		.align	2
 1662              	.LC32:
 1663 02dc 52313220 		.ascii	"R12 \011= \011%x\012\000"
 1663      093D2009 
 1663      25780A00 
 1664              		.align	2
 1665              	.LC33:
 1666 02e8 52332009 		.ascii	"R3 \011= \011%x\012\000"
 1666      3D200925 
 1666      780A00
 1667 02f3 00       		.align	2
 1668              	.LC34:
 1669 02f4 52322009 		.ascii	"R2 \011= \011%x\012\000"
 1669      3D200925 
 1669      780A00
 1670 02ff 00       		.align	2
 1671              	.LC35:
 1672 0300 52312009 		.ascii	"R1 \011= \011%x\012\000"
 1672      3D200925 
 1672      780A00
 1673 030b 00       		.align	2
 1674              	.LC36:
 1675 030c 52302009 		.ascii	"R0 \011= \011%x\012\000"
 1675      3D200925 
 1675      780A00
 1676              		.text
 1677              		.align	1
 1678              		.global	shell_show_tasks_registers
 1679              		.syntax unified
 1680              		.thumb
 1681              		.thumb_func
 1682              		.fpu softvfp
 1683              		.type	shell_show_tasks_registers, %function
 1684              	shell_show_tasks_registers:
 1685              	.LFB22:
 200:../../source/src/kernel/OS_CORE/schedule/os_TCB_list.c **** #endif
 201:../../source/src/kernel/OS_CORE/schedule/os_TCB_list.c **** 
 202:../../source/src/kernel/OS_CORE/schedule/os_TCB_list.c **** #if CONFIG_SHELL_EN
 203:../../source/src/kernel/OS_CORE/schedule/os_TCB_list.c **** 
 204:../../source/src/kernel/OS_CORE/schedule/os_TCB_list.c **** void shell_show_tasks_registers(int argc, char const *argv[])
 205:../../source/src/kernel/OS_CORE/schedule/os_TCB_list.c **** {
 1686              		.loc 2 205 0
 1687              		.cfi_startproc
 1688              		@ args = 0, pretend = 0, frame = 32
 1689              		@ frame_needed = 1, uses_anonymous_args = 0
 1690 0738 80B5     		push	{r7, lr}
 1691              	.LCFI89:
 1692              		.cfi_def_cfa_offset 8
 1693              		.cfi_offset 7, -8
 1694              		.cfi_offset 14, -4
ARM GAS  G:\Users\Jaxb\AppData\Local\Temp\ccKoN8kJ.s 			page 38


 1695 073a 88B0     		sub	sp, sp, #32
 1696              	.LCFI90:
 1697              		.cfi_def_cfa_offset 40
 1698 073c 00AF     		add	r7, sp, #0
 1699              	.LCFI91:
 1700              		.cfi_def_cfa_register 7
 1701 073e 7860     		str	r0, [r7, #4]
 1702 0740 3960     		str	r1, [r7]
 206:../../source/src/kernel/OS_CORE/schedule/os_TCB_list.c **** 	(void)argc;
 207:../../source/src/kernel/OS_CORE/schedule/os_TCB_list.c **** 	(void)argv;
 208:../../source/src/kernel/OS_CORE/schedule/os_TCB_list.c **** 	unsigned int i;
 209:../../source/src/kernel/OS_CORE/schedule/os_TCB_list.c **** 	//struct list_head *pos;
 210:../../source/src/kernel/OS_CORE/schedule/os_TCB_list.c **** 	TCB *TCB_ptr;
 211:../../source/src/kernel/OS_CORE/schedule/os_TCB_list.c **** 	for(i=0;i<PRIO_MAX;++i)
 1703              		.loc 2 211 0
 1704 0742 0023     		movs	r3, #0
 1705 0744 FB61     		str	r3, [r7, #28]
 1706 0746 C2E0     		b	.L84
 1707              	.L90:
 212:../../source/src/kernel/OS_CORE/schedule/os_TCB_list.c **** 	{
 213:../../source/src/kernel/OS_CORE/schedule/os_TCB_list.c **** 		if(!list_empty(&TCB_list[i].head))
 1708              		.loc 2 213 0
 1709 0748 FA69     		ldr	r2, [r7, #28]
 1710 074a 1346     		mov	r3, r2
 1711 074c 5B00     		lsls	r3, r3, #1
 1712 074e 1344     		add	r3, r3, r2
 1713 0750 9B00     		lsls	r3, r3, #2
 1714 0752 634A     		ldr	r2, .L91
 1715 0754 1344     		add	r3, r3, r2
 1716 0756 1846     		mov	r0, r3
 1717 0758 FFF7A8FC 		bl	list_empty
 1718 075c 0346     		mov	r3, r0
 1719 075e 002B     		cmp	r3, #0
 1720 0760 40F0B280 		bne	.L85
 1721              	.LBB5:
 214:../../source/src/kernel/OS_CORE/schedule/os_TCB_list.c **** 		{
 215:../../source/src/kernel/OS_CORE/schedule/os_TCB_list.c **** 			list_for_each_entry(TCB_ptr,&TCB_list[i].head,same_prio_list)
 1722              		.loc 2 215 0
 1723 0764 5E49     		ldr	r1, .L91
 1724 0766 FA69     		ldr	r2, [r7, #28]
 1725 0768 1346     		mov	r3, r2
 1726 076a 5B00     		lsls	r3, r3, #1
 1727 076c 1344     		add	r3, r3, r2
 1728 076e 9B00     		lsls	r3, r3, #2
 1729 0770 0B44     		add	r3, r3, r1
 1730 0772 1B68     		ldr	r3, [r3]
 1731 0774 7B61     		str	r3, [r7, #20]
 1732 0776 7B69     		ldr	r3, [r7, #20]
 1733 0778 1C3B     		subs	r3, r3, #28
 1734              	.LBE5:
 1735 077a BB61     		str	r3, [r7, #24]
 1736 077c 97E0     		b	.L86
 1737              	.L89:
 1738              	.LBB6:
 216:../../source/src/kernel/OS_CORE/schedule/os_TCB_list.c **** 			{
 217:../../source/src/kernel/OS_CORE/schedule/os_TCB_list.c **** 				const UINT32 *reg = (unsigned int *)(TCB_ptr->stack);
 1739              		.loc 2 217 0
ARM GAS  G:\Users\Jaxb\AppData\Local\Temp\ccKoN8kJ.s 			page 39


 1740 077e BB69     		ldr	r3, [r7, #24]
 1741 0780 1B68     		ldr	r3, [r3]
 1742 0782 3B61     		str	r3, [r7, #16]
 218:../../source/src/kernel/OS_CORE/schedule/os_TCB_list.c **** 				ka_printf("=====================================================\n");
 1743              		.loc 2 218 0
 1744 0784 5748     		ldr	r0, .L91+4
 1745 0786 FFF7FEFF 		bl	ka_printf
 219:../../source/src/kernel/OS_CORE/schedule/os_TCB_list.c **** 				ka_printf("task name : %s\n",TCB_ptr->name);
 1746              		.loc 2 219 0
 1747 078a BB69     		ldr	r3, [r7, #24]
 1748 078c DB6A     		ldr	r3, [r3, #44]
 1749 078e 1946     		mov	r1, r3
 1750 0790 5548     		ldr	r0, .L91+8
 1751 0792 FFF7FEFF 		bl	ka_printf
 220:../../source/src/kernel/OS_CORE/schedule/os_TCB_list.c **** 				if(0 == ka_strcmp(TCB_ptr->name,"shell"))
 1752              		.loc 2 220 0
 1753 0796 BB69     		ldr	r3, [r7, #24]
 1754 0798 DB6A     		ldr	r3, [r3, #44]
 1755 079a 5449     		ldr	r1, .L91+12
 1756 079c 1846     		mov	r0, r3
 1757 079e FFF7FEFF 		bl	ka_strcmp
 1758 07a2 0346     		mov	r3, r0
 1759 07a4 002B     		cmp	r3, #0
 1760 07a6 03D1     		bne	.L87
 221:../../source/src/kernel/OS_CORE/schedule/os_TCB_list.c **** 				{
 222:../../source/src/kernel/OS_CORE/schedule/os_TCB_list.c **** 					ka_printf("now show task shell's register is volatile\n");
 1761              		.loc 2 222 0
 1762 07a8 5148     		ldr	r0, .L91+16
 1763 07aa FFF7FEFF 		bl	ka_printf
 223:../../source/src/kernel/OS_CORE/schedule/os_TCB_list.c **** 					continue;
 1764              		.loc 2 223 0
 1765 07ae 78E0     		b	.L88
 1766              	.L87:
 224:../../source/src/kernel/OS_CORE/schedule/os_TCB_list.c **** 				}
 225:../../source/src/kernel/OS_CORE/schedule/os_TCB_list.c **** 				ka_printf("R4 	= 	%x\n",*reg++);
 1767              		.loc 2 225 0
 1768 07b0 3B69     		ldr	r3, [r7, #16]
 1769 07b2 1A1D     		adds	r2, r3, #4
 1770 07b4 3A61     		str	r2, [r7, #16]
 1771 07b6 1B68     		ldr	r3, [r3]
 1772 07b8 1946     		mov	r1, r3
 1773 07ba 4E48     		ldr	r0, .L91+20
 1774 07bc FFF7FEFF 		bl	ka_printf
 226:../../source/src/kernel/OS_CORE/schedule/os_TCB_list.c **** 				ka_printf("R5 	= 	%x\n",*reg++);
 1775              		.loc 2 226 0
 1776 07c0 3B69     		ldr	r3, [r7, #16]
 1777 07c2 1A1D     		adds	r2, r3, #4
 1778 07c4 3A61     		str	r2, [r7, #16]
 1779 07c6 1B68     		ldr	r3, [r3]
 1780 07c8 1946     		mov	r1, r3
 1781 07ca 4B48     		ldr	r0, .L91+24
 1782 07cc FFF7FEFF 		bl	ka_printf
 227:../../source/src/kernel/OS_CORE/schedule/os_TCB_list.c **** 				ka_printf("R6 	= 	%x\n",*reg++);
 1783              		.loc 2 227 0
 1784 07d0 3B69     		ldr	r3, [r7, #16]
 1785 07d2 1A1D     		adds	r2, r3, #4
 1786 07d4 3A61     		str	r2, [r7, #16]
ARM GAS  G:\Users\Jaxb\AppData\Local\Temp\ccKoN8kJ.s 			page 40


 1787 07d6 1B68     		ldr	r3, [r3]
 1788 07d8 1946     		mov	r1, r3
 1789 07da 4848     		ldr	r0, .L91+28
 1790 07dc FFF7FEFF 		bl	ka_printf
 228:../../source/src/kernel/OS_CORE/schedule/os_TCB_list.c **** 				ka_printf("R7 	= 	%x\n",*reg++);
 1791              		.loc 2 228 0
 1792 07e0 3B69     		ldr	r3, [r7, #16]
 1793 07e2 1A1D     		adds	r2, r3, #4
 1794 07e4 3A61     		str	r2, [r7, #16]
 1795 07e6 1B68     		ldr	r3, [r3]
 1796 07e8 1946     		mov	r1, r3
 1797 07ea 4548     		ldr	r0, .L91+32
 1798 07ec FFF7FEFF 		bl	ka_printf
 229:../../source/src/kernel/OS_CORE/schedule/os_TCB_list.c **** 				ka_printf("R8 	= 	%x\n",*reg++);
 1799              		.loc 2 229 0
 1800 07f0 3B69     		ldr	r3, [r7, #16]
 1801 07f2 1A1D     		adds	r2, r3, #4
 1802 07f4 3A61     		str	r2, [r7, #16]
 1803 07f6 1B68     		ldr	r3, [r3]
 1804 07f8 1946     		mov	r1, r3
 1805 07fa 4248     		ldr	r0, .L91+36
 1806 07fc FFF7FEFF 		bl	ka_printf
 230:../../source/src/kernel/OS_CORE/schedule/os_TCB_list.c **** 				ka_printf("R9 	= 	%x\n",*reg++);
 1807              		.loc 2 230 0
 1808 0800 3B69     		ldr	r3, [r7, #16]
 1809 0802 1A1D     		adds	r2, r3, #4
 1810 0804 3A61     		str	r2, [r7, #16]
 1811 0806 1B68     		ldr	r3, [r3]
 1812 0808 1946     		mov	r1, r3
 1813 080a 3F48     		ldr	r0, .L91+40
 1814 080c FFF7FEFF 		bl	ka_printf
 231:../../source/src/kernel/OS_CORE/schedule/os_TCB_list.c **** 				ka_printf("R10 	= 	%x\n",*reg++);
 1815              		.loc 2 231 0
 1816 0810 3B69     		ldr	r3, [r7, #16]
 1817 0812 1A1D     		adds	r2, r3, #4
 1818 0814 3A61     		str	r2, [r7, #16]
 1819 0816 1B68     		ldr	r3, [r3]
 1820 0818 1946     		mov	r1, r3
 1821 081a 3C48     		ldr	r0, .L91+44
 1822 081c FFF7FEFF 		bl	ka_printf
 232:../../source/src/kernel/OS_CORE/schedule/os_TCB_list.c **** 				ka_printf("R11 	= 	%x\n",*reg++);
 1823              		.loc 2 232 0
 1824 0820 3B69     		ldr	r3, [r7, #16]
 1825 0822 1A1D     		adds	r2, r3, #4
 1826 0824 3A61     		str	r2, [r7, #16]
 1827 0826 1B68     		ldr	r3, [r3]
 1828 0828 1946     		mov	r1, r3
 1829 082a 3948     		ldr	r0, .L91+48
 1830 082c FFF7FEFF 		bl	ka_printf
 233:../../source/src/kernel/OS_CORE/schedule/os_TCB_list.c **** 				ka_printf("xPSR	=	%x\n",*reg++);
 1831              		.loc 2 233 0
 1832 0830 3B69     		ldr	r3, [r7, #16]
 1833 0832 1A1D     		adds	r2, r3, #4
 1834 0834 3A61     		str	r2, [r7, #16]
 1835 0836 1B68     		ldr	r3, [r3]
 1836 0838 1946     		mov	r1, r3
 1837 083a 3648     		ldr	r0, .L91+52
ARM GAS  G:\Users\Jaxb\AppData\Local\Temp\ccKoN8kJ.s 			page 41


 1838 083c FFF7FEFF 		bl	ka_printf
 234:../../source/src/kernel/OS_CORE/schedule/os_TCB_list.c **** 				ka_printf("PC 	= 	%x\n",*reg++);
 1839              		.loc 2 234 0
 1840 0840 3B69     		ldr	r3, [r7, #16]
 1841 0842 1A1D     		adds	r2, r3, #4
 1842 0844 3A61     		str	r2, [r7, #16]
 1843 0846 1B68     		ldr	r3, [r3]
 1844 0848 1946     		mov	r1, r3
 1845 084a 3348     		ldr	r0, .L91+56
 1846 084c FFF7FEFF 		bl	ka_printf
 235:../../source/src/kernel/OS_CORE/schedule/os_TCB_list.c **** 				ka_printf("R12 	= 	%x\n",*reg++);
 1847              		.loc 2 235 0
 1848 0850 3B69     		ldr	r3, [r7, #16]
 1849 0852 1A1D     		adds	r2, r3, #4
 1850 0854 3A61     		str	r2, [r7, #16]
 1851 0856 1B68     		ldr	r3, [r3]
 1852 0858 1946     		mov	r1, r3
 1853 085a 3048     		ldr	r0, .L91+60
 1854 085c FFF7FEFF 		bl	ka_printf
 236:../../source/src/kernel/OS_CORE/schedule/os_TCB_list.c **** 				ka_printf("R3 	= 	%x\n",*reg++);
 1855              		.loc 2 236 0
 1856 0860 3B69     		ldr	r3, [r7, #16]
 1857 0862 1A1D     		adds	r2, r3, #4
 1858 0864 3A61     		str	r2, [r7, #16]
 1859 0866 1B68     		ldr	r3, [r3]
 1860 0868 1946     		mov	r1, r3
 1861 086a 2D48     		ldr	r0, .L91+64
 1862 086c FFF7FEFF 		bl	ka_printf
 237:../../source/src/kernel/OS_CORE/schedule/os_TCB_list.c **** 				ka_printf("R2 	= 	%x\n",*reg++);
 1863              		.loc 2 237 0
 1864 0870 3B69     		ldr	r3, [r7, #16]
 1865 0872 1A1D     		adds	r2, r3, #4
 1866 0874 3A61     		str	r2, [r7, #16]
 1867 0876 1B68     		ldr	r3, [r3]
 1868 0878 1946     		mov	r1, r3
 1869 087a 2A48     		ldr	r0, .L91+68
 1870 087c FFF7FEFF 		bl	ka_printf
 238:../../source/src/kernel/OS_CORE/schedule/os_TCB_list.c **** 				ka_printf("R1 	= 	%x\n",*reg++);
 1871              		.loc 2 238 0
 1872 0880 3B69     		ldr	r3, [r7, #16]
 1873 0882 1A1D     		adds	r2, r3, #4
 1874 0884 3A61     		str	r2, [r7, #16]
 1875 0886 1B68     		ldr	r3, [r3]
 1876 0888 1946     		mov	r1, r3
 1877 088a 2748     		ldr	r0, .L91+72
 1878 088c FFF7FEFF 		bl	ka_printf
 239:../../source/src/kernel/OS_CORE/schedule/os_TCB_list.c **** 				ka_printf("R0 	= 	%x\n",*reg);
 1879              		.loc 2 239 0
 1880 0890 3B69     		ldr	r3, [r7, #16]
 1881 0892 1B68     		ldr	r3, [r3]
 1882 0894 1946     		mov	r1, r3
 1883 0896 2548     		ldr	r0, .L91+76
 1884 0898 FFF7FEFF 		bl	ka_printf
 240:../../source/src/kernel/OS_CORE/schedule/os_TCB_list.c **** 				ka_printf("=====================================================\n");
 1885              		.loc 2 240 0
 1886 089c 1148     		ldr	r0, .L91+4
 1887 089e FFF7FEFF 		bl	ka_printf
ARM GAS  G:\Users\Jaxb\AppData\Local\Temp\ccKoN8kJ.s 			page 42


 1888              	.L88:
 1889              	.LBE6:
 1890              	.LBB7:
 215:../../source/src/kernel/OS_CORE/schedule/os_TCB_list.c **** 			{
 1891              		.loc 2 215 0 discriminator 2
 1892 08a2 BB69     		ldr	r3, [r7, #24]
 1893 08a4 DB69     		ldr	r3, [r3, #28]
 1894 08a6 FB60     		str	r3, [r7, #12]
 1895 08a8 FB68     		ldr	r3, [r7, #12]
 1896 08aa 1C3B     		subs	r3, r3, #28
 1897              	.LBE7:
 1898 08ac BB61     		str	r3, [r7, #24]
 1899              	.L86:
 215:../../source/src/kernel/OS_CORE/schedule/os_TCB_list.c **** 			{
 1900              		.loc 2 215 0 is_stmt 0 discriminator 1
 1901 08ae BB69     		ldr	r3, [r7, #24]
 1902 08b0 03F11C01 		add	r1, r3, #28
 1903 08b4 FA69     		ldr	r2, [r7, #28]
 1904 08b6 1346     		mov	r3, r2
 1905 08b8 5B00     		lsls	r3, r3, #1
 1906 08ba 1344     		add	r3, r3, r2
 1907 08bc 9B00     		lsls	r3, r3, #2
 1908 08be 084A     		ldr	r2, .L91
 1909 08c0 1344     		add	r3, r3, r2
 1910 08c2 9942     		cmp	r1, r3
 1911 08c4 7FF45BAF 		bne	.L89
 1912              	.L85:
 211:../../source/src/kernel/OS_CORE/schedule/os_TCB_list.c **** 	{
 1913              		.loc 2 211 0 is_stmt 1 discriminator 2
 1914 08c8 FB69     		ldr	r3, [r7, #28]
 1915 08ca 0133     		adds	r3, r3, #1
 1916 08cc FB61     		str	r3, [r7, #28]
 1917              	.L84:
 211:../../source/src/kernel/OS_CORE/schedule/os_TCB_list.c **** 	{
 1918              		.loc 2 211 0 is_stmt 0 discriminator 1
 1919 08ce FB69     		ldr	r3, [r7, #28]
 1920 08d0 3F2B     		cmp	r3, #63
 1921 08d2 7FF639AF 		bls	.L90
 241:../../source/src/kernel/OS_CORE/schedule/os_TCB_list.c **** 			}
 242:../../source/src/kernel/OS_CORE/schedule/os_TCB_list.c **** 		}
 243:../../source/src/kernel/OS_CORE/schedule/os_TCB_list.c **** 	}
 244:../../source/src/kernel/OS_CORE/schedule/os_TCB_list.c **** }
 1922              		.loc 2 244 0 is_stmt 1
 1923 08d6 00BF     		nop
 1924 08d8 2037     		adds	r7, r7, #32
 1925              	.LCFI92:
 1926              		.cfi_def_cfa_offset 8
 1927 08da BD46     		mov	sp, r7
 1928              	.LCFI93:
 1929              		.cfi_def_cfa_register 13
 1930              		@ sp needed
 1931 08dc 80BD     		pop	{r7, pc}
 1932              	.L92:
 1933 08de 00BF     		.align	2
 1934              	.L91:
 1935 08e0 00000000 		.word	TCB_list
 1936 08e4 80010000 		.word	.LC14
ARM GAS  G:\Users\Jaxb\AppData\Local\Temp\ccKoN8kJ.s 			page 43


 1937 08e8 B8010000 		.word	.LC15
 1938 08ec 30020000 		.word	.LC20
 1939 08f0 38020000 		.word	.LC21
 1940 08f4 64020000 		.word	.LC22
 1941 08f8 70020000 		.word	.LC23
 1942 08fc 7C020000 		.word	.LC24
 1943 0900 88020000 		.word	.LC25
 1944 0904 94020000 		.word	.LC26
 1945 0908 A0020000 		.word	.LC27
 1946 090c AC020000 		.word	.LC28
 1947 0910 B8020000 		.word	.LC29
 1948 0914 C4020000 		.word	.LC30
 1949 0918 D0020000 		.word	.LC31
 1950 091c DC020000 		.word	.LC32
 1951 0920 E8020000 		.word	.LC33
 1952 0924 F4020000 		.word	.LC34
 1953 0928 00030000 		.word	.LC35
 1954 092c 0C030000 		.word	.LC36
 1955              		.cfi_endproc
 1956              	.LFE22:
 1957              		.size	shell_show_tasks_registers, .-shell_show_tasks_registers
 1958              	.Letext0:
 1959              		.file 3 "../../source/include/os_cpu/kakaosstdint.h"
 1960              		.file 4 "../../source/include/os_core/task_state.h"
 1961              		.file 5 "../../source/include/os_core/TCB.h"
 1962              		.file 6 "../../source/include/os_core/schedule/os_TCB_list.h"
 1963              		.section	.debug_info,"",%progbits
 1964              	.Ldebug_info0:
 1965 0000 25070000 		.4byte	0x725
 1966 0004 0200     		.2byte	0x2
 1967 0006 00000000 		.4byte	.Ldebug_abbrev0
 1968 000a 04       		.byte	0x4
 1969 000b 01       		.uleb128 0x1
 1970 000c 68040000 		.4byte	.LASF70
 1971 0010 0C       		.byte	0xc
 1972 0011 EF020000 		.4byte	.LASF71
 1973 0015 3B010000 		.4byte	.LASF72
 1974 0019 00000000 		.4byte	.Ltext0
 1975 001d 30090000 		.4byte	.Letext0
 1976 0021 00000000 		.4byte	.Ldebug_line0
 1977 0025 02       		.uleb128 0x2
 1978 0026 3F000000 		.4byte	.LASF25
 1979 002a 08       		.byte	0x8
 1980 002b 01       		.byte	0x1
 1981 002c 04       		.byte	0x4
 1982 002d 4E000000 		.4byte	0x4e
 1983 0031 03       		.uleb128 0x3
 1984 0032 49050000 		.4byte	.LASF0
 1985 0036 01       		.byte	0x1
 1986 0037 05       		.byte	0x5
 1987 0038 53000000 		.4byte	0x53
 1988 003c 02       		.byte	0x2
 1989 003d 23       		.byte	0x23
 1990 003e 00       		.uleb128 0
 1991 003f 03       		.uleb128 0x3
 1992 0040 27050000 		.4byte	.LASF1
 1993 0044 01       		.byte	0x1
ARM GAS  G:\Users\Jaxb\AppData\Local\Temp\ccKoN8kJ.s 			page 44


 1994 0045 05       		.byte	0x5
 1995 0046 53000000 		.4byte	0x53
 1996 004a 02       		.byte	0x2
 1997 004b 23       		.byte	0x23
 1998 004c 04       		.uleb128 0x4
 1999 004d 00       		.byte	0
 2000 004e 04       		.uleb128 0x4
 2001 004f 25000000 		.4byte	0x25
 2002 0053 05       		.uleb128 0x5
 2003 0054 04       		.byte	0x4
 2004 0055 25000000 		.4byte	0x25
 2005 0059 06       		.uleb128 0x6
 2006 005a 01       		.byte	0x1
 2007 005b 06       		.byte	0x6
 2008 005c 24020000 		.4byte	.LASF2
 2009 0060 06       		.uleb128 0x6
 2010 0061 02       		.byte	0x2
 2011 0062 05       		.byte	0x5
 2012 0063 52000000 		.4byte	.LASF3
 2013 0067 07       		.uleb128 0x7
 2014 0068 04       		.byte	0x4
 2015 0069 05       		.byte	0x5
 2016 006a 696E7400 		.ascii	"int\000"
 2017 006e 08       		.uleb128 0x8
 2018 006f 67000000 		.4byte	0x67
 2019 0073 06       		.uleb128 0x6
 2020 0074 08       		.byte	0x8
 2021 0075 05       		.byte	0x5
 2022 0076 69010000 		.4byte	.LASF4
 2023 007a 06       		.uleb128 0x6
 2024 007b 01       		.byte	0x1
 2025 007c 08       		.byte	0x8
 2026 007d F8010000 		.4byte	.LASF5
 2027 0081 06       		.uleb128 0x6
 2028 0082 02       		.byte	0x2
 2029 0083 07       		.byte	0x7
 2030 0084 B5020000 		.4byte	.LASF6
 2031 0088 09       		.uleb128 0x9
 2032 0089 8D000000 		.4byte	.LASF8
 2033 008d 03       		.byte	0x3
 2034 008e 0C       		.byte	0xc
 2035 008f 98000000 		.4byte	0x98
 2036 0093 04       		.uleb128 0x4
 2037 0094 88000000 		.4byte	0x88
 2038 0098 06       		.uleb128 0x6
 2039 0099 04       		.byte	0x4
 2040 009a 07       		.byte	0x7
 2041 009b 47020000 		.4byte	.LASF7
 2042 009f 09       		.uleb128 0x9
 2043 00a0 3D050000 		.4byte	.LASF9
 2044 00a4 03       		.byte	0x3
 2045 00a5 0D       		.byte	0xd
 2046 00a6 AA000000 		.4byte	0xaa
 2047 00aa 06       		.uleb128 0x6
 2048 00ab 08       		.byte	0x8
 2049 00ac 07       		.byte	0x7
 2050 00ad 30020000 		.4byte	.LASF10
ARM GAS  G:\Users\Jaxb\AppData\Local\Temp\ccKoN8kJ.s 			page 45


 2051 00b1 09       		.uleb128 0x9
 2052 00b2 5C000000 		.4byte	.LASF11
 2053 00b6 03       		.byte	0x3
 2054 00b7 23       		.byte	0x23
 2055 00b8 98000000 		.4byte	0x98
 2056 00bc 0A       		.uleb128 0xa
 2057 00bd 9F000000 		.4byte	.LASF73
 2058 00c1 07       		.byte	0x7
 2059 00c2 01       		.byte	0x1
 2060 00c3 7A000000 		.4byte	0x7a
 2061 00c7 04       		.byte	0x4
 2062 00c8 04       		.byte	0x4
 2063 00c9 0A010000 		.4byte	0x10a
 2064 00cd 0B       		.uleb128 0xb
 2065 00ce C8020000 		.4byte	.LASF12
 2066 00d2 01       		.byte	0x1
 2067 00d3 0B       		.uleb128 0xb
 2068 00d4 0C020000 		.4byte	.LASF13
 2069 00d8 02       		.byte	0x2
 2070 00d9 0B       		.uleb128 0xb
 2071 00da 2A000000 		.4byte	.LASF14
 2072 00de 03       		.byte	0x3
 2073 00df 0B       		.uleb128 0xb
 2074 00e0 A3030000 		.4byte	.LASF15
 2075 00e4 04       		.byte	0x4
 2076 00e5 0B       		.uleb128 0xb
 2077 00e6 FE000000 		.4byte	.LASF16
 2078 00ea 05       		.byte	0x5
 2079 00eb 0B       		.uleb128 0xb
 2080 00ec 6C000000 		.4byte	.LASF17
 2081 00f0 06       		.byte	0x6
 2082 00f1 0B       		.uleb128 0xb
 2083 00f2 1A010000 		.4byte	.LASF18
 2084 00f6 07       		.byte	0x7
 2085 00f7 0B       		.uleb128 0xb
 2086 00f8 AA000000 		.4byte	.LASF19
 2087 00fc 08       		.byte	0x8
 2088 00fd 0B       		.uleb128 0xb
 2089 00fe 26030000 		.4byte	.LASF20
 2090 0102 09       		.byte	0x9
 2091 0103 0B       		.uleb128 0xb
 2092 0104 0E050000 		.4byte	.LASF21
 2093 0108 0A       		.byte	0xa
 2094 0109 00       		.byte	0
 2095 010a 09       		.uleb128 0x9
 2096 010b A9010000 		.4byte	.LASF22
 2097 010f 04       		.byte	0x4
 2098 0110 0F       		.byte	0xf
 2099 0111 BC000000 		.4byte	0xbc
 2100 0115 09       		.uleb128 0x9
 2101 0116 94000000 		.4byte	.LASF23
 2102 011a 05       		.byte	0x5
 2103 011b 0A       		.byte	0xa
 2104 011c 98000000 		.4byte	0x98
 2105 0120 09       		.uleb128 0x9
 2106 0121 00000000 		.4byte	.LASF24
 2107 0125 05       		.byte	0x5
ARM GAS  G:\Users\Jaxb\AppData\Local\Temp\ccKoN8kJ.s 			page 46


 2108 0126 0C       		.byte	0xc
 2109 0127 98000000 		.4byte	0x98
 2110 012b 0C       		.uleb128 0xc
 2111 012c 42040000 		.4byte	.LASF74
 2112 0130 05       		.byte	0x5
 2113 0131 13       		.byte	0x13
 2114 0132 6E000000 		.4byte	0x6e
 2115 0136 01       		.byte	0x1
 2116 0137 01       		.byte	0x1
 2117 0138 02       		.uleb128 0x2
 2118 0139 D7030000 		.4byte	.LASF26
 2119 013d 48       		.byte	0x48
 2120 013e 05       		.byte	0x5
 2121 013f 37       		.byte	0x37
 2122 0140 17020000 		.4byte	0x217
 2123 0144 03       		.uleb128 0x3
 2124 0145 6A020000 		.4byte	.LASF27
 2125 0149 05       		.byte	0x5
 2126 014a 38       		.byte	0x38
 2127 014b 17020000 		.4byte	0x217
 2128 014f 02       		.byte	0x2
 2129 0150 23       		.byte	0x23
 2130 0151 00       		.uleb128 0
 2131 0152 03       		.uleb128 0x3
 2132 0153 F1030000 		.4byte	.LASF28
 2133 0157 05       		.byte	0x5
 2134 0158 39       		.byte	0x39
 2135 0159 98000000 		.4byte	0x98
 2136 015d 02       		.byte	0x2
 2137 015e 23       		.byte	0x23
 2138 015f 04       		.uleb128 0x4
 2139 0160 03       		.uleb128 0x3
 2140 0161 F4000000 		.4byte	.LASF29
 2141 0165 05       		.byte	0x5
 2142 0166 3A       		.byte	0x3a
 2143 0167 17020000 		.4byte	0x217
 2144 016b 02       		.byte	0x2
 2145 016c 23       		.byte	0x23
 2146 016d 08       		.uleb128 0x8
 2147 016e 03       		.uleb128 0x3
 2148 016f 06040000 		.4byte	.LASF30
 2149 0173 05       		.byte	0x5
 2150 0174 3B       		.byte	0x3b
 2151 0175 20010000 		.4byte	0x120
 2152 0179 02       		.byte	0x2
 2153 017a 23       		.byte	0x23
 2154 017b 0C       		.uleb128 0xc
 2155 017c 03       		.uleb128 0x3
 2156 017d 7B030000 		.4byte	.LASF31
 2157 0181 05       		.byte	0x5
 2158 0182 3C       		.byte	0x3c
 2159 0183 0A010000 		.4byte	0x10a
 2160 0187 02       		.byte	0x2
 2161 0188 23       		.byte	0x23
 2162 0189 10       		.uleb128 0x10
 2163 018a 03       		.uleb128 0x3
 2164 018b 44050000 		.4byte	.LASF32
ARM GAS  G:\Users\Jaxb\AppData\Local\Temp\ccKoN8kJ.s 			page 47


 2165 018f 05       		.byte	0x5
 2166 0190 3D       		.byte	0x3d
 2167 0191 20010000 		.4byte	0x120
 2168 0195 02       		.byte	0x2
 2169 0196 23       		.byte	0x23
 2170 0197 14       		.uleb128 0x14
 2171 0198 03       		.uleb128 0x3
 2172 0199 67030000 		.4byte	.LASF33
 2173 019d 05       		.byte	0x5
 2174 019e 3E       		.byte	0x3e
 2175 019f 67000000 		.4byte	0x67
 2176 01a3 02       		.byte	0x2
 2177 01a4 23       		.byte	0x23
 2178 01a5 18       		.uleb128 0x18
 2179 01a6 03       		.uleb128 0x3
 2180 01a7 83020000 		.4byte	.LASF34
 2181 01ab 05       		.byte	0x5
 2182 01ac 3F       		.byte	0x3f
 2183 01ad 25000000 		.4byte	0x25
 2184 01b1 02       		.byte	0x2
 2185 01b2 23       		.byte	0x23
 2186 01b3 1C       		.uleb128 0x1c
 2187 01b4 03       		.uleb128 0x3
 2188 01b5 35040000 		.4byte	.LASF35
 2189 01b9 05       		.byte	0x5
 2190 01ba 40       		.byte	0x40
 2191 01bb 25000000 		.4byte	0x25
 2192 01bf 02       		.byte	0x2
 2193 01c0 23       		.byte	0x23
 2194 01c1 24       		.uleb128 0x24
 2195 01c2 03       		.uleb128 0x3
 2196 01c3 CB010000 		.4byte	.LASF36
 2197 01c7 05       		.byte	0x5
 2198 01c8 41       		.byte	0x41
 2199 01c9 1D020000 		.4byte	0x21d
 2200 01cd 02       		.byte	0x2
 2201 01ce 23       		.byte	0x23
 2202 01cf 2C       		.uleb128 0x2c
 2203 01d0 03       		.uleb128 0x3
 2204 01d1 7F010000 		.4byte	.LASF37
 2205 01d5 05       		.byte	0x5
 2206 01d6 42       		.byte	0x42
 2207 01d7 98000000 		.4byte	0x98
 2208 01db 02       		.byte	0x2
 2209 01dc 23       		.byte	0x23
 2210 01dd 30       		.uleb128 0x30
 2211 01de 03       		.uleb128 0x3
 2212 01df 8F030000 		.4byte	.LASF38
 2213 01e3 05       		.byte	0x5
 2214 01e4 43       		.byte	0x43
 2215 01e5 98000000 		.4byte	0x98
 2216 01e9 02       		.byte	0x2
 2217 01ea 23       		.byte	0x23
 2218 01eb 34       		.uleb128 0x34
 2219 01ec 03       		.uleb128 0x3
 2220 01ed 18020000 		.4byte	.LASF39
 2221 01f1 05       		.byte	0x5
ARM GAS  G:\Users\Jaxb\AppData\Local\Temp\ccKoN8kJ.s 			page 48


 2222 01f2 44       		.byte	0x44
 2223 01f3 88000000 		.4byte	0x88
 2224 01f7 02       		.byte	0x2
 2225 01f8 23       		.byte	0x23
 2226 01f9 38       		.uleb128 0x38
 2227 01fa 03       		.uleb128 0x3
 2228 01fb D0010000 		.4byte	.LASF40
 2229 01ff 05       		.byte	0x5
 2230 0200 45       		.byte	0x45
 2231 0201 35020000 		.4byte	0x235
 2232 0205 02       		.byte	0x2
 2233 0206 23       		.byte	0x23
 2234 0207 3C       		.uleb128 0x3c
 2235 0208 03       		.uleb128 0x3
 2236 0209 2C050000 		.4byte	.LASF41
 2237 020d 05       		.byte	0x5
 2238 020e 46       		.byte	0x46
 2239 020f 9F000000 		.4byte	0x9f
 2240 0213 02       		.byte	0x2
 2241 0214 23       		.byte	0x23
 2242 0215 40       		.uleb128 0x40
 2243 0216 00       		.byte	0
 2244 0217 05       		.uleb128 0x5
 2245 0218 04       		.byte	0x4
 2246 0219 15010000 		.4byte	0x115
 2247 021d 05       		.uleb128 0x5
 2248 021e 04       		.byte	0x4
 2249 021f 23020000 		.4byte	0x223
 2250 0223 06       		.uleb128 0x6
 2251 0224 01       		.byte	0x1
 2252 0225 08       		.byte	0x8
 2253 0226 EA020000 		.4byte	.LASF42
 2254 022a 04       		.uleb128 0x4
 2255 022b 23020000 		.4byte	0x223
 2256 022f 0D       		.uleb128 0xd
 2257 0230 A6020000 		.4byte	.LASF75
 2258 0234 01       		.byte	0x1
 2259 0235 05       		.uleb128 0x5
 2260 0236 04       		.byte	0x4
 2261 0237 2F020000 		.4byte	0x22f
 2262 023b 0E       		.uleb128 0xe
 2263 023c 54434200 		.ascii	"TCB\000"
 2264 0240 05       		.byte	0x5
 2265 0241 47       		.byte	0x47
 2266 0242 38010000 		.4byte	0x138
 2267 0246 02       		.uleb128 0x2
 2268 0247 86030000 		.4byte	.LASF43
 2269 024b 0C       		.byte	0xc
 2270 024c 06       		.byte	0x6
 2271 024d 07       		.byte	0x7
 2272 024e 7D020000 		.4byte	0x27d
 2273 0252 03       		.uleb128 0x3
 2274 0253 DE000000 		.4byte	.LASF44
 2275 0257 06       		.byte	0x6
 2276 0258 08       		.byte	0x8
 2277 0259 25000000 		.4byte	0x25
 2278 025d 02       		.byte	0x2
ARM GAS  G:\Users\Jaxb\AppData\Local\Temp\ccKoN8kJ.s 			page 49


 2279 025e 23       		.byte	0x23
 2280 025f 00       		.uleb128 0
 2281 0260 03       		.uleb128 0x3
 2282 0261 FC030000 		.4byte	.LASF45
 2283 0265 06       		.byte	0x6
 2284 0266 09       		.byte	0x9
 2285 0267 7A000000 		.4byte	0x7a
 2286 026b 02       		.byte	0x2
 2287 026c 23       		.byte	0x23
 2288 026d 08       		.uleb128 0x8
 2289 026e 03       		.uleb128 0x3
 2290 026f 77010000 		.4byte	.LASF46
 2291 0273 06       		.byte	0x6
 2292 0274 0A       		.byte	0xa
 2293 0275 7A000000 		.4byte	0x7a
 2294 0279 02       		.byte	0x2
 2295 027a 23       		.byte	0x23
 2296 027b 09       		.uleb128 0x9
 2297 027c 00       		.byte	0
 2298 027d 0F       		.uleb128 0xf
 2299 027e 46020000 		.4byte	0x246
 2300 0282 8D020000 		.4byte	0x28d
 2301 0286 10       		.uleb128 0x10
 2302 0287 98000000 		.4byte	0x98
 2303 028b 3F       		.byte	0x3f
 2304 028c 00       		.byte	0
 2305 028d 11       		.uleb128 0x11
 2306 028e 86030000 		.4byte	.LASF43
 2307 0292 02       		.byte	0x2
 2308 0293 07       		.byte	0x7
 2309 0294 7D020000 		.4byte	0x27d
 2310 0298 05       		.byte	0x5
 2311 0299 03       		.byte	0x3
 2312 029a 00000000 		.4byte	TCB_list
 2313 029e 12       		.uleb128 0x12
 2314 029f 01       		.byte	0x1
 2315 02a0 0F000000 		.4byte	.LASF51
 2316 02a4 02       		.byte	0x2
 2317 02a5 CC       		.byte	0xcc
 2318 02a6 01       		.byte	0x1
 2319 02a7 38070000 		.4byte	.LFB22
 2320 02ab 30090000 		.4byte	.LFE22
 2321 02af 00000000 		.4byte	.LLST17
 2322 02b3 01       		.byte	0x1
 2323 02b4 3F030000 		.4byte	0x33f
 2324 02b8 13       		.uleb128 0x13
 2325 02b9 15010000 		.4byte	.LASF47
 2326 02bd 02       		.byte	0x2
 2327 02be CC       		.byte	0xcc
 2328 02bf 67000000 		.4byte	0x67
 2329 02c3 02       		.byte	0x2
 2330 02c4 91       		.byte	0x91
 2331 02c5 5C       		.sleb128 -36
 2332 02c6 13       		.uleb128 0x13
 2333 02c7 C6010000 		.4byte	.LASF48
 2334 02cb 02       		.byte	0x2
 2335 02cc CC       		.byte	0xcc
ARM GAS  G:\Users\Jaxb\AppData\Local\Temp\ccKoN8kJ.s 			page 50


 2336 02cd 3F030000 		.4byte	0x33f
 2337 02d1 02       		.byte	0x2
 2338 02d2 91       		.byte	0x91
 2339 02d3 58       		.sleb128 -40
 2340 02d4 14       		.uleb128 0x14
 2341 02d5 6900     		.ascii	"i\000"
 2342 02d7 02       		.byte	0x2
 2343 02d8 D0       		.byte	0xd0
 2344 02d9 98000000 		.4byte	0x98
 2345 02dd 02       		.byte	0x2
 2346 02de 91       		.byte	0x91
 2347 02df 74       		.sleb128 -12
 2348 02e0 11       		.uleb128 0x11
 2349 02e1 5F030000 		.4byte	.LASF49
 2350 02e5 02       		.byte	0x2
 2351 02e6 D2       		.byte	0xd2
 2352 02e7 4B030000 		.4byte	0x34b
 2353 02eb 02       		.byte	0x2
 2354 02ec 91       		.byte	0x91
 2355 02ed 70       		.sleb128 -16
 2356 02ee 15       		.uleb128 0x15
 2357 02ef 64070000 		.4byte	.LBB5
 2358 02f3 7A070000 		.4byte	.LBE5
 2359 02f7 0A030000 		.4byte	0x30a
 2360 02fb 11       		.uleb128 0x11
 2361 02fc 58030000 		.4byte	.LASF50
 2362 0300 02       		.byte	0x2
 2363 0301 D7       		.byte	0xd7
 2364 0302 51030000 		.4byte	0x351
 2365 0306 02       		.byte	0x2
 2366 0307 91       		.byte	0x91
 2367 0308 6C       		.sleb128 -20
 2368 0309 00       		.byte	0
 2369 030a 15       		.uleb128 0x15
 2370 030b 7E070000 		.4byte	.LBB6
 2371 030f A2080000 		.4byte	.LBE6
 2372 0313 26030000 		.4byte	0x326
 2373 0317 14       		.uleb128 0x14
 2374 0318 72656700 		.ascii	"reg\000"
 2375 031c 02       		.byte	0x2
 2376 031d D9       		.byte	0xd9
 2377 031e 57030000 		.4byte	0x357
 2378 0322 02       		.byte	0x2
 2379 0323 91       		.byte	0x91
 2380 0324 68       		.sleb128 -24
 2381 0325 00       		.byte	0
 2382 0326 16       		.uleb128 0x16
 2383 0327 A2080000 		.4byte	.LBB7
 2384 032b AC080000 		.4byte	.LBE7
 2385 032f 11       		.uleb128 0x11
 2386 0330 58030000 		.4byte	.LASF50
 2387 0334 02       		.byte	0x2
 2388 0335 D7       		.byte	0xd7
 2389 0336 51030000 		.4byte	0x351
 2390 033a 02       		.byte	0x2
 2391 033b 91       		.byte	0x91
 2392 033c 64       		.sleb128 -28
ARM GAS  G:\Users\Jaxb\AppData\Local\Temp\ccKoN8kJ.s 			page 51


 2393 033d 00       		.byte	0
 2394 033e 00       		.byte	0
 2395 033f 05       		.uleb128 0x5
 2396 0340 04       		.byte	0x4
 2397 0341 45030000 		.4byte	0x345
 2398 0345 05       		.uleb128 0x5
 2399 0346 04       		.byte	0x4
 2400 0347 2A020000 		.4byte	0x22a
 2401 034b 05       		.uleb128 0x5
 2402 034c 04       		.byte	0x4
 2403 034d 3B020000 		.4byte	0x23b
 2404 0351 05       		.uleb128 0x5
 2405 0352 04       		.byte	0x4
 2406 0353 4E000000 		.4byte	0x4e
 2407 0357 05       		.uleb128 0x5
 2408 0358 04       		.byte	0x4
 2409 0359 93000000 		.4byte	0x93
 2410 035d 12       		.uleb128 0x12
 2411 035e 01       		.byte	0x1
 2412 035f 13040000 		.4byte	.LASF52
 2413 0363 02       		.byte	0x2
 2414 0364 A1       		.byte	0xa1
 2415 0365 01       		.byte	0x1
 2416 0366 08060000 		.4byte	.LFB21
 2417 036a 38070000 		.4byte	.LFE21
 2418 036e 50000000 		.4byte	.LLST16
 2419 0372 01       		.byte	0x1
 2420 0373 FA030000 		.4byte	0x3fa
 2421 0377 13       		.uleb128 0x13
 2422 0378 15010000 		.4byte	.LASF47
 2423 037c 02       		.byte	0x2
 2424 037d A1       		.byte	0xa1
 2425 037e 67000000 		.4byte	0x67
 2426 0382 02       		.byte	0x2
 2427 0383 91       		.byte	0x91
 2428 0384 5C       		.sleb128 -36
 2429 0385 13       		.uleb128 0x13
 2430 0386 C6010000 		.4byte	.LASF48
 2431 038a 02       		.byte	0x2
 2432 038b A1       		.byte	0xa1
 2433 038c 3F030000 		.4byte	0x33f
 2434 0390 02       		.byte	0x2
 2435 0391 91       		.byte	0x91
 2436 0392 58       		.sleb128 -40
 2437 0393 14       		.uleb128 0x14
 2438 0394 6900     		.ascii	"i\000"
 2439 0396 02       		.byte	0x2
 2440 0397 A5       		.byte	0xa5
 2441 0398 98000000 		.4byte	0x98
 2442 039c 02       		.byte	0x2
 2443 039d 91       		.byte	0x91
 2444 039e 74       		.sleb128 -12
 2445 039f 14       		.uleb128 0x14
 2446 03a0 706F7300 		.ascii	"pos\000"
 2447 03a4 02       		.byte	0x2
 2448 03a5 A6       		.byte	0xa6
 2449 03a6 53000000 		.4byte	0x53
ARM GAS  G:\Users\Jaxb\AppData\Local\Temp\ccKoN8kJ.s 			page 52


 2450 03aa 02       		.byte	0x2
 2451 03ab 91       		.byte	0x91
 2452 03ac 70       		.sleb128 -16
 2453 03ad 11       		.uleb128 0x11
 2454 03ae 5F030000 		.4byte	.LASF49
 2455 03b2 02       		.byte	0x2
 2456 03b3 A7       		.byte	0xa7
 2457 03b4 4B030000 		.4byte	0x34b
 2458 03b8 02       		.byte	0x2
 2459 03b9 91       		.byte	0x91
 2460 03ba 60       		.sleb128 -32
 2461 03bb 16       		.uleb128 0x16
 2462 03bc 46060000 		.4byte	.LBB3
 2463 03c0 EA060000 		.4byte	.LBE3
 2464 03c4 14       		.uleb128 0x14
 2465 03c5 6E756D00 		.ascii	"num\000"
 2466 03c9 02       		.byte	0x2
 2467 03ca AE       		.byte	0xae
 2468 03cb 98000000 		.4byte	0x98
 2469 03cf 02       		.byte	0x2
 2470 03d0 91       		.byte	0x91
 2471 03d1 6C       		.sleb128 -20
 2472 03d2 14       		.uleb128 0x14
 2473 03d3 70747200 		.ascii	"ptr\000"
 2474 03d7 02       		.byte	0x2
 2475 03d8 B0       		.byte	0xb0
 2476 03d9 FA030000 		.4byte	0x3fa
 2477 03dd 02       		.byte	0x2
 2478 03de 91       		.byte	0x91
 2479 03df 68       		.sleb128 -24
 2480 03e0 16       		.uleb128 0x16
 2481 03e1 4A060000 		.4byte	.LBB4
 2482 03e5 52060000 		.4byte	.LBE4
 2483 03e9 11       		.uleb128 0x11
 2484 03ea 58030000 		.4byte	.LASF50
 2485 03ee 02       		.byte	0x2
 2486 03ef AF       		.byte	0xaf
 2487 03f0 51030000 		.4byte	0x351
 2488 03f4 02       		.byte	0x2
 2489 03f5 91       		.byte	0x91
 2490 03f6 64       		.sleb128 -28
 2491 03f7 00       		.byte	0
 2492 03f8 00       		.byte	0
 2493 03f9 00       		.byte	0
 2494 03fa 05       		.uleb128 0x5
 2495 03fb 04       		.byte	0x4
 2496 03fc 98000000 		.4byte	0x98
 2497 0400 12       		.uleb128 0x12
 2498 0401 01       		.byte	0x1
 2499 0402 E3010000 		.4byte	.LASF53
 2500 0406 02       		.byte	0x2
 2501 0407 67       		.byte	0x67
 2502 0408 01       		.byte	0x1
 2503 0409 60040000 		.4byte	.LFB20
 2504 040d 08060000 		.4byte	.LFE20
 2505 0411 A0000000 		.4byte	.LLST15
 2506 0415 01       		.byte	0x1
ARM GAS  G:\Users\Jaxb\AppData\Local\Temp\ccKoN8kJ.s 			page 53


 2507 0416 77040000 		.4byte	0x477
 2508 041a 14       		.uleb128 0x14
 2509 041b 6900     		.ascii	"i\000"
 2510 041d 02       		.byte	0x2
 2511 041e 69       		.byte	0x69
 2512 041f 98000000 		.4byte	0x98
 2513 0423 02       		.byte	0x2
 2514 0424 91       		.byte	0x91
 2515 0425 74       		.sleb128 -12
 2516 0426 11       		.uleb128 0x11
 2517 0427 FC030000 		.4byte	.LASF45
 2518 042b 02       		.byte	0x2
 2519 042c 6A       		.byte	0x6a
 2520 042d 98000000 		.4byte	0x98
 2521 0431 02       		.byte	0x2
 2522 0432 91       		.byte	0x91
 2523 0433 70       		.sleb128 -16
 2524 0434 11       		.uleb128 0x11
 2525 0435 77010000 		.4byte	.LASF46
 2526 0439 02       		.byte	0x2
 2527 043a 6A       		.byte	0x6a
 2528 043b 98000000 		.4byte	0x98
 2529 043f 02       		.byte	0x2
 2530 0440 91       		.byte	0x91
 2531 0441 6C       		.sleb128 -20
 2532 0442 14       		.uleb128 0x14
 2533 0443 706F7300 		.ascii	"pos\000"
 2534 0447 02       		.byte	0x2
 2535 0448 6B       		.byte	0x6b
 2536 0449 53000000 		.4byte	0x53
 2537 044d 02       		.byte	0x2
 2538 044e 91       		.byte	0x91
 2539 044f 68       		.sleb128 -24
 2540 0450 11       		.uleb128 0x11
 2541 0451 5F030000 		.4byte	.LASF49
 2542 0455 02       		.byte	0x2
 2543 0456 6C       		.byte	0x6c
 2544 0457 4B030000 		.4byte	0x34b
 2545 045b 02       		.byte	0x2
 2546 045c 91       		.byte	0x91
 2547 045d 60       		.sleb128 -32
 2548 045e 16       		.uleb128 0x16
 2549 045f AC040000 		.4byte	.LBB2
 2550 0463 B4040000 		.4byte	.LBE2
 2551 0467 11       		.uleb128 0x11
 2552 0468 58030000 		.4byte	.LASF50
 2553 046c 02       		.byte	0x2
 2554 046d 74       		.byte	0x74
 2555 046e 51030000 		.4byte	0x351
 2556 0472 02       		.byte	0x2
 2557 0473 91       		.byte	0x91
 2558 0474 64       		.sleb128 -28
 2559 0475 00       		.byte	0
 2560 0476 00       		.byte	0
 2561 0477 12       		.uleb128 0x12
 2562 0478 01       		.byte	0x1
 2563 0479 46030000 		.4byte	.LASF54
ARM GAS  G:\Users\Jaxb\AppData\Local\Temp\ccKoN8kJ.s 			page 54


 2564 047d 02       		.byte	0x2
 2565 047e 60       		.byte	0x60
 2566 047f 01       		.byte	0x1
 2567 0480 10040000 		.4byte	.LFB19
 2568 0484 60040000 		.4byte	.LFE19
 2569 0488 F0000000 		.4byte	.LLST14
 2570 048c 01       		.byte	0x1
 2571 048d A0040000 		.4byte	0x4a0
 2572 0491 13       		.uleb128 0x13
 2573 0492 E3000000 		.4byte	.LASF55
 2574 0496 02       		.byte	0x2
 2575 0497 60       		.byte	0x60
 2576 0498 98000000 		.4byte	0x98
 2577 049c 02       		.byte	0x2
 2578 049d 91       		.byte	0x91
 2579 049e 74       		.sleb128 -12
 2580 049f 00       		.byte	0
 2581 04a0 12       		.uleb128 0x12
 2582 04a1 01       		.byte	0x1
 2583 04a2 B4010000 		.4byte	.LASF56
 2584 04a6 02       		.byte	0x2
 2585 04a7 59       		.byte	0x59
 2586 04a8 01       		.byte	0x1
 2587 04a9 A0030000 		.4byte	.LFB18
 2588 04ad 10040000 		.4byte	.LFE18
 2589 04b1 40010000 		.4byte	.LLST13
 2590 04b5 01       		.byte	0x1
 2591 04b6 C9040000 		.4byte	0x4c9
 2592 04ba 13       		.uleb128 0x13
 2593 04bb E3000000 		.4byte	.LASF55
 2594 04bf 02       		.byte	0x2
 2595 04c0 59       		.byte	0x59
 2596 04c1 98000000 		.4byte	0x98
 2597 04c5 02       		.byte	0x2
 2598 04c6 91       		.byte	0x91
 2599 04c7 74       		.sleb128 -12
 2600 04c8 00       		.byte	0
 2601 04c9 12       		.uleb128 0x12
 2602 04ca 01       		.byte	0x1
 2603 04cb 92020000 		.4byte	.LASF57
 2604 04cf 02       		.byte	0x2
 2605 04d0 53       		.byte	0x53
 2606 04d1 01       		.byte	0x1
 2607 04d2 50030000 		.4byte	.LFB17
 2608 04d6 A0030000 		.4byte	.LFE17
 2609 04da 90010000 		.4byte	.LLST12
 2610 04de 01       		.byte	0x1
 2611 04df F2040000 		.4byte	0x4f2
 2612 04e3 13       		.uleb128 0x13
 2613 04e4 E3000000 		.4byte	.LASF55
 2614 04e8 02       		.byte	0x2
 2615 04e9 53       		.byte	0x53
 2616 04ea 98000000 		.4byte	0x98
 2617 04ee 02       		.byte	0x2
 2618 04ef 91       		.byte	0x91
 2619 04f0 74       		.sleb128 -12
 2620 04f1 00       		.byte	0
ARM GAS  G:\Users\Jaxb\AppData\Local\Temp\ccKoN8kJ.s 			page 55


 2621 04f2 12       		.uleb128 0x12
 2622 04f3 01       		.byte	0x1
 2623 04f4 54040000 		.4byte	.LASF58
 2624 04f8 02       		.byte	0x2
 2625 04f9 4C       		.byte	0x4c
 2626 04fa 01       		.byte	0x1
 2627 04fb E0020000 		.4byte	.LFB16
 2628 04ff 50030000 		.4byte	.LFE16
 2629 0503 E0010000 		.4byte	.LLST11
 2630 0507 01       		.byte	0x1
 2631 0508 1B050000 		.4byte	0x51b
 2632 050c 13       		.uleb128 0x13
 2633 050d E3000000 		.4byte	.LASF55
 2634 0511 02       		.byte	0x2
 2635 0512 4C       		.byte	0x4c
 2636 0513 98000000 		.4byte	0x98
 2637 0517 02       		.byte	0x2
 2638 0518 91       		.byte	0x91
 2639 0519 74       		.sleb128 -12
 2640 051a 00       		.byte	0
 2641 051b 17       		.uleb128 0x17
 2642 051c 01       		.byte	0x1
 2643 051d BA030000 		.4byte	.LASF59
 2644 0521 02       		.byte	0x2
 2645 0522 46       		.byte	0x46
 2646 0523 01       		.byte	0x1
 2647 0524 7A000000 		.4byte	0x7a
 2648 0528 A8020000 		.4byte	.LFB15
 2649 052c E0020000 		.4byte	.LFE15
 2650 0530 30020000 		.4byte	.LLST10
 2651 0534 01       		.byte	0x1
 2652 0535 48050000 		.4byte	0x548
 2653 0539 13       		.uleb128 0x13
 2654 053a E3000000 		.4byte	.LASF55
 2655 053e 02       		.byte	0x2
 2656 053f 46       		.byte	0x46
 2657 0540 98000000 		.4byte	0x98
 2658 0544 02       		.byte	0x2
 2659 0545 91       		.byte	0x91
 2660 0546 74       		.sleb128 -12
 2661 0547 00       		.byte	0
 2662 0548 17       		.uleb128 0x17
 2663 0549 01       		.byte	0x1
 2664 054a 70020000 		.4byte	.LASF60
 2665 054e 02       		.byte	0x2
 2666 054f 40       		.byte	0x40
 2667 0550 01       		.byte	0x1
 2668 0551 53000000 		.4byte	0x53
 2669 0555 74020000 		.4byte	.LFB14
 2670 0559 A8020000 		.4byte	.LFE14
 2671 055d 80020000 		.4byte	.LLST9
 2672 0561 01       		.byte	0x1
 2673 0562 75050000 		.4byte	0x575
 2674 0566 13       		.uleb128 0x13
 2675 0567 E3000000 		.4byte	.LASF55
 2676 056b 02       		.byte	0x2
 2677 056c 40       		.byte	0x40
ARM GAS  G:\Users\Jaxb\AppData\Local\Temp\ccKoN8kJ.s 			page 56


 2678 056d 98000000 		.4byte	0x98
 2679 0571 02       		.byte	0x2
 2680 0572 91       		.byte	0x91
 2681 0573 74       		.sleb128 -12
 2682 0574 00       		.byte	0
 2683 0575 17       		.uleb128 0x17
 2684 0576 01       		.byte	0x1
 2685 0577 D4020000 		.4byte	.LASF61
 2686 057b 02       		.byte	0x2
 2687 057c 26       		.byte	0x26
 2688 057d 01       		.byte	0x1
 2689 057e 67000000 		.4byte	0x67
 2690 0582 9C010000 		.4byte	.LFB13
 2691 0586 74020000 		.4byte	.LFE13
 2692 058a D0020000 		.4byte	.LLST8
 2693 058e 01       		.byte	0x1
 2694 058f B0050000 		.4byte	0x5b0
 2695 0593 13       		.uleb128 0x13
 2696 0594 5F030000 		.4byte	.LASF49
 2697 0598 02       		.byte	0x2
 2698 0599 26       		.byte	0x26
 2699 059a 4B030000 		.4byte	0x34b
 2700 059e 02       		.byte	0x2
 2701 059f 91       		.byte	0x91
 2702 05a0 6C       		.sleb128 -20
 2703 05a1 14       		.uleb128 0x14
 2704 05a2 706F7300 		.ascii	"pos\000"
 2705 05a6 02       		.byte	0x2
 2706 05a7 30       		.byte	0x30
 2707 05a8 53000000 		.4byte	0x53
 2708 05ac 02       		.byte	0x2
 2709 05ad 91       		.byte	0x91
 2710 05ae 74       		.sleb128 -12
 2711 05af 00       		.byte	0
 2712 05b0 12       		.uleb128 0x12
 2713 05b1 01       		.byte	0x1
 2714 05b2 54020000 		.4byte	.LASF62
 2715 05b6 02       		.byte	0x2
 2716 05b7 15       		.byte	0x15
 2717 05b8 01       		.byte	0x1
 2718 05b9 30010000 		.4byte	.LFB12
 2719 05bd 9C010000 		.4byte	.LFE12
 2720 05c1 20030000 		.4byte	.LLST7
 2721 05c5 01       		.byte	0x1
 2722 05c6 D9050000 		.4byte	0x5d9
 2723 05ca 13       		.uleb128 0x13
 2724 05cb 5F030000 		.4byte	.LASF49
 2725 05cf 02       		.byte	0x2
 2726 05d0 15       		.byte	0x15
 2727 05d1 4B030000 		.4byte	0x34b
 2728 05d5 02       		.byte	0x2
 2729 05d6 91       		.byte	0x91
 2730 05d7 74       		.sleb128 -12
 2731 05d8 00       		.byte	0
 2732 05d9 12       		.uleb128 0x12
 2733 05da 01       		.byte	0x1
 2734 05db 25040000 		.4byte	.LASF63
ARM GAS  G:\Users\Jaxb\AppData\Local\Temp\ccKoN8kJ.s 			page 57


 2735 05df 02       		.byte	0x2
 2736 05e0 09       		.byte	0x9
 2737 05e1 01       		.byte	0x1
 2738 05e2 CE000000 		.4byte	.LFB11
 2739 05e6 30010000 		.4byte	.LFE11
 2740 05ea 70030000 		.4byte	.LLST6
 2741 05ee 01       		.byte	0x1
 2742 05ef 00060000 		.4byte	0x600
 2743 05f3 14       		.uleb128 0x14
 2744 05f4 6900     		.ascii	"i\000"
 2745 05f6 02       		.byte	0x2
 2746 05f7 0B       		.byte	0xb
 2747 05f8 67000000 		.4byte	0x67
 2748 05fc 02       		.byte	0x2
 2749 05fd 91       		.byte	0x91
 2750 05fe 74       		.sleb128 -12
 2751 05ff 00       		.byte	0
 2752 0600 18       		.uleb128 0x18
 2753 0601 93010000 		.4byte	.LASF76
 2754 0605 01       		.byte	0x1
 2755 0606 52       		.byte	0x52
 2756 0607 01       		.byte	0x1
 2757 0608 67000000 		.4byte	0x67
 2758 060c AC000000 		.4byte	.LFB9
 2759 0610 CE000000 		.4byte	.LFE9
 2760 0614 C0030000 		.4byte	.LLST5
 2761 0618 01       		.byte	0x1
 2762 0619 2C060000 		.4byte	0x62c
 2763 061d 13       		.uleb128 0x13
 2764 061e DE000000 		.4byte	.LASF44
 2765 0622 01       		.byte	0x1
 2766 0623 52       		.byte	0x52
 2767 0624 51030000 		.4byte	0x351
 2768 0628 02       		.byte	0x2
 2769 0629 91       		.byte	0x91
 2770 062a 74       		.sleb128 -12
 2771 062b 00       		.byte	0
 2772 062c 19       		.uleb128 0x19
 2773 062d 49000000 		.4byte	.LASF65
 2774 0631 01       		.byte	0x1
 2775 0632 35       		.byte	0x35
 2776 0633 01       		.byte	0x1
 2777 0634 8C000000 		.4byte	.LFB5
 2778 0638 AC000000 		.4byte	.LFE5
 2779 063c 1C040000 		.4byte	.LLST4
 2780 0640 01       		.byte	0x1
 2781 0641 54060000 		.4byte	0x654
 2782 0645 13       		.uleb128 0x13
 2783 0646 06020000 		.4byte	.LASF64
 2784 064a 01       		.byte	0x1
 2785 064b 35       		.byte	0x35
 2786 064c 53000000 		.4byte	0x53
 2787 0650 02       		.byte	0x2
 2788 0651 91       		.byte	0x91
 2789 0652 74       		.sleb128 -12
 2790 0653 00       		.byte	0
 2791 0654 1A       		.uleb128 0x1a
ARM GAS  G:\Users\Jaxb\AppData\Local\Temp\ccKoN8kJ.s 			page 58


 2792 0655 9E010000 		.4byte	.LASF66
 2793 0659 01       		.byte	0x1
 2794 065a 2E       		.byte	0x2e
 2795 065b 01       		.byte	0x1
 2796 065c 6C000000 		.4byte	.LFB4
 2797 0660 8C000000 		.4byte	.LFE4
 2798 0664 6C040000 		.4byte	.LLST3
 2799 0668 01       		.byte	0x1
 2800 0669 8A060000 		.4byte	0x68a
 2801 066d 13       		.uleb128 0x13
 2802 066e 27050000 		.4byte	.LASF1
 2803 0672 01       		.byte	0x1
 2804 0673 2E       		.byte	0x2e
 2805 0674 53000000 		.4byte	0x53
 2806 0678 02       		.byte	0x2
 2807 0679 91       		.byte	0x91
 2808 067a 74       		.sleb128 -12
 2809 067b 13       		.uleb128 0x13
 2810 067c 49050000 		.4byte	.LASF0
 2811 0680 01       		.byte	0x1
 2812 0681 2E       		.byte	0x2e
 2813 0682 53000000 		.4byte	0x53
 2814 0686 02       		.byte	0x2
 2815 0687 91       		.byte	0x91
 2816 0688 70       		.sleb128 -16
 2817 0689 00       		.byte	0
 2818 068a 19       		.uleb128 0x19
 2819 068b 63000000 		.4byte	.LASF67
 2820 068f 01       		.byte	0x1
 2821 0690 22       		.byte	0x22
 2822 0691 01       		.byte	0x1
 2823 0692 4C000000 		.4byte	.LFB2
 2824 0696 6C000000 		.4byte	.LFE2
 2825 069a C8040000 		.4byte	.LLST2
 2826 069e 01       		.byte	0x1
 2827 069f C0060000 		.4byte	0x6c0
 2828 06a3 1B       		.uleb128 0x1b
 2829 06a4 6E657700 		.ascii	"new\000"
 2830 06a8 01       		.byte	0x1
 2831 06a9 22       		.byte	0x22
 2832 06aa 53000000 		.4byte	0x53
 2833 06ae 02       		.byte	0x2
 2834 06af 91       		.byte	0x91
 2835 06b0 74       		.sleb128 -12
 2836 06b1 13       		.uleb128 0x13
 2837 06b2 DE000000 		.4byte	.LASF44
 2838 06b6 01       		.byte	0x1
 2839 06b7 22       		.byte	0x22
 2840 06b8 53000000 		.4byte	0x53
 2841 06bc 02       		.byte	0x2
 2842 06bd 91       		.byte	0x91
 2843 06be 70       		.sleb128 -16
 2844 06bf 00       		.byte	0
 2845 06c0 1A       		.uleb128 0x1a
 2846 06c1 E9000000 		.4byte	.LASF68
 2847 06c5 01       		.byte	0x1
 2848 06c6 17       		.byte	0x17
ARM GAS  G:\Users\Jaxb\AppData\Local\Temp\ccKoN8kJ.s 			page 59


 2849 06c7 01       		.byte	0x1
 2850 06c8 1E000000 		.4byte	.LFB1
 2851 06cc 4C000000 		.4byte	.LFE1
 2852 06d0 18050000 		.4byte	.LLST1
 2853 06d4 01       		.byte	0x1
 2854 06d5 04070000 		.4byte	0x704
 2855 06d9 1B       		.uleb128 0x1b
 2856 06da 6E657700 		.ascii	"new\000"
 2857 06de 01       		.byte	0x1
 2858 06df 17       		.byte	0x17
 2859 06e0 53000000 		.4byte	0x53
 2860 06e4 02       		.byte	0x2
 2861 06e5 91       		.byte	0x91
 2862 06e6 74       		.sleb128 -12
 2863 06e7 13       		.uleb128 0x13
 2864 06e8 27050000 		.4byte	.LASF1
 2865 06ec 01       		.byte	0x1
 2866 06ed 18       		.byte	0x18
 2867 06ee 53000000 		.4byte	0x53
 2868 06f2 02       		.byte	0x2
 2869 06f3 91       		.byte	0x91
 2870 06f4 70       		.sleb128 -16
 2871 06f5 13       		.uleb128 0x13
 2872 06f6 49050000 		.4byte	.LASF0
 2873 06fa 01       		.byte	0x1
 2874 06fb 19       		.byte	0x19
 2875 06fc 53000000 		.4byte	0x53
 2876 0700 02       		.byte	0x2
 2877 0701 91       		.byte	0x91
 2878 0702 6C       		.sleb128 -20
 2879 0703 00       		.byte	0
 2880 0704 1C       		.uleb128 0x1c
 2881 0705 CA000000 		.4byte	.LASF77
 2882 0709 01       		.byte	0x1
 2883 070a 10       		.byte	0x10
 2884 070b 01       		.byte	0x1
 2885 070c 00000000 		.4byte	.LFB0
 2886 0710 1E000000 		.4byte	.LFE0
 2887 0714 74050000 		.4byte	.LLST0
 2888 0718 01       		.byte	0x1
 2889 0719 13       		.uleb128 0x13
 2890 071a D9000000 		.4byte	.LASF69
 2891 071e 01       		.byte	0x1
 2892 071f 10       		.byte	0x10
 2893 0720 53000000 		.4byte	0x53
 2894 0724 02       		.byte	0x2
 2895 0725 91       		.byte	0x91
 2896 0726 74       		.sleb128 -12
 2897 0727 00       		.byte	0
 2898 0728 00       		.byte	0
 2899              		.section	.debug_abbrev,"",%progbits
 2900              	.Ldebug_abbrev0:
 2901 0000 01       		.uleb128 0x1
 2902 0001 11       		.uleb128 0x11
 2903 0002 01       		.byte	0x1
 2904 0003 25       		.uleb128 0x25
 2905 0004 0E       		.uleb128 0xe
ARM GAS  G:\Users\Jaxb\AppData\Local\Temp\ccKoN8kJ.s 			page 60


 2906 0005 13       		.uleb128 0x13
 2907 0006 0B       		.uleb128 0xb
 2908 0007 03       		.uleb128 0x3
 2909 0008 0E       		.uleb128 0xe
 2910 0009 1B       		.uleb128 0x1b
 2911 000a 0E       		.uleb128 0xe
 2912 000b 11       		.uleb128 0x11
 2913 000c 01       		.uleb128 0x1
 2914 000d 12       		.uleb128 0x12
 2915 000e 01       		.uleb128 0x1
 2916 000f 10       		.uleb128 0x10
 2917 0010 06       		.uleb128 0x6
 2918 0011 00       		.byte	0
 2919 0012 00       		.byte	0
 2920 0013 02       		.uleb128 0x2
 2921 0014 13       		.uleb128 0x13
 2922 0015 01       		.byte	0x1
 2923 0016 03       		.uleb128 0x3
 2924 0017 0E       		.uleb128 0xe
 2925 0018 0B       		.uleb128 0xb
 2926 0019 0B       		.uleb128 0xb
 2927 001a 3A       		.uleb128 0x3a
 2928 001b 0B       		.uleb128 0xb
 2929 001c 3B       		.uleb128 0x3b
 2930 001d 0B       		.uleb128 0xb
 2931 001e 01       		.uleb128 0x1
 2932 001f 13       		.uleb128 0x13
 2933 0020 00       		.byte	0
 2934 0021 00       		.byte	0
 2935 0022 03       		.uleb128 0x3
 2936 0023 0D       		.uleb128 0xd
 2937 0024 00       		.byte	0
 2938 0025 03       		.uleb128 0x3
 2939 0026 0E       		.uleb128 0xe
 2940 0027 3A       		.uleb128 0x3a
 2941 0028 0B       		.uleb128 0xb
 2942 0029 3B       		.uleb128 0x3b
 2943 002a 0B       		.uleb128 0xb
 2944 002b 49       		.uleb128 0x49
 2945 002c 13       		.uleb128 0x13
 2946 002d 38       		.uleb128 0x38
 2947 002e 0A       		.uleb128 0xa
 2948 002f 00       		.byte	0
 2949 0030 00       		.byte	0
 2950 0031 04       		.uleb128 0x4
 2951 0032 26       		.uleb128 0x26
 2952 0033 00       		.byte	0
 2953 0034 49       		.uleb128 0x49
 2954 0035 13       		.uleb128 0x13
 2955 0036 00       		.byte	0
 2956 0037 00       		.byte	0
 2957 0038 05       		.uleb128 0x5
 2958 0039 0F       		.uleb128 0xf
 2959 003a 00       		.byte	0
 2960 003b 0B       		.uleb128 0xb
 2961 003c 0B       		.uleb128 0xb
 2962 003d 49       		.uleb128 0x49
ARM GAS  G:\Users\Jaxb\AppData\Local\Temp\ccKoN8kJ.s 			page 61


 2963 003e 13       		.uleb128 0x13
 2964 003f 00       		.byte	0
 2965 0040 00       		.byte	0
 2966 0041 06       		.uleb128 0x6
 2967 0042 24       		.uleb128 0x24
 2968 0043 00       		.byte	0
 2969 0044 0B       		.uleb128 0xb
 2970 0045 0B       		.uleb128 0xb
 2971 0046 3E       		.uleb128 0x3e
 2972 0047 0B       		.uleb128 0xb
 2973 0048 03       		.uleb128 0x3
 2974 0049 0E       		.uleb128 0xe
 2975 004a 00       		.byte	0
 2976 004b 00       		.byte	0
 2977 004c 07       		.uleb128 0x7
 2978 004d 24       		.uleb128 0x24
 2979 004e 00       		.byte	0
 2980 004f 0B       		.uleb128 0xb
 2981 0050 0B       		.uleb128 0xb
 2982 0051 3E       		.uleb128 0x3e
 2983 0052 0B       		.uleb128 0xb
 2984 0053 03       		.uleb128 0x3
 2985 0054 08       		.uleb128 0x8
 2986 0055 00       		.byte	0
 2987 0056 00       		.byte	0
 2988 0057 08       		.uleb128 0x8
 2989 0058 35       		.uleb128 0x35
 2990 0059 00       		.byte	0
 2991 005a 49       		.uleb128 0x49
 2992 005b 13       		.uleb128 0x13
 2993 005c 00       		.byte	0
 2994 005d 00       		.byte	0
 2995 005e 09       		.uleb128 0x9
 2996 005f 16       		.uleb128 0x16
 2997 0060 00       		.byte	0
 2998 0061 03       		.uleb128 0x3
 2999 0062 0E       		.uleb128 0xe
 3000 0063 3A       		.uleb128 0x3a
 3001 0064 0B       		.uleb128 0xb
 3002 0065 3B       		.uleb128 0x3b
 3003 0066 0B       		.uleb128 0xb
 3004 0067 49       		.uleb128 0x49
 3005 0068 13       		.uleb128 0x13
 3006 0069 00       		.byte	0
 3007 006a 00       		.byte	0
 3008 006b 0A       		.uleb128 0xa
 3009 006c 04       		.uleb128 0x4
 3010 006d 01       		.byte	0x1
 3011 006e 03       		.uleb128 0x3
 3012 006f 0E       		.uleb128 0xe
 3013 0070 3E       		.uleb128 0x3e
 3014 0071 0B       		.uleb128 0xb
 3015 0072 0B       		.uleb128 0xb
 3016 0073 0B       		.uleb128 0xb
 3017 0074 49       		.uleb128 0x49
 3018 0075 13       		.uleb128 0x13
 3019 0076 3A       		.uleb128 0x3a
ARM GAS  G:\Users\Jaxb\AppData\Local\Temp\ccKoN8kJ.s 			page 62


 3020 0077 0B       		.uleb128 0xb
 3021 0078 3B       		.uleb128 0x3b
 3022 0079 0B       		.uleb128 0xb
 3023 007a 01       		.uleb128 0x1
 3024 007b 13       		.uleb128 0x13
 3025 007c 00       		.byte	0
 3026 007d 00       		.byte	0
 3027 007e 0B       		.uleb128 0xb
 3028 007f 28       		.uleb128 0x28
 3029 0080 00       		.byte	0
 3030 0081 03       		.uleb128 0x3
 3031 0082 0E       		.uleb128 0xe
 3032 0083 1C       		.uleb128 0x1c
 3033 0084 0B       		.uleb128 0xb
 3034 0085 00       		.byte	0
 3035 0086 00       		.byte	0
 3036 0087 0C       		.uleb128 0xc
 3037 0088 34       		.uleb128 0x34
 3038 0089 00       		.byte	0
 3039 008a 03       		.uleb128 0x3
 3040 008b 0E       		.uleb128 0xe
 3041 008c 3A       		.uleb128 0x3a
 3042 008d 0B       		.uleb128 0xb
 3043 008e 3B       		.uleb128 0x3b
 3044 008f 0B       		.uleb128 0xb
 3045 0090 49       		.uleb128 0x49
 3046 0091 13       		.uleb128 0x13
 3047 0092 3F       		.uleb128 0x3f
 3048 0093 0C       		.uleb128 0xc
 3049 0094 3C       		.uleb128 0x3c
 3050 0095 0C       		.uleb128 0xc
 3051 0096 00       		.byte	0
 3052 0097 00       		.byte	0
 3053 0098 0D       		.uleb128 0xd
 3054 0099 13       		.uleb128 0x13
 3055 009a 00       		.byte	0
 3056 009b 03       		.uleb128 0x3
 3057 009c 0E       		.uleb128 0xe
 3058 009d 3C       		.uleb128 0x3c
 3059 009e 0C       		.uleb128 0xc
 3060 009f 00       		.byte	0
 3061 00a0 00       		.byte	0
 3062 00a1 0E       		.uleb128 0xe
 3063 00a2 16       		.uleb128 0x16
 3064 00a3 00       		.byte	0
 3065 00a4 03       		.uleb128 0x3
 3066 00a5 08       		.uleb128 0x8
 3067 00a6 3A       		.uleb128 0x3a
 3068 00a7 0B       		.uleb128 0xb
 3069 00a8 3B       		.uleb128 0x3b
 3070 00a9 0B       		.uleb128 0xb
 3071 00aa 49       		.uleb128 0x49
 3072 00ab 13       		.uleb128 0x13
 3073 00ac 00       		.byte	0
 3074 00ad 00       		.byte	0
 3075 00ae 0F       		.uleb128 0xf
 3076 00af 01       		.uleb128 0x1
ARM GAS  G:\Users\Jaxb\AppData\Local\Temp\ccKoN8kJ.s 			page 63


 3077 00b0 01       		.byte	0x1
 3078 00b1 49       		.uleb128 0x49
 3079 00b2 13       		.uleb128 0x13
 3080 00b3 01       		.uleb128 0x1
 3081 00b4 13       		.uleb128 0x13
 3082 00b5 00       		.byte	0
 3083 00b6 00       		.byte	0
 3084 00b7 10       		.uleb128 0x10
 3085 00b8 21       		.uleb128 0x21
 3086 00b9 00       		.byte	0
 3087 00ba 49       		.uleb128 0x49
 3088 00bb 13       		.uleb128 0x13
 3089 00bc 2F       		.uleb128 0x2f
 3090 00bd 0B       		.uleb128 0xb
 3091 00be 00       		.byte	0
 3092 00bf 00       		.byte	0
 3093 00c0 11       		.uleb128 0x11
 3094 00c1 34       		.uleb128 0x34
 3095 00c2 00       		.byte	0
 3096 00c3 03       		.uleb128 0x3
 3097 00c4 0E       		.uleb128 0xe
 3098 00c5 3A       		.uleb128 0x3a
 3099 00c6 0B       		.uleb128 0xb
 3100 00c7 3B       		.uleb128 0x3b
 3101 00c8 0B       		.uleb128 0xb
 3102 00c9 49       		.uleb128 0x49
 3103 00ca 13       		.uleb128 0x13
 3104 00cb 02       		.uleb128 0x2
 3105 00cc 0A       		.uleb128 0xa
 3106 00cd 00       		.byte	0
 3107 00ce 00       		.byte	0
 3108 00cf 12       		.uleb128 0x12
 3109 00d0 2E       		.uleb128 0x2e
 3110 00d1 01       		.byte	0x1
 3111 00d2 3F       		.uleb128 0x3f
 3112 00d3 0C       		.uleb128 0xc
 3113 00d4 03       		.uleb128 0x3
 3114 00d5 0E       		.uleb128 0xe
 3115 00d6 3A       		.uleb128 0x3a
 3116 00d7 0B       		.uleb128 0xb
 3117 00d8 3B       		.uleb128 0x3b
 3118 00d9 0B       		.uleb128 0xb
 3119 00da 27       		.uleb128 0x27
 3120 00db 0C       		.uleb128 0xc
 3121 00dc 11       		.uleb128 0x11
 3122 00dd 01       		.uleb128 0x1
 3123 00de 12       		.uleb128 0x12
 3124 00df 01       		.uleb128 0x1
 3125 00e0 40       		.uleb128 0x40
 3126 00e1 06       		.uleb128 0x6
 3127 00e2 9642     		.uleb128 0x2116
 3128 00e4 0C       		.uleb128 0xc
 3129 00e5 01       		.uleb128 0x1
 3130 00e6 13       		.uleb128 0x13
 3131 00e7 00       		.byte	0
 3132 00e8 00       		.byte	0
 3133 00e9 13       		.uleb128 0x13
ARM GAS  G:\Users\Jaxb\AppData\Local\Temp\ccKoN8kJ.s 			page 64


 3134 00ea 05       		.uleb128 0x5
 3135 00eb 00       		.byte	0
 3136 00ec 03       		.uleb128 0x3
 3137 00ed 0E       		.uleb128 0xe
 3138 00ee 3A       		.uleb128 0x3a
 3139 00ef 0B       		.uleb128 0xb
 3140 00f0 3B       		.uleb128 0x3b
 3141 00f1 0B       		.uleb128 0xb
 3142 00f2 49       		.uleb128 0x49
 3143 00f3 13       		.uleb128 0x13
 3144 00f4 02       		.uleb128 0x2
 3145 00f5 0A       		.uleb128 0xa
 3146 00f6 00       		.byte	0
 3147 00f7 00       		.byte	0
 3148 00f8 14       		.uleb128 0x14
 3149 00f9 34       		.uleb128 0x34
 3150 00fa 00       		.byte	0
 3151 00fb 03       		.uleb128 0x3
 3152 00fc 08       		.uleb128 0x8
 3153 00fd 3A       		.uleb128 0x3a
 3154 00fe 0B       		.uleb128 0xb
 3155 00ff 3B       		.uleb128 0x3b
 3156 0100 0B       		.uleb128 0xb
 3157 0101 49       		.uleb128 0x49
 3158 0102 13       		.uleb128 0x13
 3159 0103 02       		.uleb128 0x2
 3160 0104 0A       		.uleb128 0xa
 3161 0105 00       		.byte	0
 3162 0106 00       		.byte	0
 3163 0107 15       		.uleb128 0x15
 3164 0108 0B       		.uleb128 0xb
 3165 0109 01       		.byte	0x1
 3166 010a 11       		.uleb128 0x11
 3167 010b 01       		.uleb128 0x1
 3168 010c 12       		.uleb128 0x12
 3169 010d 01       		.uleb128 0x1
 3170 010e 01       		.uleb128 0x1
 3171 010f 13       		.uleb128 0x13
 3172 0110 00       		.byte	0
 3173 0111 00       		.byte	0
 3174 0112 16       		.uleb128 0x16
 3175 0113 0B       		.uleb128 0xb
 3176 0114 01       		.byte	0x1
 3177 0115 11       		.uleb128 0x11
 3178 0116 01       		.uleb128 0x1
 3179 0117 12       		.uleb128 0x12
 3180 0118 01       		.uleb128 0x1
 3181 0119 00       		.byte	0
 3182 011a 00       		.byte	0
 3183 011b 17       		.uleb128 0x17
 3184 011c 2E       		.uleb128 0x2e
 3185 011d 01       		.byte	0x1
 3186 011e 3F       		.uleb128 0x3f
 3187 011f 0C       		.uleb128 0xc
 3188 0120 03       		.uleb128 0x3
 3189 0121 0E       		.uleb128 0xe
 3190 0122 3A       		.uleb128 0x3a
ARM GAS  G:\Users\Jaxb\AppData\Local\Temp\ccKoN8kJ.s 			page 65


 3191 0123 0B       		.uleb128 0xb
 3192 0124 3B       		.uleb128 0x3b
 3193 0125 0B       		.uleb128 0xb
 3194 0126 27       		.uleb128 0x27
 3195 0127 0C       		.uleb128 0xc
 3196 0128 49       		.uleb128 0x49
 3197 0129 13       		.uleb128 0x13
 3198 012a 11       		.uleb128 0x11
 3199 012b 01       		.uleb128 0x1
 3200 012c 12       		.uleb128 0x12
 3201 012d 01       		.uleb128 0x1
 3202 012e 40       		.uleb128 0x40
 3203 012f 06       		.uleb128 0x6
 3204 0130 9642     		.uleb128 0x2116
 3205 0132 0C       		.uleb128 0xc
 3206 0133 01       		.uleb128 0x1
 3207 0134 13       		.uleb128 0x13
 3208 0135 00       		.byte	0
 3209 0136 00       		.byte	0
 3210 0137 18       		.uleb128 0x18
 3211 0138 2E       		.uleb128 0x2e
 3212 0139 01       		.byte	0x1
 3213 013a 03       		.uleb128 0x3
 3214 013b 0E       		.uleb128 0xe
 3215 013c 3A       		.uleb128 0x3a
 3216 013d 0B       		.uleb128 0xb
 3217 013e 3B       		.uleb128 0x3b
 3218 013f 0B       		.uleb128 0xb
 3219 0140 27       		.uleb128 0x27
 3220 0141 0C       		.uleb128 0xc
 3221 0142 49       		.uleb128 0x49
 3222 0143 13       		.uleb128 0x13
 3223 0144 11       		.uleb128 0x11
 3224 0145 01       		.uleb128 0x1
 3225 0146 12       		.uleb128 0x12
 3226 0147 01       		.uleb128 0x1
 3227 0148 40       		.uleb128 0x40
 3228 0149 06       		.uleb128 0x6
 3229 014a 9742     		.uleb128 0x2117
 3230 014c 0C       		.uleb128 0xc
 3231 014d 01       		.uleb128 0x1
 3232 014e 13       		.uleb128 0x13
 3233 014f 00       		.byte	0
 3234 0150 00       		.byte	0
 3235 0151 19       		.uleb128 0x19
 3236 0152 2E       		.uleb128 0x2e
 3237 0153 01       		.byte	0x1
 3238 0154 03       		.uleb128 0x3
 3239 0155 0E       		.uleb128 0xe
 3240 0156 3A       		.uleb128 0x3a
 3241 0157 0B       		.uleb128 0xb
 3242 0158 3B       		.uleb128 0x3b
 3243 0159 0B       		.uleb128 0xb
 3244 015a 27       		.uleb128 0x27
 3245 015b 0C       		.uleb128 0xc
 3246 015c 11       		.uleb128 0x11
 3247 015d 01       		.uleb128 0x1
ARM GAS  G:\Users\Jaxb\AppData\Local\Temp\ccKoN8kJ.s 			page 66


 3248 015e 12       		.uleb128 0x12
 3249 015f 01       		.uleb128 0x1
 3250 0160 40       		.uleb128 0x40
 3251 0161 06       		.uleb128 0x6
 3252 0162 9642     		.uleb128 0x2116
 3253 0164 0C       		.uleb128 0xc
 3254 0165 01       		.uleb128 0x1
 3255 0166 13       		.uleb128 0x13
 3256 0167 00       		.byte	0
 3257 0168 00       		.byte	0
 3258 0169 1A       		.uleb128 0x1a
 3259 016a 2E       		.uleb128 0x2e
 3260 016b 01       		.byte	0x1
 3261 016c 03       		.uleb128 0x3
 3262 016d 0E       		.uleb128 0xe
 3263 016e 3A       		.uleb128 0x3a
 3264 016f 0B       		.uleb128 0xb
 3265 0170 3B       		.uleb128 0x3b
 3266 0171 0B       		.uleb128 0xb
 3267 0172 27       		.uleb128 0x27
 3268 0173 0C       		.uleb128 0xc
 3269 0174 11       		.uleb128 0x11
 3270 0175 01       		.uleb128 0x1
 3271 0176 12       		.uleb128 0x12
 3272 0177 01       		.uleb128 0x1
 3273 0178 40       		.uleb128 0x40
 3274 0179 06       		.uleb128 0x6
 3275 017a 9742     		.uleb128 0x2117
 3276 017c 0C       		.uleb128 0xc
 3277 017d 01       		.uleb128 0x1
 3278 017e 13       		.uleb128 0x13
 3279 017f 00       		.byte	0
 3280 0180 00       		.byte	0
 3281 0181 1B       		.uleb128 0x1b
 3282 0182 05       		.uleb128 0x5
 3283 0183 00       		.byte	0
 3284 0184 03       		.uleb128 0x3
 3285 0185 08       		.uleb128 0x8
 3286 0186 3A       		.uleb128 0x3a
 3287 0187 0B       		.uleb128 0xb
 3288 0188 3B       		.uleb128 0x3b
 3289 0189 0B       		.uleb128 0xb
 3290 018a 49       		.uleb128 0x49
 3291 018b 13       		.uleb128 0x13
 3292 018c 02       		.uleb128 0x2
 3293 018d 0A       		.uleb128 0xa
 3294 018e 00       		.byte	0
 3295 018f 00       		.byte	0
 3296 0190 1C       		.uleb128 0x1c
 3297 0191 2E       		.uleb128 0x2e
 3298 0192 01       		.byte	0x1
 3299 0193 03       		.uleb128 0x3
 3300 0194 0E       		.uleb128 0xe
 3301 0195 3A       		.uleb128 0x3a
 3302 0196 0B       		.uleb128 0xb
 3303 0197 3B       		.uleb128 0x3b
 3304 0198 0B       		.uleb128 0xb
ARM GAS  G:\Users\Jaxb\AppData\Local\Temp\ccKoN8kJ.s 			page 67


 3305 0199 27       		.uleb128 0x27
 3306 019a 0C       		.uleb128 0xc
 3307 019b 11       		.uleb128 0x11
 3308 019c 01       		.uleb128 0x1
 3309 019d 12       		.uleb128 0x12
 3310 019e 01       		.uleb128 0x1
 3311 019f 40       		.uleb128 0x40
 3312 01a0 06       		.uleb128 0x6
 3313 01a1 9742     		.uleb128 0x2117
 3314 01a3 0C       		.uleb128 0xc
 3315 01a4 00       		.byte	0
 3316 01a5 00       		.byte	0
 3317 01a6 00       		.byte	0
 3318              		.section	.debug_loc,"",%progbits
 3319              	.Ldebug_loc0:
 3320              	.LLST17:
 3321 0000 38070000 		.4byte	.LFB22-.Ltext0
 3322 0004 3A070000 		.4byte	.LCFI89-.Ltext0
 3323 0008 0200     		.2byte	0x2
 3324 000a 7D       		.byte	0x7d
 3325 000b 00       		.sleb128 0
 3326 000c 3A070000 		.4byte	.LCFI89-.Ltext0
 3327 0010 3C070000 		.4byte	.LCFI90-.Ltext0
 3328 0014 0200     		.2byte	0x2
 3329 0016 7D       		.byte	0x7d
 3330 0017 08       		.sleb128 8
 3331 0018 3C070000 		.4byte	.LCFI90-.Ltext0
 3332 001c 3E070000 		.4byte	.LCFI91-.Ltext0
 3333 0020 0200     		.2byte	0x2
 3334 0022 7D       		.byte	0x7d
 3335 0023 28       		.sleb128 40
 3336 0024 3E070000 		.4byte	.LCFI91-.Ltext0
 3337 0028 DA080000 		.4byte	.LCFI92-.Ltext0
 3338 002c 0200     		.2byte	0x2
 3339 002e 77       		.byte	0x77
 3340 002f 28       		.sleb128 40
 3341 0030 DA080000 		.4byte	.LCFI92-.Ltext0
 3342 0034 DC080000 		.4byte	.LCFI93-.Ltext0
 3343 0038 0200     		.2byte	0x2
 3344 003a 77       		.byte	0x77
 3345 003b 08       		.sleb128 8
 3346 003c DC080000 		.4byte	.LCFI93-.Ltext0
 3347 0040 30090000 		.4byte	.LFE22-.Ltext0
 3348 0044 0200     		.2byte	0x2
 3349 0046 7D       		.byte	0x7d
 3350 0047 08       		.sleb128 8
 3351 0048 00000000 		.4byte	0
 3352 004c 00000000 		.4byte	0
 3353              	.LLST16:
 3354 0050 08060000 		.4byte	.LFB21-.Ltext0
 3355 0054 0A060000 		.4byte	.LCFI84-.Ltext0
 3356 0058 0200     		.2byte	0x2
 3357 005a 7D       		.byte	0x7d
 3358 005b 00       		.sleb128 0
 3359 005c 0A060000 		.4byte	.LCFI84-.Ltext0
 3360 0060 0C060000 		.4byte	.LCFI85-.Ltext0
 3361 0064 0200     		.2byte	0x2
ARM GAS  G:\Users\Jaxb\AppData\Local\Temp\ccKoN8kJ.s 			page 68


 3362 0066 7D       		.byte	0x7d
 3363 0067 08       		.sleb128 8
 3364 0068 0C060000 		.4byte	.LCFI85-.Ltext0
 3365 006c 0E060000 		.4byte	.LCFI86-.Ltext0
 3366 0070 0200     		.2byte	0x2
 3367 0072 7D       		.byte	0x7d
 3368 0073 28       		.sleb128 40
 3369 0074 0E060000 		.4byte	.LCFI86-.Ltext0
 3370 0078 14070000 		.4byte	.LCFI87-.Ltext0
 3371 007c 0200     		.2byte	0x2
 3372 007e 77       		.byte	0x77
 3373 007f 28       		.sleb128 40
 3374 0080 14070000 		.4byte	.LCFI87-.Ltext0
 3375 0084 16070000 		.4byte	.LCFI88-.Ltext0
 3376 0088 0200     		.2byte	0x2
 3377 008a 77       		.byte	0x77
 3378 008b 08       		.sleb128 8
 3379 008c 16070000 		.4byte	.LCFI88-.Ltext0
 3380 0090 38070000 		.4byte	.LFE21-.Ltext0
 3381 0094 0200     		.2byte	0x2
 3382 0096 7D       		.byte	0x7d
 3383 0097 08       		.sleb128 8
 3384 0098 00000000 		.4byte	0
 3385 009c 00000000 		.4byte	0
 3386              	.LLST15:
 3387 00a0 60040000 		.4byte	.LFB20-.Ltext0
 3388 00a4 62040000 		.4byte	.LCFI79-.Ltext0
 3389 00a8 0200     		.2byte	0x2
 3390 00aa 7D       		.byte	0x7d
 3391 00ab 00       		.sleb128 0
 3392 00ac 62040000 		.4byte	.LCFI79-.Ltext0
 3393 00b0 64040000 		.4byte	.LCFI80-.Ltext0
 3394 00b4 0200     		.2byte	0x2
 3395 00b6 7D       		.byte	0x7d
 3396 00b7 08       		.sleb128 8
 3397 00b8 64040000 		.4byte	.LCFI80-.Ltext0
 3398 00bc 66040000 		.4byte	.LCFI81-.Ltext0
 3399 00c0 0200     		.2byte	0x2
 3400 00c2 7D       		.byte	0x7d
 3401 00c3 20       		.sleb128 32
 3402 00c4 66040000 		.4byte	.LCFI81-.Ltext0
 3403 00c8 CE050000 		.4byte	.LCFI82-.Ltext0
 3404 00cc 0200     		.2byte	0x2
 3405 00ce 77       		.byte	0x77
 3406 00cf 20       		.sleb128 32
 3407 00d0 CE050000 		.4byte	.LCFI82-.Ltext0
 3408 00d4 D0050000 		.4byte	.LCFI83-.Ltext0
 3409 00d8 0200     		.2byte	0x2
 3410 00da 77       		.byte	0x77
 3411 00db 08       		.sleb128 8
 3412 00dc D0050000 		.4byte	.LCFI83-.Ltext0
 3413 00e0 08060000 		.4byte	.LFE20-.Ltext0
 3414 00e4 0200     		.2byte	0x2
 3415 00e6 7D       		.byte	0x7d
 3416 00e7 08       		.sleb128 8
 3417 00e8 00000000 		.4byte	0
 3418 00ec 00000000 		.4byte	0
ARM GAS  G:\Users\Jaxb\AppData\Local\Temp\ccKoN8kJ.s 			page 69


 3419              	.LLST14:
 3420 00f0 10040000 		.4byte	.LFB19-.Ltext0
 3421 00f4 12040000 		.4byte	.LCFI74-.Ltext0
 3422 00f8 0200     		.2byte	0x2
 3423 00fa 7D       		.byte	0x7d
 3424 00fb 00       		.sleb128 0
 3425 00fc 12040000 		.4byte	.LCFI74-.Ltext0
 3426 0100 14040000 		.4byte	.LCFI75-.Ltext0
 3427 0104 0200     		.2byte	0x2
 3428 0106 7D       		.byte	0x7d
 3429 0107 08       		.sleb128 8
 3430 0108 14040000 		.4byte	.LCFI75-.Ltext0
 3431 010c 16040000 		.4byte	.LCFI76-.Ltext0
 3432 0110 0200     		.2byte	0x2
 3433 0112 7D       		.byte	0x7d
 3434 0113 10       		.sleb128 16
 3435 0114 16040000 		.4byte	.LCFI76-.Ltext0
 3436 0118 54040000 		.4byte	.LCFI77-.Ltext0
 3437 011c 0200     		.2byte	0x2
 3438 011e 77       		.byte	0x77
 3439 011f 10       		.sleb128 16
 3440 0120 54040000 		.4byte	.LCFI77-.Ltext0
 3441 0124 56040000 		.4byte	.LCFI78-.Ltext0
 3442 0128 0200     		.2byte	0x2
 3443 012a 77       		.byte	0x77
 3444 012b 08       		.sleb128 8
 3445 012c 56040000 		.4byte	.LCFI78-.Ltext0
 3446 0130 60040000 		.4byte	.LFE19-.Ltext0
 3447 0134 0200     		.2byte	0x2
 3448 0136 7D       		.byte	0x7d
 3449 0137 08       		.sleb128 8
 3450 0138 00000000 		.4byte	0
 3451 013c 00000000 		.4byte	0
 3452              	.LLST13:
 3453 0140 A0030000 		.4byte	.LFB18-.Ltext0
 3454 0144 A2030000 		.4byte	.LCFI69-.Ltext0
 3455 0148 0200     		.2byte	0x2
 3456 014a 7D       		.byte	0x7d
 3457 014b 00       		.sleb128 0
 3458 014c A2030000 		.4byte	.LCFI69-.Ltext0
 3459 0150 A4030000 		.4byte	.LCFI70-.Ltext0
 3460 0154 0200     		.2byte	0x2
 3461 0156 7D       		.byte	0x7d
 3462 0157 08       		.sleb128 8
 3463 0158 A4030000 		.4byte	.LCFI70-.Ltext0
 3464 015c A6030000 		.4byte	.LCFI71-.Ltext0
 3465 0160 0200     		.2byte	0x2
 3466 0162 7D       		.byte	0x7d
 3467 0163 10       		.sleb128 16
 3468 0164 A6030000 		.4byte	.LCFI71-.Ltext0
 3469 0168 02040000 		.4byte	.LCFI72-.Ltext0
 3470 016c 0200     		.2byte	0x2
 3471 016e 77       		.byte	0x77
 3472 016f 10       		.sleb128 16
 3473 0170 02040000 		.4byte	.LCFI72-.Ltext0
 3474 0174 04040000 		.4byte	.LCFI73-.Ltext0
 3475 0178 0200     		.2byte	0x2
ARM GAS  G:\Users\Jaxb\AppData\Local\Temp\ccKoN8kJ.s 			page 70


 3476 017a 77       		.byte	0x77
 3477 017b 08       		.sleb128 8
 3478 017c 04040000 		.4byte	.LCFI73-.Ltext0
 3479 0180 10040000 		.4byte	.LFE18-.Ltext0
 3480 0184 0200     		.2byte	0x2
 3481 0186 7D       		.byte	0x7d
 3482 0187 08       		.sleb128 8
 3483 0188 00000000 		.4byte	0
 3484 018c 00000000 		.4byte	0
 3485              	.LLST12:
 3486 0190 50030000 		.4byte	.LFB17-.Ltext0
 3487 0194 52030000 		.4byte	.LCFI64-.Ltext0
 3488 0198 0200     		.2byte	0x2
 3489 019a 7D       		.byte	0x7d
 3490 019b 00       		.sleb128 0
 3491 019c 52030000 		.4byte	.LCFI64-.Ltext0
 3492 01a0 54030000 		.4byte	.LCFI65-.Ltext0
 3493 01a4 0200     		.2byte	0x2
 3494 01a6 7D       		.byte	0x7d
 3495 01a7 08       		.sleb128 8
 3496 01a8 54030000 		.4byte	.LCFI65-.Ltext0
 3497 01ac 56030000 		.4byte	.LCFI66-.Ltext0
 3498 01b0 0200     		.2byte	0x2
 3499 01b2 7D       		.byte	0x7d
 3500 01b3 10       		.sleb128 16
 3501 01b4 56030000 		.4byte	.LCFI66-.Ltext0
 3502 01b8 94030000 		.4byte	.LCFI67-.Ltext0
 3503 01bc 0200     		.2byte	0x2
 3504 01be 77       		.byte	0x77
 3505 01bf 10       		.sleb128 16
 3506 01c0 94030000 		.4byte	.LCFI67-.Ltext0
 3507 01c4 96030000 		.4byte	.LCFI68-.Ltext0
 3508 01c8 0200     		.2byte	0x2
 3509 01ca 77       		.byte	0x77
 3510 01cb 08       		.sleb128 8
 3511 01cc 96030000 		.4byte	.LCFI68-.Ltext0
 3512 01d0 A0030000 		.4byte	.LFE17-.Ltext0
 3513 01d4 0200     		.2byte	0x2
 3514 01d6 7D       		.byte	0x7d
 3515 01d7 08       		.sleb128 8
 3516 01d8 00000000 		.4byte	0
 3517 01dc 00000000 		.4byte	0
 3518              	.LLST11:
 3519 01e0 E0020000 		.4byte	.LFB16-.Ltext0
 3520 01e4 E2020000 		.4byte	.LCFI59-.Ltext0
 3521 01e8 0200     		.2byte	0x2
 3522 01ea 7D       		.byte	0x7d
 3523 01eb 00       		.sleb128 0
 3524 01ec E2020000 		.4byte	.LCFI59-.Ltext0
 3525 01f0 E4020000 		.4byte	.LCFI60-.Ltext0
 3526 01f4 0200     		.2byte	0x2
 3527 01f6 7D       		.byte	0x7d
 3528 01f7 08       		.sleb128 8
 3529 01f8 E4020000 		.4byte	.LCFI60-.Ltext0
 3530 01fc E6020000 		.4byte	.LCFI61-.Ltext0
 3531 0200 0200     		.2byte	0x2
 3532 0202 7D       		.byte	0x7d
ARM GAS  G:\Users\Jaxb\AppData\Local\Temp\ccKoN8kJ.s 			page 71


 3533 0203 10       		.sleb128 16
 3534 0204 E6020000 		.4byte	.LCFI61-.Ltext0
 3535 0208 42030000 		.4byte	.LCFI62-.Ltext0
 3536 020c 0200     		.2byte	0x2
 3537 020e 77       		.byte	0x77
 3538 020f 10       		.sleb128 16
 3539 0210 42030000 		.4byte	.LCFI62-.Ltext0
 3540 0214 44030000 		.4byte	.LCFI63-.Ltext0
 3541 0218 0200     		.2byte	0x2
 3542 021a 77       		.byte	0x77
 3543 021b 08       		.sleb128 8
 3544 021c 44030000 		.4byte	.LCFI63-.Ltext0
 3545 0220 50030000 		.4byte	.LFE16-.Ltext0
 3546 0224 0200     		.2byte	0x2
 3547 0226 7D       		.byte	0x7d
 3548 0227 08       		.sleb128 8
 3549 0228 00000000 		.4byte	0
 3550 022c 00000000 		.4byte	0
 3551              	.LLST10:
 3552 0230 A8020000 		.4byte	.LFB15-.Ltext0
 3553 0234 AA020000 		.4byte	.LCFI54-.Ltext0
 3554 0238 0200     		.2byte	0x2
 3555 023a 7D       		.byte	0x7d
 3556 023b 00       		.sleb128 0
 3557 023c AA020000 		.4byte	.LCFI54-.Ltext0
 3558 0240 AC020000 		.4byte	.LCFI55-.Ltext0
 3559 0244 0200     		.2byte	0x2
 3560 0246 7D       		.byte	0x7d
 3561 0247 08       		.sleb128 8
 3562 0248 AC020000 		.4byte	.LCFI55-.Ltext0
 3563 024c AE020000 		.4byte	.LCFI56-.Ltext0
 3564 0250 0200     		.2byte	0x2
 3565 0252 7D       		.byte	0x7d
 3566 0253 10       		.sleb128 16
 3567 0254 AE020000 		.4byte	.LCFI56-.Ltext0
 3568 0258 D4020000 		.4byte	.LCFI57-.Ltext0
 3569 025c 0200     		.2byte	0x2
 3570 025e 77       		.byte	0x77
 3571 025f 10       		.sleb128 16
 3572 0260 D4020000 		.4byte	.LCFI57-.Ltext0
 3573 0264 D6020000 		.4byte	.LCFI58-.Ltext0
 3574 0268 0200     		.2byte	0x2
 3575 026a 77       		.byte	0x77
 3576 026b 08       		.sleb128 8
 3577 026c D6020000 		.4byte	.LCFI58-.Ltext0
 3578 0270 E0020000 		.4byte	.LFE15-.Ltext0
 3579 0274 0200     		.2byte	0x2
 3580 0276 7D       		.byte	0x7d
 3581 0277 08       		.sleb128 8
 3582 0278 00000000 		.4byte	0
 3583 027c 00000000 		.4byte	0
 3584              	.LLST9:
 3585 0280 74020000 		.4byte	.LFB14-.Ltext0
 3586 0284 76020000 		.4byte	.LCFI49-.Ltext0
 3587 0288 0200     		.2byte	0x2
 3588 028a 7D       		.byte	0x7d
 3589 028b 00       		.sleb128 0
ARM GAS  G:\Users\Jaxb\AppData\Local\Temp\ccKoN8kJ.s 			page 72


 3590 028c 76020000 		.4byte	.LCFI49-.Ltext0
 3591 0290 78020000 		.4byte	.LCFI50-.Ltext0
 3592 0294 0200     		.2byte	0x2
 3593 0296 7D       		.byte	0x7d
 3594 0297 08       		.sleb128 8
 3595 0298 78020000 		.4byte	.LCFI50-.Ltext0
 3596 029c 7A020000 		.4byte	.LCFI51-.Ltext0
 3597 02a0 0200     		.2byte	0x2
 3598 02a2 7D       		.byte	0x7d
 3599 02a3 10       		.sleb128 16
 3600 02a4 7A020000 		.4byte	.LCFI51-.Ltext0
 3601 02a8 9C020000 		.4byte	.LCFI52-.Ltext0
 3602 02ac 0200     		.2byte	0x2
 3603 02ae 77       		.byte	0x77
 3604 02af 10       		.sleb128 16
 3605 02b0 9C020000 		.4byte	.LCFI52-.Ltext0
 3606 02b4 9E020000 		.4byte	.LCFI53-.Ltext0
 3607 02b8 0200     		.2byte	0x2
 3608 02ba 77       		.byte	0x77
 3609 02bb 08       		.sleb128 8
 3610 02bc 9E020000 		.4byte	.LCFI53-.Ltext0
 3611 02c0 A8020000 		.4byte	.LFE14-.Ltext0
 3612 02c4 0200     		.2byte	0x2
 3613 02c6 7D       		.byte	0x7d
 3614 02c7 08       		.sleb128 8
 3615 02c8 00000000 		.4byte	0
 3616 02cc 00000000 		.4byte	0
 3617              	.LLST8:
 3618 02d0 9C010000 		.4byte	.LFB13-.Ltext0
 3619 02d4 9E010000 		.4byte	.LCFI44-.Ltext0
 3620 02d8 0200     		.2byte	0x2
 3621 02da 7D       		.byte	0x7d
 3622 02db 00       		.sleb128 0
 3623 02dc 9E010000 		.4byte	.LCFI44-.Ltext0
 3624 02e0 A0010000 		.4byte	.LCFI45-.Ltext0
 3625 02e4 0200     		.2byte	0x2
 3626 02e6 7D       		.byte	0x7d
 3627 02e7 08       		.sleb128 8
 3628 02e8 A0010000 		.4byte	.LCFI45-.Ltext0
 3629 02ec A2010000 		.4byte	.LCFI46-.Ltext0
 3630 02f0 0200     		.2byte	0x2
 3631 02f2 7D       		.byte	0x7d
 3632 02f3 18       		.sleb128 24
 3633 02f4 A2010000 		.4byte	.LCFI46-.Ltext0
 3634 02f8 62020000 		.4byte	.LCFI47-.Ltext0
 3635 02fc 0200     		.2byte	0x2
 3636 02fe 77       		.byte	0x77
 3637 02ff 18       		.sleb128 24
 3638 0300 62020000 		.4byte	.LCFI47-.Ltext0
 3639 0304 64020000 		.4byte	.LCFI48-.Ltext0
 3640 0308 0200     		.2byte	0x2
 3641 030a 77       		.byte	0x77
 3642 030b 08       		.sleb128 8
 3643 030c 64020000 		.4byte	.LCFI48-.Ltext0
 3644 0310 74020000 		.4byte	.LFE13-.Ltext0
 3645 0314 0200     		.2byte	0x2
 3646 0316 7D       		.byte	0x7d
ARM GAS  G:\Users\Jaxb\AppData\Local\Temp\ccKoN8kJ.s 			page 73


 3647 0317 08       		.sleb128 8
 3648 0318 00000000 		.4byte	0
 3649 031c 00000000 		.4byte	0
 3650              	.LLST7:
 3651 0320 30010000 		.4byte	.LFB12-.Ltext0
 3652 0324 32010000 		.4byte	.LCFI39-.Ltext0
 3653 0328 0200     		.2byte	0x2
 3654 032a 7D       		.byte	0x7d
 3655 032b 00       		.sleb128 0
 3656 032c 32010000 		.4byte	.LCFI39-.Ltext0
 3657 0330 34010000 		.4byte	.LCFI40-.Ltext0
 3658 0334 0200     		.2byte	0x2
 3659 0336 7D       		.byte	0x7d
 3660 0337 08       		.sleb128 8
 3661 0338 34010000 		.4byte	.LCFI40-.Ltext0
 3662 033c 36010000 		.4byte	.LCFI41-.Ltext0
 3663 0340 0200     		.2byte	0x2
 3664 0342 7D       		.byte	0x7d
 3665 0343 10       		.sleb128 16
 3666 0344 36010000 		.4byte	.LCFI41-.Ltext0
 3667 0348 90010000 		.4byte	.LCFI42-.Ltext0
 3668 034c 0200     		.2byte	0x2
 3669 034e 77       		.byte	0x77
 3670 034f 10       		.sleb128 16
 3671 0350 90010000 		.4byte	.LCFI42-.Ltext0
 3672 0354 92010000 		.4byte	.LCFI43-.Ltext0
 3673 0358 0200     		.2byte	0x2
 3674 035a 77       		.byte	0x77
 3675 035b 08       		.sleb128 8
 3676 035c 92010000 		.4byte	.LCFI43-.Ltext0
 3677 0360 9C010000 		.4byte	.LFE12-.Ltext0
 3678 0364 0200     		.2byte	0x2
 3679 0366 7D       		.byte	0x7d
 3680 0367 08       		.sleb128 8
 3681 0368 00000000 		.4byte	0
 3682 036c 00000000 		.4byte	0
 3683              	.LLST6:
 3684 0370 CE000000 		.4byte	.LFB11-.Ltext0
 3685 0374 D0000000 		.4byte	.LCFI34-.Ltext0
 3686 0378 0200     		.2byte	0x2
 3687 037a 7D       		.byte	0x7d
 3688 037b 00       		.sleb128 0
 3689 037c D0000000 		.4byte	.LCFI34-.Ltext0
 3690 0380 D2000000 		.4byte	.LCFI35-.Ltext0
 3691 0384 0200     		.2byte	0x2
 3692 0386 7D       		.byte	0x7d
 3693 0387 08       		.sleb128 8
 3694 0388 D2000000 		.4byte	.LCFI35-.Ltext0
 3695 038c D4000000 		.4byte	.LCFI36-.Ltext0
 3696 0390 0200     		.2byte	0x2
 3697 0392 7D       		.byte	0x7d
 3698 0393 10       		.sleb128 16
 3699 0394 D4000000 		.4byte	.LCFI36-.Ltext0
 3700 0398 26010000 		.4byte	.LCFI37-.Ltext0
 3701 039c 0200     		.2byte	0x2
 3702 039e 77       		.byte	0x77
 3703 039f 10       		.sleb128 16
ARM GAS  G:\Users\Jaxb\AppData\Local\Temp\ccKoN8kJ.s 			page 74


 3704 03a0 26010000 		.4byte	.LCFI37-.Ltext0
 3705 03a4 28010000 		.4byte	.LCFI38-.Ltext0
 3706 03a8 0200     		.2byte	0x2
 3707 03aa 77       		.byte	0x77
 3708 03ab 08       		.sleb128 8
 3709 03ac 28010000 		.4byte	.LCFI38-.Ltext0
 3710 03b0 30010000 		.4byte	.LFE11-.Ltext0
 3711 03b4 0200     		.2byte	0x2
 3712 03b6 7D       		.byte	0x7d
 3713 03b7 08       		.sleb128 8
 3714 03b8 00000000 		.4byte	0
 3715 03bc 00000000 		.4byte	0
 3716              	.LLST5:
 3717 03c0 AC000000 		.4byte	.LFB9-.Ltext0
 3718 03c4 AE000000 		.4byte	.LCFI28-.Ltext0
 3719 03c8 0200     		.2byte	0x2
 3720 03ca 7D       		.byte	0x7d
 3721 03cb 00       		.sleb128 0
 3722 03cc AE000000 		.4byte	.LCFI28-.Ltext0
 3723 03d0 B0000000 		.4byte	.LCFI29-.Ltext0
 3724 03d4 0200     		.2byte	0x2
 3725 03d6 7D       		.byte	0x7d
 3726 03d7 04       		.sleb128 4
 3727 03d8 B0000000 		.4byte	.LCFI29-.Ltext0
 3728 03dc B2000000 		.4byte	.LCFI30-.Ltext0
 3729 03e0 0200     		.2byte	0x2
 3730 03e2 7D       		.byte	0x7d
 3731 03e3 10       		.sleb128 16
 3732 03e4 B2000000 		.4byte	.LCFI30-.Ltext0
 3733 03e8 C8000000 		.4byte	.LCFI31-.Ltext0
 3734 03ec 0200     		.2byte	0x2
 3735 03ee 77       		.byte	0x77
 3736 03ef 10       		.sleb128 16
 3737 03f0 C8000000 		.4byte	.LCFI31-.Ltext0
 3738 03f4 CA000000 		.4byte	.LCFI32-.Ltext0
 3739 03f8 0200     		.2byte	0x2
 3740 03fa 77       		.byte	0x77
 3741 03fb 04       		.sleb128 4
 3742 03fc CA000000 		.4byte	.LCFI32-.Ltext0
 3743 0400 CC000000 		.4byte	.LCFI33-.Ltext0
 3744 0404 0200     		.2byte	0x2
 3745 0406 7D       		.byte	0x7d
 3746 0407 04       		.sleb128 4
 3747 0408 CC000000 		.4byte	.LCFI33-.Ltext0
 3748 040c CE000000 		.4byte	.LFE9-.Ltext0
 3749 0410 0200     		.2byte	0x2
 3750 0412 7D       		.byte	0x7d
 3751 0413 00       		.sleb128 0
 3752 0414 00000000 		.4byte	0
 3753 0418 00000000 		.4byte	0
 3754              	.LLST4:
 3755 041c 8C000000 		.4byte	.LFB5-.Ltext0
 3756 0420 8E000000 		.4byte	.LCFI23-.Ltext0
 3757 0424 0200     		.2byte	0x2
 3758 0426 7D       		.byte	0x7d
 3759 0427 00       		.sleb128 0
 3760 0428 8E000000 		.4byte	.LCFI23-.Ltext0
ARM GAS  G:\Users\Jaxb\AppData\Local\Temp\ccKoN8kJ.s 			page 75


 3761 042c 90000000 		.4byte	.LCFI24-.Ltext0
 3762 0430 0200     		.2byte	0x2
 3763 0432 7D       		.byte	0x7d
 3764 0433 08       		.sleb128 8
 3765 0434 90000000 		.4byte	.LCFI24-.Ltext0
 3766 0438 92000000 		.4byte	.LCFI25-.Ltext0
 3767 043c 0200     		.2byte	0x2
 3768 043e 7D       		.byte	0x7d
 3769 043f 10       		.sleb128 16
 3770 0440 92000000 		.4byte	.LCFI25-.Ltext0
 3771 0444 A8000000 		.4byte	.LCFI26-.Ltext0
 3772 0448 0200     		.2byte	0x2
 3773 044a 77       		.byte	0x77
 3774 044b 10       		.sleb128 16
 3775 044c A8000000 		.4byte	.LCFI26-.Ltext0
 3776 0450 AA000000 		.4byte	.LCFI27-.Ltext0
 3777 0454 0200     		.2byte	0x2
 3778 0456 77       		.byte	0x77
 3779 0457 08       		.sleb128 8
 3780 0458 AA000000 		.4byte	.LCFI27-.Ltext0
 3781 045c AC000000 		.4byte	.LFE5-.Ltext0
 3782 0460 0200     		.2byte	0x2
 3783 0462 7D       		.byte	0x7d
 3784 0463 08       		.sleb128 8
 3785 0464 00000000 		.4byte	0
 3786 0468 00000000 		.4byte	0
 3787              	.LLST3:
 3788 046c 6C000000 		.4byte	.LFB4-.Ltext0
 3789 0470 6E000000 		.4byte	.LCFI17-.Ltext0
 3790 0474 0200     		.2byte	0x2
 3791 0476 7D       		.byte	0x7d
 3792 0477 00       		.sleb128 0
 3793 0478 6E000000 		.4byte	.LCFI17-.Ltext0
 3794 047c 70000000 		.4byte	.LCFI18-.Ltext0
 3795 0480 0200     		.2byte	0x2
 3796 0482 7D       		.byte	0x7d
 3797 0483 04       		.sleb128 4
 3798 0484 70000000 		.4byte	.LCFI18-.Ltext0
 3799 0488 72000000 		.4byte	.LCFI19-.Ltext0
 3800 048c 0200     		.2byte	0x2
 3801 048e 7D       		.byte	0x7d
 3802 048f 10       		.sleb128 16
 3803 0490 72000000 		.4byte	.LCFI19-.Ltext0
 3804 0494 86000000 		.4byte	.LCFI20-.Ltext0
 3805 0498 0200     		.2byte	0x2
 3806 049a 77       		.byte	0x77
 3807 049b 10       		.sleb128 16
 3808 049c 86000000 		.4byte	.LCFI20-.Ltext0
 3809 04a0 88000000 		.4byte	.LCFI21-.Ltext0
 3810 04a4 0200     		.2byte	0x2
 3811 04a6 77       		.byte	0x77
 3812 04a7 04       		.sleb128 4
 3813 04a8 88000000 		.4byte	.LCFI21-.Ltext0
 3814 04ac 8A000000 		.4byte	.LCFI22-.Ltext0
 3815 04b0 0200     		.2byte	0x2
 3816 04b2 7D       		.byte	0x7d
 3817 04b3 04       		.sleb128 4
ARM GAS  G:\Users\Jaxb\AppData\Local\Temp\ccKoN8kJ.s 			page 76


 3818 04b4 8A000000 		.4byte	.LCFI22-.Ltext0
 3819 04b8 8C000000 		.4byte	.LFE4-.Ltext0
 3820 04bc 0200     		.2byte	0x2
 3821 04be 7D       		.byte	0x7d
 3822 04bf 00       		.sleb128 0
 3823 04c0 00000000 		.4byte	0
 3824 04c4 00000000 		.4byte	0
 3825              	.LLST2:
 3826 04c8 4C000000 		.4byte	.LFB2-.Ltext0
 3827 04cc 4E000000 		.4byte	.LCFI12-.Ltext0
 3828 04d0 0200     		.2byte	0x2
 3829 04d2 7D       		.byte	0x7d
 3830 04d3 00       		.sleb128 0
 3831 04d4 4E000000 		.4byte	.LCFI12-.Ltext0
 3832 04d8 50000000 		.4byte	.LCFI13-.Ltext0
 3833 04dc 0200     		.2byte	0x2
 3834 04de 7D       		.byte	0x7d
 3835 04df 08       		.sleb128 8
 3836 04e0 50000000 		.4byte	.LCFI13-.Ltext0
 3837 04e4 52000000 		.4byte	.LCFI14-.Ltext0
 3838 04e8 0200     		.2byte	0x2
 3839 04ea 7D       		.byte	0x7d
 3840 04eb 10       		.sleb128 16
 3841 04ec 52000000 		.4byte	.LCFI14-.Ltext0
 3842 04f0 68000000 		.4byte	.LCFI15-.Ltext0
 3843 04f4 0200     		.2byte	0x2
 3844 04f6 77       		.byte	0x77
 3845 04f7 10       		.sleb128 16
 3846 04f8 68000000 		.4byte	.LCFI15-.Ltext0
 3847 04fc 6A000000 		.4byte	.LCFI16-.Ltext0
 3848 0500 0200     		.2byte	0x2
 3849 0502 77       		.byte	0x77
 3850 0503 08       		.sleb128 8
 3851 0504 6A000000 		.4byte	.LCFI16-.Ltext0
 3852 0508 6C000000 		.4byte	.LFE2-.Ltext0
 3853 050c 0200     		.2byte	0x2
 3854 050e 7D       		.byte	0x7d
 3855 050f 08       		.sleb128 8
 3856 0510 00000000 		.4byte	0
 3857 0514 00000000 		.4byte	0
 3858              	.LLST1:
 3859 0518 1E000000 		.4byte	.LFB1-.Ltext0
 3860 051c 20000000 		.4byte	.LCFI6-.Ltext0
 3861 0520 0200     		.2byte	0x2
 3862 0522 7D       		.byte	0x7d
 3863 0523 00       		.sleb128 0
 3864 0524 20000000 		.4byte	.LCFI6-.Ltext0
 3865 0528 22000000 		.4byte	.LCFI7-.Ltext0
 3866 052c 0200     		.2byte	0x2
 3867 052e 7D       		.byte	0x7d
 3868 052f 04       		.sleb128 4
 3869 0530 22000000 		.4byte	.LCFI7-.Ltext0
 3870 0534 24000000 		.4byte	.LCFI8-.Ltext0
 3871 0538 0200     		.2byte	0x2
 3872 053a 7D       		.byte	0x7d
 3873 053b 18       		.sleb128 24
 3874 053c 24000000 		.4byte	.LCFI8-.Ltext0
ARM GAS  G:\Users\Jaxb\AppData\Local\Temp\ccKoN8kJ.s 			page 77


 3875 0540 46000000 		.4byte	.LCFI9-.Ltext0
 3876 0544 0200     		.2byte	0x2
 3877 0546 77       		.byte	0x77
 3878 0547 18       		.sleb128 24
 3879 0548 46000000 		.4byte	.LCFI9-.Ltext0
 3880 054c 48000000 		.4byte	.LCFI10-.Ltext0
 3881 0550 0200     		.2byte	0x2
 3882 0552 77       		.byte	0x77
 3883 0553 04       		.sleb128 4
 3884 0554 48000000 		.4byte	.LCFI10-.Ltext0
 3885 0558 4A000000 		.4byte	.LCFI11-.Ltext0
 3886 055c 0200     		.2byte	0x2
 3887 055e 7D       		.byte	0x7d
 3888 055f 04       		.sleb128 4
 3889 0560 4A000000 		.4byte	.LCFI11-.Ltext0
 3890 0564 4C000000 		.4byte	.LFE1-.Ltext0
 3891 0568 0200     		.2byte	0x2
 3892 056a 7D       		.byte	0x7d
 3893 056b 00       		.sleb128 0
 3894 056c 00000000 		.4byte	0
 3895 0570 00000000 		.4byte	0
 3896              	.LLST0:
 3897 0574 00000000 		.4byte	.LFB0-.Ltext0
 3898 0578 02000000 		.4byte	.LCFI0-.Ltext0
 3899 057c 0200     		.2byte	0x2
 3900 057e 7D       		.byte	0x7d
 3901 057f 00       		.sleb128 0
 3902 0580 02000000 		.4byte	.LCFI0-.Ltext0
 3903 0584 04000000 		.4byte	.LCFI1-.Ltext0
 3904 0588 0200     		.2byte	0x2
 3905 058a 7D       		.byte	0x7d
 3906 058b 04       		.sleb128 4
 3907 058c 04000000 		.4byte	.LCFI1-.Ltext0
 3908 0590 06000000 		.4byte	.LCFI2-.Ltext0
 3909 0594 0200     		.2byte	0x2
 3910 0596 7D       		.byte	0x7d
 3911 0597 10       		.sleb128 16
 3912 0598 06000000 		.4byte	.LCFI2-.Ltext0
 3913 059c 18000000 		.4byte	.LCFI3-.Ltext0
 3914 05a0 0200     		.2byte	0x2
 3915 05a2 77       		.byte	0x77
 3916 05a3 10       		.sleb128 16
 3917 05a4 18000000 		.4byte	.LCFI3-.Ltext0
 3918 05a8 1A000000 		.4byte	.LCFI4-.Ltext0
 3919 05ac 0200     		.2byte	0x2
 3920 05ae 77       		.byte	0x77
 3921 05af 04       		.sleb128 4
 3922 05b0 1A000000 		.4byte	.LCFI4-.Ltext0
 3923 05b4 1C000000 		.4byte	.LCFI5-.Ltext0
 3924 05b8 0200     		.2byte	0x2
 3925 05ba 7D       		.byte	0x7d
 3926 05bb 04       		.sleb128 4
 3927 05bc 1C000000 		.4byte	.LCFI5-.Ltext0
 3928 05c0 1E000000 		.4byte	.LFE0-.Ltext0
 3929 05c4 0200     		.2byte	0x2
 3930 05c6 7D       		.byte	0x7d
 3931 05c7 00       		.sleb128 0
ARM GAS  G:\Users\Jaxb\AppData\Local\Temp\ccKoN8kJ.s 			page 78


 3932 05c8 00000000 		.4byte	0
 3933 05cc 00000000 		.4byte	0
 3934              		.section	.debug_aranges,"",%progbits
 3935 0000 1C000000 		.4byte	0x1c
 3936 0004 0200     		.2byte	0x2
 3937 0006 00000000 		.4byte	.Ldebug_info0
 3938 000a 04       		.byte	0x4
 3939 000b 00       		.byte	0
 3940 000c 0000     		.2byte	0
 3941 000e 0000     		.2byte	0
 3942 0010 00000000 		.4byte	.Ltext0
 3943 0014 30090000 		.4byte	.Letext0-.Ltext0
 3944 0018 00000000 		.4byte	0
 3945 001c 00000000 		.4byte	0
 3946              		.section	.debug_line,"",%progbits
 3947              	.Ldebug_line0:
 3948 0000 BB020000 		.section	.debug_str,"MS",%progbits,1
 3948      02001C01 
 3948      00000201 
 3948      FB0E0D00 
 3948      01010101 
 3949              	.LASF24:
 3950 0000 5441534B 		.ascii	"TASK_PRIO_TYPE\000"
 3950      5F505249 
 3950      4F5F5459 
 3950      504500
 3951              	.LASF51:
 3952 000f 7368656C 		.ascii	"shell_show_tasks_registers\000"
 3952      6C5F7368 
 3952      6F775F74 
 3952      61736B73 
 3952      5F726567 
 3953              	.LASF14:
 3954 002a 53544154 		.ascii	"STATE_SUSPEND_NORMAL\000"
 3954      455F5355 
 3954      5350454E 
 3954      445F4E4F 
 3954      524D414C 
 3955              	.LASF25:
 3956 003f 6C697374 		.ascii	"list_head\000"
 3956      5F686561 
 3956      6400
 3957              	.LASF65:
 3958 0049 6C697374 		.ascii	"list_del\000"
 3958      5F64656C 
 3958      00
 3959              	.LASF3:
 3960 0052 73686F72 		.ascii	"short int\000"
 3960      7420696E 
 3960      7400
 3961              	.LASF11:
 3962 005c 73697A65 		.ascii	"size_t\000"
 3962      5F7400
 3963              	.LASF67:
 3964 0063 6C697374 		.ascii	"list_add\000"
 3964      5F616464 
 3964      00
ARM GAS  G:\Users\Jaxb\AppData\Local\Temp\ccKoN8kJ.s 			page 79


 3965              	.LASF17:
 3966 006c 53544154 		.ascii	"STATE_WAIT_MESSAGE_QUEUE_FOREVER\000"
 3966      455F5741 
 3966      49545F4D 
 3966      45535341 
 3966      47455F51 
 3967              	.LASF8:
 3968 008d 55494E54 		.ascii	"UINT32\000"
 3968      333200
 3969              	.LASF23:
 3970 0094 53544143 		.ascii	"STACK_TYPE\000"
 3970      4B5F5459 
 3970      504500
 3971              	.LASF73:
 3972 009f 5461736B 		.ascii	"Task_State\000"
 3972      5F537461 
 3972      746500
 3973              	.LASF19:
 3974 00aa 53544154 		.ascii	"STATE_PUT_MESSAGE_QUEUE_FOREVER\000"
 3974      455F5055 
 3974      545F4D45 
 3974      53534147 
 3974      455F5155 
 3975              	.LASF77:
 3976 00ca 494E4954 		.ascii	"INIT_LIST_HEAD\000"
 3976      5F4C4953 
 3976      545F4845 
 3976      414400
 3977              	.LASF69:
 3978 00d9 6C697374 		.ascii	"list\000"
 3978      00
 3979              	.LASF44:
 3980 00de 68656164 		.ascii	"head\000"
 3980      00
 3981              	.LASF55:
 3982 00e3 696E6465 		.ascii	"index\000"
 3982      7800
 3983              	.LASF68:
 3984 00e9 5F5F6C69 		.ascii	"__list_add\000"
 3984      73745F61 
 3984      646400
 3985              	.LASF29:
 3986 00f4 73746163 		.ascii	"stack_end\000"
 3986      6B5F656E 
 3986      6400
 3987              	.LASF16:
 3988 00fe 53544154 		.ascii	"STATE_WAIT_MCB_TIMEOUT\000"
 3988      455F5741 
 3988      49545F4D 
 3988      43425F54 
 3988      494D454F 
 3989              	.LASF47:
 3990 0115 61726763 		.ascii	"argc\000"
 3990      00
 3991              	.LASF18:
 3992 011a 53544154 		.ascii	"STATE_WAIT_MESSAGE_QUEUE_TIMEOUT\000"
 3992      455F5741 
ARM GAS  G:\Users\Jaxb\AppData\Local\Temp\ccKoN8kJ.s 			page 80


 3992      49545F4D 
 3992      45535341 
 3992      47455F51 
 3993              	.LASF72:
 3994 013b 463A5C6B 		.ascii	"F:\\kaka\\KAKAOS\\C\\windows\\Project\\RVMDK\243\250"
 3994      616B615C 
 3994      4B414B41 
 3994      4F535C43 
 3994      5C77696E 
 3995 0163 757635A3 		.ascii	"uv5\243\251\000"
 3995      A900
 3996              	.LASF4:
 3997 0169 6C6F6E67 		.ascii	"long long int\000"
 3997      206C6F6E 
 3997      6720696E 
 3997      7400
 3998              	.LASF46:
 3999 0177 5443425F 		.ascii	"TCB_num\000"
 3999      6E756D00 
 4000              	.LASF37:
 4001 017f 74696D65 		.ascii	"timeslice_hope_time\000"
 4001      736C6963 
 4001      655F686F 
 4001      70655F74 
 4001      696D6500 
 4002              	.LASF76:
 4003 0193 6C697374 		.ascii	"list_empty\000"
 4003      5F656D70 
 4003      747900
 4004              	.LASF66:
 4005 019e 5F5F6C69 		.ascii	"__list_del\000"
 4005      73745F64 
 4005      656C00
 4006              	.LASF22:
 4007 01a9 5441534B 		.ascii	"TASK_STATE\000"
 4007      5F535441 
 4007      544500
 4008              	.LASF56:
 4009 01b4 5F646563 		.ascii	"_decrease_TCB_num\000"
 4009      72656173 
 4009      655F5443 
 4009      425F6E75 
 4009      6D00
 4010              	.LASF48:
 4011 01c6 61726776 		.ascii	"argv\000"
 4011      00
 4012              	.LASF36:
 4013 01cb 6E616D65 		.ascii	"name\000"
 4013      00
 4014              	.LASF40:
 4015 01d0 64796E61 		.ascii	"dynamic_module_ptr\000"
 4015      6D69635F 
 4015      6D6F6475 
 4015      6C655F70 
 4015      747200
 4016              	.LASF53:
 4017 01e3 7368656C 		.ascii	"shell_check_TCB_list\000"
ARM GAS  G:\Users\Jaxb\AppData\Local\Temp\ccKoN8kJ.s 			page 81


 4017      6C5F6368 
 4017      65636B5F 
 4017      5443425F 
 4017      6C697374 
 4018              	.LASF5:
 4019 01f8 756E7369 		.ascii	"unsigned char\000"
 4019      676E6564 
 4019      20636861 
 4019      7200
 4020              	.LASF64:
 4021 0206 656E7472 		.ascii	"entry\000"
 4021      7900
 4022              	.LASF13:
 4023 020c 53544154 		.ascii	"STATE_DELAY\000"
 4023      455F4445 
 4023      4C415900 
 4024              	.LASF39:
 4025 0218 61747472 		.ascii	"attribution\000"
 4025      69627574 
 4025      696F6E00 
 4026              	.LASF2:
 4027 0224 7369676E 		.ascii	"signed char\000"
 4027      65642063 
 4027      68617200 
 4028              	.LASF10:
 4029 0230 6C6F6E67 		.ascii	"long long unsigned int\000"
 4029      206C6F6E 
 4029      6720756E 
 4029      7369676E 
 4029      65642069 
 4030              	.LASF7:
 4031 0247 756E7369 		.ascii	"unsigned int\000"
 4031      676E6564 
 4031      20696E74 
 4031      00
 4032              	.LASF62:
 4033 0254 5F726567 		.ascii	"_register_in_TCB_list\000"
 4033      69737465 
 4033      725F696E 
 4033      5F544342 
 4033      5F6C6973 
 4034              	.LASF27:
 4035 026a 73746163 		.ascii	"stack\000"
 4035      6B00
 4036              	.LASF60:
 4037 0270 5F676574 		.ascii	"_get_from_TCB_list\000"
 4037      5F66726F 
 4037      6D5F5443 
 4037      425F6C69 
 4037      737400
 4038              	.LASF34:
 4039 0283 73616D65 		.ascii	"same_prio_list\000"
 4039      5F707269 
 4039      6F5F6C69 
 4039      737400
 4040              	.LASF57:
 4041 0292 5F696E63 		.ascii	"_increase_ready_num\000"
ARM GAS  G:\Users\Jaxb\AppData\Local\Temp\ccKoN8kJ.s 			page 82


 4041      72656173 
 4041      655F7265 
 4041      6164795F 
 4041      6E756D00 
 4042              	.LASF75:
 4043 02a6 64796E61 		.ascii	"dynamic_module\000"
 4043      6D69635F 
 4043      6D6F6475 
 4043      6C6500
 4044              	.LASF6:
 4045 02b5 73686F72 		.ascii	"short unsigned int\000"
 4045      7420756E 
 4045      7369676E 
 4045      65642069 
 4045      6E7400
 4046              	.LASF12:
 4047 02c8 53544154 		.ascii	"STATE_READY\000"
 4047      455F5245 
 4047      41445900 
 4048              	.LASF61:
 4049 02d4 5F64656C 		.ascii	"_delete_from_TCB_list\000"
 4049      6574655F 
 4049      66726F6D 
 4049      5F544342 
 4049      5F6C6973 
 4050              	.LASF42:
 4051 02ea 63686172 		.ascii	"char\000"
 4051      00
 4052              	.LASF71:
 4053 02ef 2E2E2F2E 		.ascii	"../../source/src/kernel/OS_CORE/schedule/os_TCB_lis"
 4053      2E2F736F 
 4053      75726365 
 4053      2F737263 
 4053      2F6B6572 
 4054 0322 742E6300 		.ascii	"t.c\000"
 4055              	.LASF20:
 4056 0326 53544154 		.ascii	"STATE_PUT_MESSAGE_QUEUE_TIMEOUT\000"
 4056      455F5055 
 4056      545F4D45 
 4056      53534147 
 4056      455F5155 
 4057              	.LASF54:
 4058 0346 5F696E63 		.ascii	"_increase_TCB_num\000"
 4058      72656173 
 4058      655F5443 
 4058      425F6E75 
 4058      6D00
 4059              	.LASF50:
 4060 0358 5F5F6D70 		.ascii	"__mptr\000"
 4060      747200
 4061              	.LASF49:
 4062 035f 5443425F 		.ascii	"TCB_ptr\000"
 4062      70747200 
 4063              	.LASF33:
 4064 0367 64656C61 		.ascii	"delay_heap_position\000"
 4064      795F6865 
 4064      61705F70 
ARM GAS  G:\Users\Jaxb\AppData\Local\Temp\ccKoN8kJ.s 			page 83


 4064      6F736974 
 4064      696F6E00 
 4065              	.LASF31:
 4066 037b 7461736B 		.ascii	"task_state\000"
 4066      5F737461 
 4066      746500
 4067              	.LASF43:
 4068 0386 5443425F 		.ascii	"TCB_list\000"
 4068      6C697374 
 4068      00
 4069              	.LASF38:
 4070 038f 74696D65 		.ascii	"timeslice_rest_time\000"
 4070      736C6963 
 4070      655F7265 
 4070      73745F74 
 4070      696D6500 
 4071              	.LASF15:
 4072 03a3 53544154 		.ascii	"STATE_WAIT_MCB_FOREVER\000"
 4072      455F5741 
 4072      49545F4D 
 4072      43425F46 
 4072      4F524556 
 4073              	.LASF59:
 4074 03ba 5F676574 		.ascii	"_get_ready_num_from_TCB_list\000"
 4074      5F726561 
 4074      64795F6E 
 4074      756D5F66 
 4074      726F6D5F 
 4075              	.LASF26:
 4076 03d7 7461736B 		.ascii	"task_control_block_struct\000"
 4076      5F636F6E 
 4076      74726F6C 
 4076      5F626C6F 
 4076      636B5F73 
 4077              	.LASF28:
 4078 03f1 73746163 		.ascii	"stack_size\000"
 4078      6B5F7369 
 4078      7A6500
 4079              	.LASF45:
 4080 03fc 72656164 		.ascii	"ready_num\000"
 4080      795F6E75 
 4080      6D00
 4081              	.LASF30:
 4082 0406 72657365 		.ascii	"reserve_prio\000"
 4082      7276655F 
 4082      7072696F 
 4082      00
 4083              	.LASF52:
 4084 0413 7368656C 		.ascii	"shell_stack_check\000"
 4084      6C5F7374 
 4084      61636B5F 
 4084      63686563 
 4084      6B00
 4085              	.LASF63:
 4086 0425 5F5F696E 		.ascii	"__init_TCB_list\000"
 4086      69745F54 
 4086      43425F6C 
ARM GAS  G:\Users\Jaxb\AppData\Local\Temp\ccKoN8kJ.s 			page 84


 4086      69737400 
 4087              	.LASF35:
 4088 0435 73757370 		.ascii	"suspend_list\000"
 4088      656E645F 
 4088      6C697374 
 4088      00
 4089              	.LASF74:
 4090 0442 675F696E 		.ascii	"g_interrupt_count\000"
 4090      74657272 
 4090      7570745F 
 4090      636F756E 
 4090      7400
 4091              	.LASF58:
 4092 0454 5F646563 		.ascii	"_decrease_ready_num\000"
 4092      72656173 
 4092      655F7265 
 4092      6164795F 
 4092      6E756D00 
 4093              	.LASF70:
 4094 0468 474E5520 		.ascii	"GNU C11 7.3.1 20180622 (release) [ARM/embedded-7-br"
 4094      43313120 
 4094      372E332E 
 4094      31203230 
 4094      31383036 
 4095 049b 616E6368 		.ascii	"anch revision 261907] -mcpu=cortex-m3 -mthumb -mapc"
 4095      20726576 
 4095      6973696F 
 4095      6E203236 
 4095      31393037 
 4096 04ce 732D6672 		.ascii	"s-frame -mthumb-interwork -mcpu=cortex-m3 -mthumb -"
 4096      616D6520 
 4096      2D6D7468 
 4096      756D622D 
 4096      696E7465 
 4097 0501 67647761 		.ascii	"gdwarf-2 -O0\000"
 4097      72662D32 
 4097      202D4F30 
 4097      00
 4098              	.LASF21:
 4099 050e 53544154 		.ascii	"STATE_WAIT_MUTEX_FOREVER\000"
 4099      455F5741 
 4099      49545F4D 
 4099      55544558 
 4099      5F464F52 
 4100              	.LASF1:
 4101 0527 70726576 		.ascii	"prev\000"
 4101      00
 4102              	.LASF41:
 4103 052c 64656C61 		.ascii	"delay_reach_time\000"
 4103      795F7265 
 4103      6163685F 
 4103      74696D65 
 4103      00
 4104              	.LASF9:
 4105 053d 55494E54 		.ascii	"UINT64\000"
 4105      363400
 4106              	.LASF32:
ARM GAS  G:\Users\Jaxb\AppData\Local\Temp\ccKoN8kJ.s 			page 85


 4107 0544 7072696F 		.ascii	"prio\000"
 4107      00
 4108              	.LASF0:
 4109 0549 6E657874 		.ascii	"next\000"
 4109      00
 4110              		.ident	"GCC: (GNU Tools for Arm Embedded Processors 7-2018-q2-update) 7.3.1 20180622 (release) [AR
ARM GAS  G:\Users\Jaxb\AppData\Local\Temp\ccKoN8kJ.s 			page 86


DEFINED SYMBOLS
                            *ABS*:00000000 os_TCB_list.c
G:\Users\Jaxb\AppData\Local\Temp\ccKoN8kJ.s:15     .text:00000000 $t
G:\Users\Jaxb\AppData\Local\Temp\ccKoN8kJ.s:21     .text:00000000 INIT_LIST_HEAD
G:\Users\Jaxb\AppData\Local\Temp\ccKoN8kJ.s:71     .text:0000001e __list_add
G:\Users\Jaxb\AppData\Local\Temp\ccKoN8kJ.s:130    .text:0000004c list_add
G:\Users\Jaxb\AppData\Local\Temp\ccKoN8kJ.s:175    .text:0000006c __list_del
G:\Users\Jaxb\AppData\Local\Temp\ccKoN8kJ.s:225    .text:0000008c list_del
G:\Users\Jaxb\AppData\Local\Temp\ccKoN8kJ.s:270    .text:000000ac list_empty
G:\Users\Jaxb\AppData\Local\Temp\ccKoN8kJ.s:315    .bss:00000000 $d
G:\Users\Jaxb\AppData\Local\Temp\ccKoN8kJ.s:316    .bss:00000000 TCB_list
G:\Users\Jaxb\AppData\Local\Temp\ccKoN8kJ.s:327    .text:000000ce __init_TCB_list
G:\Users\Jaxb\AppData\Local\Temp\ccKoN8kJ.s:404    .text:0000012c $d
G:\Users\Jaxb\AppData\Local\Temp\ccKoN8kJ.s:409    .rodata:00000000 $d
G:\Users\Jaxb\AppData\Local\Temp\ccKoN8kJ.s:414    .text:00000130 $t
G:\Users\Jaxb\AppData\Local\Temp\ccKoN8kJ.s:421    .text:00000130 _register_in_TCB_list
G:\Users\Jaxb\AppData\Local\Temp\ccKoN8kJ.s:496    .text:00000194 $d
G:\Users\Jaxb\AppData\Local\Temp\ccKoN8kJ.s:507    .text:0000019c $t
G:\Users\Jaxb\AppData\Local\Temp\ccKoN8kJ.s:514    .text:0000019c _delete_from_TCB_list
G:\Users\Jaxb\AppData\Local\Temp\ccKoN8kJ.s:655    .text:00000268 $d
G:\Users\Jaxb\AppData\Local\Temp\ccKoN8kJ.s:661    .text:00000274 $t
G:\Users\Jaxb\AppData\Local\Temp\ccKoN8kJ.s:668    .text:00000274 _get_from_TCB_list
G:\Users\Jaxb\AppData\Local\Temp\ccKoN8kJ.s:716    .text:000002a0 $d
G:\Users\Jaxb\AppData\Local\Temp\ccKoN8kJ.s:721    .text:000002a8 $t
G:\Users\Jaxb\AppData\Local\Temp\ccKoN8kJ.s:728    .text:000002a8 _get_ready_num_from_TCB_list
G:\Users\Jaxb\AppData\Local\Temp\ccKoN8kJ.s:778    .text:000002d8 $d
G:\Users\Jaxb\AppData\Local\Temp\ccKoN8kJ.s:783    .text:000002e0 $t
G:\Users\Jaxb\AppData\Local\Temp\ccKoN8kJ.s:790    .text:000002e0 _decrease_ready_num
G:\Users\Jaxb\AppData\Local\Temp\ccKoN8kJ.s:869    .text:00000348 $d
G:\Users\Jaxb\AppData\Local\Temp\ccKoN8kJ.s:874    .text:00000350 $t
G:\Users\Jaxb\AppData\Local\Temp\ccKoN8kJ.s:881    .text:00000350 _increase_ready_num
G:\Users\Jaxb\AppData\Local\Temp\ccKoN8kJ.s:943    .text:00000398 $d
G:\Users\Jaxb\AppData\Local\Temp\ccKoN8kJ.s:948    .text:000003a0 $t
G:\Users\Jaxb\AppData\Local\Temp\ccKoN8kJ.s:955    .text:000003a0 _decrease_TCB_num
G:\Users\Jaxb\AppData\Local\Temp\ccKoN8kJ.s:1034   .text:00000408 $d
G:\Users\Jaxb\AppData\Local\Temp\ccKoN8kJ.s:1039   .text:00000410 $t
G:\Users\Jaxb\AppData\Local\Temp\ccKoN8kJ.s:1046   .text:00000410 _increase_TCB_num
G:\Users\Jaxb\AppData\Local\Temp\ccKoN8kJ.s:1108   .text:00000458 $d
G:\Users\Jaxb\AppData\Local\Temp\ccKoN8kJ.s:1152   .text:00000460 $t
G:\Users\Jaxb\AppData\Local\Temp\ccKoN8kJ.s:1159   .text:00000460 shell_check_TCB_list
G:\Users\Jaxb\AppData\Local\Temp\ccKoN8kJ.s:1274   .text:00000510 $d
G:\Users\Jaxb\AppData\Local\Temp\ccKoN8kJ.s:1284   .text:00000538 $t
G:\Users\Jaxb\AppData\Local\Temp\ccKoN8kJ.s:1387   .text:000005d4 $d
G:\Users\Jaxb\AppData\Local\Temp\ccKoN8kJ.s:1424   .text:00000608 $t
G:\Users\Jaxb\AppData\Local\Temp\ccKoN8kJ.s:1431   .text:00000608 shell_stack_check
G:\Users\Jaxb\AppData\Local\Temp\ccKoN8kJ.s:1613   .text:00000718 $d
G:\Users\Jaxb\AppData\Local\Temp\ccKoN8kJ.s:1677   .text:00000738 $t
G:\Users\Jaxb\AppData\Local\Temp\ccKoN8kJ.s:1684   .text:00000738 shell_show_tasks_registers
G:\Users\Jaxb\AppData\Local\Temp\ccKoN8kJ.s:1935   .text:000008e0 $d

UNDEFINED SYMBOLS
_ASSERT
ka_printf
ka_strcmp
