ARM GAS  G:\Users\Jaxb\AppData\Local\Temp\cc28WVH2.s 			page 1


   1              		.cpu cortex-m3
   2              		.eabi_attribute 20, 1
   3              		.eabi_attribute 21, 1
   4              		.eabi_attribute 23, 3
   5              		.eabi_attribute 24, 1
   6              		.eabi_attribute 25, 1
   7              		.eabi_attribute 26, 1
   8              		.eabi_attribute 30, 2
   9              		.eabi_attribute 34, 1
  10              		.eabi_attribute 18, 4
  11              		.file	"os_time.c"
  12              		.text
  13              	.Ltext0:
  14              		.cfi_sections	.debug_frame
  15              		.align	1
  16              		.p2align 2,,3
  17              		.global	__init_system_time
  18              		.syntax unified
  19              		.thumb
  20              		.thumb_func
  21              		.fpu softvfp
  22              		.type	__init_system_time, %function
  23              	__init_system_time:
  24              	.LFB1:
  25              		.file 1 "../../source/src/kernel/OS_CORE/os_time.c"
   1:../../source/src/kernel/OS_CORE/os_time.c **** #include <os_time.h>
   2:../../source/src/kernel/OS_CORE/os_time.c **** #include <os_cpu.h>
   3:../../source/src/kernel/OS_CORE/os_time.c **** #include <myMicroLIB.h>
   4:../../source/src/kernel/OS_CORE/os_time.c **** #include <myassert.h>
   5:../../source/src/kernel/OS_CORE/os_time.c **** #include <os_error.h>
   6:../../source/src/kernel/OS_CORE/os_time.c **** #include <export.h>
   7:../../source/src/kernel/OS_CORE/os_time.c **** 
   8:../../source/src/kernel/OS_CORE/os_time.c **** volatile UINT64 g_time_tick_count = 0;
   9:../../source/src/kernel/OS_CORE/os_time.c **** 
  10:../../source/src/kernel/OS_CORE/os_time.c **** UINT64 
  11:../../source/src/kernel/OS_CORE/os_time.c **** get_tick(void)
  12:../../source/src/kernel/OS_CORE/os_time.c **** {
  13:../../source/src/kernel/OS_CORE/os_time.c **** 	UINT64 num;
  14:../../source/src/kernel/OS_CORE/os_time.c **** 	CPU_SR_ALLOC();
  15:../../source/src/kernel/OS_CORE/os_time.c **** 	CPU_CRITICAL_ENTER();
  16:../../source/src/kernel/OS_CORE/os_time.c **** 	num = g_time_tick_count;
  17:../../source/src/kernel/OS_CORE/os_time.c **** 	CPU_CRITICAL_EXIT();
  18:../../source/src/kernel/OS_CORE/os_time.c **** 	return num;
  19:../../source/src/kernel/OS_CORE/os_time.c **** }
  20:../../source/src/kernel/OS_CORE/os_time.c **** EXPORT_SYMBOL(get_tick);
  21:../../source/src/kernel/OS_CORE/os_time.c **** 
  22:../../source/src/kernel/OS_CORE/os_time.c **** #if CONFIG_TIME_EN
  23:../../source/src/kernel/OS_CORE/os_time.c **** 
  24:../../source/src/kernel/OS_CORE/os_time.c **** static struct time sys_time;
  25:../../source/src/kernel/OS_CORE/os_time.c **** 
  26:../../source/src/kernel/OS_CORE/os_time.c **** static const UINT8 month_date_table[] = {
  27:../../source/src/kernel/OS_CORE/os_time.c **** 	31, //January
  28:../../source/src/kernel/OS_CORE/os_time.c **** 	28, //Feburary
  29:../../source/src/kernel/OS_CORE/os_time.c **** 	31, //March
  30:../../source/src/kernel/OS_CORE/os_time.c **** 	30, //April
  31:../../source/src/kernel/OS_CORE/os_time.c **** 	31, //May
  32:../../source/src/kernel/OS_CORE/os_time.c **** 	30, //June
ARM GAS  G:\Users\Jaxb\AppData\Local\Temp\cc28WVH2.s 			page 2


  33:../../source/src/kernel/OS_CORE/os_time.c **** 	31, //July
  34:../../source/src/kernel/OS_CORE/os_time.c **** 	31, //August
  35:../../source/src/kernel/OS_CORE/os_time.c **** 	30, //September
  36:../../source/src/kernel/OS_CORE/os_time.c **** 	31, //October
  37:../../source/src/kernel/OS_CORE/os_time.c **** 	30, //November
  38:../../source/src/kernel/OS_CORE/os_time.c **** 	31  //December
  39:../../source/src/kernel/OS_CORE/os_time.c **** };
  40:../../source/src/kernel/OS_CORE/os_time.c **** 
  41:../../source/src/kernel/OS_CORE/os_time.c **** void 
  42:../../source/src/kernel/OS_CORE/os_time.c **** __init_system_time(void)
  43:../../source/src/kernel/OS_CORE/os_time.c **** {
  26              		.loc 1 43 0
  27              		.cfi_startproc
  28              		@ args = 0, pretend = 0, frame = 0
  29              		@ frame_needed = 0, uses_anonymous_args = 0
  30              		@ link register save eliminated.
  44:../../source/src/kernel/OS_CORE/os_time.c **** 	sys_time.date    =  OS_DATE;
  45:../../source/src/kernel/OS_CORE/os_time.c **** 	sys_time.hour    =  OS_HOUR;
  46:../../source/src/kernel/OS_CORE/os_time.c **** 	sys_time.minute  = 	OS_MINUTE;
  47:../../source/src/kernel/OS_CORE/os_time.c **** 	sys_time.month   =  OS_MONTH;
  48:../../source/src/kernel/OS_CORE/os_time.c **** 	sys_time.second  = 	OS_SECOND;
  31              		.loc 1 48 0
  32 0000 024B     		ldr	r3, .L3
  44:../../source/src/kernel/OS_CORE/os_time.c **** 	sys_time.date    =  OS_DATE;
  33              		.loc 1 44 0
  34 0002 0349     		ldr	r1, .L3+4
  35 0004 034A     		ldr	r2, .L3+8
  36 0006 C3E90012 		strd	r1, r2, [r3]
  49:../../source/src/kernel/OS_CORE/os_time.c **** 	sys_time.year    =  OS_YEAR;
  50:../../source/src/kernel/OS_CORE/os_time.c **** 	sys_time.day     =  OS_DAY;
  51:../../source/src/kernel/OS_CORE/os_time.c **** }
  37              		.loc 1 51 0
  38 000a 7047     		bx	lr
  39              	.L4:
  40              		.align	2
  41              	.L3:
  42 000c 00000000 		.word	.LANCHOR0
  43 0010 00160B05 		.word	84612608
  44 0014 0A05E207 		.word	132252938
  45              		.cfi_endproc
  46              	.LFE1:
  47              		.size	__init_system_time, .-__init_system_time
  48              		.align	1
  49              		.p2align 2,,3
  50              		.global	get_tick
  51              		.syntax unified
  52              		.thumb
  53              		.thumb_func
  54              		.fpu softvfp
  55              		.type	get_tick, %function
  56              	get_tick:
  57              	.LFB0:
  12:../../source/src/kernel/OS_CORE/os_time.c **** 	UINT64 num;
  58              		.loc 1 12 0
  59              		.cfi_startproc
  60              		@ args = 0, pretend = 0, frame = 0
  61              		@ frame_needed = 0, uses_anonymous_args = 0
ARM GAS  G:\Users\Jaxb\AppData\Local\Temp\cc28WVH2.s 			page 3


  62              	.LVL0:
  63 0018 38B5     		push	{r3, r4, r5, lr}
  64              	.LCFI0:
  65              		.cfi_def_cfa_offset 16
  66              		.cfi_offset 3, -16
  67              		.cfi_offset 4, -12
  68              		.cfi_offset 5, -8
  69              		.cfi_offset 14, -4
  15:../../source/src/kernel/OS_CORE/os_time.c **** 	num = g_time_tick_count;
  70              		.loc 1 15 0
  71 001a FFF7FEFF 		bl	CPU_SR_Save
  72              	.LVL1:
  16:../../source/src/kernel/OS_CORE/os_time.c **** 	CPU_CRITICAL_EXIT();
  73              		.loc 1 16 0
  74 001e 044B     		ldr	r3, .L6
  75 0020 D3E90245 		ldrd	r4, [r3, #8]
  76              	.LVL2:
  17:../../source/src/kernel/OS_CORE/os_time.c **** 	return num;
  77              		.loc 1 17 0
  78 0024 FFF7FEFF 		bl	CPU_SR_Restore
  79              	.LVL3:
  19:../../source/src/kernel/OS_CORE/os_time.c **** EXPORT_SYMBOL(get_tick);
  80              		.loc 1 19 0
  81 0028 2046     		mov	r0, r4
  82 002a 2946     		mov	r1, r5
  83 002c 38BD     		pop	{r3, r4, r5, pc}
  84              	.LVL4:
  85              	.L7:
  86 002e 00BF     		.align	2
  87              	.L6:
  88 0030 00000000 		.word	.LANCHOR0
  89              		.cfi_endproc
  90              	.LFE0:
  91              		.size	get_tick, .-get_tick
  92              		.align	1
  93              		.p2align 2,,3
  94              		.global	system_time_display
  95              		.syntax unified
  96              		.thumb
  97              		.thumb_func
  98              		.fpu softvfp
  99              		.type	system_time_display, %function
 100              	system_time_display:
 101              	.LFB3:
  52:../../source/src/kernel/OS_CORE/os_time.c **** EXPORT_SYMBOL(__init_system_time);
  53:../../source/src/kernel/OS_CORE/os_time.c **** 
  54:../../source/src/kernel/OS_CORE/os_time.c **** 
  55:../../source/src/kernel/OS_CORE/os_time.c **** /**
  56:../../source/src/kernel/OS_CORE/os_time.c ****  * This is a system function
  57:../../source/src/kernel/OS_CORE/os_time.c ****  * @Author      kaka
  58:../../source/src/kernel/OS_CORE/os_time.c ****  * @DateTime    2018-10-12
  59:../../source/src/kernel/OS_CORE/os_time.c ****  * @description : this function can only be used by os
  60:../../source/src/kernel/OS_CORE/os_time.c ****  */
  61:../../source/src/kernel/OS_CORE/os_time.c **** void 
  62:../../source/src/kernel/OS_CORE/os_time.c **** system_time_increase(void)
  63:../../source/src/kernel/OS_CORE/os_time.c **** {
  64:../../source/src/kernel/OS_CORE/os_time.c **** 	++sys_time.second;
ARM GAS  G:\Users\Jaxb\AppData\Local\Temp\cc28WVH2.s 			page 4


  65:../../source/src/kernel/OS_CORE/os_time.c **** 	if(60 == sys_time.second)
  66:../../source/src/kernel/OS_CORE/os_time.c **** 	{
  67:../../source/src/kernel/OS_CORE/os_time.c **** 		sys_time.second = 0;
  68:../../source/src/kernel/OS_CORE/os_time.c **** 		++sys_time.minute;
  69:../../source/src/kernel/OS_CORE/os_time.c **** 		if(60 == sys_time.minute)
  70:../../source/src/kernel/OS_CORE/os_time.c **** 		{
  71:../../source/src/kernel/OS_CORE/os_time.c **** 			sys_time.minute = 0;
  72:../../source/src/kernel/OS_CORE/os_time.c **** 		  	++sys_time.hour;
  73:../../source/src/kernel/OS_CORE/os_time.c **** 			if(24 == sys_time.hour)
  74:../../source/src/kernel/OS_CORE/os_time.c **** 			{
  75:../../source/src/kernel/OS_CORE/os_time.c **** 				sys_time.hour = 0;
  76:../../source/src/kernel/OS_CORE/os_time.c **** 				++sys_time.date;
  77:../../source/src/kernel/OS_CORE/os_time.c **** 				++sys_time.day;
  78:../../source/src/kernel/OS_CORE/os_time.c **** 				if(month_date_table[sys_time.month-1] < sys_time.date)
  79:../../source/src/kernel/OS_CORE/os_time.c **** 				{
  80:../../source/src/kernel/OS_CORE/os_time.c **** 					sys_time.date = 1;
  81:../../source/src/kernel/OS_CORE/os_time.c **** 					++sys_time.month;
  82:../../source/src/kernel/OS_CORE/os_time.c **** 					if(sys_time.month == 13)
  83:../../source/src/kernel/OS_CORE/os_time.c **** 					{
  84:../../source/src/kernel/OS_CORE/os_time.c **** 						sys_time.month = 1;
  85:../../source/src/kernel/OS_CORE/os_time.c **** 						++sys_time.year;
  86:../../source/src/kernel/OS_CORE/os_time.c **** 					}
  87:../../source/src/kernel/OS_CORE/os_time.c **** 				}
  88:../../source/src/kernel/OS_CORE/os_time.c **** 				if(8 == sys_time.day)
  89:../../source/src/kernel/OS_CORE/os_time.c **** 				{
  90:../../source/src/kernel/OS_CORE/os_time.c **** 					sys_time.day = 1;
  91:../../source/src/kernel/OS_CORE/os_time.c **** 				}
  92:../../source/src/kernel/OS_CORE/os_time.c **** 			}
  93:../../source/src/kernel/OS_CORE/os_time.c **** 		}
  94:../../source/src/kernel/OS_CORE/os_time.c **** 	}
  95:../../source/src/kernel/OS_CORE/os_time.c **** }
  96:../../source/src/kernel/OS_CORE/os_time.c **** 
  97:../../source/src/kernel/OS_CORE/os_time.c **** void 
  98:../../source/src/kernel/OS_CORE/os_time.c **** system_time_display(void)
  99:../../source/src/kernel/OS_CORE/os_time.c **** {
 102              		.loc 1 99 0
 103              		.cfi_startproc
 104              		@ args = 0, pretend = 0, frame = 0
 105              		@ frame_needed = 0, uses_anonymous_args = 0
 106              	.LVL5:
 107 0034 F0B5     		push	{r4, r5, r6, r7, lr}
 108              	.LCFI1:
 109              		.cfi_def_cfa_offset 20
 110              		.cfi_offset 4, -20
 111              		.cfi_offset 5, -16
 112              		.cfi_offset 6, -12
 113              		.cfi_offset 7, -8
 114              		.cfi_offset 14, -4
 115 0036 85B0     		sub	sp, sp, #20
 116              	.LCFI2:
 117              		.cfi_def_cfa_offset 40
 100:../../source/src/kernel/OS_CORE/os_time.c **** 	CPU_SR_ALLOC();
 101:../../source/src/kernel/OS_CORE/os_time.c **** 	CPU_CRITICAL_ENTER();
 118              		.loc 1 101 0
 119 0038 FFF7FEFF 		bl	CPU_SR_Save
 120              	.LVL6:
 121 003c 0546     		mov	r5, r0
ARM GAS  G:\Users\Jaxb\AppData\Local\Temp\cc28WVH2.s 			page 5


 122              	.LVL7:
 102:../../source/src/kernel/OS_CORE/os_time.c **** 	ka_printf("%d年%d月%d日--%d时%d分%d秒--星期%d\r\n",sys_time.year,
 103:../../source/src/kernel/OS_CORE/os_time.c **** 	sys_time.month,sys_time.date,sys_time.hour,sys_time.minute,sys_time.second,sys_time.day);
 123              		.loc 1 103 0
 124 003e 0A4C     		ldr	r4, .L9
 102:../../source/src/kernel/OS_CORE/os_time.c **** 	ka_printf("%d年%d月%d日--%d时%d分%d秒--星期%d\r\n",sys_time.year,
 125              		.loc 1 102 0
 126 0040 0A48     		ldr	r0, .L9+4
 127              	.LVL8:
 128 0042 6779     		ldrb	r7, [r4, #5]	@ zero_extendqisi2
 129 0044 2678     		ldrb	r6, [r4]	@ zero_extendqisi2
 130 0046 E378     		ldrb	r3, [r4, #3]	@ zero_extendqisi2
 131 0048 2279     		ldrb	r2, [r4, #4]	@ zero_extendqisi2
 132 004a E188     		ldrh	r1, [r4, #6]
 133 004c CDE90267 		strd	r6, r7, [sp, #8]
 134 0050 6678     		ldrb	r6, [r4, #1]	@ zero_extendqisi2
 135 0052 A478     		ldrb	r4, [r4, #2]	@ zero_extendqisi2
 136 0054 CDE90046 		strd	r4, r6, [sp]
 137 0058 FFF7FEFF 		bl	ka_printf
 138              	.LVL9:
 104:../../source/src/kernel/OS_CORE/os_time.c **** 	CPU_CRITICAL_EXIT();
 139              		.loc 1 104 0
 140 005c 2846     		mov	r0, r5
 105:../../source/src/kernel/OS_CORE/os_time.c **** }
 141              		.loc 1 105 0
 142 005e 05B0     		add	sp, sp, #20
 143              	.LCFI3:
 144              		.cfi_def_cfa_offset 20
 145              		@ sp needed
 146 0060 BDE8F040 		pop	{r4, r5, r6, r7, lr}
 147              	.LCFI4:
 148              		.cfi_restore 14
 149              		.cfi_restore 7
 150              		.cfi_restore 6
 151              		.cfi_restore 5
 152              		.cfi_restore 4
 153              		.cfi_def_cfa_offset 0
 154              	.LVL10:
 104:../../source/src/kernel/OS_CORE/os_time.c **** 	CPU_CRITICAL_EXIT();
 155              		.loc 1 104 0
 156 0064 FFF7FEBF 		b	CPU_SR_Restore
 157              	.LVL11:
 158              	.L10:
 159              		.align	2
 160              	.L9:
 161 0068 00000000 		.word	.LANCHOR0
 162 006c 00000000 		.word	.LC0
 163              		.cfi_endproc
 164              	.LFE3:
 165              		.size	system_time_display, .-system_time_display
 166              		.align	1
 167              		.p2align 2,,3
 168              		.global	set_time
 169              		.syntax unified
 170              		.thumb
 171              		.thumb_func
 172              		.fpu softvfp
ARM GAS  G:\Users\Jaxb\AppData\Local\Temp\cc28WVH2.s 			page 6


 173              		.type	set_time, %function
 174              	set_time:
 175              	.LFB4:
 106:../../source/src/kernel/OS_CORE/os_time.c **** EXPORT_SYMBOL(system_time_display);
 107:../../source/src/kernel/OS_CORE/os_time.c **** 
 108:../../source/src/kernel/OS_CORE/os_time.c **** int set_time(struct time *time_ptr)
 109:../../source/src/kernel/OS_CORE/os_time.c **** {
 176              		.loc 1 109 0
 177              		.cfi_startproc
 178              		@ args = 0, pretend = 0, frame = 0
 179              		@ frame_needed = 0, uses_anonymous_args = 0
 180              	.LVL12:
 181 0070 70B5     		push	{r4, r5, r6, lr}
 182              	.LCFI5:
 183              		.cfi_def_cfa_offset 16
 184              		.cfi_offset 4, -16
 185              		.cfi_offset 5, -12
 186              		.cfi_offset 6, -8
 187              		.cfi_offset 14, -4
 110:../../source/src/kernel/OS_CORE/os_time.c **** 	ASSERT(NULL != time_ptr);
 188              		.loc 1 110 0
 189 0072 0446     		mov	r4, r0
 190 0074 A0B1     		cbz	r0, .L14
 191              	.LVL13:
 111:../../source/src/kernel/OS_CORE/os_time.c **** #if CONFIG_PARA_CHECK
 112:../../source/src/kernel/OS_CORE/os_time.c **** 	if(NULL == time_ptr)
 113:../../source/src/kernel/OS_CORE/os_time.c **** 	{
 114:../../source/src/kernel/OS_CORE/os_time.c **** 		OS_ERROR_PARA_MESSAGE_DISPLAY(set_time,time_ptr);
 115:../../source/src/kernel/OS_CORE/os_time.c **** 		return -ERROR_NULL_INPUT_PTR;
 116:../../source/src/kernel/OS_CORE/os_time.c **** 	}
 117:../../source/src/kernel/OS_CORE/os_time.c **** #endif
 118:../../source/src/kernel/OS_CORE/os_time.c **** 	CPU_SR_ALLOC();
 119:../../source/src/kernel/OS_CORE/os_time.c **** 	CPU_CRITICAL_ENTER();
 192              		.loc 1 119 0
 193 0076 FFF7FEFF 		bl	CPU_SR_Save
 194              	.LVL14:
 120:../../source/src/kernel/OS_CORE/os_time.c **** 	sys_time.date    =   time_ptr->date;
 195              		.loc 1 120 0
 196 007a 0E4B     		ldr	r3, .L15
 197 007c E578     		ldrb	r5, [r4, #3]	@ zero_extendqisi2
 121:../../source/src/kernel/OS_CORE/os_time.c **** 	sys_time.hour    =   time_ptr->hour;
 198              		.loc 1 121 0
 199 007e A178     		ldrb	r1, [r4, #2]	@ zero_extendqisi2
 122:../../source/src/kernel/OS_CORE/os_time.c **** 	sys_time.minute  = 	 time_ptr->minute;
 200              		.loc 1 122 0
 201 0080 6278     		ldrb	r2, [r4, #1]	@ zero_extendqisi2
 120:../../source/src/kernel/OS_CORE/os_time.c **** 	sys_time.date    =   time_ptr->date;
 202              		.loc 1 120 0
 203 0082 DD70     		strb	r5, [r3, #3]
 123:../../source/src/kernel/OS_CORE/os_time.c **** 	sys_time.month   =   time_ptr->month;
 204              		.loc 1 123 0
 205 0084 2679     		ldrb	r6, [r4, #4]	@ zero_extendqisi2
 121:../../source/src/kernel/OS_CORE/os_time.c **** 	sys_time.hour    =   time_ptr->hour;
 206              		.loc 1 121 0
 207 0086 9970     		strb	r1, [r3, #2]
 124:../../source/src/kernel/OS_CORE/os_time.c **** 	sys_time.second  =   time_ptr->second;
 208              		.loc 1 124 0
ARM GAS  G:\Users\Jaxb\AppData\Local\Temp\cc28WVH2.s 			page 7


 209 0088 2578     		ldrb	r5, [r4]	@ zero_extendqisi2
 122:../../source/src/kernel/OS_CORE/os_time.c **** 	sys_time.minute  = 	 time_ptr->minute;
 210              		.loc 1 122 0
 211 008a 5A70     		strb	r2, [r3, #1]
 125:../../source/src/kernel/OS_CORE/os_time.c **** 	sys_time.year    =   time_ptr->year;
 212              		.loc 1 125 0
 213 008c E188     		ldrh	r1, [r4, #6]
 126:../../source/src/kernel/OS_CORE/os_time.c **** 	sys_time.day     =   time_ptr->day;
 214              		.loc 1 126 0
 215 008e 6279     		ldrb	r2, [r4, #5]	@ zero_extendqisi2
 123:../../source/src/kernel/OS_CORE/os_time.c **** 	sys_time.second  =   time_ptr->second;
 216              		.loc 1 123 0
 217 0090 1E71     		strb	r6, [r3, #4]
 124:../../source/src/kernel/OS_CORE/os_time.c **** 	sys_time.year    =   time_ptr->year;
 218              		.loc 1 124 0
 219 0092 1D70     		strb	r5, [r3]
 125:../../source/src/kernel/OS_CORE/os_time.c **** 	sys_time.day     =   time_ptr->day;
 220              		.loc 1 125 0
 221 0094 D980     		strh	r1, [r3, #6]	@ movhi
 222              		.loc 1 126 0
 223 0096 5A71     		strb	r2, [r3, #5]
 127:../../source/src/kernel/OS_CORE/os_time.c **** 	CPU_CRITICAL_EXIT();
 224              		.loc 1 127 0
 225 0098 FFF7FEFF 		bl	CPU_SR_Restore
 226              	.LVL15:
 128:../../source/src/kernel/OS_CORE/os_time.c **** 	return FUN_EXECUTE_SUCCESSFULLY;
 227              		.loc 1 128 0
 228 009c 0020     		movs	r0, #0
 129:../../source/src/kernel/OS_CORE/os_time.c **** }
 229              		.loc 1 129 0
 230 009e 70BD     		pop	{r4, r5, r6, pc}
 231              	.LVL16:
 232              	.L14:
 110:../../source/src/kernel/OS_CORE/os_time.c **** #if CONFIG_PARA_CHECK
 233              		.loc 1 110 0 discriminator 1
 234 00a0 6E21     		movs	r1, #110
 235 00a2 0548     		ldr	r0, .L15+4
 236              	.LVL17:
 237 00a4 FFF7FEFF 		bl	_ASSERT
 238              	.LVL18:
 114:../../source/src/kernel/OS_CORE/os_time.c **** 		return -ERROR_NULL_INPUT_PTR;
 239              		.loc 1 114 0 discriminator 1
 240 00a8 0448     		ldr	r0, .L15+8
 241 00aa FFF7FEFF 		bl	ka_printf
 242              	.LVL19:
 115:../../source/src/kernel/OS_CORE/os_time.c **** 	}
 243              		.loc 1 115 0 discriminator 1
 244 00ae 6FF0FE00 		mvn	r0, #254
 245              		.loc 1 129 0 discriminator 1
 246 00b2 70BD     		pop	{r4, r5, r6, pc}
 247              	.LVL20:
 248              	.L16:
 249              		.align	2
 250              	.L15:
 251 00b4 00000000 		.word	.LANCHOR0
 252 00b8 30000000 		.word	.LC1
 253 00bc 5C000000 		.word	.LC2
ARM GAS  G:\Users\Jaxb\AppData\Local\Temp\cc28WVH2.s 			page 8


 254              		.cfi_endproc
 255              	.LFE4:
 256              		.size	set_time, .-set_time
 257              		.align	1
 258              		.p2align 2,,3
 259              		.global	system_time_increase
 260              		.syntax unified
 261              		.thumb
 262              		.thumb_func
 263              		.fpu softvfp
 264              		.type	system_time_increase, %function
 265              	system_time_increase:
 266              	.LFB2:
  63:../../source/src/kernel/OS_CORE/os_time.c **** 	++sys_time.second;
 267              		.loc 1 63 0
 268              		.cfi_startproc
 269              		@ args = 0, pretend = 0, frame = 0
 270              		@ frame_needed = 0, uses_anonymous_args = 0
 271              		@ link register save eliminated.
 272 00c0 30B4     		push	{r4, r5}
 273              	.LCFI6:
 274              		.cfi_def_cfa_offset 8
 275              		.cfi_offset 4, -8
 276              		.cfi_offset 5, -4
  64:../../source/src/kernel/OS_CORE/os_time.c **** 	if(60 == sys_time.second)
 277              		.loc 1 64 0
 278 00c2 1E4A     		ldr	r2, .L27
 279 00c4 1378     		ldrb	r3, [r2]	@ zero_extendqisi2
 280 00c6 0133     		adds	r3, r3, #1
 281 00c8 DBB2     		uxtb	r3, r3
  65:../../source/src/kernel/OS_CORE/os_time.c **** 	{
 282              		.loc 1 65 0
 283 00ca 3C2B     		cmp	r3, #60
 284 00cc 02D0     		beq	.L18
  64:../../source/src/kernel/OS_CORE/os_time.c **** 	if(60 == sys_time.second)
 285              		.loc 1 64 0
 286 00ce 1370     		strb	r3, [r2]
 287              	.L17:
  95:../../source/src/kernel/OS_CORE/os_time.c **** 
 288              		.loc 1 95 0
 289 00d0 30BC     		pop	{r4, r5}
 290              	.LCFI7:
 291              		.cfi_remember_state
 292              		.cfi_restore 5
 293              		.cfi_restore 4
 294              		.cfi_def_cfa_offset 0
 295 00d2 7047     		bx	lr
 296              	.L18:
 297              	.LCFI8:
 298              		.cfi_restore_state
  67:../../source/src/kernel/OS_CORE/os_time.c **** 		++sys_time.minute;
 299              		.loc 1 67 0
 300 00d4 0021     		movs	r1, #0
  68:../../source/src/kernel/OS_CORE/os_time.c **** 		if(60 == sys_time.minute)
 301              		.loc 1 68 0
 302 00d6 5378     		ldrb	r3, [r2, #1]	@ zero_extendqisi2
  67:../../source/src/kernel/OS_CORE/os_time.c **** 		++sys_time.minute;
ARM GAS  G:\Users\Jaxb\AppData\Local\Temp\cc28WVH2.s 			page 9


 303              		.loc 1 67 0
 304 00d8 1170     		strb	r1, [r2]
  68:../../source/src/kernel/OS_CORE/os_time.c **** 		if(60 == sys_time.minute)
 305              		.loc 1 68 0
 306 00da 0133     		adds	r3, r3, #1
 307 00dc DBB2     		uxtb	r3, r3
  69:../../source/src/kernel/OS_CORE/os_time.c **** 		{
 308              		.loc 1 69 0
 309 00de 3C2B     		cmp	r3, #60
 310 00e0 02D0     		beq	.L20
  68:../../source/src/kernel/OS_CORE/os_time.c **** 		if(60 == sys_time.minute)
 311              		.loc 1 68 0
 312 00e2 5370     		strb	r3, [r2, #1]
  95:../../source/src/kernel/OS_CORE/os_time.c **** 
 313              		.loc 1 95 0
 314 00e4 30BC     		pop	{r4, r5}
 315              	.LCFI9:
 316              		.cfi_remember_state
 317              		.cfi_restore 5
 318              		.cfi_restore 4
 319              		.cfi_def_cfa_offset 0
 320 00e6 7047     		bx	lr
 321              	.L20:
 322              	.LCFI10:
 323              		.cfi_restore_state
  72:../../source/src/kernel/OS_CORE/os_time.c **** 			if(24 == sys_time.hour)
 324              		.loc 1 72 0
 325 00e8 9378     		ldrb	r3, [r2, #2]	@ zero_extendqisi2
  71:../../source/src/kernel/OS_CORE/os_time.c **** 		  	++sys_time.hour;
 326              		.loc 1 71 0
 327 00ea 5170     		strb	r1, [r2, #1]
  72:../../source/src/kernel/OS_CORE/os_time.c **** 			if(24 == sys_time.hour)
 328              		.loc 1 72 0
 329 00ec 0133     		adds	r3, r3, #1
 330 00ee DBB2     		uxtb	r3, r3
  73:../../source/src/kernel/OS_CORE/os_time.c **** 			{
 331              		.loc 1 73 0
 332 00f0 182B     		cmp	r3, #24
 333 00f2 01D0     		beq	.L22
  72:../../source/src/kernel/OS_CORE/os_time.c **** 			if(24 == sys_time.hour)
 334              		.loc 1 72 0
 335 00f4 9370     		strb	r3, [r2, #2]
 336 00f6 EBE7     		b	.L17
 337              	.L22:
  78:../../source/src/kernel/OS_CORE/os_time.c **** 				{
 338              		.loc 1 78 0
 339 00f8 1479     		ldrb	r4, [r2, #4]	@ zero_extendqisi2
 340 00fa 114D     		ldr	r5, .L27+4
  76:../../source/src/kernel/OS_CORE/os_time.c **** 				++sys_time.day;
 341              		.loc 1 76 0
 342 00fc D078     		ldrb	r0, [r2, #3]	@ zero_extendqisi2
  77:../../source/src/kernel/OS_CORE/os_time.c **** 				if(month_date_table[sys_time.month-1] < sys_time.date)
 343              		.loc 1 77 0
 344 00fe 5379     		ldrb	r3, [r2, #5]	@ zero_extendqisi2
  78:../../source/src/kernel/OS_CORE/os_time.c **** 				{
 345              		.loc 1 78 0
 346 0100 2544     		add	r5, r5, r4
ARM GAS  G:\Users\Jaxb\AppData\Local\Temp\cc28WVH2.s 			page 10


  76:../../source/src/kernel/OS_CORE/os_time.c **** 				++sys_time.day;
 347              		.loc 1 76 0
 348 0102 0130     		adds	r0, r0, #1
  78:../../source/src/kernel/OS_CORE/os_time.c **** 				{
 349              		.loc 1 78 0
 350 0104 15F8015C 		ldrb	r5, [r5, #-1]	@ zero_extendqisi2
  76:../../source/src/kernel/OS_CORE/os_time.c **** 				++sys_time.day;
 351              		.loc 1 76 0
 352 0108 C0B2     		uxtb	r0, r0
  77:../../source/src/kernel/OS_CORE/os_time.c **** 				if(month_date_table[sys_time.month-1] < sys_time.date)
 353              		.loc 1 77 0
 354 010a 0133     		adds	r3, r3, #1
 355 010c DBB2     		uxtb	r3, r3
  78:../../source/src/kernel/OS_CORE/os_time.c **** 				{
 356              		.loc 1 78 0
 357 010e 8542     		cmp	r5, r0
  75:../../source/src/kernel/OS_CORE/os_time.c **** 				++sys_time.date;
 358              		.loc 1 75 0
 359 0110 9170     		strb	r1, [r2, #2]
  76:../../source/src/kernel/OS_CORE/os_time.c **** 				++sys_time.day;
 360              		.loc 1 76 0
 361 0112 D070     		strb	r0, [r2, #3]
  77:../../source/src/kernel/OS_CORE/os_time.c **** 				if(month_date_table[sys_time.month-1] < sys_time.date)
 362              		.loc 1 77 0
 363 0114 5371     		strb	r3, [r2, #5]
  78:../../source/src/kernel/OS_CORE/os_time.c **** 				{
 364              		.loc 1 78 0
 365 0116 06D2     		bcs	.L24
  80:../../source/src/kernel/OS_CORE/os_time.c **** 					++sys_time.month;
 366              		.loc 1 80 0
 367 0118 0121     		movs	r1, #1
  81:../../source/src/kernel/OS_CORE/os_time.c **** 					if(sys_time.month == 13)
 368              		.loc 1 81 0
 369 011a 0C44     		add	r4, r4, r1
 370 011c E4B2     		uxtb	r4, r4
  82:../../source/src/kernel/OS_CORE/os_time.c **** 					{
 371              		.loc 1 82 0
 372 011e 0D2C     		cmp	r4, #13
  80:../../source/src/kernel/OS_CORE/os_time.c **** 					++sys_time.month;
 373              		.loc 1 80 0
 374 0120 D170     		strb	r1, [r2, #3]
  82:../../source/src/kernel/OS_CORE/os_time.c **** 					{
 375              		.loc 1 82 0
 376 0122 05D0     		beq	.L25
  81:../../source/src/kernel/OS_CORE/os_time.c **** 					if(sys_time.month == 13)
 377              		.loc 1 81 0
 378 0124 1471     		strb	r4, [r2, #4]
 379              	.L24:
  88:../../source/src/kernel/OS_CORE/os_time.c **** 				{
 380              		.loc 1 88 0
 381 0126 082B     		cmp	r3, #8
  90:../../source/src/kernel/OS_CORE/os_time.c **** 				}
 382              		.loc 1 90 0
 383 0128 04BF     		itt	eq
 384 012a 0123     		moveq	r3, #1
 385 012c 5371     		strbeq	r3, [r2, #5]
  95:../../source/src/kernel/OS_CORE/os_time.c **** 
ARM GAS  G:\Users\Jaxb\AppData\Local\Temp\cc28WVH2.s 			page 11


 386              		.loc 1 95 0
 387 012e CFE7     		b	.L17
 388              	.L25:
  85:../../source/src/kernel/OS_CORE/os_time.c **** 					}
 389              		.loc 1 85 0
 390 0130 D088     		ldrh	r0, [r2, #6]
  84:../../source/src/kernel/OS_CORE/os_time.c **** 						++sys_time.year;
 391              		.loc 1 84 0
 392 0132 1171     		strb	r1, [r2, #4]
  85:../../source/src/kernel/OS_CORE/os_time.c **** 					}
 393              		.loc 1 85 0
 394 0134 411C     		adds	r1, r0, #1
 395 0136 D180     		strh	r1, [r2, #6]	@ movhi
 396 0138 F5E7     		b	.L24
 397              	.L28:
 398 013a 00BF     		.align	2
 399              	.L27:
 400 013c 00000000 		.word	.LANCHOR0
 401 0140 00000000 		.word	.LANCHOR1
 402              		.cfi_endproc
 403              	.LFE2:
 404              		.size	system_time_increase, .-system_time_increase
 405              		.global	__rtmsym_set_time
 406              		.global	__rtmsym_set_time_name
 407              		.global	__rtmsym_system_time_display
 408              		.global	__rtmsym_system_time_display_name
 409              		.global	__rtmsym___init_system_time
 410              		.global	__rtmsym___init_system_time_name
 411              		.global	__rtmsym_get_tick
 412              		.global	__rtmsym_get_tick_name
 413              		.global	g_time_tick_count
 414              		.section	.rodata
 415              		.align	2
 416              		.set	.LANCHOR1,. + 0
 417              		.type	month_date_table, %object
 418              		.size	month_date_table, 12
 419              	month_date_table:
 420 0000 1F       		.byte	31
 421 0001 1C       		.byte	28
 422 0002 1F       		.byte	31
 423 0003 1E       		.byte	30
 424 0004 1F       		.byte	31
 425 0005 1E       		.byte	30
 426 0006 1F       		.byte	31
 427 0007 1F       		.byte	31
 428 0008 1E       		.byte	30
 429 0009 1F       		.byte	31
 430 000a 1E       		.byte	30
 431 000b 1F       		.byte	31
 432              		.bss
 433              		.align	3
 434              		.set	.LANCHOR0,. + 0
 435              		.type	sys_time, %object
 436              		.size	sys_time, 8
 437              	sys_time:
 438 0000 00000000 		.space	8
 438      00000000 
ARM GAS  G:\Users\Jaxb\AppData\Local\Temp\cc28WVH2.s 			page 12


 439              		.type	g_time_tick_count, %object
 440              		.size	g_time_tick_count, 8
 441              	g_time_tick_count:
 442 0008 00000000 		.space	8
 442      00000000 
 443              		.section	.RTMSymTab,"a",%progbits
 444              		.align	2
 445              		.type	__rtmsym_set_time, %object
 446              		.size	__rtmsym_set_time, 8
 447              	__rtmsym_set_time:
 448 0000 00000000 		.word	set_time
 449 0004 00000000 		.word	__rtmsym_set_time_name
 450              		.type	__rtmsym_system_time_display, %object
 451              		.size	__rtmsym_system_time_display, 8
 452              	__rtmsym_system_time_display:
 453 0008 00000000 		.word	system_time_display
 454 000c 00000000 		.word	__rtmsym_system_time_display_name
 455              		.type	__rtmsym___init_system_time, %object
 456              		.size	__rtmsym___init_system_time, 8
 457              	__rtmsym___init_system_time:
 458 0010 00000000 		.word	__init_system_time
 459 0014 00000000 		.word	__rtmsym___init_system_time_name
 460              		.type	__rtmsym_get_tick, %object
 461              		.size	__rtmsym_get_tick, 8
 462              	__rtmsym_get_tick:
 463 0018 00000000 		.word	get_tick
 464 001c 00000000 		.word	__rtmsym_get_tick_name
 465              		.section	.rodata.name,"a",%progbits
 466              		.align	2
 467              		.type	__rtmsym_set_time_name, %object
 468              		.size	__rtmsym_set_time_name, 9
 469              	__rtmsym_set_time_name:
 470 0000 7365745F 		.ascii	"set_time\000"
 470      74696D65 
 470      00
 471 0009 000000   		.space	3
 472              		.type	__rtmsym_system_time_display_name, %object
 473              		.size	__rtmsym_system_time_display_name, 20
 474              	__rtmsym_system_time_display_name:
 475 000c 73797374 		.ascii	"system_time_display\000"
 475      656D5F74 
 475      696D655F 
 475      64697370 
 475      6C617900 
 476              		.type	__rtmsym___init_system_time_name, %object
 477              		.size	__rtmsym___init_system_time_name, 19
 478              	__rtmsym___init_system_time_name:
 479 0020 5F5F696E 		.ascii	"__init_system_time\000"
 479      69745F73 
 479      79737465 
 479      6D5F7469 
 479      6D6500
 480 0033 00       		.space	1
 481              		.type	__rtmsym_get_tick_name, %object
 482              		.size	__rtmsym_get_tick_name, 9
 483              	__rtmsym_get_tick_name:
 484 0034 6765745F 		.ascii	"get_tick\000"
ARM GAS  G:\Users\Jaxb\AppData\Local\Temp\cc28WVH2.s 			page 13


 484      7469636B 
 484      00
 485              		.section	.rodata.str1.4,"aMS",%progbits,1
 486              		.align	2
 487              	.LC0:
 488 0000 2564E5B9 		.ascii	"%d\345\271\264%d\346\234\210%d\346\227\245--%d\346\227"
 488      B42564E6 
 488      9C882564 
 488      E697A52D 
 488      2D2564E6 
 489 0015 B62564E5 		.ascii	"\266%d\345\210\206%d\347\247\222--\346\230\237\346\234"
 489      88862564 
 489      E7A7922D 
 489      2DE6989F 
 489      E69C
 490 0027 9F25640D 		.ascii	"\237%d\015\012\000"
 490      0A00
 491 002d 000000   		.space	3
 492              	.LC1:
 493 0030 2E2E2F2E 		.ascii	"../../source/src/kernel/OS_CORE/os_time.c\000"
 493      2E2F736F 
 493      75726365 
 493      2F737263 
 493      2F6B6572 
 494 005a 0000     		.space	2
 495              	.LC2:
 496 005c 6572726F 		.ascii	"error fun name : set_time\012error para : time_ptr\012"
 496      72206675 
 496      6E206E61 
 496      6D65203A 
 496      20736574 
 497 008c 00       		.ascii	"\000"
 498              		.text
 499              	.Letext0:
 500              		.file 2 "../../source/include/os_cpu/kakaosstdint.h"
 501              		.file 3 "../../source/include/os_core/os_time.h"
 502              		.file 4 "../../source/include/os_cpu/os_cpu_stm32.h"
 503              		.file 5 "../../source/include/os_core/export.h"
 504              		.file 6 "../../source/include/os_lib/myassert.h"
 505              		.file 7 "../../source/include/os_lib/myMicroLIB.h"